   1              	 .syntax unified
   2              	 .cpu cortex-m4
   3              	 .eabi_attribute 27,3
   4              	 .fpu fpv4-sp-d16
   5              	 .eabi_attribute 20,1
   6              	 .eabi_attribute 21,1
   7              	 .eabi_attribute 23,3
   8              	 .eabi_attribute 24,1
   9              	 .eabi_attribute 25,1
  10              	 .eabi_attribute 26,1
  11              	 .eabi_attribute 30,4
  12              	 .eabi_attribute 34,1
  13              	 .eabi_attribute 18,4
  14              	 .thumb
  15              	 .file "usbd_endpoint_stream_xmc4000.c"
  16              	 .text
  17              	.Ltext0:
  18              	 .cfi_sections .debug_frame
  19              	 .section .text.Endpoint_Write_Stream_LE,"ax",%progbits
  20              	 .align 1
  21              	 .global Endpoint_Write_Stream_LE
  22              	 .thumb
  23              	 .thumb_func
  25              	Endpoint_Write_Stream_LE:
  26              	.LFB186:
  27              	 .file 1 "C:/Users/Yushev/git/optiga-trust-qi/projects/xmc4700_relax_kit/common/Dave/Generated/USBD/usb/core/xmc4000/usbd_endpoint_stream_xmc4000.c"
   1:C:/Users/Yushev/git/optiga-trust-qi/projects/xmc4700_relax_kit/common/Dave/Generated/USBD/usb/core/xmc4000\usbd_endpoint_stream_xmc4000.c **** /**
   2:C:/Users/Yushev/git/optiga-trust-qi/projects/xmc4700_relax_kit/common/Dave/Generated/USBD/usb/core/xmc4000\usbd_endpoint_stream_xmc4000.c ****  * @file usbd_endpoint_stream_xmc4000.c
   3:C:/Users/Yushev/git/optiga-trust-qi/projects/xmc4700_relax_kit/common/Dave/Generated/USBD/usb/core/xmc4000\usbd_endpoint_stream_xmc4000.c ****  * @date 2015-06-20 
   4:C:/Users/Yushev/git/optiga-trust-qi/projects/xmc4700_relax_kit/common/Dave/Generated/USBD/usb/core/xmc4000\usbd_endpoint_stream_xmc4000.c ****  * NOTE:
   5:C:/Users/Yushev/git/optiga-trust-qi/projects/xmc4700_relax_kit/common/Dave/Generated/USBD/usb/core/xmc4000\usbd_endpoint_stream_xmc4000.c ****  * This file is generated by DAVE. Any manual modification done to this file will be lost when the 
   6:C:/Users/Yushev/git/optiga-trust-qi/projects/xmc4700_relax_kit/common/Dave/Generated/USBD/usb/core/xmc4000\usbd_endpoint_stream_xmc4000.c ****  *
   7:C:/Users/Yushev/git/optiga-trust-qi/projects/xmc4700_relax_kit/common/Dave/Generated/USBD/usb/core/xmc4000\usbd_endpoint_stream_xmc4000.c ****  * @cond
   8:C:/Users/Yushev/git/optiga-trust-qi/projects/xmc4700_relax_kit/common/Dave/Generated/USBD/usb/core/xmc4000\usbd_endpoint_stream_xmc4000.c ****  **************************************************************************************************
   9:C:/Users/Yushev/git/optiga-trust-qi/projects/xmc4700_relax_kit/common/Dave/Generated/USBD/usb/core/xmc4000\usbd_endpoint_stream_xmc4000.c ****  * The USB core driver for XMC4000 family of controllers. It does the USB protocol handling.
  10:C:/Users/Yushev/git/optiga-trust-qi/projects/xmc4700_relax_kit/common/Dave/Generated/USBD/usb/core/xmc4000\usbd_endpoint_stream_xmc4000.c ****  *
  11:C:/Users/Yushev/git/optiga-trust-qi/projects/xmc4700_relax_kit/common/Dave/Generated/USBD/usb/core/xmc4000\usbd_endpoint_stream_xmc4000.c ****  * Copyright (c) 2015, Infineon Technologies AG
  12:C:/Users/Yushev/git/optiga-trust-qi/projects/xmc4700_relax_kit/common/Dave/Generated/USBD/usb/core/xmc4000\usbd_endpoint_stream_xmc4000.c ****  * All rights reserved.                        
  13:C:/Users/Yushev/git/optiga-trust-qi/projects/xmc4700_relax_kit/common/Dave/Generated/USBD/usb/core/xmc4000\usbd_endpoint_stream_xmc4000.c ****  *                                             
  14:C:/Users/Yushev/git/optiga-trust-qi/projects/xmc4700_relax_kit/common/Dave/Generated/USBD/usb/core/xmc4000\usbd_endpoint_stream_xmc4000.c ****  * Redistribution and use in source and binary forms, with or without modification,are permitted pr
  15:C:/Users/Yushev/git/optiga-trust-qi/projects/xmc4700_relax_kit/common/Dave/Generated/USBD/usb/core/xmc4000\usbd_endpoint_stream_xmc4000.c ****  * following conditions are met:   
  16:C:/Users/Yushev/git/optiga-trust-qi/projects/xmc4700_relax_kit/common/Dave/Generated/USBD/usb/core/xmc4000\usbd_endpoint_stream_xmc4000.c ****  *                                                                              
  17:C:/Users/Yushev/git/optiga-trust-qi/projects/xmc4700_relax_kit/common/Dave/Generated/USBD/usb/core/xmc4000\usbd_endpoint_stream_xmc4000.c ****  *   Redistributions of source code must retain the above copyright notice, this list of conditions
  18:C:/Users/Yushev/git/optiga-trust-qi/projects/xmc4700_relax_kit/common/Dave/Generated/USBD/usb/core/xmc4000\usbd_endpoint_stream_xmc4000.c ****  *   disclaimer.                        
  19:C:/Users/Yushev/git/optiga-trust-qi/projects/xmc4700_relax_kit/common/Dave/Generated/USBD/usb/core/xmc4000\usbd_endpoint_stream_xmc4000.c ****  * 
  20:C:/Users/Yushev/git/optiga-trust-qi/projects/xmc4700_relax_kit/common/Dave/Generated/USBD/usb/core/xmc4000\usbd_endpoint_stream_xmc4000.c ****  *   Redistributions in binary form must reproduce the above copyright notice, this list of conditi
  21:C:/Users/Yushev/git/optiga-trust-qi/projects/xmc4700_relax_kit/common/Dave/Generated/USBD/usb/core/xmc4000\usbd_endpoint_stream_xmc4000.c ****  *   following disclaimer in the documentation and/or other materials provided with the distributio
  22:C:/Users/Yushev/git/optiga-trust-qi/projects/xmc4700_relax_kit/common/Dave/Generated/USBD/usb/core/xmc4000\usbd_endpoint_stream_xmc4000.c ****  *                         
  23:C:/Users/Yushev/git/optiga-trust-qi/projects/xmc4700_relax_kit/common/Dave/Generated/USBD/usb/core/xmc4000\usbd_endpoint_stream_xmc4000.c ****  *   Neither the name of the copyright holders nor the names of its contributors may be used to end
  24:C:/Users/Yushev/git/optiga-trust-qi/projects/xmc4700_relax_kit/common/Dave/Generated/USBD/usb/core/xmc4000\usbd_endpoint_stream_xmc4000.c ****  *   products derived from this software without specific prior written permission. 
  25:C:/Users/Yushev/git/optiga-trust-qi/projects/xmc4700_relax_kit/common/Dave/Generated/USBD/usb/core/xmc4000\usbd_endpoint_stream_xmc4000.c ****  *                                             
  26:C:/Users/Yushev/git/optiga-trust-qi/projects/xmc4700_relax_kit/common/Dave/Generated/USBD/usb/core/xmc4000\usbd_endpoint_stream_xmc4000.c ****  * THIS SOFTWARE IS PROVIDED BY THE COPYRIGHT HOLDERS AND CONTRIBUTORS "AS IS" AND ANY EXPRESS OR I
  27:C:/Users/Yushev/git/optiga-trust-qi/projects/xmc4700_relax_kit/common/Dave/Generated/USBD/usb/core/xmc4000\usbd_endpoint_stream_xmc4000.c ****  * INCLUDING, BUT NOT LIMITED TO, THE IMPLIED WARRANTIES OF MERCHANTABILITY AND FITNESS FOR A PARTI
  28:C:/Users/Yushev/git/optiga-trust-qi/projects/xmc4700_relax_kit/common/Dave/Generated/USBD/usb/core/xmc4000\usbd_endpoint_stream_xmc4000.c ****  * DISCLAIMED. IN NO EVENT SHALL THE COPYRIGHT HOLDER OR CONTRIBUTORS BE LIABLE  FOR ANY DIRECT, IN
  29:C:/Users/Yushev/git/optiga-trust-qi/projects/xmc4700_relax_kit/common/Dave/Generated/USBD/usb/core/xmc4000\usbd_endpoint_stream_xmc4000.c ****  * SPECIAL, EXEMPLARY, OR CONSEQUENTIAL DAMAGES (INCLUDING, BUT NOT LIMITED TO, PROCUREMENT OF SUBS
  30:C:/Users/Yushev/git/optiga-trust-qi/projects/xmc4700_relax_kit/common/Dave/Generated/USBD/usb/core/xmc4000\usbd_endpoint_stream_xmc4000.c ****  * SERVICES; LOSS OF USE, DATA, OR PROFITS; OR BUSINESS INTERRUPTION) HOWEVER CAUSED AND ON ANY THE
  31:C:/Users/Yushev/git/optiga-trust-qi/projects/xmc4700_relax_kit/common/Dave/Generated/USBD/usb/core/xmc4000\usbd_endpoint_stream_xmc4000.c ****  * WHETHER IN CONTRACT, STRICT LIABILITY,OR TORT (INCLUDING NEGLIGENCE OR OTHERWISE) ARISING IN ANY
  32:C:/Users/Yushev/git/optiga-trust-qi/projects/xmc4700_relax_kit/common/Dave/Generated/USBD/usb/core/xmc4000\usbd_endpoint_stream_xmc4000.c ****  * USE OF THIS SOFTWARE, EVEN IF ADVISED OF THE POSSIBILITY OF SUCH DAMAGE.    
  33:C:/Users/Yushev/git/optiga-trust-qi/projects/xmc4700_relax_kit/common/Dave/Generated/USBD/usb/core/xmc4000\usbd_endpoint_stream_xmc4000.c ****  *                                                                              
  34:C:/Users/Yushev/git/optiga-trust-qi/projects/xmc4700_relax_kit/common/Dave/Generated/USBD/usb/core/xmc4000\usbd_endpoint_stream_xmc4000.c ****  * To improve the quality of the software, users are encouraged to share modifications, enhancement
  35:C:/Users/Yushev/git/optiga-trust-qi/projects/xmc4700_relax_kit/common/Dave/Generated/USBD/usb/core/xmc4000\usbd_endpoint_stream_xmc4000.c ****  * with Infineon Technologies AG (dave@infineon.com).        
  36:C:/Users/Yushev/git/optiga-trust-qi/projects/xmc4700_relax_kit/common/Dave/Generated/USBD/usb/core/xmc4000\usbd_endpoint_stream_xmc4000.c ****  **************************************************************************************************
  37:C:/Users/Yushev/git/optiga-trust-qi/projects/xmc4700_relax_kit/common/Dave/Generated/USBD/usb/core/xmc4000\usbd_endpoint_stream_xmc4000.c ****  *
  38:C:/Users/Yushev/git/optiga-trust-qi/projects/xmc4700_relax_kit/common/Dave/Generated/USBD/usb/core/xmc4000\usbd_endpoint_stream_xmc4000.c ****  * Change History
  39:C:/Users/Yushev/git/optiga-trust-qi/projects/xmc4700_relax_kit/common/Dave/Generated/USBD/usb/core/xmc4000\usbd_endpoint_stream_xmc4000.c ****  * --------------
  40:C:/Users/Yushev/git/optiga-trust-qi/projects/xmc4700_relax_kit/common/Dave/Generated/USBD/usb/core/xmc4000\usbd_endpoint_stream_xmc4000.c ****  *
  41:C:/Users/Yushev/git/optiga-trust-qi/projects/xmc4700_relax_kit/common/Dave/Generated/USBD/usb/core/xmc4000\usbd_endpoint_stream_xmc4000.c ****  * 2015-02-16:
  42:C:/Users/Yushev/git/optiga-trust-qi/projects/xmc4700_relax_kit/common/Dave/Generated/USBD/usb/core/xmc4000\usbd_endpoint_stream_xmc4000.c ****  *     - Initial version.      
  43:C:/Users/Yushev/git/optiga-trust-qi/projects/xmc4700_relax_kit/common/Dave/Generated/USBD/usb/core/xmc4000\usbd_endpoint_stream_xmc4000.c ****  * 2015-06-20:
  44:C:/Users/Yushev/git/optiga-trust-qi/projects/xmc4700_relax_kit/common/Dave/Generated/USBD/usb/core/xmc4000\usbd_endpoint_stream_xmc4000.c ****  *     - Updated the file header.
  45:C:/Users/Yushev/git/optiga-trust-qi/projects/xmc4700_relax_kit/common/Dave/Generated/USBD/usb/core/xmc4000\usbd_endpoint_stream_xmc4000.c ****  *     
  46:C:/Users/Yushev/git/optiga-trust-qi/projects/xmc4700_relax_kit/common/Dave/Generated/USBD/usb/core/xmc4000\usbd_endpoint_stream_xmc4000.c ****  * @endcond 
  47:C:/Users/Yushev/git/optiga-trust-qi/projects/xmc4700_relax_kit/common/Dave/Generated/USBD/usb/core/xmc4000\usbd_endpoint_stream_xmc4000.c ****  *
  48:C:/Users/Yushev/git/optiga-trust-qi/projects/xmc4700_relax_kit/common/Dave/Generated/USBD/usb/core/xmc4000\usbd_endpoint_stream_xmc4000.c ****  */
  49:C:/Users/Yushev/git/optiga-trust-qi/projects/xmc4700_relax_kit/common/Dave/Generated/USBD/usb/core/xmc4000\usbd_endpoint_stream_xmc4000.c **** /*
  50:C:/Users/Yushev/git/optiga-trust-qi/projects/xmc4700_relax_kit/common/Dave/Generated/USBD/usb/core/xmc4000\usbd_endpoint_stream_xmc4000.c ****   Copyright 2014  Dean Camera (dean [at] fourwalledcubicle [dot] com)
  51:C:/Users/Yushev/git/optiga-trust-qi/projects/xmc4700_relax_kit/common/Dave/Generated/USBD/usb/core/xmc4000\usbd_endpoint_stream_xmc4000.c **** 
  52:C:/Users/Yushev/git/optiga-trust-qi/projects/xmc4700_relax_kit/common/Dave/Generated/USBD/usb/core/xmc4000\usbd_endpoint_stream_xmc4000.c ****   Permission to use, copy, modify, distribute, and sell this
  53:C:/Users/Yushev/git/optiga-trust-qi/projects/xmc4700_relax_kit/common/Dave/Generated/USBD/usb/core/xmc4000\usbd_endpoint_stream_xmc4000.c ****   software and its documentation for any purpose is hereby granted
  54:C:/Users/Yushev/git/optiga-trust-qi/projects/xmc4700_relax_kit/common/Dave/Generated/USBD/usb/core/xmc4000\usbd_endpoint_stream_xmc4000.c ****   without fee, provided that the above copyright notice appear in
  55:C:/Users/Yushev/git/optiga-trust-qi/projects/xmc4700_relax_kit/common/Dave/Generated/USBD/usb/core/xmc4000\usbd_endpoint_stream_xmc4000.c ****   all copies and that both that the copyright notice and this
  56:C:/Users/Yushev/git/optiga-trust-qi/projects/xmc4700_relax_kit/common/Dave/Generated/USBD/usb/core/xmc4000\usbd_endpoint_stream_xmc4000.c ****   permission notice and warranty disclaimer appear in supporting
  57:C:/Users/Yushev/git/optiga-trust-qi/projects/xmc4700_relax_kit/common/Dave/Generated/USBD/usb/core/xmc4000\usbd_endpoint_stream_xmc4000.c ****   documentation, and that the name of the author not be used in
  58:C:/Users/Yushev/git/optiga-trust-qi/projects/xmc4700_relax_kit/common/Dave/Generated/USBD/usb/core/xmc4000\usbd_endpoint_stream_xmc4000.c ****   advertising or publicity pertaining to distribution of the
  59:C:/Users/Yushev/git/optiga-trust-qi/projects/xmc4700_relax_kit/common/Dave/Generated/USBD/usb/core/xmc4000\usbd_endpoint_stream_xmc4000.c ****   software without specific, written prior permission.
  60:C:/Users/Yushev/git/optiga-trust-qi/projects/xmc4700_relax_kit/common/Dave/Generated/USBD/usb/core/xmc4000\usbd_endpoint_stream_xmc4000.c **** 
  61:C:/Users/Yushev/git/optiga-trust-qi/projects/xmc4700_relax_kit/common/Dave/Generated/USBD/usb/core/xmc4000\usbd_endpoint_stream_xmc4000.c ****   The author disclaims all warranties with regard to this
  62:C:/Users/Yushev/git/optiga-trust-qi/projects/xmc4700_relax_kit/common/Dave/Generated/USBD/usb/core/xmc4000\usbd_endpoint_stream_xmc4000.c ****   software, including all implied warranties of merchantability
  63:C:/Users/Yushev/git/optiga-trust-qi/projects/xmc4700_relax_kit/common/Dave/Generated/USBD/usb/core/xmc4000\usbd_endpoint_stream_xmc4000.c ****   and fitness.  In no event shall the author be liable for any
  64:C:/Users/Yushev/git/optiga-trust-qi/projects/xmc4700_relax_kit/common/Dave/Generated/USBD/usb/core/xmc4000\usbd_endpoint_stream_xmc4000.c ****   special, indirect or consequential damages or any damages
  65:C:/Users/Yushev/git/optiga-trust-qi/projects/xmc4700_relax_kit/common/Dave/Generated/USBD/usb/core/xmc4000\usbd_endpoint_stream_xmc4000.c ****   whatsoever resulting from loss of use, data or profits, whether
  66:C:/Users/Yushev/git/optiga-trust-qi/projects/xmc4700_relax_kit/common/Dave/Generated/USBD/usb/core/xmc4000\usbd_endpoint_stream_xmc4000.c ****   in an action of contract, negligence or other tortious action,
  67:C:/Users/Yushev/git/optiga-trust-qi/projects/xmc4700_relax_kit/common/Dave/Generated/USBD/usb/core/xmc4000\usbd_endpoint_stream_xmc4000.c ****   arising out of or in connection with the use or performance of
  68:C:/Users/Yushev/git/optiga-trust-qi/projects/xmc4700_relax_kit/common/Dave/Generated/USBD/usb/core/xmc4000\usbd_endpoint_stream_xmc4000.c ****   this software.
  69:C:/Users/Yushev/git/optiga-trust-qi/projects/xmc4700_relax_kit/common/Dave/Generated/USBD/usb/core/xmc4000\usbd_endpoint_stream_xmc4000.c **** */
  70:C:/Users/Yushev/git/optiga-trust-qi/projects/xmc4700_relax_kit/common/Dave/Generated/USBD/usb/core/xmc4000\usbd_endpoint_stream_xmc4000.c **** 
  71:C:/Users/Yushev/git/optiga-trust-qi/projects/xmc4700_relax_kit/common/Dave/Generated/USBD/usb/core/xmc4000\usbd_endpoint_stream_xmc4000.c **** #include "../../../usbd.h"
  72:C:/Users/Yushev/git/optiga-trust-qi/projects/xmc4700_relax_kit/common/Dave/Generated/USBD/usb/core/xmc4000\usbd_endpoint_stream_xmc4000.c **** #include "usbd_endpoint_stream_xmc4000.h"
  73:C:/Users/Yushev/git/optiga-trust-qi/projects/xmc4700_relax_kit/common/Dave/Generated/USBD/usb/core/xmc4000\usbd_endpoint_stream_xmc4000.c **** #include "../endpoint_stream.h"
  74:C:/Users/Yushev/git/optiga-trust-qi/projects/xmc4700_relax_kit/common/Dave/Generated/USBD/usb/core/xmc4000\usbd_endpoint_stream_xmc4000.c **** #include "../endpoint.h"
  75:C:/Users/Yushev/git/optiga-trust-qi/projects/xmc4700_relax_kit/common/Dave/Generated/USBD/usb/core/xmc4000\usbd_endpoint_stream_xmc4000.c **** 
  76:C:/Users/Yushev/git/optiga-trust-qi/projects/xmc4700_relax_kit/common/Dave/Generated/USBD/usb/core/xmc4000\usbd_endpoint_stream_xmc4000.c **** /*Flag to indicate the zlp to be sent or not*/
  77:C:/Users/Yushev/git/optiga-trust-qi/projects/xmc4700_relax_kit/common/Dave/Generated/USBD/usb/core/xmc4000\usbd_endpoint_stream_xmc4000.c **** volatile uint8_t zlp_flag = 0;
  78:C:/Users/Yushev/git/optiga-trust-qi/projects/xmc4700_relax_kit/common/Dave/Generated/USBD/usb/core/xmc4000\usbd_endpoint_stream_xmc4000.c **** 
  79:C:/Users/Yushev/git/optiga-trust-qi/projects/xmc4700_relax_kit/common/Dave/Generated/USBD/usb/core/xmc4000\usbd_endpoint_stream_xmc4000.c **** uint8_t Endpoint_Write_Stream_LE (const void *const Buffer, uint16_t Length,
  80:C:/Users/Yushev/git/optiga-trust-qi/projects/xmc4700_relax_kit/common/Dave/Generated/USBD/usb/core/xmc4000\usbd_endpoint_stream_xmc4000.c **** 											uint16_t *const BytesProcessed)
  81:C:/Users/Yushev/git/optiga-trust-qi/projects/xmc4700_relax_kit/common/Dave/Generated/USBD/usb/core/xmc4000\usbd_endpoint_stream_xmc4000.c **** {
  28              	 .loc 1 81 0
  29              	 .cfi_startproc
  30              	 
  31              	 
  32              	.LVL0:
  33 0000 2DE9F84F 	 push {r3,r4,r5,r6,r7,r8,r9,r10,fp,lr}
  34              	.LCFI0:
  35              	 .cfi_def_cfa_offset 40
  36              	 .cfi_offset 3,-40
  37              	 .cfi_offset 4,-36
  38              	 .cfi_offset 5,-32
  39              	 .cfi_offset 6,-28
  40              	 .cfi_offset 7,-24
  41              	 .cfi_offset 8,-20
  42              	 .cfi_offset 9,-16
  43              	 .cfi_offset 10,-12
  44              	 .cfi_offset 11,-8
  45              	 .cfi_offset 14,-4
  82:C:/Users/Yushev/git/optiga-trust-qi/projects/xmc4700_relax_kit/common/Dave/Generated/USBD/usb/core/xmc4000\usbd_endpoint_stream_xmc4000.c **** 	USBD_Endpoint_t* ep = &device.Endpoints[device.CurrentEndpoint];
  46              	 .loc 1 82 0
  47 0004 264B     	 ldr r3,.L22
  81:C:/Users/Yushev/git/optiga-trust-qi/projects/xmc4700_relax_kit/common/Dave/Generated/USBD/usb/core/xmc4000\usbd_endpoint_stream_xmc4000.c **** 	USBD_Endpoint_t* ep = &device.Endpoints[device.CurrentEndpoint];
  48              	 .loc 1 81 0
  49 0006 8246     	 mov r10,r0
  50 0008 0D46     	 mov r5,r1
  51              	 .loc 1 82 0
  52 000a 93F83C91 	 ldrb r9,[r3,#316]
  53              	.LVL1:
  83:C:/Users/Yushev/git/optiga-trust-qi/projects/xmc4700_relax_kit/common/Dave/Generated/USBD/usb/core/xmc4000\usbd_endpoint_stream_xmc4000.c **** 	uint16_t Bytes = 0;
  84:C:/Users/Yushev/git/optiga-trust-qi/projects/xmc4700_relax_kit/common/Dave/Generated/USBD/usb/core/xmc4000\usbd_endpoint_stream_xmc4000.c **** 	uint16_t BytesTransfered = 0;
  85:C:/Users/Yushev/git/optiga-trust-qi/projects/xmc4700_relax_kit/common/Dave/Generated/USBD/usb/core/xmc4000\usbd_endpoint_stream_xmc4000.c **** 	uint8_t ErrorCode;
  86:C:/Users/Yushev/git/optiga-trust-qi/projects/xmc4700_relax_kit/common/Dave/Generated/USBD/usb/core/xmc4000\usbd_endpoint_stream_xmc4000.c **** 
  87:C:/Users/Yushev/git/optiga-trust-qi/projects/xmc4700_relax_kit/common/Dave/Generated/USBD/usb/core/xmc4000\usbd_endpoint_stream_xmc4000.c **** 	if (BytesProcessed!=NULL) 
  54              	 .loc 1 87 0
  55 000e 1746     	 mov r7,r2
  56 0010 9846     	 mov r8,r3
  57 0012 12B1     	 cbz r2,.L11
  88:C:/Users/Yushev/git/optiga-trust-qi/projects/xmc4700_relax_kit/common/Dave/Generated/USBD/usb/core/xmc4000\usbd_endpoint_stream_xmc4000.c **** 	{
  89:C:/Users/Yushev/git/optiga-trust-qi/projects/xmc4700_relax_kit/common/Dave/Generated/USBD/usb/core/xmc4000\usbd_endpoint_stream_xmc4000.c **** 		Length -= *BytesProcessed;
  58              	 .loc 1 89 0
  59 0014 1688     	 ldrh r6,[r2]
  60 0016 8C1B     	 subs r4,r1,r6
  61 0018 36E0     	 b .L18
  62              	.L11:
  84:C:/Users/Yushev/git/optiga-trust-qi/projects/xmc4700_relax_kit/common/Dave/Generated/USBD/usb/core/xmc4000\usbd_endpoint_stream_xmc4000.c **** 	uint8_t ErrorCode;
  63              	 .loc 1 84 0
  64 001a 1646     	 mov r6,r2
  65 001c 0AE0     	 b .L4
  66              	.LVL2:
  67              	.L5:
  90:C:/Users/Yushev/git/optiga-trust-qi/projects/xmc4700_relax_kit/common/Dave/Generated/USBD/usb/core/xmc4000\usbd_endpoint_stream_xmc4000.c **** 		BytesTransfered = *BytesProcessed;
  91:C:/Users/Yushev/git/optiga-trust-qi/projects/xmc4700_relax_kit/common/Dave/Generated/USBD/usb/core/xmc4000\usbd_endpoint_stream_xmc4000.c **** 	}
  92:C:/Users/Yushev/git/optiga-trust-qi/projects/xmc4700_relax_kit/common/Dave/Generated/USBD/usb/core/xmc4000\usbd_endpoint_stream_xmc4000.c **** 
  93:C:/Users/Yushev/git/optiga-trust-qi/projects/xmc4700_relax_kit/common/Dave/Generated/USBD/usb/core/xmc4000\usbd_endpoint_stream_xmc4000.c **** 	while (Length) 
  94:C:/Users/Yushev/git/optiga-trust-qi/projects/xmc4700_relax_kit/common/Dave/Generated/USBD/usb/core/xmc4000\usbd_endpoint_stream_xmc4000.c **** 	{
  95:C:/Users/Yushev/git/optiga-trust-qi/projects/xmc4700_relax_kit/common/Dave/Generated/USBD/usb/core/xmc4000\usbd_endpoint_stream_xmc4000.c **** 		if (ep->InInUse)
  96:C:/Users/Yushev/git/optiga-trust-qi/projects/xmc4700_relax_kit/common/Dave/Generated/USBD/usb/core/xmc4000\usbd_endpoint_stream_xmc4000.c **** 		{
  97:C:/Users/Yushev/git/optiga-trust-qi/projects/xmc4700_relax_kit/common/Dave/Generated/USBD/usb/core/xmc4000\usbd_endpoint_stream_xmc4000.c **** 			continue;
  98:C:/Users/Yushev/git/optiga-trust-qi/projects/xmc4700_relax_kit/common/Dave/Generated/USBD/usb/core/xmc4000\usbd_endpoint_stream_xmc4000.c **** 		}
  99:C:/Users/Yushev/git/optiga-trust-qi/projects/xmc4700_relax_kit/common/Dave/Generated/USBD/usb/core/xmc4000\usbd_endpoint_stream_xmc4000.c **** 		if (Endpoint_IsReadWriteAllowed()) 
 100:C:/Users/Yushev/git/optiga-trust-qi/projects/xmc4700_relax_kit/common/Dave/Generated/USBD/usb/core/xmc4000\usbd_endpoint_stream_xmc4000.c **** 		{
 101:C:/Users/Yushev/git/optiga-trust-qi/projects/xmc4700_relax_kit/common/Dave/Generated/USBD/usb/core/xmc4000\usbd_endpoint_stream_xmc4000.c **** 			if((ep->InBufferLength - ep->InBytesAvailable)  > Length)
 102:C:/Users/Yushev/git/optiga-trust-qi/projects/xmc4700_relax_kit/common/Dave/Generated/USBD/usb/core/xmc4000\usbd_endpoint_stream_xmc4000.c **** 			{
 103:C:/Users/Yushev/git/optiga-trust-qi/projects/xmc4700_relax_kit/common/Dave/Generated/USBD/usb/core/xmc4000\usbd_endpoint_stream_xmc4000.c **** 				Bytes = Length;
 104:C:/Users/Yushev/git/optiga-trust-qi/projects/xmc4700_relax_kit/common/Dave/Generated/USBD/usb/core/xmc4000\usbd_endpoint_stream_xmc4000.c **** 			}
 105:C:/Users/Yushev/git/optiga-trust-qi/projects/xmc4700_relax_kit/common/Dave/Generated/USBD/usb/core/xmc4000\usbd_endpoint_stream_xmc4000.c **** 			else
 106:C:/Users/Yushev/git/optiga-trust-qi/projects/xmc4700_relax_kit/common/Dave/Generated/USBD/usb/core/xmc4000\usbd_endpoint_stream_xmc4000.c **** 			{
 107:C:/Users/Yushev/git/optiga-trust-qi/projects/xmc4700_relax_kit/common/Dave/Generated/USBD/usb/core/xmc4000\usbd_endpoint_stream_xmc4000.c **** 				Bytes = (ep->InBufferLength - ep->InBytesAvailable);
 108:C:/Users/Yushev/git/optiga-trust-qi/projects/xmc4700_relax_kit/common/Dave/Generated/USBD/usb/core/xmc4000\usbd_endpoint_stream_xmc4000.c **** 			}
 109:C:/Users/Yushev/git/optiga-trust-qi/projects/xmc4700_relax_kit/common/Dave/Generated/USBD/usb/core/xmc4000\usbd_endpoint_stream_xmc4000.c **** 			memcpy(ep->InBuffer + ep->InBytesAvailable,(uint8_t*)Buffer + BytesTransfered,Bytes);
 110:C:/Users/Yushev/git/optiga-trust-qi/projects/xmc4700_relax_kit/common/Dave/Generated/USBD/usb/core/xmc4000\usbd_endpoint_stream_xmc4000.c **** 			ep->InBytesAvailable += Bytes;
 111:C:/Users/Yushev/git/optiga-trust-qi/projects/xmc4700_relax_kit/common/Dave/Generated/USBD/usb/core/xmc4000\usbd_endpoint_stream_xmc4000.c **** 			BytesTransfered += Bytes;
 112:C:/Users/Yushev/git/optiga-trust-qi/projects/xmc4700_relax_kit/common/Dave/Generated/USBD/usb/core/xmc4000\usbd_endpoint_stream_xmc4000.c **** 			Length -= Bytes;
 113:C:/Users/Yushev/git/optiga-trust-qi/projects/xmc4700_relax_kit/common/Dave/Generated/USBD/usb/core/xmc4000\usbd_endpoint_stream_xmc4000.c **** 		}
 114:C:/Users/Yushev/git/optiga-trust-qi/projects/xmc4700_relax_kit/common/Dave/Generated/USBD/usb/core/xmc4000\usbd_endpoint_stream_xmc4000.c **** 		else 
 115:C:/Users/Yushev/git/optiga-trust-qi/projects/xmc4700_relax_kit/common/Dave/Generated/USBD/usb/core/xmc4000\usbd_endpoint_stream_xmc4000.c **** 		{
 116:C:/Users/Yushev/git/optiga-trust-qi/projects/xmc4700_relax_kit/common/Dave/Generated/USBD/usb/core/xmc4000\usbd_endpoint_stream_xmc4000.c **** 			Endpoint_ClearIN();
  68              	 .loc 1 116 0
  69 001e FFF7FEFF 	 bl Endpoint_ClearIN
  70              	.LVL3:
 117:C:/Users/Yushev/git/optiga-trust-qi/projects/xmc4700_relax_kit/common/Dave/Generated/USBD/usb/core/xmc4000\usbd_endpoint_stream_xmc4000.c **** 			if(Length < ep->MaxPacketSize)
  71              	 .loc 1 117 0
  72 0022 BBF80830 	 ldrh r3,[fp,#8]
  73 0026 C3F38613 	 ubfx r3,r3,#6,#7
  74 002a 9D42     	 cmp r5,r3
  75 002c 2EDB     	 blt .L20
  76              	.L8:
 118:C:/Users/Yushev/git/optiga-trust-qi/projects/xmc4700_relax_kit/common/Dave/Generated/USBD/usb/core/xmc4000\usbd_endpoint_stream_xmc4000.c **** 			{
 119:C:/Users/Yushev/git/optiga-trust-qi/projects/xmc4700_relax_kit/common/Dave/Generated/USBD/usb/core/xmc4000\usbd_endpoint_stream_xmc4000.c **** 				if (BytesProcessed!=NULL) 
 120:C:/Users/Yushev/git/optiga-trust-qi/projects/xmc4700_relax_kit/common/Dave/Generated/USBD/usb/core/xmc4000\usbd_endpoint_stream_xmc4000.c **** 				{
 121:C:/Users/Yushev/git/optiga-trust-qi/projects/xmc4700_relax_kit/common/Dave/Generated/USBD/usb/core/xmc4000\usbd_endpoint_stream_xmc4000.c **** 					*BytesProcessed = BytesTransfered;
 122:C:/Users/Yushev/git/optiga-trust-qi/projects/xmc4700_relax_kit/common/Dave/Generated/USBD/usb/core/xmc4000\usbd_endpoint_stream_xmc4000.c **** 					return ENDPOINT_RWSTREAM_IncompleteTransfer;
 123:C:/Users/Yushev/git/optiga-trust-qi/projects/xmc4700_relax_kit/common/Dave/Generated/USBD/usb/core/xmc4000\usbd_endpoint_stream_xmc4000.c **** 				}
 124:C:/Users/Yushev/git/optiga-trust-qi/projects/xmc4700_relax_kit/common/Dave/Generated/USBD/usb/core/xmc4000\usbd_endpoint_stream_xmc4000.c **** 			}
 125:C:/Users/Yushev/git/optiga-trust-qi/projects/xmc4700_relax_kit/common/Dave/Generated/USBD/usb/core/xmc4000\usbd_endpoint_stream_xmc4000.c **** 
 126:C:/Users/Yushev/git/optiga-trust-qi/projects/xmc4700_relax_kit/common/Dave/Generated/USBD/usb/core/xmc4000\usbd_endpoint_stream_xmc4000.c **** 			ErrorCode = Endpoint_WaitUntilReady();
  77              	 .loc 1 126 0
  78 002e FFF7FEFF 	 bl Endpoint_WaitUntilReady
  79              	.LVL4:
 127:C:/Users/Yushev/git/optiga-trust-qi/projects/xmc4700_relax_kit/common/Dave/Generated/USBD/usb/core/xmc4000\usbd_endpoint_stream_xmc4000.c **** 			if (ErrorCode) 
  80              	 .loc 1 127 0
  81 0032 90BB     	 cbnz r0,.L9
  82              	.LVL5:
  83              	.L4:
  93:C:/Users/Yushev/git/optiga-trust-qi/projects/xmc4700_relax_kit/common/Dave/Generated/USBD/usb/core/xmc4000\usbd_endpoint_stream_xmc4000.c **** 	{
  84              	 .loc 1 93 0
  85 0034 85B3     	 cbz r5,.L21
  95:C:/Users/Yushev/git/optiga-trust-qi/projects/xmc4700_relax_kit/common/Dave/Generated/USBD/usb/core/xmc4000\usbd_endpoint_stream_xmc4000.c **** 		{
  86              	 .loc 1 95 0
  87 0036 4FF02C0B 	 mov fp,#44
  88 003a 0BFB098B 	 mla fp,fp,r9,r8
  89 003e DBF80830 	 ldr r3,[fp,#8]
  90 0042 DB06     	 lsls r3,r3,#27
  91 0044 F6D4     	 bmi .L4
  99:C:/Users/Yushev/git/optiga-trust-qi/projects/xmc4700_relax_kit/common/Dave/Generated/USBD/usb/core/xmc4000\usbd_endpoint_stream_xmc4000.c **** 		{
  92              	 .loc 1 99 0
  93 0046 FFF7FEFF 	 bl Endpoint_IsReadWriteAllowed
  94              	.LVL6:
  95 004a 0028     	 cmp r0,#0
  96 004c E7D0     	 beq .L5
 101:C:/Users/Yushev/git/optiga-trust-qi/projects/xmc4700_relax_kit/common/Dave/Generated/USBD/usb/core/xmc4000\usbd_endpoint_stream_xmc4000.c **** 			{
  97              	 .loc 1 101 0
  98 004e DBF81C30 	 ldr r3,[fp,#28]
  99 0052 DBF82440 	 ldr r4,[fp,#36]
 109:C:/Users/Yushev/git/optiga-trust-qi/projects/xmc4700_relax_kit/common/Dave/Generated/USBD/usb/core/xmc4000\usbd_endpoint_stream_xmc4000.c **** 			ep->InBytesAvailable += Bytes;
 100              	 .loc 1 109 0
 101 0056 4FF02C0B 	 mov fp,#44
 102 005a 0BFB098B 	 mla fp,fp,r9,r8
 101:C:/Users/Yushev/git/optiga-trust-qi/projects/xmc4700_relax_kit/common/Dave/Generated/USBD/usb/core/xmc4000\usbd_endpoint_stream_xmc4000.c **** 			{
 103              	 .loc 1 101 0
 104 005e E41A     	 subs r4,r4,r3
 105 0060 AC42     	 cmp r4,r5
 109:C:/Users/Yushev/git/optiga-trust-qi/projects/xmc4700_relax_kit/common/Dave/Generated/USBD/usb/core/xmc4000\usbd_endpoint_stream_xmc4000.c **** 			ep->InBytesAvailable += Bytes;
 106              	 .loc 1 109 0
 107 0062 DBF82000 	 ldr r0,[fp,#32]
 107:C:/Users/Yushev/git/optiga-trust-qi/projects/xmc4700_relax_kit/common/Dave/Generated/USBD/usb/core/xmc4000\usbd_endpoint_stream_xmc4000.c **** 			}
 108              	 .loc 1 107 0
 109 0066 94BF     	 ite ls
 110 0068 A4B2     	 uxthls r4,r4
 111              	.LVL7:
 112 006a 2C46     	 movhi r4,r5
 113              	.LVL8:
 109:C:/Users/Yushev/git/optiga-trust-qi/projects/xmc4700_relax_kit/common/Dave/Generated/USBD/usb/core/xmc4000\usbd_endpoint_stream_xmc4000.c **** 			ep->InBytesAvailable += Bytes;
 114              	 .loc 1 109 0
 115 006c 1844     	 add r0,r0,r3
 116 006e 0AEB0601 	 add r1,r10,r6
 117 0072 2246     	 mov r2,r4
 118 0074 FFF7FEFF 	 bl memcpy
 119              	.LVL9:
 110:C:/Users/Yushev/git/optiga-trust-qi/projects/xmc4700_relax_kit/common/Dave/Generated/USBD/usb/core/xmc4000\usbd_endpoint_stream_xmc4000.c **** 			BytesTransfered += Bytes;
 120              	 .loc 1 110 0
 121 0078 DBF81C30 	 ldr r3,[fp,#28]
 111:C:/Users/Yushev/git/optiga-trust-qi/projects/xmc4700_relax_kit/common/Dave/Generated/USBD/usb/core/xmc4000\usbd_endpoint_stream_xmc4000.c **** 			Length -= Bytes;
 122              	 .loc 1 111 0
 123 007c 2644     	 add r6,r6,r4
 110:C:/Users/Yushev/git/optiga-trust-qi/projects/xmc4700_relax_kit/common/Dave/Generated/USBD/usb/core/xmc4000\usbd_endpoint_stream_xmc4000.c **** 			BytesTransfered += Bytes;
 124              	 .loc 1 110 0
 125 007e 2344     	 add r3,r3,r4
 126 0080 CBF81C30 	 str r3,[fp,#28]
 111:C:/Users/Yushev/git/optiga-trust-qi/projects/xmc4700_relax_kit/common/Dave/Generated/USBD/usb/core/xmc4000\usbd_endpoint_stream_xmc4000.c **** 			Length -= Bytes;
 127              	 .loc 1 111 0
 128 0084 B6B2     	 uxth r6,r6
 129              	.LVL10:
 112:C:/Users/Yushev/git/optiga-trust-qi/projects/xmc4700_relax_kit/common/Dave/Generated/USBD/usb/core/xmc4000\usbd_endpoint_stream_xmc4000.c **** 		}
 130              	 .loc 1 112 0
 131 0086 2C1B     	 subs r4,r5,r4
 132              	.LVL11:
 133              	.L18:
 134 0088 A5B2     	 uxth r5,r4
 135              	.LVL12:
 136 008a D3E7     	 b .L4
 137              	.L20:
 119:C:/Users/Yushev/git/optiga-trust-qi/projects/xmc4700_relax_kit/common/Dave/Generated/USBD/usb/core/xmc4000\usbd_endpoint_stream_xmc4000.c **** 				{
 138              	 .loc 1 119 0
 139 008c 002F     	 cmp r7,#0
 140 008e CED0     	 beq .L8
 121:C:/Users/Yushev/git/optiga-trust-qi/projects/xmc4700_relax_kit/common/Dave/Generated/USBD/usb/core/xmc4000\usbd_endpoint_stream_xmc4000.c **** 					return ENDPOINT_RWSTREAM_IncompleteTransfer;
 141              	 .loc 1 121 0
 142 0090 3E80     	 strh r6,[r7]
 122:C:/Users/Yushev/git/optiga-trust-qi/projects/xmc4700_relax_kit/common/Dave/Generated/USBD/usb/core/xmc4000\usbd_endpoint_stream_xmc4000.c **** 				}
 143              	 .loc 1 122 0
 144 0092 0520     	 movs r0,#5
 145 0094 BDE8F88F 	 pop {r3,r4,r5,r6,r7,r8,r9,r10,fp,pc}
 146              	.LVL13:
 147              	.L21:
 128:C:/Users/Yushev/git/optiga-trust-qi/projects/xmc4700_relax_kit/common/Dave/Generated/USBD/usb/core/xmc4000\usbd_endpoint_stream_xmc4000.c **** 			{
 129:C:/Users/Yushev/git/optiga-trust-qi/projects/xmc4700_relax_kit/common/Dave/Generated/USBD/usb/core/xmc4000\usbd_endpoint_stream_xmc4000.c **** 				return ErrorCode;
 130:C:/Users/Yushev/git/optiga-trust-qi/projects/xmc4700_relax_kit/common/Dave/Generated/USBD/usb/core/xmc4000\usbd_endpoint_stream_xmc4000.c **** 			}
 131:C:/Users/Yushev/git/optiga-trust-qi/projects/xmc4700_relax_kit/common/Dave/Generated/USBD/usb/core/xmc4000\usbd_endpoint_stream_xmc4000.c **** 		}
 132:C:/Users/Yushev/git/optiga-trust-qi/projects/xmc4700_relax_kit/common/Dave/Generated/USBD/usb/core/xmc4000\usbd_endpoint_stream_xmc4000.c **** 	}
 133:C:/Users/Yushev/git/optiga-trust-qi/projects/xmc4700_relax_kit/common/Dave/Generated/USBD/usb/core/xmc4000\usbd_endpoint_stream_xmc4000.c **** 	
 134:C:/Users/Yushev/git/optiga-trust-qi/projects/xmc4700_relax_kit/common/Dave/Generated/USBD/usb/core/xmc4000\usbd_endpoint_stream_xmc4000.c **** 	return ENDPOINT_RWSTREAM_NoError;
 148              	 .loc 1 134 0
 149 0098 2846     	 mov r0,r5
 150              	.L9:
 135:C:/Users/Yushev/git/optiga-trust-qi/projects/xmc4700_relax_kit/common/Dave/Generated/USBD/usb/core/xmc4000\usbd_endpoint_stream_xmc4000.c **** }
 151              	 .loc 1 135 0
 152 009a BDE8F88F 	 pop {r3,r4,r5,r6,r7,r8,r9,r10,fp,pc}
 153              	.LVL14:
 154              	.L23:
 155 009e 00BF     	 .align 2
 156              	.L22:
 157 00a0 00000000 	 .word device
 158              	 .cfi_endproc
 159              	.LFE186:
 161              	 .section .text.SwapCopy,"ax",%progbits
 162              	 .align 1
 163              	 .global SwapCopy
 164              	 .thumb
 165              	 .thumb_func
 167              	SwapCopy:
 168              	.LFB187:
 136:C:/Users/Yushev/git/optiga-trust-qi/projects/xmc4700_relax_kit/common/Dave/Generated/USBD/usb/core/xmc4000\usbd_endpoint_stream_xmc4000.c **** 
 137:C:/Users/Yushev/git/optiga-trust-qi/projects/xmc4700_relax_kit/common/Dave/Generated/USBD/usb/core/xmc4000\usbd_endpoint_stream_xmc4000.c **** void SwapCopy(void *const Dest, const void *const Src,uint32_t Length) 
 138:C:/Users/Yushev/git/optiga-trust-qi/projects/xmc4700_relax_kit/common/Dave/Generated/USBD/usb/core/xmc4000\usbd_endpoint_stream_xmc4000.c **** {
 169              	 .loc 1 138 0
 170              	 .cfi_startproc
 171              	 
 172              	 
 173              	 
 174              	.LVL15:
 175 0000 0139     	 subs r1,r1,#1
 176              	.LVL16:
 177 0002 0244     	 add r2,r2,r0
 178              	.LVL17:
 179              	.L25:
 139:C:/Users/Yushev/git/optiga-trust-qi/projects/xmc4700_relax_kit/common/Dave/Generated/USBD/usb/core/xmc4000\usbd_endpoint_stream_xmc4000.c **** 	uint32_t i = 0;
 140:C:/Users/Yushev/git/optiga-trust-qi/projects/xmc4700_relax_kit/common/Dave/Generated/USBD/usb/core/xmc4000\usbd_endpoint_stream_xmc4000.c **** 	while(i<Length) {
 180              	 .loc 1 140 0
 181 0004 8242     	 cmp r2,r0
 182 0006 04D0     	 beq .L27
 141:C:/Users/Yushev/git/optiga-trust-qi/projects/xmc4700_relax_kit/common/Dave/Generated/USBD/usb/core/xmc4000\usbd_endpoint_stream_xmc4000.c **** 		*(uint8_t*)((uint8_t*)Dest + (Length - 1 - i)) =
 142:C:/Users/Yushev/git/optiga-trust-qi/projects/xmc4700_relax_kit/common/Dave/Generated/USBD/usb/core/xmc4000\usbd_endpoint_stream_xmc4000.c **** 											*(uint8_t*)((uint8_t*)Src + i);
 183              	 .loc 1 142 0
 184 0008 11F8013F 	 ldrb r3,[r1,#1]!
 185              	.LVL18:
 141:C:/Users/Yushev/git/optiga-trust-qi/projects/xmc4700_relax_kit/common/Dave/Generated/USBD/usb/core/xmc4000\usbd_endpoint_stream_xmc4000.c **** 		*(uint8_t*)((uint8_t*)Dest + (Length - 1 - i)) =
 186              	 .loc 1 141 0
 187 000c 02F8013D 	 strb r3,[r2,#-1]!
 188              	.LVL19:
 189 0010 F8E7     	 b .L25
 190              	.L27:
 143:C:/Users/Yushev/git/optiga-trust-qi/projects/xmc4700_relax_kit/common/Dave/Generated/USBD/usb/core/xmc4000\usbd_endpoint_stream_xmc4000.c **** 		i++;
 144:C:/Users/Yushev/git/optiga-trust-qi/projects/xmc4700_relax_kit/common/Dave/Generated/USBD/usb/core/xmc4000\usbd_endpoint_stream_xmc4000.c **** 	}
 145:C:/Users/Yushev/git/optiga-trust-qi/projects/xmc4700_relax_kit/common/Dave/Generated/USBD/usb/core/xmc4000\usbd_endpoint_stream_xmc4000.c **** }
 191              	 .loc 1 145 0
 192 0012 7047     	 bx lr
 193              	 .cfi_endproc
 194              	.LFE187:
 196              	 .section .text.Endpoint_Write_Stream_BE,"ax",%progbits
 197              	 .align 1
 198              	 .global Endpoint_Write_Stream_BE
 199              	 .thumb
 200              	 .thumb_func
 202              	Endpoint_Write_Stream_BE:
 203              	.LFB188:
 146:C:/Users/Yushev/git/optiga-trust-qi/projects/xmc4700_relax_kit/common/Dave/Generated/USBD/usb/core/xmc4000\usbd_endpoint_stream_xmc4000.c **** uint8_t	Endpoint_Write_Stream_BE (const void *const Buffer, uint16_t Length,
 147:C:/Users/Yushev/git/optiga-trust-qi/projects/xmc4700_relax_kit/common/Dave/Generated/USBD/usb/core/xmc4000\usbd_endpoint_stream_xmc4000.c **** 											uint16_t *const BytesProcessed)
 148:C:/Users/Yushev/git/optiga-trust-qi/projects/xmc4700_relax_kit/common/Dave/Generated/USBD/usb/core/xmc4000\usbd_endpoint_stream_xmc4000.c **** {
 204              	 .loc 1 148 0
 205              	 .cfi_startproc
 206              	 
 207              	 
 208              	.LVL20:
 209 0000 2DE9F84F 	 push {r3,r4,r5,r6,r7,r8,r9,r10,fp,lr}
 210              	.LCFI1:
 211              	 .cfi_def_cfa_offset 40
 212              	 .cfi_offset 3,-40
 213              	 .cfi_offset 4,-36
 214              	 .cfi_offset 5,-32
 215              	 .cfi_offset 6,-28
 216              	 .cfi_offset 7,-24
 217              	 .cfi_offset 8,-20
 218              	 .cfi_offset 9,-16
 219              	 .cfi_offset 10,-12
 220              	 .cfi_offset 11,-8
 221              	 .cfi_offset 14,-4
 149:C:/Users/Yushev/git/optiga-trust-qi/projects/xmc4700_relax_kit/common/Dave/Generated/USBD/usb/core/xmc4000\usbd_endpoint_stream_xmc4000.c **** 	USBD_Endpoint_t* ep = &device.Endpoints[device.CurrentEndpoint];
 222              	 .loc 1 149 0
 223 0004 224B     	 ldr r3,.L44
 148:C:/Users/Yushev/git/optiga-trust-qi/projects/xmc4700_relax_kit/common/Dave/Generated/USBD/usb/core/xmc4000\usbd_endpoint_stream_xmc4000.c **** 	USBD_Endpoint_t* ep = &device.Endpoints[device.CurrentEndpoint];
 224              	 .loc 1 148 0
 225 0006 8246     	 mov r10,r0
 226 0008 0D46     	 mov r5,r1
 227              	 .loc 1 149 0
 228 000a 93F83C91 	 ldrb r9,[r3,#316]
 229              	.LVL21:
 150:C:/Users/Yushev/git/optiga-trust-qi/projects/xmc4700_relax_kit/common/Dave/Generated/USBD/usb/core/xmc4000\usbd_endpoint_stream_xmc4000.c **** 	uint16_t Bytes = 0;
 151:C:/Users/Yushev/git/optiga-trust-qi/projects/xmc4700_relax_kit/common/Dave/Generated/USBD/usb/core/xmc4000\usbd_endpoint_stream_xmc4000.c **** 	uint16_t BytesTransfered = 0;
 152:C:/Users/Yushev/git/optiga-trust-qi/projects/xmc4700_relax_kit/common/Dave/Generated/USBD/usb/core/xmc4000\usbd_endpoint_stream_xmc4000.c **** 	uint8_t ErrorCode;
 153:C:/Users/Yushev/git/optiga-trust-qi/projects/xmc4700_relax_kit/common/Dave/Generated/USBD/usb/core/xmc4000\usbd_endpoint_stream_xmc4000.c **** 
 154:C:/Users/Yushev/git/optiga-trust-qi/projects/xmc4700_relax_kit/common/Dave/Generated/USBD/usb/core/xmc4000\usbd_endpoint_stream_xmc4000.c **** 	if (BytesProcessed!=NULL) 
 230              	 .loc 1 154 0
 231 000e 1746     	 mov r7,r2
 232 0010 9846     	 mov r8,r3
 233 0012 12B1     	 cbz r2,.L38
 155:C:/Users/Yushev/git/optiga-trust-qi/projects/xmc4700_relax_kit/common/Dave/Generated/USBD/usb/core/xmc4000\usbd_endpoint_stream_xmc4000.c **** 	{
 156:C:/Users/Yushev/git/optiga-trust-qi/projects/xmc4700_relax_kit/common/Dave/Generated/USBD/usb/core/xmc4000\usbd_endpoint_stream_xmc4000.c **** 		Length -= *BytesProcessed;
 234              	 .loc 1 156 0
 235 0014 1688     	 ldrh r6,[r2]
 236 0016 8C1B     	 subs r4,r1,r6
 237 0018 2DE0     	 b .L42
 238              	.L38:
 151:C:/Users/Yushev/git/optiga-trust-qi/projects/xmc4700_relax_kit/common/Dave/Generated/USBD/usb/core/xmc4000\usbd_endpoint_stream_xmc4000.c **** 	uint8_t ErrorCode;
 239              	 .loc 1 151 0
 240 001a 1646     	 mov r6,r2
 241 001c 02E0     	 b .L31
 242              	.LVL22:
 243              	.L35:
 157:C:/Users/Yushev/git/optiga-trust-qi/projects/xmc4700_relax_kit/common/Dave/Generated/USBD/usb/core/xmc4000\usbd_endpoint_stream_xmc4000.c **** 		BytesTransfered = *BytesProcessed;
 158:C:/Users/Yushev/git/optiga-trust-qi/projects/xmc4700_relax_kit/common/Dave/Generated/USBD/usb/core/xmc4000\usbd_endpoint_stream_xmc4000.c **** 	}
 159:C:/Users/Yushev/git/optiga-trust-qi/projects/xmc4700_relax_kit/common/Dave/Generated/USBD/usb/core/xmc4000\usbd_endpoint_stream_xmc4000.c **** 
 160:C:/Users/Yushev/git/optiga-trust-qi/projects/xmc4700_relax_kit/common/Dave/Generated/USBD/usb/core/xmc4000\usbd_endpoint_stream_xmc4000.c **** 	while (Length) 
 161:C:/Users/Yushev/git/optiga-trust-qi/projects/xmc4700_relax_kit/common/Dave/Generated/USBD/usb/core/xmc4000\usbd_endpoint_stream_xmc4000.c **** 	{
 162:C:/Users/Yushev/git/optiga-trust-qi/projects/xmc4700_relax_kit/common/Dave/Generated/USBD/usb/core/xmc4000\usbd_endpoint_stream_xmc4000.c **** 		if (ep->InInUse)
 163:C:/Users/Yushev/git/optiga-trust-qi/projects/xmc4700_relax_kit/common/Dave/Generated/USBD/usb/core/xmc4000\usbd_endpoint_stream_xmc4000.c **** 		{
 164:C:/Users/Yushev/git/optiga-trust-qi/projects/xmc4700_relax_kit/common/Dave/Generated/USBD/usb/core/xmc4000\usbd_endpoint_stream_xmc4000.c **** 			continue;
 165:C:/Users/Yushev/git/optiga-trust-qi/projects/xmc4700_relax_kit/common/Dave/Generated/USBD/usb/core/xmc4000\usbd_endpoint_stream_xmc4000.c **** 		}
 166:C:/Users/Yushev/git/optiga-trust-qi/projects/xmc4700_relax_kit/common/Dave/Generated/USBD/usb/core/xmc4000\usbd_endpoint_stream_xmc4000.c **** 		if (Endpoint_IsReadWriteAllowed()) 
 167:C:/Users/Yushev/git/optiga-trust-qi/projects/xmc4700_relax_kit/common/Dave/Generated/USBD/usb/core/xmc4000\usbd_endpoint_stream_xmc4000.c **** 		{
 168:C:/Users/Yushev/git/optiga-trust-qi/projects/xmc4700_relax_kit/common/Dave/Generated/USBD/usb/core/xmc4000\usbd_endpoint_stream_xmc4000.c **** 			if((ep->InBufferLength - ep->InBytesAvailable)  > Length)
 169:C:/Users/Yushev/git/optiga-trust-qi/projects/xmc4700_relax_kit/common/Dave/Generated/USBD/usb/core/xmc4000\usbd_endpoint_stream_xmc4000.c **** 			{
 170:C:/Users/Yushev/git/optiga-trust-qi/projects/xmc4700_relax_kit/common/Dave/Generated/USBD/usb/core/xmc4000\usbd_endpoint_stream_xmc4000.c **** 				Bytes = Length;
 171:C:/Users/Yushev/git/optiga-trust-qi/projects/xmc4700_relax_kit/common/Dave/Generated/USBD/usb/core/xmc4000\usbd_endpoint_stream_xmc4000.c **** 			}
 172:C:/Users/Yushev/git/optiga-trust-qi/projects/xmc4700_relax_kit/common/Dave/Generated/USBD/usb/core/xmc4000\usbd_endpoint_stream_xmc4000.c **** 			else
 173:C:/Users/Yushev/git/optiga-trust-qi/projects/xmc4700_relax_kit/common/Dave/Generated/USBD/usb/core/xmc4000\usbd_endpoint_stream_xmc4000.c **** 			{
 174:C:/Users/Yushev/git/optiga-trust-qi/projects/xmc4700_relax_kit/common/Dave/Generated/USBD/usb/core/xmc4000\usbd_endpoint_stream_xmc4000.c **** 				Bytes = (ep->InBufferLength - ep->InBytesAvailable);
 175:C:/Users/Yushev/git/optiga-trust-qi/projects/xmc4700_relax_kit/common/Dave/Generated/USBD/usb/core/xmc4000\usbd_endpoint_stream_xmc4000.c **** 			}
 176:C:/Users/Yushev/git/optiga-trust-qi/projects/xmc4700_relax_kit/common/Dave/Generated/USBD/usb/core/xmc4000\usbd_endpoint_stream_xmc4000.c **** 
 177:C:/Users/Yushev/git/optiga-trust-qi/projects/xmc4700_relax_kit/common/Dave/Generated/USBD/usb/core/xmc4000\usbd_endpoint_stream_xmc4000.c **** 			SwapCopy(ep->InBuffer + ep->InBytesAvailable,
 178:C:/Users/Yushev/git/optiga-trust-qi/projects/xmc4700_relax_kit/common/Dave/Generated/USBD/usb/core/xmc4000\usbd_endpoint_stream_xmc4000.c **** 								(uint8_t*)Buffer + BytesTransfered,Bytes);
 179:C:/Users/Yushev/git/optiga-trust-qi/projects/xmc4700_relax_kit/common/Dave/Generated/USBD/usb/core/xmc4000\usbd_endpoint_stream_xmc4000.c **** 			ep->InBytesAvailable += Bytes;
 180:C:/Users/Yushev/git/optiga-trust-qi/projects/xmc4700_relax_kit/common/Dave/Generated/USBD/usb/core/xmc4000\usbd_endpoint_stream_xmc4000.c **** 			BytesTransfered += Bytes;
 181:C:/Users/Yushev/git/optiga-trust-qi/projects/xmc4700_relax_kit/common/Dave/Generated/USBD/usb/core/xmc4000\usbd_endpoint_stream_xmc4000.c **** 			Length -= Bytes;
 182:C:/Users/Yushev/git/optiga-trust-qi/projects/xmc4700_relax_kit/common/Dave/Generated/USBD/usb/core/xmc4000\usbd_endpoint_stream_xmc4000.c **** 		}
 183:C:/Users/Yushev/git/optiga-trust-qi/projects/xmc4700_relax_kit/common/Dave/Generated/USBD/usb/core/xmc4000\usbd_endpoint_stream_xmc4000.c **** 		else 
 184:C:/Users/Yushev/git/optiga-trust-qi/projects/xmc4700_relax_kit/common/Dave/Generated/USBD/usb/core/xmc4000\usbd_endpoint_stream_xmc4000.c **** 		{
 185:C:/Users/Yushev/git/optiga-trust-qi/projects/xmc4700_relax_kit/common/Dave/Generated/USBD/usb/core/xmc4000\usbd_endpoint_stream_xmc4000.c **** 			Endpoint_ClearIN();
 186:C:/Users/Yushev/git/optiga-trust-qi/projects/xmc4700_relax_kit/common/Dave/Generated/USBD/usb/core/xmc4000\usbd_endpoint_stream_xmc4000.c **** 			if (BytesProcessed!=NULL) 
 187:C:/Users/Yushev/git/optiga-trust-qi/projects/xmc4700_relax_kit/common/Dave/Generated/USBD/usb/core/xmc4000\usbd_endpoint_stream_xmc4000.c **** 			{
 188:C:/Users/Yushev/git/optiga-trust-qi/projects/xmc4700_relax_kit/common/Dave/Generated/USBD/usb/core/xmc4000\usbd_endpoint_stream_xmc4000.c **** 				*BytesProcessed = BytesTransfered;
 189:C:/Users/Yushev/git/optiga-trust-qi/projects/xmc4700_relax_kit/common/Dave/Generated/USBD/usb/core/xmc4000\usbd_endpoint_stream_xmc4000.c **** 				return ENDPOINT_RWSTREAM_IncompleteTransfer;
 190:C:/Users/Yushev/git/optiga-trust-qi/projects/xmc4700_relax_kit/common/Dave/Generated/USBD/usb/core/xmc4000\usbd_endpoint_stream_xmc4000.c **** 			}
 191:C:/Users/Yushev/git/optiga-trust-qi/projects/xmc4700_relax_kit/common/Dave/Generated/USBD/usb/core/xmc4000\usbd_endpoint_stream_xmc4000.c **** 
 192:C:/Users/Yushev/git/optiga-trust-qi/projects/xmc4700_relax_kit/common/Dave/Generated/USBD/usb/core/xmc4000\usbd_endpoint_stream_xmc4000.c **** 			ErrorCode = Endpoint_WaitUntilReady();
 244              	 .loc 1 192 0
 245 001e FFF7FEFF 	 bl Endpoint_WaitUntilReady
 246              	.LVL23:
 193:C:/Users/Yushev/git/optiga-trust-qi/projects/xmc4700_relax_kit/common/Dave/Generated/USBD/usb/core/xmc4000\usbd_endpoint_stream_xmc4000.c **** 			if (ErrorCode) 
 247              	 .loc 1 193 0
 248 0022 98BB     	 cbnz r0,.L36
 249              	.LVL24:
 250              	.L31:
 160:C:/Users/Yushev/git/optiga-trust-qi/projects/xmc4700_relax_kit/common/Dave/Generated/USBD/usb/core/xmc4000\usbd_endpoint_stream_xmc4000.c **** 	{
 251              	 .loc 1 160 0
 252 0024 8DB3     	 cbz r5,.L43
 162:C:/Users/Yushev/git/optiga-trust-qi/projects/xmc4700_relax_kit/common/Dave/Generated/USBD/usb/core/xmc4000\usbd_endpoint_stream_xmc4000.c **** 		{
 253              	 .loc 1 162 0
 254 0026 4FF02C0B 	 mov fp,#44
 255 002a 0BFB098B 	 mla fp,fp,r9,r8
 256 002e DBF80830 	 ldr r3,[fp,#8]
 257 0032 DB06     	 lsls r3,r3,#27
 258 0034 F6D4     	 bmi .L31
 166:C:/Users/Yushev/git/optiga-trust-qi/projects/xmc4700_relax_kit/common/Dave/Generated/USBD/usb/core/xmc4000\usbd_endpoint_stream_xmc4000.c **** 		{
 259              	 .loc 1 166 0
 260 0036 FFF7FEFF 	 bl Endpoint_IsReadWriteAllowed
 261              	.LVL25:
 262 003a F0B1     	 cbz r0,.L32
 168:C:/Users/Yushev/git/optiga-trust-qi/projects/xmc4700_relax_kit/common/Dave/Generated/USBD/usb/core/xmc4000\usbd_endpoint_stream_xmc4000.c **** 			{
 263              	 .loc 1 168 0
 264 003c DBF81C30 	 ldr r3,[fp,#28]
 265 0040 DBF82440 	 ldr r4,[fp,#36]
 177:C:/Users/Yushev/git/optiga-trust-qi/projects/xmc4700_relax_kit/common/Dave/Generated/USBD/usb/core/xmc4000\usbd_endpoint_stream_xmc4000.c **** 								(uint8_t*)Buffer + BytesTransfered,Bytes);
 266              	 .loc 1 177 0
 267 0044 4FF02C0B 	 mov fp,#44
 268 0048 0BFB098B 	 mla fp,fp,r9,r8
 168:C:/Users/Yushev/git/optiga-trust-qi/projects/xmc4700_relax_kit/common/Dave/Generated/USBD/usb/core/xmc4000\usbd_endpoint_stream_xmc4000.c **** 			{
 269              	 .loc 1 168 0
 270 004c E41A     	 subs r4,r4,r3
 271 004e AC42     	 cmp r4,r5
 177:C:/Users/Yushev/git/optiga-trust-qi/projects/xmc4700_relax_kit/common/Dave/Generated/USBD/usb/core/xmc4000\usbd_endpoint_stream_xmc4000.c **** 								(uint8_t*)Buffer + BytesTransfered,Bytes);
 272              	 .loc 1 177 0
 273 0050 DBF82000 	 ldr r0,[fp,#32]
 174:C:/Users/Yushev/git/optiga-trust-qi/projects/xmc4700_relax_kit/common/Dave/Generated/USBD/usb/core/xmc4000\usbd_endpoint_stream_xmc4000.c **** 			}
 274              	 .loc 1 174 0
 275 0054 94BF     	 ite ls
 276 0056 A4B2     	 uxthls r4,r4
 277              	.LVL26:
 278 0058 2C46     	 movhi r4,r5
 279              	.LVL27:
 177:C:/Users/Yushev/git/optiga-trust-qi/projects/xmc4700_relax_kit/common/Dave/Generated/USBD/usb/core/xmc4000\usbd_endpoint_stream_xmc4000.c **** 								(uint8_t*)Buffer + BytesTransfered,Bytes);
 280              	 .loc 1 177 0
 281 005a 1844     	 add r0,r0,r3
 282 005c 0AEB0601 	 add r1,r10,r6
 283 0060 2246     	 mov r2,r4
 284 0062 FFF7FEFF 	 bl SwapCopy
 285              	.LVL28:
 179:C:/Users/Yushev/git/optiga-trust-qi/projects/xmc4700_relax_kit/common/Dave/Generated/USBD/usb/core/xmc4000\usbd_endpoint_stream_xmc4000.c **** 			BytesTransfered += Bytes;
 286              	 .loc 1 179 0
 287 0066 DBF81C30 	 ldr r3,[fp,#28]
 180:C:/Users/Yushev/git/optiga-trust-qi/projects/xmc4700_relax_kit/common/Dave/Generated/USBD/usb/core/xmc4000\usbd_endpoint_stream_xmc4000.c **** 			Length -= Bytes;
 288              	 .loc 1 180 0
 289 006a 2644     	 add r6,r6,r4
 179:C:/Users/Yushev/git/optiga-trust-qi/projects/xmc4700_relax_kit/common/Dave/Generated/USBD/usb/core/xmc4000\usbd_endpoint_stream_xmc4000.c **** 			BytesTransfered += Bytes;
 290              	 .loc 1 179 0
 291 006c 2344     	 add r3,r3,r4
 292 006e CBF81C30 	 str r3,[fp,#28]
 180:C:/Users/Yushev/git/optiga-trust-qi/projects/xmc4700_relax_kit/common/Dave/Generated/USBD/usb/core/xmc4000\usbd_endpoint_stream_xmc4000.c **** 			Length -= Bytes;
 293              	 .loc 1 180 0
 294 0072 B6B2     	 uxth r6,r6
 295              	.LVL29:
 181:C:/Users/Yushev/git/optiga-trust-qi/projects/xmc4700_relax_kit/common/Dave/Generated/USBD/usb/core/xmc4000\usbd_endpoint_stream_xmc4000.c **** 		}
 296              	 .loc 1 181 0
 297 0074 2C1B     	 subs r4,r5,r4
 298              	.LVL30:
 299              	.L42:
 300 0076 A5B2     	 uxth r5,r4
 301              	.LVL31:
 302 0078 D4E7     	 b .L31
 303              	.L32:
 185:C:/Users/Yushev/git/optiga-trust-qi/projects/xmc4700_relax_kit/common/Dave/Generated/USBD/usb/core/xmc4000\usbd_endpoint_stream_xmc4000.c **** 			if (BytesProcessed!=NULL) 
 304              	 .loc 1 185 0
 305 007a FFF7FEFF 	 bl Endpoint_ClearIN
 306              	.LVL32:
 186:C:/Users/Yushev/git/optiga-trust-qi/projects/xmc4700_relax_kit/common/Dave/Generated/USBD/usb/core/xmc4000\usbd_endpoint_stream_xmc4000.c **** 			{
 307              	 .loc 1 186 0
 308 007e 002F     	 cmp r7,#0
 309 0080 CDD0     	 beq .L35
 188:C:/Users/Yushev/git/optiga-trust-qi/projects/xmc4700_relax_kit/common/Dave/Generated/USBD/usb/core/xmc4000\usbd_endpoint_stream_xmc4000.c **** 				return ENDPOINT_RWSTREAM_IncompleteTransfer;
 310              	 .loc 1 188 0
 311 0082 3E80     	 strh r6,[r7]
 189:C:/Users/Yushev/git/optiga-trust-qi/projects/xmc4700_relax_kit/common/Dave/Generated/USBD/usb/core/xmc4000\usbd_endpoint_stream_xmc4000.c **** 			}
 312              	 .loc 1 189 0
 313 0084 0520     	 movs r0,#5
 314 0086 BDE8F88F 	 pop {r3,r4,r5,r6,r7,r8,r9,r10,fp,pc}
 315              	.LVL33:
 316              	.L43:
 194:C:/Users/Yushev/git/optiga-trust-qi/projects/xmc4700_relax_kit/common/Dave/Generated/USBD/usb/core/xmc4000\usbd_endpoint_stream_xmc4000.c **** 			{
 195:C:/Users/Yushev/git/optiga-trust-qi/projects/xmc4700_relax_kit/common/Dave/Generated/USBD/usb/core/xmc4000\usbd_endpoint_stream_xmc4000.c **** 				return ErrorCode;
 196:C:/Users/Yushev/git/optiga-trust-qi/projects/xmc4700_relax_kit/common/Dave/Generated/USBD/usb/core/xmc4000\usbd_endpoint_stream_xmc4000.c **** 			}
 197:C:/Users/Yushev/git/optiga-trust-qi/projects/xmc4700_relax_kit/common/Dave/Generated/USBD/usb/core/xmc4000\usbd_endpoint_stream_xmc4000.c **** 		}
 198:C:/Users/Yushev/git/optiga-trust-qi/projects/xmc4700_relax_kit/common/Dave/Generated/USBD/usb/core/xmc4000\usbd_endpoint_stream_xmc4000.c **** 	}
 199:C:/Users/Yushev/git/optiga-trust-qi/projects/xmc4700_relax_kit/common/Dave/Generated/USBD/usb/core/xmc4000\usbd_endpoint_stream_xmc4000.c **** 	return ENDPOINT_RWSTREAM_NoError;
 317              	 .loc 1 199 0
 318 008a 2846     	 mov r0,r5
 319              	.L36:
 200:C:/Users/Yushev/git/optiga-trust-qi/projects/xmc4700_relax_kit/common/Dave/Generated/USBD/usb/core/xmc4000\usbd_endpoint_stream_xmc4000.c **** }
 320              	 .loc 1 200 0
 321 008c BDE8F88F 	 pop {r3,r4,r5,r6,r7,r8,r9,r10,fp,pc}
 322              	.LVL34:
 323              	.L45:
 324              	 .align 2
 325              	.L44:
 326 0090 00000000 	 .word device
 327              	 .cfi_endproc
 328              	.LFE188:
 330              	 .section .text.Endpoint_Read_Stream_LE,"ax",%progbits
 331              	 .align 1
 332              	 .global Endpoint_Read_Stream_LE
 333              	 .thumb
 334              	 .thumb_func
 336              	Endpoint_Read_Stream_LE:
 337              	.LFB189:
 201:C:/Users/Yushev/git/optiga-trust-qi/projects/xmc4700_relax_kit/common/Dave/Generated/USBD/usb/core/xmc4000\usbd_endpoint_stream_xmc4000.c **** 
 202:C:/Users/Yushev/git/optiga-trust-qi/projects/xmc4700_relax_kit/common/Dave/Generated/USBD/usb/core/xmc4000\usbd_endpoint_stream_xmc4000.c **** uint8_t	Endpoint_Read_Stream_LE (void *const Buffer, uint16_t Length,
 203:C:/Users/Yushev/git/optiga-trust-qi/projects/xmc4700_relax_kit/common/Dave/Generated/USBD/usb/core/xmc4000\usbd_endpoint_stream_xmc4000.c **** 									uint16_t *const BytesProcessed)
 204:C:/Users/Yushev/git/optiga-trust-qi/projects/xmc4700_relax_kit/common/Dave/Generated/USBD/usb/core/xmc4000\usbd_endpoint_stream_xmc4000.c **** {
 338              	 .loc 1 204 0
 339              	 .cfi_startproc
 340              	 
 341              	 
 342              	.LVL35:
 343 0000 2DE9F84F 	 push {r3,r4,r5,r6,r7,r8,r9,r10,fp,lr}
 344              	.LCFI2:
 345              	 .cfi_def_cfa_offset 40
 346              	 .cfi_offset 3,-40
 347              	 .cfi_offset 4,-36
 348              	 .cfi_offset 5,-32
 349              	 .cfi_offset 6,-28
 350              	 .cfi_offset 7,-24
 351              	 .cfi_offset 8,-20
 352              	 .cfi_offset 9,-16
 353              	 .cfi_offset 10,-12
 354              	 .cfi_offset 11,-8
 355              	 .cfi_offset 14,-4
 205:C:/Users/Yushev/git/optiga-trust-qi/projects/xmc4700_relax_kit/common/Dave/Generated/USBD/usb/core/xmc4000\usbd_endpoint_stream_xmc4000.c **** 	USBD_Endpoint_t* ep = &device.Endpoints[device.CurrentEndpoint];
 356              	 .loc 1 205 0
 357 0004 224B     	 ldr r3,.L62
 204:C:/Users/Yushev/git/optiga-trust-qi/projects/xmc4700_relax_kit/common/Dave/Generated/USBD/usb/core/xmc4000\usbd_endpoint_stream_xmc4000.c **** 	USBD_Endpoint_t* ep = &device.Endpoints[device.CurrentEndpoint];
 358              	 .loc 1 204 0
 359 0006 8246     	 mov r10,r0
 360 0008 0D46     	 mov r5,r1
 361              	 .loc 1 205 0
 362 000a 93F83C91 	 ldrb r9,[r3,#316]
 363              	.LVL36:
 206:C:/Users/Yushev/git/optiga-trust-qi/projects/xmc4700_relax_kit/common/Dave/Generated/USBD/usb/core/xmc4000\usbd_endpoint_stream_xmc4000.c **** 	uint16_t Bytes = 0;
 207:C:/Users/Yushev/git/optiga-trust-qi/projects/xmc4700_relax_kit/common/Dave/Generated/USBD/usb/core/xmc4000\usbd_endpoint_stream_xmc4000.c **** 	uint16_t BytesTransfered = 0;
 208:C:/Users/Yushev/git/optiga-trust-qi/projects/xmc4700_relax_kit/common/Dave/Generated/USBD/usb/core/xmc4000\usbd_endpoint_stream_xmc4000.c **** 	uint8_t ErrorCode;
 209:C:/Users/Yushev/git/optiga-trust-qi/projects/xmc4700_relax_kit/common/Dave/Generated/USBD/usb/core/xmc4000\usbd_endpoint_stream_xmc4000.c **** 
 210:C:/Users/Yushev/git/optiga-trust-qi/projects/xmc4700_relax_kit/common/Dave/Generated/USBD/usb/core/xmc4000\usbd_endpoint_stream_xmc4000.c **** 	if (BytesProcessed!=NULL) 
 364              	 .loc 1 210 0
 365 000e 1746     	 mov r7,r2
 366 0010 9846     	 mov r8,r3
 367 0012 12B1     	 cbz r2,.L56
 211:C:/Users/Yushev/git/optiga-trust-qi/projects/xmc4700_relax_kit/common/Dave/Generated/USBD/usb/core/xmc4000\usbd_endpoint_stream_xmc4000.c **** 	{
 212:C:/Users/Yushev/git/optiga-trust-qi/projects/xmc4700_relax_kit/common/Dave/Generated/USBD/usb/core/xmc4000\usbd_endpoint_stream_xmc4000.c **** 		Length -= *BytesProcessed;
 368              	 .loc 1 212 0
 369 0014 1688     	 ldrh r6,[r2]
 370 0016 8C1B     	 subs r4,r1,r6
 371 0018 2DE0     	 b .L60
 372              	.L56:
 207:C:/Users/Yushev/git/optiga-trust-qi/projects/xmc4700_relax_kit/common/Dave/Generated/USBD/usb/core/xmc4000\usbd_endpoint_stream_xmc4000.c **** 	uint8_t ErrorCode;
 373              	 .loc 1 207 0
 374 001a 1646     	 mov r6,r2
 375 001c 02E0     	 b .L49
 376              	.LVL37:
 377              	.L53:
 213:C:/Users/Yushev/git/optiga-trust-qi/projects/xmc4700_relax_kit/common/Dave/Generated/USBD/usb/core/xmc4000\usbd_endpoint_stream_xmc4000.c **** 		BytesTransfered = *BytesProcessed;
 214:C:/Users/Yushev/git/optiga-trust-qi/projects/xmc4700_relax_kit/common/Dave/Generated/USBD/usb/core/xmc4000\usbd_endpoint_stream_xmc4000.c **** 	}
 215:C:/Users/Yushev/git/optiga-trust-qi/projects/xmc4700_relax_kit/common/Dave/Generated/USBD/usb/core/xmc4000\usbd_endpoint_stream_xmc4000.c **** 
 216:C:/Users/Yushev/git/optiga-trust-qi/projects/xmc4700_relax_kit/common/Dave/Generated/USBD/usb/core/xmc4000\usbd_endpoint_stream_xmc4000.c **** 	while (Length) 
 217:C:/Users/Yushev/git/optiga-trust-qi/projects/xmc4700_relax_kit/common/Dave/Generated/USBD/usb/core/xmc4000\usbd_endpoint_stream_xmc4000.c **** 	{
 218:C:/Users/Yushev/git/optiga-trust-qi/projects/xmc4700_relax_kit/common/Dave/Generated/USBD/usb/core/xmc4000\usbd_endpoint_stream_xmc4000.c **** 		if (ep->OutInUse)
 219:C:/Users/Yushev/git/optiga-trust-qi/projects/xmc4700_relax_kit/common/Dave/Generated/USBD/usb/core/xmc4000\usbd_endpoint_stream_xmc4000.c **** 		{
 220:C:/Users/Yushev/git/optiga-trust-qi/projects/xmc4700_relax_kit/common/Dave/Generated/USBD/usb/core/xmc4000\usbd_endpoint_stream_xmc4000.c **** 			continue;
 221:C:/Users/Yushev/git/optiga-trust-qi/projects/xmc4700_relax_kit/common/Dave/Generated/USBD/usb/core/xmc4000\usbd_endpoint_stream_xmc4000.c **** 		}
 222:C:/Users/Yushev/git/optiga-trust-qi/projects/xmc4700_relax_kit/common/Dave/Generated/USBD/usb/core/xmc4000\usbd_endpoint_stream_xmc4000.c **** 		if (Endpoint_IsReadWriteAllowed()) 
 223:C:/Users/Yushev/git/optiga-trust-qi/projects/xmc4700_relax_kit/common/Dave/Generated/USBD/usb/core/xmc4000\usbd_endpoint_stream_xmc4000.c **** 		{
 224:C:/Users/Yushev/git/optiga-trust-qi/projects/xmc4700_relax_kit/common/Dave/Generated/USBD/usb/core/xmc4000\usbd_endpoint_stream_xmc4000.c **** 			if(ep->OutBytesAvailable  > Length)
 225:C:/Users/Yushev/git/optiga-trust-qi/projects/xmc4700_relax_kit/common/Dave/Generated/USBD/usb/core/xmc4000\usbd_endpoint_stream_xmc4000.c **** 			{
 226:C:/Users/Yushev/git/optiga-trust-qi/projects/xmc4700_relax_kit/common/Dave/Generated/USBD/usb/core/xmc4000\usbd_endpoint_stream_xmc4000.c **** 				Bytes = Length;
 227:C:/Users/Yushev/git/optiga-trust-qi/projects/xmc4700_relax_kit/common/Dave/Generated/USBD/usb/core/xmc4000\usbd_endpoint_stream_xmc4000.c **** 			}
 228:C:/Users/Yushev/git/optiga-trust-qi/projects/xmc4700_relax_kit/common/Dave/Generated/USBD/usb/core/xmc4000\usbd_endpoint_stream_xmc4000.c **** 			else
 229:C:/Users/Yushev/git/optiga-trust-qi/projects/xmc4700_relax_kit/common/Dave/Generated/USBD/usb/core/xmc4000\usbd_endpoint_stream_xmc4000.c **** 			{
 230:C:/Users/Yushev/git/optiga-trust-qi/projects/xmc4700_relax_kit/common/Dave/Generated/USBD/usb/core/xmc4000\usbd_endpoint_stream_xmc4000.c **** 				Bytes = (uint16_t)ep->OutBytesAvailable;
 231:C:/Users/Yushev/git/optiga-trust-qi/projects/xmc4700_relax_kit/common/Dave/Generated/USBD/usb/core/xmc4000\usbd_endpoint_stream_xmc4000.c **** 			}
 232:C:/Users/Yushev/git/optiga-trust-qi/projects/xmc4700_relax_kit/common/Dave/Generated/USBD/usb/core/xmc4000\usbd_endpoint_stream_xmc4000.c **** 
 233:C:/Users/Yushev/git/optiga-trust-qi/projects/xmc4700_relax_kit/common/Dave/Generated/USBD/usb/core/xmc4000\usbd_endpoint_stream_xmc4000.c **** 			memcpy((uint8_t*)Buffer + BytesTransfered,
 234:C:/Users/Yushev/git/optiga-trust-qi/projects/xmc4700_relax_kit/common/Dave/Generated/USBD/usb/core/xmc4000\usbd_endpoint_stream_xmc4000.c **** 									ep->OutBuffer + ep->OutOffset,Bytes);
 235:C:/Users/Yushev/git/optiga-trust-qi/projects/xmc4700_relax_kit/common/Dave/Generated/USBD/usb/core/xmc4000\usbd_endpoint_stream_xmc4000.c **** 			ep->OutBytesAvailable -= Bytes;
 236:C:/Users/Yushev/git/optiga-trust-qi/projects/xmc4700_relax_kit/common/Dave/Generated/USBD/usb/core/xmc4000\usbd_endpoint_stream_xmc4000.c **** 			ep->OutOffset += Bytes;
 237:C:/Users/Yushev/git/optiga-trust-qi/projects/xmc4700_relax_kit/common/Dave/Generated/USBD/usb/core/xmc4000\usbd_endpoint_stream_xmc4000.c **** 			BytesTransfered += Bytes;
 238:C:/Users/Yushev/git/optiga-trust-qi/projects/xmc4700_relax_kit/common/Dave/Generated/USBD/usb/core/xmc4000\usbd_endpoint_stream_xmc4000.c **** 			Length -= Bytes;
 239:C:/Users/Yushev/git/optiga-trust-qi/projects/xmc4700_relax_kit/common/Dave/Generated/USBD/usb/core/xmc4000\usbd_endpoint_stream_xmc4000.c **** 		}
 240:C:/Users/Yushev/git/optiga-trust-qi/projects/xmc4700_relax_kit/common/Dave/Generated/USBD/usb/core/xmc4000\usbd_endpoint_stream_xmc4000.c **** 		else 
 241:C:/Users/Yushev/git/optiga-trust-qi/projects/xmc4700_relax_kit/common/Dave/Generated/USBD/usb/core/xmc4000\usbd_endpoint_stream_xmc4000.c **** 		{
 242:C:/Users/Yushev/git/optiga-trust-qi/projects/xmc4700_relax_kit/common/Dave/Generated/USBD/usb/core/xmc4000\usbd_endpoint_stream_xmc4000.c **** 			Endpoint_ClearOUT();
 243:C:/Users/Yushev/git/optiga-trust-qi/projects/xmc4700_relax_kit/common/Dave/Generated/USBD/usb/core/xmc4000\usbd_endpoint_stream_xmc4000.c **** 			if (BytesProcessed != NULL) 
 244:C:/Users/Yushev/git/optiga-trust-qi/projects/xmc4700_relax_kit/common/Dave/Generated/USBD/usb/core/xmc4000\usbd_endpoint_stream_xmc4000.c **** 			{
 245:C:/Users/Yushev/git/optiga-trust-qi/projects/xmc4700_relax_kit/common/Dave/Generated/USBD/usb/core/xmc4000\usbd_endpoint_stream_xmc4000.c **** 				*BytesProcessed = BytesTransfered;
 246:C:/Users/Yushev/git/optiga-trust-qi/projects/xmc4700_relax_kit/common/Dave/Generated/USBD/usb/core/xmc4000\usbd_endpoint_stream_xmc4000.c **** 				return ENDPOINT_RWSTREAM_IncompleteTransfer;
 247:C:/Users/Yushev/git/optiga-trust-qi/projects/xmc4700_relax_kit/common/Dave/Generated/USBD/usb/core/xmc4000\usbd_endpoint_stream_xmc4000.c **** 			}
 248:C:/Users/Yushev/git/optiga-trust-qi/projects/xmc4700_relax_kit/common/Dave/Generated/USBD/usb/core/xmc4000\usbd_endpoint_stream_xmc4000.c **** 
 249:C:/Users/Yushev/git/optiga-trust-qi/projects/xmc4700_relax_kit/common/Dave/Generated/USBD/usb/core/xmc4000\usbd_endpoint_stream_xmc4000.c **** 			ErrorCode = Endpoint_WaitUntilReady();
 378              	 .loc 1 249 0
 379 001e FFF7FEFF 	 bl Endpoint_WaitUntilReady
 380              	.LVL38:
 250:C:/Users/Yushev/git/optiga-trust-qi/projects/xmc4700_relax_kit/common/Dave/Generated/USBD/usb/core/xmc4000\usbd_endpoint_stream_xmc4000.c **** 			if (ErrorCode) 
 381              	 .loc 1 250 0
 382 0022 98BB     	 cbnz r0,.L54
 383              	.LVL39:
 384              	.L49:
 216:C:/Users/Yushev/git/optiga-trust-qi/projects/xmc4700_relax_kit/common/Dave/Generated/USBD/usb/core/xmc4000\usbd_endpoint_stream_xmc4000.c **** 	{
 385              	 .loc 1 216 0
 386 0024 8DB3     	 cbz r5,.L61
 218:C:/Users/Yushev/git/optiga-trust-qi/projects/xmc4700_relax_kit/common/Dave/Generated/USBD/usb/core/xmc4000\usbd_endpoint_stream_xmc4000.c **** 		{
 387              	 .loc 1 218 0
 388 0026 2C24     	 movs r4,#44
 389 0028 04FB0984 	 mla r4,r4,r9,r8
 390 002c A368     	 ldr r3,[r4,#8]
 391 002e 1B07     	 lsls r3,r3,#28
 392 0030 F8D4     	 bmi .L49
 222:C:/Users/Yushev/git/optiga-trust-qi/projects/xmc4700_relax_kit/common/Dave/Generated/USBD/usb/core/xmc4000\usbd_endpoint_stream_xmc4000.c **** 		{
 393              	 .loc 1 222 0
 394 0032 FFF7FEFF 	 bl Endpoint_IsReadWriteAllowed
 395              	.LVL40:
 396 0036 00B3     	 cbz r0,.L50
 234:C:/Users/Yushev/git/optiga-trust-qi/projects/xmc4700_relax_kit/common/Dave/Generated/USBD/usb/core/xmc4000\usbd_endpoint_stream_xmc4000.c **** 			ep->OutBytesAvailable -= Bytes;
 397              	 .loc 1 234 0
 398 0038 2C23     	 movs r3,#44
 224:C:/Users/Yushev/git/optiga-trust-qi/projects/xmc4700_relax_kit/common/Dave/Generated/USBD/usb/core/xmc4000\usbd_endpoint_stream_xmc4000.c **** 			{
 399              	 .loc 1 224 0
 400 003a E468     	 ldr r4,[r4,#12]
 234:C:/Users/Yushev/git/optiga-trust-qi/projects/xmc4700_relax_kit/common/Dave/Generated/USBD/usb/core/xmc4000\usbd_endpoint_stream_xmc4000.c **** 			ep->OutBytesAvailable -= Bytes;
 401              	 .loc 1 234 0
 402 003c 03FB0983 	 mla r3,r3,r9,r8
 403 0040 03F1080B 	 add fp,r3,#8
 224:C:/Users/Yushev/git/optiga-trust-qi/projects/xmc4700_relax_kit/common/Dave/Generated/USBD/usb/core/xmc4000\usbd_endpoint_stream_xmc4000.c **** 			{
 404              	 .loc 1 224 0
 405 0044 AC42     	 cmp r4,r5
 234:C:/Users/Yushev/git/optiga-trust-qi/projects/xmc4700_relax_kit/common/Dave/Generated/USBD/usb/core/xmc4000\usbd_endpoint_stream_xmc4000.c **** 			ep->OutBytesAvailable -= Bytes;
 406              	 .loc 1 234 0
 407 0046 5969     	 ldr r1,[r3,#20]
 408 0048 1B69     	 ldr r3,[r3,#16]
 230:C:/Users/Yushev/git/optiga-trust-qi/projects/xmc4700_relax_kit/common/Dave/Generated/USBD/usb/core/xmc4000\usbd_endpoint_stream_xmc4000.c **** 			}
 409              	 .loc 1 230 0
 410 004a 94BF     	 ite ls
 411 004c A4B2     	 uxthls r4,r4
 412              	.LVL41:
 413 004e 2C46     	 movhi r4,r5
 414              	.LVL42:
 233:C:/Users/Yushev/git/optiga-trust-qi/projects/xmc4700_relax_kit/common/Dave/Generated/USBD/usb/core/xmc4000\usbd_endpoint_stream_xmc4000.c **** 									ep->OutBuffer + ep->OutOffset,Bytes);
 415              	 .loc 1 233 0
 416 0050 0AEB0600 	 add r0,r10,r6
 417 0054 1944     	 add r1,r1,r3
 418 0056 2246     	 mov r2,r4
 419 0058 FFF7FEFF 	 bl memcpy
 420              	.LVL43:
 235:C:/Users/Yushev/git/optiga-trust-qi/projects/xmc4700_relax_kit/common/Dave/Generated/USBD/usb/core/xmc4000\usbd_endpoint_stream_xmc4000.c **** 			ep->OutOffset += Bytes;
 421              	 .loc 1 235 0
 422 005c DBF80430 	 ldr r3,[fp,#4]
 423 0060 1B1B     	 subs r3,r3,r4
 424 0062 CBF80430 	 str r3,[fp,#4]
 236:C:/Users/Yushev/git/optiga-trust-qi/projects/xmc4700_relax_kit/common/Dave/Generated/USBD/usb/core/xmc4000\usbd_endpoint_stream_xmc4000.c **** 			BytesTransfered += Bytes;
 425              	 .loc 1 236 0
 426 0066 DBF80830 	 ldr r3,[fp,#8]
 237:C:/Users/Yushev/git/optiga-trust-qi/projects/xmc4700_relax_kit/common/Dave/Generated/USBD/usb/core/xmc4000\usbd_endpoint_stream_xmc4000.c **** 			Length -= Bytes;
 427              	 .loc 1 237 0
 428 006a 2644     	 add r6,r6,r4
 236:C:/Users/Yushev/git/optiga-trust-qi/projects/xmc4700_relax_kit/common/Dave/Generated/USBD/usb/core/xmc4000\usbd_endpoint_stream_xmc4000.c **** 			BytesTransfered += Bytes;
 429              	 .loc 1 236 0
 430 006c 2344     	 add r3,r3,r4
 431 006e CBF80830 	 str r3,[fp,#8]
 237:C:/Users/Yushev/git/optiga-trust-qi/projects/xmc4700_relax_kit/common/Dave/Generated/USBD/usb/core/xmc4000\usbd_endpoint_stream_xmc4000.c **** 			Length -= Bytes;
 432              	 .loc 1 237 0
 433 0072 B6B2     	 uxth r6,r6
 434              	.LVL44:
 238:C:/Users/Yushev/git/optiga-trust-qi/projects/xmc4700_relax_kit/common/Dave/Generated/USBD/usb/core/xmc4000\usbd_endpoint_stream_xmc4000.c **** 		}
 435              	 .loc 1 238 0
 436 0074 2C1B     	 subs r4,r5,r4
 437              	.LVL45:
 438              	.L60:
 439 0076 A5B2     	 uxth r5,r4
 440              	.LVL46:
 441 0078 D4E7     	 b .L49
 442              	.L50:
 242:C:/Users/Yushev/git/optiga-trust-qi/projects/xmc4700_relax_kit/common/Dave/Generated/USBD/usb/core/xmc4000\usbd_endpoint_stream_xmc4000.c **** 			if (BytesProcessed != NULL) 
 443              	 .loc 1 242 0
 444 007a FFF7FEFF 	 bl Endpoint_ClearOUT
 445              	.LVL47:
 243:C:/Users/Yushev/git/optiga-trust-qi/projects/xmc4700_relax_kit/common/Dave/Generated/USBD/usb/core/xmc4000\usbd_endpoint_stream_xmc4000.c **** 			{
 446              	 .loc 1 243 0
 447 007e 002F     	 cmp r7,#0
 448 0080 CDD0     	 beq .L53
 245:C:/Users/Yushev/git/optiga-trust-qi/projects/xmc4700_relax_kit/common/Dave/Generated/USBD/usb/core/xmc4000\usbd_endpoint_stream_xmc4000.c **** 				return ENDPOINT_RWSTREAM_IncompleteTransfer;
 449              	 .loc 1 245 0
 450 0082 3E80     	 strh r6,[r7]
 246:C:/Users/Yushev/git/optiga-trust-qi/projects/xmc4700_relax_kit/common/Dave/Generated/USBD/usb/core/xmc4000\usbd_endpoint_stream_xmc4000.c **** 			}
 451              	 .loc 1 246 0
 452 0084 0520     	 movs r0,#5
 453 0086 BDE8F88F 	 pop {r3,r4,r5,r6,r7,r8,r9,r10,fp,pc}
 454              	.LVL48:
 455              	.L61:
 251:C:/Users/Yushev/git/optiga-trust-qi/projects/xmc4700_relax_kit/common/Dave/Generated/USBD/usb/core/xmc4000\usbd_endpoint_stream_xmc4000.c **** 			{
 252:C:/Users/Yushev/git/optiga-trust-qi/projects/xmc4700_relax_kit/common/Dave/Generated/USBD/usb/core/xmc4000\usbd_endpoint_stream_xmc4000.c **** 				return ErrorCode;
 253:C:/Users/Yushev/git/optiga-trust-qi/projects/xmc4700_relax_kit/common/Dave/Generated/USBD/usb/core/xmc4000\usbd_endpoint_stream_xmc4000.c **** 			}
 254:C:/Users/Yushev/git/optiga-trust-qi/projects/xmc4700_relax_kit/common/Dave/Generated/USBD/usb/core/xmc4000\usbd_endpoint_stream_xmc4000.c **** 		}
 255:C:/Users/Yushev/git/optiga-trust-qi/projects/xmc4700_relax_kit/common/Dave/Generated/USBD/usb/core/xmc4000\usbd_endpoint_stream_xmc4000.c **** 	}
 256:C:/Users/Yushev/git/optiga-trust-qi/projects/xmc4700_relax_kit/common/Dave/Generated/USBD/usb/core/xmc4000\usbd_endpoint_stream_xmc4000.c **** 	return ENDPOINT_RWSTREAM_NoError;
 456              	 .loc 1 256 0
 457 008a 2846     	 mov r0,r5
 458              	.L54:
 257:C:/Users/Yushev/git/optiga-trust-qi/projects/xmc4700_relax_kit/common/Dave/Generated/USBD/usb/core/xmc4000\usbd_endpoint_stream_xmc4000.c **** }
 459              	 .loc 1 257 0
 460 008c BDE8F88F 	 pop {r3,r4,r5,r6,r7,r8,r9,r10,fp,pc}
 461              	.LVL49:
 462              	.L63:
 463              	 .align 2
 464              	.L62:
 465 0090 00000000 	 .word device
 466              	 .cfi_endproc
 467              	.LFE189:
 469              	 .section .text.Endpoint_Read_Stream_BE,"ax",%progbits
 470              	 .align 1
 471              	 .global Endpoint_Read_Stream_BE
 472              	 .thumb
 473              	 .thumb_func
 475              	Endpoint_Read_Stream_BE:
 476              	.LFB190:
 258:C:/Users/Yushev/git/optiga-trust-qi/projects/xmc4700_relax_kit/common/Dave/Generated/USBD/usb/core/xmc4000\usbd_endpoint_stream_xmc4000.c **** 
 259:C:/Users/Yushev/git/optiga-trust-qi/projects/xmc4700_relax_kit/common/Dave/Generated/USBD/usb/core/xmc4000\usbd_endpoint_stream_xmc4000.c **** uint8_t	Endpoint_Read_Stream_BE (void *const Buffer, uint16_t Length,
 260:C:/Users/Yushev/git/optiga-trust-qi/projects/xmc4700_relax_kit/common/Dave/Generated/USBD/usb/core/xmc4000\usbd_endpoint_stream_xmc4000.c **** 									uint16_t *const BytesProcessed)
 261:C:/Users/Yushev/git/optiga-trust-qi/projects/xmc4700_relax_kit/common/Dave/Generated/USBD/usb/core/xmc4000\usbd_endpoint_stream_xmc4000.c **** {
 477              	 .loc 1 261 0
 478              	 .cfi_startproc
 479              	 
 480              	 
 481              	.LVL50:
 482 0000 2DE9F84F 	 push {r3,r4,r5,r6,r7,r8,r9,r10,fp,lr}
 483              	.LCFI3:
 484              	 .cfi_def_cfa_offset 40
 485              	 .cfi_offset 3,-40
 486              	 .cfi_offset 4,-36
 487              	 .cfi_offset 5,-32
 488              	 .cfi_offset 6,-28
 489              	 .cfi_offset 7,-24
 490              	 .cfi_offset 8,-20
 491              	 .cfi_offset 9,-16
 492              	 .cfi_offset 10,-12
 493              	 .cfi_offset 11,-8
 494              	 .cfi_offset 14,-4
 262:C:/Users/Yushev/git/optiga-trust-qi/projects/xmc4700_relax_kit/common/Dave/Generated/USBD/usb/core/xmc4000\usbd_endpoint_stream_xmc4000.c **** 	USBD_Endpoint_t* ep = &device.Endpoints[device.CurrentEndpoint];
 495              	 .loc 1 262 0
 496 0004 224B     	 ldr r3,.L80
 261:C:/Users/Yushev/git/optiga-trust-qi/projects/xmc4700_relax_kit/common/Dave/Generated/USBD/usb/core/xmc4000\usbd_endpoint_stream_xmc4000.c **** 	USBD_Endpoint_t* ep = &device.Endpoints[device.CurrentEndpoint];
 497              	 .loc 1 261 0
 498 0006 8246     	 mov r10,r0
 499 0008 0D46     	 mov r5,r1
 500              	 .loc 1 262 0
 501 000a 93F83C91 	 ldrb r9,[r3,#316]
 502              	.LVL51:
 263:C:/Users/Yushev/git/optiga-trust-qi/projects/xmc4700_relax_kit/common/Dave/Generated/USBD/usb/core/xmc4000\usbd_endpoint_stream_xmc4000.c **** 	uint16_t Bytes = 0;
 264:C:/Users/Yushev/git/optiga-trust-qi/projects/xmc4700_relax_kit/common/Dave/Generated/USBD/usb/core/xmc4000\usbd_endpoint_stream_xmc4000.c **** 	uint16_t BytesTransfered = 0;
 265:C:/Users/Yushev/git/optiga-trust-qi/projects/xmc4700_relax_kit/common/Dave/Generated/USBD/usb/core/xmc4000\usbd_endpoint_stream_xmc4000.c **** 	uint8_t ErrorCode;
 266:C:/Users/Yushev/git/optiga-trust-qi/projects/xmc4700_relax_kit/common/Dave/Generated/USBD/usb/core/xmc4000\usbd_endpoint_stream_xmc4000.c **** 
 267:C:/Users/Yushev/git/optiga-trust-qi/projects/xmc4700_relax_kit/common/Dave/Generated/USBD/usb/core/xmc4000\usbd_endpoint_stream_xmc4000.c **** 	if (BytesProcessed!=NULL) 
 503              	 .loc 1 267 0
 504 000e 1746     	 mov r7,r2
 505 0010 9846     	 mov r8,r3
 506 0012 12B1     	 cbz r2,.L74
 268:C:/Users/Yushev/git/optiga-trust-qi/projects/xmc4700_relax_kit/common/Dave/Generated/USBD/usb/core/xmc4000\usbd_endpoint_stream_xmc4000.c **** 	{
 269:C:/Users/Yushev/git/optiga-trust-qi/projects/xmc4700_relax_kit/common/Dave/Generated/USBD/usb/core/xmc4000\usbd_endpoint_stream_xmc4000.c **** 		Length -= *BytesProcessed;
 507              	 .loc 1 269 0
 508 0014 1688     	 ldrh r6,[r2]
 509 0016 8C1B     	 subs r4,r1,r6
 510 0018 2DE0     	 b .L78
 511              	.L74:
 264:C:/Users/Yushev/git/optiga-trust-qi/projects/xmc4700_relax_kit/common/Dave/Generated/USBD/usb/core/xmc4000\usbd_endpoint_stream_xmc4000.c **** 	uint8_t ErrorCode;
 512              	 .loc 1 264 0
 513 001a 1646     	 mov r6,r2
 514 001c 02E0     	 b .L67
 515              	.LVL52:
 516              	.L71:
 270:C:/Users/Yushev/git/optiga-trust-qi/projects/xmc4700_relax_kit/common/Dave/Generated/USBD/usb/core/xmc4000\usbd_endpoint_stream_xmc4000.c **** 		BytesTransfered = *BytesProcessed;
 271:C:/Users/Yushev/git/optiga-trust-qi/projects/xmc4700_relax_kit/common/Dave/Generated/USBD/usb/core/xmc4000\usbd_endpoint_stream_xmc4000.c **** 	}
 272:C:/Users/Yushev/git/optiga-trust-qi/projects/xmc4700_relax_kit/common/Dave/Generated/USBD/usb/core/xmc4000\usbd_endpoint_stream_xmc4000.c **** 
 273:C:/Users/Yushev/git/optiga-trust-qi/projects/xmc4700_relax_kit/common/Dave/Generated/USBD/usb/core/xmc4000\usbd_endpoint_stream_xmc4000.c **** 	while (Length) 
 274:C:/Users/Yushev/git/optiga-trust-qi/projects/xmc4700_relax_kit/common/Dave/Generated/USBD/usb/core/xmc4000\usbd_endpoint_stream_xmc4000.c **** 	{
 275:C:/Users/Yushev/git/optiga-trust-qi/projects/xmc4700_relax_kit/common/Dave/Generated/USBD/usb/core/xmc4000\usbd_endpoint_stream_xmc4000.c **** 		if (ep->InInUse)
 276:C:/Users/Yushev/git/optiga-trust-qi/projects/xmc4700_relax_kit/common/Dave/Generated/USBD/usb/core/xmc4000\usbd_endpoint_stream_xmc4000.c **** 		{
 277:C:/Users/Yushev/git/optiga-trust-qi/projects/xmc4700_relax_kit/common/Dave/Generated/USBD/usb/core/xmc4000\usbd_endpoint_stream_xmc4000.c **** 			continue;
 278:C:/Users/Yushev/git/optiga-trust-qi/projects/xmc4700_relax_kit/common/Dave/Generated/USBD/usb/core/xmc4000\usbd_endpoint_stream_xmc4000.c **** 		}
 279:C:/Users/Yushev/git/optiga-trust-qi/projects/xmc4700_relax_kit/common/Dave/Generated/USBD/usb/core/xmc4000\usbd_endpoint_stream_xmc4000.c **** 		if (Endpoint_IsReadWriteAllowed()) 
 280:C:/Users/Yushev/git/optiga-trust-qi/projects/xmc4700_relax_kit/common/Dave/Generated/USBD/usb/core/xmc4000\usbd_endpoint_stream_xmc4000.c **** 		{
 281:C:/Users/Yushev/git/optiga-trust-qi/projects/xmc4700_relax_kit/common/Dave/Generated/USBD/usb/core/xmc4000\usbd_endpoint_stream_xmc4000.c **** 			if(ep->OutBytesAvailable  > Length)
 282:C:/Users/Yushev/git/optiga-trust-qi/projects/xmc4700_relax_kit/common/Dave/Generated/USBD/usb/core/xmc4000\usbd_endpoint_stream_xmc4000.c **** 			{
 283:C:/Users/Yushev/git/optiga-trust-qi/projects/xmc4700_relax_kit/common/Dave/Generated/USBD/usb/core/xmc4000\usbd_endpoint_stream_xmc4000.c **** 				Bytes = Length;
 284:C:/Users/Yushev/git/optiga-trust-qi/projects/xmc4700_relax_kit/common/Dave/Generated/USBD/usb/core/xmc4000\usbd_endpoint_stream_xmc4000.c **** 			}
 285:C:/Users/Yushev/git/optiga-trust-qi/projects/xmc4700_relax_kit/common/Dave/Generated/USBD/usb/core/xmc4000\usbd_endpoint_stream_xmc4000.c **** 			else
 286:C:/Users/Yushev/git/optiga-trust-qi/projects/xmc4700_relax_kit/common/Dave/Generated/USBD/usb/core/xmc4000\usbd_endpoint_stream_xmc4000.c **** 			{
 287:C:/Users/Yushev/git/optiga-trust-qi/projects/xmc4700_relax_kit/common/Dave/Generated/USBD/usb/core/xmc4000\usbd_endpoint_stream_xmc4000.c **** 				Bytes = (uint16_t)ep->OutBytesAvailable;
 288:C:/Users/Yushev/git/optiga-trust-qi/projects/xmc4700_relax_kit/common/Dave/Generated/USBD/usb/core/xmc4000\usbd_endpoint_stream_xmc4000.c **** 			}
 289:C:/Users/Yushev/git/optiga-trust-qi/projects/xmc4700_relax_kit/common/Dave/Generated/USBD/usb/core/xmc4000\usbd_endpoint_stream_xmc4000.c **** 
 290:C:/Users/Yushev/git/optiga-trust-qi/projects/xmc4700_relax_kit/common/Dave/Generated/USBD/usb/core/xmc4000\usbd_endpoint_stream_xmc4000.c **** 			SwapCopy((uint8_t*)Buffer + BytesTransfered,
 291:C:/Users/Yushev/git/optiga-trust-qi/projects/xmc4700_relax_kit/common/Dave/Generated/USBD/usb/core/xmc4000\usbd_endpoint_stream_xmc4000.c **** 									ep->OutBuffer + ep->OutOffset,Bytes);
 292:C:/Users/Yushev/git/optiga-trust-qi/projects/xmc4700_relax_kit/common/Dave/Generated/USBD/usb/core/xmc4000\usbd_endpoint_stream_xmc4000.c **** 			ep->OutBytesAvailable -= Bytes;
 293:C:/Users/Yushev/git/optiga-trust-qi/projects/xmc4700_relax_kit/common/Dave/Generated/USBD/usb/core/xmc4000\usbd_endpoint_stream_xmc4000.c **** 			ep->OutOffset += Bytes;
 294:C:/Users/Yushev/git/optiga-trust-qi/projects/xmc4700_relax_kit/common/Dave/Generated/USBD/usb/core/xmc4000\usbd_endpoint_stream_xmc4000.c **** 			BytesTransfered += Bytes;
 295:C:/Users/Yushev/git/optiga-trust-qi/projects/xmc4700_relax_kit/common/Dave/Generated/USBD/usb/core/xmc4000\usbd_endpoint_stream_xmc4000.c **** 			Length -= Bytes;
 296:C:/Users/Yushev/git/optiga-trust-qi/projects/xmc4700_relax_kit/common/Dave/Generated/USBD/usb/core/xmc4000\usbd_endpoint_stream_xmc4000.c **** 		}
 297:C:/Users/Yushev/git/optiga-trust-qi/projects/xmc4700_relax_kit/common/Dave/Generated/USBD/usb/core/xmc4000\usbd_endpoint_stream_xmc4000.c **** 		else 
 298:C:/Users/Yushev/git/optiga-trust-qi/projects/xmc4700_relax_kit/common/Dave/Generated/USBD/usb/core/xmc4000\usbd_endpoint_stream_xmc4000.c **** 		{
 299:C:/Users/Yushev/git/optiga-trust-qi/projects/xmc4700_relax_kit/common/Dave/Generated/USBD/usb/core/xmc4000\usbd_endpoint_stream_xmc4000.c **** 			Endpoint_ClearOUT();
 300:C:/Users/Yushev/git/optiga-trust-qi/projects/xmc4700_relax_kit/common/Dave/Generated/USBD/usb/core/xmc4000\usbd_endpoint_stream_xmc4000.c **** 			if (BytesProcessed!=NULL) 
 301:C:/Users/Yushev/git/optiga-trust-qi/projects/xmc4700_relax_kit/common/Dave/Generated/USBD/usb/core/xmc4000\usbd_endpoint_stream_xmc4000.c **** 			{
 302:C:/Users/Yushev/git/optiga-trust-qi/projects/xmc4700_relax_kit/common/Dave/Generated/USBD/usb/core/xmc4000\usbd_endpoint_stream_xmc4000.c **** 				*BytesProcessed = BytesTransfered;
 303:C:/Users/Yushev/git/optiga-trust-qi/projects/xmc4700_relax_kit/common/Dave/Generated/USBD/usb/core/xmc4000\usbd_endpoint_stream_xmc4000.c **** 				return ENDPOINT_RWSTREAM_IncompleteTransfer;
 304:C:/Users/Yushev/git/optiga-trust-qi/projects/xmc4700_relax_kit/common/Dave/Generated/USBD/usb/core/xmc4000\usbd_endpoint_stream_xmc4000.c **** 			}
 305:C:/Users/Yushev/git/optiga-trust-qi/projects/xmc4700_relax_kit/common/Dave/Generated/USBD/usb/core/xmc4000\usbd_endpoint_stream_xmc4000.c **** 			ErrorCode = Endpoint_WaitUntilReady();
 517              	 .loc 1 305 0
 518 001e FFF7FEFF 	 bl Endpoint_WaitUntilReady
 519              	.LVL53:
 306:C:/Users/Yushev/git/optiga-trust-qi/projects/xmc4700_relax_kit/common/Dave/Generated/USBD/usb/core/xmc4000\usbd_endpoint_stream_xmc4000.c **** 			if (ErrorCode) 
 520              	 .loc 1 306 0
 521 0022 98BB     	 cbnz r0,.L72
 522              	.LVL54:
 523              	.L67:
 273:C:/Users/Yushev/git/optiga-trust-qi/projects/xmc4700_relax_kit/common/Dave/Generated/USBD/usb/core/xmc4000\usbd_endpoint_stream_xmc4000.c **** 	{
 524              	 .loc 1 273 0
 525 0024 8DB3     	 cbz r5,.L79
 275:C:/Users/Yushev/git/optiga-trust-qi/projects/xmc4700_relax_kit/common/Dave/Generated/USBD/usb/core/xmc4000\usbd_endpoint_stream_xmc4000.c **** 		{
 526              	 .loc 1 275 0
 527 0026 2C24     	 movs r4,#44
 528 0028 04FB0984 	 mla r4,r4,r9,r8
 529 002c A368     	 ldr r3,[r4,#8]
 530 002e DB06     	 lsls r3,r3,#27
 531 0030 F8D4     	 bmi .L67
 279:C:/Users/Yushev/git/optiga-trust-qi/projects/xmc4700_relax_kit/common/Dave/Generated/USBD/usb/core/xmc4000\usbd_endpoint_stream_xmc4000.c **** 		{
 532              	 .loc 1 279 0
 533 0032 FFF7FEFF 	 bl Endpoint_IsReadWriteAllowed
 534              	.LVL55:
 535 0036 00B3     	 cbz r0,.L68
 291:C:/Users/Yushev/git/optiga-trust-qi/projects/xmc4700_relax_kit/common/Dave/Generated/USBD/usb/core/xmc4000\usbd_endpoint_stream_xmc4000.c **** 			ep->OutBytesAvailable -= Bytes;
 536              	 .loc 1 291 0
 537 0038 2C23     	 movs r3,#44
 281:C:/Users/Yushev/git/optiga-trust-qi/projects/xmc4700_relax_kit/common/Dave/Generated/USBD/usb/core/xmc4000\usbd_endpoint_stream_xmc4000.c **** 			{
 538              	 .loc 1 281 0
 539 003a E468     	 ldr r4,[r4,#12]
 291:C:/Users/Yushev/git/optiga-trust-qi/projects/xmc4700_relax_kit/common/Dave/Generated/USBD/usb/core/xmc4000\usbd_endpoint_stream_xmc4000.c **** 			ep->OutBytesAvailable -= Bytes;
 540              	 .loc 1 291 0
 541 003c 03FB0983 	 mla r3,r3,r9,r8
 542 0040 03F1080B 	 add fp,r3,#8
 281:C:/Users/Yushev/git/optiga-trust-qi/projects/xmc4700_relax_kit/common/Dave/Generated/USBD/usb/core/xmc4000\usbd_endpoint_stream_xmc4000.c **** 			{
 543              	 .loc 1 281 0
 544 0044 AC42     	 cmp r4,r5
 290:C:/Users/Yushev/git/optiga-trust-qi/projects/xmc4700_relax_kit/common/Dave/Generated/USBD/usb/core/xmc4000\usbd_endpoint_stream_xmc4000.c **** 									ep->OutBuffer + ep->OutOffset,Bytes);
 545              	 .loc 1 290 0
 546 0046 5969     	 ldr r1,[r3,#20]
 547 0048 1B69     	 ldr r3,[r3,#16]
 287:C:/Users/Yushev/git/optiga-trust-qi/projects/xmc4700_relax_kit/common/Dave/Generated/USBD/usb/core/xmc4000\usbd_endpoint_stream_xmc4000.c **** 			}
 548              	 .loc 1 287 0
 549 004a 94BF     	 ite ls
 550 004c A4B2     	 uxthls r4,r4
 551              	.LVL56:
 552 004e 2C46     	 movhi r4,r5
 553              	.LVL57:
 290:C:/Users/Yushev/git/optiga-trust-qi/projects/xmc4700_relax_kit/common/Dave/Generated/USBD/usb/core/xmc4000\usbd_endpoint_stream_xmc4000.c **** 									ep->OutBuffer + ep->OutOffset,Bytes);
 554              	 .loc 1 290 0
 555 0050 0AEB0600 	 add r0,r10,r6
 556 0054 1944     	 add r1,r1,r3
 557 0056 2246     	 mov r2,r4
 558 0058 FFF7FEFF 	 bl SwapCopy
 559              	.LVL58:
 292:C:/Users/Yushev/git/optiga-trust-qi/projects/xmc4700_relax_kit/common/Dave/Generated/USBD/usb/core/xmc4000\usbd_endpoint_stream_xmc4000.c **** 			ep->OutOffset += Bytes;
 560              	 .loc 1 292 0
 561 005c DBF80430 	 ldr r3,[fp,#4]
 562 0060 1B1B     	 subs r3,r3,r4
 563 0062 CBF80430 	 str r3,[fp,#4]
 293:C:/Users/Yushev/git/optiga-trust-qi/projects/xmc4700_relax_kit/common/Dave/Generated/USBD/usb/core/xmc4000\usbd_endpoint_stream_xmc4000.c **** 			BytesTransfered += Bytes;
 564              	 .loc 1 293 0
 565 0066 DBF80830 	 ldr r3,[fp,#8]
 294:C:/Users/Yushev/git/optiga-trust-qi/projects/xmc4700_relax_kit/common/Dave/Generated/USBD/usb/core/xmc4000\usbd_endpoint_stream_xmc4000.c **** 			Length -= Bytes;
 566              	 .loc 1 294 0
 567 006a 2644     	 add r6,r6,r4
 293:C:/Users/Yushev/git/optiga-trust-qi/projects/xmc4700_relax_kit/common/Dave/Generated/USBD/usb/core/xmc4000\usbd_endpoint_stream_xmc4000.c **** 			BytesTransfered += Bytes;
 568              	 .loc 1 293 0
 569 006c 2344     	 add r3,r3,r4
 570 006e CBF80830 	 str r3,[fp,#8]
 294:C:/Users/Yushev/git/optiga-trust-qi/projects/xmc4700_relax_kit/common/Dave/Generated/USBD/usb/core/xmc4000\usbd_endpoint_stream_xmc4000.c **** 			Length -= Bytes;
 571              	 .loc 1 294 0
 572 0072 B6B2     	 uxth r6,r6
 573              	.LVL59:
 295:C:/Users/Yushev/git/optiga-trust-qi/projects/xmc4700_relax_kit/common/Dave/Generated/USBD/usb/core/xmc4000\usbd_endpoint_stream_xmc4000.c **** 		}
 574              	 .loc 1 295 0
 575 0074 2C1B     	 subs r4,r5,r4
 576              	.LVL60:
 577              	.L78:
 578 0076 A5B2     	 uxth r5,r4
 579              	.LVL61:
 580 0078 D4E7     	 b .L67
 581              	.L68:
 299:C:/Users/Yushev/git/optiga-trust-qi/projects/xmc4700_relax_kit/common/Dave/Generated/USBD/usb/core/xmc4000\usbd_endpoint_stream_xmc4000.c **** 			if (BytesProcessed!=NULL) 
 582              	 .loc 1 299 0
 583 007a FFF7FEFF 	 bl Endpoint_ClearOUT
 584              	.LVL62:
 300:C:/Users/Yushev/git/optiga-trust-qi/projects/xmc4700_relax_kit/common/Dave/Generated/USBD/usb/core/xmc4000\usbd_endpoint_stream_xmc4000.c **** 			{
 585              	 .loc 1 300 0
 586 007e 002F     	 cmp r7,#0
 587 0080 CDD0     	 beq .L71
 302:C:/Users/Yushev/git/optiga-trust-qi/projects/xmc4700_relax_kit/common/Dave/Generated/USBD/usb/core/xmc4000\usbd_endpoint_stream_xmc4000.c **** 				return ENDPOINT_RWSTREAM_IncompleteTransfer;
 588              	 .loc 1 302 0
 589 0082 3E80     	 strh r6,[r7]
 303:C:/Users/Yushev/git/optiga-trust-qi/projects/xmc4700_relax_kit/common/Dave/Generated/USBD/usb/core/xmc4000\usbd_endpoint_stream_xmc4000.c **** 			}
 590              	 .loc 1 303 0
 591 0084 0520     	 movs r0,#5
 592 0086 BDE8F88F 	 pop {r3,r4,r5,r6,r7,r8,r9,r10,fp,pc}
 593              	.LVL63:
 594              	.L79:
 307:C:/Users/Yushev/git/optiga-trust-qi/projects/xmc4700_relax_kit/common/Dave/Generated/USBD/usb/core/xmc4000\usbd_endpoint_stream_xmc4000.c **** 			{
 308:C:/Users/Yushev/git/optiga-trust-qi/projects/xmc4700_relax_kit/common/Dave/Generated/USBD/usb/core/xmc4000\usbd_endpoint_stream_xmc4000.c **** 				return ErrorCode;
 309:C:/Users/Yushev/git/optiga-trust-qi/projects/xmc4700_relax_kit/common/Dave/Generated/USBD/usb/core/xmc4000\usbd_endpoint_stream_xmc4000.c **** 			}
 310:C:/Users/Yushev/git/optiga-trust-qi/projects/xmc4700_relax_kit/common/Dave/Generated/USBD/usb/core/xmc4000\usbd_endpoint_stream_xmc4000.c **** 		}
 311:C:/Users/Yushev/git/optiga-trust-qi/projects/xmc4700_relax_kit/common/Dave/Generated/USBD/usb/core/xmc4000\usbd_endpoint_stream_xmc4000.c **** 	}
 312:C:/Users/Yushev/git/optiga-trust-qi/projects/xmc4700_relax_kit/common/Dave/Generated/USBD/usb/core/xmc4000\usbd_endpoint_stream_xmc4000.c **** 	return ENDPOINT_RWSTREAM_NoError;
 595              	 .loc 1 312 0
 596 008a 2846     	 mov r0,r5
 597              	.L72:
 313:C:/Users/Yushev/git/optiga-trust-qi/projects/xmc4700_relax_kit/common/Dave/Generated/USBD/usb/core/xmc4000\usbd_endpoint_stream_xmc4000.c **** }
 598              	 .loc 1 313 0
 599 008c BDE8F88F 	 pop {r3,r4,r5,r6,r7,r8,r9,r10,fp,pc}
 600              	.LVL64:
 601              	.L81:
 602              	 .align 2
 603              	.L80:
 604 0090 00000000 	 .word device
 605              	 .cfi_endproc
 606              	.LFE190:
 608              	 .section .text.Endpoint_Write_Control_Stream_LE,"ax",%progbits
 609              	 .align 1
 610              	 .global Endpoint_Write_Control_Stream_LE
 611              	 .thumb
 612              	 .thumb_func
 614              	Endpoint_Write_Control_Stream_LE:
 615              	.LFB191:
 314:C:/Users/Yushev/git/optiga-trust-qi/projects/xmc4700_relax_kit/common/Dave/Generated/USBD/usb/core/xmc4000\usbd_endpoint_stream_xmc4000.c **** 
 315:C:/Users/Yushev/git/optiga-trust-qi/projects/xmc4700_relax_kit/common/Dave/Generated/USBD/usb/core/xmc4000\usbd_endpoint_stream_xmc4000.c **** uint8_t	Endpoint_Write_Control_Stream_LE (const void *const Buffer,
 316:C:/Users/Yushev/git/optiga-trust-qi/projects/xmc4700_relax_kit/common/Dave/Generated/USBD/usb/core/xmc4000\usbd_endpoint_stream_xmc4000.c **** 													uint16_t Length)
 317:C:/Users/Yushev/git/optiga-trust-qi/projects/xmc4700_relax_kit/common/Dave/Generated/USBD/usb/core/xmc4000\usbd_endpoint_stream_xmc4000.c **** {
 616              	 .loc 1 317 0
 617              	 .cfi_startproc
 618              	 
 619              	 
 620              	.LVL65:
 621 0000 F8B5     	 push {r3,r4,r5,r6,r7,lr}
 622              	.LCFI4:
 623              	 .cfi_def_cfa_offset 24
 624              	 .cfi_offset 3,-24
 625              	 .cfi_offset 4,-20
 626              	 .cfi_offset 5,-16
 627              	 .cfi_offset 6,-12
 628              	 .cfi_offset 7,-8
 629              	 .cfi_offset 14,-4
 630 0002 0746     	 mov r7,r0
 631 0004 0C46     	 mov r4,r1
 632              	.LVL66:
 633              	.L84:
 318:C:/Users/Yushev/git/optiga-trust-qi/projects/xmc4700_relax_kit/common/Dave/Generated/USBD/usb/core/xmc4000\usbd_endpoint_stream_xmc4000.c **** 	USBD_Endpoint_t *EndPoint = &device.Endpoints[0];
 319:C:/Users/Yushev/git/optiga-trust-qi/projects/xmc4700_relax_kit/common/Dave/Generated/USBD/usb/core/xmc4000\usbd_endpoint_stream_xmc4000.c **** 	uint16_t Bytes;
 320:C:/Users/Yushev/git/optiga-trust-qi/projects/xmc4700_relax_kit/common/Dave/Generated/USBD/usb/core/xmc4000\usbd_endpoint_stream_xmc4000.c **** 
 321:C:/Users/Yushev/git/optiga-trust-qi/projects/xmc4700_relax_kit/common/Dave/Generated/USBD/usb/core/xmc4000\usbd_endpoint_stream_xmc4000.c **** 	while (Length) 
 634              	 .loc 1 321 0
 635 0006 ACB1     	 cbz r4,.L89
 322:C:/Users/Yushev/git/optiga-trust-qi/projects/xmc4700_relax_kit/common/Dave/Generated/USBD/usb/core/xmc4000\usbd_endpoint_stream_xmc4000.c **** 	{
 323:C:/Users/Yushev/git/optiga-trust-qi/projects/xmc4700_relax_kit/common/Dave/Generated/USBD/usb/core/xmc4000\usbd_endpoint_stream_xmc4000.c **** 		if (!EndPoint->InInUse) 
 636              	 .loc 1 323 0
 637 0008 0B4E     	 ldr r6,.L90
 638 000a B368     	 ldr r3,[r6,#8]
 639 000c DB06     	 lsls r3,r3,#27
 640 000e FAD4     	 bmi .L84
 324:C:/Users/Yushev/git/optiga-trust-qi/projects/xmc4700_relax_kit/common/Dave/Generated/USBD/usb/core/xmc4000\usbd_endpoint_stream_xmc4000.c **** 		{
 325:C:/Users/Yushev/git/optiga-trust-qi/projects/xmc4700_relax_kit/common/Dave/Generated/USBD/usb/core/xmc4000\usbd_endpoint_stream_xmc4000.c **** 			if (EndPoint->InBufferLength > Length) 
 641              	 .loc 1 325 0
 642 0010 756A     	 ldr r5,[r6,#36]
 326:C:/Users/Yushev/git/optiga-trust-qi/projects/xmc4700_relax_kit/common/Dave/Generated/USBD/usb/core/xmc4000\usbd_endpoint_stream_xmc4000.c **** 			{
 327:C:/Users/Yushev/git/optiga-trust-qi/projects/xmc4700_relax_kit/common/Dave/Generated/USBD/usb/core/xmc4000\usbd_endpoint_stream_xmc4000.c **** 				Bytes = Length;
 328:C:/Users/Yushev/git/optiga-trust-qi/projects/xmc4700_relax_kit/common/Dave/Generated/USBD/usb/core/xmc4000\usbd_endpoint_stream_xmc4000.c **** 			} 
 329:C:/Users/Yushev/git/optiga-trust-qi/projects/xmc4700_relax_kit/common/Dave/Generated/USBD/usb/core/xmc4000\usbd_endpoint_stream_xmc4000.c **** 			else 
 330:C:/Users/Yushev/git/optiga-trust-qi/projects/xmc4700_relax_kit/common/Dave/Generated/USBD/usb/core/xmc4000\usbd_endpoint_stream_xmc4000.c **** 			{
 331:C:/Users/Yushev/git/optiga-trust-qi/projects/xmc4700_relax_kit/common/Dave/Generated/USBD/usb/core/xmc4000\usbd_endpoint_stream_xmc4000.c **** 				Bytes = (uint16_t)EndPoint->InBufferLength;
 332:C:/Users/Yushev/git/optiga-trust-qi/projects/xmc4700_relax_kit/common/Dave/Generated/USBD/usb/core/xmc4000\usbd_endpoint_stream_xmc4000.c **** 			}
 333:C:/Users/Yushev/git/optiga-trust-qi/projects/xmc4700_relax_kit/common/Dave/Generated/USBD/usb/core/xmc4000\usbd_endpoint_stream_xmc4000.c **** 			memcpy(EndPoint->InBuffer,Buffer,Bytes);
 643              	 .loc 1 333 0
 644 0012 306A     	 ldr r0,[r6,#32]
 325:C:/Users/Yushev/git/optiga-trust-qi/projects/xmc4700_relax_kit/common/Dave/Generated/USBD/usb/core/xmc4000\usbd_endpoint_stream_xmc4000.c **** 			{
 645              	 .loc 1 325 0
 646 0014 A542     	 cmp r5,r4
 331:C:/Users/Yushev/git/optiga-trust-qi/projects/xmc4700_relax_kit/common/Dave/Generated/USBD/usb/core/xmc4000\usbd_endpoint_stream_xmc4000.c **** 			}
 647              	 .loc 1 331 0
 648 0016 94BF     	 ite ls
 649 0018 ADB2     	 uxthls r5,r5
 650              	.LVL67:
 651 001a 2546     	 movhi r5,r4
 652              	.LVL68:
 653              	 .loc 1 333 0
 654 001c 3946     	 mov r1,r7
 655 001e 2A46     	 mov r2,r5
 656 0020 FFF7FEFF 	 bl memcpy
 657              	.LVL69:
 334:C:/Users/Yushev/git/optiga-trust-qi/projects/xmc4700_relax_kit/common/Dave/Generated/USBD/usb/core/xmc4000\usbd_endpoint_stream_xmc4000.c **** 			EndPoint->InBytesAvailable += Bytes;
 658              	 .loc 1 334 0
 659 0024 F369     	 ldr r3,[r6,#28]
 660 0026 2B44     	 add r3,r3,r5
 335:C:/Users/Yushev/git/optiga-trust-qi/projects/xmc4700_relax_kit/common/Dave/Generated/USBD/usb/core/xmc4000\usbd_endpoint_stream_xmc4000.c **** 			Length -= Bytes;
 661              	 .loc 1 335 0
 662 0028 641B     	 subs r4,r4,r5
 663              	.LVL70:
 334:C:/Users/Yushev/git/optiga-trust-qi/projects/xmc4700_relax_kit/common/Dave/Generated/USBD/usb/core/xmc4000\usbd_endpoint_stream_xmc4000.c **** 			EndPoint->InBytesAvailable += Bytes;
 664              	 .loc 1 334 0
 665 002a F361     	 str r3,[r6,#28]
 666              	 .loc 1 335 0
 667 002c A4B2     	 uxth r4,r4
 668              	.LVL71:
 336:C:/Users/Yushev/git/optiga-trust-qi/projects/xmc4700_relax_kit/common/Dave/Generated/USBD/usb/core/xmc4000\usbd_endpoint_stream_xmc4000.c **** 
 337:C:/Users/Yushev/git/optiga-trust-qi/projects/xmc4700_relax_kit/common/Dave/Generated/USBD/usb/core/xmc4000\usbd_endpoint_stream_xmc4000.c **** 			Endpoint_ClearIN();
 669              	 .loc 1 337 0
 670 002e FFF7FEFF 	 bl Endpoint_ClearIN
 671              	.LVL72:
 672 0032 E8E7     	 b .L84
 673              	.LVL73:
 674              	.L89:
 338:C:/Users/Yushev/git/optiga-trust-qi/projects/xmc4700_relax_kit/common/Dave/Generated/USBD/usb/core/xmc4000\usbd_endpoint_stream_xmc4000.c **** 		}
 339:C:/Users/Yushev/git/optiga-trust-qi/projects/xmc4700_relax_kit/common/Dave/Generated/USBD/usb/core/xmc4000\usbd_endpoint_stream_xmc4000.c **** 	}
 340:C:/Users/Yushev/git/optiga-trust-qi/projects/xmc4700_relax_kit/common/Dave/Generated/USBD/usb/core/xmc4000\usbd_endpoint_stream_xmc4000.c **** 	return ENDPOINT_RWCSTREAM_NoError;
 341:C:/Users/Yushev/git/optiga-trust-qi/projects/xmc4700_relax_kit/common/Dave/Generated/USBD/usb/core/xmc4000\usbd_endpoint_stream_xmc4000.c **** }
 675              	 .loc 1 341 0
 676 0034 2046     	 mov r0,r4
 677 0036 F8BD     	 pop {r3,r4,r5,r6,r7,pc}
 678              	.LVL74:
 679              	.L91:
 680              	 .align 2
 681              	.L90:
 682 0038 00000000 	 .word device
 683              	 .cfi_endproc
 684              	.LFE191:
 686              	 .section .text.Endpoint_Write_Control_Stream_BE,"ax",%progbits
 687              	 .align 1
 688              	 .global Endpoint_Write_Control_Stream_BE
 689              	 .thumb
 690              	 .thumb_func
 692              	Endpoint_Write_Control_Stream_BE:
 693              	.LFB192:
 342:C:/Users/Yushev/git/optiga-trust-qi/projects/xmc4700_relax_kit/common/Dave/Generated/USBD/usb/core/xmc4000\usbd_endpoint_stream_xmc4000.c **** 
 343:C:/Users/Yushev/git/optiga-trust-qi/projects/xmc4700_relax_kit/common/Dave/Generated/USBD/usb/core/xmc4000\usbd_endpoint_stream_xmc4000.c **** uint8_t	Endpoint_Write_Control_Stream_BE (const void *const Buffer,
 344:C:/Users/Yushev/git/optiga-trust-qi/projects/xmc4700_relax_kit/common/Dave/Generated/USBD/usb/core/xmc4000\usbd_endpoint_stream_xmc4000.c **** 													uint16_t Length)
 345:C:/Users/Yushev/git/optiga-trust-qi/projects/xmc4700_relax_kit/common/Dave/Generated/USBD/usb/core/xmc4000\usbd_endpoint_stream_xmc4000.c **** {
 694              	 .loc 1 345 0
 695              	 .cfi_startproc
 696              	 
 697              	 
 698              	 
 699              	.LVL75:
 346:C:/Users/Yushev/git/optiga-trust-qi/projects/xmc4700_relax_kit/common/Dave/Generated/USBD/usb/core/xmc4000\usbd_endpoint_stream_xmc4000.c **** 	return Endpoint_Write_Control_Stream_LE(Buffer,Length);
 700              	 .loc 1 346 0
 701 0000 FFF7FEBF 	 b Endpoint_Write_Control_Stream_LE
 702              	.LVL76:
 703              	 .cfi_endproc
 704              	.LFE192:
 706              	 .section .text.Endpoint_Read_Control_Stream_LE,"ax",%progbits
 707              	 .align 1
 708              	 .global Endpoint_Read_Control_Stream_LE
 709              	 .thumb
 710              	 .thumb_func
 712              	Endpoint_Read_Control_Stream_LE:
 713              	.LFB193:
 347:C:/Users/Yushev/git/optiga-trust-qi/projects/xmc4700_relax_kit/common/Dave/Generated/USBD/usb/core/xmc4000\usbd_endpoint_stream_xmc4000.c **** }
 348:C:/Users/Yushev/git/optiga-trust-qi/projects/xmc4700_relax_kit/common/Dave/Generated/USBD/usb/core/xmc4000\usbd_endpoint_stream_xmc4000.c **** 
 349:C:/Users/Yushev/git/optiga-trust-qi/projects/xmc4700_relax_kit/common/Dave/Generated/USBD/usb/core/xmc4000\usbd_endpoint_stream_xmc4000.c **** uint8_t	Endpoint_Read_Control_Stream_LE (void *const Buffer, uint16_t Length) {
 714              	 .loc 1 349 0
 715              	 .cfi_startproc
 716              	 
 717              	 
 718              	.LVL77:
 719 0000 F8B5     	 push {r3,r4,r5,r6,r7,lr}
 720              	.LCFI5:
 721              	 .cfi_def_cfa_offset 24
 722              	 .cfi_offset 3,-24
 723              	 .cfi_offset 4,-20
 724              	 .cfi_offset 5,-16
 725              	 .cfi_offset 6,-12
 726              	 .cfi_offset 7,-8
 727              	 .cfi_offset 14,-4
 728 0002 0746     	 mov r7,r0
 729 0004 0C46     	 mov r4,r1
 730              	.LVL78:
 731              	.L95:
 350:C:/Users/Yushev/git/optiga-trust-qi/projects/xmc4700_relax_kit/common/Dave/Generated/USBD/usb/core/xmc4000\usbd_endpoint_stream_xmc4000.c **** 	USBD_Endpoint_t *EndPoint = &device.Endpoints[0];
 351:C:/Users/Yushev/git/optiga-trust-qi/projects/xmc4700_relax_kit/common/Dave/Generated/USBD/usb/core/xmc4000\usbd_endpoint_stream_xmc4000.c **** 	uint16_t Bytes;
 352:C:/Users/Yushev/git/optiga-trust-qi/projects/xmc4700_relax_kit/common/Dave/Generated/USBD/usb/core/xmc4000\usbd_endpoint_stream_xmc4000.c **** 
 353:C:/Users/Yushev/git/optiga-trust-qi/projects/xmc4700_relax_kit/common/Dave/Generated/USBD/usb/core/xmc4000\usbd_endpoint_stream_xmc4000.c **** 	while (Length) 
 732              	 .loc 1 353 0
 733 0006 ACB1     	 cbz r4,.L101
 354:C:/Users/Yushev/git/optiga-trust-qi/projects/xmc4700_relax_kit/common/Dave/Generated/USBD/usb/core/xmc4000\usbd_endpoint_stream_xmc4000.c **** 	{
 355:C:/Users/Yushev/git/optiga-trust-qi/projects/xmc4700_relax_kit/common/Dave/Generated/USBD/usb/core/xmc4000\usbd_endpoint_stream_xmc4000.c **** 		if (EndPoint->IsOutRecieved) 
 734              	 .loc 1 355 0
 735 0008 0B4E     	 ldr r6,.L102
 736 000a B368     	 ldr r3,[r6,#8]
 737 000c 9B06     	 lsls r3,r3,#26
 738 000e FAD5     	 bpl .L95
 356:C:/Users/Yushev/git/optiga-trust-qi/projects/xmc4700_relax_kit/common/Dave/Generated/USBD/usb/core/xmc4000\usbd_endpoint_stream_xmc4000.c **** 		{
 357:C:/Users/Yushev/git/optiga-trust-qi/projects/xmc4700_relax_kit/common/Dave/Generated/USBD/usb/core/xmc4000\usbd_endpoint_stream_xmc4000.c **** 			if(EndPoint->OutBytesAvailable > Length)
 739              	 .loc 1 357 0
 740 0010 F568     	 ldr r5,[r6,#12]
 358:C:/Users/Yushev/git/optiga-trust-qi/projects/xmc4700_relax_kit/common/Dave/Generated/USBD/usb/core/xmc4000\usbd_endpoint_stream_xmc4000.c **** 			{
 359:C:/Users/Yushev/git/optiga-trust-qi/projects/xmc4700_relax_kit/common/Dave/Generated/USBD/usb/core/xmc4000\usbd_endpoint_stream_xmc4000.c **** 				Bytes = Length;
 360:C:/Users/Yushev/git/optiga-trust-qi/projects/xmc4700_relax_kit/common/Dave/Generated/USBD/usb/core/xmc4000\usbd_endpoint_stream_xmc4000.c **** 			}
 361:C:/Users/Yushev/git/optiga-trust-qi/projects/xmc4700_relax_kit/common/Dave/Generated/USBD/usb/core/xmc4000\usbd_endpoint_stream_xmc4000.c **** 			else
 362:C:/Users/Yushev/git/optiga-trust-qi/projects/xmc4700_relax_kit/common/Dave/Generated/USBD/usb/core/xmc4000\usbd_endpoint_stream_xmc4000.c **** 			{
 363:C:/Users/Yushev/git/optiga-trust-qi/projects/xmc4700_relax_kit/common/Dave/Generated/USBD/usb/core/xmc4000\usbd_endpoint_stream_xmc4000.c **** 				Bytes = (uint16_t)EndPoint->OutBytesAvailable;
 364:C:/Users/Yushev/git/optiga-trust-qi/projects/xmc4700_relax_kit/common/Dave/Generated/USBD/usb/core/xmc4000\usbd_endpoint_stream_xmc4000.c **** 			}
 365:C:/Users/Yushev/git/optiga-trust-qi/projects/xmc4700_relax_kit/common/Dave/Generated/USBD/usb/core/xmc4000\usbd_endpoint_stream_xmc4000.c **** 
 366:C:/Users/Yushev/git/optiga-trust-qi/projects/xmc4700_relax_kit/common/Dave/Generated/USBD/usb/core/xmc4000\usbd_endpoint_stream_xmc4000.c **** 			memcpy(Buffer,EndPoint->OutBuffer,Bytes);
 741              	 .loc 1 366 0
 742 0012 7169     	 ldr r1,[r6,#20]
 357:C:/Users/Yushev/git/optiga-trust-qi/projects/xmc4700_relax_kit/common/Dave/Generated/USBD/usb/core/xmc4000\usbd_endpoint_stream_xmc4000.c **** 			{
 743              	 .loc 1 357 0
 744 0014 A542     	 cmp r5,r4
 363:C:/Users/Yushev/git/optiga-trust-qi/projects/xmc4700_relax_kit/common/Dave/Generated/USBD/usb/core/xmc4000\usbd_endpoint_stream_xmc4000.c **** 			}
 745              	 .loc 1 363 0
 746 0016 94BF     	 ite ls
 747 0018 ADB2     	 uxthls r5,r5
 748              	.LVL79:
 749 001a 2546     	 movhi r5,r4
 750              	.LVL80:
 751              	 .loc 1 366 0
 752 001c 3846     	 mov r0,r7
 753 001e 2A46     	 mov r2,r5
 754 0020 FFF7FEFF 	 bl memcpy
 755              	.LVL81:
 367:C:/Users/Yushev/git/optiga-trust-qi/projects/xmc4700_relax_kit/common/Dave/Generated/USBD/usb/core/xmc4000\usbd_endpoint_stream_xmc4000.c **** 			EndPoint->OutBytesAvailable -= Bytes;
 756              	 .loc 1 367 0
 757 0024 F368     	 ldr r3,[r6,#12]
 758 0026 5B1B     	 subs r3,r3,r5
 368:C:/Users/Yushev/git/optiga-trust-qi/projects/xmc4700_relax_kit/common/Dave/Generated/USBD/usb/core/xmc4000\usbd_endpoint_stream_xmc4000.c **** 			Length -= Bytes;
 759              	 .loc 1 368 0
 760 0028 641B     	 subs r4,r4,r5
 761              	.LVL82:
 367:C:/Users/Yushev/git/optiga-trust-qi/projects/xmc4700_relax_kit/common/Dave/Generated/USBD/usb/core/xmc4000\usbd_endpoint_stream_xmc4000.c **** 			EndPoint->OutBytesAvailable -= Bytes;
 762              	 .loc 1 367 0
 763 002a F360     	 str r3,[r6,#12]
 764              	 .loc 1 368 0
 765 002c A4B2     	 uxth r4,r4
 766              	.LVL83:
 369:C:/Users/Yushev/git/optiga-trust-qi/projects/xmc4700_relax_kit/common/Dave/Generated/USBD/usb/core/xmc4000\usbd_endpoint_stream_xmc4000.c **** 
 370:C:/Users/Yushev/git/optiga-trust-qi/projects/xmc4700_relax_kit/common/Dave/Generated/USBD/usb/core/xmc4000\usbd_endpoint_stream_xmc4000.c **** 			Endpoint_ClearOUT();
 767              	 .loc 1 370 0
 768 002e FFF7FEFF 	 bl Endpoint_ClearOUT
 769              	.LVL84:
 770 0032 E8E7     	 b .L95
 771              	.LVL85:
 772              	.L101:
 371:C:/Users/Yushev/git/optiga-trust-qi/projects/xmc4700_relax_kit/common/Dave/Generated/USBD/usb/core/xmc4000\usbd_endpoint_stream_xmc4000.c **** 		}
 372:C:/Users/Yushev/git/optiga-trust-qi/projects/xmc4700_relax_kit/common/Dave/Generated/USBD/usb/core/xmc4000\usbd_endpoint_stream_xmc4000.c **** 	}
 373:C:/Users/Yushev/git/optiga-trust-qi/projects/xmc4700_relax_kit/common/Dave/Generated/USBD/usb/core/xmc4000\usbd_endpoint_stream_xmc4000.c **** 	return ENDPOINT_RWCSTREAM_NoError;
 374:C:/Users/Yushev/git/optiga-trust-qi/projects/xmc4700_relax_kit/common/Dave/Generated/USBD/usb/core/xmc4000\usbd_endpoint_stream_xmc4000.c **** }
 773              	 .loc 1 374 0
 774 0034 2046     	 mov r0,r4
 775 0036 F8BD     	 pop {r3,r4,r5,r6,r7,pc}
 776              	.LVL86:
 777              	.L103:
 778              	 .align 2
 779              	.L102:
 780 0038 00000000 	 .word device
 781              	 .cfi_endproc
 782              	.LFE193:
 784              	 .section .text.Endpoint_Read_Control_Stream_BE,"ax",%progbits
 785              	 .align 1
 786              	 .global Endpoint_Read_Control_Stream_BE
 787              	 .thumb
 788              	 .thumb_func
 790              	Endpoint_Read_Control_Stream_BE:
 791              	.LFB194:
 375:C:/Users/Yushev/git/optiga-trust-qi/projects/xmc4700_relax_kit/common/Dave/Generated/USBD/usb/core/xmc4000\usbd_endpoint_stream_xmc4000.c **** 
 376:C:/Users/Yushev/git/optiga-trust-qi/projects/xmc4700_relax_kit/common/Dave/Generated/USBD/usb/core/xmc4000\usbd_endpoint_stream_xmc4000.c **** uint8_t	Endpoint_Read_Control_Stream_BE (void *const Buffer, uint16_t Length) 
 377:C:/Users/Yushev/git/optiga-trust-qi/projects/xmc4700_relax_kit/common/Dave/Generated/USBD/usb/core/xmc4000\usbd_endpoint_stream_xmc4000.c **** {
 792              	 .loc 1 377 0
 793              	 .cfi_startproc
 794              	 
 795              	 
 796              	 
 797              	.LVL87:
 378:C:/Users/Yushev/git/optiga-trust-qi/projects/xmc4700_relax_kit/common/Dave/Generated/USBD/usb/core/xmc4000\usbd_endpoint_stream_xmc4000.c **** 	return Endpoint_Read_Control_Stream_LE(Buffer,Length);
 798              	 .loc 1 378 0
 799 0000 FFF7FEBF 	 b Endpoint_Read_Control_Stream_LE
 800              	.LVL88:
 801              	 .cfi_endproc
 802              	.LFE194:
 804              	 .section .text.Endpoint_Null_Stream,"ax",%progbits
 805              	 .align 1
 806              	 .global Endpoint_Null_Stream
 807              	 .thumb
 808              	 .thumb_func
 810              	Endpoint_Null_Stream:
 811              	.LFB195:
 379:C:/Users/Yushev/git/optiga-trust-qi/projects/xmc4700_relax_kit/common/Dave/Generated/USBD/usb/core/xmc4000\usbd_endpoint_stream_xmc4000.c **** }
 380:C:/Users/Yushev/git/optiga-trust-qi/projects/xmc4700_relax_kit/common/Dave/Generated/USBD/usb/core/xmc4000\usbd_endpoint_stream_xmc4000.c **** 
 381:C:/Users/Yushev/git/optiga-trust-qi/projects/xmc4700_relax_kit/common/Dave/Generated/USBD/usb/core/xmc4000\usbd_endpoint_stream_xmc4000.c **** uint8_t Endpoint_Null_Stream(uint16_t Length,uint16_t* const BytesProcessed)
 382:C:/Users/Yushev/git/optiga-trust-qi/projects/xmc4700_relax_kit/common/Dave/Generated/USBD/usb/core/xmc4000\usbd_endpoint_stream_xmc4000.c **** {
 812              	 .loc 1 382 0
 813              	 .cfi_startproc
 814              	 
 815              	 
 816              	.LVL89:
 817 0000 2DE9F047 	 push {r4,r5,r6,r7,r8,r9,r10,lr}
 818              	.LCFI6:
 819              	 .cfi_def_cfa_offset 32
 820              	 .cfi_offset 4,-32
 821              	 .cfi_offset 5,-28
 822              	 .cfi_offset 6,-24
 823              	 .cfi_offset 7,-20
 824              	 .cfi_offset 8,-16
 825              	 .cfi_offset 9,-12
 826              	 .cfi_offset 10,-8
 827              	 .cfi_offset 14,-4
 383:C:/Users/Yushev/git/optiga-trust-qi/projects/xmc4700_relax_kit/common/Dave/Generated/USBD/usb/core/xmc4000\usbd_endpoint_stream_xmc4000.c **** 	USBD_Endpoint_t* ep = &device.Endpoints[device.CurrentEndpoint];
 828              	 .loc 1 383 0
 829 0004 1E4B     	 ldr r3,.L121
 382:C:/Users/Yushev/git/optiga-trust-qi/projects/xmc4700_relax_kit/common/Dave/Generated/USBD/usb/core/xmc4000\usbd_endpoint_stream_xmc4000.c **** 	USBD_Endpoint_t* ep = &device.Endpoints[device.CurrentEndpoint];
 830              	 .loc 1 382 0
 831 0006 0546     	 mov r5,r0
 832              	 .loc 1 383 0
 833 0008 93F83CA1 	 ldrb r10,[r3,#316]
 834              	.LVL90:
 384:C:/Users/Yushev/git/optiga-trust-qi/projects/xmc4700_relax_kit/common/Dave/Generated/USBD/usb/core/xmc4000\usbd_endpoint_stream_xmc4000.c **** 	uint16_t Bytes = 0;
 385:C:/Users/Yushev/git/optiga-trust-qi/projects/xmc4700_relax_kit/common/Dave/Generated/USBD/usb/core/xmc4000\usbd_endpoint_stream_xmc4000.c **** 	uint16_t BytesTransfered = 0;
 386:C:/Users/Yushev/git/optiga-trust-qi/projects/xmc4700_relax_kit/common/Dave/Generated/USBD/usb/core/xmc4000\usbd_endpoint_stream_xmc4000.c **** 	uint8_t ErrorCode;
 387:C:/Users/Yushev/git/optiga-trust-qi/projects/xmc4700_relax_kit/common/Dave/Generated/USBD/usb/core/xmc4000\usbd_endpoint_stream_xmc4000.c **** 
 388:C:/Users/Yushev/git/optiga-trust-qi/projects/xmc4700_relax_kit/common/Dave/Generated/USBD/usb/core/xmc4000\usbd_endpoint_stream_xmc4000.c **** 	if (BytesProcessed!=NULL) 
 835              	 .loc 1 388 0
 836 000c 8846     	 mov r8,r1
 837 000e 9946     	 mov r9,r3
 838 0010 11B1     	 cbz r1,.L115
 389:C:/Users/Yushev/git/optiga-trust-qi/projects/xmc4700_relax_kit/common/Dave/Generated/USBD/usb/core/xmc4000\usbd_endpoint_stream_xmc4000.c **** 	{
 390:C:/Users/Yushev/git/optiga-trust-qi/projects/xmc4700_relax_kit/common/Dave/Generated/USBD/usb/core/xmc4000\usbd_endpoint_stream_xmc4000.c **** 		Length -= *BytesProcessed;
 839              	 .loc 1 390 0
 840 0012 0E88     	 ldrh r6,[r1]
 841 0014 841B     	 subs r4,r0,r6
 842 0016 24E0     	 b .L119
 843              	.L115:
 385:C:/Users/Yushev/git/optiga-trust-qi/projects/xmc4700_relax_kit/common/Dave/Generated/USBD/usb/core/xmc4000\usbd_endpoint_stream_xmc4000.c **** 	uint8_t ErrorCode;
 844              	 .loc 1 385 0
 845 0018 0E46     	 mov r6,r1
 846 001a 02E0     	 b .L108
 847              	.LVL91:
 848              	.L112:
 391:C:/Users/Yushev/git/optiga-trust-qi/projects/xmc4700_relax_kit/common/Dave/Generated/USBD/usb/core/xmc4000\usbd_endpoint_stream_xmc4000.c **** 		BytesTransfered = *BytesProcessed;
 392:C:/Users/Yushev/git/optiga-trust-qi/projects/xmc4700_relax_kit/common/Dave/Generated/USBD/usb/core/xmc4000\usbd_endpoint_stream_xmc4000.c **** 	}
 393:C:/Users/Yushev/git/optiga-trust-qi/projects/xmc4700_relax_kit/common/Dave/Generated/USBD/usb/core/xmc4000\usbd_endpoint_stream_xmc4000.c **** 
 394:C:/Users/Yushev/git/optiga-trust-qi/projects/xmc4700_relax_kit/common/Dave/Generated/USBD/usb/core/xmc4000\usbd_endpoint_stream_xmc4000.c **** 	while (Length) 
 395:C:/Users/Yushev/git/optiga-trust-qi/projects/xmc4700_relax_kit/common/Dave/Generated/USBD/usb/core/xmc4000\usbd_endpoint_stream_xmc4000.c **** 	{
 396:C:/Users/Yushev/git/optiga-trust-qi/projects/xmc4700_relax_kit/common/Dave/Generated/USBD/usb/core/xmc4000\usbd_endpoint_stream_xmc4000.c **** 		if (ep->InInUse)
 397:C:/Users/Yushev/git/optiga-trust-qi/projects/xmc4700_relax_kit/common/Dave/Generated/USBD/usb/core/xmc4000\usbd_endpoint_stream_xmc4000.c **** 		{
 398:C:/Users/Yushev/git/optiga-trust-qi/projects/xmc4700_relax_kit/common/Dave/Generated/USBD/usb/core/xmc4000\usbd_endpoint_stream_xmc4000.c **** 			continue;
 399:C:/Users/Yushev/git/optiga-trust-qi/projects/xmc4700_relax_kit/common/Dave/Generated/USBD/usb/core/xmc4000\usbd_endpoint_stream_xmc4000.c **** 		}
 400:C:/Users/Yushev/git/optiga-trust-qi/projects/xmc4700_relax_kit/common/Dave/Generated/USBD/usb/core/xmc4000\usbd_endpoint_stream_xmc4000.c **** 		if (Endpoint_IsReadWriteAllowed()) 
 401:C:/Users/Yushev/git/optiga-trust-qi/projects/xmc4700_relax_kit/common/Dave/Generated/USBD/usb/core/xmc4000\usbd_endpoint_stream_xmc4000.c **** 		{
 402:C:/Users/Yushev/git/optiga-trust-qi/projects/xmc4700_relax_kit/common/Dave/Generated/USBD/usb/core/xmc4000\usbd_endpoint_stream_xmc4000.c **** 			if((ep->InBufferLength - ep->InBytesAvailable)  > Length)
 403:C:/Users/Yushev/git/optiga-trust-qi/projects/xmc4700_relax_kit/common/Dave/Generated/USBD/usb/core/xmc4000\usbd_endpoint_stream_xmc4000.c **** 			{
 404:C:/Users/Yushev/git/optiga-trust-qi/projects/xmc4700_relax_kit/common/Dave/Generated/USBD/usb/core/xmc4000\usbd_endpoint_stream_xmc4000.c **** 				Bytes = Length;
 405:C:/Users/Yushev/git/optiga-trust-qi/projects/xmc4700_relax_kit/common/Dave/Generated/USBD/usb/core/xmc4000\usbd_endpoint_stream_xmc4000.c **** 			}
 406:C:/Users/Yushev/git/optiga-trust-qi/projects/xmc4700_relax_kit/common/Dave/Generated/USBD/usb/core/xmc4000\usbd_endpoint_stream_xmc4000.c **** 			else
 407:C:/Users/Yushev/git/optiga-trust-qi/projects/xmc4700_relax_kit/common/Dave/Generated/USBD/usb/core/xmc4000\usbd_endpoint_stream_xmc4000.c **** 			{
 408:C:/Users/Yushev/git/optiga-trust-qi/projects/xmc4700_relax_kit/common/Dave/Generated/USBD/usb/core/xmc4000\usbd_endpoint_stream_xmc4000.c **** 				Bytes = (ep->InBufferLength - ep->InBytesAvailable);
 409:C:/Users/Yushev/git/optiga-trust-qi/projects/xmc4700_relax_kit/common/Dave/Generated/USBD/usb/core/xmc4000\usbd_endpoint_stream_xmc4000.c **** 			}
 410:C:/Users/Yushev/git/optiga-trust-qi/projects/xmc4700_relax_kit/common/Dave/Generated/USBD/usb/core/xmc4000\usbd_endpoint_stream_xmc4000.c **** 
 411:C:/Users/Yushev/git/optiga-trust-qi/projects/xmc4700_relax_kit/common/Dave/Generated/USBD/usb/core/xmc4000\usbd_endpoint_stream_xmc4000.c **** 			memset(ep->InBuffer + ep->InBytesAvailable,0x0,Bytes);
 412:C:/Users/Yushev/git/optiga-trust-qi/projects/xmc4700_relax_kit/common/Dave/Generated/USBD/usb/core/xmc4000\usbd_endpoint_stream_xmc4000.c **** 			ep->InBytesAvailable += Bytes;
 413:C:/Users/Yushev/git/optiga-trust-qi/projects/xmc4700_relax_kit/common/Dave/Generated/USBD/usb/core/xmc4000\usbd_endpoint_stream_xmc4000.c **** 			BytesTransfered += Bytes;
 414:C:/Users/Yushev/git/optiga-trust-qi/projects/xmc4700_relax_kit/common/Dave/Generated/USBD/usb/core/xmc4000\usbd_endpoint_stream_xmc4000.c **** 			Length -= Bytes;
 415:C:/Users/Yushev/git/optiga-trust-qi/projects/xmc4700_relax_kit/common/Dave/Generated/USBD/usb/core/xmc4000\usbd_endpoint_stream_xmc4000.c **** 		}
 416:C:/Users/Yushev/git/optiga-trust-qi/projects/xmc4700_relax_kit/common/Dave/Generated/USBD/usb/core/xmc4000\usbd_endpoint_stream_xmc4000.c **** 		else 
 417:C:/Users/Yushev/git/optiga-trust-qi/projects/xmc4700_relax_kit/common/Dave/Generated/USBD/usb/core/xmc4000\usbd_endpoint_stream_xmc4000.c **** 		{
 418:C:/Users/Yushev/git/optiga-trust-qi/projects/xmc4700_relax_kit/common/Dave/Generated/USBD/usb/core/xmc4000\usbd_endpoint_stream_xmc4000.c **** 			Endpoint_ClearIN();
 419:C:/Users/Yushev/git/optiga-trust-qi/projects/xmc4700_relax_kit/common/Dave/Generated/USBD/usb/core/xmc4000\usbd_endpoint_stream_xmc4000.c **** 			if (BytesProcessed!=NULL) 
 420:C:/Users/Yushev/git/optiga-trust-qi/projects/xmc4700_relax_kit/common/Dave/Generated/USBD/usb/core/xmc4000\usbd_endpoint_stream_xmc4000.c **** 			{
 421:C:/Users/Yushev/git/optiga-trust-qi/projects/xmc4700_relax_kit/common/Dave/Generated/USBD/usb/core/xmc4000\usbd_endpoint_stream_xmc4000.c **** 				*BytesProcessed = BytesTransfered;
 422:C:/Users/Yushev/git/optiga-trust-qi/projects/xmc4700_relax_kit/common/Dave/Generated/USBD/usb/core/xmc4000\usbd_endpoint_stream_xmc4000.c **** 				return ENDPOINT_RWSTREAM_IncompleteTransfer;
 423:C:/Users/Yushev/git/optiga-trust-qi/projects/xmc4700_relax_kit/common/Dave/Generated/USBD/usb/core/xmc4000\usbd_endpoint_stream_xmc4000.c **** 			}
 424:C:/Users/Yushev/git/optiga-trust-qi/projects/xmc4700_relax_kit/common/Dave/Generated/USBD/usb/core/xmc4000\usbd_endpoint_stream_xmc4000.c **** 
 425:C:/Users/Yushev/git/optiga-trust-qi/projects/xmc4700_relax_kit/common/Dave/Generated/USBD/usb/core/xmc4000\usbd_endpoint_stream_xmc4000.c **** 			ErrorCode = Endpoint_WaitUntilReady();
 849              	 .loc 1 425 0
 850 001c FFF7FEFF 	 bl Endpoint_WaitUntilReady
 851              	.LVL92:
 426:C:/Users/Yushev/git/optiga-trust-qi/projects/xmc4700_relax_kit/common/Dave/Generated/USBD/usb/core/xmc4000\usbd_endpoint_stream_xmc4000.c **** 			if (ErrorCode) 
 852              	 .loc 1 426 0
 853 0020 60BB     	 cbnz r0,.L113
 854              	.LVL93:
 855              	.L108:
 394:C:/Users/Yushev/git/optiga-trust-qi/projects/xmc4700_relax_kit/common/Dave/Generated/USBD/usb/core/xmc4000\usbd_endpoint_stream_xmc4000.c **** 	{
 856              	 .loc 1 394 0
 857 0022 55B3     	 cbz r5,.L120
 396:C:/Users/Yushev/git/optiga-trust-qi/projects/xmc4700_relax_kit/common/Dave/Generated/USBD/usb/core/xmc4000\usbd_endpoint_stream_xmc4000.c **** 		{
 858              	 .loc 1 396 0
 859 0024 2C27     	 movs r7,#44
 860 0026 07FB0A97 	 mla r7,r7,r10,r9
 861 002a BB68     	 ldr r3,[r7,#8]
 862 002c DB06     	 lsls r3,r3,#27
 863 002e F8D4     	 bmi .L108
 400:C:/Users/Yushev/git/optiga-trust-qi/projects/xmc4700_relax_kit/common/Dave/Generated/USBD/usb/core/xmc4000\usbd_endpoint_stream_xmc4000.c **** 		{
 864              	 .loc 1 400 0
 865 0030 FFF7FEFF 	 bl Endpoint_IsReadWriteAllowed
 866              	.LVL94:
 867 0034 B8B1     	 cbz r0,.L109
 402:C:/Users/Yushev/git/optiga-trust-qi/projects/xmc4700_relax_kit/common/Dave/Generated/USBD/usb/core/xmc4000\usbd_endpoint_stream_xmc4000.c **** 			{
 868              	 .loc 1 402 0
 869 0036 FB69     	 ldr r3,[r7,#28]
 870 0038 7C6A     	 ldr r4,[r7,#36]
 411:C:/Users/Yushev/git/optiga-trust-qi/projects/xmc4700_relax_kit/common/Dave/Generated/USBD/usb/core/xmc4000\usbd_endpoint_stream_xmc4000.c **** 			ep->InBytesAvailable += Bytes;
 871              	 .loc 1 411 0
 872 003a 2C27     	 movs r7,#44
 873 003c 07FB0A97 	 mla r7,r7,r10,r9
 402:C:/Users/Yushev/git/optiga-trust-qi/projects/xmc4700_relax_kit/common/Dave/Generated/USBD/usb/core/xmc4000\usbd_endpoint_stream_xmc4000.c **** 			{
 874              	 .loc 1 402 0
 875 0040 E41A     	 subs r4,r4,r3
 876 0042 AC42     	 cmp r4,r5
 411:C:/Users/Yushev/git/optiga-trust-qi/projects/xmc4700_relax_kit/common/Dave/Generated/USBD/usb/core/xmc4000\usbd_endpoint_stream_xmc4000.c **** 			ep->InBytesAvailable += Bytes;
 877              	 .loc 1 411 0
 878 0044 386A     	 ldr r0,[r7,#32]
 408:C:/Users/Yushev/git/optiga-trust-qi/projects/xmc4700_relax_kit/common/Dave/Generated/USBD/usb/core/xmc4000\usbd_endpoint_stream_xmc4000.c **** 			}
 879              	 .loc 1 408 0
 880 0046 94BF     	 ite ls
 881 0048 A4B2     	 uxthls r4,r4
 882              	.LVL95:
 883 004a 2C46     	 movhi r4,r5
 884              	.LVL96:
 411:C:/Users/Yushev/git/optiga-trust-qi/projects/xmc4700_relax_kit/common/Dave/Generated/USBD/usb/core/xmc4000\usbd_endpoint_stream_xmc4000.c **** 			ep->InBytesAvailable += Bytes;
 885              	 .loc 1 411 0
 886 004c 1844     	 add r0,r0,r3
 887 004e 2246     	 mov r2,r4
 888 0050 0021     	 movs r1,#0
 889 0052 FFF7FEFF 	 bl memset
 890              	.LVL97:
 412:C:/Users/Yushev/git/optiga-trust-qi/projects/xmc4700_relax_kit/common/Dave/Generated/USBD/usb/core/xmc4000\usbd_endpoint_stream_xmc4000.c **** 			BytesTransfered += Bytes;
 891              	 .loc 1 412 0
 892 0056 FB69     	 ldr r3,[r7,#28]
 413:C:/Users/Yushev/git/optiga-trust-qi/projects/xmc4700_relax_kit/common/Dave/Generated/USBD/usb/core/xmc4000\usbd_endpoint_stream_xmc4000.c **** 			Length -= Bytes;
 893              	 .loc 1 413 0
 894 0058 2644     	 add r6,r6,r4
 412:C:/Users/Yushev/git/optiga-trust-qi/projects/xmc4700_relax_kit/common/Dave/Generated/USBD/usb/core/xmc4000\usbd_endpoint_stream_xmc4000.c **** 			BytesTransfered += Bytes;
 895              	 .loc 1 412 0
 896 005a 2344     	 add r3,r3,r4
 897 005c FB61     	 str r3,[r7,#28]
 413:C:/Users/Yushev/git/optiga-trust-qi/projects/xmc4700_relax_kit/common/Dave/Generated/USBD/usb/core/xmc4000\usbd_endpoint_stream_xmc4000.c **** 			Length -= Bytes;
 898              	 .loc 1 413 0
 899 005e B6B2     	 uxth r6,r6
 900              	.LVL98:
 414:C:/Users/Yushev/git/optiga-trust-qi/projects/xmc4700_relax_kit/common/Dave/Generated/USBD/usb/core/xmc4000\usbd_endpoint_stream_xmc4000.c **** 		}
 901              	 .loc 1 414 0
 902 0060 2C1B     	 subs r4,r5,r4
 903              	.LVL99:
 904              	.L119:
 905 0062 A5B2     	 uxth r5,r4
 906              	.LVL100:
 907 0064 DDE7     	 b .L108
 908              	.L109:
 418:C:/Users/Yushev/git/optiga-trust-qi/projects/xmc4700_relax_kit/common/Dave/Generated/USBD/usb/core/xmc4000\usbd_endpoint_stream_xmc4000.c **** 			if (BytesProcessed!=NULL) 
 909              	 .loc 1 418 0
 910 0066 FFF7FEFF 	 bl Endpoint_ClearIN
 911              	.LVL101:
 419:C:/Users/Yushev/git/optiga-trust-qi/projects/xmc4700_relax_kit/common/Dave/Generated/USBD/usb/core/xmc4000\usbd_endpoint_stream_xmc4000.c **** 			{
 912              	 .loc 1 419 0
 913 006a B8F1000F 	 cmp r8,#0
 914 006e D5D0     	 beq .L112
 421:C:/Users/Yushev/git/optiga-trust-qi/projects/xmc4700_relax_kit/common/Dave/Generated/USBD/usb/core/xmc4000\usbd_endpoint_stream_xmc4000.c **** 				return ENDPOINT_RWSTREAM_IncompleteTransfer;
 915              	 .loc 1 421 0
 916 0070 A8F80060 	 strh r6,[r8]
 422:C:/Users/Yushev/git/optiga-trust-qi/projects/xmc4700_relax_kit/common/Dave/Generated/USBD/usb/core/xmc4000\usbd_endpoint_stream_xmc4000.c **** 			}
 917              	 .loc 1 422 0
 918 0074 0520     	 movs r0,#5
 919 0076 BDE8F087 	 pop {r4,r5,r6,r7,r8,r9,r10,pc}
 920              	.LVL102:
 921              	.L120:
 427:C:/Users/Yushev/git/optiga-trust-qi/projects/xmc4700_relax_kit/common/Dave/Generated/USBD/usb/core/xmc4000\usbd_endpoint_stream_xmc4000.c **** 			{
 428:C:/Users/Yushev/git/optiga-trust-qi/projects/xmc4700_relax_kit/common/Dave/Generated/USBD/usb/core/xmc4000\usbd_endpoint_stream_xmc4000.c **** 				return ErrorCode;
 429:C:/Users/Yushev/git/optiga-trust-qi/projects/xmc4700_relax_kit/common/Dave/Generated/USBD/usb/core/xmc4000\usbd_endpoint_stream_xmc4000.c **** 			}
 430:C:/Users/Yushev/git/optiga-trust-qi/projects/xmc4700_relax_kit/common/Dave/Generated/USBD/usb/core/xmc4000\usbd_endpoint_stream_xmc4000.c **** 		}
 431:C:/Users/Yushev/git/optiga-trust-qi/projects/xmc4700_relax_kit/common/Dave/Generated/USBD/usb/core/xmc4000\usbd_endpoint_stream_xmc4000.c **** 	}
 432:C:/Users/Yushev/git/optiga-trust-qi/projects/xmc4700_relax_kit/common/Dave/Generated/USBD/usb/core/xmc4000\usbd_endpoint_stream_xmc4000.c **** 	return ENDPOINT_RWSTREAM_NoError;
 922              	 .loc 1 432 0
 923 007a 2846     	 mov r0,r5
 924              	.L113:
 433:C:/Users/Yushev/git/optiga-trust-qi/projects/xmc4700_relax_kit/common/Dave/Generated/USBD/usb/core/xmc4000\usbd_endpoint_stream_xmc4000.c **** }
 925              	 .loc 1 433 0
 926 007c BDE8F087 	 pop {r4,r5,r6,r7,r8,r9,r10,pc}
 927              	.LVL103:
 928              	.L122:
 929              	 .align 2
 930              	.L121:
 931 0080 00000000 	 .word device
 932              	 .cfi_endproc
 933              	.LFE195:
 935              	 .global zlp_flag
 936              	 .section .bss.zlp_flag,"aw",%nobits
 939              	zlp_flag:
 940 0000 00       	 .space 1
 941              	 .text
 942              	.Letext0:
 943              	 .file 2 "c:\\users\\yushev\\dave_4-4-2_32bit_2018-02-23\\dave-ide-4.4.2-32bit\\eclipse\\arm-gcc-49\\arm-none-eabi\\include\\machine\\_default_types.h"
 944              	 .file 3 "c:\\users\\yushev\\dave_4-4-2_32bit_2018-02-23\\dave-ide-4.4.2-32bit\\eclipse\\arm-gcc-49\\arm-none-eabi\\include\\stdint.h"
 945              	 .file 4 "C:/Users/Yushev/git/optiga-trust-qi/projects/xmc4700_relax_kit/common/Libraries/CMSIS/Infineon/XMC4700_series/Include/XMC4700.h"
 946              	 .file 5 "C:/Users/Yushev/git/optiga-trust-qi/projects/xmc4700_relax_kit/common/Libraries/XMCLib/inc/xmc_usbd_regs.h"
 947              	 .file 6 "C:/Users/Yushev/git/optiga-trust-qi/projects/xmc4700_relax_kit/common/Libraries/XMCLib/inc/xmc_usbd.h"
 948              	 .file 7 "c:\\users\\yushev\\git\\optiga-trust-qi\\projects\\xmc4700_relax_kit\\common\\dave\\generated\\usbd\\usbd.h"
 949              	 .file 8 "c:\\users\\yushev\\git\\optiga-trust-qi\\projects\\xmc4700_relax_kit\\common\\dave\\generated\\usbd\\usb\\core\\endpoint_stream.h"
 950              	 .file 9 "C:/Users/Yushev/git/optiga-trust-qi/projects/xmc4700_relax_kit/common/Libraries/CMSIS/Include/core_cm4.h"
 951              	 .file 10 "C:/Users/Yushev/git/optiga-trust-qi/projects/xmc4700_relax_kit/common/Libraries/CMSIS/Infineon/XMC4700_series/Include/system_XMC4700.h"
 952              	 .file 11 "c:\\users\\yushev\\git\\optiga-trust-qi\\projects\\xmc4700_relax_kit\\common\\dave\\generated\\usbd\\usbd_extern.h"
 953              	 .file 12 "c:\\users\\yushev\\git\\optiga-trust-qi\\projects\\xmc4700_relax_kit\\common\\dave\\generated\\usbd\\usb\\core\\xmc4000\\usbd_endpoint_xmc4000.h"