   1              	 .syntax unified
   2              	 .cpu cortex-m4
   3              	 .eabi_attribute 27,3
   4              	 .fpu fpv4-sp-d16
   5              	 .eabi_attribute 20,1
   6              	 .eabi_attribute 21,1
   7              	 .eabi_attribute 23,3
   8              	 .eabi_attribute 24,1
   9              	 .eabi_attribute 25,1
  10              	 .eabi_attribute 26,1
  11              	 .eabi_attribute 30,4
  12              	 .eabi_attribute 34,1
  13              	 .eabi_attribute 18,4
  14              	 .thumb
  15              	 .file "aes.c"
  16              	 .text
  17              	.Ltext0:
  18              	 .cfi_sections .debug_frame
  19              	 .section .text.aes_gen_tables,"ax",%progbits
  20              	 .align 1
  21              	 .thumb
  22              	 .thumb_func
  24              	aes_gen_tables:
  25              	.LFB0:
  26              	 .file 1 "C:/Users/Yushev/git/optiga-trust-qi/externals/mbedtls/library/aes.c"
   1:C:/Users/Yushev/git/optiga-trust-qi/externals/mbedtls/library\aes.c **** /*
   2:C:/Users/Yushev/git/optiga-trust-qi/externals/mbedtls/library\aes.c ****  *  FIPS-197 compliant AES implementation
   3:C:/Users/Yushev/git/optiga-trust-qi/externals/mbedtls/library\aes.c ****  *
   4:C:/Users/Yushev/git/optiga-trust-qi/externals/mbedtls/library\aes.c ****  *  Copyright (C) 2006-2015, ARM Limited, All Rights Reserved
   5:C:/Users/Yushev/git/optiga-trust-qi/externals/mbedtls/library\aes.c ****  *  SPDX-License-Identifier: Apache-2.0
   6:C:/Users/Yushev/git/optiga-trust-qi/externals/mbedtls/library\aes.c ****  *
   7:C:/Users/Yushev/git/optiga-trust-qi/externals/mbedtls/library\aes.c ****  *  Licensed under the Apache License, Version 2.0 (the "License"); you may
   8:C:/Users/Yushev/git/optiga-trust-qi/externals/mbedtls/library\aes.c ****  *  not use this file except in compliance with the License.
   9:C:/Users/Yushev/git/optiga-trust-qi/externals/mbedtls/library\aes.c ****  *  You may obtain a copy of the License at
  10:C:/Users/Yushev/git/optiga-trust-qi/externals/mbedtls/library\aes.c ****  *
  11:C:/Users/Yushev/git/optiga-trust-qi/externals/mbedtls/library\aes.c ****  *  http://www.apache.org/licenses/LICENSE-2.0
  12:C:/Users/Yushev/git/optiga-trust-qi/externals/mbedtls/library\aes.c ****  *
  13:C:/Users/Yushev/git/optiga-trust-qi/externals/mbedtls/library\aes.c ****  *  Unless required by applicable law or agreed to in writing, software
  14:C:/Users/Yushev/git/optiga-trust-qi/externals/mbedtls/library\aes.c ****  *  distributed under the License is distributed on an "AS IS" BASIS, WITHOUT
  15:C:/Users/Yushev/git/optiga-trust-qi/externals/mbedtls/library\aes.c ****  *  WARRANTIES OR CONDITIONS OF ANY KIND, either express or implied.
  16:C:/Users/Yushev/git/optiga-trust-qi/externals/mbedtls/library\aes.c ****  *  See the License for the specific language governing permissions and
  17:C:/Users/Yushev/git/optiga-trust-qi/externals/mbedtls/library\aes.c ****  *  limitations under the License.
  18:C:/Users/Yushev/git/optiga-trust-qi/externals/mbedtls/library\aes.c ****  *
  19:C:/Users/Yushev/git/optiga-trust-qi/externals/mbedtls/library\aes.c ****  *  This file is part of mbed TLS (https://tls.mbed.org)
  20:C:/Users/Yushev/git/optiga-trust-qi/externals/mbedtls/library\aes.c ****  */
  21:C:/Users/Yushev/git/optiga-trust-qi/externals/mbedtls/library\aes.c **** /*
  22:C:/Users/Yushev/git/optiga-trust-qi/externals/mbedtls/library\aes.c ****  *  The AES block cipher was designed by Vincent Rijmen and Joan Daemen.
  23:C:/Users/Yushev/git/optiga-trust-qi/externals/mbedtls/library\aes.c ****  *
  24:C:/Users/Yushev/git/optiga-trust-qi/externals/mbedtls/library\aes.c ****  *  http://csrc.nist.gov/encryption/aes/rijndael/Rijndael.pdf
  25:C:/Users/Yushev/git/optiga-trust-qi/externals/mbedtls/library\aes.c ****  *  http://csrc.nist.gov/publications/fips/fips197/fips-197.pdf
  26:C:/Users/Yushev/git/optiga-trust-qi/externals/mbedtls/library\aes.c ****  */
  27:C:/Users/Yushev/git/optiga-trust-qi/externals/mbedtls/library\aes.c **** 
  28:C:/Users/Yushev/git/optiga-trust-qi/externals/mbedtls/library\aes.c **** #if !defined(MBEDTLS_CONFIG_FILE)
  29:C:/Users/Yushev/git/optiga-trust-qi/externals/mbedtls/library\aes.c **** #include "mbedtls/config.h"
  30:C:/Users/Yushev/git/optiga-trust-qi/externals/mbedtls/library\aes.c **** #else
  31:C:/Users/Yushev/git/optiga-trust-qi/externals/mbedtls/library\aes.c **** #include MBEDTLS_CONFIG_FILE
  32:C:/Users/Yushev/git/optiga-trust-qi/externals/mbedtls/library\aes.c **** #endif
  33:C:/Users/Yushev/git/optiga-trust-qi/externals/mbedtls/library\aes.c **** 
  34:C:/Users/Yushev/git/optiga-trust-qi/externals/mbedtls/library\aes.c **** #if defined(MBEDTLS_AES_C)
  35:C:/Users/Yushev/git/optiga-trust-qi/externals/mbedtls/library\aes.c **** 
  36:C:/Users/Yushev/git/optiga-trust-qi/externals/mbedtls/library\aes.c **** #include <string.h>
  37:C:/Users/Yushev/git/optiga-trust-qi/externals/mbedtls/library\aes.c **** 
  38:C:/Users/Yushev/git/optiga-trust-qi/externals/mbedtls/library\aes.c **** #include "mbedtls/aes.h"
  39:C:/Users/Yushev/git/optiga-trust-qi/externals/mbedtls/library\aes.c **** #include "mbedtls/platform.h"
  40:C:/Users/Yushev/git/optiga-trust-qi/externals/mbedtls/library\aes.c **** #include "mbedtls/platform_util.h"
  41:C:/Users/Yushev/git/optiga-trust-qi/externals/mbedtls/library\aes.c **** #if defined(MBEDTLS_PADLOCK_C)
  42:C:/Users/Yushev/git/optiga-trust-qi/externals/mbedtls/library\aes.c **** #include "mbedtls/padlock.h"
  43:C:/Users/Yushev/git/optiga-trust-qi/externals/mbedtls/library\aes.c **** #endif
  44:C:/Users/Yushev/git/optiga-trust-qi/externals/mbedtls/library\aes.c **** #if defined(MBEDTLS_AESNI_C)
  45:C:/Users/Yushev/git/optiga-trust-qi/externals/mbedtls/library\aes.c **** #include "mbedtls/aesni.h"
  46:C:/Users/Yushev/git/optiga-trust-qi/externals/mbedtls/library\aes.c **** #endif
  47:C:/Users/Yushev/git/optiga-trust-qi/externals/mbedtls/library\aes.c **** 
  48:C:/Users/Yushev/git/optiga-trust-qi/externals/mbedtls/library\aes.c **** #if defined(MBEDTLS_SELF_TEST)
  49:C:/Users/Yushev/git/optiga-trust-qi/externals/mbedtls/library\aes.c **** #if defined(MBEDTLS_PLATFORM_C)
  50:C:/Users/Yushev/git/optiga-trust-qi/externals/mbedtls/library\aes.c **** #include "mbedtls/platform.h"
  51:C:/Users/Yushev/git/optiga-trust-qi/externals/mbedtls/library\aes.c **** #else
  52:C:/Users/Yushev/git/optiga-trust-qi/externals/mbedtls/library\aes.c **** #include <stdio.h>
  53:C:/Users/Yushev/git/optiga-trust-qi/externals/mbedtls/library\aes.c **** #define mbedtls_printf printf
  54:C:/Users/Yushev/git/optiga-trust-qi/externals/mbedtls/library\aes.c **** #endif /* MBEDTLS_PLATFORM_C */
  55:C:/Users/Yushev/git/optiga-trust-qi/externals/mbedtls/library\aes.c **** #endif /* MBEDTLS_SELF_TEST */
  56:C:/Users/Yushev/git/optiga-trust-qi/externals/mbedtls/library\aes.c **** 
  57:C:/Users/Yushev/git/optiga-trust-qi/externals/mbedtls/library\aes.c **** #if !defined(MBEDTLS_AES_ALT)
  58:C:/Users/Yushev/git/optiga-trust-qi/externals/mbedtls/library\aes.c **** 
  59:C:/Users/Yushev/git/optiga-trust-qi/externals/mbedtls/library\aes.c **** /* Parameter validation macros based on platform_util.h */
  60:C:/Users/Yushev/git/optiga-trust-qi/externals/mbedtls/library\aes.c **** #define AES_VALIDATE_RET( cond )    \
  61:C:/Users/Yushev/git/optiga-trust-qi/externals/mbedtls/library\aes.c ****     MBEDTLS_INTERNAL_VALIDATE_RET( cond, MBEDTLS_ERR_AES_BAD_INPUT_DATA )
  62:C:/Users/Yushev/git/optiga-trust-qi/externals/mbedtls/library\aes.c **** #define AES_VALIDATE( cond )        \
  63:C:/Users/Yushev/git/optiga-trust-qi/externals/mbedtls/library\aes.c ****     MBEDTLS_INTERNAL_VALIDATE( cond )
  64:C:/Users/Yushev/git/optiga-trust-qi/externals/mbedtls/library\aes.c **** 
  65:C:/Users/Yushev/git/optiga-trust-qi/externals/mbedtls/library\aes.c **** /*
  66:C:/Users/Yushev/git/optiga-trust-qi/externals/mbedtls/library\aes.c ****  * 32-bit integer manipulation macros (little endian)
  67:C:/Users/Yushev/git/optiga-trust-qi/externals/mbedtls/library\aes.c ****  */
  68:C:/Users/Yushev/git/optiga-trust-qi/externals/mbedtls/library\aes.c **** #ifndef GET_UINT32_LE
  69:C:/Users/Yushev/git/optiga-trust-qi/externals/mbedtls/library\aes.c **** #define GET_UINT32_LE(n,b,i)                            \
  70:C:/Users/Yushev/git/optiga-trust-qi/externals/mbedtls/library\aes.c **** {                                                       \
  71:C:/Users/Yushev/git/optiga-trust-qi/externals/mbedtls/library\aes.c ****     (n) = ( (uint32_t) (b)[(i)    ]       )             \
  72:C:/Users/Yushev/git/optiga-trust-qi/externals/mbedtls/library\aes.c ****         | ( (uint32_t) (b)[(i) + 1] <<  8 )             \
  73:C:/Users/Yushev/git/optiga-trust-qi/externals/mbedtls/library\aes.c ****         | ( (uint32_t) (b)[(i) + 2] << 16 )             \
  74:C:/Users/Yushev/git/optiga-trust-qi/externals/mbedtls/library\aes.c ****         | ( (uint32_t) (b)[(i) + 3] << 24 );            \
  75:C:/Users/Yushev/git/optiga-trust-qi/externals/mbedtls/library\aes.c **** }
  76:C:/Users/Yushev/git/optiga-trust-qi/externals/mbedtls/library\aes.c **** #endif
  77:C:/Users/Yushev/git/optiga-trust-qi/externals/mbedtls/library\aes.c **** 
  78:C:/Users/Yushev/git/optiga-trust-qi/externals/mbedtls/library\aes.c **** #ifndef PUT_UINT32_LE
  79:C:/Users/Yushev/git/optiga-trust-qi/externals/mbedtls/library\aes.c **** #define PUT_UINT32_LE(n,b,i)                                    \
  80:C:/Users/Yushev/git/optiga-trust-qi/externals/mbedtls/library\aes.c **** {                                                               \
  81:C:/Users/Yushev/git/optiga-trust-qi/externals/mbedtls/library\aes.c ****     (b)[(i)    ] = (unsigned char) ( ( (n)       ) & 0xFF );    \
  82:C:/Users/Yushev/git/optiga-trust-qi/externals/mbedtls/library\aes.c ****     (b)[(i) + 1] = (unsigned char) ( ( (n) >>  8 ) & 0xFF );    \
  83:C:/Users/Yushev/git/optiga-trust-qi/externals/mbedtls/library\aes.c ****     (b)[(i) + 2] = (unsigned char) ( ( (n) >> 16 ) & 0xFF );    \
  84:C:/Users/Yushev/git/optiga-trust-qi/externals/mbedtls/library\aes.c ****     (b)[(i) + 3] = (unsigned char) ( ( (n) >> 24 ) & 0xFF );    \
  85:C:/Users/Yushev/git/optiga-trust-qi/externals/mbedtls/library\aes.c **** }
  86:C:/Users/Yushev/git/optiga-trust-qi/externals/mbedtls/library\aes.c **** #endif
  87:C:/Users/Yushev/git/optiga-trust-qi/externals/mbedtls/library\aes.c **** 
  88:C:/Users/Yushev/git/optiga-trust-qi/externals/mbedtls/library\aes.c **** #if defined(MBEDTLS_PADLOCK_C) &&                      \
  89:C:/Users/Yushev/git/optiga-trust-qi/externals/mbedtls/library\aes.c ****     ( defined(MBEDTLS_HAVE_X86) || defined(MBEDTLS_PADLOCK_ALIGN16) )
  90:C:/Users/Yushev/git/optiga-trust-qi/externals/mbedtls/library\aes.c **** static int aes_padlock_ace = -1;
  91:C:/Users/Yushev/git/optiga-trust-qi/externals/mbedtls/library\aes.c **** #endif
  92:C:/Users/Yushev/git/optiga-trust-qi/externals/mbedtls/library\aes.c **** 
  93:C:/Users/Yushev/git/optiga-trust-qi/externals/mbedtls/library\aes.c **** #if defined(MBEDTLS_AES_ROM_TABLES)
  94:C:/Users/Yushev/git/optiga-trust-qi/externals/mbedtls/library\aes.c **** /*
  95:C:/Users/Yushev/git/optiga-trust-qi/externals/mbedtls/library\aes.c ****  * Forward S-box
  96:C:/Users/Yushev/git/optiga-trust-qi/externals/mbedtls/library\aes.c ****  */
  97:C:/Users/Yushev/git/optiga-trust-qi/externals/mbedtls/library\aes.c **** static const unsigned char FSb[256] =
  98:C:/Users/Yushev/git/optiga-trust-qi/externals/mbedtls/library\aes.c **** {
  99:C:/Users/Yushev/git/optiga-trust-qi/externals/mbedtls/library\aes.c ****     0x63, 0x7C, 0x77, 0x7B, 0xF2, 0x6B, 0x6F, 0xC5,
 100:C:/Users/Yushev/git/optiga-trust-qi/externals/mbedtls/library\aes.c ****     0x30, 0x01, 0x67, 0x2B, 0xFE, 0xD7, 0xAB, 0x76,
 101:C:/Users/Yushev/git/optiga-trust-qi/externals/mbedtls/library\aes.c ****     0xCA, 0x82, 0xC9, 0x7D, 0xFA, 0x59, 0x47, 0xF0,
 102:C:/Users/Yushev/git/optiga-trust-qi/externals/mbedtls/library\aes.c ****     0xAD, 0xD4, 0xA2, 0xAF, 0x9C, 0xA4, 0x72, 0xC0,
 103:C:/Users/Yushev/git/optiga-trust-qi/externals/mbedtls/library\aes.c ****     0xB7, 0xFD, 0x93, 0x26, 0x36, 0x3F, 0xF7, 0xCC,
 104:C:/Users/Yushev/git/optiga-trust-qi/externals/mbedtls/library\aes.c ****     0x34, 0xA5, 0xE5, 0xF1, 0x71, 0xD8, 0x31, 0x15,
 105:C:/Users/Yushev/git/optiga-trust-qi/externals/mbedtls/library\aes.c ****     0x04, 0xC7, 0x23, 0xC3, 0x18, 0x96, 0x05, 0x9A,
 106:C:/Users/Yushev/git/optiga-trust-qi/externals/mbedtls/library\aes.c ****     0x07, 0x12, 0x80, 0xE2, 0xEB, 0x27, 0xB2, 0x75,
 107:C:/Users/Yushev/git/optiga-trust-qi/externals/mbedtls/library\aes.c ****     0x09, 0x83, 0x2C, 0x1A, 0x1B, 0x6E, 0x5A, 0xA0,
 108:C:/Users/Yushev/git/optiga-trust-qi/externals/mbedtls/library\aes.c ****     0x52, 0x3B, 0xD6, 0xB3, 0x29, 0xE3, 0x2F, 0x84,
 109:C:/Users/Yushev/git/optiga-trust-qi/externals/mbedtls/library\aes.c ****     0x53, 0xD1, 0x00, 0xED, 0x20, 0xFC, 0xB1, 0x5B,
 110:C:/Users/Yushev/git/optiga-trust-qi/externals/mbedtls/library\aes.c ****     0x6A, 0xCB, 0xBE, 0x39, 0x4A, 0x4C, 0x58, 0xCF,
 111:C:/Users/Yushev/git/optiga-trust-qi/externals/mbedtls/library\aes.c ****     0xD0, 0xEF, 0xAA, 0xFB, 0x43, 0x4D, 0x33, 0x85,
 112:C:/Users/Yushev/git/optiga-trust-qi/externals/mbedtls/library\aes.c ****     0x45, 0xF9, 0x02, 0x7F, 0x50, 0x3C, 0x9F, 0xA8,
 113:C:/Users/Yushev/git/optiga-trust-qi/externals/mbedtls/library\aes.c ****     0x51, 0xA3, 0x40, 0x8F, 0x92, 0x9D, 0x38, 0xF5,
 114:C:/Users/Yushev/git/optiga-trust-qi/externals/mbedtls/library\aes.c ****     0xBC, 0xB6, 0xDA, 0x21, 0x10, 0xFF, 0xF3, 0xD2,
 115:C:/Users/Yushev/git/optiga-trust-qi/externals/mbedtls/library\aes.c ****     0xCD, 0x0C, 0x13, 0xEC, 0x5F, 0x97, 0x44, 0x17,
 116:C:/Users/Yushev/git/optiga-trust-qi/externals/mbedtls/library\aes.c ****     0xC4, 0xA7, 0x7E, 0x3D, 0x64, 0x5D, 0x19, 0x73,
 117:C:/Users/Yushev/git/optiga-trust-qi/externals/mbedtls/library\aes.c ****     0x60, 0x81, 0x4F, 0xDC, 0x22, 0x2A, 0x90, 0x88,
 118:C:/Users/Yushev/git/optiga-trust-qi/externals/mbedtls/library\aes.c ****     0x46, 0xEE, 0xB8, 0x14, 0xDE, 0x5E, 0x0B, 0xDB,
 119:C:/Users/Yushev/git/optiga-trust-qi/externals/mbedtls/library\aes.c ****     0xE0, 0x32, 0x3A, 0x0A, 0x49, 0x06, 0x24, 0x5C,
 120:C:/Users/Yushev/git/optiga-trust-qi/externals/mbedtls/library\aes.c ****     0xC2, 0xD3, 0xAC, 0x62, 0x91, 0x95, 0xE4, 0x79,
 121:C:/Users/Yushev/git/optiga-trust-qi/externals/mbedtls/library\aes.c ****     0xE7, 0xC8, 0x37, 0x6D, 0x8D, 0xD5, 0x4E, 0xA9,
 122:C:/Users/Yushev/git/optiga-trust-qi/externals/mbedtls/library\aes.c ****     0x6C, 0x56, 0xF4, 0xEA, 0x65, 0x7A, 0xAE, 0x08,
 123:C:/Users/Yushev/git/optiga-trust-qi/externals/mbedtls/library\aes.c ****     0xBA, 0x78, 0x25, 0x2E, 0x1C, 0xA6, 0xB4, 0xC6,
 124:C:/Users/Yushev/git/optiga-trust-qi/externals/mbedtls/library\aes.c ****     0xE8, 0xDD, 0x74, 0x1F, 0x4B, 0xBD, 0x8B, 0x8A,
 125:C:/Users/Yushev/git/optiga-trust-qi/externals/mbedtls/library\aes.c ****     0x70, 0x3E, 0xB5, 0x66, 0x48, 0x03, 0xF6, 0x0E,
 126:C:/Users/Yushev/git/optiga-trust-qi/externals/mbedtls/library\aes.c ****     0x61, 0x35, 0x57, 0xB9, 0x86, 0xC1, 0x1D, 0x9E,
 127:C:/Users/Yushev/git/optiga-trust-qi/externals/mbedtls/library\aes.c ****     0xE1, 0xF8, 0x98, 0x11, 0x69, 0xD9, 0x8E, 0x94,
 128:C:/Users/Yushev/git/optiga-trust-qi/externals/mbedtls/library\aes.c ****     0x9B, 0x1E, 0x87, 0xE9, 0xCE, 0x55, 0x28, 0xDF,
 129:C:/Users/Yushev/git/optiga-trust-qi/externals/mbedtls/library\aes.c ****     0x8C, 0xA1, 0x89, 0x0D, 0xBF, 0xE6, 0x42, 0x68,
 130:C:/Users/Yushev/git/optiga-trust-qi/externals/mbedtls/library\aes.c ****     0x41, 0x99, 0x2D, 0x0F, 0xB0, 0x54, 0xBB, 0x16
 131:C:/Users/Yushev/git/optiga-trust-qi/externals/mbedtls/library\aes.c **** };
 132:C:/Users/Yushev/git/optiga-trust-qi/externals/mbedtls/library\aes.c **** 
 133:C:/Users/Yushev/git/optiga-trust-qi/externals/mbedtls/library\aes.c **** /*
 134:C:/Users/Yushev/git/optiga-trust-qi/externals/mbedtls/library\aes.c ****  * Forward tables
 135:C:/Users/Yushev/git/optiga-trust-qi/externals/mbedtls/library\aes.c ****  */
 136:C:/Users/Yushev/git/optiga-trust-qi/externals/mbedtls/library\aes.c **** #define FT \
 137:C:/Users/Yushev/git/optiga-trust-qi/externals/mbedtls/library\aes.c **** \
 138:C:/Users/Yushev/git/optiga-trust-qi/externals/mbedtls/library\aes.c ****     V(A5,63,63,C6), V(84,7C,7C,F8), V(99,77,77,EE), V(8D,7B,7B,F6), \
 139:C:/Users/Yushev/git/optiga-trust-qi/externals/mbedtls/library\aes.c ****     V(0D,F2,F2,FF), V(BD,6B,6B,D6), V(B1,6F,6F,DE), V(54,C5,C5,91), \
 140:C:/Users/Yushev/git/optiga-trust-qi/externals/mbedtls/library\aes.c ****     V(50,30,30,60), V(03,01,01,02), V(A9,67,67,CE), V(7D,2B,2B,56), \
 141:C:/Users/Yushev/git/optiga-trust-qi/externals/mbedtls/library\aes.c ****     V(19,FE,FE,E7), V(62,D7,D7,B5), V(E6,AB,AB,4D), V(9A,76,76,EC), \
 142:C:/Users/Yushev/git/optiga-trust-qi/externals/mbedtls/library\aes.c ****     V(45,CA,CA,8F), V(9D,82,82,1F), V(40,C9,C9,89), V(87,7D,7D,FA), \
 143:C:/Users/Yushev/git/optiga-trust-qi/externals/mbedtls/library\aes.c ****     V(15,FA,FA,EF), V(EB,59,59,B2), V(C9,47,47,8E), V(0B,F0,F0,FB), \
 144:C:/Users/Yushev/git/optiga-trust-qi/externals/mbedtls/library\aes.c ****     V(EC,AD,AD,41), V(67,D4,D4,B3), V(FD,A2,A2,5F), V(EA,AF,AF,45), \
 145:C:/Users/Yushev/git/optiga-trust-qi/externals/mbedtls/library\aes.c ****     V(BF,9C,9C,23), V(F7,A4,A4,53), V(96,72,72,E4), V(5B,C0,C0,9B), \
 146:C:/Users/Yushev/git/optiga-trust-qi/externals/mbedtls/library\aes.c ****     V(C2,B7,B7,75), V(1C,FD,FD,E1), V(AE,93,93,3D), V(6A,26,26,4C), \
 147:C:/Users/Yushev/git/optiga-trust-qi/externals/mbedtls/library\aes.c ****     V(5A,36,36,6C), V(41,3F,3F,7E), V(02,F7,F7,F5), V(4F,CC,CC,83), \
 148:C:/Users/Yushev/git/optiga-trust-qi/externals/mbedtls/library\aes.c ****     V(5C,34,34,68), V(F4,A5,A5,51), V(34,E5,E5,D1), V(08,F1,F1,F9), \
 149:C:/Users/Yushev/git/optiga-trust-qi/externals/mbedtls/library\aes.c ****     V(93,71,71,E2), V(73,D8,D8,AB), V(53,31,31,62), V(3F,15,15,2A), \
 150:C:/Users/Yushev/git/optiga-trust-qi/externals/mbedtls/library\aes.c ****     V(0C,04,04,08), V(52,C7,C7,95), V(65,23,23,46), V(5E,C3,C3,9D), \
 151:C:/Users/Yushev/git/optiga-trust-qi/externals/mbedtls/library\aes.c ****     V(28,18,18,30), V(A1,96,96,37), V(0F,05,05,0A), V(B5,9A,9A,2F), \
 152:C:/Users/Yushev/git/optiga-trust-qi/externals/mbedtls/library\aes.c ****     V(09,07,07,0E), V(36,12,12,24), V(9B,80,80,1B), V(3D,E2,E2,DF), \
 153:C:/Users/Yushev/git/optiga-trust-qi/externals/mbedtls/library\aes.c ****     V(26,EB,EB,CD), V(69,27,27,4E), V(CD,B2,B2,7F), V(9F,75,75,EA), \
 154:C:/Users/Yushev/git/optiga-trust-qi/externals/mbedtls/library\aes.c ****     V(1B,09,09,12), V(9E,83,83,1D), V(74,2C,2C,58), V(2E,1A,1A,34), \
 155:C:/Users/Yushev/git/optiga-trust-qi/externals/mbedtls/library\aes.c ****     V(2D,1B,1B,36), V(B2,6E,6E,DC), V(EE,5A,5A,B4), V(FB,A0,A0,5B), \
 156:C:/Users/Yushev/git/optiga-trust-qi/externals/mbedtls/library\aes.c ****     V(F6,52,52,A4), V(4D,3B,3B,76), V(61,D6,D6,B7), V(CE,B3,B3,7D), \
 157:C:/Users/Yushev/git/optiga-trust-qi/externals/mbedtls/library\aes.c ****     V(7B,29,29,52), V(3E,E3,E3,DD), V(71,2F,2F,5E), V(97,84,84,13), \
 158:C:/Users/Yushev/git/optiga-trust-qi/externals/mbedtls/library\aes.c ****     V(F5,53,53,A6), V(68,D1,D1,B9), V(00,00,00,00), V(2C,ED,ED,C1), \
 159:C:/Users/Yushev/git/optiga-trust-qi/externals/mbedtls/library\aes.c ****     V(60,20,20,40), V(1F,FC,FC,E3), V(C8,B1,B1,79), V(ED,5B,5B,B6), \
 160:C:/Users/Yushev/git/optiga-trust-qi/externals/mbedtls/library\aes.c ****     V(BE,6A,6A,D4), V(46,CB,CB,8D), V(D9,BE,BE,67), V(4B,39,39,72), \
 161:C:/Users/Yushev/git/optiga-trust-qi/externals/mbedtls/library\aes.c ****     V(DE,4A,4A,94), V(D4,4C,4C,98), V(E8,58,58,B0), V(4A,CF,CF,85), \
 162:C:/Users/Yushev/git/optiga-trust-qi/externals/mbedtls/library\aes.c ****     V(6B,D0,D0,BB), V(2A,EF,EF,C5), V(E5,AA,AA,4F), V(16,FB,FB,ED), \
 163:C:/Users/Yushev/git/optiga-trust-qi/externals/mbedtls/library\aes.c ****     V(C5,43,43,86), V(D7,4D,4D,9A), V(55,33,33,66), V(94,85,85,11), \
 164:C:/Users/Yushev/git/optiga-trust-qi/externals/mbedtls/library\aes.c ****     V(CF,45,45,8A), V(10,F9,F9,E9), V(06,02,02,04), V(81,7F,7F,FE), \
 165:C:/Users/Yushev/git/optiga-trust-qi/externals/mbedtls/library\aes.c ****     V(F0,50,50,A0), V(44,3C,3C,78), V(BA,9F,9F,25), V(E3,A8,A8,4B), \
 166:C:/Users/Yushev/git/optiga-trust-qi/externals/mbedtls/library\aes.c ****     V(F3,51,51,A2), V(FE,A3,A3,5D), V(C0,40,40,80), V(8A,8F,8F,05), \
 167:C:/Users/Yushev/git/optiga-trust-qi/externals/mbedtls/library\aes.c ****     V(AD,92,92,3F), V(BC,9D,9D,21), V(48,38,38,70), V(04,F5,F5,F1), \
 168:C:/Users/Yushev/git/optiga-trust-qi/externals/mbedtls/library\aes.c ****     V(DF,BC,BC,63), V(C1,B6,B6,77), V(75,DA,DA,AF), V(63,21,21,42), \
 169:C:/Users/Yushev/git/optiga-trust-qi/externals/mbedtls/library\aes.c ****     V(30,10,10,20), V(1A,FF,FF,E5), V(0E,F3,F3,FD), V(6D,D2,D2,BF), \
 170:C:/Users/Yushev/git/optiga-trust-qi/externals/mbedtls/library\aes.c ****     V(4C,CD,CD,81), V(14,0C,0C,18), V(35,13,13,26), V(2F,EC,EC,C3), \
 171:C:/Users/Yushev/git/optiga-trust-qi/externals/mbedtls/library\aes.c ****     V(E1,5F,5F,BE), V(A2,97,97,35), V(CC,44,44,88), V(39,17,17,2E), \
 172:C:/Users/Yushev/git/optiga-trust-qi/externals/mbedtls/library\aes.c ****     V(57,C4,C4,93), V(F2,A7,A7,55), V(82,7E,7E,FC), V(47,3D,3D,7A), \
 173:C:/Users/Yushev/git/optiga-trust-qi/externals/mbedtls/library\aes.c ****     V(AC,64,64,C8), V(E7,5D,5D,BA), V(2B,19,19,32), V(95,73,73,E6), \
 174:C:/Users/Yushev/git/optiga-trust-qi/externals/mbedtls/library\aes.c ****     V(A0,60,60,C0), V(98,81,81,19), V(D1,4F,4F,9E), V(7F,DC,DC,A3), \
 175:C:/Users/Yushev/git/optiga-trust-qi/externals/mbedtls/library\aes.c ****     V(66,22,22,44), V(7E,2A,2A,54), V(AB,90,90,3B), V(83,88,88,0B), \
 176:C:/Users/Yushev/git/optiga-trust-qi/externals/mbedtls/library\aes.c ****     V(CA,46,46,8C), V(29,EE,EE,C7), V(D3,B8,B8,6B), V(3C,14,14,28), \
 177:C:/Users/Yushev/git/optiga-trust-qi/externals/mbedtls/library\aes.c ****     V(79,DE,DE,A7), V(E2,5E,5E,BC), V(1D,0B,0B,16), V(76,DB,DB,AD), \
 178:C:/Users/Yushev/git/optiga-trust-qi/externals/mbedtls/library\aes.c ****     V(3B,E0,E0,DB), V(56,32,32,64), V(4E,3A,3A,74), V(1E,0A,0A,14), \
 179:C:/Users/Yushev/git/optiga-trust-qi/externals/mbedtls/library\aes.c ****     V(DB,49,49,92), V(0A,06,06,0C), V(6C,24,24,48), V(E4,5C,5C,B8), \
 180:C:/Users/Yushev/git/optiga-trust-qi/externals/mbedtls/library\aes.c ****     V(5D,C2,C2,9F), V(6E,D3,D3,BD), V(EF,AC,AC,43), V(A6,62,62,C4), \
 181:C:/Users/Yushev/git/optiga-trust-qi/externals/mbedtls/library\aes.c ****     V(A8,91,91,39), V(A4,95,95,31), V(37,E4,E4,D3), V(8B,79,79,F2), \
 182:C:/Users/Yushev/git/optiga-trust-qi/externals/mbedtls/library\aes.c ****     V(32,E7,E7,D5), V(43,C8,C8,8B), V(59,37,37,6E), V(B7,6D,6D,DA), \
 183:C:/Users/Yushev/git/optiga-trust-qi/externals/mbedtls/library\aes.c ****     V(8C,8D,8D,01), V(64,D5,D5,B1), V(D2,4E,4E,9C), V(E0,A9,A9,49), \
 184:C:/Users/Yushev/git/optiga-trust-qi/externals/mbedtls/library\aes.c ****     V(B4,6C,6C,D8), V(FA,56,56,AC), V(07,F4,F4,F3), V(25,EA,EA,CF), \
 185:C:/Users/Yushev/git/optiga-trust-qi/externals/mbedtls/library\aes.c ****     V(AF,65,65,CA), V(8E,7A,7A,F4), V(E9,AE,AE,47), V(18,08,08,10), \
 186:C:/Users/Yushev/git/optiga-trust-qi/externals/mbedtls/library\aes.c ****     V(D5,BA,BA,6F), V(88,78,78,F0), V(6F,25,25,4A), V(72,2E,2E,5C), \
 187:C:/Users/Yushev/git/optiga-trust-qi/externals/mbedtls/library\aes.c ****     V(24,1C,1C,38), V(F1,A6,A6,57), V(C7,B4,B4,73), V(51,C6,C6,97), \
 188:C:/Users/Yushev/git/optiga-trust-qi/externals/mbedtls/library\aes.c ****     V(23,E8,E8,CB), V(7C,DD,DD,A1), V(9C,74,74,E8), V(21,1F,1F,3E), \
 189:C:/Users/Yushev/git/optiga-trust-qi/externals/mbedtls/library\aes.c ****     V(DD,4B,4B,96), V(DC,BD,BD,61), V(86,8B,8B,0D), V(85,8A,8A,0F), \
 190:C:/Users/Yushev/git/optiga-trust-qi/externals/mbedtls/library\aes.c ****     V(90,70,70,E0), V(42,3E,3E,7C), V(C4,B5,B5,71), V(AA,66,66,CC), \
 191:C:/Users/Yushev/git/optiga-trust-qi/externals/mbedtls/library\aes.c ****     V(D8,48,48,90), V(05,03,03,06), V(01,F6,F6,F7), V(12,0E,0E,1C), \
 192:C:/Users/Yushev/git/optiga-trust-qi/externals/mbedtls/library\aes.c ****     V(A3,61,61,C2), V(5F,35,35,6A), V(F9,57,57,AE), V(D0,B9,B9,69), \
 193:C:/Users/Yushev/git/optiga-trust-qi/externals/mbedtls/library\aes.c ****     V(91,86,86,17), V(58,C1,C1,99), V(27,1D,1D,3A), V(B9,9E,9E,27), \
 194:C:/Users/Yushev/git/optiga-trust-qi/externals/mbedtls/library\aes.c ****     V(38,E1,E1,D9), V(13,F8,F8,EB), V(B3,98,98,2B), V(33,11,11,22), \
 195:C:/Users/Yushev/git/optiga-trust-qi/externals/mbedtls/library\aes.c ****     V(BB,69,69,D2), V(70,D9,D9,A9), V(89,8E,8E,07), V(A7,94,94,33), \
 196:C:/Users/Yushev/git/optiga-trust-qi/externals/mbedtls/library\aes.c ****     V(B6,9B,9B,2D), V(22,1E,1E,3C), V(92,87,87,15), V(20,E9,E9,C9), \
 197:C:/Users/Yushev/git/optiga-trust-qi/externals/mbedtls/library\aes.c ****     V(49,CE,CE,87), V(FF,55,55,AA), V(78,28,28,50), V(7A,DF,DF,A5), \
 198:C:/Users/Yushev/git/optiga-trust-qi/externals/mbedtls/library\aes.c ****     V(8F,8C,8C,03), V(F8,A1,A1,59), V(80,89,89,09), V(17,0D,0D,1A), \
 199:C:/Users/Yushev/git/optiga-trust-qi/externals/mbedtls/library\aes.c ****     V(DA,BF,BF,65), V(31,E6,E6,D7), V(C6,42,42,84), V(B8,68,68,D0), \
 200:C:/Users/Yushev/git/optiga-trust-qi/externals/mbedtls/library\aes.c ****     V(C3,41,41,82), V(B0,99,99,29), V(77,2D,2D,5A), V(11,0F,0F,1E), \
 201:C:/Users/Yushev/git/optiga-trust-qi/externals/mbedtls/library\aes.c ****     V(CB,B0,B0,7B), V(FC,54,54,A8), V(D6,BB,BB,6D), V(3A,16,16,2C)
 202:C:/Users/Yushev/git/optiga-trust-qi/externals/mbedtls/library\aes.c **** 
 203:C:/Users/Yushev/git/optiga-trust-qi/externals/mbedtls/library\aes.c **** #define V(a,b,c,d) 0x##a##b##c##d
 204:C:/Users/Yushev/git/optiga-trust-qi/externals/mbedtls/library\aes.c **** static const uint32_t FT0[256] = { FT };
 205:C:/Users/Yushev/git/optiga-trust-qi/externals/mbedtls/library\aes.c **** #undef V
 206:C:/Users/Yushev/git/optiga-trust-qi/externals/mbedtls/library\aes.c **** 
 207:C:/Users/Yushev/git/optiga-trust-qi/externals/mbedtls/library\aes.c **** #if !defined(MBEDTLS_AES_FEWER_TABLES)
 208:C:/Users/Yushev/git/optiga-trust-qi/externals/mbedtls/library\aes.c **** 
 209:C:/Users/Yushev/git/optiga-trust-qi/externals/mbedtls/library\aes.c **** #define V(a,b,c,d) 0x##b##c##d##a
 210:C:/Users/Yushev/git/optiga-trust-qi/externals/mbedtls/library\aes.c **** static const uint32_t FT1[256] = { FT };
 211:C:/Users/Yushev/git/optiga-trust-qi/externals/mbedtls/library\aes.c **** #undef V
 212:C:/Users/Yushev/git/optiga-trust-qi/externals/mbedtls/library\aes.c **** 
 213:C:/Users/Yushev/git/optiga-trust-qi/externals/mbedtls/library\aes.c **** #define V(a,b,c,d) 0x##c##d##a##b
 214:C:/Users/Yushev/git/optiga-trust-qi/externals/mbedtls/library\aes.c **** static const uint32_t FT2[256] = { FT };
 215:C:/Users/Yushev/git/optiga-trust-qi/externals/mbedtls/library\aes.c **** #undef V
 216:C:/Users/Yushev/git/optiga-trust-qi/externals/mbedtls/library\aes.c **** 
 217:C:/Users/Yushev/git/optiga-trust-qi/externals/mbedtls/library\aes.c **** #define V(a,b,c,d) 0x##d##a##b##c
 218:C:/Users/Yushev/git/optiga-trust-qi/externals/mbedtls/library\aes.c **** static const uint32_t FT3[256] = { FT };
 219:C:/Users/Yushev/git/optiga-trust-qi/externals/mbedtls/library\aes.c **** #undef V
 220:C:/Users/Yushev/git/optiga-trust-qi/externals/mbedtls/library\aes.c **** 
 221:C:/Users/Yushev/git/optiga-trust-qi/externals/mbedtls/library\aes.c **** #endif /* !MBEDTLS_AES_FEWER_TABLES */
 222:C:/Users/Yushev/git/optiga-trust-qi/externals/mbedtls/library\aes.c **** 
 223:C:/Users/Yushev/git/optiga-trust-qi/externals/mbedtls/library\aes.c **** #undef FT
 224:C:/Users/Yushev/git/optiga-trust-qi/externals/mbedtls/library\aes.c **** 
 225:C:/Users/Yushev/git/optiga-trust-qi/externals/mbedtls/library\aes.c **** /*
 226:C:/Users/Yushev/git/optiga-trust-qi/externals/mbedtls/library\aes.c ****  * Reverse S-box
 227:C:/Users/Yushev/git/optiga-trust-qi/externals/mbedtls/library\aes.c ****  */
 228:C:/Users/Yushev/git/optiga-trust-qi/externals/mbedtls/library\aes.c **** static const unsigned char RSb[256] =
 229:C:/Users/Yushev/git/optiga-trust-qi/externals/mbedtls/library\aes.c **** {
 230:C:/Users/Yushev/git/optiga-trust-qi/externals/mbedtls/library\aes.c ****     0x52, 0x09, 0x6A, 0xD5, 0x30, 0x36, 0xA5, 0x38,
 231:C:/Users/Yushev/git/optiga-trust-qi/externals/mbedtls/library\aes.c ****     0xBF, 0x40, 0xA3, 0x9E, 0x81, 0xF3, 0xD7, 0xFB,
 232:C:/Users/Yushev/git/optiga-trust-qi/externals/mbedtls/library\aes.c ****     0x7C, 0xE3, 0x39, 0x82, 0x9B, 0x2F, 0xFF, 0x87,
 233:C:/Users/Yushev/git/optiga-trust-qi/externals/mbedtls/library\aes.c ****     0x34, 0x8E, 0x43, 0x44, 0xC4, 0xDE, 0xE9, 0xCB,
 234:C:/Users/Yushev/git/optiga-trust-qi/externals/mbedtls/library\aes.c ****     0x54, 0x7B, 0x94, 0x32, 0xA6, 0xC2, 0x23, 0x3D,
 235:C:/Users/Yushev/git/optiga-trust-qi/externals/mbedtls/library\aes.c ****     0xEE, 0x4C, 0x95, 0x0B, 0x42, 0xFA, 0xC3, 0x4E,
 236:C:/Users/Yushev/git/optiga-trust-qi/externals/mbedtls/library\aes.c ****     0x08, 0x2E, 0xA1, 0x66, 0x28, 0xD9, 0x24, 0xB2,
 237:C:/Users/Yushev/git/optiga-trust-qi/externals/mbedtls/library\aes.c ****     0x76, 0x5B, 0xA2, 0x49, 0x6D, 0x8B, 0xD1, 0x25,
 238:C:/Users/Yushev/git/optiga-trust-qi/externals/mbedtls/library\aes.c ****     0x72, 0xF8, 0xF6, 0x64, 0x86, 0x68, 0x98, 0x16,
 239:C:/Users/Yushev/git/optiga-trust-qi/externals/mbedtls/library\aes.c ****     0xD4, 0xA4, 0x5C, 0xCC, 0x5D, 0x65, 0xB6, 0x92,
 240:C:/Users/Yushev/git/optiga-trust-qi/externals/mbedtls/library\aes.c ****     0x6C, 0x70, 0x48, 0x50, 0xFD, 0xED, 0xB9, 0xDA,
 241:C:/Users/Yushev/git/optiga-trust-qi/externals/mbedtls/library\aes.c ****     0x5E, 0x15, 0x46, 0x57, 0xA7, 0x8D, 0x9D, 0x84,
 242:C:/Users/Yushev/git/optiga-trust-qi/externals/mbedtls/library\aes.c ****     0x90, 0xD8, 0xAB, 0x00, 0x8C, 0xBC, 0xD3, 0x0A,
 243:C:/Users/Yushev/git/optiga-trust-qi/externals/mbedtls/library\aes.c ****     0xF7, 0xE4, 0x58, 0x05, 0xB8, 0xB3, 0x45, 0x06,
 244:C:/Users/Yushev/git/optiga-trust-qi/externals/mbedtls/library\aes.c ****     0xD0, 0x2C, 0x1E, 0x8F, 0xCA, 0x3F, 0x0F, 0x02,
 245:C:/Users/Yushev/git/optiga-trust-qi/externals/mbedtls/library\aes.c ****     0xC1, 0xAF, 0xBD, 0x03, 0x01, 0x13, 0x8A, 0x6B,
 246:C:/Users/Yushev/git/optiga-trust-qi/externals/mbedtls/library\aes.c ****     0x3A, 0x91, 0x11, 0x41, 0x4F, 0x67, 0xDC, 0xEA,
 247:C:/Users/Yushev/git/optiga-trust-qi/externals/mbedtls/library\aes.c ****     0x97, 0xF2, 0xCF, 0xCE, 0xF0, 0xB4, 0xE6, 0x73,
 248:C:/Users/Yushev/git/optiga-trust-qi/externals/mbedtls/library\aes.c ****     0x96, 0xAC, 0x74, 0x22, 0xE7, 0xAD, 0x35, 0x85,
 249:C:/Users/Yushev/git/optiga-trust-qi/externals/mbedtls/library\aes.c ****     0xE2, 0xF9, 0x37, 0xE8, 0x1C, 0x75, 0xDF, 0x6E,
 250:C:/Users/Yushev/git/optiga-trust-qi/externals/mbedtls/library\aes.c ****     0x47, 0xF1, 0x1A, 0x71, 0x1D, 0x29, 0xC5, 0x89,
 251:C:/Users/Yushev/git/optiga-trust-qi/externals/mbedtls/library\aes.c ****     0x6F, 0xB7, 0x62, 0x0E, 0xAA, 0x18, 0xBE, 0x1B,
 252:C:/Users/Yushev/git/optiga-trust-qi/externals/mbedtls/library\aes.c ****     0xFC, 0x56, 0x3E, 0x4B, 0xC6, 0xD2, 0x79, 0x20,
 253:C:/Users/Yushev/git/optiga-trust-qi/externals/mbedtls/library\aes.c ****     0x9A, 0xDB, 0xC0, 0xFE, 0x78, 0xCD, 0x5A, 0xF4,
 254:C:/Users/Yushev/git/optiga-trust-qi/externals/mbedtls/library\aes.c ****     0x1F, 0xDD, 0xA8, 0x33, 0x88, 0x07, 0xC7, 0x31,
 255:C:/Users/Yushev/git/optiga-trust-qi/externals/mbedtls/library\aes.c ****     0xB1, 0x12, 0x10, 0x59, 0x27, 0x80, 0xEC, 0x5F,
 256:C:/Users/Yushev/git/optiga-trust-qi/externals/mbedtls/library\aes.c ****     0x60, 0x51, 0x7F, 0xA9, 0x19, 0xB5, 0x4A, 0x0D,
 257:C:/Users/Yushev/git/optiga-trust-qi/externals/mbedtls/library\aes.c ****     0x2D, 0xE5, 0x7A, 0x9F, 0x93, 0xC9, 0x9C, 0xEF,
 258:C:/Users/Yushev/git/optiga-trust-qi/externals/mbedtls/library\aes.c ****     0xA0, 0xE0, 0x3B, 0x4D, 0xAE, 0x2A, 0xF5, 0xB0,
 259:C:/Users/Yushev/git/optiga-trust-qi/externals/mbedtls/library\aes.c ****     0xC8, 0xEB, 0xBB, 0x3C, 0x83, 0x53, 0x99, 0x61,
 260:C:/Users/Yushev/git/optiga-trust-qi/externals/mbedtls/library\aes.c ****     0x17, 0x2B, 0x04, 0x7E, 0xBA, 0x77, 0xD6, 0x26,
 261:C:/Users/Yushev/git/optiga-trust-qi/externals/mbedtls/library\aes.c ****     0xE1, 0x69, 0x14, 0x63, 0x55, 0x21, 0x0C, 0x7D
 262:C:/Users/Yushev/git/optiga-trust-qi/externals/mbedtls/library\aes.c **** };
 263:C:/Users/Yushev/git/optiga-trust-qi/externals/mbedtls/library\aes.c **** 
 264:C:/Users/Yushev/git/optiga-trust-qi/externals/mbedtls/library\aes.c **** /*
 265:C:/Users/Yushev/git/optiga-trust-qi/externals/mbedtls/library\aes.c ****  * Reverse tables
 266:C:/Users/Yushev/git/optiga-trust-qi/externals/mbedtls/library\aes.c ****  */
 267:C:/Users/Yushev/git/optiga-trust-qi/externals/mbedtls/library\aes.c **** #define RT \
 268:C:/Users/Yushev/git/optiga-trust-qi/externals/mbedtls/library\aes.c **** \
 269:C:/Users/Yushev/git/optiga-trust-qi/externals/mbedtls/library\aes.c ****     V(50,A7,F4,51), V(53,65,41,7E), V(C3,A4,17,1A), V(96,5E,27,3A), \
 270:C:/Users/Yushev/git/optiga-trust-qi/externals/mbedtls/library\aes.c ****     V(CB,6B,AB,3B), V(F1,45,9D,1F), V(AB,58,FA,AC), V(93,03,E3,4B), \
 271:C:/Users/Yushev/git/optiga-trust-qi/externals/mbedtls/library\aes.c ****     V(55,FA,30,20), V(F6,6D,76,AD), V(91,76,CC,88), V(25,4C,02,F5), \
 272:C:/Users/Yushev/git/optiga-trust-qi/externals/mbedtls/library\aes.c ****     V(FC,D7,E5,4F), V(D7,CB,2A,C5), V(80,44,35,26), V(8F,A3,62,B5), \
 273:C:/Users/Yushev/git/optiga-trust-qi/externals/mbedtls/library\aes.c ****     V(49,5A,B1,DE), V(67,1B,BA,25), V(98,0E,EA,45), V(E1,C0,FE,5D), \
 274:C:/Users/Yushev/git/optiga-trust-qi/externals/mbedtls/library\aes.c ****     V(02,75,2F,C3), V(12,F0,4C,81), V(A3,97,46,8D), V(C6,F9,D3,6B), \
 275:C:/Users/Yushev/git/optiga-trust-qi/externals/mbedtls/library\aes.c ****     V(E7,5F,8F,03), V(95,9C,92,15), V(EB,7A,6D,BF), V(DA,59,52,95), \
 276:C:/Users/Yushev/git/optiga-trust-qi/externals/mbedtls/library\aes.c ****     V(2D,83,BE,D4), V(D3,21,74,58), V(29,69,E0,49), V(44,C8,C9,8E), \
 277:C:/Users/Yushev/git/optiga-trust-qi/externals/mbedtls/library\aes.c ****     V(6A,89,C2,75), V(78,79,8E,F4), V(6B,3E,58,99), V(DD,71,B9,27), \
 278:C:/Users/Yushev/git/optiga-trust-qi/externals/mbedtls/library\aes.c ****     V(B6,4F,E1,BE), V(17,AD,88,F0), V(66,AC,20,C9), V(B4,3A,CE,7D), \
 279:C:/Users/Yushev/git/optiga-trust-qi/externals/mbedtls/library\aes.c ****     V(18,4A,DF,63), V(82,31,1A,E5), V(60,33,51,97), V(45,7F,53,62), \
 280:C:/Users/Yushev/git/optiga-trust-qi/externals/mbedtls/library\aes.c ****     V(E0,77,64,B1), V(84,AE,6B,BB), V(1C,A0,81,FE), V(94,2B,08,F9), \
 281:C:/Users/Yushev/git/optiga-trust-qi/externals/mbedtls/library\aes.c ****     V(58,68,48,70), V(19,FD,45,8F), V(87,6C,DE,94), V(B7,F8,7B,52), \
 282:C:/Users/Yushev/git/optiga-trust-qi/externals/mbedtls/library\aes.c ****     V(23,D3,73,AB), V(E2,02,4B,72), V(57,8F,1F,E3), V(2A,AB,55,66), \
 283:C:/Users/Yushev/git/optiga-trust-qi/externals/mbedtls/library\aes.c ****     V(07,28,EB,B2), V(03,C2,B5,2F), V(9A,7B,C5,86), V(A5,08,37,D3), \
 284:C:/Users/Yushev/git/optiga-trust-qi/externals/mbedtls/library\aes.c ****     V(F2,87,28,30), V(B2,A5,BF,23), V(BA,6A,03,02), V(5C,82,16,ED), \
 285:C:/Users/Yushev/git/optiga-trust-qi/externals/mbedtls/library\aes.c ****     V(2B,1C,CF,8A), V(92,B4,79,A7), V(F0,F2,07,F3), V(A1,E2,69,4E), \
 286:C:/Users/Yushev/git/optiga-trust-qi/externals/mbedtls/library\aes.c ****     V(CD,F4,DA,65), V(D5,BE,05,06), V(1F,62,34,D1), V(8A,FE,A6,C4), \
 287:C:/Users/Yushev/git/optiga-trust-qi/externals/mbedtls/library\aes.c ****     V(9D,53,2E,34), V(A0,55,F3,A2), V(32,E1,8A,05), V(75,EB,F6,A4), \
 288:C:/Users/Yushev/git/optiga-trust-qi/externals/mbedtls/library\aes.c ****     V(39,EC,83,0B), V(AA,EF,60,40), V(06,9F,71,5E), V(51,10,6E,BD), \
 289:C:/Users/Yushev/git/optiga-trust-qi/externals/mbedtls/library\aes.c ****     V(F9,8A,21,3E), V(3D,06,DD,96), V(AE,05,3E,DD), V(46,BD,E6,4D), \
 290:C:/Users/Yushev/git/optiga-trust-qi/externals/mbedtls/library\aes.c ****     V(B5,8D,54,91), V(05,5D,C4,71), V(6F,D4,06,04), V(FF,15,50,60), \
 291:C:/Users/Yushev/git/optiga-trust-qi/externals/mbedtls/library\aes.c ****     V(24,FB,98,19), V(97,E9,BD,D6), V(CC,43,40,89), V(77,9E,D9,67), \
 292:C:/Users/Yushev/git/optiga-trust-qi/externals/mbedtls/library\aes.c ****     V(BD,42,E8,B0), V(88,8B,89,07), V(38,5B,19,E7), V(DB,EE,C8,79), \
 293:C:/Users/Yushev/git/optiga-trust-qi/externals/mbedtls/library\aes.c ****     V(47,0A,7C,A1), V(E9,0F,42,7C), V(C9,1E,84,F8), V(00,00,00,00), \
 294:C:/Users/Yushev/git/optiga-trust-qi/externals/mbedtls/library\aes.c ****     V(83,86,80,09), V(48,ED,2B,32), V(AC,70,11,1E), V(4E,72,5A,6C), \
 295:C:/Users/Yushev/git/optiga-trust-qi/externals/mbedtls/library\aes.c ****     V(FB,FF,0E,FD), V(56,38,85,0F), V(1E,D5,AE,3D), V(27,39,2D,36), \
 296:C:/Users/Yushev/git/optiga-trust-qi/externals/mbedtls/library\aes.c ****     V(64,D9,0F,0A), V(21,A6,5C,68), V(D1,54,5B,9B), V(3A,2E,36,24), \
 297:C:/Users/Yushev/git/optiga-trust-qi/externals/mbedtls/library\aes.c ****     V(B1,67,0A,0C), V(0F,E7,57,93), V(D2,96,EE,B4), V(9E,91,9B,1B), \
 298:C:/Users/Yushev/git/optiga-trust-qi/externals/mbedtls/library\aes.c ****     V(4F,C5,C0,80), V(A2,20,DC,61), V(69,4B,77,5A), V(16,1A,12,1C), \
 299:C:/Users/Yushev/git/optiga-trust-qi/externals/mbedtls/library\aes.c ****     V(0A,BA,93,E2), V(E5,2A,A0,C0), V(43,E0,22,3C), V(1D,17,1B,12), \
 300:C:/Users/Yushev/git/optiga-trust-qi/externals/mbedtls/library\aes.c ****     V(0B,0D,09,0E), V(AD,C7,8B,F2), V(B9,A8,B6,2D), V(C8,A9,1E,14), \
 301:C:/Users/Yushev/git/optiga-trust-qi/externals/mbedtls/library\aes.c ****     V(85,19,F1,57), V(4C,07,75,AF), V(BB,DD,99,EE), V(FD,60,7F,A3), \
 302:C:/Users/Yushev/git/optiga-trust-qi/externals/mbedtls/library\aes.c ****     V(9F,26,01,F7), V(BC,F5,72,5C), V(C5,3B,66,44), V(34,7E,FB,5B), \
 303:C:/Users/Yushev/git/optiga-trust-qi/externals/mbedtls/library\aes.c ****     V(76,29,43,8B), V(DC,C6,23,CB), V(68,FC,ED,B6), V(63,F1,E4,B8), \
 304:C:/Users/Yushev/git/optiga-trust-qi/externals/mbedtls/library\aes.c ****     V(CA,DC,31,D7), V(10,85,63,42), V(40,22,97,13), V(20,11,C6,84), \
 305:C:/Users/Yushev/git/optiga-trust-qi/externals/mbedtls/library\aes.c ****     V(7D,24,4A,85), V(F8,3D,BB,D2), V(11,32,F9,AE), V(6D,A1,29,C7), \
 306:C:/Users/Yushev/git/optiga-trust-qi/externals/mbedtls/library\aes.c ****     V(4B,2F,9E,1D), V(F3,30,B2,DC), V(EC,52,86,0D), V(D0,E3,C1,77), \
 307:C:/Users/Yushev/git/optiga-trust-qi/externals/mbedtls/library\aes.c ****     V(6C,16,B3,2B), V(99,B9,70,A9), V(FA,48,94,11), V(22,64,E9,47), \
 308:C:/Users/Yushev/git/optiga-trust-qi/externals/mbedtls/library\aes.c ****     V(C4,8C,FC,A8), V(1A,3F,F0,A0), V(D8,2C,7D,56), V(EF,90,33,22), \
 309:C:/Users/Yushev/git/optiga-trust-qi/externals/mbedtls/library\aes.c ****     V(C7,4E,49,87), V(C1,D1,38,D9), V(FE,A2,CA,8C), V(36,0B,D4,98), \
 310:C:/Users/Yushev/git/optiga-trust-qi/externals/mbedtls/library\aes.c ****     V(CF,81,F5,A6), V(28,DE,7A,A5), V(26,8E,B7,DA), V(A4,BF,AD,3F), \
 311:C:/Users/Yushev/git/optiga-trust-qi/externals/mbedtls/library\aes.c ****     V(E4,9D,3A,2C), V(0D,92,78,50), V(9B,CC,5F,6A), V(62,46,7E,54), \
 312:C:/Users/Yushev/git/optiga-trust-qi/externals/mbedtls/library\aes.c ****     V(C2,13,8D,F6), V(E8,B8,D8,90), V(5E,F7,39,2E), V(F5,AF,C3,82), \
 313:C:/Users/Yushev/git/optiga-trust-qi/externals/mbedtls/library\aes.c ****     V(BE,80,5D,9F), V(7C,93,D0,69), V(A9,2D,D5,6F), V(B3,12,25,CF), \
 314:C:/Users/Yushev/git/optiga-trust-qi/externals/mbedtls/library\aes.c ****     V(3B,99,AC,C8), V(A7,7D,18,10), V(6E,63,9C,E8), V(7B,BB,3B,DB), \
 315:C:/Users/Yushev/git/optiga-trust-qi/externals/mbedtls/library\aes.c ****     V(09,78,26,CD), V(F4,18,59,6E), V(01,B7,9A,EC), V(A8,9A,4F,83), \
 316:C:/Users/Yushev/git/optiga-trust-qi/externals/mbedtls/library\aes.c ****     V(65,6E,95,E6), V(7E,E6,FF,AA), V(08,CF,BC,21), V(E6,E8,15,EF), \
 317:C:/Users/Yushev/git/optiga-trust-qi/externals/mbedtls/library\aes.c ****     V(D9,9B,E7,BA), V(CE,36,6F,4A), V(D4,09,9F,EA), V(D6,7C,B0,29), \
 318:C:/Users/Yushev/git/optiga-trust-qi/externals/mbedtls/library\aes.c ****     V(AF,B2,A4,31), V(31,23,3F,2A), V(30,94,A5,C6), V(C0,66,A2,35), \
 319:C:/Users/Yushev/git/optiga-trust-qi/externals/mbedtls/library\aes.c ****     V(37,BC,4E,74), V(A6,CA,82,FC), V(B0,D0,90,E0), V(15,D8,A7,33), \
 320:C:/Users/Yushev/git/optiga-trust-qi/externals/mbedtls/library\aes.c ****     V(4A,98,04,F1), V(F7,DA,EC,41), V(0E,50,CD,7F), V(2F,F6,91,17), \
 321:C:/Users/Yushev/git/optiga-trust-qi/externals/mbedtls/library\aes.c ****     V(8D,D6,4D,76), V(4D,B0,EF,43), V(54,4D,AA,CC), V(DF,04,96,E4), \
 322:C:/Users/Yushev/git/optiga-trust-qi/externals/mbedtls/library\aes.c ****     V(E3,B5,D1,9E), V(1B,88,6A,4C), V(B8,1F,2C,C1), V(7F,51,65,46), \
 323:C:/Users/Yushev/git/optiga-trust-qi/externals/mbedtls/library\aes.c ****     V(04,EA,5E,9D), V(5D,35,8C,01), V(73,74,87,FA), V(2E,41,0B,FB), \
 324:C:/Users/Yushev/git/optiga-trust-qi/externals/mbedtls/library\aes.c ****     V(5A,1D,67,B3), V(52,D2,DB,92), V(33,56,10,E9), V(13,47,D6,6D), \
 325:C:/Users/Yushev/git/optiga-trust-qi/externals/mbedtls/library\aes.c ****     V(8C,61,D7,9A), V(7A,0C,A1,37), V(8E,14,F8,59), V(89,3C,13,EB), \
 326:C:/Users/Yushev/git/optiga-trust-qi/externals/mbedtls/library\aes.c ****     V(EE,27,A9,CE), V(35,C9,61,B7), V(ED,E5,1C,E1), V(3C,B1,47,7A), \
 327:C:/Users/Yushev/git/optiga-trust-qi/externals/mbedtls/library\aes.c ****     V(59,DF,D2,9C), V(3F,73,F2,55), V(79,CE,14,18), V(BF,37,C7,73), \
 328:C:/Users/Yushev/git/optiga-trust-qi/externals/mbedtls/library\aes.c ****     V(EA,CD,F7,53), V(5B,AA,FD,5F), V(14,6F,3D,DF), V(86,DB,44,78), \
 329:C:/Users/Yushev/git/optiga-trust-qi/externals/mbedtls/library\aes.c ****     V(81,F3,AF,CA), V(3E,C4,68,B9), V(2C,34,24,38), V(5F,40,A3,C2), \
 330:C:/Users/Yushev/git/optiga-trust-qi/externals/mbedtls/library\aes.c ****     V(72,C3,1D,16), V(0C,25,E2,BC), V(8B,49,3C,28), V(41,95,0D,FF), \
 331:C:/Users/Yushev/git/optiga-trust-qi/externals/mbedtls/library\aes.c ****     V(71,01,A8,39), V(DE,B3,0C,08), V(9C,E4,B4,D8), V(90,C1,56,64), \
 332:C:/Users/Yushev/git/optiga-trust-qi/externals/mbedtls/library\aes.c ****     V(61,84,CB,7B), V(70,B6,32,D5), V(74,5C,6C,48), V(42,57,B8,D0)
 333:C:/Users/Yushev/git/optiga-trust-qi/externals/mbedtls/library\aes.c **** 
 334:C:/Users/Yushev/git/optiga-trust-qi/externals/mbedtls/library\aes.c **** #define V(a,b,c,d) 0x##a##b##c##d
 335:C:/Users/Yushev/git/optiga-trust-qi/externals/mbedtls/library\aes.c **** static const uint32_t RT0[256] = { RT };
 336:C:/Users/Yushev/git/optiga-trust-qi/externals/mbedtls/library\aes.c **** #undef V
 337:C:/Users/Yushev/git/optiga-trust-qi/externals/mbedtls/library\aes.c **** 
 338:C:/Users/Yushev/git/optiga-trust-qi/externals/mbedtls/library\aes.c **** #if !defined(MBEDTLS_AES_FEWER_TABLES)
 339:C:/Users/Yushev/git/optiga-trust-qi/externals/mbedtls/library\aes.c **** 
 340:C:/Users/Yushev/git/optiga-trust-qi/externals/mbedtls/library\aes.c **** #define V(a,b,c,d) 0x##b##c##d##a
 341:C:/Users/Yushev/git/optiga-trust-qi/externals/mbedtls/library\aes.c **** static const uint32_t RT1[256] = { RT };
 342:C:/Users/Yushev/git/optiga-trust-qi/externals/mbedtls/library\aes.c **** #undef V
 343:C:/Users/Yushev/git/optiga-trust-qi/externals/mbedtls/library\aes.c **** 
 344:C:/Users/Yushev/git/optiga-trust-qi/externals/mbedtls/library\aes.c **** #define V(a,b,c,d) 0x##c##d##a##b
 345:C:/Users/Yushev/git/optiga-trust-qi/externals/mbedtls/library\aes.c **** static const uint32_t RT2[256] = { RT };
 346:C:/Users/Yushev/git/optiga-trust-qi/externals/mbedtls/library\aes.c **** #undef V
 347:C:/Users/Yushev/git/optiga-trust-qi/externals/mbedtls/library\aes.c **** 
 348:C:/Users/Yushev/git/optiga-trust-qi/externals/mbedtls/library\aes.c **** #define V(a,b,c,d) 0x##d##a##b##c
 349:C:/Users/Yushev/git/optiga-trust-qi/externals/mbedtls/library\aes.c **** static const uint32_t RT3[256] = { RT };
 350:C:/Users/Yushev/git/optiga-trust-qi/externals/mbedtls/library\aes.c **** #undef V
 351:C:/Users/Yushev/git/optiga-trust-qi/externals/mbedtls/library\aes.c **** 
 352:C:/Users/Yushev/git/optiga-trust-qi/externals/mbedtls/library\aes.c **** #endif /* !MBEDTLS_AES_FEWER_TABLES */
 353:C:/Users/Yushev/git/optiga-trust-qi/externals/mbedtls/library\aes.c **** 
 354:C:/Users/Yushev/git/optiga-trust-qi/externals/mbedtls/library\aes.c **** #undef RT
 355:C:/Users/Yushev/git/optiga-trust-qi/externals/mbedtls/library\aes.c **** 
 356:C:/Users/Yushev/git/optiga-trust-qi/externals/mbedtls/library\aes.c **** /*
 357:C:/Users/Yushev/git/optiga-trust-qi/externals/mbedtls/library\aes.c ****  * Round constants
 358:C:/Users/Yushev/git/optiga-trust-qi/externals/mbedtls/library\aes.c ****  */
 359:C:/Users/Yushev/git/optiga-trust-qi/externals/mbedtls/library\aes.c **** static const uint32_t RCON[10] =
 360:C:/Users/Yushev/git/optiga-trust-qi/externals/mbedtls/library\aes.c **** {
 361:C:/Users/Yushev/git/optiga-trust-qi/externals/mbedtls/library\aes.c ****     0x00000001, 0x00000002, 0x00000004, 0x00000008,
 362:C:/Users/Yushev/git/optiga-trust-qi/externals/mbedtls/library\aes.c ****     0x00000010, 0x00000020, 0x00000040, 0x00000080,
 363:C:/Users/Yushev/git/optiga-trust-qi/externals/mbedtls/library\aes.c ****     0x0000001B, 0x00000036
 364:C:/Users/Yushev/git/optiga-trust-qi/externals/mbedtls/library\aes.c **** };
 365:C:/Users/Yushev/git/optiga-trust-qi/externals/mbedtls/library\aes.c **** 
 366:C:/Users/Yushev/git/optiga-trust-qi/externals/mbedtls/library\aes.c **** #else /* MBEDTLS_AES_ROM_TABLES */
 367:C:/Users/Yushev/git/optiga-trust-qi/externals/mbedtls/library\aes.c **** 
 368:C:/Users/Yushev/git/optiga-trust-qi/externals/mbedtls/library\aes.c **** /*
 369:C:/Users/Yushev/git/optiga-trust-qi/externals/mbedtls/library\aes.c ****  * Forward S-box & tables
 370:C:/Users/Yushev/git/optiga-trust-qi/externals/mbedtls/library\aes.c ****  */
 371:C:/Users/Yushev/git/optiga-trust-qi/externals/mbedtls/library\aes.c **** static unsigned char FSb[256];
 372:C:/Users/Yushev/git/optiga-trust-qi/externals/mbedtls/library\aes.c **** static uint32_t FT0[256];
 373:C:/Users/Yushev/git/optiga-trust-qi/externals/mbedtls/library\aes.c **** #if !defined(MBEDTLS_AES_FEWER_TABLES)
 374:C:/Users/Yushev/git/optiga-trust-qi/externals/mbedtls/library\aes.c **** static uint32_t FT1[256];
 375:C:/Users/Yushev/git/optiga-trust-qi/externals/mbedtls/library\aes.c **** static uint32_t FT2[256];
 376:C:/Users/Yushev/git/optiga-trust-qi/externals/mbedtls/library\aes.c **** static uint32_t FT3[256];
 377:C:/Users/Yushev/git/optiga-trust-qi/externals/mbedtls/library\aes.c **** #endif /* !MBEDTLS_AES_FEWER_TABLES */
 378:C:/Users/Yushev/git/optiga-trust-qi/externals/mbedtls/library\aes.c **** 
 379:C:/Users/Yushev/git/optiga-trust-qi/externals/mbedtls/library\aes.c **** /*
 380:C:/Users/Yushev/git/optiga-trust-qi/externals/mbedtls/library\aes.c ****  * Reverse S-box & tables
 381:C:/Users/Yushev/git/optiga-trust-qi/externals/mbedtls/library\aes.c ****  */
 382:C:/Users/Yushev/git/optiga-trust-qi/externals/mbedtls/library\aes.c **** static unsigned char RSb[256];
 383:C:/Users/Yushev/git/optiga-trust-qi/externals/mbedtls/library\aes.c **** static uint32_t RT0[256];
 384:C:/Users/Yushev/git/optiga-trust-qi/externals/mbedtls/library\aes.c **** #if !defined(MBEDTLS_AES_FEWER_TABLES)
 385:C:/Users/Yushev/git/optiga-trust-qi/externals/mbedtls/library\aes.c **** static uint32_t RT1[256];
 386:C:/Users/Yushev/git/optiga-trust-qi/externals/mbedtls/library\aes.c **** static uint32_t RT2[256];
 387:C:/Users/Yushev/git/optiga-trust-qi/externals/mbedtls/library\aes.c **** static uint32_t RT3[256];
 388:C:/Users/Yushev/git/optiga-trust-qi/externals/mbedtls/library\aes.c **** #endif /* !MBEDTLS_AES_FEWER_TABLES */
 389:C:/Users/Yushev/git/optiga-trust-qi/externals/mbedtls/library\aes.c **** 
 390:C:/Users/Yushev/git/optiga-trust-qi/externals/mbedtls/library\aes.c **** /*
 391:C:/Users/Yushev/git/optiga-trust-qi/externals/mbedtls/library\aes.c ****  * Round constants
 392:C:/Users/Yushev/git/optiga-trust-qi/externals/mbedtls/library\aes.c ****  */
 393:C:/Users/Yushev/git/optiga-trust-qi/externals/mbedtls/library\aes.c **** static uint32_t RCON[10];
 394:C:/Users/Yushev/git/optiga-trust-qi/externals/mbedtls/library\aes.c **** 
 395:C:/Users/Yushev/git/optiga-trust-qi/externals/mbedtls/library\aes.c **** /*
 396:C:/Users/Yushev/git/optiga-trust-qi/externals/mbedtls/library\aes.c ****  * Tables generation code
 397:C:/Users/Yushev/git/optiga-trust-qi/externals/mbedtls/library\aes.c ****  */
 398:C:/Users/Yushev/git/optiga-trust-qi/externals/mbedtls/library\aes.c **** #define ROTL8(x) ( ( x << 8 ) & 0xFFFFFFFF ) | ( x >> 24 )
 399:C:/Users/Yushev/git/optiga-trust-qi/externals/mbedtls/library\aes.c **** #define XTIME(x) ( ( x << 1 ) ^ ( ( x & 0x80 ) ? 0x1B : 0x00 ) )
 400:C:/Users/Yushev/git/optiga-trust-qi/externals/mbedtls/library\aes.c **** #define MUL(x,y) ( ( x && y ) ? pow[(log[x]+log[y]) % 255] : 0 )
 401:C:/Users/Yushev/git/optiga-trust-qi/externals/mbedtls/library\aes.c **** 
 402:C:/Users/Yushev/git/optiga-trust-qi/externals/mbedtls/library\aes.c **** static int aes_init_done = 0;
 403:C:/Users/Yushev/git/optiga-trust-qi/externals/mbedtls/library\aes.c **** 
 404:C:/Users/Yushev/git/optiga-trust-qi/externals/mbedtls/library\aes.c **** static void aes_gen_tables( void )
 405:C:/Users/Yushev/git/optiga-trust-qi/externals/mbedtls/library\aes.c **** {
  27              	 .loc 1 405 0
  28              	 .cfi_startproc
  29              	 
  30              	 
  31              	.LVL0:
  32 0000 2DE9F041 	 push {r4,r5,r6,r7,r8,lr}
  33              	.LCFI0:
  34              	 .cfi_def_cfa_offset 24
  35              	 .cfi_offset 4,-24
  36              	 .cfi_offset 5,-20
  37              	 .cfi_offset 6,-16
  38              	 .cfi_offset 7,-12
  39              	 .cfi_offset 8,-8
  40              	 .cfi_offset 14,-4
 406:C:/Users/Yushev/git/optiga-trust-qi/externals/mbedtls/library\aes.c ****     int i, x, y, z;
 407:C:/Users/Yushev/git/optiga-trust-qi/externals/mbedtls/library\aes.c ****     int pow[256];
 408:C:/Users/Yushev/git/optiga-trust-qi/externals/mbedtls/library\aes.c ****     int log[256];
 409:C:/Users/Yushev/git/optiga-trust-qi/externals/mbedtls/library\aes.c **** 
 410:C:/Users/Yushev/git/optiga-trust-qi/externals/mbedtls/library\aes.c ****     /*
 411:C:/Users/Yushev/git/optiga-trust-qi/externals/mbedtls/library\aes.c ****      * compute pow and log tables over GF(2^8)
 412:C:/Users/Yushev/git/optiga-trust-qi/externals/mbedtls/library\aes.c ****      */
 413:C:/Users/Yushev/git/optiga-trust-qi/externals/mbedtls/library\aes.c ****     for( i = 0, x = 1; i < 256; i++ )
  41              	 .loc 1 413 0
  42 0004 0123     	 movs r3,#1
 405:C:/Users/Yushev/git/optiga-trust-qi/externals/mbedtls/library\aes.c ****     int i, x, y, z;
  43              	 .loc 1 405 0
  44 0006 ADF5006D 	 sub sp,sp,#2048
  45              	.LCFI1:
  46              	 .cfi_def_cfa_offset 2072
  47              	 .loc 1 413 0
  48 000a 0022     	 movs r2,#0
  49              	.LVL1:
  50              	.L3:
 414:C:/Users/Yushev/git/optiga-trust-qi/externals/mbedtls/library\aes.c ****     {
 415:C:/Users/Yushev/git/optiga-trust-qi/externals/mbedtls/library\aes.c ****         pow[i] = x;
 416:C:/Users/Yushev/git/optiga-trust-qi/externals/mbedtls/library\aes.c ****         log[x] = i;
  51              	 .loc 1 416 0
  52 000c 0DF58066 	 add r6,sp,#1024
 417:C:/Users/Yushev/git/optiga-trust-qi/externals/mbedtls/library\aes.c ****         x = ( x ^ XTIME( x ) ) & 0xFF;
  53              	 .loc 1 417 0
  54 0010 13F08001 	 ands r1,r3,#128
 415:C:/Users/Yushev/git/optiga-trust-qi/externals/mbedtls/library\aes.c ****         log[x] = i;
  55              	 .loc 1 415 0
  56 0014 4DF82230 	 str r3,[sp,r2,lsl#2]
 416:C:/Users/Yushev/git/optiga-trust-qi/externals/mbedtls/library\aes.c ****         x = ( x ^ XTIME( x ) ) & 0xFF;
  57              	 .loc 1 416 0
  58 0018 46F82320 	 str r2,[r6,r3,lsl#2]
  59              	 .loc 1 417 0
  60 001c 18BF     	 it ne
  61 001e 1B21     	 movne r1,#27
  62 0020 83EA4303 	 eor r3,r3,r3,lsl#1
  63              	.LVL2:
 413:C:/Users/Yushev/git/optiga-trust-qi/externals/mbedtls/library\aes.c ****     {
  64              	 .loc 1 413 0
  65 0024 0132     	 adds r2,r2,#1
  66              	.LVL3:
  67              	 .loc 1 417 0
  68 0026 4B40     	 eors r3,r3,r1
 413:C:/Users/Yushev/git/optiga-trust-qi/externals/mbedtls/library\aes.c ****     {
  69              	 .loc 1 413 0
  70 0028 B2F5807F 	 cmp r2,#256
  71              	 .loc 1 417 0
  72 002c DBB2     	 uxtb r3,r3
  73              	.LVL4:
 413:C:/Users/Yushev/git/optiga-trust-qi/externals/mbedtls/library\aes.c ****     {
  74              	 .loc 1 413 0
  75 002e EDD1     	 bne .L3
  76 0030 0123     	 movs r3,#1
  77              	.LVL5:
  78 0032 0022     	 movs r2,#0
  79              	.LVL6:
  80              	.L5:
 418:C:/Users/Yushev/git/optiga-trust-qi/externals/mbedtls/library\aes.c ****     }
 419:C:/Users/Yushev/git/optiga-trust-qi/externals/mbedtls/library\aes.c **** 
 420:C:/Users/Yushev/git/optiga-trust-qi/externals/mbedtls/library\aes.c ****     /*
 421:C:/Users/Yushev/git/optiga-trust-qi/externals/mbedtls/library\aes.c ****      * calculate the round constants
 422:C:/Users/Yushev/git/optiga-trust-qi/externals/mbedtls/library\aes.c ****      */
 423:C:/Users/Yushev/git/optiga-trust-qi/externals/mbedtls/library\aes.c ****     for( i = 0, x = 1; i < 10; i++ )
 424:C:/Users/Yushev/git/optiga-trust-qi/externals/mbedtls/library\aes.c ****     {
 425:C:/Users/Yushev/git/optiga-trust-qi/externals/mbedtls/library\aes.c ****         RCON[i] = (uint32_t) x;
  81              	 .loc 1 425 0
  82 0034 6049     	 ldr r1,.L23
  83 0036 41F82230 	 str r3,[r1,r2,lsl#2]
 426:C:/Users/Yushev/git/optiga-trust-qi/externals/mbedtls/library\aes.c ****         x = XTIME( x ) & 0xFF;
  84              	 .loc 1 426 0
  85 003a 13F08001 	 ands r1,r3,#128
  86 003e 18BF     	 it ne
  87 0040 1B21     	 movne r1,#27
 423:C:/Users/Yushev/git/optiga-trust-qi/externals/mbedtls/library\aes.c ****     {
  88              	 .loc 1 423 0
  89 0042 0132     	 adds r2,r2,#1
  90              	.LVL7:
  91              	 .loc 1 426 0
  92 0044 81EA4303 	 eor r3,r1,r3,lsl#1
  93              	.LVL8:
 423:C:/Users/Yushev/git/optiga-trust-qi/externals/mbedtls/library\aes.c ****     {
  94              	 .loc 1 423 0
  95 0048 0A2A     	 cmp r2,#10
  96              	 .loc 1 426 0
  97 004a DBB2     	 uxtb r3,r3
  98              	.LVL9:
 423:C:/Users/Yushev/git/optiga-trust-qi/externals/mbedtls/library\aes.c ****     {
  99              	 .loc 1 423 0
 100 004c F2D1     	 bne .L5
 427:C:/Users/Yushev/git/optiga-trust-qi/externals/mbedtls/library\aes.c ****     }
 428:C:/Users/Yushev/git/optiga-trust-qi/externals/mbedtls/library\aes.c **** 
 429:C:/Users/Yushev/git/optiga-trust-qi/externals/mbedtls/library\aes.c ****     /*
 430:C:/Users/Yushev/git/optiga-trust-qi/externals/mbedtls/library\aes.c ****      * generate the forward and reverse S-boxes
 431:C:/Users/Yushev/git/optiga-trust-qi/externals/mbedtls/library\aes.c ****      */
 432:C:/Users/Yushev/git/optiga-trust-qi/externals/mbedtls/library\aes.c ****     FSb[0x00] = 0x63;
 101              	 .loc 1 432 0
 102 004e 5B4D     	 ldr r5,.L23+4
 433:C:/Users/Yushev/git/optiga-trust-qi/externals/mbedtls/library\aes.c ****     RSb[0x63] = 0x00;
 103              	 .loc 1 433 0
 104 0050 5B4C     	 ldr r4,.L23+8
 432:C:/Users/Yushev/git/optiga-trust-qi/externals/mbedtls/library\aes.c ****     RSb[0x63] = 0x00;
 105              	 .loc 1 432 0
 106 0052 6323     	 movs r3,#99
 107              	.LVL10:
 108 0054 2B70     	 strb r3,[r5]
 109              	 .loc 1 433 0
 110 0056 0023     	 movs r3,#0
 111 0058 84F86330 	 strb r3,[r4,#99]
 112              	.LVL11:
 434:C:/Users/Yushev/git/optiga-trust-qi/externals/mbedtls/library\aes.c **** 
 435:C:/Users/Yushev/git/optiga-trust-qi/externals/mbedtls/library\aes.c ****     for( i = 1; i < 256; i++ )
 113              	 .loc 1 435 0
 114 005c 0120     	 movs r0,#1
 115              	.LVL12:
 116              	.L6:
 436:C:/Users/Yushev/git/optiga-trust-qi/externals/mbedtls/library\aes.c ****     {
 437:C:/Users/Yushev/git/optiga-trust-qi/externals/mbedtls/library\aes.c ****         x = pow[255 - log[i]];
 117              	 .loc 1 437 0 discriminator 3
 118 005e 56F82030 	 ldr r3,[r6,r0,lsl#2]
 119 0062 C3F1FF03 	 rsb r3,r3,#255
 120 0066 5DF823E0 	 ldr lr,[sp,r3,lsl#2]
 121              	.LVL13:
 438:C:/Users/Yushev/git/optiga-trust-qi/externals/mbedtls/library\aes.c **** 
 439:C:/Users/Yushev/git/optiga-trust-qi/externals/mbedtls/library\aes.c ****         y  = x; y = ( ( y << 1 ) | ( y >> 7 ) ) & 0xFF;
 122              	 .loc 1 439 0 discriminator 3
 123 006a 4FEA4E01 	 lsl r1,lr,#1
 124 006e 41EAEE11 	 orr r1,r1,lr,asr#7
 125 0072 C9B2     	 uxtb r1,r1
 126              	.LVL14:
 440:C:/Users/Yushev/git/optiga-trust-qi/externals/mbedtls/library\aes.c ****         x ^= y; y = ( ( y << 1 ) | ( y >> 7 ) ) & 0xFF;
 127              	 .loc 1 440 0 discriminator 3
 128 0074 4A00     	 lsls r2,r1,#1
 129 0076 42EAD112 	 orr r2,r2,r1,lsr#7
 130 007a D2B2     	 uxtb r2,r2
 131              	.LVL15:
 441:C:/Users/Yushev/git/optiga-trust-qi/externals/mbedtls/library\aes.c ****         x ^= y; y = ( ( y << 1 ) | ( y >> 7 ) ) & 0xFF;
 132              	 .loc 1 441 0 discriminator 3
 133 007c 5300     	 lsls r3,r2,#1
 134 007e 43EAD213 	 orr r3,r3,r2,lsr#7
 135 0082 DBB2     	 uxtb r3,r3
 136              	.LVL16:
 137 0084 8EF0630E 	 eor lr,lr,#99
 138              	.LVL17:
 442:C:/Users/Yushev/git/optiga-trust-qi/externals/mbedtls/library\aes.c ****         x ^= y; y = ( ( y << 1 ) | ( y >> 7 ) ) & 0xFF;
 139              	 .loc 1 442 0 discriminator 3
 140 0088 5F00     	 lsls r7,r3,#1
 141 008a 8EEA0101 	 eor r1,lr,r1
 142              	.LVL18:
 143 008e 47EAD317 	 orr r7,r7,r3,lsr#7
 144              	.LVL19:
 145 0092 4A40     	 eors r2,r2,r1
 146              	.LVL20:
 147 0094 5340     	 eors r3,r3,r2
 148              	.LVL21:
 149 0096 FAB2     	 uxtb r2,r7
 443:C:/Users/Yushev/git/optiga-trust-qi/externals/mbedtls/library\aes.c ****         x ^= y ^ 0x63;
 150              	 .loc 1 443 0 discriminator 3
 151 0098 5340     	 eors r3,r3,r2
 152              	.LVL22:
 444:C:/Users/Yushev/git/optiga-trust-qi/externals/mbedtls/library\aes.c **** 
 445:C:/Users/Yushev/git/optiga-trust-qi/externals/mbedtls/library\aes.c ****         FSb[i] = (unsigned char) x;
 153              	 .loc 1 445 0 discriminator 3
 154 009a 2B54     	 strb r3,[r5,r0]
 446:C:/Users/Yushev/git/optiga-trust-qi/externals/mbedtls/library\aes.c ****         RSb[x] = (unsigned char) i;
 155              	 .loc 1 446 0 discriminator 3
 156 009c E054     	 strb r0,[r4,r3]
 435:C:/Users/Yushev/git/optiga-trust-qi/externals/mbedtls/library\aes.c ****     {
 157              	 .loc 1 435 0 discriminator 3
 158 009e 0130     	 adds r0,r0,#1
 159              	.LVL23:
 160 00a0 B0F5807F 	 cmp r0,#256
 161 00a4 DBD1     	 bne .L6
 447:C:/Users/Yushev/git/optiga-trust-qi/externals/mbedtls/library\aes.c ****     }
 448:C:/Users/Yushev/git/optiga-trust-qi/externals/mbedtls/library\aes.c **** 
 449:C:/Users/Yushev/git/optiga-trust-qi/externals/mbedtls/library\aes.c ****     /*
 450:C:/Users/Yushev/git/optiga-trust-qi/externals/mbedtls/library\aes.c ****      * generate the forward and reverse tables
 451:C:/Users/Yushev/git/optiga-trust-qi/externals/mbedtls/library\aes.c ****      */
 452:C:/Users/Yushev/git/optiga-trust-qi/externals/mbedtls/library\aes.c ****     for( i = 0; i < 256; i++ )
 453:C:/Users/Yushev/git/optiga-trust-qi/externals/mbedtls/library\aes.c ****     {
 454:C:/Users/Yushev/git/optiga-trust-qi/externals/mbedtls/library\aes.c ****         x = FSb[i];
 455:C:/Users/Yushev/git/optiga-trust-qi/externals/mbedtls/library\aes.c ****         y = XTIME( x ) & 0xFF;
 456:C:/Users/Yushev/git/optiga-trust-qi/externals/mbedtls/library\aes.c ****         z =  ( y ^ x ) & 0xFF;
 457:C:/Users/Yushev/git/optiga-trust-qi/externals/mbedtls/library\aes.c **** 
 458:C:/Users/Yushev/git/optiga-trust-qi/externals/mbedtls/library\aes.c ****         FT0[i] = ( (uint32_t) y       ) ^
 459:C:/Users/Yushev/git/optiga-trust-qi/externals/mbedtls/library\aes.c ****                  ( (uint32_t) x <<  8 ) ^
 460:C:/Users/Yushev/git/optiga-trust-qi/externals/mbedtls/library\aes.c ****                  ( (uint32_t) x << 16 ) ^
 461:C:/Users/Yushev/git/optiga-trust-qi/externals/mbedtls/library\aes.c ****                  ( (uint32_t) z << 24 );
 462:C:/Users/Yushev/git/optiga-trust-qi/externals/mbedtls/library\aes.c **** 
 463:C:/Users/Yushev/git/optiga-trust-qi/externals/mbedtls/library\aes.c **** #if !defined(MBEDTLS_AES_FEWER_TABLES)
 464:C:/Users/Yushev/git/optiga-trust-qi/externals/mbedtls/library\aes.c ****         FT1[i] = ROTL8( FT0[i] );
 465:C:/Users/Yushev/git/optiga-trust-qi/externals/mbedtls/library\aes.c ****         FT2[i] = ROTL8( FT1[i] );
 466:C:/Users/Yushev/git/optiga-trust-qi/externals/mbedtls/library\aes.c ****         FT3[i] = ROTL8( FT2[i] );
 467:C:/Users/Yushev/git/optiga-trust-qi/externals/mbedtls/library\aes.c **** #endif /* !MBEDTLS_AES_FEWER_TABLES */
 468:C:/Users/Yushev/git/optiga-trust-qi/externals/mbedtls/library\aes.c **** 
 469:C:/Users/Yushev/git/optiga-trust-qi/externals/mbedtls/library\aes.c ****         x = RSb[i];
 470:C:/Users/Yushev/git/optiga-trust-qi/externals/mbedtls/library\aes.c **** 
 471:C:/Users/Yushev/git/optiga-trust-qi/externals/mbedtls/library\aes.c ****         RT0[i] = ( (uint32_t) MUL( 0x0E, x )       ) ^
 162              	 .loc 1 471 0
 163 00a6 B06B     	 ldr r0,[r6,#56]
 164              	.LVL24:
 472:C:/Users/Yushev/git/optiga-trust-qi/externals/mbedtls/library\aes.c ****                  ( (uint32_t) MUL( 0x09, x ) <<  8 ) ^
 165              	 .loc 1 472 0
 166 00a8 746A     	 ldr r4,[r6,#36]
 473:C:/Users/Yushev/git/optiga-trust-qi/externals/mbedtls/library\aes.c ****                  ( (uint32_t) MUL( 0x0D, x ) << 16 ) ^
 167              	 .loc 1 473 0
 168 00aa 756B     	 ldr r5,[r6,#52]
 474:C:/Users/Yushev/git/optiga-trust-qi/externals/mbedtls/library\aes.c ****                  ( (uint32_t) MUL( 0x0B, x ) << 24 );
 169              	 .loc 1 474 0
 170 00ac F66A     	 ldr r6,[r6,#44]
 171 00ae 0022     	 movs r2,#0
 172              	.LVL25:
 173              	.L11:
 454:C:/Users/Yushev/git/optiga-trust-qi/externals/mbedtls/library\aes.c ****         y = XTIME( x ) & 0xFF;
 174              	 .loc 1 454 0
 175 00b0 424B     	 ldr r3,.L23+4
 176 00b2 D75C     	 ldrb r7,[r2,r3]
 177              	.LVL26:
 455:C:/Users/Yushev/git/optiga-trust-qi/externals/mbedtls/library\aes.c ****         z =  ( y ^ x ) & 0xFF;
 178              	 .loc 1 455 0
 179 00b4 17F0800F 	 tst r7,#128
 180 00b8 14BF     	 ite ne
 181 00ba 1B23     	 movne r3,#27
 182 00bc 0023     	 moveq r3,#0
 183 00be 83EA4703 	 eor r3,r3,r7,lsl#1
 459:C:/Users/Yushev/git/optiga-trust-qi/externals/mbedtls/library\aes.c ****                  ( (uint32_t) x << 16 ) ^
 184              	 .loc 1 459 0
 185 00c2 3902     	 lsls r1,r7,#8
 455:C:/Users/Yushev/git/optiga-trust-qi/externals/mbedtls/library\aes.c ****         z =  ( y ^ x ) & 0xFF;
 186              	 .loc 1 455 0
 187 00c4 DBB2     	 uxtb r3,r3
 188              	.LVL27:
 189 00c6 41EA0741 	 orr r1,r1,r7,lsl#16
 459:C:/Users/Yushev/git/optiga-trust-qi/externals/mbedtls/library\aes.c ****                  ( (uint32_t) x << 16 ) ^
 190              	 .loc 1 459 0
 191 00ca 5940     	 eors r1,r1,r3
 456:C:/Users/Yushev/git/optiga-trust-qi/externals/mbedtls/library\aes.c **** 
 192              	 .loc 1 456 0
 193 00cc 7B40     	 eors r3,r3,r7
 194              	.LVL28:
 458:C:/Users/Yushev/git/optiga-trust-qi/externals/mbedtls/library\aes.c ****                  ( (uint32_t) x <<  8 ) ^
 195              	 .loc 1 458 0
 196 00ce 3D4F     	 ldr r7,.L23+12
 197              	.LVL29:
 460:C:/Users/Yushev/git/optiga-trust-qi/externals/mbedtls/library\aes.c ****                  ( (uint32_t) z << 24 );
 198              	 .loc 1 460 0
 199 00d0 41EA0363 	 orr r3,r1,r3,lsl#24
 200              	.LVL30:
 458:C:/Users/Yushev/git/optiga-trust-qi/externals/mbedtls/library\aes.c ****                  ( (uint32_t) x <<  8 ) ^
 201              	 .loc 1 458 0
 202 00d4 47F82230 	 str r3,[r7,r2,lsl#2]
 464:C:/Users/Yushev/git/optiga-trust-qi/externals/mbedtls/library\aes.c ****         FT2[i] = ROTL8( FT1[i] );
 203              	 .loc 1 464 0
 204 00d8 3B4F     	 ldr r7,.L23+16
 205 00da 4FEA3363 	 ror r3,r3,#24
 206 00de 47F82230 	 str r3,[r7,r2,lsl#2]
 465:C:/Users/Yushev/git/optiga-trust-qi/externals/mbedtls/library\aes.c ****         FT3[i] = ROTL8( FT2[i] );
 207              	 .loc 1 465 0
 208 00e2 3A4F     	 ldr r7,.L23+20
 209 00e4 4FEA3363 	 ror r3,r3,#24
 210 00e8 47F82230 	 str r3,[r7,r2,lsl#2]
 466:C:/Users/Yushev/git/optiga-trust-qi/externals/mbedtls/library\aes.c **** #endif /* !MBEDTLS_AES_FEWER_TABLES */
 211              	 .loc 1 466 0
 212 00ec 384F     	 ldr r7,.L23+24
 213 00ee 4FEA3363 	 ror r3,r3,#24
 214 00f2 47F82230 	 str r3,[r7,r2,lsl#2]
 469:C:/Users/Yushev/git/optiga-trust-qi/externals/mbedtls/library\aes.c **** 
 215              	 .loc 1 469 0
 216 00f6 324B     	 ldr r3,.L23+8
 217 00f8 9B5C     	 ldrb r3,[r3,r2]
 218              	.LVL31:
 219 00fa 9100     	 lsls r1,r2,#2
 471:C:/Users/Yushev/git/optiga-trust-qi/externals/mbedtls/library\aes.c ****                  ( (uint32_t) MUL( 0x09, x ) <<  8 ) ^
 220              	 .loc 1 471 0
 221 00fc D3B1     	 cbz r3,.L15
 222              	.LVL32:
 471:C:/Users/Yushev/git/optiga-trust-qi/externals/mbedtls/library\aes.c ****                  ( (uint32_t) MUL( 0x09, x ) <<  8 ) ^
 223              	 .loc 1 471 0 is_stmt 0 discriminator 1
 224 00fe 0DF58067 	 add r7,sp,#1024
 225 0102 4FF0FF0E 	 mov lr,#255
 226 0106 57F82370 	 ldr r7,[r7,r3,lsl#2]
 227 010a 00EB070C 	 add ip,r0,r7
 472:C:/Users/Yushev/git/optiga-trust-qi/externals/mbedtls/library\aes.c ****                  ( (uint32_t) MUL( 0x0D, x ) << 16 ) ^
 228              	 .loc 1 472 0 is_stmt 1 discriminator 1
 229 010e 2744     	 add r7,r7,r4
 471:C:/Users/Yushev/git/optiga-trust-qi/externals/mbedtls/library\aes.c ****                  ( (uint32_t) MUL( 0x09, x ) <<  8 ) ^
 230              	 .loc 1 471 0 discriminator 1
 231 0110 9CFBFEF8 	 sdiv r8,ip,lr
 472:C:/Users/Yushev/git/optiga-trust-qi/externals/mbedtls/library\aes.c ****                  ( (uint32_t) MUL( 0x0D, x ) << 16 ) ^
 232              	 .loc 1 472 0 discriminator 1
 233 0114 97FBFEFE 	 sdiv lr,r7,lr
 234 0118 CEEB0E2E 	 rsb lr,lr,lr,lsl#8
 235 011c CEEB0707 	 rsb r7,lr,r7
 471:C:/Users/Yushev/git/optiga-trust-qi/externals/mbedtls/library\aes.c ****                  ( (uint32_t) MUL( 0x09, x ) <<  8 ) ^
 236              	 .loc 1 471 0 discriminator 1
 237 0120 C8EB0828 	 rsb r8,r8,r8,lsl#8
 238 0124 C8EB0C0C 	 rsb ip,r8,ip
 472:C:/Users/Yushev/git/optiga-trust-qi/externals/mbedtls/library\aes.c ****                  ( (uint32_t) MUL( 0x0D, x ) << 16 ) ^
 239              	 .loc 1 472 0 discriminator 1
 240 0128 5DF82770 	 ldr r7,[sp,r7,lsl#2]
 471:C:/Users/Yushev/git/optiga-trust-qi/externals/mbedtls/library\aes.c ****                  ( (uint32_t) MUL( 0x09, x ) <<  8 ) ^
 241              	 .loc 1 471 0 discriminator 1
 242 012c 5DF82CC0 	 ldr ip,[sp,ip,lsl#2]
 472:C:/Users/Yushev/git/optiga-trust-qi/externals/mbedtls/library\aes.c ****                  ( (uint32_t) MUL( 0x0D, x ) << 16 ) ^
 243              	 .loc 1 472 0 discriminator 1
 244 0130 3F02     	 lsls r7,r7,#8
 245 0132 01E0     	 b .L8
 246              	.L15:
 471:C:/Users/Yushev/git/optiga-trust-qi/externals/mbedtls/library\aes.c ****                  ( (uint32_t) MUL( 0x09, x ) <<  8 ) ^
 247              	 .loc 1 471 0
 248 0134 9C46     	 mov ip,r3
 472:C:/Users/Yushev/git/optiga-trust-qi/externals/mbedtls/library\aes.c ****                  ( (uint32_t) MUL( 0x0D, x ) << 16 ) ^
 249              	 .loc 1 472 0
 250 0136 1F46     	 mov r7,r3
 251              	.L8:
 471:C:/Users/Yushev/git/optiga-trust-qi/externals/mbedtls/library\aes.c ****                  ( (uint32_t) MUL( 0x09, x ) <<  8 ) ^
 252              	 .loc 1 471 0
 253 0138 8CEA070E 	 eor lr,ip,r7
 473:C:/Users/Yushev/git/optiga-trust-qi/externals/mbedtls/library\aes.c ****                  ( (uint32_t) MUL( 0x0B, x ) << 24 );
 254              	 .loc 1 473 0
 255 013c 83B1     	 cbz r3,.L16
 473:C:/Users/Yushev/git/optiga-trust-qi/externals/mbedtls/library\aes.c ****                  ( (uint32_t) MUL( 0x0B, x ) << 24 );
 256              	 .loc 1 473 0 is_stmt 0 discriminator 1
 257 013e 0DF58067 	 add r7,sp,#1024
 258 0142 4FF0FF0C 	 mov ip,#255
 259 0146 57F82370 	 ldr r7,[r7,r3,lsl#2]
 260 014a 2F44     	 add r7,r7,r5
 261 014c 97FBFCFC 	 sdiv ip,r7,ip
 262 0150 CCEB0C2C 	 rsb ip,ip,ip,lsl#8
 263 0154 CCEB0707 	 rsb r7,ip,r7
 264 0158 5DF82770 	 ldr r7,[sp,r7,lsl#2]
 265 015c 3F04     	 lsls r7,r7,#16
 266 015e 00E0     	 b .L9
 267              	.L16:
 473:C:/Users/Yushev/git/optiga-trust-qi/externals/mbedtls/library\aes.c ****                  ( (uint32_t) MUL( 0x0B, x ) << 24 );
 268              	 .loc 1 473 0
 269 0160 1F46     	 mov r7,r3
 270              	.L9:
 472:C:/Users/Yushev/git/optiga-trust-qi/externals/mbedtls/library\aes.c ****                  ( (uint32_t) MUL( 0x0D, x ) << 16 ) ^
 271              	 .loc 1 472 0 is_stmt 1
 272 0162 8EEA0707 	 eor r7,lr,r7
 273              	 .loc 1 474 0
 274 0166 7BB1     	 cbz r3,.L10
 275              	 .loc 1 474 0 is_stmt 0 discriminator 1
 276 0168 0DF5806E 	 add lr,sp,#1024
 277 016c 5EF82330 	 ldr r3,[lr,r3,lsl#2]
 278              	.LVL33:
 279 0170 4FF0FF0E 	 mov lr,#255
 280 0174 3344     	 add r3,r3,r6
 281 0176 93FBFEFE 	 sdiv lr,r3,lr
 282 017a CEEB0E2E 	 rsb lr,lr,lr,lsl#8
 283 017e CEEB0303 	 rsb r3,lr,r3
 284 0182 5DF82330 	 ldr r3,[sp,r3,lsl#2]
 285 0186 1B06     	 lsls r3,r3,#24
 286              	.L10:
 473:C:/Users/Yushev/git/optiga-trust-qi/externals/mbedtls/library\aes.c ****                  ( (uint32_t) MUL( 0x0B, x ) << 24 );
 287              	 .loc 1 473 0 is_stmt 1 discriminator 2
 288 0188 7B40     	 eors r3,r3,r7
 471:C:/Users/Yushev/git/optiga-trust-qi/externals/mbedtls/library\aes.c ****                  ( (uint32_t) MUL( 0x09, x ) <<  8 ) ^
 289              	 .loc 1 471 0 discriminator 2
 290 018a 124F     	 ldr r7,.L23+28
 291 018c CB51     	 str r3,[r1,r7]
 475:C:/Users/Yushev/git/optiga-trust-qi/externals/mbedtls/library\aes.c **** 
 476:C:/Users/Yushev/git/optiga-trust-qi/externals/mbedtls/library\aes.c **** #if !defined(MBEDTLS_AES_FEWER_TABLES)
 477:C:/Users/Yushev/git/optiga-trust-qi/externals/mbedtls/library\aes.c ****         RT1[i] = ROTL8( RT0[i] );
 292              	 .loc 1 477 0 discriminator 2
 293 018e 124F     	 ldr r7,.L23+32
 294 0190 4FEA3363 	 ror r3,r3,#24
 295 0194 CB51     	 str r3,[r1,r7]
 478:C:/Users/Yushev/git/optiga-trust-qi/externals/mbedtls/library\aes.c ****         RT2[i] = ROTL8( RT1[i] );
 296              	 .loc 1 478 0 discriminator 2
 297 0196 114F     	 ldr r7,.L23+36
 298 0198 4FEA3363 	 ror r3,r3,#24
 299 019c CB51     	 str r3,[r1,r7]
 452:C:/Users/Yushev/git/optiga-trust-qi/externals/mbedtls/library\aes.c ****     {
 300              	 .loc 1 452 0 discriminator 2
 301 019e 0132     	 adds r2,r2,#1
 302              	.LVL34:
 479:C:/Users/Yushev/git/optiga-trust-qi/externals/mbedtls/library\aes.c ****         RT3[i] = ROTL8( RT2[i] );
 303              	 .loc 1 479 0 discriminator 2
 304 01a0 0F4F     	 ldr r7,.L23+40
 305 01a2 4FEA3363 	 ror r3,r3,#24
 452:C:/Users/Yushev/git/optiga-trust-qi/externals/mbedtls/library\aes.c ****     {
 306              	 .loc 1 452 0 discriminator 2
 307 01a6 B2F5807F 	 cmp r2,#256
 308              	 .loc 1 479 0 discriminator 2
 309 01aa CB51     	 str r3,[r1,r7]
 452:C:/Users/Yushev/git/optiga-trust-qi/externals/mbedtls/library\aes.c ****     {
 310              	 .loc 1 452 0 discriminator 2
 311 01ac 80D1     	 bne .L11
 480:C:/Users/Yushev/git/optiga-trust-qi/externals/mbedtls/library\aes.c **** #endif /* !MBEDTLS_AES_FEWER_TABLES */
 481:C:/Users/Yushev/git/optiga-trust-qi/externals/mbedtls/library\aes.c ****     }
 482:C:/Users/Yushev/git/optiga-trust-qi/externals/mbedtls/library\aes.c **** }
 312              	 .loc 1 482 0
 313 01ae 0DF5006D 	 add sp,sp,#2048
 314              	.LCFI2:
 315              	 .cfi_def_cfa_offset 24
 316              	 
 317 01b2 BDE8F081 	 pop {r4,r5,r6,r7,r8,pc}
 318              	.L24:
 319 01b6 00BF     	 .align 2
 320              	.L23:
 321 01b8 00000000 	 .word .LANCHOR0
 322 01bc 00000000 	 .word .LANCHOR1
 323 01c0 00000000 	 .word .LANCHOR2
 324 01c4 00000000 	 .word .LANCHOR3
 325 01c8 00000000 	 .word .LANCHOR4
 326 01cc 00000000 	 .word .LANCHOR5
 327 01d0 00000000 	 .word .LANCHOR6
 328 01d4 00000000 	 .word .LANCHOR7
 329 01d8 00000000 	 .word .LANCHOR8
 330 01dc 00000000 	 .word .LANCHOR9
 331 01e0 00000000 	 .word .LANCHOR10
 332              	 .cfi_endproc
 333              	.LFE0:
 335              	 .section .text.mbedtls_aes_init,"ax",%progbits
 336              	 .align 1
 337              	 .global mbedtls_aes_init
 338              	 .thumb
 339              	 .thumb_func
 341              	mbedtls_aes_init:
 342              	.LFB1:
 483:C:/Users/Yushev/git/optiga-trust-qi/externals/mbedtls/library\aes.c **** 
 484:C:/Users/Yushev/git/optiga-trust-qi/externals/mbedtls/library\aes.c **** #undef ROTL8
 485:C:/Users/Yushev/git/optiga-trust-qi/externals/mbedtls/library\aes.c **** 
 486:C:/Users/Yushev/git/optiga-trust-qi/externals/mbedtls/library\aes.c **** #endif /* MBEDTLS_AES_ROM_TABLES */
 487:C:/Users/Yushev/git/optiga-trust-qi/externals/mbedtls/library\aes.c **** 
 488:C:/Users/Yushev/git/optiga-trust-qi/externals/mbedtls/library\aes.c **** #if defined(MBEDTLS_AES_FEWER_TABLES)
 489:C:/Users/Yushev/git/optiga-trust-qi/externals/mbedtls/library\aes.c **** 
 490:C:/Users/Yushev/git/optiga-trust-qi/externals/mbedtls/library\aes.c **** #define ROTL8(x)  ( (uint32_t)( ( x ) <<  8 ) + (uint32_t)( ( x ) >> 24 ) )
 491:C:/Users/Yushev/git/optiga-trust-qi/externals/mbedtls/library\aes.c **** #define ROTL16(x) ( (uint32_t)( ( x ) << 16 ) + (uint32_t)( ( x ) >> 16 ) )
 492:C:/Users/Yushev/git/optiga-trust-qi/externals/mbedtls/library\aes.c **** #define ROTL24(x) ( (uint32_t)( ( x ) << 24 ) + (uint32_t)( ( x ) >>  8 ) )
 493:C:/Users/Yushev/git/optiga-trust-qi/externals/mbedtls/library\aes.c **** 
 494:C:/Users/Yushev/git/optiga-trust-qi/externals/mbedtls/library\aes.c **** #define AES_RT0(idx) RT0[idx]
 495:C:/Users/Yushev/git/optiga-trust-qi/externals/mbedtls/library\aes.c **** #define AES_RT1(idx) ROTL8(  RT0[idx] )
 496:C:/Users/Yushev/git/optiga-trust-qi/externals/mbedtls/library\aes.c **** #define AES_RT2(idx) ROTL16( RT0[idx] )
 497:C:/Users/Yushev/git/optiga-trust-qi/externals/mbedtls/library\aes.c **** #define AES_RT3(idx) ROTL24( RT0[idx] )
 498:C:/Users/Yushev/git/optiga-trust-qi/externals/mbedtls/library\aes.c **** 
 499:C:/Users/Yushev/git/optiga-trust-qi/externals/mbedtls/library\aes.c **** #define AES_FT0(idx) FT0[idx]
 500:C:/Users/Yushev/git/optiga-trust-qi/externals/mbedtls/library\aes.c **** #define AES_FT1(idx) ROTL8(  FT0[idx] )
 501:C:/Users/Yushev/git/optiga-trust-qi/externals/mbedtls/library\aes.c **** #define AES_FT2(idx) ROTL16( FT0[idx] )
 502:C:/Users/Yushev/git/optiga-trust-qi/externals/mbedtls/library\aes.c **** #define AES_FT3(idx) ROTL24( FT0[idx] )
 503:C:/Users/Yushev/git/optiga-trust-qi/externals/mbedtls/library\aes.c **** 
 504:C:/Users/Yushev/git/optiga-trust-qi/externals/mbedtls/library\aes.c **** #else /* MBEDTLS_AES_FEWER_TABLES */
 505:C:/Users/Yushev/git/optiga-trust-qi/externals/mbedtls/library\aes.c **** 
 506:C:/Users/Yushev/git/optiga-trust-qi/externals/mbedtls/library\aes.c **** #define AES_RT0(idx) RT0[idx]
 507:C:/Users/Yushev/git/optiga-trust-qi/externals/mbedtls/library\aes.c **** #define AES_RT1(idx) RT1[idx]
 508:C:/Users/Yushev/git/optiga-trust-qi/externals/mbedtls/library\aes.c **** #define AES_RT2(idx) RT2[idx]
 509:C:/Users/Yushev/git/optiga-trust-qi/externals/mbedtls/library\aes.c **** #define AES_RT3(idx) RT3[idx]
 510:C:/Users/Yushev/git/optiga-trust-qi/externals/mbedtls/library\aes.c **** 
 511:C:/Users/Yushev/git/optiga-trust-qi/externals/mbedtls/library\aes.c **** #define AES_FT0(idx) FT0[idx]
 512:C:/Users/Yushev/git/optiga-trust-qi/externals/mbedtls/library\aes.c **** #define AES_FT1(idx) FT1[idx]
 513:C:/Users/Yushev/git/optiga-trust-qi/externals/mbedtls/library\aes.c **** #define AES_FT2(idx) FT2[idx]
 514:C:/Users/Yushev/git/optiga-trust-qi/externals/mbedtls/library\aes.c **** #define AES_FT3(idx) FT3[idx]
 515:C:/Users/Yushev/git/optiga-trust-qi/externals/mbedtls/library\aes.c **** 
 516:C:/Users/Yushev/git/optiga-trust-qi/externals/mbedtls/library\aes.c **** #endif /* MBEDTLS_AES_FEWER_TABLES */
 517:C:/Users/Yushev/git/optiga-trust-qi/externals/mbedtls/library\aes.c **** 
 518:C:/Users/Yushev/git/optiga-trust-qi/externals/mbedtls/library\aes.c **** void mbedtls_aes_init( mbedtls_aes_context *ctx )
 519:C:/Users/Yushev/git/optiga-trust-qi/externals/mbedtls/library\aes.c **** {
 343              	 .loc 1 519 0
 344              	 .cfi_startproc
 345              	 
 346              	 
 347              	 
 348              	.LVL35:
 520:C:/Users/Yushev/git/optiga-trust-qi/externals/mbedtls/library\aes.c ****     AES_VALIDATE( ctx != NULL );
 521:C:/Users/Yushev/git/optiga-trust-qi/externals/mbedtls/library\aes.c **** 
 522:C:/Users/Yushev/git/optiga-trust-qi/externals/mbedtls/library\aes.c ****     memset( ctx, 0, sizeof( mbedtls_aes_context ) );
 349              	 .loc 1 522 0
 350 0000 0021     	 movs r1,#0
 351 0002 4FF48C72 	 mov r2,#280
 352 0006 FFF7FEBF 	 b memset
 353              	.LVL36:
 354              	 .cfi_endproc
 355              	.LFE1:
 357              	 .section .text.mbedtls_aes_free,"ax",%progbits
 358              	 .align 1
 359              	 .global mbedtls_aes_free
 360              	 .thumb
 361              	 .thumb_func
 363              	mbedtls_aes_free:
 364              	.LFB2:
 523:C:/Users/Yushev/git/optiga-trust-qi/externals/mbedtls/library\aes.c **** }
 524:C:/Users/Yushev/git/optiga-trust-qi/externals/mbedtls/library\aes.c **** 
 525:C:/Users/Yushev/git/optiga-trust-qi/externals/mbedtls/library\aes.c **** void mbedtls_aes_free( mbedtls_aes_context *ctx )
 526:C:/Users/Yushev/git/optiga-trust-qi/externals/mbedtls/library\aes.c **** {
 365              	 .loc 1 526 0
 366              	 .cfi_startproc
 367              	 
 368              	 
 369              	 
 370              	.LVL37:
 527:C:/Users/Yushev/git/optiga-trust-qi/externals/mbedtls/library\aes.c ****     if( ctx == NULL )
 371              	 .loc 1 527 0
 372 0000 18B1     	 cbz r0,.L26
 528:C:/Users/Yushev/git/optiga-trust-qi/externals/mbedtls/library\aes.c ****         return;
 529:C:/Users/Yushev/git/optiga-trust-qi/externals/mbedtls/library\aes.c **** 
 530:C:/Users/Yushev/git/optiga-trust-qi/externals/mbedtls/library\aes.c ****     mbedtls_platform_zeroize( ctx, sizeof( mbedtls_aes_context ) );
 373              	 .loc 1 530 0
 374 0002 4FF48C71 	 mov r1,#280
 375 0006 FFF7FEBF 	 b mbedtls_platform_zeroize
 376              	.LVL38:
 377              	.L26:
 378 000a 7047     	 bx lr
 379              	 .cfi_endproc
 380              	.LFE2:
 382              	 .section .text.mbedtls_aes_setkey_enc,"ax",%progbits
 383              	 .align 1
 384              	 .global mbedtls_aes_setkey_enc
 385              	 .thumb
 386              	 .thumb_func
 388              	mbedtls_aes_setkey_enc:
 389              	.LFB3:
 531:C:/Users/Yushev/git/optiga-trust-qi/externals/mbedtls/library\aes.c **** }
 532:C:/Users/Yushev/git/optiga-trust-qi/externals/mbedtls/library\aes.c **** 
 533:C:/Users/Yushev/git/optiga-trust-qi/externals/mbedtls/library\aes.c **** #if defined(MBEDTLS_CIPHER_MODE_XTS)
 534:C:/Users/Yushev/git/optiga-trust-qi/externals/mbedtls/library\aes.c **** void mbedtls_aes_xts_init( mbedtls_aes_xts_context *ctx )
 535:C:/Users/Yushev/git/optiga-trust-qi/externals/mbedtls/library\aes.c **** {
 536:C:/Users/Yushev/git/optiga-trust-qi/externals/mbedtls/library\aes.c ****     AES_VALIDATE( ctx != NULL );
 537:C:/Users/Yushev/git/optiga-trust-qi/externals/mbedtls/library\aes.c **** 
 538:C:/Users/Yushev/git/optiga-trust-qi/externals/mbedtls/library\aes.c ****     mbedtls_aes_init( &ctx->crypt );
 539:C:/Users/Yushev/git/optiga-trust-qi/externals/mbedtls/library\aes.c ****     mbedtls_aes_init( &ctx->tweak );
 540:C:/Users/Yushev/git/optiga-trust-qi/externals/mbedtls/library\aes.c **** }
 541:C:/Users/Yushev/git/optiga-trust-qi/externals/mbedtls/library\aes.c **** 
 542:C:/Users/Yushev/git/optiga-trust-qi/externals/mbedtls/library\aes.c **** void mbedtls_aes_xts_free( mbedtls_aes_xts_context *ctx )
 543:C:/Users/Yushev/git/optiga-trust-qi/externals/mbedtls/library\aes.c **** {
 544:C:/Users/Yushev/git/optiga-trust-qi/externals/mbedtls/library\aes.c ****     if( ctx == NULL )
 545:C:/Users/Yushev/git/optiga-trust-qi/externals/mbedtls/library\aes.c ****         return;
 546:C:/Users/Yushev/git/optiga-trust-qi/externals/mbedtls/library\aes.c **** 
 547:C:/Users/Yushev/git/optiga-trust-qi/externals/mbedtls/library\aes.c ****     mbedtls_aes_free( &ctx->crypt );
 548:C:/Users/Yushev/git/optiga-trust-qi/externals/mbedtls/library\aes.c ****     mbedtls_aes_free( &ctx->tweak );
 549:C:/Users/Yushev/git/optiga-trust-qi/externals/mbedtls/library\aes.c **** }
 550:C:/Users/Yushev/git/optiga-trust-qi/externals/mbedtls/library\aes.c **** #endif /* MBEDTLS_CIPHER_MODE_XTS */
 551:C:/Users/Yushev/git/optiga-trust-qi/externals/mbedtls/library\aes.c **** 
 552:C:/Users/Yushev/git/optiga-trust-qi/externals/mbedtls/library\aes.c **** /*
 553:C:/Users/Yushev/git/optiga-trust-qi/externals/mbedtls/library\aes.c ****  * AES key schedule (encryption)
 554:C:/Users/Yushev/git/optiga-trust-qi/externals/mbedtls/library\aes.c ****  */
 555:C:/Users/Yushev/git/optiga-trust-qi/externals/mbedtls/library\aes.c **** #if !defined(MBEDTLS_AES_SETKEY_ENC_ALT)
 556:C:/Users/Yushev/git/optiga-trust-qi/externals/mbedtls/library\aes.c **** int mbedtls_aes_setkey_enc( mbedtls_aes_context *ctx, const unsigned char *key,
 557:C:/Users/Yushev/git/optiga-trust-qi/externals/mbedtls/library\aes.c ****                     unsigned int keybits )
 558:C:/Users/Yushev/git/optiga-trust-qi/externals/mbedtls/library\aes.c **** {
 390              	 .loc 1 558 0
 391              	 .cfi_startproc
 392              	 
 393              	 
 394              	.LVL39:
 559:C:/Users/Yushev/git/optiga-trust-qi/externals/mbedtls/library\aes.c ****     unsigned int i;
 560:C:/Users/Yushev/git/optiga-trust-qi/externals/mbedtls/library\aes.c ****     uint32_t *RK;
 561:C:/Users/Yushev/git/optiga-trust-qi/externals/mbedtls/library\aes.c **** 
 562:C:/Users/Yushev/git/optiga-trust-qi/externals/mbedtls/library\aes.c ****     AES_VALIDATE_RET( ctx != NULL );
 563:C:/Users/Yushev/git/optiga-trust-qi/externals/mbedtls/library\aes.c ****     AES_VALIDATE_RET( key != NULL );
 564:C:/Users/Yushev/git/optiga-trust-qi/externals/mbedtls/library\aes.c **** 
 565:C:/Users/Yushev/git/optiga-trust-qi/externals/mbedtls/library\aes.c ****     switch( keybits )
 395              	 .loc 1 565 0
 396 0000 C02A     	 cmp r2,#192
 558:C:/Users/Yushev/git/optiga-trust-qi/externals/mbedtls/library\aes.c ****     unsigned int i;
 397              	 .loc 1 558 0
 398 0002 F8B5     	 push {r3,r4,r5,r6,r7,lr}
 399              	.LCFI3:
 400              	 .cfi_def_cfa_offset 24
 401              	 .cfi_offset 3,-24
 402              	 .cfi_offset 4,-20
 403              	 .cfi_offset 5,-16
 404              	 .cfi_offset 6,-12
 405              	 .cfi_offset 7,-8
 406              	 .cfi_offset 14,-4
 558:C:/Users/Yushev/git/optiga-trust-qi/externals/mbedtls/library\aes.c ****     unsigned int i;
 407              	 .loc 1 558 0
 408 0004 0446     	 mov r4,r0
 409 0006 0F46     	 mov r7,r1
 410 0008 1546     	 mov r5,r2
 411              	 .loc 1 565 0
 412 000a 07D0     	 beq .L30
 413 000c B2F5807F 	 cmp r2,#256
 414 0010 06D0     	 beq .L31
 415 0012 802A     	 cmp r2,#128
 416 0014 40F0E280 	 bne .L49
 566:C:/Users/Yushev/git/optiga-trust-qi/externals/mbedtls/library\aes.c ****     {
 567:C:/Users/Yushev/git/optiga-trust-qi/externals/mbedtls/library\aes.c ****         case 128: ctx->nr = 10; break;
 417              	 .loc 1 567 0
 418 0018 0A23     	 movs r3,#10
 419 001a 02E0     	 b .L51
 420              	.L30:
 568:C:/Users/Yushev/git/optiga-trust-qi/externals/mbedtls/library\aes.c ****         case 192: ctx->nr = 12; break;
 421              	 .loc 1 568 0
 422 001c 0C23     	 movs r3,#12
 423 001e 00E0     	 b .L51
 424              	.L31:
 569:C:/Users/Yushev/git/optiga-trust-qi/externals/mbedtls/library\aes.c ****         case 256: ctx->nr = 14; break;
 425              	 .loc 1 569 0
 426 0020 0E23     	 movs r3,#14
 427              	.L51:
 570:C:/Users/Yushev/git/optiga-trust-qi/externals/mbedtls/library\aes.c ****         default : return( MBEDTLS_ERR_AES_INVALID_KEY_LENGTH );
 571:C:/Users/Yushev/git/optiga-trust-qi/externals/mbedtls/library\aes.c ****     }
 572:C:/Users/Yushev/git/optiga-trust-qi/externals/mbedtls/library\aes.c **** 
 573:C:/Users/Yushev/git/optiga-trust-qi/externals/mbedtls/library\aes.c **** #if !defined(MBEDTLS_AES_ROM_TABLES)
 574:C:/Users/Yushev/git/optiga-trust-qi/externals/mbedtls/library\aes.c ****     if( aes_init_done == 0 )
 428              	 .loc 1 574 0
 429 0022 714E     	 ldr r6,.L53
 569:C:/Users/Yushev/git/optiga-trust-qi/externals/mbedtls/library\aes.c ****         case 256: ctx->nr = 14; break;
 430              	 .loc 1 569 0
 431 0024 2360     	 str r3,[r4]
 432              	 .loc 1 574 0
 433 0026 3368     	 ldr r3,[r6]
 434 0028 1BB9     	 cbnz r3,.L34
 575:C:/Users/Yushev/git/optiga-trust-qi/externals/mbedtls/library\aes.c ****     {
 576:C:/Users/Yushev/git/optiga-trust-qi/externals/mbedtls/library\aes.c ****         aes_gen_tables();
 435              	 .loc 1 576 0
 436 002a FFF7FEFF 	 bl aes_gen_tables
 437              	.LVL40:
 577:C:/Users/Yushev/git/optiga-trust-qi/externals/mbedtls/library\aes.c ****         aes_init_done = 1;
 438              	 .loc 1 577 0
 439 002e 0123     	 movs r3,#1
 440 0030 3360     	 str r3,[r6]
 441              	.L34:
 578:C:/Users/Yushev/git/optiga-trust-qi/externals/mbedtls/library\aes.c ****     }
 579:C:/Users/Yushev/git/optiga-trust-qi/externals/mbedtls/library\aes.c **** #endif
 580:C:/Users/Yushev/git/optiga-trust-qi/externals/mbedtls/library\aes.c **** 
 581:C:/Users/Yushev/git/optiga-trust-qi/externals/mbedtls/library\aes.c **** #if defined(MBEDTLS_PADLOCK_C) && defined(MBEDTLS_PADLOCK_ALIGN16)
 582:C:/Users/Yushev/git/optiga-trust-qi/externals/mbedtls/library\aes.c ****     if( aes_padlock_ace == -1 )
 583:C:/Users/Yushev/git/optiga-trust-qi/externals/mbedtls/library\aes.c ****         aes_padlock_ace = mbedtls_padlock_has_support( MBEDTLS_PADLOCK_ACE );
 584:C:/Users/Yushev/git/optiga-trust-qi/externals/mbedtls/library\aes.c **** 
 585:C:/Users/Yushev/git/optiga-trust-qi/externals/mbedtls/library\aes.c ****     if( aes_padlock_ace )
 586:C:/Users/Yushev/git/optiga-trust-qi/externals/mbedtls/library\aes.c ****         ctx->rk = RK = MBEDTLS_PADLOCK_ALIGN16( ctx->buf );
 587:C:/Users/Yushev/git/optiga-trust-qi/externals/mbedtls/library\aes.c ****     else
 588:C:/Users/Yushev/git/optiga-trust-qi/externals/mbedtls/library\aes.c **** #endif
 589:C:/Users/Yushev/git/optiga-trust-qi/externals/mbedtls/library\aes.c ****     ctx->rk = RK = ctx->buf;
 442              	 .loc 1 589 0
 443 0032 04F10803 	 add r3,r4,#8
 444              	.LVL41:
 445 0036 6360     	 str r3,[r4,#4]
 446              	.LVL42:
 590:C:/Users/Yushev/git/optiga-trust-qi/externals/mbedtls/library\aes.c **** 
 591:C:/Users/Yushev/git/optiga-trust-qi/externals/mbedtls/library\aes.c **** #if defined(MBEDTLS_AESNI_C) && defined(MBEDTLS_HAVE_X86_64)
 592:C:/Users/Yushev/git/optiga-trust-qi/externals/mbedtls/library\aes.c ****     if( mbedtls_aesni_has_support( MBEDTLS_AESNI_AES ) )
 593:C:/Users/Yushev/git/optiga-trust-qi/externals/mbedtls/library\aes.c ****         return( mbedtls_aesni_setkey_enc( (unsigned char *) ctx->rk, key, keybits ) );
 594:C:/Users/Yushev/git/optiga-trust-qi/externals/mbedtls/library\aes.c **** #endif
 595:C:/Users/Yushev/git/optiga-trust-qi/externals/mbedtls/library\aes.c **** 
 596:C:/Users/Yushev/git/optiga-trust-qi/externals/mbedtls/library\aes.c ****     for( i = 0; i < ( keybits >> 5 ); i++ )
 447              	 .loc 1 596 0
 448 0038 6D09     	 lsrs r5,r5,#5
 449              	.LVL43:
 450 003a 0022     	 movs r2,#0
 451              	.LVL44:
 452              	.L35:
 453              	 .loc 1 596 0 is_stmt 0 discriminator 1
 454 003c AA42     	 cmp r2,r5
 455 003e 10D0     	 beq .L52
 597:C:/Users/Yushev/git/optiga-trust-qi/externals/mbedtls/library\aes.c ****     {
 598:C:/Users/Yushev/git/optiga-trust-qi/externals/mbedtls/library\aes.c ****         GET_UINT32_LE( RK[i], key, i << 2 );
 456              	 .loc 1 598 0 is_stmt 1 discriminator 3
 457 0040 07EB8201 	 add r1,r7,r2,lsl#2
 458 0044 8878     	 ldrb r0,[r1,#2]
 459 0046 4E78     	 ldrb r6,[r1,#1]
 460 0048 C978     	 ldrb r1,[r1,#3]
 461 004a 0004     	 lsls r0,r0,#16
 462 004c 40EA0620 	 orr r0,r0,r6,lsl#8
 463 0050 17F82260 	 ldrb r6,[r7,r2,lsl#2]
 464 0054 3043     	 orrs r0,r0,r6
 465 0056 40EA0160 	 orr r0,r0,r1,lsl#24
 466 005a 43F82200 	 str r0,[r3,r2,lsl#2]
 596:C:/Users/Yushev/git/optiga-trust-qi/externals/mbedtls/library\aes.c ****     {
 467              	 .loc 1 596 0 discriminator 3
 468 005e 0132     	 adds r2,r2,#1
 469              	.LVL45:
 470 0060 ECE7     	 b .L35
 471              	.L52:
 599:C:/Users/Yushev/git/optiga-trust-qi/externals/mbedtls/library\aes.c ****     }
 600:C:/Users/Yushev/git/optiga-trust-qi/externals/mbedtls/library\aes.c **** 
 601:C:/Users/Yushev/git/optiga-trust-qi/externals/mbedtls/library\aes.c ****     switch( ctx->nr )
 472              	 .loc 1 601 0
 473 0062 2268     	 ldr r2,[r4]
 474              	.LVL46:
 475 0064 0C2A     	 cmp r2,#12
 476 0066 31D0     	 beq .L37
 477 0068 0E2A     	 cmp r2,#14
 478 006a 66D0     	 beq .L38
 479 006c 0A2A     	 cmp r2,#10
 480 006e 40F0B880 	 bne .L50
 481              	 .loc 1 601 0 is_stmt 0 discriminator 3
 482 0072 0025     	 movs r5,#0
 483              	.LVL47:
 484              	.L40:
 602:C:/Users/Yushev/git/optiga-trust-qi/externals/mbedtls/library\aes.c ****     {
 603:C:/Users/Yushev/git/optiga-trust-qi/externals/mbedtls/library\aes.c ****         case 10:
 604:C:/Users/Yushev/git/optiga-trust-qi/externals/mbedtls/library\aes.c **** 
 605:C:/Users/Yushev/git/optiga-trust-qi/externals/mbedtls/library\aes.c ****             for( i = 0; i < 10; i++, RK += 4 )
 606:C:/Users/Yushev/git/optiga-trust-qi/externals/mbedtls/library\aes.c ****             {
 607:C:/Users/Yushev/git/optiga-trust-qi/externals/mbedtls/library\aes.c ****                 RK[4]  = RK[0] ^ RCON[i] ^
 485              	 .loc 1 607 0 is_stmt 1 discriminator 3
 486 0074 5D4A     	 ldr r2,.L53+4
 608:C:/Users/Yushev/git/optiga-trust-qi/externals/mbedtls/library\aes.c ****                 ( (uint32_t) FSb[ ( RK[3] >>  8 ) & 0xFF ]       ) ^
 487              	 .loc 1 608 0 discriminator 3
 488 0076 DC68     	 ldr r4,[r3,#12]
 489 0078 52F82510 	 ldr r1,[r2,r5,lsl#2]
 490 007c 1A68     	 ldr r2,[r3]
 491 007e 5C4E     	 ldr r6,.L53+8
 492 0080 5140     	 eors r1,r1,r2
 493 0082 C4F30722 	 ubfx r2,r4,#8,#8
 605:C:/Users/Yushev/git/optiga-trust-qi/externals/mbedtls/library\aes.c ****             {
 494              	 .loc 1 605 0 discriminator 3
 495 0086 0135     	 adds r5,r5,#1
 496              	.LVL48:
 497              	 .loc 1 608 0 discriminator 3
 498 0088 B05C     	 ldrb r0,[r6,r2]
 609:C:/Users/Yushev/git/optiga-trust-qi/externals/mbedtls/library\aes.c ****                 ( (uint32_t) FSb[ ( RK[3] >> 16 ) & 0xFF ] <<  8 ) ^
 610:C:/Users/Yushev/git/optiga-trust-qi/externals/mbedtls/library\aes.c ****                 ( (uint32_t) FSb[ ( RK[3] >> 24 ) & 0xFF ] << 16 ) ^
 499              	 .loc 1 610 0 discriminator 3
 500 008a 220E     	 lsrs r2,r4,#24
 501 008c 4140     	 eors r1,r1,r0
 502 008e B25C     	 ldrb r2,[r6,r2]
 503 0090 81EA0241 	 eor r1,r1,r2,lsl#16
 611:C:/Users/Yushev/git/optiga-trust-qi/externals/mbedtls/library\aes.c ****                 ( (uint32_t) FSb[ ( RK[3]       ) & 0xFF ] << 24 );
 504              	 .loc 1 611 0 discriminator 3
 505 0094 E2B2     	 uxtb r2,r4
 605:C:/Users/Yushev/git/optiga-trust-qi/externals/mbedtls/library\aes.c ****             {
 506              	 .loc 1 605 0 discriminator 3
 507 0096 0A2D     	 cmp r5,#10
 508              	 .loc 1 611 0 discriminator 3
 509 0098 B25C     	 ldrb r2,[r6,r2]
 510 009a 81EA0261 	 eor r1,r1,r2,lsl#24
 609:C:/Users/Yushev/git/optiga-trust-qi/externals/mbedtls/library\aes.c ****                 ( (uint32_t) FSb[ ( RK[3] >> 16 ) & 0xFF ] <<  8 ) ^
 511              	 .loc 1 609 0 discriminator 3
 512 009e C4F30742 	 ubfx r2,r4,#16,#8
 605:C:/Users/Yushev/git/optiga-trust-qi/externals/mbedtls/library\aes.c ****             {
 513              	 .loc 1 605 0 discriminator 3
 514 00a2 03F11003 	 add r3,r3,#16
 515              	.LVL49:
 609:C:/Users/Yushev/git/optiga-trust-qi/externals/mbedtls/library\aes.c ****                 ( (uint32_t) FSb[ ( RK[3] >> 16 ) & 0xFF ] <<  8 ) ^
 516              	 .loc 1 609 0 discriminator 3
 517 00a6 B25C     	 ldrb r2,[r6,r2]
 610:C:/Users/Yushev/git/optiga-trust-qi/externals/mbedtls/library\aes.c ****                 ( (uint32_t) FSb[ ( RK[3]       ) & 0xFF ] << 24 );
 518              	 .loc 1 610 0 discriminator 3
 519 00a8 81EA0222 	 eor r2,r1,r2,lsl#8
 612:C:/Users/Yushev/git/optiga-trust-qi/externals/mbedtls/library\aes.c **** 
 613:C:/Users/Yushev/git/optiga-trust-qi/externals/mbedtls/library\aes.c ****                 RK[5]  = RK[1] ^ RK[4];
 520              	 .loc 1 613 0 discriminator 3
 521 00ac 53F80C1C 	 ldr r1,[r3,#-12]
 607:C:/Users/Yushev/git/optiga-trust-qi/externals/mbedtls/library\aes.c ****                 ( (uint32_t) FSb[ ( RK[3] >>  8 ) & 0xFF ]       ) ^
 522              	 .loc 1 607 0 discriminator 3
 523 00b0 1A60     	 str r2,[r3]
 524              	 .loc 1 613 0 discriminator 3
 525 00b2 82EA0102 	 eor r2,r2,r1
 614:C:/Users/Yushev/git/optiga-trust-qi/externals/mbedtls/library\aes.c ****                 RK[6]  = RK[2] ^ RK[5];
 526              	 .loc 1 614 0 discriminator 3
 527 00b6 53F8081C 	 ldr r1,[r3,#-8]
 613:C:/Users/Yushev/git/optiga-trust-qi/externals/mbedtls/library\aes.c ****                 RK[6]  = RK[2] ^ RK[5];
 528              	 .loc 1 613 0 discriminator 3
 529 00ba 5A60     	 str r2,[r3,#4]
 530              	 .loc 1 614 0 discriminator 3
 531 00bc 82EA0102 	 eor r2,r2,r1
 615:C:/Users/Yushev/git/optiga-trust-qi/externals/mbedtls/library\aes.c ****                 RK[7]  = RK[3] ^ RK[6];
 532              	 .loc 1 615 0 discriminator 3
 533 00c0 84EA0204 	 eor r4,r4,r2
 614:C:/Users/Yushev/git/optiga-trust-qi/externals/mbedtls/library\aes.c ****                 RK[6]  = RK[2] ^ RK[5];
 534              	 .loc 1 614 0 discriminator 3
 535 00c4 9A60     	 str r2,[r3,#8]
 536              	 .loc 1 615 0 discriminator 3
 537 00c6 DC60     	 str r4,[r3,#12]
 538              	.LVL50:
 605:C:/Users/Yushev/git/optiga-trust-qi/externals/mbedtls/library\aes.c ****             {
 539              	 .loc 1 605 0 discriminator 3
 540 00c8 D4D1     	 bne .L40
 541 00ca 8AE0     	 b .L50
 542              	.LVL51:
 543              	.L37:
 601:C:/Users/Yushev/git/optiga-trust-qi/externals/mbedtls/library\aes.c ****     {
 544              	 .loc 1 601 0 discriminator 3
 545 00cc 0024     	 movs r4,#0
 546              	.LVL52:
 547              	.L41:
 616:C:/Users/Yushev/git/optiga-trust-qi/externals/mbedtls/library\aes.c ****             }
 617:C:/Users/Yushev/git/optiga-trust-qi/externals/mbedtls/library\aes.c ****             break;
 618:C:/Users/Yushev/git/optiga-trust-qi/externals/mbedtls/library\aes.c **** 
 619:C:/Users/Yushev/git/optiga-trust-qi/externals/mbedtls/library\aes.c ****         case 12:
 620:C:/Users/Yushev/git/optiga-trust-qi/externals/mbedtls/library\aes.c **** 
 621:C:/Users/Yushev/git/optiga-trust-qi/externals/mbedtls/library\aes.c ****             for( i = 0; i < 8; i++, RK += 6 )
 622:C:/Users/Yushev/git/optiga-trust-qi/externals/mbedtls/library\aes.c ****             {
 623:C:/Users/Yushev/git/optiga-trust-qi/externals/mbedtls/library\aes.c ****                 RK[6]  = RK[0] ^ RCON[i] ^
 548              	 .loc 1 623 0 discriminator 3
 549 00ce 474A     	 ldr r2,.L53+4
 624:C:/Users/Yushev/git/optiga-trust-qi/externals/mbedtls/library\aes.c ****                 ( (uint32_t) FSb[ ( RK[5] >>  8 ) & 0xFF ]       ) ^
 550              	 .loc 1 624 0 discriminator 3
 551 00d0 5869     	 ldr r0,[r3,#20]
 552 00d2 52F82410 	 ldr r1,[r2,r4,lsl#2]
 553 00d6 1A68     	 ldr r2,[r3]
 554 00d8 454D     	 ldr r5,.L53+8
 555 00da 4A40     	 eors r2,r2,r1
 556 00dc C0F30721 	 ubfx r1,r0,#8,#8
 621:C:/Users/Yushev/git/optiga-trust-qi/externals/mbedtls/library\aes.c ****             {
 557              	 .loc 1 621 0 discriminator 3
 558 00e0 0134     	 adds r4,r4,#1
 559              	.LVL53:
 560              	 .loc 1 624 0 discriminator 3
 561 00e2 695C     	 ldrb r1,[r5,r1]
 562 00e4 4A40     	 eors r2,r2,r1
 625:C:/Users/Yushev/git/optiga-trust-qi/externals/mbedtls/library\aes.c ****                 ( (uint32_t) FSb[ ( RK[5] >> 16 ) & 0xFF ] <<  8 ) ^
 626:C:/Users/Yushev/git/optiga-trust-qi/externals/mbedtls/library\aes.c ****                 ( (uint32_t) FSb[ ( RK[5] >> 24 ) & 0xFF ] << 16 ) ^
 563              	 .loc 1 626 0 discriminator 3
 564 00e6 010E     	 lsrs r1,r0,#24
 621:C:/Users/Yushev/git/optiga-trust-qi/externals/mbedtls/library\aes.c ****             {
 565              	 .loc 1 621 0 discriminator 3
 566 00e8 082C     	 cmp r4,#8
 567              	 .loc 1 626 0 discriminator 3
 568 00ea 695C     	 ldrb r1,[r5,r1]
 569 00ec 82EA0142 	 eor r2,r2,r1,lsl#16
 627:C:/Users/Yushev/git/optiga-trust-qi/externals/mbedtls/library\aes.c ****                 ( (uint32_t) FSb[ ( RK[5]       ) & 0xFF ] << 24 );
 570              	 .loc 1 627 0 discriminator 3
 571 00f0 C1B2     	 uxtb r1,r0
 621:C:/Users/Yushev/git/optiga-trust-qi/externals/mbedtls/library\aes.c ****             {
 572              	 .loc 1 621 0 discriminator 3
 573 00f2 03F11803 	 add r3,r3,#24
 574              	.LVL54:
 575              	 .loc 1 627 0 discriminator 3
 576 00f6 695C     	 ldrb r1,[r5,r1]
 577 00f8 82EA0162 	 eor r2,r2,r1,lsl#24
 625:C:/Users/Yushev/git/optiga-trust-qi/externals/mbedtls/library\aes.c ****                 ( (uint32_t) FSb[ ( RK[5] >> 16 ) & 0xFF ] <<  8 ) ^
 578              	 .loc 1 625 0 discriminator 3
 579 00fc C0F30741 	 ubfx r1,r0,#16,#8
 580 0100 695C     	 ldrb r1,[r5,r1]
 626:C:/Users/Yushev/git/optiga-trust-qi/externals/mbedtls/library\aes.c ****                 ( (uint32_t) FSb[ ( RK[5]       ) & 0xFF ] << 24 );
 581              	 .loc 1 626 0 discriminator 3
 582 0102 82EA0122 	 eor r2,r2,r1,lsl#8
 628:C:/Users/Yushev/git/optiga-trust-qi/externals/mbedtls/library\aes.c **** 
 629:C:/Users/Yushev/git/optiga-trust-qi/externals/mbedtls/library\aes.c ****                 RK[7]  = RK[1] ^ RK[6];
 583              	 .loc 1 629 0 discriminator 3
 584 0106 53F8141C 	 ldr r1,[r3,#-20]
 623:C:/Users/Yushev/git/optiga-trust-qi/externals/mbedtls/library\aes.c ****                 ( (uint32_t) FSb[ ( RK[5] >>  8 ) & 0xFF ]       ) ^
 585              	 .loc 1 623 0 discriminator 3
 586 010a 1A60     	 str r2,[r3]
 587              	 .loc 1 629 0 discriminator 3
 588 010c 82EA0102 	 eor r2,r2,r1
 630:C:/Users/Yushev/git/optiga-trust-qi/externals/mbedtls/library\aes.c ****                 RK[8]  = RK[2] ^ RK[7];
 589              	 .loc 1 630 0 discriminator 3
 590 0110 53F8101C 	 ldr r1,[r3,#-16]
 629:C:/Users/Yushev/git/optiga-trust-qi/externals/mbedtls/library\aes.c ****                 RK[8]  = RK[2] ^ RK[7];
 591              	 .loc 1 629 0 discriminator 3
 592 0114 5A60     	 str r2,[r3,#4]
 593              	 .loc 1 630 0 discriminator 3
 594 0116 82EA0102 	 eor r2,r2,r1
 631:C:/Users/Yushev/git/optiga-trust-qi/externals/mbedtls/library\aes.c ****                 RK[9]  = RK[3] ^ RK[8];
 595              	 .loc 1 631 0 discriminator 3
 596 011a 53F80C1C 	 ldr r1,[r3,#-12]
 630:C:/Users/Yushev/git/optiga-trust-qi/externals/mbedtls/library\aes.c ****                 RK[8]  = RK[2] ^ RK[7];
 597              	 .loc 1 630 0 discriminator 3
 598 011e 9A60     	 str r2,[r3,#8]
 599              	 .loc 1 631 0 discriminator 3
 600 0120 82EA0102 	 eor r2,r2,r1
 632:C:/Users/Yushev/git/optiga-trust-qi/externals/mbedtls/library\aes.c ****                 RK[10] = RK[4] ^ RK[9];
 601              	 .loc 1 632 0 discriminator 3
 602 0124 53F8081C 	 ldr r1,[r3,#-8]
 631:C:/Users/Yushev/git/optiga-trust-qi/externals/mbedtls/library\aes.c ****                 RK[9]  = RK[3] ^ RK[8];
 603              	 .loc 1 631 0 discriminator 3
 604 0128 DA60     	 str r2,[r3,#12]
 605              	 .loc 1 632 0 discriminator 3
 606 012a 82EA0102 	 eor r2,r2,r1
 633:C:/Users/Yushev/git/optiga-trust-qi/externals/mbedtls/library\aes.c ****                 RK[11] = RK[5] ^ RK[10];
 607              	 .loc 1 633 0 discriminator 3
 608 012e 80EA0200 	 eor r0,r0,r2
 632:C:/Users/Yushev/git/optiga-trust-qi/externals/mbedtls/library\aes.c ****                 RK[10] = RK[4] ^ RK[9];
 609              	 .loc 1 632 0 discriminator 3
 610 0132 1A61     	 str r2,[r3,#16]
 611              	 .loc 1 633 0 discriminator 3
 612 0134 5861     	 str r0,[r3,#20]
 613              	.LVL55:
 621:C:/Users/Yushev/git/optiga-trust-qi/externals/mbedtls/library\aes.c ****             {
 614              	 .loc 1 621 0 discriminator 3
 615 0136 CAD1     	 bne .L41
 616 0138 53E0     	 b .L50
 617              	.LVL56:
 618              	.L38:
 601:C:/Users/Yushev/git/optiga-trust-qi/externals/mbedtls/library\aes.c ****     {
 619              	 .loc 1 601 0 discriminator 3
 620 013a 0025     	 movs r5,#0
 621              	.LVL57:
 622              	.L43:
 634:C:/Users/Yushev/git/optiga-trust-qi/externals/mbedtls/library\aes.c ****             }
 635:C:/Users/Yushev/git/optiga-trust-qi/externals/mbedtls/library\aes.c ****             break;
 636:C:/Users/Yushev/git/optiga-trust-qi/externals/mbedtls/library\aes.c **** 
 637:C:/Users/Yushev/git/optiga-trust-qi/externals/mbedtls/library\aes.c ****         case 14:
 638:C:/Users/Yushev/git/optiga-trust-qi/externals/mbedtls/library\aes.c **** 
 639:C:/Users/Yushev/git/optiga-trust-qi/externals/mbedtls/library\aes.c ****             for( i = 0; i < 7; i++, RK += 8 )
 640:C:/Users/Yushev/git/optiga-trust-qi/externals/mbedtls/library\aes.c ****             {
 641:C:/Users/Yushev/git/optiga-trust-qi/externals/mbedtls/library\aes.c ****                 RK[8]  = RK[0] ^ RCON[i] ^
 623              	 .loc 1 641 0 discriminator 3
 624 013c 2B4A     	 ldr r2,.L53+4
 642:C:/Users/Yushev/git/optiga-trust-qi/externals/mbedtls/library\aes.c ****                 ( (uint32_t) FSb[ ( RK[7] >>  8 ) & 0xFF ]       ) ^
 625              	 .loc 1 642 0 discriminator 3
 626 013e DC69     	 ldr r4,[r3,#28]
 627 0140 52F82510 	 ldr r1,[r2,r5,lsl#2]
 628 0144 1A68     	 ldr r2,[r3]
 629 0146 2A4E     	 ldr r6,.L53+8
 630 0148 5140     	 eors r1,r1,r2
 631 014a C4F30722 	 ubfx r2,r4,#8,#8
 639:C:/Users/Yushev/git/optiga-trust-qi/externals/mbedtls/library\aes.c ****             {
 632              	 .loc 1 639 0 discriminator 3
 633 014e 0135     	 adds r5,r5,#1
 634              	.LVL58:
 635              	 .loc 1 642 0 discriminator 3
 636 0150 B05C     	 ldrb r0,[r6,r2]
 643:C:/Users/Yushev/git/optiga-trust-qi/externals/mbedtls/library\aes.c ****                 ( (uint32_t) FSb[ ( RK[7] >> 16 ) & 0xFF ] <<  8 ) ^
 644:C:/Users/Yushev/git/optiga-trust-qi/externals/mbedtls/library\aes.c ****                 ( (uint32_t) FSb[ ( RK[7] >> 24 ) & 0xFF ] << 16 ) ^
 637              	 .loc 1 644 0 discriminator 3
 638 0152 220E     	 lsrs r2,r4,#24
 639 0154 4140     	 eors r1,r1,r0
 640 0156 B25C     	 ldrb r2,[r6,r2]
 645:C:/Users/Yushev/git/optiga-trust-qi/externals/mbedtls/library\aes.c ****                 ( (uint32_t) FSb[ ( RK[7]       ) & 0xFF ] << 24 );
 646:C:/Users/Yushev/git/optiga-trust-qi/externals/mbedtls/library\aes.c **** 
 647:C:/Users/Yushev/git/optiga-trust-qi/externals/mbedtls/library\aes.c ****                 RK[9]  = RK[1] ^ RK[8];
 641              	 .loc 1 647 0 discriminator 3
 642 0158 5868     	 ldr r0,[r3,#4]
 643 015a 81EA0241 	 eor r1,r1,r2,lsl#16
 645:C:/Users/Yushev/git/optiga-trust-qi/externals/mbedtls/library\aes.c ****                 ( (uint32_t) FSb[ ( RK[7]       ) & 0xFF ] << 24 );
 644              	 .loc 1 645 0 discriminator 3
 645 015e E2B2     	 uxtb r2,r4
 639:C:/Users/Yushev/git/optiga-trust-qi/externals/mbedtls/library\aes.c ****             {
 646              	 .loc 1 639 0 discriminator 3
 647 0160 072D     	 cmp r5,#7
 645:C:/Users/Yushev/git/optiga-trust-qi/externals/mbedtls/library\aes.c ****                 ( (uint32_t) FSb[ ( RK[7]       ) & 0xFF ] << 24 );
 648              	 .loc 1 645 0 discriminator 3
 649 0162 B25C     	 ldrb r2,[r6,r2]
 650 0164 81EA0261 	 eor r1,r1,r2,lsl#24
 643:C:/Users/Yushev/git/optiga-trust-qi/externals/mbedtls/library\aes.c ****                 ( (uint32_t) FSb[ ( RK[7] >> 16 ) & 0xFF ] <<  8 ) ^
 651              	 .loc 1 643 0 discriminator 3
 652 0168 C4F30742 	 ubfx r2,r4,#16,#8
 639:C:/Users/Yushev/git/optiga-trust-qi/externals/mbedtls/library\aes.c ****             {
 653              	 .loc 1 639 0 discriminator 3
 654 016c 03F12003 	 add r3,r3,#32
 655              	.LVL59:
 643:C:/Users/Yushev/git/optiga-trust-qi/externals/mbedtls/library\aes.c ****                 ( (uint32_t) FSb[ ( RK[7] >> 16 ) & 0xFF ] <<  8 ) ^
 656              	 .loc 1 643 0 discriminator 3
 657 0170 B25C     	 ldrb r2,[r6,r2]
 644:C:/Users/Yushev/git/optiga-trust-qi/externals/mbedtls/library\aes.c ****                 ( (uint32_t) FSb[ ( RK[7]       ) & 0xFF ] << 24 );
 658              	 .loc 1 644 0 discriminator 3
 659 0172 81EA0221 	 eor r1,r1,r2,lsl#8
 648:C:/Users/Yushev/git/optiga-trust-qi/externals/mbedtls/library\aes.c ****                 RK[10] = RK[2] ^ RK[9];
 660              	 .loc 1 648 0 discriminator 3
 661 0176 53F8182C 	 ldr r2,[r3,#-24]
 641:C:/Users/Yushev/git/optiga-trust-qi/externals/mbedtls/library\aes.c ****                 ( (uint32_t) FSb[ ( RK[7] >>  8 ) & 0xFF ]       ) ^
 662              	 .loc 1 641 0 discriminator 3
 663 017a 1960     	 str r1,[r3]
 647:C:/Users/Yushev/git/optiga-trust-qi/externals/mbedtls/library\aes.c ****                 RK[10] = RK[2] ^ RK[9];
 664              	 .loc 1 647 0 discriminator 3
 665 017c 81EA0001 	 eor r1,r1,r0
 649:C:/Users/Yushev/git/optiga-trust-qi/externals/mbedtls/library\aes.c ****                 RK[11] = RK[3] ^ RK[10];
 666              	 .loc 1 649 0 discriminator 3
 667 0180 53F8140C 	 ldr r0,[r3,#-20]
 647:C:/Users/Yushev/git/optiga-trust-qi/externals/mbedtls/library\aes.c ****                 RK[10] = RK[2] ^ RK[9];
 668              	 .loc 1 647 0 discriminator 3
 669 0184 5960     	 str r1,[r3,#4]
 648:C:/Users/Yushev/git/optiga-trust-qi/externals/mbedtls/library\aes.c ****                 RK[11] = RK[3] ^ RK[10];
 670              	 .loc 1 648 0 discriminator 3
 671 0186 81EA0201 	 eor r1,r1,r2
 672              	 .loc 1 649 0 discriminator 3
 673 018a 80EA0100 	 eor r0,r0,r1
 650:C:/Users/Yushev/git/optiga-trust-qi/externals/mbedtls/library\aes.c **** 
 651:C:/Users/Yushev/git/optiga-trust-qi/externals/mbedtls/library\aes.c ****                 RK[12] = RK[4] ^
 652:C:/Users/Yushev/git/optiga-trust-qi/externals/mbedtls/library\aes.c ****                 ( (uint32_t) FSb[ ( RK[11]       ) & 0xFF ]       ) ^
 674              	 .loc 1 652 0 discriminator 3
 675 018e C2B2     	 uxtb r2,r0
 648:C:/Users/Yushev/git/optiga-trust-qi/externals/mbedtls/library\aes.c ****                 RK[11] = RK[3] ^ RK[10];
 676              	 .loc 1 648 0 discriminator 3
 677 0190 9960     	 str r1,[r3,#8]
 649:C:/Users/Yushev/git/optiga-trust-qi/externals/mbedtls/library\aes.c **** 
 678              	 .loc 1 649 0 discriminator 3
 679 0192 D860     	 str r0,[r3,#12]
 680              	 .loc 1 652 0 discriminator 3
 681 0194 B25C     	 ldrb r2,[r6,r2]
 682 0196 53F8101C 	 ldr r1,[r3,#-16]
 683 019a 81EA0201 	 eor r1,r1,r2
 653:C:/Users/Yushev/git/optiga-trust-qi/externals/mbedtls/library\aes.c ****                 ( (uint32_t) FSb[ ( RK[11] >>  8 ) & 0xFF ] <<  8 ) ^
 654:C:/Users/Yushev/git/optiga-trust-qi/externals/mbedtls/library\aes.c ****                 ( (uint32_t) FSb[ ( RK[11] >> 16 ) & 0xFF ] << 16 ) ^
 655:C:/Users/Yushev/git/optiga-trust-qi/externals/mbedtls/library\aes.c ****                 ( (uint32_t) FSb[ ( RK[11] >> 24 ) & 0xFF ] << 24 );
 684              	 .loc 1 655 0 discriminator 3
 685 019e 4FEA1062 	 lsr r2,r0,#24
 686 01a2 B25C     	 ldrb r2,[r6,r2]
 687 01a4 81EA0261 	 eor r1,r1,r2,lsl#24
 653:C:/Users/Yushev/git/optiga-trust-qi/externals/mbedtls/library\aes.c ****                 ( (uint32_t) FSb[ ( RK[11] >>  8 ) & 0xFF ] <<  8 ) ^
 688              	 .loc 1 653 0 discriminator 3
 689 01a8 C0F30722 	 ubfx r2,r0,#8,#8
 654:C:/Users/Yushev/git/optiga-trust-qi/externals/mbedtls/library\aes.c ****                 ( (uint32_t) FSb[ ( RK[11] >> 24 ) & 0xFF ] << 24 );
 690              	 .loc 1 654 0 discriminator 3
 691 01ac C0F30740 	 ubfx r0,r0,#16,#8
 653:C:/Users/Yushev/git/optiga-trust-qi/externals/mbedtls/library\aes.c ****                 ( (uint32_t) FSb[ ( RK[11] >>  8 ) & 0xFF ] <<  8 ) ^
 692              	 .loc 1 653 0 discriminator 3
 693 01b0 B25C     	 ldrb r2,[r6,r2]
 694 01b2 81EA0221 	 eor r1,r1,r2,lsl#8
 654:C:/Users/Yushev/git/optiga-trust-qi/externals/mbedtls/library\aes.c ****                 ( (uint32_t) FSb[ ( RK[11] >> 24 ) & 0xFF ] << 24 );
 695              	 .loc 1 654 0 discriminator 3
 696 01b6 325C     	 ldrb r2,[r6,r0]
 697 01b8 81EA0242 	 eor r2,r1,r2,lsl#16
 656:C:/Users/Yushev/git/optiga-trust-qi/externals/mbedtls/library\aes.c **** 
 657:C:/Users/Yushev/git/optiga-trust-qi/externals/mbedtls/library\aes.c ****                 RK[13] = RK[5] ^ RK[12];
 698              	 .loc 1 657 0 discriminator 3
 699 01bc 53F80C1C 	 ldr r1,[r3,#-12]
 651:C:/Users/Yushev/git/optiga-trust-qi/externals/mbedtls/library\aes.c ****                 ( (uint32_t) FSb[ ( RK[11]       ) & 0xFF ]       ) ^
 700              	 .loc 1 651 0 discriminator 3
 701 01c0 1A61     	 str r2,[r3,#16]
 702              	 .loc 1 657 0 discriminator 3
 703 01c2 82EA0102 	 eor r2,r2,r1
 658:C:/Users/Yushev/git/optiga-trust-qi/externals/mbedtls/library\aes.c ****                 RK[14] = RK[6] ^ RK[13];
 704              	 .loc 1 658 0 discriminator 3
 705 01c6 53F8081C 	 ldr r1,[r3,#-8]
 657:C:/Users/Yushev/git/optiga-trust-qi/externals/mbedtls/library\aes.c ****                 RK[14] = RK[6] ^ RK[13];
 706              	 .loc 1 657 0 discriminator 3
 707 01ca 5A61     	 str r2,[r3,#20]
 708              	 .loc 1 658 0 discriminator 3
 709 01cc 82EA0102 	 eor r2,r2,r1
 659:C:/Users/Yushev/git/optiga-trust-qi/externals/mbedtls/library\aes.c ****                 RK[15] = RK[7] ^ RK[14];
 710              	 .loc 1 659 0 discriminator 3
 711 01d0 84EA0204 	 eor r4,r4,r2
 658:C:/Users/Yushev/git/optiga-trust-qi/externals/mbedtls/library\aes.c ****                 RK[14] = RK[6] ^ RK[13];
 712              	 .loc 1 658 0 discriminator 3
 713 01d4 9A61     	 str r2,[r3,#24]
 714              	 .loc 1 659 0 discriminator 3
 715 01d6 DC61     	 str r4,[r3,#28]
 716              	.LVL60:
 639:C:/Users/Yushev/git/optiga-trust-qi/externals/mbedtls/library\aes.c ****             {
 717              	 .loc 1 639 0 discriminator 3
 718 01d8 B0D1     	 bne .L43
 719 01da 02E0     	 b .L50
 720              	.LVL61:
 721              	.L49:
 570:C:/Users/Yushev/git/optiga-trust-qi/externals/mbedtls/library\aes.c ****     }
 722              	 .loc 1 570 0
 723 01dc 6FF01F00 	 mvn r0,#31
 724              	.LVL62:
 725 01e0 F8BD     	 pop {r3,r4,r5,r6,r7,pc}
 726              	.LVL63:
 727              	.L50:
 660:C:/Users/Yushev/git/optiga-trust-qi/externals/mbedtls/library\aes.c ****             }
 661:C:/Users/Yushev/git/optiga-trust-qi/externals/mbedtls/library\aes.c ****             break;
 662:C:/Users/Yushev/git/optiga-trust-qi/externals/mbedtls/library\aes.c ****     }
 663:C:/Users/Yushev/git/optiga-trust-qi/externals/mbedtls/library\aes.c **** 
 664:C:/Users/Yushev/git/optiga-trust-qi/externals/mbedtls/library\aes.c ****     return( 0 );
 728              	 .loc 1 664 0
 729 01e2 0020     	 movs r0,#0
 665:C:/Users/Yushev/git/optiga-trust-qi/externals/mbedtls/library\aes.c **** }
 730              	 .loc 1 665 0
 731 01e4 F8BD     	 pop {r3,r4,r5,r6,r7,pc}
 732              	.LVL64:
 733              	.L54:
 734 01e6 00BF     	 .align 2
 735              	.L53:
 736 01e8 00000000 	 .word .LANCHOR11
 737 01ec 00000000 	 .word .LANCHOR0
 738 01f0 00000000 	 .word .LANCHOR1
 739              	 .cfi_endproc
 740              	.LFE3:
 742              	 .section .text.mbedtls_aes_setkey_dec,"ax",%progbits
 743              	 .align 1
 744              	 .global mbedtls_aes_setkey_dec
 745              	 .thumb
 746              	 .thumb_func
 748              	mbedtls_aes_setkey_dec:
 749              	.LFB4:
 666:C:/Users/Yushev/git/optiga-trust-qi/externals/mbedtls/library\aes.c **** #endif /* !MBEDTLS_AES_SETKEY_ENC_ALT */
 667:C:/Users/Yushev/git/optiga-trust-qi/externals/mbedtls/library\aes.c **** 
 668:C:/Users/Yushev/git/optiga-trust-qi/externals/mbedtls/library\aes.c **** /*
 669:C:/Users/Yushev/git/optiga-trust-qi/externals/mbedtls/library\aes.c ****  * AES key schedule (decryption)
 670:C:/Users/Yushev/git/optiga-trust-qi/externals/mbedtls/library\aes.c ****  */
 671:C:/Users/Yushev/git/optiga-trust-qi/externals/mbedtls/library\aes.c **** #if !defined(MBEDTLS_AES_SETKEY_DEC_ALT)
 672:C:/Users/Yushev/git/optiga-trust-qi/externals/mbedtls/library\aes.c **** int mbedtls_aes_setkey_dec( mbedtls_aes_context *ctx, const unsigned char *key,
 673:C:/Users/Yushev/git/optiga-trust-qi/externals/mbedtls/library\aes.c ****                     unsigned int keybits )
 674:C:/Users/Yushev/git/optiga-trust-qi/externals/mbedtls/library\aes.c **** {
 750              	 .loc 1 674 0
 751              	 .cfi_startproc
 752              	 
 753              	 
 754              	.LVL65:
 755 0000 F0B5     	 push {r4,r5,r6,r7,lr}
 756              	.LCFI4:
 757              	 .cfi_def_cfa_offset 20
 758              	 .cfi_offset 4,-20
 759              	 .cfi_offset 5,-16
 760              	 .cfi_offset 6,-12
 761              	 .cfi_offset 7,-8
 762              	 .cfi_offset 14,-4
 763 0002 C7B0     	 sub sp,sp,#284
 764              	.LCFI5:
 765              	 .cfi_def_cfa_offset 304
 766              	 .loc 1 674 0
 767 0004 0446     	 mov r4,r0
 675:C:/Users/Yushev/git/optiga-trust-qi/externals/mbedtls/library\aes.c ****     int i, j, ret;
 676:C:/Users/Yushev/git/optiga-trust-qi/externals/mbedtls/library\aes.c ****     mbedtls_aes_context cty;
 677:C:/Users/Yushev/git/optiga-trust-qi/externals/mbedtls/library\aes.c ****     uint32_t *RK;
 678:C:/Users/Yushev/git/optiga-trust-qi/externals/mbedtls/library\aes.c ****     uint32_t *SK;
 679:C:/Users/Yushev/git/optiga-trust-qi/externals/mbedtls/library\aes.c **** 
 680:C:/Users/Yushev/git/optiga-trust-qi/externals/mbedtls/library\aes.c ****     AES_VALIDATE_RET( ctx != NULL );
 681:C:/Users/Yushev/git/optiga-trust-qi/externals/mbedtls/library\aes.c ****     AES_VALIDATE_RET( key != NULL );
 682:C:/Users/Yushev/git/optiga-trust-qi/externals/mbedtls/library\aes.c **** 
 683:C:/Users/Yushev/git/optiga-trust-qi/externals/mbedtls/library\aes.c ****     mbedtls_aes_init( &cty );
 768              	 .loc 1 683 0
 769 0006 6846     	 mov r0,sp
 770              	.LVL66:
 674:C:/Users/Yushev/git/optiga-trust-qi/externals/mbedtls/library\aes.c ****     int i, j, ret;
 771              	 .loc 1 674 0
 772 0008 0E46     	 mov r6,r1
 773 000a 1546     	 mov r5,r2
 774              	 .loc 1 683 0
 775 000c FFF7FEFF 	 bl mbedtls_aes_init
 776              	.LVL67:
 684:C:/Users/Yushev/git/optiga-trust-qi/externals/mbedtls/library\aes.c **** 
 685:C:/Users/Yushev/git/optiga-trust-qi/externals/mbedtls/library\aes.c **** #if defined(MBEDTLS_PADLOCK_C) && defined(MBEDTLS_PADLOCK_ALIGN16)
 686:C:/Users/Yushev/git/optiga-trust-qi/externals/mbedtls/library\aes.c ****     if( aes_padlock_ace == -1 )
 687:C:/Users/Yushev/git/optiga-trust-qi/externals/mbedtls/library\aes.c ****         aes_padlock_ace = mbedtls_padlock_has_support( MBEDTLS_PADLOCK_ACE );
 688:C:/Users/Yushev/git/optiga-trust-qi/externals/mbedtls/library\aes.c **** 
 689:C:/Users/Yushev/git/optiga-trust-qi/externals/mbedtls/library\aes.c ****     if( aes_padlock_ace )
 690:C:/Users/Yushev/git/optiga-trust-qi/externals/mbedtls/library\aes.c ****         ctx->rk = RK = MBEDTLS_PADLOCK_ALIGN16( ctx->buf );
 691:C:/Users/Yushev/git/optiga-trust-qi/externals/mbedtls/library\aes.c ****     else
 692:C:/Users/Yushev/git/optiga-trust-qi/externals/mbedtls/library\aes.c **** #endif
 693:C:/Users/Yushev/git/optiga-trust-qi/externals/mbedtls/library\aes.c ****     ctx->rk = RK = ctx->buf;
 777              	 .loc 1 693 0
 778 0010 04F10803 	 add r3,r4,#8
 779              	.LVL68:
 694:C:/Users/Yushev/git/optiga-trust-qi/externals/mbedtls/library\aes.c **** 
 695:C:/Users/Yushev/git/optiga-trust-qi/externals/mbedtls/library\aes.c ****     /* Also checks keybits */
 696:C:/Users/Yushev/git/optiga-trust-qi/externals/mbedtls/library\aes.c ****     if( ( ret = mbedtls_aes_setkey_enc( &cty, key, keybits ) ) != 0 )
 780              	 .loc 1 696 0
 781 0014 3146     	 mov r1,r6
 693:C:/Users/Yushev/git/optiga-trust-qi/externals/mbedtls/library\aes.c **** 
 782              	 .loc 1 693 0
 783 0016 6360     	 str r3,[r4,#4]
 784              	 .loc 1 696 0
 785 0018 6846     	 mov r0,sp
 786 001a 2A46     	 mov r2,r5
 787 001c FFF7FEFF 	 bl mbedtls_aes_setkey_enc
 788              	.LVL69:
 789 0020 0646     	 mov r6,r0
 790              	.LVL70:
 791 0022 0028     	 cmp r0,#0
 792 0024 45D1     	 bne .L56
 697:C:/Users/Yushev/git/optiga-trust-qi/externals/mbedtls/library\aes.c ****         goto exit;
 698:C:/Users/Yushev/git/optiga-trust-qi/externals/mbedtls/library\aes.c **** 
 699:C:/Users/Yushev/git/optiga-trust-qi/externals/mbedtls/library\aes.c ****     ctx->nr = cty.nr;
 793              	 .loc 1 699 0
 794 0026 009A     	 ldr r2,[sp]
 700:C:/Users/Yushev/git/optiga-trust-qi/externals/mbedtls/library\aes.c **** 
 701:C:/Users/Yushev/git/optiga-trust-qi/externals/mbedtls/library\aes.c **** #if defined(MBEDTLS_AESNI_C) && defined(MBEDTLS_HAVE_X86_64)
 702:C:/Users/Yushev/git/optiga-trust-qi/externals/mbedtls/library\aes.c ****     if( mbedtls_aesni_has_support( MBEDTLS_AESNI_AES ) )
 703:C:/Users/Yushev/git/optiga-trust-qi/externals/mbedtls/library\aes.c ****     {
 704:C:/Users/Yushev/git/optiga-trust-qi/externals/mbedtls/library\aes.c ****         mbedtls_aesni_inverse_key( (unsigned char *) ctx->rk,
 705:C:/Users/Yushev/git/optiga-trust-qi/externals/mbedtls/library\aes.c ****                            (const unsigned char *) cty.rk, ctx->nr );
 706:C:/Users/Yushev/git/optiga-trust-qi/externals/mbedtls/library\aes.c ****         goto exit;
 707:C:/Users/Yushev/git/optiga-trust-qi/externals/mbedtls/library\aes.c ****     }
 708:C:/Users/Yushev/git/optiga-trust-qi/externals/mbedtls/library\aes.c **** #endif
 709:C:/Users/Yushev/git/optiga-trust-qi/externals/mbedtls/library\aes.c **** 
 710:C:/Users/Yushev/git/optiga-trust-qi/externals/mbedtls/library\aes.c ****     SK = cty.rk + cty.nr * 4;
 795              	 .loc 1 710 0
 796 0028 0198     	 ldr r0,[sp,#4]
 797              	.LVL71:
 699:C:/Users/Yushev/git/optiga-trust-qi/externals/mbedtls/library\aes.c **** 
 798              	 .loc 1 699 0
 799 002a 2260     	 str r2,[r4]
 800              	 .loc 1 710 0
 801 002c 1101     	 lsls r1,r2,#4
 802 002e 4318     	 adds r3,r0,r1
 803              	.LVL72:
 711:C:/Users/Yushev/git/optiga-trust-qi/externals/mbedtls/library\aes.c **** 
 712:C:/Users/Yushev/git/optiga-trust-qi/externals/mbedtls/library\aes.c ****     *RK++ = *SK++;
 804              	 .loc 1 712 0
 805 0030 4158     	 ldr r1,[r0,r1]
 806 0032 A160     	 str r1,[r4,#8]
 807              	.LVL73:
 713:C:/Users/Yushev/git/optiga-trust-qi/externals/mbedtls/library\aes.c ****     *RK++ = *SK++;
 808              	 .loc 1 713 0
 809 0034 5968     	 ldr r1,[r3,#4]
 810 0036 E160     	 str r1,[r4,#12]
 811              	.LVL74:
 714:C:/Users/Yushev/git/optiga-trust-qi/externals/mbedtls/library\aes.c ****     *RK++ = *SK++;
 812              	 .loc 1 714 0
 813 0038 9968     	 ldr r1,[r3,#8]
 814 003a 2161     	 str r1,[r4,#16]
 715:C:/Users/Yushev/git/optiga-trust-qi/externals/mbedtls/library\aes.c ****     *RK++ = *SK++;
 815              	 .loc 1 715 0
 816 003c D968     	 ldr r1,[r3,#12]
 817 003e 6161     	 str r1,[r4,#20]
 818 0040 04F11805 	 add r5,r4,#24
 819              	.LVL75:
 716:C:/Users/Yushev/git/optiga-trust-qi/externals/mbedtls/library\aes.c **** 
 717:C:/Users/Yushev/git/optiga-trust-qi/externals/mbedtls/library\aes.c ****     for( i = ctx->nr - 1, SK -= 8; i > 0; i--, SK -= 8 )
 820              	 .loc 1 717 0
 821 0044 541E     	 subs r4,r2,#1
 822              	.LVL76:
 823              	.L61:
 824 0046 002C     	 cmp r4,#0
 825 0048 A3F11003 	 sub r3,r3,#16
 826              	.LVL77:
 827 004c 29DD     	 ble .L62
 828 004e 0021     	 movs r1,#0
 829              	.LVL78:
 830              	.L58:
 718:C:/Users/Yushev/git/optiga-trust-qi/externals/mbedtls/library\aes.c ****     {
 719:C:/Users/Yushev/git/optiga-trust-qi/externals/mbedtls/library\aes.c ****         for( j = 0; j < 4; j++, SK++ )
 720:C:/Users/Yushev/git/optiga-trust-qi/externals/mbedtls/library\aes.c ****         {
 721:C:/Users/Yushev/git/optiga-trust-qi/externals/mbedtls/library\aes.c ****             *RK++ = AES_RT0( FSb[ ( *SK       ) & 0xFF ] ) ^
 831              	 .loc 1 721 0 discriminator 3
 832 0050 53F82120 	 ldr r2,[r3,r1,lsl#2]
 722:C:/Users/Yushev/git/optiga-trust-qi/externals/mbedtls/library\aes.c ****                     AES_RT1( FSb[ ( *SK >>  8 ) & 0xFF ] ) ^
 723:C:/Users/Yushev/git/optiga-trust-qi/externals/mbedtls/library\aes.c ****                     AES_RT2( FSb[ ( *SK >> 16 ) & 0xFF ] ) ^
 724:C:/Users/Yushev/git/optiga-trust-qi/externals/mbedtls/library\aes.c ****                     AES_RT3( FSb[ ( *SK >> 24 ) & 0xFF ] );
 833              	 .loc 1 724 0 discriminator 3
 834 0054 1A48     	 ldr r0,.L63
 835 0056 170E     	 lsrs r7,r2,#24
 836 0058 10F807E0 	 ldrb lr,[r0,r7]
 721:C:/Users/Yushev/git/optiga-trust-qi/externals/mbedtls/library\aes.c ****                     AES_RT1( FSb[ ( *SK >>  8 ) & 0xFF ] ) ^
 837              	 .loc 1 721 0 discriminator 3
 838 005c D7B2     	 uxtb r7,r2
 839 005e 10F807C0 	 ldrb ip,[r0,r7]
 840 0062 184F     	 ldr r7,.L63+4
 841 0064 57F82EE0 	 ldr lr,[r7,lr,lsl#2]
 842 0068 174F     	 ldr r7,.L63+8
 843 006a 57F82C70 	 ldr r7,[r7,ip,lsl#2]
 844 006e 8EEA070E 	 eor lr,lr,r7
 722:C:/Users/Yushev/git/optiga-trust-qi/externals/mbedtls/library\aes.c ****                     AES_RT1( FSb[ ( *SK >>  8 ) & 0xFF ] ) ^
 845              	 .loc 1 722 0 discriminator 3
 846 0072 C2F30727 	 ubfx r7,r2,#8,#8
 723:C:/Users/Yushev/git/optiga-trust-qi/externals/mbedtls/library\aes.c ****                     AES_RT3( FSb[ ( *SK >> 24 ) & 0xFF ] );
 847              	 .loc 1 723 0 discriminator 3
 848 0076 C2F30742 	 ubfx r2,r2,#16,#8
 722:C:/Users/Yushev/git/optiga-trust-qi/externals/mbedtls/library\aes.c ****                     AES_RT1( FSb[ ( *SK >>  8 ) & 0xFF ] ) ^
 849              	 .loc 1 722 0 discriminator 3
 850 007a 10F807C0 	 ldrb ip,[r0,r7]
 851 007e 134F     	 ldr r7,.L63+12
 723:C:/Users/Yushev/git/optiga-trust-qi/externals/mbedtls/library\aes.c ****                     AES_RT3( FSb[ ( *SK >> 24 ) & 0xFF ] );
 852              	 .loc 1 723 0 discriminator 3
 853 0080 805C     	 ldrb r0,[r0,r2]
 854 0082 134A     	 ldr r2,.L63+16
 855 0084 57F82C70 	 ldr r7,[r7,ip,lsl#2]
 856 0088 52F82020 	 ldr r2,[r2,r0,lsl#2]
 857 008c 8EEA0707 	 eor r7,lr,r7
 858 0090 7A40     	 eors r2,r2,r7
 721:C:/Users/Yushev/git/optiga-trust-qi/externals/mbedtls/library\aes.c ****                     AES_RT1( FSb[ ( *SK >>  8 ) & 0xFF ] ) ^
 859              	 .loc 1 721 0 discriminator 3
 860 0092 45F82120 	 str r2,[r5,r1,lsl#2]
 719:C:/Users/Yushev/git/optiga-trust-qi/externals/mbedtls/library\aes.c ****         {
 861              	 .loc 1 719 0 discriminator 3
 862 0096 0131     	 adds r1,r1,#1
 863              	.LVL79:
 864 0098 0429     	 cmp r1,#4
 865 009a D9D1     	 bne .L58
 866 009c 1035     	 adds r5,r5,#16
 867              	.LVL80:
 717:C:/Users/Yushev/git/optiga-trust-qi/externals/mbedtls/library\aes.c ****     {
 868              	 .loc 1 717 0
 869 009e 013C     	 subs r4,r4,#1
 870              	.LVL81:
 871 00a0 D1E7     	 b .L61
 872              	.LVL82:
 873              	.L62:
 725:C:/Users/Yushev/git/optiga-trust-qi/externals/mbedtls/library\aes.c ****         }
 726:C:/Users/Yushev/git/optiga-trust-qi/externals/mbedtls/library\aes.c ****     }
 727:C:/Users/Yushev/git/optiga-trust-qi/externals/mbedtls/library\aes.c **** 
 728:C:/Users/Yushev/git/optiga-trust-qi/externals/mbedtls/library\aes.c ****     *RK++ = *SK++;
 874              	 .loc 1 728 0
 875 00a2 1A68     	 ldr r2,[r3]
 876 00a4 2A60     	 str r2,[r5]
 877              	.LVL83:
 729:C:/Users/Yushev/git/optiga-trust-qi/externals/mbedtls/library\aes.c ****     *RK++ = *SK++;
 878              	 .loc 1 729 0
 879 00a6 5A68     	 ldr r2,[r3,#4]
 880 00a8 6A60     	 str r2,[r5,#4]
 881              	.LVL84:
 730:C:/Users/Yushev/git/optiga-trust-qi/externals/mbedtls/library\aes.c ****     *RK++ = *SK++;
 882              	 .loc 1 730 0
 883 00aa 9A68     	 ldr r2,[r3,#8]
 884 00ac AA60     	 str r2,[r5,#8]
 885              	.LVL85:
 731:C:/Users/Yushev/git/optiga-trust-qi/externals/mbedtls/library\aes.c ****     *RK++ = *SK++;
 886              	 .loc 1 731 0
 887 00ae DB68     	 ldr r3,[r3,#12]
 888              	.LVL86:
 889 00b0 EB60     	 str r3,[r5,#12]
 890              	.LVL87:
 891              	.L56:
 732:C:/Users/Yushev/git/optiga-trust-qi/externals/mbedtls/library\aes.c **** 
 733:C:/Users/Yushev/git/optiga-trust-qi/externals/mbedtls/library\aes.c **** exit:
 734:C:/Users/Yushev/git/optiga-trust-qi/externals/mbedtls/library\aes.c ****     mbedtls_aes_free( &cty );
 892              	 .loc 1 734 0
 893 00b2 6846     	 mov r0,sp
 894 00b4 FFF7FEFF 	 bl mbedtls_aes_free
 895              	.LVL88:
 735:C:/Users/Yushev/git/optiga-trust-qi/externals/mbedtls/library\aes.c **** 
 736:C:/Users/Yushev/git/optiga-trust-qi/externals/mbedtls/library\aes.c ****     return( ret );
 737:C:/Users/Yushev/git/optiga-trust-qi/externals/mbedtls/library\aes.c **** }
 896              	 .loc 1 737 0
 897 00b8 3046     	 mov r0,r6
 898 00ba 47B0     	 add sp,sp,#284
 899              	.LCFI6:
 900              	 .cfi_def_cfa_offset 20
 901              	 
 902 00bc F0BD     	 pop {r4,r5,r6,r7,pc}
 903              	.LVL89:
 904              	.L64:
 905 00be 00BF     	 .align 2
 906              	.L63:
 907 00c0 00000000 	 .word .LANCHOR1
 908 00c4 00000000 	 .word .LANCHOR10
 909 00c8 00000000 	 .word .LANCHOR7
 910 00cc 00000000 	 .word .LANCHOR8
 911 00d0 00000000 	 .word .LANCHOR9
 912              	 .cfi_endproc
 913              	.LFE4:
 915              	 .section .text.mbedtls_internal_aes_encrypt,"ax",%progbits
 916              	 .align 1
 917              	 .global mbedtls_internal_aes_encrypt
 918              	 .thumb
 919              	 .thumb_func
 921              	mbedtls_internal_aes_encrypt:
 922              	.LFB5:
 738:C:/Users/Yushev/git/optiga-trust-qi/externals/mbedtls/library\aes.c **** 
 739:C:/Users/Yushev/git/optiga-trust-qi/externals/mbedtls/library\aes.c **** #if defined(MBEDTLS_CIPHER_MODE_XTS)
 740:C:/Users/Yushev/git/optiga-trust-qi/externals/mbedtls/library\aes.c **** static int mbedtls_aes_xts_decode_keys( const unsigned char *key,
 741:C:/Users/Yushev/git/optiga-trust-qi/externals/mbedtls/library\aes.c ****                                         unsigned int keybits,
 742:C:/Users/Yushev/git/optiga-trust-qi/externals/mbedtls/library\aes.c ****                                         const unsigned char **key1,
 743:C:/Users/Yushev/git/optiga-trust-qi/externals/mbedtls/library\aes.c ****                                         unsigned int *key1bits,
 744:C:/Users/Yushev/git/optiga-trust-qi/externals/mbedtls/library\aes.c ****                                         const unsigned char **key2,
 745:C:/Users/Yushev/git/optiga-trust-qi/externals/mbedtls/library\aes.c ****                                         unsigned int *key2bits )
 746:C:/Users/Yushev/git/optiga-trust-qi/externals/mbedtls/library\aes.c **** {
 747:C:/Users/Yushev/git/optiga-trust-qi/externals/mbedtls/library\aes.c ****     const unsigned int half_keybits = keybits / 2;
 748:C:/Users/Yushev/git/optiga-trust-qi/externals/mbedtls/library\aes.c ****     const unsigned int half_keybytes = half_keybits / 8;
 749:C:/Users/Yushev/git/optiga-trust-qi/externals/mbedtls/library\aes.c **** 
 750:C:/Users/Yushev/git/optiga-trust-qi/externals/mbedtls/library\aes.c ****     switch( keybits )
 751:C:/Users/Yushev/git/optiga-trust-qi/externals/mbedtls/library\aes.c ****     {
 752:C:/Users/Yushev/git/optiga-trust-qi/externals/mbedtls/library\aes.c ****         case 256: break;
 753:C:/Users/Yushev/git/optiga-trust-qi/externals/mbedtls/library\aes.c ****         case 512: break;
 754:C:/Users/Yushev/git/optiga-trust-qi/externals/mbedtls/library\aes.c ****         default : return( MBEDTLS_ERR_AES_INVALID_KEY_LENGTH );
 755:C:/Users/Yushev/git/optiga-trust-qi/externals/mbedtls/library\aes.c ****     }
 756:C:/Users/Yushev/git/optiga-trust-qi/externals/mbedtls/library\aes.c **** 
 757:C:/Users/Yushev/git/optiga-trust-qi/externals/mbedtls/library\aes.c ****     *key1bits = half_keybits;
 758:C:/Users/Yushev/git/optiga-trust-qi/externals/mbedtls/library\aes.c ****     *key2bits = half_keybits;
 759:C:/Users/Yushev/git/optiga-trust-qi/externals/mbedtls/library\aes.c ****     *key1 = &key[0];
 760:C:/Users/Yushev/git/optiga-trust-qi/externals/mbedtls/library\aes.c ****     *key2 = &key[half_keybytes];
 761:C:/Users/Yushev/git/optiga-trust-qi/externals/mbedtls/library\aes.c **** 
 762:C:/Users/Yushev/git/optiga-trust-qi/externals/mbedtls/library\aes.c ****     return 0;
 763:C:/Users/Yushev/git/optiga-trust-qi/externals/mbedtls/library\aes.c **** }
 764:C:/Users/Yushev/git/optiga-trust-qi/externals/mbedtls/library\aes.c **** 
 765:C:/Users/Yushev/git/optiga-trust-qi/externals/mbedtls/library\aes.c **** int mbedtls_aes_xts_setkey_enc( mbedtls_aes_xts_context *ctx,
 766:C:/Users/Yushev/git/optiga-trust-qi/externals/mbedtls/library\aes.c ****                                 const unsigned char *key,
 767:C:/Users/Yushev/git/optiga-trust-qi/externals/mbedtls/library\aes.c ****                                 unsigned int keybits)
 768:C:/Users/Yushev/git/optiga-trust-qi/externals/mbedtls/library\aes.c **** {
 769:C:/Users/Yushev/git/optiga-trust-qi/externals/mbedtls/library\aes.c ****     int ret;
 770:C:/Users/Yushev/git/optiga-trust-qi/externals/mbedtls/library\aes.c ****     const unsigned char *key1, *key2;
 771:C:/Users/Yushev/git/optiga-trust-qi/externals/mbedtls/library\aes.c ****     unsigned int key1bits, key2bits;
 772:C:/Users/Yushev/git/optiga-trust-qi/externals/mbedtls/library\aes.c **** 
 773:C:/Users/Yushev/git/optiga-trust-qi/externals/mbedtls/library\aes.c ****     AES_VALIDATE_RET( ctx != NULL );
 774:C:/Users/Yushev/git/optiga-trust-qi/externals/mbedtls/library\aes.c ****     AES_VALIDATE_RET( key != NULL );
 775:C:/Users/Yushev/git/optiga-trust-qi/externals/mbedtls/library\aes.c **** 
 776:C:/Users/Yushev/git/optiga-trust-qi/externals/mbedtls/library\aes.c ****     ret = mbedtls_aes_xts_decode_keys( key, keybits, &key1, &key1bits,
 777:C:/Users/Yushev/git/optiga-trust-qi/externals/mbedtls/library\aes.c ****                                        &key2, &key2bits );
 778:C:/Users/Yushev/git/optiga-trust-qi/externals/mbedtls/library\aes.c ****     if( ret != 0 )
 779:C:/Users/Yushev/git/optiga-trust-qi/externals/mbedtls/library\aes.c ****         return( ret );
 780:C:/Users/Yushev/git/optiga-trust-qi/externals/mbedtls/library\aes.c **** 
 781:C:/Users/Yushev/git/optiga-trust-qi/externals/mbedtls/library\aes.c ****     /* Set the tweak key. Always set tweak key for the encryption mode. */
 782:C:/Users/Yushev/git/optiga-trust-qi/externals/mbedtls/library\aes.c ****     ret = mbedtls_aes_setkey_enc( &ctx->tweak, key2, key2bits );
 783:C:/Users/Yushev/git/optiga-trust-qi/externals/mbedtls/library\aes.c ****     if( ret != 0 )
 784:C:/Users/Yushev/git/optiga-trust-qi/externals/mbedtls/library\aes.c ****         return( ret );
 785:C:/Users/Yushev/git/optiga-trust-qi/externals/mbedtls/library\aes.c **** 
 786:C:/Users/Yushev/git/optiga-trust-qi/externals/mbedtls/library\aes.c ****     /* Set crypt key for encryption. */
 787:C:/Users/Yushev/git/optiga-trust-qi/externals/mbedtls/library\aes.c ****     return mbedtls_aes_setkey_enc( &ctx->crypt, key1, key1bits );
 788:C:/Users/Yushev/git/optiga-trust-qi/externals/mbedtls/library\aes.c **** }
 789:C:/Users/Yushev/git/optiga-trust-qi/externals/mbedtls/library\aes.c **** 
 790:C:/Users/Yushev/git/optiga-trust-qi/externals/mbedtls/library\aes.c **** int mbedtls_aes_xts_setkey_dec( mbedtls_aes_xts_context *ctx,
 791:C:/Users/Yushev/git/optiga-trust-qi/externals/mbedtls/library\aes.c ****                                 const unsigned char *key,
 792:C:/Users/Yushev/git/optiga-trust-qi/externals/mbedtls/library\aes.c ****                                 unsigned int keybits)
 793:C:/Users/Yushev/git/optiga-trust-qi/externals/mbedtls/library\aes.c **** {
 794:C:/Users/Yushev/git/optiga-trust-qi/externals/mbedtls/library\aes.c ****     int ret;
 795:C:/Users/Yushev/git/optiga-trust-qi/externals/mbedtls/library\aes.c ****     const unsigned char *key1, *key2;
 796:C:/Users/Yushev/git/optiga-trust-qi/externals/mbedtls/library\aes.c ****     unsigned int key1bits, key2bits;
 797:C:/Users/Yushev/git/optiga-trust-qi/externals/mbedtls/library\aes.c **** 
 798:C:/Users/Yushev/git/optiga-trust-qi/externals/mbedtls/library\aes.c ****     AES_VALIDATE_RET( ctx != NULL );
 799:C:/Users/Yushev/git/optiga-trust-qi/externals/mbedtls/library\aes.c ****     AES_VALIDATE_RET( key != NULL );
 800:C:/Users/Yushev/git/optiga-trust-qi/externals/mbedtls/library\aes.c **** 
 801:C:/Users/Yushev/git/optiga-trust-qi/externals/mbedtls/library\aes.c ****     ret = mbedtls_aes_xts_decode_keys( key, keybits, &key1, &key1bits,
 802:C:/Users/Yushev/git/optiga-trust-qi/externals/mbedtls/library\aes.c ****                                        &key2, &key2bits );
 803:C:/Users/Yushev/git/optiga-trust-qi/externals/mbedtls/library\aes.c ****     if( ret != 0 )
 804:C:/Users/Yushev/git/optiga-trust-qi/externals/mbedtls/library\aes.c ****         return( ret );
 805:C:/Users/Yushev/git/optiga-trust-qi/externals/mbedtls/library\aes.c **** 
 806:C:/Users/Yushev/git/optiga-trust-qi/externals/mbedtls/library\aes.c ****     /* Set the tweak key. Always set tweak key for encryption. */
 807:C:/Users/Yushev/git/optiga-trust-qi/externals/mbedtls/library\aes.c ****     ret = mbedtls_aes_setkey_enc( &ctx->tweak, key2, key2bits );
 808:C:/Users/Yushev/git/optiga-trust-qi/externals/mbedtls/library\aes.c ****     if( ret != 0 )
 809:C:/Users/Yushev/git/optiga-trust-qi/externals/mbedtls/library\aes.c ****         return( ret );
 810:C:/Users/Yushev/git/optiga-trust-qi/externals/mbedtls/library\aes.c **** 
 811:C:/Users/Yushev/git/optiga-trust-qi/externals/mbedtls/library\aes.c ****     /* Set crypt key for decryption. */
 812:C:/Users/Yushev/git/optiga-trust-qi/externals/mbedtls/library\aes.c ****     return mbedtls_aes_setkey_dec( &ctx->crypt, key1, key1bits );
 813:C:/Users/Yushev/git/optiga-trust-qi/externals/mbedtls/library\aes.c **** }
 814:C:/Users/Yushev/git/optiga-trust-qi/externals/mbedtls/library\aes.c **** #endif /* MBEDTLS_CIPHER_MODE_XTS */
 815:C:/Users/Yushev/git/optiga-trust-qi/externals/mbedtls/library\aes.c **** 
 816:C:/Users/Yushev/git/optiga-trust-qi/externals/mbedtls/library\aes.c **** #endif /* !MBEDTLS_AES_SETKEY_DEC_ALT */
 817:C:/Users/Yushev/git/optiga-trust-qi/externals/mbedtls/library\aes.c **** 
 818:C:/Users/Yushev/git/optiga-trust-qi/externals/mbedtls/library\aes.c **** #define AES_FROUND(X0,X1,X2,X3,Y0,Y1,Y2,Y3)         \
 819:C:/Users/Yushev/git/optiga-trust-qi/externals/mbedtls/library\aes.c **** {                                                   \
 820:C:/Users/Yushev/git/optiga-trust-qi/externals/mbedtls/library\aes.c ****     X0 = *RK++ ^ AES_FT0( ( Y0       ) & 0xFF ) ^   \
 821:C:/Users/Yushev/git/optiga-trust-qi/externals/mbedtls/library\aes.c ****                  AES_FT1( ( Y1 >>  8 ) & 0xFF ) ^   \
 822:C:/Users/Yushev/git/optiga-trust-qi/externals/mbedtls/library\aes.c ****                  AES_FT2( ( Y2 >> 16 ) & 0xFF ) ^   \
 823:C:/Users/Yushev/git/optiga-trust-qi/externals/mbedtls/library\aes.c ****                  AES_FT3( ( Y3 >> 24 ) & 0xFF );    \
 824:C:/Users/Yushev/git/optiga-trust-qi/externals/mbedtls/library\aes.c ****                                                     \
 825:C:/Users/Yushev/git/optiga-trust-qi/externals/mbedtls/library\aes.c ****     X1 = *RK++ ^ AES_FT0( ( Y1       ) & 0xFF ) ^   \
 826:C:/Users/Yushev/git/optiga-trust-qi/externals/mbedtls/library\aes.c ****                  AES_FT1( ( Y2 >>  8 ) & 0xFF ) ^   \
 827:C:/Users/Yushev/git/optiga-trust-qi/externals/mbedtls/library\aes.c ****                  AES_FT2( ( Y3 >> 16 ) & 0xFF ) ^   \
 828:C:/Users/Yushev/git/optiga-trust-qi/externals/mbedtls/library\aes.c ****                  AES_FT3( ( Y0 >> 24 ) & 0xFF );    \
 829:C:/Users/Yushev/git/optiga-trust-qi/externals/mbedtls/library\aes.c ****                                                     \
 830:C:/Users/Yushev/git/optiga-trust-qi/externals/mbedtls/library\aes.c ****     X2 = *RK++ ^ AES_FT0( ( Y2       ) & 0xFF ) ^   \
 831:C:/Users/Yushev/git/optiga-trust-qi/externals/mbedtls/library\aes.c ****                  AES_FT1( ( Y3 >>  8 ) & 0xFF ) ^   \
 832:C:/Users/Yushev/git/optiga-trust-qi/externals/mbedtls/library\aes.c ****                  AES_FT2( ( Y0 >> 16 ) & 0xFF ) ^   \
 833:C:/Users/Yushev/git/optiga-trust-qi/externals/mbedtls/library\aes.c ****                  AES_FT3( ( Y1 >> 24 ) & 0xFF );    \
 834:C:/Users/Yushev/git/optiga-trust-qi/externals/mbedtls/library\aes.c ****                                                     \
 835:C:/Users/Yushev/git/optiga-trust-qi/externals/mbedtls/library\aes.c ****     X3 = *RK++ ^ AES_FT0( ( Y3       ) & 0xFF ) ^   \
 836:C:/Users/Yushev/git/optiga-trust-qi/externals/mbedtls/library\aes.c ****                  AES_FT1( ( Y0 >>  8 ) & 0xFF ) ^   \
 837:C:/Users/Yushev/git/optiga-trust-qi/externals/mbedtls/library\aes.c ****                  AES_FT2( ( Y1 >> 16 ) & 0xFF ) ^   \
 838:C:/Users/Yushev/git/optiga-trust-qi/externals/mbedtls/library\aes.c ****                  AES_FT3( ( Y2 >> 24 ) & 0xFF );    \
 839:C:/Users/Yushev/git/optiga-trust-qi/externals/mbedtls/library\aes.c **** }
 840:C:/Users/Yushev/git/optiga-trust-qi/externals/mbedtls/library\aes.c **** 
 841:C:/Users/Yushev/git/optiga-trust-qi/externals/mbedtls/library\aes.c **** #define AES_RROUND(X0,X1,X2,X3,Y0,Y1,Y2,Y3)         \
 842:C:/Users/Yushev/git/optiga-trust-qi/externals/mbedtls/library\aes.c **** {                                                   \
 843:C:/Users/Yushev/git/optiga-trust-qi/externals/mbedtls/library\aes.c ****     X0 = *RK++ ^ AES_RT0( ( Y0       ) & 0xFF ) ^   \
 844:C:/Users/Yushev/git/optiga-trust-qi/externals/mbedtls/library\aes.c ****                  AES_RT1( ( Y3 >>  8 ) & 0xFF ) ^   \
 845:C:/Users/Yushev/git/optiga-trust-qi/externals/mbedtls/library\aes.c ****                  AES_RT2( ( Y2 >> 16 ) & 0xFF ) ^   \
 846:C:/Users/Yushev/git/optiga-trust-qi/externals/mbedtls/library\aes.c ****                  AES_RT3( ( Y1 >> 24 ) & 0xFF );    \
 847:C:/Users/Yushev/git/optiga-trust-qi/externals/mbedtls/library\aes.c ****                                                     \
 848:C:/Users/Yushev/git/optiga-trust-qi/externals/mbedtls/library\aes.c ****     X1 = *RK++ ^ AES_RT0( ( Y1       ) & 0xFF ) ^   \
 849:C:/Users/Yushev/git/optiga-trust-qi/externals/mbedtls/library\aes.c ****                  AES_RT1( ( Y0 >>  8 ) & 0xFF ) ^   \
 850:C:/Users/Yushev/git/optiga-trust-qi/externals/mbedtls/library\aes.c ****                  AES_RT2( ( Y3 >> 16 ) & 0xFF ) ^   \
 851:C:/Users/Yushev/git/optiga-trust-qi/externals/mbedtls/library\aes.c ****                  AES_RT3( ( Y2 >> 24 ) & 0xFF );    \
 852:C:/Users/Yushev/git/optiga-trust-qi/externals/mbedtls/library\aes.c ****                                                     \
 853:C:/Users/Yushev/git/optiga-trust-qi/externals/mbedtls/library\aes.c ****     X2 = *RK++ ^ AES_RT0( ( Y2       ) & 0xFF ) ^   \
 854:C:/Users/Yushev/git/optiga-trust-qi/externals/mbedtls/library\aes.c ****                  AES_RT1( ( Y1 >>  8 ) & 0xFF ) ^   \
 855:C:/Users/Yushev/git/optiga-trust-qi/externals/mbedtls/library\aes.c ****                  AES_RT2( ( Y0 >> 16 ) & 0xFF ) ^   \
 856:C:/Users/Yushev/git/optiga-trust-qi/externals/mbedtls/library\aes.c ****                  AES_RT3( ( Y3 >> 24 ) & 0xFF );    \
 857:C:/Users/Yushev/git/optiga-trust-qi/externals/mbedtls/library\aes.c ****                                                     \
 858:C:/Users/Yushev/git/optiga-trust-qi/externals/mbedtls/library\aes.c ****     X3 = *RK++ ^ AES_RT0( ( Y3       ) & 0xFF ) ^   \
 859:C:/Users/Yushev/git/optiga-trust-qi/externals/mbedtls/library\aes.c ****                  AES_RT1( ( Y2 >>  8 ) & 0xFF ) ^   \
 860:C:/Users/Yushev/git/optiga-trust-qi/externals/mbedtls/library\aes.c ****                  AES_RT2( ( Y1 >> 16 ) & 0xFF ) ^   \
 861:C:/Users/Yushev/git/optiga-trust-qi/externals/mbedtls/library\aes.c ****                  AES_RT3( ( Y0 >> 24 ) & 0xFF );    \
 862:C:/Users/Yushev/git/optiga-trust-qi/externals/mbedtls/library\aes.c **** }
 863:C:/Users/Yushev/git/optiga-trust-qi/externals/mbedtls/library\aes.c **** 
 864:C:/Users/Yushev/git/optiga-trust-qi/externals/mbedtls/library\aes.c **** /*
 865:C:/Users/Yushev/git/optiga-trust-qi/externals/mbedtls/library\aes.c ****  * AES-ECB block encryption
 866:C:/Users/Yushev/git/optiga-trust-qi/externals/mbedtls/library\aes.c ****  */
 867:C:/Users/Yushev/git/optiga-trust-qi/externals/mbedtls/library\aes.c **** #if !defined(MBEDTLS_AES_ENCRYPT_ALT)
 868:C:/Users/Yushev/git/optiga-trust-qi/externals/mbedtls/library\aes.c **** int mbedtls_internal_aes_encrypt( mbedtls_aes_context *ctx,
 869:C:/Users/Yushev/git/optiga-trust-qi/externals/mbedtls/library\aes.c ****                                   const unsigned char input[16],
 870:C:/Users/Yushev/git/optiga-trust-qi/externals/mbedtls/library\aes.c ****                                   unsigned char output[16] )
 871:C:/Users/Yushev/git/optiga-trust-qi/externals/mbedtls/library\aes.c **** {
 923              	 .loc 1 871 0
 924              	 .cfi_startproc
 925              	 
 926              	 
 927              	.LVL90:
 928 0000 2DE9F74F 	 push {r0,r1,r2,r4,r5,r6,r7,r8,r9,r10,fp,lr}
 929              	.LCFI7:
 930              	 .cfi_def_cfa_offset 48
 931              	 .cfi_offset 4,-36
 932              	 .cfi_offset 5,-32
 933              	 .cfi_offset 6,-28
 934              	 .cfi_offset 7,-24
 935              	 .cfi_offset 8,-20
 936              	 .cfi_offset 9,-16
 937              	 .cfi_offset 10,-12
 938              	 .cfi_offset 11,-8
 939              	 .cfi_offset 14,-4
 872:C:/Users/Yushev/git/optiga-trust-qi/externals/mbedtls/library\aes.c ****     int i;
 873:C:/Users/Yushev/git/optiga-trust-qi/externals/mbedtls/library\aes.c ****     uint32_t *RK, X0, X1, X2, X3, Y0, Y1, Y2, Y3;
 874:C:/Users/Yushev/git/optiga-trust-qi/externals/mbedtls/library\aes.c **** 
 875:C:/Users/Yushev/git/optiga-trust-qi/externals/mbedtls/library\aes.c ****     RK = ctx->rk;
 876:C:/Users/Yushev/git/optiga-trust-qi/externals/mbedtls/library\aes.c **** 
 877:C:/Users/Yushev/git/optiga-trust-qi/externals/mbedtls/library\aes.c ****     GET_UINT32_LE( X0, input,  0 ); X0 ^= *RK++;
 940              	 .loc 1 877 0
 941 0004 8D78     	 ldrb r5,[r1,#2]
 942 0006 4B78     	 ldrb r3,[r1,#1]
 943 0008 0C78     	 ldrb r4,[r1]
 875:C:/Users/Yushev/git/optiga-trust-qi/externals/mbedtls/library\aes.c **** 
 944              	 .loc 1 875 0
 945 000a 4768     	 ldr r7,[r0,#4]
 946              	.LVL91:
 878:C:/Users/Yushev/git/optiga-trust-qi/externals/mbedtls/library\aes.c ****     GET_UINT32_LE( X1, input,  4 ); X1 ^= *RK++;
 879:C:/Users/Yushev/git/optiga-trust-qi/externals/mbedtls/library\aes.c ****     GET_UINT32_LE( X2, input,  8 ); X2 ^= *RK++;
 947              	 .loc 1 879 0
 948 000c 4E7A     	 ldrb r6,[r1,#9]
 880:C:/Users/Yushev/git/optiga-trust-qi/externals/mbedtls/library\aes.c ****     GET_UINT32_LE( X3, input, 12 ); X3 ^= *RK++;
 949              	 .loc 1 880 0
 950 000e 91F80DE0 	 ldrb lr,[r1,#13]
 877:C:/Users/Yushev/git/optiga-trust-qi/externals/mbedtls/library\aes.c ****     GET_UINT32_LE( X1, input,  4 ); X1 ^= *RK++;
 951              	 .loc 1 877 0
 952 0012 2D04     	 lsls r5,r5,#16
 953 0014 45EA0325 	 orr r5,r5,r3,lsl#8
 954 0018 CB78     	 ldrb r3,[r1,#3]
 955 001a 2543     	 orrs r5,r5,r4
 956 001c 45EA0363 	 orr r3,r5,r3,lsl#24
 957              	.LVL92:
 958 0020 3D68     	 ldr r5,[r7]
 878:C:/Users/Yushev/git/optiga-trust-qi/externals/mbedtls/library\aes.c ****     GET_UINT32_LE( X1, input,  4 ); X1 ^= *RK++;
 959              	 .loc 1 878 0
 960 0022 4C79     	 ldrb r4,[r1,#5]
 877:C:/Users/Yushev/git/optiga-trust-qi/externals/mbedtls/library\aes.c ****     GET_UINT32_LE( X1, input,  4 ); X1 ^= *RK++;
 961              	 .loc 1 877 0
 962 0024 5D40     	 eors r5,r5,r3
 963              	.LVL93:
 878:C:/Users/Yushev/git/optiga-trust-qi/externals/mbedtls/library\aes.c ****     GET_UINT32_LE( X1, input,  4 ); X1 ^= *RK++;
 964              	 .loc 1 878 0
 965 0026 8B79     	 ldrb r3,[r1,#6]
 966 0028 1B04     	 lsls r3,r3,#16
 967 002a 43EA0423 	 orr r3,r3,r4,lsl#8
 968 002e 0C79     	 ldrb r4,[r1,#4]
 969 0030 2343     	 orrs r3,r3,r4
 970 0032 CC79     	 ldrb r4,[r1,#7]
 971 0034 43EA0463 	 orr r3,r3,r4,lsl#24
 972              	.LVL94:
 973 0038 7C68     	 ldr r4,[r7,#4]
 974 003a 6340     	 eors r3,r3,r4
 975              	.LVL95:
 879:C:/Users/Yushev/git/optiga-trust-qi/externals/mbedtls/library\aes.c ****     GET_UINT32_LE( X3, input, 12 ); X3 ^= *RK++;
 976              	 .loc 1 879 0
 977 003c 8C7A     	 ldrb r4,[r1,#10]
 978 003e 2404     	 lsls r4,r4,#16
 979 0040 44EA0624 	 orr r4,r4,r6,lsl#8
 980 0044 0E7A     	 ldrb r6,[r1,#8]
 981 0046 3443     	 orrs r4,r4,r6
 982 0048 CE7A     	 ldrb r6,[r1,#11]
 983 004a 44EA0664 	 orr r4,r4,r6,lsl#24
 984              	.LVL96:
 985 004e BE68     	 ldr r6,[r7,#8]
 986 0050 7440     	 eors r4,r4,r6
 987              	.LVL97:
 988              	 .loc 1 880 0
 989 0052 8E7B     	 ldrb r6,[r1,#14]
 990 0054 3604     	 lsls r6,r6,#16
 991 0056 46EA0E26 	 orr r6,r6,lr,lsl#8
 992 005a 91F80CE0 	 ldrb lr,[r1,#12]
 993 005e C97B     	 ldrb r1,[r1,#15]
 994              	.LVL98:
 995 0060 46EA0E06 	 orr r6,r6,lr
 996 0064 46EA0161 	 orr r1,r6,r1,lsl#24
 997              	.LVL99:
 998 0068 FE68     	 ldr r6,[r7,#12]
 999 006a 4E40     	 eors r6,r6,r1
 1000              	.LVL100:
 881:C:/Users/Yushev/git/optiga-trust-qi/externals/mbedtls/library\aes.c **** 
 882:C:/Users/Yushev/git/optiga-trust-qi/externals/mbedtls/library\aes.c ****     for( i = ( ctx->nr >> 1 ) - 1; i > 0; i-- )
 1001              	 .loc 1 882 0
 1002 006c 0168     	 ldr r1,[r0]
 1003 006e 4910     	 asrs r1,r1,#1
 1004 0070 0139     	 subs r1,r1,#1
 1005 0072 0191     	 str r1,[sp,#4]
 1006              	.LVL101:
 880:C:/Users/Yushev/git/optiga-trust-qi/externals/mbedtls/library\aes.c **** 
 1007              	 .loc 1 880 0
 1008 0074 07F11001 	 add r1,r7,#16
 1009              	.LVL102:
 1010              	.L66:
 1011              	 .loc 1 882 0 discriminator 1
 1012 0078 0198     	 ldr r0,[sp,#4]
 1013 007a DFF844E3 	 ldr lr,.L69+8
 1014 007e 0028     	 cmp r0,#0
 1015 0080 8846     	 mov r8,r1
 1016              	.LVL103:
 1017 0082 CD48     	 ldr r0,.L69
 1018              	.LVL104:
 1019 0084 01F12001 	 add r1,r1,#32
 1020 0088 4FEA1667 	 lsr r7,r6,#24
 1021 008c 5FFA85FC 	 uxtb ip,r5
 1022 0090 40F3BE80 	 ble .L68
 1023              	.LVL105:
 1024 0094 50F82790 	 ldr r9,[r0,r7,lsl#2]
 1025 0098 5EF82C70 	 ldr r7,[lr,ip,lsl#2]
 883:C:/Users/Yushev/git/optiga-trust-qi/externals/mbedtls/library\aes.c ****     {
 884:C:/Users/Yushev/git/optiga-trust-qi/externals/mbedtls/library\aes.c ****         AES_FROUND( Y0, Y1, Y2, Y3, X0, X1, X2, X3 );
 1026              	 .loc 1 884 0 discriminator 3
 1027 009c DFF82483 	 ldr r8,.L69+12
 1028              	.LVL106:
 1029 00a0 DFF824C3 	 ldr ip,.L69+16
 1030 00a4 89EA0709 	 eor r9,r9,r7
 1031 00a8 51F8207C 	 ldr r7,[r1,#-32]
 1032 00ac 89EA0709 	 eor r9,r9,r7
 1033 00b0 C3F30727 	 ubfx r7,r3,#8,#8
 1034 00b4 4FEA156A 	 lsr r10,r5,#24
 1035 00b8 58F82770 	 ldr r7,[r8,r7,lsl#2]
 1036 00bc 50F82AA0 	 ldr r10,[r0,r10,lsl#2]
 1037 00c0 89EA0707 	 eor r7,r9,r7
 1038 00c4 C4F30749 	 ubfx r9,r4,#16,#8
 1039 00c8 4FEA136B 	 lsr fp,r3,#24
 1040 00cc 5CF82990 	 ldr r9,[ip,r9,lsl#2]
 1041 00d0 50F82BB0 	 ldr fp,[r0,fp,lsl#2]
 1042 00d4 87EA0909 	 eor r9,r7,r9
 1043              	.LVL107:
 1044 00d8 DFB2     	 uxtb r7,r3
 1045 00da C3F30743 	 ubfx r3,r3,#16,#8
 1046              	.LVL108:
 1047 00de 5EF82770 	 ldr r7,[lr,r7,lsl#2]
 1048 00e2 8AEA070A 	 eor r10,r10,r7
 1049 00e6 51F81C7C 	 ldr r7,[r1,#-28]
 1050 00ea 8AEA0707 	 eor r7,r10,r7
 1051 00ee C4F3072A 	 ubfx r10,r4,#8,#8
 1052 00f2 58F82AA0 	 ldr r10,[r8,r10,lsl#2]
 1053 00f6 87EA0A07 	 eor r7,r7,r10
 1054 00fa C6F3074A 	 ubfx r10,r6,#16,#8
 1055 00fe 5CF82AA0 	 ldr r10,[ip,r10,lsl#2]
 1056 0102 87EA0A0A 	 eor r10,r7,r10
 1057              	.LVL109:
 1058 0106 E7B2     	 uxtb r7,r4
 1059 0108 240E     	 lsrs r4,r4,#24
 1060              	.LVL110:
 1061 010a 5EF82770 	 ldr r7,[lr,r7,lsl#2]
 1062 010e 50F82440 	 ldr r4,[r0,r4,lsl#2]
 1063 0112 8BEA070B 	 eor fp,fp,r7
 1064 0116 51F8187C 	 ldr r7,[r1,#-24]
 1065 011a 8BEA0707 	 eor r7,fp,r7
 1066 011e C6F3072B 	 ubfx fp,r6,#8,#8
 1067 0122 58F82BB0 	 ldr fp,[r8,fp,lsl#2]
 1068 0126 87EA0B07 	 eor r7,r7,fp
 1069 012a C5F3074B 	 ubfx fp,r5,#16,#8
 1070 012e C5F30725 	 ubfx r5,r5,#8,#8
 1071              	.LVL111:
 1072 0132 5CF82BB0 	 ldr fp,[ip,fp,lsl#2]
 1073 0136 87EA0B07 	 eor r7,r7,fp
 1074              	.LVL112:
 1075 013a 5FFA86FB 	 uxtb fp,r6
 1076 013e 5EF82B60 	 ldr r6,[lr,fp,lsl#2]
 1077              	.LVL113:
 1078 0142 6640     	 eors r6,r6,r4
 1079 0144 51F8144C 	 ldr r4,[r1,#-20]
 1080 0148 7440     	 eors r4,r4,r6
 1081 014a 58F82560 	 ldr r6,[r8,r5,lsl#2]
 1082 014e 7440     	 eors r4,r4,r6
 1083 0150 5CF82360 	 ldr r6,[ip,r3,lsl#2]
 1084 0154 6640     	 eors r6,r6,r4
 1085              	.LVL114:
 885:C:/Users/Yushev/git/optiga-trust-qi/externals/mbedtls/library\aes.c ****         AES_FROUND( X0, X1, X2, X3, Y0, Y1, Y2, Y3 );
 1086              	 .loc 1 885 0 discriminator 3
 1087 0156 330E     	 lsrs r3,r6,#24
 1088 0158 5FFA89F4 	 uxtb r4,r9
 1089 015c 50F82330 	 ldr r3,[r0,r3,lsl#2]
 1090 0160 5EF82450 	 ldr r5,[lr,r4,lsl#2]
 1091 0164 CAF30724 	 ubfx r4,r10,#8,#8
 1092 0168 5D40     	 eors r5,r5,r3
 1093 016a 51F8103C 	 ldr r3,[r1,#-16]
 1094 016e 58F82440 	 ldr r4,[r8,r4,lsl#2]
 1095 0172 6B40     	 eors r3,r3,r5
 1096 0174 6340     	 eors r3,r3,r4
 1097 0176 C7F30744 	 ubfx r4,r7,#16,#8
 1098 017a 5FFA87FB 	 uxtb fp,r7
 1099 017e 5CF82450 	 ldr r5,[ip,r4,lsl#2]
 1100 0182 5EF82BB0 	 ldr fp,[lr,fp,lsl#2]
 1101 0186 5FFA8AF4 	 uxtb r4,r10
 1102 018a 5D40     	 eors r5,r5,r3
 1103              	.LVL115:
 1104 018c 4FEA1963 	 lsr r3,r9,#24
 1105 0190 5EF82440 	 ldr r4,[lr,r4,lsl#2]
 1106 0194 50F82330 	 ldr r3,[r0,r3,lsl#2]
 1107 0198 5C40     	 eors r4,r4,r3
 1108 019a 51F80C3C 	 ldr r3,[r1,#-12]
 1109 019e 6340     	 eors r3,r3,r4
 1110 01a0 C7F30724 	 ubfx r4,r7,#8,#8
 1111 01a4 3F0E     	 lsrs r7,r7,#24
 1112              	.LVL116:
 1113 01a6 58F82440 	 ldr r4,[r8,r4,lsl#2]
 1114 01aa 6340     	 eors r3,r3,r4
 1115 01ac C6F30744 	 ubfx r4,r6,#16,#8
 1116 01b0 5CF82440 	 ldr r4,[ip,r4,lsl#2]
 1117 01b4 6340     	 eors r3,r3,r4
 1118              	.LVL117:
 1119 01b6 4FEA1A64 	 lsr r4,r10,#24
 1120 01ba CAF3074A 	 ubfx r10,r10,#16,#8
 1121              	.LVL118:
 1122 01be 50F82440 	 ldr r4,[r0,r4,lsl#2]
 1123 01c2 8BEA040B 	 eor fp,fp,r4
 1124 01c6 51F8084C 	 ldr r4,[r1,#-8]
 1125 01ca 8BEA0404 	 eor r4,fp,r4
 1126 01ce C6F3072B 	 ubfx fp,r6,#8,#8
 1127 01d2 F6B2     	 uxtb r6,r6
 1128              	.LVL119:
 1129 01d4 58F82BB0 	 ldr fp,[r8,fp,lsl#2]
 1130 01d8 50F82700 	 ldr r0,[r0,r7,lsl#2]
 1131 01dc 5EF82660 	 ldr r6,[lr,r6,lsl#2]
 1132 01e0 84EA0B04 	 eor r4,r4,fp
 1133 01e4 C9F3074B 	 ubfx fp,r9,#16,#8
 1134 01e8 C9F30729 	 ubfx r9,r9,#8,#8
 1135              	.LVL120:
 1136 01ec 4640     	 eors r6,r6,r0
 1137 01ee 51F8040C 	 ldr r0,[r1,#-4]
 1138 01f2 58F82970 	 ldr r7,[r8,r9,lsl#2]
 1139 01f6 5CF82BB0 	 ldr fp,[ip,fp,lsl#2]
 1140 01fa 7040     	 eors r0,r0,r6
 1141 01fc 5CF82A60 	 ldr r6,[ip,r10,lsl#2]
 1142 0200 7840     	 eors r0,r0,r7
 1143 0202 4640     	 eors r6,r6,r0
 882:C:/Users/Yushev/git/optiga-trust-qi/externals/mbedtls/library\aes.c ****     {
 1144              	 .loc 1 882 0 discriminator 3
 1145 0204 0198     	 ldr r0,[sp,#4]
 1146 0206 0138     	 subs r0,r0,#1
 1147              	 .loc 1 885 0 discriminator 3
 1148 0208 84EA0B04 	 eor r4,r4,fp
 1149              	.LVL121:
 882:C:/Users/Yushev/git/optiga-trust-qi/externals/mbedtls/library\aes.c ****     {
 1150              	 .loc 1 882 0 discriminator 3
 1151 020c 0190     	 str r0,[sp,#4]
 1152              	.LVL122:
 1153 020e 33E7     	 b .L66
 1154              	.LVL123:
 1155              	.L68:
 1156 0210 50F82710 	 ldr r1,[r0,r7,lsl#2]
 1157 0214 5EF82CC0 	 ldr ip,[lr,ip,lsl#2]
 886:C:/Users/Yushev/git/optiga-trust-qi/externals/mbedtls/library\aes.c ****     }
 887:C:/Users/Yushev/git/optiga-trust-qi/externals/mbedtls/library\aes.c **** 
 888:C:/Users/Yushev/git/optiga-trust-qi/externals/mbedtls/library\aes.c ****     AES_FROUND( Y0, Y1, Y2, Y3, X0, X1, X2, X3 );
 1158              	 .loc 1 888 0
 1159 0218 DFF8A8A1 	 ldr r10,.L69+12
 1160 021c DFF8A891 	 ldr r9,.L69+16
 1161 0220 C3F30727 	 ubfx r7,r3,#8,#8
 1162 0224 8CEA010C 	 eor ip,ip,r1
 1163 0228 D8F80010 	 ldr r1,[r8]
 1164 022c 5AF82770 	 ldr r7,[r10,r7,lsl#2]
 1165 0230 8CEA0101 	 eor r1,ip,r1
 1166 0234 7940     	 eors r1,r1,r7
 1167 0236 C4F30747 	 ubfx r7,r4,#16,#8
 1168 023a 5FFA84FB 	 uxtb fp,r4
 1169 023e 59F82770 	 ldr r7,[r9,r7,lsl#2]
 1170 0242 5EF82BB0 	 ldr fp,[lr,fp,lsl#2]
 1171 0246 81EA070C 	 eor ip,r1,r7
 1172              	.LVL124:
 1173 024a DFB2     	 uxtb r7,r3
 1174 024c 290E     	 lsrs r1,r5,#24
 1175 024e 5EF82770 	 ldr r7,[lr,r7,lsl#2]
 1176 0252 50F82110 	 ldr r1,[r0,r1,lsl#2]
 1177 0256 4F40     	 eors r7,r7,r1
 1178 0258 D8F80410 	 ldr r1,[r8,#4]
 1179 025c 7940     	 eors r1,r1,r7
 1180 025e C4F30727 	 ubfx r7,r4,#8,#8
 1181 0262 240E     	 lsrs r4,r4,#24
 1182              	.LVL125:
 1183 0264 5AF82770 	 ldr r7,[r10,r7,lsl#2]
 1184 0268 7940     	 eors r1,r1,r7
 1185 026a C6F30747 	 ubfx r7,r6,#16,#8
 1186 026e 59F82770 	 ldr r7,[r9,r7,lsl#2]
 1187 0272 7940     	 eors r1,r1,r7
 1188              	.LVL126:
 1189 0274 1F0E     	 lsrs r7,r3,#24
 1190 0276 C3F30743 	 ubfx r3,r3,#16,#8
 1191              	.LVL127:
 1192 027a 50F82770 	 ldr r7,[r0,r7,lsl#2]
 1193 027e 50F82400 	 ldr r0,[r0,r4,lsl#2]
 1194 0282 59F82330 	 ldr r3,[r9,r3,lsl#2]
 1195 0286 8BEA070B 	 eor fp,fp,r7
 1196 028a D8F80870 	 ldr r7,[r8,#8]
 1197 028e 8BEA0707 	 eor r7,fp,r7
 1198 0292 C6F3072B 	 ubfx fp,r6,#8,#8
 1199 0296 F6B2     	 uxtb r6,r6
 1200              	.LVL128:
 1201 0298 5AF82BB0 	 ldr fp,[r10,fp,lsl#2]
 1202 029c 5EF82660 	 ldr r6,[lr,r6,lsl#2]
 1203 02a0 87EA0B07 	 eor r7,r7,fp
 1204 02a4 86EA0004 	 eor r4,r6,r0
 1205 02a8 C5F3074B 	 ubfx fp,r5,#16,#8
 1206 02ac D8F80C00 	 ldr r0,[r8,#12]
 1207 02b0 59F82BB0 	 ldr fp,[r9,fp,lsl#2]
 1208 02b4 C5F30725 	 ubfx r5,r5,#8,#8
 1209              	.LVL129:
 1210 02b8 6040     	 eors r0,r0,r4
 1211 02ba 5AF82540 	 ldr r4,[r10,r5,lsl#2]
 1212 02be 6040     	 eors r0,r0,r4
 1213 02c0 5840     	 eors r0,r0,r3
 889:C:/Users/Yushev/git/optiga-trust-qi/externals/mbedtls/library\aes.c **** 
 890:C:/Users/Yushev/git/optiga-trust-qi/externals/mbedtls/library\aes.c ****     X0 = *RK++ ^ \
 891:C:/Users/Yushev/git/optiga-trust-qi/externals/mbedtls/library\aes.c ****             ( (uint32_t) FSb[ ( Y0       ) & 0xFF ]       ) ^
 1214              	 .loc 1 891 0
 1215 02c2 5FFA8CF4 	 uxtb r4,ip
 1216 02c6 3D4B     	 ldr r3,.L69+4
 892:C:/Users/Yushev/git/optiga-trust-qi/externals/mbedtls/library\aes.c ****             ( (uint32_t) FSb[ ( Y1 >>  8 ) & 0xFF ] <<  8 ) ^
 893:C:/Users/Yushev/git/optiga-trust-qi/externals/mbedtls/library\aes.c ****             ( (uint32_t) FSb[ ( Y2 >> 16 ) & 0xFF ] << 16 ) ^
 894:C:/Users/Yushev/git/optiga-trust-qi/externals/mbedtls/library\aes.c ****             ( (uint32_t) FSb[ ( Y3 >> 24 ) & 0xFF ] << 24 );
 1217              	 .loc 1 894 0
 1218 02c8 050E     	 lsrs r5,r0,#24
 891:C:/Users/Yushev/git/optiga-trust-qi/externals/mbedtls/library\aes.c ****             ( (uint32_t) FSb[ ( Y1 >>  8 ) & 0xFF ] <<  8 ) ^
 1219              	 .loc 1 891 0
 1220 02ca 1E5D     	 ldrb r6,[r3,r4]
 1221 02cc D8F81040 	 ldr r4,[r8,#16]
 1222 02d0 7440     	 eors r4,r4,r6
 1223              	 .loc 1 894 0
 1224 02d2 5E5D     	 ldrb r6,[r3,r5]
 892:C:/Users/Yushev/git/optiga-trust-qi/externals/mbedtls/library\aes.c ****             ( (uint32_t) FSb[ ( Y1 >>  8 ) & 0xFF ] <<  8 ) ^
 1225              	 .loc 1 892 0
 1226 02d4 C1F30725 	 ubfx r5,r1,#8,#8
 888:C:/Users/Yushev/git/optiga-trust-qi/externals/mbedtls/library\aes.c **** 
 1227              	 .loc 1 888 0
 1228 02d8 87EA0B07 	 eor r7,r7,fp
 1229              	.LVL130:
 1230 02dc 84EA0664 	 eor r4,r4,r6,lsl#24
 892:C:/Users/Yushev/git/optiga-trust-qi/externals/mbedtls/library\aes.c ****             ( (uint32_t) FSb[ ( Y1 >>  8 ) & 0xFF ] <<  8 ) ^
 1231              	 .loc 1 892 0
 1232 02e0 5E5D     	 ldrb r6,[r3,r5]
 893:C:/Users/Yushev/git/optiga-trust-qi/externals/mbedtls/library\aes.c ****             ( (uint32_t) FSb[ ( Y3 >> 24 ) & 0xFF ] << 24 );
 1233              	 .loc 1 893 0
 1234 02e2 C7F30745 	 ubfx r5,r7,#16,#8
 1235 02e6 84EA0624 	 eor r4,r4,r6,lsl#8
 1236 02ea 5E5D     	 ldrb r6,[r3,r5]
 890:C:/Users/Yushev/git/optiga-trust-qi/externals/mbedtls/library\aes.c ****             ( (uint32_t) FSb[ ( Y0       ) & 0xFF ]       ) ^
 1237              	 .loc 1 890 0
 1238 02ec 84EA0646 	 eor r6,r4,r6,lsl#16
 1239              	.LVL131:
 895:C:/Users/Yushev/git/optiga-trust-qi/externals/mbedtls/library\aes.c **** 
 896:C:/Users/Yushev/git/optiga-trust-qi/externals/mbedtls/library\aes.c ****     X1 = *RK++ ^ \
 897:C:/Users/Yushev/git/optiga-trust-qi/externals/mbedtls/library\aes.c ****             ( (uint32_t) FSb[ ( Y1       ) & 0xFF ]       ) ^
 1240              	 .loc 1 897 0
 1241 02f0 CCB2     	 uxtb r4,r1
 1242 02f2 1D5D     	 ldrb r5,[r3,r4]
 1243 02f4 D8F81440 	 ldr r4,[r8,#20]
 1244 02f8 6C40     	 eors r4,r4,r5
 898:C:/Users/Yushev/git/optiga-trust-qi/externals/mbedtls/library\aes.c ****             ( (uint32_t) FSb[ ( Y2 >>  8 ) & 0xFF ] <<  8 ) ^
 899:C:/Users/Yushev/git/optiga-trust-qi/externals/mbedtls/library\aes.c ****             ( (uint32_t) FSb[ ( Y3 >> 16 ) & 0xFF ] << 16 ) ^
 900:C:/Users/Yushev/git/optiga-trust-qi/externals/mbedtls/library\aes.c ****             ( (uint32_t) FSb[ ( Y0 >> 24 ) & 0xFF ] << 24 );
 1245              	 .loc 1 900 0
 1246 02fa 4FEA1C65 	 lsr r5,ip,#24
 1247 02fe 5D5D     	 ldrb r5,[r3,r5]
 1248 0300 84EA0564 	 eor r4,r4,r5,lsl#24
 898:C:/Users/Yushev/git/optiga-trust-qi/externals/mbedtls/library\aes.c ****             ( (uint32_t) FSb[ ( Y2 >>  8 ) & 0xFF ] <<  8 ) ^
 1249              	 .loc 1 898 0
 1250 0304 C7F30725 	 ubfx r5,r7,#8,#8
 1251 0308 5D5D     	 ldrb r5,[r3,r5]
 1252 030a 84EA0524 	 eor r4,r4,r5,lsl#8
 899:C:/Users/Yushev/git/optiga-trust-qi/externals/mbedtls/library\aes.c ****             ( (uint32_t) FSb[ ( Y0 >> 24 ) & 0xFF ] << 24 );
 1253              	 .loc 1 899 0
 1254 030e C0F30745 	 ubfx r5,r0,#16,#8
 1255 0312 5D5D     	 ldrb r5,[r3,r5]
 896:C:/Users/Yushev/git/optiga-trust-qi/externals/mbedtls/library\aes.c ****             ( (uint32_t) FSb[ ( Y1       ) & 0xFF ]       ) ^
 1256              	 .loc 1 896 0
 1257 0314 84EA0545 	 eor r5,r4,r5,lsl#16
 1258              	.LVL132:
 901:C:/Users/Yushev/git/optiga-trust-qi/externals/mbedtls/library\aes.c **** 
 902:C:/Users/Yushev/git/optiga-trust-qi/externals/mbedtls/library\aes.c ****     X2 = *RK++ ^ \
 903:C:/Users/Yushev/git/optiga-trust-qi/externals/mbedtls/library\aes.c ****             ( (uint32_t) FSb[ ( Y2       ) & 0xFF ]       ) ^
 1259              	 .loc 1 903 0
 1260 0318 FCB2     	 uxtb r4,r7
 904:C:/Users/Yushev/git/optiga-trust-qi/externals/mbedtls/library\aes.c ****             ( (uint32_t) FSb[ ( Y3 >>  8 ) & 0xFF ] <<  8 ) ^
 905:C:/Users/Yushev/git/optiga-trust-qi/externals/mbedtls/library\aes.c ****             ( (uint32_t) FSb[ ( Y0 >> 16 ) & 0xFF ] << 16 ) ^
 906:C:/Users/Yushev/git/optiga-trust-qi/externals/mbedtls/library\aes.c ****             ( (uint32_t) FSb[ ( Y1 >> 24 ) & 0xFF ] << 24 );
 907:C:/Users/Yushev/git/optiga-trust-qi/externals/mbedtls/library\aes.c **** 
 908:C:/Users/Yushev/git/optiga-trust-qi/externals/mbedtls/library\aes.c ****     X3 = *RK++ ^ \
 909:C:/Users/Yushev/git/optiga-trust-qi/externals/mbedtls/library\aes.c ****             ( (uint32_t) FSb[ ( Y3       ) & 0xFF ]       ) ^
 910:C:/Users/Yushev/git/optiga-trust-qi/externals/mbedtls/library\aes.c ****             ( (uint32_t) FSb[ ( Y0 >>  8 ) & 0xFF ] <<  8 ) ^
 911:C:/Users/Yushev/git/optiga-trust-qi/externals/mbedtls/library\aes.c ****             ( (uint32_t) FSb[ ( Y1 >> 16 ) & 0xFF ] << 16 ) ^
 912:C:/Users/Yushev/git/optiga-trust-qi/externals/mbedtls/library\aes.c ****             ( (uint32_t) FSb[ ( Y2 >> 24 ) & 0xFF ] << 24 );
 1261              	 .loc 1 912 0
 1262 031a 3F0E     	 lsrs r7,r7,#24
 1263              	.LVL133:
 903:C:/Users/Yushev/git/optiga-trust-qi/externals/mbedtls/library\aes.c ****             ( (uint32_t) FSb[ ( Y3 >>  8 ) & 0xFF ] <<  8 ) ^
 1264              	 .loc 1 903 0
 1265 031c 13F804E0 	 ldrb lr,[r3,r4]
 1266 0320 D8F81840 	 ldr r4,[r8,#24]
 1267 0324 8EEA0404 	 eor r4,lr,r4
 906:C:/Users/Yushev/git/optiga-trust-qi/externals/mbedtls/library\aes.c **** 
 1268              	 .loc 1 906 0
 1269 0328 4FEA116E 	 lsr lr,r1,#24
 911:C:/Users/Yushev/git/optiga-trust-qi/externals/mbedtls/library\aes.c ****             ( (uint32_t) FSb[ ( Y2 >> 24 ) & 0xFF ] << 24 );
 1270              	 .loc 1 911 0
 1271 032c C1F30741 	 ubfx r1,r1,#16,#8
 1272              	.LVL134:
 906:C:/Users/Yushev/git/optiga-trust-qi/externals/mbedtls/library\aes.c **** 
 1273              	 .loc 1 906 0
 1274 0330 13F80EE0 	 ldrb lr,[r3,lr]
 1275 0334 84EA0E64 	 eor r4,r4,lr,lsl#24
 904:C:/Users/Yushev/git/optiga-trust-qi/externals/mbedtls/library\aes.c ****             ( (uint32_t) FSb[ ( Y0 >> 16 ) & 0xFF ] << 16 ) ^
 1276              	 .loc 1 904 0
 1277 0338 C0F3072E 	 ubfx lr,r0,#8,#8
 909:C:/Users/Yushev/git/optiga-trust-qi/externals/mbedtls/library\aes.c ****             ( (uint32_t) FSb[ ( Y0 >>  8 ) & 0xFF ] <<  8 ) ^
 1278              	 .loc 1 909 0
 1279 033c C0B2     	 uxtb r0,r0
 1280              	.LVL135:
 904:C:/Users/Yushev/git/optiga-trust-qi/externals/mbedtls/library\aes.c ****             ( (uint32_t) FSb[ ( Y0 >> 16 ) & 0xFF ] << 16 ) ^
 1281              	 .loc 1 904 0
 1282 033e 13F80EE0 	 ldrb lr,[r3,lr]
 1283              	 .loc 1 912 0
 1284 0342 DF5D     	 ldrb r7,[r3,r7]
 1285 0344 84EA0E24 	 eor r4,r4,lr,lsl#8
 905:C:/Users/Yushev/git/optiga-trust-qi/externals/mbedtls/library\aes.c ****             ( (uint32_t) FSb[ ( Y1 >> 24 ) & 0xFF ] << 24 );
 1286              	 .loc 1 905 0
 1287 0348 CCF3074E 	 ubfx lr,ip,#16,#8
 910:C:/Users/Yushev/git/optiga-trust-qi/externals/mbedtls/library\aes.c ****             ( (uint32_t) FSb[ ( Y1 >> 16 ) & 0xFF ] << 16 ) ^
 1288              	 .loc 1 910 0
 1289 034c CCF3072C 	 ubfx ip,ip,#8,#8
 1290              	.LVL136:
 905:C:/Users/Yushev/git/optiga-trust-qi/externals/mbedtls/library\aes.c ****             ( (uint32_t) FSb[ ( Y1 >> 24 ) & 0xFF ] << 24 );
 1291              	 .loc 1 905 0
 1292 0350 13F80EE0 	 ldrb lr,[r3,lr]
 902:C:/Users/Yushev/git/optiga-trust-qi/externals/mbedtls/library\aes.c ****             ( (uint32_t) FSb[ ( Y2       ) & 0xFF ]       ) ^
 1293              	 .loc 1 902 0
 1294 0354 84EA0E44 	 eor r4,r4,lr,lsl#16
 1295              	.LVL137:
 909:C:/Users/Yushev/git/optiga-trust-qi/externals/mbedtls/library\aes.c ****             ( (uint32_t) FSb[ ( Y0 >>  8 ) & 0xFF ] <<  8 ) ^
 1296              	 .loc 1 909 0
 1297 0358 13F800E0 	 ldrb lr,[r3,r0]
 1298 035c D8F81C00 	 ldr r0,[r8,#28]
 1299 0360 8EEA0000 	 eor r0,lr,r0
 1300 0364 80EA0760 	 eor r0,r0,r7,lsl#24
 910:C:/Users/Yushev/git/optiga-trust-qi/externals/mbedtls/library\aes.c ****             ( (uint32_t) FSb[ ( Y1 >> 16 ) & 0xFF ] << 16 ) ^
 1301              	 .loc 1 910 0
 1302 0368 13F80C70 	 ldrb r7,[r3,ip]
 911:C:/Users/Yushev/git/optiga-trust-qi/externals/mbedtls/library\aes.c ****             ( (uint32_t) FSb[ ( Y2 >> 24 ) & 0xFF ] << 24 );
 1303              	 .loc 1 911 0
 1304 036c 5B5C     	 ldrb r3,[r3,r1]
 913:C:/Users/Yushev/git/optiga-trust-qi/externals/mbedtls/library\aes.c **** 
 914:C:/Users/Yushev/git/optiga-trust-qi/externals/mbedtls/library\aes.c ****     PUT_UINT32_LE( X0, output,  0 );
 1305              	 .loc 1 914 0
 1306 036e 1670     	 strb r6,[r2]
 1307 0370 310A     	 lsrs r1,r6,#8
 1308 0372 5170     	 strb r1,[r2,#1]
 1309 0374 310C     	 lsrs r1,r6,#16
 1310 0376 9170     	 strb r1,[r2,#2]
 915:C:/Users/Yushev/git/optiga-trust-qi/externals/mbedtls/library\aes.c ****     PUT_UINT32_LE( X1, output,  4 );
 1311              	 .loc 1 915 0
 1312 0378 290A     	 lsrs r1,r5,#8
 1313 037a 5171     	 strb r1,[r2,#5]
 1314 037c 290C     	 lsrs r1,r5,#16
 1315 037e 80EA0720 	 eor r0,r0,r7,lsl#8
 1316 0382 9171     	 strb r1,[r2,#6]
 916:C:/Users/Yushev/git/optiga-trust-qi/externals/mbedtls/library\aes.c ****     PUT_UINT32_LE( X2, output,  8 );
 1317              	 .loc 1 916 0
 1318 0384 210A     	 lsrs r1,r4,#8
 908:C:/Users/Yushev/git/optiga-trust-qi/externals/mbedtls/library\aes.c ****             ( (uint32_t) FSb[ ( Y3       ) & 0xFF ]       ) ^
 1319              	 .loc 1 908 0
 1320 0386 80EA0343 	 eor r3,r0,r3,lsl#16
 1321              	.LVL138:
 1322              	 .loc 1 916 0
 1323 038a 5172     	 strb r1,[r2,#9]
 1324 038c 210C     	 lsrs r1,r4,#16
 1325 038e 9172     	 strb r1,[r2,#10]
 917:C:/Users/Yushev/git/optiga-trust-qi/externals/mbedtls/library\aes.c ****     PUT_UINT32_LE( X3, output, 12 );
 1326              	 .loc 1 917 0
 1327 0390 190A     	 lsrs r1,r3,#8
 914:C:/Users/Yushev/git/optiga-trust-qi/externals/mbedtls/library\aes.c ****     PUT_UINT32_LE( X1, output,  4 );
 1328              	 .loc 1 914 0
 1329 0392 360E     	 lsrs r6,r6,#24
 1330              	.LVL139:
 915:C:/Users/Yushev/git/optiga-trust-qi/externals/mbedtls/library\aes.c ****     PUT_UINT32_LE( X2, output,  8 );
 1331              	 .loc 1 915 0
 1332 0394 1571     	 strb r5,[r2,#4]
 916:C:/Users/Yushev/git/optiga-trust-qi/externals/mbedtls/library\aes.c ****     PUT_UINT32_LE( X3, output, 12 );
 1333              	 .loc 1 916 0
 1334 0396 1472     	 strb r4,[r2,#8]
 915:C:/Users/Yushev/git/optiga-trust-qi/externals/mbedtls/library\aes.c ****     PUT_UINT32_LE( X2, output,  8 );
 1335              	 .loc 1 915 0
 1336 0398 2D0E     	 lsrs r5,r5,#24
 1337              	.LVL140:
 916:C:/Users/Yushev/git/optiga-trust-qi/externals/mbedtls/library\aes.c ****     PUT_UINT32_LE( X3, output, 12 );
 1338              	 .loc 1 916 0
 1339 039a 240E     	 lsrs r4,r4,#24
 1340              	.LVL141:
 1341              	 .loc 1 917 0
 1342 039c 1373     	 strb r3,[r2,#12]
 1343 039e 5173     	 strb r1,[r2,#13]
 918:C:/Users/Yushev/git/optiga-trust-qi/externals/mbedtls/library\aes.c **** 
 919:C:/Users/Yushev/git/optiga-trust-qi/externals/mbedtls/library\aes.c ****     return( 0 );
 920:C:/Users/Yushev/git/optiga-trust-qi/externals/mbedtls/library\aes.c **** }
 1344              	 .loc 1 920 0
 1345 03a0 0020     	 movs r0,#0
 917:C:/Users/Yushev/git/optiga-trust-qi/externals/mbedtls/library\aes.c **** 
 1346              	 .loc 1 917 0
 1347 03a2 190C     	 lsrs r1,r3,#16
 1348 03a4 1B0E     	 lsrs r3,r3,#24
 1349              	.LVL142:
 914:C:/Users/Yushev/git/optiga-trust-qi/externals/mbedtls/library\aes.c ****     PUT_UINT32_LE( X1, output,  4 );
 1350              	 .loc 1 914 0
 1351 03a6 D670     	 strb r6,[r2,#3]
 915:C:/Users/Yushev/git/optiga-trust-qi/externals/mbedtls/library\aes.c ****     PUT_UINT32_LE( X2, output,  8 );
 1352              	 .loc 1 915 0
 1353 03a8 D571     	 strb r5,[r2,#7]
 916:C:/Users/Yushev/git/optiga-trust-qi/externals/mbedtls/library\aes.c ****     PUT_UINT32_LE( X3, output, 12 );
 1354              	 .loc 1 916 0
 1355 03aa D472     	 strb r4,[r2,#11]
 917:C:/Users/Yushev/git/optiga-trust-qi/externals/mbedtls/library\aes.c **** 
 1356              	 .loc 1 917 0
 1357 03ac 9173     	 strb r1,[r2,#14]
 1358 03ae D373     	 strb r3,[r2,#15]
 1359              	 .loc 1 920 0
 1360 03b0 03B0     	 add sp,sp,#12
 1361              	.LCFI8:
 1362              	 .cfi_def_cfa_offset 36
 1363              	 
 1364 03b2 BDE8F08F 	 pop {r4,r5,r6,r7,r8,r9,r10,fp,pc}
 1365              	.LVL143:
 1366              	.L70:
 1367 03b6 00BF     	 .align 2
 1368              	.L69:
 1369 03b8 00000000 	 .word .LANCHOR6
 1370 03bc 00000000 	 .word .LANCHOR1
 1371 03c0 00000000 	 .word .LANCHOR3
 1372 03c4 00000000 	 .word .LANCHOR4
 1373 03c8 00000000 	 .word .LANCHOR5
 1374              	 .cfi_endproc
 1375              	.LFE5:
 1377              	 .section .text.mbedtls_aes_encrypt,"ax",%progbits
 1378              	 .align 1
 1379              	 .global mbedtls_aes_encrypt
 1380              	 .thumb
 1381              	 .thumb_func
 1383              	mbedtls_aes_encrypt:
 1384              	.LFB6:
 921:C:/Users/Yushev/git/optiga-trust-qi/externals/mbedtls/library\aes.c **** #endif /* !MBEDTLS_AES_ENCRYPT_ALT */
 922:C:/Users/Yushev/git/optiga-trust-qi/externals/mbedtls/library\aes.c **** 
 923:C:/Users/Yushev/git/optiga-trust-qi/externals/mbedtls/library\aes.c **** #if !defined(MBEDTLS_DEPRECATED_REMOVED)
 924:C:/Users/Yushev/git/optiga-trust-qi/externals/mbedtls/library\aes.c **** void mbedtls_aes_encrypt( mbedtls_aes_context *ctx,
 925:C:/Users/Yushev/git/optiga-trust-qi/externals/mbedtls/library\aes.c ****                           const unsigned char input[16],
 926:C:/Users/Yushev/git/optiga-trust-qi/externals/mbedtls/library\aes.c ****                           unsigned char output[16] )
 927:C:/Users/Yushev/git/optiga-trust-qi/externals/mbedtls/library\aes.c **** {
 1385              	 .loc 1 927 0
 1386              	 .cfi_startproc
 1387              	 
 1388              	 
 1389              	 
 1390              	.LVL144:
 928:C:/Users/Yushev/git/optiga-trust-qi/externals/mbedtls/library\aes.c ****     mbedtls_internal_aes_encrypt( ctx, input, output );
 1391              	 .loc 1 928 0
 1392 0000 FFF7FEBF 	 b mbedtls_internal_aes_encrypt
 1393              	.LVL145:
 1394              	 .cfi_endproc
 1395              	.LFE6:
 1397              	 .section .text.mbedtls_internal_aes_decrypt,"ax",%progbits
 1398              	 .align 1
 1399              	 .global mbedtls_internal_aes_decrypt
 1400              	 .thumb
 1401              	 .thumb_func
 1403              	mbedtls_internal_aes_decrypt:
 1404              	.LFB7:
 929:C:/Users/Yushev/git/optiga-trust-qi/externals/mbedtls/library\aes.c **** }
 930:C:/Users/Yushev/git/optiga-trust-qi/externals/mbedtls/library\aes.c **** #endif /* !MBEDTLS_DEPRECATED_REMOVED */
 931:C:/Users/Yushev/git/optiga-trust-qi/externals/mbedtls/library\aes.c **** 
 932:C:/Users/Yushev/git/optiga-trust-qi/externals/mbedtls/library\aes.c **** /*
 933:C:/Users/Yushev/git/optiga-trust-qi/externals/mbedtls/library\aes.c ****  * AES-ECB block decryption
 934:C:/Users/Yushev/git/optiga-trust-qi/externals/mbedtls/library\aes.c ****  */
 935:C:/Users/Yushev/git/optiga-trust-qi/externals/mbedtls/library\aes.c **** #if !defined(MBEDTLS_AES_DECRYPT_ALT)
 936:C:/Users/Yushev/git/optiga-trust-qi/externals/mbedtls/library\aes.c **** int mbedtls_internal_aes_decrypt( mbedtls_aes_context *ctx,
 937:C:/Users/Yushev/git/optiga-trust-qi/externals/mbedtls/library\aes.c ****                                   const unsigned char input[16],
 938:C:/Users/Yushev/git/optiga-trust-qi/externals/mbedtls/library\aes.c ****                                   unsigned char output[16] )
 939:C:/Users/Yushev/git/optiga-trust-qi/externals/mbedtls/library\aes.c **** {
 1405              	 .loc 1 939 0
 1406              	 .cfi_startproc
 1407              	 
 1408              	 
 1409              	.LVL146:
 1410 0000 2DE9F74F 	 push {r0,r1,r2,r4,r5,r6,r7,r8,r9,r10,fp,lr}
 1411              	.LCFI9:
 1412              	 .cfi_def_cfa_offset 48
 1413              	 .cfi_offset 4,-36
 1414              	 .cfi_offset 5,-32
 1415              	 .cfi_offset 6,-28
 1416              	 .cfi_offset 7,-24
 1417              	 .cfi_offset 8,-20
 1418              	 .cfi_offset 9,-16
 1419              	 .cfi_offset 10,-12
 1420              	 .cfi_offset 11,-8
 1421              	 .cfi_offset 14,-4
 940:C:/Users/Yushev/git/optiga-trust-qi/externals/mbedtls/library\aes.c ****     int i;
 941:C:/Users/Yushev/git/optiga-trust-qi/externals/mbedtls/library\aes.c ****     uint32_t *RK, X0, X1, X2, X3, Y0, Y1, Y2, Y3;
 942:C:/Users/Yushev/git/optiga-trust-qi/externals/mbedtls/library\aes.c **** 
 943:C:/Users/Yushev/git/optiga-trust-qi/externals/mbedtls/library\aes.c ****     RK = ctx->rk;
 944:C:/Users/Yushev/git/optiga-trust-qi/externals/mbedtls/library\aes.c **** 
 945:C:/Users/Yushev/git/optiga-trust-qi/externals/mbedtls/library\aes.c ****     GET_UINT32_LE( X0, input,  0 ); X0 ^= *RK++;
 1422              	 .loc 1 945 0
 1423 0004 8D78     	 ldrb r5,[r1,#2]
 1424 0006 4B78     	 ldrb r3,[r1,#1]
 1425 0008 0C78     	 ldrb r4,[r1]
 943:C:/Users/Yushev/git/optiga-trust-qi/externals/mbedtls/library\aes.c **** 
 1426              	 .loc 1 943 0
 1427 000a 4668     	 ldr r6,[r0,#4]
 1428              	.LVL147:
 946:C:/Users/Yushev/git/optiga-trust-qi/externals/mbedtls/library\aes.c ****     GET_UINT32_LE( X1, input,  4 ); X1 ^= *RK++;
 1429              	 .loc 1 946 0
 1430 000c 0F79     	 ldrb r7,[r1,#4]
 947:C:/Users/Yushev/git/optiga-trust-qi/externals/mbedtls/library\aes.c ****     GET_UINT32_LE( X2, input,  8 ); X2 ^= *RK++;
 948:C:/Users/Yushev/git/optiga-trust-qi/externals/mbedtls/library\aes.c ****     GET_UINT32_LE( X3, input, 12 ); X3 ^= *RK++;
 1431              	 .loc 1 948 0
 1432 000e 91F80E80 	 ldrb r8,[r1,#14]
 945:C:/Users/Yushev/git/optiga-trust-qi/externals/mbedtls/library\aes.c ****     GET_UINT32_LE( X1, input,  4 ); X1 ^= *RK++;
 1433              	 .loc 1 945 0
 1434 0012 2D04     	 lsls r5,r5,#16
 1435 0014 45EA0325 	 orr r5,r5,r3,lsl#8
 1436 0018 CB78     	 ldrb r3,[r1,#3]
 1437 001a 2543     	 orrs r5,r5,r4
 1438 001c 45EA0363 	 orr r3,r5,r3,lsl#24
 1439              	.LVL148:
 1440 0020 3568     	 ldr r5,[r6]
 946:C:/Users/Yushev/git/optiga-trust-qi/externals/mbedtls/library\aes.c ****     GET_UINT32_LE( X1, input,  4 ); X1 ^= *RK++;
 1441              	 .loc 1 946 0
 1442 0022 8C79     	 ldrb r4,[r1,#6]
 945:C:/Users/Yushev/git/optiga-trust-qi/externals/mbedtls/library\aes.c ****     GET_UINT32_LE( X1, input,  4 ); X1 ^= *RK++;
 1443              	 .loc 1 945 0
 1444 0024 5D40     	 eors r5,r5,r3
 1445              	.LVL149:
 946:C:/Users/Yushev/git/optiga-trust-qi/externals/mbedtls/library\aes.c ****     GET_UINT32_LE( X1, input,  4 ); X1 ^= *RK++;
 1446              	 .loc 1 946 0
 1447 0026 4B79     	 ldrb r3,[r1,#5]
 1448 0028 2404     	 lsls r4,r4,#16
 1449 002a 44EA0324 	 orr r4,r4,r3,lsl#8
 1450 002e CB79     	 ldrb r3,[r1,#7]
 1451 0030 3C43     	 orrs r4,r4,r7
 1452 0032 44EA0363 	 orr r3,r4,r3,lsl#24
 1453              	.LVL150:
 1454 0036 7468     	 ldr r4,[r6,#4]
 947:C:/Users/Yushev/git/optiga-trust-qi/externals/mbedtls/library\aes.c ****     GET_UINT32_LE( X2, input,  8 ); X2 ^= *RK++;
 1455              	 .loc 1 947 0
 1456 0038 4F7A     	 ldrb r7,[r1,#9]
 946:C:/Users/Yushev/git/optiga-trust-qi/externals/mbedtls/library\aes.c ****     GET_UINT32_LE( X1, input,  4 ); X1 ^= *RK++;
 1457              	 .loc 1 946 0
 1458 003a 5C40     	 eors r4,r4,r3
 1459              	.LVL151:
 947:C:/Users/Yushev/git/optiga-trust-qi/externals/mbedtls/library\aes.c ****     GET_UINT32_LE( X2, input,  8 ); X2 ^= *RK++;
 1460              	 .loc 1 947 0
 1461 003c 8B7A     	 ldrb r3,[r1,#10]
 1462 003e 1B04     	 lsls r3,r3,#16
 1463 0040 43EA0723 	 orr r3,r3,r7,lsl#8
 1464 0044 0F7A     	 ldrb r7,[r1,#8]
 1465 0046 3B43     	 orrs r3,r3,r7
 1466 0048 CF7A     	 ldrb r7,[r1,#11]
 1467 004a 43EA0763 	 orr r3,r3,r7,lsl#24
 1468              	.LVL152:
 1469 004e B768     	 ldr r7,[r6,#8]
 1470 0050 7B40     	 eors r3,r3,r7
 1471              	.LVL153:
 1472              	 .loc 1 948 0
 1473 0052 4F7B     	 ldrb r7,[r1,#13]
 1474 0054 4FEA0848 	 lsl r8,r8,#16
 1475 0058 48EA0728 	 orr r8,r8,r7,lsl#8
 1476 005c 0F7B     	 ldrb r7,[r1,#12]
 1477 005e C97B     	 ldrb r1,[r1,#15]
 1478              	.LVL154:
 1479 0060 48EA0708 	 orr r8,r8,r7
 1480 0064 48EA0168 	 orr r8,r8,r1,lsl#24
 1481              	.LVL155:
 1482 0068 F168     	 ldr r1,[r6,#12]
 1483 006a 88EA0108 	 eor r8,r8,r1
 1484              	.LVL156:
 949:C:/Users/Yushev/git/optiga-trust-qi/externals/mbedtls/library\aes.c **** 
 950:C:/Users/Yushev/git/optiga-trust-qi/externals/mbedtls/library\aes.c ****     for( i = ( ctx->nr >> 1 ) - 1; i > 0; i-- )
 1485              	 .loc 1 950 0
 1486 006e 0168     	 ldr r1,[r0]
 1487 0070 4910     	 asrs r1,r1,#1
 1488 0072 0139     	 subs r1,r1,#1
 1489 0074 0191     	 str r1,[sp,#4]
 1490              	.LVL157:
 948:C:/Users/Yushev/git/optiga-trust-qi/externals/mbedtls/library\aes.c **** 
 1491              	 .loc 1 948 0
 1492 0076 06F11001 	 add r1,r6,#16
 1493              	.LVL158:
 1494              	.L73:
 1495              	 .loc 1 950 0 discriminator 1
 1496 007a 0198     	 ldr r0,[sp,#4]
 1497 007c D34E     	 ldr r6,.L76
 1498 007e 0028     	 cmp r0,#0
 1499 0080 8C46     	 mov ip,r1
 1500              	.LVL159:
 1501 0082 D348     	 ldr r0,.L76+4
 1502              	.LVL160:
 1503 0084 01F12001 	 add r1,r1,#32
 1504 0088 4FEA1467 	 lsr r7,r4,#24
 1505 008c 5FFA85FE 	 uxtb lr,r5
 1506 0090 40F3C680 	 ble .L75
 1507              	.LVL161:
 1508 0094 50F82790 	 ldr r9,[r0,r7,lsl#2]
 1509 0098 56F82E70 	 ldr r7,[r6,lr,lsl#2]
 951:C:/Users/Yushev/git/optiga-trust-qi/externals/mbedtls/library\aes.c ****     {
 952:C:/Users/Yushev/git/optiga-trust-qi/externals/mbedtls/library\aes.c ****         AES_RROUND( Y0, Y1, Y2, Y3, X0, X1, X2, X3 );
 1510              	 .loc 1 952 0 discriminator 3
 1511 009c DFF838C3 	 ldr ip,.L76+12
 1512              	.LVL162:
 1513 00a0 DFF838E3 	 ldr lr,.L76+16
 1514 00a4 89EA0709 	 eor r9,r9,r7
 1515 00a8 51F8207C 	 ldr r7,[r1,#-32]
 1516 00ac 89EA0709 	 eor r9,r9,r7
 1517 00b0 C8F30727 	 ubfx r7,r8,#8,#8
 1518 00b4 4FEA136A 	 lsr r10,r3,#24
 1519 00b8 5CF82770 	 ldr r7,[ip,r7,lsl#2]
 1520 00bc 50F82AA0 	 ldr r10,[r0,r10,lsl#2]
 1521 00c0 89EA0707 	 eor r7,r9,r7
 1522 00c4 C3F30749 	 ubfx r9,r3,#16,#8
 1523 00c8 4FEA186B 	 lsr fp,r8,#24
 1524 00cc 5EF82990 	 ldr r9,[lr,r9,lsl#2]
 1525 00d0 50F82BB0 	 ldr fp,[r0,fp,lsl#2]
 1526 00d4 87EA0909 	 eor r9,r7,r9
 1527              	.LVL163:
 1528 00d8 E7B2     	 uxtb r7,r4
 1529 00da 56F82770 	 ldr r7,[r6,r7,lsl#2]
 1530 00de 8AEA070A 	 eor r10,r10,r7
 1531 00e2 51F81C7C 	 ldr r7,[r1,#-28]
 1532 00e6 8AEA0707 	 eor r7,r10,r7
 1533 00ea C5F3072A 	 ubfx r10,r5,#8,#8
 1534 00ee 5CF82AA0 	 ldr r10,[ip,r10,lsl#2]
 1535 00f2 87EA0A07 	 eor r7,r7,r10
 1536 00f6 C8F3074A 	 ubfx r10,r8,#16,#8
 1537 00fa 5EF82AA0 	 ldr r10,[lr,r10,lsl#2]
 1538 00fe 87EA0A0A 	 eor r10,r7,r10
 1539              	.LVL164:
 1540 0102 DFB2     	 uxtb r7,r3
 1541 0104 C3F30723 	 ubfx r3,r3,#8,#8
 1542              	.LVL165:
 1543 0108 56F82770 	 ldr r7,[r6,r7,lsl#2]
 1544 010c 5CF82330 	 ldr r3,[ip,r3,lsl#2]
 1545 0110 8BEA070B 	 eor fp,fp,r7
 1546 0114 51F8187C 	 ldr r7,[r1,#-24]
 1547 0118 8BEA0707 	 eor r7,fp,r7
 1548 011c C4F3072B 	 ubfx fp,r4,#8,#8
 1549 0120 C4F30744 	 ubfx r4,r4,#16,#8
 1550              	.LVL166:
 1551 0124 5CF82BB0 	 ldr fp,[ip,fp,lsl#2]
 1552 0128 87EA0B07 	 eor r7,r7,fp
 1553 012c C5F3074B 	 ubfx fp,r5,#16,#8
 1554 0130 2D0E     	 lsrs r5,r5,#24
 1555              	.LVL167:
 1556 0132 5EF82BB0 	 ldr fp,[lr,fp,lsl#2]
 1557 0136 50F82550 	 ldr r5,[r0,r5,lsl#2]
 1558 013a 87EA0B07 	 eor r7,r7,fp
 1559              	.LVL168:
 1560 013e 5FFA88FB 	 uxtb fp,r8
 1561 0142 56F82B80 	 ldr r8,[r6,fp,lsl#2]
 1562              	.LVL169:
 1563 0146 85EA0808 	 eor r8,r5,r8
 1564 014a 51F8145C 	 ldr r5,[r1,#-20]
 1565 014e 88EA0505 	 eor r5,r8,r5
 1566 0152 5D40     	 eors r5,r5,r3
 1567 0154 5EF82430 	 ldr r3,[lr,r4,lsl#2]
 953:C:/Users/Yushev/git/optiga-trust-qi/externals/mbedtls/library\aes.c ****         AES_RROUND( X0, X1, X2, X3, Y0, Y1, Y2, Y3 );
 1568              	 .loc 1 953 0 discriminator 3
 1569 0158 5FFA89F4 	 uxtb r4,r9
 952:C:/Users/Yushev/git/optiga-trust-qi/externals/mbedtls/library\aes.c ****         AES_RROUND( X0, X1, X2, X3, Y0, Y1, Y2, Y3 );
 1570              	 .loc 1 952 0 discriminator 3
 1571 015c 85EA0308 	 eor r8,r5,r3
 1572              	.LVL170:
 1573              	 .loc 1 953 0 discriminator 3
 1574 0160 4FEA1A63 	 lsr r3,r10,#24
 1575 0164 56F82450 	 ldr r5,[r6,r4,lsl#2]
 1576 0168 50F82330 	 ldr r3,[r0,r3,lsl#2]
 1577 016c C8F30724 	 ubfx r4,r8,#8,#8
 1578 0170 5D40     	 eors r5,r5,r3
 1579 0172 51F8103C 	 ldr r3,[r1,#-16]
 1580 0176 5CF82440 	 ldr r4,[ip,r4,lsl#2]
 1581 017a 6B40     	 eors r3,r3,r5
 1582 017c 6340     	 eors r3,r3,r4
 1583 017e C7F30744 	 ubfx r4,r7,#16,#8
 1584 0182 5FFA87FB 	 uxtb fp,r7
 1585 0186 5EF82450 	 ldr r5,[lr,r4,lsl#2]
 1586 018a 56F82BB0 	 ldr fp,[r6,fp,lsl#2]
 1587 018e 5FFA8AF4 	 uxtb r4,r10
 1588 0192 5D40     	 eors r5,r5,r3
 1589              	.LVL171:
 1590 0194 3B0E     	 lsrs r3,r7,#24
 1591 0196 56F82440 	 ldr r4,[r6,r4,lsl#2]
 1592 019a 50F82330 	 ldr r3,[r0,r3,lsl#2]
 1593 019e 5C40     	 eors r4,r4,r3
 1594 01a0 51F80C3C 	 ldr r3,[r1,#-12]
 1595 01a4 6340     	 eors r3,r3,r4
 1596 01a6 C9F30724 	 ubfx r4,r9,#8,#8
 1597 01aa C7F30727 	 ubfx r7,r7,#8,#8
 1598              	.LVL172:
 1599 01ae 5CF82440 	 ldr r4,[ip,r4,lsl#2]
 1600 01b2 6340     	 eors r3,r3,r4
 1601 01b4 C8F30744 	 ubfx r4,r8,#16,#8
 1602 01b8 5EF82440 	 ldr r4,[lr,r4,lsl#2]
 1603 01bc 5C40     	 eors r4,r4,r3
 1604              	.LVL173:
 1605 01be 4FEA1863 	 lsr r3,r8,#24
 1606 01c2 5FFA88F8 	 uxtb r8,r8
 1607              	.LVL174:
 1608 01c6 50F82330 	 ldr r3,[r0,r3,lsl#2]
 1609 01ca 8BEA030B 	 eor fp,fp,r3
 1610 01ce 51F8083C 	 ldr r3,[r1,#-8]
 1611 01d2 8BEA0303 	 eor r3,fp,r3
 1612 01d6 CAF3072B 	 ubfx fp,r10,#8,#8
 1613 01da CAF3074A 	 ubfx r10,r10,#16,#8
 1614              	.LVL175:
 1615 01de 5CF82BB0 	 ldr fp,[ip,fp,lsl#2]
 1616 01e2 56F82860 	 ldr r6,[r6,r8,lsl#2]
 1617 01e6 83EA0B03 	 eor r3,r3,fp
 1618 01ea C9F3074B 	 ubfx fp,r9,#16,#8
 1619 01ee 4FEA1969 	 lsr r9,r9,#24
 1620              	.LVL176:
 1621 01f2 5EF82BB0 	 ldr fp,[lr,fp,lsl#2]
 1622 01f6 50F82900 	 ldr r0,[r0,r9,lsl#2]
 1623 01fa 86EA0008 	 eor r8,r6,r0
 1624 01fe 51F8040C 	 ldr r0,[r1,#-4]
 1625 0202 5CF82760 	 ldr r6,[ip,r7,lsl#2]
 1626 0206 88EA0000 	 eor r0,r8,r0
 1627 020a 7040     	 eors r0,r0,r6
 1628 020c 5EF82A60 	 ldr r6,[lr,r10,lsl#2]
 1629 0210 80EA0608 	 eor r8,r0,r6
 950:C:/Users/Yushev/git/optiga-trust-qi/externals/mbedtls/library\aes.c ****     {
 1630              	 .loc 1 950 0 discriminator 3
 1631 0214 0198     	 ldr r0,[sp,#4]
 1632 0216 0138     	 subs r0,r0,#1
 1633              	 .loc 1 953 0 discriminator 3
 1634 0218 83EA0B03 	 eor r3,r3,fp
 1635              	.LVL177:
 950:C:/Users/Yushev/git/optiga-trust-qi/externals/mbedtls/library\aes.c ****     {
 1636              	 .loc 1 950 0 discriminator 3
 1637 021c 0190     	 str r0,[sp,#4]
 1638              	.LVL178:
 1639 021e 2CE7     	 b .L73
 1640              	.LVL179:
 1641              	.L75:
 1642 0220 50F82710 	 ldr r1,[r0,r7,lsl#2]
 1643 0224 56F82EE0 	 ldr lr,[r6,lr,lsl#2]
 954:C:/Users/Yushev/git/optiga-trust-qi/externals/mbedtls/library\aes.c ****     }
 955:C:/Users/Yushev/git/optiga-trust-qi/externals/mbedtls/library\aes.c **** 
 956:C:/Users/Yushev/git/optiga-trust-qi/externals/mbedtls/library\aes.c ****     AES_RROUND( Y0, Y1, Y2, Y3, X0, X1, X2, X3 );
 1644              	 .loc 1 956 0
 1645 0228 DFF8ACA1 	 ldr r10,.L76+12
 1646 022c DFF8AC91 	 ldr r9,.L76+16
 1647 0230 C8F30727 	 ubfx r7,r8,#8,#8
 1648 0234 8EEA010E 	 eor lr,lr,r1
 1649 0238 DCF80010 	 ldr r1,[ip]
 1650 023c 5AF82770 	 ldr r7,[r10,r7,lsl#2]
 1651 0240 8EEA0101 	 eor r1,lr,r1
 1652 0244 7940     	 eors r1,r1,r7
 1653 0246 C3F30747 	 ubfx r7,r3,#16,#8
 1654 024a 5FFA83FB 	 uxtb fp,r3
 1655 024e 59F82770 	 ldr r7,[r9,r7,lsl#2]
 1656 0252 56F82BB0 	 ldr fp,[r6,fp,lsl#2]
 1657 0256 81EA070E 	 eor lr,r1,r7
 1658              	.LVL180:
 1659 025a E7B2     	 uxtb r7,r4
 1660 025c 190E     	 lsrs r1,r3,#24
 1661 025e 56F82770 	 ldr r7,[r6,r7,lsl#2]
 1662 0262 50F82110 	 ldr r1,[r0,r1,lsl#2]
 1663 0266 4F40     	 eors r7,r7,r1
 1664 0268 DCF80410 	 ldr r1,[ip,#4]
 1665 026c 7940     	 eors r1,r1,r7
 1666 026e C5F30727 	 ubfx r7,r5,#8,#8
 1667 0272 C3F30723 	 ubfx r3,r3,#8,#8
 1668              	.LVL181:
 1669 0276 5AF82770 	 ldr r7,[r10,r7,lsl#2]
 1670 027a 5AF82330 	 ldr r3,[r10,r3,lsl#2]
 1671 027e 7940     	 eors r1,r1,r7
 1672 0280 C8F30747 	 ubfx r7,r8,#16,#8
 1673 0284 59F82770 	 ldr r7,[r9,r7,lsl#2]
 1674 0288 7940     	 eors r1,r1,r7
 1675              	.LVL182:
 1676 028a 4FEA1867 	 lsr r7,r8,#24
 1677 028e 5FFA88F8 	 uxtb r8,r8
 1678              	.LVL183:
 1679 0292 50F82770 	 ldr r7,[r0,r7,lsl#2]
 1680 0296 56F82860 	 ldr r6,[r6,r8,lsl#2]
 1681 029a 8BEA070B 	 eor fp,fp,r7
 1682 029e DCF80870 	 ldr r7,[ip,#8]
 1683 02a2 8BEA0707 	 eor r7,fp,r7
 1684 02a6 C4F3072B 	 ubfx fp,r4,#8,#8
 1685 02aa C4F30744 	 ubfx r4,r4,#16,#8
 1686              	.LVL184:
 1687 02ae 5AF82BB0 	 ldr fp,[r10,fp,lsl#2]
 1688 02b2 87EA0B07 	 eor r7,r7,fp
 1689 02b6 C5F3074B 	 ubfx fp,r5,#16,#8
 1690 02ba 2D0E     	 lsrs r5,r5,#24
 1691              	.LVL185:
 1692 02bc 59F82BB0 	 ldr fp,[r9,fp,lsl#2]
 1693 02c0 50F82500 	 ldr r0,[r0,r5,lsl#2]
 1694 02c4 86EA0005 	 eor r5,r6,r0
 1695 02c8 DCF80C00 	 ldr r0,[ip,#12]
 1696 02cc 6840     	 eors r0,r0,r5
 1697 02ce 5840     	 eors r0,r0,r3
 1698 02d0 59F82430 	 ldr r3,[r9,r4,lsl#2]
 957:C:/Users/Yushev/git/optiga-trust-qi/externals/mbedtls/library\aes.c **** 
 958:C:/Users/Yushev/git/optiga-trust-qi/externals/mbedtls/library\aes.c ****     X0 = *RK++ ^ \
 959:C:/Users/Yushev/git/optiga-trust-qi/externals/mbedtls/library\aes.c ****             ( (uint32_t) RSb[ ( Y0       ) & 0xFF ]       ) ^
 1699              	 .loc 1 959 0
 1700 02d4 5FFA8EF4 	 uxtb r4,lr
 956:C:/Users/Yushev/git/optiga-trust-qi/externals/mbedtls/library\aes.c **** 
 1701              	 .loc 1 956 0
 1702 02d8 5840     	 eors r0,r0,r3
 1703              	 .loc 1 959 0
 1704 02da 3E4B     	 ldr r3,.L76+8
 960:C:/Users/Yushev/git/optiga-trust-qi/externals/mbedtls/library\aes.c ****             ( (uint32_t) RSb[ ( Y3 >>  8 ) & 0xFF ] <<  8 ) ^
 961:C:/Users/Yushev/git/optiga-trust-qi/externals/mbedtls/library\aes.c ****             ( (uint32_t) RSb[ ( Y2 >> 16 ) & 0xFF ] << 16 ) ^
 962:C:/Users/Yushev/git/optiga-trust-qi/externals/mbedtls/library\aes.c ****             ( (uint32_t) RSb[ ( Y1 >> 24 ) & 0xFF ] << 24 );
 1705              	 .loc 1 962 0
 1706 02dc 0D0E     	 lsrs r5,r1,#24
 959:C:/Users/Yushev/git/optiga-trust-qi/externals/mbedtls/library\aes.c ****             ( (uint32_t) RSb[ ( Y3 >>  8 ) & 0xFF ] <<  8 ) ^
 1707              	 .loc 1 959 0
 1708 02de 1E5D     	 ldrb r6,[r3,r4]
 1709 02e0 DCF81040 	 ldr r4,[ip,#16]
 1710 02e4 7440     	 eors r4,r4,r6
 1711              	 .loc 1 962 0
 1712 02e6 5E5D     	 ldrb r6,[r3,r5]
 960:C:/Users/Yushev/git/optiga-trust-qi/externals/mbedtls/library\aes.c ****             ( (uint32_t) RSb[ ( Y3 >>  8 ) & 0xFF ] <<  8 ) ^
 1713              	 .loc 1 960 0
 1714 02e8 C0F30725 	 ubfx r5,r0,#8,#8
 956:C:/Users/Yushev/git/optiga-trust-qi/externals/mbedtls/library\aes.c **** 
 1715              	 .loc 1 956 0
 1716 02ec 87EA0B07 	 eor r7,r7,fp
 1717              	.LVL186:
 1718 02f0 84EA0664 	 eor r4,r4,r6,lsl#24
 960:C:/Users/Yushev/git/optiga-trust-qi/externals/mbedtls/library\aes.c ****             ( (uint32_t) RSb[ ( Y3 >>  8 ) & 0xFF ] <<  8 ) ^
 1719              	 .loc 1 960 0
 1720 02f4 5E5D     	 ldrb r6,[r3,r5]
 961:C:/Users/Yushev/git/optiga-trust-qi/externals/mbedtls/library\aes.c ****             ( (uint32_t) RSb[ ( Y1 >> 24 ) & 0xFF ] << 24 );
 1721              	 .loc 1 961 0
 1722 02f6 C7F30745 	 ubfx r5,r7,#16,#8
 1723 02fa 84EA0624 	 eor r4,r4,r6,lsl#8
 1724 02fe 5E5D     	 ldrb r6,[r3,r5]
 958:C:/Users/Yushev/git/optiga-trust-qi/externals/mbedtls/library\aes.c ****             ( (uint32_t) RSb[ ( Y0       ) & 0xFF ]       ) ^
 1725              	 .loc 1 958 0
 1726 0300 84EA0646 	 eor r6,r4,r6,lsl#16
 1727              	.LVL187:
 963:C:/Users/Yushev/git/optiga-trust-qi/externals/mbedtls/library\aes.c **** 
 964:C:/Users/Yushev/git/optiga-trust-qi/externals/mbedtls/library\aes.c ****     X1 = *RK++ ^ \
 965:C:/Users/Yushev/git/optiga-trust-qi/externals/mbedtls/library\aes.c ****             ( (uint32_t) RSb[ ( Y1       ) & 0xFF ]       ) ^
 1728              	 .loc 1 965 0
 1729 0304 CCB2     	 uxtb r4,r1
 1730 0306 1D5D     	 ldrb r5,[r3,r4]
 1731 0308 DCF81440 	 ldr r4,[ip,#20]
 1732 030c 6C40     	 eors r4,r4,r5
 966:C:/Users/Yushev/git/optiga-trust-qi/externals/mbedtls/library\aes.c ****             ( (uint32_t) RSb[ ( Y0 >>  8 ) & 0xFF ] <<  8 ) ^
 967:C:/Users/Yushev/git/optiga-trust-qi/externals/mbedtls/library\aes.c ****             ( (uint32_t) RSb[ ( Y3 >> 16 ) & 0xFF ] << 16 ) ^
 968:C:/Users/Yushev/git/optiga-trust-qi/externals/mbedtls/library\aes.c ****             ( (uint32_t) RSb[ ( Y2 >> 24 ) & 0xFF ] << 24 );
 1733              	 .loc 1 968 0
 1734 030e 3D0E     	 lsrs r5,r7,#24
 1735 0310 5D5D     	 ldrb r5,[r3,r5]
 1736 0312 84EA0564 	 eor r4,r4,r5,lsl#24
 966:C:/Users/Yushev/git/optiga-trust-qi/externals/mbedtls/library\aes.c ****             ( (uint32_t) RSb[ ( Y0 >>  8 ) & 0xFF ] <<  8 ) ^
 1737              	 .loc 1 966 0
 1738 0316 CEF30725 	 ubfx r5,lr,#8,#8
 1739 031a 5D5D     	 ldrb r5,[r3,r5]
 1740 031c 84EA0524 	 eor r4,r4,r5,lsl#8
 967:C:/Users/Yushev/git/optiga-trust-qi/externals/mbedtls/library\aes.c ****             ( (uint32_t) RSb[ ( Y2 >> 24 ) & 0xFF ] << 24 );
 1741              	 .loc 1 967 0
 1742 0320 C0F30745 	 ubfx r5,r0,#16,#8
 1743 0324 5D5D     	 ldrb r5,[r3,r5]
 964:C:/Users/Yushev/git/optiga-trust-qi/externals/mbedtls/library\aes.c ****             ( (uint32_t) RSb[ ( Y1       ) & 0xFF ]       ) ^
 1744              	 .loc 1 964 0
 1745 0326 84EA0545 	 eor r5,r4,r5,lsl#16
 1746              	.LVL188:
 969:C:/Users/Yushev/git/optiga-trust-qi/externals/mbedtls/library\aes.c **** 
 970:C:/Users/Yushev/git/optiga-trust-qi/externals/mbedtls/library\aes.c ****     X2 = *RK++ ^ \
 971:C:/Users/Yushev/git/optiga-trust-qi/externals/mbedtls/library\aes.c ****             ( (uint32_t) RSb[ ( Y2       ) & 0xFF ]       ) ^
 1747              	 .loc 1 971 0
 1748 032a FCB2     	 uxtb r4,r7
 972:C:/Users/Yushev/git/optiga-trust-qi/externals/mbedtls/library\aes.c ****             ( (uint32_t) RSb[ ( Y1 >>  8 ) & 0xFF ] <<  8 ) ^
 973:C:/Users/Yushev/git/optiga-trust-qi/externals/mbedtls/library\aes.c ****             ( (uint32_t) RSb[ ( Y0 >> 16 ) & 0xFF ] << 16 ) ^
 974:C:/Users/Yushev/git/optiga-trust-qi/externals/mbedtls/library\aes.c ****             ( (uint32_t) RSb[ ( Y3 >> 24 ) & 0xFF ] << 24 );
 975:C:/Users/Yushev/git/optiga-trust-qi/externals/mbedtls/library\aes.c **** 
 976:C:/Users/Yushev/git/optiga-trust-qi/externals/mbedtls/library\aes.c ****     X3 = *RK++ ^ \
 977:C:/Users/Yushev/git/optiga-trust-qi/externals/mbedtls/library\aes.c ****             ( (uint32_t) RSb[ ( Y3       ) & 0xFF ]       ) ^
 978:C:/Users/Yushev/git/optiga-trust-qi/externals/mbedtls/library\aes.c ****             ( (uint32_t) RSb[ ( Y2 >>  8 ) & 0xFF ] <<  8 ) ^
 1749              	 .loc 1 978 0
 1750 032c C7F30727 	 ubfx r7,r7,#8,#8
 1751              	.LVL189:
 971:C:/Users/Yushev/git/optiga-trust-qi/externals/mbedtls/library\aes.c ****             ( (uint32_t) RSb[ ( Y1 >>  8 ) & 0xFF ] <<  8 ) ^
 1752              	 .loc 1 971 0
 1753 0330 13F80480 	 ldrb r8,[r3,r4]
 1754 0334 DCF81840 	 ldr r4,[ip,#24]
 1755 0338 88EA0404 	 eor r4,r8,r4
 974:C:/Users/Yushev/git/optiga-trust-qi/externals/mbedtls/library\aes.c **** 
 1756              	 .loc 1 974 0
 1757 033c 4FEA1068 	 lsr r8,r0,#24
 977:C:/Users/Yushev/git/optiga-trust-qi/externals/mbedtls/library\aes.c ****             ( (uint32_t) RSb[ ( Y2 >>  8 ) & 0xFF ] <<  8 ) ^
 1758              	 .loc 1 977 0
 1759 0340 C0B2     	 uxtb r0,r0
 1760              	.LVL190:
 974:C:/Users/Yushev/git/optiga-trust-qi/externals/mbedtls/library\aes.c **** 
 1761              	 .loc 1 974 0
 1762 0342 13F80880 	 ldrb r8,[r3,r8]
 1763 0346 84EA0864 	 eor r4,r4,r8,lsl#24
 972:C:/Users/Yushev/git/optiga-trust-qi/externals/mbedtls/library\aes.c ****             ( (uint32_t) RSb[ ( Y0 >> 16 ) & 0xFF ] << 16 ) ^
 1764              	 .loc 1 972 0
 1765 034a C1F30728 	 ubfx r8,r1,#8,#8
 979:C:/Users/Yushev/git/optiga-trust-qi/externals/mbedtls/library\aes.c ****             ( (uint32_t) RSb[ ( Y1 >> 16 ) & 0xFF ] << 16 ) ^
 1766              	 .loc 1 979 0
 1767 034e C1F30741 	 ubfx r1,r1,#16,#8
 1768              	.LVL191:
 972:C:/Users/Yushev/git/optiga-trust-qi/externals/mbedtls/library\aes.c ****             ( (uint32_t) RSb[ ( Y0 >> 16 ) & 0xFF ] << 16 ) ^
 1769              	 .loc 1 972 0
 1770 0352 13F80880 	 ldrb r8,[r3,r8]
 978:C:/Users/Yushev/git/optiga-trust-qi/externals/mbedtls/library\aes.c ****             ( (uint32_t) RSb[ ( Y1 >> 16 ) & 0xFF ] << 16 ) ^
 1771              	 .loc 1 978 0
 1772 0356 DF5D     	 ldrb r7,[r3,r7]
 1773 0358 84EA0824 	 eor r4,r4,r8,lsl#8
 973:C:/Users/Yushev/git/optiga-trust-qi/externals/mbedtls/library\aes.c ****             ( (uint32_t) RSb[ ( Y3 >> 24 ) & 0xFF ] << 24 );
 1774              	 .loc 1 973 0
 1775 035c CEF30748 	 ubfx r8,lr,#16,#8
 980:C:/Users/Yushev/git/optiga-trust-qi/externals/mbedtls/library\aes.c ****             ( (uint32_t) RSb[ ( Y0 >> 24 ) & 0xFF ] << 24 );
 1776              	 .loc 1 980 0
 1777 0360 4FEA1E6E 	 lsr lr,lr,#24
 1778              	.LVL192:
 973:C:/Users/Yushev/git/optiga-trust-qi/externals/mbedtls/library\aes.c ****             ( (uint32_t) RSb[ ( Y3 >> 24 ) & 0xFF ] << 24 );
 1779              	 .loc 1 973 0
 1780 0364 13F80880 	 ldrb r8,[r3,r8]
 1781              	 .loc 1 980 0
 1782 0368 13F80EE0 	 ldrb lr,[r3,lr]
 970:C:/Users/Yushev/git/optiga-trust-qi/externals/mbedtls/library\aes.c ****             ( (uint32_t) RSb[ ( Y2       ) & 0xFF ]       ) ^
 1783              	 .loc 1 970 0
 1784 036c 84EA0844 	 eor r4,r4,r8,lsl#16
 1785              	.LVL193:
 977:C:/Users/Yushev/git/optiga-trust-qi/externals/mbedtls/library\aes.c ****             ( (uint32_t) RSb[ ( Y2 >>  8 ) & 0xFF ] <<  8 ) ^
 1786              	 .loc 1 977 0
 1787 0370 13F80080 	 ldrb r8,[r3,r0]
 979:C:/Users/Yushev/git/optiga-trust-qi/externals/mbedtls/library\aes.c ****             ( (uint32_t) RSb[ ( Y0 >> 24 ) & 0xFF ] << 24 );
 1788              	 .loc 1 979 0
 1789 0374 5B5C     	 ldrb r3,[r3,r1]
 1790 0376 DCF81C00 	 ldr r0,[ip,#28]
 981:C:/Users/Yushev/git/optiga-trust-qi/externals/mbedtls/library\aes.c **** 
 982:C:/Users/Yushev/git/optiga-trust-qi/externals/mbedtls/library\aes.c ****     PUT_UINT32_LE( X0, output,  0 );
 1791              	 .loc 1 982 0
 1792 037a 1670     	 strb r6,[r2]
 1793 037c 310A     	 lsrs r1,r6,#8
 1794 037e 5170     	 strb r1,[r2,#1]
 1795 0380 310C     	 lsrs r1,r6,#16
 1796 0382 88EA0000 	 eor r0,r8,r0
 1797 0386 9170     	 strb r1,[r2,#2]
 983:C:/Users/Yushev/git/optiga-trust-qi/externals/mbedtls/library\aes.c ****     PUT_UINT32_LE( X1, output,  4 );
 1798              	 .loc 1 983 0
 1799 0388 290A     	 lsrs r1,r5,#8
 1800 038a 80EA0E60 	 eor r0,r0,lr,lsl#24
 1801 038e 5171     	 strb r1,[r2,#5]
 1802 0390 290C     	 lsrs r1,r5,#16
 1803 0392 80EA0720 	 eor r0,r0,r7,lsl#8
 1804 0396 9171     	 strb r1,[r2,#6]
 984:C:/Users/Yushev/git/optiga-trust-qi/externals/mbedtls/library\aes.c ****     PUT_UINT32_LE( X2, output,  8 );
 1805              	 .loc 1 984 0
 1806 0398 210A     	 lsrs r1,r4,#8
 976:C:/Users/Yushev/git/optiga-trust-qi/externals/mbedtls/library\aes.c ****             ( (uint32_t) RSb[ ( Y3       ) & 0xFF ]       ) ^
 1807              	 .loc 1 976 0
 1808 039a 80EA0343 	 eor r3,r0,r3,lsl#16
 1809              	.LVL194:
 1810              	 .loc 1 984 0
 1811 039e 5172     	 strb r1,[r2,#9]
 1812 03a0 210C     	 lsrs r1,r4,#16
 1813 03a2 9172     	 strb r1,[r2,#10]
 985:C:/Users/Yushev/git/optiga-trust-qi/externals/mbedtls/library\aes.c ****     PUT_UINT32_LE( X3, output, 12 );
 1814              	 .loc 1 985 0
 1815 03a4 190A     	 lsrs r1,r3,#8
 982:C:/Users/Yushev/git/optiga-trust-qi/externals/mbedtls/library\aes.c ****     PUT_UINT32_LE( X1, output,  4 );
 1816              	 .loc 1 982 0
 1817 03a6 360E     	 lsrs r6,r6,#24
 1818              	.LVL195:
 983:C:/Users/Yushev/git/optiga-trust-qi/externals/mbedtls/library\aes.c ****     PUT_UINT32_LE( X2, output,  8 );
 1819              	 .loc 1 983 0
 1820 03a8 1571     	 strb r5,[r2,#4]
 984:C:/Users/Yushev/git/optiga-trust-qi/externals/mbedtls/library\aes.c ****     PUT_UINT32_LE( X3, output, 12 );
 1821              	 .loc 1 984 0
 1822 03aa 1472     	 strb r4,[r2,#8]
 983:C:/Users/Yushev/git/optiga-trust-qi/externals/mbedtls/library\aes.c ****     PUT_UINT32_LE( X2, output,  8 );
 1823              	 .loc 1 983 0
 1824 03ac 2D0E     	 lsrs r5,r5,#24
 1825              	.LVL196:
 984:C:/Users/Yushev/git/optiga-trust-qi/externals/mbedtls/library\aes.c ****     PUT_UINT32_LE( X3, output, 12 );
 1826              	 .loc 1 984 0
 1827 03ae 240E     	 lsrs r4,r4,#24
 1828              	.LVL197:
 1829              	 .loc 1 985 0
 1830 03b0 1373     	 strb r3,[r2,#12]
 1831 03b2 5173     	 strb r1,[r2,#13]
 986:C:/Users/Yushev/git/optiga-trust-qi/externals/mbedtls/library\aes.c **** 
 987:C:/Users/Yushev/git/optiga-trust-qi/externals/mbedtls/library\aes.c ****     return( 0 );
 988:C:/Users/Yushev/git/optiga-trust-qi/externals/mbedtls/library\aes.c **** }
 1832              	 .loc 1 988 0
 1833 03b4 0020     	 movs r0,#0
 985:C:/Users/Yushev/git/optiga-trust-qi/externals/mbedtls/library\aes.c **** 
 1834              	 .loc 1 985 0
 1835 03b6 190C     	 lsrs r1,r3,#16
 1836 03b8 1B0E     	 lsrs r3,r3,#24
 1837              	.LVL198:
 982:C:/Users/Yushev/git/optiga-trust-qi/externals/mbedtls/library\aes.c ****     PUT_UINT32_LE( X1, output,  4 );
 1838              	 .loc 1 982 0
 1839 03ba D670     	 strb r6,[r2,#3]
 983:C:/Users/Yushev/git/optiga-trust-qi/externals/mbedtls/library\aes.c ****     PUT_UINT32_LE( X2, output,  8 );
 1840              	 .loc 1 983 0
 1841 03bc D571     	 strb r5,[r2,#7]
 984:C:/Users/Yushev/git/optiga-trust-qi/externals/mbedtls/library\aes.c ****     PUT_UINT32_LE( X3, output, 12 );
 1842              	 .loc 1 984 0
 1843 03be D472     	 strb r4,[r2,#11]
 985:C:/Users/Yushev/git/optiga-trust-qi/externals/mbedtls/library\aes.c **** 
 1844              	 .loc 1 985 0
 1845 03c0 9173     	 strb r1,[r2,#14]
 1846 03c2 D373     	 strb r3,[r2,#15]
 1847              	 .loc 1 988 0
 1848 03c4 03B0     	 add sp,sp,#12
 1849              	.LCFI10:
 1850              	 .cfi_def_cfa_offset 36
 1851              	 
 1852 03c6 BDE8F08F 	 pop {r4,r5,r6,r7,r8,r9,r10,fp,pc}
 1853              	.LVL199:
 1854              	.L77:
 1855 03ca 00BF     	 .align 2
 1856              	.L76:
 1857 03cc 00000000 	 .word .LANCHOR7
 1858 03d0 00000000 	 .word .LANCHOR10
 1859 03d4 00000000 	 .word .LANCHOR2
 1860 03d8 00000000 	 .word .LANCHOR8
 1861 03dc 00000000 	 .word .LANCHOR9
 1862              	 .cfi_endproc
 1863              	.LFE7:
 1865              	 .section .text.mbedtls_aes_decrypt,"ax",%progbits
 1866              	 .align 1
 1867              	 .global mbedtls_aes_decrypt
 1868              	 .thumb
 1869              	 .thumb_func
 1871              	mbedtls_aes_decrypt:
 1872              	.LFB8:
 989:C:/Users/Yushev/git/optiga-trust-qi/externals/mbedtls/library\aes.c **** #endif /* !MBEDTLS_AES_DECRYPT_ALT */
 990:C:/Users/Yushev/git/optiga-trust-qi/externals/mbedtls/library\aes.c **** 
 991:C:/Users/Yushev/git/optiga-trust-qi/externals/mbedtls/library\aes.c **** #if !defined(MBEDTLS_DEPRECATED_REMOVED)
 992:C:/Users/Yushev/git/optiga-trust-qi/externals/mbedtls/library\aes.c **** void mbedtls_aes_decrypt( mbedtls_aes_context *ctx,
 993:C:/Users/Yushev/git/optiga-trust-qi/externals/mbedtls/library\aes.c ****                           const unsigned char input[16],
 994:C:/Users/Yushev/git/optiga-trust-qi/externals/mbedtls/library\aes.c ****                           unsigned char output[16] )
 995:C:/Users/Yushev/git/optiga-trust-qi/externals/mbedtls/library\aes.c **** {
 1873              	 .loc 1 995 0
 1874              	 .cfi_startproc
 1875              	 
 1876              	 
 1877              	 
 1878              	.LVL200:
 996:C:/Users/Yushev/git/optiga-trust-qi/externals/mbedtls/library\aes.c ****     mbedtls_internal_aes_decrypt( ctx, input, output );
 1879              	 .loc 1 996 0
 1880 0000 FFF7FEBF 	 b mbedtls_internal_aes_decrypt
 1881              	.LVL201:
 1882              	 .cfi_endproc
 1883              	.LFE8:
 1885              	 .section .text.mbedtls_aes_crypt_ecb,"ax",%progbits
 1886              	 .align 1
 1887              	 .global mbedtls_aes_crypt_ecb
 1888              	 .thumb
 1889              	 .thumb_func
 1891              	mbedtls_aes_crypt_ecb:
 1892              	.LFB9:
 997:C:/Users/Yushev/git/optiga-trust-qi/externals/mbedtls/library\aes.c **** }
 998:C:/Users/Yushev/git/optiga-trust-qi/externals/mbedtls/library\aes.c **** #endif /* !MBEDTLS_DEPRECATED_REMOVED */
 999:C:/Users/Yushev/git/optiga-trust-qi/externals/mbedtls/library\aes.c **** 
1000:C:/Users/Yushev/git/optiga-trust-qi/externals/mbedtls/library\aes.c **** /*
1001:C:/Users/Yushev/git/optiga-trust-qi/externals/mbedtls/library\aes.c ****  * AES-ECB block encryption/decryption
1002:C:/Users/Yushev/git/optiga-trust-qi/externals/mbedtls/library\aes.c ****  */
1003:C:/Users/Yushev/git/optiga-trust-qi/externals/mbedtls/library\aes.c **** int mbedtls_aes_crypt_ecb( mbedtls_aes_context *ctx,
1004:C:/Users/Yushev/git/optiga-trust-qi/externals/mbedtls/library\aes.c ****                            int mode,
1005:C:/Users/Yushev/git/optiga-trust-qi/externals/mbedtls/library\aes.c ****                            const unsigned char input[16],
1006:C:/Users/Yushev/git/optiga-trust-qi/externals/mbedtls/library\aes.c ****                            unsigned char output[16] )
1007:C:/Users/Yushev/git/optiga-trust-qi/externals/mbedtls/library\aes.c **** {
 1893              	 .loc 1 1007 0
 1894              	 .cfi_startproc
 1895              	 
 1896              	 
 1897              	 
 1898              	.LVL202:
1008:C:/Users/Yushev/git/optiga-trust-qi/externals/mbedtls/library\aes.c ****     AES_VALIDATE_RET( ctx != NULL );
1009:C:/Users/Yushev/git/optiga-trust-qi/externals/mbedtls/library\aes.c ****     AES_VALIDATE_RET( input != NULL );
1010:C:/Users/Yushev/git/optiga-trust-qi/externals/mbedtls/library\aes.c ****     AES_VALIDATE_RET( output != NULL );
1011:C:/Users/Yushev/git/optiga-trust-qi/externals/mbedtls/library\aes.c ****     AES_VALIDATE_RET( mode == MBEDTLS_AES_ENCRYPT ||
1012:C:/Users/Yushev/git/optiga-trust-qi/externals/mbedtls/library\aes.c ****                       mode == MBEDTLS_AES_DECRYPT );
1013:C:/Users/Yushev/git/optiga-trust-qi/externals/mbedtls/library\aes.c **** 
1014:C:/Users/Yushev/git/optiga-trust-qi/externals/mbedtls/library\aes.c **** #if defined(MBEDTLS_AESNI_C) && defined(MBEDTLS_HAVE_X86_64)
1015:C:/Users/Yushev/git/optiga-trust-qi/externals/mbedtls/library\aes.c ****     if( mbedtls_aesni_has_support( MBEDTLS_AESNI_AES ) )
1016:C:/Users/Yushev/git/optiga-trust-qi/externals/mbedtls/library\aes.c ****         return( mbedtls_aesni_crypt_ecb( ctx, mode, input, output ) );
1017:C:/Users/Yushev/git/optiga-trust-qi/externals/mbedtls/library\aes.c **** #endif
1018:C:/Users/Yushev/git/optiga-trust-qi/externals/mbedtls/library\aes.c **** 
1019:C:/Users/Yushev/git/optiga-trust-qi/externals/mbedtls/library\aes.c **** #if defined(MBEDTLS_PADLOCK_C) && defined(MBEDTLS_HAVE_X86)
1020:C:/Users/Yushev/git/optiga-trust-qi/externals/mbedtls/library\aes.c ****     if( aes_padlock_ace )
1021:C:/Users/Yushev/git/optiga-trust-qi/externals/mbedtls/library\aes.c ****     {
1022:C:/Users/Yushev/git/optiga-trust-qi/externals/mbedtls/library\aes.c ****         if( mbedtls_padlock_xcryptecb( ctx, mode, input, output ) == 0 )
1023:C:/Users/Yushev/git/optiga-trust-qi/externals/mbedtls/library\aes.c ****             return( 0 );
1024:C:/Users/Yushev/git/optiga-trust-qi/externals/mbedtls/library\aes.c **** 
1025:C:/Users/Yushev/git/optiga-trust-qi/externals/mbedtls/library\aes.c ****         // If padlock data misaligned, we just fall back to
1026:C:/Users/Yushev/git/optiga-trust-qi/externals/mbedtls/library\aes.c ****         // unaccelerated mode
1027:C:/Users/Yushev/git/optiga-trust-qi/externals/mbedtls/library\aes.c ****         //
1028:C:/Users/Yushev/git/optiga-trust-qi/externals/mbedtls/library\aes.c ****     }
1029:C:/Users/Yushev/git/optiga-trust-qi/externals/mbedtls/library\aes.c **** #endif
1030:C:/Users/Yushev/git/optiga-trust-qi/externals/mbedtls/library\aes.c **** 
1031:C:/Users/Yushev/git/optiga-trust-qi/externals/mbedtls/library\aes.c ****     if( mode == MBEDTLS_AES_ENCRYPT )
 1899              	 .loc 1 1031 0
 1900 0000 0129     	 cmp r1,#1
1032:C:/Users/Yushev/git/optiga-trust-qi/externals/mbedtls/library\aes.c ****         return( mbedtls_internal_aes_encrypt( ctx, input, output ) );
 1901              	 .loc 1 1032 0
 1902 0002 1146     	 mov r1,r2
 1903              	.LVL203:
 1904 0004 1A46     	 mov r2,r3
 1905              	.LVL204:
1031:C:/Users/Yushev/git/optiga-trust-qi/externals/mbedtls/library\aes.c ****         return( mbedtls_internal_aes_encrypt( ctx, input, output ) );
 1906              	 .loc 1 1031 0
 1907 0006 01D1     	 bne .L80
 1908              	 .loc 1 1032 0
 1909 0008 FFF7FEBF 	 b mbedtls_internal_aes_encrypt
 1910              	.LVL205:
 1911              	.L80:
1033:C:/Users/Yushev/git/optiga-trust-qi/externals/mbedtls/library\aes.c ****     else
1034:C:/Users/Yushev/git/optiga-trust-qi/externals/mbedtls/library\aes.c ****         return( mbedtls_internal_aes_decrypt( ctx, input, output ) );
 1912              	 .loc 1 1034 0
 1913 000c FFF7FEBF 	 b mbedtls_internal_aes_decrypt
 1914              	.LVL206:
 1915              	 .cfi_endproc
 1916              	.LFE9:
 1918              	 .section .bss.FT0,"aw",%nobits
 1919              	 .align 2
 1920              	 .set .LANCHOR3,.+0
 1923              	FT0:
 1924 0000 00000000 	 .space 1024
 1924      00000000 
 1924      00000000 
 1924      00000000 
 1924      00000000 
 1925              	 .section .bss.FT1,"aw",%nobits
 1926              	 .align 2
 1927              	 .set .LANCHOR4,.+0
 1930              	FT1:
 1931 0000 00000000 	 .space 1024
 1931      00000000 
 1931      00000000 
 1931      00000000 
 1931      00000000 
 1932              	 .section .bss.FT2,"aw",%nobits
 1933              	 .align 2
 1934              	 .set .LANCHOR5,.+0
 1937              	FT2:
 1938 0000 00000000 	 .space 1024
 1938      00000000 
 1938      00000000 
 1938      00000000 
 1938      00000000 
 1939              	 .section .bss.FT3,"aw",%nobits
 1940              	 .align 2
 1941              	 .set .LANCHOR6,.+0
 1944              	FT3:
 1945 0000 00000000 	 .space 1024
 1945      00000000 
 1945      00000000 
 1945      00000000 
 1945      00000000 
 1946              	 .section .bss.RCON,"aw",%nobits
 1947              	 .align 2
 1948              	 .set .LANCHOR0,.+0
 1951              	RCON:
 1952 0000 00000000 	 .space 40
 1952      00000000 
 1952      00000000 
 1952      00000000 
 1952      00000000 
 1953              	 .section .bss.aes_init_done,"aw",%nobits
 1954              	 .align 2
 1955              	 .set .LANCHOR11,.+0
 1958              	aes_init_done:
 1959 0000 00000000 	 .space 4
 1960              	 .section .bss.FSb,"aw",%nobits
 1961              	 .set .LANCHOR1,.+0
 1964              	FSb:
 1965 0000 00000000 	 .space 256
 1965      00000000 
 1965      00000000 
 1965      00000000 
 1965      00000000 
 1966              	 .section .bss.RT0,"aw",%nobits
 1967              	 .align 2
 1968              	 .set .LANCHOR7,.+0
 1971              	RT0:
 1972 0000 00000000 	 .space 1024
 1972      00000000 
 1972      00000000 
 1972      00000000 
 1972      00000000 
 1973              	 .section .bss.RT1,"aw",%nobits
 1974              	 .align 2
 1975              	 .set .LANCHOR8,.+0
 1978              	RT1:
 1979 0000 00000000 	 .space 1024
 1979      00000000 
 1979      00000000 
 1979      00000000 
 1979      00000000 
 1980              	 .section .bss.RT2,"aw",%nobits
 1981              	 .align 2
 1982              	 .set .LANCHOR9,.+0
 1985              	RT2:
 1986 0000 00000000 	 .space 1024
 1986      00000000 
 1986      00000000 
 1986      00000000 
 1986      00000000 
 1987              	 .section .bss.RSb,"aw",%nobits
 1988              	 .set .LANCHOR2,.+0
 1991              	RSb:
 1992 0000 00000000 	 .space 256
 1992      00000000 
 1992      00000000 
 1992      00000000 
 1992      00000000 
 1993              	 .section .bss.RT3,"aw",%nobits
 1994              	 .align 2
 1995              	 .set .LANCHOR10,.+0
 1998              	RT3:
 1999 0000 00000000 	 .space 1024
 1999      00000000 
 1999      00000000 
 1999      00000000 
 1999      00000000 
 2000              	 .text
 2001              	.Letext0:
 2002              	 .file 2 "c:\\users\\yushev\\dave_4-4-2_32bit_2018-02-23\\dave-ide-4.4.2-32bit\\eclipse\\arm-gcc-49\\lib\\gcc\\arm-none-eabi\\4.9.3\\include\\stddef.h"
 2003              	 .file 3 "c:\\users\\yushev\\dave_4-4-2_32bit_2018-02-23\\dave-ide-4.4.2-32bit\\eclipse\\arm-gcc-49\\arm-none-eabi\\include\\machine\\_default_types.h"
 2004              	 .file 4 "c:\\users\\yushev\\dave_4-4-2_32bit_2018-02-23\\dave-ide-4.4.2-32bit\\eclipse\\arm-gcc-49\\arm-none-eabi\\include\\stdint.h"
 2005              	 .file 5 "C:/Users/Yushev/git/optiga-trust-qi/externals/mbedtls/include/mbedtls/aes.h"
 2006              	 .file 6 "C:/Users/Yushev/git/optiga-trust-qi/externals/mbedtls/include/mbedtls/platform_util.h"