   1              	 .syntax unified
   2              	 .cpu cortex-m4
   3              	 .eabi_attribute 27,3
   4              	 .fpu fpv4-sp-d16
   5              	 .eabi_attribute 20,1
   6              	 .eabi_attribute 21,1
   7              	 .eabi_attribute 23,3
   8              	 .eabi_attribute 24,1
   9              	 .eabi_attribute 25,1
  10              	 .eabi_attribute 26,1
  11              	 .eabi_attribute 30,4
  12              	 .eabi_attribute 34,1
  13              	 .eabi_attribute 18,4
  14              	 .thumb
  15              	 .file "cipher_wrap.c"
  16              	 .text
  17              	.Ltext0:
  18              	 .cfi_sections .debug_frame
  19              	 .section .text.ccm_ctx_free,"ax",%progbits
  20              	 .align 1
  21              	 .thumb
  22              	 .thumb_func
  24              	ccm_ctx_free:
  25              	.LFB8:
  26              	 .file 1 "C:/Users/Yushev/git/optiga-trust-qi/externals/mbedtls/library/cipher_wrap.c"
   1:C:/Users/Yushev/git/optiga-trust-qi/externals/mbedtls/library\cipher_wrap.c **** /**
   2:C:/Users/Yushev/git/optiga-trust-qi/externals/mbedtls/library\cipher_wrap.c ****  * \file cipher_wrap.c
   3:C:/Users/Yushev/git/optiga-trust-qi/externals/mbedtls/library\cipher_wrap.c ****  *
   4:C:/Users/Yushev/git/optiga-trust-qi/externals/mbedtls/library\cipher_wrap.c ****  * \brief Generic cipher wrapper for mbed TLS
   5:C:/Users/Yushev/git/optiga-trust-qi/externals/mbedtls/library\cipher_wrap.c ****  *
   6:C:/Users/Yushev/git/optiga-trust-qi/externals/mbedtls/library\cipher_wrap.c ****  * \author Adriaan de Jong <dejong@fox-it.com>
   7:C:/Users/Yushev/git/optiga-trust-qi/externals/mbedtls/library\cipher_wrap.c ****  *
   8:C:/Users/Yushev/git/optiga-trust-qi/externals/mbedtls/library\cipher_wrap.c ****  *  Copyright (C) 2006-2015, ARM Limited, All Rights Reserved
   9:C:/Users/Yushev/git/optiga-trust-qi/externals/mbedtls/library\cipher_wrap.c ****  *  SPDX-License-Identifier: Apache-2.0
  10:C:/Users/Yushev/git/optiga-trust-qi/externals/mbedtls/library\cipher_wrap.c ****  *
  11:C:/Users/Yushev/git/optiga-trust-qi/externals/mbedtls/library\cipher_wrap.c ****  *  Licensed under the Apache License, Version 2.0 (the "License"); you may
  12:C:/Users/Yushev/git/optiga-trust-qi/externals/mbedtls/library\cipher_wrap.c ****  *  not use this file except in compliance with the License.
  13:C:/Users/Yushev/git/optiga-trust-qi/externals/mbedtls/library\cipher_wrap.c ****  *  You may obtain a copy of the License at
  14:C:/Users/Yushev/git/optiga-trust-qi/externals/mbedtls/library\cipher_wrap.c ****  *
  15:C:/Users/Yushev/git/optiga-trust-qi/externals/mbedtls/library\cipher_wrap.c ****  *  http://www.apache.org/licenses/LICENSE-2.0
  16:C:/Users/Yushev/git/optiga-trust-qi/externals/mbedtls/library\cipher_wrap.c ****  *
  17:C:/Users/Yushev/git/optiga-trust-qi/externals/mbedtls/library\cipher_wrap.c ****  *  Unless required by applicable law or agreed to in writing, software
  18:C:/Users/Yushev/git/optiga-trust-qi/externals/mbedtls/library\cipher_wrap.c ****  *  distributed under the License is distributed on an "AS IS" BASIS, WITHOUT
  19:C:/Users/Yushev/git/optiga-trust-qi/externals/mbedtls/library\cipher_wrap.c ****  *  WARRANTIES OR CONDITIONS OF ANY KIND, either express or implied.
  20:C:/Users/Yushev/git/optiga-trust-qi/externals/mbedtls/library\cipher_wrap.c ****  *  See the License for the specific language governing permissions and
  21:C:/Users/Yushev/git/optiga-trust-qi/externals/mbedtls/library\cipher_wrap.c ****  *  limitations under the License.
  22:C:/Users/Yushev/git/optiga-trust-qi/externals/mbedtls/library\cipher_wrap.c ****  *
  23:C:/Users/Yushev/git/optiga-trust-qi/externals/mbedtls/library\cipher_wrap.c ****  *  This file is part of mbed TLS (https://tls.mbed.org)
  24:C:/Users/Yushev/git/optiga-trust-qi/externals/mbedtls/library\cipher_wrap.c ****  */
  25:C:/Users/Yushev/git/optiga-trust-qi/externals/mbedtls/library\cipher_wrap.c **** 
  26:C:/Users/Yushev/git/optiga-trust-qi/externals/mbedtls/library\cipher_wrap.c **** #if !defined(MBEDTLS_CONFIG_FILE)
  27:C:/Users/Yushev/git/optiga-trust-qi/externals/mbedtls/library\cipher_wrap.c **** #include "mbedtls/config.h"
  28:C:/Users/Yushev/git/optiga-trust-qi/externals/mbedtls/library\cipher_wrap.c **** #else
  29:C:/Users/Yushev/git/optiga-trust-qi/externals/mbedtls/library\cipher_wrap.c **** #include MBEDTLS_CONFIG_FILE
  30:C:/Users/Yushev/git/optiga-trust-qi/externals/mbedtls/library\cipher_wrap.c **** #endif
  31:C:/Users/Yushev/git/optiga-trust-qi/externals/mbedtls/library\cipher_wrap.c **** 
  32:C:/Users/Yushev/git/optiga-trust-qi/externals/mbedtls/library\cipher_wrap.c **** #if defined(MBEDTLS_CIPHER_C)
  33:C:/Users/Yushev/git/optiga-trust-qi/externals/mbedtls/library\cipher_wrap.c **** 
  34:C:/Users/Yushev/git/optiga-trust-qi/externals/mbedtls/library\cipher_wrap.c **** #include "mbedtls/cipher_internal.h"
  35:C:/Users/Yushev/git/optiga-trust-qi/externals/mbedtls/library\cipher_wrap.c **** 
  36:C:/Users/Yushev/git/optiga-trust-qi/externals/mbedtls/library\cipher_wrap.c **** #if defined(MBEDTLS_CHACHAPOLY_C)
  37:C:/Users/Yushev/git/optiga-trust-qi/externals/mbedtls/library\cipher_wrap.c **** #include "mbedtls/chachapoly.h"
  38:C:/Users/Yushev/git/optiga-trust-qi/externals/mbedtls/library\cipher_wrap.c **** #endif
  39:C:/Users/Yushev/git/optiga-trust-qi/externals/mbedtls/library\cipher_wrap.c **** 
  40:C:/Users/Yushev/git/optiga-trust-qi/externals/mbedtls/library\cipher_wrap.c **** #if defined(MBEDTLS_AES_C)
  41:C:/Users/Yushev/git/optiga-trust-qi/externals/mbedtls/library\cipher_wrap.c **** #include "mbedtls/aes.h"
  42:C:/Users/Yushev/git/optiga-trust-qi/externals/mbedtls/library\cipher_wrap.c **** #endif
  43:C:/Users/Yushev/git/optiga-trust-qi/externals/mbedtls/library\cipher_wrap.c **** 
  44:C:/Users/Yushev/git/optiga-trust-qi/externals/mbedtls/library\cipher_wrap.c **** #if defined(MBEDTLS_ARC4_C)
  45:C:/Users/Yushev/git/optiga-trust-qi/externals/mbedtls/library\cipher_wrap.c **** #include "mbedtls/arc4.h"
  46:C:/Users/Yushev/git/optiga-trust-qi/externals/mbedtls/library\cipher_wrap.c **** #endif
  47:C:/Users/Yushev/git/optiga-trust-qi/externals/mbedtls/library\cipher_wrap.c **** 
  48:C:/Users/Yushev/git/optiga-trust-qi/externals/mbedtls/library\cipher_wrap.c **** #if defined(MBEDTLS_CAMELLIA_C)
  49:C:/Users/Yushev/git/optiga-trust-qi/externals/mbedtls/library\cipher_wrap.c **** #include "mbedtls/camellia.h"
  50:C:/Users/Yushev/git/optiga-trust-qi/externals/mbedtls/library\cipher_wrap.c **** #endif
  51:C:/Users/Yushev/git/optiga-trust-qi/externals/mbedtls/library\cipher_wrap.c **** 
  52:C:/Users/Yushev/git/optiga-trust-qi/externals/mbedtls/library\cipher_wrap.c **** #if defined(MBEDTLS_ARIA_C)
  53:C:/Users/Yushev/git/optiga-trust-qi/externals/mbedtls/library\cipher_wrap.c **** #include "mbedtls/aria.h"
  54:C:/Users/Yushev/git/optiga-trust-qi/externals/mbedtls/library\cipher_wrap.c **** #endif
  55:C:/Users/Yushev/git/optiga-trust-qi/externals/mbedtls/library\cipher_wrap.c **** 
  56:C:/Users/Yushev/git/optiga-trust-qi/externals/mbedtls/library\cipher_wrap.c **** #if defined(MBEDTLS_DES_C)
  57:C:/Users/Yushev/git/optiga-trust-qi/externals/mbedtls/library\cipher_wrap.c **** #include "mbedtls/des.h"
  58:C:/Users/Yushev/git/optiga-trust-qi/externals/mbedtls/library\cipher_wrap.c **** #endif
  59:C:/Users/Yushev/git/optiga-trust-qi/externals/mbedtls/library\cipher_wrap.c **** 
  60:C:/Users/Yushev/git/optiga-trust-qi/externals/mbedtls/library\cipher_wrap.c **** #if defined(MBEDTLS_BLOWFISH_C)
  61:C:/Users/Yushev/git/optiga-trust-qi/externals/mbedtls/library\cipher_wrap.c **** #include "mbedtls/blowfish.h"
  62:C:/Users/Yushev/git/optiga-trust-qi/externals/mbedtls/library\cipher_wrap.c **** #endif
  63:C:/Users/Yushev/git/optiga-trust-qi/externals/mbedtls/library\cipher_wrap.c **** 
  64:C:/Users/Yushev/git/optiga-trust-qi/externals/mbedtls/library\cipher_wrap.c **** #if defined(MBEDTLS_CHACHA20_C)
  65:C:/Users/Yushev/git/optiga-trust-qi/externals/mbedtls/library\cipher_wrap.c **** #include "mbedtls/chacha20.h"
  66:C:/Users/Yushev/git/optiga-trust-qi/externals/mbedtls/library\cipher_wrap.c **** #endif
  67:C:/Users/Yushev/git/optiga-trust-qi/externals/mbedtls/library\cipher_wrap.c **** 
  68:C:/Users/Yushev/git/optiga-trust-qi/externals/mbedtls/library\cipher_wrap.c **** #if defined(MBEDTLS_GCM_C)
  69:C:/Users/Yushev/git/optiga-trust-qi/externals/mbedtls/library\cipher_wrap.c **** #include "mbedtls/gcm.h"
  70:C:/Users/Yushev/git/optiga-trust-qi/externals/mbedtls/library\cipher_wrap.c **** #endif
  71:C:/Users/Yushev/git/optiga-trust-qi/externals/mbedtls/library\cipher_wrap.c **** 
  72:C:/Users/Yushev/git/optiga-trust-qi/externals/mbedtls/library\cipher_wrap.c **** #if defined(MBEDTLS_CCM_C)
  73:C:/Users/Yushev/git/optiga-trust-qi/externals/mbedtls/library\cipher_wrap.c **** #include "mbedtls/ccm.h"
  74:C:/Users/Yushev/git/optiga-trust-qi/externals/mbedtls/library\cipher_wrap.c **** #endif
  75:C:/Users/Yushev/git/optiga-trust-qi/externals/mbedtls/library\cipher_wrap.c **** 
  76:C:/Users/Yushev/git/optiga-trust-qi/externals/mbedtls/library\cipher_wrap.c **** #if defined(MBEDTLS_CIPHER_NULL_CIPHER)
  77:C:/Users/Yushev/git/optiga-trust-qi/externals/mbedtls/library\cipher_wrap.c **** #include <string.h>
  78:C:/Users/Yushev/git/optiga-trust-qi/externals/mbedtls/library\cipher_wrap.c **** #endif
  79:C:/Users/Yushev/git/optiga-trust-qi/externals/mbedtls/library\cipher_wrap.c **** 
  80:C:/Users/Yushev/git/optiga-trust-qi/externals/mbedtls/library\cipher_wrap.c **** #if defined(MBEDTLS_PLATFORM_C)
  81:C:/Users/Yushev/git/optiga-trust-qi/externals/mbedtls/library\cipher_wrap.c **** #include "mbedtls/platform.h"
  82:C:/Users/Yushev/git/optiga-trust-qi/externals/mbedtls/library\cipher_wrap.c **** #else
  83:C:/Users/Yushev/git/optiga-trust-qi/externals/mbedtls/library\cipher_wrap.c **** #include <stdlib.h>
  84:C:/Users/Yushev/git/optiga-trust-qi/externals/mbedtls/library\cipher_wrap.c **** #define mbedtls_calloc    calloc
  85:C:/Users/Yushev/git/optiga-trust-qi/externals/mbedtls/library\cipher_wrap.c **** #define mbedtls_free       free
  86:C:/Users/Yushev/git/optiga-trust-qi/externals/mbedtls/library\cipher_wrap.c **** #endif
  87:C:/Users/Yushev/git/optiga-trust-qi/externals/mbedtls/library\cipher_wrap.c **** 
  88:C:/Users/Yushev/git/optiga-trust-qi/externals/mbedtls/library\cipher_wrap.c **** #if defined(MBEDTLS_GCM_C)
  89:C:/Users/Yushev/git/optiga-trust-qi/externals/mbedtls/library\cipher_wrap.c **** /* shared by all GCM ciphers */
  90:C:/Users/Yushev/git/optiga-trust-qi/externals/mbedtls/library\cipher_wrap.c **** static void *gcm_ctx_alloc( void )
  91:C:/Users/Yushev/git/optiga-trust-qi/externals/mbedtls/library\cipher_wrap.c **** {
  92:C:/Users/Yushev/git/optiga-trust-qi/externals/mbedtls/library\cipher_wrap.c ****     void *ctx = mbedtls_calloc( 1, sizeof( mbedtls_gcm_context ) );
  93:C:/Users/Yushev/git/optiga-trust-qi/externals/mbedtls/library\cipher_wrap.c **** 
  94:C:/Users/Yushev/git/optiga-trust-qi/externals/mbedtls/library\cipher_wrap.c ****     if( ctx != NULL )
  95:C:/Users/Yushev/git/optiga-trust-qi/externals/mbedtls/library\cipher_wrap.c ****         mbedtls_gcm_init( (mbedtls_gcm_context *) ctx );
  96:C:/Users/Yushev/git/optiga-trust-qi/externals/mbedtls/library\cipher_wrap.c **** 
  97:C:/Users/Yushev/git/optiga-trust-qi/externals/mbedtls/library\cipher_wrap.c ****     return( ctx );
  98:C:/Users/Yushev/git/optiga-trust-qi/externals/mbedtls/library\cipher_wrap.c **** }
  99:C:/Users/Yushev/git/optiga-trust-qi/externals/mbedtls/library\cipher_wrap.c **** 
 100:C:/Users/Yushev/git/optiga-trust-qi/externals/mbedtls/library\cipher_wrap.c **** static void gcm_ctx_free( void *ctx )
 101:C:/Users/Yushev/git/optiga-trust-qi/externals/mbedtls/library\cipher_wrap.c **** {
 102:C:/Users/Yushev/git/optiga-trust-qi/externals/mbedtls/library\cipher_wrap.c ****     mbedtls_gcm_free( ctx );
 103:C:/Users/Yushev/git/optiga-trust-qi/externals/mbedtls/library\cipher_wrap.c ****     mbedtls_free( ctx );
 104:C:/Users/Yushev/git/optiga-trust-qi/externals/mbedtls/library\cipher_wrap.c **** }
 105:C:/Users/Yushev/git/optiga-trust-qi/externals/mbedtls/library\cipher_wrap.c **** #endif /* MBEDTLS_GCM_C */
 106:C:/Users/Yushev/git/optiga-trust-qi/externals/mbedtls/library\cipher_wrap.c **** 
 107:C:/Users/Yushev/git/optiga-trust-qi/externals/mbedtls/library\cipher_wrap.c **** #if defined(MBEDTLS_CCM_C)
 108:C:/Users/Yushev/git/optiga-trust-qi/externals/mbedtls/library\cipher_wrap.c **** /* shared by all CCM ciphers */
 109:C:/Users/Yushev/git/optiga-trust-qi/externals/mbedtls/library\cipher_wrap.c **** static void *ccm_ctx_alloc( void )
 110:C:/Users/Yushev/git/optiga-trust-qi/externals/mbedtls/library\cipher_wrap.c **** {
 111:C:/Users/Yushev/git/optiga-trust-qi/externals/mbedtls/library\cipher_wrap.c ****     void *ctx = mbedtls_calloc( 1, sizeof( mbedtls_ccm_context ) );
 112:C:/Users/Yushev/git/optiga-trust-qi/externals/mbedtls/library\cipher_wrap.c **** 
 113:C:/Users/Yushev/git/optiga-trust-qi/externals/mbedtls/library\cipher_wrap.c ****     if( ctx != NULL )
 114:C:/Users/Yushev/git/optiga-trust-qi/externals/mbedtls/library\cipher_wrap.c ****         mbedtls_ccm_init( (mbedtls_ccm_context *) ctx );
 115:C:/Users/Yushev/git/optiga-trust-qi/externals/mbedtls/library\cipher_wrap.c **** 
 116:C:/Users/Yushev/git/optiga-trust-qi/externals/mbedtls/library\cipher_wrap.c ****     return( ctx );
 117:C:/Users/Yushev/git/optiga-trust-qi/externals/mbedtls/library\cipher_wrap.c **** }
 118:C:/Users/Yushev/git/optiga-trust-qi/externals/mbedtls/library\cipher_wrap.c **** 
 119:C:/Users/Yushev/git/optiga-trust-qi/externals/mbedtls/library\cipher_wrap.c **** static void ccm_ctx_free( void *ctx )
 120:C:/Users/Yushev/git/optiga-trust-qi/externals/mbedtls/library\cipher_wrap.c **** {
  27              	 .loc 1 120 0
  28              	 .cfi_startproc
  29              	 
  30              	 
  31              	.LVL0:
  32 0000 10B5     	 push {r4,lr}
  33              	.LCFI0:
  34              	 .cfi_def_cfa_offset 8
  35              	 .cfi_offset 4,-8
  36              	 .cfi_offset 14,-4
  37              	 .loc 1 120 0
  38 0002 0446     	 mov r4,r0
 121:C:/Users/Yushev/git/optiga-trust-qi/externals/mbedtls/library\cipher_wrap.c ****     mbedtls_ccm_free( ctx );
  39              	 .loc 1 121 0
  40 0004 FFF7FEFF 	 bl mbedtls_ccm_free
  41              	.LVL1:
 122:C:/Users/Yushev/git/optiga-trust-qi/externals/mbedtls/library\cipher_wrap.c ****     mbedtls_free( ctx );
  42              	 .loc 1 122 0
  43 0008 2046     	 mov r0,r4
 123:C:/Users/Yushev/git/optiga-trust-qi/externals/mbedtls/library\cipher_wrap.c **** }
  44              	 .loc 1 123 0
  45 000a BDE81040 	 pop {r4,lr}
  46              	.LCFI1:
  47              	 .cfi_restore 14
  48              	 .cfi_restore 4
  49              	 .cfi_def_cfa_offset 0
  50              	.LVL2:
 122:C:/Users/Yushev/git/optiga-trust-qi/externals/mbedtls/library\cipher_wrap.c ****     mbedtls_free( ctx );
  51              	 .loc 1 122 0
  52 000e FFF7FEBF 	 b free
  53              	.LVL3:
  54              	 .cfi_endproc
  55              	.LFE8:
  57              	 .section .text.ccm_ctx_alloc,"ax",%progbits
  58              	 .align 1
  59              	 .thumb
  60              	 .thumb_func
  62              	ccm_ctx_alloc:
  63              	.LFB7:
 110:C:/Users/Yushev/git/optiga-trust-qi/externals/mbedtls/library\cipher_wrap.c ****     void *ctx = mbedtls_calloc( 1, sizeof( mbedtls_ccm_context ) );
  64              	 .loc 1 110 0
  65              	 .cfi_startproc
  66              	 
  67              	 
  68 0000 10B5     	 push {r4,lr}
  69              	.LCFI2:
  70              	 .cfi_def_cfa_offset 8
  71              	 .cfi_offset 4,-8
  72              	 .cfi_offset 14,-4
 111:C:/Users/Yushev/git/optiga-trust-qi/externals/mbedtls/library\cipher_wrap.c **** 
  73              	 .loc 1 111 0
  74 0002 0120     	 movs r0,#1
  75 0004 3821     	 movs r1,#56
  76 0006 FFF7FEFF 	 bl calloc
  77              	.LVL4:
 113:C:/Users/Yushev/git/optiga-trust-qi/externals/mbedtls/library\cipher_wrap.c ****         mbedtls_ccm_init( (mbedtls_ccm_context *) ctx );
  78              	 .loc 1 113 0
  79 000a 0446     	 mov r4,r0
  80 000c 08B1     	 cbz r0,.L3
 114:C:/Users/Yushev/git/optiga-trust-qi/externals/mbedtls/library\cipher_wrap.c **** 
  81              	 .loc 1 114 0
  82 000e FFF7FEFF 	 bl mbedtls_ccm_init
  83              	.LVL5:
  84              	.L3:
 117:C:/Users/Yushev/git/optiga-trust-qi/externals/mbedtls/library\cipher_wrap.c **** 
  85              	 .loc 1 117 0
  86 0012 2046     	 mov r0,r4
  87 0014 10BD     	 pop {r4,pc}
  88              	 .cfi_endproc
  89              	.LFE7:
  91              	 .section .text.ccm_aes_setkey_wrap,"ax",%progbits
  92              	 .align 1
  93              	 .thumb
  94              	 .thumb_func
  96              	ccm_aes_setkey_wrap:
  97              	.LFB14:
 124:C:/Users/Yushev/git/optiga-trust-qi/externals/mbedtls/library\cipher_wrap.c **** #endif /* MBEDTLS_CCM_C */
 125:C:/Users/Yushev/git/optiga-trust-qi/externals/mbedtls/library\cipher_wrap.c **** 
 126:C:/Users/Yushev/git/optiga-trust-qi/externals/mbedtls/library\cipher_wrap.c **** #if defined(MBEDTLS_AES_C)
 127:C:/Users/Yushev/git/optiga-trust-qi/externals/mbedtls/library\cipher_wrap.c **** 
 128:C:/Users/Yushev/git/optiga-trust-qi/externals/mbedtls/library\cipher_wrap.c **** static int aes_crypt_ecb_wrap( void *ctx, mbedtls_operation_t operation,
 129:C:/Users/Yushev/git/optiga-trust-qi/externals/mbedtls/library\cipher_wrap.c ****         const unsigned char *input, unsigned char *output )
 130:C:/Users/Yushev/git/optiga-trust-qi/externals/mbedtls/library\cipher_wrap.c **** {
 131:C:/Users/Yushev/git/optiga-trust-qi/externals/mbedtls/library\cipher_wrap.c ****     return mbedtls_aes_crypt_ecb( (mbedtls_aes_context *) ctx, operation, input, output );
 132:C:/Users/Yushev/git/optiga-trust-qi/externals/mbedtls/library\cipher_wrap.c **** }
 133:C:/Users/Yushev/git/optiga-trust-qi/externals/mbedtls/library\cipher_wrap.c **** 
 134:C:/Users/Yushev/git/optiga-trust-qi/externals/mbedtls/library\cipher_wrap.c **** #if defined(MBEDTLS_CIPHER_MODE_CBC)
 135:C:/Users/Yushev/git/optiga-trust-qi/externals/mbedtls/library\cipher_wrap.c **** static int aes_crypt_cbc_wrap( void *ctx, mbedtls_operation_t operation, size_t length,
 136:C:/Users/Yushev/git/optiga-trust-qi/externals/mbedtls/library\cipher_wrap.c ****         unsigned char *iv, const unsigned char *input, unsigned char *output )
 137:C:/Users/Yushev/git/optiga-trust-qi/externals/mbedtls/library\cipher_wrap.c **** {
 138:C:/Users/Yushev/git/optiga-trust-qi/externals/mbedtls/library\cipher_wrap.c ****     return mbedtls_aes_crypt_cbc( (mbedtls_aes_context *) ctx, operation, length, iv, input,
 139:C:/Users/Yushev/git/optiga-trust-qi/externals/mbedtls/library\cipher_wrap.c ****                           output );
 140:C:/Users/Yushev/git/optiga-trust-qi/externals/mbedtls/library\cipher_wrap.c **** }
 141:C:/Users/Yushev/git/optiga-trust-qi/externals/mbedtls/library\cipher_wrap.c **** #endif /* MBEDTLS_CIPHER_MODE_CBC */
 142:C:/Users/Yushev/git/optiga-trust-qi/externals/mbedtls/library\cipher_wrap.c **** 
 143:C:/Users/Yushev/git/optiga-trust-qi/externals/mbedtls/library\cipher_wrap.c **** #if defined(MBEDTLS_CIPHER_MODE_CFB)
 144:C:/Users/Yushev/git/optiga-trust-qi/externals/mbedtls/library\cipher_wrap.c **** static int aes_crypt_cfb128_wrap( void *ctx, mbedtls_operation_t operation,
 145:C:/Users/Yushev/git/optiga-trust-qi/externals/mbedtls/library\cipher_wrap.c ****         size_t length, size_t *iv_off, unsigned char *iv,
 146:C:/Users/Yushev/git/optiga-trust-qi/externals/mbedtls/library\cipher_wrap.c ****         const unsigned char *input, unsigned char *output )
 147:C:/Users/Yushev/git/optiga-trust-qi/externals/mbedtls/library\cipher_wrap.c **** {
 148:C:/Users/Yushev/git/optiga-trust-qi/externals/mbedtls/library\cipher_wrap.c ****     return mbedtls_aes_crypt_cfb128( (mbedtls_aes_context *) ctx, operation, length, iv_off, iv,
 149:C:/Users/Yushev/git/optiga-trust-qi/externals/mbedtls/library\cipher_wrap.c ****                              input, output );
 150:C:/Users/Yushev/git/optiga-trust-qi/externals/mbedtls/library\cipher_wrap.c **** }
 151:C:/Users/Yushev/git/optiga-trust-qi/externals/mbedtls/library\cipher_wrap.c **** #endif /* MBEDTLS_CIPHER_MODE_CFB */
 152:C:/Users/Yushev/git/optiga-trust-qi/externals/mbedtls/library\cipher_wrap.c **** 
 153:C:/Users/Yushev/git/optiga-trust-qi/externals/mbedtls/library\cipher_wrap.c **** #if defined(MBEDTLS_CIPHER_MODE_OFB)
 154:C:/Users/Yushev/git/optiga-trust-qi/externals/mbedtls/library\cipher_wrap.c **** static int aes_crypt_ofb_wrap( void *ctx, size_t length, size_t *iv_off,
 155:C:/Users/Yushev/git/optiga-trust-qi/externals/mbedtls/library\cipher_wrap.c ****         unsigned char *iv, const unsigned char *input, unsigned char *output )
 156:C:/Users/Yushev/git/optiga-trust-qi/externals/mbedtls/library\cipher_wrap.c **** {
 157:C:/Users/Yushev/git/optiga-trust-qi/externals/mbedtls/library\cipher_wrap.c ****     return mbedtls_aes_crypt_ofb( (mbedtls_aes_context *) ctx, length, iv_off,
 158:C:/Users/Yushev/git/optiga-trust-qi/externals/mbedtls/library\cipher_wrap.c ****                                     iv, input, output );
 159:C:/Users/Yushev/git/optiga-trust-qi/externals/mbedtls/library\cipher_wrap.c **** }
 160:C:/Users/Yushev/git/optiga-trust-qi/externals/mbedtls/library\cipher_wrap.c **** #endif /* MBEDTLS_CIPHER_MODE_OFB */
 161:C:/Users/Yushev/git/optiga-trust-qi/externals/mbedtls/library\cipher_wrap.c **** 
 162:C:/Users/Yushev/git/optiga-trust-qi/externals/mbedtls/library\cipher_wrap.c **** #if defined(MBEDTLS_CIPHER_MODE_CTR)
 163:C:/Users/Yushev/git/optiga-trust-qi/externals/mbedtls/library\cipher_wrap.c **** static int aes_crypt_ctr_wrap( void *ctx, size_t length, size_t *nc_off,
 164:C:/Users/Yushev/git/optiga-trust-qi/externals/mbedtls/library\cipher_wrap.c ****         unsigned char *nonce_counter, unsigned char *stream_block,
 165:C:/Users/Yushev/git/optiga-trust-qi/externals/mbedtls/library\cipher_wrap.c ****         const unsigned char *input, unsigned char *output )
 166:C:/Users/Yushev/git/optiga-trust-qi/externals/mbedtls/library\cipher_wrap.c **** {
 167:C:/Users/Yushev/git/optiga-trust-qi/externals/mbedtls/library\cipher_wrap.c ****     return mbedtls_aes_crypt_ctr( (mbedtls_aes_context *) ctx, length, nc_off, nonce_counter,
 168:C:/Users/Yushev/git/optiga-trust-qi/externals/mbedtls/library\cipher_wrap.c ****                           stream_block, input, output );
 169:C:/Users/Yushev/git/optiga-trust-qi/externals/mbedtls/library\cipher_wrap.c **** }
 170:C:/Users/Yushev/git/optiga-trust-qi/externals/mbedtls/library\cipher_wrap.c **** #endif /* MBEDTLS_CIPHER_MODE_CTR */
 171:C:/Users/Yushev/git/optiga-trust-qi/externals/mbedtls/library\cipher_wrap.c **** 
 172:C:/Users/Yushev/git/optiga-trust-qi/externals/mbedtls/library\cipher_wrap.c **** #if defined(MBEDTLS_CIPHER_MODE_XTS)
 173:C:/Users/Yushev/git/optiga-trust-qi/externals/mbedtls/library\cipher_wrap.c **** static int aes_crypt_xts_wrap( void *ctx, mbedtls_operation_t operation,
 174:C:/Users/Yushev/git/optiga-trust-qi/externals/mbedtls/library\cipher_wrap.c ****                                size_t length,
 175:C:/Users/Yushev/git/optiga-trust-qi/externals/mbedtls/library\cipher_wrap.c ****                                const unsigned char data_unit[16],
 176:C:/Users/Yushev/git/optiga-trust-qi/externals/mbedtls/library\cipher_wrap.c ****                                const unsigned char *input,
 177:C:/Users/Yushev/git/optiga-trust-qi/externals/mbedtls/library\cipher_wrap.c ****                                unsigned char *output )
 178:C:/Users/Yushev/git/optiga-trust-qi/externals/mbedtls/library\cipher_wrap.c **** {
 179:C:/Users/Yushev/git/optiga-trust-qi/externals/mbedtls/library\cipher_wrap.c ****     mbedtls_aes_xts_context *xts_ctx = ctx;
 180:C:/Users/Yushev/git/optiga-trust-qi/externals/mbedtls/library\cipher_wrap.c ****     int mode;
 181:C:/Users/Yushev/git/optiga-trust-qi/externals/mbedtls/library\cipher_wrap.c **** 
 182:C:/Users/Yushev/git/optiga-trust-qi/externals/mbedtls/library\cipher_wrap.c ****     switch( operation )
 183:C:/Users/Yushev/git/optiga-trust-qi/externals/mbedtls/library\cipher_wrap.c ****     {
 184:C:/Users/Yushev/git/optiga-trust-qi/externals/mbedtls/library\cipher_wrap.c ****         case MBEDTLS_ENCRYPT:
 185:C:/Users/Yushev/git/optiga-trust-qi/externals/mbedtls/library\cipher_wrap.c ****             mode = MBEDTLS_AES_ENCRYPT;
 186:C:/Users/Yushev/git/optiga-trust-qi/externals/mbedtls/library\cipher_wrap.c ****             break;
 187:C:/Users/Yushev/git/optiga-trust-qi/externals/mbedtls/library\cipher_wrap.c ****         case MBEDTLS_DECRYPT:
 188:C:/Users/Yushev/git/optiga-trust-qi/externals/mbedtls/library\cipher_wrap.c ****             mode = MBEDTLS_AES_DECRYPT;
 189:C:/Users/Yushev/git/optiga-trust-qi/externals/mbedtls/library\cipher_wrap.c ****             break;
 190:C:/Users/Yushev/git/optiga-trust-qi/externals/mbedtls/library\cipher_wrap.c ****         default:
 191:C:/Users/Yushev/git/optiga-trust-qi/externals/mbedtls/library\cipher_wrap.c ****             return MBEDTLS_ERR_CIPHER_BAD_INPUT_DATA;
 192:C:/Users/Yushev/git/optiga-trust-qi/externals/mbedtls/library\cipher_wrap.c ****     }
 193:C:/Users/Yushev/git/optiga-trust-qi/externals/mbedtls/library\cipher_wrap.c **** 
 194:C:/Users/Yushev/git/optiga-trust-qi/externals/mbedtls/library\cipher_wrap.c ****     return mbedtls_aes_crypt_xts( xts_ctx, mode, length,
 195:C:/Users/Yushev/git/optiga-trust-qi/externals/mbedtls/library\cipher_wrap.c ****                                   data_unit, input, output );
 196:C:/Users/Yushev/git/optiga-trust-qi/externals/mbedtls/library\cipher_wrap.c **** }
 197:C:/Users/Yushev/git/optiga-trust-qi/externals/mbedtls/library\cipher_wrap.c **** #endif /* MBEDTLS_CIPHER_MODE_XTS */
 198:C:/Users/Yushev/git/optiga-trust-qi/externals/mbedtls/library\cipher_wrap.c **** 
 199:C:/Users/Yushev/git/optiga-trust-qi/externals/mbedtls/library\cipher_wrap.c **** static int aes_setkey_dec_wrap( void *ctx, const unsigned char *key,
 200:C:/Users/Yushev/git/optiga-trust-qi/externals/mbedtls/library\cipher_wrap.c ****                                 unsigned int key_bitlen )
 201:C:/Users/Yushev/git/optiga-trust-qi/externals/mbedtls/library\cipher_wrap.c **** {
 202:C:/Users/Yushev/git/optiga-trust-qi/externals/mbedtls/library\cipher_wrap.c ****     return mbedtls_aes_setkey_dec( (mbedtls_aes_context *) ctx, key, key_bitlen );
 203:C:/Users/Yushev/git/optiga-trust-qi/externals/mbedtls/library\cipher_wrap.c **** }
 204:C:/Users/Yushev/git/optiga-trust-qi/externals/mbedtls/library\cipher_wrap.c **** 
 205:C:/Users/Yushev/git/optiga-trust-qi/externals/mbedtls/library\cipher_wrap.c **** static int aes_setkey_enc_wrap( void *ctx, const unsigned char *key,
 206:C:/Users/Yushev/git/optiga-trust-qi/externals/mbedtls/library\cipher_wrap.c ****                                 unsigned int key_bitlen )
 207:C:/Users/Yushev/git/optiga-trust-qi/externals/mbedtls/library\cipher_wrap.c **** {
 208:C:/Users/Yushev/git/optiga-trust-qi/externals/mbedtls/library\cipher_wrap.c ****     return mbedtls_aes_setkey_enc( (mbedtls_aes_context *) ctx, key, key_bitlen );
 209:C:/Users/Yushev/git/optiga-trust-qi/externals/mbedtls/library\cipher_wrap.c **** }
 210:C:/Users/Yushev/git/optiga-trust-qi/externals/mbedtls/library\cipher_wrap.c **** 
 211:C:/Users/Yushev/git/optiga-trust-qi/externals/mbedtls/library\cipher_wrap.c **** static void * aes_ctx_alloc( void )
 212:C:/Users/Yushev/git/optiga-trust-qi/externals/mbedtls/library\cipher_wrap.c **** {
 213:C:/Users/Yushev/git/optiga-trust-qi/externals/mbedtls/library\cipher_wrap.c ****     mbedtls_aes_context *aes = mbedtls_calloc( 1, sizeof( mbedtls_aes_context ) );
 214:C:/Users/Yushev/git/optiga-trust-qi/externals/mbedtls/library\cipher_wrap.c **** 
 215:C:/Users/Yushev/git/optiga-trust-qi/externals/mbedtls/library\cipher_wrap.c ****     if( aes == NULL )
 216:C:/Users/Yushev/git/optiga-trust-qi/externals/mbedtls/library\cipher_wrap.c ****         return( NULL );
 217:C:/Users/Yushev/git/optiga-trust-qi/externals/mbedtls/library\cipher_wrap.c **** 
 218:C:/Users/Yushev/git/optiga-trust-qi/externals/mbedtls/library\cipher_wrap.c ****     mbedtls_aes_init( aes );
 219:C:/Users/Yushev/git/optiga-trust-qi/externals/mbedtls/library\cipher_wrap.c **** 
 220:C:/Users/Yushev/git/optiga-trust-qi/externals/mbedtls/library\cipher_wrap.c ****     return( aes );
 221:C:/Users/Yushev/git/optiga-trust-qi/externals/mbedtls/library\cipher_wrap.c **** }
 222:C:/Users/Yushev/git/optiga-trust-qi/externals/mbedtls/library\cipher_wrap.c **** 
 223:C:/Users/Yushev/git/optiga-trust-qi/externals/mbedtls/library\cipher_wrap.c **** static void aes_ctx_free( void *ctx )
 224:C:/Users/Yushev/git/optiga-trust-qi/externals/mbedtls/library\cipher_wrap.c **** {
 225:C:/Users/Yushev/git/optiga-trust-qi/externals/mbedtls/library\cipher_wrap.c ****     mbedtls_aes_free( (mbedtls_aes_context *) ctx );
 226:C:/Users/Yushev/git/optiga-trust-qi/externals/mbedtls/library\cipher_wrap.c ****     mbedtls_free( ctx );
 227:C:/Users/Yushev/git/optiga-trust-qi/externals/mbedtls/library\cipher_wrap.c **** }
 228:C:/Users/Yushev/git/optiga-trust-qi/externals/mbedtls/library\cipher_wrap.c **** 
 229:C:/Users/Yushev/git/optiga-trust-qi/externals/mbedtls/library\cipher_wrap.c **** static const mbedtls_cipher_base_t aes_info = {
 230:C:/Users/Yushev/git/optiga-trust-qi/externals/mbedtls/library\cipher_wrap.c ****     MBEDTLS_CIPHER_ID_AES,
 231:C:/Users/Yushev/git/optiga-trust-qi/externals/mbedtls/library\cipher_wrap.c ****     aes_crypt_ecb_wrap,
 232:C:/Users/Yushev/git/optiga-trust-qi/externals/mbedtls/library\cipher_wrap.c **** #if defined(MBEDTLS_CIPHER_MODE_CBC)
 233:C:/Users/Yushev/git/optiga-trust-qi/externals/mbedtls/library\cipher_wrap.c ****     aes_crypt_cbc_wrap,
 234:C:/Users/Yushev/git/optiga-trust-qi/externals/mbedtls/library\cipher_wrap.c **** #endif
 235:C:/Users/Yushev/git/optiga-trust-qi/externals/mbedtls/library\cipher_wrap.c **** #if defined(MBEDTLS_CIPHER_MODE_CFB)
 236:C:/Users/Yushev/git/optiga-trust-qi/externals/mbedtls/library\cipher_wrap.c ****     aes_crypt_cfb128_wrap,
 237:C:/Users/Yushev/git/optiga-trust-qi/externals/mbedtls/library\cipher_wrap.c **** #endif
 238:C:/Users/Yushev/git/optiga-trust-qi/externals/mbedtls/library\cipher_wrap.c **** #if defined(MBEDTLS_CIPHER_MODE_OFB)
 239:C:/Users/Yushev/git/optiga-trust-qi/externals/mbedtls/library\cipher_wrap.c ****     aes_crypt_ofb_wrap,
 240:C:/Users/Yushev/git/optiga-trust-qi/externals/mbedtls/library\cipher_wrap.c **** #endif
 241:C:/Users/Yushev/git/optiga-trust-qi/externals/mbedtls/library\cipher_wrap.c **** #if defined(MBEDTLS_CIPHER_MODE_CTR)
 242:C:/Users/Yushev/git/optiga-trust-qi/externals/mbedtls/library\cipher_wrap.c ****     aes_crypt_ctr_wrap,
 243:C:/Users/Yushev/git/optiga-trust-qi/externals/mbedtls/library\cipher_wrap.c **** #endif
 244:C:/Users/Yushev/git/optiga-trust-qi/externals/mbedtls/library\cipher_wrap.c **** #if defined(MBEDTLS_CIPHER_MODE_XTS)
 245:C:/Users/Yushev/git/optiga-trust-qi/externals/mbedtls/library\cipher_wrap.c ****     NULL,
 246:C:/Users/Yushev/git/optiga-trust-qi/externals/mbedtls/library\cipher_wrap.c **** #endif
 247:C:/Users/Yushev/git/optiga-trust-qi/externals/mbedtls/library\cipher_wrap.c **** #if defined(MBEDTLS_CIPHER_MODE_STREAM)
 248:C:/Users/Yushev/git/optiga-trust-qi/externals/mbedtls/library\cipher_wrap.c ****     NULL,
 249:C:/Users/Yushev/git/optiga-trust-qi/externals/mbedtls/library\cipher_wrap.c **** #endif
 250:C:/Users/Yushev/git/optiga-trust-qi/externals/mbedtls/library\cipher_wrap.c ****     aes_setkey_enc_wrap,
 251:C:/Users/Yushev/git/optiga-trust-qi/externals/mbedtls/library\cipher_wrap.c ****     aes_setkey_dec_wrap,
 252:C:/Users/Yushev/git/optiga-trust-qi/externals/mbedtls/library\cipher_wrap.c ****     aes_ctx_alloc,
 253:C:/Users/Yushev/git/optiga-trust-qi/externals/mbedtls/library\cipher_wrap.c ****     aes_ctx_free
 254:C:/Users/Yushev/git/optiga-trust-qi/externals/mbedtls/library\cipher_wrap.c **** };
 255:C:/Users/Yushev/git/optiga-trust-qi/externals/mbedtls/library\cipher_wrap.c **** 
 256:C:/Users/Yushev/git/optiga-trust-qi/externals/mbedtls/library\cipher_wrap.c **** static const mbedtls_cipher_info_t aes_128_ecb_info = {
 257:C:/Users/Yushev/git/optiga-trust-qi/externals/mbedtls/library\cipher_wrap.c ****     MBEDTLS_CIPHER_AES_128_ECB,
 258:C:/Users/Yushev/git/optiga-trust-qi/externals/mbedtls/library\cipher_wrap.c ****     MBEDTLS_MODE_ECB,
 259:C:/Users/Yushev/git/optiga-trust-qi/externals/mbedtls/library\cipher_wrap.c ****     128,
 260:C:/Users/Yushev/git/optiga-trust-qi/externals/mbedtls/library\cipher_wrap.c ****     "AES-128-ECB",
 261:C:/Users/Yushev/git/optiga-trust-qi/externals/mbedtls/library\cipher_wrap.c ****     0,
 262:C:/Users/Yushev/git/optiga-trust-qi/externals/mbedtls/library\cipher_wrap.c ****     0,
 263:C:/Users/Yushev/git/optiga-trust-qi/externals/mbedtls/library\cipher_wrap.c ****     16,
 264:C:/Users/Yushev/git/optiga-trust-qi/externals/mbedtls/library\cipher_wrap.c ****     &aes_info
 265:C:/Users/Yushev/git/optiga-trust-qi/externals/mbedtls/library\cipher_wrap.c **** };
 266:C:/Users/Yushev/git/optiga-trust-qi/externals/mbedtls/library\cipher_wrap.c **** 
 267:C:/Users/Yushev/git/optiga-trust-qi/externals/mbedtls/library\cipher_wrap.c **** static const mbedtls_cipher_info_t aes_192_ecb_info = {
 268:C:/Users/Yushev/git/optiga-trust-qi/externals/mbedtls/library\cipher_wrap.c ****     MBEDTLS_CIPHER_AES_192_ECB,
 269:C:/Users/Yushev/git/optiga-trust-qi/externals/mbedtls/library\cipher_wrap.c ****     MBEDTLS_MODE_ECB,
 270:C:/Users/Yushev/git/optiga-trust-qi/externals/mbedtls/library\cipher_wrap.c ****     192,
 271:C:/Users/Yushev/git/optiga-trust-qi/externals/mbedtls/library\cipher_wrap.c ****     "AES-192-ECB",
 272:C:/Users/Yushev/git/optiga-trust-qi/externals/mbedtls/library\cipher_wrap.c ****     0,
 273:C:/Users/Yushev/git/optiga-trust-qi/externals/mbedtls/library\cipher_wrap.c ****     0,
 274:C:/Users/Yushev/git/optiga-trust-qi/externals/mbedtls/library\cipher_wrap.c ****     16,
 275:C:/Users/Yushev/git/optiga-trust-qi/externals/mbedtls/library\cipher_wrap.c ****     &aes_info
 276:C:/Users/Yushev/git/optiga-trust-qi/externals/mbedtls/library\cipher_wrap.c **** };
 277:C:/Users/Yushev/git/optiga-trust-qi/externals/mbedtls/library\cipher_wrap.c **** 
 278:C:/Users/Yushev/git/optiga-trust-qi/externals/mbedtls/library\cipher_wrap.c **** static const mbedtls_cipher_info_t aes_256_ecb_info = {
 279:C:/Users/Yushev/git/optiga-trust-qi/externals/mbedtls/library\cipher_wrap.c ****     MBEDTLS_CIPHER_AES_256_ECB,
 280:C:/Users/Yushev/git/optiga-trust-qi/externals/mbedtls/library\cipher_wrap.c ****     MBEDTLS_MODE_ECB,
 281:C:/Users/Yushev/git/optiga-trust-qi/externals/mbedtls/library\cipher_wrap.c ****     256,
 282:C:/Users/Yushev/git/optiga-trust-qi/externals/mbedtls/library\cipher_wrap.c ****     "AES-256-ECB",
 283:C:/Users/Yushev/git/optiga-trust-qi/externals/mbedtls/library\cipher_wrap.c ****     0,
 284:C:/Users/Yushev/git/optiga-trust-qi/externals/mbedtls/library\cipher_wrap.c ****     0,
 285:C:/Users/Yushev/git/optiga-trust-qi/externals/mbedtls/library\cipher_wrap.c ****     16,
 286:C:/Users/Yushev/git/optiga-trust-qi/externals/mbedtls/library\cipher_wrap.c ****     &aes_info
 287:C:/Users/Yushev/git/optiga-trust-qi/externals/mbedtls/library\cipher_wrap.c **** };
 288:C:/Users/Yushev/git/optiga-trust-qi/externals/mbedtls/library\cipher_wrap.c **** 
 289:C:/Users/Yushev/git/optiga-trust-qi/externals/mbedtls/library\cipher_wrap.c **** #if defined(MBEDTLS_CIPHER_MODE_CBC)
 290:C:/Users/Yushev/git/optiga-trust-qi/externals/mbedtls/library\cipher_wrap.c **** static const mbedtls_cipher_info_t aes_128_cbc_info = {
 291:C:/Users/Yushev/git/optiga-trust-qi/externals/mbedtls/library\cipher_wrap.c ****     MBEDTLS_CIPHER_AES_128_CBC,
 292:C:/Users/Yushev/git/optiga-trust-qi/externals/mbedtls/library\cipher_wrap.c ****     MBEDTLS_MODE_CBC,
 293:C:/Users/Yushev/git/optiga-trust-qi/externals/mbedtls/library\cipher_wrap.c ****     128,
 294:C:/Users/Yushev/git/optiga-trust-qi/externals/mbedtls/library\cipher_wrap.c ****     "AES-128-CBC",
 295:C:/Users/Yushev/git/optiga-trust-qi/externals/mbedtls/library\cipher_wrap.c ****     16,
 296:C:/Users/Yushev/git/optiga-trust-qi/externals/mbedtls/library\cipher_wrap.c ****     0,
 297:C:/Users/Yushev/git/optiga-trust-qi/externals/mbedtls/library\cipher_wrap.c ****     16,
 298:C:/Users/Yushev/git/optiga-trust-qi/externals/mbedtls/library\cipher_wrap.c ****     &aes_info
 299:C:/Users/Yushev/git/optiga-trust-qi/externals/mbedtls/library\cipher_wrap.c **** };
 300:C:/Users/Yushev/git/optiga-trust-qi/externals/mbedtls/library\cipher_wrap.c **** 
 301:C:/Users/Yushev/git/optiga-trust-qi/externals/mbedtls/library\cipher_wrap.c **** static const mbedtls_cipher_info_t aes_192_cbc_info = {
 302:C:/Users/Yushev/git/optiga-trust-qi/externals/mbedtls/library\cipher_wrap.c ****     MBEDTLS_CIPHER_AES_192_CBC,
 303:C:/Users/Yushev/git/optiga-trust-qi/externals/mbedtls/library\cipher_wrap.c ****     MBEDTLS_MODE_CBC,
 304:C:/Users/Yushev/git/optiga-trust-qi/externals/mbedtls/library\cipher_wrap.c ****     192,
 305:C:/Users/Yushev/git/optiga-trust-qi/externals/mbedtls/library\cipher_wrap.c ****     "AES-192-CBC",
 306:C:/Users/Yushev/git/optiga-trust-qi/externals/mbedtls/library\cipher_wrap.c ****     16,
 307:C:/Users/Yushev/git/optiga-trust-qi/externals/mbedtls/library\cipher_wrap.c ****     0,
 308:C:/Users/Yushev/git/optiga-trust-qi/externals/mbedtls/library\cipher_wrap.c ****     16,
 309:C:/Users/Yushev/git/optiga-trust-qi/externals/mbedtls/library\cipher_wrap.c ****     &aes_info
 310:C:/Users/Yushev/git/optiga-trust-qi/externals/mbedtls/library\cipher_wrap.c **** };
 311:C:/Users/Yushev/git/optiga-trust-qi/externals/mbedtls/library\cipher_wrap.c **** 
 312:C:/Users/Yushev/git/optiga-trust-qi/externals/mbedtls/library\cipher_wrap.c **** static const mbedtls_cipher_info_t aes_256_cbc_info = {
 313:C:/Users/Yushev/git/optiga-trust-qi/externals/mbedtls/library\cipher_wrap.c ****     MBEDTLS_CIPHER_AES_256_CBC,
 314:C:/Users/Yushev/git/optiga-trust-qi/externals/mbedtls/library\cipher_wrap.c ****     MBEDTLS_MODE_CBC,
 315:C:/Users/Yushev/git/optiga-trust-qi/externals/mbedtls/library\cipher_wrap.c ****     256,
 316:C:/Users/Yushev/git/optiga-trust-qi/externals/mbedtls/library\cipher_wrap.c ****     "AES-256-CBC",
 317:C:/Users/Yushev/git/optiga-trust-qi/externals/mbedtls/library\cipher_wrap.c ****     16,
 318:C:/Users/Yushev/git/optiga-trust-qi/externals/mbedtls/library\cipher_wrap.c ****     0,
 319:C:/Users/Yushev/git/optiga-trust-qi/externals/mbedtls/library\cipher_wrap.c ****     16,
 320:C:/Users/Yushev/git/optiga-trust-qi/externals/mbedtls/library\cipher_wrap.c ****     &aes_info
 321:C:/Users/Yushev/git/optiga-trust-qi/externals/mbedtls/library\cipher_wrap.c **** };
 322:C:/Users/Yushev/git/optiga-trust-qi/externals/mbedtls/library\cipher_wrap.c **** #endif /* MBEDTLS_CIPHER_MODE_CBC */
 323:C:/Users/Yushev/git/optiga-trust-qi/externals/mbedtls/library\cipher_wrap.c **** 
 324:C:/Users/Yushev/git/optiga-trust-qi/externals/mbedtls/library\cipher_wrap.c **** #if defined(MBEDTLS_CIPHER_MODE_CFB)
 325:C:/Users/Yushev/git/optiga-trust-qi/externals/mbedtls/library\cipher_wrap.c **** static const mbedtls_cipher_info_t aes_128_cfb128_info = {
 326:C:/Users/Yushev/git/optiga-trust-qi/externals/mbedtls/library\cipher_wrap.c ****     MBEDTLS_CIPHER_AES_128_CFB128,
 327:C:/Users/Yushev/git/optiga-trust-qi/externals/mbedtls/library\cipher_wrap.c ****     MBEDTLS_MODE_CFB,
 328:C:/Users/Yushev/git/optiga-trust-qi/externals/mbedtls/library\cipher_wrap.c ****     128,
 329:C:/Users/Yushev/git/optiga-trust-qi/externals/mbedtls/library\cipher_wrap.c ****     "AES-128-CFB128",
 330:C:/Users/Yushev/git/optiga-trust-qi/externals/mbedtls/library\cipher_wrap.c ****     16,
 331:C:/Users/Yushev/git/optiga-trust-qi/externals/mbedtls/library\cipher_wrap.c ****     0,
 332:C:/Users/Yushev/git/optiga-trust-qi/externals/mbedtls/library\cipher_wrap.c ****     16,
 333:C:/Users/Yushev/git/optiga-trust-qi/externals/mbedtls/library\cipher_wrap.c ****     &aes_info
 334:C:/Users/Yushev/git/optiga-trust-qi/externals/mbedtls/library\cipher_wrap.c **** };
 335:C:/Users/Yushev/git/optiga-trust-qi/externals/mbedtls/library\cipher_wrap.c **** 
 336:C:/Users/Yushev/git/optiga-trust-qi/externals/mbedtls/library\cipher_wrap.c **** static const mbedtls_cipher_info_t aes_192_cfb128_info = {
 337:C:/Users/Yushev/git/optiga-trust-qi/externals/mbedtls/library\cipher_wrap.c ****     MBEDTLS_CIPHER_AES_192_CFB128,
 338:C:/Users/Yushev/git/optiga-trust-qi/externals/mbedtls/library\cipher_wrap.c ****     MBEDTLS_MODE_CFB,
 339:C:/Users/Yushev/git/optiga-trust-qi/externals/mbedtls/library\cipher_wrap.c ****     192,
 340:C:/Users/Yushev/git/optiga-trust-qi/externals/mbedtls/library\cipher_wrap.c ****     "AES-192-CFB128",
 341:C:/Users/Yushev/git/optiga-trust-qi/externals/mbedtls/library\cipher_wrap.c ****     16,
 342:C:/Users/Yushev/git/optiga-trust-qi/externals/mbedtls/library\cipher_wrap.c ****     0,
 343:C:/Users/Yushev/git/optiga-trust-qi/externals/mbedtls/library\cipher_wrap.c ****     16,
 344:C:/Users/Yushev/git/optiga-trust-qi/externals/mbedtls/library\cipher_wrap.c ****     &aes_info
 345:C:/Users/Yushev/git/optiga-trust-qi/externals/mbedtls/library\cipher_wrap.c **** };
 346:C:/Users/Yushev/git/optiga-trust-qi/externals/mbedtls/library\cipher_wrap.c **** 
 347:C:/Users/Yushev/git/optiga-trust-qi/externals/mbedtls/library\cipher_wrap.c **** static const mbedtls_cipher_info_t aes_256_cfb128_info = {
 348:C:/Users/Yushev/git/optiga-trust-qi/externals/mbedtls/library\cipher_wrap.c ****     MBEDTLS_CIPHER_AES_256_CFB128,
 349:C:/Users/Yushev/git/optiga-trust-qi/externals/mbedtls/library\cipher_wrap.c ****     MBEDTLS_MODE_CFB,
 350:C:/Users/Yushev/git/optiga-trust-qi/externals/mbedtls/library\cipher_wrap.c ****     256,
 351:C:/Users/Yushev/git/optiga-trust-qi/externals/mbedtls/library\cipher_wrap.c ****     "AES-256-CFB128",
 352:C:/Users/Yushev/git/optiga-trust-qi/externals/mbedtls/library\cipher_wrap.c ****     16,
 353:C:/Users/Yushev/git/optiga-trust-qi/externals/mbedtls/library\cipher_wrap.c ****     0,
 354:C:/Users/Yushev/git/optiga-trust-qi/externals/mbedtls/library\cipher_wrap.c ****     16,
 355:C:/Users/Yushev/git/optiga-trust-qi/externals/mbedtls/library\cipher_wrap.c ****     &aes_info
 356:C:/Users/Yushev/git/optiga-trust-qi/externals/mbedtls/library\cipher_wrap.c **** };
 357:C:/Users/Yushev/git/optiga-trust-qi/externals/mbedtls/library\cipher_wrap.c **** #endif /* MBEDTLS_CIPHER_MODE_CFB */
 358:C:/Users/Yushev/git/optiga-trust-qi/externals/mbedtls/library\cipher_wrap.c **** 
 359:C:/Users/Yushev/git/optiga-trust-qi/externals/mbedtls/library\cipher_wrap.c **** #if defined(MBEDTLS_CIPHER_MODE_OFB)
 360:C:/Users/Yushev/git/optiga-trust-qi/externals/mbedtls/library\cipher_wrap.c **** static const mbedtls_cipher_info_t aes_128_ofb_info = {
 361:C:/Users/Yushev/git/optiga-trust-qi/externals/mbedtls/library\cipher_wrap.c ****     MBEDTLS_CIPHER_AES_128_OFB,
 362:C:/Users/Yushev/git/optiga-trust-qi/externals/mbedtls/library\cipher_wrap.c ****     MBEDTLS_MODE_OFB,
 363:C:/Users/Yushev/git/optiga-trust-qi/externals/mbedtls/library\cipher_wrap.c ****     128,
 364:C:/Users/Yushev/git/optiga-trust-qi/externals/mbedtls/library\cipher_wrap.c ****     "AES-128-OFB",
 365:C:/Users/Yushev/git/optiga-trust-qi/externals/mbedtls/library\cipher_wrap.c ****     16,
 366:C:/Users/Yushev/git/optiga-trust-qi/externals/mbedtls/library\cipher_wrap.c ****     0,
 367:C:/Users/Yushev/git/optiga-trust-qi/externals/mbedtls/library\cipher_wrap.c ****     16,
 368:C:/Users/Yushev/git/optiga-trust-qi/externals/mbedtls/library\cipher_wrap.c ****     &aes_info
 369:C:/Users/Yushev/git/optiga-trust-qi/externals/mbedtls/library\cipher_wrap.c **** };
 370:C:/Users/Yushev/git/optiga-trust-qi/externals/mbedtls/library\cipher_wrap.c **** 
 371:C:/Users/Yushev/git/optiga-trust-qi/externals/mbedtls/library\cipher_wrap.c **** static const mbedtls_cipher_info_t aes_192_ofb_info = {
 372:C:/Users/Yushev/git/optiga-trust-qi/externals/mbedtls/library\cipher_wrap.c ****     MBEDTLS_CIPHER_AES_192_OFB,
 373:C:/Users/Yushev/git/optiga-trust-qi/externals/mbedtls/library\cipher_wrap.c ****     MBEDTLS_MODE_OFB,
 374:C:/Users/Yushev/git/optiga-trust-qi/externals/mbedtls/library\cipher_wrap.c ****     192,
 375:C:/Users/Yushev/git/optiga-trust-qi/externals/mbedtls/library\cipher_wrap.c ****     "AES-192-OFB",
 376:C:/Users/Yushev/git/optiga-trust-qi/externals/mbedtls/library\cipher_wrap.c ****     16,
 377:C:/Users/Yushev/git/optiga-trust-qi/externals/mbedtls/library\cipher_wrap.c ****     0,
 378:C:/Users/Yushev/git/optiga-trust-qi/externals/mbedtls/library\cipher_wrap.c ****     16,
 379:C:/Users/Yushev/git/optiga-trust-qi/externals/mbedtls/library\cipher_wrap.c ****     &aes_info
 380:C:/Users/Yushev/git/optiga-trust-qi/externals/mbedtls/library\cipher_wrap.c **** };
 381:C:/Users/Yushev/git/optiga-trust-qi/externals/mbedtls/library\cipher_wrap.c **** 
 382:C:/Users/Yushev/git/optiga-trust-qi/externals/mbedtls/library\cipher_wrap.c **** static const mbedtls_cipher_info_t aes_256_ofb_info = {
 383:C:/Users/Yushev/git/optiga-trust-qi/externals/mbedtls/library\cipher_wrap.c ****     MBEDTLS_CIPHER_AES_256_OFB,
 384:C:/Users/Yushev/git/optiga-trust-qi/externals/mbedtls/library\cipher_wrap.c ****     MBEDTLS_MODE_OFB,
 385:C:/Users/Yushev/git/optiga-trust-qi/externals/mbedtls/library\cipher_wrap.c ****     256,
 386:C:/Users/Yushev/git/optiga-trust-qi/externals/mbedtls/library\cipher_wrap.c ****     "AES-256-OFB",
 387:C:/Users/Yushev/git/optiga-trust-qi/externals/mbedtls/library\cipher_wrap.c ****     16,
 388:C:/Users/Yushev/git/optiga-trust-qi/externals/mbedtls/library\cipher_wrap.c ****     0,
 389:C:/Users/Yushev/git/optiga-trust-qi/externals/mbedtls/library\cipher_wrap.c ****     16,
 390:C:/Users/Yushev/git/optiga-trust-qi/externals/mbedtls/library\cipher_wrap.c ****     &aes_info
 391:C:/Users/Yushev/git/optiga-trust-qi/externals/mbedtls/library\cipher_wrap.c **** };
 392:C:/Users/Yushev/git/optiga-trust-qi/externals/mbedtls/library\cipher_wrap.c **** #endif /* MBEDTLS_CIPHER_MODE_OFB */
 393:C:/Users/Yushev/git/optiga-trust-qi/externals/mbedtls/library\cipher_wrap.c **** 
 394:C:/Users/Yushev/git/optiga-trust-qi/externals/mbedtls/library\cipher_wrap.c **** #if defined(MBEDTLS_CIPHER_MODE_CTR)
 395:C:/Users/Yushev/git/optiga-trust-qi/externals/mbedtls/library\cipher_wrap.c **** static const mbedtls_cipher_info_t aes_128_ctr_info = {
 396:C:/Users/Yushev/git/optiga-trust-qi/externals/mbedtls/library\cipher_wrap.c ****     MBEDTLS_CIPHER_AES_128_CTR,
 397:C:/Users/Yushev/git/optiga-trust-qi/externals/mbedtls/library\cipher_wrap.c ****     MBEDTLS_MODE_CTR,
 398:C:/Users/Yushev/git/optiga-trust-qi/externals/mbedtls/library\cipher_wrap.c ****     128,
 399:C:/Users/Yushev/git/optiga-trust-qi/externals/mbedtls/library\cipher_wrap.c ****     "AES-128-CTR",
 400:C:/Users/Yushev/git/optiga-trust-qi/externals/mbedtls/library\cipher_wrap.c ****     16,
 401:C:/Users/Yushev/git/optiga-trust-qi/externals/mbedtls/library\cipher_wrap.c ****     0,
 402:C:/Users/Yushev/git/optiga-trust-qi/externals/mbedtls/library\cipher_wrap.c ****     16,
 403:C:/Users/Yushev/git/optiga-trust-qi/externals/mbedtls/library\cipher_wrap.c ****     &aes_info
 404:C:/Users/Yushev/git/optiga-trust-qi/externals/mbedtls/library\cipher_wrap.c **** };
 405:C:/Users/Yushev/git/optiga-trust-qi/externals/mbedtls/library\cipher_wrap.c **** 
 406:C:/Users/Yushev/git/optiga-trust-qi/externals/mbedtls/library\cipher_wrap.c **** static const mbedtls_cipher_info_t aes_192_ctr_info = {
 407:C:/Users/Yushev/git/optiga-trust-qi/externals/mbedtls/library\cipher_wrap.c ****     MBEDTLS_CIPHER_AES_192_CTR,
 408:C:/Users/Yushev/git/optiga-trust-qi/externals/mbedtls/library\cipher_wrap.c ****     MBEDTLS_MODE_CTR,
 409:C:/Users/Yushev/git/optiga-trust-qi/externals/mbedtls/library\cipher_wrap.c ****     192,
 410:C:/Users/Yushev/git/optiga-trust-qi/externals/mbedtls/library\cipher_wrap.c ****     "AES-192-CTR",
 411:C:/Users/Yushev/git/optiga-trust-qi/externals/mbedtls/library\cipher_wrap.c ****     16,
 412:C:/Users/Yushev/git/optiga-trust-qi/externals/mbedtls/library\cipher_wrap.c ****     0,
 413:C:/Users/Yushev/git/optiga-trust-qi/externals/mbedtls/library\cipher_wrap.c ****     16,
 414:C:/Users/Yushev/git/optiga-trust-qi/externals/mbedtls/library\cipher_wrap.c ****     &aes_info
 415:C:/Users/Yushev/git/optiga-trust-qi/externals/mbedtls/library\cipher_wrap.c **** };
 416:C:/Users/Yushev/git/optiga-trust-qi/externals/mbedtls/library\cipher_wrap.c **** 
 417:C:/Users/Yushev/git/optiga-trust-qi/externals/mbedtls/library\cipher_wrap.c **** static const mbedtls_cipher_info_t aes_256_ctr_info = {
 418:C:/Users/Yushev/git/optiga-trust-qi/externals/mbedtls/library\cipher_wrap.c ****     MBEDTLS_CIPHER_AES_256_CTR,
 419:C:/Users/Yushev/git/optiga-trust-qi/externals/mbedtls/library\cipher_wrap.c ****     MBEDTLS_MODE_CTR,
 420:C:/Users/Yushev/git/optiga-trust-qi/externals/mbedtls/library\cipher_wrap.c ****     256,
 421:C:/Users/Yushev/git/optiga-trust-qi/externals/mbedtls/library\cipher_wrap.c ****     "AES-256-CTR",
 422:C:/Users/Yushev/git/optiga-trust-qi/externals/mbedtls/library\cipher_wrap.c ****     16,
 423:C:/Users/Yushev/git/optiga-trust-qi/externals/mbedtls/library\cipher_wrap.c ****     0,
 424:C:/Users/Yushev/git/optiga-trust-qi/externals/mbedtls/library\cipher_wrap.c ****     16,
 425:C:/Users/Yushev/git/optiga-trust-qi/externals/mbedtls/library\cipher_wrap.c ****     &aes_info
 426:C:/Users/Yushev/git/optiga-trust-qi/externals/mbedtls/library\cipher_wrap.c **** };
 427:C:/Users/Yushev/git/optiga-trust-qi/externals/mbedtls/library\cipher_wrap.c **** #endif /* MBEDTLS_CIPHER_MODE_CTR */
 428:C:/Users/Yushev/git/optiga-trust-qi/externals/mbedtls/library\cipher_wrap.c **** 
 429:C:/Users/Yushev/git/optiga-trust-qi/externals/mbedtls/library\cipher_wrap.c **** #if defined(MBEDTLS_CIPHER_MODE_XTS)
 430:C:/Users/Yushev/git/optiga-trust-qi/externals/mbedtls/library\cipher_wrap.c **** static int xts_aes_setkey_enc_wrap( void *ctx, const unsigned char *key,
 431:C:/Users/Yushev/git/optiga-trust-qi/externals/mbedtls/library\cipher_wrap.c ****                                     unsigned int key_bitlen )
 432:C:/Users/Yushev/git/optiga-trust-qi/externals/mbedtls/library\cipher_wrap.c **** {
 433:C:/Users/Yushev/git/optiga-trust-qi/externals/mbedtls/library\cipher_wrap.c ****     mbedtls_aes_xts_context *xts_ctx = ctx;
 434:C:/Users/Yushev/git/optiga-trust-qi/externals/mbedtls/library\cipher_wrap.c ****     return( mbedtls_aes_xts_setkey_enc( xts_ctx, key, key_bitlen ) );
 435:C:/Users/Yushev/git/optiga-trust-qi/externals/mbedtls/library\cipher_wrap.c **** }
 436:C:/Users/Yushev/git/optiga-trust-qi/externals/mbedtls/library\cipher_wrap.c **** 
 437:C:/Users/Yushev/git/optiga-trust-qi/externals/mbedtls/library\cipher_wrap.c **** static int xts_aes_setkey_dec_wrap( void *ctx, const unsigned char *key,
 438:C:/Users/Yushev/git/optiga-trust-qi/externals/mbedtls/library\cipher_wrap.c ****                                     unsigned int key_bitlen )
 439:C:/Users/Yushev/git/optiga-trust-qi/externals/mbedtls/library\cipher_wrap.c **** {
 440:C:/Users/Yushev/git/optiga-trust-qi/externals/mbedtls/library\cipher_wrap.c ****     mbedtls_aes_xts_context *xts_ctx = ctx;
 441:C:/Users/Yushev/git/optiga-trust-qi/externals/mbedtls/library\cipher_wrap.c ****     return( mbedtls_aes_xts_setkey_dec( xts_ctx, key, key_bitlen ) );
 442:C:/Users/Yushev/git/optiga-trust-qi/externals/mbedtls/library\cipher_wrap.c **** }
 443:C:/Users/Yushev/git/optiga-trust-qi/externals/mbedtls/library\cipher_wrap.c **** 
 444:C:/Users/Yushev/git/optiga-trust-qi/externals/mbedtls/library\cipher_wrap.c **** static void *xts_aes_ctx_alloc( void )
 445:C:/Users/Yushev/git/optiga-trust-qi/externals/mbedtls/library\cipher_wrap.c **** {
 446:C:/Users/Yushev/git/optiga-trust-qi/externals/mbedtls/library\cipher_wrap.c ****     mbedtls_aes_xts_context *xts_ctx = mbedtls_calloc( 1, sizeof( *xts_ctx ) );
 447:C:/Users/Yushev/git/optiga-trust-qi/externals/mbedtls/library\cipher_wrap.c **** 
 448:C:/Users/Yushev/git/optiga-trust-qi/externals/mbedtls/library\cipher_wrap.c ****     if( xts_ctx != NULL )
 449:C:/Users/Yushev/git/optiga-trust-qi/externals/mbedtls/library\cipher_wrap.c ****         mbedtls_aes_xts_init( xts_ctx );
 450:C:/Users/Yushev/git/optiga-trust-qi/externals/mbedtls/library\cipher_wrap.c **** 
 451:C:/Users/Yushev/git/optiga-trust-qi/externals/mbedtls/library\cipher_wrap.c ****     return( xts_ctx );
 452:C:/Users/Yushev/git/optiga-trust-qi/externals/mbedtls/library\cipher_wrap.c **** }
 453:C:/Users/Yushev/git/optiga-trust-qi/externals/mbedtls/library\cipher_wrap.c **** 
 454:C:/Users/Yushev/git/optiga-trust-qi/externals/mbedtls/library\cipher_wrap.c **** static void xts_aes_ctx_free( void *ctx )
 455:C:/Users/Yushev/git/optiga-trust-qi/externals/mbedtls/library\cipher_wrap.c **** {
 456:C:/Users/Yushev/git/optiga-trust-qi/externals/mbedtls/library\cipher_wrap.c ****     mbedtls_aes_xts_context *xts_ctx = ctx;
 457:C:/Users/Yushev/git/optiga-trust-qi/externals/mbedtls/library\cipher_wrap.c **** 
 458:C:/Users/Yushev/git/optiga-trust-qi/externals/mbedtls/library\cipher_wrap.c ****     if( xts_ctx == NULL )
 459:C:/Users/Yushev/git/optiga-trust-qi/externals/mbedtls/library\cipher_wrap.c ****         return;
 460:C:/Users/Yushev/git/optiga-trust-qi/externals/mbedtls/library\cipher_wrap.c **** 
 461:C:/Users/Yushev/git/optiga-trust-qi/externals/mbedtls/library\cipher_wrap.c ****     mbedtls_aes_xts_free( xts_ctx );
 462:C:/Users/Yushev/git/optiga-trust-qi/externals/mbedtls/library\cipher_wrap.c ****     mbedtls_free( xts_ctx );
 463:C:/Users/Yushev/git/optiga-trust-qi/externals/mbedtls/library\cipher_wrap.c **** }
 464:C:/Users/Yushev/git/optiga-trust-qi/externals/mbedtls/library\cipher_wrap.c **** 
 465:C:/Users/Yushev/git/optiga-trust-qi/externals/mbedtls/library\cipher_wrap.c **** static const mbedtls_cipher_base_t xts_aes_info = {
 466:C:/Users/Yushev/git/optiga-trust-qi/externals/mbedtls/library\cipher_wrap.c ****     MBEDTLS_CIPHER_ID_AES,
 467:C:/Users/Yushev/git/optiga-trust-qi/externals/mbedtls/library\cipher_wrap.c ****     NULL,
 468:C:/Users/Yushev/git/optiga-trust-qi/externals/mbedtls/library\cipher_wrap.c **** #if defined(MBEDTLS_CIPHER_MODE_CBC)
 469:C:/Users/Yushev/git/optiga-trust-qi/externals/mbedtls/library\cipher_wrap.c ****     NULL,
 470:C:/Users/Yushev/git/optiga-trust-qi/externals/mbedtls/library\cipher_wrap.c **** #endif
 471:C:/Users/Yushev/git/optiga-trust-qi/externals/mbedtls/library\cipher_wrap.c **** #if defined(MBEDTLS_CIPHER_MODE_CFB)
 472:C:/Users/Yushev/git/optiga-trust-qi/externals/mbedtls/library\cipher_wrap.c ****     NULL,
 473:C:/Users/Yushev/git/optiga-trust-qi/externals/mbedtls/library\cipher_wrap.c **** #endif
 474:C:/Users/Yushev/git/optiga-trust-qi/externals/mbedtls/library\cipher_wrap.c **** #if defined(MBEDTLS_CIPHER_MODE_OFB)
 475:C:/Users/Yushev/git/optiga-trust-qi/externals/mbedtls/library\cipher_wrap.c ****     NULL,
 476:C:/Users/Yushev/git/optiga-trust-qi/externals/mbedtls/library\cipher_wrap.c **** #endif
 477:C:/Users/Yushev/git/optiga-trust-qi/externals/mbedtls/library\cipher_wrap.c **** #if defined(MBEDTLS_CIPHER_MODE_CTR)
 478:C:/Users/Yushev/git/optiga-trust-qi/externals/mbedtls/library\cipher_wrap.c ****     NULL,
 479:C:/Users/Yushev/git/optiga-trust-qi/externals/mbedtls/library\cipher_wrap.c **** #endif
 480:C:/Users/Yushev/git/optiga-trust-qi/externals/mbedtls/library\cipher_wrap.c **** #if defined(MBEDTLS_CIPHER_MODE_XTS)
 481:C:/Users/Yushev/git/optiga-trust-qi/externals/mbedtls/library\cipher_wrap.c ****     aes_crypt_xts_wrap,
 482:C:/Users/Yushev/git/optiga-trust-qi/externals/mbedtls/library\cipher_wrap.c **** #endif
 483:C:/Users/Yushev/git/optiga-trust-qi/externals/mbedtls/library\cipher_wrap.c **** #if defined(MBEDTLS_CIPHER_MODE_STREAM)
 484:C:/Users/Yushev/git/optiga-trust-qi/externals/mbedtls/library\cipher_wrap.c ****     NULL,
 485:C:/Users/Yushev/git/optiga-trust-qi/externals/mbedtls/library\cipher_wrap.c **** #endif
 486:C:/Users/Yushev/git/optiga-trust-qi/externals/mbedtls/library\cipher_wrap.c ****     xts_aes_setkey_enc_wrap,
 487:C:/Users/Yushev/git/optiga-trust-qi/externals/mbedtls/library\cipher_wrap.c ****     xts_aes_setkey_dec_wrap,
 488:C:/Users/Yushev/git/optiga-trust-qi/externals/mbedtls/library\cipher_wrap.c ****     xts_aes_ctx_alloc,
 489:C:/Users/Yushev/git/optiga-trust-qi/externals/mbedtls/library\cipher_wrap.c ****     xts_aes_ctx_free
 490:C:/Users/Yushev/git/optiga-trust-qi/externals/mbedtls/library\cipher_wrap.c **** };
 491:C:/Users/Yushev/git/optiga-trust-qi/externals/mbedtls/library\cipher_wrap.c **** 
 492:C:/Users/Yushev/git/optiga-trust-qi/externals/mbedtls/library\cipher_wrap.c **** static const mbedtls_cipher_info_t aes_128_xts_info = {
 493:C:/Users/Yushev/git/optiga-trust-qi/externals/mbedtls/library\cipher_wrap.c ****     MBEDTLS_CIPHER_AES_128_XTS,
 494:C:/Users/Yushev/git/optiga-trust-qi/externals/mbedtls/library\cipher_wrap.c ****     MBEDTLS_MODE_XTS,
 495:C:/Users/Yushev/git/optiga-trust-qi/externals/mbedtls/library\cipher_wrap.c ****     256,
 496:C:/Users/Yushev/git/optiga-trust-qi/externals/mbedtls/library\cipher_wrap.c ****     "AES-128-XTS",
 497:C:/Users/Yushev/git/optiga-trust-qi/externals/mbedtls/library\cipher_wrap.c ****     16,
 498:C:/Users/Yushev/git/optiga-trust-qi/externals/mbedtls/library\cipher_wrap.c ****     0,
 499:C:/Users/Yushev/git/optiga-trust-qi/externals/mbedtls/library\cipher_wrap.c ****     16,
 500:C:/Users/Yushev/git/optiga-trust-qi/externals/mbedtls/library\cipher_wrap.c ****     &xts_aes_info
 501:C:/Users/Yushev/git/optiga-trust-qi/externals/mbedtls/library\cipher_wrap.c **** };
 502:C:/Users/Yushev/git/optiga-trust-qi/externals/mbedtls/library\cipher_wrap.c **** 
 503:C:/Users/Yushev/git/optiga-trust-qi/externals/mbedtls/library\cipher_wrap.c **** static const mbedtls_cipher_info_t aes_256_xts_info = {
 504:C:/Users/Yushev/git/optiga-trust-qi/externals/mbedtls/library\cipher_wrap.c ****     MBEDTLS_CIPHER_AES_256_XTS,
 505:C:/Users/Yushev/git/optiga-trust-qi/externals/mbedtls/library\cipher_wrap.c ****     MBEDTLS_MODE_XTS,
 506:C:/Users/Yushev/git/optiga-trust-qi/externals/mbedtls/library\cipher_wrap.c ****     512,
 507:C:/Users/Yushev/git/optiga-trust-qi/externals/mbedtls/library\cipher_wrap.c ****     "AES-256-XTS",
 508:C:/Users/Yushev/git/optiga-trust-qi/externals/mbedtls/library\cipher_wrap.c ****     16,
 509:C:/Users/Yushev/git/optiga-trust-qi/externals/mbedtls/library\cipher_wrap.c ****     0,
 510:C:/Users/Yushev/git/optiga-trust-qi/externals/mbedtls/library\cipher_wrap.c ****     16,
 511:C:/Users/Yushev/git/optiga-trust-qi/externals/mbedtls/library\cipher_wrap.c ****     &xts_aes_info
 512:C:/Users/Yushev/git/optiga-trust-qi/externals/mbedtls/library\cipher_wrap.c **** };
 513:C:/Users/Yushev/git/optiga-trust-qi/externals/mbedtls/library\cipher_wrap.c **** #endif /* MBEDTLS_CIPHER_MODE_XTS */
 514:C:/Users/Yushev/git/optiga-trust-qi/externals/mbedtls/library\cipher_wrap.c **** 
 515:C:/Users/Yushev/git/optiga-trust-qi/externals/mbedtls/library\cipher_wrap.c **** #if defined(MBEDTLS_GCM_C)
 516:C:/Users/Yushev/git/optiga-trust-qi/externals/mbedtls/library\cipher_wrap.c **** static int gcm_aes_setkey_wrap( void *ctx, const unsigned char *key,
 517:C:/Users/Yushev/git/optiga-trust-qi/externals/mbedtls/library\cipher_wrap.c ****                                 unsigned int key_bitlen )
 518:C:/Users/Yushev/git/optiga-trust-qi/externals/mbedtls/library\cipher_wrap.c **** {
 519:C:/Users/Yushev/git/optiga-trust-qi/externals/mbedtls/library\cipher_wrap.c ****     return mbedtls_gcm_setkey( (mbedtls_gcm_context *) ctx, MBEDTLS_CIPHER_ID_AES,
 520:C:/Users/Yushev/git/optiga-trust-qi/externals/mbedtls/library\cipher_wrap.c ****                      key, key_bitlen );
 521:C:/Users/Yushev/git/optiga-trust-qi/externals/mbedtls/library\cipher_wrap.c **** }
 522:C:/Users/Yushev/git/optiga-trust-qi/externals/mbedtls/library\cipher_wrap.c **** 
 523:C:/Users/Yushev/git/optiga-trust-qi/externals/mbedtls/library\cipher_wrap.c **** static const mbedtls_cipher_base_t gcm_aes_info = {
 524:C:/Users/Yushev/git/optiga-trust-qi/externals/mbedtls/library\cipher_wrap.c ****     MBEDTLS_CIPHER_ID_AES,
 525:C:/Users/Yushev/git/optiga-trust-qi/externals/mbedtls/library\cipher_wrap.c ****     NULL,
 526:C:/Users/Yushev/git/optiga-trust-qi/externals/mbedtls/library\cipher_wrap.c **** #if defined(MBEDTLS_CIPHER_MODE_CBC)
 527:C:/Users/Yushev/git/optiga-trust-qi/externals/mbedtls/library\cipher_wrap.c ****     NULL,
 528:C:/Users/Yushev/git/optiga-trust-qi/externals/mbedtls/library\cipher_wrap.c **** #endif
 529:C:/Users/Yushev/git/optiga-trust-qi/externals/mbedtls/library\cipher_wrap.c **** #if defined(MBEDTLS_CIPHER_MODE_CFB)
 530:C:/Users/Yushev/git/optiga-trust-qi/externals/mbedtls/library\cipher_wrap.c ****     NULL,
 531:C:/Users/Yushev/git/optiga-trust-qi/externals/mbedtls/library\cipher_wrap.c **** #endif
 532:C:/Users/Yushev/git/optiga-trust-qi/externals/mbedtls/library\cipher_wrap.c **** #if defined(MBEDTLS_CIPHER_MODE_OFB)
 533:C:/Users/Yushev/git/optiga-trust-qi/externals/mbedtls/library\cipher_wrap.c ****     NULL,
 534:C:/Users/Yushev/git/optiga-trust-qi/externals/mbedtls/library\cipher_wrap.c **** #endif
 535:C:/Users/Yushev/git/optiga-trust-qi/externals/mbedtls/library\cipher_wrap.c **** #if defined(MBEDTLS_CIPHER_MODE_CTR)
 536:C:/Users/Yushev/git/optiga-trust-qi/externals/mbedtls/library\cipher_wrap.c ****     NULL,
 537:C:/Users/Yushev/git/optiga-trust-qi/externals/mbedtls/library\cipher_wrap.c **** #endif
 538:C:/Users/Yushev/git/optiga-trust-qi/externals/mbedtls/library\cipher_wrap.c **** #if defined(MBEDTLS_CIPHER_MODE_XTS)
 539:C:/Users/Yushev/git/optiga-trust-qi/externals/mbedtls/library\cipher_wrap.c ****     NULL,
 540:C:/Users/Yushev/git/optiga-trust-qi/externals/mbedtls/library\cipher_wrap.c **** #endif
 541:C:/Users/Yushev/git/optiga-trust-qi/externals/mbedtls/library\cipher_wrap.c **** #if defined(MBEDTLS_CIPHER_MODE_STREAM)
 542:C:/Users/Yushev/git/optiga-trust-qi/externals/mbedtls/library\cipher_wrap.c ****     NULL,
 543:C:/Users/Yushev/git/optiga-trust-qi/externals/mbedtls/library\cipher_wrap.c **** #endif
 544:C:/Users/Yushev/git/optiga-trust-qi/externals/mbedtls/library\cipher_wrap.c ****     gcm_aes_setkey_wrap,
 545:C:/Users/Yushev/git/optiga-trust-qi/externals/mbedtls/library\cipher_wrap.c ****     gcm_aes_setkey_wrap,
 546:C:/Users/Yushev/git/optiga-trust-qi/externals/mbedtls/library\cipher_wrap.c ****     gcm_ctx_alloc,
 547:C:/Users/Yushev/git/optiga-trust-qi/externals/mbedtls/library\cipher_wrap.c ****     gcm_ctx_free,
 548:C:/Users/Yushev/git/optiga-trust-qi/externals/mbedtls/library\cipher_wrap.c **** };
 549:C:/Users/Yushev/git/optiga-trust-qi/externals/mbedtls/library\cipher_wrap.c **** 
 550:C:/Users/Yushev/git/optiga-trust-qi/externals/mbedtls/library\cipher_wrap.c **** static const mbedtls_cipher_info_t aes_128_gcm_info = {
 551:C:/Users/Yushev/git/optiga-trust-qi/externals/mbedtls/library\cipher_wrap.c ****     MBEDTLS_CIPHER_AES_128_GCM,
 552:C:/Users/Yushev/git/optiga-trust-qi/externals/mbedtls/library\cipher_wrap.c ****     MBEDTLS_MODE_GCM,
 553:C:/Users/Yushev/git/optiga-trust-qi/externals/mbedtls/library\cipher_wrap.c ****     128,
 554:C:/Users/Yushev/git/optiga-trust-qi/externals/mbedtls/library\cipher_wrap.c ****     "AES-128-GCM",
 555:C:/Users/Yushev/git/optiga-trust-qi/externals/mbedtls/library\cipher_wrap.c ****     12,
 556:C:/Users/Yushev/git/optiga-trust-qi/externals/mbedtls/library\cipher_wrap.c ****     MBEDTLS_CIPHER_VARIABLE_IV_LEN,
 557:C:/Users/Yushev/git/optiga-trust-qi/externals/mbedtls/library\cipher_wrap.c ****     16,
 558:C:/Users/Yushev/git/optiga-trust-qi/externals/mbedtls/library\cipher_wrap.c ****     &gcm_aes_info
 559:C:/Users/Yushev/git/optiga-trust-qi/externals/mbedtls/library\cipher_wrap.c **** };
 560:C:/Users/Yushev/git/optiga-trust-qi/externals/mbedtls/library\cipher_wrap.c **** 
 561:C:/Users/Yushev/git/optiga-trust-qi/externals/mbedtls/library\cipher_wrap.c **** static const mbedtls_cipher_info_t aes_192_gcm_info = {
 562:C:/Users/Yushev/git/optiga-trust-qi/externals/mbedtls/library\cipher_wrap.c ****     MBEDTLS_CIPHER_AES_192_GCM,
 563:C:/Users/Yushev/git/optiga-trust-qi/externals/mbedtls/library\cipher_wrap.c ****     MBEDTLS_MODE_GCM,
 564:C:/Users/Yushev/git/optiga-trust-qi/externals/mbedtls/library\cipher_wrap.c ****     192,
 565:C:/Users/Yushev/git/optiga-trust-qi/externals/mbedtls/library\cipher_wrap.c ****     "AES-192-GCM",
 566:C:/Users/Yushev/git/optiga-trust-qi/externals/mbedtls/library\cipher_wrap.c ****     12,
 567:C:/Users/Yushev/git/optiga-trust-qi/externals/mbedtls/library\cipher_wrap.c ****     MBEDTLS_CIPHER_VARIABLE_IV_LEN,
 568:C:/Users/Yushev/git/optiga-trust-qi/externals/mbedtls/library\cipher_wrap.c ****     16,
 569:C:/Users/Yushev/git/optiga-trust-qi/externals/mbedtls/library\cipher_wrap.c ****     &gcm_aes_info
 570:C:/Users/Yushev/git/optiga-trust-qi/externals/mbedtls/library\cipher_wrap.c **** };
 571:C:/Users/Yushev/git/optiga-trust-qi/externals/mbedtls/library\cipher_wrap.c **** 
 572:C:/Users/Yushev/git/optiga-trust-qi/externals/mbedtls/library\cipher_wrap.c **** static const mbedtls_cipher_info_t aes_256_gcm_info = {
 573:C:/Users/Yushev/git/optiga-trust-qi/externals/mbedtls/library\cipher_wrap.c ****     MBEDTLS_CIPHER_AES_256_GCM,
 574:C:/Users/Yushev/git/optiga-trust-qi/externals/mbedtls/library\cipher_wrap.c ****     MBEDTLS_MODE_GCM,
 575:C:/Users/Yushev/git/optiga-trust-qi/externals/mbedtls/library\cipher_wrap.c ****     256,
 576:C:/Users/Yushev/git/optiga-trust-qi/externals/mbedtls/library\cipher_wrap.c ****     "AES-256-GCM",
 577:C:/Users/Yushev/git/optiga-trust-qi/externals/mbedtls/library\cipher_wrap.c ****     12,
 578:C:/Users/Yushev/git/optiga-trust-qi/externals/mbedtls/library\cipher_wrap.c ****     MBEDTLS_CIPHER_VARIABLE_IV_LEN,
 579:C:/Users/Yushev/git/optiga-trust-qi/externals/mbedtls/library\cipher_wrap.c ****     16,
 580:C:/Users/Yushev/git/optiga-trust-qi/externals/mbedtls/library\cipher_wrap.c ****     &gcm_aes_info
 581:C:/Users/Yushev/git/optiga-trust-qi/externals/mbedtls/library\cipher_wrap.c **** };
 582:C:/Users/Yushev/git/optiga-trust-qi/externals/mbedtls/library\cipher_wrap.c **** #endif /* MBEDTLS_GCM_C */
 583:C:/Users/Yushev/git/optiga-trust-qi/externals/mbedtls/library\cipher_wrap.c **** 
 584:C:/Users/Yushev/git/optiga-trust-qi/externals/mbedtls/library\cipher_wrap.c **** #if defined(MBEDTLS_CCM_C)
 585:C:/Users/Yushev/git/optiga-trust-qi/externals/mbedtls/library\cipher_wrap.c **** static int ccm_aes_setkey_wrap( void *ctx, const unsigned char *key,
 586:C:/Users/Yushev/git/optiga-trust-qi/externals/mbedtls/library\cipher_wrap.c ****                                 unsigned int key_bitlen )
 587:C:/Users/Yushev/git/optiga-trust-qi/externals/mbedtls/library\cipher_wrap.c **** {
  98              	 .loc 1 587 0
  99              	 .cfi_startproc
 100              	 
 101              	 
 102              	.LVL6:
 103 0000 10B5     	 push {r4,lr}
 104              	.LCFI3:
 105              	 .cfi_def_cfa_offset 8
 106              	 .cfi_offset 4,-8
 107              	 .cfi_offset 14,-4
 108              	 .loc 1 587 0
 109 0002 0C46     	 mov r4,r1
 110 0004 1346     	 mov r3,r2
 588:C:/Users/Yushev/git/optiga-trust-qi/externals/mbedtls/library\cipher_wrap.c ****     return mbedtls_ccm_setkey( (mbedtls_ccm_context *) ctx, MBEDTLS_CIPHER_ID_AES,
 111              	 .loc 1 588 0
 112 0006 0221     	 movs r1,#2
 113              	.LVL7:
 114 0008 2246     	 mov r2,r4
 115              	.LVL8:
 589:C:/Users/Yushev/git/optiga-trust-qi/externals/mbedtls/library\cipher_wrap.c ****                      key, key_bitlen );
 590:C:/Users/Yushev/git/optiga-trust-qi/externals/mbedtls/library\cipher_wrap.c **** }
 116              	 .loc 1 590 0
 117 000a BDE81040 	 pop {r4,lr}
 118              	.LCFI4:
 119              	 .cfi_restore 14
 120              	 .cfi_restore 4
 121              	 .cfi_def_cfa_offset 0
 122              	.LVL9:
 588:C:/Users/Yushev/git/optiga-trust-qi/externals/mbedtls/library\cipher_wrap.c ****     return mbedtls_ccm_setkey( (mbedtls_ccm_context *) ctx, MBEDTLS_CIPHER_ID_AES,
 123              	 .loc 1 588 0
 124 000e FFF7FEBF 	 b mbedtls_ccm_setkey
 125              	.LVL10:
 126              	 .cfi_endproc
 127              	.LFE14:
 129              	 .section .text.aes_ctx_free,"ax",%progbits
 130              	 .align 1
 131              	 .thumb
 132              	 .thumb_func
 134              	aes_ctx_free:
 135              	.LFB13:
 224:C:/Users/Yushev/git/optiga-trust-qi/externals/mbedtls/library\cipher_wrap.c ****     mbedtls_aes_free( (mbedtls_aes_context *) ctx );
 136              	 .loc 1 224 0
 137              	 .cfi_startproc
 138              	 
 139              	 
 140              	.LVL11:
 141 0000 10B5     	 push {r4,lr}
 142              	.LCFI5:
 143              	 .cfi_def_cfa_offset 8
 144              	 .cfi_offset 4,-8
 145              	 .cfi_offset 14,-4
 224:C:/Users/Yushev/git/optiga-trust-qi/externals/mbedtls/library\cipher_wrap.c ****     mbedtls_aes_free( (mbedtls_aes_context *) ctx );
 146              	 .loc 1 224 0
 147 0002 0446     	 mov r4,r0
 225:C:/Users/Yushev/git/optiga-trust-qi/externals/mbedtls/library\cipher_wrap.c ****     mbedtls_free( ctx );
 148              	 .loc 1 225 0
 149 0004 FFF7FEFF 	 bl mbedtls_aes_free
 150              	.LVL12:
 226:C:/Users/Yushev/git/optiga-trust-qi/externals/mbedtls/library\cipher_wrap.c **** }
 151              	 .loc 1 226 0
 152 0008 2046     	 mov r0,r4
 227:C:/Users/Yushev/git/optiga-trust-qi/externals/mbedtls/library\cipher_wrap.c **** 
 153              	 .loc 1 227 0
 154 000a BDE81040 	 pop {r4,lr}
 155              	.LCFI6:
 156              	 .cfi_restore 14
 157              	 .cfi_restore 4
 158              	 .cfi_def_cfa_offset 0
 159              	.LVL13:
 226:C:/Users/Yushev/git/optiga-trust-qi/externals/mbedtls/library\cipher_wrap.c **** }
 160              	 .loc 1 226 0
 161 000e FFF7FEBF 	 b free
 162              	.LVL14:
 163              	 .cfi_endproc
 164              	.LFE13:
 166              	 .section .text.aes_ctx_alloc,"ax",%progbits
 167              	 .align 1
 168              	 .thumb
 169              	 .thumb_func
 171              	aes_ctx_alloc:
 172              	.LFB12:
 212:C:/Users/Yushev/git/optiga-trust-qi/externals/mbedtls/library\cipher_wrap.c ****     mbedtls_aes_context *aes = mbedtls_calloc( 1, sizeof( mbedtls_aes_context ) );
 173              	 .loc 1 212 0
 174              	 .cfi_startproc
 175              	 
 176              	 
 177 0000 10B5     	 push {r4,lr}
 178              	.LCFI7:
 179              	 .cfi_def_cfa_offset 8
 180              	 .cfi_offset 4,-8
 181              	 .cfi_offset 14,-4
 213:C:/Users/Yushev/git/optiga-trust-qi/externals/mbedtls/library\cipher_wrap.c **** 
 182              	 .loc 1 213 0
 183 0002 0120     	 movs r0,#1
 184 0004 4FF48C71 	 mov r1,#280
 185 0008 FFF7FEFF 	 bl calloc
 186              	.LVL15:
 215:C:/Users/Yushev/git/optiga-trust-qi/externals/mbedtls/library\cipher_wrap.c ****         return( NULL );
 187              	 .loc 1 215 0
 188 000c 0446     	 mov r4,r0
 189 000e 08B1     	 cbz r0,.L11
 218:C:/Users/Yushev/git/optiga-trust-qi/externals/mbedtls/library\cipher_wrap.c **** 
 190              	 .loc 1 218 0
 191 0010 FFF7FEFF 	 bl mbedtls_aes_init
 192              	.LVL16:
 193              	.L11:
 221:C:/Users/Yushev/git/optiga-trust-qi/externals/mbedtls/library\cipher_wrap.c **** 
 194              	 .loc 1 221 0
 195 0014 2046     	 mov r0,r4
 196 0016 10BD     	 pop {r4,pc}
 197              	 .cfi_endproc
 198              	.LFE12:
 200              	 .section .text.aes_setkey_dec_wrap,"ax",%progbits
 201              	 .align 1
 202              	 .thumb
 203              	 .thumb_func
 205              	aes_setkey_dec_wrap:
 206              	.LFB10:
 201:C:/Users/Yushev/git/optiga-trust-qi/externals/mbedtls/library\cipher_wrap.c ****     return mbedtls_aes_setkey_dec( (mbedtls_aes_context *) ctx, key, key_bitlen );
 207              	 .loc 1 201 0
 208              	 .cfi_startproc
 209              	 
 210              	 
 211              	 
 212              	.LVL17:
 202:C:/Users/Yushev/git/optiga-trust-qi/externals/mbedtls/library\cipher_wrap.c **** }
 213              	 .loc 1 202 0
 214 0000 FFF7FEBF 	 b mbedtls_aes_setkey_dec
 215              	.LVL18:
 216              	 .cfi_endproc
 217              	.LFE10:
 219              	 .section .text.aes_setkey_enc_wrap,"ax",%progbits
 220              	 .align 1
 221              	 .thumb
 222              	 .thumb_func
 224              	aes_setkey_enc_wrap:
 225              	.LFB11:
 207:C:/Users/Yushev/git/optiga-trust-qi/externals/mbedtls/library\cipher_wrap.c ****     return mbedtls_aes_setkey_enc( (mbedtls_aes_context *) ctx, key, key_bitlen );
 226              	 .loc 1 207 0
 227              	 .cfi_startproc
 228              	 
 229              	 
 230              	 
 231              	.LVL19:
 208:C:/Users/Yushev/git/optiga-trust-qi/externals/mbedtls/library\cipher_wrap.c **** }
 232              	 .loc 1 208 0
 233 0000 FFF7FEBF 	 b mbedtls_aes_setkey_enc
 234              	.LVL20:
 235              	 .cfi_endproc
 236              	.LFE11:
 238              	 .section .text.aes_crypt_ecb_wrap,"ax",%progbits
 239              	 .align 1
 240              	 .thumb
 241              	 .thumb_func
 243              	aes_crypt_ecb_wrap:
 244              	.LFB9:
 130:C:/Users/Yushev/git/optiga-trust-qi/externals/mbedtls/library\cipher_wrap.c ****     return mbedtls_aes_crypt_ecb( (mbedtls_aes_context *) ctx, operation, input, output );
 245              	 .loc 1 130 0
 246              	 .cfi_startproc
 247              	 
 248              	 
 249              	 
 250              	.LVL21:
 131:C:/Users/Yushev/git/optiga-trust-qi/externals/mbedtls/library\cipher_wrap.c **** }
 251              	 .loc 1 131 0
 252 0000 FFF7FEBF 	 b mbedtls_aes_crypt_ecb
 253              	.LVL22:
 254              	 .cfi_endproc
 255              	.LFE9:
 257              	 .comm mbedtls_cipher_supported,28,4
 258              	 .global mbedtls_cipher_definitions
 259              	 .section .rodata.aes_info,"a",%progbits
 260              	 .align 2
 263              	aes_info:
 264 0000 02       	 .byte 2
 265 0001 000000   	 .space 3
 266 0004 00000000 	 .word aes_crypt_ecb_wrap
 267 0008 00000000 	 .word aes_setkey_enc_wrap
 268 000c 00000000 	 .word aes_setkey_dec_wrap
 269 0010 00000000 	 .word aes_ctx_alloc
 270 0014 00000000 	 .word aes_ctx_free
 271              	 .section .rodata.aes_192_ccm_info,"a",%progbits
 272              	 .align 2
 275              	aes_192_ccm_info:
 276 0000 2C       	 .byte 44
 277 0001 08       	 .byte 8
 278 0002 0000     	 .space 2
 279 0004 C0000000 	 .word 192
 280 0008 0C000000 	 .word .LC1
 281 000c 0C000000 	 .word 12
 282 0010 01000000 	 .word 1
 283 0014 10000000 	 .word 16
 284 0018 00000000 	 .word ccm_aes_info
 285              	 .section .rodata.mbedtls_cipher_definitions,"a",%progbits
 286              	 .align 2
 289              	mbedtls_cipher_definitions:
 290 0000 02       	 .byte 2
 291 0001 000000   	 .space 3
 292 0004 00000000 	 .word aes_128_ecb_info
 293 0008 03       	 .byte 3
 294 0009 000000   	 .space 3
 295 000c 00000000 	 .word aes_192_ecb_info
 296 0010 04       	 .byte 4
 297 0011 000000   	 .space 3
 298 0014 00000000 	 .word aes_256_ecb_info
 299 0018 2B       	 .byte 43
 300 0019 000000   	 .space 3
 301 001c 00000000 	 .word aes_128_ccm_info
 302 0020 2C       	 .byte 44
 303 0021 000000   	 .space 3
 304 0024 00000000 	 .word aes_192_ccm_info
 305 0028 2D       	 .byte 45
 306 0029 000000   	 .space 3
 307 002c 00000000 	 .word aes_256_ccm_info
 308 0030 00       	 .byte 0
 309 0031 000000   	 .space 3
 310 0034 00000000 	 .word 0
 311              	 .section .rodata.aes_128_ccm_info,"a",%progbits
 312              	 .align 2
 315              	aes_128_ccm_info:
 316 0000 2B       	 .byte 43
 317 0001 08       	 .byte 8
 318 0002 0000     	 .space 2
 319 0004 80000000 	 .word 128
 320 0008 18000000 	 .word .LC2
 321 000c 0C000000 	 .word 12
 322 0010 01000000 	 .word 1
 323 0014 10000000 	 .word 16
 324 0018 00000000 	 .word ccm_aes_info
 325              	 .section .rodata.str1.1,"aMS",%progbits,1
 326              	.LC0:
 327 0000 4145532D 	 .ascii "AES-256-CCM\000"
 327      3235362D 
 327      43434D00 
 328              	.LC1:
 329 000c 4145532D 	 .ascii "AES-192-CCM\000"
 329      3139322D 
 329      43434D00 
 330              	.LC2:
 331 0018 4145532D 	 .ascii "AES-128-CCM\000"
 331      3132382D 
 331      43434D00 
 332              	.LC3:
 333 0024 4145532D 	 .ascii "AES-256-ECB\000"
 333      3235362D 
 333      45434200 
 334              	.LC4:
 335 0030 4145532D 	 .ascii "AES-192-ECB\000"
 335      3139322D 
 335      45434200 
 336              	.LC5:
 337 003c 4145532D 	 .ascii "AES-128-ECB\000"
 337      3132382D 
 337      45434200 
 338              	 .section .rodata.ccm_aes_info,"a",%progbits
 339              	 .align 2
 342              	ccm_aes_info:
 343 0000 02       	 .byte 2
 344 0001 000000   	 .space 3
 345 0004 00000000 	 .word 0
 346 0008 00000000 	 .word ccm_aes_setkey_wrap
 347 000c 00000000 	 .word ccm_aes_setkey_wrap
 348 0010 00000000 	 .word ccm_ctx_alloc
 349 0014 00000000 	 .word ccm_ctx_free
 350              	 .section .rodata.aes_256_ccm_info,"a",%progbits
 351              	 .align 2
 354              	aes_256_ccm_info:
 355 0000 2D       	 .byte 45
 356 0001 08       	 .byte 8
 357 0002 0000     	 .space 2
 358 0004 00010000 	 .word 256
 359 0008 00000000 	 .word .LC0
 360 000c 0C000000 	 .word 12
 361 0010 01000000 	 .word 1
 362 0014 10000000 	 .word 16
 363 0018 00000000 	 .word ccm_aes_info
 364              	 .section .rodata.aes_192_ecb_info,"a",%progbits
 365              	 .align 2
 368              	aes_192_ecb_info:
 369 0000 03       	 .byte 3
 370 0001 01       	 .byte 1
 371 0002 0000     	 .space 2
 372 0004 C0000000 	 .word 192
 373 0008 30000000 	 .word .LC4
 374 000c 00000000 	 .word 0
 375 0010 00000000 	 .word 0
 376 0014 10000000 	 .word 16
 377 0018 00000000 	 .word aes_info
 378              	 .section .rodata.aes_256_ecb_info,"a",%progbits
 379              	 .align 2
 382              	aes_256_ecb_info:
 383 0000 04       	 .byte 4
 384 0001 01       	 .byte 1
 385 0002 0000     	 .space 2
 386 0004 00010000 	 .word 256
 387 0008 24000000 	 .word .LC3
 388 000c 00000000 	 .word 0
 389 0010 00000000 	 .word 0
 390 0014 10000000 	 .word 16
 391 0018 00000000 	 .word aes_info
 392              	 .section .rodata.aes_128_ecb_info,"a",%progbits
 393              	 .align 2
 396              	aes_128_ecb_info:
 397 0000 02       	 .byte 2
 398 0001 01       	 .byte 1
 399 0002 0000     	 .space 2
 400 0004 80000000 	 .word 128
 401 0008 3C000000 	 .word .LC5
 402 000c 00000000 	 .word 0
 403 0010 00000000 	 .word 0
 404 0014 10000000 	 .word 16
 405 0018 00000000 	 .word aes_info
 406              	 .text
 407              	.Letext0:
 408              	 .file 2 "c:\\users\\yushev\\dave_4-4-2_32bit_2018-02-23\\dave-ide-4.4.2-32bit\\eclipse\\arm-gcc-49\\lib\\gcc\\arm-none-eabi\\4.9.3\\include\\stddef.h"
 409              	 .file 3 "C:/Users/Yushev/git/optiga-trust-qi/externals/mbedtls/include/mbedtls/cipher.h"
 410              	 .file 4 "C:/Users/Yushev/git/optiga-trust-qi/externals/mbedtls/include/mbedtls/cipher_internal.h"
 411              	 .file 5 "c:\\users\\yushev\\dave_4-4-2_32bit_2018-02-23\\dave-ide-4.4.2-32bit\\eclipse\\arm-gcc-49\\arm-none-eabi\\include\\machine\\_default_types.h"
 412              	 .file 6 "c:\\users\\yushev\\dave_4-4-2_32bit_2018-02-23\\dave-ide-4.4.2-32bit\\eclipse\\arm-gcc-49\\arm-none-eabi\\include\\stdint.h"
 413              	 .file 7 "C:/Users/Yushev/git/optiga-trust-qi/externals/mbedtls/include/mbedtls/aes.h"
 414              	 .file 8 "C:/Users/Yushev/git/optiga-trust-qi/externals/mbedtls/include/mbedtls/ccm.h"
 415              	 .file 9 "c:\\users\\yushev\\dave_4-4-2_32bit_2018-02-23\\dave-ide-4.4.2-32bit\\eclipse\\arm-gcc-49\\arm-none-eabi\\include\\stdlib.h"