   1              	 .syntax unified
   2              	 .cpu cortex-m4
   3              	 .eabi_attribute 27,3
   4              	 .fpu fpv4-sp-d16
   5              	 .eabi_attribute 20,1
   6              	 .eabi_attribute 21,1
   7              	 .eabi_attribute 23,3
   8              	 .eabi_attribute 24,1
   9              	 .eabi_attribute 25,1
  10              	 .eabi_attribute 26,1
  11              	 .eabi_attribute 30,4
  12              	 .eabi_attribute 34,1
  13              	 .eabi_attribute 18,4
  14              	 .thumb
  15              	 .file "md.c"
  16              	 .text
  17              	.Ltext0:
  18              	 .cfi_sections .debug_frame
  19              	 .section .text.mbedtls_md_list,"ax",%progbits
  20              	 .align 1
  21              	 .global mbedtls_md_list
  22              	 .thumb
  23              	 .thumb_func
  25              	mbedtls_md_list:
  26              	.LFB0:
  27              	 .file 1 "C:/Users/Yushev/git/optiga-trust-qi/externals/mbedtls/library/md.c"
   1:C:/Users/Yushev/git/optiga-trust-qi/externals/mbedtls/library\md.c **** /**
   2:C:/Users/Yushev/git/optiga-trust-qi/externals/mbedtls/library\md.c ****  * \file mbedtls_md.c
   3:C:/Users/Yushev/git/optiga-trust-qi/externals/mbedtls/library\md.c ****  *
   4:C:/Users/Yushev/git/optiga-trust-qi/externals/mbedtls/library\md.c ****  * \brief Generic message digest wrapper for mbed TLS
   5:C:/Users/Yushev/git/optiga-trust-qi/externals/mbedtls/library\md.c ****  *
   6:C:/Users/Yushev/git/optiga-trust-qi/externals/mbedtls/library\md.c ****  * \author Adriaan de Jong <dejong@fox-it.com>
   7:C:/Users/Yushev/git/optiga-trust-qi/externals/mbedtls/library\md.c ****  *
   8:C:/Users/Yushev/git/optiga-trust-qi/externals/mbedtls/library\md.c ****  *  Copyright (C) 2006-2015, ARM Limited, All Rights Reserved
   9:C:/Users/Yushev/git/optiga-trust-qi/externals/mbedtls/library\md.c ****  *  SPDX-License-Identifier: Apache-2.0
  10:C:/Users/Yushev/git/optiga-trust-qi/externals/mbedtls/library\md.c ****  *
  11:C:/Users/Yushev/git/optiga-trust-qi/externals/mbedtls/library\md.c ****  *  Licensed under the Apache License, Version 2.0 (the "License"); you may
  12:C:/Users/Yushev/git/optiga-trust-qi/externals/mbedtls/library\md.c ****  *  not use this file except in compliance with the License.
  13:C:/Users/Yushev/git/optiga-trust-qi/externals/mbedtls/library\md.c ****  *  You may obtain a copy of the License at
  14:C:/Users/Yushev/git/optiga-trust-qi/externals/mbedtls/library\md.c ****  *
  15:C:/Users/Yushev/git/optiga-trust-qi/externals/mbedtls/library\md.c ****  *  http://www.apache.org/licenses/LICENSE-2.0
  16:C:/Users/Yushev/git/optiga-trust-qi/externals/mbedtls/library\md.c ****  *
  17:C:/Users/Yushev/git/optiga-trust-qi/externals/mbedtls/library\md.c ****  *  Unless required by applicable law or agreed to in writing, software
  18:C:/Users/Yushev/git/optiga-trust-qi/externals/mbedtls/library\md.c ****  *  distributed under the License is distributed on an "AS IS" BASIS, WITHOUT
  19:C:/Users/Yushev/git/optiga-trust-qi/externals/mbedtls/library\md.c ****  *  WARRANTIES OR CONDITIONS OF ANY KIND, either express or implied.
  20:C:/Users/Yushev/git/optiga-trust-qi/externals/mbedtls/library\md.c ****  *  See the License for the specific language governing permissions and
  21:C:/Users/Yushev/git/optiga-trust-qi/externals/mbedtls/library\md.c ****  *  limitations under the License.
  22:C:/Users/Yushev/git/optiga-trust-qi/externals/mbedtls/library\md.c ****  *
  23:C:/Users/Yushev/git/optiga-trust-qi/externals/mbedtls/library\md.c ****  *  This file is part of mbed TLS (https://tls.mbed.org)
  24:C:/Users/Yushev/git/optiga-trust-qi/externals/mbedtls/library\md.c ****  */
  25:C:/Users/Yushev/git/optiga-trust-qi/externals/mbedtls/library\md.c **** 
  26:C:/Users/Yushev/git/optiga-trust-qi/externals/mbedtls/library\md.c **** #if !defined(MBEDTLS_CONFIG_FILE)
  27:C:/Users/Yushev/git/optiga-trust-qi/externals/mbedtls/library\md.c **** #include "mbedtls/config.h"
  28:C:/Users/Yushev/git/optiga-trust-qi/externals/mbedtls/library\md.c **** #else
  29:C:/Users/Yushev/git/optiga-trust-qi/externals/mbedtls/library\md.c **** #include MBEDTLS_CONFIG_FILE
  30:C:/Users/Yushev/git/optiga-trust-qi/externals/mbedtls/library\md.c **** #endif
  31:C:/Users/Yushev/git/optiga-trust-qi/externals/mbedtls/library\md.c **** 
  32:C:/Users/Yushev/git/optiga-trust-qi/externals/mbedtls/library\md.c **** #if defined(MBEDTLS_MD_C)
  33:C:/Users/Yushev/git/optiga-trust-qi/externals/mbedtls/library\md.c **** 
  34:C:/Users/Yushev/git/optiga-trust-qi/externals/mbedtls/library\md.c **** #include "mbedtls/md.h"
  35:C:/Users/Yushev/git/optiga-trust-qi/externals/mbedtls/library\md.c **** #include "mbedtls/md_internal.h"
  36:C:/Users/Yushev/git/optiga-trust-qi/externals/mbedtls/library\md.c **** #include "mbedtls/platform_util.h"
  37:C:/Users/Yushev/git/optiga-trust-qi/externals/mbedtls/library\md.c **** 
  38:C:/Users/Yushev/git/optiga-trust-qi/externals/mbedtls/library\md.c **** #if defined(MBEDTLS_PLATFORM_C)
  39:C:/Users/Yushev/git/optiga-trust-qi/externals/mbedtls/library\md.c **** #include "mbedtls/platform.h"
  40:C:/Users/Yushev/git/optiga-trust-qi/externals/mbedtls/library\md.c **** #else
  41:C:/Users/Yushev/git/optiga-trust-qi/externals/mbedtls/library\md.c **** #include <stdlib.h>
  42:C:/Users/Yushev/git/optiga-trust-qi/externals/mbedtls/library\md.c **** #define mbedtls_calloc    calloc
  43:C:/Users/Yushev/git/optiga-trust-qi/externals/mbedtls/library\md.c **** #define mbedtls_free       free
  44:C:/Users/Yushev/git/optiga-trust-qi/externals/mbedtls/library\md.c **** #endif
  45:C:/Users/Yushev/git/optiga-trust-qi/externals/mbedtls/library\md.c **** 
  46:C:/Users/Yushev/git/optiga-trust-qi/externals/mbedtls/library\md.c **** #include <string.h>
  47:C:/Users/Yushev/git/optiga-trust-qi/externals/mbedtls/library\md.c **** 
  48:C:/Users/Yushev/git/optiga-trust-qi/externals/mbedtls/library\md.c **** #if defined(MBEDTLS_FS_IO)
  49:C:/Users/Yushev/git/optiga-trust-qi/externals/mbedtls/library\md.c **** #include <stdio.h>
  50:C:/Users/Yushev/git/optiga-trust-qi/externals/mbedtls/library\md.c **** #endif
  51:C:/Users/Yushev/git/optiga-trust-qi/externals/mbedtls/library\md.c **** 
  52:C:/Users/Yushev/git/optiga-trust-qi/externals/mbedtls/library\md.c **** /*
  53:C:/Users/Yushev/git/optiga-trust-qi/externals/mbedtls/library\md.c ****  * Reminder: update profiles in x509_crt.c when adding a new hash!
  54:C:/Users/Yushev/git/optiga-trust-qi/externals/mbedtls/library\md.c ****  */
  55:C:/Users/Yushev/git/optiga-trust-qi/externals/mbedtls/library\md.c **** static const int supported_digests[] = {
  56:C:/Users/Yushev/git/optiga-trust-qi/externals/mbedtls/library\md.c **** 
  57:C:/Users/Yushev/git/optiga-trust-qi/externals/mbedtls/library\md.c **** #if defined(MBEDTLS_SHA512_C)
  58:C:/Users/Yushev/git/optiga-trust-qi/externals/mbedtls/library\md.c ****         MBEDTLS_MD_SHA512,
  59:C:/Users/Yushev/git/optiga-trust-qi/externals/mbedtls/library\md.c ****         MBEDTLS_MD_SHA384,
  60:C:/Users/Yushev/git/optiga-trust-qi/externals/mbedtls/library\md.c **** #endif
  61:C:/Users/Yushev/git/optiga-trust-qi/externals/mbedtls/library\md.c **** 
  62:C:/Users/Yushev/git/optiga-trust-qi/externals/mbedtls/library\md.c **** #if defined(MBEDTLS_SHA256_C)
  63:C:/Users/Yushev/git/optiga-trust-qi/externals/mbedtls/library\md.c ****         MBEDTLS_MD_SHA256,
  64:C:/Users/Yushev/git/optiga-trust-qi/externals/mbedtls/library\md.c ****         MBEDTLS_MD_SHA224,
  65:C:/Users/Yushev/git/optiga-trust-qi/externals/mbedtls/library\md.c **** #endif
  66:C:/Users/Yushev/git/optiga-trust-qi/externals/mbedtls/library\md.c **** 
  67:C:/Users/Yushev/git/optiga-trust-qi/externals/mbedtls/library\md.c **** #if defined(MBEDTLS_SHA1_C)
  68:C:/Users/Yushev/git/optiga-trust-qi/externals/mbedtls/library\md.c ****         MBEDTLS_MD_SHA1,
  69:C:/Users/Yushev/git/optiga-trust-qi/externals/mbedtls/library\md.c **** #endif
  70:C:/Users/Yushev/git/optiga-trust-qi/externals/mbedtls/library\md.c **** 
  71:C:/Users/Yushev/git/optiga-trust-qi/externals/mbedtls/library\md.c **** #if defined(MBEDTLS_RIPEMD160_C)
  72:C:/Users/Yushev/git/optiga-trust-qi/externals/mbedtls/library\md.c ****         MBEDTLS_MD_RIPEMD160,
  73:C:/Users/Yushev/git/optiga-trust-qi/externals/mbedtls/library\md.c **** #endif
  74:C:/Users/Yushev/git/optiga-trust-qi/externals/mbedtls/library\md.c **** 
  75:C:/Users/Yushev/git/optiga-trust-qi/externals/mbedtls/library\md.c **** #if defined(MBEDTLS_MD5_C)
  76:C:/Users/Yushev/git/optiga-trust-qi/externals/mbedtls/library\md.c ****         MBEDTLS_MD_MD5,
  77:C:/Users/Yushev/git/optiga-trust-qi/externals/mbedtls/library\md.c **** #endif
  78:C:/Users/Yushev/git/optiga-trust-qi/externals/mbedtls/library\md.c **** 
  79:C:/Users/Yushev/git/optiga-trust-qi/externals/mbedtls/library\md.c **** #if defined(MBEDTLS_MD4_C)
  80:C:/Users/Yushev/git/optiga-trust-qi/externals/mbedtls/library\md.c ****         MBEDTLS_MD_MD4,
  81:C:/Users/Yushev/git/optiga-trust-qi/externals/mbedtls/library\md.c **** #endif
  82:C:/Users/Yushev/git/optiga-trust-qi/externals/mbedtls/library\md.c **** 
  83:C:/Users/Yushev/git/optiga-trust-qi/externals/mbedtls/library\md.c **** #if defined(MBEDTLS_MD2_C)
  84:C:/Users/Yushev/git/optiga-trust-qi/externals/mbedtls/library\md.c ****         MBEDTLS_MD_MD2,
  85:C:/Users/Yushev/git/optiga-trust-qi/externals/mbedtls/library\md.c **** #endif
  86:C:/Users/Yushev/git/optiga-trust-qi/externals/mbedtls/library\md.c **** 
  87:C:/Users/Yushev/git/optiga-trust-qi/externals/mbedtls/library\md.c ****         MBEDTLS_MD_NONE
  88:C:/Users/Yushev/git/optiga-trust-qi/externals/mbedtls/library\md.c **** };
  89:C:/Users/Yushev/git/optiga-trust-qi/externals/mbedtls/library\md.c **** 
  90:C:/Users/Yushev/git/optiga-trust-qi/externals/mbedtls/library\md.c **** const int *mbedtls_md_list( void )
  91:C:/Users/Yushev/git/optiga-trust-qi/externals/mbedtls/library\md.c **** {
  28              	 .loc 1 91 0
  29              	 .cfi_startproc
  30              	 
  31              	 
  32              	 
  92:C:/Users/Yushev/git/optiga-trust-qi/externals/mbedtls/library\md.c ****     return( supported_digests );
  93:C:/Users/Yushev/git/optiga-trust-qi/externals/mbedtls/library\md.c **** }
  33              	 .loc 1 93 0
  34 0000 0048     	 ldr r0,.L2
  35 0002 7047     	 bx lr
  36              	.L3:
  37              	 .align 2
  38              	.L2:
  39 0004 00000000 	 .word .LANCHOR0
  40              	 .cfi_endproc
  41              	.LFE0:
  43              	 .section .text.mbedtls_md_info_from_string,"ax",%progbits
  44              	 .align 1
  45              	 .global mbedtls_md_info_from_string
  46              	 .thumb
  47              	 .thumb_func
  49              	mbedtls_md_info_from_string:
  50              	.LFB1:
  94:C:/Users/Yushev/git/optiga-trust-qi/externals/mbedtls/library\md.c **** 
  95:C:/Users/Yushev/git/optiga-trust-qi/externals/mbedtls/library\md.c **** const mbedtls_md_info_t *mbedtls_md_info_from_string( const char *md_name )
  96:C:/Users/Yushev/git/optiga-trust-qi/externals/mbedtls/library\md.c **** {
  51              	 .loc 1 96 0
  52              	 .cfi_startproc
  53              	 
  54              	 
  55              	.LVL0:
  56 0000 10B5     	 push {r4,lr}
  57              	.LCFI0:
  58              	 .cfi_def_cfa_offset 8
  59              	 .cfi_offset 4,-8
  60              	 .cfi_offset 14,-4
  97:C:/Users/Yushev/git/optiga-trust-qi/externals/mbedtls/library\md.c ****     if( NULL == md_name )
  61              	 .loc 1 97 0
  62 0002 0446     	 mov r4,r0
  63 0004 68B1     	 cbz r0,.L6
  98:C:/Users/Yushev/git/optiga-trust-qi/externals/mbedtls/library\md.c ****         return( NULL );
  99:C:/Users/Yushev/git/optiga-trust-qi/externals/mbedtls/library\md.c **** 
 100:C:/Users/Yushev/git/optiga-trust-qi/externals/mbedtls/library\md.c ****     /* Get the appropriate digest information */
 101:C:/Users/Yushev/git/optiga-trust-qi/externals/mbedtls/library\md.c **** #if defined(MBEDTLS_MD2_C)
 102:C:/Users/Yushev/git/optiga-trust-qi/externals/mbedtls/library\md.c ****     if( !strcmp( "MD2", md_name ) )
 103:C:/Users/Yushev/git/optiga-trust-qi/externals/mbedtls/library\md.c ****         return mbedtls_md_info_from_type( MBEDTLS_MD_MD2 );
 104:C:/Users/Yushev/git/optiga-trust-qi/externals/mbedtls/library\md.c **** #endif
 105:C:/Users/Yushev/git/optiga-trust-qi/externals/mbedtls/library\md.c **** #if defined(MBEDTLS_MD4_C)
 106:C:/Users/Yushev/git/optiga-trust-qi/externals/mbedtls/library\md.c ****     if( !strcmp( "MD4", md_name ) )
 107:C:/Users/Yushev/git/optiga-trust-qi/externals/mbedtls/library\md.c ****         return mbedtls_md_info_from_type( MBEDTLS_MD_MD4 );
 108:C:/Users/Yushev/git/optiga-trust-qi/externals/mbedtls/library\md.c **** #endif
 109:C:/Users/Yushev/git/optiga-trust-qi/externals/mbedtls/library\md.c **** #if defined(MBEDTLS_MD5_C)
 110:C:/Users/Yushev/git/optiga-trust-qi/externals/mbedtls/library\md.c ****     if( !strcmp( "MD5", md_name ) )
 111:C:/Users/Yushev/git/optiga-trust-qi/externals/mbedtls/library\md.c ****         return mbedtls_md_info_from_type( MBEDTLS_MD_MD5 );
 112:C:/Users/Yushev/git/optiga-trust-qi/externals/mbedtls/library\md.c **** #endif
 113:C:/Users/Yushev/git/optiga-trust-qi/externals/mbedtls/library\md.c **** #if defined(MBEDTLS_RIPEMD160_C)
 114:C:/Users/Yushev/git/optiga-trust-qi/externals/mbedtls/library\md.c ****     if( !strcmp( "RIPEMD160", md_name ) )
 115:C:/Users/Yushev/git/optiga-trust-qi/externals/mbedtls/library\md.c ****         return mbedtls_md_info_from_type( MBEDTLS_MD_RIPEMD160 );
 116:C:/Users/Yushev/git/optiga-trust-qi/externals/mbedtls/library\md.c **** #endif
 117:C:/Users/Yushev/git/optiga-trust-qi/externals/mbedtls/library\md.c **** #if defined(MBEDTLS_SHA1_C)
 118:C:/Users/Yushev/git/optiga-trust-qi/externals/mbedtls/library\md.c ****     if( !strcmp( "SHA1", md_name ) || !strcmp( "SHA", md_name ) )
 119:C:/Users/Yushev/git/optiga-trust-qi/externals/mbedtls/library\md.c ****         return mbedtls_md_info_from_type( MBEDTLS_MD_SHA1 );
 120:C:/Users/Yushev/git/optiga-trust-qi/externals/mbedtls/library\md.c **** #endif
 121:C:/Users/Yushev/git/optiga-trust-qi/externals/mbedtls/library\md.c **** #if defined(MBEDTLS_SHA256_C)
 122:C:/Users/Yushev/git/optiga-trust-qi/externals/mbedtls/library\md.c ****     if( !strcmp( "SHA224", md_name ) )
  64              	 .loc 1 122 0
  65 0006 0848     	 ldr r0,.L10
  66              	.LVL1:
  67 0008 2146     	 mov r1,r4
  68 000a FFF7FEFF 	 bl strcmp
  69              	.LVL2:
  70 000e 48B1     	 cbz r0,.L7
 123:C:/Users/Yushev/git/optiga-trust-qi/externals/mbedtls/library\md.c ****         return mbedtls_md_info_from_type( MBEDTLS_MD_SHA224 );
 124:C:/Users/Yushev/git/optiga-trust-qi/externals/mbedtls/library\md.c ****     if( !strcmp( "SHA256", md_name ) )
  71              	 .loc 1 124 0
  72 0010 2146     	 mov r1,r4
  73 0012 0648     	 ldr r0,.L10+4
  74 0014 FFF7FEFF 	 bl strcmp
  75              	.LVL3:
  76 0018 0028     	 cmp r0,#0
 125:C:/Users/Yushev/git/optiga-trust-qi/externals/mbedtls/library\md.c ****         return mbedtls_md_info_from_type( MBEDTLS_MD_SHA256 );
  77              	 .loc 1 125 0
  78 001a 0548     	 ldr r0,.L10+8
  79 001c 18BF     	 it ne
  80 001e 0020     	 movne r0,#0
  81 0020 10BD     	 pop {r4,pc}
  82              	.LVL4:
  83              	.L6:
  84 0022 10BD     	 pop {r4,pc}
  85              	.LVL5:
  86              	.L7:
 123:C:/Users/Yushev/git/optiga-trust-qi/externals/mbedtls/library\md.c ****         return mbedtls_md_info_from_type( MBEDTLS_MD_SHA224 );
  87              	 .loc 1 123 0
  88 0024 0348     	 ldr r0,.L10+12
 126:C:/Users/Yushev/git/optiga-trust-qi/externals/mbedtls/library\md.c **** #endif
 127:C:/Users/Yushev/git/optiga-trust-qi/externals/mbedtls/library\md.c **** #if defined(MBEDTLS_SHA512_C)
 128:C:/Users/Yushev/git/optiga-trust-qi/externals/mbedtls/library\md.c ****     if( !strcmp( "SHA384", md_name ) )
 129:C:/Users/Yushev/git/optiga-trust-qi/externals/mbedtls/library\md.c ****         return mbedtls_md_info_from_type( MBEDTLS_MD_SHA384 );
 130:C:/Users/Yushev/git/optiga-trust-qi/externals/mbedtls/library\md.c ****     if( !strcmp( "SHA512", md_name ) )
 131:C:/Users/Yushev/git/optiga-trust-qi/externals/mbedtls/library\md.c ****         return mbedtls_md_info_from_type( MBEDTLS_MD_SHA512 );
 132:C:/Users/Yushev/git/optiga-trust-qi/externals/mbedtls/library\md.c **** #endif
 133:C:/Users/Yushev/git/optiga-trust-qi/externals/mbedtls/library\md.c ****     return( NULL );
 134:C:/Users/Yushev/git/optiga-trust-qi/externals/mbedtls/library\md.c **** }
  89              	 .loc 1 134 0
  90 0026 10BD     	 pop {r4,pc}
  91              	.LVL6:
  92              	.L11:
  93              	 .align 2
  94              	.L10:
  95 0028 00000000 	 .word .LC0
  96 002c 07000000 	 .word .LC1
  97 0030 00000000 	 .word mbedtls_sha256_info
  98 0034 00000000 	 .word mbedtls_sha224_info
  99              	 .cfi_endproc
 100              	.LFE1:
 102              	 .section .text.mbedtls_md_info_from_type,"ax",%progbits
 103              	 .align 1
 104              	 .global mbedtls_md_info_from_type
 105              	 .thumb
 106              	 .thumb_func
 108              	mbedtls_md_info_from_type:
 109              	.LFB2:
 135:C:/Users/Yushev/git/optiga-trust-qi/externals/mbedtls/library\md.c **** 
 136:C:/Users/Yushev/git/optiga-trust-qi/externals/mbedtls/library\md.c **** const mbedtls_md_info_t *mbedtls_md_info_from_type( mbedtls_md_type_t md_type )
 137:C:/Users/Yushev/git/optiga-trust-qi/externals/mbedtls/library\md.c **** {
 110              	 .loc 1 137 0
 111              	 .cfi_startproc
 112              	 
 113              	 
 114              	 
 115              	.LVL7:
 138:C:/Users/Yushev/git/optiga-trust-qi/externals/mbedtls/library\md.c ****     switch( md_type )
 116              	 .loc 1 138 0
 117 0000 0528     	 cmp r0,#5
 118 0002 04D0     	 beq .L16
 119 0004 0628     	 cmp r0,#6
 139:C:/Users/Yushev/git/optiga-trust-qi/externals/mbedtls/library\md.c ****     {
 140:C:/Users/Yushev/git/optiga-trust-qi/externals/mbedtls/library\md.c **** #if defined(MBEDTLS_MD2_C)
 141:C:/Users/Yushev/git/optiga-trust-qi/externals/mbedtls/library\md.c ****         case MBEDTLS_MD_MD2:
 142:C:/Users/Yushev/git/optiga-trust-qi/externals/mbedtls/library\md.c ****             return( &mbedtls_md2_info );
 143:C:/Users/Yushev/git/optiga-trust-qi/externals/mbedtls/library\md.c **** #endif
 144:C:/Users/Yushev/git/optiga-trust-qi/externals/mbedtls/library\md.c **** #if defined(MBEDTLS_MD4_C)
 145:C:/Users/Yushev/git/optiga-trust-qi/externals/mbedtls/library\md.c ****         case MBEDTLS_MD_MD4:
 146:C:/Users/Yushev/git/optiga-trust-qi/externals/mbedtls/library\md.c ****             return( &mbedtls_md4_info );
 147:C:/Users/Yushev/git/optiga-trust-qi/externals/mbedtls/library\md.c **** #endif
 148:C:/Users/Yushev/git/optiga-trust-qi/externals/mbedtls/library\md.c **** #if defined(MBEDTLS_MD5_C)
 149:C:/Users/Yushev/git/optiga-trust-qi/externals/mbedtls/library\md.c ****         case MBEDTLS_MD_MD5:
 150:C:/Users/Yushev/git/optiga-trust-qi/externals/mbedtls/library\md.c ****             return( &mbedtls_md5_info );
 151:C:/Users/Yushev/git/optiga-trust-qi/externals/mbedtls/library\md.c **** #endif
 152:C:/Users/Yushev/git/optiga-trust-qi/externals/mbedtls/library\md.c **** #if defined(MBEDTLS_RIPEMD160_C)
 153:C:/Users/Yushev/git/optiga-trust-qi/externals/mbedtls/library\md.c ****         case MBEDTLS_MD_RIPEMD160:
 154:C:/Users/Yushev/git/optiga-trust-qi/externals/mbedtls/library\md.c ****             return( &mbedtls_ripemd160_info );
 155:C:/Users/Yushev/git/optiga-trust-qi/externals/mbedtls/library\md.c **** #endif
 156:C:/Users/Yushev/git/optiga-trust-qi/externals/mbedtls/library\md.c **** #if defined(MBEDTLS_SHA1_C)
 157:C:/Users/Yushev/git/optiga-trust-qi/externals/mbedtls/library\md.c ****         case MBEDTLS_MD_SHA1:
 158:C:/Users/Yushev/git/optiga-trust-qi/externals/mbedtls/library\md.c ****             return( &mbedtls_sha1_info );
 159:C:/Users/Yushev/git/optiga-trust-qi/externals/mbedtls/library\md.c **** #endif
 160:C:/Users/Yushev/git/optiga-trust-qi/externals/mbedtls/library\md.c **** #if defined(MBEDTLS_SHA256_C)
 161:C:/Users/Yushev/git/optiga-trust-qi/externals/mbedtls/library\md.c ****         case MBEDTLS_MD_SHA224:
 162:C:/Users/Yushev/git/optiga-trust-qi/externals/mbedtls/library\md.c ****             return( &mbedtls_sha224_info );
 163:C:/Users/Yushev/git/optiga-trust-qi/externals/mbedtls/library\md.c ****         case MBEDTLS_MD_SHA256:
 164:C:/Users/Yushev/git/optiga-trust-qi/externals/mbedtls/library\md.c ****             return( &mbedtls_sha256_info );
 165:C:/Users/Yushev/git/optiga-trust-qi/externals/mbedtls/library\md.c **** #endif
 166:C:/Users/Yushev/git/optiga-trust-qi/externals/mbedtls/library\md.c **** #if defined(MBEDTLS_SHA512_C)
 167:C:/Users/Yushev/git/optiga-trust-qi/externals/mbedtls/library\md.c ****         case MBEDTLS_MD_SHA384:
 168:C:/Users/Yushev/git/optiga-trust-qi/externals/mbedtls/library\md.c ****             return( &mbedtls_sha384_info );
 169:C:/Users/Yushev/git/optiga-trust-qi/externals/mbedtls/library\md.c ****         case MBEDTLS_MD_SHA512:
 170:C:/Users/Yushev/git/optiga-trust-qi/externals/mbedtls/library\md.c ****             return( &mbedtls_sha512_info );
 171:C:/Users/Yushev/git/optiga-trust-qi/externals/mbedtls/library\md.c **** #endif
 172:C:/Users/Yushev/git/optiga-trust-qi/externals/mbedtls/library\md.c ****         default:
 173:C:/Users/Yushev/git/optiga-trust-qi/externals/mbedtls/library\md.c ****             return( NULL );
 120              	 .loc 1 173 0
 121 0006 0348     	 ldr r0,.L17
 122              	.LVL8:
 123 0008 18BF     	 it ne
 124 000a 0020     	 movne r0,#0
 125 000c 7047     	 bx lr
 126              	.LVL9:
 127              	.L16:
 162:C:/Users/Yushev/git/optiga-trust-qi/externals/mbedtls/library\md.c ****         case MBEDTLS_MD_SHA256:
 128              	 .loc 1 162 0
 129 000e 0248     	 ldr r0,.L17+4
 130              	.LVL10:
 174:C:/Users/Yushev/git/optiga-trust-qi/externals/mbedtls/library\md.c ****     }
 175:C:/Users/Yushev/git/optiga-trust-qi/externals/mbedtls/library\md.c **** }
 131              	 .loc 1 175 0
 132 0010 7047     	 bx lr
 133              	.L18:
 134 0012 00BF     	 .align 2
 135              	.L17:
 136 0014 00000000 	 .word mbedtls_sha256_info
 137 0018 00000000 	 .word mbedtls_sha224_info
 138              	 .cfi_endproc
 139              	.LFE2:
 141              	 .section .text.mbedtls_md_init,"ax",%progbits
 142              	 .align 1
 143              	 .global mbedtls_md_init
 144              	 .thumb
 145              	 .thumb_func
 147              	mbedtls_md_init:
 148              	.LFB3:
 176:C:/Users/Yushev/git/optiga-trust-qi/externals/mbedtls/library\md.c **** 
 177:C:/Users/Yushev/git/optiga-trust-qi/externals/mbedtls/library\md.c **** void mbedtls_md_init( mbedtls_md_context_t *ctx )
 178:C:/Users/Yushev/git/optiga-trust-qi/externals/mbedtls/library\md.c **** {
 149              	 .loc 1 178 0
 150              	 .cfi_startproc
 151              	 
 152              	 
 153              	 
 154              	.LVL11:
 179:C:/Users/Yushev/git/optiga-trust-qi/externals/mbedtls/library\md.c ****     memset( ctx, 0, sizeof( mbedtls_md_context_t ) );
 155              	 .loc 1 179 0
 156 0000 0021     	 movs r1,#0
 157 0002 0C22     	 movs r2,#12
 158 0004 FFF7FEBF 	 b memset
 159              	.LVL12:
 160              	 .cfi_endproc
 161              	.LFE3:
 163              	 .section .text.mbedtls_md_free,"ax",%progbits
 164              	 .align 1
 165              	 .global mbedtls_md_free
 166              	 .thumb
 167              	 .thumb_func
 169              	mbedtls_md_free:
 170              	.LFB4:
 180:C:/Users/Yushev/git/optiga-trust-qi/externals/mbedtls/library\md.c **** }
 181:C:/Users/Yushev/git/optiga-trust-qi/externals/mbedtls/library\md.c **** 
 182:C:/Users/Yushev/git/optiga-trust-qi/externals/mbedtls/library\md.c **** void mbedtls_md_free( mbedtls_md_context_t *ctx )
 183:C:/Users/Yushev/git/optiga-trust-qi/externals/mbedtls/library\md.c **** {
 171              	 .loc 1 183 0
 172              	 .cfi_startproc
 173              	 
 174              	 
 175              	.LVL13:
 176 0000 10B5     	 push {r4,lr}
 177              	.LCFI1:
 178              	 .cfi_def_cfa_offset 8
 179              	 .cfi_offset 4,-8
 180              	 .cfi_offset 14,-4
 184:C:/Users/Yushev/git/optiga-trust-qi/externals/mbedtls/library\md.c ****     if( ctx == NULL || ctx->md_info == NULL )
 181              	 .loc 1 184 0
 182 0002 0446     	 mov r4,r0
 183 0004 A8B1     	 cbz r0,.L20
 184              	 .loc 1 184 0 is_stmt 0 discriminator 1
 185 0006 0368     	 ldr r3,[r0]
 186 0008 9BB1     	 cbz r3,.L20
 185:C:/Users/Yushev/git/optiga-trust-qi/externals/mbedtls/library\md.c ****         return;
 186:C:/Users/Yushev/git/optiga-trust-qi/externals/mbedtls/library\md.c **** 
 187:C:/Users/Yushev/git/optiga-trust-qi/externals/mbedtls/library\md.c ****     if( ctx->md_ctx != NULL )
 187              	 .loc 1 187 0 is_stmt 1
 188 000a 4068     	 ldr r0,[r0,#4]
 189              	.LVL14:
 190 000c 08B1     	 cbz r0,.L22
 188:C:/Users/Yushev/git/optiga-trust-qi/externals/mbedtls/library\md.c ****         ctx->md_info->ctx_free_func( ctx->md_ctx );
 191              	 .loc 1 188 0
 192 000e 5B6A     	 ldr r3,[r3,#36]
 193 0010 9847     	 blx r3
 194              	.LVL15:
 195              	.L22:
 189:C:/Users/Yushev/git/optiga-trust-qi/externals/mbedtls/library\md.c **** 
 190:C:/Users/Yushev/git/optiga-trust-qi/externals/mbedtls/library\md.c ****     if( ctx->hmac_ctx != NULL )
 196              	 .loc 1 190 0
 197 0012 A068     	 ldr r0,[r4,#8]
 198 0014 38B1     	 cbz r0,.L23
 191:C:/Users/Yushev/git/optiga-trust-qi/externals/mbedtls/library\md.c ****     {
 192:C:/Users/Yushev/git/optiga-trust-qi/externals/mbedtls/library\md.c ****         mbedtls_platform_zeroize( ctx->hmac_ctx,
 193:C:/Users/Yushev/git/optiga-trust-qi/externals/mbedtls/library\md.c ****                                   2 * ctx->md_info->block_size );
 199              	 .loc 1 193 0
 200 0016 2368     	 ldr r3,[r4]
 201 0018 D968     	 ldr r1,[r3,#12]
 192:C:/Users/Yushev/git/optiga-trust-qi/externals/mbedtls/library\md.c ****                                   2 * ctx->md_info->block_size );
 202              	 .loc 1 192 0
 203 001a 4900     	 lsls r1,r1,#1
 204 001c FFF7FEFF 	 bl mbedtls_platform_zeroize
 205              	.LVL16:
 194:C:/Users/Yushev/git/optiga-trust-qi/externals/mbedtls/library\md.c ****         mbedtls_free( ctx->hmac_ctx );
 206              	 .loc 1 194 0
 207 0020 A068     	 ldr r0,[r4,#8]
 208 0022 FFF7FEFF 	 bl free
 209              	.LVL17:
 210              	.L23:
 195:C:/Users/Yushev/git/optiga-trust-qi/externals/mbedtls/library\md.c ****     }
 196:C:/Users/Yushev/git/optiga-trust-qi/externals/mbedtls/library\md.c **** 
 197:C:/Users/Yushev/git/optiga-trust-qi/externals/mbedtls/library\md.c ****     mbedtls_platform_zeroize( ctx, sizeof( mbedtls_md_context_t ) );
 211              	 .loc 1 197 0
 212 0026 2046     	 mov r0,r4
 213 0028 0C21     	 movs r1,#12
 198:C:/Users/Yushev/git/optiga-trust-qi/externals/mbedtls/library\md.c **** }
 214              	 .loc 1 198 0
 215 002a BDE81040 	 pop {r4,lr}
 216              	.LCFI2:
 217              	 .cfi_remember_state
 218              	 .cfi_restore 14
 219              	 .cfi_restore 4
 220              	 .cfi_def_cfa_offset 0
 221              	.LVL18:
 197:C:/Users/Yushev/git/optiga-trust-qi/externals/mbedtls/library\md.c **** }
 222              	 .loc 1 197 0
 223 002e FFF7FEBF 	 b mbedtls_platform_zeroize
 224              	.LVL19:
 225              	.L20:
 226              	.LCFI3:
 227              	 .cfi_restore_state
 228 0032 10BD     	 pop {r4,pc}
 229              	 .cfi_endproc
 230              	.LFE4:
 232              	 .section .text.mbedtls_md_clone,"ax",%progbits
 233              	 .align 1
 234              	 .global mbedtls_md_clone
 235              	 .thumb
 236              	 .thumb_func
 238              	mbedtls_md_clone:
 239              	.LFB5:
 199:C:/Users/Yushev/git/optiga-trust-qi/externals/mbedtls/library\md.c **** 
 200:C:/Users/Yushev/git/optiga-trust-qi/externals/mbedtls/library\md.c **** int mbedtls_md_clone( mbedtls_md_context_t *dst,
 201:C:/Users/Yushev/git/optiga-trust-qi/externals/mbedtls/library\md.c ****                       const mbedtls_md_context_t *src )
 202:C:/Users/Yushev/git/optiga-trust-qi/externals/mbedtls/library\md.c **** {
 240              	 .loc 1 202 0
 241              	 .cfi_startproc
 242              	 
 243              	 
 244              	.LVL20:
 245 0000 08B5     	 push {r3,lr}
 246              	.LCFI4:
 247              	 .cfi_def_cfa_offset 8
 248              	 .cfi_offset 3,-8
 249              	 .cfi_offset 14,-4
 203:C:/Users/Yushev/git/optiga-trust-qi/externals/mbedtls/library\md.c ****     if( dst == NULL || dst->md_info == NULL ||
 250              	 .loc 1 203 0
 251 0002 60B1     	 cbz r0,.L42
 252              	 .loc 1 203 0 is_stmt 0 discriminator 1
 253 0004 0368     	 ldr r3,[r0]
 254 0006 53B1     	 cbz r3,.L42
 255              	 .loc 1 203 0 discriminator 2
 256 0008 49B1     	 cbz r1,.L42
 204:C:/Users/Yushev/git/optiga-trust-qi/externals/mbedtls/library\md.c ****         src == NULL || src->md_info == NULL ||
 257              	 .loc 1 204 0 is_stmt 1
 258 000a 0A68     	 ldr r2,[r1]
 259 000c 3AB1     	 cbz r2,.L42
 260              	 .loc 1 204 0 is_stmt 0 discriminator 1
 261 000e 9342     	 cmp r3,r2
 262 0010 05D1     	 bne .L42
 205:C:/Users/Yushev/git/optiga-trust-qi/externals/mbedtls/library\md.c ****         dst->md_info != src->md_info )
 206:C:/Users/Yushev/git/optiga-trust-qi/externals/mbedtls/library\md.c ****     {
 207:C:/Users/Yushev/git/optiga-trust-qi/externals/mbedtls/library\md.c ****         return( MBEDTLS_ERR_MD_BAD_INPUT_DATA );
 208:C:/Users/Yushev/git/optiga-trust-qi/externals/mbedtls/library\md.c ****     }
 209:C:/Users/Yushev/git/optiga-trust-qi/externals/mbedtls/library\md.c **** 
 210:C:/Users/Yushev/git/optiga-trust-qi/externals/mbedtls/library\md.c ****     dst->md_info->clone_func( dst->md_ctx, src->md_ctx );
 263              	 .loc 1 210 0 is_stmt 1
 264 0012 9B6A     	 ldr r3,[r3,#40]
 265 0014 4068     	 ldr r0,[r0,#4]
 266              	.LVL21:
 267 0016 4968     	 ldr r1,[r1,#4]
 268              	.LVL22:
 269 0018 9847     	 blx r3
 270              	.LVL23:
 211:C:/Users/Yushev/git/optiga-trust-qi/externals/mbedtls/library\md.c **** 
 212:C:/Users/Yushev/git/optiga-trust-qi/externals/mbedtls/library\md.c ****     return( 0 );
 271              	 .loc 1 212 0
 272 001a 0020     	 movs r0,#0
 273 001c 08BD     	 pop {r3,pc}
 274              	.LVL24:
 275              	.L42:
 207:C:/Users/Yushev/git/optiga-trust-qi/externals/mbedtls/library\md.c ****     }
 276              	 .loc 1 207 0
 277 001e 0148     	 ldr r0,.L43
 278              	.LVL25:
 213:C:/Users/Yushev/git/optiga-trust-qi/externals/mbedtls/library\md.c **** }
 279              	 .loc 1 213 0
 280 0020 08BD     	 pop {r3,pc}
 281              	.L44:
 282 0022 00BF     	 .align 2
 283              	.L43:
 284 0024 00AFFFFF 	 .word -20736
 285              	 .cfi_endproc
 286              	.LFE5:
 288              	 .section .text.mbedtls_md_setup,"ax",%progbits
 289              	 .align 1
 290              	 .global mbedtls_md_setup
 291              	 .thumb
 292              	 .thumb_func
 294              	mbedtls_md_setup:
 295              	.LFB7:
 214:C:/Users/Yushev/git/optiga-trust-qi/externals/mbedtls/library\md.c **** 
 215:C:/Users/Yushev/git/optiga-trust-qi/externals/mbedtls/library\md.c **** #if ! defined(MBEDTLS_DEPRECATED_REMOVED)
 216:C:/Users/Yushev/git/optiga-trust-qi/externals/mbedtls/library\md.c **** int mbedtls_md_init_ctx( mbedtls_md_context_t *ctx, const mbedtls_md_info_t *md_info )
 217:C:/Users/Yushev/git/optiga-trust-qi/externals/mbedtls/library\md.c **** {
 218:C:/Users/Yushev/git/optiga-trust-qi/externals/mbedtls/library\md.c ****     return mbedtls_md_setup( ctx, md_info, 1 );
 219:C:/Users/Yushev/git/optiga-trust-qi/externals/mbedtls/library\md.c **** }
 220:C:/Users/Yushev/git/optiga-trust-qi/externals/mbedtls/library\md.c **** #endif
 221:C:/Users/Yushev/git/optiga-trust-qi/externals/mbedtls/library\md.c **** 
 222:C:/Users/Yushev/git/optiga-trust-qi/externals/mbedtls/library\md.c **** int mbedtls_md_setup( mbedtls_md_context_t *ctx, const mbedtls_md_info_t *md_info, int hmac )
 223:C:/Users/Yushev/git/optiga-trust-qi/externals/mbedtls/library\md.c **** {
 296              	 .loc 1 223 0
 297              	 .cfi_startproc
 298              	 
 299              	 
 300              	.LVL26:
 301 0000 F8B5     	 push {r3,r4,r5,r6,r7,lr}
 302              	.LCFI5:
 303              	 .cfi_def_cfa_offset 24
 304              	 .cfi_offset 3,-24
 305              	 .cfi_offset 4,-20
 306              	 .cfi_offset 5,-16
 307              	 .cfi_offset 6,-12
 308              	 .cfi_offset 7,-8
 309              	 .cfi_offset 14,-4
 310              	 .loc 1 223 0
 311 0002 0546     	 mov r5,r0
 312 0004 1746     	 mov r7,r2
 224:C:/Users/Yushev/git/optiga-trust-qi/externals/mbedtls/library\md.c ****     if( md_info == NULL || ctx == NULL )
 313              	 .loc 1 224 0
 314 0006 0C46     	 mov r4,r1
 315 0008 99B1     	 cbz r1,.L49
 316              	 .loc 1 224 0 is_stmt 0 discriminator 1
 317 000a 90B1     	 cbz r0,.L49
 225:C:/Users/Yushev/git/optiga-trust-qi/externals/mbedtls/library\md.c ****         return( MBEDTLS_ERR_MD_BAD_INPUT_DATA );
 226:C:/Users/Yushev/git/optiga-trust-qi/externals/mbedtls/library\md.c **** 
 227:C:/Users/Yushev/git/optiga-trust-qi/externals/mbedtls/library\md.c ****     if( ( ctx->md_ctx = md_info->ctx_alloc_func() ) == NULL )
 318              	 .loc 1 227 0 is_stmt 1
 319 000c 0B6A     	 ldr r3,[r1,#32]
 320 000e 9847     	 blx r3
 321              	.LVL27:
 322 0010 0646     	 mov r6,r0
 323 0012 6860     	 str r0,[r5,#4]
 324 0014 78B1     	 cbz r0,.L50
 228:C:/Users/Yushev/git/optiga-trust-qi/externals/mbedtls/library\md.c ****         return( MBEDTLS_ERR_MD_ALLOC_FAILED );
 229:C:/Users/Yushev/git/optiga-trust-qi/externals/mbedtls/library\md.c **** 
 230:C:/Users/Yushev/git/optiga-trust-qi/externals/mbedtls/library\md.c ****     if( hmac != 0 )
 325              	 .loc 1 230 0
 326 0016 4FB1     	 cbz r7,.L47
 231:C:/Users/Yushev/git/optiga-trust-qi/externals/mbedtls/library\md.c ****     {
 232:C:/Users/Yushev/git/optiga-trust-qi/externals/mbedtls/library\md.c ****         ctx->hmac_ctx = mbedtls_calloc( 2, md_info->block_size );
 327              	 .loc 1 232 0
 328 0018 0220     	 movs r0,#2
 329 001a E168     	 ldr r1,[r4,#12]
 330 001c FFF7FEFF 	 bl calloc
 331              	.LVL28:
 332 0020 A860     	 str r0,[r5,#8]
 233:C:/Users/Yushev/git/optiga-trust-qi/externals/mbedtls/library\md.c ****         if( ctx->hmac_ctx == NULL )
 333              	 .loc 1 233 0
 334 0022 18B9     	 cbnz r0,.L47
 234:C:/Users/Yushev/git/optiga-trust-qi/externals/mbedtls/library\md.c ****         {
 235:C:/Users/Yushev/git/optiga-trust-qi/externals/mbedtls/library\md.c ****             md_info->ctx_free_func( ctx->md_ctx );
 335              	 .loc 1 235 0
 336 0024 636A     	 ldr r3,[r4,#36]
 337 0026 3046     	 mov r0,r6
 338 0028 9847     	 blx r3
 339              	.LVL29:
 340 002a 04E0     	 b .L50
 341              	.L47:
 236:C:/Users/Yushev/git/optiga-trust-qi/externals/mbedtls/library\md.c ****             return( MBEDTLS_ERR_MD_ALLOC_FAILED );
 237:C:/Users/Yushev/git/optiga-trust-qi/externals/mbedtls/library\md.c ****         }
 238:C:/Users/Yushev/git/optiga-trust-qi/externals/mbedtls/library\md.c ****     }
 239:C:/Users/Yushev/git/optiga-trust-qi/externals/mbedtls/library\md.c **** 
 240:C:/Users/Yushev/git/optiga-trust-qi/externals/mbedtls/library\md.c ****     ctx->md_info = md_info;
 342              	 .loc 1 240 0
 343 002c 2C60     	 str r4,[r5]
 241:C:/Users/Yushev/git/optiga-trust-qi/externals/mbedtls/library\md.c **** 
 242:C:/Users/Yushev/git/optiga-trust-qi/externals/mbedtls/library\md.c ****     return( 0 );
 344              	 .loc 1 242 0
 345 002e 0020     	 movs r0,#0
 346 0030 F8BD     	 pop {r3,r4,r5,r6,r7,pc}
 347              	.LVL30:
 348              	.L49:
 225:C:/Users/Yushev/git/optiga-trust-qi/externals/mbedtls/library\md.c **** 
 349              	 .loc 1 225 0
 350 0032 0248     	 ldr r0,.L54
 351              	.LVL31:
 352 0034 F8BD     	 pop {r3,r4,r5,r6,r7,pc}
 353              	.LVL32:
 354              	.L50:
 228:C:/Users/Yushev/git/optiga-trust-qi/externals/mbedtls/library\md.c **** 
 355              	 .loc 1 228 0
 356 0036 0248     	 ldr r0,.L54+4
 243:C:/Users/Yushev/git/optiga-trust-qi/externals/mbedtls/library\md.c **** }
 357              	 .loc 1 243 0
 358 0038 F8BD     	 pop {r3,r4,r5,r6,r7,pc}
 359              	.LVL33:
 360              	.L55:
 361 003a 00BF     	 .align 2
 362              	.L54:
 363 003c 00AFFFFF 	 .word -20736
 364 0040 80AEFFFF 	 .word -20864
 365              	 .cfi_endproc
 366              	.LFE7:
 368              	 .section .text.mbedtls_md_init_ctx,"ax",%progbits
 369              	 .align 1
 370              	 .global mbedtls_md_init_ctx
 371              	 .thumb
 372              	 .thumb_func
 374              	mbedtls_md_init_ctx:
 375              	.LFB6:
 217:C:/Users/Yushev/git/optiga-trust-qi/externals/mbedtls/library\md.c ****     return mbedtls_md_setup( ctx, md_info, 1 );
 376              	 .loc 1 217 0
 377              	 .cfi_startproc
 378              	 
 379              	 
 380              	 
 381              	.LVL34:
 218:C:/Users/Yushev/git/optiga-trust-qi/externals/mbedtls/library\md.c **** }
 382              	 .loc 1 218 0
 383 0000 0122     	 movs r2,#1
 384 0002 FFF7FEBF 	 b mbedtls_md_setup
 385              	.LVL35:
 386              	 .cfi_endproc
 387              	.LFE6:
 389              	 .section .text.mbedtls_md_starts,"ax",%progbits
 390              	 .align 1
 391              	 .global mbedtls_md_starts
 392              	 .thumb
 393              	 .thumb_func
 395              	mbedtls_md_starts:
 396              	.LFB8:
 244:C:/Users/Yushev/git/optiga-trust-qi/externals/mbedtls/library\md.c **** 
 245:C:/Users/Yushev/git/optiga-trust-qi/externals/mbedtls/library\md.c **** int mbedtls_md_starts( mbedtls_md_context_t *ctx )
 246:C:/Users/Yushev/git/optiga-trust-qi/externals/mbedtls/library\md.c **** {
 397              	 .loc 1 246 0
 398              	 .cfi_startproc
 399              	 
 400              	 
 401              	 
 402              	.LVL36:
 247:C:/Users/Yushev/git/optiga-trust-qi/externals/mbedtls/library\md.c ****     if( ctx == NULL || ctx->md_info == NULL )
 403              	 .loc 1 247 0
 404 0000 20B1     	 cbz r0,.L58
 405              	 .loc 1 247 0 is_stmt 0 discriminator 1
 406 0002 0368     	 ldr r3,[r0]
 407 0004 13B1     	 cbz r3,.L58
 248:C:/Users/Yushev/git/optiga-trust-qi/externals/mbedtls/library\md.c ****         return( MBEDTLS_ERR_MD_BAD_INPUT_DATA );
 249:C:/Users/Yushev/git/optiga-trust-qi/externals/mbedtls/library\md.c **** 
 250:C:/Users/Yushev/git/optiga-trust-qi/externals/mbedtls/library\md.c ****     return( ctx->md_info->starts_func( ctx->md_ctx ) );
 408              	 .loc 1 250 0 is_stmt 1
 409 0006 1B69     	 ldr r3,[r3,#16]
 410 0008 4068     	 ldr r0,[r0,#4]
 411              	.LVL37:
 412 000a 1847     	 bx r3
 413              	.LVL38:
 414              	.L58:
 251:C:/Users/Yushev/git/optiga-trust-qi/externals/mbedtls/library\md.c **** }
 415              	 .loc 1 251 0
 416 000c 0048     	 ldr r0,.L63
 417              	.LVL39:
 418 000e 7047     	 bx lr
 419              	.L64:
 420              	 .align 2
 421              	.L63:
 422 0010 00AFFFFF 	 .word -20736
 423              	 .cfi_endproc
 424              	.LFE8:
 426              	 .section .text.mbedtls_md_update,"ax",%progbits
 427              	 .align 1
 428              	 .global mbedtls_md_update
 429              	 .thumb
 430              	 .thumb_func
 432              	mbedtls_md_update:
 433              	.LFB9:
 252:C:/Users/Yushev/git/optiga-trust-qi/externals/mbedtls/library\md.c **** 
 253:C:/Users/Yushev/git/optiga-trust-qi/externals/mbedtls/library\md.c **** int mbedtls_md_update( mbedtls_md_context_t *ctx, const unsigned char *input, size_t ilen )
 254:C:/Users/Yushev/git/optiga-trust-qi/externals/mbedtls/library\md.c **** {
 434              	 .loc 1 254 0
 435              	 .cfi_startproc
 436              	 
 437              	 
 438              	 
 439              	.LVL40:
 255:C:/Users/Yushev/git/optiga-trust-qi/externals/mbedtls/library\md.c ****     if( ctx == NULL || ctx->md_info == NULL )
 440              	 .loc 1 255 0
 441 0000 20B1     	 cbz r0,.L66
 442              	 .loc 1 255 0 is_stmt 0 discriminator 1
 443 0002 0368     	 ldr r3,[r0]
 444 0004 13B1     	 cbz r3,.L66
 256:C:/Users/Yushev/git/optiga-trust-qi/externals/mbedtls/library\md.c ****         return( MBEDTLS_ERR_MD_BAD_INPUT_DATA );
 257:C:/Users/Yushev/git/optiga-trust-qi/externals/mbedtls/library\md.c **** 
 258:C:/Users/Yushev/git/optiga-trust-qi/externals/mbedtls/library\md.c ****     return( ctx->md_info->update_func( ctx->md_ctx, input, ilen ) );
 445              	 .loc 1 258 0 is_stmt 1
 446 0006 5B69     	 ldr r3,[r3,#20]
 447 0008 4068     	 ldr r0,[r0,#4]
 448              	.LVL41:
 449 000a 1847     	 bx r3
 450              	.LVL42:
 451              	.L66:
 259:C:/Users/Yushev/git/optiga-trust-qi/externals/mbedtls/library\md.c **** }
 452              	 .loc 1 259 0
 453 000c 0048     	 ldr r0,.L71
 454              	.LVL43:
 455 000e 7047     	 bx lr
 456              	.L72:
 457              	 .align 2
 458              	.L71:
 459 0010 00AFFFFF 	 .word -20736
 460              	 .cfi_endproc
 461              	.LFE9:
 463              	 .section .text.mbedtls_md_finish,"ax",%progbits
 464              	 .align 1
 465              	 .global mbedtls_md_finish
 466              	 .thumb
 467              	 .thumb_func
 469              	mbedtls_md_finish:
 470              	.LFB10:
 260:C:/Users/Yushev/git/optiga-trust-qi/externals/mbedtls/library\md.c **** 
 261:C:/Users/Yushev/git/optiga-trust-qi/externals/mbedtls/library\md.c **** int mbedtls_md_finish( mbedtls_md_context_t *ctx, unsigned char *output )
 262:C:/Users/Yushev/git/optiga-trust-qi/externals/mbedtls/library\md.c **** {
 471              	 .loc 1 262 0
 472              	 .cfi_startproc
 473              	 
 474              	 
 475              	 
 476              	.LVL44:
 263:C:/Users/Yushev/git/optiga-trust-qi/externals/mbedtls/library\md.c ****     if( ctx == NULL || ctx->md_info == NULL )
 477              	 .loc 1 263 0
 478 0000 20B1     	 cbz r0,.L74
 479              	 .loc 1 263 0 is_stmt 0 discriminator 1
 480 0002 0368     	 ldr r3,[r0]
 481 0004 13B1     	 cbz r3,.L74
 264:C:/Users/Yushev/git/optiga-trust-qi/externals/mbedtls/library\md.c ****         return( MBEDTLS_ERR_MD_BAD_INPUT_DATA );
 265:C:/Users/Yushev/git/optiga-trust-qi/externals/mbedtls/library\md.c **** 
 266:C:/Users/Yushev/git/optiga-trust-qi/externals/mbedtls/library\md.c ****     return( ctx->md_info->finish_func( ctx->md_ctx, output ) );
 482              	 .loc 1 266 0 is_stmt 1
 483 0006 9B69     	 ldr r3,[r3,#24]
 484 0008 4068     	 ldr r0,[r0,#4]
 485              	.LVL45:
 486 000a 1847     	 bx r3
 487              	.LVL46:
 488              	.L74:
 267:C:/Users/Yushev/git/optiga-trust-qi/externals/mbedtls/library\md.c **** }
 489              	 .loc 1 267 0
 490 000c 0048     	 ldr r0,.L79
 491              	.LVL47:
 492 000e 7047     	 bx lr
 493              	.L80:
 494              	 .align 2
 495              	.L79:
 496 0010 00AFFFFF 	 .word -20736
 497              	 .cfi_endproc
 498              	.LFE10:
 500              	 .section .text.mbedtls_md,"ax",%progbits
 501              	 .align 1
 502              	 .global mbedtls_md
 503              	 .thumb
 504              	 .thumb_func
 506              	mbedtls_md:
 507              	.LFB11:
 268:C:/Users/Yushev/git/optiga-trust-qi/externals/mbedtls/library\md.c **** 
 269:C:/Users/Yushev/git/optiga-trust-qi/externals/mbedtls/library\md.c **** int mbedtls_md( const mbedtls_md_info_t *md_info, const unsigned char *input, size_t ilen,
 270:C:/Users/Yushev/git/optiga-trust-qi/externals/mbedtls/library\md.c ****             unsigned char *output )
 271:C:/Users/Yushev/git/optiga-trust-qi/externals/mbedtls/library\md.c **** {
 508              	 .loc 1 271 0
 509              	 .cfi_startproc
 510              	 
 511              	 
 512              	.LVL48:
 513 0000 10B5     	 push {r4,lr}
 514              	.LCFI6:
 515              	 .cfi_def_cfa_offset 8
 516              	 .cfi_offset 4,-8
 517              	 .cfi_offset 14,-4
 272:C:/Users/Yushev/git/optiga-trust-qi/externals/mbedtls/library\md.c ****     if( md_info == NULL )
 518              	 .loc 1 272 0
 519 0002 38B1     	 cbz r0,.L82
 273:C:/Users/Yushev/git/optiga-trust-qi/externals/mbedtls/library\md.c ****         return( MBEDTLS_ERR_MD_BAD_INPUT_DATA );
 274:C:/Users/Yushev/git/optiga-trust-qi/externals/mbedtls/library\md.c **** 
 275:C:/Users/Yushev/git/optiga-trust-qi/externals/mbedtls/library\md.c ****     return( md_info->digest_func( input, ilen, output ) );
 520              	 .loc 1 275 0
 521 0004 C469     	 ldr r4,[r0,#28]
 522 0006 0846     	 mov r0,r1
 523              	.LVL49:
 524 0008 1146     	 mov r1,r2
 525              	.LVL50:
 526 000a 1A46     	 mov r2,r3
 527              	.LVL51:
 528 000c 2346     	 mov r3,r4
 529              	.LVL52:
 276:C:/Users/Yushev/git/optiga-trust-qi/externals/mbedtls/library\md.c **** }
 530              	 .loc 1 276 0
 531 000e BDE81040 	 pop {r4,lr}
 532              	.LCFI7:
 533              	 .cfi_remember_state
 534              	 .cfi_restore 14
 535              	 .cfi_restore 4
 536              	 .cfi_def_cfa_offset 0
 275:C:/Users/Yushev/git/optiga-trust-qi/externals/mbedtls/library\md.c **** }
 537              	 .loc 1 275 0
 538 0012 1847     	 bx r3
 539              	.LVL53:
 540              	.L82:
 541              	.LCFI8:
 542              	 .cfi_restore_state
 543              	 .loc 1 276 0
 544 0014 0048     	 ldr r0,.L83
 545              	.LVL54:
 546 0016 10BD     	 pop {r4,pc}
 547              	.L84:
 548              	 .align 2
 549              	.L83:
 550 0018 00AFFFFF 	 .word -20736
 551              	 .cfi_endproc
 552              	.LFE11:
 554              	 .section .text.mbedtls_md_hmac_starts,"ax",%progbits
 555              	 .align 1
 556              	 .global mbedtls_md_hmac_starts
 557              	 .thumb
 558              	 .thumb_func
 560              	mbedtls_md_hmac_starts:
 561              	.LFB12:
 277:C:/Users/Yushev/git/optiga-trust-qi/externals/mbedtls/library\md.c **** 
 278:C:/Users/Yushev/git/optiga-trust-qi/externals/mbedtls/library\md.c **** #if defined(MBEDTLS_FS_IO)
 279:C:/Users/Yushev/git/optiga-trust-qi/externals/mbedtls/library\md.c **** int mbedtls_md_file( const mbedtls_md_info_t *md_info, const char *path, unsigned char *output )
 280:C:/Users/Yushev/git/optiga-trust-qi/externals/mbedtls/library\md.c **** {
 281:C:/Users/Yushev/git/optiga-trust-qi/externals/mbedtls/library\md.c ****     int ret;
 282:C:/Users/Yushev/git/optiga-trust-qi/externals/mbedtls/library\md.c ****     FILE *f;
 283:C:/Users/Yushev/git/optiga-trust-qi/externals/mbedtls/library\md.c ****     size_t n;
 284:C:/Users/Yushev/git/optiga-trust-qi/externals/mbedtls/library\md.c ****     mbedtls_md_context_t ctx;
 285:C:/Users/Yushev/git/optiga-trust-qi/externals/mbedtls/library\md.c ****     unsigned char buf[1024];
 286:C:/Users/Yushev/git/optiga-trust-qi/externals/mbedtls/library\md.c **** 
 287:C:/Users/Yushev/git/optiga-trust-qi/externals/mbedtls/library\md.c ****     if( md_info == NULL )
 288:C:/Users/Yushev/git/optiga-trust-qi/externals/mbedtls/library\md.c ****         return( MBEDTLS_ERR_MD_BAD_INPUT_DATA );
 289:C:/Users/Yushev/git/optiga-trust-qi/externals/mbedtls/library\md.c **** 
 290:C:/Users/Yushev/git/optiga-trust-qi/externals/mbedtls/library\md.c ****     if( ( f = fopen( path, "rb" ) ) == NULL )
 291:C:/Users/Yushev/git/optiga-trust-qi/externals/mbedtls/library\md.c ****         return( MBEDTLS_ERR_MD_FILE_IO_ERROR );
 292:C:/Users/Yushev/git/optiga-trust-qi/externals/mbedtls/library\md.c **** 
 293:C:/Users/Yushev/git/optiga-trust-qi/externals/mbedtls/library\md.c ****     mbedtls_md_init( &ctx );
 294:C:/Users/Yushev/git/optiga-trust-qi/externals/mbedtls/library\md.c **** 
 295:C:/Users/Yushev/git/optiga-trust-qi/externals/mbedtls/library\md.c ****     if( ( ret = mbedtls_md_setup( &ctx, md_info, 0 ) ) != 0 )
 296:C:/Users/Yushev/git/optiga-trust-qi/externals/mbedtls/library\md.c ****         goto cleanup;
 297:C:/Users/Yushev/git/optiga-trust-qi/externals/mbedtls/library\md.c **** 
 298:C:/Users/Yushev/git/optiga-trust-qi/externals/mbedtls/library\md.c ****     if( ( ret = md_info->starts_func( ctx.md_ctx ) ) != 0 )
 299:C:/Users/Yushev/git/optiga-trust-qi/externals/mbedtls/library\md.c ****         goto cleanup;
 300:C:/Users/Yushev/git/optiga-trust-qi/externals/mbedtls/library\md.c **** 
 301:C:/Users/Yushev/git/optiga-trust-qi/externals/mbedtls/library\md.c ****     while( ( n = fread( buf, 1, sizeof( buf ), f ) ) > 0 )
 302:C:/Users/Yushev/git/optiga-trust-qi/externals/mbedtls/library\md.c ****         if( ( ret = md_info->update_func( ctx.md_ctx, buf, n ) ) != 0 )
 303:C:/Users/Yushev/git/optiga-trust-qi/externals/mbedtls/library\md.c ****             goto cleanup;
 304:C:/Users/Yushev/git/optiga-trust-qi/externals/mbedtls/library\md.c **** 
 305:C:/Users/Yushev/git/optiga-trust-qi/externals/mbedtls/library\md.c ****     if( ferror( f ) != 0 )
 306:C:/Users/Yushev/git/optiga-trust-qi/externals/mbedtls/library\md.c ****         ret = MBEDTLS_ERR_MD_FILE_IO_ERROR;
 307:C:/Users/Yushev/git/optiga-trust-qi/externals/mbedtls/library\md.c ****     else
 308:C:/Users/Yushev/git/optiga-trust-qi/externals/mbedtls/library\md.c ****         ret = md_info->finish_func( ctx.md_ctx, output );
 309:C:/Users/Yushev/git/optiga-trust-qi/externals/mbedtls/library\md.c **** 
 310:C:/Users/Yushev/git/optiga-trust-qi/externals/mbedtls/library\md.c **** cleanup:
 311:C:/Users/Yushev/git/optiga-trust-qi/externals/mbedtls/library\md.c ****     mbedtls_platform_zeroize( buf, sizeof( buf ) );
 312:C:/Users/Yushev/git/optiga-trust-qi/externals/mbedtls/library\md.c ****     fclose( f );
 313:C:/Users/Yushev/git/optiga-trust-qi/externals/mbedtls/library\md.c ****     mbedtls_md_free( &ctx );
 314:C:/Users/Yushev/git/optiga-trust-qi/externals/mbedtls/library\md.c **** 
 315:C:/Users/Yushev/git/optiga-trust-qi/externals/mbedtls/library\md.c ****     return( ret );
 316:C:/Users/Yushev/git/optiga-trust-qi/externals/mbedtls/library\md.c **** }
 317:C:/Users/Yushev/git/optiga-trust-qi/externals/mbedtls/library\md.c **** #endif /* MBEDTLS_FS_IO */
 318:C:/Users/Yushev/git/optiga-trust-qi/externals/mbedtls/library\md.c **** 
 319:C:/Users/Yushev/git/optiga-trust-qi/externals/mbedtls/library\md.c **** int mbedtls_md_hmac_starts( mbedtls_md_context_t *ctx, const unsigned char *key, size_t keylen )
 320:C:/Users/Yushev/git/optiga-trust-qi/externals/mbedtls/library\md.c **** {
 562              	 .loc 1 320 0
 563              	 .cfi_startproc
 564              	 
 565              	 
 566              	.LVL55:
 567 0000 2DE9F041 	 push {r4,r5,r6,r7,r8,lr}
 568              	.LCFI9:
 569              	 .cfi_def_cfa_offset 24
 570              	 .cfi_offset 4,-24
 571              	 .cfi_offset 5,-20
 572              	 .cfi_offset 6,-16
 573              	 .cfi_offset 7,-12
 574              	 .cfi_offset 8,-8
 575              	 .cfi_offset 14,-4
 576 0004 0E46     	 mov r6,r1
 577 0006 88B0     	 sub sp,sp,#32
 578              	.LCFI10:
 579              	 .cfi_def_cfa_offset 56
 580              	 .loc 1 320 0
 581 0008 9046     	 mov r8,r2
 321:C:/Users/Yushev/git/optiga-trust-qi/externals/mbedtls/library\md.c ****     int ret;
 322:C:/Users/Yushev/git/optiga-trust-qi/externals/mbedtls/library\md.c ****     unsigned char sum[MBEDTLS_MD_MAX_SIZE];
 323:C:/Users/Yushev/git/optiga-trust-qi/externals/mbedtls/library\md.c ****     unsigned char *ipad, *opad;
 324:C:/Users/Yushev/git/optiga-trust-qi/externals/mbedtls/library\md.c ****     size_t i;
 325:C:/Users/Yushev/git/optiga-trust-qi/externals/mbedtls/library\md.c **** 
 326:C:/Users/Yushev/git/optiga-trust-qi/externals/mbedtls/library\md.c ****     if( ctx == NULL || ctx->md_info == NULL || ctx->hmac_ctx == NULL )
 582              	 .loc 1 326 0
 583 000a 0446     	 mov r4,r0
 584 000c 0028     	 cmp r0,#0
 585 000e 50D0     	 beq .L93
 586              	 .loc 1 326 0 is_stmt 0 discriminator 1
 587 0010 0368     	 ldr r3,[r0]
 588 0012 002B     	 cmp r3,#0
 589 0014 4DD0     	 beq .L93
 590              	 .loc 1 326 0 discriminator 2
 591 0016 8268     	 ldr r2,[r0,#8]
 592              	.LVL56:
 593 0018 002A     	 cmp r2,#0
 594 001a 4AD0     	 beq .L93
 327:C:/Users/Yushev/git/optiga-trust-qi/externals/mbedtls/library\md.c ****         return( MBEDTLS_ERR_MD_BAD_INPUT_DATA );
 328:C:/Users/Yushev/git/optiga-trust-qi/externals/mbedtls/library\md.c **** 
 329:C:/Users/Yushev/git/optiga-trust-qi/externals/mbedtls/library\md.c ****     if( keylen > (size_t) ctx->md_info->block_size )
 595              	 .loc 1 329 0 is_stmt 1
 596 001c DA68     	 ldr r2,[r3,#12]
 597 001e 9045     	 cmp r8,r2
 598 0020 19D9     	 bls .L87
 330:C:/Users/Yushev/git/optiga-trust-qi/externals/mbedtls/library\md.c ****     {
 331:C:/Users/Yushev/git/optiga-trust-qi/externals/mbedtls/library\md.c ****         if( ( ret = ctx->md_info->starts_func( ctx->md_ctx ) ) != 0 )
 599              	 .loc 1 331 0
 600 0022 1B69     	 ldr r3,[r3,#16]
 601 0024 4068     	 ldr r0,[r0,#4]
 602              	.LVL57:
 603 0026 9847     	 blx r3
 604              	.LVL58:
 605 0028 0546     	 mov r5,r0
 606 002a 0028     	 cmp r0,#0
 607 002c 3BD1     	 bne .L88
 332:C:/Users/Yushev/git/optiga-trust-qi/externals/mbedtls/library\md.c ****             goto cleanup;
 333:C:/Users/Yushev/git/optiga-trust-qi/externals/mbedtls/library\md.c ****         if( ( ret = ctx->md_info->update_func( ctx->md_ctx, key, keylen ) ) != 0 )
 608              	 .loc 1 333 0
 609 002e 2368     	 ldr r3,[r4]
 610 0030 6068     	 ldr r0,[r4,#4]
 611              	.LVL59:
 612 0032 5B69     	 ldr r3,[r3,#20]
 613 0034 3146     	 mov r1,r6
 614 0036 4246     	 mov r2,r8
 615 0038 9847     	 blx r3
 616              	.LVL60:
 617 003a 0546     	 mov r5,r0
 618 003c 0028     	 cmp r0,#0
 619 003e 32D1     	 bne .L88
 334:C:/Users/Yushev/git/optiga-trust-qi/externals/mbedtls/library\md.c ****             goto cleanup;
 335:C:/Users/Yushev/git/optiga-trust-qi/externals/mbedtls/library\md.c ****         if( ( ret = ctx->md_info->finish_func( ctx->md_ctx, sum ) ) != 0 )
 620              	 .loc 1 335 0
 621 0040 2368     	 ldr r3,[r4]
 622 0042 6068     	 ldr r0,[r4,#4]
 623              	.LVL61:
 624 0044 9B69     	 ldr r3,[r3,#24]
 625 0046 6946     	 mov r1,sp
 626 0048 9847     	 blx r3
 627              	.LVL62:
 628 004a 0546     	 mov r5,r0
 629 004c 58BB     	 cbnz r0,.L88
 336:C:/Users/Yushev/git/optiga-trust-qi/externals/mbedtls/library\md.c ****             goto cleanup;
 337:C:/Users/Yushev/git/optiga-trust-qi/externals/mbedtls/library\md.c **** 
 338:C:/Users/Yushev/git/optiga-trust-qi/externals/mbedtls/library\md.c ****         keylen = ctx->md_info->size;
 630              	 .loc 1 338 0
 631 004e 2368     	 ldr r3,[r4]
 632 0050 D3F80880 	 ldr r8,[r3,#8]
 633              	.LVL63:
 339:C:/Users/Yushev/git/optiga-trust-qi/externals/mbedtls/library\md.c ****         key = sum;
 634              	 .loc 1 339 0
 635 0054 6E46     	 mov r6,sp
 636              	.LVL64:
 637              	.L87:
 340:C:/Users/Yushev/git/optiga-trust-qi/externals/mbedtls/library\md.c ****     }
 341:C:/Users/Yushev/git/optiga-trust-qi/externals/mbedtls/library\md.c **** 
 342:C:/Users/Yushev/git/optiga-trust-qi/externals/mbedtls/library\md.c ****     ipad = (unsigned char *) ctx->hmac_ctx;
 343:C:/Users/Yushev/git/optiga-trust-qi/externals/mbedtls/library\md.c ****     opad = (unsigned char *) ctx->hmac_ctx + ctx->md_info->block_size;
 638              	 .loc 1 343 0
 639 0056 2368     	 ldr r3,[r4]
 342:C:/Users/Yushev/git/optiga-trust-qi/externals/mbedtls/library\md.c ****     opad = (unsigned char *) ctx->hmac_ctx + ctx->md_info->block_size;
 640              	 .loc 1 342 0
 641 0058 A768     	 ldr r7,[r4,#8]
 642              	.LVL65:
 643              	 .loc 1 343 0
 644 005a DA68     	 ldr r2,[r3,#12]
 344:C:/Users/Yushev/git/optiga-trust-qi/externals/mbedtls/library\md.c **** 
 345:C:/Users/Yushev/git/optiga-trust-qi/externals/mbedtls/library\md.c ****     memset( ipad, 0x36, ctx->md_info->block_size );
 645              	 .loc 1 345 0
 646 005c 3621     	 movs r1,#54
 647 005e 3846     	 mov r0,r7
 343:C:/Users/Yushev/git/optiga-trust-qi/externals/mbedtls/library\md.c **** 
 648              	 .loc 1 343 0
 649 0060 BD18     	 adds r5,r7,r2
 650              	.LVL66:
 651              	 .loc 1 345 0
 652 0062 FFF7FEFF 	 bl memset
 653              	.LVL67:
 346:C:/Users/Yushev/git/optiga-trust-qi/externals/mbedtls/library\md.c ****     memset( opad, 0x5C, ctx->md_info->block_size );
 654              	 .loc 1 346 0
 655 0066 2368     	 ldr r3,[r4]
 656 0068 2846     	 mov r0,r5
 657 006a DA68     	 ldr r2,[r3,#12]
 658 006c 5C21     	 movs r1,#92
 659 006e FFF7FEFF 	 bl memset
 660              	.LVL68:
 347:C:/Users/Yushev/git/optiga-trust-qi/externals/mbedtls/library\md.c **** 
 348:C:/Users/Yushev/git/optiga-trust-qi/externals/mbedtls/library\md.c ****     for( i = 0; i < keylen; i++ )
 661              	 .loc 1 348 0
 662 0072 0023     	 movs r3,#0
 663              	.LVL69:
 664              	.L89:
 665              	 .loc 1 348 0 is_stmt 0 discriminator 1
 666 0074 4345     	 cmp r3,r8
 667 0076 09D0     	 beq .L94
 349:C:/Users/Yushev/git/optiga-trust-qi/externals/mbedtls/library\md.c ****     {
 350:C:/Users/Yushev/git/optiga-trust-qi/externals/mbedtls/library\md.c ****         ipad[i] = (unsigned char)( ipad[i] ^ key[i] );
 668              	 .loc 1 350 0 is_stmt 1 discriminator 3
 669 0078 F15C     	 ldrb r1,[r6,r3]
 670 007a FA5C     	 ldrb r2,[r7,r3]
 671 007c 4A40     	 eors r2,r2,r1
 672 007e FA54     	 strb r2,[r7,r3]
 351:C:/Users/Yushev/git/optiga-trust-qi/externals/mbedtls/library\md.c ****         opad[i] = (unsigned char)( opad[i] ^ key[i] );
 673              	 .loc 1 351 0 discriminator 3
 674 0080 F15C     	 ldrb r1,[r6,r3]
 675 0082 EA5C     	 ldrb r2,[r5,r3]
 676 0084 4A40     	 eors r2,r2,r1
 677 0086 EA54     	 strb r2,[r5,r3]
 348:C:/Users/Yushev/git/optiga-trust-qi/externals/mbedtls/library\md.c ****     {
 678              	 .loc 1 348 0 discriminator 3
 679 0088 0133     	 adds r3,r3,#1
 680              	.LVL70:
 681 008a F3E7     	 b .L89
 682              	.L94:
 352:C:/Users/Yushev/git/optiga-trust-qi/externals/mbedtls/library\md.c ****     }
 353:C:/Users/Yushev/git/optiga-trust-qi/externals/mbedtls/library\md.c **** 
 354:C:/Users/Yushev/git/optiga-trust-qi/externals/mbedtls/library\md.c ****     if( ( ret = ctx->md_info->starts_func( ctx->md_ctx ) ) != 0 )
 683              	 .loc 1 354 0
 684 008c 2368     	 ldr r3,[r4]
 685              	.LVL71:
 686 008e 6068     	 ldr r0,[r4,#4]
 687 0090 1B69     	 ldr r3,[r3,#16]
 688 0092 9847     	 blx r3
 689              	.LVL72:
 690 0094 0546     	 mov r5,r0
 691              	.LVL73:
 692 0096 30B9     	 cbnz r0,.L88
 355:C:/Users/Yushev/git/optiga-trust-qi/externals/mbedtls/library\md.c ****         goto cleanup;
 356:C:/Users/Yushev/git/optiga-trust-qi/externals/mbedtls/library\md.c ****     if( ( ret = ctx->md_info->update_func( ctx->md_ctx, ipad,
 693              	 .loc 1 356 0
 694 0098 2368     	 ldr r3,[r4]
 695 009a 6068     	 ldr r0,[r4,#4]
 696              	.LVL74:
 697 009c 5D69     	 ldr r5,[r3,#20]
 698              	.LVL75:
 699 009e DA68     	 ldr r2,[r3,#12]
 700 00a0 3946     	 mov r1,r7
 701 00a2 A847     	 blx r5
 702              	.LVL76:
 703 00a4 0546     	 mov r5,r0
 704              	.LVL77:
 705              	.L88:
 357:C:/Users/Yushev/git/optiga-trust-qi/externals/mbedtls/library\md.c ****                                            ctx->md_info->block_size ) ) != 0 )
 358:C:/Users/Yushev/git/optiga-trust-qi/externals/mbedtls/library\md.c ****         goto cleanup;
 359:C:/Users/Yushev/git/optiga-trust-qi/externals/mbedtls/library\md.c **** 
 360:C:/Users/Yushev/git/optiga-trust-qi/externals/mbedtls/library\md.c **** cleanup:
 361:C:/Users/Yushev/git/optiga-trust-qi/externals/mbedtls/library\md.c ****     mbedtls_platform_zeroize( sum, sizeof( sum ) );
 706              	 .loc 1 361 0
 707 00a6 6846     	 mov r0,sp
 708              	.LVL78:
 709 00a8 2021     	 movs r1,#32
 710 00aa FFF7FEFF 	 bl mbedtls_platform_zeroize
 711              	.LVL79:
 362:C:/Users/Yushev/git/optiga-trust-qi/externals/mbedtls/library\md.c **** 
 363:C:/Users/Yushev/git/optiga-trust-qi/externals/mbedtls/library\md.c ****     return( ret );
 712              	 .loc 1 363 0
 713 00ae 2846     	 mov r0,r5
 714 00b0 00E0     	 b .L86
 715              	.LVL80:
 716              	.L93:
 327:C:/Users/Yushev/git/optiga-trust-qi/externals/mbedtls/library\md.c **** 
 717              	 .loc 1 327 0
 718 00b2 0248     	 ldr r0,.L95
 719              	.LVL81:
 720              	.L86:
 364:C:/Users/Yushev/git/optiga-trust-qi/externals/mbedtls/library\md.c **** }
 721              	 .loc 1 364 0
 722 00b4 08B0     	 add sp,sp,#32
 723              	.LCFI11:
 724              	 .cfi_def_cfa_offset 24
 725              	 
 726 00b6 BDE8F081 	 pop {r4,r5,r6,r7,r8,pc}
 727              	.LVL82:
 728              	.L96:
 729 00ba 00BF     	 .align 2
 730              	.L95:
 731 00bc 00AFFFFF 	 .word -20736
 732              	 .cfi_endproc
 733              	.LFE12:
 735              	 .section .text.mbedtls_md_hmac_update,"ax",%progbits
 736              	 .align 1
 737              	 .global mbedtls_md_hmac_update
 738              	 .thumb
 739              	 .thumb_func
 741              	mbedtls_md_hmac_update:
 742              	.LFB13:
 365:C:/Users/Yushev/git/optiga-trust-qi/externals/mbedtls/library\md.c **** 
 366:C:/Users/Yushev/git/optiga-trust-qi/externals/mbedtls/library\md.c **** int mbedtls_md_hmac_update( mbedtls_md_context_t *ctx, const unsigned char *input, size_t ilen )
 367:C:/Users/Yushev/git/optiga-trust-qi/externals/mbedtls/library\md.c **** {
 743              	 .loc 1 367 0
 744              	 .cfi_startproc
 745              	 
 746              	 
 747              	.LVL83:
 748 0000 10B5     	 push {r4,lr}
 749              	.LCFI12:
 750              	 .cfi_def_cfa_offset 8
 751              	 .cfi_offset 4,-8
 752              	 .cfi_offset 14,-4
 368:C:/Users/Yushev/git/optiga-trust-qi/externals/mbedtls/library\md.c ****     if( ctx == NULL || ctx->md_info == NULL || ctx->hmac_ctx == NULL )
 753              	 .loc 1 368 0
 754 0002 40B1     	 cbz r0,.L98
 755              	 .loc 1 368 0 is_stmt 0 discriminator 1
 756 0004 0368     	 ldr r3,[r0]
 757 0006 33B1     	 cbz r3,.L98
 758              	 .loc 1 368 0 discriminator 2
 759 0008 8468     	 ldr r4,[r0,#8]
 760 000a 24B1     	 cbz r4,.L98
 369:C:/Users/Yushev/git/optiga-trust-qi/externals/mbedtls/library\md.c ****         return( MBEDTLS_ERR_MD_BAD_INPUT_DATA );
 370:C:/Users/Yushev/git/optiga-trust-qi/externals/mbedtls/library\md.c **** 
 371:C:/Users/Yushev/git/optiga-trust-qi/externals/mbedtls/library\md.c ****     return( ctx->md_info->update_func( ctx->md_ctx, input, ilen ) );
 761              	 .loc 1 371 0 is_stmt 1
 762 000c 5B69     	 ldr r3,[r3,#20]
 763 000e 4068     	 ldr r0,[r0,#4]
 764              	.LVL84:
 372:C:/Users/Yushev/git/optiga-trust-qi/externals/mbedtls/library\md.c **** }
 765              	 .loc 1 372 0
 766 0010 BDE81040 	 pop {r4,lr}
 767              	.LCFI13:
 768              	 .cfi_remember_state
 769              	 .cfi_restore 14
 770              	 .cfi_restore 4
 771              	 .cfi_def_cfa_offset 0
 371:C:/Users/Yushev/git/optiga-trust-qi/externals/mbedtls/library\md.c **** }
 772              	 .loc 1 371 0
 773 0014 1847     	 bx r3
 774              	.LVL85:
 775              	.L98:
 776              	.LCFI14:
 777              	 .cfi_restore_state
 778              	 .loc 1 372 0
 779 0016 0148     	 ldr r0,.L105
 780              	.LVL86:
 781 0018 10BD     	 pop {r4,pc}
 782              	.L106:
 783 001a 00BF     	 .align 2
 784              	.L105:
 785 001c 00AFFFFF 	 .word -20736
 786              	 .cfi_endproc
 787              	.LFE13:
 789              	 .section .text.mbedtls_md_hmac_finish,"ax",%progbits
 790              	 .align 1
 791              	 .global mbedtls_md_hmac_finish
 792              	 .thumb
 793              	 .thumb_func
 795              	mbedtls_md_hmac_finish:
 796              	.LFB14:
 373:C:/Users/Yushev/git/optiga-trust-qi/externals/mbedtls/library\md.c **** 
 374:C:/Users/Yushev/git/optiga-trust-qi/externals/mbedtls/library\md.c **** int mbedtls_md_hmac_finish( mbedtls_md_context_t *ctx, unsigned char *output )
 375:C:/Users/Yushev/git/optiga-trust-qi/externals/mbedtls/library\md.c **** {
 797              	 .loc 1 375 0
 798              	 .cfi_startproc
 799              	 
 800              	 
 801              	.LVL87:
 802 0000 F0B5     	 push {r4,r5,r6,r7,lr}
 803              	.LCFI15:
 804              	 .cfi_def_cfa_offset 20
 805              	 .cfi_offset 4,-20
 806              	 .cfi_offset 5,-16
 807              	 .cfi_offset 6,-12
 808              	 .cfi_offset 7,-8
 809              	 .cfi_offset 14,-4
 810 0002 0D46     	 mov r5,r1
 811 0004 89B0     	 sub sp,sp,#36
 812              	.LCFI16:
 813              	 .cfi_def_cfa_offset 56
 376:C:/Users/Yushev/git/optiga-trust-qi/externals/mbedtls/library\md.c ****     int ret;
 377:C:/Users/Yushev/git/optiga-trust-qi/externals/mbedtls/library\md.c ****     unsigned char tmp[MBEDTLS_MD_MAX_SIZE];
 378:C:/Users/Yushev/git/optiga-trust-qi/externals/mbedtls/library\md.c ****     unsigned char *opad;
 379:C:/Users/Yushev/git/optiga-trust-qi/externals/mbedtls/library\md.c **** 
 380:C:/Users/Yushev/git/optiga-trust-qi/externals/mbedtls/library\md.c ****     if( ctx == NULL || ctx->md_info == NULL || ctx->hmac_ctx == NULL )
 814              	 .loc 1 380 0
 815 0006 0446     	 mov r4,r0
 816 0008 18B3     	 cbz r0,.L111
 817              	 .loc 1 380 0 is_stmt 0 discriminator 1
 818 000a 0368     	 ldr r3,[r0]
 819 000c 0BB3     	 cbz r3,.L111
 820              	 .loc 1 380 0 discriminator 2
 821 000e 8668     	 ldr r6,[r0,#8]
 822 0010 FEB1     	 cbz r6,.L111
 381:C:/Users/Yushev/git/optiga-trust-qi/externals/mbedtls/library\md.c ****         return( MBEDTLS_ERR_MD_BAD_INPUT_DATA );
 382:C:/Users/Yushev/git/optiga-trust-qi/externals/mbedtls/library\md.c **** 
 383:C:/Users/Yushev/git/optiga-trust-qi/externals/mbedtls/library\md.c ****     opad = (unsigned char *) ctx->hmac_ctx + ctx->md_info->block_size;
 823              	 .loc 1 383 0 is_stmt 1
 824 0012 DF68     	 ldr r7,[r3,#12]
 825              	.LVL88:
 384:C:/Users/Yushev/git/optiga-trust-qi/externals/mbedtls/library\md.c **** 
 385:C:/Users/Yushev/git/optiga-trust-qi/externals/mbedtls/library\md.c ****     if( ( ret = ctx->md_info->finish_func( ctx->md_ctx, tmp ) ) != 0 )
 826              	 .loc 1 385 0
 827 0014 4068     	 ldr r0,[r0,#4]
 828              	.LVL89:
 829 0016 9B69     	 ldr r3,[r3,#24]
 830 0018 6946     	 mov r1,sp
 831              	.LVL90:
 832 001a 9847     	 blx r3
 833              	.LVL91:
 834 001c D0B9     	 cbnz r0,.L108
 386:C:/Users/Yushev/git/optiga-trust-qi/externals/mbedtls/library\md.c ****         return( ret );
 387:C:/Users/Yushev/git/optiga-trust-qi/externals/mbedtls/library\md.c ****     if( ( ret = ctx->md_info->starts_func( ctx->md_ctx ) ) != 0 )
 835              	 .loc 1 387 0
 836 001e 2368     	 ldr r3,[r4]
 837 0020 6068     	 ldr r0,[r4,#4]
 838              	.LVL92:
 839 0022 1B69     	 ldr r3,[r3,#16]
 840 0024 9847     	 blx r3
 841              	.LVL93:
 842 0026 A8B9     	 cbnz r0,.L108
 388:C:/Users/Yushev/git/optiga-trust-qi/externals/mbedtls/library\md.c ****         return( ret );
 389:C:/Users/Yushev/git/optiga-trust-qi/externals/mbedtls/library\md.c ****     if( ( ret = ctx->md_info->update_func( ctx->md_ctx, opad,
 843              	 .loc 1 389 0
 844 0028 2368     	 ldr r3,[r4]
 845 002a 6068     	 ldr r0,[r4,#4]
 846              	.LVL94:
 847 002c D3F814C0 	 ldr ip,[r3,#20]
 848 0030 DA68     	 ldr r2,[r3,#12]
 849 0032 F119     	 adds r1,r6,r7
 850 0034 E047     	 blx ip
 851              	.LVL95:
 852 0036 68B9     	 cbnz r0,.L108
 390:C:/Users/Yushev/git/optiga-trust-qi/externals/mbedtls/library\md.c ****                                            ctx->md_info->block_size ) ) != 0 )
 391:C:/Users/Yushev/git/optiga-trust-qi/externals/mbedtls/library\md.c ****         return( ret );
 392:C:/Users/Yushev/git/optiga-trust-qi/externals/mbedtls/library\md.c ****     if( ( ret = ctx->md_info->update_func( ctx->md_ctx, tmp,
 853              	 .loc 1 392 0
 854 0038 2368     	 ldr r3,[r4]
 855 003a 6068     	 ldr r0,[r4,#4]
 856              	.LVL96:
 857 003c 5E69     	 ldr r6,[r3,#20]
 858              	.LVL97:
 859 003e 9A68     	 ldr r2,[r3,#8]
 860 0040 6946     	 mov r1,sp
 861 0042 B047     	 blx r6
 862              	.LVL98:
 863 0044 30B9     	 cbnz r0,.L108
 393:C:/Users/Yushev/git/optiga-trust-qi/externals/mbedtls/library\md.c ****                                            ctx->md_info->size ) ) != 0 )
 394:C:/Users/Yushev/git/optiga-trust-qi/externals/mbedtls/library\md.c ****         return( ret );
 395:C:/Users/Yushev/git/optiga-trust-qi/externals/mbedtls/library\md.c ****     return( ctx->md_info->finish_func( ctx->md_ctx, output ) );
 864              	 .loc 1 395 0
 865 0046 2368     	 ldr r3,[r4]
 866 0048 6068     	 ldr r0,[r4,#4]
 867              	.LVL99:
 868 004a 9B69     	 ldr r3,[r3,#24]
 869 004c 2946     	 mov r1,r5
 870 004e 9847     	 blx r3
 871              	.LVL100:
 872 0050 00E0     	 b .L108
 873              	.LVL101:
 874              	.L111:
 381:C:/Users/Yushev/git/optiga-trust-qi/externals/mbedtls/library\md.c **** 
 875              	 .loc 1 381 0
 876 0052 0148     	 ldr r0,.L116
 877              	.LVL102:
 878              	.L108:
 396:C:/Users/Yushev/git/optiga-trust-qi/externals/mbedtls/library\md.c **** }
 879              	 .loc 1 396 0
 880 0054 09B0     	 add sp,sp,#36
 881              	.LCFI17:
 882              	 .cfi_def_cfa_offset 20
 883              	 
 884 0056 F0BD     	 pop {r4,r5,r6,r7,pc}
 885              	.LVL103:
 886              	.L117:
 887              	 .align 2
 888              	.L116:
 889 0058 00AFFFFF 	 .word -20736
 890              	 .cfi_endproc
 891              	.LFE14:
 893              	 .section .text.mbedtls_md_hmac_reset,"ax",%progbits
 894              	 .align 1
 895              	 .global mbedtls_md_hmac_reset
 896              	 .thumb
 897              	 .thumb_func
 899              	mbedtls_md_hmac_reset:
 900              	.LFB15:
 397:C:/Users/Yushev/git/optiga-trust-qi/externals/mbedtls/library\md.c **** 
 398:C:/Users/Yushev/git/optiga-trust-qi/externals/mbedtls/library\md.c **** int mbedtls_md_hmac_reset( mbedtls_md_context_t *ctx )
 399:C:/Users/Yushev/git/optiga-trust-qi/externals/mbedtls/library\md.c **** {
 901              	 .loc 1 399 0
 902              	 .cfi_startproc
 903              	 
 904              	 
 905              	.LVL104:
 906 0000 70B5     	 push {r4,r5,r6,lr}
 907              	.LCFI18:
 908              	 .cfi_def_cfa_offset 16
 909              	 .cfi_offset 4,-16
 910              	 .cfi_offset 5,-12
 911              	 .cfi_offset 6,-8
 912              	 .cfi_offset 14,-4
 400:C:/Users/Yushev/git/optiga-trust-qi/externals/mbedtls/library\md.c ****     int ret;
 401:C:/Users/Yushev/git/optiga-trust-qi/externals/mbedtls/library\md.c ****     unsigned char *ipad;
 402:C:/Users/Yushev/git/optiga-trust-qi/externals/mbedtls/library\md.c **** 
 403:C:/Users/Yushev/git/optiga-trust-qi/externals/mbedtls/library\md.c ****     if( ctx == NULL || ctx->md_info == NULL || ctx->hmac_ctx == NULL )
 913              	 .loc 1 403 0
 914 0002 0446     	 mov r4,r0
 915 0004 80B1     	 cbz r0,.L122
 916              	 .loc 1 403 0 is_stmt 0 discriminator 1
 917 0006 0368     	 ldr r3,[r0]
 918 0008 73B1     	 cbz r3,.L122
 919              	 .loc 1 403 0 discriminator 2
 920 000a 8568     	 ldr r5,[r0,#8]
 921 000c 65B1     	 cbz r5,.L122
 922              	.LVL105:
 404:C:/Users/Yushev/git/optiga-trust-qi/externals/mbedtls/library\md.c ****         return( MBEDTLS_ERR_MD_BAD_INPUT_DATA );
 405:C:/Users/Yushev/git/optiga-trust-qi/externals/mbedtls/library\md.c **** 
 406:C:/Users/Yushev/git/optiga-trust-qi/externals/mbedtls/library\md.c ****     ipad = (unsigned char *) ctx->hmac_ctx;
 407:C:/Users/Yushev/git/optiga-trust-qi/externals/mbedtls/library\md.c **** 
 408:C:/Users/Yushev/git/optiga-trust-qi/externals/mbedtls/library\md.c ****     if( ( ret = ctx->md_info->starts_func( ctx->md_ctx ) ) != 0 )
 923              	 .loc 1 408 0 is_stmt 1
 924 000e 1B69     	 ldr r3,[r3,#16]
 925 0010 4068     	 ldr r0,[r0,#4]
 926              	.LVL106:
 927 0012 9847     	 blx r3
 928              	.LVL107:
 929 0014 48B9     	 cbnz r0,.L119
 409:C:/Users/Yushev/git/optiga-trust-qi/externals/mbedtls/library\md.c ****         return( ret );
 410:C:/Users/Yushev/git/optiga-trust-qi/externals/mbedtls/library\md.c ****     return( ctx->md_info->update_func( ctx->md_ctx, ipad,
 930              	 .loc 1 410 0
 931 0016 2368     	 ldr r3,[r4]
 932 0018 6068     	 ldr r0,[r4,#4]
 933              	.LVL108:
 934 001a 5E69     	 ldr r6,[r3,#20]
 935 001c DA68     	 ldr r2,[r3,#12]
 936 001e 2946     	 mov r1,r5
 937 0020 3346     	 mov r3,r6
 411:C:/Users/Yushev/git/optiga-trust-qi/externals/mbedtls/library\md.c ****                                        ctx->md_info->block_size ) );
 412:C:/Users/Yushev/git/optiga-trust-qi/externals/mbedtls/library\md.c **** }
 938              	 .loc 1 412 0
 939 0022 BDE87040 	 pop {r4,r5,r6,lr}
 940              	.LCFI19:
 941              	 .cfi_remember_state
 942              	 .cfi_restore 14
 943              	 .cfi_restore 6
 944              	 .cfi_restore 5
 945              	 .cfi_restore 4
 946              	 .cfi_def_cfa_offset 0
 947              	.LVL109:
 410:C:/Users/Yushev/git/optiga-trust-qi/externals/mbedtls/library\md.c ****                                        ctx->md_info->block_size ) );
 948              	 .loc 1 410 0
 949 0026 1847     	 bx r3
 950              	.LVL110:
 951              	.L122:
 952              	.LCFI20:
 953              	 .cfi_restore_state
 404:C:/Users/Yushev/git/optiga-trust-qi/externals/mbedtls/library\md.c **** 
 954              	 .loc 1 404 0
 955 0028 0048     	 ldr r0,.L124
 956              	.LVL111:
 957              	.L119:
 958              	 .loc 1 412 0
 959 002a 70BD     	 pop {r4,r5,r6,pc}
 960              	.LVL112:
 961              	.L125:
 962              	 .align 2
 963              	.L124:
 964 002c 00AFFFFF 	 .word -20736
 965              	 .cfi_endproc
 966              	.LFE15:
 968              	 .section .text.mbedtls_md_hmac,"ax",%progbits
 969              	 .align 1
 970              	 .global mbedtls_md_hmac
 971              	 .thumb
 972              	 .thumb_func
 974              	mbedtls_md_hmac:
 975              	.LFB16:
 413:C:/Users/Yushev/git/optiga-trust-qi/externals/mbedtls/library\md.c **** 
 414:C:/Users/Yushev/git/optiga-trust-qi/externals/mbedtls/library\md.c **** int mbedtls_md_hmac( const mbedtls_md_info_t *md_info,
 415:C:/Users/Yushev/git/optiga-trust-qi/externals/mbedtls/library\md.c ****                      const unsigned char *key, size_t keylen,
 416:C:/Users/Yushev/git/optiga-trust-qi/externals/mbedtls/library\md.c ****                      const unsigned char *input, size_t ilen,
 417:C:/Users/Yushev/git/optiga-trust-qi/externals/mbedtls/library\md.c ****                      unsigned char *output )
 418:C:/Users/Yushev/git/optiga-trust-qi/externals/mbedtls/library\md.c **** {
 976              	 .loc 1 418 0
 977              	 .cfi_startproc
 978              	 
 979              	 
 980              	.LVL113:
 981 0000 F0B5     	 push {r4,r5,r6,r7,lr}
 982              	.LCFI21:
 983              	 .cfi_def_cfa_offset 20
 984              	 .cfi_offset 4,-20
 985              	 .cfi_offset 5,-16
 986              	 .cfi_offset 6,-12
 987              	 .cfi_offset 7,-8
 988              	 .cfi_offset 14,-4
 989 0002 0F46     	 mov r7,r1
 990 0004 85B0     	 sub sp,sp,#20
 991              	.LCFI22:
 992              	 .cfi_def_cfa_offset 40
 993              	 .loc 1 418 0
 994 0006 1646     	 mov r6,r2
 995 0008 1D46     	 mov r5,r3
 419:C:/Users/Yushev/git/optiga-trust-qi/externals/mbedtls/library\md.c ****     mbedtls_md_context_t ctx;
 420:C:/Users/Yushev/git/optiga-trust-qi/externals/mbedtls/library\md.c ****     int ret;
 421:C:/Users/Yushev/git/optiga-trust-qi/externals/mbedtls/library\md.c **** 
 422:C:/Users/Yushev/git/optiga-trust-qi/externals/mbedtls/library\md.c ****     if( md_info == NULL )
 996              	 .loc 1 422 0
 997 000a 0446     	 mov r4,r0
 998 000c 08B3     	 cbz r0,.L129
 423:C:/Users/Yushev/git/optiga-trust-qi/externals/mbedtls/library\md.c ****         return( MBEDTLS_ERR_MD_BAD_INPUT_DATA );
 424:C:/Users/Yushev/git/optiga-trust-qi/externals/mbedtls/library\md.c **** 
 425:C:/Users/Yushev/git/optiga-trust-qi/externals/mbedtls/library\md.c ****     mbedtls_md_init( &ctx );
 999              	 .loc 1 425 0
 1000 000e 01A8     	 add r0,sp,#4
 1001              	.LVL114:
 1002 0010 FFF7FEFF 	 bl mbedtls_md_init
 1003              	.LVL115:
 426:C:/Users/Yushev/git/optiga-trust-qi/externals/mbedtls/library\md.c **** 
 427:C:/Users/Yushev/git/optiga-trust-qi/externals/mbedtls/library\md.c ****     if( ( ret = mbedtls_md_setup( &ctx, md_info, 1 ) ) != 0 )
 1004              	 .loc 1 427 0
 1005 0014 2146     	 mov r1,r4
 1006 0016 01A8     	 add r0,sp,#4
 1007 0018 0122     	 movs r2,#1
 1008 001a FFF7FEFF 	 bl mbedtls_md_setup
 1009              	.LVL116:
 1010 001e 0446     	 mov r4,r0
 1011              	.LVL117:
 1012 0020 90B9     	 cbnz r0,.L128
 428:C:/Users/Yushev/git/optiga-trust-qi/externals/mbedtls/library\md.c ****         goto cleanup;
 429:C:/Users/Yushev/git/optiga-trust-qi/externals/mbedtls/library\md.c **** 
 430:C:/Users/Yushev/git/optiga-trust-qi/externals/mbedtls/library\md.c ****     if( ( ret = mbedtls_md_hmac_starts( &ctx, key, keylen ) ) != 0 )
 1013              	 .loc 1 430 0
 1014 0022 01A8     	 add r0,sp,#4
 1015              	.LVL118:
 1016 0024 3946     	 mov r1,r7
 1017 0026 3246     	 mov r2,r6
 1018 0028 FFF7FEFF 	 bl mbedtls_md_hmac_starts
 1019              	.LVL119:
 1020 002c 0446     	 mov r4,r0
 1021 002e 58B9     	 cbnz r0,.L128
 431:C:/Users/Yushev/git/optiga-trust-qi/externals/mbedtls/library\md.c ****         goto cleanup;
 432:C:/Users/Yushev/git/optiga-trust-qi/externals/mbedtls/library\md.c ****     if( ( ret = mbedtls_md_hmac_update( &ctx, input, ilen ) ) != 0 )
 1022              	 .loc 1 432 0
 1023 0030 01A8     	 add r0,sp,#4
 1024              	.LVL120:
 1025 0032 2946     	 mov r1,r5
 1026 0034 0A9A     	 ldr r2,[sp,#40]
 1027 0036 FFF7FEFF 	 bl mbedtls_md_hmac_update
 1028              	.LVL121:
 1029 003a 0446     	 mov r4,r0
 1030 003c 20B9     	 cbnz r0,.L128
 433:C:/Users/Yushev/git/optiga-trust-qi/externals/mbedtls/library\md.c ****         goto cleanup;
 434:C:/Users/Yushev/git/optiga-trust-qi/externals/mbedtls/library\md.c ****     if( ( ret = mbedtls_md_hmac_finish( &ctx, output ) ) != 0 )
 1031              	 .loc 1 434 0
 1032 003e 01A8     	 add r0,sp,#4
 1033              	.LVL122:
 1034 0040 0B99     	 ldr r1,[sp,#44]
 1035 0042 FFF7FEFF 	 bl mbedtls_md_hmac_finish
 1036              	.LVL123:
 1037 0046 0446     	 mov r4,r0
 1038              	.LVL124:
 1039              	.L128:
 435:C:/Users/Yushev/git/optiga-trust-qi/externals/mbedtls/library\md.c ****         goto cleanup;
 436:C:/Users/Yushev/git/optiga-trust-qi/externals/mbedtls/library\md.c **** 
 437:C:/Users/Yushev/git/optiga-trust-qi/externals/mbedtls/library\md.c **** cleanup:
 438:C:/Users/Yushev/git/optiga-trust-qi/externals/mbedtls/library\md.c ****     mbedtls_md_free( &ctx );
 1040              	 .loc 1 438 0
 1041 0048 01A8     	 add r0,sp,#4
 1042              	.LVL125:
 1043 004a FFF7FEFF 	 bl mbedtls_md_free
 1044              	.LVL126:
 439:C:/Users/Yushev/git/optiga-trust-qi/externals/mbedtls/library\md.c **** 
 440:C:/Users/Yushev/git/optiga-trust-qi/externals/mbedtls/library\md.c ****     return( ret );
 1045              	 .loc 1 440 0
 1046 004e 2046     	 mov r0,r4
 1047 0050 00E0     	 b .L127
 1048              	.LVL127:
 1049              	.L129:
 423:C:/Users/Yushev/git/optiga-trust-qi/externals/mbedtls/library\md.c **** 
 1050              	 .loc 1 423 0
 1051 0052 0148     	 ldr r0,.L130
 1052              	.LVL128:
 1053              	.L127:
 441:C:/Users/Yushev/git/optiga-trust-qi/externals/mbedtls/library\md.c **** }
 1054              	 .loc 1 441 0
 1055 0054 05B0     	 add sp,sp,#20
 1056              	.LCFI23:
 1057              	 .cfi_def_cfa_offset 20
 1058              	 
 1059 0056 F0BD     	 pop {r4,r5,r6,r7,pc}
 1060              	.LVL129:
 1061              	.L131:
 1062              	 .align 2
 1063              	.L130:
 1064 0058 00AFFFFF 	 .word -20736
 1065              	 .cfi_endproc
 1066              	.LFE16:
 1068              	 .section .text.mbedtls_md_process,"ax",%progbits
 1069              	 .align 1
 1070              	 .global mbedtls_md_process
 1071              	 .thumb
 1072              	 .thumb_func
 1074              	mbedtls_md_process:
 1075              	.LFB17:
 442:C:/Users/Yushev/git/optiga-trust-qi/externals/mbedtls/library\md.c **** 
 443:C:/Users/Yushev/git/optiga-trust-qi/externals/mbedtls/library\md.c **** int mbedtls_md_process( mbedtls_md_context_t *ctx, const unsigned char *data )
 444:C:/Users/Yushev/git/optiga-trust-qi/externals/mbedtls/library\md.c **** {
 1076              	 .loc 1 444 0
 1077              	 .cfi_startproc
 1078              	 
 1079              	 
 1080              	 
 1081              	.LVL130:
 445:C:/Users/Yushev/git/optiga-trust-qi/externals/mbedtls/library\md.c ****     if( ctx == NULL || ctx->md_info == NULL )
 1082              	 .loc 1 445 0
 1083 0000 20B1     	 cbz r0,.L133
 1084              	 .loc 1 445 0 is_stmt 0 discriminator 1
 1085 0002 0368     	 ldr r3,[r0]
 1086 0004 13B1     	 cbz r3,.L133
 446:C:/Users/Yushev/git/optiga-trust-qi/externals/mbedtls/library\md.c ****         return( MBEDTLS_ERR_MD_BAD_INPUT_DATA );
 447:C:/Users/Yushev/git/optiga-trust-qi/externals/mbedtls/library\md.c **** 
 448:C:/Users/Yushev/git/optiga-trust-qi/externals/mbedtls/library\md.c ****     return( ctx->md_info->process_func( ctx->md_ctx, data ) );
 1087              	 .loc 1 448 0 is_stmt 1
 1088 0006 DB6A     	 ldr r3,[r3,#44]
 1089 0008 4068     	 ldr r0,[r0,#4]
 1090              	.LVL131:
 1091 000a 1847     	 bx r3
 1092              	.LVL132:
 1093              	.L133:
 449:C:/Users/Yushev/git/optiga-trust-qi/externals/mbedtls/library\md.c **** }
 1094              	 .loc 1 449 0
 1095 000c 0048     	 ldr r0,.L138
 1096              	.LVL133:
 1097 000e 7047     	 bx lr
 1098              	.L139:
 1099              	 .align 2
 1100              	.L138:
 1101 0010 00AFFFFF 	 .word -20736
 1102              	 .cfi_endproc
 1103              	.LFE17:
 1105              	 .section .text.mbedtls_md_get_size,"ax",%progbits
 1106              	 .align 1
 1107              	 .global mbedtls_md_get_size
 1108              	 .thumb
 1109              	 .thumb_func
 1111              	mbedtls_md_get_size:
 1112              	.LFB18:
 450:C:/Users/Yushev/git/optiga-trust-qi/externals/mbedtls/library\md.c **** 
 451:C:/Users/Yushev/git/optiga-trust-qi/externals/mbedtls/library\md.c **** unsigned char mbedtls_md_get_size( const mbedtls_md_info_t *md_info )
 452:C:/Users/Yushev/git/optiga-trust-qi/externals/mbedtls/library\md.c **** {
 1113              	 .loc 1 452 0
 1114              	 .cfi_startproc
 1115              	 
 1116              	 
 1117              	 
 1118              	.LVL134:
 453:C:/Users/Yushev/git/optiga-trust-qi/externals/mbedtls/library\md.c ****     if( md_info == NULL )
 1119              	 .loc 1 453 0
 1120 0000 00B1     	 cbz r0,.L141
 454:C:/Users/Yushev/git/optiga-trust-qi/externals/mbedtls/library\md.c ****         return( 0 );
 455:C:/Users/Yushev/git/optiga-trust-qi/externals/mbedtls/library\md.c **** 
 456:C:/Users/Yushev/git/optiga-trust-qi/externals/mbedtls/library\md.c ****     return md_info->size;
 1121              	 .loc 1 456 0
 1122 0002 007A     	 ldrb r0,[r0,#8]
 1123              	.LVL135:
 1124              	.L141:
 457:C:/Users/Yushev/git/optiga-trust-qi/externals/mbedtls/library\md.c **** }
 1125              	 .loc 1 457 0
 1126 0004 7047     	 bx lr
 1127              	 .cfi_endproc
 1128              	.LFE18:
 1130              	 .section .text.mbedtls_md_get_type,"ax",%progbits
 1131              	 .align 1
 1132              	 .global mbedtls_md_get_type
 1133              	 .thumb
 1134              	 .thumb_func
 1136              	mbedtls_md_get_type:
 1137              	.LFB19:
 458:C:/Users/Yushev/git/optiga-trust-qi/externals/mbedtls/library\md.c **** 
 459:C:/Users/Yushev/git/optiga-trust-qi/externals/mbedtls/library\md.c **** mbedtls_md_type_t mbedtls_md_get_type( const mbedtls_md_info_t *md_info )
 460:C:/Users/Yushev/git/optiga-trust-qi/externals/mbedtls/library\md.c **** {
 1138              	 .loc 1 460 0
 1139              	 .cfi_startproc
 1140              	 
 1141              	 
 1142              	 
 1143              	.LVL136:
 461:C:/Users/Yushev/git/optiga-trust-qi/externals/mbedtls/library\md.c ****     if( md_info == NULL )
 1144              	 .loc 1 461 0
 1145 0000 00B1     	 cbz r0,.L144
 462:C:/Users/Yushev/git/optiga-trust-qi/externals/mbedtls/library\md.c ****         return( MBEDTLS_MD_NONE );
 463:C:/Users/Yushev/git/optiga-trust-qi/externals/mbedtls/library\md.c **** 
 464:C:/Users/Yushev/git/optiga-trust-qi/externals/mbedtls/library\md.c ****     return md_info->type;
 1146              	 .loc 1 464 0
 1147 0002 0078     	 ldrb r0,[r0]
 1148              	.LVL137:
 1149              	.L144:
 465:C:/Users/Yushev/git/optiga-trust-qi/externals/mbedtls/library\md.c **** }
 1150              	 .loc 1 465 0
 1151 0004 7047     	 bx lr
 1152              	 .cfi_endproc
 1153              	.LFE19:
 1155              	 .section .text.mbedtls_md_get_name,"ax",%progbits
 1156              	 .align 1
 1157              	 .global mbedtls_md_get_name
 1158              	 .thumb
 1159              	 .thumb_func
 1161              	mbedtls_md_get_name:
 1162              	.LFB20:
 466:C:/Users/Yushev/git/optiga-trust-qi/externals/mbedtls/library\md.c **** 
 467:C:/Users/Yushev/git/optiga-trust-qi/externals/mbedtls/library\md.c **** const char *mbedtls_md_get_name( const mbedtls_md_info_t *md_info )
 468:C:/Users/Yushev/git/optiga-trust-qi/externals/mbedtls/library\md.c **** {
 1163              	 .loc 1 468 0
 1164              	 .cfi_startproc
 1165              	 
 1166              	 
 1167              	 
 1168              	.LVL138:
 469:C:/Users/Yushev/git/optiga-trust-qi/externals/mbedtls/library\md.c ****     if( md_info == NULL )
 1169              	 .loc 1 469 0
 1170 0000 00B1     	 cbz r0,.L147
 470:C:/Users/Yushev/git/optiga-trust-qi/externals/mbedtls/library\md.c ****         return( NULL );
 471:C:/Users/Yushev/git/optiga-trust-qi/externals/mbedtls/library\md.c **** 
 472:C:/Users/Yushev/git/optiga-trust-qi/externals/mbedtls/library\md.c ****     return md_info->name;
 1171              	 .loc 1 472 0
 1172 0002 4068     	 ldr r0,[r0,#4]
 1173              	.LVL139:
 1174              	.L147:
 473:C:/Users/Yushev/git/optiga-trust-qi/externals/mbedtls/library\md.c **** }
 1175              	 .loc 1 473 0
 1176 0004 7047     	 bx lr
 1177              	 .cfi_endproc
 1178              	.LFE20:
 1180              	 .section .rodata.supported_digests,"a",%progbits
 1181              	 .align 2
 1182              	 .set .LANCHOR0,.+0
 1185              	supported_digests:
 1186 0000 06000000 	 .word 6
 1187 0004 05000000 	 .word 5
 1188 0008 00000000 	 .word 0
 1189              	 .section .rodata.str1.1,"aMS",%progbits,1
 1190              	.LC0:
 1191 0000 53484132 	 .ascii "SHA224\000"
 1191      323400
 1192              	.LC1:
 1193 0007 53484132 	 .ascii "SHA256\000"
 1193      353600
 1194              	 .text
 1195              	.Letext0:
 1196              	 .file 2 "c:\\users\\yushev\\dave_4-4-2_32bit_2018-02-23\\dave-ide-4.4.2-32bit\\eclipse\\arm-gcc-49\\lib\\gcc\\arm-none-eabi\\4.9.3\\include\\stddef.h"
 1197              	 .file 3 "C:/Users/Yushev/git/optiga-trust-qi/externals/mbedtls/include/mbedtls/md.h"
 1198              	 .file 4 "C:/Users/Yushev/git/optiga-trust-qi/externals/mbedtls/include/mbedtls/md_internal.h"
 1199              	 .file 5 "c:\\users\\yushev\\dave_4-4-2_32bit_2018-02-23\\dave-ide-4.4.2-32bit\\eclipse\\arm-gcc-49\\arm-none-eabi\\include\\string.h"
 1200              	 .file 6 "C:/Users/Yushev/git/optiga-trust-qi/externals/mbedtls/include/mbedtls/platform_util.h"
 1201              	 .file 7 "c:\\users\\yushev\\dave_4-4-2_32bit_2018-02-23\\dave-ide-4.4.2-32bit\\eclipse\\arm-gcc-49\\arm-none-eabi\\include\\stdlib.h"