   1              	 .syntax unified
   2              	 .cpu cortex-m4
   3              	 .eabi_attribute 27,3
   4              	 .fpu fpv4-sp-d16
   5              	 .eabi_attribute 20,1
   6              	 .eabi_attribute 21,1
   7              	 .eabi_attribute 23,3
   8              	 .eabi_attribute 24,1
   9              	 .eabi_attribute 25,1
  10              	 .eabi_attribute 26,1
  11              	 .eabi_attribute 30,4
  12              	 .eabi_attribute 34,1
  13              	 .eabi_attribute 18,4
  14              	 .thumb
  15              	 .file "md_wrap.c"
  16              	 .text
  17              	.Ltext0:
  18              	 .cfi_sections .debug_frame
  19              	 .section .text.sha224_process_wrap,"ax",%progbits
  20              	 .align 1
  21              	 .thumb
  22              	 .thumb_func
  24              	sha224_process_wrap:
  25              	.LFB7:
  26              	 .file 1 "C:/Users/Yushev/git/optiga-trust-qi/externals/mbedtls/library/md_wrap.c"
   1:C:/Users/Yushev/git/optiga-trust-qi/externals/mbedtls/library\md_wrap.c **** /**
   2:C:/Users/Yushev/git/optiga-trust-qi/externals/mbedtls/library\md_wrap.c ****  * \file md_wrap.c
   3:C:/Users/Yushev/git/optiga-trust-qi/externals/mbedtls/library\md_wrap.c ****  *
   4:C:/Users/Yushev/git/optiga-trust-qi/externals/mbedtls/library\md_wrap.c ****  * \brief Generic message digest wrapper for mbed TLS
   5:C:/Users/Yushev/git/optiga-trust-qi/externals/mbedtls/library\md_wrap.c ****  *
   6:C:/Users/Yushev/git/optiga-trust-qi/externals/mbedtls/library\md_wrap.c ****  * \author Adriaan de Jong <dejong@fox-it.com>
   7:C:/Users/Yushev/git/optiga-trust-qi/externals/mbedtls/library\md_wrap.c ****  *
   8:C:/Users/Yushev/git/optiga-trust-qi/externals/mbedtls/library\md_wrap.c ****  *  Copyright (C) 2006-2015, ARM Limited, All Rights Reserved
   9:C:/Users/Yushev/git/optiga-trust-qi/externals/mbedtls/library\md_wrap.c ****  *  SPDX-License-Identifier: Apache-2.0
  10:C:/Users/Yushev/git/optiga-trust-qi/externals/mbedtls/library\md_wrap.c ****  *
  11:C:/Users/Yushev/git/optiga-trust-qi/externals/mbedtls/library\md_wrap.c ****  *  Licensed under the Apache License, Version 2.0 (the "License"); you may
  12:C:/Users/Yushev/git/optiga-trust-qi/externals/mbedtls/library\md_wrap.c ****  *  not use this file except in compliance with the License.
  13:C:/Users/Yushev/git/optiga-trust-qi/externals/mbedtls/library\md_wrap.c ****  *  You may obtain a copy of the License at
  14:C:/Users/Yushev/git/optiga-trust-qi/externals/mbedtls/library\md_wrap.c ****  *
  15:C:/Users/Yushev/git/optiga-trust-qi/externals/mbedtls/library\md_wrap.c ****  *  http://www.apache.org/licenses/LICENSE-2.0
  16:C:/Users/Yushev/git/optiga-trust-qi/externals/mbedtls/library\md_wrap.c ****  *
  17:C:/Users/Yushev/git/optiga-trust-qi/externals/mbedtls/library\md_wrap.c ****  *  Unless required by applicable law or agreed to in writing, software
  18:C:/Users/Yushev/git/optiga-trust-qi/externals/mbedtls/library\md_wrap.c ****  *  distributed under the License is distributed on an "AS IS" BASIS, WITHOUT
  19:C:/Users/Yushev/git/optiga-trust-qi/externals/mbedtls/library\md_wrap.c ****  *  WARRANTIES OR CONDITIONS OF ANY KIND, either express or implied.
  20:C:/Users/Yushev/git/optiga-trust-qi/externals/mbedtls/library\md_wrap.c ****  *  See the License for the specific language governing permissions and
  21:C:/Users/Yushev/git/optiga-trust-qi/externals/mbedtls/library\md_wrap.c ****  *  limitations under the License.
  22:C:/Users/Yushev/git/optiga-trust-qi/externals/mbedtls/library\md_wrap.c ****  *
  23:C:/Users/Yushev/git/optiga-trust-qi/externals/mbedtls/library\md_wrap.c ****  *  This file is part of mbed TLS (https://tls.mbed.org)
  24:C:/Users/Yushev/git/optiga-trust-qi/externals/mbedtls/library\md_wrap.c ****  */
  25:C:/Users/Yushev/git/optiga-trust-qi/externals/mbedtls/library\md_wrap.c **** 
  26:C:/Users/Yushev/git/optiga-trust-qi/externals/mbedtls/library\md_wrap.c **** #if !defined(MBEDTLS_CONFIG_FILE)
  27:C:/Users/Yushev/git/optiga-trust-qi/externals/mbedtls/library\md_wrap.c **** #include "mbedtls/config.h"
  28:C:/Users/Yushev/git/optiga-trust-qi/externals/mbedtls/library\md_wrap.c **** #else
  29:C:/Users/Yushev/git/optiga-trust-qi/externals/mbedtls/library\md_wrap.c **** #include MBEDTLS_CONFIG_FILE
  30:C:/Users/Yushev/git/optiga-trust-qi/externals/mbedtls/library\md_wrap.c **** #endif
  31:C:/Users/Yushev/git/optiga-trust-qi/externals/mbedtls/library\md_wrap.c **** 
  32:C:/Users/Yushev/git/optiga-trust-qi/externals/mbedtls/library\md_wrap.c **** #if defined(MBEDTLS_MD_C)
  33:C:/Users/Yushev/git/optiga-trust-qi/externals/mbedtls/library\md_wrap.c **** 
  34:C:/Users/Yushev/git/optiga-trust-qi/externals/mbedtls/library\md_wrap.c **** #include "mbedtls/md_internal.h"
  35:C:/Users/Yushev/git/optiga-trust-qi/externals/mbedtls/library\md_wrap.c **** 
  36:C:/Users/Yushev/git/optiga-trust-qi/externals/mbedtls/library\md_wrap.c **** #if defined(MBEDTLS_MD2_C)
  37:C:/Users/Yushev/git/optiga-trust-qi/externals/mbedtls/library\md_wrap.c **** #include "mbedtls/md2.h"
  38:C:/Users/Yushev/git/optiga-trust-qi/externals/mbedtls/library\md_wrap.c **** #endif
  39:C:/Users/Yushev/git/optiga-trust-qi/externals/mbedtls/library\md_wrap.c **** 
  40:C:/Users/Yushev/git/optiga-trust-qi/externals/mbedtls/library\md_wrap.c **** #if defined(MBEDTLS_MD4_C)
  41:C:/Users/Yushev/git/optiga-trust-qi/externals/mbedtls/library\md_wrap.c **** #include "mbedtls/md4.h"
  42:C:/Users/Yushev/git/optiga-trust-qi/externals/mbedtls/library\md_wrap.c **** #endif
  43:C:/Users/Yushev/git/optiga-trust-qi/externals/mbedtls/library\md_wrap.c **** 
  44:C:/Users/Yushev/git/optiga-trust-qi/externals/mbedtls/library\md_wrap.c **** #if defined(MBEDTLS_MD5_C)
  45:C:/Users/Yushev/git/optiga-trust-qi/externals/mbedtls/library\md_wrap.c **** #include "mbedtls/md5.h"
  46:C:/Users/Yushev/git/optiga-trust-qi/externals/mbedtls/library\md_wrap.c **** #endif
  47:C:/Users/Yushev/git/optiga-trust-qi/externals/mbedtls/library\md_wrap.c **** 
  48:C:/Users/Yushev/git/optiga-trust-qi/externals/mbedtls/library\md_wrap.c **** #if defined(MBEDTLS_RIPEMD160_C)
  49:C:/Users/Yushev/git/optiga-trust-qi/externals/mbedtls/library\md_wrap.c **** #include "mbedtls/ripemd160.h"
  50:C:/Users/Yushev/git/optiga-trust-qi/externals/mbedtls/library\md_wrap.c **** #endif
  51:C:/Users/Yushev/git/optiga-trust-qi/externals/mbedtls/library\md_wrap.c **** 
  52:C:/Users/Yushev/git/optiga-trust-qi/externals/mbedtls/library\md_wrap.c **** #if defined(MBEDTLS_SHA1_C)
  53:C:/Users/Yushev/git/optiga-trust-qi/externals/mbedtls/library\md_wrap.c **** #include "mbedtls/sha1.h"
  54:C:/Users/Yushev/git/optiga-trust-qi/externals/mbedtls/library\md_wrap.c **** #endif
  55:C:/Users/Yushev/git/optiga-trust-qi/externals/mbedtls/library\md_wrap.c **** 
  56:C:/Users/Yushev/git/optiga-trust-qi/externals/mbedtls/library\md_wrap.c **** #if defined(MBEDTLS_SHA256_C)
  57:C:/Users/Yushev/git/optiga-trust-qi/externals/mbedtls/library\md_wrap.c **** #include "mbedtls/sha256.h"
  58:C:/Users/Yushev/git/optiga-trust-qi/externals/mbedtls/library\md_wrap.c **** #endif
  59:C:/Users/Yushev/git/optiga-trust-qi/externals/mbedtls/library\md_wrap.c **** 
  60:C:/Users/Yushev/git/optiga-trust-qi/externals/mbedtls/library\md_wrap.c **** #if defined(MBEDTLS_SHA512_C)
  61:C:/Users/Yushev/git/optiga-trust-qi/externals/mbedtls/library\md_wrap.c **** #include "mbedtls/sha512.h"
  62:C:/Users/Yushev/git/optiga-trust-qi/externals/mbedtls/library\md_wrap.c **** #endif
  63:C:/Users/Yushev/git/optiga-trust-qi/externals/mbedtls/library\md_wrap.c **** 
  64:C:/Users/Yushev/git/optiga-trust-qi/externals/mbedtls/library\md_wrap.c **** #if defined(MBEDTLS_PLATFORM_C)
  65:C:/Users/Yushev/git/optiga-trust-qi/externals/mbedtls/library\md_wrap.c **** #include "mbedtls/platform.h"
  66:C:/Users/Yushev/git/optiga-trust-qi/externals/mbedtls/library\md_wrap.c **** #else
  67:C:/Users/Yushev/git/optiga-trust-qi/externals/mbedtls/library\md_wrap.c **** #include <stdlib.h>
  68:C:/Users/Yushev/git/optiga-trust-qi/externals/mbedtls/library\md_wrap.c **** #define mbedtls_calloc    calloc
  69:C:/Users/Yushev/git/optiga-trust-qi/externals/mbedtls/library\md_wrap.c **** #define mbedtls_free       free
  70:C:/Users/Yushev/git/optiga-trust-qi/externals/mbedtls/library\md_wrap.c **** #endif
  71:C:/Users/Yushev/git/optiga-trust-qi/externals/mbedtls/library\md_wrap.c **** 
  72:C:/Users/Yushev/git/optiga-trust-qi/externals/mbedtls/library\md_wrap.c **** #if defined(MBEDTLS_MD2_C)
  73:C:/Users/Yushev/git/optiga-trust-qi/externals/mbedtls/library\md_wrap.c **** 
  74:C:/Users/Yushev/git/optiga-trust-qi/externals/mbedtls/library\md_wrap.c **** static int md2_starts_wrap( void *ctx )
  75:C:/Users/Yushev/git/optiga-trust-qi/externals/mbedtls/library\md_wrap.c **** {
  76:C:/Users/Yushev/git/optiga-trust-qi/externals/mbedtls/library\md_wrap.c ****     return( mbedtls_md2_starts_ret( (mbedtls_md2_context *) ctx ) );
  77:C:/Users/Yushev/git/optiga-trust-qi/externals/mbedtls/library\md_wrap.c **** }
  78:C:/Users/Yushev/git/optiga-trust-qi/externals/mbedtls/library\md_wrap.c **** 
  79:C:/Users/Yushev/git/optiga-trust-qi/externals/mbedtls/library\md_wrap.c **** static int md2_update_wrap( void *ctx, const unsigned char *input,
  80:C:/Users/Yushev/git/optiga-trust-qi/externals/mbedtls/library\md_wrap.c ****                              size_t ilen )
  81:C:/Users/Yushev/git/optiga-trust-qi/externals/mbedtls/library\md_wrap.c **** {
  82:C:/Users/Yushev/git/optiga-trust-qi/externals/mbedtls/library\md_wrap.c ****     return( mbedtls_md2_update_ret( (mbedtls_md2_context *) ctx, input, ilen ) );
  83:C:/Users/Yushev/git/optiga-trust-qi/externals/mbedtls/library\md_wrap.c **** }
  84:C:/Users/Yushev/git/optiga-trust-qi/externals/mbedtls/library\md_wrap.c **** 
  85:C:/Users/Yushev/git/optiga-trust-qi/externals/mbedtls/library\md_wrap.c **** static int md2_finish_wrap( void *ctx, unsigned char *output )
  86:C:/Users/Yushev/git/optiga-trust-qi/externals/mbedtls/library\md_wrap.c **** {
  87:C:/Users/Yushev/git/optiga-trust-qi/externals/mbedtls/library\md_wrap.c ****     return( mbedtls_md2_finish_ret( (mbedtls_md2_context *) ctx, output ) );
  88:C:/Users/Yushev/git/optiga-trust-qi/externals/mbedtls/library\md_wrap.c **** }
  89:C:/Users/Yushev/git/optiga-trust-qi/externals/mbedtls/library\md_wrap.c **** 
  90:C:/Users/Yushev/git/optiga-trust-qi/externals/mbedtls/library\md_wrap.c **** static void *md2_ctx_alloc( void )
  91:C:/Users/Yushev/git/optiga-trust-qi/externals/mbedtls/library\md_wrap.c **** {
  92:C:/Users/Yushev/git/optiga-trust-qi/externals/mbedtls/library\md_wrap.c ****     void *ctx = mbedtls_calloc( 1, sizeof( mbedtls_md2_context ) );
  93:C:/Users/Yushev/git/optiga-trust-qi/externals/mbedtls/library\md_wrap.c **** 
  94:C:/Users/Yushev/git/optiga-trust-qi/externals/mbedtls/library\md_wrap.c ****     if( ctx != NULL )
  95:C:/Users/Yushev/git/optiga-trust-qi/externals/mbedtls/library\md_wrap.c ****         mbedtls_md2_init( (mbedtls_md2_context *) ctx );
  96:C:/Users/Yushev/git/optiga-trust-qi/externals/mbedtls/library\md_wrap.c **** 
  97:C:/Users/Yushev/git/optiga-trust-qi/externals/mbedtls/library\md_wrap.c ****     return( ctx );
  98:C:/Users/Yushev/git/optiga-trust-qi/externals/mbedtls/library\md_wrap.c **** }
  99:C:/Users/Yushev/git/optiga-trust-qi/externals/mbedtls/library\md_wrap.c **** 
 100:C:/Users/Yushev/git/optiga-trust-qi/externals/mbedtls/library\md_wrap.c **** static void md2_ctx_free( void *ctx )
 101:C:/Users/Yushev/git/optiga-trust-qi/externals/mbedtls/library\md_wrap.c **** {
 102:C:/Users/Yushev/git/optiga-trust-qi/externals/mbedtls/library\md_wrap.c ****     mbedtls_md2_free( (mbedtls_md2_context *) ctx );
 103:C:/Users/Yushev/git/optiga-trust-qi/externals/mbedtls/library\md_wrap.c ****     mbedtls_free( ctx );
 104:C:/Users/Yushev/git/optiga-trust-qi/externals/mbedtls/library\md_wrap.c **** }
 105:C:/Users/Yushev/git/optiga-trust-qi/externals/mbedtls/library\md_wrap.c **** 
 106:C:/Users/Yushev/git/optiga-trust-qi/externals/mbedtls/library\md_wrap.c **** static void md2_clone_wrap( void *dst, const void *src )
 107:C:/Users/Yushev/git/optiga-trust-qi/externals/mbedtls/library\md_wrap.c **** {
 108:C:/Users/Yushev/git/optiga-trust-qi/externals/mbedtls/library\md_wrap.c ****     mbedtls_md2_clone( (mbedtls_md2_context *) dst,
 109:C:/Users/Yushev/git/optiga-trust-qi/externals/mbedtls/library\md_wrap.c ****                  (const mbedtls_md2_context *) src );
 110:C:/Users/Yushev/git/optiga-trust-qi/externals/mbedtls/library\md_wrap.c **** }
 111:C:/Users/Yushev/git/optiga-trust-qi/externals/mbedtls/library\md_wrap.c **** 
 112:C:/Users/Yushev/git/optiga-trust-qi/externals/mbedtls/library\md_wrap.c **** static int md2_process_wrap( void *ctx, const unsigned char *data )
 113:C:/Users/Yushev/git/optiga-trust-qi/externals/mbedtls/library\md_wrap.c **** {
 114:C:/Users/Yushev/git/optiga-trust-qi/externals/mbedtls/library\md_wrap.c ****     ((void) data);
 115:C:/Users/Yushev/git/optiga-trust-qi/externals/mbedtls/library\md_wrap.c **** 
 116:C:/Users/Yushev/git/optiga-trust-qi/externals/mbedtls/library\md_wrap.c ****     return( mbedtls_internal_md2_process( (mbedtls_md2_context *) ctx ) );
 117:C:/Users/Yushev/git/optiga-trust-qi/externals/mbedtls/library\md_wrap.c **** }
 118:C:/Users/Yushev/git/optiga-trust-qi/externals/mbedtls/library\md_wrap.c **** 
 119:C:/Users/Yushev/git/optiga-trust-qi/externals/mbedtls/library\md_wrap.c **** const mbedtls_md_info_t mbedtls_md2_info = {
 120:C:/Users/Yushev/git/optiga-trust-qi/externals/mbedtls/library\md_wrap.c ****     MBEDTLS_MD_MD2,
 121:C:/Users/Yushev/git/optiga-trust-qi/externals/mbedtls/library\md_wrap.c ****     "MD2",
 122:C:/Users/Yushev/git/optiga-trust-qi/externals/mbedtls/library\md_wrap.c ****     16,
 123:C:/Users/Yushev/git/optiga-trust-qi/externals/mbedtls/library\md_wrap.c ****     16,
 124:C:/Users/Yushev/git/optiga-trust-qi/externals/mbedtls/library\md_wrap.c ****     md2_starts_wrap,
 125:C:/Users/Yushev/git/optiga-trust-qi/externals/mbedtls/library\md_wrap.c ****     md2_update_wrap,
 126:C:/Users/Yushev/git/optiga-trust-qi/externals/mbedtls/library\md_wrap.c ****     md2_finish_wrap,
 127:C:/Users/Yushev/git/optiga-trust-qi/externals/mbedtls/library\md_wrap.c ****     mbedtls_md2_ret,
 128:C:/Users/Yushev/git/optiga-trust-qi/externals/mbedtls/library\md_wrap.c ****     md2_ctx_alloc,
 129:C:/Users/Yushev/git/optiga-trust-qi/externals/mbedtls/library\md_wrap.c ****     md2_ctx_free,
 130:C:/Users/Yushev/git/optiga-trust-qi/externals/mbedtls/library\md_wrap.c ****     md2_clone_wrap,
 131:C:/Users/Yushev/git/optiga-trust-qi/externals/mbedtls/library\md_wrap.c ****     md2_process_wrap,
 132:C:/Users/Yushev/git/optiga-trust-qi/externals/mbedtls/library\md_wrap.c **** };
 133:C:/Users/Yushev/git/optiga-trust-qi/externals/mbedtls/library\md_wrap.c **** 
 134:C:/Users/Yushev/git/optiga-trust-qi/externals/mbedtls/library\md_wrap.c **** #endif /* MBEDTLS_MD2_C */
 135:C:/Users/Yushev/git/optiga-trust-qi/externals/mbedtls/library\md_wrap.c **** 
 136:C:/Users/Yushev/git/optiga-trust-qi/externals/mbedtls/library\md_wrap.c **** #if defined(MBEDTLS_MD4_C)
 137:C:/Users/Yushev/git/optiga-trust-qi/externals/mbedtls/library\md_wrap.c **** 
 138:C:/Users/Yushev/git/optiga-trust-qi/externals/mbedtls/library\md_wrap.c **** static int md4_starts_wrap( void *ctx )
 139:C:/Users/Yushev/git/optiga-trust-qi/externals/mbedtls/library\md_wrap.c **** {
 140:C:/Users/Yushev/git/optiga-trust-qi/externals/mbedtls/library\md_wrap.c ****     return( mbedtls_md4_starts_ret( (mbedtls_md4_context *) ctx ) );
 141:C:/Users/Yushev/git/optiga-trust-qi/externals/mbedtls/library\md_wrap.c **** }
 142:C:/Users/Yushev/git/optiga-trust-qi/externals/mbedtls/library\md_wrap.c **** 
 143:C:/Users/Yushev/git/optiga-trust-qi/externals/mbedtls/library\md_wrap.c **** static int md4_update_wrap( void *ctx, const unsigned char *input,
 144:C:/Users/Yushev/git/optiga-trust-qi/externals/mbedtls/library\md_wrap.c ****                              size_t ilen )
 145:C:/Users/Yushev/git/optiga-trust-qi/externals/mbedtls/library\md_wrap.c **** {
 146:C:/Users/Yushev/git/optiga-trust-qi/externals/mbedtls/library\md_wrap.c ****     return( mbedtls_md4_update_ret( (mbedtls_md4_context *) ctx, input, ilen ) );
 147:C:/Users/Yushev/git/optiga-trust-qi/externals/mbedtls/library\md_wrap.c **** }
 148:C:/Users/Yushev/git/optiga-trust-qi/externals/mbedtls/library\md_wrap.c **** 
 149:C:/Users/Yushev/git/optiga-trust-qi/externals/mbedtls/library\md_wrap.c **** static int md4_finish_wrap( void *ctx, unsigned char *output )
 150:C:/Users/Yushev/git/optiga-trust-qi/externals/mbedtls/library\md_wrap.c **** {
 151:C:/Users/Yushev/git/optiga-trust-qi/externals/mbedtls/library\md_wrap.c ****     return( mbedtls_md4_finish_ret( (mbedtls_md4_context *) ctx, output ) );
 152:C:/Users/Yushev/git/optiga-trust-qi/externals/mbedtls/library\md_wrap.c **** }
 153:C:/Users/Yushev/git/optiga-trust-qi/externals/mbedtls/library\md_wrap.c **** 
 154:C:/Users/Yushev/git/optiga-trust-qi/externals/mbedtls/library\md_wrap.c **** static void *md4_ctx_alloc( void )
 155:C:/Users/Yushev/git/optiga-trust-qi/externals/mbedtls/library\md_wrap.c **** {
 156:C:/Users/Yushev/git/optiga-trust-qi/externals/mbedtls/library\md_wrap.c ****     void *ctx = mbedtls_calloc( 1, sizeof( mbedtls_md4_context ) );
 157:C:/Users/Yushev/git/optiga-trust-qi/externals/mbedtls/library\md_wrap.c **** 
 158:C:/Users/Yushev/git/optiga-trust-qi/externals/mbedtls/library\md_wrap.c ****     if( ctx != NULL )
 159:C:/Users/Yushev/git/optiga-trust-qi/externals/mbedtls/library\md_wrap.c ****         mbedtls_md4_init( (mbedtls_md4_context *) ctx );
 160:C:/Users/Yushev/git/optiga-trust-qi/externals/mbedtls/library\md_wrap.c **** 
 161:C:/Users/Yushev/git/optiga-trust-qi/externals/mbedtls/library\md_wrap.c ****     return( ctx );
 162:C:/Users/Yushev/git/optiga-trust-qi/externals/mbedtls/library\md_wrap.c **** }
 163:C:/Users/Yushev/git/optiga-trust-qi/externals/mbedtls/library\md_wrap.c **** 
 164:C:/Users/Yushev/git/optiga-trust-qi/externals/mbedtls/library\md_wrap.c **** static void md4_ctx_free( void *ctx )
 165:C:/Users/Yushev/git/optiga-trust-qi/externals/mbedtls/library\md_wrap.c **** {
 166:C:/Users/Yushev/git/optiga-trust-qi/externals/mbedtls/library\md_wrap.c ****     mbedtls_md4_free( (mbedtls_md4_context *) ctx );
 167:C:/Users/Yushev/git/optiga-trust-qi/externals/mbedtls/library\md_wrap.c ****     mbedtls_free( ctx );
 168:C:/Users/Yushev/git/optiga-trust-qi/externals/mbedtls/library\md_wrap.c **** }
 169:C:/Users/Yushev/git/optiga-trust-qi/externals/mbedtls/library\md_wrap.c **** 
 170:C:/Users/Yushev/git/optiga-trust-qi/externals/mbedtls/library\md_wrap.c **** static void md4_clone_wrap( void *dst, const void *src )
 171:C:/Users/Yushev/git/optiga-trust-qi/externals/mbedtls/library\md_wrap.c **** {
 172:C:/Users/Yushev/git/optiga-trust-qi/externals/mbedtls/library\md_wrap.c ****     mbedtls_md4_clone( (mbedtls_md4_context *) dst,
 173:C:/Users/Yushev/git/optiga-trust-qi/externals/mbedtls/library\md_wrap.c ****                        (const mbedtls_md4_context *) src );
 174:C:/Users/Yushev/git/optiga-trust-qi/externals/mbedtls/library\md_wrap.c **** }
 175:C:/Users/Yushev/git/optiga-trust-qi/externals/mbedtls/library\md_wrap.c **** 
 176:C:/Users/Yushev/git/optiga-trust-qi/externals/mbedtls/library\md_wrap.c **** static int md4_process_wrap( void *ctx, const unsigned char *data )
 177:C:/Users/Yushev/git/optiga-trust-qi/externals/mbedtls/library\md_wrap.c **** {
 178:C:/Users/Yushev/git/optiga-trust-qi/externals/mbedtls/library\md_wrap.c ****     return( mbedtls_internal_md4_process( (mbedtls_md4_context *) ctx, data ) );
 179:C:/Users/Yushev/git/optiga-trust-qi/externals/mbedtls/library\md_wrap.c **** }
 180:C:/Users/Yushev/git/optiga-trust-qi/externals/mbedtls/library\md_wrap.c **** 
 181:C:/Users/Yushev/git/optiga-trust-qi/externals/mbedtls/library\md_wrap.c **** const mbedtls_md_info_t mbedtls_md4_info = {
 182:C:/Users/Yushev/git/optiga-trust-qi/externals/mbedtls/library\md_wrap.c ****     MBEDTLS_MD_MD4,
 183:C:/Users/Yushev/git/optiga-trust-qi/externals/mbedtls/library\md_wrap.c ****     "MD4",
 184:C:/Users/Yushev/git/optiga-trust-qi/externals/mbedtls/library\md_wrap.c ****     16,
 185:C:/Users/Yushev/git/optiga-trust-qi/externals/mbedtls/library\md_wrap.c ****     64,
 186:C:/Users/Yushev/git/optiga-trust-qi/externals/mbedtls/library\md_wrap.c ****     md4_starts_wrap,
 187:C:/Users/Yushev/git/optiga-trust-qi/externals/mbedtls/library\md_wrap.c ****     md4_update_wrap,
 188:C:/Users/Yushev/git/optiga-trust-qi/externals/mbedtls/library\md_wrap.c ****     md4_finish_wrap,
 189:C:/Users/Yushev/git/optiga-trust-qi/externals/mbedtls/library\md_wrap.c ****     mbedtls_md4_ret,
 190:C:/Users/Yushev/git/optiga-trust-qi/externals/mbedtls/library\md_wrap.c ****     md4_ctx_alloc,
 191:C:/Users/Yushev/git/optiga-trust-qi/externals/mbedtls/library\md_wrap.c ****     md4_ctx_free,
 192:C:/Users/Yushev/git/optiga-trust-qi/externals/mbedtls/library\md_wrap.c ****     md4_clone_wrap,
 193:C:/Users/Yushev/git/optiga-trust-qi/externals/mbedtls/library\md_wrap.c ****     md4_process_wrap,
 194:C:/Users/Yushev/git/optiga-trust-qi/externals/mbedtls/library\md_wrap.c **** };
 195:C:/Users/Yushev/git/optiga-trust-qi/externals/mbedtls/library\md_wrap.c **** 
 196:C:/Users/Yushev/git/optiga-trust-qi/externals/mbedtls/library\md_wrap.c **** #endif /* MBEDTLS_MD4_C */
 197:C:/Users/Yushev/git/optiga-trust-qi/externals/mbedtls/library\md_wrap.c **** 
 198:C:/Users/Yushev/git/optiga-trust-qi/externals/mbedtls/library\md_wrap.c **** #if defined(MBEDTLS_MD5_C)
 199:C:/Users/Yushev/git/optiga-trust-qi/externals/mbedtls/library\md_wrap.c **** 
 200:C:/Users/Yushev/git/optiga-trust-qi/externals/mbedtls/library\md_wrap.c **** static int md5_starts_wrap( void *ctx )
 201:C:/Users/Yushev/git/optiga-trust-qi/externals/mbedtls/library\md_wrap.c **** {
 202:C:/Users/Yushev/git/optiga-trust-qi/externals/mbedtls/library\md_wrap.c ****     return( mbedtls_md5_starts_ret( (mbedtls_md5_context *) ctx ) );
 203:C:/Users/Yushev/git/optiga-trust-qi/externals/mbedtls/library\md_wrap.c **** }
 204:C:/Users/Yushev/git/optiga-trust-qi/externals/mbedtls/library\md_wrap.c **** 
 205:C:/Users/Yushev/git/optiga-trust-qi/externals/mbedtls/library\md_wrap.c **** static int md5_update_wrap( void *ctx, const unsigned char *input,
 206:C:/Users/Yushev/git/optiga-trust-qi/externals/mbedtls/library\md_wrap.c ****                              size_t ilen )
 207:C:/Users/Yushev/git/optiga-trust-qi/externals/mbedtls/library\md_wrap.c **** {
 208:C:/Users/Yushev/git/optiga-trust-qi/externals/mbedtls/library\md_wrap.c ****     return( mbedtls_md5_update_ret( (mbedtls_md5_context *) ctx, input, ilen ) );
 209:C:/Users/Yushev/git/optiga-trust-qi/externals/mbedtls/library\md_wrap.c **** }
 210:C:/Users/Yushev/git/optiga-trust-qi/externals/mbedtls/library\md_wrap.c **** 
 211:C:/Users/Yushev/git/optiga-trust-qi/externals/mbedtls/library\md_wrap.c **** static int md5_finish_wrap( void *ctx, unsigned char *output )
 212:C:/Users/Yushev/git/optiga-trust-qi/externals/mbedtls/library\md_wrap.c **** {
 213:C:/Users/Yushev/git/optiga-trust-qi/externals/mbedtls/library\md_wrap.c ****     return( mbedtls_md5_finish_ret( (mbedtls_md5_context *) ctx, output ) );
 214:C:/Users/Yushev/git/optiga-trust-qi/externals/mbedtls/library\md_wrap.c **** }
 215:C:/Users/Yushev/git/optiga-trust-qi/externals/mbedtls/library\md_wrap.c **** 
 216:C:/Users/Yushev/git/optiga-trust-qi/externals/mbedtls/library\md_wrap.c **** static void *md5_ctx_alloc( void )
 217:C:/Users/Yushev/git/optiga-trust-qi/externals/mbedtls/library\md_wrap.c **** {
 218:C:/Users/Yushev/git/optiga-trust-qi/externals/mbedtls/library\md_wrap.c ****     void *ctx = mbedtls_calloc( 1, sizeof( mbedtls_md5_context ) );
 219:C:/Users/Yushev/git/optiga-trust-qi/externals/mbedtls/library\md_wrap.c **** 
 220:C:/Users/Yushev/git/optiga-trust-qi/externals/mbedtls/library\md_wrap.c ****     if( ctx != NULL )
 221:C:/Users/Yushev/git/optiga-trust-qi/externals/mbedtls/library\md_wrap.c ****         mbedtls_md5_init( (mbedtls_md5_context *) ctx );
 222:C:/Users/Yushev/git/optiga-trust-qi/externals/mbedtls/library\md_wrap.c **** 
 223:C:/Users/Yushev/git/optiga-trust-qi/externals/mbedtls/library\md_wrap.c ****     return( ctx );
 224:C:/Users/Yushev/git/optiga-trust-qi/externals/mbedtls/library\md_wrap.c **** }
 225:C:/Users/Yushev/git/optiga-trust-qi/externals/mbedtls/library\md_wrap.c **** 
 226:C:/Users/Yushev/git/optiga-trust-qi/externals/mbedtls/library\md_wrap.c **** static void md5_ctx_free( void *ctx )
 227:C:/Users/Yushev/git/optiga-trust-qi/externals/mbedtls/library\md_wrap.c **** {
 228:C:/Users/Yushev/git/optiga-trust-qi/externals/mbedtls/library\md_wrap.c ****     mbedtls_md5_free( (mbedtls_md5_context *) ctx );
 229:C:/Users/Yushev/git/optiga-trust-qi/externals/mbedtls/library\md_wrap.c ****     mbedtls_free( ctx );
 230:C:/Users/Yushev/git/optiga-trust-qi/externals/mbedtls/library\md_wrap.c **** }
 231:C:/Users/Yushev/git/optiga-trust-qi/externals/mbedtls/library\md_wrap.c **** 
 232:C:/Users/Yushev/git/optiga-trust-qi/externals/mbedtls/library\md_wrap.c **** static void md5_clone_wrap( void *dst, const void *src )
 233:C:/Users/Yushev/git/optiga-trust-qi/externals/mbedtls/library\md_wrap.c **** {
 234:C:/Users/Yushev/git/optiga-trust-qi/externals/mbedtls/library\md_wrap.c ****     mbedtls_md5_clone( (mbedtls_md5_context *) dst,
 235:C:/Users/Yushev/git/optiga-trust-qi/externals/mbedtls/library\md_wrap.c ****                        (const mbedtls_md5_context *) src );
 236:C:/Users/Yushev/git/optiga-trust-qi/externals/mbedtls/library\md_wrap.c **** }
 237:C:/Users/Yushev/git/optiga-trust-qi/externals/mbedtls/library\md_wrap.c **** 
 238:C:/Users/Yushev/git/optiga-trust-qi/externals/mbedtls/library\md_wrap.c **** static int md5_process_wrap( void *ctx, const unsigned char *data )
 239:C:/Users/Yushev/git/optiga-trust-qi/externals/mbedtls/library\md_wrap.c **** {
 240:C:/Users/Yushev/git/optiga-trust-qi/externals/mbedtls/library\md_wrap.c ****     return( mbedtls_internal_md5_process( (mbedtls_md5_context *) ctx, data ) );
 241:C:/Users/Yushev/git/optiga-trust-qi/externals/mbedtls/library\md_wrap.c **** }
 242:C:/Users/Yushev/git/optiga-trust-qi/externals/mbedtls/library\md_wrap.c **** 
 243:C:/Users/Yushev/git/optiga-trust-qi/externals/mbedtls/library\md_wrap.c **** const mbedtls_md_info_t mbedtls_md5_info = {
 244:C:/Users/Yushev/git/optiga-trust-qi/externals/mbedtls/library\md_wrap.c ****     MBEDTLS_MD_MD5,
 245:C:/Users/Yushev/git/optiga-trust-qi/externals/mbedtls/library\md_wrap.c ****     "MD5",
 246:C:/Users/Yushev/git/optiga-trust-qi/externals/mbedtls/library\md_wrap.c ****     16,
 247:C:/Users/Yushev/git/optiga-trust-qi/externals/mbedtls/library\md_wrap.c ****     64,
 248:C:/Users/Yushev/git/optiga-trust-qi/externals/mbedtls/library\md_wrap.c ****     md5_starts_wrap,
 249:C:/Users/Yushev/git/optiga-trust-qi/externals/mbedtls/library\md_wrap.c ****     md5_update_wrap,
 250:C:/Users/Yushev/git/optiga-trust-qi/externals/mbedtls/library\md_wrap.c ****     md5_finish_wrap,
 251:C:/Users/Yushev/git/optiga-trust-qi/externals/mbedtls/library\md_wrap.c ****     mbedtls_md5_ret,
 252:C:/Users/Yushev/git/optiga-trust-qi/externals/mbedtls/library\md_wrap.c ****     md5_ctx_alloc,
 253:C:/Users/Yushev/git/optiga-trust-qi/externals/mbedtls/library\md_wrap.c ****     md5_ctx_free,
 254:C:/Users/Yushev/git/optiga-trust-qi/externals/mbedtls/library\md_wrap.c ****     md5_clone_wrap,
 255:C:/Users/Yushev/git/optiga-trust-qi/externals/mbedtls/library\md_wrap.c ****     md5_process_wrap,
 256:C:/Users/Yushev/git/optiga-trust-qi/externals/mbedtls/library\md_wrap.c **** };
 257:C:/Users/Yushev/git/optiga-trust-qi/externals/mbedtls/library\md_wrap.c **** 
 258:C:/Users/Yushev/git/optiga-trust-qi/externals/mbedtls/library\md_wrap.c **** #endif /* MBEDTLS_MD5_C */
 259:C:/Users/Yushev/git/optiga-trust-qi/externals/mbedtls/library\md_wrap.c **** 
 260:C:/Users/Yushev/git/optiga-trust-qi/externals/mbedtls/library\md_wrap.c **** #if defined(MBEDTLS_RIPEMD160_C)
 261:C:/Users/Yushev/git/optiga-trust-qi/externals/mbedtls/library\md_wrap.c **** 
 262:C:/Users/Yushev/git/optiga-trust-qi/externals/mbedtls/library\md_wrap.c **** static int ripemd160_starts_wrap( void *ctx )
 263:C:/Users/Yushev/git/optiga-trust-qi/externals/mbedtls/library\md_wrap.c **** {
 264:C:/Users/Yushev/git/optiga-trust-qi/externals/mbedtls/library\md_wrap.c ****     return( mbedtls_ripemd160_starts_ret( (mbedtls_ripemd160_context *) ctx ) );
 265:C:/Users/Yushev/git/optiga-trust-qi/externals/mbedtls/library\md_wrap.c **** }
 266:C:/Users/Yushev/git/optiga-trust-qi/externals/mbedtls/library\md_wrap.c **** 
 267:C:/Users/Yushev/git/optiga-trust-qi/externals/mbedtls/library\md_wrap.c **** static int ripemd160_update_wrap( void *ctx, const unsigned char *input,
 268:C:/Users/Yushev/git/optiga-trust-qi/externals/mbedtls/library\md_wrap.c ****                                    size_t ilen )
 269:C:/Users/Yushev/git/optiga-trust-qi/externals/mbedtls/library\md_wrap.c **** {
 270:C:/Users/Yushev/git/optiga-trust-qi/externals/mbedtls/library\md_wrap.c ****     return( mbedtls_ripemd160_update_ret( (mbedtls_ripemd160_context *) ctx,
 271:C:/Users/Yushev/git/optiga-trust-qi/externals/mbedtls/library\md_wrap.c ****                                           input, ilen ) );
 272:C:/Users/Yushev/git/optiga-trust-qi/externals/mbedtls/library\md_wrap.c **** }
 273:C:/Users/Yushev/git/optiga-trust-qi/externals/mbedtls/library\md_wrap.c **** 
 274:C:/Users/Yushev/git/optiga-trust-qi/externals/mbedtls/library\md_wrap.c **** static int ripemd160_finish_wrap( void *ctx, unsigned char *output )
 275:C:/Users/Yushev/git/optiga-trust-qi/externals/mbedtls/library\md_wrap.c **** {
 276:C:/Users/Yushev/git/optiga-trust-qi/externals/mbedtls/library\md_wrap.c ****     return( mbedtls_ripemd160_finish_ret( (mbedtls_ripemd160_context *) ctx,
 277:C:/Users/Yushev/git/optiga-trust-qi/externals/mbedtls/library\md_wrap.c ****                                           output ) );
 278:C:/Users/Yushev/git/optiga-trust-qi/externals/mbedtls/library\md_wrap.c **** }
 279:C:/Users/Yushev/git/optiga-trust-qi/externals/mbedtls/library\md_wrap.c **** 
 280:C:/Users/Yushev/git/optiga-trust-qi/externals/mbedtls/library\md_wrap.c **** static void *ripemd160_ctx_alloc( void )
 281:C:/Users/Yushev/git/optiga-trust-qi/externals/mbedtls/library\md_wrap.c **** {
 282:C:/Users/Yushev/git/optiga-trust-qi/externals/mbedtls/library\md_wrap.c ****     void *ctx = mbedtls_calloc( 1, sizeof( mbedtls_ripemd160_context ) );
 283:C:/Users/Yushev/git/optiga-trust-qi/externals/mbedtls/library\md_wrap.c **** 
 284:C:/Users/Yushev/git/optiga-trust-qi/externals/mbedtls/library\md_wrap.c ****     if( ctx != NULL )
 285:C:/Users/Yushev/git/optiga-trust-qi/externals/mbedtls/library\md_wrap.c ****         mbedtls_ripemd160_init( (mbedtls_ripemd160_context *) ctx );
 286:C:/Users/Yushev/git/optiga-trust-qi/externals/mbedtls/library\md_wrap.c **** 
 287:C:/Users/Yushev/git/optiga-trust-qi/externals/mbedtls/library\md_wrap.c ****     return( ctx );
 288:C:/Users/Yushev/git/optiga-trust-qi/externals/mbedtls/library\md_wrap.c **** }
 289:C:/Users/Yushev/git/optiga-trust-qi/externals/mbedtls/library\md_wrap.c **** 
 290:C:/Users/Yushev/git/optiga-trust-qi/externals/mbedtls/library\md_wrap.c **** static void ripemd160_ctx_free( void *ctx )
 291:C:/Users/Yushev/git/optiga-trust-qi/externals/mbedtls/library\md_wrap.c **** {
 292:C:/Users/Yushev/git/optiga-trust-qi/externals/mbedtls/library\md_wrap.c ****     mbedtls_ripemd160_free( (mbedtls_ripemd160_context *) ctx );
 293:C:/Users/Yushev/git/optiga-trust-qi/externals/mbedtls/library\md_wrap.c ****     mbedtls_free( ctx );
 294:C:/Users/Yushev/git/optiga-trust-qi/externals/mbedtls/library\md_wrap.c **** }
 295:C:/Users/Yushev/git/optiga-trust-qi/externals/mbedtls/library\md_wrap.c **** 
 296:C:/Users/Yushev/git/optiga-trust-qi/externals/mbedtls/library\md_wrap.c **** static void ripemd160_clone_wrap( void *dst, const void *src )
 297:C:/Users/Yushev/git/optiga-trust-qi/externals/mbedtls/library\md_wrap.c **** {
 298:C:/Users/Yushev/git/optiga-trust-qi/externals/mbedtls/library\md_wrap.c ****     mbedtls_ripemd160_clone( (mbedtls_ripemd160_context *) dst,
 299:C:/Users/Yushev/git/optiga-trust-qi/externals/mbedtls/library\md_wrap.c ****                        (const mbedtls_ripemd160_context *) src );
 300:C:/Users/Yushev/git/optiga-trust-qi/externals/mbedtls/library\md_wrap.c **** }
 301:C:/Users/Yushev/git/optiga-trust-qi/externals/mbedtls/library\md_wrap.c **** 
 302:C:/Users/Yushev/git/optiga-trust-qi/externals/mbedtls/library\md_wrap.c **** static int ripemd160_process_wrap( void *ctx, const unsigned char *data )
 303:C:/Users/Yushev/git/optiga-trust-qi/externals/mbedtls/library\md_wrap.c **** {
 304:C:/Users/Yushev/git/optiga-trust-qi/externals/mbedtls/library\md_wrap.c ****     return( mbedtls_internal_ripemd160_process(
 305:C:/Users/Yushev/git/optiga-trust-qi/externals/mbedtls/library\md_wrap.c ****                                 (mbedtls_ripemd160_context *) ctx, data ) );
 306:C:/Users/Yushev/git/optiga-trust-qi/externals/mbedtls/library\md_wrap.c **** }
 307:C:/Users/Yushev/git/optiga-trust-qi/externals/mbedtls/library\md_wrap.c **** 
 308:C:/Users/Yushev/git/optiga-trust-qi/externals/mbedtls/library\md_wrap.c **** const mbedtls_md_info_t mbedtls_ripemd160_info = {
 309:C:/Users/Yushev/git/optiga-trust-qi/externals/mbedtls/library\md_wrap.c ****     MBEDTLS_MD_RIPEMD160,
 310:C:/Users/Yushev/git/optiga-trust-qi/externals/mbedtls/library\md_wrap.c ****     "RIPEMD160",
 311:C:/Users/Yushev/git/optiga-trust-qi/externals/mbedtls/library\md_wrap.c ****     20,
 312:C:/Users/Yushev/git/optiga-trust-qi/externals/mbedtls/library\md_wrap.c ****     64,
 313:C:/Users/Yushev/git/optiga-trust-qi/externals/mbedtls/library\md_wrap.c ****     ripemd160_starts_wrap,
 314:C:/Users/Yushev/git/optiga-trust-qi/externals/mbedtls/library\md_wrap.c ****     ripemd160_update_wrap,
 315:C:/Users/Yushev/git/optiga-trust-qi/externals/mbedtls/library\md_wrap.c ****     ripemd160_finish_wrap,
 316:C:/Users/Yushev/git/optiga-trust-qi/externals/mbedtls/library\md_wrap.c ****     mbedtls_ripemd160_ret,
 317:C:/Users/Yushev/git/optiga-trust-qi/externals/mbedtls/library\md_wrap.c ****     ripemd160_ctx_alloc,
 318:C:/Users/Yushev/git/optiga-trust-qi/externals/mbedtls/library\md_wrap.c ****     ripemd160_ctx_free,
 319:C:/Users/Yushev/git/optiga-trust-qi/externals/mbedtls/library\md_wrap.c ****     ripemd160_clone_wrap,
 320:C:/Users/Yushev/git/optiga-trust-qi/externals/mbedtls/library\md_wrap.c ****     ripemd160_process_wrap,
 321:C:/Users/Yushev/git/optiga-trust-qi/externals/mbedtls/library\md_wrap.c **** };
 322:C:/Users/Yushev/git/optiga-trust-qi/externals/mbedtls/library\md_wrap.c **** 
 323:C:/Users/Yushev/git/optiga-trust-qi/externals/mbedtls/library\md_wrap.c **** #endif /* MBEDTLS_RIPEMD160_C */
 324:C:/Users/Yushev/git/optiga-trust-qi/externals/mbedtls/library\md_wrap.c **** 
 325:C:/Users/Yushev/git/optiga-trust-qi/externals/mbedtls/library\md_wrap.c **** #if defined(MBEDTLS_SHA1_C)
 326:C:/Users/Yushev/git/optiga-trust-qi/externals/mbedtls/library\md_wrap.c **** 
 327:C:/Users/Yushev/git/optiga-trust-qi/externals/mbedtls/library\md_wrap.c **** static int sha1_starts_wrap( void *ctx )
 328:C:/Users/Yushev/git/optiga-trust-qi/externals/mbedtls/library\md_wrap.c **** {
 329:C:/Users/Yushev/git/optiga-trust-qi/externals/mbedtls/library\md_wrap.c ****     return( mbedtls_sha1_starts_ret( (mbedtls_sha1_context *) ctx ) );
 330:C:/Users/Yushev/git/optiga-trust-qi/externals/mbedtls/library\md_wrap.c **** }
 331:C:/Users/Yushev/git/optiga-trust-qi/externals/mbedtls/library\md_wrap.c **** 
 332:C:/Users/Yushev/git/optiga-trust-qi/externals/mbedtls/library\md_wrap.c **** static int sha1_update_wrap( void *ctx, const unsigned char *input,
 333:C:/Users/Yushev/git/optiga-trust-qi/externals/mbedtls/library\md_wrap.c ****                               size_t ilen )
 334:C:/Users/Yushev/git/optiga-trust-qi/externals/mbedtls/library\md_wrap.c **** {
 335:C:/Users/Yushev/git/optiga-trust-qi/externals/mbedtls/library\md_wrap.c ****     return( mbedtls_sha1_update_ret( (mbedtls_sha1_context *) ctx,
 336:C:/Users/Yushev/git/optiga-trust-qi/externals/mbedtls/library\md_wrap.c ****                                      input, ilen ) );
 337:C:/Users/Yushev/git/optiga-trust-qi/externals/mbedtls/library\md_wrap.c **** }
 338:C:/Users/Yushev/git/optiga-trust-qi/externals/mbedtls/library\md_wrap.c **** 
 339:C:/Users/Yushev/git/optiga-trust-qi/externals/mbedtls/library\md_wrap.c **** static int sha1_finish_wrap( void *ctx, unsigned char *output )
 340:C:/Users/Yushev/git/optiga-trust-qi/externals/mbedtls/library\md_wrap.c **** {
 341:C:/Users/Yushev/git/optiga-trust-qi/externals/mbedtls/library\md_wrap.c ****     return( mbedtls_sha1_finish_ret( (mbedtls_sha1_context *) ctx, output ) );
 342:C:/Users/Yushev/git/optiga-trust-qi/externals/mbedtls/library\md_wrap.c **** }
 343:C:/Users/Yushev/git/optiga-trust-qi/externals/mbedtls/library\md_wrap.c **** 
 344:C:/Users/Yushev/git/optiga-trust-qi/externals/mbedtls/library\md_wrap.c **** static void *sha1_ctx_alloc( void )
 345:C:/Users/Yushev/git/optiga-trust-qi/externals/mbedtls/library\md_wrap.c **** {
 346:C:/Users/Yushev/git/optiga-trust-qi/externals/mbedtls/library\md_wrap.c ****     void *ctx = mbedtls_calloc( 1, sizeof( mbedtls_sha1_context ) );
 347:C:/Users/Yushev/git/optiga-trust-qi/externals/mbedtls/library\md_wrap.c **** 
 348:C:/Users/Yushev/git/optiga-trust-qi/externals/mbedtls/library\md_wrap.c ****     if( ctx != NULL )
 349:C:/Users/Yushev/git/optiga-trust-qi/externals/mbedtls/library\md_wrap.c ****         mbedtls_sha1_init( (mbedtls_sha1_context *) ctx );
 350:C:/Users/Yushev/git/optiga-trust-qi/externals/mbedtls/library\md_wrap.c **** 
 351:C:/Users/Yushev/git/optiga-trust-qi/externals/mbedtls/library\md_wrap.c ****     return( ctx );
 352:C:/Users/Yushev/git/optiga-trust-qi/externals/mbedtls/library\md_wrap.c **** }
 353:C:/Users/Yushev/git/optiga-trust-qi/externals/mbedtls/library\md_wrap.c **** 
 354:C:/Users/Yushev/git/optiga-trust-qi/externals/mbedtls/library\md_wrap.c **** static void sha1_clone_wrap( void *dst, const void *src )
 355:C:/Users/Yushev/git/optiga-trust-qi/externals/mbedtls/library\md_wrap.c **** {
 356:C:/Users/Yushev/git/optiga-trust-qi/externals/mbedtls/library\md_wrap.c ****     mbedtls_sha1_clone( (mbedtls_sha1_context *) dst,
 357:C:/Users/Yushev/git/optiga-trust-qi/externals/mbedtls/library\md_wrap.c ****                   (const mbedtls_sha1_context *) src );
 358:C:/Users/Yushev/git/optiga-trust-qi/externals/mbedtls/library\md_wrap.c **** }
 359:C:/Users/Yushev/git/optiga-trust-qi/externals/mbedtls/library\md_wrap.c **** 
 360:C:/Users/Yushev/git/optiga-trust-qi/externals/mbedtls/library\md_wrap.c **** static void sha1_ctx_free( void *ctx )
 361:C:/Users/Yushev/git/optiga-trust-qi/externals/mbedtls/library\md_wrap.c **** {
 362:C:/Users/Yushev/git/optiga-trust-qi/externals/mbedtls/library\md_wrap.c ****     mbedtls_sha1_free( (mbedtls_sha1_context *) ctx );
 363:C:/Users/Yushev/git/optiga-trust-qi/externals/mbedtls/library\md_wrap.c ****     mbedtls_free( ctx );
 364:C:/Users/Yushev/git/optiga-trust-qi/externals/mbedtls/library\md_wrap.c **** }
 365:C:/Users/Yushev/git/optiga-trust-qi/externals/mbedtls/library\md_wrap.c **** 
 366:C:/Users/Yushev/git/optiga-trust-qi/externals/mbedtls/library\md_wrap.c **** static int sha1_process_wrap( void *ctx, const unsigned char *data )
 367:C:/Users/Yushev/git/optiga-trust-qi/externals/mbedtls/library\md_wrap.c **** {
 368:C:/Users/Yushev/git/optiga-trust-qi/externals/mbedtls/library\md_wrap.c ****     return( mbedtls_internal_sha1_process( (mbedtls_sha1_context *) ctx,
 369:C:/Users/Yushev/git/optiga-trust-qi/externals/mbedtls/library\md_wrap.c ****                                            data ) );
 370:C:/Users/Yushev/git/optiga-trust-qi/externals/mbedtls/library\md_wrap.c **** }
 371:C:/Users/Yushev/git/optiga-trust-qi/externals/mbedtls/library\md_wrap.c **** 
 372:C:/Users/Yushev/git/optiga-trust-qi/externals/mbedtls/library\md_wrap.c **** const mbedtls_md_info_t mbedtls_sha1_info = {
 373:C:/Users/Yushev/git/optiga-trust-qi/externals/mbedtls/library\md_wrap.c ****     MBEDTLS_MD_SHA1,
 374:C:/Users/Yushev/git/optiga-trust-qi/externals/mbedtls/library\md_wrap.c ****     "SHA1",
 375:C:/Users/Yushev/git/optiga-trust-qi/externals/mbedtls/library\md_wrap.c ****     20,
 376:C:/Users/Yushev/git/optiga-trust-qi/externals/mbedtls/library\md_wrap.c ****     64,
 377:C:/Users/Yushev/git/optiga-trust-qi/externals/mbedtls/library\md_wrap.c ****     sha1_starts_wrap,
 378:C:/Users/Yushev/git/optiga-trust-qi/externals/mbedtls/library\md_wrap.c ****     sha1_update_wrap,
 379:C:/Users/Yushev/git/optiga-trust-qi/externals/mbedtls/library\md_wrap.c ****     sha1_finish_wrap,
 380:C:/Users/Yushev/git/optiga-trust-qi/externals/mbedtls/library\md_wrap.c ****     mbedtls_sha1_ret,
 381:C:/Users/Yushev/git/optiga-trust-qi/externals/mbedtls/library\md_wrap.c ****     sha1_ctx_alloc,
 382:C:/Users/Yushev/git/optiga-trust-qi/externals/mbedtls/library\md_wrap.c ****     sha1_ctx_free,
 383:C:/Users/Yushev/git/optiga-trust-qi/externals/mbedtls/library\md_wrap.c ****     sha1_clone_wrap,
 384:C:/Users/Yushev/git/optiga-trust-qi/externals/mbedtls/library\md_wrap.c ****     sha1_process_wrap,
 385:C:/Users/Yushev/git/optiga-trust-qi/externals/mbedtls/library\md_wrap.c **** };
 386:C:/Users/Yushev/git/optiga-trust-qi/externals/mbedtls/library\md_wrap.c **** 
 387:C:/Users/Yushev/git/optiga-trust-qi/externals/mbedtls/library\md_wrap.c **** #endif /* MBEDTLS_SHA1_C */
 388:C:/Users/Yushev/git/optiga-trust-qi/externals/mbedtls/library\md_wrap.c **** 
 389:C:/Users/Yushev/git/optiga-trust-qi/externals/mbedtls/library\md_wrap.c **** /*
 390:C:/Users/Yushev/git/optiga-trust-qi/externals/mbedtls/library\md_wrap.c ****  * Wrappers for generic message digests
 391:C:/Users/Yushev/git/optiga-trust-qi/externals/mbedtls/library\md_wrap.c ****  */
 392:C:/Users/Yushev/git/optiga-trust-qi/externals/mbedtls/library\md_wrap.c **** #if defined(MBEDTLS_SHA256_C)
 393:C:/Users/Yushev/git/optiga-trust-qi/externals/mbedtls/library\md_wrap.c **** 
 394:C:/Users/Yushev/git/optiga-trust-qi/externals/mbedtls/library\md_wrap.c **** static int sha224_starts_wrap( void *ctx )
 395:C:/Users/Yushev/git/optiga-trust-qi/externals/mbedtls/library\md_wrap.c **** {
 396:C:/Users/Yushev/git/optiga-trust-qi/externals/mbedtls/library\md_wrap.c ****     return( mbedtls_sha256_starts_ret( (mbedtls_sha256_context *) ctx, 1 ) );
 397:C:/Users/Yushev/git/optiga-trust-qi/externals/mbedtls/library\md_wrap.c **** }
 398:C:/Users/Yushev/git/optiga-trust-qi/externals/mbedtls/library\md_wrap.c **** 
 399:C:/Users/Yushev/git/optiga-trust-qi/externals/mbedtls/library\md_wrap.c **** static int sha224_update_wrap( void *ctx, const unsigned char *input,
 400:C:/Users/Yushev/git/optiga-trust-qi/externals/mbedtls/library\md_wrap.c ****                                 size_t ilen )
 401:C:/Users/Yushev/git/optiga-trust-qi/externals/mbedtls/library\md_wrap.c **** {
 402:C:/Users/Yushev/git/optiga-trust-qi/externals/mbedtls/library\md_wrap.c ****     return( mbedtls_sha256_update_ret( (mbedtls_sha256_context *) ctx,
 403:C:/Users/Yushev/git/optiga-trust-qi/externals/mbedtls/library\md_wrap.c ****                                        input, ilen ) );
 404:C:/Users/Yushev/git/optiga-trust-qi/externals/mbedtls/library\md_wrap.c **** }
 405:C:/Users/Yushev/git/optiga-trust-qi/externals/mbedtls/library\md_wrap.c **** 
 406:C:/Users/Yushev/git/optiga-trust-qi/externals/mbedtls/library\md_wrap.c **** static int sha224_finish_wrap( void *ctx, unsigned char *output )
 407:C:/Users/Yushev/git/optiga-trust-qi/externals/mbedtls/library\md_wrap.c **** {
 408:C:/Users/Yushev/git/optiga-trust-qi/externals/mbedtls/library\md_wrap.c ****     return( mbedtls_sha256_finish_ret( (mbedtls_sha256_context *) ctx,
 409:C:/Users/Yushev/git/optiga-trust-qi/externals/mbedtls/library\md_wrap.c ****                                        output ) );
 410:C:/Users/Yushev/git/optiga-trust-qi/externals/mbedtls/library\md_wrap.c **** }
 411:C:/Users/Yushev/git/optiga-trust-qi/externals/mbedtls/library\md_wrap.c **** 
 412:C:/Users/Yushev/git/optiga-trust-qi/externals/mbedtls/library\md_wrap.c **** static int sha224_wrap( const unsigned char *input, size_t ilen,
 413:C:/Users/Yushev/git/optiga-trust-qi/externals/mbedtls/library\md_wrap.c ****                         unsigned char *output )
 414:C:/Users/Yushev/git/optiga-trust-qi/externals/mbedtls/library\md_wrap.c **** {
 415:C:/Users/Yushev/git/optiga-trust-qi/externals/mbedtls/library\md_wrap.c ****     return( mbedtls_sha256_ret( input, ilen, output, 1 ) );
 416:C:/Users/Yushev/git/optiga-trust-qi/externals/mbedtls/library\md_wrap.c **** }
 417:C:/Users/Yushev/git/optiga-trust-qi/externals/mbedtls/library\md_wrap.c **** 
 418:C:/Users/Yushev/git/optiga-trust-qi/externals/mbedtls/library\md_wrap.c **** static void *sha224_ctx_alloc( void )
 419:C:/Users/Yushev/git/optiga-trust-qi/externals/mbedtls/library\md_wrap.c **** {
 420:C:/Users/Yushev/git/optiga-trust-qi/externals/mbedtls/library\md_wrap.c ****     void *ctx = mbedtls_calloc( 1, sizeof( mbedtls_sha256_context ) );
 421:C:/Users/Yushev/git/optiga-trust-qi/externals/mbedtls/library\md_wrap.c **** 
 422:C:/Users/Yushev/git/optiga-trust-qi/externals/mbedtls/library\md_wrap.c ****     if( ctx != NULL )
 423:C:/Users/Yushev/git/optiga-trust-qi/externals/mbedtls/library\md_wrap.c ****         mbedtls_sha256_init( (mbedtls_sha256_context *) ctx );
 424:C:/Users/Yushev/git/optiga-trust-qi/externals/mbedtls/library\md_wrap.c **** 
 425:C:/Users/Yushev/git/optiga-trust-qi/externals/mbedtls/library\md_wrap.c ****     return( ctx );
 426:C:/Users/Yushev/git/optiga-trust-qi/externals/mbedtls/library\md_wrap.c **** }
 427:C:/Users/Yushev/git/optiga-trust-qi/externals/mbedtls/library\md_wrap.c **** 
 428:C:/Users/Yushev/git/optiga-trust-qi/externals/mbedtls/library\md_wrap.c **** static void sha224_ctx_free( void *ctx )
 429:C:/Users/Yushev/git/optiga-trust-qi/externals/mbedtls/library\md_wrap.c **** {
 430:C:/Users/Yushev/git/optiga-trust-qi/externals/mbedtls/library\md_wrap.c ****     mbedtls_sha256_free( (mbedtls_sha256_context *) ctx );
 431:C:/Users/Yushev/git/optiga-trust-qi/externals/mbedtls/library\md_wrap.c ****     mbedtls_free( ctx );
 432:C:/Users/Yushev/git/optiga-trust-qi/externals/mbedtls/library\md_wrap.c **** }
 433:C:/Users/Yushev/git/optiga-trust-qi/externals/mbedtls/library\md_wrap.c **** 
 434:C:/Users/Yushev/git/optiga-trust-qi/externals/mbedtls/library\md_wrap.c **** static void sha224_clone_wrap( void *dst, const void *src )
 435:C:/Users/Yushev/git/optiga-trust-qi/externals/mbedtls/library\md_wrap.c **** {
 436:C:/Users/Yushev/git/optiga-trust-qi/externals/mbedtls/library\md_wrap.c ****     mbedtls_sha256_clone( (mbedtls_sha256_context *) dst,
 437:C:/Users/Yushev/git/optiga-trust-qi/externals/mbedtls/library\md_wrap.c ****                     (const mbedtls_sha256_context *) src );
 438:C:/Users/Yushev/git/optiga-trust-qi/externals/mbedtls/library\md_wrap.c **** }
 439:C:/Users/Yushev/git/optiga-trust-qi/externals/mbedtls/library\md_wrap.c **** 
 440:C:/Users/Yushev/git/optiga-trust-qi/externals/mbedtls/library\md_wrap.c **** static int sha224_process_wrap( void *ctx, const unsigned char *data )
 441:C:/Users/Yushev/git/optiga-trust-qi/externals/mbedtls/library\md_wrap.c **** {
  27              	 .loc 1 441 0
  28              	 .cfi_startproc
  29              	 
  30              	 
  31              	 
  32              	.LVL0:
 442:C:/Users/Yushev/git/optiga-trust-qi/externals/mbedtls/library\md_wrap.c ****     return( mbedtls_internal_sha256_process( (mbedtls_sha256_context *) ctx,
  33              	 .loc 1 442 0
  34 0000 FFF7FEBF 	 b mbedtls_internal_sha256_process
  35              	.LVL1:
  36              	 .cfi_endproc
  37              	.LFE7:
  39              	 .section .text.sha224_clone_wrap,"ax",%progbits
  40              	 .align 1
  41              	 .thumb
  42              	 .thumb_func
  44              	sha224_clone_wrap:
  45              	.LFB6:
 435:C:/Users/Yushev/git/optiga-trust-qi/externals/mbedtls/library\md_wrap.c ****     mbedtls_sha256_clone( (mbedtls_sha256_context *) dst,
  46              	 .loc 1 435 0
  47              	 .cfi_startproc
  48              	 
  49              	 
  50              	 
  51              	.LVL2:
 436:C:/Users/Yushev/git/optiga-trust-qi/externals/mbedtls/library\md_wrap.c ****                     (const mbedtls_sha256_context *) src );
  52              	 .loc 1 436 0
  53 0000 FFF7FEBF 	 b mbedtls_sha256_clone
  54              	.LVL3:
  55              	 .cfi_endproc
  56              	.LFE6:
  58              	 .section .text.sha224_ctx_free,"ax",%progbits
  59              	 .align 1
  60              	 .thumb
  61              	 .thumb_func
  63              	sha224_ctx_free:
  64              	.LFB5:
 429:C:/Users/Yushev/git/optiga-trust-qi/externals/mbedtls/library\md_wrap.c ****     mbedtls_sha256_free( (mbedtls_sha256_context *) ctx );
  65              	 .loc 1 429 0
  66              	 .cfi_startproc
  67              	 
  68              	 
  69              	.LVL4:
  70 0000 10B5     	 push {r4,lr}
  71              	.LCFI0:
  72              	 .cfi_def_cfa_offset 8
  73              	 .cfi_offset 4,-8
  74              	 .cfi_offset 14,-4
 429:C:/Users/Yushev/git/optiga-trust-qi/externals/mbedtls/library\md_wrap.c ****     mbedtls_sha256_free( (mbedtls_sha256_context *) ctx );
  75              	 .loc 1 429 0
  76 0002 0446     	 mov r4,r0
 430:C:/Users/Yushev/git/optiga-trust-qi/externals/mbedtls/library\md_wrap.c ****     mbedtls_free( ctx );
  77              	 .loc 1 430 0
  78 0004 FFF7FEFF 	 bl mbedtls_sha256_free
  79              	.LVL5:
 431:C:/Users/Yushev/git/optiga-trust-qi/externals/mbedtls/library\md_wrap.c **** }
  80              	 .loc 1 431 0
  81 0008 2046     	 mov r0,r4
 432:C:/Users/Yushev/git/optiga-trust-qi/externals/mbedtls/library\md_wrap.c **** 
  82              	 .loc 1 432 0
  83 000a BDE81040 	 pop {r4,lr}
  84              	.LCFI1:
  85              	 .cfi_restore 14
  86              	 .cfi_restore 4
  87              	 .cfi_def_cfa_offset 0
  88              	.LVL6:
 431:C:/Users/Yushev/git/optiga-trust-qi/externals/mbedtls/library\md_wrap.c **** }
  89              	 .loc 1 431 0
  90 000e FFF7FEBF 	 b free
  91              	.LVL7:
  92              	 .cfi_endproc
  93              	.LFE5:
  95              	 .section .text.sha224_ctx_alloc,"ax",%progbits
  96              	 .align 1
  97              	 .thumb
  98              	 .thumb_func
 100              	sha224_ctx_alloc:
 101              	.LFB4:
 419:C:/Users/Yushev/git/optiga-trust-qi/externals/mbedtls/library\md_wrap.c ****     void *ctx = mbedtls_calloc( 1, sizeof( mbedtls_sha256_context ) );
 102              	 .loc 1 419 0
 103              	 .cfi_startproc
 104              	 
 105              	 
 106 0000 10B5     	 push {r4,lr}
 107              	.LCFI2:
 108              	 .cfi_def_cfa_offset 8
 109              	 .cfi_offset 4,-8
 110              	 .cfi_offset 14,-4
 420:C:/Users/Yushev/git/optiga-trust-qi/externals/mbedtls/library\md_wrap.c **** 
 111              	 .loc 1 420 0
 112 0002 0120     	 movs r0,#1
 113 0004 6C21     	 movs r1,#108
 114 0006 FFF7FEFF 	 bl calloc
 115              	.LVL8:
 422:C:/Users/Yushev/git/optiga-trust-qi/externals/mbedtls/library\md_wrap.c ****         mbedtls_sha256_init( (mbedtls_sha256_context *) ctx );
 116              	 .loc 1 422 0
 117 000a 0446     	 mov r4,r0
 118 000c 08B1     	 cbz r0,.L5
 423:C:/Users/Yushev/git/optiga-trust-qi/externals/mbedtls/library\md_wrap.c **** 
 119              	 .loc 1 423 0
 120 000e FFF7FEFF 	 bl mbedtls_sha256_init
 121              	.LVL9:
 122              	.L5:
 426:C:/Users/Yushev/git/optiga-trust-qi/externals/mbedtls/library\md_wrap.c **** 
 123              	 .loc 1 426 0
 124 0012 2046     	 mov r0,r4
 125 0014 10BD     	 pop {r4,pc}
 126              	 .cfi_endproc
 127              	.LFE4:
 129              	 .section .text.sha224_wrap,"ax",%progbits
 130              	 .align 1
 131              	 .thumb
 132              	 .thumb_func
 134              	sha224_wrap:
 135              	.LFB3:
 414:C:/Users/Yushev/git/optiga-trust-qi/externals/mbedtls/library\md_wrap.c ****     return( mbedtls_sha256_ret( input, ilen, output, 1 ) );
 136              	 .loc 1 414 0
 137              	 .cfi_startproc
 138              	 
 139              	 
 140              	 
 141              	.LVL10:
 415:C:/Users/Yushev/git/optiga-trust-qi/externals/mbedtls/library\md_wrap.c **** }
 142              	 .loc 1 415 0
 143 0000 0123     	 movs r3,#1
 144 0002 FFF7FEBF 	 b mbedtls_sha256_ret
 145              	.LVL11:
 146              	 .cfi_endproc
 147              	.LFE3:
 149              	 .section .text.sha256_wrap,"ax",%progbits
 150              	 .align 1
 151              	 .thumb
 152              	 .thumb_func
 154              	sha256_wrap:
 155              	.LFB9:
 443:C:/Users/Yushev/git/optiga-trust-qi/externals/mbedtls/library\md_wrap.c ****                                              data ) );
 444:C:/Users/Yushev/git/optiga-trust-qi/externals/mbedtls/library\md_wrap.c **** }
 445:C:/Users/Yushev/git/optiga-trust-qi/externals/mbedtls/library\md_wrap.c **** 
 446:C:/Users/Yushev/git/optiga-trust-qi/externals/mbedtls/library\md_wrap.c **** const mbedtls_md_info_t mbedtls_sha224_info = {
 447:C:/Users/Yushev/git/optiga-trust-qi/externals/mbedtls/library\md_wrap.c ****     MBEDTLS_MD_SHA224,
 448:C:/Users/Yushev/git/optiga-trust-qi/externals/mbedtls/library\md_wrap.c ****     "SHA224",
 449:C:/Users/Yushev/git/optiga-trust-qi/externals/mbedtls/library\md_wrap.c ****     28,
 450:C:/Users/Yushev/git/optiga-trust-qi/externals/mbedtls/library\md_wrap.c ****     64,
 451:C:/Users/Yushev/git/optiga-trust-qi/externals/mbedtls/library\md_wrap.c ****     sha224_starts_wrap,
 452:C:/Users/Yushev/git/optiga-trust-qi/externals/mbedtls/library\md_wrap.c ****     sha224_update_wrap,
 453:C:/Users/Yushev/git/optiga-trust-qi/externals/mbedtls/library\md_wrap.c ****     sha224_finish_wrap,
 454:C:/Users/Yushev/git/optiga-trust-qi/externals/mbedtls/library\md_wrap.c ****     sha224_wrap,
 455:C:/Users/Yushev/git/optiga-trust-qi/externals/mbedtls/library\md_wrap.c ****     sha224_ctx_alloc,
 456:C:/Users/Yushev/git/optiga-trust-qi/externals/mbedtls/library\md_wrap.c ****     sha224_ctx_free,
 457:C:/Users/Yushev/git/optiga-trust-qi/externals/mbedtls/library\md_wrap.c ****     sha224_clone_wrap,
 458:C:/Users/Yushev/git/optiga-trust-qi/externals/mbedtls/library\md_wrap.c ****     sha224_process_wrap,
 459:C:/Users/Yushev/git/optiga-trust-qi/externals/mbedtls/library\md_wrap.c **** };
 460:C:/Users/Yushev/git/optiga-trust-qi/externals/mbedtls/library\md_wrap.c **** 
 461:C:/Users/Yushev/git/optiga-trust-qi/externals/mbedtls/library\md_wrap.c **** static int sha256_starts_wrap( void *ctx )
 462:C:/Users/Yushev/git/optiga-trust-qi/externals/mbedtls/library\md_wrap.c **** {
 463:C:/Users/Yushev/git/optiga-trust-qi/externals/mbedtls/library\md_wrap.c ****     return( mbedtls_sha256_starts_ret( (mbedtls_sha256_context *) ctx, 0 ) );
 464:C:/Users/Yushev/git/optiga-trust-qi/externals/mbedtls/library\md_wrap.c **** }
 465:C:/Users/Yushev/git/optiga-trust-qi/externals/mbedtls/library\md_wrap.c **** 
 466:C:/Users/Yushev/git/optiga-trust-qi/externals/mbedtls/library\md_wrap.c **** static int sha256_wrap( const unsigned char *input, size_t ilen,
 467:C:/Users/Yushev/git/optiga-trust-qi/externals/mbedtls/library\md_wrap.c ****                         unsigned char *output )
 468:C:/Users/Yushev/git/optiga-trust-qi/externals/mbedtls/library\md_wrap.c **** {
 156              	 .loc 1 468 0
 157              	 .cfi_startproc
 158              	 
 159              	 
 160              	 
 161              	.LVL12:
 469:C:/Users/Yushev/git/optiga-trust-qi/externals/mbedtls/library\md_wrap.c ****     return( mbedtls_sha256_ret( input, ilen, output, 0 ) );
 162              	 .loc 1 469 0
 163 0000 0023     	 movs r3,#0
 164 0002 FFF7FEBF 	 b mbedtls_sha256_ret
 165              	.LVL13:
 166              	 .cfi_endproc
 167              	.LFE9:
 169              	 .section .text.sha224_finish_wrap,"ax",%progbits
 170              	 .align 1
 171              	 .thumb
 172              	 .thumb_func
 174              	sha224_finish_wrap:
 175              	.LFB2:
 407:C:/Users/Yushev/git/optiga-trust-qi/externals/mbedtls/library\md_wrap.c ****     return( mbedtls_sha256_finish_ret( (mbedtls_sha256_context *) ctx,
 176              	 .loc 1 407 0
 177              	 .cfi_startproc
 178              	 
 179              	 
 180              	 
 181              	.LVL14:
 408:C:/Users/Yushev/git/optiga-trust-qi/externals/mbedtls/library\md_wrap.c ****                                        output ) );
 182              	 .loc 1 408 0
 183 0000 FFF7FEBF 	 b mbedtls_sha256_finish_ret
 184              	.LVL15:
 185              	 .cfi_endproc
 186              	.LFE2:
 188              	 .section .text.sha224_update_wrap,"ax",%progbits
 189              	 .align 1
 190              	 .thumb
 191              	 .thumb_func
 193              	sha224_update_wrap:
 194              	.LFB1:
 401:C:/Users/Yushev/git/optiga-trust-qi/externals/mbedtls/library\md_wrap.c ****     return( mbedtls_sha256_update_ret( (mbedtls_sha256_context *) ctx,
 195              	 .loc 1 401 0
 196              	 .cfi_startproc
 197              	 
 198              	 
 199              	 
 200              	.LVL16:
 402:C:/Users/Yushev/git/optiga-trust-qi/externals/mbedtls/library\md_wrap.c ****                                        input, ilen ) );
 201              	 .loc 1 402 0
 202 0000 FFF7FEBF 	 b mbedtls_sha256_update_ret
 203              	.LVL17:
 204              	 .cfi_endproc
 205              	.LFE1:
 207              	 .section .text.sha224_starts_wrap,"ax",%progbits
 208              	 .align 1
 209              	 .thumb
 210              	 .thumb_func
 212              	sha224_starts_wrap:
 213              	.LFB0:
 395:C:/Users/Yushev/git/optiga-trust-qi/externals/mbedtls/library\md_wrap.c ****     return( mbedtls_sha256_starts_ret( (mbedtls_sha256_context *) ctx, 1 ) );
 214              	 .loc 1 395 0
 215              	 .cfi_startproc
 216              	 
 217              	 
 218              	 
 219              	.LVL18:
 396:C:/Users/Yushev/git/optiga-trust-qi/externals/mbedtls/library\md_wrap.c **** }
 220              	 .loc 1 396 0
 221 0000 0121     	 movs r1,#1
 222 0002 FFF7FEBF 	 b mbedtls_sha256_starts_ret
 223              	.LVL19:
 224              	 .cfi_endproc
 225              	.LFE0:
 227              	 .section .text.sha256_starts_wrap,"ax",%progbits
 228              	 .align 1
 229              	 .thumb
 230              	 .thumb_func
 232              	sha256_starts_wrap:
 233              	.LFB8:
 462:C:/Users/Yushev/git/optiga-trust-qi/externals/mbedtls/library\md_wrap.c ****     return( mbedtls_sha256_starts_ret( (mbedtls_sha256_context *) ctx, 0 ) );
 234              	 .loc 1 462 0
 235              	 .cfi_startproc
 236              	 
 237              	 
 238              	 
 239              	.LVL20:
 463:C:/Users/Yushev/git/optiga-trust-qi/externals/mbedtls/library\md_wrap.c **** }
 240              	 .loc 1 463 0
 241 0000 0021     	 movs r1,#0
 242 0002 FFF7FEBF 	 b mbedtls_sha256_starts_ret
 243              	.LVL21:
 244              	 .cfi_endproc
 245              	.LFE8:
 247              	 .global mbedtls_sha256_info
 248              	 .global mbedtls_sha224_info
 249              	 .section .rodata.mbedtls_sha224_info,"a",%progbits
 250              	 .align 2
 253              	mbedtls_sha224_info:
 254 0000 05       	 .byte 5
 255 0001 000000   	 .space 3
 256 0004 07000000 	 .word .LC1
 257 0008 1C000000 	 .word 28
 258 000c 40000000 	 .word 64
 259 0010 00000000 	 .word sha224_starts_wrap
 260 0014 00000000 	 .word sha224_update_wrap
 261 0018 00000000 	 .word sha224_finish_wrap
 262 001c 00000000 	 .word sha224_wrap
 263 0020 00000000 	 .word sha224_ctx_alloc
 264 0024 00000000 	 .word sha224_ctx_free
 265 0028 00000000 	 .word sha224_clone_wrap
 266 002c 00000000 	 .word sha224_process_wrap
 267              	 .section .rodata.str1.1,"aMS",%progbits,1
 268              	.LC0:
 269 0000 53484132 	 .ascii "SHA256\000"
 269      353600
 270              	.LC1:
 271 0007 53484132 	 .ascii "SHA224\000"
 271      323400
 272              	 .section .rodata.mbedtls_sha256_info,"a",%progbits
 273              	 .align 2
 276              	mbedtls_sha256_info:
 277 0000 06       	 .byte 6
 278 0001 000000   	 .space 3
 279 0004 00000000 	 .word .LC0
 280 0008 20000000 	 .word 32
 281 000c 40000000 	 .word 64
 282 0010 00000000 	 .word sha256_starts_wrap
 283 0014 00000000 	 .word sha224_update_wrap
 284 0018 00000000 	 .word sha224_finish_wrap
 285 001c 00000000 	 .word sha256_wrap
 286 0020 00000000 	 .word sha224_ctx_alloc
 287 0024 00000000 	 .word sha224_ctx_free
 288 0028 00000000 	 .word sha224_clone_wrap
 289 002c 00000000 	 .word sha224_process_wrap
 290              	 .text
 291              	.Letext0:
 292              	 .file 2 "c:\\users\\yushev\\dave_4-4-2_32bit_2018-02-23\\dave-ide-4.4.2-32bit\\eclipse\\arm-gcc-49\\lib\\gcc\\arm-none-eabi\\4.9.3\\include\\stddef.h"
 293              	 .file 3 "C:/Users/Yushev/git/optiga-trust-qi/externals/mbedtls/include/mbedtls/md.h"
 294              	 .file 4 "C:/Users/Yushev/git/optiga-trust-qi/externals/mbedtls/include/mbedtls/md_internal.h"
 295              	 .file 5 "c:\\users\\yushev\\dave_4-4-2_32bit_2018-02-23\\dave-ide-4.4.2-32bit\\eclipse\\arm-gcc-49\\arm-none-eabi\\include\\machine\\_default_types.h"
 296              	 .file 6 "c:\\users\\yushev\\dave_4-4-2_32bit_2018-02-23\\dave-ide-4.4.2-32bit\\eclipse\\arm-gcc-49\\arm-none-eabi\\include\\stdint.h"
 297              	 .file 7 "C:/Users/Yushev/git/optiga-trust-qi/externals/mbedtls/include/mbedtls/sha256.h"
 298              	 .file 8 "c:\\users\\yushev\\dave_4-4-2_32bit_2018-02-23\\dave-ide-4.4.2-32bit\\eclipse\\arm-gcc-49\\arm-none-eabi\\include\\stdlib.h"