   1              	 .syntax unified
   2              	 .cpu cortex-m4
   3              	 .eabi_attribute 27,3
   4              	 .fpu fpv4-sp-d16
   5              	 .eabi_attribute 20,1
   6              	 .eabi_attribute 21,1
   7              	 .eabi_attribute 23,3
   8              	 .eabi_attribute 24,1
   9              	 .eabi_attribute 25,1
  10              	 .eabi_attribute 26,1
  11              	 .eabi_attribute 30,4
  12              	 .eabi_attribute 34,1
  13              	 .eabi_attribute 18,4
  14              	 .thumb
  15              	 .file "sha256.c"
  16              	 .text
  17              	.Ltext0:
  18              	 .cfi_sections .debug_frame
  19              	 .section .text.mbedtls_sha256_init,"ax",%progbits
  20              	 .align 1
  21              	 .global mbedtls_sha256_init
  22              	 .thumb
  23              	 .thumb_func
  25              	mbedtls_sha256_init:
  26              	.LFB0:
  27              	 .file 1 "C:/Users/Yushev/git/optiga-trust-qi/externals/mbedtls/library/sha256.c"
   1:C:/Users/Yushev/git/optiga-trust-qi/externals/mbedtls/library\sha256.c **** /*
   2:C:/Users/Yushev/git/optiga-trust-qi/externals/mbedtls/library\sha256.c ****  *  FIPS-180-2 compliant SHA-256 implementation
   3:C:/Users/Yushev/git/optiga-trust-qi/externals/mbedtls/library\sha256.c ****  *
   4:C:/Users/Yushev/git/optiga-trust-qi/externals/mbedtls/library\sha256.c ****  *  Copyright (C) 2006-2015, ARM Limited, All Rights Reserved
   5:C:/Users/Yushev/git/optiga-trust-qi/externals/mbedtls/library\sha256.c ****  *  SPDX-License-Identifier: Apache-2.0
   6:C:/Users/Yushev/git/optiga-trust-qi/externals/mbedtls/library\sha256.c ****  *
   7:C:/Users/Yushev/git/optiga-trust-qi/externals/mbedtls/library\sha256.c ****  *  Licensed under the Apache License, Version 2.0 (the "License"); you may
   8:C:/Users/Yushev/git/optiga-trust-qi/externals/mbedtls/library\sha256.c ****  *  not use this file except in compliance with the License.
   9:C:/Users/Yushev/git/optiga-trust-qi/externals/mbedtls/library\sha256.c ****  *  You may obtain a copy of the License at
  10:C:/Users/Yushev/git/optiga-trust-qi/externals/mbedtls/library\sha256.c ****  *
  11:C:/Users/Yushev/git/optiga-trust-qi/externals/mbedtls/library\sha256.c ****  *  http://www.apache.org/licenses/LICENSE-2.0
  12:C:/Users/Yushev/git/optiga-trust-qi/externals/mbedtls/library\sha256.c ****  *
  13:C:/Users/Yushev/git/optiga-trust-qi/externals/mbedtls/library\sha256.c ****  *  Unless required by applicable law or agreed to in writing, software
  14:C:/Users/Yushev/git/optiga-trust-qi/externals/mbedtls/library\sha256.c ****  *  distributed under the License is distributed on an "AS IS" BASIS, WITHOUT
  15:C:/Users/Yushev/git/optiga-trust-qi/externals/mbedtls/library\sha256.c ****  *  WARRANTIES OR CONDITIONS OF ANY KIND, either express or implied.
  16:C:/Users/Yushev/git/optiga-trust-qi/externals/mbedtls/library\sha256.c ****  *  See the License for the specific language governing permissions and
  17:C:/Users/Yushev/git/optiga-trust-qi/externals/mbedtls/library\sha256.c ****  *  limitations under the License.
  18:C:/Users/Yushev/git/optiga-trust-qi/externals/mbedtls/library\sha256.c ****  *
  19:C:/Users/Yushev/git/optiga-trust-qi/externals/mbedtls/library\sha256.c ****  *  This file is part of mbed TLS (https://tls.mbed.org)
  20:C:/Users/Yushev/git/optiga-trust-qi/externals/mbedtls/library\sha256.c ****  */
  21:C:/Users/Yushev/git/optiga-trust-qi/externals/mbedtls/library\sha256.c **** /*
  22:C:/Users/Yushev/git/optiga-trust-qi/externals/mbedtls/library\sha256.c ****  *  The SHA-256 Secure Hash Standard was published by NIST in 2002.
  23:C:/Users/Yushev/git/optiga-trust-qi/externals/mbedtls/library\sha256.c ****  *
  24:C:/Users/Yushev/git/optiga-trust-qi/externals/mbedtls/library\sha256.c ****  *  http://csrc.nist.gov/publications/fips/fips180-2/fips180-2.pdf
  25:C:/Users/Yushev/git/optiga-trust-qi/externals/mbedtls/library\sha256.c ****  */
  26:C:/Users/Yushev/git/optiga-trust-qi/externals/mbedtls/library\sha256.c **** 
  27:C:/Users/Yushev/git/optiga-trust-qi/externals/mbedtls/library\sha256.c **** #if !defined(MBEDTLS_CONFIG_FILE)
  28:C:/Users/Yushev/git/optiga-trust-qi/externals/mbedtls/library\sha256.c **** #include "mbedtls/config.h"
  29:C:/Users/Yushev/git/optiga-trust-qi/externals/mbedtls/library\sha256.c **** #else
  30:C:/Users/Yushev/git/optiga-trust-qi/externals/mbedtls/library\sha256.c **** #include MBEDTLS_CONFIG_FILE
  31:C:/Users/Yushev/git/optiga-trust-qi/externals/mbedtls/library\sha256.c **** #endif
  32:C:/Users/Yushev/git/optiga-trust-qi/externals/mbedtls/library\sha256.c **** 
  33:C:/Users/Yushev/git/optiga-trust-qi/externals/mbedtls/library\sha256.c **** #if defined(MBEDTLS_SHA256_C)
  34:C:/Users/Yushev/git/optiga-trust-qi/externals/mbedtls/library\sha256.c **** 
  35:C:/Users/Yushev/git/optiga-trust-qi/externals/mbedtls/library\sha256.c **** #include "mbedtls/sha256.h"
  36:C:/Users/Yushev/git/optiga-trust-qi/externals/mbedtls/library\sha256.c **** #include "mbedtls/platform_util.h"
  37:C:/Users/Yushev/git/optiga-trust-qi/externals/mbedtls/library\sha256.c **** 
  38:C:/Users/Yushev/git/optiga-trust-qi/externals/mbedtls/library\sha256.c **** #include <string.h>
  39:C:/Users/Yushev/git/optiga-trust-qi/externals/mbedtls/library\sha256.c **** 
  40:C:/Users/Yushev/git/optiga-trust-qi/externals/mbedtls/library\sha256.c **** #if defined(MBEDTLS_SELF_TEST)
  41:C:/Users/Yushev/git/optiga-trust-qi/externals/mbedtls/library\sha256.c **** #if defined(MBEDTLS_PLATFORM_C)
  42:C:/Users/Yushev/git/optiga-trust-qi/externals/mbedtls/library\sha256.c **** #include "mbedtls/platform.h"
  43:C:/Users/Yushev/git/optiga-trust-qi/externals/mbedtls/library\sha256.c **** #else
  44:C:/Users/Yushev/git/optiga-trust-qi/externals/mbedtls/library\sha256.c **** #include <stdio.h>
  45:C:/Users/Yushev/git/optiga-trust-qi/externals/mbedtls/library\sha256.c **** #include <stdlib.h>
  46:C:/Users/Yushev/git/optiga-trust-qi/externals/mbedtls/library\sha256.c **** #define mbedtls_printf printf
  47:C:/Users/Yushev/git/optiga-trust-qi/externals/mbedtls/library\sha256.c **** #define mbedtls_calloc    calloc
  48:C:/Users/Yushev/git/optiga-trust-qi/externals/mbedtls/library\sha256.c **** #define mbedtls_free       free
  49:C:/Users/Yushev/git/optiga-trust-qi/externals/mbedtls/library\sha256.c **** #endif /* MBEDTLS_PLATFORM_C */
  50:C:/Users/Yushev/git/optiga-trust-qi/externals/mbedtls/library\sha256.c **** #endif /* MBEDTLS_SELF_TEST */
  51:C:/Users/Yushev/git/optiga-trust-qi/externals/mbedtls/library\sha256.c **** 
  52:C:/Users/Yushev/git/optiga-trust-qi/externals/mbedtls/library\sha256.c **** #define SHA256_VALIDATE_RET(cond)                           \
  53:C:/Users/Yushev/git/optiga-trust-qi/externals/mbedtls/library\sha256.c ****     MBEDTLS_INTERNAL_VALIDATE_RET( cond, MBEDTLS_ERR_SHA256_BAD_INPUT_DATA )
  54:C:/Users/Yushev/git/optiga-trust-qi/externals/mbedtls/library\sha256.c **** #define SHA256_VALIDATE(cond)  MBEDTLS_INTERNAL_VALIDATE( cond )
  55:C:/Users/Yushev/git/optiga-trust-qi/externals/mbedtls/library\sha256.c **** 
  56:C:/Users/Yushev/git/optiga-trust-qi/externals/mbedtls/library\sha256.c **** #if !defined(MBEDTLS_SHA256_ALT)
  57:C:/Users/Yushev/git/optiga-trust-qi/externals/mbedtls/library\sha256.c **** 
  58:C:/Users/Yushev/git/optiga-trust-qi/externals/mbedtls/library\sha256.c **** /*
  59:C:/Users/Yushev/git/optiga-trust-qi/externals/mbedtls/library\sha256.c ****  * 32-bit integer manipulation macros (big endian)
  60:C:/Users/Yushev/git/optiga-trust-qi/externals/mbedtls/library\sha256.c ****  */
  61:C:/Users/Yushev/git/optiga-trust-qi/externals/mbedtls/library\sha256.c **** #ifndef GET_UINT32_BE
  62:C:/Users/Yushev/git/optiga-trust-qi/externals/mbedtls/library\sha256.c **** #define GET_UINT32_BE(n,b,i)                            \
  63:C:/Users/Yushev/git/optiga-trust-qi/externals/mbedtls/library\sha256.c **** do {                                                    \
  64:C:/Users/Yushev/git/optiga-trust-qi/externals/mbedtls/library\sha256.c ****     (n) = ( (uint32_t) (b)[(i)    ] << 24 )             \
  65:C:/Users/Yushev/git/optiga-trust-qi/externals/mbedtls/library\sha256.c ****         | ( (uint32_t) (b)[(i) + 1] << 16 )             \
  66:C:/Users/Yushev/git/optiga-trust-qi/externals/mbedtls/library\sha256.c ****         | ( (uint32_t) (b)[(i) + 2] <<  8 )             \
  67:C:/Users/Yushev/git/optiga-trust-qi/externals/mbedtls/library\sha256.c ****         | ( (uint32_t) (b)[(i) + 3]       );            \
  68:C:/Users/Yushev/git/optiga-trust-qi/externals/mbedtls/library\sha256.c **** } while( 0 )
  69:C:/Users/Yushev/git/optiga-trust-qi/externals/mbedtls/library\sha256.c **** #endif
  70:C:/Users/Yushev/git/optiga-trust-qi/externals/mbedtls/library\sha256.c **** 
  71:C:/Users/Yushev/git/optiga-trust-qi/externals/mbedtls/library\sha256.c **** #ifndef PUT_UINT32_BE
  72:C:/Users/Yushev/git/optiga-trust-qi/externals/mbedtls/library\sha256.c **** #define PUT_UINT32_BE(n,b,i)                            \
  73:C:/Users/Yushev/git/optiga-trust-qi/externals/mbedtls/library\sha256.c **** do {                                                    \
  74:C:/Users/Yushev/git/optiga-trust-qi/externals/mbedtls/library\sha256.c ****     (b)[(i)    ] = (unsigned char) ( (n) >> 24 );       \
  75:C:/Users/Yushev/git/optiga-trust-qi/externals/mbedtls/library\sha256.c ****     (b)[(i) + 1] = (unsigned char) ( (n) >> 16 );       \
  76:C:/Users/Yushev/git/optiga-trust-qi/externals/mbedtls/library\sha256.c ****     (b)[(i) + 2] = (unsigned char) ( (n) >>  8 );       \
  77:C:/Users/Yushev/git/optiga-trust-qi/externals/mbedtls/library\sha256.c ****     (b)[(i) + 3] = (unsigned char) ( (n)       );       \
  78:C:/Users/Yushev/git/optiga-trust-qi/externals/mbedtls/library\sha256.c **** } while( 0 )
  79:C:/Users/Yushev/git/optiga-trust-qi/externals/mbedtls/library\sha256.c **** #endif
  80:C:/Users/Yushev/git/optiga-trust-qi/externals/mbedtls/library\sha256.c **** 
  81:C:/Users/Yushev/git/optiga-trust-qi/externals/mbedtls/library\sha256.c **** void mbedtls_sha256_init( mbedtls_sha256_context *ctx )
  82:C:/Users/Yushev/git/optiga-trust-qi/externals/mbedtls/library\sha256.c **** {
  28              	 .loc 1 82 0
  29              	 .cfi_startproc
  30              	 
  31              	 
  32              	 
  33              	.LVL0:
  83:C:/Users/Yushev/git/optiga-trust-qi/externals/mbedtls/library\sha256.c ****     SHA256_VALIDATE( ctx != NULL );
  84:C:/Users/Yushev/git/optiga-trust-qi/externals/mbedtls/library\sha256.c **** 
  85:C:/Users/Yushev/git/optiga-trust-qi/externals/mbedtls/library\sha256.c ****     memset( ctx, 0, sizeof( mbedtls_sha256_context ) );
  34              	 .loc 1 85 0
  35 0000 0021     	 movs r1,#0
  36 0002 6C22     	 movs r2,#108
  37 0004 FFF7FEBF 	 b memset
  38              	.LVL1:
  39              	 .cfi_endproc
  40              	.LFE0:
  42              	 .section .text.mbedtls_sha256_free,"ax",%progbits
  43              	 .align 1
  44              	 .global mbedtls_sha256_free
  45              	 .thumb
  46              	 .thumb_func
  48              	mbedtls_sha256_free:
  49              	.LFB1:
  86:C:/Users/Yushev/git/optiga-trust-qi/externals/mbedtls/library\sha256.c **** }
  87:C:/Users/Yushev/git/optiga-trust-qi/externals/mbedtls/library\sha256.c **** 
  88:C:/Users/Yushev/git/optiga-trust-qi/externals/mbedtls/library\sha256.c **** void mbedtls_sha256_free( mbedtls_sha256_context *ctx )
  89:C:/Users/Yushev/git/optiga-trust-qi/externals/mbedtls/library\sha256.c **** {
  50              	 .loc 1 89 0
  51              	 .cfi_startproc
  52              	 
  53              	 
  54              	 
  55              	.LVL2:
  90:C:/Users/Yushev/git/optiga-trust-qi/externals/mbedtls/library\sha256.c ****     if( ctx == NULL )
  56              	 .loc 1 90 0
  57 0000 10B1     	 cbz r0,.L2
  91:C:/Users/Yushev/git/optiga-trust-qi/externals/mbedtls/library\sha256.c ****         return;
  92:C:/Users/Yushev/git/optiga-trust-qi/externals/mbedtls/library\sha256.c **** 
  93:C:/Users/Yushev/git/optiga-trust-qi/externals/mbedtls/library\sha256.c ****     mbedtls_platform_zeroize( ctx, sizeof( mbedtls_sha256_context ) );
  58              	 .loc 1 93 0
  59 0002 6C21     	 movs r1,#108
  60 0004 FFF7FEBF 	 b mbedtls_platform_zeroize
  61              	.LVL3:
  62              	.L2:
  63 0008 7047     	 bx lr
  64              	 .cfi_endproc
  65              	.LFE1:
  67              	 .section .text.mbedtls_sha256_clone,"ax",%progbits
  68              	 .align 1
  69              	 .global mbedtls_sha256_clone
  70              	 .thumb
  71              	 .thumb_func
  73              	mbedtls_sha256_clone:
  74              	.LFB2:
  94:C:/Users/Yushev/git/optiga-trust-qi/externals/mbedtls/library\sha256.c **** }
  95:C:/Users/Yushev/git/optiga-trust-qi/externals/mbedtls/library\sha256.c **** 
  96:C:/Users/Yushev/git/optiga-trust-qi/externals/mbedtls/library\sha256.c **** void mbedtls_sha256_clone( mbedtls_sha256_context *dst,
  97:C:/Users/Yushev/git/optiga-trust-qi/externals/mbedtls/library\sha256.c ****                            const mbedtls_sha256_context *src )
  98:C:/Users/Yushev/git/optiga-trust-qi/externals/mbedtls/library\sha256.c **** {
  75              	 .loc 1 98 0
  76              	 .cfi_startproc
  77              	 
  78              	 
  79              	.LVL4:
  80 0000 08B5     	 push {r3,lr}
  81              	.LCFI0:
  82              	 .cfi_def_cfa_offset 8
  83              	 .cfi_offset 3,-8
  84              	 .cfi_offset 14,-4
  99:C:/Users/Yushev/git/optiga-trust-qi/externals/mbedtls/library\sha256.c ****     SHA256_VALIDATE( dst != NULL );
 100:C:/Users/Yushev/git/optiga-trust-qi/externals/mbedtls/library\sha256.c ****     SHA256_VALIDATE( src != NULL );
 101:C:/Users/Yushev/git/optiga-trust-qi/externals/mbedtls/library\sha256.c **** 
 102:C:/Users/Yushev/git/optiga-trust-qi/externals/mbedtls/library\sha256.c ****     *dst = *src;
  85              	 .loc 1 102 0
  86 0002 6C22     	 movs r2,#108
  87 0004 FFF7FEFF 	 bl memcpy
  88              	.LVL5:
  89 0008 08BD     	 pop {r3,pc}
  90              	 .cfi_endproc
  91              	.LFE2:
  93              	 .section .text.mbedtls_sha256_starts_ret,"ax",%progbits
  94              	 .align 1
  95              	 .global mbedtls_sha256_starts_ret
  96              	 .thumb
  97              	 .thumb_func
  99              	mbedtls_sha256_starts_ret:
 100              	.LFB3:
 103:C:/Users/Yushev/git/optiga-trust-qi/externals/mbedtls/library\sha256.c **** }
 104:C:/Users/Yushev/git/optiga-trust-qi/externals/mbedtls/library\sha256.c **** 
 105:C:/Users/Yushev/git/optiga-trust-qi/externals/mbedtls/library\sha256.c **** /*
 106:C:/Users/Yushev/git/optiga-trust-qi/externals/mbedtls/library\sha256.c ****  * SHA-256 context setup
 107:C:/Users/Yushev/git/optiga-trust-qi/externals/mbedtls/library\sha256.c ****  */
 108:C:/Users/Yushev/git/optiga-trust-qi/externals/mbedtls/library\sha256.c **** int mbedtls_sha256_starts_ret( mbedtls_sha256_context *ctx, int is224 )
 109:C:/Users/Yushev/git/optiga-trust-qi/externals/mbedtls/library\sha256.c **** {
 101              	 .loc 1 109 0
 102              	 .cfi_startproc
 103              	 
 104              	 
 105              	 
 106              	.LVL6:
 110:C:/Users/Yushev/git/optiga-trust-qi/externals/mbedtls/library\sha256.c ****     SHA256_VALIDATE_RET( ctx != NULL );
 111:C:/Users/Yushev/git/optiga-trust-qi/externals/mbedtls/library\sha256.c ****     SHA256_VALIDATE_RET( is224 == 0 || is224 == 1 );
 112:C:/Users/Yushev/git/optiga-trust-qi/externals/mbedtls/library\sha256.c **** 
 113:C:/Users/Yushev/git/optiga-trust-qi/externals/mbedtls/library\sha256.c ****     ctx->total[0] = 0;
 107              	 .loc 1 113 0
 108 0000 0023     	 movs r3,#0
 109 0002 0360     	 str r3,[r0]
 114:C:/Users/Yushev/git/optiga-trust-qi/externals/mbedtls/library\sha256.c ****     ctx->total[1] = 0;
 110              	 .loc 1 114 0
 111 0004 4360     	 str r3,[r0,#4]
 115:C:/Users/Yushev/git/optiga-trust-qi/externals/mbedtls/library\sha256.c **** 
 116:C:/Users/Yushev/git/optiga-trust-qi/externals/mbedtls/library\sha256.c ****     if( is224 == 0 )
 112              	 .loc 1 116 0
 113 0006 A1B9     	 cbnz r1,.L7
 117:C:/Users/Yushev/git/optiga-trust-qi/externals/mbedtls/library\sha256.c ****     {
 118:C:/Users/Yushev/git/optiga-trust-qi/externals/mbedtls/library\sha256.c ****         /* SHA-256 */
 119:C:/Users/Yushev/git/optiga-trust-qi/externals/mbedtls/library\sha256.c ****         ctx->state[0] = 0x6A09E667;
 114              	 .loc 1 119 0
 115 0008 184B     	 ldr r3,.L10
 116 000a 8360     	 str r3,[r0,#8]
 120:C:/Users/Yushev/git/optiga-trust-qi/externals/mbedtls/library\sha256.c ****         ctx->state[1] = 0xBB67AE85;
 117              	 .loc 1 120 0
 118 000c 184B     	 ldr r3,.L10+4
 119 000e C360     	 str r3,[r0,#12]
 121:C:/Users/Yushev/git/optiga-trust-qi/externals/mbedtls/library\sha256.c ****         ctx->state[2] = 0x3C6EF372;
 120              	 .loc 1 121 0
 121 0010 184B     	 ldr r3,.L10+8
 122 0012 0361     	 str r3,[r0,#16]
 122:C:/Users/Yushev/git/optiga-trust-qi/externals/mbedtls/library\sha256.c ****         ctx->state[3] = 0xA54FF53A;
 123              	 .loc 1 122 0
 124 0014 184B     	 ldr r3,.L10+12
 125 0016 4361     	 str r3,[r0,#20]
 123:C:/Users/Yushev/git/optiga-trust-qi/externals/mbedtls/library\sha256.c ****         ctx->state[4] = 0x510E527F;
 126              	 .loc 1 123 0
 127 0018 184B     	 ldr r3,.L10+16
 128 001a 8361     	 str r3,[r0,#24]
 124:C:/Users/Yushev/git/optiga-trust-qi/externals/mbedtls/library\sha256.c ****         ctx->state[5] = 0x9B05688C;
 129              	 .loc 1 124 0
 130 001c 184B     	 ldr r3,.L10+20
 131 001e C361     	 str r3,[r0,#28]
 125:C:/Users/Yushev/git/optiga-trust-qi/externals/mbedtls/library\sha256.c ****         ctx->state[6] = 0x1F83D9AB;
 132              	 .loc 1 125 0
 133 0020 184B     	 ldr r3,.L10+24
 134 0022 0362     	 str r3,[r0,#32]
 126:C:/Users/Yushev/git/optiga-trust-qi/externals/mbedtls/library\sha256.c ****         ctx->state[7] = 0x5BE0CD19;
 135              	 .loc 1 126 0
 136 0024 03F17453 	 add r3,r3,#1023410176
 137 0028 A3F52303 	 sub r3,r3,#10682368
 138 002c A3F69243 	 subw r3,r3,#3218
 139 0030 18E0     	 b .L9
 140              	.L7:
 127:C:/Users/Yushev/git/optiga-trust-qi/externals/mbedtls/library\sha256.c ****     }
 128:C:/Users/Yushev/git/optiga-trust-qi/externals/mbedtls/library\sha256.c ****     else
 129:C:/Users/Yushev/git/optiga-trust-qi/externals/mbedtls/library\sha256.c ****     {
 130:C:/Users/Yushev/git/optiga-trust-qi/externals/mbedtls/library\sha256.c ****         /* SHA-224 */
 131:C:/Users/Yushev/git/optiga-trust-qi/externals/mbedtls/library\sha256.c ****         ctx->state[0] = 0xC1059ED8;
 141              	 .loc 1 131 0
 142 0032 154B     	 ldr r3,.L10+28
 143 0034 8360     	 str r3,[r0,#8]
 132:C:/Users/Yushev/git/optiga-trust-qi/externals/mbedtls/library\sha256.c ****         ctx->state[1] = 0x367CD507;
 144              	 .loc 1 132 0
 145 0036 154B     	 ldr r3,.L10+32
 146 0038 C360     	 str r3,[r0,#12]
 133:C:/Users/Yushev/git/optiga-trust-qi/externals/mbedtls/library\sha256.c ****         ctx->state[2] = 0x3070DD17;
 147              	 .loc 1 133 0
 148 003a 03F17943 	 add r3,r3,#-117440512
 149 003e 03F57403 	 add r3,r3,#15990784
 150 0042 03F50163 	 add r3,r3,#2064
 151 0046 0361     	 str r3,[r0,#16]
 134:C:/Users/Yushev/git/optiga-trust-qi/externals/mbedtls/library\sha256.c ****         ctx->state[3] = 0xF70E5939;
 152              	 .loc 1 134 0
 153 0048 114B     	 ldr r3,.L10+36
 154 004a 4361     	 str r3,[r0,#20]
 135:C:/Users/Yushev/git/optiga-trust-qi/externals/mbedtls/library\sha256.c ****         ctx->state[4] = 0xFFC00B31;
 155              	 .loc 1 135 0
 156 004c 114B     	 ldr r3,.L10+40
 157 004e 8361     	 str r3,[r0,#24]
 136:C:/Users/Yushev/git/optiga-trust-qi/externals/mbedtls/library\sha256.c ****         ctx->state[5] = 0x68581511;
 158              	 .loc 1 136 0
 159 0050 03F1D143 	 add r3,r3,#1753219072
 160 0054 03F5C013 	 add r3,r3,#1572864
 161 0058 03F51E63 	 add r3,r3,#2528
 162 005c C361     	 str r3,[r0,#28]
 137:C:/Users/Yushev/git/optiga-trust-qi/externals/mbedtls/library\sha256.c ****         ctx->state[6] = 0x64F98FA7;
 163              	 .loc 1 137 0
 164 005e 0E4B     	 ldr r3,.L10+44
 165 0060 0362     	 str r3,[r0,#32]
 138:C:/Users/Yushev/git/optiga-trust-qi/externals/mbedtls/library\sha256.c ****         ctx->state[7] = 0xBEFA4FA4;
 166              	 .loc 1 138 0
 167 0062 0E4B     	 ldr r3,.L10+48
 168              	.L9:
 169 0064 4362     	 str r3,[r0,#36]
 139:C:/Users/Yushev/git/optiga-trust-qi/externals/mbedtls/library\sha256.c ****     }
 140:C:/Users/Yushev/git/optiga-trust-qi/externals/mbedtls/library\sha256.c **** 
 141:C:/Users/Yushev/git/optiga-trust-qi/externals/mbedtls/library\sha256.c ****     ctx->is224 = is224;
 170              	 .loc 1 141 0
 171 0066 8166     	 str r1,[r0,#104]
 142:C:/Users/Yushev/git/optiga-trust-qi/externals/mbedtls/library\sha256.c **** 
 143:C:/Users/Yushev/git/optiga-trust-qi/externals/mbedtls/library\sha256.c ****     return( 0 );
 144:C:/Users/Yushev/git/optiga-trust-qi/externals/mbedtls/library\sha256.c **** }
 172              	 .loc 1 144 0
 173 0068 0020     	 movs r0,#0
 174              	.LVL7:
 175 006a 7047     	 bx lr
 176              	.L11:
 177              	 .align 2
 178              	.L10:
 179 006c 67E6096A 	 .word 1779033703
 180 0070 85AE67BB 	 .word -1150833019
 181 0074 72F36E3C 	 .word 1013904242
 182 0078 3AF54FA5 	 .word -1521486534
 183 007c 7F520E51 	 .word 1359893119
 184 0080 8C68059B 	 .word -1694144372
 185 0084 ABD9831F 	 .word 528734635
 186 0088 D89E05C1 	 .word -1056596264
 187 008c 07D57C36 	 .word 914150663
 188 0090 39590EF7 	 .word -150054599
 189 0094 310BC0FF 	 .word -4191439
 190 0098 A78FF964 	 .word 1694076839
 191 009c A44FFABE 	 .word -1090891868
 192              	 .cfi_endproc
 193              	.LFE3:
 195              	 .section .text.mbedtls_sha256_starts,"ax",%progbits
 196              	 .align 1
 197              	 .global mbedtls_sha256_starts
 198              	 .thumb
 199              	 .thumb_func
 201              	mbedtls_sha256_starts:
 202              	.LFB4:
 145:C:/Users/Yushev/git/optiga-trust-qi/externals/mbedtls/library\sha256.c **** 
 146:C:/Users/Yushev/git/optiga-trust-qi/externals/mbedtls/library\sha256.c **** #if !defined(MBEDTLS_DEPRECATED_REMOVED)
 147:C:/Users/Yushev/git/optiga-trust-qi/externals/mbedtls/library\sha256.c **** void mbedtls_sha256_starts( mbedtls_sha256_context *ctx,
 148:C:/Users/Yushev/git/optiga-trust-qi/externals/mbedtls/library\sha256.c ****                             int is224 )
 149:C:/Users/Yushev/git/optiga-trust-qi/externals/mbedtls/library\sha256.c **** {
 203              	 .loc 1 149 0
 204              	 .cfi_startproc
 205              	 
 206              	 
 207              	 
 208              	.LVL8:
 150:C:/Users/Yushev/git/optiga-trust-qi/externals/mbedtls/library\sha256.c ****     mbedtls_sha256_starts_ret( ctx, is224 );
 209              	 .loc 1 150 0
 210 0000 FFF7FEBF 	 b mbedtls_sha256_starts_ret
 211              	.LVL9:
 212              	 .cfi_endproc
 213              	.LFE4:
 215              	 .section .text.mbedtls_internal_sha256_process,"ax",%progbits
 216              	 .align 1
 217              	 .global mbedtls_internal_sha256_process
 218              	 .thumb
 219              	 .thumb_func
 221              	mbedtls_internal_sha256_process:
 222              	.LFB5:
 151:C:/Users/Yushev/git/optiga-trust-qi/externals/mbedtls/library\sha256.c **** }
 152:C:/Users/Yushev/git/optiga-trust-qi/externals/mbedtls/library\sha256.c **** #endif
 153:C:/Users/Yushev/git/optiga-trust-qi/externals/mbedtls/library\sha256.c **** 
 154:C:/Users/Yushev/git/optiga-trust-qi/externals/mbedtls/library\sha256.c **** #if !defined(MBEDTLS_SHA256_PROCESS_ALT)
 155:C:/Users/Yushev/git/optiga-trust-qi/externals/mbedtls/library\sha256.c **** static const uint32_t K[] =
 156:C:/Users/Yushev/git/optiga-trust-qi/externals/mbedtls/library\sha256.c **** {
 157:C:/Users/Yushev/git/optiga-trust-qi/externals/mbedtls/library\sha256.c ****     0x428A2F98, 0x71374491, 0xB5C0FBCF, 0xE9B5DBA5,
 158:C:/Users/Yushev/git/optiga-trust-qi/externals/mbedtls/library\sha256.c ****     0x3956C25B, 0x59F111F1, 0x923F82A4, 0xAB1C5ED5,
 159:C:/Users/Yushev/git/optiga-trust-qi/externals/mbedtls/library\sha256.c ****     0xD807AA98, 0x12835B01, 0x243185BE, 0x550C7DC3,
 160:C:/Users/Yushev/git/optiga-trust-qi/externals/mbedtls/library\sha256.c ****     0x72BE5D74, 0x80DEB1FE, 0x9BDC06A7, 0xC19BF174,
 161:C:/Users/Yushev/git/optiga-trust-qi/externals/mbedtls/library\sha256.c ****     0xE49B69C1, 0xEFBE4786, 0x0FC19DC6, 0x240CA1CC,
 162:C:/Users/Yushev/git/optiga-trust-qi/externals/mbedtls/library\sha256.c ****     0x2DE92C6F, 0x4A7484AA, 0x5CB0A9DC, 0x76F988DA,
 163:C:/Users/Yushev/git/optiga-trust-qi/externals/mbedtls/library\sha256.c ****     0x983E5152, 0xA831C66D, 0xB00327C8, 0xBF597FC7,
 164:C:/Users/Yushev/git/optiga-trust-qi/externals/mbedtls/library\sha256.c ****     0xC6E00BF3, 0xD5A79147, 0x06CA6351, 0x14292967,
 165:C:/Users/Yushev/git/optiga-trust-qi/externals/mbedtls/library\sha256.c ****     0x27B70A85, 0x2E1B2138, 0x4D2C6DFC, 0x53380D13,
 166:C:/Users/Yushev/git/optiga-trust-qi/externals/mbedtls/library\sha256.c ****     0x650A7354, 0x766A0ABB, 0x81C2C92E, 0x92722C85,
 167:C:/Users/Yushev/git/optiga-trust-qi/externals/mbedtls/library\sha256.c ****     0xA2BFE8A1, 0xA81A664B, 0xC24B8B70, 0xC76C51A3,
 168:C:/Users/Yushev/git/optiga-trust-qi/externals/mbedtls/library\sha256.c ****     0xD192E819, 0xD6990624, 0xF40E3585, 0x106AA070,
 169:C:/Users/Yushev/git/optiga-trust-qi/externals/mbedtls/library\sha256.c ****     0x19A4C116, 0x1E376C08, 0x2748774C, 0x34B0BCB5,
 170:C:/Users/Yushev/git/optiga-trust-qi/externals/mbedtls/library\sha256.c ****     0x391C0CB3, 0x4ED8AA4A, 0x5B9CCA4F, 0x682E6FF3,
 171:C:/Users/Yushev/git/optiga-trust-qi/externals/mbedtls/library\sha256.c ****     0x748F82EE, 0x78A5636F, 0x84C87814, 0x8CC70208,
 172:C:/Users/Yushev/git/optiga-trust-qi/externals/mbedtls/library\sha256.c ****     0x90BEFFFA, 0xA4506CEB, 0xBEF9A3F7, 0xC67178F2,
 173:C:/Users/Yushev/git/optiga-trust-qi/externals/mbedtls/library\sha256.c **** };
 174:C:/Users/Yushev/git/optiga-trust-qi/externals/mbedtls/library\sha256.c **** 
 175:C:/Users/Yushev/git/optiga-trust-qi/externals/mbedtls/library\sha256.c **** #define  SHR(x,n) ((x & 0xFFFFFFFF) >> n)
 176:C:/Users/Yushev/git/optiga-trust-qi/externals/mbedtls/library\sha256.c **** #define ROTR(x,n) (SHR(x,n) | (x << (32 - n)))
 177:C:/Users/Yushev/git/optiga-trust-qi/externals/mbedtls/library\sha256.c **** 
 178:C:/Users/Yushev/git/optiga-trust-qi/externals/mbedtls/library\sha256.c **** #define S0(x) (ROTR(x, 7) ^ ROTR(x,18) ^  SHR(x, 3))
 179:C:/Users/Yushev/git/optiga-trust-qi/externals/mbedtls/library\sha256.c **** #define S1(x) (ROTR(x,17) ^ ROTR(x,19) ^  SHR(x,10))
 180:C:/Users/Yushev/git/optiga-trust-qi/externals/mbedtls/library\sha256.c **** 
 181:C:/Users/Yushev/git/optiga-trust-qi/externals/mbedtls/library\sha256.c **** #define S2(x) (ROTR(x, 2) ^ ROTR(x,13) ^ ROTR(x,22))
 182:C:/Users/Yushev/git/optiga-trust-qi/externals/mbedtls/library\sha256.c **** #define S3(x) (ROTR(x, 6) ^ ROTR(x,11) ^ ROTR(x,25))
 183:C:/Users/Yushev/git/optiga-trust-qi/externals/mbedtls/library\sha256.c **** 
 184:C:/Users/Yushev/git/optiga-trust-qi/externals/mbedtls/library\sha256.c **** #define F0(x,y,z) ((x & y) | (z & (x | y)))
 185:C:/Users/Yushev/git/optiga-trust-qi/externals/mbedtls/library\sha256.c **** #define F1(x,y,z) (z ^ (x & (y ^ z)))
 186:C:/Users/Yushev/git/optiga-trust-qi/externals/mbedtls/library\sha256.c **** 
 187:C:/Users/Yushev/git/optiga-trust-qi/externals/mbedtls/library\sha256.c **** #define R(t)                                    \
 188:C:/Users/Yushev/git/optiga-trust-qi/externals/mbedtls/library\sha256.c **** (                                               \
 189:C:/Users/Yushev/git/optiga-trust-qi/externals/mbedtls/library\sha256.c ****     W[t] = S1(W[t -  2]) + W[t -  7] +          \
 190:C:/Users/Yushev/git/optiga-trust-qi/externals/mbedtls/library\sha256.c ****            S0(W[t - 15]) + W[t - 16]            \
 191:C:/Users/Yushev/git/optiga-trust-qi/externals/mbedtls/library\sha256.c **** )
 192:C:/Users/Yushev/git/optiga-trust-qi/externals/mbedtls/library\sha256.c **** 
 193:C:/Users/Yushev/git/optiga-trust-qi/externals/mbedtls/library\sha256.c **** #define P(a,b,c,d,e,f,g,h,x,K)                  \
 194:C:/Users/Yushev/git/optiga-trust-qi/externals/mbedtls/library\sha256.c **** {                                               \
 195:C:/Users/Yushev/git/optiga-trust-qi/externals/mbedtls/library\sha256.c ****     temp1 = h + S3(e) + F1(e,f,g) + K + x;      \
 196:C:/Users/Yushev/git/optiga-trust-qi/externals/mbedtls/library\sha256.c ****     temp2 = S2(a) + F0(a,b,c);                  \
 197:C:/Users/Yushev/git/optiga-trust-qi/externals/mbedtls/library\sha256.c ****     d += temp1; h = temp1 + temp2;              \
 198:C:/Users/Yushev/git/optiga-trust-qi/externals/mbedtls/library\sha256.c **** }
 199:C:/Users/Yushev/git/optiga-trust-qi/externals/mbedtls/library\sha256.c **** 
 200:C:/Users/Yushev/git/optiga-trust-qi/externals/mbedtls/library\sha256.c **** int mbedtls_internal_sha256_process( mbedtls_sha256_context *ctx,
 201:C:/Users/Yushev/git/optiga-trust-qi/externals/mbedtls/library\sha256.c ****                                 const unsigned char data[64] )
 202:C:/Users/Yushev/git/optiga-trust-qi/externals/mbedtls/library\sha256.c **** {
 223              	 .loc 1 202 0
 224              	 .cfi_startproc
 225              	 
 226              	 
 227              	.LVL10:
 228 0000 2DE9F04F 	 push {r4,r5,r6,r7,r8,r9,r10,fp,lr}
 229              	.LCFI1:
 230              	 .cfi_def_cfa_offset 36
 231              	 .cfi_offset 4,-36
 232              	 .cfi_offset 5,-32
 233              	 .cfi_offset 6,-28
 234              	 .cfi_offset 7,-24
 235              	 .cfi_offset 8,-20
 236              	 .cfi_offset 9,-16
 237              	 .cfi_offset 10,-12
 238              	 .cfi_offset 11,-8
 239              	 .cfi_offset 14,-4
 240 0004 CFB0     	 sub sp,sp,#316
 241              	.LCFI2:
 242              	 .cfi_def_cfa_offset 352
 243 0006 031D     	 adds r3,r0,#4
 244 0008 0593     	 str r3,[sp,#20]
 245              	 .loc 1 202 0
 246 000a 1A46     	 mov r2,r3
 203:C:/Users/Yushev/git/optiga-trust-qi/externals/mbedtls/library\sha256.c ****     uint32_t temp1, temp2, W[64];
 204:C:/Users/Yushev/git/optiga-trust-qi/externals/mbedtls/library\sha256.c ****     uint32_t A[8];
 205:C:/Users/Yushev/git/optiga-trust-qi/externals/mbedtls/library\sha256.c ****     unsigned int i;
 206:C:/Users/Yushev/git/optiga-trust-qi/externals/mbedtls/library\sha256.c **** 
 207:C:/Users/Yushev/git/optiga-trust-qi/externals/mbedtls/library\sha256.c ****     SHA256_VALIDATE_RET( ctx != NULL );
 208:C:/Users/Yushev/git/optiga-trust-qi/externals/mbedtls/library\sha256.c ****     SHA256_VALIDATE_RET( (const unsigned char *)data != NULL );
 209:C:/Users/Yushev/git/optiga-trust-qi/externals/mbedtls/library\sha256.c **** 
 210:C:/Users/Yushev/git/optiga-trust-qi/externals/mbedtls/library\sha256.c ****     for( i = 0; i < 8; i++ )
 247              	 .loc 1 210 0
 248 000c 0023     	 movs r3,#0
 249              	.LVL11:
 250              	.L14:
 211:C:/Users/Yushev/git/optiga-trust-qi/externals/mbedtls/library\sha256.c ****         A[i] = ctx->state[i];
 251              	 .loc 1 211 0 discriminator 3
 252 000e 06AC     	 add r4,sp,#24
 253 0010 52F8040F 	 ldr r0,[r2,#4]!
 254 0014 44F82300 	 str r0,[r4,r3,lsl#2]
 210:C:/Users/Yushev/git/optiga-trust-qi/externals/mbedtls/library\sha256.c ****         A[i] = ctx->state[i];
 255              	 .loc 1 210 0 discriminator 3
 256 0018 0133     	 adds r3,r3,#1
 257              	.LVL12:
 258 001a 082B     	 cmp r3,#8
 259 001c F7D1     	 bne .L14
 260 001e 0846     	 mov r0,r1
 210:C:/Users/Yushev/git/optiga-trust-qi/externals/mbedtls/library\sha256.c ****         A[i] = ctx->state[i];
 261              	 .loc 1 210 0 is_stmt 0
 262 0020 0022     	 movs r2,#0
 263              	.LVL13:
 264              	.L15:
 212:C:/Users/Yushev/git/optiga-trust-qi/externals/mbedtls/library\sha256.c **** 
 213:C:/Users/Yushev/git/optiga-trust-qi/externals/mbedtls/library\sha256.c **** #if defined(MBEDTLS_SHA256_SMALLER)
 214:C:/Users/Yushev/git/optiga-trust-qi/externals/mbedtls/library\sha256.c ****     for( i = 0; i < 64; i++ )
 215:C:/Users/Yushev/git/optiga-trust-qi/externals/mbedtls/library\sha256.c ****     {
 216:C:/Users/Yushev/git/optiga-trust-qi/externals/mbedtls/library\sha256.c ****         if( i < 16 )
 217:C:/Users/Yushev/git/optiga-trust-qi/externals/mbedtls/library\sha256.c ****             GET_UINT32_BE( W[i], data, 4 * i );
 218:C:/Users/Yushev/git/optiga-trust-qi/externals/mbedtls/library\sha256.c ****         else
 219:C:/Users/Yushev/git/optiga-trust-qi/externals/mbedtls/library\sha256.c ****             R( i );
 220:C:/Users/Yushev/git/optiga-trust-qi/externals/mbedtls/library\sha256.c **** 
 221:C:/Users/Yushev/git/optiga-trust-qi/externals/mbedtls/library\sha256.c ****         P( A[0], A[1], A[2], A[3], A[4], A[5], A[6], A[7], W[i], K[i] );
 222:C:/Users/Yushev/git/optiga-trust-qi/externals/mbedtls/library\sha256.c **** 
 223:C:/Users/Yushev/git/optiga-trust-qi/externals/mbedtls/library\sha256.c ****         temp1 = A[7]; A[7] = A[6]; A[6] = A[5]; A[5] = A[4]; A[4] = A[3];
 224:C:/Users/Yushev/git/optiga-trust-qi/externals/mbedtls/library\sha256.c ****         A[3] = A[2]; A[2] = A[1]; A[1] = A[0]; A[0] = temp1;
 225:C:/Users/Yushev/git/optiga-trust-qi/externals/mbedtls/library\sha256.c ****     }
 226:C:/Users/Yushev/git/optiga-trust-qi/externals/mbedtls/library\sha256.c **** #else /* MBEDTLS_SHA256_SMALLER */
 227:C:/Users/Yushev/git/optiga-trust-qi/externals/mbedtls/library\sha256.c ****     for( i = 0; i < 16; i++ )
 228:C:/Users/Yushev/git/optiga-trust-qi/externals/mbedtls/library\sha256.c ****         GET_UINT32_BE( W[i], data, 4 * i );
 265              	 .loc 1 228 0 is_stmt 1 discriminator 3
 266 0022 11F82240 	 ldrb r4,[r1,r2,lsl#2]
 267 0026 C378     	 ldrb r3,[r0,#3]
 268 0028 43EA0463 	 orr r3,r3,r4,lsl#24
 269 002c 4478     	 ldrb r4,[r0,#1]
 270 002e 43EA0443 	 orr r3,r3,r4,lsl#16
 271 0032 8478     	 ldrb r4,[r0,#2]
 272 0034 43EA0423 	 orr r3,r3,r4,lsl#8
 273 0038 0EAC     	 add r4,sp,#56
 274 003a 0430     	 adds r0,r0,#4
 275 003c 44F82230 	 str r3,[r4,r2,lsl#2]
 227:C:/Users/Yushev/git/optiga-trust-qi/externals/mbedtls/library\sha256.c ****         GET_UINT32_BE( W[i], data, 4 * i );
 276              	 .loc 1 227 0 discriminator 3
 277 0040 0132     	 adds r2,r2,#1
 278              	.LVL14:
 279 0042 102A     	 cmp r2,#16
 280 0044 EDD1     	 bne .L15
 281 0046 DDF83480 	 ldr r8,[sp,#52]
 282 004a DDF82490 	 ldr r9,[sp,#36]
 283 004e 0C9B     	 ldr r3,[sp,#48]
 284 0050 0899     	 ldr r1,[sp,#32]
 285              	.LVL15:
 286 0052 0B9A     	 ldr r2,[sp,#44]
 287              	.LVL16:
 288 0054 0798     	 ldr r0,[sp,#28]
 289 0056 0A9D     	 ldr r5,[sp,#40]
 290 0058 069C     	 ldr r4,[sp,#24]
 291 005a DFF884E2 	 ldr lr,.L24+4
 292 005e 0DF13C0C 	 add ip,sp,#60
 293              	.L16:
 294 0062 5CF8047C 	 ldr r7,[ip,#-4]
 295 0066 5EF8046C 	 ldr r6,[lr,#-4]
 229:C:/Users/Yushev/git/optiga-trust-qi/externals/mbedtls/library\sha256.c **** 
 230:C:/Users/Yushev/git/optiga-trust-qi/externals/mbedtls/library\sha256.c ****     for( i = 0; i < 16; i += 8 )
 231:C:/Users/Yushev/git/optiga-trust-qi/externals/mbedtls/library\sha256.c ****     {
 232:C:/Users/Yushev/git/optiga-trust-qi/externals/mbedtls/library\sha256.c ****         P( A[0], A[1], A[2], A[3], A[4], A[5], A[6], A[7], W[i+0], K[i+0] );
 296              	 .loc 1 232 0 discriminator 3
 297 006a 4FEAB51A 	 ror r10,r5,#6
 298 006e 8AEAF52A 	 eor r10,r10,r5,ror#11
 299 0072 8AEA756A 	 eor r10,r10,r5,ror#25
 300 0076 3E44     	 add r6,r6,r7
 301 0078 5644     	 add r6,r6,r10
 302 007a 83EA020A 	 eor r10,r3,r2
 303 007e 0AEA050A 	 and r10,r10,r5
 304 0082 8AEA030A 	 eor r10,r10,r3
 305 0086 5644     	 add r6,r6,r10
 306 0088 4644     	 add r6,r6,r8
 307              	.LVL17:
 308 008a 40EA0408 	 orr r8,r0,r4
 309 008e 00EA0407 	 and r7,r0,r4
 310 0092 08EA0108 	 and r8,r8,r1
 311 0096 48EA0708 	 orr r8,r8,r7
 312 009a 4FEAB407 	 ror r7,r4,#2
 313 009e 87EA7437 	 eor r7,r7,r4,ror#13
 314 00a2 87EAB457 	 eor r7,r7,r4,ror#22
 315 00a6 B844     	 add r8,r8,r7
 316              	.LVL18:
 317 00a8 B044     	 add r8,r8,r6
 318              	.LVL19:
 319 00aa B144     	 add r9,r9,r6
 320 00ac DEF80070 	 ldr r7,[lr]
 321 00b0 DCF80060 	 ldr r6,[ip]
 322              	.LVL20:
 233:C:/Users/Yushev/git/optiga-trust-qi/externals/mbedtls/library\sha256.c ****         P( A[7], A[0], A[1], A[2], A[3], A[4], A[5], A[6], W[i+1], K[i+1] );
 323              	 .loc 1 233 0 discriminator 3
 324 00b4 82EA050A 	 eor r10,r2,r5
 325 00b8 3744     	 add r7,r7,r6
 326 00ba 09EA0A0A 	 and r10,r9,r10
 327 00be 8AEA020A 	 eor r10,r10,r2
 328 00c2 3B44     	 add r3,r3,r7
 329 00c4 03EB0A07 	 add r7,r3,r10
 330 00c8 4FEAB913 	 ror r3,r9,#6
 331 00cc 83EAF923 	 eor r3,r3,r9,ror#11
 332 00d0 83EA7963 	 eor r3,r3,r9,ror#25
 333 00d4 FE18     	 adds r6,r7,r3
 334              	.LVL21:
 335 00d6 48EA0403 	 orr r3,r8,r4
 336 00da 06EB010A 	 add r10,r6,r1
 337 00de 0340     	 ands r3,r3,r0
 338 00e0 08EA0401 	 and r1,r8,r4
 339 00e4 0B43     	 orrs r3,r3,r1
 340 00e6 4FEAB801 	 ror r1,r8,#2
 341 00ea 81EA7831 	 eor r1,r1,r8,ror#13
 342 00ee 81EAB851 	 eor r1,r1,r8,ror#22
 343 00f2 0B44     	 add r3,r3,r1
 344              	.LVL22:
 345 00f4 3344     	 add r3,r3,r6
 346              	.LVL23:
 347 00f6 DCF80410 	 ldr r1,[ip,#4]
 348 00fa DEF80460 	 ldr r6,[lr,#4]
 349              	.LVL24:
 234:C:/Users/Yushev/git/optiga-trust-qi/externals/mbedtls/library\sha256.c ****         P( A[6], A[7], A[0], A[1], A[2], A[3], A[4], A[5], W[i+2], K[i+2] );
 350              	 .loc 1 234 0 discriminator 3
 351 00fe 89EA0507 	 eor r7,r9,r5
 352              	.LVL25:
 353 0102 0E44     	 add r6,r6,r1
 354 0104 0AEA0707 	 and r7,r10,r7
 355 0108 6F40     	 eors r7,r7,r5
 356 010a 3244     	 add r2,r2,r6
 357 010c D619     	 adds r6,r2,r7
 358 010e 4FEABA12 	 ror r2,r10,#6
 359 0112 82EAFA22 	 eor r2,r2,r10,ror#11
 360 0116 82EA7A62 	 eor r2,r2,r10,ror#25
 361 011a B118     	 adds r1,r6,r2
 362              	.LVL26:
 363 011c 43EA0802 	 orr r2,r3,r8
 364 0120 0F18     	 adds r7,r1,r0
 365 0122 2240     	 ands r2,r2,r4
 366 0124 03EA0800 	 and r0,r3,r8
 367 0128 0243     	 orrs r2,r2,r0
 368 012a 4FEAB300 	 ror r0,r3,#2
 369 012e 80EA7330 	 eor r0,r0,r3,ror#13
 370 0132 80EAB350 	 eor r0,r0,r3,ror#22
 371 0136 0244     	 add r2,r2,r0
 372              	.LVL27:
 373 0138 0A44     	 add r2,r2,r1
 374              	.LVL28:
 375 013a DEF80800 	 ldr r0,[lr,#8]
 376 013e DCF80810 	 ldr r1,[ip,#8]
 377              	.LVL29:
 235:C:/Users/Yushev/git/optiga-trust-qi/externals/mbedtls/library\sha256.c ****         P( A[5], A[6], A[7], A[0], A[1], A[2], A[3], A[4], W[i+3], K[i+3] );
 378              	 .loc 1 235 0 discriminator 3
 379 0142 8AEA0906 	 eor r6,r10,r9
 380              	.LVL30:
 381 0146 0144     	 add r1,r1,r0
 382 0148 3E40     	 ands r6,r6,r7
 383 014a 86EA0906 	 eor r6,r6,r9
 384 014e 0D44     	 add r5,r5,r1
 385 0150 3544     	 add r5,r5,r6
 386 0152 4FEAB716 	 ror r6,r7,#6
 387 0156 86EAF726 	 eor r6,r6,r7,ror#11
 388 015a 86EA7766 	 eor r6,r6,r7,ror#25
 389 015e A919     	 adds r1,r5,r6
 390              	.LVL31:
 391 0160 42EA0305 	 orr r5,r2,r3
 392 0164 05EA0805 	 and r5,r5,r8
 393 0168 02EA0306 	 and r6,r2,r3
 394 016c 2E43     	 orrs r6,r6,r5
 395 016e 4FEAB205 	 ror r5,r2,#2
 396 0172 85EA7235 	 eor r5,r5,r2,ror#13
 397 0176 85EAB250 	 eor r0,r5,r2,ror#22
 398 017a 3518     	 adds r5,r6,r0
 399              	.LVL32:
 400 017c 6E18     	 adds r6,r5,r1
 401 017e 01EB040B 	 add fp,r1,r4
 402 0182 DCF80C00 	 ldr r0,[ip,#12]
 403 0186 DEF80C10 	 ldr r1,[lr,#12]
 404              	.LVL33:
 236:C:/Users/Yushev/git/optiga-trust-qi/externals/mbedtls/library\sha256.c ****         P( A[4], A[5], A[6], A[7], A[0], A[1], A[2], A[3], W[i+4], K[i+4] );
 405              	 .loc 1 236 0 discriminator 3
 406 018a 87EA0A04 	 eor r4,r7,r10
 407 018e 0844     	 add r0,r0,r1
 408 0190 0BEA0404 	 and r4,fp,r4
 409 0194 84EA0A04 	 eor r4,r4,r10
 410 0198 8144     	 add r9,r9,r0
 411 019a 09EB0400 	 add r0,r9,r4
 412 019e 4FEABB19 	 ror r9,fp,#6
 413 01a2 89EAFB29 	 eor r9,r9,fp,ror#11
 414 01a6 89EA7B69 	 eor r9,r9,fp,ror#25
 415 01aa 00EB0901 	 add r1,r0,r9
 416              	.LVL34:
 417 01ae 46EA0209 	 orr r9,r6,r2
 418 01b2 06EA0200 	 and r0,r6,r2
 419 01b6 09EA0309 	 and r9,r9,r3
 420 01ba 49EA0009 	 orr r9,r9,r0
 421 01be 4FEAB600 	 ror r0,r6,#2
 422 01c2 80EA7630 	 eor r0,r0,r6,ror#13
 423 01c6 80EAB650 	 eor r0,r0,r6,ror#22
 424 01ca 8144     	 add r9,r9,r0
 425              	.LVL35:
 426 01cc 8944     	 add r9,r9,r1
 427              	.LVL36:
 428 01ce 8844     	 add r8,r8,r1
 429 01d0 DCF81000 	 ldr r0,[ip,#16]
 430 01d4 DEF81010 	 ldr r1,[lr,#16]
 431              	.LVL37:
 237:C:/Users/Yushev/git/optiga-trust-qi/externals/mbedtls/library\sha256.c ****         P( A[3], A[4], A[5], A[6], A[7], A[0], A[1], A[2], W[i+5], K[i+5] );
 432              	 .loc 1 237 0 discriminator 3
 433 01d8 8BEA0704 	 eor r4,fp,r7
 434 01dc 0844     	 add r0,r0,r1
 435 01de 08EA0404 	 and r4,r8,r4
 436 01e2 4FEAB811 	 ror r1,r8,#6
 437 01e6 7C40     	 eors r4,r4,r7
 438 01e8 8244     	 add r10,r10,r0
 439 01ea 81EAF821 	 eor r1,r1,r8,ror#11
 440 01ee 0AEB0400 	 add r0,r10,r4
 441 01f2 81EA7861 	 eor r1,r1,r8,ror#25
 442 01f6 00EB010A 	 add r10,r0,r1
 443              	.LVL38:
 444 01fa 49EA0601 	 orr r1,r9,r6
 445 01fe 09EA0600 	 and r0,r9,r6
 446 0202 1140     	 ands r1,r1,r2
 447 0204 0143     	 orrs r1,r1,r0
 448 0206 4FEAB900 	 ror r0,r9,#2
 449 020a 80EA7930 	 eor r0,r0,r9,ror#13
 450 020e 80EAB950 	 eor r0,r0,r9,ror#22
 451 0212 0144     	 add r1,r1,r0
 452              	.LVL39:
 453 0214 DCF81440 	 ldr r4,[ip,#20]
 454 0218 DEF81400 	 ldr r0,[lr,#20]
 455 021c 5344     	 add r3,r3,r10
 238:C:/Users/Yushev/git/optiga-trust-qi/externals/mbedtls/library\sha256.c ****         P( A[2], A[3], A[4], A[5], A[6], A[7], A[0], A[1], W[i+6], K[i+6] );
 456              	 .loc 1 238 0 discriminator 3
 457 021e 88EA0B05 	 eor r5,r8,fp
 458 0222 0444     	 add r4,r4,r0
 459 0224 1D40     	 ands r5,r5,r3
 460 0226 4FEAB310 	 ror r0,r3,#6
 461 022a 85EA0B05 	 eor r5,r5,fp
 462 022e 2744     	 add r7,r7,r4
 463 0230 80EAF320 	 eor r0,r0,r3,ror#11
 237:C:/Users/Yushev/git/optiga-trust-qi/externals/mbedtls/library\sha256.c ****         P( A[3], A[4], A[5], A[6], A[7], A[0], A[1], A[2], W[i+5], K[i+5] );
 464              	 .loc 1 237 0 discriminator 3
 465 0234 5144     	 add r1,r1,r10
 466              	.LVL40:
 467 0236 7C19     	 adds r4,r7,r5
 468              	 .loc 1 238 0 discriminator 3
 469 0238 80EA7360 	 eor r0,r0,r3,ror#25
 470 023c 2718     	 adds r7,r4,r0
 471              	.LVL41:
 472 023e 41EA0900 	 orr r0,r1,r9
 473 0242 3040     	 ands r0,r0,r6
 474 0244 01EA0904 	 and r4,r1,r9
 475 0248 2043     	 orrs r0,r0,r4
 476 024a 4FEAB104 	 ror r4,r1,#2
 477 024e 84EA7134 	 eor r4,r4,r1,ror#13
 478 0252 84EAB154 	 eor r4,r4,r1,ror#22
 479 0256 2044     	 add r0,r0,r4
 480              	.LVL42:
 481 0258 DCF81850 	 ldr r5,[ip,#24]
 482 025c DEF81840 	 ldr r4,[lr,#24]
 483 0260 3844     	 add r0,r0,r7
 484              	.LVL43:
 485 0262 3A44     	 add r2,r2,r7
 239:C:/Users/Yushev/git/optiga-trust-qi/externals/mbedtls/library\sha256.c ****         P( A[1], A[2], A[3], A[4], A[5], A[6], A[7], A[0], W[i+7], K[i+7] );
 486              	 .loc 1 239 0 discriminator 3
 487 0264 83EA0807 	 eor r7,r3,r8
 488              	.LVL44:
 489 0268 2544     	 add r5,r5,r4
 490 026a 1740     	 ands r7,r7,r2
 491 026c 4FEAB214 	 ror r4,r2,#6
 492 0270 AB44     	 add fp,fp,r5
 493 0272 87EA0807 	 eor r7,r7,r8
 494 0276 84EAF224 	 eor r4,r4,r2,ror#11
 495 027a 0BEB0705 	 add r5,fp,r7
 496 027e 84EA7264 	 eor r4,r4,r2,ror#25
 497 0282 05EB040B 	 add fp,r5,r4
 498              	.LVL45:
 499 0286 40EA0104 	 orr r4,r0,r1
 500 028a 0BEB0605 	 add r5,fp,r6
 501 028e 04EA0904 	 and r4,r4,r9
 502 0292 00EA0106 	 and r6,r0,r1
 503 0296 3443     	 orrs r4,r4,r6
 504 0298 4FEAB006 	 ror r6,r0,#2
 505 029c 86EA7036 	 eor r6,r6,r0,ror#13
 506 02a0 86EAB056 	 eor r6,r6,r0,ror#22
 507 02a4 3444     	 add r4,r4,r6
 508              	.LVL46:
 230:C:/Users/Yushev/git/optiga-trust-qi/externals/mbedtls/library\sha256.c ****     {
 509              	 .loc 1 230 0 discriminator 3
 510 02a6 0D4E     	 ldr r6,.L24
 511 02a8 0EF1200E 	 add lr,lr,#32
 512 02ac B645     	 cmp lr,r6
 513              	 .loc 1 239 0 discriminator 3
 514 02ae 5C44     	 add r4,r4,fp
 515              	.LVL47:
 516 02b0 0CF1200C 	 add ip,ip,#32
 230:C:/Users/Yushev/git/optiga-trust-qi/externals/mbedtls/library\sha256.c ****     {
 517              	 .loc 1 230 0 discriminator 3
 518 02b4 7FF4D5AE 	 bne .L16
 230:C:/Users/Yushev/git/optiga-trust-qi/externals/mbedtls/library\sha256.c ****     {
 519              	 .loc 1 230 0 is_stmt 0
 520 02b8 0027     	 movs r7,#0
 521 02ba DFF828A0 	 ldr r10,.L24+8
 522 02be CDF83480 	 str r8,[sp,#52]
 523 02c2 0A95     	 str r5,[sp,#40]
 524 02c4 0B92     	 str r2,[sp,#44]
 525 02c6 0C93     	 str r3,[sp,#48]
 526 02c8 0694     	 str r4,[sp,#24]
 527 02ca 0790     	 str r0,[sp,#28]
 528 02cc 0891     	 str r1,[sp,#32]
 529 02ce 4646     	 mov r6,r8
 530 02d0 0091     	 str r1,[sp]
 531 02d2 0DF1380E 	 add lr,sp,#56
 532 02d6 0497     	 str r7,[sp,#16]
 533 02d8 06E0     	 b .L25
 534              	.L26:
 535 02da 00BF     	 .align 2
 536              	.L24:
 537 02dc 44000000 	 .word .LANCHOR0+68
 538 02e0 04000000 	 .word .LANCHOR0+4
 539 02e4 00000000 	 .word .LANCHOR0
 540              	.L25:
 541              	.LVL48:
 542              	.L17:
 543 02e8 0DF13808 	 add r8,sp,#56
 544 02ec 049F     	 ldr r7,[sp,#16]
 545 02ee DEF82410 	 ldr r1,[lr,#36]
 546 02f2 58F82770 	 ldr r7,[r8,r7,lsl#2]
 240:C:/Users/Yushev/git/optiga-trust-qi/externals/mbedtls/library\sha256.c ****     }
 241:C:/Users/Yushev/git/optiga-trust-qi/externals/mbedtls/library\sha256.c **** 
 242:C:/Users/Yushev/git/optiga-trust-qi/externals/mbedtls/library\sha256.c ****     for( i = 16; i < 64; i += 8 )
 243:C:/Users/Yushev/git/optiga-trust-qi/externals/mbedtls/library\sha256.c ****     {
 244:C:/Users/Yushev/git/optiga-trust-qi/externals/mbedtls/library\sha256.c ****         P( A[0], A[1], A[2], A[3], A[4], A[5], A[6], A[7], R(i+0), K[i+0] );
 547              	 .loc 1 244 0 is_stmt 1 discriminator 3
 548 02f6 DEF804C0 	 ldr ip,[lr,#4]
 549 02fa 0F44     	 add r7,r7,r1
 550 02fc DEF83810 	 ldr r1,[lr,#56]
 551 0300 4FEA7148 	 ror r8,r1,#17
 552 0304 88EAF148 	 eor r8,r8,r1,ror#19
 553 0308 88EA9128 	 eor r8,r8,r1,lsr#10
 554 030c 4744     	 add r7,r7,r8
 555 030e 4FEAFC18 	 ror r8,ip,#7
 556 0312 88EABC48 	 eor r8,r8,ip,ror#18
 557 0316 88EADC08 	 eor r8,r8,ip,lsr#3
 558 031a 07EB0801 	 add r1,r7,r8
 559 031e 4FEAB518 	 ror r8,r5,#6
 560 0322 88EAF528 	 eor r8,r8,r5,ror#11
 561 0326 88EA756B 	 eor fp,r8,r5,ror#25
 562              	.LVL49:
 563 032a 83EA0208 	 eor r8,r3,r2
 564 032e 08EA0508 	 and r8,r8,r5
 565 0332 88EA0307 	 eor r7,r8,r3
 566 0336 0BEB0708 	 add r8,fp,r7
 567 033a DAF84070 	 ldr r7,[r10,#64]
 568 033e 0391     	 str r1,[sp,#12]
 569 0340 B844     	 add r8,r8,r7
 570 0342 8844     	 add r8,r8,r1
 571 0344 4644     	 add r6,r6,r8
 572              	.LVL50:
 573 0346 CEF84010 	 str r1,[lr,#64]
 574 034a 09EB0601 	 add r1,r9,r6
 575 034e 0191     	 str r1,[sp,#4]
 576 0350 0099     	 ldr r1,[sp]
 577 0352 40EA0408 	 orr r8,r0,r4
 578 0356 00EA0407 	 and r7,r0,r4
 579 035a 08EA0108 	 and r8,r8,r1
 580 035e DEF82810 	 ldr r1,[lr,#40]
 581 0362 48EA0708 	 orr r8,r8,r7
 582 0366 4FEAB407 	 ror r7,r4,#2
 583 036a 8C44     	 add ip,ip,r1
 584 036c 87EA7437 	 eor r7,r7,r4,ror#13
 245:C:/Users/Yushev/git/optiga-trust-qi/externals/mbedtls/library\sha256.c ****         P( A[7], A[0], A[1], A[2], A[3], A[4], A[5], A[6], R(i+1), K[i+1] );
 585              	 .loc 1 245 0 discriminator 3
 586 0370 DEF83C10 	 ldr r1,[lr,#60]
 244:C:/Users/Yushev/git/optiga-trust-qi/externals/mbedtls/library\sha256.c ****         P( A[7], A[0], A[1], A[2], A[3], A[4], A[5], A[6], R(i+1), K[i+1] );
 587              	 .loc 1 244 0 discriminator 3
 588 0374 87EAB457 	 eor r7,r7,r4,ror#22
 589 0378 B844     	 add r8,r8,r7
 590              	.LVL51:
 591              	 .loc 1 245 0 discriminator 3
 592 037a 4FEA7147 	 ror r7,r1,#17
 244:C:/Users/Yushev/git/optiga-trust-qi/externals/mbedtls/library\sha256.c ****         P( A[7], A[0], A[1], A[2], A[3], A[4], A[5], A[6], R(i+1), K[i+1] );
 593              	 .loc 1 244 0 discriminator 3
 594 037e B044     	 add r8,r8,r6
 595              	.LVL52:
 596              	 .loc 1 245 0 discriminator 3
 597 0380 87EAF147 	 eor r7,r7,r1,ror#19
 598 0384 DEF80860 	 ldr r6,[lr,#8]
 599              	.LVL53:
 600 0388 87EA9127 	 eor r7,r7,r1,lsr#10
 601 038c 6744     	 add r7,r7,ip
 602 038e DAF84410 	 ldr r1,[r10,#68]
 603 0392 4FEAF61C 	 ror ip,r6,#7
 604 0396 8CEAB64C 	 eor ip,ip,r6,ror#18
 605 039a 8CEAD60C 	 eor ip,ip,r6,lsr#3
 606 039e 0B44     	 add r3,r3,r1
 607 03a0 0199     	 ldr r1,[sp,#4]
 608 03a2 BC44     	 add ip,ip,r7
 609 03a4 82EA0507 	 eor r7,r2,r5
 610 03a8 0F40     	 ands r7,r7,r1
 611 03aa 6344     	 add r3,r3,ip
 612 03ac 5740     	 eors r7,r7,r2
 613 03ae 03EB0709 	 add r9,r3,r7
 614 03b2 4FEAB113 	 ror r3,r1,#6
 615 03b6 83EAF123 	 eor r3,r3,r1,ror#11
 616 03ba 83EA7163 	 eor r3,r3,r1,ror#25
 617 03be 09EB0307 	 add r7,r9,r3
 618              	.LVL54:
 619 03c2 009B     	 ldr r3,[sp]
 246:C:/Users/Yushev/git/optiga-trust-qi/externals/mbedtls/library\sha256.c ****         P( A[6], A[7], A[0], A[1], A[2], A[3], A[4], A[5], R(i+2), K[i+2] );
 620              	 .loc 1 246 0 discriminator 3
 621 03c4 DEF80C90 	 ldr r9,[lr,#12]
 245:C:/Users/Yushev/git/optiga-trust-qi/externals/mbedtls/library\sha256.c ****         P( A[7], A[0], A[1], A[2], A[3], A[4], A[5], A[6], R(i+1), K[i+1] );
 622              	 .loc 1 245 0 discriminator 3
 623 03c8 CEF844C0 	 str ip,[lr,#68]
 624 03cc 48EA0401 	 orr r1,r8,r4
 625 03d0 3B44     	 add r3,r3,r7
 626 03d2 0093     	 str r3,[sp]
 627 03d4 01EA0003 	 and r3,r1,r0
 628 03d8 08EA0401 	 and r1,r8,r4
 629 03dc 1943     	 orrs r1,r1,r3
 630 03de 4FEAB803 	 ror r3,r8,#2
 631 03e2 83EA7833 	 eor r3,r3,r8,ror#13
 632 03e6 83EAB853 	 eor r3,r3,r8,ror#22
 633 03ea 0B44     	 add r3,r3,r1
 634              	.LVL55:
 635 03ec DEF82C10 	 ldr r1,[lr,#44]
 636 03f0 3144     	 add r1,r1,r6
 637              	 .loc 1 246 0 discriminator 3
 638 03f2 039E     	 ldr r6,[sp,#12]
 245:C:/Users/Yushev/git/optiga-trust-qi/externals/mbedtls/library\sha256.c ****         P( A[7], A[0], A[1], A[2], A[3], A[4], A[5], A[6], R(i+1), K[i+1] );
 639              	 .loc 1 245 0 discriminator 3
 640 03f4 3B44     	 add r3,r3,r7
 641              	.LVL56:
 642              	 .loc 1 246 0 discriminator 3
 643 03f6 039F     	 ldr r7,[sp,#12]
 644              	.LVL57:
 645 03f8 4FEA7646 	 ror r6,r6,#17
 646 03fc 86EAF746 	 eor r6,r6,r7,ror#19
 647 0400 86EA9727 	 eor r7,r6,r7,lsr#10
 648 0404 CE19     	 adds r6,r1,r7
 649 0406 4FEAF911 	 ror r1,r9,#7
 650 040a 81EAB941 	 eor r1,r1,r9,ror#18
 651 040e DAF84870 	 ldr r7,[r10,#72]
 652 0412 81EAD901 	 eor r1,r1,r9,lsr#3
 653 0416 3144     	 add r1,r1,r6
 654 0418 019E     	 ldr r6,[sp,#4]
 655 041a CEF84810 	 str r1,[lr,#72]
 656 041e 3A44     	 add r2,r2,r7
 657 0420 009F     	 ldr r7,[sp]
 658 0422 6E40     	 eors r6,r6,r5
 659 0424 3E40     	 ands r6,r6,r7
 660 0426 0A44     	 add r2,r2,r1
 661 0428 6E40     	 eors r6,r6,r5
 662 042a 1644     	 add r6,r6,r2
 663 042c 4FEAB712 	 ror r2,r7,#6
 664 0430 82EAF722 	 eor r2,r2,r7,ror#11
 665 0434 82EA7762 	 eor r2,r2,r7,ror#25
 666 0438 B718     	 adds r7,r6,r2
 667              	.LVL58:
 668 043a 3A18     	 adds r2,r7,r0
 669 043c 43EA0800 	 orr r0,r3,r8
 670 0440 0292     	 str r2,[sp,#8]
 671 0442 00EA0402 	 and r2,r0,r4
 672 0446 03EA0800 	 and r0,r3,r8
 673 044a 1043     	 orrs r0,r0,r2
 247:C:/Users/Yushev/git/optiga-trust-qi/externals/mbedtls/library\sha256.c ****         P( A[5], A[6], A[7], A[0], A[1], A[2], A[3], A[4], R(i+3), K[i+3] );
 674              	 .loc 1 247 0 discriminator 3
 675 044c 4FEA7C46 	 ror r6,ip,#17
 246:C:/Users/Yushev/git/optiga-trust-qi/externals/mbedtls/library\sha256.c ****         P( A[6], A[7], A[0], A[1], A[2], A[3], A[4], A[5], R(i+2), K[i+2] );
 676              	 .loc 1 246 0 discriminator 3
 677 0450 4FEAB302 	 ror r2,r3,#2
 678 0454 82EA7332 	 eor r2,r2,r3,ror#13
 679              	 .loc 1 247 0 discriminator 3
 680 0458 86EAFC46 	 eor r6,r6,ip,ror#19
 681 045c 86EA9C2C 	 eor ip,r6,ip,lsr#10
 246:C:/Users/Yushev/git/optiga-trust-qi/externals/mbedtls/library\sha256.c ****         P( A[6], A[7], A[0], A[1], A[2], A[3], A[4], A[5], R(i+2), K[i+2] );
 682              	 .loc 1 246 0 discriminator 3
 683 0460 82EAB352 	 eor r2,r2,r3,ror#22
 684 0464 DAF84C60 	 ldr r6,[r10,#76]
 685 0468 0244     	 add r2,r2,r0
 686              	.LVL59:
 687 046a DEF83000 	 ldr r0,[lr,#48]
 688 046e 3544     	 add r5,r5,r6
 689              	 .loc 1 247 0 discriminator 3
 690 0470 009E     	 ldr r6,[sp]
 691 0472 4844     	 add r0,r0,r9
 246:C:/Users/Yushev/git/optiga-trust-qi/externals/mbedtls/library\sha256.c ****         P( A[6], A[7], A[0], A[1], A[2], A[3], A[4], A[5], R(i+2), K[i+2] );
 692              	 .loc 1 246 0 discriminator 3
 693 0474 3A44     	 add r2,r2,r7
 694              	.LVL60:
 695 0476 6044     	 add r0,r0,ip
 696              	 .loc 1 247 0 discriminator 3
 697 0478 DEF81070 	 ldr r7,[lr,#16]
 698              	.LVL61:
 699 047c B446     	 mov ip,r6
 700 047e 019E     	 ldr r6,[sp,#4]
 701 0480 4FEAF71B 	 ror fp,r7,#7
 702 0484 8CEA060C 	 eor ip,ip,r6
 703 0488 029E     	 ldr r6,[sp,#8]
 704 048a 8BEAB74B 	 eor fp,fp,r7,ror#18
 705 048e 8BEAD70B 	 eor fp,fp,r7,lsr#3
 706 0492 06EA0C0C 	 and ip,r6,ip
 707 0496 019E     	 ldr r6,[sp,#4]
 708 0498 5844     	 add r0,r0,fp
 709 049a 0544     	 add r5,r5,r0
 710 049c 8CEA060C 	 eor ip,ip,r6
 711 04a0 AC44     	 add ip,ip,r5
 712 04a2 029D     	 ldr r5,[sp,#8]
 713 04a4 029E     	 ldr r6,[sp,#8]
 714 04a6 CEF84C00 	 str r0,[lr,#76]
 715 04aa 4FEAB515 	 ror r5,r5,#6
 716 04ae 85EAF625 	 eor r5,r5,r6,ror#11
 717 04b2 85EA7665 	 eor r5,r5,r6,ror#25
 718 04b6 0CEB0506 	 add r6,ip,r5
 719              	.LVL62:
 720 04ba 42EA0305 	 orr r5,r2,r3
 721 04be 06EB040B 	 add fp,r6,r4
 722 04c2 05EA0805 	 and r5,r5,r8
 723 04c6 02EA0304 	 and r4,r2,r3
 724 04ca 2543     	 orrs r5,r5,r4
 725 04cc 4FEAB204 	 ror r4,r2,#2
 726 04d0 84EA7234 	 eor r4,r4,r2,ror#13
 727 04d4 84EAB254 	 eor r4,r4,r2,ror#22
 728 04d8 2544     	 add r5,r5,r4
 729              	.LVL63:
 248:C:/Users/Yushev/git/optiga-trust-qi/externals/mbedtls/library\sha256.c ****         P( A[4], A[5], A[6], A[7], A[0], A[1], A[2], A[3], R(i+4), K[i+4] );
 730              	 .loc 1 248 0 discriminator 3
 731 04da DEF81440 	 ldr r4,[lr,#20]
 247:C:/Users/Yushev/git/optiga-trust-qi/externals/mbedtls/library\sha256.c ****         P( A[5], A[6], A[7], A[0], A[1], A[2], A[3], A[4], R(i+3), K[i+3] );
 732              	 .loc 1 247 0 discriminator 3
 733 04de 3544     	 add r5,r5,r6
 734              	.LVL64:
 735              	 .loc 1 248 0 discriminator 3
 736 04e0 4FEA714C 	 ror ip,r1,#17
 737 04e4 DEF83460 	 ldr r6,[lr,#52]
 738              	.LVL65:
 739 04e8 8CEAF14C 	 eor ip,ip,r1,ror#19
 740 04ec 4FEAF419 	 ror r9,r4,#7
 741 04f0 8CEA9121 	 eor r1,ip,r1,lsr#10
 742 04f4 3744     	 add r7,r7,r6
 743 04f6 89EAB449 	 eor r9,r9,r4,ror#18
 744 04fa 89EAD409 	 eor r9,r9,r4,lsr#3
 745 04fe 0F44     	 add r7,r7,r1
 746 0500 DAF85010 	 ldr r1,[r10,#80]
 747 0504 019E     	 ldr r6,[sp,#4]
 748 0506 4F44     	 add r7,r7,r9
 749 0508 3944     	 add r1,r1,r7
 750 050a 01EB0609 	 add r9,r1,r6
 751 050e 0299     	 ldr r1,[sp,#8]
 752 0510 009E     	 ldr r6,[sp]
 753 0512 CEF85070 	 str r7,[lr,#80]
 754 0516 4E40     	 eors r6,r6,r1
 755 0518 0099     	 ldr r1,[sp]
 756 051a 0BEA0606 	 and r6,fp,r6
 757 051e 4E40     	 eors r6,r6,r1
 758 0520 4E44     	 add r6,r6,r9
 759 0522 4FEABB19 	 ror r9,fp,#6
 760 0526 89EAFB29 	 eor r9,r9,fp,ror#11
 761 052a 89EA7B69 	 eor r9,r9,fp,ror#25
 762 052e 06EB0901 	 add r1,r6,r9
 763              	.LVL66:
 764 0532 45EA0209 	 orr r9,r5,r2
 765 0536 05EA020C 	 and ip,r5,r2
 766 053a 09EA0309 	 and r9,r9,r3
 767 053e 49EA0C09 	 orr r9,r9,ip
 768 0542 4FEAB50C 	 ror ip,r5,#2
 769 0546 8CEA753C 	 eor ip,ip,r5,ror#13
 770 054a 8CEAB55C 	 eor ip,ip,r5,ror#22
 771 054e E144     	 add r9,r9,ip
 772              	.LVL67:
 773 0550 01EB0806 	 add r6,r1,r8
 774 0554 8944     	 add r9,r9,r1
 775              	.LVL68:
 776 0556 DEF83810 	 ldr r1,[lr,#56]
 777              	.LVL69:
 249:C:/Users/Yushev/git/optiga-trust-qi/externals/mbedtls/library\sha256.c ****         P( A[3], A[4], A[5], A[6], A[7], A[0], A[1], A[2], R(i+5), K[i+5] );
 778              	 .loc 1 249 0 discriminator 3
 779 055a DEF81880 	 ldr r8,[lr,#24]
 780 055e 0C44     	 add r4,r4,r1
 781 0560 4FEA7041 	 ror r1,r0,#17
 782 0564 81EAF041 	 eor r1,r1,r0,ror#19
 783 0568 4FEAF81C 	 ror ip,r8,#7
 784 056c 81EA9020 	 eor r0,r1,r0,lsr#10
 785 0570 8CEAB84C 	 eor ip,ip,r8,ror#18
 786 0574 8CEAD80C 	 eor ip,ip,r8,lsr#3
 787 0578 0444     	 add r4,r4,r0
 788 057a DAF85400 	 ldr r0,[r10,#84]
 789 057e 0099     	 ldr r1,[sp]
 790 0580 6444     	 add r4,r4,ip
 791 0582 2044     	 add r0,r0,r4
 792 0584 4118     	 adds r1,r0,r1
 793 0586 0298     	 ldr r0,[sp,#8]
 794 0588 CEF85440 	 str r4,[lr,#84]
 795 058c 8BEA000C 	 eor ip,fp,r0
 796 0590 06EA0C0C 	 and ip,r6,ip
 797 0594 8CEA000C 	 eor ip,ip,r0
 798 0598 8C44     	 add ip,ip,r1
 799 059a 4FEAB611 	 ror r1,r6,#6
 800 059e 81EAF621 	 eor r1,r1,r6,ror#11
 801 05a2 81EA7661 	 eor r1,r1,r6,ror#25
 802 05a6 0CEB0100 	 add r0,ip,r1
 803              	.LVL70:
 804 05aa 49EA050C 	 orr ip,r9,r5
 805 05ae 0CEA0201 	 and r1,ip,r2
 806 05b2 09EA050C 	 and ip,r9,r5
 807 05b6 41EA0C0C 	 orr ip,r1,ip
 808 05ba 4FEAB901 	 ror r1,r9,#2
 809 05be 81EA7931 	 eor r1,r1,r9,ror#13
 810 05c2 81EAB951 	 eor r1,r1,r9,ror#22
 811 05c6 6144     	 add r1,r1,ip
 812              	.LVL71:
 813 05c8 0144     	 add r1,r1,r0
 814              	.LVL72:
 815 05ca 0344     	 add r3,r3,r0
 816 05cc 0091     	 str r1,[sp]
 250:C:/Users/Yushev/git/optiga-trust-qi/externals/mbedtls/library\sha256.c ****         P( A[2], A[3], A[4], A[5], A[6], A[7], A[0], A[1], R(i+6), K[i+6] );
 817              	 .loc 1 250 0 discriminator 3
 818 05ce 4FEA7740 	 ror r0,r7,#17
 819              	.LVL73:
 820 05d2 DEF83C10 	 ldr r1,[lr,#60]
 821 05d6 DEF81CC0 	 ldr ip,[lr,#28]
 822 05da 80EAF740 	 eor r0,r0,r7,ror#19
 823 05de 80EA9727 	 eor r7,r0,r7,lsr#10
 824 05e2 8844     	 add r8,r8,r1
 825 05e4 B844     	 add r8,r8,r7
 826 05e6 4FEAFC17 	 ror r7,ip,#7
 827 05ea 87EABC47 	 eor r7,r7,ip,ror#18
 828 05ee 87EADC00 	 eor r0,r7,ip,lsr#3
 829 05f2 08EB0007 	 add r7,r8,r0
 830 05f6 DAF85800 	 ldr r0,[r10,#88]
 831 05fa 0299     	 ldr r1,[sp,#8]
 832 05fc CEF85870 	 str r7,[lr,#88]
 833 0600 3844     	 add r0,r0,r7
 834 0602 86EA0B08 	 eor r8,r6,fp
 835 0606 0844     	 add r0,r0,r1
 836 0608 03EA0808 	 and r8,r3,r8
 837 060c 0099     	 ldr r1,[sp]
 838 060e 4FEAB317 	 ror r7,r3,#6
 839 0612 88EA0B08 	 eor r8,r8,fp
 840 0616 87EAF327 	 eor r7,r7,r3,ror#11
 841 061a 4044     	 add r0,r0,r8
 842 061c 87EA7367 	 eor r7,r7,r3,ror#25
 843 0620 41EA0908 	 orr r8,r1,r9
 844 0624 0744     	 add r7,r7,r0
 845              	.LVL74:
 846 0626 08EA0500 	 and r0,r8,r5
 847 062a 01EA0908 	 and r8,r1,r9
 848 062e 40EA0808 	 orr r8,r0,r8
 849 0632 4FEAB100 	 ror r0,r1,#2
 850 0636 80EA7130 	 eor r0,r0,r1,ror#13
 851 063a 80EAB150 	 eor r0,r0,r1,ror#22
 852 063e 4044     	 add r0,r0,r8
 853              	.LVL75:
 854 0640 3844     	 add r0,r0,r7
 855              	.LVL76:
 856 0642 3A44     	 add r2,r2,r7
 251:C:/Users/Yushev/git/optiga-trust-qi/externals/mbedtls/library\sha256.c ****         P( A[1], A[2], A[3], A[4], A[5], A[6], A[7], A[0], R(i+7), K[i+7] );
 857              	 .loc 1 251 0 discriminator 3
 858 0644 4FEA7448 	 ror r8,r4,#17
 859 0648 DEF82070 	 ldr r7,[lr,#32]
 860              	.LVL77:
 861 064c 0399     	 ldr r1,[sp,#12]
 862              	.LVL78:
 863 064e 88EAF448 	 eor r8,r8,r4,ror#19
 864 0652 88EA9424 	 eor r4,r8,r4,lsr#10
 865 0656 4FEAF718 	 ror r8,r7,#7
 866 065a 8C44     	 add ip,ip,r1
 867 065c 88EAB748 	 eor r8,r8,r7,ror#18
 868 0660 A444     	 add ip,ip,r4
 869 0662 88EAD707 	 eor r7,r8,r7,lsr#3
 870 0666 DAF85C40 	 ldr r4,[r10,#92]
 871 066a 0099     	 ldr r1,[sp]
 872 066c 6744     	 add r7,r7,ip
 873 066e 3C44     	 add r4,r4,r7
 874 0670 83EA060C 	 eor ip,r3,r6
 875 0674 5C44     	 add r4,r4,fp
 876 0676 02EA0C0C 	 and ip,r2,ip
 877 067a 4FEAB21B 	 ror fp,r2,#6
 878              	.LVL79:
 879 067e 8CEA060C 	 eor ip,ip,r6
 880 0682 8BEAF22B 	 eor fp,fp,r2,ror#11
 881 0686 6444     	 add r4,r4,ip
 882 0688 8BEA726B 	 eor fp,fp,r2,ror#25
 883 068c A344     	 add fp,fp,r4
 884              	.LVL80:
 885 068e 40EA0104 	 orr r4,r0,r1
 886 0692 CEF85C70 	 str r7,[lr,#92]
 887 0696 04EA0904 	 and r4,r4,r9
 888 069a 00EA0107 	 and r7,r0,r1
 889 069e 3C43     	 orrs r4,r4,r7
 890 06a0 0499     	 ldr r1,[sp,#16]
 891 06a2 4FEAB007 	 ror r7,r0,#2
 892 06a6 87EA7037 	 eor r7,r7,r0,ror#13
 893 06aa 0831     	 adds r1,r1,#8
 894 06ac 87EAB057 	 eor r7,r7,r0,ror#22
 895 06b0 3C44     	 add r4,r4,r7
 896              	.LVL81:
 242:C:/Users/Yushev/git/optiga-trust-qi/externals/mbedtls/library\sha256.c ****     {
 897              	 .loc 1 242 0 discriminator 3
 898 06b2 3029     	 cmp r1,#48
 899              	 .loc 1 251 0 discriminator 3
 900 06b4 5D44     	 add r5,r5,fp
 901 06b6 5C44     	 add r4,r4,fp
 902              	.LVL82:
 903 06b8 0491     	 str r1,[sp,#16]
 904              	.LVL83:
 905 06ba 0AF1200A 	 add r10,r10,#32
 906 06be 0EF1200E 	 add lr,lr,#32
 242:C:/Users/Yushev/git/optiga-trust-qi/externals/mbedtls/library\sha256.c ****     {
 907              	 .loc 1 242 0 discriminator 3
 908 06c2 7FF411AE 	 bne .L17
 909 06c6 0C93     	 str r3,[sp,#48]
 910 06c8 009B     	 ldr r3,[sp]
 911 06ca 0893     	 str r3,[sp,#32]
 912 06cc 0D96     	 str r6,[sp,#52]
 913 06ce 0A95     	 str r5,[sp,#40]
 914 06d0 0B92     	 str r2,[sp,#44]
 915 06d2 0694     	 str r4,[sp,#24]
 916 06d4 0790     	 str r0,[sp,#28]
 917 06d6 CDF82490 	 str r9,[sp,#36]
 242:C:/Users/Yushev/git/optiga-trust-qi/externals/mbedtls/library\sha256.c ****     {
 918              	 .loc 1 242 0 is_stmt 0
 919 06da 0023     	 movs r3,#0
 920              	.LVL84:
 921              	.L18:
 252:C:/Users/Yushev/git/optiga-trust-qi/externals/mbedtls/library\sha256.c ****     }
 253:C:/Users/Yushev/git/optiga-trust-qi/externals/mbedtls/library\sha256.c **** #endif /* MBEDTLS_SHA256_SMALLER */
 254:C:/Users/Yushev/git/optiga-trust-qi/externals/mbedtls/library\sha256.c **** 
 255:C:/Users/Yushev/git/optiga-trust-qi/externals/mbedtls/library\sha256.c ****     for( i = 0; i < 8; i++ )
 256:C:/Users/Yushev/git/optiga-trust-qi/externals/mbedtls/library\sha256.c ****         ctx->state[i] += A[i];
 922              	 .loc 1 256 0 is_stmt 1 discriminator 3
 923 06dc 059A     	 ldr r2,[sp,#20]
 924 06de 52F8041F 	 ldr r1,[r2,#4]!
 925 06e2 0592     	 str r2,[sp,#20]
 926 06e4 06AA     	 add r2,sp,#24
 927 06e6 52F82320 	 ldr r2,[r2,r3,lsl#2]
 255:C:/Users/Yushev/git/optiga-trust-qi/externals/mbedtls/library\sha256.c ****         ctx->state[i] += A[i];
 928              	 .loc 1 255 0 discriminator 3
 929 06ea 0133     	 adds r3,r3,#1
 930              	.LVL85:
 931              	 .loc 1 256 0 discriminator 3
 932 06ec 0A44     	 add r2,r2,r1
 933 06ee 0599     	 ldr r1,[sp,#20]
 255:C:/Users/Yushev/git/optiga-trust-qi/externals/mbedtls/library\sha256.c ****         ctx->state[i] += A[i];
 934              	 .loc 1 255 0 discriminator 3
 935 06f0 082B     	 cmp r3,#8
 936              	 .loc 1 256 0 discriminator 3
 937 06f2 0A60     	 str r2,[r1]
 255:C:/Users/Yushev/git/optiga-trust-qi/externals/mbedtls/library\sha256.c ****         ctx->state[i] += A[i];
 938              	 .loc 1 255 0 discriminator 3
 939 06f4 F2D1     	 bne .L18
 257:C:/Users/Yushev/git/optiga-trust-qi/externals/mbedtls/library\sha256.c **** 
 258:C:/Users/Yushev/git/optiga-trust-qi/externals/mbedtls/library\sha256.c ****     return( 0 );
 259:C:/Users/Yushev/git/optiga-trust-qi/externals/mbedtls/library\sha256.c **** }
 940              	 .loc 1 259 0
 941 06f6 0020     	 movs r0,#0
 942              	.LVL86:
 943 06f8 4FB0     	 add sp,sp,#316
 944              	.LCFI3:
 945              	 .cfi_def_cfa_offset 36
 946              	.LVL87:
 947              	 
 948 06fa BDE8F08F 	 pop {r4,r5,r6,r7,r8,r9,r10,fp,pc}
 949              	 .cfi_endproc
 950              	.LFE5:
 952 06fe 00BF     	 .section .text.mbedtls_sha256_process,"ax",%progbits
 953              	 .align 1
 954              	 .global mbedtls_sha256_process
 955              	 .thumb
 956              	 .thumb_func
 958              	mbedtls_sha256_process:
 959              	.LFB6:
 260:C:/Users/Yushev/git/optiga-trust-qi/externals/mbedtls/library\sha256.c **** 
 261:C:/Users/Yushev/git/optiga-trust-qi/externals/mbedtls/library\sha256.c **** #if !defined(MBEDTLS_DEPRECATED_REMOVED)
 262:C:/Users/Yushev/git/optiga-trust-qi/externals/mbedtls/library\sha256.c **** void mbedtls_sha256_process( mbedtls_sha256_context *ctx,
 263:C:/Users/Yushev/git/optiga-trust-qi/externals/mbedtls/library\sha256.c ****                              const unsigned char data[64] )
 264:C:/Users/Yushev/git/optiga-trust-qi/externals/mbedtls/library\sha256.c **** {
 960              	 .loc 1 264 0
 961              	 .cfi_startproc
 962              	 
 963              	 
 964              	 
 965              	.LVL88:
 265:C:/Users/Yushev/git/optiga-trust-qi/externals/mbedtls/library\sha256.c ****     mbedtls_internal_sha256_process( ctx, data );
 966              	 .loc 1 265 0
 967 0000 FFF7FEBF 	 b mbedtls_internal_sha256_process
 968              	.LVL89:
 969              	 .cfi_endproc
 970              	.LFE6:
 972              	 .section .text.mbedtls_sha256_update_ret,"ax",%progbits
 973              	 .align 1
 974              	 .global mbedtls_sha256_update_ret
 975              	 .thumb
 976              	 .thumb_func
 978              	mbedtls_sha256_update_ret:
 979              	.LFB7:
 266:C:/Users/Yushev/git/optiga-trust-qi/externals/mbedtls/library\sha256.c **** }
 267:C:/Users/Yushev/git/optiga-trust-qi/externals/mbedtls/library\sha256.c **** #endif
 268:C:/Users/Yushev/git/optiga-trust-qi/externals/mbedtls/library\sha256.c **** #endif /* !MBEDTLS_SHA256_PROCESS_ALT */
 269:C:/Users/Yushev/git/optiga-trust-qi/externals/mbedtls/library\sha256.c **** 
 270:C:/Users/Yushev/git/optiga-trust-qi/externals/mbedtls/library\sha256.c **** /*
 271:C:/Users/Yushev/git/optiga-trust-qi/externals/mbedtls/library\sha256.c ****  * SHA-256 process buffer
 272:C:/Users/Yushev/git/optiga-trust-qi/externals/mbedtls/library\sha256.c ****  */
 273:C:/Users/Yushev/git/optiga-trust-qi/externals/mbedtls/library\sha256.c **** int mbedtls_sha256_update_ret( mbedtls_sha256_context *ctx,
 274:C:/Users/Yushev/git/optiga-trust-qi/externals/mbedtls/library\sha256.c ****                                const unsigned char *input,
 275:C:/Users/Yushev/git/optiga-trust-qi/externals/mbedtls/library\sha256.c ****                                size_t ilen )
 276:C:/Users/Yushev/git/optiga-trust-qi/externals/mbedtls/library\sha256.c **** {
 980              	 .loc 1 276 0
 981              	 .cfi_startproc
 982              	 
 983              	 
 984              	.LVL90:
 985 0000 2DE9F041 	 push {r4,r5,r6,r7,r8,lr}
 986              	.LCFI4:
 987              	 .cfi_def_cfa_offset 24
 988              	 .cfi_offset 4,-24
 989              	 .cfi_offset 5,-20
 990              	 .cfi_offset 6,-16
 991              	 .cfi_offset 7,-12
 992              	 .cfi_offset 8,-8
 993              	 .cfi_offset 14,-4
 994              	 .loc 1 276 0
 995 0004 0546     	 mov r5,r0
 996 0006 8846     	 mov r8,r1
 277:C:/Users/Yushev/git/optiga-trust-qi/externals/mbedtls/library\sha256.c ****     int ret;
 278:C:/Users/Yushev/git/optiga-trust-qi/externals/mbedtls/library\sha256.c ****     size_t fill;
 279:C:/Users/Yushev/git/optiga-trust-qi/externals/mbedtls/library\sha256.c ****     uint32_t left;
 280:C:/Users/Yushev/git/optiga-trust-qi/externals/mbedtls/library\sha256.c **** 
 281:C:/Users/Yushev/git/optiga-trust-qi/externals/mbedtls/library\sha256.c ****     SHA256_VALIDATE_RET( ctx != NULL );
 282:C:/Users/Yushev/git/optiga-trust-qi/externals/mbedtls/library\sha256.c ****     SHA256_VALIDATE_RET( ilen == 0 || input != NULL );
 283:C:/Users/Yushev/git/optiga-trust-qi/externals/mbedtls/library\sha256.c **** 
 284:C:/Users/Yushev/git/optiga-trust-qi/externals/mbedtls/library\sha256.c ****     if( ilen == 0 )
 997              	 .loc 1 284 0
 998 0008 1646     	 mov r6,r2
 999 000a 7AB3     	 cbz r2,.L44
 1000              	.LVL91:
 1001              	.LBB4:
 1002              	.LBB5:
 285:C:/Users/Yushev/git/optiga-trust-qi/externals/mbedtls/library\sha256.c ****         return( 0 );
 286:C:/Users/Yushev/git/optiga-trust-qi/externals/mbedtls/library\sha256.c **** 
 287:C:/Users/Yushev/git/optiga-trust-qi/externals/mbedtls/library\sha256.c ****     left = ctx->total[0] & 0x3F;
 1003              	 .loc 1 287 0
 1004 000c 0368     	 ldr r3,[r0]
 1005 000e 03F03F04 	 and r4,r3,#63
 1006              	.LVL92:
 288:C:/Users/Yushev/git/optiga-trust-qi/externals/mbedtls/library\sha256.c ****     fill = 64 - left;
 289:C:/Users/Yushev/git/optiga-trust-qi/externals/mbedtls/library\sha256.c **** 
 290:C:/Users/Yushev/git/optiga-trust-qi/externals/mbedtls/library\sha256.c ****     ctx->total[0] += (uint32_t) ilen;
 1007              	 .loc 1 290 0
 1008 0012 1344     	 add r3,r3,r2
 291:C:/Users/Yushev/git/optiga-trust-qi/externals/mbedtls/library\sha256.c ****     ctx->total[0] &= 0xFFFFFFFF;
 292:C:/Users/Yushev/git/optiga-trust-qi/externals/mbedtls/library\sha256.c **** 
 293:C:/Users/Yushev/git/optiga-trust-qi/externals/mbedtls/library\sha256.c ****     if( ctx->total[0] < (uint32_t) ilen )
 1009              	 .loc 1 293 0
 1010 0014 9342     	 cmp r3,r2
 290:C:/Users/Yushev/git/optiga-trust-qi/externals/mbedtls/library\sha256.c ****     ctx->total[0] &= 0xFFFFFFFF;
 1011              	 .loc 1 290 0
 1012 0016 0360     	 str r3,[r0]
 294:C:/Users/Yushev/git/optiga-trust-qi/externals/mbedtls/library\sha256.c ****         ctx->total[1]++;
 1013              	 .loc 1 294 0
 1014 0018 3EBF     	 ittt cc
 1015 001a 4368     	 ldrcc r3,[r0,#4]
 1016 001c 0133     	 addcc r3,r3,#1
 1017 001e 4360     	 strcc r3,[r0,#4]
 295:C:/Users/Yushev/git/optiga-trust-qi/externals/mbedtls/library\sha256.c **** 
 296:C:/Users/Yushev/git/optiga-trust-qi/externals/mbedtls/library\sha256.c ****     if( left && ilen >= fill )
 1018              	 .loc 1 296 0
 1019 0020 94B1     	 cbz r4,.L32
 288:C:/Users/Yushev/git/optiga-trust-qi/externals/mbedtls/library\sha256.c **** 
 1020              	 .loc 1 288 0
 1021 0022 C4F14007 	 rsb r7,r4,#64
 1022              	.LVL93:
 1023              	 .loc 1 296 0
 1024 0026 BA42     	 cmp r2,r7
 1025 0028 0ED3     	 bcc .L32
 297:C:/Users/Yushev/git/optiga-trust-qi/externals/mbedtls/library\sha256.c ****     {
 298:C:/Users/Yushev/git/optiga-trust-qi/externals/mbedtls/library\sha256.c ****         memcpy( (void *) (ctx->buffer + left), input, fill );
 1026              	 .loc 1 298 0
 1027 002a 04F12800 	 add r0,r4,#40
 1028              	.LVL94:
 1029 002e 2844     	 add r0,r0,r5
 1030 0030 3A46     	 mov r2,r7
 1031              	.LVL95:
 1032 0032 FFF7FEFF 	 bl memcpy
 1033              	.LVL96:
 299:C:/Users/Yushev/git/optiga-trust-qi/externals/mbedtls/library\sha256.c **** 
 300:C:/Users/Yushev/git/optiga-trust-qi/externals/mbedtls/library\sha256.c ****         if( ( ret = mbedtls_internal_sha256_process( ctx, ctx->buffer ) ) != 0 )
 1034              	 .loc 1 300 0
 1035 0036 2846     	 mov r0,r5
 1036 0038 05F12801 	 add r1,r5,#40
 1037 003c FFF7FEFF 	 bl mbedtls_internal_sha256_process
 1038              	.LVL97:
 1039 0040 A8B9     	 cbnz r0,.L30
 301:C:/Users/Yushev/git/optiga-trust-qi/externals/mbedtls/library\sha256.c ****             return( ret );
 302:C:/Users/Yushev/git/optiga-trust-qi/externals/mbedtls/library\sha256.c **** 
 303:C:/Users/Yushev/git/optiga-trust-qi/externals/mbedtls/library\sha256.c ****         input += fill;
 1040              	 .loc 1 303 0
 1041 0042 B844     	 add r8,r8,r7
 1042              	.LVL98:
 304:C:/Users/Yushev/git/optiga-trust-qi/externals/mbedtls/library\sha256.c ****         ilen  -= fill;
 1043              	 .loc 1 304 0
 1044 0044 F61B     	 subs r6,r6,r7
 1045              	.LVL99:
 305:C:/Users/Yushev/git/optiga-trust-qi/externals/mbedtls/library\sha256.c ****         left = 0;
 1046              	 .loc 1 305 0
 1047 0046 0446     	 mov r4,r0
 1048              	.LVL100:
 1049              	.L32:
 1050 0048 3746     	 mov r7,r6
 1051              	.LVL101:
 1052              	.L33:
 1053 004a F11B     	 subs r1,r6,r7
 306:C:/Users/Yushev/git/optiga-trust-qi/externals/mbedtls/library\sha256.c ****     }
 307:C:/Users/Yushev/git/optiga-trust-qi/externals/mbedtls/library\sha256.c **** 
 308:C:/Users/Yushev/git/optiga-trust-qi/externals/mbedtls/library\sha256.c ****     while( ilen >= 64 )
 1054              	 .loc 1 308 0
 1055 004c 3F2F     	 cmp r7,#63
 1056 004e 4144     	 add r1,r1,r8
 1057              	.LVL102:
 1058 0050 05D9     	 bls .L45
 309:C:/Users/Yushev/git/optiga-trust-qi/externals/mbedtls/library\sha256.c ****     {
 310:C:/Users/Yushev/git/optiga-trust-qi/externals/mbedtls/library\sha256.c ****         if( ( ret = mbedtls_internal_sha256_process( ctx, input ) ) != 0 )
 1059              	 .loc 1 310 0
 1060 0052 2846     	 mov r0,r5
 1061 0054 FFF7FEFF 	 bl mbedtls_internal_sha256_process
 1062              	.LVL103:
 1063 0058 48B9     	 cbnz r0,.L30
 1064              	.LVL104:
 311:C:/Users/Yushev/git/optiga-trust-qi/externals/mbedtls/library\sha256.c ****             return( ret );
 312:C:/Users/Yushev/git/optiga-trust-qi/externals/mbedtls/library\sha256.c **** 
 313:C:/Users/Yushev/git/optiga-trust-qi/externals/mbedtls/library\sha256.c ****         input += 64;
 314:C:/Users/Yushev/git/optiga-trust-qi/externals/mbedtls/library\sha256.c ****         ilen  -= 64;
 1065              	 .loc 1 314 0
 1066 005a 403F     	 subs r7,r7,#64
 1067              	.LVL105:
 1068 005c F5E7     	 b .L33
 1069              	.LVL106:
 1070              	.L45:
 315:C:/Users/Yushev/git/optiga-trust-qi/externals/mbedtls/library\sha256.c ****     }
 316:C:/Users/Yushev/git/optiga-trust-qi/externals/mbedtls/library\sha256.c **** 
 317:C:/Users/Yushev/git/optiga-trust-qi/externals/mbedtls/library\sha256.c ****     if( ilen > 0 )
 1071              	 .loc 1 317 0
 1072 005e 2FB1     	 cbz r7,.L44
 318:C:/Users/Yushev/git/optiga-trust-qi/externals/mbedtls/library\sha256.c ****         memcpy( (void *) (ctx->buffer + left), input, ilen );
 1073              	 .loc 1 318 0
 1074 0060 04F12800 	 add r0,r4,#40
 1075 0064 2844     	 add r0,r0,r5
 1076 0066 3A46     	 mov r2,r7
 1077 0068 FFF7FEFF 	 bl memcpy
 1078              	.LVL107:
 1079              	.L44:
 319:C:/Users/Yushev/git/optiga-trust-qi/externals/mbedtls/library\sha256.c **** 
 320:C:/Users/Yushev/git/optiga-trust-qi/externals/mbedtls/library\sha256.c ****     return( 0 );
 1080              	 .loc 1 320 0
 1081 006c 0020     	 movs r0,#0
 1082              	.L30:
 1083              	.LBE5:
 1084              	.LBE4:
 321:C:/Users/Yushev/git/optiga-trust-qi/externals/mbedtls/library\sha256.c **** }
 1085              	 .loc 1 321 0
 1086 006e BDE8F081 	 pop {r4,r5,r6,r7,r8,pc}
 1087              	 .cfi_endproc
 1088              	.LFE7:
 1090              	 .section .text.mbedtls_sha256_update,"ax",%progbits
 1091              	 .align 1
 1092              	 .global mbedtls_sha256_update
 1093              	 .thumb
 1094              	 .thumb_func
 1096              	mbedtls_sha256_update:
 1097              	.LFB8:
 322:C:/Users/Yushev/git/optiga-trust-qi/externals/mbedtls/library\sha256.c **** 
 323:C:/Users/Yushev/git/optiga-trust-qi/externals/mbedtls/library\sha256.c **** #if !defined(MBEDTLS_DEPRECATED_REMOVED)
 324:C:/Users/Yushev/git/optiga-trust-qi/externals/mbedtls/library\sha256.c **** void mbedtls_sha256_update( mbedtls_sha256_context *ctx,
 325:C:/Users/Yushev/git/optiga-trust-qi/externals/mbedtls/library\sha256.c ****                             const unsigned char *input,
 326:C:/Users/Yushev/git/optiga-trust-qi/externals/mbedtls/library\sha256.c ****                             size_t ilen )
 327:C:/Users/Yushev/git/optiga-trust-qi/externals/mbedtls/library\sha256.c **** {
 1098              	 .loc 1 327 0
 1099              	 .cfi_startproc
 1100              	 
 1101              	 
 1102              	 
 1103              	.LVL108:
 328:C:/Users/Yushev/git/optiga-trust-qi/externals/mbedtls/library\sha256.c ****     mbedtls_sha256_update_ret( ctx, input, ilen );
 1104              	 .loc 1 328 0
 1105 0000 FFF7FEBF 	 b mbedtls_sha256_update_ret
 1106              	.LVL109:
 1107              	 .cfi_endproc
 1108              	.LFE8:
 1110              	 .section .text.mbedtls_sha256_finish_ret,"ax",%progbits
 1111              	 .align 1
 1112              	 .global mbedtls_sha256_finish_ret
 1113              	 .thumb
 1114              	 .thumb_func
 1116              	mbedtls_sha256_finish_ret:
 1117              	.LFB9:
 329:C:/Users/Yushev/git/optiga-trust-qi/externals/mbedtls/library\sha256.c **** }
 330:C:/Users/Yushev/git/optiga-trust-qi/externals/mbedtls/library\sha256.c **** #endif
 331:C:/Users/Yushev/git/optiga-trust-qi/externals/mbedtls/library\sha256.c **** 
 332:C:/Users/Yushev/git/optiga-trust-qi/externals/mbedtls/library\sha256.c **** /*
 333:C:/Users/Yushev/git/optiga-trust-qi/externals/mbedtls/library\sha256.c ****  * SHA-256 final digest
 334:C:/Users/Yushev/git/optiga-trust-qi/externals/mbedtls/library\sha256.c ****  */
 335:C:/Users/Yushev/git/optiga-trust-qi/externals/mbedtls/library\sha256.c **** int mbedtls_sha256_finish_ret( mbedtls_sha256_context *ctx,
 336:C:/Users/Yushev/git/optiga-trust-qi/externals/mbedtls/library\sha256.c ****                                unsigned char output[32] )
 337:C:/Users/Yushev/git/optiga-trust-qi/externals/mbedtls/library\sha256.c **** {
 1118              	 .loc 1 337 0
 1119              	 .cfi_startproc
 1120              	 
 1121              	 
 1122              	.LVL110:
 338:C:/Users/Yushev/git/optiga-trust-qi/externals/mbedtls/library\sha256.c ****     int ret;
 339:C:/Users/Yushev/git/optiga-trust-qi/externals/mbedtls/library\sha256.c ****     uint32_t used;
 340:C:/Users/Yushev/git/optiga-trust-qi/externals/mbedtls/library\sha256.c ****     uint32_t high, low;
 341:C:/Users/Yushev/git/optiga-trust-qi/externals/mbedtls/library\sha256.c **** 
 342:C:/Users/Yushev/git/optiga-trust-qi/externals/mbedtls/library\sha256.c ****     SHA256_VALIDATE_RET( ctx != NULL );
 343:C:/Users/Yushev/git/optiga-trust-qi/externals/mbedtls/library\sha256.c ****     SHA256_VALIDATE_RET( (unsigned char *)output != NULL );
 344:C:/Users/Yushev/git/optiga-trust-qi/externals/mbedtls/library\sha256.c **** 
 345:C:/Users/Yushev/git/optiga-trust-qi/externals/mbedtls/library\sha256.c ****     /*
 346:C:/Users/Yushev/git/optiga-trust-qi/externals/mbedtls/library\sha256.c ****      * Add padding: 0x80 then 0x00 until 8 bytes remain for the length
 347:C:/Users/Yushev/git/optiga-trust-qi/externals/mbedtls/library\sha256.c ****      */
 348:C:/Users/Yushev/git/optiga-trust-qi/externals/mbedtls/library\sha256.c ****     used = ctx->total[0] & 0x3F;
 1123              	 .loc 1 348 0
 1124 0000 0268     	 ldr r2,[r0]
 1125 0002 02F03F02 	 and r2,r2,#63
 1126              	.LVL111:
 337:C:/Users/Yushev/git/optiga-trust-qi/externals/mbedtls/library\sha256.c ****     int ret;
 1127              	 .loc 1 337 0
 1128 0006 70B5     	 push {r4,r5,r6,lr}
 1129              	.LCFI5:
 1130              	 .cfi_def_cfa_offset 16
 1131              	 .cfi_offset 4,-16
 1132              	 .cfi_offset 5,-12
 1133              	 .cfi_offset 6,-8
 1134              	 .cfi_offset 14,-4
 337:C:/Users/Yushev/git/optiga-trust-qi/externals/mbedtls/library\sha256.c ****     int ret;
 1135              	 .loc 1 337 0
 1136 0008 0D46     	 mov r5,r1
 349:C:/Users/Yushev/git/optiga-trust-qi/externals/mbedtls/library\sha256.c **** 
 350:C:/Users/Yushev/git/optiga-trust-qi/externals/mbedtls/library\sha256.c ****     ctx->buffer[used++] = 0x80;
 1137              	 .loc 1 350 0
 1138 000a 8118     	 adds r1,r0,r2
 1139              	.LVL112:
 337:C:/Users/Yushev/git/optiga-trust-qi/externals/mbedtls/library\sha256.c ****     int ret;
 1140              	 .loc 1 337 0
 1141 000c 0446     	 mov r4,r0
 1142              	 .loc 1 350 0
 1143 000e 531C     	 adds r3,r2,#1
 1144              	.LVL113:
 1145 0010 8020     	 movs r0,#128
 1146              	.LVL114:
 1147 0012 81F82800 	 strb r0,[r1,#40]
 351:C:/Users/Yushev/git/optiga-trust-qi/externals/mbedtls/library\sha256.c **** 
 352:C:/Users/Yushev/git/optiga-trust-qi/externals/mbedtls/library\sha256.c ****     if( used <= 56 )
 1148              	 .loc 1 352 0
 1149 0016 382B     	 cmp r3,#56
 1150 0018 02F12900 	 add r0,r2,#41
 1151 001c 04F12806 	 add r6,r4,#40
 353:C:/Users/Yushev/git/optiga-trust-qi/externals/mbedtls/library\sha256.c ****     {
 354:C:/Users/Yushev/git/optiga-trust-qi/externals/mbedtls/library\sha256.c ****         /* Enough room for padding + length in current block */
 355:C:/Users/Yushev/git/optiga-trust-qi/externals/mbedtls/library\sha256.c ****         memset( ctx->buffer + used, 0, 56 - used );
 1152              	 .loc 1 355 0
 1153 0020 2044     	 add r0,r0,r4
 1154 0022 4FF00001 	 mov r1,#0
 352:C:/Users/Yushev/git/optiga-trust-qi/externals/mbedtls/library\sha256.c ****     {
 1155              	 .loc 1 352 0
 1156 0026 02D8     	 bhi .L48
 1157              	 .loc 1 355 0
 1158 0028 C2F13702 	 rsb r2,r2,#55
 1159 002c 0CE0     	 b .L54
 1160              	.L48:
 356:C:/Users/Yushev/git/optiga-trust-qi/externals/mbedtls/library\sha256.c ****     }
 357:C:/Users/Yushev/git/optiga-trust-qi/externals/mbedtls/library\sha256.c ****     else
 358:C:/Users/Yushev/git/optiga-trust-qi/externals/mbedtls/library\sha256.c ****     {
 359:C:/Users/Yushev/git/optiga-trust-qi/externals/mbedtls/library\sha256.c ****         /* We'll need an extra block */
 360:C:/Users/Yushev/git/optiga-trust-qi/externals/mbedtls/library\sha256.c ****         memset( ctx->buffer + used, 0, 64 - used );
 1161              	 .loc 1 360 0
 1162 002e C2F13F02 	 rsb r2,r2,#63
 1163 0032 FFF7FEFF 	 bl memset
 1164              	.LVL115:
 361:C:/Users/Yushev/git/optiga-trust-qi/externals/mbedtls/library\sha256.c **** 
 362:C:/Users/Yushev/git/optiga-trust-qi/externals/mbedtls/library\sha256.c ****         if( ( ret = mbedtls_internal_sha256_process( ctx, ctx->buffer ) ) != 0 )
 1165              	 .loc 1 362 0
 1166 0036 3146     	 mov r1,r6
 1167 0038 2046     	 mov r0,r4
 1168 003a FFF7FEFF 	 bl mbedtls_internal_sha256_process
 1169              	.LVL116:
 1170 003e 0146     	 mov r1,r0
 1171 0040 0028     	 cmp r0,#0
 1172 0042 73D1     	 bne .L50
 363:C:/Users/Yushev/git/optiga-trust-qi/externals/mbedtls/library\sha256.c ****             return( ret );
 364:C:/Users/Yushev/git/optiga-trust-qi/externals/mbedtls/library\sha256.c **** 
 365:C:/Users/Yushev/git/optiga-trust-qi/externals/mbedtls/library\sha256.c ****         memset( ctx->buffer, 0, 56 );
 1173              	 .loc 1 365 0
 1174 0044 3046     	 mov r0,r6
 1175              	.LVL117:
 1176 0046 3822     	 movs r2,#56
 1177              	.LVL118:
 1178              	.L54:
 1179 0048 FFF7FEFF 	 bl memset
 1180              	.LVL119:
 1181              	.LBB8:
 1182              	.LBB9:
 366:C:/Users/Yushev/git/optiga-trust-qi/externals/mbedtls/library\sha256.c ****     }
 367:C:/Users/Yushev/git/optiga-trust-qi/externals/mbedtls/library\sha256.c **** 
 368:C:/Users/Yushev/git/optiga-trust-qi/externals/mbedtls/library\sha256.c ****     /*
 369:C:/Users/Yushev/git/optiga-trust-qi/externals/mbedtls/library\sha256.c ****      * Add message length
 370:C:/Users/Yushev/git/optiga-trust-qi/externals/mbedtls/library\sha256.c ****      */
 371:C:/Users/Yushev/git/optiga-trust-qi/externals/mbedtls/library\sha256.c ****     high = ( ctx->total[0] >> 29 )
 1183              	 .loc 1 371 0
 1184 004c 2368     	 ldr r3,[r4]
 372:C:/Users/Yushev/git/optiga-trust-qi/externals/mbedtls/library\sha256.c ****          | ( ctx->total[1] <<  3 );
 1185              	 .loc 1 372 0
 1186 004e 6168     	 ldr r1,[r4,#4]
 371:C:/Users/Yushev/git/optiga-trust-qi/externals/mbedtls/library\sha256.c ****          | ( ctx->total[1] <<  3 );
 1187              	 .loc 1 371 0
 1188 0050 5A0F     	 lsrs r2,r3,#29
 1189 0052 42EAC102 	 orr r2,r2,r1,lsl#3
 1190              	.LVL120:
 373:C:/Users/Yushev/git/optiga-trust-qi/externals/mbedtls/library\sha256.c ****     low  = ( ctx->total[0] <<  3 );
 374:C:/Users/Yushev/git/optiga-trust-qi/externals/mbedtls/library\sha256.c **** 
 375:C:/Users/Yushev/git/optiga-trust-qi/externals/mbedtls/library\sha256.c ****     PUT_UINT32_BE( high, ctx->buffer, 56 );
 1191              	 .loc 1 375 0
 1192 0056 110E     	 lsrs r1,r2,#24
 373:C:/Users/Yushev/git/optiga-trust-qi/externals/mbedtls/library\sha256.c ****     low  = ( ctx->total[0] <<  3 );
 1193              	 .loc 1 373 0
 1194 0058 DB00     	 lsls r3,r3,#3
 1195              	.LVL121:
 1196              	 .loc 1 375 0
 1197 005a 84F86010 	 strb r1,[r4,#96]
 1198 005e 110C     	 lsrs r1,r2,#16
 1199 0060 84F86110 	 strb r1,[r4,#97]
 1200 0064 84F86320 	 strb r2,[r4,#99]
 1201 0068 110A     	 lsrs r1,r2,#8
 376:C:/Users/Yushev/git/optiga-trust-qi/externals/mbedtls/library\sha256.c ****     PUT_UINT32_BE( low,  ctx->buffer, 60 );
 1202              	 .loc 1 376 0
 1203 006a 1A0E     	 lsrs r2,r3,#24
 1204              	.LVL122:
 1205 006c 84F86420 	 strb r2,[r4,#100]
 1206 0070 1A0C     	 lsrs r2,r3,#16
 1207 0072 84F86520 	 strb r2,[r4,#101]
 1208 0076 1A0A     	 lsrs r2,r3,#8
 375:C:/Users/Yushev/git/optiga-trust-qi/externals/mbedtls/library\sha256.c ****     PUT_UINT32_BE( low,  ctx->buffer, 60 );
 1209              	 .loc 1 375 0
 1210 0078 84F86210 	 strb r1,[r4,#98]
 1211              	 .loc 1 376 0
 1212 007c 84F86620 	 strb r2,[r4,#102]
 1213 0080 84F86730 	 strb r3,[r4,#103]
 377:C:/Users/Yushev/git/optiga-trust-qi/externals/mbedtls/library\sha256.c **** 
 378:C:/Users/Yushev/git/optiga-trust-qi/externals/mbedtls/library\sha256.c ****     if( ( ret = mbedtls_internal_sha256_process( ctx, ctx->buffer ) ) != 0 )
 1214              	 .loc 1 378 0
 1215 0084 2046     	 mov r0,r4
 1216 0086 3146     	 mov r1,r6
 1217 0088 FFF7FEFF 	 bl mbedtls_internal_sha256_process
 1218              	.LVL123:
 1219 008c 0028     	 cmp r0,#0
 1220 008e 4CD1     	 bne .L53
 379:C:/Users/Yushev/git/optiga-trust-qi/externals/mbedtls/library\sha256.c ****         return( ret );
 380:C:/Users/Yushev/git/optiga-trust-qi/externals/mbedtls/library\sha256.c **** 
 381:C:/Users/Yushev/git/optiga-trust-qi/externals/mbedtls/library\sha256.c ****     /*
 382:C:/Users/Yushev/git/optiga-trust-qi/externals/mbedtls/library\sha256.c ****      * Output final state
 383:C:/Users/Yushev/git/optiga-trust-qi/externals/mbedtls/library\sha256.c ****      */
 384:C:/Users/Yushev/git/optiga-trust-qi/externals/mbedtls/library\sha256.c ****     PUT_UINT32_BE( ctx->state[0], output,  0 );
 1221              	 .loc 1 384 0
 1222 0090 E37A     	 ldrb r3,[r4,#11]
 1223 0092 2B70     	 strb r3,[r5]
 1224 0094 6389     	 ldrh r3,[r4,#10]
 1225 0096 6B70     	 strb r3,[r5,#1]
 1226 0098 A368     	 ldr r3,[r4,#8]
 1227 009a 1B0A     	 lsrs r3,r3,#8
 1228 009c AB70     	 strb r3,[r5,#2]
 1229 009e A368     	 ldr r3,[r4,#8]
 1230 00a0 EB70     	 strb r3,[r5,#3]
 385:C:/Users/Yushev/git/optiga-trust-qi/externals/mbedtls/library\sha256.c ****     PUT_UINT32_BE( ctx->state[1], output,  4 );
 1231              	 .loc 1 385 0
 1232 00a2 E37B     	 ldrb r3,[r4,#15]
 1233 00a4 2B71     	 strb r3,[r5,#4]
 1234 00a6 E389     	 ldrh r3,[r4,#14]
 1235 00a8 6B71     	 strb r3,[r5,#5]
 1236 00aa E368     	 ldr r3,[r4,#12]
 1237 00ac 1B0A     	 lsrs r3,r3,#8
 1238 00ae AB71     	 strb r3,[r5,#6]
 1239 00b0 E368     	 ldr r3,[r4,#12]
 1240 00b2 EB71     	 strb r3,[r5,#7]
 386:C:/Users/Yushev/git/optiga-trust-qi/externals/mbedtls/library\sha256.c ****     PUT_UINT32_BE( ctx->state[2], output,  8 );
 1241              	 .loc 1 386 0
 1242 00b4 E37C     	 ldrb r3,[r4,#19]
 1243 00b6 2B72     	 strb r3,[r5,#8]
 1244 00b8 638A     	 ldrh r3,[r4,#18]
 1245 00ba 6B72     	 strb r3,[r5,#9]
 1246 00bc 2369     	 ldr r3,[r4,#16]
 1247 00be 1B0A     	 lsrs r3,r3,#8
 1248 00c0 AB72     	 strb r3,[r5,#10]
 1249 00c2 2369     	 ldr r3,[r4,#16]
 1250 00c4 EB72     	 strb r3,[r5,#11]
 387:C:/Users/Yushev/git/optiga-trust-qi/externals/mbedtls/library\sha256.c ****     PUT_UINT32_BE( ctx->state[3], output, 12 );
 1251              	 .loc 1 387 0
 1252 00c6 E37D     	 ldrb r3,[r4,#23]
 1253 00c8 2B73     	 strb r3,[r5,#12]
 1254 00ca E38A     	 ldrh r3,[r4,#22]
 1255 00cc 6B73     	 strb r3,[r5,#13]
 1256 00ce 6369     	 ldr r3,[r4,#20]
 1257 00d0 1B0A     	 lsrs r3,r3,#8
 1258 00d2 AB73     	 strb r3,[r5,#14]
 1259 00d4 6369     	 ldr r3,[r4,#20]
 1260 00d6 EB73     	 strb r3,[r5,#15]
 388:C:/Users/Yushev/git/optiga-trust-qi/externals/mbedtls/library\sha256.c ****     PUT_UINT32_BE( ctx->state[4], output, 16 );
 1261              	 .loc 1 388 0
 1262 00d8 E37E     	 ldrb r3,[r4,#27]
 1263 00da 2B74     	 strb r3,[r5,#16]
 1264 00dc 638B     	 ldrh r3,[r4,#26]
 1265 00de 6B74     	 strb r3,[r5,#17]
 1266 00e0 A369     	 ldr r3,[r4,#24]
 1267 00e2 1B0A     	 lsrs r3,r3,#8
 1268 00e4 AB74     	 strb r3,[r5,#18]
 1269 00e6 A369     	 ldr r3,[r4,#24]
 1270 00e8 EB74     	 strb r3,[r5,#19]
 389:C:/Users/Yushev/git/optiga-trust-qi/externals/mbedtls/library\sha256.c ****     PUT_UINT32_BE( ctx->state[5], output, 20 );
 1271              	 .loc 1 389 0
 1272 00ea E37F     	 ldrb r3,[r4,#31]
 1273 00ec 2B75     	 strb r3,[r5,#20]
 1274 00ee E38B     	 ldrh r3,[r4,#30]
 1275 00f0 6B75     	 strb r3,[r5,#21]
 1276 00f2 E369     	 ldr r3,[r4,#28]
 1277 00f4 1B0A     	 lsrs r3,r3,#8
 1278 00f6 AB75     	 strb r3,[r5,#22]
 1279 00f8 E369     	 ldr r3,[r4,#28]
 1280 00fa EB75     	 strb r3,[r5,#23]
 390:C:/Users/Yushev/git/optiga-trust-qi/externals/mbedtls/library\sha256.c ****     PUT_UINT32_BE( ctx->state[6], output, 24 );
 1281              	 .loc 1 390 0
 1282 00fc 94F82330 	 ldrb r3,[r4,#35]
 1283 0100 2B76     	 strb r3,[r5,#24]
 1284 0102 638C     	 ldrh r3,[r4,#34]
 1285 0104 6B76     	 strb r3,[r5,#25]
 1286 0106 236A     	 ldr r3,[r4,#32]
 1287 0108 1B0A     	 lsrs r3,r3,#8
 1288 010a AB76     	 strb r3,[r5,#26]
 1289 010c 236A     	 ldr r3,[r4,#32]
 1290 010e EB76     	 strb r3,[r5,#27]
 391:C:/Users/Yushev/git/optiga-trust-qi/externals/mbedtls/library\sha256.c **** 
 392:C:/Users/Yushev/git/optiga-trust-qi/externals/mbedtls/library\sha256.c ****     if( ctx->is224 == 0 )
 1291              	 .loc 1 392 0
 1292 0110 A16E     	 ldr r1,[r4,#104]
 1293 0112 51B9     	 cbnz r1,.L53
 393:C:/Users/Yushev/git/optiga-trust-qi/externals/mbedtls/library\sha256.c ****         PUT_UINT32_BE( ctx->state[7], output, 28 );
 1294              	 .loc 1 393 0
 1295 0114 94F82730 	 ldrb r3,[r4,#39]
 1296 0118 2B77     	 strb r3,[r5,#28]
 1297 011a E38C     	 ldrh r3,[r4,#38]
 1298 011c 6B77     	 strb r3,[r5,#29]
 1299 011e 636A     	 ldr r3,[r4,#36]
 1300 0120 1B0A     	 lsrs r3,r3,#8
 1301 0122 AB77     	 strb r3,[r5,#30]
 1302 0124 636A     	 ldr r3,[r4,#36]
 1303 0126 EB77     	 strb r3,[r5,#31]
 1304 0128 00E0     	 b .L50
 1305              	.L53:
 394:C:/Users/Yushev/git/optiga-trust-qi/externals/mbedtls/library\sha256.c **** 
 395:C:/Users/Yushev/git/optiga-trust-qi/externals/mbedtls/library\sha256.c ****     return( 0 );
 1306              	 .loc 1 395 0
 1307 012a 0146     	 mov r1,r0
 1308              	.LVL124:
 1309              	.L50:
 1310              	.LBE9:
 1311              	.LBE8:
 396:C:/Users/Yushev/git/optiga-trust-qi/externals/mbedtls/library\sha256.c **** }
 1312              	 .loc 1 396 0
 1313 012c 0846     	 mov r0,r1
 1314 012e 70BD     	 pop {r4,r5,r6,pc}
 1315              	 .cfi_endproc
 1316              	.LFE9:
 1318              	 .section .text.mbedtls_sha256_finish,"ax",%progbits
 1319              	 .align 1
 1320              	 .global mbedtls_sha256_finish
 1321              	 .thumb
 1322              	 .thumb_func
 1324              	mbedtls_sha256_finish:
 1325              	.LFB10:
 397:C:/Users/Yushev/git/optiga-trust-qi/externals/mbedtls/library\sha256.c **** 
 398:C:/Users/Yushev/git/optiga-trust-qi/externals/mbedtls/library\sha256.c **** #if !defined(MBEDTLS_DEPRECATED_REMOVED)
 399:C:/Users/Yushev/git/optiga-trust-qi/externals/mbedtls/library\sha256.c **** void mbedtls_sha256_finish( mbedtls_sha256_context *ctx,
 400:C:/Users/Yushev/git/optiga-trust-qi/externals/mbedtls/library\sha256.c ****                             unsigned char output[32] )
 401:C:/Users/Yushev/git/optiga-trust-qi/externals/mbedtls/library\sha256.c **** {
 1326              	 .loc 1 401 0
 1327              	 .cfi_startproc
 1328              	 
 1329              	 
 1330              	 
 1331              	.LVL125:
 402:C:/Users/Yushev/git/optiga-trust-qi/externals/mbedtls/library\sha256.c ****     mbedtls_sha256_finish_ret( ctx, output );
 1332              	 .loc 1 402 0
 1333 0000 FFF7FEBF 	 b mbedtls_sha256_finish_ret
 1334              	.LVL126:
 1335              	 .cfi_endproc
 1336              	.LFE10:
 1338              	 .section .text.mbedtls_sha256_ret,"ax",%progbits
 1339              	 .align 1
 1340              	 .global mbedtls_sha256_ret
 1341              	 .thumb
 1342              	 .thumb_func
 1344              	mbedtls_sha256_ret:
 1345              	.LFB11:
 403:C:/Users/Yushev/git/optiga-trust-qi/externals/mbedtls/library\sha256.c **** }
 404:C:/Users/Yushev/git/optiga-trust-qi/externals/mbedtls/library\sha256.c **** #endif
 405:C:/Users/Yushev/git/optiga-trust-qi/externals/mbedtls/library\sha256.c **** 
 406:C:/Users/Yushev/git/optiga-trust-qi/externals/mbedtls/library\sha256.c **** #endif /* !MBEDTLS_SHA256_ALT */
 407:C:/Users/Yushev/git/optiga-trust-qi/externals/mbedtls/library\sha256.c **** 
 408:C:/Users/Yushev/git/optiga-trust-qi/externals/mbedtls/library\sha256.c **** /*
 409:C:/Users/Yushev/git/optiga-trust-qi/externals/mbedtls/library\sha256.c ****  * output = SHA-256( input buffer )
 410:C:/Users/Yushev/git/optiga-trust-qi/externals/mbedtls/library\sha256.c ****  */
 411:C:/Users/Yushev/git/optiga-trust-qi/externals/mbedtls/library\sha256.c **** int mbedtls_sha256_ret( const unsigned char *input,
 412:C:/Users/Yushev/git/optiga-trust-qi/externals/mbedtls/library\sha256.c ****                         size_t ilen,
 413:C:/Users/Yushev/git/optiga-trust-qi/externals/mbedtls/library\sha256.c ****                         unsigned char output[32],
 414:C:/Users/Yushev/git/optiga-trust-qi/externals/mbedtls/library\sha256.c ****                         int is224 )
 415:C:/Users/Yushev/git/optiga-trust-qi/externals/mbedtls/library\sha256.c **** {
 1346              	 .loc 1 415 0
 1347              	 .cfi_startproc
 1348              	 
 1349              	 
 1350              	.LVL127:
 1351 0000 F0B5     	 push {r4,r5,r6,r7,lr}
 1352              	.LCFI6:
 1353              	 .cfi_def_cfa_offset 20
 1354              	 .cfi_offset 4,-20
 1355              	 .cfi_offset 5,-16
 1356              	 .cfi_offset 6,-12
 1357              	 .cfi_offset 7,-8
 1358              	 .cfi_offset 14,-4
 1359 0002 9DB0     	 sub sp,sp,#116
 1360              	.LCFI7:
 1361              	 .cfi_def_cfa_offset 136
 1362              	 .loc 1 415 0
 1363 0004 1C46     	 mov r4,r3
 1364 0006 0746     	 mov r7,r0
 416:C:/Users/Yushev/git/optiga-trust-qi/externals/mbedtls/library\sha256.c ****     int ret;
 417:C:/Users/Yushev/git/optiga-trust-qi/externals/mbedtls/library\sha256.c ****     mbedtls_sha256_context ctx;
 418:C:/Users/Yushev/git/optiga-trust-qi/externals/mbedtls/library\sha256.c **** 
 419:C:/Users/Yushev/git/optiga-trust-qi/externals/mbedtls/library\sha256.c ****     SHA256_VALIDATE_RET( is224 == 0 || is224 == 1 );
 420:C:/Users/Yushev/git/optiga-trust-qi/externals/mbedtls/library\sha256.c ****     SHA256_VALIDATE_RET( ilen == 0 || input != NULL );
 421:C:/Users/Yushev/git/optiga-trust-qi/externals/mbedtls/library\sha256.c ****     SHA256_VALIDATE_RET( (unsigned char *)output != NULL );
 422:C:/Users/Yushev/git/optiga-trust-qi/externals/mbedtls/library\sha256.c **** 
 423:C:/Users/Yushev/git/optiga-trust-qi/externals/mbedtls/library\sha256.c ****     mbedtls_sha256_init( &ctx );
 1365              	 .loc 1 423 0
 1366 0008 01A8     	 add r0,sp,#4
 1367              	.LVL128:
 415:C:/Users/Yushev/git/optiga-trust-qi/externals/mbedtls/library\sha256.c ****     int ret;
 1368              	 .loc 1 415 0
 1369 000a 0E46     	 mov r6,r1
 1370 000c 1546     	 mov r5,r2
 1371              	 .loc 1 423 0
 1372 000e FFF7FEFF 	 bl mbedtls_sha256_init
 1373              	.LVL129:
 424:C:/Users/Yushev/git/optiga-trust-qi/externals/mbedtls/library\sha256.c **** 
 425:C:/Users/Yushev/git/optiga-trust-qi/externals/mbedtls/library\sha256.c ****     if( ( ret = mbedtls_sha256_starts_ret( &ctx, is224 ) ) != 0 )
 1374              	 .loc 1 425 0
 1375 0012 2146     	 mov r1,r4
 1376 0014 01A8     	 add r0,sp,#4
 1377 0016 FFF7FEFF 	 bl mbedtls_sha256_starts_ret
 1378              	.LVL130:
 1379 001a 0446     	 mov r4,r0
 1380              	.LVL131:
 1381 001c 58B9     	 cbnz r0,.L57
 426:C:/Users/Yushev/git/optiga-trust-qi/externals/mbedtls/library\sha256.c ****         goto exit;
 427:C:/Users/Yushev/git/optiga-trust-qi/externals/mbedtls/library\sha256.c **** 
 428:C:/Users/Yushev/git/optiga-trust-qi/externals/mbedtls/library\sha256.c ****     if( ( ret = mbedtls_sha256_update_ret( &ctx, input, ilen ) ) != 0 )
 1382              	 .loc 1 428 0
 1383 001e 01A8     	 add r0,sp,#4
 1384              	.LVL132:
 1385 0020 3946     	 mov r1,r7
 1386 0022 3246     	 mov r2,r6
 1387 0024 FFF7FEFF 	 bl mbedtls_sha256_update_ret
 1388              	.LVL133:
 1389 0028 0446     	 mov r4,r0
 1390 002a 20B9     	 cbnz r0,.L57
 429:C:/Users/Yushev/git/optiga-trust-qi/externals/mbedtls/library\sha256.c ****         goto exit;
 430:C:/Users/Yushev/git/optiga-trust-qi/externals/mbedtls/library\sha256.c **** 
 431:C:/Users/Yushev/git/optiga-trust-qi/externals/mbedtls/library\sha256.c ****     if( ( ret = mbedtls_sha256_finish_ret( &ctx, output ) ) != 0 )
 1391              	 .loc 1 431 0
 1392 002c 01A8     	 add r0,sp,#4
 1393              	.LVL134:
 1394 002e 2946     	 mov r1,r5
 1395 0030 FFF7FEFF 	 bl mbedtls_sha256_finish_ret
 1396              	.LVL135:
 1397 0034 0446     	 mov r4,r0
 1398              	.LVL136:
 1399              	.L57:
 432:C:/Users/Yushev/git/optiga-trust-qi/externals/mbedtls/library\sha256.c ****         goto exit;
 433:C:/Users/Yushev/git/optiga-trust-qi/externals/mbedtls/library\sha256.c **** 
 434:C:/Users/Yushev/git/optiga-trust-qi/externals/mbedtls/library\sha256.c **** exit:
 435:C:/Users/Yushev/git/optiga-trust-qi/externals/mbedtls/library\sha256.c ****     mbedtls_sha256_free( &ctx );
 1400              	 .loc 1 435 0
 1401 0036 01A8     	 add r0,sp,#4
 1402              	.LVL137:
 1403 0038 FFF7FEFF 	 bl mbedtls_sha256_free
 1404              	.LVL138:
 436:C:/Users/Yushev/git/optiga-trust-qi/externals/mbedtls/library\sha256.c **** 
 437:C:/Users/Yushev/git/optiga-trust-qi/externals/mbedtls/library\sha256.c ****     return( ret );
 438:C:/Users/Yushev/git/optiga-trust-qi/externals/mbedtls/library\sha256.c **** }
 1405              	 .loc 1 438 0
 1406 003c 2046     	 mov r0,r4
 1407 003e 1DB0     	 add sp,sp,#116
 1408              	.LCFI8:
 1409              	 .cfi_def_cfa_offset 20
 1410              	 
 1411 0040 F0BD     	 pop {r4,r5,r6,r7,pc}
 1412              	 .cfi_endproc
 1413              	.LFE11:
 1415              	 .section .text.mbedtls_sha256,"ax",%progbits
 1416              	 .align 1
 1417              	 .global mbedtls_sha256
 1418              	 .thumb
 1419              	 .thumb_func
 1421              	mbedtls_sha256:
 1422              	.LFB12:
 439:C:/Users/Yushev/git/optiga-trust-qi/externals/mbedtls/library\sha256.c **** 
 440:C:/Users/Yushev/git/optiga-trust-qi/externals/mbedtls/library\sha256.c **** #if !defined(MBEDTLS_DEPRECATED_REMOVED)
 441:C:/Users/Yushev/git/optiga-trust-qi/externals/mbedtls/library\sha256.c **** void mbedtls_sha256( const unsigned char *input,
 442:C:/Users/Yushev/git/optiga-trust-qi/externals/mbedtls/library\sha256.c ****                      size_t ilen,
 443:C:/Users/Yushev/git/optiga-trust-qi/externals/mbedtls/library\sha256.c ****                      unsigned char output[32],
 444:C:/Users/Yushev/git/optiga-trust-qi/externals/mbedtls/library\sha256.c ****                      int is224 )
 445:C:/Users/Yushev/git/optiga-trust-qi/externals/mbedtls/library\sha256.c **** {
 1423              	 .loc 1 445 0
 1424              	 .cfi_startproc
 1425              	 
 1426              	 
 1427              	 
 1428              	.LVL139:
 446:C:/Users/Yushev/git/optiga-trust-qi/externals/mbedtls/library\sha256.c ****     mbedtls_sha256_ret( input, ilen, output, is224 );
 1429              	 .loc 1 446 0
 1430 0000 FFF7FEBF 	 b mbedtls_sha256_ret
 1431              	.LVL140:
 1432              	 .cfi_endproc
 1433              	.LFE12:
 1435              	 .section .rodata.K,"a",%progbits
 1436              	 .align 2
 1437              	 .set .LANCHOR0,.+0
 1440              	K:
 1441 0000 982F8A42 	 .word 1116352408
 1442 0004 91443771 	 .word 1899447441
 1443 0008 CFFBC0B5 	 .word -1245643825
 1444 000c A5DBB5E9 	 .word -373957723
 1445 0010 5BC25639 	 .word 961987163
 1446 0014 F111F159 	 .word 1508970993
 1447 0018 A4823F92 	 .word -1841331548
 1448 001c D55E1CAB 	 .word -1424204075
 1449 0020 98AA07D8 	 .word -670586216
 1450 0024 015B8312 	 .word 310598401
 1451 0028 BE853124 	 .word 607225278
 1452 002c C37D0C55 	 .word 1426881987
 1453 0030 745DBE72 	 .word 1925078388
 1454 0034 FEB1DE80 	 .word -2132889090
 1455 0038 A706DC9B 	 .word -1680079193
 1456 003c 74F19BC1 	 .word -1046744716
 1457 0040 C1699BE4 	 .word -459576895
 1458 0044 8647BEEF 	 .word -272742522
 1459 0048 C69DC10F 	 .word 264347078
 1460 004c CCA10C24 	 .word 604807628
 1461 0050 6F2CE92D 	 .word 770255983
 1462 0054 AA84744A 	 .word 1249150122
 1463 0058 DCA9B05C 	 .word 1555081692
 1464 005c DA88F976 	 .word 1996064986
 1465 0060 52513E98 	 .word -1740746414
 1466 0064 6DC631A8 	 .word -1473132947
 1467 0068 C82703B0 	 .word -1341970488
 1468 006c C77F59BF 	 .word -1084653625
 1469 0070 F30BE0C6 	 .word -958395405
 1470 0074 4791A7D5 	 .word -710438585
 1471 0078 5163CA06 	 .word 113926993
 1472 007c 67292914 	 .word 338241895
 1473 0080 850AB727 	 .word 666307205
 1474 0084 38211B2E 	 .word 773529912
 1475 0088 FC6D2C4D 	 .word 1294757372
 1476 008c 130D3853 	 .word 1396182291
 1477 0090 54730A65 	 .word 1695183700
 1478 0094 BB0A6A76 	 .word 1986661051
 1479 0098 2EC9C281 	 .word -2117940946
 1480 009c 852C7292 	 .word -1838011259
 1481 00a0 A1E8BFA2 	 .word -1564481375
 1482 00a4 4B661AA8 	 .word -1474664885
 1483 00a8 708B4BC2 	 .word -1035236496
 1484 00ac A3516CC7 	 .word -949202525
 1485 00b0 19E892D1 	 .word -778901479
 1486 00b4 240699D6 	 .word -694614492
 1487 00b8 85350EF4 	 .word -200395387
 1488 00bc 70A06A10 	 .word 275423344
 1489 00c0 16C1A419 	 .word 430227734
 1490 00c4 086C371E 	 .word 506948616
 1491 00c8 4C774827 	 .word 659060556
 1492 00cc B5BCB034 	 .word 883997877
 1493 00d0 B30C1C39 	 .word 958139571
 1494 00d4 4AAAD84E 	 .word 1322822218
 1495 00d8 4FCA9C5B 	 .word 1537002063
 1496 00dc F36F2E68 	 .word 1747873779
 1497 00e0 EE828F74 	 .word 1955562222
 1498 00e4 6F63A578 	 .word 2024104815
 1499 00e8 1478C884 	 .word -2067236844
 1500 00ec 0802C78C 	 .word -1933114872
 1501 00f0 FAFFBE90 	 .word -1866530822
 1502 00f4 EB6C50A4 	 .word -1538233109
 1503 00f8 F7A3F9BE 	 .word -1090935817
 1504 00fc F27871C6 	 .word -965641998
 1505              	 .text
 1506              	.Letext0:
 1507              	 .file 2 "c:\\users\\yushev\\dave_4-4-2_32bit_2018-02-23\\dave-ide-4.4.2-32bit\\eclipse\\arm-gcc-49\\lib\\gcc\\arm-none-eabi\\4.9.3\\include\\stddef.h"
 1508              	 .file 3 "c:\\users\\yushev\\dave_4-4-2_32bit_2018-02-23\\dave-ide-4.4.2-32bit\\eclipse\\arm-gcc-49\\arm-none-eabi\\include\\machine\\_default_types.h"
 1509              	 .file 4 "c:\\users\\yushev\\dave_4-4-2_32bit_2018-02-23\\dave-ide-4.4.2-32bit\\eclipse\\arm-gcc-49\\arm-none-eabi\\include\\stdint.h"
 1510              	 .file 5 "C:/Users/Yushev/git/optiga-trust-qi/externals/mbedtls/include/mbedtls/sha256.h"
 1511              	 .file 6 "C:/Users/Yushev/git/optiga-trust-qi/externals/mbedtls/include/mbedtls/platform_util.h"