   1              	 .syntax unified
   2              	 .cpu cortex-m4
   3              	 .eabi_attribute 27,3
   4              	 .fpu fpv4-sp-d16
   5              	 .eabi_attribute 20,1
   6              	 .eabi_attribute 21,1
   7              	 .eabi_attribute 23,3
   8              	 .eabi_attribute 24,1
   9              	 .eabi_attribute 25,1
  10              	 .eabi_attribute 26,1
  11              	 .eabi_attribute 30,4
  12              	 .eabi_attribute 34,1
  13              	 .eabi_attribute 18,4
  14              	 .thumb
  15              	 .file "usbd_vcom.c"
  16              	 .text
  17              	.Ltext0:
  18              	 .cfi_sections .debug_frame
  19              	 .section .text.USBD_VCOM_CDCClass_Event_LineEncodingChanged,"ax",%progbits
  20              	 .align 1
  21              	 .global USBD_VCOM_CDCClass_Event_LineEncodingChanged
  22              	 .thumb
  23              	 .thumb_func
  25              	USBD_VCOM_CDCClass_Event_LineEncodingChanged:
  26              	.LFB201:
  27              	 .file 1 "C:/Users/Yushev/git/optiga-trust-qi/projects/xmc4700_relax_kit/common/Dave/Generated/USBD_VCOM/usbd_vcom.c"
   1:C:/Users/Yushev/git/optiga-trust-qi/projects/xmc4700_relax_kit/common/Dave/Generated/USBD_VCOM\usbd_vcom.c **** /**
   2:C:/Users/Yushev/git/optiga-trust-qi/projects/xmc4700_relax_kit/common/Dave/Generated/USBD_VCOM\usbd_vcom.c ****  * @file usbd_vcom.c
   3:C:/Users/Yushev/git/optiga-trust-qi/projects/xmc4700_relax_kit/common/Dave/Generated/USBD_VCOM\usbd_vcom.c ****  * @date 2015-10-08
   4:C:/Users/Yushev/git/optiga-trust-qi/projects/xmc4700_relax_kit/common/Dave/Generated/USBD_VCOM\usbd_vcom.c ****  * NOTE:
   5:C:/Users/Yushev/git/optiga-trust-qi/projects/xmc4700_relax_kit/common/Dave/Generated/USBD_VCOM\usbd_vcom.c ****  * This file is generated by DAVE. Any manual modification done to this file will be lost when the 
   6:C:/Users/Yushev/git/optiga-trust-qi/projects/xmc4700_relax_kit/common/Dave/Generated/USBD_VCOM\usbd_vcom.c ****  *
   7:C:/Users/Yushev/git/optiga-trust-qi/projects/xmc4700_relax_kit/common/Dave/Generated/USBD_VCOM\usbd_vcom.c ****  * @cond
   8:C:/Users/Yushev/git/optiga-trust-qi/projects/xmc4700_relax_kit/common/Dave/Generated/USBD_VCOM\usbd_vcom.c ****  **************************************************************************************************
   9:C:/Users/Yushev/git/optiga-trust-qi/projects/xmc4700_relax_kit/common/Dave/Generated/USBD_VCOM\usbd_vcom.c ****  * USBD_VCOM v4.0.10 - The USB virtual COM port driver for XMC4000 family of controllers.
  10:C:/Users/Yushev/git/optiga-trust-qi/projects/xmc4700_relax_kit/common/Dave/Generated/USBD_VCOM\usbd_vcom.c ****  *
  11:C:/Users/Yushev/git/optiga-trust-qi/projects/xmc4700_relax_kit/common/Dave/Generated/USBD_VCOM\usbd_vcom.c ****  * Copyright (c) 2015, Infineon Technologies AG
  12:C:/Users/Yushev/git/optiga-trust-qi/projects/xmc4700_relax_kit/common/Dave/Generated/USBD_VCOM\usbd_vcom.c ****  * All rights reserved.                        
  13:C:/Users/Yushev/git/optiga-trust-qi/projects/xmc4700_relax_kit/common/Dave/Generated/USBD_VCOM\usbd_vcom.c ****  *                                             
  14:C:/Users/Yushev/git/optiga-trust-qi/projects/xmc4700_relax_kit/common/Dave/Generated/USBD_VCOM\usbd_vcom.c ****  * Redistribution and use in source and binary forms, with or without modification,are permitted pr
  15:C:/Users/Yushev/git/optiga-trust-qi/projects/xmc4700_relax_kit/common/Dave/Generated/USBD_VCOM\usbd_vcom.c ****  * following conditions are met:   
  16:C:/Users/Yushev/git/optiga-trust-qi/projects/xmc4700_relax_kit/common/Dave/Generated/USBD_VCOM\usbd_vcom.c ****  *                                                                              
  17:C:/Users/Yushev/git/optiga-trust-qi/projects/xmc4700_relax_kit/common/Dave/Generated/USBD_VCOM\usbd_vcom.c ****  *   Redistributions of source code must retain the above copyright notice, this list of conditions
  18:C:/Users/Yushev/git/optiga-trust-qi/projects/xmc4700_relax_kit/common/Dave/Generated/USBD_VCOM\usbd_vcom.c ****  *   disclaimer.                        
  19:C:/Users/Yushev/git/optiga-trust-qi/projects/xmc4700_relax_kit/common/Dave/Generated/USBD_VCOM\usbd_vcom.c ****  * 
  20:C:/Users/Yushev/git/optiga-trust-qi/projects/xmc4700_relax_kit/common/Dave/Generated/USBD_VCOM\usbd_vcom.c ****  *   Redistributions in binary form must reproduce the above copyright notice, this list of conditi
  21:C:/Users/Yushev/git/optiga-trust-qi/projects/xmc4700_relax_kit/common/Dave/Generated/USBD_VCOM\usbd_vcom.c ****  *   following disclaimer in the documentation and/or other materials provided with the distributio
  22:C:/Users/Yushev/git/optiga-trust-qi/projects/xmc4700_relax_kit/common/Dave/Generated/USBD_VCOM\usbd_vcom.c ****  *                         
  23:C:/Users/Yushev/git/optiga-trust-qi/projects/xmc4700_relax_kit/common/Dave/Generated/USBD_VCOM\usbd_vcom.c ****  *   Neither the name of the copyright holders nor the names of its contributors may be used to end
  24:C:/Users/Yushev/git/optiga-trust-qi/projects/xmc4700_relax_kit/common/Dave/Generated/USBD_VCOM\usbd_vcom.c ****  *   products derived from this software without specific prior written permission. 
  25:C:/Users/Yushev/git/optiga-trust-qi/projects/xmc4700_relax_kit/common/Dave/Generated/USBD_VCOM\usbd_vcom.c ****  *                                             
  26:C:/Users/Yushev/git/optiga-trust-qi/projects/xmc4700_relax_kit/common/Dave/Generated/USBD_VCOM\usbd_vcom.c ****  * THIS SOFTWARE IS PROVIDED BY THE COPYRIGHT HOLDERS AND CONTRIBUTORS "AS IS" AND ANY EXPRESS OR I
  27:C:/Users/Yushev/git/optiga-trust-qi/projects/xmc4700_relax_kit/common/Dave/Generated/USBD_VCOM\usbd_vcom.c ****  * INCLUDING, BUT NOT LIMITED TO, THE IMPLIED WARRANTIES OF MERCHANTABILITY AND FITNESS FOR A PARTI
  28:C:/Users/Yushev/git/optiga-trust-qi/projects/xmc4700_relax_kit/common/Dave/Generated/USBD_VCOM\usbd_vcom.c ****  * DISCLAIMED. IN NO EVENT SHALL THE COPYRIGHT HOLDER OR CONTRIBUTORS BE LIABLE  FOR ANY DIRECT, IN
  29:C:/Users/Yushev/git/optiga-trust-qi/projects/xmc4700_relax_kit/common/Dave/Generated/USBD_VCOM\usbd_vcom.c ****  * SPECIAL, EXEMPLARY, OR CONSEQUENTIAL DAMAGES (INCLUDING, BUT NOT LIMITED TO, PROCUREMENT OF SUBS
  30:C:/Users/Yushev/git/optiga-trust-qi/projects/xmc4700_relax_kit/common/Dave/Generated/USBD_VCOM\usbd_vcom.c ****  * SERVICES; LOSS OF USE, DATA, OR PROFITS; OR BUSINESS INTERRUPTION) HOWEVER CAUSED AND ON ANY THE
  31:C:/Users/Yushev/git/optiga-trust-qi/projects/xmc4700_relax_kit/common/Dave/Generated/USBD_VCOM\usbd_vcom.c ****  * WHETHER IN CONTRACT, STRICT LIABILITY,OR TORT (INCLUDING NEGLIGENCE OR OTHERWISE) ARISING IN ANY
  32:C:/Users/Yushev/git/optiga-trust-qi/projects/xmc4700_relax_kit/common/Dave/Generated/USBD_VCOM\usbd_vcom.c ****  * USE OF THIS SOFTWARE, EVEN IF ADVISED OF THE POSSIBILITY OF SUCH DAMAGE.    
  33:C:/Users/Yushev/git/optiga-trust-qi/projects/xmc4700_relax_kit/common/Dave/Generated/USBD_VCOM\usbd_vcom.c ****  *                                                                              
  34:C:/Users/Yushev/git/optiga-trust-qi/projects/xmc4700_relax_kit/common/Dave/Generated/USBD_VCOM\usbd_vcom.c ****  * To improve the quality of the software, users are encouraged to share modifications, enhancement
  35:C:/Users/Yushev/git/optiga-trust-qi/projects/xmc4700_relax_kit/common/Dave/Generated/USBD_VCOM\usbd_vcom.c ****  * with Infineon Technologies AG (dave@infineon.com).        
  36:C:/Users/Yushev/git/optiga-trust-qi/projects/xmc4700_relax_kit/common/Dave/Generated/USBD_VCOM\usbd_vcom.c ****  **************************************************************************************************
  37:C:/Users/Yushev/git/optiga-trust-qi/projects/xmc4700_relax_kit/common/Dave/Generated/USBD_VCOM\usbd_vcom.c ****  *
  38:C:/Users/Yushev/git/optiga-trust-qi/projects/xmc4700_relax_kit/common/Dave/Generated/USBD_VCOM\usbd_vcom.c ****  * Change History
  39:C:/Users/Yushev/git/optiga-trust-qi/projects/xmc4700_relax_kit/common/Dave/Generated/USBD_VCOM\usbd_vcom.c ****  * --------------
  40:C:/Users/Yushev/git/optiga-trust-qi/projects/xmc4700_relax_kit/common/Dave/Generated/USBD_VCOM\usbd_vcom.c ****  *
  41:C:/Users/Yushev/git/optiga-trust-qi/projects/xmc4700_relax_kit/common/Dave/Generated/USBD_VCOM\usbd_vcom.c ****  * 2015-02-16:
  42:C:/Users/Yushev/git/optiga-trust-qi/projects/xmc4700_relax_kit/common/Dave/Generated/USBD_VCOM\usbd_vcom.c ****  *     - Initial version.      
  43:C:/Users/Yushev/git/optiga-trust-qi/projects/xmc4700_relax_kit/common/Dave/Generated/USBD_VCOM\usbd_vcom.c ****  * 2015-03-18:
  44:C:/Users/Yushev/git/optiga-trust-qi/projects/xmc4700_relax_kit/common/Dave/Generated/USBD_VCOM\usbd_vcom.c ****  *     - Guidelines updated.
  45:C:/Users/Yushev/git/optiga-trust-qi/projects/xmc4700_relax_kit/common/Dave/Generated/USBD_VCOM\usbd_vcom.c ****  * 2015-04-23:
  46:C:/Users/Yushev/git/optiga-trust-qi/projects/xmc4700_relax_kit/common/Dave/Generated/USBD_VCOM\usbd_vcom.c ****  *     - Updated the review comments from AEs.
  47:C:/Users/Yushev/git/optiga-trust-qi/projects/xmc4700_relax_kit/common/Dave/Generated/USBD_VCOM\usbd_vcom.c ****  * 2015-06-20:
  48:C:/Users/Yushev/git/optiga-trust-qi/projects/xmc4700_relax_kit/common/Dave/Generated/USBD_VCOM\usbd_vcom.c ****  *     - Updated the file header.
  49:C:/Users/Yushev/git/optiga-trust-qi/projects/xmc4700_relax_kit/common/Dave/Generated/USBD_VCOM\usbd_vcom.c ****  *     
  50:C:/Users/Yushev/git/optiga-trust-qi/projects/xmc4700_relax_kit/common/Dave/Generated/USBD_VCOM\usbd_vcom.c ****  * @endcond 
  51:C:/Users/Yushev/git/optiga-trust-qi/projects/xmc4700_relax_kit/common/Dave/Generated/USBD_VCOM\usbd_vcom.c ****  *
  52:C:/Users/Yushev/git/optiga-trust-qi/projects/xmc4700_relax_kit/common/Dave/Generated/USBD_VCOM\usbd_vcom.c ****  */
  53:C:/Users/Yushev/git/optiga-trust-qi/projects/xmc4700_relax_kit/common/Dave/Generated/USBD_VCOM\usbd_vcom.c **** 
  54:C:/Users/Yushev/git/optiga-trust-qi/projects/xmc4700_relax_kit/common/Dave/Generated/USBD_VCOM\usbd_vcom.c **** /**************************************************************************************************
  55:C:/Users/Yushev/git/optiga-trust-qi/projects/xmc4700_relax_kit/common/Dave/Generated/USBD_VCOM\usbd_vcom.c ****  * HEADER FILES                                                                                    
  56:C:/Users/Yushev/git/optiga-trust-qi/projects/xmc4700_relax_kit/common/Dave/Generated/USBD_VCOM\usbd_vcom.c ****  **************************************************************************************************
  57:C:/Users/Yushev/git/optiga-trust-qi/projects/xmc4700_relax_kit/common/Dave/Generated/USBD_VCOM\usbd_vcom.c **** #include "usbd_vcom.h"
  58:C:/Users/Yushev/git/optiga-trust-qi/projects/xmc4700_relax_kit/common/Dave/Generated/USBD_VCOM\usbd_vcom.c **** 
  59:C:/Users/Yushev/git/optiga-trust-qi/projects/xmc4700_relax_kit/common/Dave/Generated/USBD_VCOM\usbd_vcom.c **** /**************************************************************************************************
  60:C:/Users/Yushev/git/optiga-trust-qi/projects/xmc4700_relax_kit/common/Dave/Generated/USBD_VCOM\usbd_vcom.c ****  * MACROS                                                                                          
  61:C:/Users/Yushev/git/optiga-trust-qi/projects/xmc4700_relax_kit/common/Dave/Generated/USBD_VCOM\usbd_vcom.c ****  **************************************************************************************************
  62:C:/Users/Yushev/git/optiga-trust-qi/projects/xmc4700_relax_kit/common/Dave/Generated/USBD_VCOM\usbd_vcom.c **** 
  63:C:/Users/Yushev/git/optiga-trust-qi/projects/xmc4700_relax_kit/common/Dave/Generated/USBD_VCOM\usbd_vcom.c **** /**************************************************************************************************
  64:C:/Users/Yushev/git/optiga-trust-qi/projects/xmc4700_relax_kit/common/Dave/Generated/USBD_VCOM\usbd_vcom.c ****  * LOCAL DATA
  65:C:/Users/Yushev/git/optiga-trust-qi/projects/xmc4700_relax_kit/common/Dave/Generated/USBD_VCOM\usbd_vcom.c ****  **************************************************************************************************
  66:C:/Users/Yushev/git/optiga-trust-qi/projects/xmc4700_relax_kit/common/Dave/Generated/USBD_VCOM\usbd_vcom.c ****  
  67:C:/Users/Yushev/git/optiga-trust-qi/projects/xmc4700_relax_kit/common/Dave/Generated/USBD_VCOM\usbd_vcom.c ****  /*************************************************************************************************
  68:C:/Users/Yushev/git/optiga-trust-qi/projects/xmc4700_relax_kit/common/Dave/Generated/USBD_VCOM\usbd_vcom.c ****  * GLOBAL DATA
  69:C:/Users/Yushev/git/optiga-trust-qi/projects/xmc4700_relax_kit/common/Dave/Generated/USBD_VCOM\usbd_vcom.c ****  **************************************************************************************************
  70:C:/Users/Yushev/git/optiga-trust-qi/projects/xmc4700_relax_kit/common/Dave/Generated/USBD_VCOM\usbd_vcom.c **** /**
  71:C:/Users/Yushev/git/optiga-trust-qi/projects/xmc4700_relax_kit/common/Dave/Generated/USBD_VCOM\usbd_vcom.c ****  * Global CDC class event flags.
  72:C:/Users/Yushev/git/optiga-trust-qi/projects/xmc4700_relax_kit/common/Dave/Generated/USBD_VCOM\usbd_vcom.c ****  * These flags can be polled from top level application.
  73:C:/Users/Yushev/git/optiga-trust-qi/projects/xmc4700_relax_kit/common/Dave/Generated/USBD_VCOM\usbd_vcom.c ****  **/
  74:C:/Users/Yushev/git/optiga-trust-qi/projects/xmc4700_relax_kit/common/Dave/Generated/USBD_VCOM\usbd_vcom.c **** CDC_Class_Event_Flags_t cdc_event_flags;
  75:C:/Users/Yushev/git/optiga-trust-qi/projects/xmc4700_relax_kit/common/Dave/Generated/USBD_VCOM\usbd_vcom.c **** 
  76:C:/Users/Yushev/git/optiga-trust-qi/projects/xmc4700_relax_kit/common/Dave/Generated/USBD_VCOM\usbd_vcom.c **** /*
  77:C:/Users/Yushev/git/optiga-trust-qi/projects/xmc4700_relax_kit/common/Dave/Generated/USBD_VCOM\usbd_vcom.c ****  * Static allocation of endpoint buffers
  78:C:/Users/Yushev/git/optiga-trust-qi/projects/xmc4700_relax_kit/common/Dave/Generated/USBD_VCOM\usbd_vcom.c ****  **/
  79:C:/Users/Yushev/git/optiga-trust-qi/projects/xmc4700_relax_kit/common/Dave/Generated/USBD_VCOM\usbd_vcom.c **** uint8_t notification_ep_buf[USB_FS_MAXPKT_SIZE];
  80:C:/Users/Yushev/git/optiga-trust-qi/projects/xmc4700_relax_kit/common/Dave/Generated/USBD_VCOM\usbd_vcom.c **** uint8_t tx_ep_buf[USB_FS_MAXPKT_SIZE];
  81:C:/Users/Yushev/git/optiga-trust-qi/projects/xmc4700_relax_kit/common/Dave/Generated/USBD_VCOM\usbd_vcom.c **** uint8_t rx_ep_buf[USB_FS_MAXPKT_SIZE];
  82:C:/Users/Yushev/git/optiga-trust-qi/projects/xmc4700_relax_kit/common/Dave/Generated/USBD_VCOM\usbd_vcom.c **** 
  83:C:/Users/Yushev/git/optiga-trust-qi/projects/xmc4700_relax_kit/common/Dave/Generated/USBD_VCOM\usbd_vcom.c **** /**
  84:C:/Users/Yushev/git/optiga-trust-qi/projects/xmc4700_relax_kit/common/Dave/Generated/USBD_VCOM\usbd_vcom.c ****  * @ingroup USBD_VCOM_datastructures
  85:C:/Users/Yushev/git/optiga-trust-qi/projects/xmc4700_relax_kit/common/Dave/Generated/USBD_VCOM\usbd_vcom.c ****  * @{
  86:C:/Users/Yushev/git/optiga-trust-qi/projects/xmc4700_relax_kit/common/Dave/Generated/USBD_VCOM\usbd_vcom.c ****  */
  87:C:/Users/Yushev/git/optiga-trust-qi/projects/xmc4700_relax_kit/common/Dave/Generated/USBD_VCOM\usbd_vcom.c **** 
  88:C:/Users/Yushev/git/optiga-trust-qi/projects/xmc4700_relax_kit/common/Dave/Generated/USBD_VCOM\usbd_vcom.c **** /**
  89:C:/Users/Yushev/git/optiga-trust-qi/projects/xmc4700_relax_kit/common/Dave/Generated/USBD_VCOM\usbd_vcom.c ****  * CDC Class driver interface configuration and state information. This
  90:C:/Users/Yushev/git/optiga-trust-qi/projects/xmc4700_relax_kit/common/Dave/Generated/USBD_VCOM\usbd_vcom.c ****  *  structure is passed to all CDC Class driver functions, so that multiple
  91:C:/Users/Yushev/git/optiga-trust-qi/projects/xmc4700_relax_kit/common/Dave/Generated/USBD_VCOM\usbd_vcom.c ****  *  instances of the same class within a device can be differentiated from 
  92:C:/Users/Yushev/git/optiga-trust-qi/projects/xmc4700_relax_kit/common/Dave/Generated/USBD_VCOM\usbd_vcom.c ****  *  one another.
  93:C:/Users/Yushev/git/optiga-trust-qi/projects/xmc4700_relax_kit/common/Dave/Generated/USBD_VCOM\usbd_vcom.c ****  */
  94:C:/Users/Yushev/git/optiga-trust-qi/projects/xmc4700_relax_kit/common/Dave/Generated/USBD_VCOM\usbd_vcom.c ****  USB_ClassInfo_CDC_Device_t USBD_VCOM_cdc_interface;
  95:C:/Users/Yushev/git/optiga-trust-qi/projects/xmc4700_relax_kit/common/Dave/Generated/USBD_VCOM\usbd_vcom.c ****  
  96:C:/Users/Yushev/git/optiga-trust-qi/projects/xmc4700_relax_kit/common/Dave/Generated/USBD_VCOM\usbd_vcom.c **** /**
  97:C:/Users/Yushev/git/optiga-trust-qi/projects/xmc4700_relax_kit/common/Dave/Generated/USBD_VCOM\usbd_vcom.c ****  * @}
  98:C:/Users/Yushev/git/optiga-trust-qi/projects/xmc4700_relax_kit/common/Dave/Generated/USBD_VCOM\usbd_vcom.c ****  */
  99:C:/Users/Yushev/git/optiga-trust-qi/projects/xmc4700_relax_kit/common/Dave/Generated/USBD_VCOM\usbd_vcom.c **** 
 100:C:/Users/Yushev/git/optiga-trust-qi/projects/xmc4700_relax_kit/common/Dave/Generated/USBD_VCOM\usbd_vcom.c **** /**
 101:C:/Users/Yushev/git/optiga-trust-qi/projects/xmc4700_relax_kit/common/Dave/Generated/USBD_VCOM\usbd_vcom.c ****  * @ingroup USBD_VCOM_datastructures
 102:C:/Users/Yushev/git/optiga-trust-qi/projects/xmc4700_relax_kit/common/Dave/Generated/USBD_VCOM\usbd_vcom.c ****  * @{
 103:C:/Users/Yushev/git/optiga-trust-qi/projects/xmc4700_relax_kit/common/Dave/Generated/USBD_VCOM\usbd_vcom.c ****  */
 104:C:/Users/Yushev/git/optiga-trust-qi/projects/xmc4700_relax_kit/common/Dave/Generated/USBD_VCOM\usbd_vcom.c **** 
 105:C:/Users/Yushev/git/optiga-trust-qi/projects/xmc4700_relax_kit/common/Dave/Generated/USBD_VCOM\usbd_vcom.c **** /**
 106:C:/Users/Yushev/git/optiga-trust-qi/projects/xmc4700_relax_kit/common/Dave/Generated/USBD_VCOM\usbd_vcom.c ****  * USBD_VCOM events.Define the event callbacks which are really required.
 107:C:/Users/Yushev/git/optiga-trust-qi/projects/xmc4700_relax_kit/common/Dave/Generated/USBD_VCOM\usbd_vcom.c ****  * All other unwanted events can be made 0.
 108:C:/Users/Yushev/git/optiga-trust-qi/projects/xmc4700_relax_kit/common/Dave/Generated/USBD_VCOM\usbd_vcom.c ****  * To add any of the USB event:\n
 109:C:/Users/Yushev/git/optiga-trust-qi/projects/xmc4700_relax_kit/common/Dave/Generated/USBD_VCOM\usbd_vcom.c ****  * 1) In the event callback structure add the required event callback handler name.\n
 110:C:/Users/Yushev/git/optiga-trust-qi/projects/xmc4700_relax_kit/common/Dave/Generated/USBD_VCOM\usbd_vcom.c ****  * 2) Define the callback handler in usbd_vcom.c file.\n
 111:C:/Users/Yushev/git/optiga-trust-qi/projects/xmc4700_relax_kit/common/Dave/Generated/USBD_VCOM\usbd_vcom.c ****  * 3) Declare the callback handler in usbd_vcom.h file.\n
 112:C:/Users/Yushev/git/optiga-trust-qi/projects/xmc4700_relax_kit/common/Dave/Generated/USBD_VCOM\usbd_vcom.c ****  *
 113:C:/Users/Yushev/git/optiga-trust-qi/projects/xmc4700_relax_kit/common/Dave/Generated/USBD_VCOM\usbd_vcom.c ****  * The following events are supported in USBD_VCOM APP:\n
 114:C:/Users/Yushev/git/optiga-trust-qi/projects/xmc4700_relax_kit/common/Dave/Generated/USBD_VCOM\usbd_vcom.c ****  * USB connect:\n
 115:C:/Users/Yushev/git/optiga-trust-qi/projects/xmc4700_relax_kit/common/Dave/Generated/USBD_VCOM\usbd_vcom.c ****  * Event for USB device connection. This event fires when the microcontroller is in USB device mode
 116:C:/Users/Yushev/git/optiga-trust-qi/projects/xmc4700_relax_kit/common/Dave/Generated/USBD_VCOM\usbd_vcom.c ****  * connected to a USB host, beginning the enumeration process measured by a rising level on the mic
 117:C:/Users/Yushev/git/optiga-trust-qi/projects/xmc4700_relax_kit/common/Dave/Generated/USBD_VCOM\usbd_vcom.c ****  * This event is time-critical; exceeding OS-specific delays within this event handler (typically o
 118:C:/Users/Yushev/git/optiga-trust-qi/projects/xmc4700_relax_kit/common/Dave/Generated/USBD_VCOM\usbd_vcom.c ****  * prevent the device from enumerating correctly.\n\n
 119:C:/Users/Yushev/git/optiga-trust-qi/projects/xmc4700_relax_kit/common/Dave/Generated/USBD_VCOM\usbd_vcom.c ****  *
 120:C:/Users/Yushev/git/optiga-trust-qi/projects/xmc4700_relax_kit/common/Dave/Generated/USBD_VCOM\usbd_vcom.c ****  * USB Disconnect:\n
 121:C:/Users/Yushev/git/optiga-trust-qi/projects/xmc4700_relax_kit/common/Dave/Generated/USBD_VCOM\usbd_vcom.c ****  * Event for USB device disconnection. This event fires when the microcontroller is in USB device m
 122:C:/Users/Yushev/git/optiga-trust-qi/projects/xmc4700_relax_kit/common/Dave/Generated/USBD_VCOM\usbd_vcom.c ****  * disconnected from a host, measured by a falling level on the microcontroller's VBUS sense pin.\n
 123:C:/Users/Yushev/git/optiga-trust-qi/projects/xmc4700_relax_kit/common/Dave/Generated/USBD_VCOM\usbd_vcom.c ****  *
 124:C:/Users/Yushev/git/optiga-trust-qi/projects/xmc4700_relax_kit/common/Dave/Generated/USBD_VCOM\usbd_vcom.c ****  * Configuration Changed:\n
 125:C:/Users/Yushev/git/optiga-trust-qi/projects/xmc4700_relax_kit/common/Dave/Generated/USBD_VCOM\usbd_vcom.c ****  * Event for USB configuration number changed. This event fires when a the USB host changes the sel
 126:C:/Users/Yushev/git/optiga-trust-qi/projects/xmc4700_relax_kit/common/Dave/Generated/USBD_VCOM\usbd_vcom.c ****  * This event should be hooked in device applications to create the endpoints and configure the dev
 127:C:/Users/Yushev/git/optiga-trust-qi/projects/xmc4700_relax_kit/common/Dave/Generated/USBD_VCOM\usbd_vcom.c ****  * This event is time-critical; exceeding OS-specific delays within this event handler (typically o
 128:C:/Users/Yushev/git/optiga-trust-qi/projects/xmc4700_relax_kit/common/Dave/Generated/USBD_VCOM\usbd_vcom.c ****  * the device from enumerating correctly.\n\n
 129:C:/Users/Yushev/git/optiga-trust-qi/projects/xmc4700_relax_kit/common/Dave/Generated/USBD_VCOM\usbd_vcom.c ****  *
 130:C:/Users/Yushev/git/optiga-trust-qi/projects/xmc4700_relax_kit/common/Dave/Generated/USBD_VCOM\usbd_vcom.c ****  * Control Request:\n
 131:C:/Users/Yushev/git/optiga-trust-qi/projects/xmc4700_relax_kit/common/Dave/Generated/USBD_VCOM\usbd_vcom.c ****  * Event for control requests. This event fires when a the USB host issues a control request to the
 132:C:/Users/Yushev/git/optiga-trust-qi/projects/xmc4700_relax_kit/common/Dave/Generated/USBD_VCOM\usbd_vcom.c ****  * endpoint (of address 0). This may either be a standard request that the library may have a handl
 133:C:/Users/Yushev/git/optiga-trust-qi/projects/xmc4700_relax_kit/common/Dave/Generated/USBD_VCOM\usbd_vcom.c ****  * or a class specific request issued to the device which must be handled appropriately. If a reque
 134:C:/Users/Yushev/git/optiga-trust-qi/projects/xmc4700_relax_kit/common/Dave/Generated/USBD_VCOM\usbd_vcom.c ****  * user application via this event, it will be passed to the library for processing internally if a
 135:C:/Users/Yushev/git/optiga-trust-qi/projects/xmc4700_relax_kit/common/Dave/Generated/USBD_VCOM\usbd_vcom.c ****  *
 136:C:/Users/Yushev/git/optiga-trust-qi/projects/xmc4700_relax_kit/common/Dave/Generated/USBD_VCOM\usbd_vcom.c ****  * This event is time-critical; each packet within the request transaction must be acknowledged or 
 137:C:/Users/Yushev/git/optiga-trust-qi/projects/xmc4700_relax_kit/common/Dave/Generated/USBD_VCOM\usbd_vcom.c ****  * will abort the transfer.\n
 138:C:/Users/Yushev/git/optiga-trust-qi/projects/xmc4700_relax_kit/common/Dave/Generated/USBD_VCOM\usbd_vcom.c ****  *
 139:C:/Users/Yushev/git/optiga-trust-qi/projects/xmc4700_relax_kit/common/Dave/Generated/USBD_VCOM\usbd_vcom.c ****  * The library internally handles all standard control requests with the exceptions of SYNC FRAME, 
 140:C:/Users/Yushev/git/optiga-trust-qi/projects/xmc4700_relax_kit/common/Dave/Generated/USBD_VCOM\usbd_vcom.c ****  * SET INTERFACE. These and all other non-standard control requests will be left for the user to pr
 141:C:/Users/Yushev/git/optiga-trust-qi/projects/xmc4700_relax_kit/common/Dave/Generated/USBD_VCOM\usbd_vcom.c ****  * If not handled in the user application or by the library internally, unknown requests are automa
 142:C:/Users/Yushev/git/optiga-trust-qi/projects/xmc4700_relax_kit/common/Dave/Generated/USBD_VCOM\usbd_vcom.c ****  *
 143:C:/Users/Yushev/git/optiga-trust-qi/projects/xmc4700_relax_kit/common/Dave/Generated/USBD_VCOM\usbd_vcom.c ****  * Set Address:\n
 144:C:/Users/Yushev/git/optiga-trust-qi/projects/xmc4700_relax_kit/common/Dave/Generated/USBD_VCOM\usbd_vcom.c ****  * USB set address event. This event gets fired when USB host requests the device to set the addres
 145:C:/Users/Yushev/git/optiga-trust-qi/projects/xmc4700_relax_kit/common/Dave/Generated/USBD_VCOM\usbd_vcom.c ****  *
 146:C:/Users/Yushev/git/optiga-trust-qi/projects/xmc4700_relax_kit/common/Dave/Generated/USBD_VCOM\usbd_vcom.c ****  * Get Descriptor:\n
 147:C:/Users/Yushev/git/optiga-trust-qi/projects/xmc4700_relax_kit/common/Dave/Generated/USBD_VCOM\usbd_vcom.c ****  * USB Get descriptor event handler. This function is called by the library when in device mode. Wh
 148:C:/Users/Yushev/git/optiga-trust-qi/projects/xmc4700_relax_kit/common/Dave/Generated/USBD_VCOM\usbd_vcom.c ****  * Get Descriptor request on the control endpoint, this function is called so that the descriptor d
 149:C:/Users/Yushev/git/optiga-trust-qi/projects/xmc4700_relax_kit/common/Dave/Generated/USBD_VCOM\usbd_vcom.c ****  * and the appropriate descriptor sent back to the USB host.
 150:C:/Users/Yushev/git/optiga-trust-qi/projects/xmc4700_relax_kit/common/Dave/Generated/USBD_VCOM\usbd_vcom.c ****  * The user has to send proper descriptor(device,configuration and string) and should return the si
 151:C:/Users/Yushev/git/optiga-trust-qi/projects/xmc4700_relax_kit/common/Dave/Generated/USBD_VCOM\usbd_vcom.c ****  *
 152:C:/Users/Yushev/git/optiga-trust-qi/projects/xmc4700_relax_kit/common/Dave/Generated/USBD_VCOM\usbd_vcom.c ****  * Wakeup Event:\n
 153:C:/Users/Yushev/git/optiga-trust-qi/projects/xmc4700_relax_kit/common/Dave/Generated/USBD_VCOM\usbd_vcom.c ****  * Event for USB wake up. This event fires when a the USB interface is suspended while in device mo
 154:C:/Users/Yushev/git/optiga-trust-qi/projects/xmc4700_relax_kit/common/Dave/Generated/USBD_VCOM\usbd_vcom.c ****  * device by supplying Start Of Frame pulses. This is generally hooked to pull the user application
 155:C:/Users/Yushev/git/optiga-trust-qi/projects/xmc4700_relax_kit/common/Dave/Generated/USBD_VCOM\usbd_vcom.c ****  * back into normal operating mode.\n\n
 156:C:/Users/Yushev/git/optiga-trust-qi/projects/xmc4700_relax_kit/common/Dave/Generated/USBD_VCOM\usbd_vcom.c ****  *
 157:C:/Users/Yushev/git/optiga-trust-qi/projects/xmc4700_relax_kit/common/Dave/Generated/USBD_VCOM\usbd_vcom.c ****  * Suspend Event:\n
 158:C:/Users/Yushev/git/optiga-trust-qi/projects/xmc4700_relax_kit/common/Dave/Generated/USBD_VCOM\usbd_vcom.c ****  * Event for USB suspend. This event fires when a the USB host suspends the device by halting its t
 159:C:/Users/Yushev/git/optiga-trust-qi/projects/xmc4700_relax_kit/common/Dave/Generated/USBD_VCOM\usbd_vcom.c ****  * pulses to the device. This is generally hooked in order to move the device over to a low power s
 160:C:/Users/Yushev/git/optiga-trust-qi/projects/xmc4700_relax_kit/common/Dave/Generated/USBD_VCOM\usbd_vcom.c ****  * device.\n\n
 161:C:/Users/Yushev/git/optiga-trust-qi/projects/xmc4700_relax_kit/common/Dave/Generated/USBD_VCOM\usbd_vcom.c ****  *
 162:C:/Users/Yushev/git/optiga-trust-qi/projects/xmc4700_relax_kit/common/Dave/Generated/USBD_VCOM\usbd_vcom.c ****  * SOF(Start Of Frame) Event:\n
 163:C:/Users/Yushev/git/optiga-trust-qi/projects/xmc4700_relax_kit/common/Dave/Generated/USBD_VCOM\usbd_vcom.c ****  * Event for USB Start Of Frame detection, when enabled. This event fires at the start of each USB 
 164:C:/Users/Yushev/git/optiga-trust-qi/projects/xmc4700_relax_kit/common/Dave/Generated/USBD_VCOM\usbd_vcom.c ****  * is synchronized to the USB bus. This can be used as an accurate millisecond timer source when th
 165:C:/Users/Yushev/git/optiga-trust-qi/projects/xmc4700_relax_kit/common/Dave/Generated/USBD_VCOM\usbd_vcom.c ****  * device mode. This event is time-critical; it is run once per millisecond and thus will significa
 166:C:/Users/Yushev/git/optiga-trust-qi/projects/xmc4700_relax_kit/common/Dave/Generated/USBD_VCOM\usbd_vcom.c ****  * This event should only be enabled when needed to reduce device wake-ups.\n\n
 167:C:/Users/Yushev/git/optiga-trust-qi/projects/xmc4700_relax_kit/common/Dave/Generated/USBD_VCOM\usbd_vcom.c ****  *
 168:C:/Users/Yushev/git/optiga-trust-qi/projects/xmc4700_relax_kit/common/Dave/Generated/USBD_VCOM\usbd_vcom.c ****  * Reset event:\n
 169:C:/Users/Yushev/git/optiga-trust-qi/projects/xmc4700_relax_kit/common/Dave/Generated/USBD_VCOM\usbd_vcom.c ****  * Event for USB interface reset. This event fires when the USB interface is in device mode, and  t
 170:C:/Users/Yushev/git/optiga-trust-qi/projects/xmc4700_relax_kit/common/Dave/Generated/USBD_VCOM\usbd_vcom.c ****  * device reset its interface.
 171:C:/Users/Yushev/git/optiga-trust-qi/projects/xmc4700_relax_kit/common/Dave/Generated/USBD_VCOM\usbd_vcom.c ****  * This event is time-critical; exceeding OS-specific delays within this event handler (typically o
 172:C:/Users/Yushev/git/optiga-trust-qi/projects/xmc4700_relax_kit/common/Dave/Generated/USBD_VCOM\usbd_vcom.c ****  * will prevent the device from enumerating correctly.
 173:C:/Users/Yushev/git/optiga-trust-qi/projects/xmc4700_relax_kit/common/Dave/Generated/USBD_VCOM\usbd_vcom.c ****  *
 174:C:/Users/Yushev/git/optiga-trust-qi/projects/xmc4700_relax_kit/common/Dave/Generated/USBD_VCOM\usbd_vcom.c ****  **/
 175:C:/Users/Yushev/git/optiga-trust-qi/projects/xmc4700_relax_kit/common/Dave/Generated/USBD_VCOM\usbd_vcom.c **** USBD_Event_CB_t usbd_vcom_events = 
 176:C:/Users/Yushev/git/optiga-trust-qi/projects/xmc4700_relax_kit/common/Dave/Generated/USBD_VCOM\usbd_vcom.c **** {
 177:C:/Users/Yushev/git/optiga-trust-qi/projects/xmc4700_relax_kit/common/Dave/Generated/USBD_VCOM\usbd_vcom.c ****   0,/**< connect event*/
 178:C:/Users/Yushev/git/optiga-trust-qi/projects/xmc4700_relax_kit/common/Dave/Generated/USBD_VCOM\usbd_vcom.c ****   0,/**< disconnect event*/
 179:C:/Users/Yushev/git/optiga-trust-qi/projects/xmc4700_relax_kit/common/Dave/Generated/USBD_VCOM\usbd_vcom.c ****   USBD_VCOM_Event_ConfigurationChanged,/**< configuration changed event*/
 180:C:/Users/Yushev/git/optiga-trust-qi/projects/xmc4700_relax_kit/common/Dave/Generated/USBD_VCOM\usbd_vcom.c ****   USBD_VCOM_Event_ControlRequest,/**< control request event*/
 181:C:/Users/Yushev/git/optiga-trust-qi/projects/xmc4700_relax_kit/common/Dave/Generated/USBD_VCOM\usbd_vcom.c ****   0,/**< Set Address event*/
 182:C:/Users/Yushev/git/optiga-trust-qi/projects/xmc4700_relax_kit/common/Dave/Generated/USBD_VCOM\usbd_vcom.c ****   USBD_VCOM_Event_GetDescriptor,/**< Get descriptor event*/
 183:C:/Users/Yushev/git/optiga-trust-qi/projects/xmc4700_relax_kit/common/Dave/Generated/USBD_VCOM\usbd_vcom.c ****   0,/**< wake up event*/
 184:C:/Users/Yushev/git/optiga-trust-qi/projects/xmc4700_relax_kit/common/Dave/Generated/USBD_VCOM\usbd_vcom.c ****   0,/**< suspend event*/
 185:C:/Users/Yushev/git/optiga-trust-qi/projects/xmc4700_relax_kit/common/Dave/Generated/USBD_VCOM\usbd_vcom.c ****   0,/**< start of frame event*/
 186:C:/Users/Yushev/git/optiga-trust-qi/projects/xmc4700_relax_kit/common/Dave/Generated/USBD_VCOM\usbd_vcom.c ****   USBD_VCOM_Event_Reset/**< USB reset event*/
 187:C:/Users/Yushev/git/optiga-trust-qi/projects/xmc4700_relax_kit/common/Dave/Generated/USBD_VCOM\usbd_vcom.c **** };
 188:C:/Users/Yushev/git/optiga-trust-qi/projects/xmc4700_relax_kit/common/Dave/Generated/USBD_VCOM\usbd_vcom.c **** /**
 189:C:/Users/Yushev/git/optiga-trust-qi/projects/xmc4700_relax_kit/common/Dave/Generated/USBD_VCOM\usbd_vcom.c ****  * @}
 190:C:/Users/Yushev/git/optiga-trust-qi/projects/xmc4700_relax_kit/common/Dave/Generated/USBD_VCOM\usbd_vcom.c ****  */
 191:C:/Users/Yushev/git/optiga-trust-qi/projects/xmc4700_relax_kit/common/Dave/Generated/USBD_VCOM\usbd_vcom.c **** 
 192:C:/Users/Yushev/git/optiga-trust-qi/projects/xmc4700_relax_kit/common/Dave/Generated/USBD_VCOM\usbd_vcom.c **** /**
 193:C:/Users/Yushev/git/optiga-trust-qi/projects/xmc4700_relax_kit/common/Dave/Generated/USBD_VCOM\usbd_vcom.c ****  * @ingroup USBD_VCOM_datastructures
 194:C:/Users/Yushev/git/optiga-trust-qi/projects/xmc4700_relax_kit/common/Dave/Generated/USBD_VCOM\usbd_vcom.c ****  * @{
 195:C:/Users/Yushev/git/optiga-trust-qi/projects/xmc4700_relax_kit/common/Dave/Generated/USBD_VCOM\usbd_vcom.c ****  */
 196:C:/Users/Yushev/git/optiga-trust-qi/projects/xmc4700_relax_kit/common/Dave/Generated/USBD_VCOM\usbd_vcom.c **** /**
 197:C:/Users/Yushev/git/optiga-trust-qi/projects/xmc4700_relax_kit/common/Dave/Generated/USBD_VCOM\usbd_vcom.c ****  * USB CDC class event call backs.
 198:C:/Users/Yushev/git/optiga-trust-qi/projects/xmc4700_relax_kit/common/Dave/Generated/USBD_VCOM\usbd_vcom.c ****  * Define the event call backs if required.
 199:C:/Users/Yushev/git/optiga-trust-qi/projects/xmc4700_relax_kit/common/Dave/Generated/USBD_VCOM\usbd_vcom.c ****  * Unwanted events can be made 0.
 200:C:/Users/Yushev/git/optiga-trust-qi/projects/xmc4700_relax_kit/common/Dave/Generated/USBD_VCOM\usbd_vcom.c ****  **/
 201:C:/Users/Yushev/git/optiga-trust-qi/projects/xmc4700_relax_kit/common/Dave/Generated/USBD_VCOM\usbd_vcom.c **** USB_CDCClass_event_CB_t cdc_class_events = 
 202:C:/Users/Yushev/git/optiga-trust-qi/projects/xmc4700_relax_kit/common/Dave/Generated/USBD_VCOM\usbd_vcom.c **** {
 203:C:/Users/Yushev/git/optiga-trust-qi/projects/xmc4700_relax_kit/common/Dave/Generated/USBD_VCOM\usbd_vcom.c ****   /**< CDC class line encoding changed event handler.*/
 204:C:/Users/Yushev/git/optiga-trust-qi/projects/xmc4700_relax_kit/common/Dave/Generated/USBD_VCOM\usbd_vcom.c ****   USBD_VCOM_CDCClass_Event_LineEncodingChanged,
 205:C:/Users/Yushev/git/optiga-trust-qi/projects/xmc4700_relax_kit/common/Dave/Generated/USBD_VCOM\usbd_vcom.c **** 
 206:C:/Users/Yushev/git/optiga-trust-qi/projects/xmc4700_relax_kit/common/Dave/Generated/USBD_VCOM\usbd_vcom.c ****   /**< CDC class control line state changed event handler.*/
 207:C:/Users/Yushev/git/optiga-trust-qi/projects/xmc4700_relax_kit/common/Dave/Generated/USBD_VCOM\usbd_vcom.c ****   USBD_VCOM_CDCClass_Event_ControlLineStateChanged,
 208:C:/Users/Yushev/git/optiga-trust-qi/projects/xmc4700_relax_kit/common/Dave/Generated/USBD_VCOM\usbd_vcom.c **** 
 209:C:/Users/Yushev/git/optiga-trust-qi/projects/xmc4700_relax_kit/common/Dave/Generated/USBD_VCOM\usbd_vcom.c ****   /**< CDC class break sent event handler.*/
 210:C:/Users/Yushev/git/optiga-trust-qi/projects/xmc4700_relax_kit/common/Dave/Generated/USBD_VCOM\usbd_vcom.c ****   USBD_VCOM_CDCClass_Event_BreakSent
 211:C:/Users/Yushev/git/optiga-trust-qi/projects/xmc4700_relax_kit/common/Dave/Generated/USBD_VCOM\usbd_vcom.c **** };
 212:C:/Users/Yushev/git/optiga-trust-qi/projects/xmc4700_relax_kit/common/Dave/Generated/USBD_VCOM\usbd_vcom.c **** 
 213:C:/Users/Yushev/git/optiga-trust-qi/projects/xmc4700_relax_kit/common/Dave/Generated/USBD_VCOM\usbd_vcom.c **** /**
 214:C:/Users/Yushev/git/optiga-trust-qi/projects/xmc4700_relax_kit/common/Dave/Generated/USBD_VCOM\usbd_vcom.c ****  * @}
 215:C:/Users/Yushev/git/optiga-trust-qi/projects/xmc4700_relax_kit/common/Dave/Generated/USBD_VCOM\usbd_vcom.c ****  */
 216:C:/Users/Yushev/git/optiga-trust-qi/projects/xmc4700_relax_kit/common/Dave/Generated/USBD_VCOM\usbd_vcom.c ****  
 217:C:/Users/Yushev/git/optiga-trust-qi/projects/xmc4700_relax_kit/common/Dave/Generated/USBD_VCOM\usbd_vcom.c ****  /*************************************************************************************************
 218:C:/Users/Yushev/git/optiga-trust-qi/projects/xmc4700_relax_kit/common/Dave/Generated/USBD_VCOM\usbd_vcom.c ****  * LOCAL ROUTINES 
 219:C:/Users/Yushev/git/optiga-trust-qi/projects/xmc4700_relax_kit/common/Dave/Generated/USBD_VCOM\usbd_vcom.c ****  **************************************************************************************************
 220:C:/Users/Yushev/git/optiga-trust-qi/projects/xmc4700_relax_kit/common/Dave/Generated/USBD_VCOM\usbd_vcom.c **** 
 221:C:/Users/Yushev/git/optiga-trust-qi/projects/xmc4700_relax_kit/common/Dave/Generated/USBD_VCOM\usbd_vcom.c **** 
 222:C:/Users/Yushev/git/optiga-trust-qi/projects/xmc4700_relax_kit/common/Dave/Generated/USBD_VCOM\usbd_vcom.c **** /**************************************************************************************************
 223:C:/Users/Yushev/git/optiga-trust-qi/projects/xmc4700_relax_kit/common/Dave/Generated/USBD_VCOM\usbd_vcom.c ****  * API IMPLEMENTATION
 224:C:/Users/Yushev/git/optiga-trust-qi/projects/xmc4700_relax_kit/common/Dave/Generated/USBD_VCOM\usbd_vcom.c ****  **************************************************************************************************
 225:C:/Users/Yushev/git/optiga-trust-qi/projects/xmc4700_relax_kit/common/Dave/Generated/USBD_VCOM\usbd_vcom.c **** /*
 226:C:/Users/Yushev/git/optiga-trust-qi/projects/xmc4700_relax_kit/common/Dave/Generated/USBD_VCOM\usbd_vcom.c ****  * API to retrieve the version of the USBD_VCOM
 227:C:/Users/Yushev/git/optiga-trust-qi/projects/xmc4700_relax_kit/common/Dave/Generated/USBD_VCOM\usbd_vcom.c ****  */
 228:C:/Users/Yushev/git/optiga-trust-qi/projects/xmc4700_relax_kit/common/Dave/Generated/USBD_VCOM\usbd_vcom.c **** DAVE_APP_VERSION_t USBD_VCOM_GetAppVersion(void)
 229:C:/Users/Yushev/git/optiga-trust-qi/projects/xmc4700_relax_kit/common/Dave/Generated/USBD_VCOM\usbd_vcom.c **** {
 230:C:/Users/Yushev/git/optiga-trust-qi/projects/xmc4700_relax_kit/common/Dave/Generated/USBD_VCOM\usbd_vcom.c ****   DAVE_APP_VERSION_t version;
 231:C:/Users/Yushev/git/optiga-trust-qi/projects/xmc4700_relax_kit/common/Dave/Generated/USBD_VCOM\usbd_vcom.c **** 
 232:C:/Users/Yushev/git/optiga-trust-qi/projects/xmc4700_relax_kit/common/Dave/Generated/USBD_VCOM\usbd_vcom.c ****   version.major = USBD_VCOM_MAJOR_VERSION;
 233:C:/Users/Yushev/git/optiga-trust-qi/projects/xmc4700_relax_kit/common/Dave/Generated/USBD_VCOM\usbd_vcom.c ****   version.minor = USBD_VCOM_MINOR_VERSION;
 234:C:/Users/Yushev/git/optiga-trust-qi/projects/xmc4700_relax_kit/common/Dave/Generated/USBD_VCOM\usbd_vcom.c ****   version.patch = USBD_VCOM_PATCH_VERSION;
 235:C:/Users/Yushev/git/optiga-trust-qi/projects/xmc4700_relax_kit/common/Dave/Generated/USBD_VCOM\usbd_vcom.c **** 
 236:C:/Users/Yushev/git/optiga-trust-qi/projects/xmc4700_relax_kit/common/Dave/Generated/USBD_VCOM\usbd_vcom.c ****   return version;
 237:C:/Users/Yushev/git/optiga-trust-qi/projects/xmc4700_relax_kit/common/Dave/Generated/USBD_VCOM\usbd_vcom.c **** }
 238:C:/Users/Yushev/git/optiga-trust-qi/projects/xmc4700_relax_kit/common/Dave/Generated/USBD_VCOM\usbd_vcom.c **** 
 239:C:/Users/Yushev/git/optiga-trust-qi/projects/xmc4700_relax_kit/common/Dave/Generated/USBD_VCOM\usbd_vcom.c **** 
 240:C:/Users/Yushev/git/optiga-trust-qi/projects/xmc4700_relax_kit/common/Dave/Generated/USBD_VCOM\usbd_vcom.c **** /*The function initializes the USB core layer and register USB event call backs. */
 241:C:/Users/Yushev/git/optiga-trust-qi/projects/xmc4700_relax_kit/common/Dave/Generated/USBD_VCOM\usbd_vcom.c **** USBD_VCOM_STATUS_t USBD_VCOM_Init(USBD_VCOM_t *vcom_handle)
 242:C:/Users/Yushev/git/optiga-trust-qi/projects/xmc4700_relax_kit/common/Dave/Generated/USBD_VCOM\usbd_vcom.c **** {
 243:C:/Users/Yushev/git/optiga-trust-qi/projects/xmc4700_relax_kit/common/Dave/Generated/USBD_VCOM\usbd_vcom.c ****   USBD_VCOM_STATUS_t status = USBD_VCOM_STATUS_SUCCESS;
 244:C:/Users/Yushev/git/optiga-trust-qi/projects/xmc4700_relax_kit/common/Dave/Generated/USBD_VCOM\usbd_vcom.c **** 
 245:C:/Users/Yushev/git/optiga-trust-qi/projects/xmc4700_relax_kit/common/Dave/Generated/USBD_VCOM\usbd_vcom.c ****   XMC_ASSERT("USBD_VCOM_Init: vcom_handle not valid", (vcom_handle != NULL));
 246:C:/Users/Yushev/git/optiga-trust-qi/projects/xmc4700_relax_kit/common/Dave/Generated/USBD_VCOM\usbd_vcom.c **** 
 247:C:/Users/Yushev/git/optiga-trust-qi/projects/xmc4700_relax_kit/common/Dave/Generated/USBD_VCOM\usbd_vcom.c ****   /*Initialize CDC interface*/
 248:C:/Users/Yushev/git/optiga-trust-qi/projects/xmc4700_relax_kit/common/Dave/Generated/USBD_VCOM\usbd_vcom.c ****   USBD_VCOM_cdc_interface.Config.ControlInterfaceNumber = 0U;
 249:C:/Users/Yushev/git/optiga-trust-qi/projects/xmc4700_relax_kit/common/Dave/Generated/USBD_VCOM\usbd_vcom.c ****   USBD_VCOM_cdc_interface.Config.DataINEndpoint.Address = (ENDPOINT_DIR_IN | CDC_TX_EPNUM);
 250:C:/Users/Yushev/git/optiga-trust-qi/projects/xmc4700_relax_kit/common/Dave/Generated/USBD_VCOM\usbd_vcom.c ****   USBD_VCOM_cdc_interface.Config.DataINEndpoint.Size = CDC_TXRX_EPSIZE;
 251:C:/Users/Yushev/git/optiga-trust-qi/projects/xmc4700_relax_kit/common/Dave/Generated/USBD_VCOM\usbd_vcom.c ****   USBD_VCOM_cdc_interface.Config.DataINEndpoint.Type = (uint8_t)EP_TYPE_BULK;
 252:C:/Users/Yushev/git/optiga-trust-qi/projects/xmc4700_relax_kit/common/Dave/Generated/USBD_VCOM\usbd_vcom.c ****   USBD_VCOM_cdc_interface.Config.DataINEndpoint.Banks = 0U;
 253:C:/Users/Yushev/git/optiga-trust-qi/projects/xmc4700_relax_kit/common/Dave/Generated/USBD_VCOM\usbd_vcom.c ****   USBD_VCOM_cdc_interface.Config.DataOUTEndpoint.Address = CDC_RX_EPNUM;
 254:C:/Users/Yushev/git/optiga-trust-qi/projects/xmc4700_relax_kit/common/Dave/Generated/USBD_VCOM\usbd_vcom.c ****   USBD_VCOM_cdc_interface.Config.DataOUTEndpoint.Size = CDC_TXRX_EPSIZE;
 255:C:/Users/Yushev/git/optiga-trust-qi/projects/xmc4700_relax_kit/common/Dave/Generated/USBD_VCOM\usbd_vcom.c ****   USBD_VCOM_cdc_interface.Config.DataOUTEndpoint.Type = (uint8_t)EP_TYPE_BULK;
 256:C:/Users/Yushev/git/optiga-trust-qi/projects/xmc4700_relax_kit/common/Dave/Generated/USBD_VCOM\usbd_vcom.c ****   USBD_VCOM_cdc_interface.Config.DataOUTEndpoint.Banks = 0U;
 257:C:/Users/Yushev/git/optiga-trust-qi/projects/xmc4700_relax_kit/common/Dave/Generated/USBD_VCOM\usbd_vcom.c ****   USBD_VCOM_cdc_interface.Config.NotificationEndpoint.Address = (ENDPOINT_DIR_IN | CDC_NOTIFICATION
 258:C:/Users/Yushev/git/optiga-trust-qi/projects/xmc4700_relax_kit/common/Dave/Generated/USBD_VCOM\usbd_vcom.c ****   USBD_VCOM_cdc_interface.Config.NotificationEndpoint.Size = CDC_NOTIFICATION_EPSIZE;
 259:C:/Users/Yushev/git/optiga-trust-qi/projects/xmc4700_relax_kit/common/Dave/Generated/USBD_VCOM\usbd_vcom.c ****   USBD_VCOM_cdc_interface.Config.NotificationEndpoint.Type = (uint8_t)EP_TYPE_INTERRUPT;
 260:C:/Users/Yushev/git/optiga-trust-qi/projects/xmc4700_relax_kit/common/Dave/Generated/USBD_VCOM\usbd_vcom.c ****   USBD_VCOM_cdc_interface.Config.NotificationEndpoint.Banks = 0U;
 261:C:/Users/Yushev/git/optiga-trust-qi/projects/xmc4700_relax_kit/common/Dave/Generated/USBD_VCOM\usbd_vcom.c **** 
 262:C:/Users/Yushev/git/optiga-trust-qi/projects/xmc4700_relax_kit/common/Dave/Generated/USBD_VCOM\usbd_vcom.c ****   /*Register the required USB events*/
 263:C:/Users/Yushev/git/optiga-trust-qi/projects/xmc4700_relax_kit/common/Dave/Generated/USBD_VCOM\usbd_vcom.c ****   if (USBD_VCOM_STATUS_SUCCESS == USBD_VCOM_Register_USBEvent_CB(&usbd_vcom_events))
 264:C:/Users/Yushev/git/optiga-trust-qi/projects/xmc4700_relax_kit/common/Dave/Generated/USBD_VCOM\usbd_vcom.c ****   {
 265:C:/Users/Yushev/git/optiga-trust-qi/projects/xmc4700_relax_kit/common/Dave/Generated/USBD_VCOM\usbd_vcom.c ****     if (USBD_VCOM_STATUS_SUCCESS != (USBD_VCOM_STATUS_t)USBD_Init(USBD_handle))
 266:C:/Users/Yushev/git/optiga-trust-qi/projects/xmc4700_relax_kit/common/Dave/Generated/USBD_VCOM\usbd_vcom.c ****     {
 267:C:/Users/Yushev/git/optiga-trust-qi/projects/xmc4700_relax_kit/common/Dave/Generated/USBD_VCOM\usbd_vcom.c ****       status = USBD_VCOM_STATUS_FAILURE;
 268:C:/Users/Yushev/git/optiga-trust-qi/projects/xmc4700_relax_kit/common/Dave/Generated/USBD_VCOM\usbd_vcom.c ****     }
 269:C:/Users/Yushev/git/optiga-trust-qi/projects/xmc4700_relax_kit/common/Dave/Generated/USBD_VCOM\usbd_vcom.c ****   }
 270:C:/Users/Yushev/git/optiga-trust-qi/projects/xmc4700_relax_kit/common/Dave/Generated/USBD_VCOM\usbd_vcom.c ****   else
 271:C:/Users/Yushev/git/optiga-trust-qi/projects/xmc4700_relax_kit/common/Dave/Generated/USBD_VCOM\usbd_vcom.c ****   {
 272:C:/Users/Yushev/git/optiga-trust-qi/projects/xmc4700_relax_kit/common/Dave/Generated/USBD_VCOM\usbd_vcom.c ****     status = USBD_VCOM_STATUS_FAILURE;
 273:C:/Users/Yushev/git/optiga-trust-qi/projects/xmc4700_relax_kit/common/Dave/Generated/USBD_VCOM\usbd_vcom.c ****   }
 274:C:/Users/Yushev/git/optiga-trust-qi/projects/xmc4700_relax_kit/common/Dave/Generated/USBD_VCOM\usbd_vcom.c ****   /*Remove the compilation warning*/
 275:C:/Users/Yushev/git/optiga-trust-qi/projects/xmc4700_relax_kit/common/Dave/Generated/USBD_VCOM\usbd_vcom.c ****   (void)vcom_handle;
 276:C:/Users/Yushev/git/optiga-trust-qi/projects/xmc4700_relax_kit/common/Dave/Generated/USBD_VCOM\usbd_vcom.c **** 
 277:C:/Users/Yushev/git/optiga-trust-qi/projects/xmc4700_relax_kit/common/Dave/Generated/USBD_VCOM\usbd_vcom.c ****   return status;
 278:C:/Users/Yushev/git/optiga-trust-qi/projects/xmc4700_relax_kit/common/Dave/Generated/USBD_VCOM\usbd_vcom.c **** }
 279:C:/Users/Yushev/git/optiga-trust-qi/projects/xmc4700_relax_kit/common/Dave/Generated/USBD_VCOM\usbd_vcom.c **** 
 280:C:/Users/Yushev/git/optiga-trust-qi/projects/xmc4700_relax_kit/common/Dave/Generated/USBD_VCOM\usbd_vcom.c **** /*The function check if the enumeration has been done already. */
 281:C:/Users/Yushev/git/optiga-trust-qi/projects/xmc4700_relax_kit/common/Dave/Generated/USBD_VCOM\usbd_vcom.c **** uint32_t USBD_VCOM_IsEnumDone(void)
 282:C:/Users/Yushev/git/optiga-trust-qi/projects/xmc4700_relax_kit/common/Dave/Generated/USBD_VCOM\usbd_vcom.c **** {
 283:C:/Users/Yushev/git/optiga-trust-qi/projects/xmc4700_relax_kit/common/Dave/Generated/USBD_VCOM\usbd_vcom.c ****   return (uint32_t)(USBD_IsEnumDone() && (USB_DeviceState == (uint8_t)DEVICE_STATE_Configured));
 284:C:/Users/Yushev/git/optiga-trust-qi/projects/xmc4700_relax_kit/common/Dave/Generated/USBD_VCOM\usbd_vcom.c **** }
 285:C:/Users/Yushev/git/optiga-trust-qi/projects/xmc4700_relax_kit/common/Dave/Generated/USBD_VCOM\usbd_vcom.c **** 
 286:C:/Users/Yushev/git/optiga-trust-qi/projects/xmc4700_relax_kit/common/Dave/Generated/USBD_VCOM\usbd_vcom.c **** /* This function sends a byte to the USB host. */
 287:C:/Users/Yushev/git/optiga-trust-qi/projects/xmc4700_relax_kit/common/Dave/Generated/USBD_VCOM\usbd_vcom.c **** USBD_VCOM_STATUS_t USBD_VCOM_SendByte(const uint8_t data_byte)
 288:C:/Users/Yushev/git/optiga-trust-qi/projects/xmc4700_relax_kit/common/Dave/Generated/USBD_VCOM\usbd_vcom.c **** {
 289:C:/Users/Yushev/git/optiga-trust-qi/projects/xmc4700_relax_kit/common/Dave/Generated/USBD_VCOM\usbd_vcom.c ****   USBD_VCOM_STATUS_t status = USBD_VCOM_STATUS_SUCCESS;
 290:C:/Users/Yushev/git/optiga-trust-qi/projects/xmc4700_relax_kit/common/Dave/Generated/USBD_VCOM\usbd_vcom.c **** 
 291:C:/Users/Yushev/git/optiga-trust-qi/projects/xmc4700_relax_kit/common/Dave/Generated/USBD_VCOM\usbd_vcom.c ****   /* Send a byte to the host. */
 292:C:/Users/Yushev/git/optiga-trust-qi/projects/xmc4700_relax_kit/common/Dave/Generated/USBD_VCOM\usbd_vcom.c ****   if ((uint8_t)ENDPOINT_RWSTREAM_NoError != CDC_Device_SendByte(&USBD_VCOM_cdc_interface, data_byte
 293:C:/Users/Yushev/git/optiga-trust-qi/projects/xmc4700_relax_kit/common/Dave/Generated/USBD_VCOM\usbd_vcom.c ****   {
 294:C:/Users/Yushev/git/optiga-trust-qi/projects/xmc4700_relax_kit/common/Dave/Generated/USBD_VCOM\usbd_vcom.c ****     status = USBD_VCOM_STATUS_CDC_ERROR;
 295:C:/Users/Yushev/git/optiga-trust-qi/projects/xmc4700_relax_kit/common/Dave/Generated/USBD_VCOM\usbd_vcom.c ****   }
 296:C:/Users/Yushev/git/optiga-trust-qi/projects/xmc4700_relax_kit/common/Dave/Generated/USBD_VCOM\usbd_vcom.c ****   if ((uint8_t)ENDPOINT_READYWAIT_NoError != CDC_Device_Flush(&USBD_VCOM_cdc_interface))
 297:C:/Users/Yushev/git/optiga-trust-qi/projects/xmc4700_relax_kit/common/Dave/Generated/USBD_VCOM\usbd_vcom.c ****   {
 298:C:/Users/Yushev/git/optiga-trust-qi/projects/xmc4700_relax_kit/common/Dave/Generated/USBD_VCOM\usbd_vcom.c ****     status = USBD_VCOM_STATUS_CDC_ERROR;
 299:C:/Users/Yushev/git/optiga-trust-qi/projects/xmc4700_relax_kit/common/Dave/Generated/USBD_VCOM\usbd_vcom.c ****   }
 300:C:/Users/Yushev/git/optiga-trust-qi/projects/xmc4700_relax_kit/common/Dave/Generated/USBD_VCOM\usbd_vcom.c **** 
 301:C:/Users/Yushev/git/optiga-trust-qi/projects/xmc4700_relax_kit/common/Dave/Generated/USBD_VCOM\usbd_vcom.c ****   return status;
 302:C:/Users/Yushev/git/optiga-trust-qi/projects/xmc4700_relax_kit/common/Dave/Generated/USBD_VCOM\usbd_vcom.c **** }
 303:C:/Users/Yushev/git/optiga-trust-qi/projects/xmc4700_relax_kit/common/Dave/Generated/USBD_VCOM\usbd_vcom.c **** 
 304:C:/Users/Yushev/git/optiga-trust-qi/projects/xmc4700_relax_kit/common/Dave/Generated/USBD_VCOM\usbd_vcom.c **** /* This function sends multiple bytes to the USB host. */
 305:C:/Users/Yushev/git/optiga-trust-qi/projects/xmc4700_relax_kit/common/Dave/Generated/USBD_VCOM\usbd_vcom.c **** USBD_VCOM_STATUS_t USBD_VCOM_SendData(const int8_t* const data_buffer, const uint16_t length)
 306:C:/Users/Yushev/git/optiga-trust-qi/projects/xmc4700_relax_kit/common/Dave/Generated/USBD_VCOM\usbd_vcom.c **** {
 307:C:/Users/Yushev/git/optiga-trust-qi/projects/xmc4700_relax_kit/common/Dave/Generated/USBD_VCOM\usbd_vcom.c ****   USBD_VCOM_STATUS_t status = USBD_VCOM_STATUS_SUCCESS;
 308:C:/Users/Yushev/git/optiga-trust-qi/projects/xmc4700_relax_kit/common/Dave/Generated/USBD_VCOM\usbd_vcom.c **** 
 309:C:/Users/Yushev/git/optiga-trust-qi/projects/xmc4700_relax_kit/common/Dave/Generated/USBD_VCOM\usbd_vcom.c ****   if ((length == 0U) || (data_buffer == NULL))
 310:C:/Users/Yushev/git/optiga-trust-qi/projects/xmc4700_relax_kit/common/Dave/Generated/USBD_VCOM\usbd_vcom.c ****   {
 311:C:/Users/Yushev/git/optiga-trust-qi/projects/xmc4700_relax_kit/common/Dave/Generated/USBD_VCOM\usbd_vcom.c ****     status = USBD_VCOM_STATUS_CDC_ERROR;		  
 312:C:/Users/Yushev/git/optiga-trust-qi/projects/xmc4700_relax_kit/common/Dave/Generated/USBD_VCOM\usbd_vcom.c ****   }
 313:C:/Users/Yushev/git/optiga-trust-qi/projects/xmc4700_relax_kit/common/Dave/Generated/USBD_VCOM\usbd_vcom.c ****   else
 314:C:/Users/Yushev/git/optiga-trust-qi/projects/xmc4700_relax_kit/common/Dave/Generated/USBD_VCOM\usbd_vcom.c ****   {
 315:C:/Users/Yushev/git/optiga-trust-qi/projects/xmc4700_relax_kit/common/Dave/Generated/USBD_VCOM\usbd_vcom.c ****     /* Send data to USB host.*/
 316:C:/Users/Yushev/git/optiga-trust-qi/projects/xmc4700_relax_kit/common/Dave/Generated/USBD_VCOM\usbd_vcom.c ****     if ((uint8_t)ENDPOINT_RWSTREAM_NoError !=
 317:C:/Users/Yushev/git/optiga-trust-qi/projects/xmc4700_relax_kit/common/Dave/Generated/USBD_VCOM\usbd_vcom.c ****         CDC_Device_SendData(&USBD_VCOM_cdc_interface, (const int8_t *)data_buffer, length))
 318:C:/Users/Yushev/git/optiga-trust-qi/projects/xmc4700_relax_kit/common/Dave/Generated/USBD_VCOM\usbd_vcom.c ****     {
 319:C:/Users/Yushev/git/optiga-trust-qi/projects/xmc4700_relax_kit/common/Dave/Generated/USBD_VCOM\usbd_vcom.c ****       status = USBD_VCOM_STATUS_CDC_ERROR;
 320:C:/Users/Yushev/git/optiga-trust-qi/projects/xmc4700_relax_kit/common/Dave/Generated/USBD_VCOM\usbd_vcom.c ****     }
 321:C:/Users/Yushev/git/optiga-trust-qi/projects/xmc4700_relax_kit/common/Dave/Generated/USBD_VCOM\usbd_vcom.c ****     if ((uint8_t)ENDPOINT_READYWAIT_NoError != CDC_Device_Flush(&USBD_VCOM_cdc_interface))
 322:C:/Users/Yushev/git/optiga-trust-qi/projects/xmc4700_relax_kit/common/Dave/Generated/USBD_VCOM\usbd_vcom.c ****     {
 323:C:/Users/Yushev/git/optiga-trust-qi/projects/xmc4700_relax_kit/common/Dave/Generated/USBD_VCOM\usbd_vcom.c ****       status = USBD_VCOM_STATUS_CDC_ERROR;
 324:C:/Users/Yushev/git/optiga-trust-qi/projects/xmc4700_relax_kit/common/Dave/Generated/USBD_VCOM\usbd_vcom.c ****     }
 325:C:/Users/Yushev/git/optiga-trust-qi/projects/xmc4700_relax_kit/common/Dave/Generated/USBD_VCOM\usbd_vcom.c ****   }
 326:C:/Users/Yushev/git/optiga-trust-qi/projects/xmc4700_relax_kit/common/Dave/Generated/USBD_VCOM\usbd_vcom.c ****   return status;
 327:C:/Users/Yushev/git/optiga-trust-qi/projects/xmc4700_relax_kit/common/Dave/Generated/USBD_VCOM\usbd_vcom.c **** }
 328:C:/Users/Yushev/git/optiga-trust-qi/projects/xmc4700_relax_kit/common/Dave/Generated/USBD_VCOM\usbd_vcom.c **** 
 329:C:/Users/Yushev/git/optiga-trust-qi/projects/xmc4700_relax_kit/common/Dave/Generated/USBD_VCOM\usbd_vcom.c **** /* This function sends string data to the USB host. */
 330:C:/Users/Yushev/git/optiga-trust-qi/projects/xmc4700_relax_kit/common/Dave/Generated/USBD_VCOM\usbd_vcom.c **** USBD_VCOM_STATUS_t USBD_VCOM_SendString(const int8_t* const data_string)
 331:C:/Users/Yushev/git/optiga-trust-qi/projects/xmc4700_relax_kit/common/Dave/Generated/USBD_VCOM\usbd_vcom.c **** {
 332:C:/Users/Yushev/git/optiga-trust-qi/projects/xmc4700_relax_kit/common/Dave/Generated/USBD_VCOM\usbd_vcom.c ****   USBD_VCOM_STATUS_t status = USBD_VCOM_STATUS_SUCCESS;
 333:C:/Users/Yushev/git/optiga-trust-qi/projects/xmc4700_relax_kit/common/Dave/Generated/USBD_VCOM\usbd_vcom.c **** 
 334:C:/Users/Yushev/git/optiga-trust-qi/projects/xmc4700_relax_kit/common/Dave/Generated/USBD_VCOM\usbd_vcom.c ****   if (data_string != NULL)
 335:C:/Users/Yushev/git/optiga-trust-qi/projects/xmc4700_relax_kit/common/Dave/Generated/USBD_VCOM\usbd_vcom.c ****   {
 336:C:/Users/Yushev/git/optiga-trust-qi/projects/xmc4700_relax_kit/common/Dave/Generated/USBD_VCOM\usbd_vcom.c ****     /* Send string to the host */
 337:C:/Users/Yushev/git/optiga-trust-qi/projects/xmc4700_relax_kit/common/Dave/Generated/USBD_VCOM\usbd_vcom.c ****     if ((uint8_t)ENDPOINT_RWSTREAM_NoError != CDC_Device_SendString(&USBD_VCOM_cdc_interface, (cons
 338:C:/Users/Yushev/git/optiga-trust-qi/projects/xmc4700_relax_kit/common/Dave/Generated/USBD_VCOM\usbd_vcom.c ****     {
 339:C:/Users/Yushev/git/optiga-trust-qi/projects/xmc4700_relax_kit/common/Dave/Generated/USBD_VCOM\usbd_vcom.c ****       status = USBD_VCOM_STATUS_CDC_ERROR;
 340:C:/Users/Yushev/git/optiga-trust-qi/projects/xmc4700_relax_kit/common/Dave/Generated/USBD_VCOM\usbd_vcom.c ****     }
 341:C:/Users/Yushev/git/optiga-trust-qi/projects/xmc4700_relax_kit/common/Dave/Generated/USBD_VCOM\usbd_vcom.c ****     if ((uint8_t)ENDPOINT_READYWAIT_NoError != CDC_Device_Flush(&USBD_VCOM_cdc_interface))
 342:C:/Users/Yushev/git/optiga-trust-qi/projects/xmc4700_relax_kit/common/Dave/Generated/USBD_VCOM\usbd_vcom.c ****     {
 343:C:/Users/Yushev/git/optiga-trust-qi/projects/xmc4700_relax_kit/common/Dave/Generated/USBD_VCOM\usbd_vcom.c ****       status = USBD_VCOM_STATUS_CDC_ERROR;
 344:C:/Users/Yushev/git/optiga-trust-qi/projects/xmc4700_relax_kit/common/Dave/Generated/USBD_VCOM\usbd_vcom.c ****     }
 345:C:/Users/Yushev/git/optiga-trust-qi/projects/xmc4700_relax_kit/common/Dave/Generated/USBD_VCOM\usbd_vcom.c ****   }
 346:C:/Users/Yushev/git/optiga-trust-qi/projects/xmc4700_relax_kit/common/Dave/Generated/USBD_VCOM\usbd_vcom.c ****   else
 347:C:/Users/Yushev/git/optiga-trust-qi/projects/xmc4700_relax_kit/common/Dave/Generated/USBD_VCOM\usbd_vcom.c ****   {
 348:C:/Users/Yushev/git/optiga-trust-qi/projects/xmc4700_relax_kit/common/Dave/Generated/USBD_VCOM\usbd_vcom.c ****     status = USBD_VCOM_STATUS_CDC_ERROR;
 349:C:/Users/Yushev/git/optiga-trust-qi/projects/xmc4700_relax_kit/common/Dave/Generated/USBD_VCOM\usbd_vcom.c ****   }
 350:C:/Users/Yushev/git/optiga-trust-qi/projects/xmc4700_relax_kit/common/Dave/Generated/USBD_VCOM\usbd_vcom.c **** 
 351:C:/Users/Yushev/git/optiga-trust-qi/projects/xmc4700_relax_kit/common/Dave/Generated/USBD_VCOM\usbd_vcom.c ****   return status;
 352:C:/Users/Yushev/git/optiga-trust-qi/projects/xmc4700_relax_kit/common/Dave/Generated/USBD_VCOM\usbd_vcom.c **** }
 353:C:/Users/Yushev/git/optiga-trust-qi/projects/xmc4700_relax_kit/common/Dave/Generated/USBD_VCOM\usbd_vcom.c **** 
 354:C:/Users/Yushev/git/optiga-trust-qi/projects/xmc4700_relax_kit/common/Dave/Generated/USBD_VCOM\usbd_vcom.c **** /* This function receives a byte from the USB host.*/
 355:C:/Users/Yushev/git/optiga-trust-qi/projects/xmc4700_relax_kit/common/Dave/Generated/USBD_VCOM\usbd_vcom.c **** USBD_VCOM_STATUS_t USBD_VCOM_ReceiveByte(int8_t* data_byte)
 356:C:/Users/Yushev/git/optiga-trust-qi/projects/xmc4700_relax_kit/common/Dave/Generated/USBD_VCOM\usbd_vcom.c **** {
 357:C:/Users/Yushev/git/optiga-trust-qi/projects/xmc4700_relax_kit/common/Dave/Generated/USBD_VCOM\usbd_vcom.c ****   USBD_VCOM_STATUS_t status = USBD_VCOM_STATUS_SUCCESS;
 358:C:/Users/Yushev/git/optiga-trust-qi/projects/xmc4700_relax_kit/common/Dave/Generated/USBD_VCOM\usbd_vcom.c ****   int16_t rx_byte;
 359:C:/Users/Yushev/git/optiga-trust-qi/projects/xmc4700_relax_kit/common/Dave/Generated/USBD_VCOM\usbd_vcom.c **** 
 360:C:/Users/Yushev/git/optiga-trust-qi/projects/xmc4700_relax_kit/common/Dave/Generated/USBD_VCOM\usbd_vcom.c ****   if (data_byte != NULL)
 361:C:/Users/Yushev/git/optiga-trust-qi/projects/xmc4700_relax_kit/common/Dave/Generated/USBD_VCOM\usbd_vcom.c ****   {
 362:C:/Users/Yushev/git/optiga-trust-qi/projects/xmc4700_relax_kit/common/Dave/Generated/USBD_VCOM\usbd_vcom.c ****     /* Receive one byte of data */
 363:C:/Users/Yushev/git/optiga-trust-qi/projects/xmc4700_relax_kit/common/Dave/Generated/USBD_VCOM\usbd_vcom.c ****     rx_byte = CDC_Device_ReceiveByte(&USBD_VCOM_cdc_interface);
 364:C:/Users/Yushev/git/optiga-trust-qi/projects/xmc4700_relax_kit/common/Dave/Generated/USBD_VCOM\usbd_vcom.c **** 
 365:C:/Users/Yushev/git/optiga-trust-qi/projects/xmc4700_relax_kit/common/Dave/Generated/USBD_VCOM\usbd_vcom.c ****     if (rx_byte != -1)
 366:C:/Users/Yushev/git/optiga-trust-qi/projects/xmc4700_relax_kit/common/Dave/Generated/USBD_VCOM\usbd_vcom.c ****     {
 367:C:/Users/Yushev/git/optiga-trust-qi/projects/xmc4700_relax_kit/common/Dave/Generated/USBD_VCOM\usbd_vcom.c ****       *data_byte = (int8_t)rx_byte;
 368:C:/Users/Yushev/git/optiga-trust-qi/projects/xmc4700_relax_kit/common/Dave/Generated/USBD_VCOM\usbd_vcom.c ****     }
 369:C:/Users/Yushev/git/optiga-trust-qi/projects/xmc4700_relax_kit/common/Dave/Generated/USBD_VCOM\usbd_vcom.c ****     else
 370:C:/Users/Yushev/git/optiga-trust-qi/projects/xmc4700_relax_kit/common/Dave/Generated/USBD_VCOM\usbd_vcom.c ****     {
 371:C:/Users/Yushev/git/optiga-trust-qi/projects/xmc4700_relax_kit/common/Dave/Generated/USBD_VCOM\usbd_vcom.c ****       status = USBD_VCOM_STATUS_CDC_ERROR;
 372:C:/Users/Yushev/git/optiga-trust-qi/projects/xmc4700_relax_kit/common/Dave/Generated/USBD_VCOM\usbd_vcom.c ****     }
 373:C:/Users/Yushev/git/optiga-trust-qi/projects/xmc4700_relax_kit/common/Dave/Generated/USBD_VCOM\usbd_vcom.c ****   }
 374:C:/Users/Yushev/git/optiga-trust-qi/projects/xmc4700_relax_kit/common/Dave/Generated/USBD_VCOM\usbd_vcom.c ****   else
 375:C:/Users/Yushev/git/optiga-trust-qi/projects/xmc4700_relax_kit/common/Dave/Generated/USBD_VCOM\usbd_vcom.c ****   {
 376:C:/Users/Yushev/git/optiga-trust-qi/projects/xmc4700_relax_kit/common/Dave/Generated/USBD_VCOM\usbd_vcom.c ****     status = USBD_VCOM_STATUS_CDC_ERROR;
 377:C:/Users/Yushev/git/optiga-trust-qi/projects/xmc4700_relax_kit/common/Dave/Generated/USBD_VCOM\usbd_vcom.c ****   }
 378:C:/Users/Yushev/git/optiga-trust-qi/projects/xmc4700_relax_kit/common/Dave/Generated/USBD_VCOM\usbd_vcom.c **** 
 379:C:/Users/Yushev/git/optiga-trust-qi/projects/xmc4700_relax_kit/common/Dave/Generated/USBD_VCOM\usbd_vcom.c ****   return status;
 380:C:/Users/Yushev/git/optiga-trust-qi/projects/xmc4700_relax_kit/common/Dave/Generated/USBD_VCOM\usbd_vcom.c **** }
 381:C:/Users/Yushev/git/optiga-trust-qi/projects/xmc4700_relax_kit/common/Dave/Generated/USBD_VCOM\usbd_vcom.c **** 
 382:C:/Users/Yushev/git/optiga-trust-qi/projects/xmc4700_relax_kit/common/Dave/Generated/USBD_VCOM\usbd_vcom.c **** /* This function receives number of bytes from the USB host.*/
 383:C:/Users/Yushev/git/optiga-trust-qi/projects/xmc4700_relax_kit/common/Dave/Generated/USBD_VCOM\usbd_vcom.c **** USBD_VCOM_STATUS_t USBD_VCOM_ReceiveData(int8_t* data_buffer, uint16_t data_byte)
 384:C:/Users/Yushev/git/optiga-trust-qi/projects/xmc4700_relax_kit/common/Dave/Generated/USBD_VCOM\usbd_vcom.c **** {
 385:C:/Users/Yushev/git/optiga-trust-qi/projects/xmc4700_relax_kit/common/Dave/Generated/USBD_VCOM\usbd_vcom.c ****   USBD_VCOM_STATUS_t status = USBD_VCOM_STATUS_SUCCESS;
 386:C:/Users/Yushev/git/optiga-trust-qi/projects/xmc4700_relax_kit/common/Dave/Generated/USBD_VCOM\usbd_vcom.c ****   uint16_t bytes_processed = 0U;
 387:C:/Users/Yushev/git/optiga-trust-qi/projects/xmc4700_relax_kit/common/Dave/Generated/USBD_VCOM\usbd_vcom.c ****   uint8_t ret = 0U;
 388:C:/Users/Yushev/git/optiga-trust-qi/projects/xmc4700_relax_kit/common/Dave/Generated/USBD_VCOM\usbd_vcom.c **** 
 389:C:/Users/Yushev/git/optiga-trust-qi/projects/xmc4700_relax_kit/common/Dave/Generated/USBD_VCOM\usbd_vcom.c ****   if ((data_byte > 0U) && (data_buffer != NULL))
 390:C:/Users/Yushev/git/optiga-trust-qi/projects/xmc4700_relax_kit/common/Dave/Generated/USBD_VCOM\usbd_vcom.c ****   {
 391:C:/Users/Yushev/git/optiga-trust-qi/projects/xmc4700_relax_kit/common/Dave/Generated/USBD_VCOM\usbd_vcom.c ****     /* Fix for new read/write */
 392:C:/Users/Yushev/git/optiga-trust-qi/projects/xmc4700_relax_kit/common/Dave/Generated/USBD_VCOM\usbd_vcom.c ****     Endpoint_SelectEndpoint(CDC_RX_EPNUM);
 393:C:/Users/Yushev/git/optiga-trust-qi/projects/xmc4700_relax_kit/common/Dave/Generated/USBD_VCOM\usbd_vcom.c ****     while ((uint8_t)ENDPOINT_RWSTREAM_IncompleteTransfer == 
 394:C:/Users/Yushev/git/optiga-trust-qi/projects/xmc4700_relax_kit/common/Dave/Generated/USBD_VCOM\usbd_vcom.c ****     (ret = Endpoint_Read_Stream_LE(data_buffer, data_byte,	&bytes_processed)))
 395:C:/Users/Yushev/git/optiga-trust-qi/projects/xmc4700_relax_kit/common/Dave/Generated/USBD_VCOM\usbd_vcom.c ****     {      
 396:C:/Users/Yushev/git/optiga-trust-qi/projects/xmc4700_relax_kit/common/Dave/Generated/USBD_VCOM\usbd_vcom.c ****     }      
 397:C:/Users/Yushev/git/optiga-trust-qi/projects/xmc4700_relax_kit/common/Dave/Generated/USBD_VCOM\usbd_vcom.c ****     if ((uint8_t)ENDPOINT_RWSTREAM_NoError != ret )
 398:C:/Users/Yushev/git/optiga-trust-qi/projects/xmc4700_relax_kit/common/Dave/Generated/USBD_VCOM\usbd_vcom.c ****     {
 399:C:/Users/Yushev/git/optiga-trust-qi/projects/xmc4700_relax_kit/common/Dave/Generated/USBD_VCOM\usbd_vcom.c ****       status = USBD_VCOM_STATUS_CDC_ERROR;
 400:C:/Users/Yushev/git/optiga-trust-qi/projects/xmc4700_relax_kit/common/Dave/Generated/USBD_VCOM\usbd_vcom.c ****     }
 401:C:/Users/Yushev/git/optiga-trust-qi/projects/xmc4700_relax_kit/common/Dave/Generated/USBD_VCOM\usbd_vcom.c ****   }
 402:C:/Users/Yushev/git/optiga-trust-qi/projects/xmc4700_relax_kit/common/Dave/Generated/USBD_VCOM\usbd_vcom.c ****   else
 403:C:/Users/Yushev/git/optiga-trust-qi/projects/xmc4700_relax_kit/common/Dave/Generated/USBD_VCOM\usbd_vcom.c ****   {
 404:C:/Users/Yushev/git/optiga-trust-qi/projects/xmc4700_relax_kit/common/Dave/Generated/USBD_VCOM\usbd_vcom.c ****     status = USBD_VCOM_STATUS_CDC_ERROR;
 405:C:/Users/Yushev/git/optiga-trust-qi/projects/xmc4700_relax_kit/common/Dave/Generated/USBD_VCOM\usbd_vcom.c ****   }
 406:C:/Users/Yushev/git/optiga-trust-qi/projects/xmc4700_relax_kit/common/Dave/Generated/USBD_VCOM\usbd_vcom.c **** 
 407:C:/Users/Yushev/git/optiga-trust-qi/projects/xmc4700_relax_kit/common/Dave/Generated/USBD_VCOM\usbd_vcom.c ****   return status;
 408:C:/Users/Yushev/git/optiga-trust-qi/projects/xmc4700_relax_kit/common/Dave/Generated/USBD_VCOM\usbd_vcom.c **** }
 409:C:/Users/Yushev/git/optiga-trust-qi/projects/xmc4700_relax_kit/common/Dave/Generated/USBD_VCOM\usbd_vcom.c **** 
 410:C:/Users/Yushev/git/optiga-trust-qi/projects/xmc4700_relax_kit/common/Dave/Generated/USBD_VCOM\usbd_vcom.c **** /* Gets the line encoding */
 411:C:/Users/Yushev/git/optiga-trust-qi/projects/xmc4700_relax_kit/common/Dave/Generated/USBD_VCOM\usbd_vcom.c **** USBD_VCOM_STATUS_t USBD_VCOM_GetLineEncoding(CDC_LineEncoding_t* line_encoding_ptr)
 412:C:/Users/Yushev/git/optiga-trust-qi/projects/xmc4700_relax_kit/common/Dave/Generated/USBD_VCOM\usbd_vcom.c **** {
 413:C:/Users/Yushev/git/optiga-trust-qi/projects/xmc4700_relax_kit/common/Dave/Generated/USBD_VCOM\usbd_vcom.c ****   USBD_VCOM_STATUS_t status = USBD_VCOM_STATUS_SUCCESS;	
 414:C:/Users/Yushev/git/optiga-trust-qi/projects/xmc4700_relax_kit/common/Dave/Generated/USBD_VCOM\usbd_vcom.c **** 
 415:C:/Users/Yushev/git/optiga-trust-qi/projects/xmc4700_relax_kit/common/Dave/Generated/USBD_VCOM\usbd_vcom.c ****   if (line_encoding_ptr != NULL)
 416:C:/Users/Yushev/git/optiga-trust-qi/projects/xmc4700_relax_kit/common/Dave/Generated/USBD_VCOM\usbd_vcom.c ****   {
 417:C:/Users/Yushev/git/optiga-trust-qi/projects/xmc4700_relax_kit/common/Dave/Generated/USBD_VCOM\usbd_vcom.c ****     if ((USB_DeviceState != (uint8_t)DEVICE_STATE_Configured) ||
 418:C:/Users/Yushev/git/optiga-trust-qi/projects/xmc4700_relax_kit/common/Dave/Generated/USBD_VCOM\usbd_vcom.c ****       (!(USBD_VCOM_cdc_interface.State.LineEncoding.BaudRateBPS)))
 419:C:/Users/Yushev/git/optiga-trust-qi/projects/xmc4700_relax_kit/common/Dave/Generated/USBD_VCOM\usbd_vcom.c ****     {
 420:C:/Users/Yushev/git/optiga-trust-qi/projects/xmc4700_relax_kit/common/Dave/Generated/USBD_VCOM\usbd_vcom.c ****       status = USBD_VCOM_STATUS_CDC_ERROR;
 421:C:/Users/Yushev/git/optiga-trust-qi/projects/xmc4700_relax_kit/common/Dave/Generated/USBD_VCOM\usbd_vcom.c ****     }
 422:C:/Users/Yushev/git/optiga-trust-qi/projects/xmc4700_relax_kit/common/Dave/Generated/USBD_VCOM\usbd_vcom.c ****     else
 423:C:/Users/Yushev/git/optiga-trust-qi/projects/xmc4700_relax_kit/common/Dave/Generated/USBD_VCOM\usbd_vcom.c ****     {
 424:C:/Users/Yushev/git/optiga-trust-qi/projects/xmc4700_relax_kit/common/Dave/Generated/USBD_VCOM\usbd_vcom.c ****       memcpy(line_encoding_ptr, &USBD_VCOM_cdc_interface.State.LineEncoding,
 425:C:/Users/Yushev/git/optiga-trust-qi/projects/xmc4700_relax_kit/common/Dave/Generated/USBD_VCOM\usbd_vcom.c ****                 sizeof(CDC_LineEncoding_t));
 426:C:/Users/Yushev/git/optiga-trust-qi/projects/xmc4700_relax_kit/common/Dave/Generated/USBD_VCOM\usbd_vcom.c ****     }
 427:C:/Users/Yushev/git/optiga-trust-qi/projects/xmc4700_relax_kit/common/Dave/Generated/USBD_VCOM\usbd_vcom.c ****   }
 428:C:/Users/Yushev/git/optiga-trust-qi/projects/xmc4700_relax_kit/common/Dave/Generated/USBD_VCOM\usbd_vcom.c ****   else
 429:C:/Users/Yushev/git/optiga-trust-qi/projects/xmc4700_relax_kit/common/Dave/Generated/USBD_VCOM\usbd_vcom.c ****   {
 430:C:/Users/Yushev/git/optiga-trust-qi/projects/xmc4700_relax_kit/common/Dave/Generated/USBD_VCOM\usbd_vcom.c ****     status = USBD_VCOM_STATUS_CDC_ERROR;
 431:C:/Users/Yushev/git/optiga-trust-qi/projects/xmc4700_relax_kit/common/Dave/Generated/USBD_VCOM\usbd_vcom.c ****   }
 432:C:/Users/Yushev/git/optiga-trust-qi/projects/xmc4700_relax_kit/common/Dave/Generated/USBD_VCOM\usbd_vcom.c ****   return status;
 433:C:/Users/Yushev/git/optiga-trust-qi/projects/xmc4700_relax_kit/common/Dave/Generated/USBD_VCOM\usbd_vcom.c **** }
 434:C:/Users/Yushev/git/optiga-trust-qi/projects/xmc4700_relax_kit/common/Dave/Generated/USBD_VCOM\usbd_vcom.c **** 
 435:C:/Users/Yushev/git/optiga-trust-qi/projects/xmc4700_relax_kit/common/Dave/Generated/USBD_VCOM\usbd_vcom.c **** /* This function checks number of bytes received from the USB host. */
 436:C:/Users/Yushev/git/optiga-trust-qi/projects/xmc4700_relax_kit/common/Dave/Generated/USBD_VCOM\usbd_vcom.c **** uint16_t USBD_VCOM_BytesReceived(void)
 437:C:/Users/Yushev/git/optiga-trust-qi/projects/xmc4700_relax_kit/common/Dave/Generated/USBD_VCOM\usbd_vcom.c **** {
 438:C:/Users/Yushev/git/optiga-trust-qi/projects/xmc4700_relax_kit/common/Dave/Generated/USBD_VCOM\usbd_vcom.c ****   uint16_t bytes = 0U;
 439:C:/Users/Yushev/git/optiga-trust-qi/projects/xmc4700_relax_kit/common/Dave/Generated/USBD_VCOM\usbd_vcom.c **** 
 440:C:/Users/Yushev/git/optiga-trust-qi/projects/xmc4700_relax_kit/common/Dave/Generated/USBD_VCOM\usbd_vcom.c ****   /* Check if bytes are received from host */
 441:C:/Users/Yushev/git/optiga-trust-qi/projects/xmc4700_relax_kit/common/Dave/Generated/USBD_VCOM\usbd_vcom.c ****   NVIC_DisableIRQ(USB0_0_IRQn);
 442:C:/Users/Yushev/git/optiga-trust-qi/projects/xmc4700_relax_kit/common/Dave/Generated/USBD_VCOM\usbd_vcom.c ****   bytes = CDC_Device_BytesReceived(&USBD_VCOM_cdc_interface);
 443:C:/Users/Yushev/git/optiga-trust-qi/projects/xmc4700_relax_kit/common/Dave/Generated/USBD_VCOM\usbd_vcom.c ****   NVIC_EnableIRQ(USB0_0_IRQn);	
 444:C:/Users/Yushev/git/optiga-trust-qi/projects/xmc4700_relax_kit/common/Dave/Generated/USBD_VCOM\usbd_vcom.c ****     
 445:C:/Users/Yushev/git/optiga-trust-qi/projects/xmc4700_relax_kit/common/Dave/Generated/USBD_VCOM\usbd_vcom.c ****   return bytes;
 446:C:/Users/Yushev/git/optiga-trust-qi/projects/xmc4700_relax_kit/common/Dave/Generated/USBD_VCOM\usbd_vcom.c **** }
 447:C:/Users/Yushev/git/optiga-trust-qi/projects/xmc4700_relax_kit/common/Dave/Generated/USBD_VCOM\usbd_vcom.c **** 
 448:C:/Users/Yushev/git/optiga-trust-qi/projects/xmc4700_relax_kit/common/Dave/Generated/USBD_VCOM\usbd_vcom.c **** /**
 449:C:/Users/Yushev/git/optiga-trust-qi/projects/xmc4700_relax_kit/common/Dave/Generated/USBD_VCOM\usbd_vcom.c ****  * Register the USB event call backs.
 450:C:/Users/Yushev/git/optiga-trust-qi/projects/xmc4700_relax_kit/common/Dave/Generated/USBD_VCOM\usbd_vcom.c ****  * Call this API before calling USBD_Init
 451:C:/Users/Yushev/git/optiga-trust-qi/projects/xmc4700_relax_kit/common/Dave/Generated/USBD_VCOM\usbd_vcom.c ****  **/
 452:C:/Users/Yushev/git/optiga-trust-qi/projects/xmc4700_relax_kit/common/Dave/Generated/USBD_VCOM\usbd_vcom.c **** USBD_VCOM_STATUS_t USBD_VCOM_Register_USBEvent_CB(USBD_Event_CB_t *event_callback)
 453:C:/Users/Yushev/git/optiga-trust-qi/projects/xmc4700_relax_kit/common/Dave/Generated/USBD_VCOM\usbd_vcom.c **** {
 454:C:/Users/Yushev/git/optiga-trust-qi/projects/xmc4700_relax_kit/common/Dave/Generated/USBD_VCOM\usbd_vcom.c ****   USBD_VCOM_STATUS_t status = USBD_VCOM_STATUS_SUCCESS;
 455:C:/Users/Yushev/git/optiga-trust-qi/projects/xmc4700_relax_kit/common/Dave/Generated/USBD_VCOM\usbd_vcom.c **** 
 456:C:/Users/Yushev/git/optiga-trust-qi/projects/xmc4700_relax_kit/common/Dave/Generated/USBD_VCOM\usbd_vcom.c ****   /*Register USB event call backs*/
 457:C:/Users/Yushev/git/optiga-trust-qi/projects/xmc4700_relax_kit/common/Dave/Generated/USBD_VCOM\usbd_vcom.c ****   if (event_callback != NULL)
 458:C:/Users/Yushev/git/optiga-trust-qi/projects/xmc4700_relax_kit/common/Dave/Generated/USBD_VCOM\usbd_vcom.c ****   {
 459:C:/Users/Yushev/git/optiga-trust-qi/projects/xmc4700_relax_kit/common/Dave/Generated/USBD_VCOM\usbd_vcom.c ****     /*NULL checks for the event callbacks are done in the low level APP USBD*/
 460:C:/Users/Yushev/git/optiga-trust-qi/projects/xmc4700_relax_kit/common/Dave/Generated/USBD_VCOM\usbd_vcom.c ****     USBD_handle->event_cb->set_address = event_callback->set_address;
 461:C:/Users/Yushev/git/optiga-trust-qi/projects/xmc4700_relax_kit/common/Dave/Generated/USBD_VCOM\usbd_vcom.c ****     USBD_handle->event_cb->config_changed = event_callback->config_changed;
 462:C:/Users/Yushev/git/optiga-trust-qi/projects/xmc4700_relax_kit/common/Dave/Generated/USBD_VCOM\usbd_vcom.c ****     USBD_handle->event_cb->connect = event_callback->connect;
 463:C:/Users/Yushev/git/optiga-trust-qi/projects/xmc4700_relax_kit/common/Dave/Generated/USBD_VCOM\usbd_vcom.c ****     USBD_handle->event_cb->control_request = event_callback->control_request;
 464:C:/Users/Yushev/git/optiga-trust-qi/projects/xmc4700_relax_kit/common/Dave/Generated/USBD_VCOM\usbd_vcom.c ****     USBD_handle->event_cb->disconnect = event_callback->disconnect;
 465:C:/Users/Yushev/git/optiga-trust-qi/projects/xmc4700_relax_kit/common/Dave/Generated/USBD_VCOM\usbd_vcom.c ****     USBD_handle->event_cb->get_descriptor = event_callback->get_descriptor;
 466:C:/Users/Yushev/git/optiga-trust-qi/projects/xmc4700_relax_kit/common/Dave/Generated/USBD_VCOM\usbd_vcom.c ****     USBD_handle->event_cb->suspend = event_callback->suspend;
 467:C:/Users/Yushev/git/optiga-trust-qi/projects/xmc4700_relax_kit/common/Dave/Generated/USBD_VCOM\usbd_vcom.c ****     USBD_handle->event_cb->wakeup = event_callback->wakeup;
 468:C:/Users/Yushev/git/optiga-trust-qi/projects/xmc4700_relax_kit/common/Dave/Generated/USBD_VCOM\usbd_vcom.c ****     USBD_handle->event_cb->start_of_frame = event_callback->start_of_frame;
 469:C:/Users/Yushev/git/optiga-trust-qi/projects/xmc4700_relax_kit/common/Dave/Generated/USBD_VCOM\usbd_vcom.c ****     USBD_handle->event_cb->reset = event_callback->reset;
 470:C:/Users/Yushev/git/optiga-trust-qi/projects/xmc4700_relax_kit/common/Dave/Generated/USBD_VCOM\usbd_vcom.c ****   }
 471:C:/Users/Yushev/git/optiga-trust-qi/projects/xmc4700_relax_kit/common/Dave/Generated/USBD_VCOM\usbd_vcom.c ****   else
 472:C:/Users/Yushev/git/optiga-trust-qi/projects/xmc4700_relax_kit/common/Dave/Generated/USBD_VCOM\usbd_vcom.c ****   {
 473:C:/Users/Yushev/git/optiga-trust-qi/projects/xmc4700_relax_kit/common/Dave/Generated/USBD_VCOM\usbd_vcom.c ****     status = USBD_VCOM_STATUS_FAILURE;
 474:C:/Users/Yushev/git/optiga-trust-qi/projects/xmc4700_relax_kit/common/Dave/Generated/USBD_VCOM\usbd_vcom.c ****   }
 475:C:/Users/Yushev/git/optiga-trust-qi/projects/xmc4700_relax_kit/common/Dave/Generated/USBD_VCOM\usbd_vcom.c **** 
 476:C:/Users/Yushev/git/optiga-trust-qi/projects/xmc4700_relax_kit/common/Dave/Generated/USBD_VCOM\usbd_vcom.c ****   return status;
 477:C:/Users/Yushev/git/optiga-trust-qi/projects/xmc4700_relax_kit/common/Dave/Generated/USBD_VCOM\usbd_vcom.c **** 
 478:C:/Users/Yushev/git/optiga-trust-qi/projects/xmc4700_relax_kit/common/Dave/Generated/USBD_VCOM\usbd_vcom.c **** }
 479:C:/Users/Yushev/git/optiga-trust-qi/projects/xmc4700_relax_kit/common/Dave/Generated/USBD_VCOM\usbd_vcom.c **** 
 480:C:/Users/Yushev/git/optiga-trust-qi/projects/xmc4700_relax_kit/common/Dave/Generated/USBD_VCOM\usbd_vcom.c **** /* Event handler for the USB Configuration Changed event. */
 481:C:/Users/Yushev/git/optiga-trust-qi/projects/xmc4700_relax_kit/common/Dave/Generated/USBD_VCOM\usbd_vcom.c **** void USBD_VCOM_Event_ConfigurationChanged(void)
 482:C:/Users/Yushev/git/optiga-trust-qi/projects/xmc4700_relax_kit/common/Dave/Generated/USBD_VCOM\usbd_vcom.c **** {
 483:C:/Users/Yushev/git/optiga-trust-qi/projects/xmc4700_relax_kit/common/Dave/Generated/USBD_VCOM\usbd_vcom.c ****   USBD_SetEndpointBuffer(((uint8_t)CDC_IN_EP_MASK|(uint8_t)CDC_NOTIFICATION_EPNUM), notification_ep
 484:C:/Users/Yushev/git/optiga-trust-qi/projects/xmc4700_relax_kit/common/Dave/Generated/USBD_VCOM\usbd_vcom.c ****   (uint16_t)USB_FS_MAXPKT_SIZE);
 485:C:/Users/Yushev/git/optiga-trust-qi/projects/xmc4700_relax_kit/common/Dave/Generated/USBD_VCOM\usbd_vcom.c ****   USBD_SetEndpointBuffer(((uint8_t)CDC_IN_EP_MASK|(uint8_t)CDC_TX_EPNUM), tx_ep_buf, (uint16_t)USB_
 486:C:/Users/Yushev/git/optiga-trust-qi/projects/xmc4700_relax_kit/common/Dave/Generated/USBD_VCOM\usbd_vcom.c ****   USBD_SetEndpointBuffer((CDC_RX_EPNUM), rx_ep_buf, (uint16_t)USB_FS_MAXPKT_SIZE);
 487:C:/Users/Yushev/git/optiga-trust-qi/projects/xmc4700_relax_kit/common/Dave/Generated/USBD_VCOM\usbd_vcom.c ****   if (true == CDC_Device_ConfigureEndpoints(&USBD_VCOM_cdc_interface))
 488:C:/Users/Yushev/git/optiga-trust-qi/projects/xmc4700_relax_kit/common/Dave/Generated/USBD_VCOM\usbd_vcom.c ****   {
 489:C:/Users/Yushev/git/optiga-trust-qi/projects/xmc4700_relax_kit/common/Dave/Generated/USBD_VCOM\usbd_vcom.c ****     device.IsConfigured = 1U;
 490:C:/Users/Yushev/git/optiga-trust-qi/projects/xmc4700_relax_kit/common/Dave/Generated/USBD_VCOM\usbd_vcom.c ****     USB_DeviceState = (uint8_t)DEVICE_STATE_Configured;
 491:C:/Users/Yushev/git/optiga-trust-qi/projects/xmc4700_relax_kit/common/Dave/Generated/USBD_VCOM\usbd_vcom.c ****   }
 492:C:/Users/Yushev/git/optiga-trust-qi/projects/xmc4700_relax_kit/common/Dave/Generated/USBD_VCOM\usbd_vcom.c **** }
 493:C:/Users/Yushev/git/optiga-trust-qi/projects/xmc4700_relax_kit/common/Dave/Generated/USBD_VCOM\usbd_vcom.c **** 
 494:C:/Users/Yushev/git/optiga-trust-qi/projects/xmc4700_relax_kit/common/Dave/Generated/USBD_VCOM\usbd_vcom.c **** /* Event handler for the USB Control Request reception event. */
 495:C:/Users/Yushev/git/optiga-trust-qi/projects/xmc4700_relax_kit/common/Dave/Generated/USBD_VCOM\usbd_vcom.c **** void USBD_VCOM_Event_ControlRequest(void)
 496:C:/Users/Yushev/git/optiga-trust-qi/projects/xmc4700_relax_kit/common/Dave/Generated/USBD_VCOM\usbd_vcom.c **** {
 497:C:/Users/Yushev/git/optiga-trust-qi/projects/xmc4700_relax_kit/common/Dave/Generated/USBD_VCOM\usbd_vcom.c ****   CDC_Device_ProcessControlRequest(&USBD_VCOM_cdc_interface);
 498:C:/Users/Yushev/git/optiga-trust-qi/projects/xmc4700_relax_kit/common/Dave/Generated/USBD_VCOM\usbd_vcom.c **** }
 499:C:/Users/Yushev/git/optiga-trust-qi/projects/xmc4700_relax_kit/common/Dave/Generated/USBD_VCOM\usbd_vcom.c **** 
 500:C:/Users/Yushev/git/optiga-trust-qi/projects/xmc4700_relax_kit/common/Dave/Generated/USBD_VCOM\usbd_vcom.c **** /* Event handler for the USB reset event. */
 501:C:/Users/Yushev/git/optiga-trust-qi/projects/xmc4700_relax_kit/common/Dave/Generated/USBD_VCOM\usbd_vcom.c **** void USBD_VCOM_Event_Reset(void)
 502:C:/Users/Yushev/git/optiga-trust-qi/projects/xmc4700_relax_kit/common/Dave/Generated/USBD_VCOM\usbd_vcom.c **** {
 503:C:/Users/Yushev/git/optiga-trust-qi/projects/xmc4700_relax_kit/common/Dave/Generated/USBD_VCOM\usbd_vcom.c ****   /*For self powered devices, reinitialize USB*/
 504:C:/Users/Yushev/git/optiga-trust-qi/projects/xmc4700_relax_kit/common/Dave/Generated/USBD_VCOM\usbd_vcom.c ****   if (device.IsConfigured)
 505:C:/Users/Yushev/git/optiga-trust-qi/projects/xmc4700_relax_kit/common/Dave/Generated/USBD_VCOM\usbd_vcom.c ****   {
 506:C:/Users/Yushev/git/optiga-trust-qi/projects/xmc4700_relax_kit/common/Dave/Generated/USBD_VCOM\usbd_vcom.c ****     device.IsConfigured = 0U;
 507:C:/Users/Yushev/git/optiga-trust-qi/projects/xmc4700_relax_kit/common/Dave/Generated/USBD_VCOM\usbd_vcom.c ****     if (USBD_VCOM_STATUS_SUCCESS == USBD_VCOM_Init(USBD_VCOM_handle))
 508:C:/Users/Yushev/git/optiga-trust-qi/projects/xmc4700_relax_kit/common/Dave/Generated/USBD_VCOM\usbd_vcom.c ****     {
 509:C:/Users/Yushev/git/optiga-trust-qi/projects/xmc4700_relax_kit/common/Dave/Generated/USBD_VCOM\usbd_vcom.c ****       if (USBD_VCOM_STATUS_SUCCESS != USBD_VCOM_Connect())
 510:C:/Users/Yushev/git/optiga-trust-qi/projects/xmc4700_relax_kit/common/Dave/Generated/USBD_VCOM\usbd_vcom.c ****       {
 511:C:/Users/Yushev/git/optiga-trust-qi/projects/xmc4700_relax_kit/common/Dave/Generated/USBD_VCOM\usbd_vcom.c ****       }
 512:C:/Users/Yushev/git/optiga-trust-qi/projects/xmc4700_relax_kit/common/Dave/Generated/USBD_VCOM\usbd_vcom.c ****     }
 513:C:/Users/Yushev/git/optiga-trust-qi/projects/xmc4700_relax_kit/common/Dave/Generated/USBD_VCOM\usbd_vcom.c ****   }
 514:C:/Users/Yushev/git/optiga-trust-qi/projects/xmc4700_relax_kit/common/Dave/Generated/USBD_VCOM\usbd_vcom.c **** }
 515:C:/Users/Yushev/git/optiga-trust-qi/projects/xmc4700_relax_kit/common/Dave/Generated/USBD_VCOM\usbd_vcom.c **** 
 516:C:/Users/Yushev/git/optiga-trust-qi/projects/xmc4700_relax_kit/common/Dave/Generated/USBD_VCOM\usbd_vcom.c **** /*CDC class driver event for a line encoding change on a CDC interface. This event fires each time 
 517:C:/Users/Yushev/git/optiga-trust-qi/projects/xmc4700_relax_kit/common/Dave/Generated/USBD_VCOM\usbd_vcom.c ****  * requests a line encoding change (containing the serial parity, baud and other configuration info
 518:C:/Users/Yushev/git/optiga-trust-qi/projects/xmc4700_relax_kit/common/Dave/Generated/USBD_VCOM\usbd_vcom.c ****  * line encoding settings are available in the LineEncoding structure inside the CDC interface stru
 519:C:/Users/Yushev/git/optiga-trust-qi/projects/xmc4700_relax_kit/common/Dave/Generated/USBD_VCOM\usbd_vcom.c ****  * as a parameter.*/
 520:C:/Users/Yushev/git/optiga-trust-qi/projects/xmc4700_relax_kit/common/Dave/Generated/USBD_VCOM\usbd_vcom.c **** void USBD_VCOM_CDCClass_Event_LineEncodingChanged(USB_ClassInfo_CDC_Device_t* const cdc_interface_i
 521:C:/Users/Yushev/git/optiga-trust-qi/projects/xmc4700_relax_kit/common/Dave/Generated/USBD_VCOM\usbd_vcom.c **** {
  28              	 .loc 1 521 0
  29              	 .cfi_startproc
  30              	 
  31              	 
  32              	 
  33              	.LVL0:
 522:C:/Users/Yushev/git/optiga-trust-qi/projects/xmc4700_relax_kit/common/Dave/Generated/USBD_VCOM\usbd_vcom.c ****   /*set here the global volatile flag(which can be polled from the top level application) to indica
 523:C:/Users/Yushev/git/optiga-trust-qi/projects/xmc4700_relax_kit/common/Dave/Generated/USBD_VCOM\usbd_vcom.c ****    * the event. */
 524:C:/Users/Yushev/git/optiga-trust-qi/projects/xmc4700_relax_kit/common/Dave/Generated/USBD_VCOM\usbd_vcom.c ****   cdc_event_flags.line_encoding_event_flag = 1U;
  34              	 .loc 1 524 0
  35 0000 014B     	 ldr r3,.L2
  36 0002 0122     	 movs r2,#1
  37 0004 1A70     	 strb r2,[r3]
  38 0006 7047     	 bx lr
  39              	.L3:
  40              	 .align 2
  41              	.L2:
  42 0008 00000000 	 .word cdc_event_flags
  43              	 .cfi_endproc
  44              	.LFE201:
  46              	 .section .text.USBD_VCOM_CDCClass_Event_ControlLineStateChanged,"ax",%progbits
  47              	 .align 1
  48              	 .global USBD_VCOM_CDCClass_Event_ControlLineStateChanged
  49              	 .thumb
  50              	 .thumb_func
  52              	USBD_VCOM_CDCClass_Event_ControlLineStateChanged:
  53              	.LFB202:
 525:C:/Users/Yushev/git/optiga-trust-qi/projects/xmc4700_relax_kit/common/Dave/Generated/USBD_VCOM\usbd_vcom.c ****   (void)cdc_interface_info;
 526:C:/Users/Yushev/git/optiga-trust-qi/projects/xmc4700_relax_kit/common/Dave/Generated/USBD_VCOM\usbd_vcom.c **** 
 527:C:/Users/Yushev/git/optiga-trust-qi/projects/xmc4700_relax_kit/common/Dave/Generated/USBD_VCOM\usbd_vcom.c **** }
 528:C:/Users/Yushev/git/optiga-trust-qi/projects/xmc4700_relax_kit/common/Dave/Generated/USBD_VCOM\usbd_vcom.c **** 
 529:C:/Users/Yushev/git/optiga-trust-qi/projects/xmc4700_relax_kit/common/Dave/Generated/USBD_VCOM\usbd_vcom.c **** /*CDC class driver event for a control line state change on a CDC interface. This event fires
 530:C:/Users/Yushev/git/optiga-trust-qi/projects/xmc4700_relax_kit/common/Dave/Generated/USBD_VCOM\usbd_vcom.c ****  * each time the host requests a control line state change (containing the virtual serial control
 531:C:/Users/Yushev/git/optiga-trust-qi/projects/xmc4700_relax_kit/common/Dave/Generated/USBD_VCOM\usbd_vcom.c ****  * line states, such as DTR).The new control line states are available in the ControlLineStates.Hos
 532:C:/Users/Yushev/git/optiga-trust-qi/projects/xmc4700_relax_kit/common/Dave/Generated/USBD_VCOM\usbd_vcom.c ****  * value inside the CDC interface structure passed as a parameter. */
 533:C:/Users/Yushev/git/optiga-trust-qi/projects/xmc4700_relax_kit/common/Dave/Generated/USBD_VCOM\usbd_vcom.c **** void USBD_VCOM_CDCClass_Event_ControlLineStateChanged(USB_ClassInfo_CDC_Device_t* const cdc_interfa
 534:C:/Users/Yushev/git/optiga-trust-qi/projects/xmc4700_relax_kit/common/Dave/Generated/USBD_VCOM\usbd_vcom.c **** {
  54              	 .loc 1 534 0
  55              	 .cfi_startproc
  56              	 
  57              	 
  58              	 
  59              	.LVL1:
 535:C:/Users/Yushev/git/optiga-trust-qi/projects/xmc4700_relax_kit/common/Dave/Generated/USBD_VCOM\usbd_vcom.c ****   /*set here the global volatile flag(which can be polled from the top level application) to indica
 536:C:/Users/Yushev/git/optiga-trust-qi/projects/xmc4700_relax_kit/common/Dave/Generated/USBD_VCOM\usbd_vcom.c ****   cdc_event_flags.control_line_state_change_event_flag = 1U;
  60              	 .loc 1 536 0
  61 0000 014B     	 ldr r3,.L5
  62 0002 0122     	 movs r2,#1
  63 0004 5A70     	 strb r2,[r3,#1]
  64 0006 7047     	 bx lr
  65              	.L6:
  66              	 .align 2
  67              	.L5:
  68 0008 00000000 	 .word cdc_event_flags
  69              	 .cfi_endproc
  70              	.LFE202:
  72              	 .section .text.USBD_VCOM_CDCClass_Event_BreakSent,"ax",%progbits
  73              	 .align 1
  74              	 .global USBD_VCOM_CDCClass_Event_BreakSent
  75              	 .thumb
  76              	 .thumb_func
  78              	USBD_VCOM_CDCClass_Event_BreakSent:
  79              	.LFB203:
 537:C:/Users/Yushev/git/optiga-trust-qi/projects/xmc4700_relax_kit/common/Dave/Generated/USBD_VCOM\usbd_vcom.c ****   (void)cdc_interface_info;
 538:C:/Users/Yushev/git/optiga-trust-qi/projects/xmc4700_relax_kit/common/Dave/Generated/USBD_VCOM\usbd_vcom.c **** 
 539:C:/Users/Yushev/git/optiga-trust-qi/projects/xmc4700_relax_kit/common/Dave/Generated/USBD_VCOM\usbd_vcom.c **** }
 540:C:/Users/Yushev/git/optiga-trust-qi/projects/xmc4700_relax_kit/common/Dave/Generated/USBD_VCOM\usbd_vcom.c **** 
 541:C:/Users/Yushev/git/optiga-trust-qi/projects/xmc4700_relax_kit/common/Dave/Generated/USBD_VCOM\usbd_vcom.c **** /*CDC class driver event for a send break request sent to the device from the host.
 542:C:/Users/Yushev/git/optiga-trust-qi/projects/xmc4700_relax_kit/common/Dave/Generated/USBD_VCOM\usbd_vcom.c ****  * This is generally used to separate data or to indicate a special condition to the receiving devi
 543:C:/Users/Yushev/git/optiga-trust-qi/projects/xmc4700_relax_kit/common/Dave/Generated/USBD_VCOM\usbd_vcom.c **** void USBD_VCOM_CDCClass_Event_BreakSent(USB_ClassInfo_CDC_Device_t* const cdc_interface_info,	const
 544:C:/Users/Yushev/git/optiga-trust-qi/projects/xmc4700_relax_kit/common/Dave/Generated/USBD_VCOM\usbd_vcom.c **** {
  80              	 .loc 1 544 0
  81              	 .cfi_startproc
  82              	 
  83              	 
  84              	 
  85              	.LVL2:
 545:C:/Users/Yushev/git/optiga-trust-qi/projects/xmc4700_relax_kit/common/Dave/Generated/USBD_VCOM\usbd_vcom.c ****   /*set here the global volatile flag(which can be polled from the top level application) to indica
 546:C:/Users/Yushev/git/optiga-trust-qi/projects/xmc4700_relax_kit/common/Dave/Generated/USBD_VCOM\usbd_vcom.c ****   cdc_event_flags.break_event_flag = 1U;
  86              	 .loc 1 546 0
  87 0000 014B     	 ldr r3,.L8
  88 0002 0122     	 movs r2,#1
  89 0004 9A70     	 strb r2,[r3,#2]
  90 0006 7047     	 bx lr
  91              	.L9:
  92              	 .align 2
  93              	.L8:
  94 0008 00000000 	 .word cdc_event_flags
  95              	 .cfi_endproc
  96              	.LFE203:
  98              	 .section .text.USBD_VCOM_Event_ConfigurationChanged,"ax",%progbits
  99              	 .align 1
 100              	 .global USBD_VCOM_Event_ConfigurationChanged
 101              	 .thumb
 102              	 .thumb_func
 104              	USBD_VCOM_Event_ConfigurationChanged:
 105              	.LFB198:
 482:C:/Users/Yushev/git/optiga-trust-qi/projects/xmc4700_relax_kit/common/Dave/Generated/USBD_VCOM\usbd_vcom.c ****   USBD_SetEndpointBuffer(((uint8_t)CDC_IN_EP_MASK|(uint8_t)CDC_NOTIFICATION_EPNUM), notification_ep
 106              	 .loc 1 482 0
 107              	 .cfi_startproc
 108              	 
 109              	 
 110 0000 08B5     	 push {r3,lr}
 111              	.LCFI0:
 112              	 .cfi_def_cfa_offset 8
 113              	 .cfi_offset 3,-8
 114              	 .cfi_offset 14,-4
 483:C:/Users/Yushev/git/optiga-trust-qi/projects/xmc4700_relax_kit/common/Dave/Generated/USBD_VCOM\usbd_vcom.c ****   (uint16_t)USB_FS_MAXPKT_SIZE);
 115              	 .loc 1 483 0
 116 0002 8120     	 movs r0,#129
 117 0004 0E49     	 ldr r1,.L16
 118 0006 4022     	 movs r2,#64
 119 0008 FFF7FEFF 	 bl USBD_SetEndpointBuffer
 120              	.LVL3:
 485:C:/Users/Yushev/git/optiga-trust-qi/projects/xmc4700_relax_kit/common/Dave/Generated/USBD_VCOM\usbd_vcom.c ****   USBD_SetEndpointBuffer((CDC_RX_EPNUM), rx_ep_buf, (uint16_t)USB_FS_MAXPKT_SIZE);
 121              	 .loc 1 485 0
 122 000c 8220     	 movs r0,#130
 123 000e 0D49     	 ldr r1,.L16+4
 124 0010 4022     	 movs r2,#64
 125 0012 FFF7FEFF 	 bl USBD_SetEndpointBuffer
 126              	.LVL4:
 486:C:/Users/Yushev/git/optiga-trust-qi/projects/xmc4700_relax_kit/common/Dave/Generated/USBD_VCOM\usbd_vcom.c ****   if (true == CDC_Device_ConfigureEndpoints(&USBD_VCOM_cdc_interface))
 127              	 .loc 1 486 0
 128 0016 0320     	 movs r0,#3
 129 0018 0B49     	 ldr r1,.L16+8
 130 001a 4022     	 movs r2,#64
 131 001c FFF7FEFF 	 bl USBD_SetEndpointBuffer
 132              	.LVL5:
 487:C:/Users/Yushev/git/optiga-trust-qi/projects/xmc4700_relax_kit/common/Dave/Generated/USBD_VCOM\usbd_vcom.c ****   {
 133              	 .loc 1 487 0
 134 0020 0A48     	 ldr r0,.L16+12
 135 0022 FFF7FEFF 	 bl CDC_Device_ConfigureEndpoints
 136              	.LVL6:
 137 0026 48B1     	 cbz r0,.L10
 489:C:/Users/Yushev/git/optiga-trust-qi/projects/xmc4700_relax_kit/common/Dave/Generated/USBD_VCOM\usbd_vcom.c ****     USB_DeviceState = (uint8_t)DEVICE_STATE_Configured;
 138              	 .loc 1 489 0
 139 0028 094A     	 ldr r2,.L16+16
 140 002a 92F83E31 	 ldrb r3,[r2,#318]
 141 002e 43F00103 	 orr r3,r3,#1
 142 0032 82F83E31 	 strb r3,[r2,#318]
 490:C:/Users/Yushev/git/optiga-trust-qi/projects/xmc4700_relax_kit/common/Dave/Generated/USBD_VCOM\usbd_vcom.c ****   }
 143              	 .loc 1 490 0
 144 0036 074B     	 ldr r3,.L16+20
 145 0038 0422     	 movs r2,#4
 146 003a 1A70     	 strb r2,[r3]
 147              	.L10:
 148 003c 08BD     	 pop {r3,pc}
 149              	.L17:
 150 003e 00BF     	 .align 2
 151              	.L16:
 152 0040 00000000 	 .word notification_ep_buf
 153 0044 00000000 	 .word tx_ep_buf
 154 0048 00000000 	 .word rx_ep_buf
 155 004c 00000000 	 .word USBD_VCOM_cdc_interface
 156 0050 00000000 	 .word device
 157 0054 00000000 	 .word USB_DeviceState
 158              	 .cfi_endproc
 159              	.LFE198:
 161              	 .section .text.USBD_VCOM_Event_ControlRequest,"ax",%progbits
 162              	 .align 1
 163              	 .global USBD_VCOM_Event_ControlRequest
 164              	 .thumb
 165              	 .thumb_func
 167              	USBD_VCOM_Event_ControlRequest:
 168              	.LFB199:
 496:C:/Users/Yushev/git/optiga-trust-qi/projects/xmc4700_relax_kit/common/Dave/Generated/USBD_VCOM\usbd_vcom.c ****   CDC_Device_ProcessControlRequest(&USBD_VCOM_cdc_interface);
 169              	 .loc 1 496 0
 170              	 .cfi_startproc
 171              	 
 172              	 
 173              	 
 497:C:/Users/Yushev/git/optiga-trust-qi/projects/xmc4700_relax_kit/common/Dave/Generated/USBD_VCOM\usbd_vcom.c **** }
 174              	 .loc 1 497 0
 175 0000 0148     	 ldr r0,.L19
 176 0002 FFF7FEBF 	 b CDC_Device_ProcessControlRequest
 177              	.LVL7:
 178              	.L20:
 179 0006 00BF     	 .align 2
 180              	.L19:
 181 0008 00000000 	 .word USBD_VCOM_cdc_interface
 182              	 .cfi_endproc
 183              	.LFE199:
 185              	 .section .text.USBD_VCOM_GetAppVersion,"ax",%progbits
 186              	 .align 1
 187              	 .global USBD_VCOM_GetAppVersion
 188              	 .thumb
 189              	 .thumb_func
 191              	USBD_VCOM_GetAppVersion:
 192              	.LFB187:
 229:C:/Users/Yushev/git/optiga-trust-qi/projects/xmc4700_relax_kit/common/Dave/Generated/USBD_VCOM\usbd_vcom.c ****   DAVE_APP_VERSION_t version;
 193              	 .loc 1 229 0
 194              	 .cfi_startproc
 195              	 
 196              	 
 197              	 
 198              	.LVL8:
 236:C:/Users/Yushev/git/optiga-trust-qi/projects/xmc4700_relax_kit/common/Dave/Generated/USBD_VCOM\usbd_vcom.c **** }
 199              	 .loc 1 236 0
 200 0000 0023     	 movs r3,#0
 201 0002 1846     	 mov r0,r3
 202 0004 0422     	 movs r2,#4
 203 0006 62F30700 	 bfi r0,r2,#0,#8
 204 000a 63F30F20 	 bfi r0,r3,#8,#8
 205 000e 0A23     	 movs r3,#10
 206 0010 63F31740 	 bfi r0,r3,#16,#8
 229:C:/Users/Yushev/git/optiga-trust-qi/projects/xmc4700_relax_kit/common/Dave/Generated/USBD_VCOM\usbd_vcom.c ****   DAVE_APP_VERSION_t version;
 207              	 .loc 1 229 0
 208 0014 82B0     	 sub sp,sp,#8
 209              	.LCFI1:
 210              	 .cfi_def_cfa_offset 8
 237:C:/Users/Yushev/git/optiga-trust-qi/projects/xmc4700_relax_kit/common/Dave/Generated/USBD_VCOM\usbd_vcom.c **** 
 211              	 .loc 1 237 0
 212 0016 02B0     	 add sp,sp,#8
 213              	.LCFI2:
 214              	 .cfi_def_cfa_offset 0
 215              	 
 216 0018 7047     	 bx lr
 217              	 .cfi_endproc
 218              	.LFE187:
 220              	 .section .text.USBD_VCOM_IsEnumDone,"ax",%progbits
 221              	 .align 1
 222              	 .global USBD_VCOM_IsEnumDone
 223              	 .thumb
 224              	 .thumb_func
 226              	USBD_VCOM_IsEnumDone:
 227              	.LFB189:
 282:C:/Users/Yushev/git/optiga-trust-qi/projects/xmc4700_relax_kit/common/Dave/Generated/USBD_VCOM\usbd_vcom.c ****   return (uint32_t)(USBD_IsEnumDone() && (USB_DeviceState == (uint8_t)DEVICE_STATE_Configured));
 228              	 .loc 1 282 0
 229              	 .cfi_startproc
 230              	 
 231              	 
 232 0000 08B5     	 push {r3,lr}
 233              	.LCFI3:
 234              	 .cfi_def_cfa_offset 8
 235              	 .cfi_offset 3,-8
 236              	 .cfi_offset 14,-4
 283:C:/Users/Yushev/git/optiga-trust-qi/projects/xmc4700_relax_kit/common/Dave/Generated/USBD_VCOM\usbd_vcom.c **** }
 237              	 .loc 1 283 0
 238 0002 FFF7FEFF 	 bl USBD_IsEnumDone
 239              	.LVL9:
 240 0006 20B1     	 cbz r0,.L23
 283:C:/Users/Yushev/git/optiga-trust-qi/projects/xmc4700_relax_kit/common/Dave/Generated/USBD_VCOM\usbd_vcom.c **** }
 241              	 .loc 1 283 0 is_stmt 0 discriminator 1
 242 0008 024B     	 ldr r3,.L25
 243 000a 1878     	 ldrb r0,[r3]
 244 000c 031F     	 subs r3,r0,#4
 245 000e 5842     	 rsbs r0,r3,#0
 246 0010 5841     	 adcs r0,r0,r3
 247              	.L23:
 284:C:/Users/Yushev/git/optiga-trust-qi/projects/xmc4700_relax_kit/common/Dave/Generated/USBD_VCOM\usbd_vcom.c **** 
 248              	 .loc 1 284 0 is_stmt 1 discriminator 6
 249 0012 08BD     	 pop {r3,pc}
 250              	.L26:
 251              	 .align 2
 252              	.L25:
 253 0014 00000000 	 .word USB_DeviceState
 254              	 .cfi_endproc
 255              	.LFE189:
 257              	 .section .text.USBD_VCOM_SendByte,"ax",%progbits
 258              	 .align 1
 259              	 .global USBD_VCOM_SendByte
 260              	 .thumb
 261              	 .thumb_func
 263              	USBD_VCOM_SendByte:
 264              	.LFB190:
 288:C:/Users/Yushev/git/optiga-trust-qi/projects/xmc4700_relax_kit/common/Dave/Generated/USBD_VCOM\usbd_vcom.c ****   USBD_VCOM_STATUS_t status = USBD_VCOM_STATUS_SUCCESS;
 265              	 .loc 1 288 0
 266              	 .cfi_startproc
 267              	 
 268              	 
 269              	.LVL10:
 270 0000 10B5     	 push {r4,lr}
 271              	.LCFI4:
 272              	 .cfi_def_cfa_offset 8
 273              	 .cfi_offset 4,-8
 274              	 .cfi_offset 14,-4
 288:C:/Users/Yushev/git/optiga-trust-qi/projects/xmc4700_relax_kit/common/Dave/Generated/USBD_VCOM\usbd_vcom.c ****   USBD_VCOM_STATUS_t status = USBD_VCOM_STATUS_SUCCESS;
 275              	 .loc 1 288 0
 276 0002 0146     	 mov r1,r0
 292:C:/Users/Yushev/git/optiga-trust-qi/projects/xmc4700_relax_kit/common/Dave/Generated/USBD_VCOM\usbd_vcom.c ****   {
 277              	 .loc 1 292 0
 278 0004 0748     	 ldr r0,.L33
 279              	.LVL11:
 280 0006 FFF7FEFF 	 bl CDC_Device_SendByte
 281              	.LVL12:
 282 000a 0028     	 cmp r0,#0
 296:C:/Users/Yushev/git/optiga-trust-qi/projects/xmc4700_relax_kit/common/Dave/Generated/USBD_VCOM\usbd_vcom.c ****   {
 283              	 .loc 1 296 0
 284 000c 0548     	 ldr r0,.L33
 294:C:/Users/Yushev/git/optiga-trust-qi/projects/xmc4700_relax_kit/common/Dave/Generated/USBD_VCOM\usbd_vcom.c ****   }
 285              	 .loc 1 294 0
 286 000e 0CBF     	 ite eq
 287 0010 0024     	 moveq r4,#0
 288 0012 0624     	 movne r4,#6
 289              	.LVL13:
 296:C:/Users/Yushev/git/optiga-trust-qi/projects/xmc4700_relax_kit/common/Dave/Generated/USBD_VCOM\usbd_vcom.c ****   {
 290              	 .loc 1 296 0
 291 0014 FFF7FEFF 	 bl CDC_Device_Flush
 292              	.LVL14:
 293 0018 0028     	 cmp r0,#0
 294              	.LVL15:
 302:C:/Users/Yushev/git/optiga-trust-qi/projects/xmc4700_relax_kit/common/Dave/Generated/USBD_VCOM\usbd_vcom.c **** 
 295              	 .loc 1 302 0
 296 001a 0CBF     	 ite eq
 297 001c 2046     	 moveq r0,r4
 298 001e 0620     	 movne r0,#6
 299 0020 10BD     	 pop {r4,pc}
 300              	.LVL16:
 301              	.L34:
 302 0022 00BF     	 .align 2
 303              	.L33:
 304 0024 00000000 	 .word USBD_VCOM_cdc_interface
 305              	 .cfi_endproc
 306              	.LFE190:
 308              	 .section .text.USBD_VCOM_SendData,"ax",%progbits
 309              	 .align 1
 310              	 .global USBD_VCOM_SendData
 311              	 .thumb
 312              	 .thumb_func
 314              	USBD_VCOM_SendData:
 315              	.LFB191:
 306:C:/Users/Yushev/git/optiga-trust-qi/projects/xmc4700_relax_kit/common/Dave/Generated/USBD_VCOM\usbd_vcom.c ****   USBD_VCOM_STATUS_t status = USBD_VCOM_STATUS_SUCCESS;
 316              	 .loc 1 306 0
 317              	 .cfi_startproc
 318              	 
 319              	 
 320              	.LVL17:
 321 0000 10B5     	 push {r4,lr}
 322              	.LCFI5:
 323              	 .cfi_def_cfa_offset 8
 324              	 .cfi_offset 4,-8
 325              	 .cfi_offset 14,-4
 306:C:/Users/Yushev/git/optiga-trust-qi/projects/xmc4700_relax_kit/common/Dave/Generated/USBD_VCOM\usbd_vcom.c ****   USBD_VCOM_STATUS_t status = USBD_VCOM_STATUS_SUCCESS;
 326              	 .loc 1 306 0
 327 0002 0346     	 mov r3,r0
 309:C:/Users/Yushev/git/optiga-trust-qi/projects/xmc4700_relax_kit/common/Dave/Generated/USBD_VCOM\usbd_vcom.c ****   {
 328              	 .loc 1 309 0
 329 0004 0A46     	 mov r2,r1
 330 0006 79B1     	 cbz r1,.L39
 309:C:/Users/Yushev/git/optiga-trust-qi/projects/xmc4700_relax_kit/common/Dave/Generated/USBD_VCOM\usbd_vcom.c ****   {
 331              	 .loc 1 309 0 is_stmt 0 discriminator 1
 332 0008 70B1     	 cbz r0,.L39
 317:C:/Users/Yushev/git/optiga-trust-qi/projects/xmc4700_relax_kit/common/Dave/Generated/USBD_VCOM\usbd_vcom.c ****     {
 333              	 .loc 1 317 0 is_stmt 1
 334 000a 1946     	 mov r1,r3
 335              	.LVL18:
 336 000c 0848     	 ldr r0,.L43
 337              	.LVL19:
 338 000e FFF7FEFF 	 bl CDC_Device_SendData
 339              	.LVL20:
 316:C:/Users/Yushev/git/optiga-trust-qi/projects/xmc4700_relax_kit/common/Dave/Generated/USBD_VCOM\usbd_vcom.c ****         CDC_Device_SendData(&USBD_VCOM_cdc_interface, (const int8_t *)data_buffer, length))
 340              	 .loc 1 316 0
 341 0012 0028     	 cmp r0,#0
 321:C:/Users/Yushev/git/optiga-trust-qi/projects/xmc4700_relax_kit/common/Dave/Generated/USBD_VCOM\usbd_vcom.c ****     {
 342              	 .loc 1 321 0
 343 0014 0648     	 ldr r0,.L43
 319:C:/Users/Yushev/git/optiga-trust-qi/projects/xmc4700_relax_kit/common/Dave/Generated/USBD_VCOM\usbd_vcom.c ****     }
 344              	 .loc 1 319 0
 345 0016 14BF     	 ite ne
 346 0018 0624     	 movne r4,#6
 347 001a 0024     	 moveq r4,#0
 348              	.LVL21:
 321:C:/Users/Yushev/git/optiga-trust-qi/projects/xmc4700_relax_kit/common/Dave/Generated/USBD_VCOM\usbd_vcom.c ****     {
 349              	 .loc 1 321 0
 350 001c FFF7FEFF 	 bl CDC_Device_Flush
 351              	.LVL22:
 352 0020 0028     	 cmp r0,#0
 323:C:/Users/Yushev/git/optiga-trust-qi/projects/xmc4700_relax_kit/common/Dave/Generated/USBD_VCOM\usbd_vcom.c ****     }
 353              	 .loc 1 323 0
 354 0022 18BF     	 it ne
 355 0024 0624     	 movne r4,#6
 356              	.LVL23:
 357 0026 00E0     	 b .L36
 358              	.LVL24:
 359              	.L39:
 311:C:/Users/Yushev/git/optiga-trust-qi/projects/xmc4700_relax_kit/common/Dave/Generated/USBD_VCOM\usbd_vcom.c ****   }
 360              	 .loc 1 311 0
 361 0028 0624     	 movs r4,#6
 362              	.LVL25:
 363              	.L36:
 327:C:/Users/Yushev/git/optiga-trust-qi/projects/xmc4700_relax_kit/common/Dave/Generated/USBD_VCOM\usbd_vcom.c **** 
 364              	 .loc 1 327 0
 365 002a 2046     	 mov r0,r4
 366 002c 10BD     	 pop {r4,pc}
 367              	.LVL26:
 368              	.L44:
 369 002e 00BF     	 .align 2
 370              	.L43:
 371 0030 00000000 	 .word USBD_VCOM_cdc_interface
 372              	 .cfi_endproc
 373              	.LFE191:
 375              	 .section .text.USBD_VCOM_SendString,"ax",%progbits
 376              	 .align 1
 377              	 .global USBD_VCOM_SendString
 378              	 .thumb
 379              	 .thumb_func
 381              	USBD_VCOM_SendString:
 382              	.LFB192:
 331:C:/Users/Yushev/git/optiga-trust-qi/projects/xmc4700_relax_kit/common/Dave/Generated/USBD_VCOM\usbd_vcom.c ****   USBD_VCOM_STATUS_t status = USBD_VCOM_STATUS_SUCCESS;
 383              	 .loc 1 331 0
 384              	 .cfi_startproc
 385              	 
 386              	 
 387              	.LVL27:
 388 0000 10B5     	 push {r4,lr}
 389              	.LCFI6:
 390              	 .cfi_def_cfa_offset 8
 391              	 .cfi_offset 4,-8
 392              	 .cfi_offset 14,-4
 334:C:/Users/Yushev/git/optiga-trust-qi/projects/xmc4700_relax_kit/common/Dave/Generated/USBD_VCOM\usbd_vcom.c ****   {
 393              	 .loc 1 334 0
 394 0002 0146     	 mov r1,r0
 395 0004 68B1     	 cbz r0,.L48
 337:C:/Users/Yushev/git/optiga-trust-qi/projects/xmc4700_relax_kit/common/Dave/Generated/USBD_VCOM\usbd_vcom.c ****     {
 396              	 .loc 1 337 0
 397 0006 0848     	 ldr r0,.L52
 398              	.LVL28:
 399 0008 FFF7FEFF 	 bl CDC_Device_SendString
 400              	.LVL29:
 401 000c 0028     	 cmp r0,#0
 341:C:/Users/Yushev/git/optiga-trust-qi/projects/xmc4700_relax_kit/common/Dave/Generated/USBD_VCOM\usbd_vcom.c ****     {
 402              	 .loc 1 341 0
 403 000e 0648     	 ldr r0,.L52
 339:C:/Users/Yushev/git/optiga-trust-qi/projects/xmc4700_relax_kit/common/Dave/Generated/USBD_VCOM\usbd_vcom.c ****     }
 404              	 .loc 1 339 0
 405 0010 14BF     	 ite ne
 406 0012 0624     	 movne r4,#6
 407 0014 0024     	 moveq r4,#0
 408              	.LVL30:
 341:C:/Users/Yushev/git/optiga-trust-qi/projects/xmc4700_relax_kit/common/Dave/Generated/USBD_VCOM\usbd_vcom.c ****     {
 409              	 .loc 1 341 0
 410 0016 FFF7FEFF 	 bl CDC_Device_Flush
 411              	.LVL31:
 412 001a 0028     	 cmp r0,#0
 343:C:/Users/Yushev/git/optiga-trust-qi/projects/xmc4700_relax_kit/common/Dave/Generated/USBD_VCOM\usbd_vcom.c ****     }
 413              	 .loc 1 343 0
 414 001c 18BF     	 it ne
 415 001e 0624     	 movne r4,#6
 416              	.LVL32:
 417 0020 00E0     	 b .L46
 418              	.LVL33:
 419              	.L48:
 348:C:/Users/Yushev/git/optiga-trust-qi/projects/xmc4700_relax_kit/common/Dave/Generated/USBD_VCOM\usbd_vcom.c ****   }
 420              	 .loc 1 348 0
 421 0022 0624     	 movs r4,#6
 422              	.LVL34:
 423              	.L46:
 352:C:/Users/Yushev/git/optiga-trust-qi/projects/xmc4700_relax_kit/common/Dave/Generated/USBD_VCOM\usbd_vcom.c **** 
 424              	 .loc 1 352 0
 425 0024 2046     	 mov r0,r4
 426 0026 10BD     	 pop {r4,pc}
 427              	.LVL35:
 428              	.L53:
 429              	 .align 2
 430              	.L52:
 431 0028 00000000 	 .word USBD_VCOM_cdc_interface
 432              	 .cfi_endproc
 433              	.LFE192:
 435              	 .section .text.USBD_VCOM_ReceiveByte,"ax",%progbits
 436              	 .align 1
 437              	 .global USBD_VCOM_ReceiveByte
 438              	 .thumb
 439              	 .thumb_func
 441              	USBD_VCOM_ReceiveByte:
 442              	.LFB193:
 356:C:/Users/Yushev/git/optiga-trust-qi/projects/xmc4700_relax_kit/common/Dave/Generated/USBD_VCOM\usbd_vcom.c ****   USBD_VCOM_STATUS_t status = USBD_VCOM_STATUS_SUCCESS;
 443              	 .loc 1 356 0
 444              	 .cfi_startproc
 445              	 
 446              	 
 447              	.LVL36:
 448 0000 10B5     	 push {r4,lr}
 449              	.LCFI7:
 450              	 .cfi_def_cfa_offset 8
 451              	 .cfi_offset 4,-8
 452              	 .cfi_offset 14,-4
 360:C:/Users/Yushev/git/optiga-trust-qi/projects/xmc4700_relax_kit/common/Dave/Generated/USBD_VCOM\usbd_vcom.c ****   {
 453              	 .loc 1 360 0
 454 0002 0446     	 mov r4,r0
 455 0004 08B9     	 cbnz r0,.L55
 456              	.LVL37:
 457              	.L57:
 376:C:/Users/Yushev/git/optiga-trust-qi/projects/xmc4700_relax_kit/common/Dave/Generated/USBD_VCOM\usbd_vcom.c ****   }
 458              	 .loc 1 376 0
 459 0006 0620     	 movs r0,#6
 460 0008 10BD     	 pop {r4,pc}
 461              	.LVL38:
 462              	.L55:
 363:C:/Users/Yushev/git/optiga-trust-qi/projects/xmc4700_relax_kit/common/Dave/Generated/USBD_VCOM\usbd_vcom.c **** 
 463              	 .loc 1 363 0
 464 000a 0448     	 ldr r0,.L61
 465              	.LVL39:
 466 000c FFF7FEFF 	 bl CDC_Device_ReceiveByte
 467              	.LVL40:
 365:C:/Users/Yushev/git/optiga-trust-qi/projects/xmc4700_relax_kit/common/Dave/Generated/USBD_VCOM\usbd_vcom.c ****     {
 468              	 .loc 1 365 0
 469 0010 431C     	 adds r3,r0,#1
 470 0012 F8D0     	 beq .L57
 367:C:/Users/Yushev/git/optiga-trust-qi/projects/xmc4700_relax_kit/common/Dave/Generated/USBD_VCOM\usbd_vcom.c ****     }
 471              	 .loc 1 367 0
 472 0014 2070     	 strb r0,[r4]
 357:C:/Users/Yushev/git/optiga-trust-qi/projects/xmc4700_relax_kit/common/Dave/Generated/USBD_VCOM\usbd_vcom.c ****   int16_t rx_byte;
 473              	 .loc 1 357 0
 474 0016 0020     	 movs r0,#0
 475              	.LVL41:
 380:C:/Users/Yushev/git/optiga-trust-qi/projects/xmc4700_relax_kit/common/Dave/Generated/USBD_VCOM\usbd_vcom.c **** 
 476              	 .loc 1 380 0
 477 0018 10BD     	 pop {r4,pc}
 478              	.LVL42:
 479              	.L62:
 480 001a 00BF     	 .align 2
 481              	.L61:
 482 001c 00000000 	 .word USBD_VCOM_cdc_interface
 483              	 .cfi_endproc
 484              	.LFE193:
 486              	 .section .text.USBD_VCOM_ReceiveData,"ax",%progbits
 487              	 .align 1
 488              	 .global USBD_VCOM_ReceiveData
 489              	 .thumb
 490              	 .thumb_func
 492              	USBD_VCOM_ReceiveData:
 493              	.LFB194:
 384:C:/Users/Yushev/git/optiga-trust-qi/projects/xmc4700_relax_kit/common/Dave/Generated/USBD_VCOM\usbd_vcom.c ****   USBD_VCOM_STATUS_t status = USBD_VCOM_STATUS_SUCCESS;
 494              	 .loc 1 384 0
 495              	 .cfi_startproc
 496              	 
 497              	 
 498              	.LVL43:
 499 0000 37B5     	 push {r0,r1,r2,r4,r5,lr}
 500              	.LCFI8:
 501              	 .cfi_def_cfa_offset 24
 502              	 .cfi_offset 4,-12
 503              	 .cfi_offset 5,-8
 504              	 .cfi_offset 14,-4
 386:C:/Users/Yushev/git/optiga-trust-qi/projects/xmc4700_relax_kit/common/Dave/Generated/USBD_VCOM\usbd_vcom.c ****   uint8_t ret = 0U;
 505              	 .loc 1 386 0
 506 0002 0022     	 movs r2,#0
 384:C:/Users/Yushev/git/optiga-trust-qi/projects/xmc4700_relax_kit/common/Dave/Generated/USBD_VCOM\usbd_vcom.c ****   USBD_VCOM_STATUS_t status = USBD_VCOM_STATUS_SUCCESS;
 507              	 .loc 1 384 0
 508 0004 0546     	 mov r5,r0
 386:C:/Users/Yushev/git/optiga-trust-qi/projects/xmc4700_relax_kit/common/Dave/Generated/USBD_VCOM\usbd_vcom.c ****   uint8_t ret = 0U;
 509              	 .loc 1 386 0
 510 0006 ADF80620 	 strh r2,[sp,#6]
 511              	.LVL44:
 389:C:/Users/Yushev/git/optiga-trust-qi/projects/xmc4700_relax_kit/common/Dave/Generated/USBD_VCOM\usbd_vcom.c ****   {
 512              	 .loc 1 389 0
 513 000a 0C46     	 mov r4,r1
 514 000c 99B1     	 cbz r1,.L67
 389:C:/Users/Yushev/git/optiga-trust-qi/projects/xmc4700_relax_kit/common/Dave/Generated/USBD_VCOM\usbd_vcom.c ****   {
 515              	 .loc 1 389 0 is_stmt 0 discriminator 1
 516 000e 90B1     	 cbz r0,.L67
 517              	.LVL45:
 518              	.LBB16:
 519              	.LBB17:
 520              	 .file 2 "c:\\users\\yushev\\git\\optiga-trust-qi\\projects\\xmc4700_relax_kit\\common\\dave\\generated\\usbd\\usb\\core\\xmc4000\\usbd_endpoint_xmc4000.h"
   1:c:\users\yushev\git\optiga-trust-qi\projects\xmc4700_relax_kit\common\dave\generated\usbd\usb\core\xmc4000\usbd_endpoint_xmc4000.h **** /**
   2:c:\users\yushev\git\optiga-trust-qi\projects\xmc4700_relax_kit\common\dave\generated\usbd\usb\core\xmc4000\usbd_endpoint_xmc4000.h ****  * @file usbd_endpoint_xmc4000.h
   3:c:\users\yushev\git\optiga-trust-qi\projects\xmc4700_relax_kit\common\dave\generated\usbd\usb\core\xmc4000\usbd_endpoint_xmc4000.h ****  * @date 2015-06-20 
   4:c:\users\yushev\git\optiga-trust-qi\projects\xmc4700_relax_kit\common\dave\generated\usbd\usb\core\xmc4000\usbd_endpoint_xmc4000.h ****  * NOTE:
   5:c:\users\yushev\git\optiga-trust-qi\projects\xmc4700_relax_kit\common\dave\generated\usbd\usb\core\xmc4000\usbd_endpoint_xmc4000.h ****  * This file is generated by DAVE. Any manual modification done to this file will be lost when the 
   6:c:\users\yushev\git\optiga-trust-qi\projects\xmc4700_relax_kit\common\dave\generated\usbd\usb\core\xmc4000\usbd_endpoint_xmc4000.h ****  *
   7:c:\users\yushev\git\optiga-trust-qi\projects\xmc4700_relax_kit\common\dave\generated\usbd\usb\core\xmc4000\usbd_endpoint_xmc4000.h ****  * @cond
   8:c:\users\yushev\git\optiga-trust-qi\projects\xmc4700_relax_kit\common\dave\generated\usbd\usb\core\xmc4000\usbd_endpoint_xmc4000.h ****  **************************************************************************************************
   9:c:\users\yushev\git\optiga-trust-qi\projects\xmc4700_relax_kit\common\dave\generated\usbd\usb\core\xmc4000\usbd_endpoint_xmc4000.h ****  * The USB core driver for XMC4000 family of controllers. It does the USB protocol handling.
  10:c:\users\yushev\git\optiga-trust-qi\projects\xmc4700_relax_kit\common\dave\generated\usbd\usb\core\xmc4000\usbd_endpoint_xmc4000.h ****  *
  11:c:\users\yushev\git\optiga-trust-qi\projects\xmc4700_relax_kit\common\dave\generated\usbd\usb\core\xmc4000\usbd_endpoint_xmc4000.h ****  * Copyright (c) 2015, Infineon Technologies AG
  12:c:\users\yushev\git\optiga-trust-qi\projects\xmc4700_relax_kit\common\dave\generated\usbd\usb\core\xmc4000\usbd_endpoint_xmc4000.h ****  * All rights reserved.                        
  13:c:\users\yushev\git\optiga-trust-qi\projects\xmc4700_relax_kit\common\dave\generated\usbd\usb\core\xmc4000\usbd_endpoint_xmc4000.h ****  *                                             
  14:c:\users\yushev\git\optiga-trust-qi\projects\xmc4700_relax_kit\common\dave\generated\usbd\usb\core\xmc4000\usbd_endpoint_xmc4000.h ****  * Redistribution and use in source and binary forms, with or without modification,are permitted pr
  15:c:\users\yushev\git\optiga-trust-qi\projects\xmc4700_relax_kit\common\dave\generated\usbd\usb\core\xmc4000\usbd_endpoint_xmc4000.h ****  * following conditions are met:   
  16:c:\users\yushev\git\optiga-trust-qi\projects\xmc4700_relax_kit\common\dave\generated\usbd\usb\core\xmc4000\usbd_endpoint_xmc4000.h ****  *                                                                              
  17:c:\users\yushev\git\optiga-trust-qi\projects\xmc4700_relax_kit\common\dave\generated\usbd\usb\core\xmc4000\usbd_endpoint_xmc4000.h ****  *   Redistributions of source code must retain the above copyright notice, this list of conditions
  18:c:\users\yushev\git\optiga-trust-qi\projects\xmc4700_relax_kit\common\dave\generated\usbd\usb\core\xmc4000\usbd_endpoint_xmc4000.h ****  *   disclaimer.                        
  19:c:\users\yushev\git\optiga-trust-qi\projects\xmc4700_relax_kit\common\dave\generated\usbd\usb\core\xmc4000\usbd_endpoint_xmc4000.h ****  * 
  20:c:\users\yushev\git\optiga-trust-qi\projects\xmc4700_relax_kit\common\dave\generated\usbd\usb\core\xmc4000\usbd_endpoint_xmc4000.h ****  *   Redistributions in binary form must reproduce the above copyright notice, this list of conditi
  21:c:\users\yushev\git\optiga-trust-qi\projects\xmc4700_relax_kit\common\dave\generated\usbd\usb\core\xmc4000\usbd_endpoint_xmc4000.h ****  *   following disclaimer in the documentation and/or other materials provided with the distributio
  22:c:\users\yushev\git\optiga-trust-qi\projects\xmc4700_relax_kit\common\dave\generated\usbd\usb\core\xmc4000\usbd_endpoint_xmc4000.h ****  *                         
  23:c:\users\yushev\git\optiga-trust-qi\projects\xmc4700_relax_kit\common\dave\generated\usbd\usb\core\xmc4000\usbd_endpoint_xmc4000.h ****  *   Neither the name of the copyright holders nor the names of its contributors may be used to end
  24:c:\users\yushev\git\optiga-trust-qi\projects\xmc4700_relax_kit\common\dave\generated\usbd\usb\core\xmc4000\usbd_endpoint_xmc4000.h ****  *   products derived from this software without specific prior written permission. 
  25:c:\users\yushev\git\optiga-trust-qi\projects\xmc4700_relax_kit\common\dave\generated\usbd\usb\core\xmc4000\usbd_endpoint_xmc4000.h ****  *                                             
  26:c:\users\yushev\git\optiga-trust-qi\projects\xmc4700_relax_kit\common\dave\generated\usbd\usb\core\xmc4000\usbd_endpoint_xmc4000.h ****  * THIS SOFTWARE IS PROVIDED BY THE COPYRIGHT HOLDERS AND CONTRIBUTORS "AS IS" AND ANY EXPRESS OR I
  27:c:\users\yushev\git\optiga-trust-qi\projects\xmc4700_relax_kit\common\dave\generated\usbd\usb\core\xmc4000\usbd_endpoint_xmc4000.h ****  * INCLUDING, BUT NOT LIMITED TO, THE IMPLIED WARRANTIES OF MERCHANTABILITY AND FITNESS FOR A PARTI
  28:c:\users\yushev\git\optiga-trust-qi\projects\xmc4700_relax_kit\common\dave\generated\usbd\usb\core\xmc4000\usbd_endpoint_xmc4000.h ****  * DISCLAIMED. IN NO EVENT SHALL THE COPYRIGHT HOLDER OR CONTRIBUTORS BE LIABLE  FOR ANY DIRECT, IN
  29:c:\users\yushev\git\optiga-trust-qi\projects\xmc4700_relax_kit\common\dave\generated\usbd\usb\core\xmc4000\usbd_endpoint_xmc4000.h ****  * SPECIAL, EXEMPLARY, OR CONSEQUENTIAL DAMAGES (INCLUDING, BUT NOT LIMITED TO, PROCUREMENT OF SUBS
  30:c:\users\yushev\git\optiga-trust-qi\projects\xmc4700_relax_kit\common\dave\generated\usbd\usb\core\xmc4000\usbd_endpoint_xmc4000.h ****  * SERVICES; LOSS OF USE, DATA, OR PROFITS; OR BUSINESS INTERRUPTION) HOWEVER CAUSED AND ON ANY THE
  31:c:\users\yushev\git\optiga-trust-qi\projects\xmc4700_relax_kit\common\dave\generated\usbd\usb\core\xmc4000\usbd_endpoint_xmc4000.h ****  * WHETHER IN CONTRACT, STRICT LIABILITY,OR TORT (INCLUDING NEGLIGENCE OR OTHERWISE) ARISING IN ANY
  32:c:\users\yushev\git\optiga-trust-qi\projects\xmc4700_relax_kit\common\dave\generated\usbd\usb\core\xmc4000\usbd_endpoint_xmc4000.h ****  * USE OF THIS SOFTWARE, EVEN IF ADVISED OF THE POSSIBILITY OF SUCH DAMAGE.    
  33:c:\users\yushev\git\optiga-trust-qi\projects\xmc4700_relax_kit\common\dave\generated\usbd\usb\core\xmc4000\usbd_endpoint_xmc4000.h ****  *                                                                              
  34:c:\users\yushev\git\optiga-trust-qi\projects\xmc4700_relax_kit\common\dave\generated\usbd\usb\core\xmc4000\usbd_endpoint_xmc4000.h ****  * To improve the quality of the software, users are encouraged to share modifications, enhancement
  35:c:\users\yushev\git\optiga-trust-qi\projects\xmc4700_relax_kit\common\dave\generated\usbd\usb\core\xmc4000\usbd_endpoint_xmc4000.h ****  * with Infineon Technologies AG (dave@infineon.com).        
  36:c:\users\yushev\git\optiga-trust-qi\projects\xmc4700_relax_kit\common\dave\generated\usbd\usb\core\xmc4000\usbd_endpoint_xmc4000.h ****  **************************************************************************************************
  37:c:\users\yushev\git\optiga-trust-qi\projects\xmc4700_relax_kit\common\dave\generated\usbd\usb\core\xmc4000\usbd_endpoint_xmc4000.h ****  *
  38:c:\users\yushev\git\optiga-trust-qi\projects\xmc4700_relax_kit\common\dave\generated\usbd\usb\core\xmc4000\usbd_endpoint_xmc4000.h ****  * Change History
  39:c:\users\yushev\git\optiga-trust-qi\projects\xmc4700_relax_kit\common\dave\generated\usbd\usb\core\xmc4000\usbd_endpoint_xmc4000.h ****  * --------------
  40:c:\users\yushev\git\optiga-trust-qi\projects\xmc4700_relax_kit\common\dave\generated\usbd\usb\core\xmc4000\usbd_endpoint_xmc4000.h ****  *
  41:c:\users\yushev\git\optiga-trust-qi\projects\xmc4700_relax_kit\common\dave\generated\usbd\usb\core\xmc4000\usbd_endpoint_xmc4000.h ****  * 2015-02-16:
  42:c:\users\yushev\git\optiga-trust-qi\projects\xmc4700_relax_kit\common\dave\generated\usbd\usb\core\xmc4000\usbd_endpoint_xmc4000.h ****  *     - Initial version.      
  43:c:\users\yushev\git\optiga-trust-qi\projects\xmc4700_relax_kit\common\dave\generated\usbd\usb\core\xmc4000\usbd_endpoint_xmc4000.h ****  * 2015-06-20:
  44:c:\users\yushev\git\optiga-trust-qi\projects\xmc4700_relax_kit\common\dave\generated\usbd\usb\core\xmc4000\usbd_endpoint_xmc4000.h ****  *     - Updated the file header.
  45:c:\users\yushev\git\optiga-trust-qi\projects\xmc4700_relax_kit\common\dave\generated\usbd\usb\core\xmc4000\usbd_endpoint_xmc4000.h ****  *     
  46:c:\users\yushev\git\optiga-trust-qi\projects\xmc4700_relax_kit\common\dave\generated\usbd\usb\core\xmc4000\usbd_endpoint_xmc4000.h ****  * @endcond 
  47:c:\users\yushev\git\optiga-trust-qi\projects\xmc4700_relax_kit\common\dave\generated\usbd\usb\core\xmc4000\usbd_endpoint_xmc4000.h ****  *
  48:c:\users\yushev\git\optiga-trust-qi\projects\xmc4700_relax_kit\common\dave\generated\usbd\usb\core\xmc4000\usbd_endpoint_xmc4000.h ****  */
  49:c:\users\yushev\git\optiga-trust-qi\projects\xmc4700_relax_kit\common\dave\generated\usbd\usb\core\xmc4000\usbd_endpoint_xmc4000.h **** /*
  50:c:\users\yushev\git\optiga-trust-qi\projects\xmc4700_relax_kit\common\dave\generated\usbd\usb\core\xmc4000\usbd_endpoint_xmc4000.h ****   Copyright 2014  Dean Camera (dean [at] fourwalledcubicle [dot] com)
  51:c:\users\yushev\git\optiga-trust-qi\projects\xmc4700_relax_kit\common\dave\generated\usbd\usb\core\xmc4000\usbd_endpoint_xmc4000.h **** 
  52:c:\users\yushev\git\optiga-trust-qi\projects\xmc4700_relax_kit\common\dave\generated\usbd\usb\core\xmc4000\usbd_endpoint_xmc4000.h ****   Permission to use, copy, modify, distribute, and sell this
  53:c:\users\yushev\git\optiga-trust-qi\projects\xmc4700_relax_kit\common\dave\generated\usbd\usb\core\xmc4000\usbd_endpoint_xmc4000.h ****   software and its documentation for any purpose is hereby granted
  54:c:\users\yushev\git\optiga-trust-qi\projects\xmc4700_relax_kit\common\dave\generated\usbd\usb\core\xmc4000\usbd_endpoint_xmc4000.h ****   without fee, provided that the above copyright notice appear in
  55:c:\users\yushev\git\optiga-trust-qi\projects\xmc4700_relax_kit\common\dave\generated\usbd\usb\core\xmc4000\usbd_endpoint_xmc4000.h ****   all copies and that both that the copyright notice and this
  56:c:\users\yushev\git\optiga-trust-qi\projects\xmc4700_relax_kit\common\dave\generated\usbd\usb\core\xmc4000\usbd_endpoint_xmc4000.h ****   permission notice and warranty disclaimer appear in supporting
  57:c:\users\yushev\git\optiga-trust-qi\projects\xmc4700_relax_kit\common\dave\generated\usbd\usb\core\xmc4000\usbd_endpoint_xmc4000.h ****   documentation, and that the name of the author not be used in
  58:c:\users\yushev\git\optiga-trust-qi\projects\xmc4700_relax_kit\common\dave\generated\usbd\usb\core\xmc4000\usbd_endpoint_xmc4000.h ****   advertising or publicity pertaining to distribution of the
  59:c:\users\yushev\git\optiga-trust-qi\projects\xmc4700_relax_kit\common\dave\generated\usbd\usb\core\xmc4000\usbd_endpoint_xmc4000.h ****   software without specific, written prior permission.
  60:c:\users\yushev\git\optiga-trust-qi\projects\xmc4700_relax_kit\common\dave\generated\usbd\usb\core\xmc4000\usbd_endpoint_xmc4000.h **** 
  61:c:\users\yushev\git\optiga-trust-qi\projects\xmc4700_relax_kit\common\dave\generated\usbd\usb\core\xmc4000\usbd_endpoint_xmc4000.h ****   The author disclaims all warranties with regard to this
  62:c:\users\yushev\git\optiga-trust-qi\projects\xmc4700_relax_kit\common\dave\generated\usbd\usb\core\xmc4000\usbd_endpoint_xmc4000.h ****   software, including all implied warranties of merchantability
  63:c:\users\yushev\git\optiga-trust-qi\projects\xmc4700_relax_kit\common\dave\generated\usbd\usb\core\xmc4000\usbd_endpoint_xmc4000.h ****   and fitness.  In no event shall the author be liable for any
  64:c:\users\yushev\git\optiga-trust-qi\projects\xmc4700_relax_kit\common\dave\generated\usbd\usb\core\xmc4000\usbd_endpoint_xmc4000.h ****   special, indirect or consequential damages or any damages
  65:c:\users\yushev\git\optiga-trust-qi\projects\xmc4700_relax_kit\common\dave\generated\usbd\usb\core\xmc4000\usbd_endpoint_xmc4000.h ****   whatsoever resulting from loss of use, data or profits, whether
  66:c:\users\yushev\git\optiga-trust-qi\projects\xmc4700_relax_kit\common\dave\generated\usbd\usb\core\xmc4000\usbd_endpoint_xmc4000.h ****   in an action of contract, negligence or other tortious action,
  67:c:\users\yushev\git\optiga-trust-qi\projects\xmc4700_relax_kit\common\dave\generated\usbd\usb\core\xmc4000\usbd_endpoint_xmc4000.h ****   arising out of or in connection with the use or performance of
  68:c:\users\yushev\git\optiga-trust-qi\projects\xmc4700_relax_kit\common\dave\generated\usbd\usb\core\xmc4000\usbd_endpoint_xmc4000.h ****   this software.
  69:c:\users\yushev\git\optiga-trust-qi\projects\xmc4700_relax_kit\common\dave\generated\usbd\usb\core\xmc4000\usbd_endpoint_xmc4000.h **** */
  70:c:\users\yushev\git\optiga-trust-qi\projects\xmc4700_relax_kit\common\dave\generated\usbd\usb\core\xmc4000\usbd_endpoint_xmc4000.h **** 
  71:c:\users\yushev\git\optiga-trust-qi\projects\xmc4700_relax_kit\common\dave\generated\usbd\usb\core\xmc4000\usbd_endpoint_xmc4000.h **** 
  72:c:\users\yushev\git\optiga-trust-qi\projects\xmc4700_relax_kit\common\dave\generated\usbd\usb\core\xmc4000\usbd_endpoint_xmc4000.h **** #ifndef USBD_ENDPOINT_XMC4000_H
  73:c:\users\yushev\git\optiga-trust-qi\projects\xmc4700_relax_kit\common\dave\generated\usbd\usb\core\xmc4000\usbd_endpoint_xmc4000.h **** #define USBD_ENDPOINT_XMC4000_H
  74:c:\users\yushev\git\optiga-trust-qi\projects\xmc4700_relax_kit\common\dave\generated\usbd\usb\core\xmc4000\usbd_endpoint_xmc4000.h **** 
  75:c:\users\yushev\git\optiga-trust-qi\projects\xmc4700_relax_kit\common\dave\generated\usbd\usb\core\xmc4000\usbd_endpoint_xmc4000.h **** #include "../../common/common.h"
  76:c:\users\yushev\git\optiga-trust-qi\projects\xmc4700_relax_kit\common\dave\generated\usbd\usb\core\xmc4000\usbd_endpoint_xmc4000.h **** #include "../endpoint.h"
  77:c:\users\yushev\git\optiga-trust-qi\projects\xmc4700_relax_kit\common\dave\generated\usbd\usb\core\xmc4000\usbd_endpoint_xmc4000.h **** #include "../usb_controller.h"
  78:c:\users\yushev\git\optiga-trust-qi\projects\xmc4700_relax_kit\common\dave\generated\usbd\usb\core\xmc4000\usbd_endpoint_xmc4000.h **** #include "../../../usbd.h" /* IXF */
  79:c:\users\yushev\git\optiga-trust-qi\projects\xmc4700_relax_kit\common\dave\generated\usbd\usb\core\xmc4000\usbd_endpoint_xmc4000.h **** 
  80:c:\users\yushev\git\optiga-trust-qi\projects\xmc4700_relax_kit\common\dave\generated\usbd\usb\core\xmc4000\usbd_endpoint_xmc4000.h **** 
  81:c:\users\yushev\git\optiga-trust-qi\projects\xmc4700_relax_kit\common\dave\generated\usbd\usb\core\xmc4000\usbd_endpoint_xmc4000.h **** /* Enable C linkage for C++ Compilers: */
  82:c:\users\yushev\git\optiga-trust-qi\projects\xmc4700_relax_kit\common\dave\generated\usbd\usb\core\xmc4000\usbd_endpoint_xmc4000.h **** #if defined(__cplusplus)
  83:c:\users\yushev\git\optiga-trust-qi\projects\xmc4700_relax_kit\common\dave\generated\usbd\usb\core\xmc4000\usbd_endpoint_xmc4000.h **** 	extern "C" {
  84:c:\users\yushev\git\optiga-trust-qi\projects\xmc4700_relax_kit\common\dave\generated\usbd\usb\core\xmc4000\usbd_endpoint_xmc4000.h **** #endif
  85:c:\users\yushev\git\optiga-trust-qi\projects\xmc4700_relax_kit\common\dave\generated\usbd\usb\core\xmc4000\usbd_endpoint_xmc4000.h **** 	/**
  86:c:\users\yushev\git\optiga-trust-qi\projects\xmc4700_relax_kit\common\dave\generated\usbd\usb\core\xmc4000\usbd_endpoint_xmc4000.h **** 	 * @ingroup USBD_enumerations
  87:c:\users\yushev\git\optiga-trust-qi\projects\xmc4700_relax_kit\common\dave\generated\usbd\usb\core\xmc4000\usbd_endpoint_xmc4000.h **** 	 * @{
  88:c:\users\yushev\git\optiga-trust-qi\projects\xmc4700_relax_kit\common\dave\generated\usbd\usb\core\xmc4000\usbd_endpoint_xmc4000.h **** 	 */
  89:c:\users\yushev\git\optiga-trust-qi\projects\xmc4700_relax_kit\common\dave\generated\usbd\usb\core\xmc4000\usbd_endpoint_xmc4000.h **** 
  90:c:\users\yushev\git\optiga-trust-qi\projects\xmc4700_relax_kit\common\dave\generated\usbd\usb\core\xmc4000\usbd_endpoint_xmc4000.h **** 	/** Enum for the possible error return codes of the
  91:c:\users\yushev\git\optiga-trust-qi\projects\xmc4700_relax_kit\common\dave\generated\usbd\usb\core\xmc4000\usbd_endpoint_xmc4000.h **** 	 * \ref Endpoint_WaitUntilReady() function.
  92:c:\users\yushev\git\optiga-trust-qi\projects\xmc4700_relax_kit\common\dave\generated\usbd\usb\core\xmc4000\usbd_endpoint_xmc4000.h **** 	*
  93:c:\users\yushev\git\optiga-trust-qi\projects\xmc4700_relax_kit\common\dave\generated\usbd\usb\core\xmc4000\usbd_endpoint_xmc4000.h **** 	*/
  94:c:\users\yushev\git\optiga-trust-qi\projects\xmc4700_relax_kit\common\dave\generated\usbd\usb\core\xmc4000\usbd_endpoint_xmc4000.h **** 	enum Endpoint_WaitUntilReady_ErrorCodes_t
  95:c:\users\yushev\git\optiga-trust-qi\projects\xmc4700_relax_kit\common\dave\generated\usbd\usb\core\xmc4000\usbd_endpoint_xmc4000.h **** 	{
  96:c:\users\yushev\git\optiga-trust-qi\projects\xmc4700_relax_kit\common\dave\generated\usbd\usb\core\xmc4000\usbd_endpoint_xmc4000.h **** 		ENDPOINT_READYWAIT_NoError                 = 0, /**< Endpoint is ready for next packet, no error.
  97:c:\users\yushev\git\optiga-trust-qi\projects\xmc4700_relax_kit\common\dave\generated\usbd\usb\core\xmc4000\usbd_endpoint_xmc4000.h **** 		ENDPOINT_READYWAIT_EndpointStalled         = 1, /**< The endpoint was stalled during the stream
  98:c:\users\yushev\git\optiga-trust-qi\projects\xmc4700_relax_kit\common\dave\generated\usbd\usb\core\xmc4000\usbd_endpoint_xmc4000.h **** 														 *   transfer by the host or device.
  99:c:\users\yushev\git\optiga-trust-qi\projects\xmc4700_relax_kit\common\dave\generated\usbd\usb\core\xmc4000\usbd_endpoint_xmc4000.h **** 														 */
 100:c:\users\yushev\git\optiga-trust-qi\projects\xmc4700_relax_kit\common\dave\generated\usbd\usb\core\xmc4000\usbd_endpoint_xmc4000.h **** 		ENDPOINT_READYWAIT_DeviceDisconnected      = 2,	/**< Device was disconnected from the host while
 101:c:\users\yushev\git\optiga-trust-qi\projects\xmc4700_relax_kit\common\dave\generated\usbd\usb\core\xmc4000\usbd_endpoint_xmc4000.h **** 														 *   waiting for the endpoint to become ready.
 102:c:\users\yushev\git\optiga-trust-qi\projects\xmc4700_relax_kit\common\dave\generated\usbd\usb\core\xmc4000\usbd_endpoint_xmc4000.h **** 														 */
 103:c:\users\yushev\git\optiga-trust-qi\projects\xmc4700_relax_kit\common\dave\generated\usbd\usb\core\xmc4000\usbd_endpoint_xmc4000.h **** 		ENDPOINT_READYWAIT_BusSuspended            = 3, /**< The USB bus has been suspended by the host a
 104:c:\users\yushev\git\optiga-trust-qi\projects\xmc4700_relax_kit\common\dave\generated\usbd\usb\core\xmc4000\usbd_endpoint_xmc4000.h **** 														 *   no USB endpoint traffic can occur until the bus
 105:c:\users\yushev\git\optiga-trust-qi\projects\xmc4700_relax_kit\common\dave\generated\usbd\usb\core\xmc4000\usbd_endpoint_xmc4000.h **** 														 *   has resumed.
 106:c:\users\yushev\git\optiga-trust-qi\projects\xmc4700_relax_kit\common\dave\generated\usbd\usb\core\xmc4000\usbd_endpoint_xmc4000.h **** 														 */
 107:c:\users\yushev\git\optiga-trust-qi\projects\xmc4700_relax_kit\common\dave\generated\usbd\usb\core\xmc4000\usbd_endpoint_xmc4000.h **** 		ENDPOINT_READYWAIT_Timeout                 = 4, /**< The host failed to accept or send the next p
 108:c:\users\yushev\git\optiga-trust-qi\projects\xmc4700_relax_kit\common\dave\generated\usbd\usb\core\xmc4000\usbd_endpoint_xmc4000.h **** 														 *   within the software timeout period set by the
 109:c:\users\yushev\git\optiga-trust-qi\projects\xmc4700_relax_kit\common\dave\generated\usbd\usb\core\xmc4000\usbd_endpoint_xmc4000.h **** 														 *   \ref USB_STREAM_TIMEOUT_MS macro.
 110:c:\users\yushev\git\optiga-trust-qi\projects\xmc4700_relax_kit\common\dave\generated\usbd\usb\core\xmc4000\usbd_endpoint_xmc4000.h **** 														 */
 111:c:\users\yushev\git\optiga-trust-qi\projects\xmc4700_relax_kit\common\dave\generated\usbd\usb\core\xmc4000\usbd_endpoint_xmc4000.h **** 	};
 112:c:\users\yushev\git\optiga-trust-qi\projects\xmc4700_relax_kit\common\dave\generated\usbd\usb\core\xmc4000\usbd_endpoint_xmc4000.h **** 	/**
 113:c:\users\yushev\git\optiga-trust-qi\projects\xmc4700_relax_kit\common\dave\generated\usbd\usb\core\xmc4000\usbd_endpoint_xmc4000.h **** 	 * @}
 114:c:\users\yushev\git\optiga-trust-qi\projects\xmc4700_relax_kit\common\dave\generated\usbd\usb\core\xmc4000\usbd_endpoint_xmc4000.h **** 	 */
 115:c:\users\yushev\git\optiga-trust-qi\projects\xmc4700_relax_kit\common\dave\generated\usbd\usb\core\xmc4000\usbd_endpoint_xmc4000.h **** 
 116:c:\users\yushev\git\optiga-trust-qi\projects\xmc4700_relax_kit\common\dave\generated\usbd\usb\core\xmc4000\usbd_endpoint_xmc4000.h **** 	/**
 117:c:\users\yushev\git\optiga-trust-qi\projects\xmc4700_relax_kit\common\dave\generated\usbd\usb\core\xmc4000\usbd_endpoint_xmc4000.h **** 	 * @ingroup USBD_apidoc
 118:c:\users\yushev\git\optiga-trust-qi\projects\xmc4700_relax_kit\common\dave\generated\usbd\usb\core\xmc4000\usbd_endpoint_xmc4000.h **** 	 * @{
 119:c:\users\yushev\git\optiga-trust-qi\projects\xmc4700_relax_kit\common\dave\generated\usbd\usb\core\xmc4000\usbd_endpoint_xmc4000.h **** 	 */
 120:c:\users\yushev\git\optiga-trust-qi\projects\xmc4700_relax_kit\common\dave\generated\usbd\usb\core\xmc4000\usbd_endpoint_xmc4000.h **** 	/** Get the endpoint address of the currently selected endpoint. This is
 121:c:\users\yushev\git\optiga-trust-qi\projects\xmc4700_relax_kit\common\dave\generated\usbd\usb\core\xmc4000\usbd_endpoint_xmc4000.h **** 	 * typically used to save the currently selected endpoint so that it can be
 122:c:\users\yushev\git\optiga-trust-qi\projects\xmc4700_relax_kit\common\dave\generated\usbd\usb\core\xmc4000\usbd_endpoint_xmc4000.h **** 	 * restored after another endpoint has been  manipulated.
 123:c:\users\yushev\git\optiga-trust-qi\projects\xmc4700_relax_kit\common\dave\generated\usbd\usb\core\xmc4000\usbd_endpoint_xmc4000.h **** 	 *
 124:c:\users\yushev\git\optiga-trust-qi\projects\xmc4700_relax_kit\common\dave\generated\usbd\usb\core\xmc4000\usbd_endpoint_xmc4000.h **** 	 *  \return Index of the currently selected endpoint.
 125:c:\users\yushev\git\optiga-trust-qi\projects\xmc4700_relax_kit\common\dave\generated\usbd\usb\core\xmc4000\usbd_endpoint_xmc4000.h **** 	 */
 126:c:\users\yushev\git\optiga-trust-qi\projects\xmc4700_relax_kit\common\dave\generated\usbd\usb\core\xmc4000\usbd_endpoint_xmc4000.h **** 	static inline uint8_t Endpoint_GetCurrentEndpoint(void);
 127:c:\users\yushev\git\optiga-trust-qi\projects\xmc4700_relax_kit\common\dave\generated\usbd\usb\core\xmc4000\usbd_endpoint_xmc4000.h **** 	static inline uint8_t Endpoint_GetCurrentEndpoint(void)
 128:c:\users\yushev\git\optiga-trust-qi\projects\xmc4700_relax_kit\common\dave\generated\usbd\usb\core\xmc4000\usbd_endpoint_xmc4000.h **** 	{
 129:c:\users\yushev\git\optiga-trust-qi\projects\xmc4700_relax_kit\common\dave\generated\usbd\usb\core\xmc4000\usbd_endpoint_xmc4000.h **** 		return device.CurrentDirection | device.CurrentEndpoint;
 130:c:\users\yushev\git\optiga-trust-qi\projects\xmc4700_relax_kit\common\dave\generated\usbd\usb\core\xmc4000\usbd_endpoint_xmc4000.h **** 	}
 131:c:\users\yushev\git\optiga-trust-qi\projects\xmc4700_relax_kit\common\dave\generated\usbd\usb\core\xmc4000\usbd_endpoint_xmc4000.h **** 
 132:c:\users\yushev\git\optiga-trust-qi\projects\xmc4700_relax_kit\common\dave\generated\usbd\usb\core\xmc4000\usbd_endpoint_xmc4000.h **** 	/** Selects the given endpoint address.
 133:c:\users\yushev\git\optiga-trust-qi\projects\xmc4700_relax_kit\common\dave\generated\usbd\usb\core\xmc4000\usbd_endpoint_xmc4000.h **** 	 *
 134:c:\users\yushev\git\optiga-trust-qi\projects\xmc4700_relax_kit\common\dave\generated\usbd\usb\core\xmc4000\usbd_endpoint_xmc4000.h **** 	 *  Any endpoint operations which do not require the endpoint address to be
 135:c:\users\yushev\git\optiga-trust-qi\projects\xmc4700_relax_kit\common\dave\generated\usbd\usb\core\xmc4000\usbd_endpoint_xmc4000.h **** 	 *  indicated will operate on
 136:c:\users\yushev\git\optiga-trust-qi\projects\xmc4700_relax_kit\common\dave\generated\usbd\usb\core\xmc4000\usbd_endpoint_xmc4000.h **** 	 *  the currently selected endpoint.
 137:c:\users\yushev\git\optiga-trust-qi\projects\xmc4700_relax_kit\common\dave\generated\usbd\usb\core\xmc4000\usbd_endpoint_xmc4000.h **** 	 *
 138:c:\users\yushev\git\optiga-trust-qi\projects\xmc4700_relax_kit\common\dave\generated\usbd\usb\core\xmc4000\usbd_endpoint_xmc4000.h **** 	 *  \param[in] Address Endpoint address to select.
 139:c:\users\yushev\git\optiga-trust-qi\projects\xmc4700_relax_kit\common\dave\generated\usbd\usb\core\xmc4000\usbd_endpoint_xmc4000.h **** 	 */
 140:c:\users\yushev\git\optiga-trust-qi\projects\xmc4700_relax_kit\common\dave\generated\usbd\usb\core\xmc4000\usbd_endpoint_xmc4000.h **** 	static inline void Endpoint_SelectEndpoint(const uint8_t Address);
 141:c:\users\yushev\git\optiga-trust-qi\projects\xmc4700_relax_kit\common\dave\generated\usbd\usb\core\xmc4000\usbd_endpoint_xmc4000.h **** 	static inline void Endpoint_SelectEndpoint(const uint8_t Address)
 142:c:\users\yushev\git\optiga-trust-qi\projects\xmc4700_relax_kit\common\dave\generated\usbd\usb\core\xmc4000\usbd_endpoint_xmc4000.h **** 	{
 143:c:\users\yushev\git\optiga-trust-qi\projects\xmc4700_relax_kit\common\dave\generated\usbd\usb\core\xmc4000\usbd_endpoint_xmc4000.h **** 		device.CurrentEndpoint = Address & ENDPOINT_EPNUM_MASK;
 521              	 .loc 2 143 0 is_stmt 1
 522 0010 0A4B     	 ldr r3,.L71
 523 0012 0321     	 movs r1,#3
 524              	.LVL46:
 525 0014 83F83C11 	 strb r1,[r3,#316]
 144:c:\users\yushev\git\optiga-trust-qi\projects\xmc4700_relax_kit\common\dave\generated\usbd\usb\core\xmc4000\usbd_endpoint_xmc4000.h **** 		device.CurrentDirection = (Address & ENDPOINT_DIR_MASK);
 526              	 .loc 2 144 0
 527 0018 83F83D21 	 strb r2,[r3,#317]
 528              	.LVL47:
 529              	.L65:
 530              	.LBE17:
 531              	.LBE16:
 393:C:/Users/Yushev/git/optiga-trust-qi/projects/xmc4700_relax_kit/common/Dave/Generated/USBD_VCOM\usbd_vcom.c ****     (ret = Endpoint_Read_Stream_LE(data_buffer, data_byte,	&bytes_processed)))
 532              	 .loc 1 393 0 discriminator 1
 533 001c 2846     	 mov r0,r5
 534 001e 2146     	 mov r1,r4
 535 0020 0DF10602 	 add r2,sp,#6
 536 0024 FFF7FEFF 	 bl Endpoint_Read_Stream_LE
 537              	.LVL48:
 538 0028 0528     	 cmp r0,#5
 539 002a F7D0     	 beq .L65
 399:C:/Users/Yushev/git/optiga-trust-qi/projects/xmc4700_relax_kit/common/Dave/Generated/USBD_VCOM\usbd_vcom.c ****     }
 540              	 .loc 1 399 0
 541 002c 0028     	 cmp r0,#0
 542 002e 0CBF     	 ite eq
 543 0030 0020     	 moveq r0,#0
 544              	.LVL49:
 545 0032 0620     	 movne r0,#6
 546 0034 00E0     	 b .L64
 547              	.LVL50:
 548              	.L67:
 404:C:/Users/Yushev/git/optiga-trust-qi/projects/xmc4700_relax_kit/common/Dave/Generated/USBD_VCOM\usbd_vcom.c ****   }
 549              	 .loc 1 404 0
 550 0036 0620     	 movs r0,#6
 551              	.LVL51:
 552              	.L64:
 408:C:/Users/Yushev/git/optiga-trust-qi/projects/xmc4700_relax_kit/common/Dave/Generated/USBD_VCOM\usbd_vcom.c **** 
 553              	 .loc 1 408 0
 554 0038 03B0     	 add sp,sp,#12
 555              	.LCFI9:
 556              	 .cfi_def_cfa_offset 12
 557              	 
 558 003a 30BD     	 pop {r4,r5,pc}
 559              	.LVL52:
 560              	.L72:
 561              	 .align 2
 562              	.L71:
 563 003c 00000000 	 .word device
 564              	 .cfi_endproc
 565              	.LFE194:
 567              	 .section .text.USBD_VCOM_GetLineEncoding,"ax",%progbits
 568              	 .align 1
 569              	 .global USBD_VCOM_GetLineEncoding
 570              	 .thumb
 571              	 .thumb_func
 573              	USBD_VCOM_GetLineEncoding:
 574              	.LFB195:
 412:C:/Users/Yushev/git/optiga-trust-qi/projects/xmc4700_relax_kit/common/Dave/Generated/USBD_VCOM\usbd_vcom.c ****   USBD_VCOM_STATUS_t status = USBD_VCOM_STATUS_SUCCESS;	
 575              	 .loc 1 412 0
 576              	 .cfi_startproc
 577              	 
 578              	 
 579              	 
 580              	.LVL53:
 415:C:/Users/Yushev/git/optiga-trust-qi/projects/xmc4700_relax_kit/common/Dave/Generated/USBD_VCOM\usbd_vcom.c ****   {
 581              	 .loc 1 415 0
 582 0000 70B1     	 cbz r0,.L77
 417:C:/Users/Yushev/git/optiga-trust-qi/projects/xmc4700_relax_kit/common/Dave/Generated/USBD_VCOM\usbd_vcom.c ****       (!(USBD_VCOM_cdc_interface.State.LineEncoding.BaudRateBPS)))
 583              	 .loc 1 417 0
 584 0002 084B     	 ldr r3,.L78
 585 0004 1B78     	 ldrb r3,[r3]
 586 0006 042B     	 cmp r3,#4
 587 0008 0AD1     	 bne .L77
 418:C:/Users/Yushev/git/optiga-trust-qi/projects/xmc4700_relax_kit/common/Dave/Generated/USBD_VCOM\usbd_vcom.c ****     {
 588              	 .loc 1 418 0 discriminator 1
 589 000a 074B     	 ldr r3,.L78+4
 590 000c 9A69     	 ldr r2,[r3,#24]
 417:C:/Users/Yushev/git/optiga-trust-qi/projects/xmc4700_relax_kit/common/Dave/Generated/USBD_VCOM\usbd_vcom.c ****       (!(USBD_VCOM_cdc_interface.State.LineEncoding.BaudRateBPS)))
 591              	 .loc 1 417 0 discriminator 1
 592 000e 3AB1     	 cbz r2,.L77
 424:C:/Users/Yushev/git/optiga-trust-qi/projects/xmc4700_relax_kit/common/Dave/Generated/USBD_VCOM\usbd_vcom.c ****                 sizeof(CDC_LineEncoding_t));
 593              	 .loc 1 424 0
 594 0010 0260     	 str r2,[r0]
 595 0012 9A8B     	 ldrh r2,[r3,#28]
 596 0014 8280     	 strh r2,[r0,#4]
 597 0016 1833     	 adds r3,r3,#24
 598 0018 9B79     	 ldrb r3,[r3,#6]
 599 001a 8371     	 strb r3,[r0,#6]
 413:C:/Users/Yushev/git/optiga-trust-qi/projects/xmc4700_relax_kit/common/Dave/Generated/USBD_VCOM\usbd_vcom.c **** 
 600              	 .loc 1 413 0
 601 001c 0020     	 movs r0,#0
 602              	.LVL54:
 603 001e 7047     	 bx lr
 604              	.LVL55:
 605              	.L77:
 430:C:/Users/Yushev/git/optiga-trust-qi/projects/xmc4700_relax_kit/common/Dave/Generated/USBD_VCOM\usbd_vcom.c ****   }
 606              	 .loc 1 430 0
 607 0020 0620     	 movs r0,#6
 608              	.LVL56:
 433:C:/Users/Yushev/git/optiga-trust-qi/projects/xmc4700_relax_kit/common/Dave/Generated/USBD_VCOM\usbd_vcom.c **** 
 609              	 .loc 1 433 0
 610 0022 7047     	 bx lr
 611              	.L79:
 612              	 .align 2
 613              	.L78:
 614 0024 00000000 	 .word USB_DeviceState
 615 0028 00000000 	 .word USBD_VCOM_cdc_interface
 616              	 .cfi_endproc
 617              	.LFE195:
 619              	 .section .text.USBD_VCOM_BytesReceived,"ax",%progbits
 620              	 .align 1
 621              	 .global USBD_VCOM_BytesReceived
 622              	 .thumb
 623              	 .thumb_func
 625              	USBD_VCOM_BytesReceived:
 626              	.LFB196:
 437:C:/Users/Yushev/git/optiga-trust-qi/projects/xmc4700_relax_kit/common/Dave/Generated/USBD_VCOM\usbd_vcom.c ****   uint16_t bytes = 0U;
 627              	 .loc 1 437 0
 628              	 .cfi_startproc
 629              	 
 630              	 
 631              	.LVL57:
 632 0000 38B5     	 push {r3,r4,r5,lr}
 633              	.LCFI10:
 634              	 .cfi_def_cfa_offset 16
 635              	 .cfi_offset 3,-16
 636              	 .cfi_offset 4,-12
 637              	 .cfi_offset 5,-8
 638              	 .cfi_offset 14,-4
 639              	.LBB26:
 640              	.LBB27:
 641              	 .file 3 "C:/Users/Yushev/git/optiga-trust-qi/projects/xmc4700_relax_kit/common/Libraries/CMSIS/Include/core_cm4.h"
   1:C:/Users/Yushev/git/optiga-trust-qi/projects/xmc4700_relax_kit/common/Libraries/CMSIS/Include\core_cm4.h **** /**************************************************************************//**
   2:C:/Users/Yushev/git/optiga-trust-qi/projects/xmc4700_relax_kit/common/Libraries/CMSIS/Include\core_cm4.h ****  * @file     core_cm4.h
   3:C:/Users/Yushev/git/optiga-trust-qi/projects/xmc4700_relax_kit/common/Libraries/CMSIS/Include\core_cm4.h ****  * @brief    CMSIS Cortex-M4 Core Peripheral Access Layer Header File
   4:C:/Users/Yushev/git/optiga-trust-qi/projects/xmc4700_relax_kit/common/Libraries/CMSIS/Include\core_cm4.h ****  * @version  V5.0.8
   5:C:/Users/Yushev/git/optiga-trust-qi/projects/xmc4700_relax_kit/common/Libraries/CMSIS/Include\core_cm4.h ****  * @date     04. June 2018
   6:C:/Users/Yushev/git/optiga-trust-qi/projects/xmc4700_relax_kit/common/Libraries/CMSIS/Include\core_cm4.h ****  ******************************************************************************/
   7:C:/Users/Yushev/git/optiga-trust-qi/projects/xmc4700_relax_kit/common/Libraries/CMSIS/Include\core_cm4.h **** /*
   8:C:/Users/Yushev/git/optiga-trust-qi/projects/xmc4700_relax_kit/common/Libraries/CMSIS/Include\core_cm4.h ****  * Copyright (c) 2009-2018 Arm Limited. All rights reserved.
   9:C:/Users/Yushev/git/optiga-trust-qi/projects/xmc4700_relax_kit/common/Libraries/CMSIS/Include\core_cm4.h ****  *
  10:C:/Users/Yushev/git/optiga-trust-qi/projects/xmc4700_relax_kit/common/Libraries/CMSIS/Include\core_cm4.h ****  * SPDX-License-Identifier: Apache-2.0
  11:C:/Users/Yushev/git/optiga-trust-qi/projects/xmc4700_relax_kit/common/Libraries/CMSIS/Include\core_cm4.h ****  *
  12:C:/Users/Yushev/git/optiga-trust-qi/projects/xmc4700_relax_kit/common/Libraries/CMSIS/Include\core_cm4.h ****  * Licensed under the Apache License, Version 2.0 (the License); you may
  13:C:/Users/Yushev/git/optiga-trust-qi/projects/xmc4700_relax_kit/common/Libraries/CMSIS/Include\core_cm4.h ****  * not use this file except in compliance with the License.
  14:C:/Users/Yushev/git/optiga-trust-qi/projects/xmc4700_relax_kit/common/Libraries/CMSIS/Include\core_cm4.h ****  * You may obtain a copy of the License at
  15:C:/Users/Yushev/git/optiga-trust-qi/projects/xmc4700_relax_kit/common/Libraries/CMSIS/Include\core_cm4.h ****  *
  16:C:/Users/Yushev/git/optiga-trust-qi/projects/xmc4700_relax_kit/common/Libraries/CMSIS/Include\core_cm4.h ****  * www.apache.org/licenses/LICENSE-2.0
  17:C:/Users/Yushev/git/optiga-trust-qi/projects/xmc4700_relax_kit/common/Libraries/CMSIS/Include\core_cm4.h ****  *
  18:C:/Users/Yushev/git/optiga-trust-qi/projects/xmc4700_relax_kit/common/Libraries/CMSIS/Include\core_cm4.h ****  * Unless required by applicable law or agreed to in writing, software
  19:C:/Users/Yushev/git/optiga-trust-qi/projects/xmc4700_relax_kit/common/Libraries/CMSIS/Include\core_cm4.h ****  * distributed under the License is distributed on an AS IS BASIS, WITHOUT
  20:C:/Users/Yushev/git/optiga-trust-qi/projects/xmc4700_relax_kit/common/Libraries/CMSIS/Include\core_cm4.h ****  * WARRANTIES OR CONDITIONS OF ANY KIND, either express or implied.
  21:C:/Users/Yushev/git/optiga-trust-qi/projects/xmc4700_relax_kit/common/Libraries/CMSIS/Include\core_cm4.h ****  * See the License for the specific language governing permissions and
  22:C:/Users/Yushev/git/optiga-trust-qi/projects/xmc4700_relax_kit/common/Libraries/CMSIS/Include\core_cm4.h ****  * limitations under the License.
  23:C:/Users/Yushev/git/optiga-trust-qi/projects/xmc4700_relax_kit/common/Libraries/CMSIS/Include\core_cm4.h ****  */
  24:C:/Users/Yushev/git/optiga-trust-qi/projects/xmc4700_relax_kit/common/Libraries/CMSIS/Include\core_cm4.h **** 
  25:C:/Users/Yushev/git/optiga-trust-qi/projects/xmc4700_relax_kit/common/Libraries/CMSIS/Include\core_cm4.h **** #if   defined ( __ICCARM__ )
  26:C:/Users/Yushev/git/optiga-trust-qi/projects/xmc4700_relax_kit/common/Libraries/CMSIS/Include\core_cm4.h ****   #pragma system_include         /* treat file as system include file for MISRA check */
  27:C:/Users/Yushev/git/optiga-trust-qi/projects/xmc4700_relax_kit/common/Libraries/CMSIS/Include\core_cm4.h **** #elif defined (__clang__)
  28:C:/Users/Yushev/git/optiga-trust-qi/projects/xmc4700_relax_kit/common/Libraries/CMSIS/Include\core_cm4.h ****   #pragma clang system_header   /* treat file as system include file */
  29:C:/Users/Yushev/git/optiga-trust-qi/projects/xmc4700_relax_kit/common/Libraries/CMSIS/Include\core_cm4.h **** #endif
  30:C:/Users/Yushev/git/optiga-trust-qi/projects/xmc4700_relax_kit/common/Libraries/CMSIS/Include\core_cm4.h **** 
  31:C:/Users/Yushev/git/optiga-trust-qi/projects/xmc4700_relax_kit/common/Libraries/CMSIS/Include\core_cm4.h **** #ifndef __CORE_CM4_H_GENERIC
  32:C:/Users/Yushev/git/optiga-trust-qi/projects/xmc4700_relax_kit/common/Libraries/CMSIS/Include\core_cm4.h **** #define __CORE_CM4_H_GENERIC
  33:C:/Users/Yushev/git/optiga-trust-qi/projects/xmc4700_relax_kit/common/Libraries/CMSIS/Include\core_cm4.h **** 
  34:C:/Users/Yushev/git/optiga-trust-qi/projects/xmc4700_relax_kit/common/Libraries/CMSIS/Include\core_cm4.h **** #include <stdint.h>
  35:C:/Users/Yushev/git/optiga-trust-qi/projects/xmc4700_relax_kit/common/Libraries/CMSIS/Include\core_cm4.h **** 
  36:C:/Users/Yushev/git/optiga-trust-qi/projects/xmc4700_relax_kit/common/Libraries/CMSIS/Include\core_cm4.h **** #ifdef __cplusplus
  37:C:/Users/Yushev/git/optiga-trust-qi/projects/xmc4700_relax_kit/common/Libraries/CMSIS/Include\core_cm4.h ****  extern "C" {
  38:C:/Users/Yushev/git/optiga-trust-qi/projects/xmc4700_relax_kit/common/Libraries/CMSIS/Include\core_cm4.h **** #endif
  39:C:/Users/Yushev/git/optiga-trust-qi/projects/xmc4700_relax_kit/common/Libraries/CMSIS/Include\core_cm4.h **** 
  40:C:/Users/Yushev/git/optiga-trust-qi/projects/xmc4700_relax_kit/common/Libraries/CMSIS/Include\core_cm4.h **** /**
  41:C:/Users/Yushev/git/optiga-trust-qi/projects/xmc4700_relax_kit/common/Libraries/CMSIS/Include\core_cm4.h ****   \page CMSIS_MISRA_Exceptions  MISRA-C:2004 Compliance Exceptions
  42:C:/Users/Yushev/git/optiga-trust-qi/projects/xmc4700_relax_kit/common/Libraries/CMSIS/Include\core_cm4.h ****   CMSIS violates the following MISRA-C:2004 rules:
  43:C:/Users/Yushev/git/optiga-trust-qi/projects/xmc4700_relax_kit/common/Libraries/CMSIS/Include\core_cm4.h **** 
  44:C:/Users/Yushev/git/optiga-trust-qi/projects/xmc4700_relax_kit/common/Libraries/CMSIS/Include\core_cm4.h ****    \li Required Rule 8.5, object/function definition in header file.<br>
  45:C:/Users/Yushev/git/optiga-trust-qi/projects/xmc4700_relax_kit/common/Libraries/CMSIS/Include\core_cm4.h ****      Function definitions in header files are used to allow 'inlining'.
  46:C:/Users/Yushev/git/optiga-trust-qi/projects/xmc4700_relax_kit/common/Libraries/CMSIS/Include\core_cm4.h **** 
  47:C:/Users/Yushev/git/optiga-trust-qi/projects/xmc4700_relax_kit/common/Libraries/CMSIS/Include\core_cm4.h ****    \li Required Rule 18.4, declaration of union type or object of union type: '{...}'.<br>
  48:C:/Users/Yushev/git/optiga-trust-qi/projects/xmc4700_relax_kit/common/Libraries/CMSIS/Include\core_cm4.h ****      Unions are used for effective representation of core registers.
  49:C:/Users/Yushev/git/optiga-trust-qi/projects/xmc4700_relax_kit/common/Libraries/CMSIS/Include\core_cm4.h **** 
  50:C:/Users/Yushev/git/optiga-trust-qi/projects/xmc4700_relax_kit/common/Libraries/CMSIS/Include\core_cm4.h ****    \li Advisory Rule 19.7, Function-like macro defined.<br>
  51:C:/Users/Yushev/git/optiga-trust-qi/projects/xmc4700_relax_kit/common/Libraries/CMSIS/Include\core_cm4.h ****      Function-like macros are used to allow more efficient code.
  52:C:/Users/Yushev/git/optiga-trust-qi/projects/xmc4700_relax_kit/common/Libraries/CMSIS/Include\core_cm4.h ****  */
  53:C:/Users/Yushev/git/optiga-trust-qi/projects/xmc4700_relax_kit/common/Libraries/CMSIS/Include\core_cm4.h **** 
  54:C:/Users/Yushev/git/optiga-trust-qi/projects/xmc4700_relax_kit/common/Libraries/CMSIS/Include\core_cm4.h **** 
  55:C:/Users/Yushev/git/optiga-trust-qi/projects/xmc4700_relax_kit/common/Libraries/CMSIS/Include\core_cm4.h **** /*******************************************************************************
  56:C:/Users/Yushev/git/optiga-trust-qi/projects/xmc4700_relax_kit/common/Libraries/CMSIS/Include\core_cm4.h ****  *                 CMSIS definitions
  57:C:/Users/Yushev/git/optiga-trust-qi/projects/xmc4700_relax_kit/common/Libraries/CMSIS/Include\core_cm4.h ****  ******************************************************************************/
  58:C:/Users/Yushev/git/optiga-trust-qi/projects/xmc4700_relax_kit/common/Libraries/CMSIS/Include\core_cm4.h **** /**
  59:C:/Users/Yushev/git/optiga-trust-qi/projects/xmc4700_relax_kit/common/Libraries/CMSIS/Include\core_cm4.h ****   \ingroup Cortex_M4
  60:C:/Users/Yushev/git/optiga-trust-qi/projects/xmc4700_relax_kit/common/Libraries/CMSIS/Include\core_cm4.h ****   @{
  61:C:/Users/Yushev/git/optiga-trust-qi/projects/xmc4700_relax_kit/common/Libraries/CMSIS/Include\core_cm4.h ****  */
  62:C:/Users/Yushev/git/optiga-trust-qi/projects/xmc4700_relax_kit/common/Libraries/CMSIS/Include\core_cm4.h **** 
  63:C:/Users/Yushev/git/optiga-trust-qi/projects/xmc4700_relax_kit/common/Libraries/CMSIS/Include\core_cm4.h **** #include "cmsis_version.h"
  64:C:/Users/Yushev/git/optiga-trust-qi/projects/xmc4700_relax_kit/common/Libraries/CMSIS/Include\core_cm4.h **** 
  65:C:/Users/Yushev/git/optiga-trust-qi/projects/xmc4700_relax_kit/common/Libraries/CMSIS/Include\core_cm4.h **** /* CMSIS CM4 definitions */
  66:C:/Users/Yushev/git/optiga-trust-qi/projects/xmc4700_relax_kit/common/Libraries/CMSIS/Include\core_cm4.h **** #define __CM4_CMSIS_VERSION_MAIN  (__CM_CMSIS_VERSION_MAIN)              /*!< \deprecated [31:16] C
  67:C:/Users/Yushev/git/optiga-trust-qi/projects/xmc4700_relax_kit/common/Libraries/CMSIS/Include\core_cm4.h **** #define __CM4_CMSIS_VERSION_SUB   (__CM_CMSIS_VERSION_SUB)               /*!< \deprecated [15:0]  C
  68:C:/Users/Yushev/git/optiga-trust-qi/projects/xmc4700_relax_kit/common/Libraries/CMSIS/Include\core_cm4.h **** #define __CM4_CMSIS_VERSION       ((__CM4_CMSIS_VERSION_MAIN << 16U) | \
  69:C:/Users/Yushev/git/optiga-trust-qi/projects/xmc4700_relax_kit/common/Libraries/CMSIS/Include\core_cm4.h ****                                     __CM4_CMSIS_VERSION_SUB           )  /*!< \deprecated CMSIS HAL
  70:C:/Users/Yushev/git/optiga-trust-qi/projects/xmc4700_relax_kit/common/Libraries/CMSIS/Include\core_cm4.h **** 
  71:C:/Users/Yushev/git/optiga-trust-qi/projects/xmc4700_relax_kit/common/Libraries/CMSIS/Include\core_cm4.h **** #define __CORTEX_M                (4U)                                   /*!< Cortex-M Core */
  72:C:/Users/Yushev/git/optiga-trust-qi/projects/xmc4700_relax_kit/common/Libraries/CMSIS/Include\core_cm4.h **** 
  73:C:/Users/Yushev/git/optiga-trust-qi/projects/xmc4700_relax_kit/common/Libraries/CMSIS/Include\core_cm4.h **** /** __FPU_USED indicates whether an FPU is used or not.
  74:C:/Users/Yushev/git/optiga-trust-qi/projects/xmc4700_relax_kit/common/Libraries/CMSIS/Include\core_cm4.h ****     For this, __FPU_PRESENT has to be checked prior to making use of FPU specific registers and fun
  75:C:/Users/Yushev/git/optiga-trust-qi/projects/xmc4700_relax_kit/common/Libraries/CMSIS/Include\core_cm4.h **** */
  76:C:/Users/Yushev/git/optiga-trust-qi/projects/xmc4700_relax_kit/common/Libraries/CMSIS/Include\core_cm4.h **** #if defined ( __CC_ARM )
  77:C:/Users/Yushev/git/optiga-trust-qi/projects/xmc4700_relax_kit/common/Libraries/CMSIS/Include\core_cm4.h ****   #if defined __TARGET_FPU_VFP
  78:C:/Users/Yushev/git/optiga-trust-qi/projects/xmc4700_relax_kit/common/Libraries/CMSIS/Include\core_cm4.h ****     #if defined (__FPU_PRESENT) && (__FPU_PRESENT == 1U)
  79:C:/Users/Yushev/git/optiga-trust-qi/projects/xmc4700_relax_kit/common/Libraries/CMSIS/Include\core_cm4.h ****       #define __FPU_USED       1U
  80:C:/Users/Yushev/git/optiga-trust-qi/projects/xmc4700_relax_kit/common/Libraries/CMSIS/Include\core_cm4.h ****     #else
  81:C:/Users/Yushev/git/optiga-trust-qi/projects/xmc4700_relax_kit/common/Libraries/CMSIS/Include\core_cm4.h ****       #error "Compiler generates FPU instructions for a device without an FPU (check __FPU_PRESENT)
  82:C:/Users/Yushev/git/optiga-trust-qi/projects/xmc4700_relax_kit/common/Libraries/CMSIS/Include\core_cm4.h ****       #define __FPU_USED       0U
  83:C:/Users/Yushev/git/optiga-trust-qi/projects/xmc4700_relax_kit/common/Libraries/CMSIS/Include\core_cm4.h ****     #endif
  84:C:/Users/Yushev/git/optiga-trust-qi/projects/xmc4700_relax_kit/common/Libraries/CMSIS/Include\core_cm4.h ****   #else
  85:C:/Users/Yushev/git/optiga-trust-qi/projects/xmc4700_relax_kit/common/Libraries/CMSIS/Include\core_cm4.h ****     #define __FPU_USED         0U
  86:C:/Users/Yushev/git/optiga-trust-qi/projects/xmc4700_relax_kit/common/Libraries/CMSIS/Include\core_cm4.h ****   #endif
  87:C:/Users/Yushev/git/optiga-trust-qi/projects/xmc4700_relax_kit/common/Libraries/CMSIS/Include\core_cm4.h **** 
  88:C:/Users/Yushev/git/optiga-trust-qi/projects/xmc4700_relax_kit/common/Libraries/CMSIS/Include\core_cm4.h **** #elif defined (__ARMCC_VERSION) && (__ARMCC_VERSION >= 6010050)
  89:C:/Users/Yushev/git/optiga-trust-qi/projects/xmc4700_relax_kit/common/Libraries/CMSIS/Include\core_cm4.h ****   #if defined __ARM_PCS_VFP
  90:C:/Users/Yushev/git/optiga-trust-qi/projects/xmc4700_relax_kit/common/Libraries/CMSIS/Include\core_cm4.h ****     #if defined (__FPU_PRESENT) && (__FPU_PRESENT == 1U)
  91:C:/Users/Yushev/git/optiga-trust-qi/projects/xmc4700_relax_kit/common/Libraries/CMSIS/Include\core_cm4.h ****       #define __FPU_USED       1U
  92:C:/Users/Yushev/git/optiga-trust-qi/projects/xmc4700_relax_kit/common/Libraries/CMSIS/Include\core_cm4.h ****     #else
  93:C:/Users/Yushev/git/optiga-trust-qi/projects/xmc4700_relax_kit/common/Libraries/CMSIS/Include\core_cm4.h ****       #warning "Compiler generates FPU instructions for a device without an FPU (check __FPU_PRESEN
  94:C:/Users/Yushev/git/optiga-trust-qi/projects/xmc4700_relax_kit/common/Libraries/CMSIS/Include\core_cm4.h ****       #define __FPU_USED       0U
  95:C:/Users/Yushev/git/optiga-trust-qi/projects/xmc4700_relax_kit/common/Libraries/CMSIS/Include\core_cm4.h ****     #endif
  96:C:/Users/Yushev/git/optiga-trust-qi/projects/xmc4700_relax_kit/common/Libraries/CMSIS/Include\core_cm4.h ****   #else
  97:C:/Users/Yushev/git/optiga-trust-qi/projects/xmc4700_relax_kit/common/Libraries/CMSIS/Include\core_cm4.h ****     #define __FPU_USED         0U
  98:C:/Users/Yushev/git/optiga-trust-qi/projects/xmc4700_relax_kit/common/Libraries/CMSIS/Include\core_cm4.h ****   #endif
  99:C:/Users/Yushev/git/optiga-trust-qi/projects/xmc4700_relax_kit/common/Libraries/CMSIS/Include\core_cm4.h **** 
 100:C:/Users/Yushev/git/optiga-trust-qi/projects/xmc4700_relax_kit/common/Libraries/CMSIS/Include\core_cm4.h **** #elif defined ( __GNUC__ )
 101:C:/Users/Yushev/git/optiga-trust-qi/projects/xmc4700_relax_kit/common/Libraries/CMSIS/Include\core_cm4.h ****   #if defined (__VFP_FP__) && !defined(__SOFTFP__)
 102:C:/Users/Yushev/git/optiga-trust-qi/projects/xmc4700_relax_kit/common/Libraries/CMSIS/Include\core_cm4.h ****     #if defined (__FPU_PRESENT) && (__FPU_PRESENT == 1U)
 103:C:/Users/Yushev/git/optiga-trust-qi/projects/xmc4700_relax_kit/common/Libraries/CMSIS/Include\core_cm4.h ****       #define __FPU_USED       1U
 104:C:/Users/Yushev/git/optiga-trust-qi/projects/xmc4700_relax_kit/common/Libraries/CMSIS/Include\core_cm4.h ****     #else
 105:C:/Users/Yushev/git/optiga-trust-qi/projects/xmc4700_relax_kit/common/Libraries/CMSIS/Include\core_cm4.h ****       #error "Compiler generates FPU instructions for a device without an FPU (check __FPU_PRESENT)
 106:C:/Users/Yushev/git/optiga-trust-qi/projects/xmc4700_relax_kit/common/Libraries/CMSIS/Include\core_cm4.h ****       #define __FPU_USED       0U
 107:C:/Users/Yushev/git/optiga-trust-qi/projects/xmc4700_relax_kit/common/Libraries/CMSIS/Include\core_cm4.h ****     #endif
 108:C:/Users/Yushev/git/optiga-trust-qi/projects/xmc4700_relax_kit/common/Libraries/CMSIS/Include\core_cm4.h ****   #else
 109:C:/Users/Yushev/git/optiga-trust-qi/projects/xmc4700_relax_kit/common/Libraries/CMSIS/Include\core_cm4.h ****     #define __FPU_USED         0U
 110:C:/Users/Yushev/git/optiga-trust-qi/projects/xmc4700_relax_kit/common/Libraries/CMSIS/Include\core_cm4.h ****   #endif
 111:C:/Users/Yushev/git/optiga-trust-qi/projects/xmc4700_relax_kit/common/Libraries/CMSIS/Include\core_cm4.h **** 
 112:C:/Users/Yushev/git/optiga-trust-qi/projects/xmc4700_relax_kit/common/Libraries/CMSIS/Include\core_cm4.h **** #elif defined ( __ICCARM__ )
 113:C:/Users/Yushev/git/optiga-trust-qi/projects/xmc4700_relax_kit/common/Libraries/CMSIS/Include\core_cm4.h ****   #if defined __ARMVFP__
 114:C:/Users/Yushev/git/optiga-trust-qi/projects/xmc4700_relax_kit/common/Libraries/CMSIS/Include\core_cm4.h ****     #if defined (__FPU_PRESENT) && (__FPU_PRESENT == 1U)
 115:C:/Users/Yushev/git/optiga-trust-qi/projects/xmc4700_relax_kit/common/Libraries/CMSIS/Include\core_cm4.h ****       #define __FPU_USED       1U
 116:C:/Users/Yushev/git/optiga-trust-qi/projects/xmc4700_relax_kit/common/Libraries/CMSIS/Include\core_cm4.h ****     #else
 117:C:/Users/Yushev/git/optiga-trust-qi/projects/xmc4700_relax_kit/common/Libraries/CMSIS/Include\core_cm4.h ****       #error "Compiler generates FPU instructions for a device without an FPU (check __FPU_PRESENT)
 118:C:/Users/Yushev/git/optiga-trust-qi/projects/xmc4700_relax_kit/common/Libraries/CMSIS/Include\core_cm4.h ****       #define __FPU_USED       0U
 119:C:/Users/Yushev/git/optiga-trust-qi/projects/xmc4700_relax_kit/common/Libraries/CMSIS/Include\core_cm4.h ****     #endif
 120:C:/Users/Yushev/git/optiga-trust-qi/projects/xmc4700_relax_kit/common/Libraries/CMSIS/Include\core_cm4.h ****   #else
 121:C:/Users/Yushev/git/optiga-trust-qi/projects/xmc4700_relax_kit/common/Libraries/CMSIS/Include\core_cm4.h ****     #define __FPU_USED         0U
 122:C:/Users/Yushev/git/optiga-trust-qi/projects/xmc4700_relax_kit/common/Libraries/CMSIS/Include\core_cm4.h ****   #endif
 123:C:/Users/Yushev/git/optiga-trust-qi/projects/xmc4700_relax_kit/common/Libraries/CMSIS/Include\core_cm4.h **** 
 124:C:/Users/Yushev/git/optiga-trust-qi/projects/xmc4700_relax_kit/common/Libraries/CMSIS/Include\core_cm4.h **** #elif defined ( __TI_ARM__ )
 125:C:/Users/Yushev/git/optiga-trust-qi/projects/xmc4700_relax_kit/common/Libraries/CMSIS/Include\core_cm4.h ****   #if defined __TI_VFP_SUPPORT__
 126:C:/Users/Yushev/git/optiga-trust-qi/projects/xmc4700_relax_kit/common/Libraries/CMSIS/Include\core_cm4.h ****     #if defined (__FPU_PRESENT) && (__FPU_PRESENT == 1U)
 127:C:/Users/Yushev/git/optiga-trust-qi/projects/xmc4700_relax_kit/common/Libraries/CMSIS/Include\core_cm4.h ****       #define __FPU_USED       1U
 128:C:/Users/Yushev/git/optiga-trust-qi/projects/xmc4700_relax_kit/common/Libraries/CMSIS/Include\core_cm4.h ****     #else
 129:C:/Users/Yushev/git/optiga-trust-qi/projects/xmc4700_relax_kit/common/Libraries/CMSIS/Include\core_cm4.h ****       #error "Compiler generates FPU instructions for a device without an FPU (check __FPU_PRESENT)
 130:C:/Users/Yushev/git/optiga-trust-qi/projects/xmc4700_relax_kit/common/Libraries/CMSIS/Include\core_cm4.h ****       #define __FPU_USED       0U
 131:C:/Users/Yushev/git/optiga-trust-qi/projects/xmc4700_relax_kit/common/Libraries/CMSIS/Include\core_cm4.h ****     #endif
 132:C:/Users/Yushev/git/optiga-trust-qi/projects/xmc4700_relax_kit/common/Libraries/CMSIS/Include\core_cm4.h ****   #else
 133:C:/Users/Yushev/git/optiga-trust-qi/projects/xmc4700_relax_kit/common/Libraries/CMSIS/Include\core_cm4.h ****     #define __FPU_USED         0U
 134:C:/Users/Yushev/git/optiga-trust-qi/projects/xmc4700_relax_kit/common/Libraries/CMSIS/Include\core_cm4.h ****   #endif
 135:C:/Users/Yushev/git/optiga-trust-qi/projects/xmc4700_relax_kit/common/Libraries/CMSIS/Include\core_cm4.h **** 
 136:C:/Users/Yushev/git/optiga-trust-qi/projects/xmc4700_relax_kit/common/Libraries/CMSIS/Include\core_cm4.h **** #elif defined ( __TASKING__ )
 137:C:/Users/Yushev/git/optiga-trust-qi/projects/xmc4700_relax_kit/common/Libraries/CMSIS/Include\core_cm4.h ****   #if defined __FPU_VFP__
 138:C:/Users/Yushev/git/optiga-trust-qi/projects/xmc4700_relax_kit/common/Libraries/CMSIS/Include\core_cm4.h ****     #if defined (__FPU_PRESENT) && (__FPU_PRESENT == 1U)
 139:C:/Users/Yushev/git/optiga-trust-qi/projects/xmc4700_relax_kit/common/Libraries/CMSIS/Include\core_cm4.h ****       #define __FPU_USED       1U
 140:C:/Users/Yushev/git/optiga-trust-qi/projects/xmc4700_relax_kit/common/Libraries/CMSIS/Include\core_cm4.h ****     #else
 141:C:/Users/Yushev/git/optiga-trust-qi/projects/xmc4700_relax_kit/common/Libraries/CMSIS/Include\core_cm4.h ****       #error "Compiler generates FPU instructions for a device without an FPU (check __FPU_PRESENT)
 142:C:/Users/Yushev/git/optiga-trust-qi/projects/xmc4700_relax_kit/common/Libraries/CMSIS/Include\core_cm4.h ****       #define __FPU_USED       0U
 143:C:/Users/Yushev/git/optiga-trust-qi/projects/xmc4700_relax_kit/common/Libraries/CMSIS/Include\core_cm4.h ****     #endif
 144:C:/Users/Yushev/git/optiga-trust-qi/projects/xmc4700_relax_kit/common/Libraries/CMSIS/Include\core_cm4.h ****   #else
 145:C:/Users/Yushev/git/optiga-trust-qi/projects/xmc4700_relax_kit/common/Libraries/CMSIS/Include\core_cm4.h ****     #define __FPU_USED         0U
 146:C:/Users/Yushev/git/optiga-trust-qi/projects/xmc4700_relax_kit/common/Libraries/CMSIS/Include\core_cm4.h ****   #endif
 147:C:/Users/Yushev/git/optiga-trust-qi/projects/xmc4700_relax_kit/common/Libraries/CMSIS/Include\core_cm4.h **** 
 148:C:/Users/Yushev/git/optiga-trust-qi/projects/xmc4700_relax_kit/common/Libraries/CMSIS/Include\core_cm4.h **** #elif defined ( __CSMC__ )
 149:C:/Users/Yushev/git/optiga-trust-qi/projects/xmc4700_relax_kit/common/Libraries/CMSIS/Include\core_cm4.h ****   #if ( __CSMC__ & 0x400U)
 150:C:/Users/Yushev/git/optiga-trust-qi/projects/xmc4700_relax_kit/common/Libraries/CMSIS/Include\core_cm4.h ****     #if defined (__FPU_PRESENT) && (__FPU_PRESENT == 1U)
 151:C:/Users/Yushev/git/optiga-trust-qi/projects/xmc4700_relax_kit/common/Libraries/CMSIS/Include\core_cm4.h ****       #define __FPU_USED       1U
 152:C:/Users/Yushev/git/optiga-trust-qi/projects/xmc4700_relax_kit/common/Libraries/CMSIS/Include\core_cm4.h ****     #else
 153:C:/Users/Yushev/git/optiga-trust-qi/projects/xmc4700_relax_kit/common/Libraries/CMSIS/Include\core_cm4.h ****       #error "Compiler generates FPU instructions for a device without an FPU (check __FPU_PRESENT)
 154:C:/Users/Yushev/git/optiga-trust-qi/projects/xmc4700_relax_kit/common/Libraries/CMSIS/Include\core_cm4.h ****       #define __FPU_USED       0U
 155:C:/Users/Yushev/git/optiga-trust-qi/projects/xmc4700_relax_kit/common/Libraries/CMSIS/Include\core_cm4.h ****     #endif
 156:C:/Users/Yushev/git/optiga-trust-qi/projects/xmc4700_relax_kit/common/Libraries/CMSIS/Include\core_cm4.h ****   #else
 157:C:/Users/Yushev/git/optiga-trust-qi/projects/xmc4700_relax_kit/common/Libraries/CMSIS/Include\core_cm4.h ****     #define __FPU_USED         0U
 158:C:/Users/Yushev/git/optiga-trust-qi/projects/xmc4700_relax_kit/common/Libraries/CMSIS/Include\core_cm4.h ****   #endif
 159:C:/Users/Yushev/git/optiga-trust-qi/projects/xmc4700_relax_kit/common/Libraries/CMSIS/Include\core_cm4.h **** 
 160:C:/Users/Yushev/git/optiga-trust-qi/projects/xmc4700_relax_kit/common/Libraries/CMSIS/Include\core_cm4.h **** #endif
 161:C:/Users/Yushev/git/optiga-trust-qi/projects/xmc4700_relax_kit/common/Libraries/CMSIS/Include\core_cm4.h **** 
 162:C:/Users/Yushev/git/optiga-trust-qi/projects/xmc4700_relax_kit/common/Libraries/CMSIS/Include\core_cm4.h **** #include "cmsis_compiler.h"               /* CMSIS compiler specific defines */
 163:C:/Users/Yushev/git/optiga-trust-qi/projects/xmc4700_relax_kit/common/Libraries/CMSIS/Include\core_cm4.h **** 
 164:C:/Users/Yushev/git/optiga-trust-qi/projects/xmc4700_relax_kit/common/Libraries/CMSIS/Include\core_cm4.h **** 
 165:C:/Users/Yushev/git/optiga-trust-qi/projects/xmc4700_relax_kit/common/Libraries/CMSIS/Include\core_cm4.h **** #ifdef __cplusplus
 166:C:/Users/Yushev/git/optiga-trust-qi/projects/xmc4700_relax_kit/common/Libraries/CMSIS/Include\core_cm4.h **** }
 167:C:/Users/Yushev/git/optiga-trust-qi/projects/xmc4700_relax_kit/common/Libraries/CMSIS/Include\core_cm4.h **** #endif
 168:C:/Users/Yushev/git/optiga-trust-qi/projects/xmc4700_relax_kit/common/Libraries/CMSIS/Include\core_cm4.h **** 
 169:C:/Users/Yushev/git/optiga-trust-qi/projects/xmc4700_relax_kit/common/Libraries/CMSIS/Include\core_cm4.h **** #endif /* __CORE_CM4_H_GENERIC */
 170:C:/Users/Yushev/git/optiga-trust-qi/projects/xmc4700_relax_kit/common/Libraries/CMSIS/Include\core_cm4.h **** 
 171:C:/Users/Yushev/git/optiga-trust-qi/projects/xmc4700_relax_kit/common/Libraries/CMSIS/Include\core_cm4.h **** #ifndef __CMSIS_GENERIC
 172:C:/Users/Yushev/git/optiga-trust-qi/projects/xmc4700_relax_kit/common/Libraries/CMSIS/Include\core_cm4.h **** 
 173:C:/Users/Yushev/git/optiga-trust-qi/projects/xmc4700_relax_kit/common/Libraries/CMSIS/Include\core_cm4.h **** #ifndef __CORE_CM4_H_DEPENDANT
 174:C:/Users/Yushev/git/optiga-trust-qi/projects/xmc4700_relax_kit/common/Libraries/CMSIS/Include\core_cm4.h **** #define __CORE_CM4_H_DEPENDANT
 175:C:/Users/Yushev/git/optiga-trust-qi/projects/xmc4700_relax_kit/common/Libraries/CMSIS/Include\core_cm4.h **** 
 176:C:/Users/Yushev/git/optiga-trust-qi/projects/xmc4700_relax_kit/common/Libraries/CMSIS/Include\core_cm4.h **** #ifdef __cplusplus
 177:C:/Users/Yushev/git/optiga-trust-qi/projects/xmc4700_relax_kit/common/Libraries/CMSIS/Include\core_cm4.h ****  extern "C" {
 178:C:/Users/Yushev/git/optiga-trust-qi/projects/xmc4700_relax_kit/common/Libraries/CMSIS/Include\core_cm4.h **** #endif
 179:C:/Users/Yushev/git/optiga-trust-qi/projects/xmc4700_relax_kit/common/Libraries/CMSIS/Include\core_cm4.h **** 
 180:C:/Users/Yushev/git/optiga-trust-qi/projects/xmc4700_relax_kit/common/Libraries/CMSIS/Include\core_cm4.h **** /* check device defines and use defaults */
 181:C:/Users/Yushev/git/optiga-trust-qi/projects/xmc4700_relax_kit/common/Libraries/CMSIS/Include\core_cm4.h **** #if defined __CHECK_DEVICE_DEFINES
 182:C:/Users/Yushev/git/optiga-trust-qi/projects/xmc4700_relax_kit/common/Libraries/CMSIS/Include\core_cm4.h ****   #ifndef __CM4_REV
 183:C:/Users/Yushev/git/optiga-trust-qi/projects/xmc4700_relax_kit/common/Libraries/CMSIS/Include\core_cm4.h ****     #define __CM4_REV               0x0000U
 184:C:/Users/Yushev/git/optiga-trust-qi/projects/xmc4700_relax_kit/common/Libraries/CMSIS/Include\core_cm4.h ****     #warning "__CM4_REV not defined in device header file; using default!"
 185:C:/Users/Yushev/git/optiga-trust-qi/projects/xmc4700_relax_kit/common/Libraries/CMSIS/Include\core_cm4.h ****   #endif
 186:C:/Users/Yushev/git/optiga-trust-qi/projects/xmc4700_relax_kit/common/Libraries/CMSIS/Include\core_cm4.h **** 
 187:C:/Users/Yushev/git/optiga-trust-qi/projects/xmc4700_relax_kit/common/Libraries/CMSIS/Include\core_cm4.h ****   #ifndef __FPU_PRESENT
 188:C:/Users/Yushev/git/optiga-trust-qi/projects/xmc4700_relax_kit/common/Libraries/CMSIS/Include\core_cm4.h ****     #define __FPU_PRESENT             0U
 189:C:/Users/Yushev/git/optiga-trust-qi/projects/xmc4700_relax_kit/common/Libraries/CMSIS/Include\core_cm4.h ****     #warning "__FPU_PRESENT not defined in device header file; using default!"
 190:C:/Users/Yushev/git/optiga-trust-qi/projects/xmc4700_relax_kit/common/Libraries/CMSIS/Include\core_cm4.h ****   #endif
 191:C:/Users/Yushev/git/optiga-trust-qi/projects/xmc4700_relax_kit/common/Libraries/CMSIS/Include\core_cm4.h **** 
 192:C:/Users/Yushev/git/optiga-trust-qi/projects/xmc4700_relax_kit/common/Libraries/CMSIS/Include\core_cm4.h ****   #ifndef __MPU_PRESENT
 193:C:/Users/Yushev/git/optiga-trust-qi/projects/xmc4700_relax_kit/common/Libraries/CMSIS/Include\core_cm4.h ****     #define __MPU_PRESENT             0U
 194:C:/Users/Yushev/git/optiga-trust-qi/projects/xmc4700_relax_kit/common/Libraries/CMSIS/Include\core_cm4.h ****     #warning "__MPU_PRESENT not defined in device header file; using default!"
 195:C:/Users/Yushev/git/optiga-trust-qi/projects/xmc4700_relax_kit/common/Libraries/CMSIS/Include\core_cm4.h ****   #endif
 196:C:/Users/Yushev/git/optiga-trust-qi/projects/xmc4700_relax_kit/common/Libraries/CMSIS/Include\core_cm4.h **** 
 197:C:/Users/Yushev/git/optiga-trust-qi/projects/xmc4700_relax_kit/common/Libraries/CMSIS/Include\core_cm4.h ****   #ifndef __NVIC_PRIO_BITS
 198:C:/Users/Yushev/git/optiga-trust-qi/projects/xmc4700_relax_kit/common/Libraries/CMSIS/Include\core_cm4.h ****     #define __NVIC_PRIO_BITS          3U
 199:C:/Users/Yushev/git/optiga-trust-qi/projects/xmc4700_relax_kit/common/Libraries/CMSIS/Include\core_cm4.h ****     #warning "__NVIC_PRIO_BITS not defined in device header file; using default!"
 200:C:/Users/Yushev/git/optiga-trust-qi/projects/xmc4700_relax_kit/common/Libraries/CMSIS/Include\core_cm4.h ****   #endif
 201:C:/Users/Yushev/git/optiga-trust-qi/projects/xmc4700_relax_kit/common/Libraries/CMSIS/Include\core_cm4.h **** 
 202:C:/Users/Yushev/git/optiga-trust-qi/projects/xmc4700_relax_kit/common/Libraries/CMSIS/Include\core_cm4.h ****   #ifndef __Vendor_SysTickConfig
 203:C:/Users/Yushev/git/optiga-trust-qi/projects/xmc4700_relax_kit/common/Libraries/CMSIS/Include\core_cm4.h ****     #define __Vendor_SysTickConfig    0U
 204:C:/Users/Yushev/git/optiga-trust-qi/projects/xmc4700_relax_kit/common/Libraries/CMSIS/Include\core_cm4.h ****     #warning "__Vendor_SysTickConfig not defined in device header file; using default!"
 205:C:/Users/Yushev/git/optiga-trust-qi/projects/xmc4700_relax_kit/common/Libraries/CMSIS/Include\core_cm4.h ****   #endif
 206:C:/Users/Yushev/git/optiga-trust-qi/projects/xmc4700_relax_kit/common/Libraries/CMSIS/Include\core_cm4.h **** #endif
 207:C:/Users/Yushev/git/optiga-trust-qi/projects/xmc4700_relax_kit/common/Libraries/CMSIS/Include\core_cm4.h **** 
 208:C:/Users/Yushev/git/optiga-trust-qi/projects/xmc4700_relax_kit/common/Libraries/CMSIS/Include\core_cm4.h **** /* IO definitions (access restrictions to peripheral registers) */
 209:C:/Users/Yushev/git/optiga-trust-qi/projects/xmc4700_relax_kit/common/Libraries/CMSIS/Include\core_cm4.h **** /**
 210:C:/Users/Yushev/git/optiga-trust-qi/projects/xmc4700_relax_kit/common/Libraries/CMSIS/Include\core_cm4.h ****     \defgroup CMSIS_glob_defs CMSIS Global Defines
 211:C:/Users/Yushev/git/optiga-trust-qi/projects/xmc4700_relax_kit/common/Libraries/CMSIS/Include\core_cm4.h **** 
 212:C:/Users/Yushev/git/optiga-trust-qi/projects/xmc4700_relax_kit/common/Libraries/CMSIS/Include\core_cm4.h ****     <strong>IO Type Qualifiers</strong> are used
 213:C:/Users/Yushev/git/optiga-trust-qi/projects/xmc4700_relax_kit/common/Libraries/CMSIS/Include\core_cm4.h ****     \li to specify the access to peripheral variables.
 214:C:/Users/Yushev/git/optiga-trust-qi/projects/xmc4700_relax_kit/common/Libraries/CMSIS/Include\core_cm4.h ****     \li for automatic generation of peripheral register debug information.
 215:C:/Users/Yushev/git/optiga-trust-qi/projects/xmc4700_relax_kit/common/Libraries/CMSIS/Include\core_cm4.h **** */
 216:C:/Users/Yushev/git/optiga-trust-qi/projects/xmc4700_relax_kit/common/Libraries/CMSIS/Include\core_cm4.h **** #ifdef __cplusplus
 217:C:/Users/Yushev/git/optiga-trust-qi/projects/xmc4700_relax_kit/common/Libraries/CMSIS/Include\core_cm4.h ****   #define   __I     volatile             /*!< Defines 'read only' permissions */
 218:C:/Users/Yushev/git/optiga-trust-qi/projects/xmc4700_relax_kit/common/Libraries/CMSIS/Include\core_cm4.h **** #else
 219:C:/Users/Yushev/git/optiga-trust-qi/projects/xmc4700_relax_kit/common/Libraries/CMSIS/Include\core_cm4.h ****   #define   __I     volatile const       /*!< Defines 'read only' permissions */
 220:C:/Users/Yushev/git/optiga-trust-qi/projects/xmc4700_relax_kit/common/Libraries/CMSIS/Include\core_cm4.h **** #endif
 221:C:/Users/Yushev/git/optiga-trust-qi/projects/xmc4700_relax_kit/common/Libraries/CMSIS/Include\core_cm4.h **** #define     __O     volatile             /*!< Defines 'write only' permissions */
 222:C:/Users/Yushev/git/optiga-trust-qi/projects/xmc4700_relax_kit/common/Libraries/CMSIS/Include\core_cm4.h **** #define     __IO    volatile             /*!< Defines 'read / write' permissions */
 223:C:/Users/Yushev/git/optiga-trust-qi/projects/xmc4700_relax_kit/common/Libraries/CMSIS/Include\core_cm4.h **** 
 224:C:/Users/Yushev/git/optiga-trust-qi/projects/xmc4700_relax_kit/common/Libraries/CMSIS/Include\core_cm4.h **** /* following defines should be used for structure members */
 225:C:/Users/Yushev/git/optiga-trust-qi/projects/xmc4700_relax_kit/common/Libraries/CMSIS/Include\core_cm4.h **** #define     __IM     volatile const      /*! Defines 'read only' structure member permissions */
 226:C:/Users/Yushev/git/optiga-trust-qi/projects/xmc4700_relax_kit/common/Libraries/CMSIS/Include\core_cm4.h **** #define     __OM     volatile            /*! Defines 'write only' structure member permissions */
 227:C:/Users/Yushev/git/optiga-trust-qi/projects/xmc4700_relax_kit/common/Libraries/CMSIS/Include\core_cm4.h **** #define     __IOM    volatile            /*! Defines 'read / write' structure member permissions */
 228:C:/Users/Yushev/git/optiga-trust-qi/projects/xmc4700_relax_kit/common/Libraries/CMSIS/Include\core_cm4.h **** 
 229:C:/Users/Yushev/git/optiga-trust-qi/projects/xmc4700_relax_kit/common/Libraries/CMSIS/Include\core_cm4.h **** /*@} end of group Cortex_M4 */
 230:C:/Users/Yushev/git/optiga-trust-qi/projects/xmc4700_relax_kit/common/Libraries/CMSIS/Include\core_cm4.h **** 
 231:C:/Users/Yushev/git/optiga-trust-qi/projects/xmc4700_relax_kit/common/Libraries/CMSIS/Include\core_cm4.h **** 
 232:C:/Users/Yushev/git/optiga-trust-qi/projects/xmc4700_relax_kit/common/Libraries/CMSIS/Include\core_cm4.h **** 
 233:C:/Users/Yushev/git/optiga-trust-qi/projects/xmc4700_relax_kit/common/Libraries/CMSIS/Include\core_cm4.h **** /*******************************************************************************
 234:C:/Users/Yushev/git/optiga-trust-qi/projects/xmc4700_relax_kit/common/Libraries/CMSIS/Include\core_cm4.h ****  *                 Register Abstraction
 235:C:/Users/Yushev/git/optiga-trust-qi/projects/xmc4700_relax_kit/common/Libraries/CMSIS/Include\core_cm4.h ****   Core Register contain:
 236:C:/Users/Yushev/git/optiga-trust-qi/projects/xmc4700_relax_kit/common/Libraries/CMSIS/Include\core_cm4.h ****   - Core Register
 237:C:/Users/Yushev/git/optiga-trust-qi/projects/xmc4700_relax_kit/common/Libraries/CMSIS/Include\core_cm4.h ****   - Core NVIC Register
 238:C:/Users/Yushev/git/optiga-trust-qi/projects/xmc4700_relax_kit/common/Libraries/CMSIS/Include\core_cm4.h ****   - Core SCB Register
 239:C:/Users/Yushev/git/optiga-trust-qi/projects/xmc4700_relax_kit/common/Libraries/CMSIS/Include\core_cm4.h ****   - Core SysTick Register
 240:C:/Users/Yushev/git/optiga-trust-qi/projects/xmc4700_relax_kit/common/Libraries/CMSIS/Include\core_cm4.h ****   - Core Debug Register
 241:C:/Users/Yushev/git/optiga-trust-qi/projects/xmc4700_relax_kit/common/Libraries/CMSIS/Include\core_cm4.h ****   - Core MPU Register
 242:C:/Users/Yushev/git/optiga-trust-qi/projects/xmc4700_relax_kit/common/Libraries/CMSIS/Include\core_cm4.h ****   - Core FPU Register
 243:C:/Users/Yushev/git/optiga-trust-qi/projects/xmc4700_relax_kit/common/Libraries/CMSIS/Include\core_cm4.h ****  ******************************************************************************/
 244:C:/Users/Yushev/git/optiga-trust-qi/projects/xmc4700_relax_kit/common/Libraries/CMSIS/Include\core_cm4.h **** /**
 245:C:/Users/Yushev/git/optiga-trust-qi/projects/xmc4700_relax_kit/common/Libraries/CMSIS/Include\core_cm4.h ****   \defgroup CMSIS_core_register Defines and Type Definitions
 246:C:/Users/Yushev/git/optiga-trust-qi/projects/xmc4700_relax_kit/common/Libraries/CMSIS/Include\core_cm4.h ****   \brief Type definitions and defines for Cortex-M processor based devices.
 247:C:/Users/Yushev/git/optiga-trust-qi/projects/xmc4700_relax_kit/common/Libraries/CMSIS/Include\core_cm4.h **** */
 248:C:/Users/Yushev/git/optiga-trust-qi/projects/xmc4700_relax_kit/common/Libraries/CMSIS/Include\core_cm4.h **** 
 249:C:/Users/Yushev/git/optiga-trust-qi/projects/xmc4700_relax_kit/common/Libraries/CMSIS/Include\core_cm4.h **** /**
 250:C:/Users/Yushev/git/optiga-trust-qi/projects/xmc4700_relax_kit/common/Libraries/CMSIS/Include\core_cm4.h ****   \ingroup    CMSIS_core_register
 251:C:/Users/Yushev/git/optiga-trust-qi/projects/xmc4700_relax_kit/common/Libraries/CMSIS/Include\core_cm4.h ****   \defgroup   CMSIS_CORE  Status and Control Registers
 252:C:/Users/Yushev/git/optiga-trust-qi/projects/xmc4700_relax_kit/common/Libraries/CMSIS/Include\core_cm4.h ****   \brief      Core Register type definitions.
 253:C:/Users/Yushev/git/optiga-trust-qi/projects/xmc4700_relax_kit/common/Libraries/CMSIS/Include\core_cm4.h ****   @{
 254:C:/Users/Yushev/git/optiga-trust-qi/projects/xmc4700_relax_kit/common/Libraries/CMSIS/Include\core_cm4.h ****  */
 255:C:/Users/Yushev/git/optiga-trust-qi/projects/xmc4700_relax_kit/common/Libraries/CMSIS/Include\core_cm4.h **** 
 256:C:/Users/Yushev/git/optiga-trust-qi/projects/xmc4700_relax_kit/common/Libraries/CMSIS/Include\core_cm4.h **** /**
 257:C:/Users/Yushev/git/optiga-trust-qi/projects/xmc4700_relax_kit/common/Libraries/CMSIS/Include\core_cm4.h ****   \brief  Union type to access the Application Program Status Register (APSR).
 258:C:/Users/Yushev/git/optiga-trust-qi/projects/xmc4700_relax_kit/common/Libraries/CMSIS/Include\core_cm4.h ****  */
 259:C:/Users/Yushev/git/optiga-trust-qi/projects/xmc4700_relax_kit/common/Libraries/CMSIS/Include\core_cm4.h **** typedef union
 260:C:/Users/Yushev/git/optiga-trust-qi/projects/xmc4700_relax_kit/common/Libraries/CMSIS/Include\core_cm4.h **** {
 261:C:/Users/Yushev/git/optiga-trust-qi/projects/xmc4700_relax_kit/common/Libraries/CMSIS/Include\core_cm4.h ****   struct
 262:C:/Users/Yushev/git/optiga-trust-qi/projects/xmc4700_relax_kit/common/Libraries/CMSIS/Include\core_cm4.h ****   {
 263:C:/Users/Yushev/git/optiga-trust-qi/projects/xmc4700_relax_kit/common/Libraries/CMSIS/Include\core_cm4.h ****     uint32_t _reserved0:16;              /*!< bit:  0..15  Reserved */
 264:C:/Users/Yushev/git/optiga-trust-qi/projects/xmc4700_relax_kit/common/Libraries/CMSIS/Include\core_cm4.h ****     uint32_t GE:4;                       /*!< bit: 16..19  Greater than or Equal flags */
 265:C:/Users/Yushev/git/optiga-trust-qi/projects/xmc4700_relax_kit/common/Libraries/CMSIS/Include\core_cm4.h ****     uint32_t _reserved1:7;               /*!< bit: 20..26  Reserved */
 266:C:/Users/Yushev/git/optiga-trust-qi/projects/xmc4700_relax_kit/common/Libraries/CMSIS/Include\core_cm4.h ****     uint32_t Q:1;                        /*!< bit:     27  Saturation condition flag */
 267:C:/Users/Yushev/git/optiga-trust-qi/projects/xmc4700_relax_kit/common/Libraries/CMSIS/Include\core_cm4.h ****     uint32_t V:1;                        /*!< bit:     28  Overflow condition code flag */
 268:C:/Users/Yushev/git/optiga-trust-qi/projects/xmc4700_relax_kit/common/Libraries/CMSIS/Include\core_cm4.h ****     uint32_t C:1;                        /*!< bit:     29  Carry condition code flag */
 269:C:/Users/Yushev/git/optiga-trust-qi/projects/xmc4700_relax_kit/common/Libraries/CMSIS/Include\core_cm4.h ****     uint32_t Z:1;                        /*!< bit:     30  Zero condition code flag */
 270:C:/Users/Yushev/git/optiga-trust-qi/projects/xmc4700_relax_kit/common/Libraries/CMSIS/Include\core_cm4.h ****     uint32_t N:1;                        /*!< bit:     31  Negative condition code flag */
 271:C:/Users/Yushev/git/optiga-trust-qi/projects/xmc4700_relax_kit/common/Libraries/CMSIS/Include\core_cm4.h ****   } b;                                   /*!< Structure used for bit  access */
 272:C:/Users/Yushev/git/optiga-trust-qi/projects/xmc4700_relax_kit/common/Libraries/CMSIS/Include\core_cm4.h ****   uint32_t w;                            /*!< Type      used for word access */
 273:C:/Users/Yushev/git/optiga-trust-qi/projects/xmc4700_relax_kit/common/Libraries/CMSIS/Include\core_cm4.h **** } APSR_Type;
 274:C:/Users/Yushev/git/optiga-trust-qi/projects/xmc4700_relax_kit/common/Libraries/CMSIS/Include\core_cm4.h **** 
 275:C:/Users/Yushev/git/optiga-trust-qi/projects/xmc4700_relax_kit/common/Libraries/CMSIS/Include\core_cm4.h **** /* APSR Register Definitions */
 276:C:/Users/Yushev/git/optiga-trust-qi/projects/xmc4700_relax_kit/common/Libraries/CMSIS/Include\core_cm4.h **** #define APSR_N_Pos                         31U                                            /*!< APSR
 277:C:/Users/Yushev/git/optiga-trust-qi/projects/xmc4700_relax_kit/common/Libraries/CMSIS/Include\core_cm4.h **** #define APSR_N_Msk                         (1UL << APSR_N_Pos)                            /*!< APSR
 278:C:/Users/Yushev/git/optiga-trust-qi/projects/xmc4700_relax_kit/common/Libraries/CMSIS/Include\core_cm4.h **** 
 279:C:/Users/Yushev/git/optiga-trust-qi/projects/xmc4700_relax_kit/common/Libraries/CMSIS/Include\core_cm4.h **** #define APSR_Z_Pos                         30U                                            /*!< APSR
 280:C:/Users/Yushev/git/optiga-trust-qi/projects/xmc4700_relax_kit/common/Libraries/CMSIS/Include\core_cm4.h **** #define APSR_Z_Msk                         (1UL << APSR_Z_Pos)                            /*!< APSR
 281:C:/Users/Yushev/git/optiga-trust-qi/projects/xmc4700_relax_kit/common/Libraries/CMSIS/Include\core_cm4.h **** 
 282:C:/Users/Yushev/git/optiga-trust-qi/projects/xmc4700_relax_kit/common/Libraries/CMSIS/Include\core_cm4.h **** #define APSR_C_Pos                         29U                                            /*!< APSR
 283:C:/Users/Yushev/git/optiga-trust-qi/projects/xmc4700_relax_kit/common/Libraries/CMSIS/Include\core_cm4.h **** #define APSR_C_Msk                         (1UL << APSR_C_Pos)                            /*!< APSR
 284:C:/Users/Yushev/git/optiga-trust-qi/projects/xmc4700_relax_kit/common/Libraries/CMSIS/Include\core_cm4.h **** 
 285:C:/Users/Yushev/git/optiga-trust-qi/projects/xmc4700_relax_kit/common/Libraries/CMSIS/Include\core_cm4.h **** #define APSR_V_Pos                         28U                                            /*!< APSR
 286:C:/Users/Yushev/git/optiga-trust-qi/projects/xmc4700_relax_kit/common/Libraries/CMSIS/Include\core_cm4.h **** #define APSR_V_Msk                         (1UL << APSR_V_Pos)                            /*!< APSR
 287:C:/Users/Yushev/git/optiga-trust-qi/projects/xmc4700_relax_kit/common/Libraries/CMSIS/Include\core_cm4.h **** 
 288:C:/Users/Yushev/git/optiga-trust-qi/projects/xmc4700_relax_kit/common/Libraries/CMSIS/Include\core_cm4.h **** #define APSR_Q_Pos                         27U                                            /*!< APSR
 289:C:/Users/Yushev/git/optiga-trust-qi/projects/xmc4700_relax_kit/common/Libraries/CMSIS/Include\core_cm4.h **** #define APSR_Q_Msk                         (1UL << APSR_Q_Pos)                            /*!< APSR
 290:C:/Users/Yushev/git/optiga-trust-qi/projects/xmc4700_relax_kit/common/Libraries/CMSIS/Include\core_cm4.h **** 
 291:C:/Users/Yushev/git/optiga-trust-qi/projects/xmc4700_relax_kit/common/Libraries/CMSIS/Include\core_cm4.h **** #define APSR_GE_Pos                        16U                                            /*!< APSR
 292:C:/Users/Yushev/git/optiga-trust-qi/projects/xmc4700_relax_kit/common/Libraries/CMSIS/Include\core_cm4.h **** #define APSR_GE_Msk                        (0xFUL << APSR_GE_Pos)                         /*!< APSR
 293:C:/Users/Yushev/git/optiga-trust-qi/projects/xmc4700_relax_kit/common/Libraries/CMSIS/Include\core_cm4.h **** 
 294:C:/Users/Yushev/git/optiga-trust-qi/projects/xmc4700_relax_kit/common/Libraries/CMSIS/Include\core_cm4.h **** 
 295:C:/Users/Yushev/git/optiga-trust-qi/projects/xmc4700_relax_kit/common/Libraries/CMSIS/Include\core_cm4.h **** /**
 296:C:/Users/Yushev/git/optiga-trust-qi/projects/xmc4700_relax_kit/common/Libraries/CMSIS/Include\core_cm4.h ****   \brief  Union type to access the Interrupt Program Status Register (IPSR).
 297:C:/Users/Yushev/git/optiga-trust-qi/projects/xmc4700_relax_kit/common/Libraries/CMSIS/Include\core_cm4.h ****  */
 298:C:/Users/Yushev/git/optiga-trust-qi/projects/xmc4700_relax_kit/common/Libraries/CMSIS/Include\core_cm4.h **** typedef union
 299:C:/Users/Yushev/git/optiga-trust-qi/projects/xmc4700_relax_kit/common/Libraries/CMSIS/Include\core_cm4.h **** {
 300:C:/Users/Yushev/git/optiga-trust-qi/projects/xmc4700_relax_kit/common/Libraries/CMSIS/Include\core_cm4.h ****   struct
 301:C:/Users/Yushev/git/optiga-trust-qi/projects/xmc4700_relax_kit/common/Libraries/CMSIS/Include\core_cm4.h ****   {
 302:C:/Users/Yushev/git/optiga-trust-qi/projects/xmc4700_relax_kit/common/Libraries/CMSIS/Include\core_cm4.h ****     uint32_t ISR:9;                      /*!< bit:  0.. 8  Exception number */
 303:C:/Users/Yushev/git/optiga-trust-qi/projects/xmc4700_relax_kit/common/Libraries/CMSIS/Include\core_cm4.h ****     uint32_t _reserved0:23;              /*!< bit:  9..31  Reserved */
 304:C:/Users/Yushev/git/optiga-trust-qi/projects/xmc4700_relax_kit/common/Libraries/CMSIS/Include\core_cm4.h ****   } b;                                   /*!< Structure used for bit  access */
 305:C:/Users/Yushev/git/optiga-trust-qi/projects/xmc4700_relax_kit/common/Libraries/CMSIS/Include\core_cm4.h ****   uint32_t w;                            /*!< Type      used for word access */
 306:C:/Users/Yushev/git/optiga-trust-qi/projects/xmc4700_relax_kit/common/Libraries/CMSIS/Include\core_cm4.h **** } IPSR_Type;
 307:C:/Users/Yushev/git/optiga-trust-qi/projects/xmc4700_relax_kit/common/Libraries/CMSIS/Include\core_cm4.h **** 
 308:C:/Users/Yushev/git/optiga-trust-qi/projects/xmc4700_relax_kit/common/Libraries/CMSIS/Include\core_cm4.h **** /* IPSR Register Definitions */
 309:C:/Users/Yushev/git/optiga-trust-qi/projects/xmc4700_relax_kit/common/Libraries/CMSIS/Include\core_cm4.h **** #define IPSR_ISR_Pos                        0U                                            /*!< IPSR
 310:C:/Users/Yushev/git/optiga-trust-qi/projects/xmc4700_relax_kit/common/Libraries/CMSIS/Include\core_cm4.h **** #define IPSR_ISR_Msk                       (0x1FFUL /*<< IPSR_ISR_Pos*/)                  /*!< IPSR
 311:C:/Users/Yushev/git/optiga-trust-qi/projects/xmc4700_relax_kit/common/Libraries/CMSIS/Include\core_cm4.h **** 
 312:C:/Users/Yushev/git/optiga-trust-qi/projects/xmc4700_relax_kit/common/Libraries/CMSIS/Include\core_cm4.h **** 
 313:C:/Users/Yushev/git/optiga-trust-qi/projects/xmc4700_relax_kit/common/Libraries/CMSIS/Include\core_cm4.h **** /**
 314:C:/Users/Yushev/git/optiga-trust-qi/projects/xmc4700_relax_kit/common/Libraries/CMSIS/Include\core_cm4.h ****   \brief  Union type to access the Special-Purpose Program Status Registers (xPSR).
 315:C:/Users/Yushev/git/optiga-trust-qi/projects/xmc4700_relax_kit/common/Libraries/CMSIS/Include\core_cm4.h ****  */
 316:C:/Users/Yushev/git/optiga-trust-qi/projects/xmc4700_relax_kit/common/Libraries/CMSIS/Include\core_cm4.h **** typedef union
 317:C:/Users/Yushev/git/optiga-trust-qi/projects/xmc4700_relax_kit/common/Libraries/CMSIS/Include\core_cm4.h **** {
 318:C:/Users/Yushev/git/optiga-trust-qi/projects/xmc4700_relax_kit/common/Libraries/CMSIS/Include\core_cm4.h ****   struct
 319:C:/Users/Yushev/git/optiga-trust-qi/projects/xmc4700_relax_kit/common/Libraries/CMSIS/Include\core_cm4.h ****   {
 320:C:/Users/Yushev/git/optiga-trust-qi/projects/xmc4700_relax_kit/common/Libraries/CMSIS/Include\core_cm4.h ****     uint32_t ISR:9;                      /*!< bit:  0.. 8  Exception number */
 321:C:/Users/Yushev/git/optiga-trust-qi/projects/xmc4700_relax_kit/common/Libraries/CMSIS/Include\core_cm4.h ****     uint32_t _reserved0:1;               /*!< bit:      9  Reserved */
 322:C:/Users/Yushev/git/optiga-trust-qi/projects/xmc4700_relax_kit/common/Libraries/CMSIS/Include\core_cm4.h ****     uint32_t ICI_IT_1:6;                 /*!< bit: 10..15  ICI/IT part 1 */
 323:C:/Users/Yushev/git/optiga-trust-qi/projects/xmc4700_relax_kit/common/Libraries/CMSIS/Include\core_cm4.h ****     uint32_t GE:4;                       /*!< bit: 16..19  Greater than or Equal flags */
 324:C:/Users/Yushev/git/optiga-trust-qi/projects/xmc4700_relax_kit/common/Libraries/CMSIS/Include\core_cm4.h ****     uint32_t _reserved1:4;               /*!< bit: 20..23  Reserved */
 325:C:/Users/Yushev/git/optiga-trust-qi/projects/xmc4700_relax_kit/common/Libraries/CMSIS/Include\core_cm4.h ****     uint32_t T:1;                        /*!< bit:     24  Thumb bit */
 326:C:/Users/Yushev/git/optiga-trust-qi/projects/xmc4700_relax_kit/common/Libraries/CMSIS/Include\core_cm4.h ****     uint32_t ICI_IT_2:2;                 /*!< bit: 25..26  ICI/IT part 2 */
 327:C:/Users/Yushev/git/optiga-trust-qi/projects/xmc4700_relax_kit/common/Libraries/CMSIS/Include\core_cm4.h ****     uint32_t Q:1;                        /*!< bit:     27  Saturation condition flag */
 328:C:/Users/Yushev/git/optiga-trust-qi/projects/xmc4700_relax_kit/common/Libraries/CMSIS/Include\core_cm4.h ****     uint32_t V:1;                        /*!< bit:     28  Overflow condition code flag */
 329:C:/Users/Yushev/git/optiga-trust-qi/projects/xmc4700_relax_kit/common/Libraries/CMSIS/Include\core_cm4.h ****     uint32_t C:1;                        /*!< bit:     29  Carry condition code flag */
 330:C:/Users/Yushev/git/optiga-trust-qi/projects/xmc4700_relax_kit/common/Libraries/CMSIS/Include\core_cm4.h ****     uint32_t Z:1;                        /*!< bit:     30  Zero condition code flag */
 331:C:/Users/Yushev/git/optiga-trust-qi/projects/xmc4700_relax_kit/common/Libraries/CMSIS/Include\core_cm4.h ****     uint32_t N:1;                        /*!< bit:     31  Negative condition code flag */
 332:C:/Users/Yushev/git/optiga-trust-qi/projects/xmc4700_relax_kit/common/Libraries/CMSIS/Include\core_cm4.h ****   } b;                                   /*!< Structure used for bit  access */
 333:C:/Users/Yushev/git/optiga-trust-qi/projects/xmc4700_relax_kit/common/Libraries/CMSIS/Include\core_cm4.h ****   uint32_t w;                            /*!< Type      used for word access */
 334:C:/Users/Yushev/git/optiga-trust-qi/projects/xmc4700_relax_kit/common/Libraries/CMSIS/Include\core_cm4.h **** } xPSR_Type;
 335:C:/Users/Yushev/git/optiga-trust-qi/projects/xmc4700_relax_kit/common/Libraries/CMSIS/Include\core_cm4.h **** 
 336:C:/Users/Yushev/git/optiga-trust-qi/projects/xmc4700_relax_kit/common/Libraries/CMSIS/Include\core_cm4.h **** /* xPSR Register Definitions */
 337:C:/Users/Yushev/git/optiga-trust-qi/projects/xmc4700_relax_kit/common/Libraries/CMSIS/Include\core_cm4.h **** #define xPSR_N_Pos                         31U                                            /*!< xPSR
 338:C:/Users/Yushev/git/optiga-trust-qi/projects/xmc4700_relax_kit/common/Libraries/CMSIS/Include\core_cm4.h **** #define xPSR_N_Msk                         (1UL << xPSR_N_Pos)                            /*!< xPSR
 339:C:/Users/Yushev/git/optiga-trust-qi/projects/xmc4700_relax_kit/common/Libraries/CMSIS/Include\core_cm4.h **** 
 340:C:/Users/Yushev/git/optiga-trust-qi/projects/xmc4700_relax_kit/common/Libraries/CMSIS/Include\core_cm4.h **** #define xPSR_Z_Pos                         30U                                            /*!< xPSR
 341:C:/Users/Yushev/git/optiga-trust-qi/projects/xmc4700_relax_kit/common/Libraries/CMSIS/Include\core_cm4.h **** #define xPSR_Z_Msk                         (1UL << xPSR_Z_Pos)                            /*!< xPSR
 342:C:/Users/Yushev/git/optiga-trust-qi/projects/xmc4700_relax_kit/common/Libraries/CMSIS/Include\core_cm4.h **** 
 343:C:/Users/Yushev/git/optiga-trust-qi/projects/xmc4700_relax_kit/common/Libraries/CMSIS/Include\core_cm4.h **** #define xPSR_C_Pos                         29U                                            /*!< xPSR
 344:C:/Users/Yushev/git/optiga-trust-qi/projects/xmc4700_relax_kit/common/Libraries/CMSIS/Include\core_cm4.h **** #define xPSR_C_Msk                         (1UL << xPSR_C_Pos)                            /*!< xPSR
 345:C:/Users/Yushev/git/optiga-trust-qi/projects/xmc4700_relax_kit/common/Libraries/CMSIS/Include\core_cm4.h **** 
 346:C:/Users/Yushev/git/optiga-trust-qi/projects/xmc4700_relax_kit/common/Libraries/CMSIS/Include\core_cm4.h **** #define xPSR_V_Pos                         28U                                            /*!< xPSR
 347:C:/Users/Yushev/git/optiga-trust-qi/projects/xmc4700_relax_kit/common/Libraries/CMSIS/Include\core_cm4.h **** #define xPSR_V_Msk                         (1UL << xPSR_V_Pos)                            /*!< xPSR
 348:C:/Users/Yushev/git/optiga-trust-qi/projects/xmc4700_relax_kit/common/Libraries/CMSIS/Include\core_cm4.h **** 
 349:C:/Users/Yushev/git/optiga-trust-qi/projects/xmc4700_relax_kit/common/Libraries/CMSIS/Include\core_cm4.h **** #define xPSR_Q_Pos                         27U                                            /*!< xPSR
 350:C:/Users/Yushev/git/optiga-trust-qi/projects/xmc4700_relax_kit/common/Libraries/CMSIS/Include\core_cm4.h **** #define xPSR_Q_Msk                         (1UL << xPSR_Q_Pos)                            /*!< xPSR
 351:C:/Users/Yushev/git/optiga-trust-qi/projects/xmc4700_relax_kit/common/Libraries/CMSIS/Include\core_cm4.h **** 
 352:C:/Users/Yushev/git/optiga-trust-qi/projects/xmc4700_relax_kit/common/Libraries/CMSIS/Include\core_cm4.h **** #define xPSR_ICI_IT_2_Pos                  25U                                            /*!< xPSR
 353:C:/Users/Yushev/git/optiga-trust-qi/projects/xmc4700_relax_kit/common/Libraries/CMSIS/Include\core_cm4.h **** #define xPSR_ICI_IT_2_Msk                  (3UL << xPSR_ICI_IT_2_Pos)                     /*!< xPSR
 354:C:/Users/Yushev/git/optiga-trust-qi/projects/xmc4700_relax_kit/common/Libraries/CMSIS/Include\core_cm4.h **** 
 355:C:/Users/Yushev/git/optiga-trust-qi/projects/xmc4700_relax_kit/common/Libraries/CMSIS/Include\core_cm4.h **** #define xPSR_T_Pos                         24U                                            /*!< xPSR
 356:C:/Users/Yushev/git/optiga-trust-qi/projects/xmc4700_relax_kit/common/Libraries/CMSIS/Include\core_cm4.h **** #define xPSR_T_Msk                         (1UL << xPSR_T_Pos)                            /*!< xPSR
 357:C:/Users/Yushev/git/optiga-trust-qi/projects/xmc4700_relax_kit/common/Libraries/CMSIS/Include\core_cm4.h **** 
 358:C:/Users/Yushev/git/optiga-trust-qi/projects/xmc4700_relax_kit/common/Libraries/CMSIS/Include\core_cm4.h **** #define xPSR_GE_Pos                        16U                                            /*!< xPSR
 359:C:/Users/Yushev/git/optiga-trust-qi/projects/xmc4700_relax_kit/common/Libraries/CMSIS/Include\core_cm4.h **** #define xPSR_GE_Msk                        (0xFUL << xPSR_GE_Pos)                         /*!< xPSR
 360:C:/Users/Yushev/git/optiga-trust-qi/projects/xmc4700_relax_kit/common/Libraries/CMSIS/Include\core_cm4.h **** 
 361:C:/Users/Yushev/git/optiga-trust-qi/projects/xmc4700_relax_kit/common/Libraries/CMSIS/Include\core_cm4.h **** #define xPSR_ICI_IT_1_Pos                  10U                                            /*!< xPSR
 362:C:/Users/Yushev/git/optiga-trust-qi/projects/xmc4700_relax_kit/common/Libraries/CMSIS/Include\core_cm4.h **** #define xPSR_ICI_IT_1_Msk                  (0x3FUL << xPSR_ICI_IT_1_Pos)                  /*!< xPSR
 363:C:/Users/Yushev/git/optiga-trust-qi/projects/xmc4700_relax_kit/common/Libraries/CMSIS/Include\core_cm4.h **** 
 364:C:/Users/Yushev/git/optiga-trust-qi/projects/xmc4700_relax_kit/common/Libraries/CMSIS/Include\core_cm4.h **** #define xPSR_ISR_Pos                        0U                                            /*!< xPSR
 365:C:/Users/Yushev/git/optiga-trust-qi/projects/xmc4700_relax_kit/common/Libraries/CMSIS/Include\core_cm4.h **** #define xPSR_ISR_Msk                       (0x1FFUL /*<< xPSR_ISR_Pos*/)                  /*!< xPSR
 366:C:/Users/Yushev/git/optiga-trust-qi/projects/xmc4700_relax_kit/common/Libraries/CMSIS/Include\core_cm4.h **** 
 367:C:/Users/Yushev/git/optiga-trust-qi/projects/xmc4700_relax_kit/common/Libraries/CMSIS/Include\core_cm4.h **** 
 368:C:/Users/Yushev/git/optiga-trust-qi/projects/xmc4700_relax_kit/common/Libraries/CMSIS/Include\core_cm4.h **** /**
 369:C:/Users/Yushev/git/optiga-trust-qi/projects/xmc4700_relax_kit/common/Libraries/CMSIS/Include\core_cm4.h ****   \brief  Union type to access the Control Registers (CONTROL).
 370:C:/Users/Yushev/git/optiga-trust-qi/projects/xmc4700_relax_kit/common/Libraries/CMSIS/Include\core_cm4.h ****  */
 371:C:/Users/Yushev/git/optiga-trust-qi/projects/xmc4700_relax_kit/common/Libraries/CMSIS/Include\core_cm4.h **** typedef union
 372:C:/Users/Yushev/git/optiga-trust-qi/projects/xmc4700_relax_kit/common/Libraries/CMSIS/Include\core_cm4.h **** {
 373:C:/Users/Yushev/git/optiga-trust-qi/projects/xmc4700_relax_kit/common/Libraries/CMSIS/Include\core_cm4.h ****   struct
 374:C:/Users/Yushev/git/optiga-trust-qi/projects/xmc4700_relax_kit/common/Libraries/CMSIS/Include\core_cm4.h ****   {
 375:C:/Users/Yushev/git/optiga-trust-qi/projects/xmc4700_relax_kit/common/Libraries/CMSIS/Include\core_cm4.h ****     uint32_t nPRIV:1;                    /*!< bit:      0  Execution privilege in Thread mode */
 376:C:/Users/Yushev/git/optiga-trust-qi/projects/xmc4700_relax_kit/common/Libraries/CMSIS/Include\core_cm4.h ****     uint32_t SPSEL:1;                    /*!< bit:      1  Stack to be used */
 377:C:/Users/Yushev/git/optiga-trust-qi/projects/xmc4700_relax_kit/common/Libraries/CMSIS/Include\core_cm4.h ****     uint32_t FPCA:1;                     /*!< bit:      2  FP extension active flag */
 378:C:/Users/Yushev/git/optiga-trust-qi/projects/xmc4700_relax_kit/common/Libraries/CMSIS/Include\core_cm4.h ****     uint32_t _reserved0:29;              /*!< bit:  3..31  Reserved */
 379:C:/Users/Yushev/git/optiga-trust-qi/projects/xmc4700_relax_kit/common/Libraries/CMSIS/Include\core_cm4.h ****   } b;                                   /*!< Structure used for bit  access */
 380:C:/Users/Yushev/git/optiga-trust-qi/projects/xmc4700_relax_kit/common/Libraries/CMSIS/Include\core_cm4.h ****   uint32_t w;                            /*!< Type      used for word access */
 381:C:/Users/Yushev/git/optiga-trust-qi/projects/xmc4700_relax_kit/common/Libraries/CMSIS/Include\core_cm4.h **** } CONTROL_Type;
 382:C:/Users/Yushev/git/optiga-trust-qi/projects/xmc4700_relax_kit/common/Libraries/CMSIS/Include\core_cm4.h **** 
 383:C:/Users/Yushev/git/optiga-trust-qi/projects/xmc4700_relax_kit/common/Libraries/CMSIS/Include\core_cm4.h **** /* CONTROL Register Definitions */
 384:C:/Users/Yushev/git/optiga-trust-qi/projects/xmc4700_relax_kit/common/Libraries/CMSIS/Include\core_cm4.h **** #define CONTROL_FPCA_Pos                    2U                                            /*!< CONT
 385:C:/Users/Yushev/git/optiga-trust-qi/projects/xmc4700_relax_kit/common/Libraries/CMSIS/Include\core_cm4.h **** #define CONTROL_FPCA_Msk                   (1UL << CONTROL_FPCA_Pos)                      /*!< CONT
 386:C:/Users/Yushev/git/optiga-trust-qi/projects/xmc4700_relax_kit/common/Libraries/CMSIS/Include\core_cm4.h **** 
 387:C:/Users/Yushev/git/optiga-trust-qi/projects/xmc4700_relax_kit/common/Libraries/CMSIS/Include\core_cm4.h **** #define CONTROL_SPSEL_Pos                   1U                                            /*!< CONT
 388:C:/Users/Yushev/git/optiga-trust-qi/projects/xmc4700_relax_kit/common/Libraries/CMSIS/Include\core_cm4.h **** #define CONTROL_SPSEL_Msk                  (1UL << CONTROL_SPSEL_Pos)                     /*!< CONT
 389:C:/Users/Yushev/git/optiga-trust-qi/projects/xmc4700_relax_kit/common/Libraries/CMSIS/Include\core_cm4.h **** 
 390:C:/Users/Yushev/git/optiga-trust-qi/projects/xmc4700_relax_kit/common/Libraries/CMSIS/Include\core_cm4.h **** #define CONTROL_nPRIV_Pos                   0U                                            /*!< CONT
 391:C:/Users/Yushev/git/optiga-trust-qi/projects/xmc4700_relax_kit/common/Libraries/CMSIS/Include\core_cm4.h **** #define CONTROL_nPRIV_Msk                  (1UL /*<< CONTROL_nPRIV_Pos*/)                 /*!< CONT
 392:C:/Users/Yushev/git/optiga-trust-qi/projects/xmc4700_relax_kit/common/Libraries/CMSIS/Include\core_cm4.h **** 
 393:C:/Users/Yushev/git/optiga-trust-qi/projects/xmc4700_relax_kit/common/Libraries/CMSIS/Include\core_cm4.h **** /*@} end of group CMSIS_CORE */
 394:C:/Users/Yushev/git/optiga-trust-qi/projects/xmc4700_relax_kit/common/Libraries/CMSIS/Include\core_cm4.h **** 
 395:C:/Users/Yushev/git/optiga-trust-qi/projects/xmc4700_relax_kit/common/Libraries/CMSIS/Include\core_cm4.h **** 
 396:C:/Users/Yushev/git/optiga-trust-qi/projects/xmc4700_relax_kit/common/Libraries/CMSIS/Include\core_cm4.h **** /**
 397:C:/Users/Yushev/git/optiga-trust-qi/projects/xmc4700_relax_kit/common/Libraries/CMSIS/Include\core_cm4.h ****   \ingroup    CMSIS_core_register
 398:C:/Users/Yushev/git/optiga-trust-qi/projects/xmc4700_relax_kit/common/Libraries/CMSIS/Include\core_cm4.h ****   \defgroup   CMSIS_NVIC  Nested Vectored Interrupt Controller (NVIC)
 399:C:/Users/Yushev/git/optiga-trust-qi/projects/xmc4700_relax_kit/common/Libraries/CMSIS/Include\core_cm4.h ****   \brief      Type definitions for the NVIC Registers
 400:C:/Users/Yushev/git/optiga-trust-qi/projects/xmc4700_relax_kit/common/Libraries/CMSIS/Include\core_cm4.h ****   @{
 401:C:/Users/Yushev/git/optiga-trust-qi/projects/xmc4700_relax_kit/common/Libraries/CMSIS/Include\core_cm4.h ****  */
 402:C:/Users/Yushev/git/optiga-trust-qi/projects/xmc4700_relax_kit/common/Libraries/CMSIS/Include\core_cm4.h **** 
 403:C:/Users/Yushev/git/optiga-trust-qi/projects/xmc4700_relax_kit/common/Libraries/CMSIS/Include\core_cm4.h **** /**
 404:C:/Users/Yushev/git/optiga-trust-qi/projects/xmc4700_relax_kit/common/Libraries/CMSIS/Include\core_cm4.h ****   \brief  Structure type to access the Nested Vectored Interrupt Controller (NVIC).
 405:C:/Users/Yushev/git/optiga-trust-qi/projects/xmc4700_relax_kit/common/Libraries/CMSIS/Include\core_cm4.h ****  */
 406:C:/Users/Yushev/git/optiga-trust-qi/projects/xmc4700_relax_kit/common/Libraries/CMSIS/Include\core_cm4.h **** typedef struct
 407:C:/Users/Yushev/git/optiga-trust-qi/projects/xmc4700_relax_kit/common/Libraries/CMSIS/Include\core_cm4.h **** {
 408:C:/Users/Yushev/git/optiga-trust-qi/projects/xmc4700_relax_kit/common/Libraries/CMSIS/Include\core_cm4.h ****   __IOM uint32_t ISER[8U];               /*!< Offset: 0x000 (R/W)  Interrupt Set Enable Register */
 409:C:/Users/Yushev/git/optiga-trust-qi/projects/xmc4700_relax_kit/common/Libraries/CMSIS/Include\core_cm4.h ****         uint32_t RESERVED0[24U];
 410:C:/Users/Yushev/git/optiga-trust-qi/projects/xmc4700_relax_kit/common/Libraries/CMSIS/Include\core_cm4.h ****   __IOM uint32_t ICER[8U];               /*!< Offset: 0x080 (R/W)  Interrupt Clear Enable Register 
 411:C:/Users/Yushev/git/optiga-trust-qi/projects/xmc4700_relax_kit/common/Libraries/CMSIS/Include\core_cm4.h ****         uint32_t RSERVED1[24U];
 412:C:/Users/Yushev/git/optiga-trust-qi/projects/xmc4700_relax_kit/common/Libraries/CMSIS/Include\core_cm4.h ****   __IOM uint32_t ISPR[8U];               /*!< Offset: 0x100 (R/W)  Interrupt Set Pending Register *
 413:C:/Users/Yushev/git/optiga-trust-qi/projects/xmc4700_relax_kit/common/Libraries/CMSIS/Include\core_cm4.h ****         uint32_t RESERVED2[24U];
 414:C:/Users/Yushev/git/optiga-trust-qi/projects/xmc4700_relax_kit/common/Libraries/CMSIS/Include\core_cm4.h ****   __IOM uint32_t ICPR[8U];               /*!< Offset: 0x180 (R/W)  Interrupt Clear Pending Register
 415:C:/Users/Yushev/git/optiga-trust-qi/projects/xmc4700_relax_kit/common/Libraries/CMSIS/Include\core_cm4.h ****         uint32_t RESERVED3[24U];
 416:C:/Users/Yushev/git/optiga-trust-qi/projects/xmc4700_relax_kit/common/Libraries/CMSIS/Include\core_cm4.h ****   __IOM uint32_t IABR[8U];               /*!< Offset: 0x200 (R/W)  Interrupt Active bit Register */
 417:C:/Users/Yushev/git/optiga-trust-qi/projects/xmc4700_relax_kit/common/Libraries/CMSIS/Include\core_cm4.h ****         uint32_t RESERVED4[56U];
 418:C:/Users/Yushev/git/optiga-trust-qi/projects/xmc4700_relax_kit/common/Libraries/CMSIS/Include\core_cm4.h ****   __IOM uint8_t  IP[240U];               /*!< Offset: 0x300 (R/W)  Interrupt Priority Register (8Bi
 419:C:/Users/Yushev/git/optiga-trust-qi/projects/xmc4700_relax_kit/common/Libraries/CMSIS/Include\core_cm4.h ****         uint32_t RESERVED5[644U];
 420:C:/Users/Yushev/git/optiga-trust-qi/projects/xmc4700_relax_kit/common/Libraries/CMSIS/Include\core_cm4.h ****   __OM  uint32_t STIR;                   /*!< Offset: 0xE00 ( /W)  Software Trigger Interrupt Regis
 421:C:/Users/Yushev/git/optiga-trust-qi/projects/xmc4700_relax_kit/common/Libraries/CMSIS/Include\core_cm4.h **** }  NVIC_Type;
 422:C:/Users/Yushev/git/optiga-trust-qi/projects/xmc4700_relax_kit/common/Libraries/CMSIS/Include\core_cm4.h **** 
 423:C:/Users/Yushev/git/optiga-trust-qi/projects/xmc4700_relax_kit/common/Libraries/CMSIS/Include\core_cm4.h **** /* Software Triggered Interrupt Register Definitions */
 424:C:/Users/Yushev/git/optiga-trust-qi/projects/xmc4700_relax_kit/common/Libraries/CMSIS/Include\core_cm4.h **** #define NVIC_STIR_INTID_Pos                 0U                                         /*!< STIR: I
 425:C:/Users/Yushev/git/optiga-trust-qi/projects/xmc4700_relax_kit/common/Libraries/CMSIS/Include\core_cm4.h **** #define NVIC_STIR_INTID_Msk                (0x1FFUL /*<< NVIC_STIR_INTID_Pos*/)        /*!< STIR: I
 426:C:/Users/Yushev/git/optiga-trust-qi/projects/xmc4700_relax_kit/common/Libraries/CMSIS/Include\core_cm4.h **** 
 427:C:/Users/Yushev/git/optiga-trust-qi/projects/xmc4700_relax_kit/common/Libraries/CMSIS/Include\core_cm4.h **** /*@} end of group CMSIS_NVIC */
 428:C:/Users/Yushev/git/optiga-trust-qi/projects/xmc4700_relax_kit/common/Libraries/CMSIS/Include\core_cm4.h **** 
 429:C:/Users/Yushev/git/optiga-trust-qi/projects/xmc4700_relax_kit/common/Libraries/CMSIS/Include\core_cm4.h **** 
 430:C:/Users/Yushev/git/optiga-trust-qi/projects/xmc4700_relax_kit/common/Libraries/CMSIS/Include\core_cm4.h **** /**
 431:C:/Users/Yushev/git/optiga-trust-qi/projects/xmc4700_relax_kit/common/Libraries/CMSIS/Include\core_cm4.h ****   \ingroup  CMSIS_core_register
 432:C:/Users/Yushev/git/optiga-trust-qi/projects/xmc4700_relax_kit/common/Libraries/CMSIS/Include\core_cm4.h ****   \defgroup CMSIS_SCB     System Control Block (SCB)
 433:C:/Users/Yushev/git/optiga-trust-qi/projects/xmc4700_relax_kit/common/Libraries/CMSIS/Include\core_cm4.h ****   \brief    Type definitions for the System Control Block Registers
 434:C:/Users/Yushev/git/optiga-trust-qi/projects/xmc4700_relax_kit/common/Libraries/CMSIS/Include\core_cm4.h ****   @{
 435:C:/Users/Yushev/git/optiga-trust-qi/projects/xmc4700_relax_kit/common/Libraries/CMSIS/Include\core_cm4.h ****  */
 436:C:/Users/Yushev/git/optiga-trust-qi/projects/xmc4700_relax_kit/common/Libraries/CMSIS/Include\core_cm4.h **** 
 437:C:/Users/Yushev/git/optiga-trust-qi/projects/xmc4700_relax_kit/common/Libraries/CMSIS/Include\core_cm4.h **** /**
 438:C:/Users/Yushev/git/optiga-trust-qi/projects/xmc4700_relax_kit/common/Libraries/CMSIS/Include\core_cm4.h ****   \brief  Structure type to access the System Control Block (SCB).
 439:C:/Users/Yushev/git/optiga-trust-qi/projects/xmc4700_relax_kit/common/Libraries/CMSIS/Include\core_cm4.h ****  */
 440:C:/Users/Yushev/git/optiga-trust-qi/projects/xmc4700_relax_kit/common/Libraries/CMSIS/Include\core_cm4.h **** typedef struct
 441:C:/Users/Yushev/git/optiga-trust-qi/projects/xmc4700_relax_kit/common/Libraries/CMSIS/Include\core_cm4.h **** {
 442:C:/Users/Yushev/git/optiga-trust-qi/projects/xmc4700_relax_kit/common/Libraries/CMSIS/Include\core_cm4.h ****   __IM  uint32_t CPUID;                  /*!< Offset: 0x000 (R/ )  CPUID Base Register */
 443:C:/Users/Yushev/git/optiga-trust-qi/projects/xmc4700_relax_kit/common/Libraries/CMSIS/Include\core_cm4.h ****   __IOM uint32_t ICSR;                   /*!< Offset: 0x004 (R/W)  Interrupt Control and State Regi
 444:C:/Users/Yushev/git/optiga-trust-qi/projects/xmc4700_relax_kit/common/Libraries/CMSIS/Include\core_cm4.h ****   __IOM uint32_t VTOR;                   /*!< Offset: 0x008 (R/W)  Vector Table Offset Register */
 445:C:/Users/Yushev/git/optiga-trust-qi/projects/xmc4700_relax_kit/common/Libraries/CMSIS/Include\core_cm4.h ****   __IOM uint32_t AIRCR;                  /*!< Offset: 0x00C (R/W)  Application Interrupt and Reset 
 446:C:/Users/Yushev/git/optiga-trust-qi/projects/xmc4700_relax_kit/common/Libraries/CMSIS/Include\core_cm4.h ****   __IOM uint32_t SCR;                    /*!< Offset: 0x010 (R/W)  System Control Register */
 447:C:/Users/Yushev/git/optiga-trust-qi/projects/xmc4700_relax_kit/common/Libraries/CMSIS/Include\core_cm4.h ****   __IOM uint32_t CCR;                    /*!< Offset: 0x014 (R/W)  Configuration Control Register *
 448:C:/Users/Yushev/git/optiga-trust-qi/projects/xmc4700_relax_kit/common/Libraries/CMSIS/Include\core_cm4.h ****   __IOM uint8_t  SHP[12U];               /*!< Offset: 0x018 (R/W)  System Handlers Priority Registe
 449:C:/Users/Yushev/git/optiga-trust-qi/projects/xmc4700_relax_kit/common/Libraries/CMSIS/Include\core_cm4.h ****   __IOM uint32_t SHCSR;                  /*!< Offset: 0x024 (R/W)  System Handler Control and State
 450:C:/Users/Yushev/git/optiga-trust-qi/projects/xmc4700_relax_kit/common/Libraries/CMSIS/Include\core_cm4.h ****   __IOM uint32_t CFSR;                   /*!< Offset: 0x028 (R/W)  Configurable Fault Status Regist
 451:C:/Users/Yushev/git/optiga-trust-qi/projects/xmc4700_relax_kit/common/Libraries/CMSIS/Include\core_cm4.h ****   __IOM uint32_t HFSR;                   /*!< Offset: 0x02C (R/W)  HardFault Status Register */
 452:C:/Users/Yushev/git/optiga-trust-qi/projects/xmc4700_relax_kit/common/Libraries/CMSIS/Include\core_cm4.h ****   __IOM uint32_t DFSR;                   /*!< Offset: 0x030 (R/W)  Debug Fault Status Register */
 453:C:/Users/Yushev/git/optiga-trust-qi/projects/xmc4700_relax_kit/common/Libraries/CMSIS/Include\core_cm4.h ****   __IOM uint32_t MMFAR;                  /*!< Offset: 0x034 (R/W)  MemManage Fault Address Register
 454:C:/Users/Yushev/git/optiga-trust-qi/projects/xmc4700_relax_kit/common/Libraries/CMSIS/Include\core_cm4.h ****   __IOM uint32_t BFAR;                   /*!< Offset: 0x038 (R/W)  BusFault Address Register */
 455:C:/Users/Yushev/git/optiga-trust-qi/projects/xmc4700_relax_kit/common/Libraries/CMSIS/Include\core_cm4.h ****   __IOM uint32_t AFSR;                   /*!< Offset: 0x03C (R/W)  Auxiliary Fault Status Register 
 456:C:/Users/Yushev/git/optiga-trust-qi/projects/xmc4700_relax_kit/common/Libraries/CMSIS/Include\core_cm4.h ****   __IM  uint32_t PFR[2U];                /*!< Offset: 0x040 (R/ )  Processor Feature Register */
 457:C:/Users/Yushev/git/optiga-trust-qi/projects/xmc4700_relax_kit/common/Libraries/CMSIS/Include\core_cm4.h ****   __IM  uint32_t DFR;                    /*!< Offset: 0x048 (R/ )  Debug Feature Register */
 458:C:/Users/Yushev/git/optiga-trust-qi/projects/xmc4700_relax_kit/common/Libraries/CMSIS/Include\core_cm4.h ****   __IM  uint32_t ADR;                    /*!< Offset: 0x04C (R/ )  Auxiliary Feature Register */
 459:C:/Users/Yushev/git/optiga-trust-qi/projects/xmc4700_relax_kit/common/Libraries/CMSIS/Include\core_cm4.h ****   __IM  uint32_t MMFR[4U];               /*!< Offset: 0x050 (R/ )  Memory Model Feature Register */
 460:C:/Users/Yushev/git/optiga-trust-qi/projects/xmc4700_relax_kit/common/Libraries/CMSIS/Include\core_cm4.h ****   __IM  uint32_t ISAR[5U];               /*!< Offset: 0x060 (R/ )  Instruction Set Attributes Regis
 461:C:/Users/Yushev/git/optiga-trust-qi/projects/xmc4700_relax_kit/common/Libraries/CMSIS/Include\core_cm4.h ****         uint32_t RESERVED0[5U];
 462:C:/Users/Yushev/git/optiga-trust-qi/projects/xmc4700_relax_kit/common/Libraries/CMSIS/Include\core_cm4.h ****   __IOM uint32_t CPACR;                  /*!< Offset: 0x088 (R/W)  Coprocessor Access Control Regis
 463:C:/Users/Yushev/git/optiga-trust-qi/projects/xmc4700_relax_kit/common/Libraries/CMSIS/Include\core_cm4.h **** } SCB_Type;
 464:C:/Users/Yushev/git/optiga-trust-qi/projects/xmc4700_relax_kit/common/Libraries/CMSIS/Include\core_cm4.h **** 
 465:C:/Users/Yushev/git/optiga-trust-qi/projects/xmc4700_relax_kit/common/Libraries/CMSIS/Include\core_cm4.h **** /* SCB CPUID Register Definitions */
 466:C:/Users/Yushev/git/optiga-trust-qi/projects/xmc4700_relax_kit/common/Libraries/CMSIS/Include\core_cm4.h **** #define SCB_CPUID_IMPLEMENTER_Pos          24U                                            /*!< SCB 
 467:C:/Users/Yushev/git/optiga-trust-qi/projects/xmc4700_relax_kit/common/Libraries/CMSIS/Include\core_cm4.h **** #define SCB_CPUID_IMPLEMENTER_Msk          (0xFFUL << SCB_CPUID_IMPLEMENTER_Pos)          /*!< SCB 
 468:C:/Users/Yushev/git/optiga-trust-qi/projects/xmc4700_relax_kit/common/Libraries/CMSIS/Include\core_cm4.h **** 
 469:C:/Users/Yushev/git/optiga-trust-qi/projects/xmc4700_relax_kit/common/Libraries/CMSIS/Include\core_cm4.h **** #define SCB_CPUID_VARIANT_Pos              20U                                            /*!< SCB 
 470:C:/Users/Yushev/git/optiga-trust-qi/projects/xmc4700_relax_kit/common/Libraries/CMSIS/Include\core_cm4.h **** #define SCB_CPUID_VARIANT_Msk              (0xFUL << SCB_CPUID_VARIANT_Pos)               /*!< SCB 
 471:C:/Users/Yushev/git/optiga-trust-qi/projects/xmc4700_relax_kit/common/Libraries/CMSIS/Include\core_cm4.h **** 
 472:C:/Users/Yushev/git/optiga-trust-qi/projects/xmc4700_relax_kit/common/Libraries/CMSIS/Include\core_cm4.h **** #define SCB_CPUID_ARCHITECTURE_Pos         16U                                            /*!< SCB 
 473:C:/Users/Yushev/git/optiga-trust-qi/projects/xmc4700_relax_kit/common/Libraries/CMSIS/Include\core_cm4.h **** #define SCB_CPUID_ARCHITECTURE_Msk         (0xFUL << SCB_CPUID_ARCHITECTURE_Pos)          /*!< SCB 
 474:C:/Users/Yushev/git/optiga-trust-qi/projects/xmc4700_relax_kit/common/Libraries/CMSIS/Include\core_cm4.h **** 
 475:C:/Users/Yushev/git/optiga-trust-qi/projects/xmc4700_relax_kit/common/Libraries/CMSIS/Include\core_cm4.h **** #define SCB_CPUID_PARTNO_Pos                4U                                            /*!< SCB 
 476:C:/Users/Yushev/git/optiga-trust-qi/projects/xmc4700_relax_kit/common/Libraries/CMSIS/Include\core_cm4.h **** #define SCB_CPUID_PARTNO_Msk               (0xFFFUL << SCB_CPUID_PARTNO_Pos)              /*!< SCB 
 477:C:/Users/Yushev/git/optiga-trust-qi/projects/xmc4700_relax_kit/common/Libraries/CMSIS/Include\core_cm4.h **** 
 478:C:/Users/Yushev/git/optiga-trust-qi/projects/xmc4700_relax_kit/common/Libraries/CMSIS/Include\core_cm4.h **** #define SCB_CPUID_REVISION_Pos              0U                                            /*!< SCB 
 479:C:/Users/Yushev/git/optiga-trust-qi/projects/xmc4700_relax_kit/common/Libraries/CMSIS/Include\core_cm4.h **** #define SCB_CPUID_REVISION_Msk             (0xFUL /*<< SCB_CPUID_REVISION_Pos*/)          /*!< SCB 
 480:C:/Users/Yushev/git/optiga-trust-qi/projects/xmc4700_relax_kit/common/Libraries/CMSIS/Include\core_cm4.h **** 
 481:C:/Users/Yushev/git/optiga-trust-qi/projects/xmc4700_relax_kit/common/Libraries/CMSIS/Include\core_cm4.h **** /* SCB Interrupt Control State Register Definitions */
 482:C:/Users/Yushev/git/optiga-trust-qi/projects/xmc4700_relax_kit/common/Libraries/CMSIS/Include\core_cm4.h **** #define SCB_ICSR_NMIPENDSET_Pos            31U                                            /*!< SCB 
 483:C:/Users/Yushev/git/optiga-trust-qi/projects/xmc4700_relax_kit/common/Libraries/CMSIS/Include\core_cm4.h **** #define SCB_ICSR_NMIPENDSET_Msk            (1UL << SCB_ICSR_NMIPENDSET_Pos)               /*!< SCB 
 484:C:/Users/Yushev/git/optiga-trust-qi/projects/xmc4700_relax_kit/common/Libraries/CMSIS/Include\core_cm4.h **** 
 485:C:/Users/Yushev/git/optiga-trust-qi/projects/xmc4700_relax_kit/common/Libraries/CMSIS/Include\core_cm4.h **** #define SCB_ICSR_PENDSVSET_Pos             28U                                            /*!< SCB 
 486:C:/Users/Yushev/git/optiga-trust-qi/projects/xmc4700_relax_kit/common/Libraries/CMSIS/Include\core_cm4.h **** #define SCB_ICSR_PENDSVSET_Msk             (1UL << SCB_ICSR_PENDSVSET_Pos)                /*!< SCB 
 487:C:/Users/Yushev/git/optiga-trust-qi/projects/xmc4700_relax_kit/common/Libraries/CMSIS/Include\core_cm4.h **** 
 488:C:/Users/Yushev/git/optiga-trust-qi/projects/xmc4700_relax_kit/common/Libraries/CMSIS/Include\core_cm4.h **** #define SCB_ICSR_PENDSVCLR_Pos             27U                                            /*!< SCB 
 489:C:/Users/Yushev/git/optiga-trust-qi/projects/xmc4700_relax_kit/common/Libraries/CMSIS/Include\core_cm4.h **** #define SCB_ICSR_PENDSVCLR_Msk             (1UL << SCB_ICSR_PENDSVCLR_Pos)                /*!< SCB 
 490:C:/Users/Yushev/git/optiga-trust-qi/projects/xmc4700_relax_kit/common/Libraries/CMSIS/Include\core_cm4.h **** 
 491:C:/Users/Yushev/git/optiga-trust-qi/projects/xmc4700_relax_kit/common/Libraries/CMSIS/Include\core_cm4.h **** #define SCB_ICSR_PENDSTSET_Pos             26U                                            /*!< SCB 
 492:C:/Users/Yushev/git/optiga-trust-qi/projects/xmc4700_relax_kit/common/Libraries/CMSIS/Include\core_cm4.h **** #define SCB_ICSR_PENDSTSET_Msk             (1UL << SCB_ICSR_PENDSTSET_Pos)                /*!< SCB 
 493:C:/Users/Yushev/git/optiga-trust-qi/projects/xmc4700_relax_kit/common/Libraries/CMSIS/Include\core_cm4.h **** 
 494:C:/Users/Yushev/git/optiga-trust-qi/projects/xmc4700_relax_kit/common/Libraries/CMSIS/Include\core_cm4.h **** #define SCB_ICSR_PENDSTCLR_Pos             25U                                            /*!< SCB 
 495:C:/Users/Yushev/git/optiga-trust-qi/projects/xmc4700_relax_kit/common/Libraries/CMSIS/Include\core_cm4.h **** #define SCB_ICSR_PENDSTCLR_Msk             (1UL << SCB_ICSR_PENDSTCLR_Pos)                /*!< SCB 
 496:C:/Users/Yushev/git/optiga-trust-qi/projects/xmc4700_relax_kit/common/Libraries/CMSIS/Include\core_cm4.h **** 
 497:C:/Users/Yushev/git/optiga-trust-qi/projects/xmc4700_relax_kit/common/Libraries/CMSIS/Include\core_cm4.h **** #define SCB_ICSR_ISRPREEMPT_Pos            23U                                            /*!< SCB 
 498:C:/Users/Yushev/git/optiga-trust-qi/projects/xmc4700_relax_kit/common/Libraries/CMSIS/Include\core_cm4.h **** #define SCB_ICSR_ISRPREEMPT_Msk            (1UL << SCB_ICSR_ISRPREEMPT_Pos)               /*!< SCB 
 499:C:/Users/Yushev/git/optiga-trust-qi/projects/xmc4700_relax_kit/common/Libraries/CMSIS/Include\core_cm4.h **** 
 500:C:/Users/Yushev/git/optiga-trust-qi/projects/xmc4700_relax_kit/common/Libraries/CMSIS/Include\core_cm4.h **** #define SCB_ICSR_ISRPENDING_Pos            22U                                            /*!< SCB 
 501:C:/Users/Yushev/git/optiga-trust-qi/projects/xmc4700_relax_kit/common/Libraries/CMSIS/Include\core_cm4.h **** #define SCB_ICSR_ISRPENDING_Msk            (1UL << SCB_ICSR_ISRPENDING_Pos)               /*!< SCB 
 502:C:/Users/Yushev/git/optiga-trust-qi/projects/xmc4700_relax_kit/common/Libraries/CMSIS/Include\core_cm4.h **** 
 503:C:/Users/Yushev/git/optiga-trust-qi/projects/xmc4700_relax_kit/common/Libraries/CMSIS/Include\core_cm4.h **** #define SCB_ICSR_VECTPENDING_Pos           12U                                            /*!< SCB 
 504:C:/Users/Yushev/git/optiga-trust-qi/projects/xmc4700_relax_kit/common/Libraries/CMSIS/Include\core_cm4.h **** #define SCB_ICSR_VECTPENDING_Msk           (0x1FFUL << SCB_ICSR_VECTPENDING_Pos)          /*!< SCB 
 505:C:/Users/Yushev/git/optiga-trust-qi/projects/xmc4700_relax_kit/common/Libraries/CMSIS/Include\core_cm4.h **** 
 506:C:/Users/Yushev/git/optiga-trust-qi/projects/xmc4700_relax_kit/common/Libraries/CMSIS/Include\core_cm4.h **** #define SCB_ICSR_RETTOBASE_Pos             11U                                            /*!< SCB 
 507:C:/Users/Yushev/git/optiga-trust-qi/projects/xmc4700_relax_kit/common/Libraries/CMSIS/Include\core_cm4.h **** #define SCB_ICSR_RETTOBASE_Msk             (1UL << SCB_ICSR_RETTOBASE_Pos)                /*!< SCB 
 508:C:/Users/Yushev/git/optiga-trust-qi/projects/xmc4700_relax_kit/common/Libraries/CMSIS/Include\core_cm4.h **** 
 509:C:/Users/Yushev/git/optiga-trust-qi/projects/xmc4700_relax_kit/common/Libraries/CMSIS/Include\core_cm4.h **** #define SCB_ICSR_VECTACTIVE_Pos             0U                                            /*!< SCB 
 510:C:/Users/Yushev/git/optiga-trust-qi/projects/xmc4700_relax_kit/common/Libraries/CMSIS/Include\core_cm4.h **** #define SCB_ICSR_VECTACTIVE_Msk            (0x1FFUL /*<< SCB_ICSR_VECTACTIVE_Pos*/)       /*!< SCB 
 511:C:/Users/Yushev/git/optiga-trust-qi/projects/xmc4700_relax_kit/common/Libraries/CMSIS/Include\core_cm4.h **** 
 512:C:/Users/Yushev/git/optiga-trust-qi/projects/xmc4700_relax_kit/common/Libraries/CMSIS/Include\core_cm4.h **** /* SCB Vector Table Offset Register Definitions */
 513:C:/Users/Yushev/git/optiga-trust-qi/projects/xmc4700_relax_kit/common/Libraries/CMSIS/Include\core_cm4.h **** #define SCB_VTOR_TBLOFF_Pos                 7U                                            /*!< SCB 
 514:C:/Users/Yushev/git/optiga-trust-qi/projects/xmc4700_relax_kit/common/Libraries/CMSIS/Include\core_cm4.h **** #define SCB_VTOR_TBLOFF_Msk                (0x1FFFFFFUL << SCB_VTOR_TBLOFF_Pos)           /*!< SCB 
 515:C:/Users/Yushev/git/optiga-trust-qi/projects/xmc4700_relax_kit/common/Libraries/CMSIS/Include\core_cm4.h **** 
 516:C:/Users/Yushev/git/optiga-trust-qi/projects/xmc4700_relax_kit/common/Libraries/CMSIS/Include\core_cm4.h **** /* SCB Application Interrupt and Reset Control Register Definitions */
 517:C:/Users/Yushev/git/optiga-trust-qi/projects/xmc4700_relax_kit/common/Libraries/CMSIS/Include\core_cm4.h **** #define SCB_AIRCR_VECTKEY_Pos              16U                                            /*!< SCB 
 518:C:/Users/Yushev/git/optiga-trust-qi/projects/xmc4700_relax_kit/common/Libraries/CMSIS/Include\core_cm4.h **** #define SCB_AIRCR_VECTKEY_Msk              (0xFFFFUL << SCB_AIRCR_VECTKEY_Pos)            /*!< SCB 
 519:C:/Users/Yushev/git/optiga-trust-qi/projects/xmc4700_relax_kit/common/Libraries/CMSIS/Include\core_cm4.h **** 
 520:C:/Users/Yushev/git/optiga-trust-qi/projects/xmc4700_relax_kit/common/Libraries/CMSIS/Include\core_cm4.h **** #define SCB_AIRCR_VECTKEYSTAT_Pos          16U                                            /*!< SCB 
 521:C:/Users/Yushev/git/optiga-trust-qi/projects/xmc4700_relax_kit/common/Libraries/CMSIS/Include\core_cm4.h **** #define SCB_AIRCR_VECTKEYSTAT_Msk          (0xFFFFUL << SCB_AIRCR_VECTKEYSTAT_Pos)        /*!< SCB 
 522:C:/Users/Yushev/git/optiga-trust-qi/projects/xmc4700_relax_kit/common/Libraries/CMSIS/Include\core_cm4.h **** 
 523:C:/Users/Yushev/git/optiga-trust-qi/projects/xmc4700_relax_kit/common/Libraries/CMSIS/Include\core_cm4.h **** #define SCB_AIRCR_ENDIANESS_Pos            15U                                            /*!< SCB 
 524:C:/Users/Yushev/git/optiga-trust-qi/projects/xmc4700_relax_kit/common/Libraries/CMSIS/Include\core_cm4.h **** #define SCB_AIRCR_ENDIANESS_Msk            (1UL << SCB_AIRCR_ENDIANESS_Pos)               /*!< SCB 
 525:C:/Users/Yushev/git/optiga-trust-qi/projects/xmc4700_relax_kit/common/Libraries/CMSIS/Include\core_cm4.h **** 
 526:C:/Users/Yushev/git/optiga-trust-qi/projects/xmc4700_relax_kit/common/Libraries/CMSIS/Include\core_cm4.h **** #define SCB_AIRCR_PRIGROUP_Pos              8U                                            /*!< SCB 
 527:C:/Users/Yushev/git/optiga-trust-qi/projects/xmc4700_relax_kit/common/Libraries/CMSIS/Include\core_cm4.h **** #define SCB_AIRCR_PRIGROUP_Msk             (7UL << SCB_AIRCR_PRIGROUP_Pos)                /*!< SCB 
 528:C:/Users/Yushev/git/optiga-trust-qi/projects/xmc4700_relax_kit/common/Libraries/CMSIS/Include\core_cm4.h **** 
 529:C:/Users/Yushev/git/optiga-trust-qi/projects/xmc4700_relax_kit/common/Libraries/CMSIS/Include\core_cm4.h **** #define SCB_AIRCR_SYSRESETREQ_Pos           2U                                            /*!< SCB 
 530:C:/Users/Yushev/git/optiga-trust-qi/projects/xmc4700_relax_kit/common/Libraries/CMSIS/Include\core_cm4.h **** #define SCB_AIRCR_SYSRESETREQ_Msk          (1UL << SCB_AIRCR_SYSRESETREQ_Pos)             /*!< SCB 
 531:C:/Users/Yushev/git/optiga-trust-qi/projects/xmc4700_relax_kit/common/Libraries/CMSIS/Include\core_cm4.h **** 
 532:C:/Users/Yushev/git/optiga-trust-qi/projects/xmc4700_relax_kit/common/Libraries/CMSIS/Include\core_cm4.h **** #define SCB_AIRCR_VECTCLRACTIVE_Pos         1U                                            /*!< SCB 
 533:C:/Users/Yushev/git/optiga-trust-qi/projects/xmc4700_relax_kit/common/Libraries/CMSIS/Include\core_cm4.h **** #define SCB_AIRCR_VECTCLRACTIVE_Msk        (1UL << SCB_AIRCR_VECTCLRACTIVE_Pos)           /*!< SCB 
 534:C:/Users/Yushev/git/optiga-trust-qi/projects/xmc4700_relax_kit/common/Libraries/CMSIS/Include\core_cm4.h **** 
 535:C:/Users/Yushev/git/optiga-trust-qi/projects/xmc4700_relax_kit/common/Libraries/CMSIS/Include\core_cm4.h **** #define SCB_AIRCR_VECTRESET_Pos             0U                                            /*!< SCB 
 536:C:/Users/Yushev/git/optiga-trust-qi/projects/xmc4700_relax_kit/common/Libraries/CMSIS/Include\core_cm4.h **** #define SCB_AIRCR_VECTRESET_Msk            (1UL /*<< SCB_AIRCR_VECTRESET_Pos*/)           /*!< SCB 
 537:C:/Users/Yushev/git/optiga-trust-qi/projects/xmc4700_relax_kit/common/Libraries/CMSIS/Include\core_cm4.h **** 
 538:C:/Users/Yushev/git/optiga-trust-qi/projects/xmc4700_relax_kit/common/Libraries/CMSIS/Include\core_cm4.h **** /* SCB System Control Register Definitions */
 539:C:/Users/Yushev/git/optiga-trust-qi/projects/xmc4700_relax_kit/common/Libraries/CMSIS/Include\core_cm4.h **** #define SCB_SCR_SEVONPEND_Pos               4U                                            /*!< SCB 
 540:C:/Users/Yushev/git/optiga-trust-qi/projects/xmc4700_relax_kit/common/Libraries/CMSIS/Include\core_cm4.h **** #define SCB_SCR_SEVONPEND_Msk              (1UL << SCB_SCR_SEVONPEND_Pos)                 /*!< SCB 
 541:C:/Users/Yushev/git/optiga-trust-qi/projects/xmc4700_relax_kit/common/Libraries/CMSIS/Include\core_cm4.h **** 
 542:C:/Users/Yushev/git/optiga-trust-qi/projects/xmc4700_relax_kit/common/Libraries/CMSIS/Include\core_cm4.h **** #define SCB_SCR_SLEEPDEEP_Pos               2U                                            /*!< SCB 
 543:C:/Users/Yushev/git/optiga-trust-qi/projects/xmc4700_relax_kit/common/Libraries/CMSIS/Include\core_cm4.h **** #define SCB_SCR_SLEEPDEEP_Msk              (1UL << SCB_SCR_SLEEPDEEP_Pos)                 /*!< SCB 
 544:C:/Users/Yushev/git/optiga-trust-qi/projects/xmc4700_relax_kit/common/Libraries/CMSIS/Include\core_cm4.h **** 
 545:C:/Users/Yushev/git/optiga-trust-qi/projects/xmc4700_relax_kit/common/Libraries/CMSIS/Include\core_cm4.h **** #define SCB_SCR_SLEEPONEXIT_Pos             1U                                            /*!< SCB 
 546:C:/Users/Yushev/git/optiga-trust-qi/projects/xmc4700_relax_kit/common/Libraries/CMSIS/Include\core_cm4.h **** #define SCB_SCR_SLEEPONEXIT_Msk            (1UL << SCB_SCR_SLEEPONEXIT_Pos)               /*!< SCB 
 547:C:/Users/Yushev/git/optiga-trust-qi/projects/xmc4700_relax_kit/common/Libraries/CMSIS/Include\core_cm4.h **** 
 548:C:/Users/Yushev/git/optiga-trust-qi/projects/xmc4700_relax_kit/common/Libraries/CMSIS/Include\core_cm4.h **** /* SCB Configuration Control Register Definitions */
 549:C:/Users/Yushev/git/optiga-trust-qi/projects/xmc4700_relax_kit/common/Libraries/CMSIS/Include\core_cm4.h **** #define SCB_CCR_STKALIGN_Pos                9U                                            /*!< SCB 
 550:C:/Users/Yushev/git/optiga-trust-qi/projects/xmc4700_relax_kit/common/Libraries/CMSIS/Include\core_cm4.h **** #define SCB_CCR_STKALIGN_Msk               (1UL << SCB_CCR_STKALIGN_Pos)                  /*!< SCB 
 551:C:/Users/Yushev/git/optiga-trust-qi/projects/xmc4700_relax_kit/common/Libraries/CMSIS/Include\core_cm4.h **** 
 552:C:/Users/Yushev/git/optiga-trust-qi/projects/xmc4700_relax_kit/common/Libraries/CMSIS/Include\core_cm4.h **** #define SCB_CCR_BFHFNMIGN_Pos               8U                                            /*!< SCB 
 553:C:/Users/Yushev/git/optiga-trust-qi/projects/xmc4700_relax_kit/common/Libraries/CMSIS/Include\core_cm4.h **** #define SCB_CCR_BFHFNMIGN_Msk              (1UL << SCB_CCR_BFHFNMIGN_Pos)                 /*!< SCB 
 554:C:/Users/Yushev/git/optiga-trust-qi/projects/xmc4700_relax_kit/common/Libraries/CMSIS/Include\core_cm4.h **** 
 555:C:/Users/Yushev/git/optiga-trust-qi/projects/xmc4700_relax_kit/common/Libraries/CMSIS/Include\core_cm4.h **** #define SCB_CCR_DIV_0_TRP_Pos               4U                                            /*!< SCB 
 556:C:/Users/Yushev/git/optiga-trust-qi/projects/xmc4700_relax_kit/common/Libraries/CMSIS/Include\core_cm4.h **** #define SCB_CCR_DIV_0_TRP_Msk              (1UL << SCB_CCR_DIV_0_TRP_Pos)                 /*!< SCB 
 557:C:/Users/Yushev/git/optiga-trust-qi/projects/xmc4700_relax_kit/common/Libraries/CMSIS/Include\core_cm4.h **** 
 558:C:/Users/Yushev/git/optiga-trust-qi/projects/xmc4700_relax_kit/common/Libraries/CMSIS/Include\core_cm4.h **** #define SCB_CCR_UNALIGN_TRP_Pos             3U                                            /*!< SCB 
 559:C:/Users/Yushev/git/optiga-trust-qi/projects/xmc4700_relax_kit/common/Libraries/CMSIS/Include\core_cm4.h **** #define SCB_CCR_UNALIGN_TRP_Msk            (1UL << SCB_CCR_UNALIGN_TRP_Pos)               /*!< SCB 
 560:C:/Users/Yushev/git/optiga-trust-qi/projects/xmc4700_relax_kit/common/Libraries/CMSIS/Include\core_cm4.h **** 
 561:C:/Users/Yushev/git/optiga-trust-qi/projects/xmc4700_relax_kit/common/Libraries/CMSIS/Include\core_cm4.h **** #define SCB_CCR_USERSETMPEND_Pos            1U                                            /*!< SCB 
 562:C:/Users/Yushev/git/optiga-trust-qi/projects/xmc4700_relax_kit/common/Libraries/CMSIS/Include\core_cm4.h **** #define SCB_CCR_USERSETMPEND_Msk           (1UL << SCB_CCR_USERSETMPEND_Pos)              /*!< SCB 
 563:C:/Users/Yushev/git/optiga-trust-qi/projects/xmc4700_relax_kit/common/Libraries/CMSIS/Include\core_cm4.h **** 
 564:C:/Users/Yushev/git/optiga-trust-qi/projects/xmc4700_relax_kit/common/Libraries/CMSIS/Include\core_cm4.h **** #define SCB_CCR_NONBASETHRDENA_Pos          0U                                            /*!< SCB 
 565:C:/Users/Yushev/git/optiga-trust-qi/projects/xmc4700_relax_kit/common/Libraries/CMSIS/Include\core_cm4.h **** #define SCB_CCR_NONBASETHRDENA_Msk         (1UL /*<< SCB_CCR_NONBASETHRDENA_Pos*/)        /*!< SCB 
 566:C:/Users/Yushev/git/optiga-trust-qi/projects/xmc4700_relax_kit/common/Libraries/CMSIS/Include\core_cm4.h **** 
 567:C:/Users/Yushev/git/optiga-trust-qi/projects/xmc4700_relax_kit/common/Libraries/CMSIS/Include\core_cm4.h **** /* SCB System Handler Control and State Register Definitions */
 568:C:/Users/Yushev/git/optiga-trust-qi/projects/xmc4700_relax_kit/common/Libraries/CMSIS/Include\core_cm4.h **** #define SCB_SHCSR_USGFAULTENA_Pos          18U                                            /*!< SCB 
 569:C:/Users/Yushev/git/optiga-trust-qi/projects/xmc4700_relax_kit/common/Libraries/CMSIS/Include\core_cm4.h **** #define SCB_SHCSR_USGFAULTENA_Msk          (1UL << SCB_SHCSR_USGFAULTENA_Pos)             /*!< SCB 
 570:C:/Users/Yushev/git/optiga-trust-qi/projects/xmc4700_relax_kit/common/Libraries/CMSIS/Include\core_cm4.h **** 
 571:C:/Users/Yushev/git/optiga-trust-qi/projects/xmc4700_relax_kit/common/Libraries/CMSIS/Include\core_cm4.h **** #define SCB_SHCSR_BUSFAULTENA_Pos          17U                                            /*!< SCB 
 572:C:/Users/Yushev/git/optiga-trust-qi/projects/xmc4700_relax_kit/common/Libraries/CMSIS/Include\core_cm4.h **** #define SCB_SHCSR_BUSFAULTENA_Msk          (1UL << SCB_SHCSR_BUSFAULTENA_Pos)             /*!< SCB 
 573:C:/Users/Yushev/git/optiga-trust-qi/projects/xmc4700_relax_kit/common/Libraries/CMSIS/Include\core_cm4.h **** 
 574:C:/Users/Yushev/git/optiga-trust-qi/projects/xmc4700_relax_kit/common/Libraries/CMSIS/Include\core_cm4.h **** #define SCB_SHCSR_MEMFAULTENA_Pos          16U                                            /*!< SCB 
 575:C:/Users/Yushev/git/optiga-trust-qi/projects/xmc4700_relax_kit/common/Libraries/CMSIS/Include\core_cm4.h **** #define SCB_SHCSR_MEMFAULTENA_Msk          (1UL << SCB_SHCSR_MEMFAULTENA_Pos)             /*!< SCB 
 576:C:/Users/Yushev/git/optiga-trust-qi/projects/xmc4700_relax_kit/common/Libraries/CMSIS/Include\core_cm4.h **** 
 577:C:/Users/Yushev/git/optiga-trust-qi/projects/xmc4700_relax_kit/common/Libraries/CMSIS/Include\core_cm4.h **** #define SCB_SHCSR_SVCALLPENDED_Pos         15U                                            /*!< SCB 
 578:C:/Users/Yushev/git/optiga-trust-qi/projects/xmc4700_relax_kit/common/Libraries/CMSIS/Include\core_cm4.h **** #define SCB_SHCSR_SVCALLPENDED_Msk         (1UL << SCB_SHCSR_SVCALLPENDED_Pos)            /*!< SCB 
 579:C:/Users/Yushev/git/optiga-trust-qi/projects/xmc4700_relax_kit/common/Libraries/CMSIS/Include\core_cm4.h **** 
 580:C:/Users/Yushev/git/optiga-trust-qi/projects/xmc4700_relax_kit/common/Libraries/CMSIS/Include\core_cm4.h **** #define SCB_SHCSR_BUSFAULTPENDED_Pos       14U                                            /*!< SCB 
 581:C:/Users/Yushev/git/optiga-trust-qi/projects/xmc4700_relax_kit/common/Libraries/CMSIS/Include\core_cm4.h **** #define SCB_SHCSR_BUSFAULTPENDED_Msk       (1UL << SCB_SHCSR_BUSFAULTPENDED_Pos)          /*!< SCB 
 582:C:/Users/Yushev/git/optiga-trust-qi/projects/xmc4700_relax_kit/common/Libraries/CMSIS/Include\core_cm4.h **** 
 583:C:/Users/Yushev/git/optiga-trust-qi/projects/xmc4700_relax_kit/common/Libraries/CMSIS/Include\core_cm4.h **** #define SCB_SHCSR_MEMFAULTPENDED_Pos       13U                                            /*!< SCB 
 584:C:/Users/Yushev/git/optiga-trust-qi/projects/xmc4700_relax_kit/common/Libraries/CMSIS/Include\core_cm4.h **** #define SCB_SHCSR_MEMFAULTPENDED_Msk       (1UL << SCB_SHCSR_MEMFAULTPENDED_Pos)          /*!< SCB 
 585:C:/Users/Yushev/git/optiga-trust-qi/projects/xmc4700_relax_kit/common/Libraries/CMSIS/Include\core_cm4.h **** 
 586:C:/Users/Yushev/git/optiga-trust-qi/projects/xmc4700_relax_kit/common/Libraries/CMSIS/Include\core_cm4.h **** #define SCB_SHCSR_USGFAULTPENDED_Pos       12U                                            /*!< SCB 
 587:C:/Users/Yushev/git/optiga-trust-qi/projects/xmc4700_relax_kit/common/Libraries/CMSIS/Include\core_cm4.h **** #define SCB_SHCSR_USGFAULTPENDED_Msk       (1UL << SCB_SHCSR_USGFAULTPENDED_Pos)          /*!< SCB 
 588:C:/Users/Yushev/git/optiga-trust-qi/projects/xmc4700_relax_kit/common/Libraries/CMSIS/Include\core_cm4.h **** 
 589:C:/Users/Yushev/git/optiga-trust-qi/projects/xmc4700_relax_kit/common/Libraries/CMSIS/Include\core_cm4.h **** #define SCB_SHCSR_SYSTICKACT_Pos           11U                                            /*!< SCB 
 590:C:/Users/Yushev/git/optiga-trust-qi/projects/xmc4700_relax_kit/common/Libraries/CMSIS/Include\core_cm4.h **** #define SCB_SHCSR_SYSTICKACT_Msk           (1UL << SCB_SHCSR_SYSTICKACT_Pos)              /*!< SCB 
 591:C:/Users/Yushev/git/optiga-trust-qi/projects/xmc4700_relax_kit/common/Libraries/CMSIS/Include\core_cm4.h **** 
 592:C:/Users/Yushev/git/optiga-trust-qi/projects/xmc4700_relax_kit/common/Libraries/CMSIS/Include\core_cm4.h **** #define SCB_SHCSR_PENDSVACT_Pos            10U                                            /*!< SCB 
 593:C:/Users/Yushev/git/optiga-trust-qi/projects/xmc4700_relax_kit/common/Libraries/CMSIS/Include\core_cm4.h **** #define SCB_SHCSR_PENDSVACT_Msk            (1UL << SCB_SHCSR_PENDSVACT_Pos)               /*!< SCB 
 594:C:/Users/Yushev/git/optiga-trust-qi/projects/xmc4700_relax_kit/common/Libraries/CMSIS/Include\core_cm4.h **** 
 595:C:/Users/Yushev/git/optiga-trust-qi/projects/xmc4700_relax_kit/common/Libraries/CMSIS/Include\core_cm4.h **** #define SCB_SHCSR_MONITORACT_Pos            8U                                            /*!< SCB 
 596:C:/Users/Yushev/git/optiga-trust-qi/projects/xmc4700_relax_kit/common/Libraries/CMSIS/Include\core_cm4.h **** #define SCB_SHCSR_MONITORACT_Msk           (1UL << SCB_SHCSR_MONITORACT_Pos)              /*!< SCB 
 597:C:/Users/Yushev/git/optiga-trust-qi/projects/xmc4700_relax_kit/common/Libraries/CMSIS/Include\core_cm4.h **** 
 598:C:/Users/Yushev/git/optiga-trust-qi/projects/xmc4700_relax_kit/common/Libraries/CMSIS/Include\core_cm4.h **** #define SCB_SHCSR_SVCALLACT_Pos             7U                                            /*!< SCB 
 599:C:/Users/Yushev/git/optiga-trust-qi/projects/xmc4700_relax_kit/common/Libraries/CMSIS/Include\core_cm4.h **** #define SCB_SHCSR_SVCALLACT_Msk            (1UL << SCB_SHCSR_SVCALLACT_Pos)               /*!< SCB 
 600:C:/Users/Yushev/git/optiga-trust-qi/projects/xmc4700_relax_kit/common/Libraries/CMSIS/Include\core_cm4.h **** 
 601:C:/Users/Yushev/git/optiga-trust-qi/projects/xmc4700_relax_kit/common/Libraries/CMSIS/Include\core_cm4.h **** #define SCB_SHCSR_USGFAULTACT_Pos           3U                                            /*!< SCB 
 602:C:/Users/Yushev/git/optiga-trust-qi/projects/xmc4700_relax_kit/common/Libraries/CMSIS/Include\core_cm4.h **** #define SCB_SHCSR_USGFAULTACT_Msk          (1UL << SCB_SHCSR_USGFAULTACT_Pos)             /*!< SCB 
 603:C:/Users/Yushev/git/optiga-trust-qi/projects/xmc4700_relax_kit/common/Libraries/CMSIS/Include\core_cm4.h **** 
 604:C:/Users/Yushev/git/optiga-trust-qi/projects/xmc4700_relax_kit/common/Libraries/CMSIS/Include\core_cm4.h **** #define SCB_SHCSR_BUSFAULTACT_Pos           1U                                            /*!< SCB 
 605:C:/Users/Yushev/git/optiga-trust-qi/projects/xmc4700_relax_kit/common/Libraries/CMSIS/Include\core_cm4.h **** #define SCB_SHCSR_BUSFAULTACT_Msk          (1UL << SCB_SHCSR_BUSFAULTACT_Pos)             /*!< SCB 
 606:C:/Users/Yushev/git/optiga-trust-qi/projects/xmc4700_relax_kit/common/Libraries/CMSIS/Include\core_cm4.h **** 
 607:C:/Users/Yushev/git/optiga-trust-qi/projects/xmc4700_relax_kit/common/Libraries/CMSIS/Include\core_cm4.h **** #define SCB_SHCSR_MEMFAULTACT_Pos           0U                                            /*!< SCB 
 608:C:/Users/Yushev/git/optiga-trust-qi/projects/xmc4700_relax_kit/common/Libraries/CMSIS/Include\core_cm4.h **** #define SCB_SHCSR_MEMFAULTACT_Msk          (1UL /*<< SCB_SHCSR_MEMFAULTACT_Pos*/)         /*!< SCB 
 609:C:/Users/Yushev/git/optiga-trust-qi/projects/xmc4700_relax_kit/common/Libraries/CMSIS/Include\core_cm4.h **** 
 610:C:/Users/Yushev/git/optiga-trust-qi/projects/xmc4700_relax_kit/common/Libraries/CMSIS/Include\core_cm4.h **** /* SCB Configurable Fault Status Register Definitions */
 611:C:/Users/Yushev/git/optiga-trust-qi/projects/xmc4700_relax_kit/common/Libraries/CMSIS/Include\core_cm4.h **** #define SCB_CFSR_USGFAULTSR_Pos            16U                                            /*!< SCB 
 612:C:/Users/Yushev/git/optiga-trust-qi/projects/xmc4700_relax_kit/common/Libraries/CMSIS/Include\core_cm4.h **** #define SCB_CFSR_USGFAULTSR_Msk            (0xFFFFUL << SCB_CFSR_USGFAULTSR_Pos)          /*!< SCB 
 613:C:/Users/Yushev/git/optiga-trust-qi/projects/xmc4700_relax_kit/common/Libraries/CMSIS/Include\core_cm4.h **** 
 614:C:/Users/Yushev/git/optiga-trust-qi/projects/xmc4700_relax_kit/common/Libraries/CMSIS/Include\core_cm4.h **** #define SCB_CFSR_BUSFAULTSR_Pos             8U                                            /*!< SCB 
 615:C:/Users/Yushev/git/optiga-trust-qi/projects/xmc4700_relax_kit/common/Libraries/CMSIS/Include\core_cm4.h **** #define SCB_CFSR_BUSFAULTSR_Msk            (0xFFUL << SCB_CFSR_BUSFAULTSR_Pos)            /*!< SCB 
 616:C:/Users/Yushev/git/optiga-trust-qi/projects/xmc4700_relax_kit/common/Libraries/CMSIS/Include\core_cm4.h **** 
 617:C:/Users/Yushev/git/optiga-trust-qi/projects/xmc4700_relax_kit/common/Libraries/CMSIS/Include\core_cm4.h **** #define SCB_CFSR_MEMFAULTSR_Pos             0U                                            /*!< SCB 
 618:C:/Users/Yushev/git/optiga-trust-qi/projects/xmc4700_relax_kit/common/Libraries/CMSIS/Include\core_cm4.h **** #define SCB_CFSR_MEMFAULTSR_Msk            (0xFFUL /*<< SCB_CFSR_MEMFAULTSR_Pos*/)        /*!< SCB 
 619:C:/Users/Yushev/git/optiga-trust-qi/projects/xmc4700_relax_kit/common/Libraries/CMSIS/Include\core_cm4.h **** 
 620:C:/Users/Yushev/git/optiga-trust-qi/projects/xmc4700_relax_kit/common/Libraries/CMSIS/Include\core_cm4.h **** /* MemManage Fault Status Register (part of SCB Configurable Fault Status Register) */
 621:C:/Users/Yushev/git/optiga-trust-qi/projects/xmc4700_relax_kit/common/Libraries/CMSIS/Include\core_cm4.h **** #define SCB_CFSR_MMARVALID_Pos             (SCB_SHCSR_MEMFAULTACT_Pos + 7U)               /*!< SCB 
 622:C:/Users/Yushev/git/optiga-trust-qi/projects/xmc4700_relax_kit/common/Libraries/CMSIS/Include\core_cm4.h **** #define SCB_CFSR_MMARVALID_Msk             (1UL << SCB_CFSR_MMARVALID_Pos)                /*!< SCB 
 623:C:/Users/Yushev/git/optiga-trust-qi/projects/xmc4700_relax_kit/common/Libraries/CMSIS/Include\core_cm4.h **** 
 624:C:/Users/Yushev/git/optiga-trust-qi/projects/xmc4700_relax_kit/common/Libraries/CMSIS/Include\core_cm4.h **** #define SCB_CFSR_MLSPERR_Pos               (SCB_SHCSR_MEMFAULTACT_Pos + 5U)               /*!< SCB 
 625:C:/Users/Yushev/git/optiga-trust-qi/projects/xmc4700_relax_kit/common/Libraries/CMSIS/Include\core_cm4.h **** #define SCB_CFSR_MLSPERR_Msk               (1UL << SCB_CFSR_MLSPERR_Pos)                  /*!< SCB 
 626:C:/Users/Yushev/git/optiga-trust-qi/projects/xmc4700_relax_kit/common/Libraries/CMSIS/Include\core_cm4.h **** 
 627:C:/Users/Yushev/git/optiga-trust-qi/projects/xmc4700_relax_kit/common/Libraries/CMSIS/Include\core_cm4.h **** #define SCB_CFSR_MSTKERR_Pos               (SCB_SHCSR_MEMFAULTACT_Pos + 4U)               /*!< SCB 
 628:C:/Users/Yushev/git/optiga-trust-qi/projects/xmc4700_relax_kit/common/Libraries/CMSIS/Include\core_cm4.h **** #define SCB_CFSR_MSTKERR_Msk               (1UL << SCB_CFSR_MSTKERR_Pos)                  /*!< SCB 
 629:C:/Users/Yushev/git/optiga-trust-qi/projects/xmc4700_relax_kit/common/Libraries/CMSIS/Include\core_cm4.h **** 
 630:C:/Users/Yushev/git/optiga-trust-qi/projects/xmc4700_relax_kit/common/Libraries/CMSIS/Include\core_cm4.h **** #define SCB_CFSR_MUNSTKERR_Pos             (SCB_SHCSR_MEMFAULTACT_Pos + 3U)               /*!< SCB 
 631:C:/Users/Yushev/git/optiga-trust-qi/projects/xmc4700_relax_kit/common/Libraries/CMSIS/Include\core_cm4.h **** #define SCB_CFSR_MUNSTKERR_Msk             (1UL << SCB_CFSR_MUNSTKERR_Pos)                /*!< SCB 
 632:C:/Users/Yushev/git/optiga-trust-qi/projects/xmc4700_relax_kit/common/Libraries/CMSIS/Include\core_cm4.h **** 
 633:C:/Users/Yushev/git/optiga-trust-qi/projects/xmc4700_relax_kit/common/Libraries/CMSIS/Include\core_cm4.h **** #define SCB_CFSR_DACCVIOL_Pos              (SCB_SHCSR_MEMFAULTACT_Pos + 1U)               /*!< SCB 
 634:C:/Users/Yushev/git/optiga-trust-qi/projects/xmc4700_relax_kit/common/Libraries/CMSIS/Include\core_cm4.h **** #define SCB_CFSR_DACCVIOL_Msk              (1UL << SCB_CFSR_DACCVIOL_Pos)                 /*!< SCB 
 635:C:/Users/Yushev/git/optiga-trust-qi/projects/xmc4700_relax_kit/common/Libraries/CMSIS/Include\core_cm4.h **** 
 636:C:/Users/Yushev/git/optiga-trust-qi/projects/xmc4700_relax_kit/common/Libraries/CMSIS/Include\core_cm4.h **** #define SCB_CFSR_IACCVIOL_Pos              (SCB_SHCSR_MEMFAULTACT_Pos + 0U)               /*!< SCB 
 637:C:/Users/Yushev/git/optiga-trust-qi/projects/xmc4700_relax_kit/common/Libraries/CMSIS/Include\core_cm4.h **** #define SCB_CFSR_IACCVIOL_Msk              (1UL /*<< SCB_CFSR_IACCVIOL_Pos*/)             /*!< SCB 
 638:C:/Users/Yushev/git/optiga-trust-qi/projects/xmc4700_relax_kit/common/Libraries/CMSIS/Include\core_cm4.h **** 
 639:C:/Users/Yushev/git/optiga-trust-qi/projects/xmc4700_relax_kit/common/Libraries/CMSIS/Include\core_cm4.h **** /* BusFault Status Register (part of SCB Configurable Fault Status Register) */
 640:C:/Users/Yushev/git/optiga-trust-qi/projects/xmc4700_relax_kit/common/Libraries/CMSIS/Include\core_cm4.h **** #define SCB_CFSR_BFARVALID_Pos            (SCB_CFSR_BUSFAULTSR_Pos + 7U)                  /*!< SCB 
 641:C:/Users/Yushev/git/optiga-trust-qi/projects/xmc4700_relax_kit/common/Libraries/CMSIS/Include\core_cm4.h **** #define SCB_CFSR_BFARVALID_Msk            (1UL << SCB_CFSR_BFARVALID_Pos)                 /*!< SCB 
 642:C:/Users/Yushev/git/optiga-trust-qi/projects/xmc4700_relax_kit/common/Libraries/CMSIS/Include\core_cm4.h **** 
 643:C:/Users/Yushev/git/optiga-trust-qi/projects/xmc4700_relax_kit/common/Libraries/CMSIS/Include\core_cm4.h **** #define SCB_CFSR_LSPERR_Pos               (SCB_CFSR_BUSFAULTSR_Pos + 5U)                  /*!< SCB 
 644:C:/Users/Yushev/git/optiga-trust-qi/projects/xmc4700_relax_kit/common/Libraries/CMSIS/Include\core_cm4.h **** #define SCB_CFSR_LSPERR_Msk               (1UL << SCB_CFSR_LSPERR_Pos)                    /*!< SCB 
 645:C:/Users/Yushev/git/optiga-trust-qi/projects/xmc4700_relax_kit/common/Libraries/CMSIS/Include\core_cm4.h **** 
 646:C:/Users/Yushev/git/optiga-trust-qi/projects/xmc4700_relax_kit/common/Libraries/CMSIS/Include\core_cm4.h **** #define SCB_CFSR_STKERR_Pos               (SCB_CFSR_BUSFAULTSR_Pos + 4U)                  /*!< SCB 
 647:C:/Users/Yushev/git/optiga-trust-qi/projects/xmc4700_relax_kit/common/Libraries/CMSIS/Include\core_cm4.h **** #define SCB_CFSR_STKERR_Msk               (1UL << SCB_CFSR_STKERR_Pos)                    /*!< SCB 
 648:C:/Users/Yushev/git/optiga-trust-qi/projects/xmc4700_relax_kit/common/Libraries/CMSIS/Include\core_cm4.h **** 
