Certificate:
    Data:
        Version: 3 (0x2)
        Serial Number: 269488144 (0x10101010)
    Signature Algorithm: ecdsa-with-SHA256
        Issuer: CN=IFXCA0
        Validity
            Not Before: Jan  1 00:00:00 1970 GMT
            Not After : Dec 31 23:59:59 9999 GMT
        Subject: CN=IFXCA0
        Subject Public Key Info:
            Public Key Algorithm: id-ecPublicKey
                Public-Key: (256 bit)
                pub:
                    04:b5:86:19:99:2d:2d:44:a1:28:24:8d:56:e3:d7:
                    f5:07:41:b1:74:90:a4:a7:1d:78:50:e0:ce:0e:3b:
                    8e:00:4c:74:c9:d0:98:75:43:b4:d3:3b:be:b2:21:
                    22:8d:d0:df:e1:5a:08:fc:05:ad:13:f3:7a:5f:c9:
                    f1:45:68:6f:13
                ASN1 OID: prime256v1
                NIST CURVE: P-256
        X509v3 extensions:
            X509v3 Basic Constraints: critical
                CA:TRUE
    Signature Algorithm: ecdsa-with-SHA256
         30:45:02:20:08:29:82:80:9a:5d:9b:e9:bb:69:bb:0b:d4:88:
         5b:8b:f9:69:d2:d4:8f:93:99:98:72:bc:af:68:8e:ce:25:48:
         02:21:00:bb:2c:36:15:54:da:07:45:32:8b:87:ad:16:68:3d:
         0c:98:23:6a:40:b0:ac:c6:f0:19:ab:38:b6:d8:f3:8c:03
-----BEGIN CERTIFICATE-----
MIIBKDCBz6ADAgECAgQQEBAQMAoGCCqGSM49BAMCMBExDzANBgNVBAMMBklGWENB
MDAgFw03MDAxMDEwMDAwMDBaGA85OTk5MTIzMTIzNTk1OVowETEPMA0GA1UEAwwG
SUZYQ0EwMFkwEwYHKoZIzj0CAQYIKoZIzj0DAQcDQgAEtYYZmS0tRKEoJI1W49f1
B0GxdJCkpx14UODODjuOAEx0ydCYdUO00zu+siEijdDf4VoI/AWtE/N6X8nxRWhv
E6MTMBEwDwYDVR0TAQH/BAUwAwEB/zAKBggqhkjOPQQDAgNIADBFAiAIKYKAml2b
6btpuwvUiFuL+WnS1I+TmZhyvK9ojs4lSAIhALssNhVU2gdFMouHrRZoPQyYI2pA
sKzG8BmrOLbY84wD
-----END CERTIFICATE-----
