   1              	 .syntax unified
   2              	 .cpu cortex-m4
   3              	 .eabi_attribute 27,3
   4              	 .fpu fpv4-sp-d16
   5              	 .eabi_attribute 20,1
   6              	 .eabi_attribute 21,1
   7              	 .eabi_attribute 23,3
   8              	 .eabi_attribute 24,1
   9              	 .eabi_attribute 25,1
  10              	 .eabi_attribute 26,1
  11              	 .eabi_attribute 30,4
  12              	 .eabi_attribute 34,1
  13              	 .eabi_attribute 18,4
  14              	 .thumb
  15              	 .file "optiga_cmd.c"
  16              	 .text
  17              	.Ltext0:
  18              	 .cfi_sections .debug_frame
  19              	 .section .text.optiga_cmd_prepare_tag_header,"ax",%progbits
  20              	 .align 1
  21              	 .thumb
  22              	 .thumb_func
  24              	optiga_cmd_prepare_tag_header:
  25              	.LFB2:
  26              	 .file 1 "C:/Users/Yushev/git/optiga-trust-qi/optiga/cmd/optiga_cmd.c"
   1:C:/Users/Yushev/git/optiga-trust-qi/optiga/cmd\optiga_cmd.c **** /**
   2:C:/Users/Yushev/git/optiga-trust-qi/optiga/cmd\optiga_cmd.c **** * \copyright
   3:C:/Users/Yushev/git/optiga-trust-qi/optiga/cmd\optiga_cmd.c **** * MIT License
   4:C:/Users/Yushev/git/optiga-trust-qi/optiga/cmd\optiga_cmd.c **** *
   5:C:/Users/Yushev/git/optiga-trust-qi/optiga/cmd\optiga_cmd.c **** * Copyright (c) 2020 Infineon Technologies AG
   6:C:/Users/Yushev/git/optiga-trust-qi/optiga/cmd\optiga_cmd.c **** *
   7:C:/Users/Yushev/git/optiga-trust-qi/optiga/cmd\optiga_cmd.c **** * Permission is hereby granted, free of charge, to any person obtaining a copy
   8:C:/Users/Yushev/git/optiga-trust-qi/optiga/cmd\optiga_cmd.c **** * of this software and associated documentation files (the "Software"), to deal
   9:C:/Users/Yushev/git/optiga-trust-qi/optiga/cmd\optiga_cmd.c **** * in the Software without restriction, including without limitation the rights
  10:C:/Users/Yushev/git/optiga-trust-qi/optiga/cmd\optiga_cmd.c **** * to use, copy, modify, merge, publish, distribute, sublicense, and/or sell
  11:C:/Users/Yushev/git/optiga-trust-qi/optiga/cmd\optiga_cmd.c **** * copies of the Software, and to permit persons to whom the Software is
  12:C:/Users/Yushev/git/optiga-trust-qi/optiga/cmd\optiga_cmd.c **** * furnished to do so, subject to the following conditions:
  13:C:/Users/Yushev/git/optiga-trust-qi/optiga/cmd\optiga_cmd.c **** *
  14:C:/Users/Yushev/git/optiga-trust-qi/optiga/cmd\optiga_cmd.c **** * The above copyright notice and this permission notice shall be included in all
  15:C:/Users/Yushev/git/optiga-trust-qi/optiga/cmd\optiga_cmd.c **** * copies or substantial portions of the Software.
  16:C:/Users/Yushev/git/optiga-trust-qi/optiga/cmd\optiga_cmd.c **** *
  17:C:/Users/Yushev/git/optiga-trust-qi/optiga/cmd\optiga_cmd.c **** * THE SOFTWARE IS PROVIDED "AS IS", WITHOUT WARRANTY OF ANY KIND, EXPRESS OR
  18:C:/Users/Yushev/git/optiga-trust-qi/optiga/cmd\optiga_cmd.c **** * IMPLIED, INCLUDING BUT NOT LIMITED TO THE WARRANTIES OF MERCHANTABILITY,
  19:C:/Users/Yushev/git/optiga-trust-qi/optiga/cmd\optiga_cmd.c **** * FITNESS FOR A PARTICULAR PURPOSE AND NONINFRINGEMENT. IN NO EVENT SHALL THE
  20:C:/Users/Yushev/git/optiga-trust-qi/optiga/cmd\optiga_cmd.c **** * AUTHORS OR COPYRIGHT HOLDERS BE LIABLE FOR ANY CLAIM, DAMAGES OR OTHER
  21:C:/Users/Yushev/git/optiga-trust-qi/optiga/cmd\optiga_cmd.c **** * LIABILITY, WHETHER IN AN ACTION OF CONTRACT, TORT OR OTHERWISE, ARISING FROM,
  22:C:/Users/Yushev/git/optiga-trust-qi/optiga/cmd\optiga_cmd.c **** * OUT OF OR IN CONNECTION WITH THE SOFTWARE OR THE USE OR OTHER DEALINGS IN THE
  23:C:/Users/Yushev/git/optiga-trust-qi/optiga/cmd\optiga_cmd.c **** * SOFTWARE
  24:C:/Users/Yushev/git/optiga-trust-qi/optiga/cmd\optiga_cmd.c **** *
  25:C:/Users/Yushev/git/optiga-trust-qi/optiga/cmd\optiga_cmd.c **** * \endcopyright
  26:C:/Users/Yushev/git/optiga-trust-qi/optiga/cmd\optiga_cmd.c **** *
  27:C:/Users/Yushev/git/optiga-trust-qi/optiga/cmd\optiga_cmd.c **** * \author Infineon Technologies AG
  28:C:/Users/Yushev/git/optiga-trust-qi/optiga/cmd\optiga_cmd.c **** *
  29:C:/Users/Yushev/git/optiga-trust-qi/optiga/cmd\optiga_cmd.c **** * \file optiga_cmd.c
  30:C:/Users/Yushev/git/optiga-trust-qi/optiga/cmd\optiga_cmd.c **** *
  31:C:/Users/Yushev/git/optiga-trust-qi/optiga/cmd\optiga_cmd.c **** * \brief   This file implements cmd modules which covers OPTIGA command formation, locking mechanis
  32:C:/Users/Yushev/git/optiga-trust-qi/optiga/cmd\optiga_cmd.c **** *          acquisition and asynchronous data handling
  33:C:/Users/Yushev/git/optiga-trust-qi/optiga/cmd\optiga_cmd.c **** *
  34:C:/Users/Yushev/git/optiga-trust-qi/optiga/cmd\optiga_cmd.c **** * \ingroup  grOptigaCmd
  35:C:/Users/Yushev/git/optiga-trust-qi/optiga/cmd\optiga_cmd.c **** *
  36:C:/Users/Yushev/git/optiga-trust-qi/optiga/cmd\optiga_cmd.c **** * @{
  37:C:/Users/Yushev/git/optiga-trust-qi/optiga/cmd\optiga_cmd.c **** */
  38:C:/Users/Yushev/git/optiga-trust-qi/optiga/cmd\optiga_cmd.c **** 
  39:C:/Users/Yushev/git/optiga-trust-qi/optiga/cmd\optiga_cmd.c **** 
  40:C:/Users/Yushev/git/optiga-trust-qi/optiga/cmd\optiga_cmd.c **** #include "optiga/cmd/optiga_cmd.h"
  41:C:/Users/Yushev/git/optiga-trust-qi/optiga/cmd\optiga_cmd.c **** #include "optiga/common/optiga_lib_common_internal.h"
  42:C:/Users/Yushev/git/optiga-trust-qi/optiga/cmd\optiga_cmd.c **** #include "optiga/common/optiga_lib_logger.h"
  43:C:/Users/Yushev/git/optiga-trust-qi/optiga/cmd\optiga_cmd.c **** #include "optiga/comms/optiga_comms.h"
  44:C:/Users/Yushev/git/optiga-trust-qi/optiga/cmd\optiga_cmd.c **** #include "optiga/pal/pal_os_event.h"
  45:C:/Users/Yushev/git/optiga-trust-qi/optiga/cmd\optiga_cmd.c **** #include "optiga/pal/pal_os_lock.h"
  46:C:/Users/Yushev/git/optiga-trust-qi/optiga/cmd\optiga_cmd.c **** #include "optiga/pal/pal_os_timer.h"
  47:C:/Users/Yushev/git/optiga-trust-qi/optiga/cmd\optiga_cmd.c **** #include "optiga/pal/pal_os_memory.h"
  48:C:/Users/Yushev/git/optiga-trust-qi/optiga/cmd\optiga_cmd.c **** #include "optiga/pal/pal_ifx_i2c_config.h"
  49:C:/Users/Yushev/git/optiga-trust-qi/optiga/cmd\optiga_cmd.c **** 
  50:C:/Users/Yushev/git/optiga-trust-qi/optiga/cmd\optiga_cmd.c **** //cmd byte for clearing last error code
  51:C:/Users/Yushev/git/optiga-trust-qi/optiga/cmd\optiga_cmd.c **** #define OPTIGA_CMD_CLEAR_LAST_ERROR                      (0x80)
  52:C:/Users/Yushev/git/optiga-trust-qi/optiga/cmd\optiga_cmd.c **** //cmd byte for OpenApplication command
  53:C:/Users/Yushev/git/optiga-trust-qi/optiga/cmd\optiga_cmd.c **** #define OPTIGA_CMD_OPEN_APPLICATION                      (0x70 | OPTIGA_CMD_CLEAR_LAST_ERROR)
  54:C:/Users/Yushev/git/optiga-trust-qi/optiga/cmd\optiga_cmd.c **** //cmd byte for CloseApplication command
  55:C:/Users/Yushev/git/optiga-trust-qi/optiga/cmd\optiga_cmd.c **** #define OPTIGA_CMD_CLOSE_APPLICATION                     (0x71 | OPTIGA_CMD_CLEAR_LAST_ERROR)
  56:C:/Users/Yushev/git/optiga-trust-qi/optiga/cmd\optiga_cmd.c **** //cmd byte for GetDataObject command
  57:C:/Users/Yushev/git/optiga-trust-qi/optiga/cmd\optiga_cmd.c **** #define OPTIGA_CMD_GET_DATA_OBJECT                       (0x01 | OPTIGA_CMD_CLEAR_LAST_ERROR)
  58:C:/Users/Yushev/git/optiga-trust-qi/optiga/cmd\optiga_cmd.c **** //cmd byte for SetDataObject command
  59:C:/Users/Yushev/git/optiga-trust-qi/optiga/cmd\optiga_cmd.c **** #define OPTIGA_CMD_SET_DATA_OBJECT                       (0x02 | OPTIGA_CMD_CLEAR_LAST_ERROR)
  60:C:/Users/Yushev/git/optiga-trust-qi/optiga/cmd\optiga_cmd.c **** //cmd byte for GetRandom command
  61:C:/Users/Yushev/git/optiga-trust-qi/optiga/cmd\optiga_cmd.c **** #define OPTIGA_CMD_GET_RANDOM                            (0x0C | OPTIGA_CMD_CLEAR_LAST_ERROR)
  62:C:/Users/Yushev/git/optiga-trust-qi/optiga/cmd\optiga_cmd.c **** //cmd byte for CalcHash command
  63:C:/Users/Yushev/git/optiga-trust-qi/optiga/cmd\optiga_cmd.c **** #define OPTIGA_CMD_CALC_HASH                             (0x30 | OPTIGA_CMD_CLEAR_LAST_ERROR)
  64:C:/Users/Yushev/git/optiga-trust-qi/optiga/cmd\optiga_cmd.c **** //cmd byte for CalcSign command
  65:C:/Users/Yushev/git/optiga-trust-qi/optiga/cmd\optiga_cmd.c **** #define OPTIGA_CMD_CALC_SIGN                             (0x31 | OPTIGA_CMD_CLEAR_LAST_ERROR)
  66:C:/Users/Yushev/git/optiga-trust-qi/optiga/cmd\optiga_cmd.c **** //cmd byte for VerifySign command
  67:C:/Users/Yushev/git/optiga-trust-qi/optiga/cmd\optiga_cmd.c **** #define OPTIGA_CMD_VERIFY_SIGN                           (0x32 | OPTIGA_CMD_CLEAR_LAST_ERROR)
  68:C:/Users/Yushev/git/optiga-trust-qi/optiga/cmd\optiga_cmd.c **** //cmd byte for GenKeyPair command
  69:C:/Users/Yushev/git/optiga-trust-qi/optiga/cmd\optiga_cmd.c **** #define OPTIGA_CMD_GEN_KEYPAIR                           (0x38 | OPTIGA_CMD_CLEAR_LAST_ERROR)
  70:C:/Users/Yushev/git/optiga-trust-qi/optiga/cmd\optiga_cmd.c **** //cmd byte for SetObjectProtected command
  71:C:/Users/Yushev/git/optiga-trust-qi/optiga/cmd\optiga_cmd.c **** #define OPTIGA_CMD_SET_OBJECT_PROTECTED                  (0x03 | OPTIGA_CMD_CLEAR_LAST_ERROR)
  72:C:/Users/Yushev/git/optiga-trust-qi/optiga/cmd\optiga_cmd.c **** 
  73:C:/Users/Yushev/git/optiga-trust-qi/optiga/cmd\optiga_cmd.c **** 
  74:C:/Users/Yushev/git/optiga-trust-qi/optiga/cmd\optiga_cmd.c **** #define OPTIGA_CMD_MAX_NUMBER_OF_SESSIONS                (0x04)
  75:C:/Users/Yushev/git/optiga-trust-qi/optiga/cmd\optiga_cmd.c **** #define OPTIGA_CMD_START_SESSION_OID                     (0xE100)
  76:C:/Users/Yushev/git/optiga-trust-qi/optiga/cmd\optiga_cmd.c **** 
  77:C:/Users/Yushev/git/optiga-trust-qi/optiga/cmd\optiga_cmd.c **** // Considering the size w.r.t maximum APDU size + shielded connection if enabled.
  78:C:/Users/Yushev/git/optiga-trust-qi/optiga/cmd\optiga_cmd.c **** #define OPTIGA_CMD_TOTAL_COMMS_BUFFER_SIZE               (OPTIGA_MAX_COMMS_BUFFER_SIZE + OPTIGA_COM
  79:C:/Users/Yushev/git/optiga-trust-qi/optiga/cmd\optiga_cmd.c **** 
  80:C:/Users/Yushev/git/optiga-trust-qi/optiga/cmd\optiga_cmd.c **** #define OPTIGA_CMD_APDU_HEADER_SIZE                      (0x04)
  81:C:/Users/Yushev/git/optiga-trust-qi/optiga/cmd\optiga_cmd.c **** 
  82:C:/Users/Yushev/git/optiga-trust-qi/optiga/cmd\optiga_cmd.c **** #define OPTIGA_CMD_LAST_ERROR_CODE                       (0xF1C2)
  83:C:/Users/Yushev/git/optiga-trust-qi/optiga/cmd\optiga_cmd.c **** 
  84:C:/Users/Yushev/git/optiga-trust-qi/optiga/cmd\optiga_cmd.c **** #define OPTIGA_CMD_APDU_INDATA_OFFSET                    (OPTIGA_CMD_APDU_HEADER_SIZE + OPTIGA_COMM
  85:C:/Users/Yushev/git/optiga-trust-qi/optiga/cmd\optiga_cmd.c **** // Hash header size(hash_input_header_size + context_header_size)
  86:C:/Users/Yushev/git/optiga-trust-qi/optiga/cmd\optiga_cmd.c **** #define OPTIGA_CMD_HASH_HEADER_SIZE                      (0x06)
  87:C:/Users/Yushev/git/optiga-trust-qi/optiga/cmd\optiga_cmd.c **** // Intermediate context header size
  88:C:/Users/Yushev/git/optiga-trust-qi/optiga/cmd\optiga_cmd.c **** #define OPTIGA_CMD_INTERMEDIATE_CONTEXT_HEADER           (0x03)
  89:C:/Users/Yushev/git/optiga-trust-qi/optiga/cmd\optiga_cmd.c **** // Zero length or value
  90:C:/Users/Yushev/git/optiga-trust-qi/optiga/cmd\optiga_cmd.c **** #define OPTIGA_CMD_ZERO_LENGTH_OR_VALUE                  (0x0000)
  91:C:/Users/Yushev/git/optiga-trust-qi/optiga/cmd\optiga_cmd.c **** // One length or value
  92:C:/Users/Yushev/git/optiga-trust-qi/optiga/cmd\optiga_cmd.c **** #define OPTIGA_CMD_ONE_LENGTH_OR_VALUE                   (0x0001)
  93:C:/Users/Yushev/git/optiga-trust-qi/optiga/cmd\optiga_cmd.c **** // OID data length
  94:C:/Users/Yushev/git/optiga-trust-qi/optiga/cmd\optiga_cmd.c **** #define OPTIGA_CMD_OID_DATA_LENGTH                       (0x0006)
  95:C:/Users/Yushev/git/optiga-trust-qi/optiga/cmd\optiga_cmd.c **** // Number of bits in a byte
  96:C:/Users/Yushev/git/optiga-trust-qi/optiga/cmd\optiga_cmd.c **** #define OPTIGA_CMD_NO_OF_BITS_IN_BYTE                    (0x0008)
  97:C:/Users/Yushev/git/optiga-trust-qi/optiga/cmd\optiga_cmd.c **** 
  98:C:/Users/Yushev/git/optiga-trust-qi/optiga/cmd\optiga_cmd.c **** //Number of bytes in tag
  99:C:/Users/Yushev/git/optiga-trust-qi/optiga/cmd\optiga_cmd.c **** #define OPTIGA_CMD_NO_OF_BYTES_IN_TAG                    (0x01)
 100:C:/Users/Yushev/git/optiga-trust-qi/optiga/cmd\optiga_cmd.c **** 
 101:C:/Users/Yushev/git/optiga-trust-qi/optiga/cmd\optiga_cmd.c **** //Number of bytes in OFFSET
 102:C:/Users/Yushev/git/optiga-trust-qi/optiga/cmd\optiga_cmd.c **** #define OPTIGA_CMD_UINT16_SIZE_IN_BYTES                  (0x02)
 103:C:/Users/Yushev/git/optiga-trust-qi/optiga/cmd\optiga_cmd.c **** 
 104:C:/Users/Yushev/git/optiga-trust-qi/optiga/cmd\optiga_cmd.c **** #define OPTIGA_CMD_APDU_SUCCESS                          (0x00)
 105:C:/Users/Yushev/git/optiga-trust-qi/optiga/cmd\optiga_cmd.c **** #define OPTIGA_CMD_APDU_FAILURE                          (0xFF)
 106:C:/Users/Yushev/git/optiga-trust-qi/optiga/cmd\optiga_cmd.c **** 
 107:C:/Users/Yushev/git/optiga-trust-qi/optiga/cmd\optiga_cmd.c **** #define OPTIGA_CMD_WRITE_ONLY                                   (0x00)
 108:C:/Users/Yushev/git/optiga-trust-qi/optiga/cmd\optiga_cmd.c **** #define OPTIGA_CMD_READ_DATA                                    (0x00)
 109:C:/Users/Yushev/git/optiga-trust-qi/optiga/cmd\optiga_cmd.c **** #define OPTIGA_CMD_GET_DATA_OBJECT_NO_ERROR_CLEAR               (0x01)
 110:C:/Users/Yushev/git/optiga-trust-qi/optiga/cmd\optiga_cmd.c **** 
 111:C:/Users/Yushev/git/optiga-trust-qi/optiga/cmd\optiga_cmd.c **** //Calc sign tag values
 112:C:/Users/Yushev/git/optiga-trust-qi/optiga/cmd\optiga_cmd.c **** #define OPTIGA_CMD_SIGN_DIGEST_TAG                              (0x01)
 113:C:/Users/Yushev/git/optiga-trust-qi/optiga/cmd\optiga_cmd.c **** #define OPTIGA_CMD_SIGN_OID_TAG                                 (0x03)
 114:C:/Users/Yushev/git/optiga-trust-qi/optiga/cmd\optiga_cmd.c **** #define OPTIGA_CMD_SIGN_OID_LEN                                 (0x0002)
 115:C:/Users/Yushev/git/optiga-trust-qi/optiga/cmd\optiga_cmd.c **** 
 116:C:/Users/Yushev/git/optiga-trust-qi/optiga/cmd\optiga_cmd.c **** //Verify sign tag values
 117:C:/Users/Yushev/git/optiga-trust-qi/optiga/cmd\optiga_cmd.c **** #define OPTIGA_CMD_VERIFY_SIGN_DIGEST_TAG                       (0x01)
 118:C:/Users/Yushev/git/optiga-trust-qi/optiga/cmd\optiga_cmd.c **** #define OPTIGA_CMD_VERIFY_SIGN_SIGNATURE_TAG                    (0x02)
 119:C:/Users/Yushev/git/optiga-trust-qi/optiga/cmd\optiga_cmd.c **** #define OPTIGA_CMD_VERIFY_SIGN_PUB_KEY_CERT_OID_TAG             (0x04)
 120:C:/Users/Yushev/git/optiga-trust-qi/optiga/cmd\optiga_cmd.c **** #define OPTIGA_CMD_VERIFY_SIGN_PUB_KEY_CERT_OID_LENGTH          (0x0002)
 121:C:/Users/Yushev/git/optiga-trust-qi/optiga/cmd\optiga_cmd.c **** #define OPTIGA_CMD_VERIFY_ALGO_ID_TAG                           (0x05)
 122:C:/Users/Yushev/git/optiga-trust-qi/optiga/cmd\optiga_cmd.c **** #define OPTIGA_CMD_VERIFY_ALGO_ID_LENGTH                        (0x0001)
 123:C:/Users/Yushev/git/optiga-trust-qi/optiga/cmd\optiga_cmd.c **** #define OPTIGA_CMD_VERIFY_PUBLIC_KEY_TAG                        (0x06)
 124:C:/Users/Yushev/git/optiga-trust-qi/optiga/cmd\optiga_cmd.c **** 
 125:C:/Users/Yushev/git/optiga-trust-qi/optiga/cmd\optiga_cmd.c **** //Generate key pair tag and length value
 126:C:/Users/Yushev/git/optiga-trust-qi/optiga/cmd\optiga_cmd.c **** #define OPTIGA_CMD_GEN_KEY_PAIR_PRIVATE_KEY_OID_TAG             (0x01)
 127:C:/Users/Yushev/git/optiga-trust-qi/optiga/cmd\optiga_cmd.c **** #define OPTIGA_CMD_GEN_KEY_PAIR_PRIVATE_KEY_OID_LENGTH          (0x0002)
 128:C:/Users/Yushev/git/optiga-trust-qi/optiga/cmd\optiga_cmd.c **** #define OPTIGA_CMD_GEN_KEY_PAIR_KEY_USAGE_TAG                   (0x02)
 129:C:/Users/Yushev/git/optiga-trust-qi/optiga/cmd\optiga_cmd.c **** #define OPTIGA_CMD_GEN_KEY_PAIR_KEY_USAGE_LENGTH                (0x0001)
 130:C:/Users/Yushev/git/optiga-trust-qi/optiga/cmd\optiga_cmd.c **** #define OPTIGA_CMD_GEN_KEY_PAIR_EXPORT_KEY_TAG                  (0x07)
 131:C:/Users/Yushev/git/optiga-trust-qi/optiga/cmd\optiga_cmd.c **** #define OPTIGA_CMD_GEN_KEY_PAIR_EXPORT_KEY_LENGTH               (0x0000)
 132:C:/Users/Yushev/git/optiga-trust-qi/optiga/cmd\optiga_cmd.c **** #define OPTIGA_CMD_GEN_KEY_PAIR_PUBLIC_KEY_TAG                  (0x02)
 133:C:/Users/Yushev/git/optiga-trust-qi/optiga/cmd\optiga_cmd.c **** #define OPTIGA_CMD_GEN_KEY_PAIR_PRIVATE_KEY_TAG                 (0x01)
 134:C:/Users/Yushev/git/optiga-trust-qi/optiga/cmd\optiga_cmd.c **** 
 135:C:/Users/Yushev/git/optiga-trust-qi/optiga/cmd\optiga_cmd.c **** #define OPTIGA_PROTECTION_LEVEL_MASK                            (0x03)
 136:C:/Users/Yushev/git/optiga-trust-qi/optiga/cmd\optiga_cmd.c ****         
 137:C:/Users/Yushev/git/optiga-trust-qi/optiga/cmd\optiga_cmd.c **** #define OPTIGA_CMD_ERROR_CODE_PREPARE                           (0x01)
 138:C:/Users/Yushev/git/optiga-trust-qi/optiga/cmd\optiga_cmd.c **** #define OPTIGA_CMD_ERROR_CODE_TX                                (0x02)
 139:C:/Users/Yushev/git/optiga-trust-qi/optiga/cmd\optiga_cmd.c **** #define OPTIGA_CMD_ERROR_CODE_RX                                (0x03)
 140:C:/Users/Yushev/git/optiga-trust-qi/optiga/cmd\optiga_cmd.c **** #define OPTIGA_CMD_ERROR_CODE_STATE_MASK                        (0x03)
 141:C:/Users/Yushev/git/optiga-trust-qi/optiga/cmd\optiga_cmd.c **** #define OPTIGA_CMD_ENTER_HANDLER_CALL_MASK                      (0x80)
 142:C:/Users/Yushev/git/optiga-trust-qi/optiga/cmd\optiga_cmd.c **** #define OPTIGA_CMD_ENTER_HANDLER_CALL                           (0x80)
 143:C:/Users/Yushev/git/optiga-trust-qi/optiga/cmd\optiga_cmd.c **** #define OPTIGA_CMD_EXIT_HANDLER_CALL                            (0x00)
 144:C:/Users/Yushev/git/optiga-trust-qi/optiga/cmd\optiga_cmd.c **** #define OPTIGA_CMD_OUT_OF_BOUNDARY_ERROR                        (0x08)
 145:C:/Users/Yushev/git/optiga-trust-qi/optiga/cmd\optiga_cmd.c **** 
 146:C:/Users/Yushev/git/optiga-trust-qi/optiga/cmd\optiga_cmd.c **** /// Set object protected tag
 147:C:/Users/Yushev/git/optiga-trust-qi/optiga/cmd\optiga_cmd.c **** #define OPTIGA_CMD_SET_OBJECT_PROTECTED_TAG                     (0x30)
 148:C:/Users/Yushev/git/optiga-trust-qi/optiga/cmd\optiga_cmd.c **** 
 149:C:/Users/Yushev/git/optiga-trust-qi/optiga/cmd\optiga_cmd.c **** #define OPTIGA_CMD_TAG_LENGTH_SIZE                              (0x03)
 150:C:/Users/Yushev/git/optiga-trust-qi/optiga/cmd\optiga_cmd.c **** #define OPTIGA_CMD_PARAM_INITIALIZE_APP_CONTEXT                 (0x00)
 151:C:/Users/Yushev/git/optiga-trust-qi/optiga/cmd\optiga_cmd.c **** 
 152:C:/Users/Yushev/git/optiga-trust-qi/optiga/cmd\optiga_cmd.c **** // Function to set given bits
 153:C:/Users/Yushev/git/optiga-trust-qi/optiga/cmd\optiga_cmd.c **** #define SET_DEV_ERROR_HANDLER_STATE(state){\
 154:C:/Users/Yushev/git/optiga-trust-qi/optiga/cmd\optiga_cmd.c ****                                    (me->device_error_status) &= ~OPTIGA_CMD_ERROR_CODE_STATE_MASK;\
 155:C:/Users/Yushev/git/optiga-trust-qi/optiga/cmd\optiga_cmd.c ****                                    (me->device_error_status) |= state & OPTIGA_CMD_ERROR_CODE_STATE
 156:C:/Users/Yushev/git/optiga-trust-qi/optiga/cmd\optiga_cmd.c **** 
 157:C:/Users/Yushev/git/optiga-trust-qi/optiga/cmd\optiga_cmd.c **** #define SET_DEV_ERROR_NOTIFICATION(bits_value){\
 158:C:/Users/Yushev/git/optiga-trust-qi/optiga/cmd\optiga_cmd.c ****                                   (me->device_error_status) &= ~OPTIGA_CMD_ENTER_HANDLER_CALL_MASK;
 159:C:/Users/Yushev/git/optiga-trust-qi/optiga/cmd\optiga_cmd.c ****                                   (me->device_error_status) |= bits_value & OPTIGA_CMD_ENTER_HANDLE
 160:C:/Users/Yushev/git/optiga-trust-qi/optiga/cmd\optiga_cmd.c **** 
 161:C:/Users/Yushev/git/optiga-trust-qi/optiga/cmd\optiga_cmd.c **** 
 162:C:/Users/Yushev/git/optiga-trust-qi/optiga/cmd\optiga_cmd.c **** #define EXIT_STATE_WITH_ERROR(ctx, exit_machine){\
 163:C:/Users/Yushev/git/optiga-trust-qi/optiga/cmd\optiga_cmd.c ****                                   ctx->cmd_next_execution_state = OPTIGA_CMD_EXEC_ERROR_HANDLER;\
 164:C:/Users/Yushev/git/optiga-trust-qi/optiga/cmd\optiga_cmd.c ****                                   ctx->exit_status = OPTIGA_CMD_ERROR;\
 165:C:/Users/Yushev/git/optiga-trust-qi/optiga/cmd\optiga_cmd.c ****                                   exit_machine = FALSE;}
 166:C:/Users/Yushev/git/optiga-trust-qi/optiga/cmd\optiga_cmd.c **** 
 167:C:/Users/Yushev/git/optiga-trust-qi/optiga/cmd\optiga_cmd.c **** #if defined (OPTIGA_LIB_ENABLE_LOGGING) && defined (OPTIGA_LIB_ENABLE_CMD_LOGGING)
 168:C:/Users/Yushev/git/optiga-trust-qi/optiga/cmd\optiga_cmd.c **** 
 169:C:/Users/Yushev/git/optiga-trust-qi/optiga/cmd\optiga_cmd.c **** // Logs the message provided from Command layer
 170:C:/Users/Yushev/git/optiga-trust-qi/optiga/cmd\optiga_cmd.c **** #define OPTIGA_CMD_LOG_MESSAGE(msg) \
 171:C:/Users/Yushev/git/optiga-trust-qi/optiga/cmd\optiga_cmd.c **** {\
 172:C:/Users/Yushev/git/optiga-trust-qi/optiga/cmd\optiga_cmd.c ****     optiga_lib_print_message(msg,OPTIGA_COMMAND_LAYER,OPTIGA_COMMAND_LAYER_COLOR);\
 173:C:/Users/Yushev/git/optiga-trust-qi/optiga/cmd\optiga_cmd.c **** }
 174:C:/Users/Yushev/git/optiga-trust-qi/optiga/cmd\optiga_cmd.c **** 
 175:C:/Users/Yushev/git/optiga-trust-qi/optiga/cmd\optiga_cmd.c **** // Logs the byte array buffer provided from Command layer in hexadecimal format
 176:C:/Users/Yushev/git/optiga-trust-qi/optiga/cmd\optiga_cmd.c **** //lint --e{750} suppress "The unused OPTIGA_CMD_LOG_HEX_DATA macro is kept for future enhancements"
 177:C:/Users/Yushev/git/optiga-trust-qi/optiga/cmd\optiga_cmd.c **** #define OPTIGA_CMD_LOG_HEX_DATA(array,array_len) \
 178:C:/Users/Yushev/git/optiga-trust-qi/optiga/cmd\optiga_cmd.c **** {\
 179:C:/Users/Yushev/git/optiga-trust-qi/optiga/cmd\optiga_cmd.c ****     optiga_lib_print_array_hex_format(array,array_len,OPTIGA_UNPROTECTED_DATA_COLOR);\
 180:C:/Users/Yushev/git/optiga-trust-qi/optiga/cmd\optiga_cmd.c **** }
 181:C:/Users/Yushev/git/optiga-trust-qi/optiga/cmd\optiga_cmd.c **** 
 182:C:/Users/Yushev/git/optiga-trust-qi/optiga/cmd\optiga_cmd.c **** // Logs the status info provided from Command layer
 183:C:/Users/Yushev/git/optiga-trust-qi/optiga/cmd\optiga_cmd.c **** //lint --e{750} suppress "The unused OPTIGA_CMD_LOG_STATUS macro is kept for future enhancements"
 184:C:/Users/Yushev/git/optiga-trust-qi/optiga/cmd\optiga_cmd.c **** #define OPTIGA_CMD_LOG_STATUS(return_value) \
 185:C:/Users/Yushev/git/optiga-trust-qi/optiga/cmd\optiga_cmd.c **** { \
 186:C:/Users/Yushev/git/optiga-trust-qi/optiga/cmd\optiga_cmd.c ****     if (OPTIGA_LIB_SUCCESS != return_value) \
 187:C:/Users/Yushev/git/optiga-trust-qi/optiga/cmd\optiga_cmd.c ****     { \
 188:C:/Users/Yushev/git/optiga-trust-qi/optiga/cmd\optiga_cmd.c ****         optiga_lib_print_status(OPTIGA_COMMAND_LAYER,OPTIGA_ERROR_COLOR,return_value); \
 189:C:/Users/Yushev/git/optiga-trust-qi/optiga/cmd\optiga_cmd.c ****     } \
 190:C:/Users/Yushev/git/optiga-trust-qi/optiga/cmd\optiga_cmd.c ****     else\
 191:C:/Users/Yushev/git/optiga-trust-qi/optiga/cmd\optiga_cmd.c ****     { \
 192:C:/Users/Yushev/git/optiga-trust-qi/optiga/cmd\optiga_cmd.c ****         optiga_lib_print_status(OPTIGA_COMMAND_LAYER,OPTIGA_COMMAND_LAYER_COLOR,return_value); \
 193:C:/Users/Yushev/git/optiga-trust-qi/optiga/cmd\optiga_cmd.c ****     } \
 194:C:/Users/Yushev/git/optiga-trust-qi/optiga/cmd\optiga_cmd.c **** }
 195:C:/Users/Yushev/git/optiga-trust-qi/optiga/cmd\optiga_cmd.c **** #else
 196:C:/Users/Yushev/git/optiga-trust-qi/optiga/cmd\optiga_cmd.c **** 
 197:C:/Users/Yushev/git/optiga-trust-qi/optiga/cmd\optiga_cmd.c **** #define OPTIGA_CMD_LOG_MESSAGE(msg) {}
 198:C:/Users/Yushev/git/optiga-trust-qi/optiga/cmd\optiga_cmd.c **** //lint --e{750} suppress "The unused OPTIGA_CMD_LOG_HEX_DATA macro is kept for future enhancements"
 199:C:/Users/Yushev/git/optiga-trust-qi/optiga/cmd\optiga_cmd.c **** #define OPTIGA_CMD_LOG_HEX_DATA(array, array_len) {}
 200:C:/Users/Yushev/git/optiga-trust-qi/optiga/cmd\optiga_cmd.c **** //lint --e{750} suppress "The unused OPTIGA_CMD_LOG_STATUS macro is kept for future enhancements"
 201:C:/Users/Yushev/git/optiga-trust-qi/optiga/cmd\optiga_cmd.c **** #define OPTIGA_CMD_LOG_STATUS(return_value) {}
 202:C:/Users/Yushev/git/optiga-trust-qi/optiga/cmd\optiga_cmd.c **** 
 203:C:/Users/Yushev/git/optiga-trust-qi/optiga/cmd\optiga_cmd.c **** #endif // (OPTIGA_LIB_ENABLE_LOGGING) && (OPTIGA_LIB_ENABLE_CMD_LOGGING)
 204:C:/Users/Yushev/git/optiga-trust-qi/optiga/cmd\optiga_cmd.c **** 
 205:C:/Users/Yushev/git/optiga-trust-qi/optiga/cmd\optiga_cmd.c **** // Set data for apdu_data
 206:C:/Users/Yushev/git/optiga-trust-qi/optiga/cmd\optiga_cmd.c **** #define OPTIGA_CMD_SET_APDU_DATA(apdu_cmd, apdu_info) ((apdu_info << OPTIGA_CMD_NO_OF_BITS_IN_BYTE)
 207:C:/Users/Yushev/git/optiga-trust-qi/optiga/cmd\optiga_cmd.c **** 
 208:C:/Users/Yushev/git/optiga-trust-qi/optiga/cmd\optiga_cmd.c **** // Get APDU cmd value from apdu_data
 209:C:/Users/Yushev/git/optiga-trust-qi/optiga/cmd\optiga_cmd.c **** #define OPTIGA_CMD_GET_APDU_CMD(apdu_data)  ((uint8_t)apdu_data)
 210:C:/Users/Yushev/git/optiga-trust-qi/optiga/cmd\optiga_cmd.c **** 
 211:C:/Users/Yushev/git/optiga-trust-qi/optiga/cmd\optiga_cmd.c **** // Get APDU info value from apdu_data
 212:C:/Users/Yushev/git/optiga-trust-qi/optiga/cmd\optiga_cmd.c **** #define OPTIGA_CMD_GET_APDU_INFO(apdu_data) ((uint8_t)(apdu_data >> OPTIGA_CMD_NO_OF_BITS_IN_BYTE))
 213:C:/Users/Yushev/git/optiga-trust-qi/optiga/cmd\optiga_cmd.c **** 
 214:C:/Users/Yushev/git/optiga-trust-qi/optiga/cmd\optiga_cmd.c **** // Scheduler definitions
 215:C:/Users/Yushev/git/optiga-trust-qi/optiga/cmd\optiga_cmd.c **** 
 216:C:/Users/Yushev/git/optiga-trust-qi/optiga/cmd\optiga_cmd.c **** // Optiga execution slot states
 217:C:/Users/Yushev/git/optiga-trust-qi/optiga/cmd\optiga_cmd.c **** #define     OPTIGA_CMD_QUEUE_NOT_ASSIGNED           (0x00)
 218:C:/Users/Yushev/git/optiga-trust-qi/optiga/cmd\optiga_cmd.c **** #define     OPTIGA_CMD_QUEUE_ASSIGNED               (0x01)
 219:C:/Users/Yushev/git/optiga-trust-qi/optiga/cmd\optiga_cmd.c **** #define     OPTIGA_CMD_QUEUE_REQUEST                (0x02)
 220:C:/Users/Yushev/git/optiga-trust-qi/optiga/cmd\optiga_cmd.c **** #define     OPTIGA_CMD_QUEUE_PROCESSING             (0x04)
 221:C:/Users/Yushev/git/optiga-trust-qi/optiga/cmd\optiga_cmd.c **** #define     OPTIGA_CMD_QUEUE_RESUME                 (0x08)
 222:C:/Users/Yushev/git/optiga-trust-qi/optiga/cmd\optiga_cmd.c **** 
 223:C:/Users/Yushev/git/optiga-trust-qi/optiga/cmd\optiga_cmd.c **** // Optiga session state
 224:C:/Users/Yushev/git/optiga-trust-qi/optiga/cmd\optiga_cmd.c **** #define     OPTIGA_CMD_SESSION_NOT_ASSIGNED         (0x00)
 225:C:/Users/Yushev/git/optiga-trust-qi/optiga/cmd\optiga_cmd.c **** #define     OPTIGA_CMD_SESSION_ASSIGNED             (0x10)
 226:C:/Users/Yushev/git/optiga-trust-qi/optiga/cmd\optiga_cmd.c **** //Session not assigned to optiga cmd instance
 227:C:/Users/Yushev/git/optiga-trust-qi/optiga/cmd\optiga_cmd.c **** #define     OPTIGA_CMD_NO_SESSION_OID               (0x0000)
 228:C:/Users/Yushev/git/optiga-trust-qi/optiga/cmd\optiga_cmd.c **** #define     OPTIGA_CMD_ALL_SESSION_ASSIGNED         (0x10101010)
 229:C:/Users/Yushev/git/optiga-trust-qi/optiga/cmd\optiga_cmd.c **** 
 230:C:/Users/Yushev/git/optiga-trust-qi/optiga/cmd\optiga_cmd.c **** // Optiga slot request types
 231:C:/Users/Yushev/git/optiga-trust-qi/optiga/cmd\optiga_cmd.c **** #define     OPTIGA_CMD_QUEUE_REQUEST_LOCK           (0x21)
 232:C:/Users/Yushev/git/optiga-trust-qi/optiga/cmd\optiga_cmd.c **** #define     OPTIGA_CMD_QUEUE_REQUEST_STRICT_LOCK    (0x23)
 233:C:/Users/Yushev/git/optiga-trust-qi/optiga/cmd\optiga_cmd.c **** #define     OPTIGA_CMD_QUEUE_REQUEST_SESSION        (0x22)
 234:C:/Users/Yushev/git/optiga-trust-qi/optiga/cmd\optiga_cmd.c **** #define     OPTIGA_CMD_QUEUE_NO_REQUEST             (0x00)
 235:C:/Users/Yushev/git/optiga-trust-qi/optiga/cmd\optiga_cmd.c **** 
 236:C:/Users/Yushev/git/optiga-trust-qi/optiga/cmd\optiga_cmd.c **** // Type of slot, Do not change the values
 237:C:/Users/Yushev/git/optiga-trust-qi/optiga/cmd\optiga_cmd.c **** #define     OPTIGA_CMD_QUEUE_SLOT_STATE             (0x09)
 238:C:/Users/Yushev/git/optiga-trust-qi/optiga/cmd\optiga_cmd.c **** // Type of lock, Do not change the values
 239:C:/Users/Yushev/git/optiga-trust-qi/optiga/cmd\optiga_cmd.c **** #define     OPTIGA_CMD_QUEUE_SLOT_LOCK_TYPE         (0x08)
 240:C:/Users/Yushev/git/optiga-trust-qi/optiga/cmd\optiga_cmd.c **** // Frequency of scheduler polling when no asynchronous requests are pending
 241:C:/Users/Yushev/git/optiga-trust-qi/optiga/cmd\optiga_cmd.c **** #define     OPTIGA_CMD_SCHEDULER_IDLING_TIME_MS     (1000U)
 242:C:/Users/Yushev/git/optiga-trust-qi/optiga/cmd\optiga_cmd.c **** // Frequency of scheduler polling when asynchronous requests is being processed
 243:C:/Users/Yushev/git/optiga-trust-qi/optiga/cmd\optiga_cmd.c **** #define     OPTIGA_CMD_SCHEDULER_RUNNING_TIME_MS    (50U)
 244:C:/Users/Yushev/git/optiga-trust-qi/optiga/cmd\optiga_cmd.c **** 
 245:C:/Users/Yushev/git/optiga-trust-qi/optiga/cmd\optiga_cmd.c **** /** \brief The enum represents diffrent main state of command handler */
 246:C:/Users/Yushev/git/optiga-trust-qi/optiga/cmd\optiga_cmd.c **** typedef enum optiga_cmd_state
 247:C:/Users/Yushev/git/optiga-trust-qi/optiga/cmd\optiga_cmd.c **** {
 248:C:/Users/Yushev/git/optiga-trust-qi/optiga/cmd\optiga_cmd.c ****     OPTIGA_CMD_EXEC_COMMS_OPEN = 0,
 249:C:/Users/Yushev/git/optiga-trust-qi/optiga/cmd\optiga_cmd.c ****     OPTIGA_CMD_EXEC_COMMS_CLOSE,
 250:C:/Users/Yushev/git/optiga-trust-qi/optiga/cmd\optiga_cmd.c ****     OPTIGA_CMD_EXEC_PREPARE_COMMAND,
 251:C:/Users/Yushev/git/optiga-trust-qi/optiga/cmd\optiga_cmd.c ****     OPTIGA_CMD_EXEC_PROCESS_RESPONSE,
 252:C:/Users/Yushev/git/optiga-trust-qi/optiga/cmd\optiga_cmd.c ****     OPTIGA_CMD_EXEC_ERROR_HANDLER
 253:C:/Users/Yushev/git/optiga-trust-qi/optiga/cmd\optiga_cmd.c **** } optiga_cmd_state_t;
 254:C:/Users/Yushev/git/optiga-trust-qi/optiga/cmd\optiga_cmd.c **** 
 255:C:/Users/Yushev/git/optiga-trust-qi/optiga/cmd\optiga_cmd.c **** /** \brief The enum represents diffrent sub state of command handler */
 256:C:/Users/Yushev/git/optiga-trust-qi/optiga/cmd\optiga_cmd.c **** typedef enum optiga_cmd_sub_state
 257:C:/Users/Yushev/git/optiga-trust-qi/optiga/cmd\optiga_cmd.c **** {
 258:C:/Users/Yushev/git/optiga-trust-qi/optiga/cmd\optiga_cmd.c ****     OPTIGA_CMD_EXEC_COMMS_OPEN_ACQUIRE_LOCK = 0,
 259:C:/Users/Yushev/git/optiga-trust-qi/optiga/cmd\optiga_cmd.c ****     OPTIGA_CMD_EXEC_COMMS_OPEN_START,
 260:C:/Users/Yushev/git/optiga-trust-qi/optiga/cmd\optiga_cmd.c ****     OPTIGA_CMD_EXEC_COMMS_OPEN_DONE,
 261:C:/Users/Yushev/git/optiga-trust-qi/optiga/cmd\optiga_cmd.c **** 
 262:C:/Users/Yushev/git/optiga-trust-qi/optiga/cmd\optiga_cmd.c ****     OPTIGA_CMD_EXEC_COMMS_CLOSE_START,
 263:C:/Users/Yushev/git/optiga-trust-qi/optiga/cmd\optiga_cmd.c ****     OPTIGA_CMD_EXEC_COMMS_CLOSE_DONE,
 264:C:/Users/Yushev/git/optiga-trust-qi/optiga/cmd\optiga_cmd.c **** 
 265:C:/Users/Yushev/git/optiga-trust-qi/optiga/cmd\optiga_cmd.c ****     OPTIGA_CMD_EXEC_REQUEST_SESSION,
 266:C:/Users/Yushev/git/optiga-trust-qi/optiga/cmd\optiga_cmd.c ****     OPTIGA_CMD_EXEC_REQUEST_LOCK,
 267:C:/Users/Yushev/git/optiga-trust-qi/optiga/cmd\optiga_cmd.c ****     OPTIGA_CMD_EXEC_REQUEST_STRICT_LOCK,
 268:C:/Users/Yushev/git/optiga-trust-qi/optiga/cmd\optiga_cmd.c ****     OPTIGA_CMD_EXEC_PREPARE_APDU,
 269:C:/Users/Yushev/git/optiga-trust-qi/optiga/cmd\optiga_cmd.c **** 
 270:C:/Users/Yushev/git/optiga-trust-qi/optiga/cmd\optiga_cmd.c ****     OPTIGA_CMD_EXEC_PROCESS_OPTIGA_RESPONSE,
 271:C:/Users/Yushev/git/optiga-trust-qi/optiga/cmd\optiga_cmd.c ****     OPTIGA_CMD_EXEC_GET_DEVICE_ERROR,
 272:C:/Users/Yushev/git/optiga-trust-qi/optiga/cmd\optiga_cmd.c ****     OPTIGA_CMD_EXEC_RELEASE_LOCK,
 273:C:/Users/Yushev/git/optiga-trust-qi/optiga/cmd\optiga_cmd.c ****     OPTIGA_CMD_STATE_EXIT
 274:C:/Users/Yushev/git/optiga-trust-qi/optiga/cmd\optiga_cmd.c **** 
 275:C:/Users/Yushev/git/optiga-trust-qi/optiga/cmd\optiga_cmd.c **** } optiga_cmd_sub_state_t;
 276:C:/Users/Yushev/git/optiga-trust-qi/optiga/cmd\optiga_cmd.c **** 
 277:C:/Users/Yushev/git/optiga-trust-qi/optiga/cmd\optiga_cmd.c **** typedef optiga_lib_status_t (*optiga_cmd_handler_t)(optiga_cmd_t * me);
 278:C:/Users/Yushev/git/optiga-trust-qi/optiga/cmd\optiga_cmd.c **** 
 279:C:/Users/Yushev/git/optiga-trust-qi/optiga/cmd\optiga_cmd.c **** /** \brief The structure represents the slot in the execution queue */
 280:C:/Users/Yushev/git/optiga-trust-qi/optiga/cmd\optiga_cmd.c **** typedef struct optiga_cmd_queue_slot
 281:C:/Users/Yushev/git/optiga-trust-qi/optiga/cmd\optiga_cmd.c **** {
 282:C:/Users/Yushev/git/optiga-trust-qi/optiga/cmd\optiga_cmd.c ****     /// Registered context
 283:C:/Users/Yushev/git/optiga-trust-qi/optiga/cmd\optiga_cmd.c ****     void * registered_ctx;
 284:C:/Users/Yushev/git/optiga-trust-qi/optiga/cmd\optiga_cmd.c ****     /// Arrival time of the optiga cmd instance in the execution queue
 285:C:/Users/Yushev/git/optiga-trust-qi/optiga/cmd\optiga_cmd.c ****     uint32_t arrival_time;
 286:C:/Users/Yushev/git/optiga-trust-qi/optiga/cmd\optiga_cmd.c ****     /// Request for command lock or session
 287:C:/Users/Yushev/git/optiga-trust-qi/optiga/cmd\optiga_cmd.c ****     uint8_t request_type;
 288:C:/Users/Yushev/git/optiga-trust-qi/optiga/cmd\optiga_cmd.c ****     /// state of the slot
 289:C:/Users/Yushev/git/optiga-trust-qi/optiga/cmd\optiga_cmd.c ****     uint8_t state_of_entry;
 290:C:/Users/Yushev/git/optiga-trust-qi/optiga/cmd\optiga_cmd.c **** }optiga_cmd_queue_slot_t;
 291:C:/Users/Yushev/git/optiga-trust-qi/optiga/cmd\optiga_cmd.c **** 
 292:C:/Users/Yushev/git/optiga-trust-qi/optiga/cmd\optiga_cmd.c **** 
 293:C:/Users/Yushev/git/optiga-trust-qi/optiga/cmd\optiga_cmd.c **** /**
 294:C:/Users/Yushev/git/optiga-trust-qi/optiga/cmd\optiga_cmd.c **** * \brief OPTIGA Context which holds the communication buffer, comms instance and other required.
 295:C:/Users/Yushev/git/optiga-trust-qi/optiga/cmd\optiga_cmd.c **** *   This would be maintained and consumed by OPTIGA Cmd.
 296:C:/Users/Yushev/git/optiga-trust-qi/optiga/cmd\optiga_cmd.c **** */
 297:C:/Users/Yushev/git/optiga-trust-qi/optiga/cmd\optiga_cmd.c **** struct optiga_context
 298:C:/Users/Yushev/git/optiga-trust-qi/optiga/cmd\optiga_cmd.c **** {
 299:C:/Users/Yushev/git/optiga-trust-qi/optiga/cmd\optiga_cmd.c ****     /// Context of OPTIGA Communication.
 300:C:/Users/Yushev/git/optiga-trust-qi/optiga/cmd\optiga_cmd.c ****     optiga_comms_t * p_optiga_comms;
 301:C:/Users/Yushev/git/optiga-trust-qi/optiga/cmd\optiga_cmd.c ****     /// comms tx size
 302:C:/Users/Yushev/git/optiga-trust-qi/optiga/cmd\optiga_cmd.c ****     uint16_t comms_tx_size;
 303:C:/Users/Yushev/git/optiga-trust-qi/optiga/cmd\optiga_cmd.c ****     /// comms rx size
 304:C:/Users/Yushev/git/optiga-trust-qi/optiga/cmd\optiga_cmd.c ****     uint16_t comms_rx_size;
 305:C:/Users/Yushev/git/optiga-trust-qi/optiga/cmd\optiga_cmd.c ****     /// Structure which maintains the session and contexts of requesters to acquire session.
 306:C:/Users/Yushev/git/optiga-trust-qi/optiga/cmd\optiga_cmd.c ****     uint8_t sessions[OPTIGA_CMD_MAX_NUMBER_OF_SESSIONS];
 307:C:/Users/Yushev/git/optiga-trust-qi/optiga/cmd\optiga_cmd.c ****     /// Indicates if instance is initialized
 308:C:/Users/Yushev/git/optiga-trust-qi/optiga/cmd\optiga_cmd.c ****     uint8_t instance_init_state;
 309:C:/Users/Yushev/git/optiga-trust-qi/optiga/cmd\optiga_cmd.c ****     /// Communication buffer to send/receive APDUs.
 310:C:/Users/Yushev/git/optiga-trust-qi/optiga/cmd\optiga_cmd.c ****     uint8_t optiga_comms_buffer[OPTIGA_CMD_TOTAL_COMMS_BUFFER_SIZE];
 311:C:/Users/Yushev/git/optiga-trust-qi/optiga/cmd\optiga_cmd.c ****     /// optiga execution queue
 312:C:/Users/Yushev/git/optiga-trust-qi/optiga/cmd\optiga_cmd.c ****     optiga_cmd_queue_slot_t optiga_cmd_execution_queue[OPTIGA_CMD_MAX_REGISTRATIONS];
 313:C:/Users/Yushev/git/optiga-trust-qi/optiga/cmd\optiga_cmd.c ****     /// pal os event instance/context
 314:C:/Users/Yushev/git/optiga-trust-qi/optiga/cmd\optiga_cmd.c ****     pal_os_event_t * p_pal_os_event_ctx;
 315:C:/Users/Yushev/git/optiga-trust-qi/optiga/cmd\optiga_cmd.c ****     /// Last processed cmd time stamp
 316:C:/Users/Yushev/git/optiga-trust-qi/optiga/cmd\optiga_cmd.c ****     uint32_t last_time_stamp;
 317:C:/Users/Yushev/git/optiga-trust-qi/optiga/cmd\optiga_cmd.c ****     /// optiga context handle buffer
 318:C:/Users/Yushev/git/optiga-trust-qi/optiga/cmd\optiga_cmd.c ****     uint8_t optiga_context_handle_buffer[APP_CONTEXT_SIZE];
 319:C:/Users/Yushev/git/optiga-trust-qi/optiga/cmd\optiga_cmd.c **** #ifdef OPTIGA_COMMS_SHIELDED_CONNECTION
 320:C:/Users/Yushev/git/optiga-trust-qi/optiga/cmd\optiga_cmd.c ****     /// Protection level status flag
 321:C:/Users/Yushev/git/optiga-trust-qi/optiga/cmd\optiga_cmd.c ****     uint8_t protection_level_state;
 322:C:/Users/Yushev/git/optiga-trust-qi/optiga/cmd\optiga_cmd.c **** #endif //OPTIGA_COMMS_SHIELDED_CONNECTION
 323:C:/Users/Yushev/git/optiga-trust-qi/optiga/cmd\optiga_cmd.c **** };
 324:C:/Users/Yushev/git/optiga-trust-qi/optiga/cmd\optiga_cmd.c **** 
 325:C:/Users/Yushev/git/optiga-trust-qi/optiga/cmd\optiga_cmd.c **** // static instance of optiga
 326:C:/Users/Yushev/git/optiga-trust-qi/optiga/cmd\optiga_cmd.c **** _STATIC_H optiga_context_t g_optiga = {0};
 327:C:/Users/Yushev/git/optiga-trust-qi/optiga/cmd\optiga_cmd.c **** 
 328:C:/Users/Yushev/git/optiga-trust-qi/optiga/cmd\optiga_cmd.c **** // List of optiga instances
 329:C:/Users/Yushev/git/optiga-trust-qi/optiga/cmd\optiga_cmd.c **** //lint --e{843} suppress "Not changing to const as this gets assigned to another context variable w
 330:C:/Users/Yushev/git/optiga-trust-qi/optiga/cmd\optiga_cmd.c **** _STATIC_H optiga_context_t * g_optiga_list[] = {&g_optiga};
 331:C:/Users/Yushev/git/optiga-trust-qi/optiga/cmd\optiga_cmd.c **** 
 332:C:/Users/Yushev/git/optiga-trust-qi/optiga/cmd\optiga_cmd.c **** // hibernate data store for each instance of optiga
 333:C:/Users/Yushev/git/optiga-trust-qi/optiga/cmd\optiga_cmd.c **** //lint --e{843} suppress "Not changing to const as this is used for unit testing as well"
 334:C:/Users/Yushev/git/optiga-trust-qi/optiga/cmd\optiga_cmd.c **** _STATIC_H uint16_t g_hibernate_datastore_id_list[] = {OPTIGA_HIBERNATE_CONTEXT_ID};
 335:C:/Users/Yushev/git/optiga-trust-qi/optiga/cmd\optiga_cmd.c **** 
 336:C:/Users/Yushev/git/optiga-trust-qi/optiga/cmd\optiga_cmd.c **** const uint8_t g_optiga_unique_application_identifier[] =
 337:C:/Users/Yushev/git/optiga-trust-qi/optiga/cmd\optiga_cmd.c **** {
 338:C:/Users/Yushev/git/optiga-trust-qi/optiga/cmd\optiga_cmd.c ****     0xD2, 0x76, 0x00, 0x00, 0x04, 0x47, 0x65, 0x6E, 0x41, 0x75, 0x74, 0x68, 0x41, 0x70, 0x70, 0x6C,
 339:C:/Users/Yushev/git/optiga-trust-qi/optiga/cmd\optiga_cmd.c **** };
 340:C:/Users/Yushev/git/optiga-trust-qi/optiga/cmd\optiga_cmd.c **** 
 341:C:/Users/Yushev/git/optiga-trust-qi/optiga/cmd\optiga_cmd.c **** /**
 342:C:/Users/Yushev/git/optiga-trust-qi/optiga/cmd\optiga_cmd.c **** * \brief Command context
 343:C:/Users/Yushev/git/optiga-trust-qi/optiga/cmd\optiga_cmd.c **** */
 344:C:/Users/Yushev/git/optiga-trust-qi/optiga/cmd\optiga_cmd.c **** struct optiga_cmd
 345:C:/Users/Yushev/git/optiga-trust-qi/optiga/cmd\optiga_cmd.c **** {
 346:C:/Users/Yushev/git/optiga-trust-qi/optiga/cmd\optiga_cmd.c ****     /// Pointer to OPTIGA context which holds the communication buffer, comms instance and other re
 347:C:/Users/Yushev/git/optiga-trust-qi/optiga/cmd\optiga_cmd.c ****     optiga_context_t * p_optiga;
 348:C:/Users/Yushev/git/optiga-trust-qi/optiga/cmd\optiga_cmd.c ****     /// Internal handlers for prepare and process
 349:C:/Users/Yushev/git/optiga-trust-qi/optiga/cmd\optiga_cmd.c ****     optiga_cmd_handler_t cmd_hdlrs;
 350:C:/Users/Yushev/git/optiga-trust-qi/optiga/cmd\optiga_cmd.c ****     /// Command execution input parameters
 351:C:/Users/Yushev/git/optiga-trust-qi/optiga/cmd\optiga_cmd.c ****     void * p_input;
 352:C:/Users/Yushev/git/optiga-trust-qi/optiga/cmd\optiga_cmd.c **** 
 353:C:/Users/Yushev/git/optiga-trust-qi/optiga/cmd\optiga_cmd.c ****     /// Caller context
 354:C:/Users/Yushev/git/optiga-trust-qi/optiga/cmd\optiga_cmd.c ****     void* caller_context;
 355:C:/Users/Yushev/git/optiga-trust-qi/optiga/cmd\optiga_cmd.c ****     /// Callback handler
 356:C:/Users/Yushev/git/optiga-trust-qi/optiga/cmd\optiga_cmd.c ****     callback_handler_t handler;
 357:C:/Users/Yushev/git/optiga-trust-qi/optiga/cmd\optiga_cmd.c ****     /// Holds a Session OID allotted to this instance.
 358:C:/Users/Yushev/git/optiga-trust-qi/optiga/cmd\optiga_cmd.c ****     uint16_t session_oid;
 359:C:/Users/Yushev/git/optiga-trust-qi/optiga/cmd\optiga_cmd.c ****     /// State of the command next execution state
 360:C:/Users/Yushev/git/optiga-trust-qi/optiga/cmd\optiga_cmd.c ****     optiga_cmd_state_t cmd_next_execution_state;
 361:C:/Users/Yushev/git/optiga-trust-qi/optiga/cmd\optiga_cmd.c ****     /// State of the command next execution state
 362:C:/Users/Yushev/git/optiga-trust-qi/optiga/cmd\optiga_cmd.c ****     optiga_cmd_sub_state_t cmd_sub_execution_state;
 363:C:/Users/Yushev/git/optiga-trust-qi/optiga/cmd\optiga_cmd.c ****     /// Chaining flag
 364:C:/Users/Yushev/git/optiga-trust-qi/optiga/cmd\optiga_cmd.c ****     uint8_t chaining_ongoing;
 365:C:/Users/Yushev/git/optiga-trust-qi/optiga/cmd\optiga_cmd.c ****     /// Param value for the respective command to be processed
 366:C:/Users/Yushev/git/optiga-trust-qi/optiga/cmd\optiga_cmd.c ****     uint8_t cmd_param;
 367:C:/Users/Yushev/git/optiga-trust-qi/optiga/cmd\optiga_cmd.c **** #ifdef OPTIGA_COMMS_SHIELDED_CONNECTION
 368:C:/Users/Yushev/git/optiga-trust-qi/optiga/cmd\optiga_cmd.c ****     /// To provide the encryption and decryption need for command and response
 369:C:/Users/Yushev/git/optiga-trust-qi/optiga/cmd\optiga_cmd.c ****     uint8_t protection_level;
 370:C:/Users/Yushev/git/optiga-trust-qi/optiga/cmd\optiga_cmd.c ****     /// To provide the presentation layer protocol version to be used
 371:C:/Users/Yushev/git/optiga-trust-qi/optiga/cmd\optiga_cmd.c ****     uint8_t protocol_version;
 372:C:/Users/Yushev/git/optiga-trust-qi/optiga/cmd\optiga_cmd.c ****     /// To provide the manage context options
 373:C:/Users/Yushev/git/optiga-trust-qi/optiga/cmd\optiga_cmd.c ****     uint8_t manage_context_operation;
 374:C:/Users/Yushev/git/optiga-trust-qi/optiga/cmd\optiga_cmd.c **** #endif //OPTIGA_COMMS_SHIELDED_CONNECTION
 375:C:/Users/Yushev/git/optiga-trust-qi/optiga/cmd\optiga_cmd.c ****     /// To provide error state
 376:C:/Users/Yushev/git/optiga-trust-qi/optiga/cmd\optiga_cmd.c ****     uint8_t device_error_status;
 377:C:/Users/Yushev/git/optiga-trust-qi/optiga/cmd\optiga_cmd.c ****     /// Assigned slot from execution queue
 378:C:/Users/Yushev/git/optiga-trust-qi/optiga/cmd\optiga_cmd.c ****     uint8_t queue_id;
 379:C:/Users/Yushev/git/optiga-trust-qi/optiga/cmd\optiga_cmd.c ****     /// Exit status value
 380:C:/Users/Yushev/git/optiga-trust-qi/optiga/cmd\optiga_cmd.c ****     optiga_lib_status_t exit_status;
 381:C:/Users/Yushev/git/optiga-trust-qi/optiga/cmd\optiga_cmd.c ****     /// Datastore ID for optiga context
 382:C:/Users/Yushev/git/optiga-trust-qi/optiga/cmd\optiga_cmd.c ****     uint16_t optiga_context_datastore_id;
 383:C:/Users/Yushev/git/optiga-trust-qi/optiga/cmd\optiga_cmd.c ****     /// To Store APDU command information which is last processed
 384:C:/Users/Yushev/git/optiga-trust-qi/optiga/cmd\optiga_cmd.c ****     uint16_t apdu_data;
 385:C:/Users/Yushev/git/optiga-trust-qi/optiga/cmd\optiga_cmd.c **** };
 386:C:/Users/Yushev/git/optiga-trust-qi/optiga/cmd\optiga_cmd.c **** 
 387:C:/Users/Yushev/git/optiga-trust-qi/optiga/cmd\optiga_cmd.c **** _STATIC_H optiga_lib_status_t optiga_cmd_get_error_code_handler(optiga_cmd_t * me);
 388:C:/Users/Yushev/git/optiga-trust-qi/optiga/cmd\optiga_cmd.c **** 
 389:C:/Users/Yushev/git/optiga-trust-qi/optiga/cmd\optiga_cmd.c **** #ifdef OPTIGA_COMMS_SHIELDED_CONNECTION
 390:C:/Users/Yushev/git/optiga-trust-qi/optiga/cmd\optiga_cmd.c **** //lint --e{714} suppress "This function is defined here but referred from other modules"
 391:C:/Users/Yushev/git/optiga-trust-qi/optiga/cmd\optiga_cmd.c **** void optiga_cmd_set_shielded_connection_option(optiga_cmd_t * me,
 392:C:/Users/Yushev/git/optiga-trust-qi/optiga/cmd\optiga_cmd.c ****                                                uint8_t value,
 393:C:/Users/Yushev/git/optiga-trust-qi/optiga/cmd\optiga_cmd.c ****                                                uint8_t shielded_connection_option)
 394:C:/Users/Yushev/git/optiga-trust-qi/optiga/cmd\optiga_cmd.c **** {
 395:C:/Users/Yushev/git/optiga-trust-qi/optiga/cmd\optiga_cmd.c ****     switch (shielded_connection_option)
 396:C:/Users/Yushev/git/optiga-trust-qi/optiga/cmd\optiga_cmd.c ****     {
 397:C:/Users/Yushev/git/optiga-trust-qi/optiga/cmd\optiga_cmd.c ****         // Protection Level
 398:C:/Users/Yushev/git/optiga-trust-qi/optiga/cmd\optiga_cmd.c ****         case OPTIGA_SET_PROTECTION_LEVEL:
 399:C:/Users/Yushev/git/optiga-trust-qi/optiga/cmd\optiga_cmd.c ****         {
 400:C:/Users/Yushev/git/optiga-trust-qi/optiga/cmd\optiga_cmd.c ****             me->protection_level = value;
 401:C:/Users/Yushev/git/optiga-trust-qi/optiga/cmd\optiga_cmd.c ****         }
 402:C:/Users/Yushev/git/optiga-trust-qi/optiga/cmd\optiga_cmd.c ****         break;
 403:C:/Users/Yushev/git/optiga-trust-qi/optiga/cmd\optiga_cmd.c ****         // Protocol Version
 404:C:/Users/Yushev/git/optiga-trust-qi/optiga/cmd\optiga_cmd.c ****         case OPTIGA_SET_PROTECTION_VERSION:
 405:C:/Users/Yushev/git/optiga-trust-qi/optiga/cmd\optiga_cmd.c ****         {
 406:C:/Users/Yushev/git/optiga-trust-qi/optiga/cmd\optiga_cmd.c ****             me->protocol_version = value;
 407:C:/Users/Yushev/git/optiga-trust-qi/optiga/cmd\optiga_cmd.c ****         }
 408:C:/Users/Yushev/git/optiga-trust-qi/optiga/cmd\optiga_cmd.c ****         break;
 409:C:/Users/Yushev/git/optiga-trust-qi/optiga/cmd\optiga_cmd.c ****         // Manage Context
 410:C:/Users/Yushev/git/optiga-trust-qi/optiga/cmd\optiga_cmd.c ****         case OPTIGA_SET_MANAGE_CONTEXT:
 411:C:/Users/Yushev/git/optiga-trust-qi/optiga/cmd\optiga_cmd.c ****         {
 412:C:/Users/Yushev/git/optiga-trust-qi/optiga/cmd\optiga_cmd.c ****             me->manage_context_operation = value;
 413:C:/Users/Yushev/git/optiga-trust-qi/optiga/cmd\optiga_cmd.c ****         }
 414:C:/Users/Yushev/git/optiga-trust-qi/optiga/cmd\optiga_cmd.c ****         break;
 415:C:/Users/Yushev/git/optiga-trust-qi/optiga/cmd\optiga_cmd.c ****         default:
 416:C:/Users/Yushev/git/optiga-trust-qi/optiga/cmd\optiga_cmd.c ****         break;
 417:C:/Users/Yushev/git/optiga-trust-qi/optiga/cmd\optiga_cmd.c ****     }
 418:C:/Users/Yushev/git/optiga-trust-qi/optiga/cmd\optiga_cmd.c **** }
 419:C:/Users/Yushev/git/optiga-trust-qi/optiga/cmd\optiga_cmd.c **** 
 420:C:/Users/Yushev/git/optiga-trust-qi/optiga/cmd\optiga_cmd.c **** #endif // OPTIGA_COMMS_SHIELDED_CONNECTION
 421:C:/Users/Yushev/git/optiga-trust-qi/optiga/cmd\optiga_cmd.c **** 
 422:C:/Users/Yushev/git/optiga-trust-qi/optiga/cmd\optiga_cmd.c **** // Cmd execute handler
 423:C:/Users/Yushev/git/optiga-trust-qi/optiga/cmd\optiga_cmd.c **** _STATIC_H void optiga_cmd_execute(optiga_cmd_t * me,
 424:C:/Users/Yushev/git/optiga-trust-qi/optiga/cmd\optiga_cmd.c ****                                   uint8_t cmd_param,
 425:C:/Users/Yushev/git/optiga-trust-qi/optiga/cmd\optiga_cmd.c ****                                   optiga_cmd_handler_t cmd_hdlrs,
 426:C:/Users/Yushev/git/optiga-trust-qi/optiga/cmd\optiga_cmd.c ****                                   optiga_cmd_state_t start_state,
 427:C:/Users/Yushev/git/optiga-trust-qi/optiga/cmd\optiga_cmd.c ****                                   optiga_cmd_sub_state_t sub_state,
 428:C:/Users/Yushev/git/optiga-trust-qi/optiga/cmd\optiga_cmd.c ****                                   void * input,
 429:C:/Users/Yushev/git/optiga-trust-qi/optiga/cmd\optiga_cmd.c ****                                   uint16_t apdu_data);
 430:C:/Users/Yushev/git/optiga-trust-qi/optiga/cmd\optiga_cmd.c **** 
 431:C:/Users/Yushev/git/optiga-trust-qi/optiga/cmd\optiga_cmd.c **** // Cmd State machine handler
 432:C:/Users/Yushev/git/optiga-trust-qi/optiga/cmd\optiga_cmd.c **** _STATIC_H void optiga_cmd_execute_handler(void * p_ctx,
 433:C:/Users/Yushev/git/optiga-trust-qi/optiga/cmd\optiga_cmd.c ****                                           optiga_lib_status_t event);
 434:C:/Users/Yushev/git/optiga-trust-qi/optiga/cmd\optiga_cmd.c **** 
 435:C:/Users/Yushev/git/optiga-trust-qi/optiga/cmd\optiga_cmd.c **** //
 436:C:/Users/Yushev/git/optiga-trust-qi/optiga/cmd\optiga_cmd.c **** _STATIC_H void optiga_cmd_prepare_apdu_header(uint8_t cmd, uint8_t param,
 437:C:/Users/Yushev/git/optiga-trust-qi/optiga/cmd\optiga_cmd.c ****                                               uint16_t in_data_length,
 438:C:/Users/Yushev/git/optiga-trust-qi/optiga/cmd\optiga_cmd.c ****                                               uint8_t * p_apdu_buffer)
 439:C:/Users/Yushev/git/optiga-trust-qi/optiga/cmd\optiga_cmd.c **** {
 440:C:/Users/Yushev/git/optiga-trust-qi/optiga/cmd\optiga_cmd.c ****     p_apdu_buffer [0] = cmd;
 441:C:/Users/Yushev/git/optiga-trust-qi/optiga/cmd\optiga_cmd.c ****     p_apdu_buffer [1] = param;
 442:C:/Users/Yushev/git/optiga-trust-qi/optiga/cmd\optiga_cmd.c ****     p_apdu_buffer [2] = (uint8_t)((in_data_length & 0xFF00) >> 8);
 443:C:/Users/Yushev/git/optiga-trust-qi/optiga/cmd\optiga_cmd.c ****     p_apdu_buffer [3] = (uint8_t)(in_data_length & 0x00FF);
 444:C:/Users/Yushev/git/optiga-trust-qi/optiga/cmd\optiga_cmd.c **** }
 445:C:/Users/Yushev/git/optiga-trust-qi/optiga/cmd\optiga_cmd.c **** 
 446:C:/Users/Yushev/git/optiga-trust-qi/optiga/cmd\optiga_cmd.c **** 
 447:C:/Users/Yushev/git/optiga-trust-qi/optiga/cmd\optiga_cmd.c **** _STATIC_H void optiga_cmd_prepare_tag_header(uint8_t tag,
 448:C:/Users/Yushev/git/optiga-trust-qi/optiga/cmd\optiga_cmd.c ****                                              uint16_t tag_length,
 449:C:/Users/Yushev/git/optiga-trust-qi/optiga/cmd\optiga_cmd.c ****                                              uint8_t * buffer,
 450:C:/Users/Yushev/git/optiga-trust-qi/optiga/cmd\optiga_cmd.c ****                                              uint16_t * position)
 451:C:/Users/Yushev/git/optiga-trust-qi/optiga/cmd\optiga_cmd.c **** {
  27              	 .loc 1 451 0
  28              	 .cfi_startproc
  29              	 
  30              	 
  31              	.LVL0:
  32 0000 30B5     	 push {r4,r5,lr}
  33              	.LCFI0:
  34              	 .cfi_def_cfa_offset 12
  35              	 .cfi_offset 4,-12
  36              	 .cfi_offset 5,-8
  37              	 .cfi_offset 14,-4
 452:C:/Users/Yushev/git/optiga-trust-qi/optiga/cmd\optiga_cmd.c ****     uint16_t start_position = *position;
  38              	 .loc 1 452 0
  39 0002 1C88     	 ldrh r4,[r3]
  40              	.LVL1:
 453:C:/Users/Yushev/git/optiga-trust-qi/optiga/cmd\optiga_cmd.c **** 
 454:C:/Users/Yushev/git/optiga-trust-qi/optiga/cmd\optiga_cmd.c ****     buffer[start_position++] = tag;
  41              	 .loc 1 454 0
  42 0004 1055     	 strb r0,[r2,r4]
  43              	.LVL2:
  44 0006 601C     	 adds r0,r4,#1
  45              	.LVL3:
 455:C:/Users/Yushev/git/optiga-trust-qi/optiga/cmd\optiga_cmd.c ****     buffer[start_position++] = (uint8_t )(tag_length >> 8);
  46              	 .loc 1 455 0
  47 0008 80B2     	 uxth r0,r0
  48 000a 0D0A     	 lsrs r5,r1,#8
  49 000c 1554     	 strb r5,[r2,r0]
  50              	.LVL4:
  51 000e A01C     	 adds r0,r4,#2
 456:C:/Users/Yushev/git/optiga-trust-qi/optiga/cmd\optiga_cmd.c ****     buffer[start_position++] = (uint8_t )(tag_length);
  52              	 .loc 1 456 0
  53 0010 80B2     	 uxth r0,r0
  54 0012 0334     	 adds r4,r4,#3
  55              	.LVL5:
  56 0014 1154     	 strb r1,[r2,r0]
 457:C:/Users/Yushev/git/optiga-trust-qi/optiga/cmd\optiga_cmd.c **** 
 458:C:/Users/Yushev/git/optiga-trust-qi/optiga/cmd\optiga_cmd.c ****     *position = start_position;
  57              	 .loc 1 458 0
  58 0016 1C80     	 strh r4,[r3]
  59 0018 30BD     	 pop {r4,r5,pc}
  60              	 .cfi_endproc
  61              	.LFE2:
  63              	 .section .text.optiga_cmd_queue_update_slot,"ax",%progbits
  64              	 .align 1
  65              	 .thumb
  66              	 .thumb_func
  68              	optiga_cmd_queue_update_slot:
  69              	.LFB13:
 459:C:/Users/Yushev/git/optiga-trust-qi/optiga/cmd\optiga_cmd.c **** }
 460:C:/Users/Yushev/git/optiga-trust-qi/optiga/cmd\optiga_cmd.c **** 
 461:C:/Users/Yushev/git/optiga-trust-qi/optiga/cmd\optiga_cmd.c **** 
 462:C:/Users/Yushev/git/optiga-trust-qi/optiga/cmd\optiga_cmd.c **** _STATIC_H void optiga_cmd_event_trigger_execute(void * p_ctx)
 463:C:/Users/Yushev/git/optiga-trust-qi/optiga/cmd\optiga_cmd.c **** {
 464:C:/Users/Yushev/git/optiga-trust-qi/optiga/cmd\optiga_cmd.c ****     optiga_cmd_execute_handler(p_ctx, OPTIGA_LIB_SUCCESS);
 465:C:/Users/Yushev/git/optiga-trust-qi/optiga/cmd\optiga_cmd.c **** }
 466:C:/Users/Yushev/git/optiga-trust-qi/optiga/cmd\optiga_cmd.c **** 
 467:C:/Users/Yushev/git/optiga-trust-qi/optiga/cmd\optiga_cmd.c **** _STATIC_H void optiga_cmd_execute(optiga_cmd_t * me,
 468:C:/Users/Yushev/git/optiga-trust-qi/optiga/cmd\optiga_cmd.c ****                                   uint8_t cmd_param,
 469:C:/Users/Yushev/git/optiga-trust-qi/optiga/cmd\optiga_cmd.c ****                                   optiga_cmd_handler_t cmd_hdlrs,
 470:C:/Users/Yushev/git/optiga-trust-qi/optiga/cmd\optiga_cmd.c ****                                   optiga_cmd_state_t start_state,
 471:C:/Users/Yushev/git/optiga-trust-qi/optiga/cmd\optiga_cmd.c ****                                   optiga_cmd_sub_state_t sub_state,
 472:C:/Users/Yushev/git/optiga-trust-qi/optiga/cmd\optiga_cmd.c ****                                   void * input,
 473:C:/Users/Yushev/git/optiga-trust-qi/optiga/cmd\optiga_cmd.c ****                                   uint16_t apdu_data)
 474:C:/Users/Yushev/git/optiga-trust-qi/optiga/cmd\optiga_cmd.c **** {
 475:C:/Users/Yushev/git/optiga-trust-qi/optiga/cmd\optiga_cmd.c ****     me->p_input = input;
 476:C:/Users/Yushev/git/optiga-trust-qi/optiga/cmd\optiga_cmd.c ****     me->cmd_next_execution_state = start_state;
 477:C:/Users/Yushev/git/optiga-trust-qi/optiga/cmd\optiga_cmd.c ****     me->cmd_sub_execution_state = sub_state;
 478:C:/Users/Yushev/git/optiga-trust-qi/optiga/cmd\optiga_cmd.c ****     me->cmd_hdlrs = cmd_hdlrs;
 479:C:/Users/Yushev/git/optiga-trust-qi/optiga/cmd\optiga_cmd.c ****     me->chaining_ongoing = FALSE;
 480:C:/Users/Yushev/git/optiga-trust-qi/optiga/cmd\optiga_cmd.c ****     me->cmd_param = cmd_param;
 481:C:/Users/Yushev/git/optiga-trust-qi/optiga/cmd\optiga_cmd.c ****     me->apdu_data = apdu_data;
 482:C:/Users/Yushev/git/optiga-trust-qi/optiga/cmd\optiga_cmd.c ****     optiga_cmd_execute_handler(me, OPTIGA_LIB_SUCCESS);
 483:C:/Users/Yushev/git/optiga-trust-qi/optiga/cmd\optiga_cmd.c **** }
 484:C:/Users/Yushev/git/optiga-trust-qi/optiga/cmd\optiga_cmd.c **** 
 485:C:/Users/Yushev/git/optiga-trust-qi/optiga/cmd\optiga_cmd.c **** /*
 486:C:/Users/Yushev/git/optiga-trust-qi/optiga/cmd\optiga_cmd.c **** * Checks if optiga session is available or not
 487:C:/Users/Yushev/git/optiga-trust-qi/optiga/cmd\optiga_cmd.c **** * Returns TRUE, if slot is available
 488:C:/Users/Yushev/git/optiga-trust-qi/optiga/cmd\optiga_cmd.c **** * Returns FALSE, if slot is not available
 489:C:/Users/Yushev/git/optiga-trust-qi/optiga/cmd\optiga_cmd.c **** */
 490:C:/Users/Yushev/git/optiga-trust-qi/optiga/cmd\optiga_cmd.c **** _STATIC_H bool_t optiga_cmd_session_available(const optiga_context_t * p_optiga)
 491:C:/Users/Yushev/git/optiga-trust-qi/optiga/cmd\optiga_cmd.c **** {
 492:C:/Users/Yushev/git/optiga-trust-qi/optiga/cmd\optiga_cmd.c ****     uint32_t status_check;
 493:C:/Users/Yushev/git/optiga-trust-qi/optiga/cmd\optiga_cmd.c ****     // Consider the array as uin32_t value and check against 0x10101010
 494:C:/Users/Yushev/git/optiga-trust-qi/optiga/cmd\optiga_cmd.c ****     // where 0x10 is value of OPTIGA_CMD_SESSION_ASSIGNED
 495:C:/Users/Yushev/git/optiga-trust-qi/optiga/cmd\optiga_cmd.c ****     status_check = optiga_common_get_uint32(p_optiga->sessions);
 496:C:/Users/Yushev/git/optiga-trust-qi/optiga/cmd\optiga_cmd.c ****     return ((status_check < OPTIGA_CMD_ALL_SESSION_ASSIGNED)? (TRUE):(FALSE));
 497:C:/Users/Yushev/git/optiga-trust-qi/optiga/cmd\optiga_cmd.c **** }
 498:C:/Users/Yushev/git/optiga-trust-qi/optiga/cmd\optiga_cmd.c **** 
 499:C:/Users/Yushev/git/optiga-trust-qi/optiga/cmd\optiga_cmd.c **** /*
 500:C:/Users/Yushev/git/optiga-trust-qi/optiga/cmd\optiga_cmd.c **** * 1. If a optiga cmd instance does not have session, assigns an available session
 501:C:/Users/Yushev/git/optiga-trust-qi/optiga/cmd\optiga_cmd.c **** */
 502:C:/Users/Yushev/git/optiga-trust-qi/optiga/cmd\optiga_cmd.c **** _STATIC_H void optiga_cmd_session_assign(optiga_cmd_t * me)
 503:C:/Users/Yushev/git/optiga-trust-qi/optiga/cmd\optiga_cmd.c **** {
 504:C:/Users/Yushev/git/optiga-trust-qi/optiga/cmd\optiga_cmd.c ****     uint8_t * p_optiga_sessions = me->p_optiga->sessions;
 505:C:/Users/Yushev/git/optiga-trust-qi/optiga/cmd\optiga_cmd.c ****     uint8_t count;
 506:C:/Users/Yushev/git/optiga-trust-qi/optiga/cmd\optiga_cmd.c ****     if (OPTIGA_CMD_NO_SESSION_OID == me->session_oid)
 507:C:/Users/Yushev/git/optiga-trust-qi/optiga/cmd\optiga_cmd.c ****     {
 508:C:/Users/Yushev/git/optiga-trust-qi/optiga/cmd\optiga_cmd.c ****         for (count = 0; count < OPTIGA_CMD_MAX_NUMBER_OF_SESSIONS; count++)
 509:C:/Users/Yushev/git/optiga-trust-qi/optiga/cmd\optiga_cmd.c ****         {
 510:C:/Users/Yushev/git/optiga-trust-qi/optiga/cmd\optiga_cmd.c ****             if (OPTIGA_CMD_SESSION_ASSIGNED != p_optiga_sessions[count])
 511:C:/Users/Yushev/git/optiga-trust-qi/optiga/cmd\optiga_cmd.c ****             {
 512:C:/Users/Yushev/git/optiga-trust-qi/optiga/cmd\optiga_cmd.c ****                 me->session_oid = (OPTIGA_CMD_START_SESSION_OID | count);
 513:C:/Users/Yushev/git/optiga-trust-qi/optiga/cmd\optiga_cmd.c ****                 p_optiga_sessions[count] = OPTIGA_CMD_SESSION_ASSIGNED;
 514:C:/Users/Yushev/git/optiga-trust-qi/optiga/cmd\optiga_cmd.c ****                 break;
 515:C:/Users/Yushev/git/optiga-trust-qi/optiga/cmd\optiga_cmd.c ****             }
 516:C:/Users/Yushev/git/optiga-trust-qi/optiga/cmd\optiga_cmd.c ****         }
 517:C:/Users/Yushev/git/optiga-trust-qi/optiga/cmd\optiga_cmd.c ****     }
 518:C:/Users/Yushev/git/optiga-trust-qi/optiga/cmd\optiga_cmd.c **** }
 519:C:/Users/Yushev/git/optiga-trust-qi/optiga/cmd\optiga_cmd.c **** 
 520:C:/Users/Yushev/git/optiga-trust-qi/optiga/cmd\optiga_cmd.c **** /*
 521:C:/Users/Yushev/git/optiga-trust-qi/optiga/cmd\optiga_cmd.c **** * Frees a session
 522:C:/Users/Yushev/git/optiga-trust-qi/optiga/cmd\optiga_cmd.c **** */
 523:C:/Users/Yushev/git/optiga-trust-qi/optiga/cmd\optiga_cmd.c **** _STATIC_H void optiga_cmd_session_free(optiga_cmd_t * me)
 524:C:/Users/Yushev/git/optiga-trust-qi/optiga/cmd\optiga_cmd.c **** {
 525:C:/Users/Yushev/git/optiga-trust-qi/optiga/cmd\optiga_cmd.c ****     uint8_t * p_optiga_sessions = me->p_optiga->sessions;
 526:C:/Users/Yushev/git/optiga-trust-qi/optiga/cmd\optiga_cmd.c ****     uint8_t count;
 527:C:/Users/Yushev/git/optiga-trust-qi/optiga/cmd\optiga_cmd.c ****     if (OPTIGA_CMD_NO_SESSION_OID != me->session_oid)
 528:C:/Users/Yushev/git/optiga-trust-qi/optiga/cmd\optiga_cmd.c ****     {
 529:C:/Users/Yushev/git/optiga-trust-qi/optiga/cmd\optiga_cmd.c ****         count = me->session_oid & 0x0F;
 530:C:/Users/Yushev/git/optiga-trust-qi/optiga/cmd\optiga_cmd.c ****         me->session_oid = OPTIGA_CMD_NO_SESSION_OID;
 531:C:/Users/Yushev/git/optiga-trust-qi/optiga/cmd\optiga_cmd.c ****         p_optiga_sessions[count] = OPTIGA_CMD_SESSION_NOT_ASSIGNED;
 532:C:/Users/Yushev/git/optiga-trust-qi/optiga/cmd\optiga_cmd.c ****     }
 533:C:/Users/Yushev/git/optiga-trust-qi/optiga/cmd\optiga_cmd.c **** }
 534:C:/Users/Yushev/git/optiga-trust-qi/optiga/cmd\optiga_cmd.c **** 
 535:C:/Users/Yushev/git/optiga-trust-qi/optiga/cmd\optiga_cmd.c **** /*
 536:C:/Users/Yushev/git/optiga-trust-qi/optiga/cmd\optiga_cmd.c **** *  Returns the requested info in the queue slot input cmd instance
 537:C:/Users/Yushev/git/optiga-trust-qi/optiga/cmd\optiga_cmd.c **** */
 538:C:/Users/Yushev/git/optiga-trust-qi/optiga/cmd\optiga_cmd.c **** _STATIC_H  uint8_t optiga_cmd_queue_get_state_of(const optiga_cmd_t * me, uint8_t slot_member)
 539:C:/Users/Yushev/git/optiga-trust-qi/optiga/cmd\optiga_cmd.c **** {
 540:C:/Users/Yushev/git/optiga-trust-qi/optiga/cmd\optiga_cmd.c ****     uint8_t state = 0;
 541:C:/Users/Yushev/git/optiga-trust-qi/optiga/cmd\optiga_cmd.c ****     switch (slot_member)
 542:C:/Users/Yushev/git/optiga-trust-qi/optiga/cmd\optiga_cmd.c ****     {
 543:C:/Users/Yushev/git/optiga-trust-qi/optiga/cmd\optiga_cmd.c ****         case OPTIGA_CMD_QUEUE_SLOT_LOCK_TYPE:
 544:C:/Users/Yushev/git/optiga-trust-qi/optiga/cmd\optiga_cmd.c ****         {
 545:C:/Users/Yushev/git/optiga-trust-qi/optiga/cmd\optiga_cmd.c ****             state = me->p_optiga->optiga_cmd_execution_queue[me->queue_id].request_type;
 546:C:/Users/Yushev/git/optiga-trust-qi/optiga/cmd\optiga_cmd.c ****         }
 547:C:/Users/Yushev/git/optiga-trust-qi/optiga/cmd\optiga_cmd.c ****         break;
 548:C:/Users/Yushev/git/optiga-trust-qi/optiga/cmd\optiga_cmd.c ****         case OPTIGA_CMD_QUEUE_SLOT_STATE:
 549:C:/Users/Yushev/git/optiga-trust-qi/optiga/cmd\optiga_cmd.c ****         {
 550:C:/Users/Yushev/git/optiga-trust-qi/optiga/cmd\optiga_cmd.c ****             state = me->p_optiga->optiga_cmd_execution_queue[me->queue_id].state_of_entry;
 551:C:/Users/Yushev/git/optiga-trust-qi/optiga/cmd\optiga_cmd.c ****         }
 552:C:/Users/Yushev/git/optiga-trust-qi/optiga/cmd\optiga_cmd.c ****         break;
 553:C:/Users/Yushev/git/optiga-trust-qi/optiga/cmd\optiga_cmd.c ****         default:
 554:C:/Users/Yushev/git/optiga-trust-qi/optiga/cmd\optiga_cmd.c ****             break;
 555:C:/Users/Yushev/git/optiga-trust-qi/optiga/cmd\optiga_cmd.c ****     }
 556:C:/Users/Yushev/git/optiga-trust-qi/optiga/cmd\optiga_cmd.c ****     return (state);
 557:C:/Users/Yushev/git/optiga-trust-qi/optiga/cmd\optiga_cmd.c **** }
 558:C:/Users/Yushev/git/optiga-trust-qi/optiga/cmd\optiga_cmd.c **** 
 559:C:/Users/Yushev/git/optiga-trust-qi/optiga/cmd\optiga_cmd.c **** /*
 560:C:/Users/Yushev/git/optiga-trust-qi/optiga/cmd\optiga_cmd.c **** * Returns the count of number of slots with requested state
 561:C:/Users/Yushev/git/optiga-trust-qi/optiga/cmd\optiga_cmd.c **** */
 562:C:/Users/Yushev/git/optiga-trust-qi/optiga/cmd\optiga_cmd.c **** _STATIC_H  uint8_t optiga_cmd_queue_get_count_of(const optiga_context_t * p_optiga,
 563:C:/Users/Yushev/git/optiga-trust-qi/optiga/cmd\optiga_cmd.c ****                                                  uint8_t slot_member,
 564:C:/Users/Yushev/git/optiga-trust-qi/optiga/cmd\optiga_cmd.c ****                                                  uint8_t state_to_check)
 565:C:/Users/Yushev/git/optiga-trust-qi/optiga/cmd\optiga_cmd.c **** {
 566:C:/Users/Yushev/git/optiga-trust-qi/optiga/cmd\optiga_cmd.c ****     uint8_t index;
 567:C:/Users/Yushev/git/optiga-trust-qi/optiga/cmd\optiga_cmd.c ****     uint8_t count = 0;
 568:C:/Users/Yushev/git/optiga-trust-qi/optiga/cmd\optiga_cmd.c ****     uint8_t slot_value = 0;
 569:C:/Users/Yushev/git/optiga-trust-qi/optiga/cmd\optiga_cmd.c ****     for (index = 0; index < OPTIGA_CMD_MAX_REGISTRATIONS ; index++)
 570:C:/Users/Yushev/git/optiga-trust-qi/optiga/cmd\optiga_cmd.c ****     {
 571:C:/Users/Yushev/git/optiga-trust-qi/optiga/cmd\optiga_cmd.c ****         switch (slot_member)
 572:C:/Users/Yushev/git/optiga-trust-qi/optiga/cmd\optiga_cmd.c ****         {
 573:C:/Users/Yushev/git/optiga-trust-qi/optiga/cmd\optiga_cmd.c ****             case OPTIGA_CMD_QUEUE_SLOT_LOCK_TYPE:
 574:C:/Users/Yushev/git/optiga-trust-qi/optiga/cmd\optiga_cmd.c ****             {
 575:C:/Users/Yushev/git/optiga-trust-qi/optiga/cmd\optiga_cmd.c ****                 slot_value = p_optiga->optiga_cmd_execution_queue[index].request_type;
 576:C:/Users/Yushev/git/optiga-trust-qi/optiga/cmd\optiga_cmd.c ****             }
 577:C:/Users/Yushev/git/optiga-trust-qi/optiga/cmd\optiga_cmd.c ****             break;
 578:C:/Users/Yushev/git/optiga-trust-qi/optiga/cmd\optiga_cmd.c ****             case OPTIGA_CMD_QUEUE_SLOT_STATE:
 579:C:/Users/Yushev/git/optiga-trust-qi/optiga/cmd\optiga_cmd.c ****             {
 580:C:/Users/Yushev/git/optiga-trust-qi/optiga/cmd\optiga_cmd.c ****                 slot_value = p_optiga->optiga_cmd_execution_queue[index].state_of_entry;
 581:C:/Users/Yushev/git/optiga-trust-qi/optiga/cmd\optiga_cmd.c ****             }
 582:C:/Users/Yushev/git/optiga-trust-qi/optiga/cmd\optiga_cmd.c ****             break;
 583:C:/Users/Yushev/git/optiga-trust-qi/optiga/cmd\optiga_cmd.c ****             default:
 584:C:/Users/Yushev/git/optiga-trust-qi/optiga/cmd\optiga_cmd.c ****                 break;
 585:C:/Users/Yushev/git/optiga-trust-qi/optiga/cmd\optiga_cmd.c ****         }
 586:C:/Users/Yushev/git/optiga-trust-qi/optiga/cmd\optiga_cmd.c ****         if (state_to_check == slot_value)
 587:C:/Users/Yushev/git/optiga-trust-qi/optiga/cmd\optiga_cmd.c ****         {
 588:C:/Users/Yushev/git/optiga-trust-qi/optiga/cmd\optiga_cmd.c ****             count++;
 589:C:/Users/Yushev/git/optiga-trust-qi/optiga/cmd\optiga_cmd.c ****         }
 590:C:/Users/Yushev/git/optiga-trust-qi/optiga/cmd\optiga_cmd.c ****     }
 591:C:/Users/Yushev/git/optiga-trust-qi/optiga/cmd\optiga_cmd.c ****     return (count);
 592:C:/Users/Yushev/git/optiga-trust-qi/optiga/cmd\optiga_cmd.c **** }
 593:C:/Users/Yushev/git/optiga-trust-qi/optiga/cmd\optiga_cmd.c **** 
 594:C:/Users/Yushev/git/optiga-trust-qi/optiga/cmd\optiga_cmd.c **** /*
 595:C:/Users/Yushev/git/optiga-trust-qi/optiga/cmd\optiga_cmd.c **** * Assigns an available slot to a optiga cmd instance and marks the slot as not available for anothe
 596:C:/Users/Yushev/git/optiga-trust-qi/optiga/cmd\optiga_cmd.c **** */
 597:C:/Users/Yushev/git/optiga-trust-qi/optiga/cmd\optiga_cmd.c **** _STATIC_H void optiga_cmd_queue_assign_slot(const optiga_cmd_t * me, uint8_t * queue_index_store)
 598:C:/Users/Yushev/git/optiga-trust-qi/optiga/cmd\optiga_cmd.c **** {
 599:C:/Users/Yushev/git/optiga-trust-qi/optiga/cmd\optiga_cmd.c ****     uint8_t index;
 600:C:/Users/Yushev/git/optiga-trust-qi/optiga/cmd\optiga_cmd.c ****     for (index = 0; index < OPTIGA_CMD_MAX_REGISTRATIONS ; index++)
 601:C:/Users/Yushev/git/optiga-trust-qi/optiga/cmd\optiga_cmd.c ****     {
 602:C:/Users/Yushev/git/optiga-trust-qi/optiga/cmd\optiga_cmd.c ****         if (OPTIGA_CMD_QUEUE_NOT_ASSIGNED == me->p_optiga->optiga_cmd_execution_queue[index].state_
 603:C:/Users/Yushev/git/optiga-trust-qi/optiga/cmd\optiga_cmd.c ****         {
 604:C:/Users/Yushev/git/optiga-trust-qi/optiga/cmd\optiga_cmd.c ****             * queue_index_store =  index;
 605:C:/Users/Yushev/git/optiga-trust-qi/optiga/cmd\optiga_cmd.c ****             me->p_optiga->optiga_cmd_execution_queue[index].state_of_entry = OPTIGA_CMD_QUEUE_ASSIG
 606:C:/Users/Yushev/git/optiga-trust-qi/optiga/cmd\optiga_cmd.c ****            break;
 607:C:/Users/Yushev/git/optiga-trust-qi/optiga/cmd\optiga_cmd.c ****         }
 608:C:/Users/Yushev/git/optiga-trust-qi/optiga/cmd\optiga_cmd.c ****     }
 609:C:/Users/Yushev/git/optiga-trust-qi/optiga/cmd\optiga_cmd.c **** }
 610:C:/Users/Yushev/git/optiga-trust-qi/optiga/cmd\optiga_cmd.c **** 
 611:C:/Users/Yushev/git/optiga-trust-qi/optiga/cmd\optiga_cmd.c **** /*
 612:C:/Users/Yushev/git/optiga-trust-qi/optiga/cmd\optiga_cmd.c **** * De-assigns a slot from a optiga cmd instance and makes the slot available for next optiga cmd ins
 613:C:/Users/Yushev/git/optiga-trust-qi/optiga/cmd\optiga_cmd.c **** */
 614:C:/Users/Yushev/git/optiga-trust-qi/optiga/cmd\optiga_cmd.c **** _STATIC_H void optiga_cmd_queue_deassign_slot(optiga_cmd_t * me)
 615:C:/Users/Yushev/git/optiga-trust-qi/optiga/cmd\optiga_cmd.c **** {
 616:C:/Users/Yushev/git/optiga-trust-qi/optiga/cmd\optiga_cmd.c ****     me->p_optiga->optiga_cmd_execution_queue[me->queue_id].state_of_entry = OPTIGA_CMD_QUEUE_NOT_AS
 617:C:/Users/Yushev/git/optiga-trust-qi/optiga/cmd\optiga_cmd.c ****     me->p_optiga->optiga_cmd_execution_queue[me->queue_id].request_type = OPTIGA_CMD_QUEUE_NO_REQUE
 618:C:/Users/Yushev/git/optiga-trust-qi/optiga/cmd\optiga_cmd.c ****     me->queue_id = 0;
 619:C:/Users/Yushev/git/optiga-trust-qi/optiga/cmd\optiga_cmd.c **** }
 620:C:/Users/Yushev/git/optiga-trust-qi/optiga/cmd\optiga_cmd.c **** 
 621:C:/Users/Yushev/git/optiga-trust-qi/optiga/cmd\optiga_cmd.c **** /*
 622:C:/Users/Yushev/git/optiga-trust-qi/optiga/cmd\optiga_cmd.c **** * Select next optiga cmd instance from the execution queue based on a rule
 623:C:/Users/Yushev/git/optiga-trust-qi/optiga/cmd\optiga_cmd.c **** * 1. A slot with OPTIGA_CMD_QUEUE_RESUME state should exist
 624:C:/Users/Yushev/git/optiga-trust-qi/optiga/cmd\optiga_cmd.c **** * 2. Pick the slot which has acquired the strict slot
 625:C:/Users/Yushev/git/optiga-trust-qi/optiga/cmd\optiga_cmd.c **** * 3. If no slot with OPTIGA_CMD_QUEUE_RESUME exists, slot must be in OPTIGA_CMD_QUEUE_REQUEST state
 626:C:/Users/Yushev/git/optiga-trust-qi/optiga/cmd\optiga_cmd.c **** * 4. The arrival time must be the earliest provided
 627:C:/Users/Yushev/git/optiga-trust-qi/optiga/cmd\optiga_cmd.c **** *     a. The request type is lock
 628:C:/Users/Yushev/git/optiga-trust-qi/optiga/cmd\optiga_cmd.c **** *     b. If request type is session, either session is already assigned or atleast session is avail
 629:C:/Users/Yushev/git/optiga-trust-qi/optiga/cmd\optiga_cmd.c **** */
 630:C:/Users/Yushev/git/optiga-trust-qi/optiga/cmd\optiga_cmd.c **** _STATIC_H void optiga_cmd_queue_scheduler(void * p_optiga)
 631:C:/Users/Yushev/git/optiga-trust-qi/optiga/cmd\optiga_cmd.c **** {
 632:C:/Users/Yushev/git/optiga-trust-qi/optiga/cmd\optiga_cmd.c ****     uint32_t reference_time_stamp = 0xFFFFFFFF;
 633:C:/Users/Yushev/git/optiga-trust-qi/optiga/cmd\optiga_cmd.c ****     optiga_cmd_queue_slot_t * p_queue_entry;
 634:C:/Users/Yushev/git/optiga-trust-qi/optiga/cmd\optiga_cmd.c ****     uint8_t index;
 635:C:/Users/Yushev/git/optiga-trust-qi/optiga/cmd\optiga_cmd.c ****     uint8_t prefered_index = 0xFF;
 636:C:/Users/Yushev/git/optiga-trust-qi/optiga/cmd\optiga_cmd.c ****     uint8_t overflow_detected = FALSE;
 637:C:/Users/Yushev/git/optiga-trust-qi/optiga/cmd\optiga_cmd.c **** 
 638:C:/Users/Yushev/git/optiga-trust-qi/optiga/cmd\optiga_cmd.c ****     optiga_context_t * p_optiga_ctx = (optiga_context_t * )p_optiga;
 639:C:/Users/Yushev/git/optiga-trust-qi/optiga/cmd\optiga_cmd.c **** 
 640:C:/Users/Yushev/git/optiga-trust-qi/optiga/cmd\optiga_cmd.c ****     pal_os_event_t * my_os_event = p_optiga_ctx->p_pal_os_event_ctx;
 641:C:/Users/Yushev/git/optiga-trust-qi/optiga/cmd\optiga_cmd.c **** 
 642:C:/Users/Yushev/git/optiga-trust-qi/optiga/cmd\optiga_cmd.c **** 
 643:C:/Users/Yushev/git/optiga-trust-qi/optiga/cmd\optiga_cmd.c ****     if (((0 == optiga_cmd_queue_get_count_of(p_optiga_ctx, OPTIGA_CMD_QUEUE_SLOT_STATE, OPTIGA_CMD_
 644:C:/Users/Yushev/git/optiga-trust-qi/optiga/cmd\optiga_cmd.c ****          (0 == optiga_cmd_queue_get_count_of(p_optiga_ctx, OPTIGA_CMD_QUEUE_SLOT_STATE, OPTIGA_CMD_
 645:C:/Users/Yushev/git/optiga-trust-qi/optiga/cmd\optiga_cmd.c ****          ((1 == optiga_cmd_queue_get_count_of(p_optiga_ctx, OPTIGA_CMD_QUEUE_SLOT_STATE , OPTIGA_CM
 646:C:/Users/Yushev/git/optiga-trust-qi/optiga/cmd\optiga_cmd.c ****          (0 < optiga_cmd_queue_get_count_of(p_optiga_ctx, OPTIGA_CMD_QUEUE_SLOT_LOCK_TYPE, OPTIGA_C
 647:C:/Users/Yushev/git/optiga-trust-qi/optiga/cmd\optiga_cmd.c ****     {
 648:C:/Users/Yushev/git/optiga-trust-qi/optiga/cmd\optiga_cmd.c ****         // call self
 649:C:/Users/Yushev/git/optiga-trust-qi/optiga/cmd\optiga_cmd.c ****         pal_os_event_register_callback_oneshot(my_os_event, optiga_cmd_queue_scheduler,
 650:C:/Users/Yushev/git/optiga-trust-qi/optiga/cmd\optiga_cmd.c ****                                                p_optiga_ctx,OPTIGA_CMD_SCHEDULER_IDLING_TIME_MS);
 651:C:/Users/Yushev/git/optiga-trust-qi/optiga/cmd\optiga_cmd.c ****     }
 652:C:/Users/Yushev/git/optiga-trust-qi/optiga/cmd\optiga_cmd.c ****     else
 653:C:/Users/Yushev/git/optiga-trust-qi/optiga/cmd\optiga_cmd.c ****     {
 654:C:/Users/Yushev/git/optiga-trust-qi/optiga/cmd\optiga_cmd.c ****         pal_os_event_stop(my_os_event);
 655:C:/Users/Yushev/git/optiga-trust-qi/optiga/cmd\optiga_cmd.c ****         // continue checking if no context selected and overflow detected
 656:C:/Users/Yushev/git/optiga-trust-qi/optiga/cmd\optiga_cmd.c ****         do
 657:C:/Users/Yushev/git/optiga-trust-qi/optiga/cmd\optiga_cmd.c ****         {
 658:C:/Users/Yushev/git/optiga-trust-qi/optiga/cmd\optiga_cmd.c ****             //reset overflow detected flag and the last_time stamp
 659:C:/Users/Yushev/git/optiga-trust-qi/optiga/cmd\optiga_cmd.c ****             if(overflow_detected == TRUE)
 660:C:/Users/Yushev/git/optiga-trust-qi/optiga/cmd\optiga_cmd.c ****             {
 661:C:/Users/Yushev/git/optiga-trust-qi/optiga/cmd\optiga_cmd.c ****                 p_optiga_ctx->last_time_stamp = 0;
 662:C:/Users/Yushev/git/optiga-trust-qi/optiga/cmd\optiga_cmd.c ****                 overflow_detected = FALSE;
 663:C:/Users/Yushev/git/optiga-trust-qi/optiga/cmd\optiga_cmd.c ****             }
 664:C:/Users/Yushev/git/optiga-trust-qi/optiga/cmd\optiga_cmd.c **** 
 665:C:/Users/Yushev/git/optiga-trust-qi/optiga/cmd\optiga_cmd.c ****             // Select optiga command based on rule
 666:C:/Users/Yushev/git/optiga-trust-qi/optiga/cmd\optiga_cmd.c ****             for (index = 0; index < OPTIGA_CMD_MAX_REGISTRATIONS; index++)
 667:C:/Users/Yushev/git/optiga-trust-qi/optiga/cmd\optiga_cmd.c ****             {
 668:C:/Users/Yushev/git/optiga-trust-qi/optiga/cmd\optiga_cmd.c ****                 p_queue_entry = &(p_optiga_ctx->optiga_cmd_execution_queue[index]);
 669:C:/Users/Yushev/git/optiga-trust-qi/optiga/cmd\optiga_cmd.c **** 
 670:C:/Users/Yushev/git/optiga-trust-qi/optiga/cmd\optiga_cmd.c ****                 // if any slot has acquired strict lock, highest priority is given to it
 671:C:/Users/Yushev/git/optiga-trust-qi/optiga/cmd\optiga_cmd.c ****                 if (1 == optiga_cmd_queue_get_count_of(p_optiga_ctx, OPTIGA_CMD_QUEUE_SLOT_STATE , 
 672:C:/Users/Yushev/git/optiga-trust-qi/optiga/cmd\optiga_cmd.c ****                 {
 673:C:/Users/Yushev/git/optiga-trust-qi/optiga/cmd\optiga_cmd.c ****                     // Select the slot which has acquired strict lock
 674:C:/Users/Yushev/git/optiga-trust-qi/optiga/cmd\optiga_cmd.c ****                     if ((OPTIGA_CMD_QUEUE_RESUME == p_queue_entry->state_of_entry) &&
 675:C:/Users/Yushev/git/optiga-trust-qi/optiga/cmd\optiga_cmd.c ****                         (OPTIGA_CMD_QUEUE_REQUEST_STRICT_LOCK == p_queue_entry->request_type))
 676:C:/Users/Yushev/git/optiga-trust-qi/optiga/cmd\optiga_cmd.c ****                     {
 677:C:/Users/Yushev/git/optiga-trust-qi/optiga/cmd\optiga_cmd.c ****                         reference_time_stamp = p_queue_entry->arrival_time;
 678:C:/Users/Yushev/git/optiga-trust-qi/optiga/cmd\optiga_cmd.c ****                         prefered_index = index;
 679:C:/Users/Yushev/git/optiga-trust-qi/optiga/cmd\optiga_cmd.c ****                     }
 680:C:/Users/Yushev/git/optiga-trust-qi/optiga/cmd\optiga_cmd.c **** 
 681:C:/Users/Yushev/git/optiga-trust-qi/optiga/cmd\optiga_cmd.c ****                 }
 682:C:/Users/Yushev/git/optiga-trust-qi/optiga/cmd\optiga_cmd.c ****                 else
 683:C:/Users/Yushev/git/optiga-trust-qi/optiga/cmd\optiga_cmd.c ****                 {
 684:C:/Users/Yushev/git/optiga-trust-qi/optiga/cmd\optiga_cmd.c ****                     // pick only requested queue slot and earliest arrival time
 685:C:/Users/Yushev/git/optiga-trust-qi/optiga/cmd\optiga_cmd.c ****                     if (p_queue_entry->state_of_entry == OPTIGA_CMD_QUEUE_REQUEST)
 686:C:/Users/Yushev/git/optiga-trust-qi/optiga/cmd\optiga_cmd.c ****                     {
 687:C:/Users/Yushev/git/optiga-trust-qi/optiga/cmd\optiga_cmd.c ****                         // remember that overflow has occurred in one of the entry
 688:C:/Users/Yushev/git/optiga-trust-qi/optiga/cmd\optiga_cmd.c ****                         if (p_queue_entry->arrival_time < p_optiga_ctx->last_time_stamp)
 689:C:/Users/Yushev/git/optiga-trust-qi/optiga/cmd\optiga_cmd.c ****                         {
 690:C:/Users/Yushev/git/optiga-trust-qi/optiga/cmd\optiga_cmd.c ****                             overflow_detected = TRUE;
 691:C:/Users/Yushev/git/optiga-trust-qi/optiga/cmd\optiga_cmd.c ****                         }
 692:C:/Users/Yushev/git/optiga-trust-qi/optiga/cmd\optiga_cmd.c **** 
 693:C:/Users/Yushev/git/optiga-trust-qi/optiga/cmd\optiga_cmd.c ****                         // if lock request or session request and session available(either already 
 694:C:/Users/Yushev/git/optiga-trust-qi/optiga/cmd\optiga_cmd.c ****                         if (((p_queue_entry->arrival_time <= reference_time_stamp) && (p_queue_entr
 695:C:/Users/Yushev/git/optiga-trust-qi/optiga/cmd\optiga_cmd.c ****                             (((OPTIGA_CMD_QUEUE_REQUEST_SESSION == p_queue_entry->request_type) && 
 696:C:/Users/Yushev/git/optiga-trust-qi/optiga/cmd\optiga_cmd.c ****                             ((OPTIGA_CMD_QUEUE_REQUEST_SESSION == p_queue_entry->request_type) && (
 697:C:/Users/Yushev/git/optiga-trust-qi/optiga/cmd\optiga_cmd.c ****                             (OPTIGA_CMD_QUEUE_REQUEST_LOCK == p_queue_entry->request_type) ||
 698:C:/Users/Yushev/git/optiga-trust-qi/optiga/cmd\optiga_cmd.c ****                             (OPTIGA_CMD_QUEUE_REQUEST_STRICT_LOCK == p_queue_entry->request_type)))
 699:C:/Users/Yushev/git/optiga-trust-qi/optiga/cmd\optiga_cmd.c ****                         {
 700:C:/Users/Yushev/git/optiga-trust-qi/optiga/cmd\optiga_cmd.c ****                             reference_time_stamp = p_queue_entry->arrival_time;
 701:C:/Users/Yushev/git/optiga-trust-qi/optiga/cmd\optiga_cmd.c ****                             prefered_index = index;
 702:C:/Users/Yushev/git/optiga-trust-qi/optiga/cmd\optiga_cmd.c ****                         }
 703:C:/Users/Yushev/git/optiga-trust-qi/optiga/cmd\optiga_cmd.c ****                     }
 704:C:/Users/Yushev/git/optiga-trust-qi/optiga/cmd\optiga_cmd.c ****                 }
 705:C:/Users/Yushev/git/optiga-trust-qi/optiga/cmd\optiga_cmd.c ****             }
 706:C:/Users/Yushev/git/optiga-trust-qi/optiga/cmd\optiga_cmd.c ****         } while((0xFF == prefered_index) && (TRUE == overflow_detected));
 707:C:/Users/Yushev/git/optiga-trust-qi/optiga/cmd\optiga_cmd.c **** 
 708:C:/Users/Yushev/git/optiga-trust-qi/optiga/cmd\optiga_cmd.c ****         // Improve : check the index and max queue size check
 709:C:/Users/Yushev/git/optiga-trust-qi/optiga/cmd\optiga_cmd.c ****         // If slot is identified then go further
 710:C:/Users/Yushev/git/optiga-trust-qi/optiga/cmd\optiga_cmd.c ****         if (0xFF != prefered_index)
 711:C:/Users/Yushev/git/optiga-trust-qi/optiga/cmd\optiga_cmd.c ****         {
 712:C:/Users/Yushev/git/optiga-trust-qi/optiga/cmd\optiga_cmd.c ****             p_queue_entry = &(p_optiga_ctx->optiga_cmd_execution_queue[prefered_index]);
 713:C:/Users/Yushev/git/optiga-trust-qi/optiga/cmd\optiga_cmd.c ****             // assign session
 714:C:/Users/Yushev/git/optiga-trust-qi/optiga/cmd\optiga_cmd.c ****             if ((OPTIGA_CMD_QUEUE_REQUEST_SESSION == p_optiga_ctx->optiga_cmd_execution_queue[prefe
 715:C:/Users/Yushev/git/optiga-trust-qi/optiga/cmd\optiga_cmd.c ****                 (OPTIGA_CMD_NO_SESSION_OID == ((optiga_cmd_t *)p_queue_entry->registered_ctx)->sess
 716:C:/Users/Yushev/git/optiga-trust-qi/optiga/cmd\optiga_cmd.c ****             {
 717:C:/Users/Yushev/git/optiga-trust-qi/optiga/cmd\optiga_cmd.c ****                 optiga_cmd_session_assign((optiga_cmd_t *)(p_optiga_ctx->optiga_cmd_execution_queue
 718:C:/Users/Yushev/git/optiga-trust-qi/optiga/cmd\optiga_cmd.c ****                 // Improve : Change the state of the type here. This will reduce 0x0000 check
 719:C:/Users/Yushev/git/optiga-trust-qi/optiga/cmd\optiga_cmd.c ****             }
 720:C:/Users/Yushev/git/optiga-trust-qi/optiga/cmd\optiga_cmd.c **** 
 721:C:/Users/Yushev/git/optiga-trust-qi/optiga/cmd\optiga_cmd.c ****             // schedule with selected context
 722:C:/Users/Yushev/git/optiga-trust-qi/optiga/cmd\optiga_cmd.c ****             my_os_event = ((optiga_cmd_t *)(p_optiga_ctx->optiga_cmd_execution_queue[prefered_index
 723:C:/Users/Yushev/git/optiga-trust-qi/optiga/cmd\optiga_cmd.c ****             pal_os_event_register_callback_oneshot(my_os_event,
 724:C:/Users/Yushev/git/optiga-trust-qi/optiga/cmd\optiga_cmd.c ****                                                    optiga_cmd_event_trigger_execute,
 725:C:/Users/Yushev/git/optiga-trust-qi/optiga/cmd\optiga_cmd.c ****                                                    ((optiga_cmd_t *)(p_optiga_ctx->optiga_cmd_execu
 726:C:/Users/Yushev/git/optiga-trust-qi/optiga/cmd\optiga_cmd.c ****                                                    OPTIGA_CMD_SCHEDULER_RUNNING_TIME_MS);
 727:C:/Users/Yushev/git/optiga-trust-qi/optiga/cmd\optiga_cmd.c ****             p_optiga_ctx->optiga_cmd_execution_queue[prefered_index].state_of_entry = OPTIGA_CMD_QU
 728:C:/Users/Yushev/git/optiga-trust-qi/optiga/cmd\optiga_cmd.c ****             p_optiga_ctx->last_time_stamp = reference_time_stamp;
 729:C:/Users/Yushev/git/optiga-trust-qi/optiga/cmd\optiga_cmd.c ****         }
 730:C:/Users/Yushev/git/optiga-trust-qi/optiga/cmd\optiga_cmd.c ****         else
 731:C:/Users/Yushev/git/optiga-trust-qi/optiga/cmd\optiga_cmd.c ****         {
 732:C:/Users/Yushev/git/optiga-trust-qi/optiga/cmd\optiga_cmd.c ****             pal_os_event_register_callback_oneshot( my_os_event, optiga_cmd_queue_scheduler,
 733:C:/Users/Yushev/git/optiga-trust-qi/optiga/cmd\optiga_cmd.c ****                                                     p_optiga_ctx,OPTIGA_CMD_SCHEDULER_IDLING_TIME_M
 734:C:/Users/Yushev/git/optiga-trust-qi/optiga/cmd\optiga_cmd.c ****         }
 735:C:/Users/Yushev/git/optiga-trust-qi/optiga/cmd\optiga_cmd.c ****     }
 736:C:/Users/Yushev/git/optiga-trust-qi/optiga/cmd\optiga_cmd.c **** }
 737:C:/Users/Yushev/git/optiga-trust-qi/optiga/cmd\optiga_cmd.c **** 
 738:C:/Users/Yushev/git/optiga-trust-qi/optiga/cmd\optiga_cmd.c **** /*
 739:C:/Users/Yushev/git/optiga-trust-qi/optiga/cmd\optiga_cmd.c **** * Updates a execution queue slot
 740:C:/Users/Yushev/git/optiga-trust-qi/optiga/cmd\optiga_cmd.c **** */
 741:C:/Users/Yushev/git/optiga-trust-qi/optiga/cmd\optiga_cmd.c **** _STATIC_H void optiga_cmd_queue_update_slot(optiga_cmd_t * me, uint8_t request_type)
 742:C:/Users/Yushev/git/optiga-trust-qi/optiga/cmd\optiga_cmd.c **** {
  70              	 .loc 1 742 0
  71              	 .cfi_startproc
  72              	 
  73              	 
  74              	.LVL6:
  75 0000 F8B5     	 push {r3,r4,r5,r6,r7,lr}
  76              	.LCFI1:
  77              	 .cfi_def_cfa_offset 24
  78              	 .cfi_offset 3,-24
  79              	 .cfi_offset 4,-20
  80              	 .cfi_offset 5,-16
  81              	 .cfi_offset 6,-12
  82              	 .cfi_offset 7,-8
  83              	 .cfi_offset 14,-4
 743:C:/Users/Yushev/git/optiga-trust-qi/optiga/cmd\optiga_cmd.c ****     if ((OPTIGA_CMD_QUEUE_REQUEST_STRICT_LOCK != me->p_optiga->optiga_cmd_execution_queue[me->queue
  84              	 .loc 1 743 0
  85 0002 0768     	 ldr r7,[r0]
  86 0004 857F     	 ldrb r5,[r0,#30]
  87 0006 0C23     	 movs r3,#12
  88 0008 03FB0573 	 mla r3,r3,r5,r7
 742:C:/Users/Yushev/git/optiga-trust-qi/optiga/cmd\optiga_cmd.c ****     if ((OPTIGA_CMD_QUEUE_REQUEST_STRICT_LOCK != me->p_optiga->optiga_cmd_execution_queue[me->queue
  89              	 .loc 1 742 0
  90 000c 0446     	 mov r4,r0
  91              	 .loc 1 743 0
  92 000e 93F83836 	 ldrb r3,[r3,#1592]
  93 0012 232B     	 cmp r3,#35
 742:C:/Users/Yushev/git/optiga-trust-qi/optiga/cmd\optiga_cmd.c ****     if ((OPTIGA_CMD_QUEUE_REQUEST_STRICT_LOCK != me->p_optiga->optiga_cmd_execution_queue[me->queue
  94              	 .loc 1 742 0
  95 0014 0E46     	 mov r6,r1
  96              	 .loc 1 743 0
  97 0016 01D1     	 bne .L3
  98              	 .loc 1 743 0 is_stmt 0 discriminator 1
  99 0018 2329     	 cmp r1,#35
 100 001a 06D0     	 beq .L4
 101              	.L3:
 744:C:/Users/Yushev/git/optiga-trust-qi/optiga/cmd\optiga_cmd.c ****        ((OPTIGA_CMD_QUEUE_REQUEST_STRICT_LOCK == me->p_optiga->optiga_cmd_execution_queue[me->queue
 745:C:/Users/Yushev/git/optiga-trust-qi/optiga/cmd\optiga_cmd.c ****        (OPTIGA_CMD_QUEUE_REQUEST_STRICT_LOCK != request_type)))
 746:C:/Users/Yushev/git/optiga-trust-qi/optiga/cmd\optiga_cmd.c ****     {
 747:C:/Users/Yushev/git/optiga-trust-qi/optiga/cmd\optiga_cmd.c ****         //add time stamp
 748:C:/Users/Yushev/git/optiga-trust-qi/optiga/cmd\optiga_cmd.c ****         me->p_optiga->optiga_cmd_execution_queue[me->queue_id].arrival_time = pal_os_timer_get_time
 102              	 .loc 1 748 0 is_stmt 1
 103 001c FFF7FEFF 	 bl pal_os_timer_get_time_in_microseconds
 104              	.LVL7:
 105 0020 0C23     	 movs r3,#12
 106 0022 03FB0575 	 mla r5,r3,r5,r7
 107 0026 C5F83406 	 str r0,[r5,#1588]
 108              	.L4:
 749:C:/Users/Yushev/git/optiga-trust-qi/optiga/cmd\optiga_cmd.c ****     }
 750:C:/Users/Yushev/git/optiga-trust-qi/optiga/cmd\optiga_cmd.c **** 
 751:C:/Users/Yushev/git/optiga-trust-qi/optiga/cmd\optiga_cmd.c ****     //add optiga_cmd ctx
 752:C:/Users/Yushev/git/optiga-trust-qi/optiga/cmd\optiga_cmd.c ****     me->p_optiga->optiga_cmd_execution_queue[me->queue_id].registered_ctx = (void * )me;
 109              	 .loc 1 752 0
 110 002a 2168     	 ldr r1,[r4]
 111 002c A27F     	 ldrb r2,[r4,#30]
 112 002e 0C23     	 movs r3,#12
 113 0030 03FB0212 	 mla r2,r3,r2,r1
 114 0034 C2F83046 	 str r4,[r2,#1584]
 753:C:/Users/Yushev/git/optiga-trust-qi/optiga/cmd\optiga_cmd.c ****     // set the state of slot to Requested state
 754:C:/Users/Yushev/git/optiga-trust-qi/optiga/cmd\optiga_cmd.c ****     if ((OPTIGA_CMD_QUEUE_REQUEST_STRICT_LOCK == me->p_optiga->optiga_cmd_execution_queue[me->queue
 115              	 .loc 1 754 0
 116 0038 A27F     	 ldrb r2,[r4,#30]
 117 003a 03FB0210 	 mla r0,r3,r2,r1
 118 003e 00F5C765 	 add r5,r0,#1592
 119 0042 90F83806 	 ldrb r0,[r0,#1592]
 120 0046 2328     	 cmp r0,#35
 121 0048 04D1     	 bne .L5
 122              	 .loc 1 754 0 is_stmt 0 discriminator 1
 123 004a 232E     	 cmp r6,#35
 124 004c 02D1     	 bne .L5
 755:C:/Users/Yushev/git/optiga-trust-qi/optiga/cmd\optiga_cmd.c ****         (OPTIGA_CMD_QUEUE_REQUEST_STRICT_LOCK == request_type))
 756:C:/Users/Yushev/git/optiga-trust-qi/optiga/cmd\optiga_cmd.c ****     {
 757:C:/Users/Yushev/git/optiga-trust-qi/optiga/cmd\optiga_cmd.c ****         me->p_optiga->optiga_cmd_execution_queue[me->queue_id].state_of_entry = OPTIGA_CMD_QUEUE_RE
 125              	 .loc 1 757 0 is_stmt 1
 126 004e 0823     	 movs r3,#8
 127 0050 6B70     	 strb r3,[r5,#1]
 128 0052 04E0     	 b .L6
 129              	.L5:
 758:C:/Users/Yushev/git/optiga-trust-qi/optiga/cmd\optiga_cmd.c ****     }
 759:C:/Users/Yushev/git/optiga-trust-qi/optiga/cmd\optiga_cmd.c ****     else
 760:C:/Users/Yushev/git/optiga-trust-qi/optiga/cmd\optiga_cmd.c ****     {
 761:C:/Users/Yushev/git/optiga-trust-qi/optiga/cmd\optiga_cmd.c ****         me->p_optiga->optiga_cmd_execution_queue[me->queue_id].state_of_entry = OPTIGA_CMD_QUEUE_RE
 130              	 .loc 1 761 0
 131 0054 03FB0213 	 mla r3,r3,r2,r1
 132 0058 0222     	 movs r2,#2
 133 005a 83F83926 	 strb r2,[r3,#1593]
 134              	.L6:
 762:C:/Users/Yushev/git/optiga-trust-qi/optiga/cmd\optiga_cmd.c ****     }
 763:C:/Users/Yushev/git/optiga-trust-qi/optiga/cmd\optiga_cmd.c ****     //add request type
 764:C:/Users/Yushev/git/optiga-trust-qi/optiga/cmd\optiga_cmd.c ****     me->p_optiga->optiga_cmd_execution_queue[me->queue_id].request_type = request_type;
 135              	 .loc 1 764 0
 136 005e 2368     	 ldr r3,[r4]
 137 0060 A27F     	 ldrb r2,[r4,#30]
 138 0062 0C21     	 movs r1,#12
 139 0064 01FB0233 	 mla r3,r1,r2,r3
 140 0068 83F83866 	 strb r6,[r3,#1592]
 141 006c F8BD     	 pop {r3,r4,r5,r6,r7,pc}
 142              	 .cfi_endproc
 143              	.LFE13:
 145              	 .section .text.optiga_cmd_queue_reset_slot,"ax",%progbits
 146              	 .align 1
 147              	 .thumb
 148              	 .thumb_func
 150              	optiga_cmd_queue_reset_slot:
 151              	.LFB14:
 765:C:/Users/Yushev/git/optiga-trust-qi/optiga/cmd\optiga_cmd.c **** }
 766:C:/Users/Yushev/git/optiga-trust-qi/optiga/cmd\optiga_cmd.c **** 
 767:C:/Users/Yushev/git/optiga-trust-qi/optiga/cmd\optiga_cmd.c **** /*
 768:C:/Users/Yushev/git/optiga-trust-qi/optiga/cmd\optiga_cmd.c **** * Resets a execution slot
 769:C:/Users/Yushev/git/optiga-trust-qi/optiga/cmd\optiga_cmd.c **** */
 770:C:/Users/Yushev/git/optiga-trust-qi/optiga/cmd\optiga_cmd.c **** _STATIC_H void optiga_cmd_queue_reset_slot(const optiga_cmd_t * me)
 771:C:/Users/Yushev/git/optiga-trust-qi/optiga/cmd\optiga_cmd.c **** {
 152              	 .loc 1 771 0
 153              	 .cfi_startproc
 154              	 
 155              	 
 156              	.LVL8:
 157 0000 10B5     	 push {r4,lr}
 158              	.LCFI2:
 159              	 .cfi_def_cfa_offset 8
 160              	 .cfi_offset 4,-8
 161              	 .cfi_offset 14,-4
 772:C:/Users/Yushev/git/optiga-trust-qi/optiga/cmd\optiga_cmd.c ****     // Reset the arrival time
 773:C:/Users/Yushev/git/optiga-trust-qi/optiga/cmd\optiga_cmd.c ****     me->p_optiga->optiga_cmd_execution_queue[me->queue_id].arrival_time = 0xFFFFFFFF;
 162              	 .loc 1 773 0
 163 0002 0168     	 ldr r1,[r0]
 164 0004 827F     	 ldrb r2,[r0,#30]
 165 0006 0C23     	 movs r3,#12
 166 0008 03FB0212 	 mla r2,r3,r2,r1
 167 000c 4FF0FF34 	 mov r4,#-1
 168 0010 C2F83446 	 str r4,[r2,#1588]
 774:C:/Users/Yushev/git/optiga-trust-qi/optiga/cmd\optiga_cmd.c ****     //add optiga_cmd ctx
 775:C:/Users/Yushev/git/optiga-trust-qi/optiga/cmd\optiga_cmd.c ****     me->p_optiga->optiga_cmd_execution_queue[me->queue_id].registered_ctx = NULL;
 169              	 .loc 1 775 0
 170 0014 827F     	 ldrb r2,[r0,#30]
 171 0016 03FB0212 	 mla r2,r3,r2,r1
 172 001a 0024     	 movs r4,#0
 173 001c C2F83046 	 str r4,[r2,#1584]
 776:C:/Users/Yushev/git/optiga-trust-qi/optiga/cmd\optiga_cmd.c ****     //add request type
 777:C:/Users/Yushev/git/optiga-trust-qi/optiga/cmd\optiga_cmd.c ****     me->p_optiga->optiga_cmd_execution_queue[me->queue_id].request_type = 0;
 174              	 .loc 1 777 0
 175 0020 827F     	 ldrb r2,[r0,#30]
 176 0022 03FB0212 	 mla r2,r3,r2,r1
 177 0026 82F83846 	 strb r4,[r2,#1592]
 778:C:/Users/Yushev/git/optiga-trust-qi/optiga/cmd\optiga_cmd.c ****     // set the slot state to assigned
 779:C:/Users/Yushev/git/optiga-trust-qi/optiga/cmd\optiga_cmd.c ****     me->p_optiga->optiga_cmd_execution_queue[me->queue_id].state_of_entry = OPTIGA_CMD_QUEUE_ASSIGN
 178              	 .loc 1 779 0
 179 002a 0168     	 ldr r1,[r0]
 180 002c 827F     	 ldrb r2,[r0,#30]
 181 002e 03FB0213 	 mla r3,r3,r2,r1
 182 0032 0122     	 movs r2,#1
 183 0034 83F83926 	 strb r2,[r3,#1593]
 780:C:/Users/Yushev/git/optiga-trust-qi/optiga/cmd\optiga_cmd.c ****     // start the event scheduler
 781:C:/Users/Yushev/git/optiga-trust-qi/optiga/cmd\optiga_cmd.c ****     pal_os_event_start(me->p_optiga->p_pal_os_event_ctx, optiga_cmd_queue_scheduler, me->p_optiga);
 184              	 .loc 1 781 0
 185 0038 0268     	 ldr r2,[r0]
 186 003a 0349     	 ldr r1,.L12
 187 003c D2F87806 	 ldr r0,[r2,#1656]
 188              	.LVL9:
 782:C:/Users/Yushev/git/optiga-trust-qi/optiga/cmd\optiga_cmd.c **** }
 189              	 .loc 1 782 0
 190 0040 BDE81040 	 pop {r4,lr}
 191              	.LCFI3:
 192              	 .cfi_restore 14
 193              	 .cfi_restore 4
 194              	 .cfi_def_cfa_offset 0
 781:C:/Users/Yushev/git/optiga-trust-qi/optiga/cmd\optiga_cmd.c **** }
 195              	 .loc 1 781 0
 196 0044 FFF7FEBF 	 b pal_os_event_start
 197              	.LVL10:
 198              	.L13:
 199              	 .align 2
 200              	.L12:
 201 0048 00000000 	 .word optiga_cmd_queue_scheduler
 202              	 .cfi_endproc
 203              	.LFE14:
 205              	 .section .text.optiga_cmd_execute_handler,"ax",%progbits
 206              	 .align 1
 207              	 .thumb
 208              	 .thumb_func
 210              	optiga_cmd_execute_handler:
 211              	.LFB29:
 783:C:/Users/Yushev/git/optiga-trust-qi/optiga/cmd\optiga_cmd.c **** 
 784:C:/Users/Yushev/git/optiga-trust-qi/optiga/cmd\optiga_cmd.c **** 
 785:C:/Users/Yushev/git/optiga-trust-qi/optiga/cmd\optiga_cmd.c **** optiga_lib_status_t optiga_cmd_request_session(optiga_cmd_t * me)
 786:C:/Users/Yushev/git/optiga-trust-qi/optiga/cmd\optiga_cmd.c **** {
 787:C:/Users/Yushev/git/optiga-trust-qi/optiga/cmd\optiga_cmd.c ****     optiga_cmd_queue_update_slot(me , OPTIGA_CMD_QUEUE_REQUEST_SESSION);
 788:C:/Users/Yushev/git/optiga-trust-qi/optiga/cmd\optiga_cmd.c ****     return (OPTIGA_CMD_SUCCESS);
 789:C:/Users/Yushev/git/optiga-trust-qi/optiga/cmd\optiga_cmd.c **** }
 790:C:/Users/Yushev/git/optiga-trust-qi/optiga/cmd\optiga_cmd.c **** 
 791:C:/Users/Yushev/git/optiga-trust-qi/optiga/cmd\optiga_cmd.c **** optiga_lib_status_t optiga_cmd_release_session(optiga_cmd_t * me)
 792:C:/Users/Yushev/git/optiga-trust-qi/optiga/cmd\optiga_cmd.c **** {
 793:C:/Users/Yushev/git/optiga-trust-qi/optiga/cmd\optiga_cmd.c ****     optiga_cmd_session_free(me);
 794:C:/Users/Yushev/git/optiga-trust-qi/optiga/cmd\optiga_cmd.c ****     return (OPTIGA_CMD_SUCCESS);
 795:C:/Users/Yushev/git/optiga-trust-qi/optiga/cmd\optiga_cmd.c **** }
 796:C:/Users/Yushev/git/optiga-trust-qi/optiga/cmd\optiga_cmd.c **** 
 797:C:/Users/Yushev/git/optiga-trust-qi/optiga/cmd\optiga_cmd.c **** optiga_lib_status_t optiga_cmd_request_lock(optiga_cmd_t * me, uint8_t lock_type)
 798:C:/Users/Yushev/git/optiga-trust-qi/optiga/cmd\optiga_cmd.c **** {
 799:C:/Users/Yushev/git/optiga-trust-qi/optiga/cmd\optiga_cmd.c ****     optiga_cmd_queue_update_slot(me , lock_type);
 800:C:/Users/Yushev/git/optiga-trust-qi/optiga/cmd\optiga_cmd.c ****     return (OPTIGA_CMD_SUCCESS);
 801:C:/Users/Yushev/git/optiga-trust-qi/optiga/cmd\optiga_cmd.c **** }
 802:C:/Users/Yushev/git/optiga-trust-qi/optiga/cmd\optiga_cmd.c **** 
 803:C:/Users/Yushev/git/optiga-trust-qi/optiga/cmd\optiga_cmd.c **** optiga_lib_status_t optiga_cmd_release_lock(const optiga_cmd_t * me)
 804:C:/Users/Yushev/git/optiga-trust-qi/optiga/cmd\optiga_cmd.c **** {
 805:C:/Users/Yushev/git/optiga-trust-qi/optiga/cmd\optiga_cmd.c ****     optiga_cmd_queue_reset_slot(me);
 806:C:/Users/Yushev/git/optiga-trust-qi/optiga/cmd\optiga_cmd.c ****     return (OPTIGA_CMD_SUCCESS);
 807:C:/Users/Yushev/git/optiga-trust-qi/optiga/cmd\optiga_cmd.c **** }
 808:C:/Users/Yushev/git/optiga-trust-qi/optiga/cmd\optiga_cmd.c **** 
 809:C:/Users/Yushev/git/optiga-trust-qi/optiga/cmd\optiga_cmd.c **** _STATIC_H optiga_lib_status_t optiga_cmd_restore_context(const optiga_cmd_t * me)
 810:C:/Users/Yushev/git/optiga-trust-qi/optiga/cmd\optiga_cmd.c **** {
 811:C:/Users/Yushev/git/optiga-trust-qi/optiga/cmd\optiga_cmd.c **** #define OPTIGA_CMD_OF_CONTEXT_HANDLE_4TH_BYTE         (0x04)
 812:C:/Users/Yushev/git/optiga-trust-qi/optiga/cmd\optiga_cmd.c ****     uint16_t context_handle_length;
 813:C:/Users/Yushev/git/optiga-trust-qi/optiga/cmd\optiga_cmd.c ****     optiga_lib_status_t return_status = OPTIGA_CMD_ERROR;
 814:C:/Users/Yushev/git/optiga-trust-qi/optiga/cmd\optiga_cmd.c ****     do
 815:C:/Users/Yushev/git/optiga-trust-qi/optiga/cmd\optiga_cmd.c ****     {
 816:C:/Users/Yushev/git/optiga-trust-qi/optiga/cmd\optiga_cmd.c ****         if (OPTIGA_LIB_PAL_DATA_STORE_NOT_CONFIGURED != me->optiga_context_datastore_id)
 817:C:/Users/Yushev/git/optiga-trust-qi/optiga/cmd\optiga_cmd.c ****         {
 818:C:/Users/Yushev/git/optiga-trust-qi/optiga/cmd\optiga_cmd.c ****             context_handle_length = sizeof(me->p_optiga->optiga_context_handle_buffer);
 819:C:/Users/Yushev/git/optiga-trust-qi/optiga/cmd\optiga_cmd.c ****             //Reading context handle secret from datastore
 820:C:/Users/Yushev/git/optiga-trust-qi/optiga/cmd\optiga_cmd.c ****             return_status = pal_os_datastore_read(me->optiga_context_datastore_id,
 821:C:/Users/Yushev/git/optiga-trust-qi/optiga/cmd\optiga_cmd.c ****                                                   me->p_optiga->optiga_context_handle_buffer,
 822:C:/Users/Yushev/git/optiga-trust-qi/optiga/cmd\optiga_cmd.c ****                                                   &context_handle_length);
 823:C:/Users/Yushev/git/optiga-trust-qi/optiga/cmd\optiga_cmd.c ****             if (PAL_STATUS_SUCCESS != return_status)
 824:C:/Users/Yushev/git/optiga-trust-qi/optiga/cmd\optiga_cmd.c ****             {
 825:C:/Users/Yushev/git/optiga-trust-qi/optiga/cmd\optiga_cmd.c ****                 break;
 826:C:/Users/Yushev/git/optiga-trust-qi/optiga/cmd\optiga_cmd.c ****             }
 827:C:/Users/Yushev/git/optiga-trust-qi/optiga/cmd\optiga_cmd.c ****         }
 828:C:/Users/Yushev/git/optiga-trust-qi/optiga/cmd\optiga_cmd.c ****         // Check for valid context value
 829:C:/Users/Yushev/git/optiga-trust-qi/optiga/cmd\optiga_cmd.c ****         if (0 == optiga_common_get_uint32(me->p_optiga->optiga_context_handle_buffer) &&
 830:C:/Users/Yushev/git/optiga-trust-qi/optiga/cmd\optiga_cmd.c ****             0 == optiga_common_get_uint32(&me->p_optiga->optiga_context_handle_buffer[OPTIGA_CMD_OF
 831:C:/Users/Yushev/git/optiga-trust-qi/optiga/cmd\optiga_cmd.c ****         {
 832:C:/Users/Yushev/git/optiga-trust-qi/optiga/cmd\optiga_cmd.c ****             return_status = OPTIGA_CMD_ERROR;
 833:C:/Users/Yushev/git/optiga-trust-qi/optiga/cmd\optiga_cmd.c ****             break;
 834:C:/Users/Yushev/git/optiga-trust-qi/optiga/cmd\optiga_cmd.c ****         }
 835:C:/Users/Yushev/git/optiga-trust-qi/optiga/cmd\optiga_cmd.c **** 
 836:C:/Users/Yushev/git/optiga-trust-qi/optiga/cmd\optiga_cmd.c ****         return_status = OPTIGA_LIB_SUCCESS;
 837:C:/Users/Yushev/git/optiga-trust-qi/optiga/cmd\optiga_cmd.c ****     } while (FALSE);
 838:C:/Users/Yushev/git/optiga-trust-qi/optiga/cmd\optiga_cmd.c **** #undef OPTIGA_CMD_OFFSET_OF_NEXT_BYTE
 839:C:/Users/Yushev/git/optiga-trust-qi/optiga/cmd\optiga_cmd.c ****     return (return_status);
 840:C:/Users/Yushev/git/optiga-trust-qi/optiga/cmd\optiga_cmd.c **** }
 841:C:/Users/Yushev/git/optiga-trust-qi/optiga/cmd\optiga_cmd.c **** _STATIC_H optiga_lib_status_t optiga_cmd_store_context(const optiga_cmd_t * me)
 842:C:/Users/Yushev/git/optiga-trust-qi/optiga/cmd\optiga_cmd.c **** {
 843:C:/Users/Yushev/git/optiga-trust-qi/optiga/cmd\optiga_cmd.c ****     optiga_lib_status_t return_status = OPTIGA_CMD_ERROR;
 844:C:/Users/Yushev/git/optiga-trust-qi/optiga/cmd\optiga_cmd.c ****     do
 845:C:/Users/Yushev/git/optiga-trust-qi/optiga/cmd\optiga_cmd.c ****     {
 846:C:/Users/Yushev/git/optiga-trust-qi/optiga/cmd\optiga_cmd.c ****         if (OPTIGA_LIB_PAL_DATA_STORE_NOT_CONFIGURED != me->optiga_context_datastore_id)
 847:C:/Users/Yushev/git/optiga-trust-qi/optiga/cmd\optiga_cmd.c ****         {
 848:C:/Users/Yushev/git/optiga-trust-qi/optiga/cmd\optiga_cmd.c ****             //Reading context handle secret from datastore
 849:C:/Users/Yushev/git/optiga-trust-qi/optiga/cmd\optiga_cmd.c ****             return_status = pal_os_datastore_write(me->optiga_context_datastore_id,
 850:C:/Users/Yushev/git/optiga-trust-qi/optiga/cmd\optiga_cmd.c ****                                                    me->p_optiga->optiga_context_handle_buffer,
 851:C:/Users/Yushev/git/optiga-trust-qi/optiga/cmd\optiga_cmd.c ****                                                    sizeof(me->p_optiga->optiga_context_handle_buffe
 852:C:/Users/Yushev/git/optiga-trust-qi/optiga/cmd\optiga_cmd.c ****             if (PAL_STATUS_SUCCESS != return_status)
 853:C:/Users/Yushev/git/optiga-trust-qi/optiga/cmd\optiga_cmd.c ****             {
 854:C:/Users/Yushev/git/optiga-trust-qi/optiga/cmd\optiga_cmd.c ****                 break;
 855:C:/Users/Yushev/git/optiga-trust-qi/optiga/cmd\optiga_cmd.c ****             }
 856:C:/Users/Yushev/git/optiga-trust-qi/optiga/cmd\optiga_cmd.c ****         }
 857:C:/Users/Yushev/git/optiga-trust-qi/optiga/cmd\optiga_cmd.c **** 
 858:C:/Users/Yushev/git/optiga-trust-qi/optiga/cmd\optiga_cmd.c ****         return_status = OPTIGA_LIB_SUCCESS;
 859:C:/Users/Yushev/git/optiga-trust-qi/optiga/cmd\optiga_cmd.c ****     } while (FALSE);
 860:C:/Users/Yushev/git/optiga-trust-qi/optiga/cmd\optiga_cmd.c ****     return (return_status);
 861:C:/Users/Yushev/git/optiga-trust-qi/optiga/cmd\optiga_cmd.c **** }
 862:C:/Users/Yushev/git/optiga-trust-qi/optiga/cmd\optiga_cmd.c **** 
 863:C:/Users/Yushev/git/optiga-trust-qi/optiga/cmd\optiga_cmd.c **** #ifdef OPTIGA_COMMS_SHIELDED_CONNECTION
 864:C:/Users/Yushev/git/optiga-trust-qi/optiga/cmd\optiga_cmd.c **** _STATIC_H void optiga_cmd_clear_app_ctx(void * p_ctx)
 865:C:/Users/Yushev/git/optiga-trust-qi/optiga/cmd\optiga_cmd.c **** {
 866:C:/Users/Yushev/git/optiga-trust-qi/optiga/cmd\optiga_cmd.c ****     optiga_cmd_t * me = (optiga_cmd_t *)p_ctx;
 867:C:/Users/Yushev/git/optiga-trust-qi/optiga/cmd\optiga_cmd.c ****     /*In the case of hibernate if any low level error occurs while performing
 868:C:/Users/Yushev/git/optiga-trust-qi/optiga/cmd\optiga_cmd.c ****       close application this section clears the saved application context.*/
 869:C:/Users/Yushev/git/optiga-trust-qi/optiga/cmd\optiga_cmd.c ****     if ((OPTIGA_CMD_PARAM_INITIALIZE_APP_CONTEXT != me->cmd_param) &&
 870:C:/Users/Yushev/git/optiga-trust-qi/optiga/cmd\optiga_cmd.c ****         (OPTIGA_COMMS_SESSION_CONTEXT_SAVE == me->manage_context_operation))
 871:C:/Users/Yushev/git/optiga-trust-qi/optiga/cmd\optiga_cmd.c ****     {
 872:C:/Users/Yushev/git/optiga-trust-qi/optiga/cmd\optiga_cmd.c ****         pal_os_memset(me->p_optiga->optiga_context_handle_buffer,0,
 873:C:/Users/Yushev/git/optiga-trust-qi/optiga/cmd\optiga_cmd.c ****                         sizeof(me->p_optiga->optiga_context_handle_buffer));
 874:C:/Users/Yushev/git/optiga-trust-qi/optiga/cmd\optiga_cmd.c ****         if ((OPTIGA_HIBERNATE_CONTEXT_ID == me->optiga_context_datastore_id) &&
 875:C:/Users/Yushev/git/optiga-trust-qi/optiga/cmd\optiga_cmd.c ****             (OPTIGA_LIB_PAL_DATA_STORE_NOT_CONFIGURED != me->optiga_context_datastore_id))
 876:C:/Users/Yushev/git/optiga-trust-qi/optiga/cmd\optiga_cmd.c ****         {
 877:C:/Users/Yushev/git/optiga-trust-qi/optiga/cmd\optiga_cmd.c ****             //Clearing context handle secret from datastore
 878:C:/Users/Yushev/git/optiga-trust-qi/optiga/cmd\optiga_cmd.c ****             me->exit_status = pal_os_datastore_write(me->optiga_context_datastore_id,
 879:C:/Users/Yushev/git/optiga-trust-qi/optiga/cmd\optiga_cmd.c ****                                                      me->p_optiga->optiga_context_handle_buffer,
 880:C:/Users/Yushev/git/optiga-trust-qi/optiga/cmd\optiga_cmd.c ****                                                      sizeof(me->p_optiga->optiga_context_handle_buf
 881:C:/Users/Yushev/git/optiga-trust-qi/optiga/cmd\optiga_cmd.c ****             if (PAL_STATUS_SUCCESS != me->exit_status)
 882:C:/Users/Yushev/git/optiga-trust-qi/optiga/cmd\optiga_cmd.c ****             {
 883:C:/Users/Yushev/git/optiga-trust-qi/optiga/cmd\optiga_cmd.c ****                 me->cmd_next_execution_state = OPTIGA_CMD_EXEC_ERROR_HANDLER;
 884:C:/Users/Yushev/git/optiga-trust-qi/optiga/cmd\optiga_cmd.c ****             }
 885:C:/Users/Yushev/git/optiga-trust-qi/optiga/cmd\optiga_cmd.c ****         }
 886:C:/Users/Yushev/git/optiga-trust-qi/optiga/cmd\optiga_cmd.c ****     }
 887:C:/Users/Yushev/git/optiga-trust-qi/optiga/cmd\optiga_cmd.c **** }
 888:C:/Users/Yushev/git/optiga-trust-qi/optiga/cmd\optiga_cmd.c **** #endif
 889:C:/Users/Yushev/git/optiga-trust-qi/optiga/cmd\optiga_cmd.c **** 
 890:C:/Users/Yushev/git/optiga-trust-qi/optiga/cmd\optiga_cmd.c **** _STATIC_H void optiga_cmd_execute_comms_open(optiga_cmd_t * me, uint8_t * exit_loop)
 891:C:/Users/Yushev/git/optiga-trust-qi/optiga/cmd\optiga_cmd.c **** {
 892:C:/Users/Yushev/git/optiga-trust-qi/optiga/cmd\optiga_cmd.c ****     do
 893:C:/Users/Yushev/git/optiga-trust-qi/optiga/cmd\optiga_cmd.c ****     {
 894:C:/Users/Yushev/git/optiga-trust-qi/optiga/cmd\optiga_cmd.c ****         *exit_loop = TRUE;
 895:C:/Users/Yushev/git/optiga-trust-qi/optiga/cmd\optiga_cmd.c ****         switch (me->cmd_sub_execution_state)
 896:C:/Users/Yushev/git/optiga-trust-qi/optiga/cmd\optiga_cmd.c ****         {
 897:C:/Users/Yushev/git/optiga-trust-qi/optiga/cmd\optiga_cmd.c ****             case OPTIGA_CMD_EXEC_COMMS_OPEN_ACQUIRE_LOCK:
 898:C:/Users/Yushev/git/optiga-trust-qi/optiga/cmd\optiga_cmd.c ****             {
 899:C:/Users/Yushev/git/optiga-trust-qi/optiga/cmd\optiga_cmd.c **** 
 900:C:/Users/Yushev/git/optiga-trust-qi/optiga/cmd\optiga_cmd.c ****                 // add to queue and exit
 901:C:/Users/Yushev/git/optiga-trust-qi/optiga/cmd\optiga_cmd.c ****                 me->exit_status = optiga_cmd_request_lock(me, OPTIGA_CMD_QUEUE_REQUEST_LOCK);
 902:C:/Users/Yushev/git/optiga-trust-qi/optiga/cmd\optiga_cmd.c ****                 if (OPTIGA_LIB_SUCCESS != me->exit_status)
 903:C:/Users/Yushev/git/optiga-trust-qi/optiga/cmd\optiga_cmd.c ****                 {
 904:C:/Users/Yushev/git/optiga-trust-qi/optiga/cmd\optiga_cmd.c ****                     EXIT_STATE_WITH_ERROR(me,*exit_loop);
 905:C:/Users/Yushev/git/optiga-trust-qi/optiga/cmd\optiga_cmd.c ****                     break;
 906:C:/Users/Yushev/git/optiga-trust-qi/optiga/cmd\optiga_cmd.c ****                 }
 907:C:/Users/Yushev/git/optiga-trust-qi/optiga/cmd\optiga_cmd.c ****                 me->cmd_sub_execution_state = OPTIGA_CMD_EXEC_COMMS_OPEN_START;
 908:C:/Users/Yushev/git/optiga-trust-qi/optiga/cmd\optiga_cmd.c ****                 break;
 909:C:/Users/Yushev/git/optiga-trust-qi/optiga/cmd\optiga_cmd.c ****             }
 910:C:/Users/Yushev/git/optiga-trust-qi/optiga/cmd\optiga_cmd.c ****             case OPTIGA_CMD_EXEC_COMMS_OPEN_START:
 911:C:/Users/Yushev/git/optiga-trust-qi/optiga/cmd\optiga_cmd.c ****             {
 912:C:/Users/Yushev/git/optiga-trust-qi/optiga/cmd\optiga_cmd.c **** #ifdef OPTIGA_COMMS_SHIELDED_CONNECTION
 913:C:/Users/Yushev/git/optiga-trust-qi/optiga/cmd\optiga_cmd.c ****                 me->p_optiga->p_optiga_comms->protection_level =  me->protection_level;
 914:C:/Users/Yushev/git/optiga-trust-qi/optiga/cmd\optiga_cmd.c ****                 me->p_optiga->p_optiga_comms->protocol_version = me->protocol_version;
 915:C:/Users/Yushev/git/optiga-trust-qi/optiga/cmd\optiga_cmd.c ****                 me->p_optiga->p_optiga_comms->manage_context_operation = me->manage_context_operati
 916:C:/Users/Yushev/git/optiga-trust-qi/optiga/cmd\optiga_cmd.c ****                 me->p_optiga->p_optiga_comms->p_pal_os_event_ctx = me->p_optiga->p_pal_os_event_ctx
 917:C:/Users/Yushev/git/optiga-trust-qi/optiga/cmd\optiga_cmd.c **** #endif //OPTIGA_COMMS_SHIELDED_CONNECTION
 918:C:/Users/Yushev/git/optiga-trust-qi/optiga/cmd\optiga_cmd.c **** 
 919:C:/Users/Yushev/git/optiga-trust-qi/optiga/cmd\optiga_cmd.c ****                 (void)optiga_comms_set_callback_context(me->p_optiga->p_optiga_comms, me);
 920:C:/Users/Yushev/git/optiga-trust-qi/optiga/cmd\optiga_cmd.c ****                 me->exit_status = optiga_comms_open(me->p_optiga->p_optiga_comms);
 921:C:/Users/Yushev/git/optiga-trust-qi/optiga/cmd\optiga_cmd.c **** 
 922:C:/Users/Yushev/git/optiga-trust-qi/optiga/cmd\optiga_cmd.c ****                 if (OPTIGA_LIB_SUCCESS != me->exit_status)
 923:C:/Users/Yushev/git/optiga-trust-qi/optiga/cmd\optiga_cmd.c ****                 {
 924:C:/Users/Yushev/git/optiga-trust-qi/optiga/cmd\optiga_cmd.c ****                     EXIT_STATE_WITH_ERROR(me,*exit_loop);
 925:C:/Users/Yushev/git/optiga-trust-qi/optiga/cmd\optiga_cmd.c ****                     break;
 926:C:/Users/Yushev/git/optiga-trust-qi/optiga/cmd\optiga_cmd.c ****                 }
 927:C:/Users/Yushev/git/optiga-trust-qi/optiga/cmd\optiga_cmd.c ****                 me->cmd_sub_execution_state = OPTIGA_CMD_EXEC_COMMS_OPEN_DONE;
 928:C:/Users/Yushev/git/optiga-trust-qi/optiga/cmd\optiga_cmd.c ****                 break;
 929:C:/Users/Yushev/git/optiga-trust-qi/optiga/cmd\optiga_cmd.c ****             }
 930:C:/Users/Yushev/git/optiga-trust-qi/optiga/cmd\optiga_cmd.c ****             case OPTIGA_CMD_EXEC_COMMS_OPEN_DONE:
 931:C:/Users/Yushev/git/optiga-trust-qi/optiga/cmd\optiga_cmd.c ****             {
 932:C:/Users/Yushev/git/optiga-trust-qi/optiga/cmd\optiga_cmd.c ****                 pal_os_event_register_callback_oneshot(me->p_optiga->p_pal_os_event_ctx,
 933:C:/Users/Yushev/git/optiga-trust-qi/optiga/cmd\optiga_cmd.c ****                                                        (register_callback)optiga_cmd_event_trigger_
 934:C:/Users/Yushev/git/optiga-trust-qi/optiga/cmd\optiga_cmd.c ****                                                        me, OPTIGA_CMD_SCHEDULER_RUNNING_TIME_MS);
 935:C:/Users/Yushev/git/optiga-trust-qi/optiga/cmd\optiga_cmd.c ****                 me->cmd_next_execution_state = OPTIGA_CMD_EXEC_PREPARE_COMMAND;
 936:C:/Users/Yushev/git/optiga-trust-qi/optiga/cmd\optiga_cmd.c ****                 me->cmd_sub_execution_state = OPTIGA_CMD_EXEC_PREPARE_APDU;
 937:C:/Users/Yushev/git/optiga-trust-qi/optiga/cmd\optiga_cmd.c ****                 break;
 938:C:/Users/Yushev/git/optiga-trust-qi/optiga/cmd\optiga_cmd.c ****             }
 939:C:/Users/Yushev/git/optiga-trust-qi/optiga/cmd\optiga_cmd.c ****             default:
 940:C:/Users/Yushev/git/optiga-trust-qi/optiga/cmd\optiga_cmd.c ****                 EXIT_STATE_WITH_ERROR(me,*exit_loop);
 941:C:/Users/Yushev/git/optiga-trust-qi/optiga/cmd\optiga_cmd.c ****             break;
 942:C:/Users/Yushev/git/optiga-trust-qi/optiga/cmd\optiga_cmd.c ****             //lint --e{788} suppress "Not all states are used as same enum is used for both main an
 943:C:/Users/Yushev/git/optiga-trust-qi/optiga/cmd\optiga_cmd.c ****         }
 944:C:/Users/Yushev/git/optiga-trust-qi/optiga/cmd\optiga_cmd.c **** 
 945:C:/Users/Yushev/git/optiga-trust-qi/optiga/cmd\optiga_cmd.c ****     } while ((FALSE == *exit_loop) && (OPTIGA_CMD_EXEC_COMMS_OPEN == me->cmd_next_execution_state))
 946:C:/Users/Yushev/git/optiga-trust-qi/optiga/cmd\optiga_cmd.c **** }
 947:C:/Users/Yushev/git/optiga-trust-qi/optiga/cmd\optiga_cmd.c **** 
 948:C:/Users/Yushev/git/optiga-trust-qi/optiga/cmd\optiga_cmd.c **** _STATIC_H void optiga_cmd_execute_comms_close(optiga_cmd_t * me, uint8_t * exit_loop)
 949:C:/Users/Yushev/git/optiga-trust-qi/optiga/cmd\optiga_cmd.c **** {
 950:C:/Users/Yushev/git/optiga-trust-qi/optiga/cmd\optiga_cmd.c ****     do
 951:C:/Users/Yushev/git/optiga-trust-qi/optiga/cmd\optiga_cmd.c ****     {
 952:C:/Users/Yushev/git/optiga-trust-qi/optiga/cmd\optiga_cmd.c ****         *exit_loop = TRUE;
 953:C:/Users/Yushev/git/optiga-trust-qi/optiga/cmd\optiga_cmd.c ****         switch (me->cmd_sub_execution_state)
 954:C:/Users/Yushev/git/optiga-trust-qi/optiga/cmd\optiga_cmd.c ****         {
 955:C:/Users/Yushev/git/optiga-trust-qi/optiga/cmd\optiga_cmd.c ****             case OPTIGA_CMD_EXEC_COMMS_CLOSE_START:
 956:C:/Users/Yushev/git/optiga-trust-qi/optiga/cmd\optiga_cmd.c ****             {
 957:C:/Users/Yushev/git/optiga-trust-qi/optiga/cmd\optiga_cmd.c **** #ifdef OPTIGA_COMMS_SHIELDED_CONNECTION
 958:C:/Users/Yushev/git/optiga-trust-qi/optiga/cmd\optiga_cmd.c ****                 // In case PRL is enabled and save context is not invoked or is PRL is not enabled,
 959:C:/Users/Yushev/git/optiga-trust-qi/optiga/cmd\optiga_cmd.c ****                 //change state to OPTIGA_CMD_EXEC_COMMS_CLOSE_DONE, since it synchronous in nature
 960:C:/Users/Yushev/git/optiga-trust-qi/optiga/cmd\optiga_cmd.c ****                 if (OPTIGA_COMMS_SESSION_CONTEXT_SAVE != me->manage_context_operation)
 961:C:/Users/Yushev/git/optiga-trust-qi/optiga/cmd\optiga_cmd.c ****                 {
 962:C:/Users/Yushev/git/optiga-trust-qi/optiga/cmd\optiga_cmd.c ****                     me->cmd_sub_execution_state = OPTIGA_CMD_EXEC_COMMS_CLOSE_DONE;
 963:C:/Users/Yushev/git/optiga-trust-qi/optiga/cmd\optiga_cmd.c ****                 }
 964:C:/Users/Yushev/git/optiga-trust-qi/optiga/cmd\optiga_cmd.c ****                 me->p_optiga->p_optiga_comms->protection_level =  me->protection_level;
 965:C:/Users/Yushev/git/optiga-trust-qi/optiga/cmd\optiga_cmd.c ****                 me->p_optiga->p_optiga_comms->protocol_version = me->protocol_version;
 966:C:/Users/Yushev/git/optiga-trust-qi/optiga/cmd\optiga_cmd.c ****                 if (0 != me->p_optiga->protection_level_state)
 967:C:/Users/Yushev/git/optiga-trust-qi/optiga/cmd\optiga_cmd.c ****                 {
 968:C:/Users/Yushev/git/optiga-trust-qi/optiga/cmd\optiga_cmd.c ****                     me->p_optiga->p_optiga_comms->manage_context_operation = me->manage_context_ope
 969:C:/Users/Yushev/git/optiga-trust-qi/optiga/cmd\optiga_cmd.c ****                 }
 970:C:/Users/Yushev/git/optiga-trust-qi/optiga/cmd\optiga_cmd.c ****                 else
 971:C:/Users/Yushev/git/optiga-trust-qi/optiga/cmd\optiga_cmd.c ****                 {
 972:C:/Users/Yushev/git/optiga-trust-qi/optiga/cmd\optiga_cmd.c ****                     me->p_optiga->p_optiga_comms->manage_context_operation = OPTIGA_COMMS_SESSION_C
 973:C:/Users/Yushev/git/optiga-trust-qi/optiga/cmd\optiga_cmd.c ****                 }
 974:C:/Users/Yushev/git/optiga-trust-qi/optiga/cmd\optiga_cmd.c ****                 me->p_optiga->protection_level_state = 0;
 975:C:/Users/Yushev/git/optiga-trust-qi/optiga/cmd\optiga_cmd.c **** #endif //OPTIGA_COMMS_SHIELDED_CONNECTION
 976:C:/Users/Yushev/git/optiga-trust-qi/optiga/cmd\optiga_cmd.c ****                 me->cmd_sub_execution_state = OPTIGA_CMD_EXEC_COMMS_CLOSE_DONE;
 977:C:/Users/Yushev/git/optiga-trust-qi/optiga/cmd\optiga_cmd.c **** 
 978:C:/Users/Yushev/git/optiga-trust-qi/optiga/cmd\optiga_cmd.c ****                 me->p_optiga->p_optiga_comms->p_pal_os_event_ctx = me->p_optiga->p_pal_os_event_ctx
 979:C:/Users/Yushev/git/optiga-trust-qi/optiga/cmd\optiga_cmd.c **** 
 980:C:/Users/Yushev/git/optiga-trust-qi/optiga/cmd\optiga_cmd.c ****                 (void)optiga_comms_set_callback_context(me->p_optiga->p_optiga_comms, me);
 981:C:/Users/Yushev/git/optiga-trust-qi/optiga/cmd\optiga_cmd.c ****                 me->exit_status = optiga_comms_close(me->p_optiga->p_optiga_comms);
 982:C:/Users/Yushev/git/optiga-trust-qi/optiga/cmd\optiga_cmd.c **** 
 983:C:/Users/Yushev/git/optiga-trust-qi/optiga/cmd\optiga_cmd.c ****                 if (OPTIGA_LIB_SUCCESS != me->exit_status)
 984:C:/Users/Yushev/git/optiga-trust-qi/optiga/cmd\optiga_cmd.c ****                 {
 985:C:/Users/Yushev/git/optiga-trust-qi/optiga/cmd\optiga_cmd.c ****                     EXIT_STATE_WITH_ERROR(me,*exit_loop);
 986:C:/Users/Yushev/git/optiga-trust-qi/optiga/cmd\optiga_cmd.c ****                     break;
 987:C:/Users/Yushev/git/optiga-trust-qi/optiga/cmd\optiga_cmd.c ****                 }
 988:C:/Users/Yushev/git/optiga-trust-qi/optiga/cmd\optiga_cmd.c **** 
 989:C:/Users/Yushev/git/optiga-trust-qi/optiga/cmd\optiga_cmd.c **** #ifdef OPTIGA_COMMS_SHIELDED_CONNECTION
 990:C:/Users/Yushev/git/optiga-trust-qi/optiga/cmd\optiga_cmd.c ****                 // In case PRL is enabled and save context is requested,
 991:C:/Users/Yushev/git/optiga-trust-qi/optiga/cmd\optiga_cmd.c ****                 //change state to OPTIGA_CMD_EXEC_COMMS_CLOSE_DONE, since it asynchronous in nature
 992:C:/Users/Yushev/git/optiga-trust-qi/optiga/cmd\optiga_cmd.c ****                 if (OPTIGA_COMMS_SESSION_CONTEXT_SAVE == me->manage_context_operation)
 993:C:/Users/Yushev/git/optiga-trust-qi/optiga/cmd\optiga_cmd.c ****                 {
 994:C:/Users/Yushev/git/optiga-trust-qi/optiga/cmd\optiga_cmd.c ****                     me->cmd_sub_execution_state = OPTIGA_CMD_EXEC_COMMS_CLOSE_DONE;
 995:C:/Users/Yushev/git/optiga-trust-qi/optiga/cmd\optiga_cmd.c ****                     *exit_loop = TRUE;
 996:C:/Users/Yushev/git/optiga-trust-qi/optiga/cmd\optiga_cmd.c ****                 }
 997:C:/Users/Yushev/git/optiga-trust-qi/optiga/cmd\optiga_cmd.c ****                 // For synchronous behavior: After exit from optiga_comms_close, release lock
 998:C:/Users/Yushev/git/optiga-trust-qi/optiga/cmd\optiga_cmd.c ****                 else
 999:C:/Users/Yushev/git/optiga-trust-qi/optiga/cmd\optiga_cmd.c ****                 {
1000:C:/Users/Yushev/git/optiga-trust-qi/optiga/cmd\optiga_cmd.c ****                     me->exit_status = optiga_cmd_release_lock(me);
1001:C:/Users/Yushev/git/optiga-trust-qi/optiga/cmd\optiga_cmd.c ****                 }
1002:C:/Users/Yushev/git/optiga-trust-qi/optiga/cmd\optiga_cmd.c **** #else
1003:C:/Users/Yushev/git/optiga-trust-qi/optiga/cmd\optiga_cmd.c ****                 me->exit_status = optiga_cmd_release_lock(me);
1004:C:/Users/Yushev/git/optiga-trust-qi/optiga/cmd\optiga_cmd.c **** #endif //OPTIGA_COMMS_SHIELDED_CONNECTION
1005:C:/Users/Yushev/git/optiga-trust-qi/optiga/cmd\optiga_cmd.c ****                 break;
1006:C:/Users/Yushev/git/optiga-trust-qi/optiga/cmd\optiga_cmd.c ****             }
1007:C:/Users/Yushev/git/optiga-trust-qi/optiga/cmd\optiga_cmd.c ****             case OPTIGA_CMD_EXEC_COMMS_CLOSE_DONE:
1008:C:/Users/Yushev/git/optiga-trust-qi/optiga/cmd\optiga_cmd.c ****             {
1009:C:/Users/Yushev/git/optiga-trust-qi/optiga/cmd\optiga_cmd.c ****                 me->handler(me->caller_context, OPTIGA_LIB_SUCCESS);
1010:C:/Users/Yushev/git/optiga-trust-qi/optiga/cmd\optiga_cmd.c **** #ifdef OPTIGA_COMMS_SHIELDED_CONNECTION
1011:C:/Users/Yushev/git/optiga-trust-qi/optiga/cmd\optiga_cmd.c ****                 // For asynchronous behavior, change state to release the lock
1012:C:/Users/Yushev/git/optiga-trust-qi/optiga/cmd\optiga_cmd.c ****                 if (OPTIGA_COMMS_SESSION_CONTEXT_SAVE == me->manage_context_operation)
1013:C:/Users/Yushev/git/optiga-trust-qi/optiga/cmd\optiga_cmd.c ****                 {
1014:C:/Users/Yushev/git/optiga-trust-qi/optiga/cmd\optiga_cmd.c ****                     me->exit_status = optiga_cmd_release_lock(me);
1015:C:/Users/Yushev/git/optiga-trust-qi/optiga/cmd\optiga_cmd.c ****                 }
1016:C:/Users/Yushev/git/optiga-trust-qi/optiga/cmd\optiga_cmd.c **** #endif //OPTIGA_COMMS_SHIELDED_CONNECTION
1017:C:/Users/Yushev/git/optiga-trust-qi/optiga/cmd\optiga_cmd.c ****                 break;
1018:C:/Users/Yushev/git/optiga-trust-qi/optiga/cmd\optiga_cmd.c ****             }
1019:C:/Users/Yushev/git/optiga-trust-qi/optiga/cmd\optiga_cmd.c ****             default:
1020:C:/Users/Yushev/git/optiga-trust-qi/optiga/cmd\optiga_cmd.c ****                 EXIT_STATE_WITH_ERROR(me,*exit_loop);
1021:C:/Users/Yushev/git/optiga-trust-qi/optiga/cmd\optiga_cmd.c ****             break;
1022:C:/Users/Yushev/git/optiga-trust-qi/optiga/cmd\optiga_cmd.c ****             //lint --e{788} suppress "Not all states are used as same enum is used for both main an
1023:C:/Users/Yushev/git/optiga-trust-qi/optiga/cmd\optiga_cmd.c ****         }
1024:C:/Users/Yushev/git/optiga-trust-qi/optiga/cmd\optiga_cmd.c ****     } while ((FALSE == *exit_loop) && (OPTIGA_CMD_EXEC_COMMS_CLOSE == me->cmd_next_execution_state)
1025:C:/Users/Yushev/git/optiga-trust-qi/optiga/cmd\optiga_cmd.c **** }
1026:C:/Users/Yushev/git/optiga-trust-qi/optiga/cmd\optiga_cmd.c **** 
1027:C:/Users/Yushev/git/optiga-trust-qi/optiga/cmd\optiga_cmd.c **** _STATIC_H void optiga_cmd_execute_prepare_command(optiga_cmd_t * me, uint8_t * exit_loop)
1028:C:/Users/Yushev/git/optiga-trust-qi/optiga/cmd\optiga_cmd.c **** {
1029:C:/Users/Yushev/git/optiga-trust-qi/optiga/cmd\optiga_cmd.c ****     optiga_cmd_handler_t optiga_cmd_handler = me->cmd_hdlrs;
1030:C:/Users/Yushev/git/optiga-trust-qi/optiga/cmd\optiga_cmd.c ****     do
1031:C:/Users/Yushev/git/optiga-trust-qi/optiga/cmd\optiga_cmd.c ****     {
1032:C:/Users/Yushev/git/optiga-trust-qi/optiga/cmd\optiga_cmd.c ****         switch (me->cmd_sub_execution_state)
1033:C:/Users/Yushev/git/optiga-trust-qi/optiga/cmd\optiga_cmd.c ****         {
1034:C:/Users/Yushev/git/optiga-trust-qi/optiga/cmd\optiga_cmd.c ****             case OPTIGA_CMD_EXEC_REQUEST_LOCK:
1035:C:/Users/Yushev/git/optiga-trust-qi/optiga/cmd\optiga_cmd.c ****             case OPTIGA_CMD_EXEC_REQUEST_SESSION:
1036:C:/Users/Yushev/git/optiga-trust-qi/optiga/cmd\optiga_cmd.c ****             {
1037:C:/Users/Yushev/git/optiga-trust-qi/optiga/cmd\optiga_cmd.c ****                 *exit_loop = TRUE;
1038:C:/Users/Yushev/git/optiga-trust-qi/optiga/cmd\optiga_cmd.c ****                 if (me->cmd_sub_execution_state == OPTIGA_CMD_EXEC_REQUEST_SESSION)
1039:C:/Users/Yushev/git/optiga-trust-qi/optiga/cmd\optiga_cmd.c ****                 {
1040:C:/Users/Yushev/git/optiga-trust-qi/optiga/cmd\optiga_cmd.c ****                     me->exit_status = optiga_cmd_request_session(me);
1041:C:/Users/Yushev/git/optiga-trust-qi/optiga/cmd\optiga_cmd.c ****                 }
1042:C:/Users/Yushev/git/optiga-trust-qi/optiga/cmd\optiga_cmd.c ****                 else
1043:C:/Users/Yushev/git/optiga-trust-qi/optiga/cmd\optiga_cmd.c ****                 {
1044:C:/Users/Yushev/git/optiga-trust-qi/optiga/cmd\optiga_cmd.c ****                     me->exit_status = optiga_cmd_request_lock(me, OPTIGA_CMD_QUEUE_REQUEST_LOCK);
1045:C:/Users/Yushev/git/optiga-trust-qi/optiga/cmd\optiga_cmd.c ****                 }
1046:C:/Users/Yushev/git/optiga-trust-qi/optiga/cmd\optiga_cmd.c ****                 if (OPTIGA_LIB_SUCCESS != me->exit_status)
1047:C:/Users/Yushev/git/optiga-trust-qi/optiga/cmd\optiga_cmd.c ****                 {
1048:C:/Users/Yushev/git/optiga-trust-qi/optiga/cmd\optiga_cmd.c ****                     EXIT_STATE_WITH_ERROR(me,*exit_loop);
1049:C:/Users/Yushev/git/optiga-trust-qi/optiga/cmd\optiga_cmd.c ****                     break;
1050:C:/Users/Yushev/git/optiga-trust-qi/optiga/cmd\optiga_cmd.c ****                 }
1051:C:/Users/Yushev/git/optiga-trust-qi/optiga/cmd\optiga_cmd.c **** 
1052:C:/Users/Yushev/git/optiga-trust-qi/optiga/cmd\optiga_cmd.c ****                 me->cmd_sub_execution_state = OPTIGA_CMD_EXEC_PREPARE_APDU;
1053:C:/Users/Yushev/git/optiga-trust-qi/optiga/cmd\optiga_cmd.c ****                 break;
1054:C:/Users/Yushev/git/optiga-trust-qi/optiga/cmd\optiga_cmd.c ****             }
1055:C:/Users/Yushev/git/optiga-trust-qi/optiga/cmd\optiga_cmd.c ****             case OPTIGA_CMD_EXEC_REQUEST_STRICT_LOCK:
1056:C:/Users/Yushev/git/optiga-trust-qi/optiga/cmd\optiga_cmd.c ****             {
1057:C:/Users/Yushev/git/optiga-trust-qi/optiga/cmd\optiga_cmd.c ****                 me->exit_status = optiga_cmd_request_lock(me, OPTIGA_CMD_QUEUE_REQUEST_STRICT_LOCK)
1058:C:/Users/Yushev/git/optiga-trust-qi/optiga/cmd\optiga_cmd.c ****                 if (OPTIGA_LIB_SUCCESS != me->exit_status)
1059:C:/Users/Yushev/git/optiga-trust-qi/optiga/cmd\optiga_cmd.c ****                 {
1060:C:/Users/Yushev/git/optiga-trust-qi/optiga/cmd\optiga_cmd.c ****                     EXIT_STATE_WITH_ERROR(me,*exit_loop);
1061:C:/Users/Yushev/git/optiga-trust-qi/optiga/cmd\optiga_cmd.c ****                     break;
1062:C:/Users/Yushev/git/optiga-trust-qi/optiga/cmd\optiga_cmd.c ****                 }
1063:C:/Users/Yushev/git/optiga-trust-qi/optiga/cmd\optiga_cmd.c ****                 me->cmd_sub_execution_state = OPTIGA_CMD_EXEC_PREPARE_APDU;
1064:C:/Users/Yushev/git/optiga-trust-qi/optiga/cmd\optiga_cmd.c ****                 *exit_loop = TRUE;
1065:C:/Users/Yushev/git/optiga-trust-qi/optiga/cmd\optiga_cmd.c ****                 break;
1066:C:/Users/Yushev/git/optiga-trust-qi/optiga/cmd\optiga_cmd.c ****             }
1067:C:/Users/Yushev/git/optiga-trust-qi/optiga/cmd\optiga_cmd.c ****             case OPTIGA_CMD_EXEC_PREPARE_APDU:
1068:C:/Users/Yushev/git/optiga-trust-qi/optiga/cmd\optiga_cmd.c ****             {
1069:C:/Users/Yushev/git/optiga-trust-qi/optiga/cmd\optiga_cmd.c ****                 *exit_loop = TRUE;
1070:C:/Users/Yushev/git/optiga-trust-qi/optiga/cmd\optiga_cmd.c ****                 me->exit_status = optiga_cmd_handler(me);
1071:C:/Users/Yushev/git/optiga-trust-qi/optiga/cmd\optiga_cmd.c ****                 if (OPTIGA_LIB_SUCCESS != me->exit_status)
1072:C:/Users/Yushev/git/optiga-trust-qi/optiga/cmd\optiga_cmd.c ****                 {
1073:C:/Users/Yushev/git/optiga-trust-qi/optiga/cmd\optiga_cmd.c ****                     me->cmd_next_execution_state = OPTIGA_CMD_EXEC_ERROR_HANDLER;
1074:C:/Users/Yushev/git/optiga-trust-qi/optiga/cmd\optiga_cmd.c ****                     *exit_loop = FALSE;
1075:C:/Users/Yushev/git/optiga-trust-qi/optiga/cmd\optiga_cmd.c ****                     break;
1076:C:/Users/Yushev/git/optiga-trust-qi/optiga/cmd\optiga_cmd.c ****                 }
1077:C:/Users/Yushev/git/optiga-trust-qi/optiga/cmd\optiga_cmd.c ****                 me->p_optiga->comms_rx_size = OPTIGA_CMD_TOTAL_COMMS_BUFFER_SIZE;
1078:C:/Users/Yushev/git/optiga-trust-qi/optiga/cmd\optiga_cmd.c **** #ifdef OPTIGA_COMMS_SHIELDED_CONNECTION
1079:C:/Users/Yushev/git/optiga-trust-qi/optiga/cmd\optiga_cmd.c ****                 me->p_optiga->p_optiga_comms->protection_level = me->protection_level;
1080:C:/Users/Yushev/git/optiga-trust-qi/optiga/cmd\optiga_cmd.c ****                 me->p_optiga->p_optiga_comms->protocol_version = me->protocol_version;
1081:C:/Users/Yushev/git/optiga-trust-qi/optiga/cmd\optiga_cmd.c ****                 me->p_optiga->protection_level_state |= me->protection_level;
1082:C:/Users/Yushev/git/optiga-trust-qi/optiga/cmd\optiga_cmd.c **** #endif //OPTIGA_COMMS_SHIELDED_CONNECTION
1083:C:/Users/Yushev/git/optiga-trust-qi/optiga/cmd\optiga_cmd.c ****                 (void)optiga_comms_set_callback_context(me->p_optiga->p_optiga_comms, me);
1084:C:/Users/Yushev/git/optiga-trust-qi/optiga/cmd\optiga_cmd.c ****                 me->exit_status = optiga_comms_transceive(me->p_optiga->p_optiga_comms,
1085:C:/Users/Yushev/git/optiga-trust-qi/optiga/cmd\optiga_cmd.c ****                                                           me->p_optiga->optiga_comms_buffer,
1086:C:/Users/Yushev/git/optiga-trust-qi/optiga/cmd\optiga_cmd.c ****                                                           me->p_optiga->comms_tx_size,
1087:C:/Users/Yushev/git/optiga-trust-qi/optiga/cmd\optiga_cmd.c ****                                                           me->p_optiga->optiga_comms_buffer,
1088:C:/Users/Yushev/git/optiga-trust-qi/optiga/cmd\optiga_cmd.c ****                                                           &(me->p_optiga->comms_rx_size));
1089:C:/Users/Yushev/git/optiga-trust-qi/optiga/cmd\optiga_cmd.c **** 
1090:C:/Users/Yushev/git/optiga-trust-qi/optiga/cmd\optiga_cmd.c ****                 if (OPTIGA_LIB_SUCCESS != me->exit_status)
1091:C:/Users/Yushev/git/optiga-trust-qi/optiga/cmd\optiga_cmd.c ****                 {
1092:C:/Users/Yushev/git/optiga-trust-qi/optiga/cmd\optiga_cmd.c ****                     EXIT_STATE_WITH_ERROR(me,*exit_loop);
1093:C:/Users/Yushev/git/optiga-trust-qi/optiga/cmd\optiga_cmd.c ****                     break;
1094:C:/Users/Yushev/git/optiga-trust-qi/optiga/cmd\optiga_cmd.c ****                 }
1095:C:/Users/Yushev/git/optiga-trust-qi/optiga/cmd\optiga_cmd.c **** 
1096:C:/Users/Yushev/git/optiga-trust-qi/optiga/cmd\optiga_cmd.c ****                 me->cmd_next_execution_state = OPTIGA_CMD_EXEC_PROCESS_RESPONSE;
1097:C:/Users/Yushev/git/optiga-trust-qi/optiga/cmd\optiga_cmd.c ****                 me->cmd_sub_execution_state = OPTIGA_CMD_EXEC_PROCESS_OPTIGA_RESPONSE;
1098:C:/Users/Yushev/git/optiga-trust-qi/optiga/cmd\optiga_cmd.c ****                 SET_DEV_ERROR_NOTIFICATION(OPTIGA_CMD_ENTER_HANDLER_CALL);
1099:C:/Users/Yushev/git/optiga-trust-qi/optiga/cmd\optiga_cmd.c ****                 break;
1100:C:/Users/Yushev/git/optiga-trust-qi/optiga/cmd\optiga_cmd.c ****             }
1101:C:/Users/Yushev/git/optiga-trust-qi/optiga/cmd\optiga_cmd.c ****             default:
1102:C:/Users/Yushev/git/optiga-trust-qi/optiga/cmd\optiga_cmd.c ****                 EXIT_STATE_WITH_ERROR(me,*exit_loop);
1103:C:/Users/Yushev/git/optiga-trust-qi/optiga/cmd\optiga_cmd.c ****             break;
1104:C:/Users/Yushev/git/optiga-trust-qi/optiga/cmd\optiga_cmd.c ****             //lint --e{788} suppress "Not all states are used as same enum is used for both main an
1105:C:/Users/Yushev/git/optiga-trust-qi/optiga/cmd\optiga_cmd.c ****         }
1106:C:/Users/Yushev/git/optiga-trust-qi/optiga/cmd\optiga_cmd.c ****     } while ((FALSE == *exit_loop) && (OPTIGA_CMD_EXEC_PREPARE_COMMAND == me->cmd_next_execution_st
1107:C:/Users/Yushev/git/optiga-trust-qi/optiga/cmd\optiga_cmd.c **** }
1108:C:/Users/Yushev/git/optiga-trust-qi/optiga/cmd\optiga_cmd.c **** 
1109:C:/Users/Yushev/git/optiga-trust-qi/optiga/cmd\optiga_cmd.c **** _STATIC_H void optiga_cmd_execute_get_device_error(optiga_cmd_t * me, uint8_t * exit_loop)
1110:C:/Users/Yushev/git/optiga-trust-qi/optiga/cmd\optiga_cmd.c **** {
1111:C:/Users/Yushev/git/optiga-trust-qi/optiga/cmd\optiga_cmd.c ****     do
1112:C:/Users/Yushev/git/optiga-trust-qi/optiga/cmd\optiga_cmd.c ****     {
1113:C:/Users/Yushev/git/optiga-trust-qi/optiga/cmd\optiga_cmd.c ****         *exit_loop = TRUE;
1114:C:/Users/Yushev/git/optiga-trust-qi/optiga/cmd\optiga_cmd.c ****         me->exit_status = optiga_cmd_get_error_code_handler(me);
1115:C:/Users/Yushev/git/optiga-trust-qi/optiga/cmd\optiga_cmd.c ****         if (((OPTIGA_LIB_SUCCESS != me->exit_status) && !(OPTIGA_DEVICE_ERROR & me->exit_status)) |
1116:C:/Users/Yushev/git/optiga-trust-qi/optiga/cmd\optiga_cmd.c ****             ((OPTIGA_DEVICE_ERROR == me->exit_status) &&
1117:C:/Users/Yushev/git/optiga-trust-qi/optiga/cmd\optiga_cmd.c ****             ((me->device_error_status & OPTIGA_CMD_ERROR_CODE_STATE_MASK) == OPTIGA_CMD_ERROR_CODE_
1118:C:/Users/Yushev/git/optiga-trust-qi/optiga/cmd\optiga_cmd.c ****         {
1119:C:/Users/Yushev/git/optiga-trust-qi/optiga/cmd\optiga_cmd.c ****             me->cmd_next_execution_state = OPTIGA_CMD_EXEC_ERROR_HANDLER;
1120:C:/Users/Yushev/git/optiga-trust-qi/optiga/cmd\optiga_cmd.c ****             *exit_loop = FALSE;
1121:C:/Users/Yushev/git/optiga-trust-qi/optiga/cmd\optiga_cmd.c ****             break;
1122:C:/Users/Yushev/git/optiga-trust-qi/optiga/cmd\optiga_cmd.c ****         }
1123:C:/Users/Yushev/git/optiga-trust-qi/optiga/cmd\optiga_cmd.c ****     } while (FALSE);
1124:C:/Users/Yushev/git/optiga-trust-qi/optiga/cmd\optiga_cmd.c **** }
1125:C:/Users/Yushev/git/optiga-trust-qi/optiga/cmd\optiga_cmd.c **** 
1126:C:/Users/Yushev/git/optiga-trust-qi/optiga/cmd\optiga_cmd.c **** _STATIC_H void optiga_cmd_execute_process_optiga_response(optiga_cmd_t * me, uint8_t * exit_loop)
1127:C:/Users/Yushev/git/optiga-trust-qi/optiga/cmd\optiga_cmd.c **** {
1128:C:/Users/Yushev/git/optiga-trust-qi/optiga/cmd\optiga_cmd.c ****     optiga_cmd_handler_t optiga_cmd_handler = me->cmd_hdlrs;
1129:C:/Users/Yushev/git/optiga-trust-qi/optiga/cmd\optiga_cmd.c ****     do
1130:C:/Users/Yushev/git/optiga-trust-qi/optiga/cmd\optiga_cmd.c ****     {
1131:C:/Users/Yushev/git/optiga-trust-qi/optiga/cmd\optiga_cmd.c ****         *exit_loop = TRUE;
1132:C:/Users/Yushev/git/optiga-trust-qi/optiga/cmd\optiga_cmd.c ****         if (OPTIGA_CMD_ZERO_LENGTH_OR_VALUE != (me->device_error_status & OPTIGA_CMD_ENTER_HANDLER_
1133:C:/Users/Yushev/git/optiga-trust-qi/optiga/cmd\optiga_cmd.c ****         {
1134:C:/Users/Yushev/git/optiga-trust-qi/optiga/cmd\optiga_cmd.c ****             me->exit_status = optiga_cmd_handler(me);
1135:C:/Users/Yushev/git/optiga-trust-qi/optiga/cmd\optiga_cmd.c ****         }
1136:C:/Users/Yushev/git/optiga-trust-qi/optiga/cmd\optiga_cmd.c ****         else
1137:C:/Users/Yushev/git/optiga-trust-qi/optiga/cmd\optiga_cmd.c ****         {
1138:C:/Users/Yushev/git/optiga-trust-qi/optiga/cmd\optiga_cmd.c ****             me->cmd_next_execution_state = OPTIGA_CMD_EXEC_ERROR_HANDLER;
1139:C:/Users/Yushev/git/optiga-trust-qi/optiga/cmd\optiga_cmd.c ****             *exit_loop = FALSE;
1140:C:/Users/Yushev/git/optiga-trust-qi/optiga/cmd\optiga_cmd.c ****             break;
1141:C:/Users/Yushev/git/optiga-trust-qi/optiga/cmd\optiga_cmd.c ****         }
1142:C:/Users/Yushev/git/optiga-trust-qi/optiga/cmd\optiga_cmd.c ****         if (OPTIGA_LIB_SUCCESS == me->exit_status)
1143:C:/Users/Yushev/git/optiga-trust-qi/optiga/cmd\optiga_cmd.c ****         {
1144:C:/Users/Yushev/git/optiga-trust-qi/optiga/cmd\optiga_cmd.c ****             // After successful Close Application, change state to invoke optiga_comms_close
1145:C:/Users/Yushev/git/optiga-trust-qi/optiga/cmd\optiga_cmd.c ****             if (OPTIGA_CMD_CLOSE_APPLICATION == OPTIGA_CMD_GET_APDU_CMD(me->apdu_data))
1146:C:/Users/Yushev/git/optiga-trust-qi/optiga/cmd\optiga_cmd.c ****             {
1147:C:/Users/Yushev/git/optiga-trust-qi/optiga/cmd\optiga_cmd.c ****                 pal_os_event_register_callback_oneshot(me->p_optiga->p_pal_os_event_ctx,
1148:C:/Users/Yushev/git/optiga-trust-qi/optiga/cmd\optiga_cmd.c ****                                                        (register_callback)optiga_cmd_event_trigger_
1149:C:/Users/Yushev/git/optiga-trust-qi/optiga/cmd\optiga_cmd.c ****                                                        me,
1150:C:/Users/Yushev/git/optiga-trust-qi/optiga/cmd\optiga_cmd.c ****                                                        OPTIGA_CMD_SCHEDULER_IDLING_TIME_MS);
1151:C:/Users/Yushev/git/optiga-trust-qi/optiga/cmd\optiga_cmd.c ****                 *exit_loop = TRUE;
1152:C:/Users/Yushev/git/optiga-trust-qi/optiga/cmd\optiga_cmd.c ****                 me->cmd_next_execution_state = OPTIGA_CMD_EXEC_COMMS_CLOSE;
1153:C:/Users/Yushev/git/optiga-trust-qi/optiga/cmd\optiga_cmd.c ****                 me->cmd_sub_execution_state = OPTIGA_CMD_EXEC_COMMS_CLOSE_START;
1154:C:/Users/Yushev/git/optiga-trust-qi/optiga/cmd\optiga_cmd.c ****             }
1155:C:/Users/Yushev/git/optiga-trust-qi/optiga/cmd\optiga_cmd.c ****             else
1156:C:/Users/Yushev/git/optiga-trust-qi/optiga/cmd\optiga_cmd.c ****             {
1157:C:/Users/Yushev/git/optiga-trust-qi/optiga/cmd\optiga_cmd.c ****                 if (FALSE == me->chaining_ongoing)
1158:C:/Users/Yushev/git/optiga-trust-qi/optiga/cmd\optiga_cmd.c ****                 {
1159:C:/Users/Yushev/git/optiga-trust-qi/optiga/cmd\optiga_cmd.c ****                     if (OPTIGA_CMD_STATE_EXIT != me->cmd_sub_execution_state)
1160:C:/Users/Yushev/git/optiga-trust-qi/optiga/cmd\optiga_cmd.c ****                     {
1161:C:/Users/Yushev/git/optiga-trust-qi/optiga/cmd\optiga_cmd.c ****                         me->cmd_sub_execution_state = OPTIGA_CMD_EXEC_RELEASE_LOCK;
1162:C:/Users/Yushev/git/optiga-trust-qi/optiga/cmd\optiga_cmd.c ****                     }
1163:C:/Users/Yushev/git/optiga-trust-qi/optiga/cmd\optiga_cmd.c ****                     *exit_loop = FALSE;
1164:C:/Users/Yushev/git/optiga-trust-qi/optiga/cmd\optiga_cmd.c ****                     break;
1165:C:/Users/Yushev/git/optiga-trust-qi/optiga/cmd\optiga_cmd.c ****                 }
1166:C:/Users/Yushev/git/optiga-trust-qi/optiga/cmd\optiga_cmd.c ****                 // for chaining, trigger preparing of next command
1167:C:/Users/Yushev/git/optiga-trust-qi/optiga/cmd\optiga_cmd.c ****                 else
1168:C:/Users/Yushev/git/optiga-trust-qi/optiga/cmd\optiga_cmd.c ****                 {
1169:C:/Users/Yushev/git/optiga-trust-qi/optiga/cmd\optiga_cmd.c ****                     pal_os_event_register_callback_oneshot(me->p_optiga->p_pal_os_event_ctx,
1170:C:/Users/Yushev/git/optiga-trust-qi/optiga/cmd\optiga_cmd.c ****                                                            (register_callback)optiga_cmd_event_trig
1171:C:/Users/Yushev/git/optiga-trust-qi/optiga/cmd\optiga_cmd.c ****                                                            (void*)me,
1172:C:/Users/Yushev/git/optiga-trust-qi/optiga/cmd\optiga_cmd.c ****                                                            OPTIGA_CMD_SCHEDULER_IDLING_TIME_MS);
1173:C:/Users/Yushev/git/optiga-trust-qi/optiga/cmd\optiga_cmd.c ****                     *exit_loop = TRUE;
1174:C:/Users/Yushev/git/optiga-trust-qi/optiga/cmd\optiga_cmd.c **** 
1175:C:/Users/Yushev/git/optiga-trust-qi/optiga/cmd\optiga_cmd.c **** #ifdef OPTIGA_COMMS_SHIELDED_CONNECTION
1176:C:/Users/Yushev/git/optiga-trust-qi/optiga/cmd\optiga_cmd.c ****                     me->protection_level &= OPTIGA_PROTECTION_LEVEL_MASK;
1177:C:/Users/Yushev/git/optiga-trust-qi/optiga/cmd\optiga_cmd.c **** #endif //OPTIGA_COMMS_SHIELDED_CONNECTION
1178:C:/Users/Yushev/git/optiga-trust-qi/optiga/cmd\optiga_cmd.c **** 
1179:C:/Users/Yushev/git/optiga-trust-qi/optiga/cmd\optiga_cmd.c ****                     me->cmd_next_execution_state = OPTIGA_CMD_EXEC_PREPARE_COMMAND;
1180:C:/Users/Yushev/git/optiga-trust-qi/optiga/cmd\optiga_cmd.c ****                     me->cmd_sub_execution_state = OPTIGA_CMD_EXEC_PREPARE_APDU;
1181:C:/Users/Yushev/git/optiga-trust-qi/optiga/cmd\optiga_cmd.c ****                 }
1182:C:/Users/Yushev/git/optiga-trust-qi/optiga/cmd\optiga_cmd.c ****             }
1183:C:/Users/Yushev/git/optiga-trust-qi/optiga/cmd\optiga_cmd.c ****         }
1184:C:/Users/Yushev/git/optiga-trust-qi/optiga/cmd\optiga_cmd.c ****         else
1185:C:/Users/Yushev/git/optiga-trust-qi/optiga/cmd\optiga_cmd.c ****         {
1186:C:/Users/Yushev/git/optiga-trust-qi/optiga/cmd\optiga_cmd.c ****             // After OPTIGA error is analyzed, invoke upper layer handler and release lock
1187:C:/Users/Yushev/git/optiga-trust-qi/optiga/cmd\optiga_cmd.c ****             if (OPTIGA_CMD_ERROR_MEMORY_INSUFFICIENT == me->exit_status)
1188:C:/Users/Yushev/git/optiga-trust-qi/optiga/cmd\optiga_cmd.c ****             {
1189:C:/Users/Yushev/git/optiga-trust-qi/optiga/cmd\optiga_cmd.c ****                 me->cmd_sub_execution_state = OPTIGA_CMD_EXEC_RELEASE_LOCK;
1190:C:/Users/Yushev/git/optiga-trust-qi/optiga/cmd\optiga_cmd.c ****                 *exit_loop = FALSE;
1191:C:/Users/Yushev/git/optiga-trust-qi/optiga/cmd\optiga_cmd.c ****                 break;
1192:C:/Users/Yushev/git/optiga-trust-qi/optiga/cmd\optiga_cmd.c ****             }
1193:C:/Users/Yushev/git/optiga-trust-qi/optiga/cmd\optiga_cmd.c ****             // After OPTIGA responds with failure, invoke the next state to check which error occur
1194:C:/Users/Yushev/git/optiga-trust-qi/optiga/cmd\optiga_cmd.c ****             else
1195:C:/Users/Yushev/git/optiga-trust-qi/optiga/cmd\optiga_cmd.c ****             {
1196:C:/Users/Yushev/git/optiga-trust-qi/optiga/cmd\optiga_cmd.c ****                 me->cmd_sub_execution_state = OPTIGA_CMD_EXEC_GET_DEVICE_ERROR;
1197:C:/Users/Yushev/git/optiga-trust-qi/optiga/cmd\optiga_cmd.c ****                 SET_DEV_ERROR_HANDLER_STATE(OPTIGA_CMD_ERROR_CODE_PREPARE);
1198:C:/Users/Yushev/git/optiga-trust-qi/optiga/cmd\optiga_cmd.c ****                 *exit_loop = FALSE;
1199:C:/Users/Yushev/git/optiga-trust-qi/optiga/cmd\optiga_cmd.c ****             }
1200:C:/Users/Yushev/git/optiga-trust-qi/optiga/cmd\optiga_cmd.c ****         }
1201:C:/Users/Yushev/git/optiga-trust-qi/optiga/cmd\optiga_cmd.c ****     } while (FALSE);
1202:C:/Users/Yushev/git/optiga-trust-qi/optiga/cmd\optiga_cmd.c **** }
1203:C:/Users/Yushev/git/optiga-trust-qi/optiga/cmd\optiga_cmd.c **** 
1204:C:/Users/Yushev/git/optiga-trust-qi/optiga/cmd\optiga_cmd.c **** _STATIC_H void optiga_cmd_execute_process_response(optiga_cmd_t * me, uint8_t * exit_loop)
1205:C:/Users/Yushev/git/optiga-trust-qi/optiga/cmd\optiga_cmd.c **** {
1206:C:/Users/Yushev/git/optiga-trust-qi/optiga/cmd\optiga_cmd.c ****     do
1207:C:/Users/Yushev/git/optiga-trust-qi/optiga/cmd\optiga_cmd.c ****     {
1208:C:/Users/Yushev/git/optiga-trust-qi/optiga/cmd\optiga_cmd.c ****         switch (me->cmd_sub_execution_state)
1209:C:/Users/Yushev/git/optiga-trust-qi/optiga/cmd\optiga_cmd.c ****         {
1210:C:/Users/Yushev/git/optiga-trust-qi/optiga/cmd\optiga_cmd.c ****             case OPTIGA_CMD_EXEC_PROCESS_OPTIGA_RESPONSE:
1211:C:/Users/Yushev/git/optiga-trust-qi/optiga/cmd\optiga_cmd.c ****             {
1212:C:/Users/Yushev/git/optiga-trust-qi/optiga/cmd\optiga_cmd.c ****                 optiga_cmd_execute_process_optiga_response(me, exit_loop);
1213:C:/Users/Yushev/git/optiga-trust-qi/optiga/cmd\optiga_cmd.c ****                 break;
1214:C:/Users/Yushev/git/optiga-trust-qi/optiga/cmd\optiga_cmd.c ****             }
1215:C:/Users/Yushev/git/optiga-trust-qi/optiga/cmd\optiga_cmd.c ****             case OPTIGA_CMD_EXEC_GET_DEVICE_ERROR:
1216:C:/Users/Yushev/git/optiga-trust-qi/optiga/cmd\optiga_cmd.c ****             {
1217:C:/Users/Yushev/git/optiga-trust-qi/optiga/cmd\optiga_cmd.c ****                 optiga_cmd_execute_get_device_error(me, exit_loop);
1218:C:/Users/Yushev/git/optiga-trust-qi/optiga/cmd\optiga_cmd.c ****                 break;
1219:C:/Users/Yushev/git/optiga-trust-qi/optiga/cmd\optiga_cmd.c ****             }
1220:C:/Users/Yushev/git/optiga-trust-qi/optiga/cmd\optiga_cmd.c ****             case OPTIGA_CMD_EXEC_RELEASE_LOCK:
1221:C:/Users/Yushev/git/optiga-trust-qi/optiga/cmd\optiga_cmd.c ****             {
1222:C:/Users/Yushev/git/optiga-trust-qi/optiga/cmd\optiga_cmd.c ****                 //lint --e{534} suppress "The return code is not checked because this is exit state
1223:C:/Users/Yushev/git/optiga-trust-qi/optiga/cmd\optiga_cmd.c ****                 optiga_cmd_release_lock(me);
1224:C:/Users/Yushev/git/optiga-trust-qi/optiga/cmd\optiga_cmd.c ****                 me->cmd_sub_execution_state = OPTIGA_CMD_STATE_EXIT;
1225:C:/Users/Yushev/git/optiga-trust-qi/optiga/cmd\optiga_cmd.c ****                 *exit_loop = FALSE;
1226:C:/Users/Yushev/git/optiga-trust-qi/optiga/cmd\optiga_cmd.c ****                 break;
1227:C:/Users/Yushev/git/optiga-trust-qi/optiga/cmd\optiga_cmd.c ****             }
1228:C:/Users/Yushev/git/optiga-trust-qi/optiga/cmd\optiga_cmd.c ****             case OPTIGA_CMD_STATE_EXIT:
1229:C:/Users/Yushev/git/optiga-trust-qi/optiga/cmd\optiga_cmd.c ****             {
1230:C:/Users/Yushev/git/optiga-trust-qi/optiga/cmd\optiga_cmd.c ****                 me->handler(me->caller_context, me->exit_status);
1231:C:/Users/Yushev/git/optiga-trust-qi/optiga/cmd\optiga_cmd.c ****                 *exit_loop = TRUE;
1232:C:/Users/Yushev/git/optiga-trust-qi/optiga/cmd\optiga_cmd.c ****                 break;
1233:C:/Users/Yushev/git/optiga-trust-qi/optiga/cmd\optiga_cmd.c ****             }
1234:C:/Users/Yushev/git/optiga-trust-qi/optiga/cmd\optiga_cmd.c ****             default:
1235:C:/Users/Yushev/git/optiga-trust-qi/optiga/cmd\optiga_cmd.c ****                 EXIT_STATE_WITH_ERROR(me,*exit_loop);
1236:C:/Users/Yushev/git/optiga-trust-qi/optiga/cmd\optiga_cmd.c ****             break;
1237:C:/Users/Yushev/git/optiga-trust-qi/optiga/cmd\optiga_cmd.c ****             //lint --e{788} suppress "Not all states are used as same enum is used for both main an
1238:C:/Users/Yushev/git/optiga-trust-qi/optiga/cmd\optiga_cmd.c ****         }
1239:C:/Users/Yushev/git/optiga-trust-qi/optiga/cmd\optiga_cmd.c ****     } while ((FALSE == *exit_loop) && (OPTIGA_CMD_EXEC_PROCESS_RESPONSE == me->cmd_next_execution_s
1240:C:/Users/Yushev/git/optiga-trust-qi/optiga/cmd\optiga_cmd.c **** }
1241:C:/Users/Yushev/git/optiga-trust-qi/optiga/cmd\optiga_cmd.c **** 
1242:C:/Users/Yushev/git/optiga-trust-qi/optiga/cmd\optiga_cmd.c **** _STATIC_H void optiga_cmd_execute_error_handler(const optiga_cmd_t * me, uint8_t * exit_loop)
1243:C:/Users/Yushev/git/optiga-trust-qi/optiga/cmd\optiga_cmd.c **** {
1244:C:/Users/Yushev/git/optiga-trust-qi/optiga/cmd\optiga_cmd.c ****     do
1245:C:/Users/Yushev/git/optiga-trust-qi/optiga/cmd\optiga_cmd.c ****     {
1246:C:/Users/Yushev/git/optiga-trust-qi/optiga/cmd\optiga_cmd.c ****         //lint --e{534} suppress "The return code is not checked because this is exit state."
1247:C:/Users/Yushev/git/optiga-trust-qi/optiga/cmd\optiga_cmd.c ****         optiga_cmd_release_lock(me);
1248:C:/Users/Yushev/git/optiga-trust-qi/optiga/cmd\optiga_cmd.c ****         me->handler(me->caller_context, me->exit_status);
1249:C:/Users/Yushev/git/optiga-trust-qi/optiga/cmd\optiga_cmd.c ****         *exit_loop = TRUE;
1250:C:/Users/Yushev/git/optiga-trust-qi/optiga/cmd\optiga_cmd.c ****     } while (FALSE);
1251:C:/Users/Yushev/git/optiga-trust-qi/optiga/cmd\optiga_cmd.c **** }
1252:C:/Users/Yushev/git/optiga-trust-qi/optiga/cmd\optiga_cmd.c **** 
1253:C:/Users/Yushev/git/optiga-trust-qi/optiga/cmd\optiga_cmd.c **** _STATIC_H void optiga_cmd_execute_handler(void * p_ctx, optiga_lib_status_t event)
1254:C:/Users/Yushev/git/optiga-trust-qi/optiga/cmd\optiga_cmd.c **** {
 212              	 .loc 1 1254 0
 213              	 .cfi_startproc
 214              	 
 215              	 
 216              	.LVL11:
 217 0000 F7B5     	 push {r0,r1,r2,r4,r5,r6,r7,lr}
 218              	.LCFI4:
 219              	 .cfi_def_cfa_offset 32
 220              	 .cfi_offset 4,-20
 221              	 .cfi_offset 5,-16
 222              	 .cfi_offset 6,-12
 223              	 .cfi_offset 7,-8
 224              	 .cfi_offset 14,-4
 225              	 .loc 1 1254 0
 226 0002 0446     	 mov r4,r0
1255:C:/Users/Yushev/git/optiga-trust-qi/optiga/cmd\optiga_cmd.c ****     uint8_t exit_loop = TRUE;
1256:C:/Users/Yushev/git/optiga-trust-qi/optiga/cmd\optiga_cmd.c ****     optiga_cmd_t * me = (optiga_cmd_t *)p_ctx;
1257:C:/Users/Yushev/git/optiga-trust-qi/optiga/cmd\optiga_cmd.c **** 
1258:C:/Users/Yushev/git/optiga-trust-qi/optiga/cmd\optiga_cmd.c ****     // in event of no success, release lock and exit
1259:C:/Users/Yushev/git/optiga-trust-qi/optiga/cmd\optiga_cmd.c ****     if (OPTIGA_LIB_SUCCESS != event)
 227              	 .loc 1 1259 0
 228 0004 0D46     	 mov r5,r1
 229 0006 B9B1     	 cbz r1,.L15
 230              	.LVL12:
 231              	.LBB104:
 232              	.LBB105:
 869:C:/Users/Yushev/git/optiga-trust-qi/optiga/cmd\optiga_cmd.c ****         (OPTIGA_COMMS_SESSION_CONTEXT_SAVE == me->manage_context_operation))
 233              	 .loc 1 869 0
 234 0008 437E     	 ldrb r3,[r0,#25]
 235 000a 93B1     	 cbz r3,.L17
 236 000c 037F     	 ldrb r3,[r0,#28]
 237 000e 222B     	 cmp r3,#34
 238 0010 0FD1     	 bne .L17
 872:C:/Users/Yushev/git/optiga-trust-qi/optiga/cmd\optiga_cmd.c ****                         sizeof(me->p_optiga->optiga_context_handle_buffer));
 239              	 .loc 1 872 0
 240 0012 0068     	 ldr r0,[r0]
 241              	.LVL13:
 242 0014 0021     	 movs r1,#0
 243              	.LVL14:
 244 0016 00F5D060 	 add r0,r0,#1664
 245 001a 0822     	 movs r2,#8
 246 001c FFF7FEFF 	 bl pal_os_memset
 247              	.LVL15:
 874:C:/Users/Yushev/git/optiga-trust-qi/optiga/cmd\optiga_cmd.c ****             (OPTIGA_LIB_PAL_DATA_STORE_NOT_CONFIGURED != me->optiga_context_datastore_id))
 248              	 .loc 1 874 0
 249 0020 608C     	 ldrh r0,[r4,#34]
 250 0022 3328     	 cmp r0,#51
 251 0024 05D1     	 bne .L17
 879:C:/Users/Yushev/git/optiga-trust-qi/optiga/cmd\optiga_cmd.c ****                                                      sizeof(me->p_optiga->optiga_context_handle_buf
 252              	 .loc 1 879 0
 253 0026 2168     	 ldr r1,[r4]
 878:C:/Users/Yushev/git/optiga-trust-qi/optiga/cmd\optiga_cmd.c ****                                                      me->p_optiga->optiga_context_handle_buffer,
 254              	 .loc 1 878 0
 255 0028 0822     	 movs r2,#8
 256 002a 01F5D061 	 add r1,r1,#1664
 257 002e FFF7FEFF 	 bl pal_os_datastore_write
 258              	.LVL16:
 259              	.L17:
 260              	.LBE105:
 261              	.LBE104:
1260:C:/Users/Yushev/git/optiga-trust-qi/optiga/cmd\optiga_cmd.c ****     {
1261:C:/Users/Yushev/git/optiga-trust-qi/optiga/cmd\optiga_cmd.c **** #ifdef OPTIGA_COMMS_SHIELDED_CONNECTION
1262:C:/Users/Yushev/git/optiga-trust-qi/optiga/cmd\optiga_cmd.c ****         optiga_cmd_clear_app_ctx(p_ctx);
1263:C:/Users/Yushev/git/optiga-trust-qi/optiga/cmd\optiga_cmd.c **** #endif //OPTIGA_COMMS_SHIELDED_CONNECTION
1264:C:/Users/Yushev/git/optiga-trust-qi/optiga/cmd\optiga_cmd.c ****         me->cmd_next_execution_state = OPTIGA_CMD_EXEC_ERROR_HANDLER;
 262              	 .loc 1 1264 0
 263 0032 0423     	 movs r3,#4
 264 0034 A375     	 strb r3,[r4,#22]
1265:C:/Users/Yushev/git/optiga-trust-qi/optiga/cmd\optiga_cmd.c ****         me->exit_status = event;
 265              	 .loc 1 1265 0
 266 0036 2584     	 strh r5,[r4,#32]
 267              	.LVL17:
 268              	.L15:
1254:C:/Users/Yushev/git/optiga-trust-qi/optiga/cmd\optiga_cmd.c ****     uint8_t exit_loop = TRUE;
 269              	 .loc 1 1254 0
 270 0038 0123     	 movs r3,#1
 271              	.LVL18:
 272              	.L19:
1266:C:/Users/Yushev/git/optiga-trust-qi/optiga/cmd\optiga_cmd.c ****     }
1267:C:/Users/Yushev/git/optiga-trust-qi/optiga/cmd\optiga_cmd.c **** 
1268:C:/Users/Yushev/git/optiga-trust-qi/optiga/cmd\optiga_cmd.c ****     do
1269:C:/Users/Yushev/git/optiga-trust-qi/optiga/cmd\optiga_cmd.c ****     {
1270:C:/Users/Yushev/git/optiga-trust-qi/optiga/cmd\optiga_cmd.c ****         switch (me->cmd_next_execution_state)
 273              	 .loc 1 1270 0
 274 003a A27D     	 ldrb r2,[r4,#22]
 275 003c 042A     	 cmp r2,#4
 276 003e 00F2BF81 	 bhi .L20
 277 0042 DFE812F0 	 tbh [pc,r2,lsl#1]
 278              	.L22:
 279 0046 0500     	 .2byte (.L21-.L22)/2
 280 0048 3C00     	 .2byte (.L23-.L22)/2
 281 004a 8100     	 .2byte (.L24-.L22)/2
 282 004c E000     	 .2byte (.L93-.L22)/2
 283 004e B301     	 .2byte (.L26-.L22)/2
 284              	 .p2align 1
 285              	.L21:
 286              	.LVL19:
 287              	.LBB106:
 288              	.LBB107:
 895:C:/Users/Yushev/git/optiga-trust-qi/optiga/cmd\optiga_cmd.c ****         {
 289              	 .loc 1 895 0
 290 0050 E57D     	 ldrb r5,[r4,#23]
 291 0052 012D     	 cmp r5,#1
 292 0054 15D0     	 beq .L28
 293 0056 0CD3     	 bcc .L29
 294 0058 022D     	 cmp r5,#2
 295 005a 40F0C480 	 bne .L44
 932:C:/Users/Yushev/git/optiga-trust-qi/optiga/cmd\optiga_cmd.c ****                                                        (register_callback)optiga_cmd_event_trigger_
 296              	 .loc 1 932 0
 297 005e 2368     	 ldr r3,[r4]
 298 0060 A849     	 ldr r1,.L115
 299 0062 D3F87806 	 ldr r0,[r3,#1656]
 300 0066 2246     	 mov r2,r4
 301 0068 3223     	 movs r3,#50
 302 006a FFF7FEFF 	 bl pal_os_event_register_callback_oneshot
 303              	.LVL20:
 935:C:/Users/Yushev/git/optiga-trust-qi/optiga/cmd\optiga_cmd.c ****                 me->cmd_sub_execution_state = OPTIGA_CMD_EXEC_PREPARE_APDU;
 304              	 .loc 1 935 0
 305 006e A575     	 strb r5,[r4,#22]
 306 0070 05E1     	 b .L111
 307              	.L29:
 308              	.LVL21:
 309              	.LBB108:
 310              	.LBB109:
 799:C:/Users/Yushev/git/optiga-trust-qi/optiga/cmd\optiga_cmd.c ****     return (OPTIGA_CMD_SUCCESS);
 311              	 .loc 1 799 0
 312 0072 2046     	 mov r0,r4
 313 0074 2121     	 movs r1,#33
 314 0076 FFF7FEFF 	 bl optiga_cmd_queue_update_slot
 315              	.LVL22:
 316              	.LBE109:
 317              	.LBE108:
 901:C:/Users/Yushev/git/optiga-trust-qi/optiga/cmd\optiga_cmd.c ****                 if (OPTIGA_LIB_SUCCESS != me->exit_status)
 318              	 .loc 1 901 0
 319 007a 0023     	 movs r3,#0
 320 007c 2384     	 strh r3,[r4,#32]
 907:C:/Users/Yushev/git/optiga-trust-qi/optiga/cmd\optiga_cmd.c ****                 break;
 321              	 .loc 1 907 0
 322 007e 0123     	 movs r3,#1
 323 0080 FEE0     	 b .L110
 324              	.LVL23:
 325              	.L28:
 913:C:/Users/Yushev/git/optiga-trust-qi/optiga/cmd\optiga_cmd.c ****                 me->p_optiga->p_optiga_comms->protocol_version = me->protocol_version;
 326              	 .loc 1 913 0
 327 0082 2368     	 ldr r3,[r4]
 328 0084 A27E     	 ldrb r2,[r4,#26]
 329 0086 1B68     	 ldr r3,[r3]
 330 0088 9A73     	 strb r2,[r3,#14]
 914:C:/Users/Yushev/git/optiga-trust-qi/optiga/cmd\optiga_cmd.c ****                 me->p_optiga->p_optiga_comms->manage_context_operation = me->manage_context_operati
 331              	 .loc 1 914 0
 332 008a 2368     	 ldr r3,[r4]
 333 008c E27E     	 ldrb r2,[r4,#27]
 334 008e 1B68     	 ldr r3,[r3]
 335 0090 DA73     	 strb r2,[r3,#15]
 915:C:/Users/Yushev/git/optiga-trust-qi/optiga/cmd\optiga_cmd.c ****                 me->p_optiga->p_optiga_comms->p_pal_os_event_ctx = me->p_optiga->p_pal_os_event_ctx
 336              	 .loc 1 915 0
 337 0092 2368     	 ldr r3,[r4]
 338 0094 227F     	 ldrb r2,[r4,#28]
 339 0096 1B68     	 ldr r3,[r3]
 340 0098 1A74     	 strb r2,[r3,#16]
 916:C:/Users/Yushev/git/optiga-trust-qi/optiga/cmd\optiga_cmd.c **** #endif //OPTIGA_COMMS_SHIELDED_CONNECTION
 341              	 .loc 1 916 0
 342 009a 2368     	 ldr r3,[r4]
 343 009c 1868     	 ldr r0,[r3]
 344 009e D3F87836 	 ldr r3,[r3,#1656]
 345 00a2 4361     	 str r3,[r0,#20]
 919:C:/Users/Yushev/git/optiga-trust-qi/optiga/cmd\optiga_cmd.c ****                 me->exit_status = optiga_comms_open(me->p_optiga->p_optiga_comms);
 346              	 .loc 1 919 0
 347 00a4 2146     	 mov r1,r4
 348 00a6 FFF7FEFF 	 bl optiga_comms_set_callback_context
 349              	.LVL24:
 920:C:/Users/Yushev/git/optiga-trust-qi/optiga/cmd\optiga_cmd.c **** 
 350              	 .loc 1 920 0
 351 00aa 2368     	 ldr r3,[r4]
 352 00ac 1868     	 ldr r0,[r3]
 353 00ae FFF7FEFF 	 bl optiga_comms_open
 354              	.LVL25:
 355 00b2 2084     	 strh r0,[r4,#32]
 922:C:/Users/Yushev/git/optiga-trust-qi/optiga/cmd\optiga_cmd.c ****                 {
 356              	 .loc 1 922 0
 357 00b4 0028     	 cmp r0,#0
 358 00b6 40F09680 	 bne .L44
 927:C:/Users/Yushev/git/optiga-trust-qi/optiga/cmd\optiga_cmd.c ****                 break;
 359              	 .loc 1 927 0
 360 00ba 0223     	 movs r3,#2
 361 00bc E0E0     	 b .L110
 362              	.LVL26:
 363              	.L23:
 364              	.LBE107:
 365              	.LBE106:
 366              	.LBB110:
 367              	.LBB111:
 953:C:/Users/Yushev/git/optiga-trust-qi/optiga/cmd\optiga_cmd.c ****         {
 368              	 .loc 1 953 0
 369 00be E37D     	 ldrb r3,[r4,#23]
 370 00c0 032B     	 cmp r3,#3
 371 00c2 02D0     	 beq .L35
 372 00c4 042B     	 cmp r3,#4
 373 00c6 31D0     	 beq .L36
 374 00c8 8DE0     	 b .L44
 375              	.L35:
 960:C:/Users/Yushev/git/optiga-trust-qi/optiga/cmd\optiga_cmd.c ****                 {
 376              	 .loc 1 960 0
 377 00ca 237F     	 ldrb r3,[r4,#28]
 964:C:/Users/Yushev/git/optiga-trust-qi/optiga/cmd\optiga_cmd.c ****                 me->p_optiga->p_optiga_comms->protocol_version = me->protocol_version;
 378              	 .loc 1 964 0
 379 00cc A27E     	 ldrb r2,[r4,#26]
 960:C:/Users/Yushev/git/optiga-trust-qi/optiga/cmd\optiga_cmd.c ****                 {
 380              	 .loc 1 960 0
 381 00ce 222B     	 cmp r3,#34
 962:C:/Users/Yushev/git/optiga-trust-qi/optiga/cmd\optiga_cmd.c ****                 }
 382              	 .loc 1 962 0
 383 00d0 1CBF     	 itt ne
 384 00d2 0423     	 movne r3,#4
 385 00d4 E375     	 strbne r3,[r4,#23]
 964:C:/Users/Yushev/git/optiga-trust-qi/optiga/cmd\optiga_cmd.c ****                 me->p_optiga->p_optiga_comms->protocol_version = me->protocol_version;
 386              	 .loc 1 964 0
 387 00d6 2368     	 ldr r3,[r4]
 388 00d8 1B68     	 ldr r3,[r3]
 389 00da 9A73     	 strb r2,[r3,#14]
 965:C:/Users/Yushev/git/optiga-trust-qi/optiga/cmd\optiga_cmd.c ****                 if (0 != me->p_optiga->protection_level_state)
 390              	 .loc 1 965 0
 391 00dc 2368     	 ldr r3,[r4]
 392 00de E27E     	 ldrb r2,[r4,#27]
 393 00e0 1B68     	 ldr r3,[r3]
 394 00e2 DA73     	 strb r2,[r3,#15]
 966:C:/Users/Yushev/git/optiga-trust-qi/optiga/cmd\optiga_cmd.c ****                 {
 395              	 .loc 1 966 0
 396 00e4 2368     	 ldr r3,[r4]
 397 00e6 93F88826 	 ldrb r2,[r3,#1672]
 398 00ea 1B68     	 ldr r3,[r3]
 399 00ec 0AB1     	 cbz r2,.L38
 968:C:/Users/Yushev/git/optiga-trust-qi/optiga/cmd\optiga_cmd.c ****                 }
 400              	 .loc 1 968 0
 401 00ee 227F     	 ldrb r2,[r4,#28]
 402 00f0 00E0     	 b .L107
 403              	.L38:
 972:C:/Users/Yushev/git/optiga-trust-qi/optiga/cmd\optiga_cmd.c ****                 }
 404              	 .loc 1 972 0
 405 00f2 3322     	 movs r2,#51
 406              	.L107:
 407 00f4 1A74     	 strb r2,[r3,#16]
 974:C:/Users/Yushev/git/optiga-trust-qi/optiga/cmd\optiga_cmd.c **** #endif //OPTIGA_COMMS_SHIELDED_CONNECTION
 408              	 .loc 1 974 0
 409 00f6 2368     	 ldr r3,[r4]
 410 00f8 0022     	 movs r2,#0
 411 00fa 83F88826 	 strb r2,[r3,#1672]
 978:C:/Users/Yushev/git/optiga-trust-qi/optiga/cmd\optiga_cmd.c **** 
 412              	 .loc 1 978 0
 413 00fe 2368     	 ldr r3,[r4]
 414 0100 1868     	 ldr r0,[r3]
 415 0102 D3F87836 	 ldr r3,[r3,#1656]
 976:C:/Users/Yushev/git/optiga-trust-qi/optiga/cmd\optiga_cmd.c **** 
 416              	 .loc 1 976 0
 417 0106 0425     	 movs r5,#4
 418 0108 E575     	 strb r5,[r4,#23]
 980:C:/Users/Yushev/git/optiga-trust-qi/optiga/cmd\optiga_cmd.c ****                 me->exit_status = optiga_comms_close(me->p_optiga->p_optiga_comms);
 419              	 .loc 1 980 0
 420 010a 2146     	 mov r1,r4
 978:C:/Users/Yushev/git/optiga-trust-qi/optiga/cmd\optiga_cmd.c **** 
 421              	 .loc 1 978 0
 422 010c 4361     	 str r3,[r0,#20]
 980:C:/Users/Yushev/git/optiga-trust-qi/optiga/cmd\optiga_cmd.c ****                 me->exit_status = optiga_comms_close(me->p_optiga->p_optiga_comms);
 423              	 .loc 1 980 0
 424 010e FFF7FEFF 	 bl optiga_comms_set_callback_context
 425              	.LVL27:
 981:C:/Users/Yushev/git/optiga-trust-qi/optiga/cmd\optiga_cmd.c **** 
 426              	 .loc 1 981 0
 427 0112 2368     	 ldr r3,[r4]
 428 0114 1868     	 ldr r0,[r3]
 429 0116 FFF7FEFF 	 bl optiga_comms_close
 430              	.LVL28:
 431 011a 2084     	 strh r0,[r4,#32]
 983:C:/Users/Yushev/git/optiga-trust-qi/optiga/cmd\optiga_cmd.c ****                 {
 432              	 .loc 1 983 0
 433 011c 08B1     	 cbz r0,.L40
 985:C:/Users/Yushev/git/optiga-trust-qi/optiga/cmd\optiga_cmd.c ****                     break;
 434              	 .loc 1 985 0
 435 011e A575     	 strb r5,[r4,#22]
 436 0120 63E0     	 b .L106
 437              	.L40:
 992:C:/Users/Yushev/git/optiga-trust-qi/optiga/cmd\optiga_cmd.c ****                 {
 438              	 .loc 1 992 0
 439 0122 237F     	 ldrb r3,[r4,#28]
 440 0124 222B     	 cmp r3,#34
 441 0126 09D1     	 bne .L42
 994:C:/Users/Yushev/git/optiga-trust-qi/optiga/cmd\optiga_cmd.c ****                     *exit_loop = TRUE;
 442              	 .loc 1 994 0
 443 0128 E575     	 strb r5,[r4,#23]
 444 012a 4CE1     	 b .L14
 445              	.L36:
1009:C:/Users/Yushev/git/optiga-trust-qi/optiga/cmd\optiga_cmd.c **** #ifdef OPTIGA_COMMS_SHIELDED_CONNECTION
 446              	 .loc 1 1009 0
 447 012c 2369     	 ldr r3,[r4,#16]
 448 012e E068     	 ldr r0,[r4,#12]
 449 0130 0021     	 movs r1,#0
 450 0132 9847     	 blx r3
 451              	.LVL29:
1012:C:/Users/Yushev/git/optiga-trust-qi/optiga/cmd\optiga_cmd.c ****                 {
 452              	 .loc 1 1012 0
 453 0134 237F     	 ldrb r3,[r4,#28]
 454 0136 222B     	 cmp r3,#34
 455 0138 40F04581 	 bne .L14
 456              	.L42:
 457              	.LVL30:
 458              	.LBB112:
 459              	.LBB113:
 805:C:/Users/Yushev/git/optiga-trust-qi/optiga/cmd\optiga_cmd.c ****     return (OPTIGA_CMD_SUCCESS);
 460              	 .loc 1 805 0
 461 013c 2046     	 mov r0,r4
 462 013e FFF7FEFF 	 bl optiga_cmd_queue_reset_slot
 463              	.LVL31:
 464              	.LBE113:
 465              	.LBE112:
1000:C:/Users/Yushev/git/optiga-trust-qi/optiga/cmd\optiga_cmd.c ****                 }
 466              	 .loc 1 1000 0
 467 0142 0023     	 movs r3,#0
 468 0144 2384     	 strh r3,[r4,#32]
 469 0146 3EE1     	 b .L14
 470              	.LVL32:
 471              	.L24:
 472              	.LBE111:
 473              	.LBE110:
 474              	.LBB114:
 475              	.LBB115:
1032:C:/Users/Yushev/git/optiga-trust-qi/optiga/cmd\optiga_cmd.c ****         {
 476              	 .loc 1 1032 0
 477 0148 E37D     	 ldrb r3,[r4,#23]
 478              	.LVL33:
1029:C:/Users/Yushev/git/optiga-trust-qi/optiga/cmd\optiga_cmd.c ****     do
 479              	 .loc 1 1029 0
 480 014a 6168     	 ldr r1,[r4,#4]
 481              	.LVL34:
1032:C:/Users/Yushev/git/optiga-trust-qi/optiga/cmd\optiga_cmd.c ****         {
 482              	 .loc 1 1032 0
 483 014c 5A1F     	 subs r2,r3,#5
 484 014e 032A     	 cmp r2,#3
 485 0150 49D8     	 bhi .L44
 486 0152 DFE802F0 	 tbb [pc,r2]
 487              	.L46:
 488 0156 02       	 .byte (.L45-.L46)/2
 489 0157 02       	 .byte (.L45-.L46)/2
 490 0158 0D       	 .byte (.L47-.L46)/2
 491 0159 14       	 .byte (.L48-.L46)/2
 492              	 .p2align 1
 493              	.L45:
 494              	.LVL35:
1038:C:/Users/Yushev/git/optiga-trust-qi/optiga/cmd\optiga_cmd.c ****                 {
 495              	 .loc 1 1038 0
 496 015a 052B     	 cmp r3,#5
 497              	.LBB116:
 498              	.LBB117:
 787:C:/Users/Yushev/git/optiga-trust-qi/optiga/cmd\optiga_cmd.c ****     return (OPTIGA_CMD_SUCCESS);
 499              	 .loc 1 787 0
 500 015c 2046     	 mov r0,r4
 501 015e 4FF00005 	 mov r5,#0
 502              	.LVL36:
 503 0162 0CBF     	 ite eq
 504 0164 2221     	 moveq r1,#34
 505              	.LVL37:
 506              	.LBE117:
 507              	.LBE116:
 508              	.LBB118:
 509              	.LBB119:
 799:C:/Users/Yushev/git/optiga-trust-qi/optiga/cmd\optiga_cmd.c ****     return (OPTIGA_CMD_SUCCESS);
 510              	 .loc 1 799 0
 511 0166 2121     	 movne r1,#33
 512 0168 FFF7FEFF 	 bl optiga_cmd_queue_update_slot
 513              	.LVL38:
 514              	.LBE119:
 515              	.LBE118:
1044:C:/Users/Yushev/git/optiga-trust-qi/optiga/cmd\optiga_cmd.c ****                 }
 516              	 .loc 1 1044 0
 517 016c 2584     	 strh r5,[r4,#32]
 518 016e 86E0     	 b .L111
 519              	.LVL39:
 520              	.L47:
 521              	.LBB120:
 522              	.LBB121:
 799:C:/Users/Yushev/git/optiga-trust-qi/optiga/cmd\optiga_cmd.c ****     return (OPTIGA_CMD_SUCCESS);
 523              	 .loc 1 799 0
 524 0170 2046     	 mov r0,r4
 525 0172 2321     	 movs r1,#35
 526              	.LVL40:
 527 0174 FFF7FEFF 	 bl optiga_cmd_queue_update_slot
 528              	.LVL41:
 529              	.LBE121:
 530              	.LBE120:
1057:C:/Users/Yushev/git/optiga-trust-qi/optiga/cmd\optiga_cmd.c ****                 if (OPTIGA_LIB_SUCCESS != me->exit_status)
 531              	 .loc 1 1057 0
 532 0178 0023     	 movs r3,#0
 533 017a 2384     	 strh r3,[r4,#32]
 534 017c 7FE0     	 b .L111
 535              	.LVL42:
 536              	.L48:
1070:C:/Users/Yushev/git/optiga-trust-qi/optiga/cmd\optiga_cmd.c ****                 if (OPTIGA_LIB_SUCCESS != me->exit_status)
 537              	 .loc 1 1070 0
 538 017e 2046     	 mov r0,r4
 539 0180 8847     	 blx r1
 540              	.LVL43:
 541 0182 2084     	 strh r0,[r4,#32]
1071:C:/Users/Yushev/git/optiga-trust-qi/optiga/cmd\optiga_cmd.c ****                 {
 542              	 .loc 1 1071 0
 543 0184 18B1     	 cbz r0,.L52
1073:C:/Users/Yushev/git/optiga-trust-qi/optiga/cmd\optiga_cmd.c ****                     *exit_loop = FALSE;
 544              	 .loc 1 1073 0
 545 0186 0423     	 movs r3,#4
 546 0188 A375     	 strb r3,[r4,#22]
 547              	.LVL44:
 548              	.L71:
 549 018a 0023     	 movs r3,#0
 550 018c 55E7     	 b .L19
 551              	.LVL45:
 552              	.L52:
1077:C:/Users/Yushev/git/optiga-trust-qi/optiga/cmd\optiga_cmd.c **** #ifdef OPTIGA_COMMS_SHIELDED_CONNECTION
 553              	 .loc 1 1077 0
 554 018e 2368     	 ldr r3,[r4]
 555 0190 40F22262 	 movw r2,#1570
 556 0194 DA80     	 strh r2,[r3,#6]
1079:C:/Users/Yushev/git/optiga-trust-qi/optiga/cmd\optiga_cmd.c ****                 me->p_optiga->p_optiga_comms->protocol_version = me->protocol_version;
 557              	 .loc 1 1079 0
 558 0196 1B68     	 ldr r3,[r3]
 559 0198 A27E     	 ldrb r2,[r4,#26]
 560 019a 9A73     	 strb r2,[r3,#14]
1080:C:/Users/Yushev/git/optiga-trust-qi/optiga/cmd\optiga_cmd.c ****                 me->p_optiga->protection_level_state |= me->protection_level;
 561              	 .loc 1 1080 0
 562 019c 2368     	 ldr r3,[r4]
 563 019e E27E     	 ldrb r2,[r4,#27]
 564 01a0 1B68     	 ldr r3,[r3]
 565 01a2 DA73     	 strb r2,[r3,#15]
1081:C:/Users/Yushev/git/optiga-trust-qi/optiga/cmd\optiga_cmd.c **** #endif //OPTIGA_COMMS_SHIELDED_CONNECTION
 566              	 .loc 1 1081 0
 567 01a4 2268     	 ldr r2,[r4]
 568 01a6 A17E     	 ldrb r1,[r4,#26]
 569 01a8 92F88836 	 ldrb r3,[r2,#1672]
 570 01ac 0B43     	 orrs r3,r3,r1
 571 01ae 82F88836 	 strb r3,[r2,#1672]
1083:C:/Users/Yushev/git/optiga-trust-qi/optiga/cmd\optiga_cmd.c ****                 me->exit_status = optiga_comms_transceive(me->p_optiga->p_optiga_comms,
 572              	 .loc 1 1083 0
 573 01b2 2368     	 ldr r3,[r4]
 574 01b4 2146     	 mov r1,r4
 575 01b6 1868     	 ldr r0,[r3]
 576 01b8 FFF7FEFF 	 bl optiga_comms_set_callback_context
 577              	.LVL46:
1084:C:/Users/Yushev/git/optiga-trust-qi/optiga/cmd\optiga_cmd.c ****                                                           me->p_optiga->optiga_comms_buffer,
 578              	 .loc 1 1084 0
 579 01bc 2368     	 ldr r3,[r4]
 580 01be 981D     	 adds r0,r3,#6
 581 01c0 9A88     	 ldrh r2,[r3,#4]
 582 01c2 0090     	 str r0,[sp]
1087:C:/Users/Yushev/git/optiga-trust-qi/optiga/cmd\optiga_cmd.c ****                                                           &(me->p_optiga->comms_rx_size));
 583              	 .loc 1 1087 0
 584 01c4 03F10D01 	 add r1,r3,#13
1084:C:/Users/Yushev/git/optiga-trust-qi/optiga/cmd\optiga_cmd.c ****                                                           me->p_optiga->optiga_comms_buffer,
 585              	 .loc 1 1084 0
 586 01c8 1868     	 ldr r0,[r3]
 587 01ca 0B46     	 mov r3,r1
 588 01cc FFF7FEFF 	 bl optiga_comms_transceive
 589              	.LVL47:
 590 01d0 2084     	 strh r0,[r4,#32]
1090:C:/Users/Yushev/git/optiga-trust-qi/optiga/cmd\optiga_cmd.c ****                 {
 591              	 .loc 1 1090 0
 592 01d2 40B9     	 cbnz r0,.L44
1096:C:/Users/Yushev/git/optiga-trust-qi/optiga/cmd\optiga_cmd.c ****                 me->cmd_sub_execution_state = OPTIGA_CMD_EXEC_PROCESS_OPTIGA_RESPONSE;
 593              	 .loc 1 1096 0
 594 01d4 0323     	 movs r3,#3
 595 01d6 A375     	 strb r3,[r4,#22]
1097:C:/Users/Yushev/git/optiga-trust-qi/optiga/cmd\optiga_cmd.c ****                 SET_DEV_ERROR_NOTIFICATION(OPTIGA_CMD_ENTER_HANDLER_CALL);
 596              	 .loc 1 1097 0
 597 01d8 0923     	 movs r3,#9
 598 01da E375     	 strb r3,[r4,#23]
1098:C:/Users/Yushev/git/optiga-trust-qi/optiga/cmd\optiga_cmd.c ****                 break;
 599              	 .loc 1 1098 0
 600 01dc 637F     	 ldrb r3,[r4,#29]
 601 01de 63F07F03 	 orn r3,r3,#127
 602 01e2 6377     	 strb r3,[r4,#29]
 603 01e4 EFE0     	 b .L14
 604              	.LVL48:
 605              	.L44:
1102:C:/Users/Yushev/git/optiga-trust-qi/optiga/cmd\optiga_cmd.c ****             break;
 606              	 .loc 1 1102 0
 607 01e6 0423     	 movs r3,#4
 608 01e8 A375     	 strb r3,[r4,#22]
 609              	.L106:
 610 01ea 40F20223 	 movw r3,#514
 611 01ee 2384     	 strh r3,[r4,#32]
 612              	.LVL49:
 613 01f0 CBE7     	 b .L71
 614              	.LVL50:
 615              	.L55:
 616              	.LBE115:
 617              	.LBE114:
 618              	.LBB122:
 619              	.LBB123:
 620              	.LBB124:
 621              	.LBB125:
1132:C:/Users/Yushev/git/optiga-trust-qi/optiga/cmd\optiga_cmd.c ****         {
 622              	 .loc 1 1132 0
 623 01f2 94F91D20 	 ldrsb r2,[r4,#29]
1128:C:/Users/Yushev/git/optiga-trust-qi/optiga/cmd\optiga_cmd.c ****     do
 624              	 .loc 1 1128 0
 625 01f6 6368     	 ldr r3,[r4,#4]
 626              	.LVL51:
1132:C:/Users/Yushev/git/optiga-trust-qi/optiga/cmd\optiga_cmd.c ****         {
 627              	 .loc 1 1132 0
 628 01f8 002A     	 cmp r2,#0
 629 01fa 15DB     	 blt .L113
 630              	.LVL52:
 631              	.L60:
1138:C:/Users/Yushev/git/optiga-trust-qi/optiga/cmd\optiga_cmd.c ****             *exit_loop = FALSE;
 632              	 .loc 1 1138 0
 633 01fc 0423     	 movs r3,#4
 634 01fe A375     	 strb r3,[r4,#22]
 635              	.LVL53:
 636              	.L63:
 637              	.LBE125:
 638              	.LBE124:
1239:C:/Users/Yushev/git/optiga-trust-qi/optiga/cmd\optiga_cmd.c **** }
 639              	 .loc 1 1239 0
 640 0200 A37D     	 ldrb r3,[r4,#22]
 641 0202 032B     	 cmp r3,#3
 642 0204 C1D1     	 bne .L71
 643              	.LVL54:
 644              	.L93:
1208:C:/Users/Yushev/git/optiga-trust-qi/optiga/cmd\optiga_cmd.c ****         {
 645              	 .loc 1 1208 0
 646 0206 E37D     	 ldrb r3,[r4,#23]
 647 0208 093B     	 subs r3,r3,#9
 648 020a 032B     	 cmp r3,#3
 649 020c 00F2C880 	 bhi .L54
 650 0210 01A2     	 adr r2,.L56
 651 0212 52F823F0 	 ldr pc,[r2,r3,lsl#2]
 652 0216 00BF     	 .p2align 2
 653              	.L56:
 654 0218 F3010000 	 .word .L55+1
 655 021c 9D020000 	 .word .L57+1
 656 0220 95030000 	 .word .L58+1
 657 0224 B3030000 	 .word .L112+1
 658              	.LVL55:
 659              	 .p2align 1
 660              	.L113:
 661              	.LBB127:
 662              	.LBB126:
1134:C:/Users/Yushev/git/optiga-trust-qi/optiga/cmd\optiga_cmd.c ****         }
 663              	 .loc 1 1134 0
 664 0228 2046     	 mov r0,r4
 665 022a 9847     	 blx r3
 666              	.LVL56:
 667 022c 2084     	 strh r0,[r4,#32]
1142:C:/Users/Yushev/git/optiga-trust-qi/optiga/cmd\optiga_cmd.c ****         {
 668              	 .loc 1 1142 0
 669 022e 48BB     	 cbnz r0,.L114
1145:C:/Users/Yushev/git/optiga-trust-qi/optiga/cmd\optiga_cmd.c ****             {
 670              	 .loc 1 1145 0
 671 0230 94F82430 	 ldrb r3,[r4,#36]
 672 0234 F12B     	 cmp r3,#241
 673 0236 0CD1     	 bne .L64
1147:C:/Users/Yushev/git/optiga-trust-qi/optiga/cmd\optiga_cmd.c ****                                                        (register_callback)optiga_cmd_event_trigger_
 674              	 .loc 1 1147 0
 675 0238 2368     	 ldr r3,[r4]
 676 023a 3249     	 ldr r1,.L115
 677 023c D3F87806 	 ldr r0,[r3,#1656]
 678 0240 2246     	 mov r2,r4
 679 0242 4FF47A73 	 mov r3,#1000
 680 0246 FFF7FEFF 	 bl pal_os_event_register_callback_oneshot
 681              	.LVL57:
1152:C:/Users/Yushev/git/optiga-trust-qi/optiga/cmd\optiga_cmd.c ****                 me->cmd_sub_execution_state = OPTIGA_CMD_EXEC_COMMS_CLOSE_START;
 682              	 .loc 1 1152 0
 683 024a 0123     	 movs r3,#1
 684 024c A375     	 strb r3,[r4,#22]
1153:C:/Users/Yushev/git/optiga-trust-qi/optiga/cmd\optiga_cmd.c ****             }
 685              	 .loc 1 1153 0
 686 024e 0323     	 movs r3,#3
 687 0250 16E0     	 b .L110
 688              	.L64:
1157:C:/Users/Yushev/git/optiga-trust-qi/optiga/cmd\optiga_cmd.c ****                 {
 689              	 .loc 1 1157 0
 690 0252 237E     	 ldrb r3,[r4,#24]
 691 0254 23B9     	 cbnz r3,.L65
1159:C:/Users/Yushev/git/optiga-trust-qi/optiga/cmd\optiga_cmd.c ****                     {
 692              	 .loc 1 1159 0
 693 0256 E37D     	 ldrb r3,[r4,#23]
 694 0258 0C2B     	 cmp r3,#12
 695 025a D1D0     	 beq .L63
 696              	.L66:
1161:C:/Users/Yushev/git/optiga-trust-qi/optiga/cmd\optiga_cmd.c ****                     }
 697              	 .loc 1 1161 0
 698 025c 0B23     	 movs r3,#11
 699 025e 9DE0     	 b .L109
 700              	.L65:
1169:C:/Users/Yushev/git/optiga-trust-qi/optiga/cmd\optiga_cmd.c ****                                                            (register_callback)optiga_cmd_event_trig
 701              	 .loc 1 1169 0
 702 0260 2368     	 ldr r3,[r4]
 703 0262 2849     	 ldr r1,.L115
 704 0264 D3F87806 	 ldr r0,[r3,#1656]
 705 0268 2246     	 mov r2,r4
 706 026a 4FF47A73 	 mov r3,#1000
 707 026e FFF7FEFF 	 bl pal_os_event_register_callback_oneshot
 708              	.LVL58:
1176:C:/Users/Yushev/git/optiga-trust-qi/optiga/cmd\optiga_cmd.c **** #endif //OPTIGA_COMMS_SHIELDED_CONNECTION
 709              	 .loc 1 1176 0
 710 0272 A37E     	 ldrb r3,[r4,#26]
 711 0274 03F00303 	 and r3,r3,#3
 712 0278 A376     	 strb r3,[r4,#26]
1179:C:/Users/Yushev/git/optiga-trust-qi/optiga/cmd\optiga_cmd.c ****                     me->cmd_sub_execution_state = OPTIGA_CMD_EXEC_PREPARE_APDU;
 713              	 .loc 1 1179 0
 714 027a 0223     	 movs r3,#2
 715 027c A375     	 strb r3,[r4,#22]
 716              	.LVL59:
 717              	.L111:
1180:C:/Users/Yushev/git/optiga-trust-qi/optiga/cmd\optiga_cmd.c ****                 }
 718              	 .loc 1 1180 0
 719 027e 0823     	 movs r3,#8
 720              	.L110:
 721 0280 E375     	 strb r3,[r4,#23]
 722 0282 A0E0     	 b .L14
 723              	.LVL60:
 724              	.L114:
1187:C:/Users/Yushev/git/optiga-trust-qi/optiga/cmd\optiga_cmd.c ****             {
 725              	 .loc 1 1187 0
 726 0284 B0F5017F 	 cmp r0,#516
 727 0288 E8D0     	 beq .L66
1196:C:/Users/Yushev/git/optiga-trust-qi/optiga/cmd\optiga_cmd.c ****                 SET_DEV_ERROR_HANDLER_STATE(OPTIGA_CMD_ERROR_CODE_PREPARE);
 728              	 .loc 1 1196 0
 729 028a 0A23     	 movs r3,#10
 730 028c E375     	 strb r3,[r4,#23]
1197:C:/Users/Yushev/git/optiga-trust-qi/optiga/cmd\optiga_cmd.c ****                 *exit_loop = FALSE;
 731              	 .loc 1 1197 0
 732 028e 637F     	 ldrb r3,[r4,#29]
 733 0290 23F00303 	 bic r3,r3,#3
 734 0294 43F00103 	 orr r3,r3,#1
 735 0298 6377     	 strb r3,[r4,#29]
 736              	.LVL61:
 737 029a B1E7     	 b .L63
 738              	.LVL62:
 739              	.L57:
 740              	.LBE126:
 741              	.LBE127:
 742              	.LBB128:
 743              	.LBB129:
 744              	.LBB130:
 745              	.LBB131:
1271:C:/Users/Yushev/git/optiga-trust-qi/optiga/cmd\optiga_cmd.c ****         {
1272:C:/Users/Yushev/git/optiga-trust-qi/optiga/cmd\optiga_cmd.c ****             case OPTIGA_CMD_EXEC_COMMS_OPEN:
1273:C:/Users/Yushev/git/optiga-trust-qi/optiga/cmd\optiga_cmd.c ****             {
1274:C:/Users/Yushev/git/optiga-trust-qi/optiga/cmd\optiga_cmd.c ****                 optiga_cmd_execute_comms_open(me, &exit_loop);
1275:C:/Users/Yushev/git/optiga-trust-qi/optiga/cmd\optiga_cmd.c ****                 break;
1276:C:/Users/Yushev/git/optiga-trust-qi/optiga/cmd\optiga_cmd.c ****             }
1277:C:/Users/Yushev/git/optiga-trust-qi/optiga/cmd\optiga_cmd.c ****             case OPTIGA_CMD_EXEC_COMMS_CLOSE:
1278:C:/Users/Yushev/git/optiga-trust-qi/optiga/cmd\optiga_cmd.c ****             {
1279:C:/Users/Yushev/git/optiga-trust-qi/optiga/cmd\optiga_cmd.c ****                 optiga_cmd_execute_comms_close(me, &exit_loop);
1280:C:/Users/Yushev/git/optiga-trust-qi/optiga/cmd\optiga_cmd.c ****                 break;
1281:C:/Users/Yushev/git/optiga-trust-qi/optiga/cmd\optiga_cmd.c ****             }
1282:C:/Users/Yushev/git/optiga-trust-qi/optiga/cmd\optiga_cmd.c ****             case OPTIGA_CMD_EXEC_PREPARE_COMMAND:
1283:C:/Users/Yushev/git/optiga-trust-qi/optiga/cmd\optiga_cmd.c ****             {
1284:C:/Users/Yushev/git/optiga-trust-qi/optiga/cmd\optiga_cmd.c ****                 optiga_cmd_execute_prepare_command(me, &exit_loop);
1285:C:/Users/Yushev/git/optiga-trust-qi/optiga/cmd\optiga_cmd.c ****                 break;
1286:C:/Users/Yushev/git/optiga-trust-qi/optiga/cmd\optiga_cmd.c ****             }
1287:C:/Users/Yushev/git/optiga-trust-qi/optiga/cmd\optiga_cmd.c ****             case OPTIGA_CMD_EXEC_PROCESS_RESPONSE:
1288:C:/Users/Yushev/git/optiga-trust-qi/optiga/cmd\optiga_cmd.c ****             {
1289:C:/Users/Yushev/git/optiga-trust-qi/optiga/cmd\optiga_cmd.c ****                 optiga_cmd_execute_process_response(me, &exit_loop);
1290:C:/Users/Yushev/git/optiga-trust-qi/optiga/cmd\optiga_cmd.c ****                 break;
1291:C:/Users/Yushev/git/optiga-trust-qi/optiga/cmd\optiga_cmd.c ****             }
1292:C:/Users/Yushev/git/optiga-trust-qi/optiga/cmd\optiga_cmd.c ****             case OPTIGA_CMD_EXEC_ERROR_HANDLER:
1293:C:/Users/Yushev/git/optiga-trust-qi/optiga/cmd\optiga_cmd.c ****             {
1294:C:/Users/Yushev/git/optiga-trust-qi/optiga/cmd\optiga_cmd.c ****                 optiga_cmd_execute_error_handler(me, &exit_loop);
1295:C:/Users/Yushev/git/optiga-trust-qi/optiga/cmd\optiga_cmd.c ****                 break;
1296:C:/Users/Yushev/git/optiga-trust-qi/optiga/cmd\optiga_cmd.c ****             }
1297:C:/Users/Yushev/git/optiga-trust-qi/optiga/cmd\optiga_cmd.c ****             default :
1298:C:/Users/Yushev/git/optiga-trust-qi/optiga/cmd\optiga_cmd.c ****                 break;
1299:C:/Users/Yushev/git/optiga-trust-qi/optiga/cmd\optiga_cmd.c ****             //lint --e{788} suppress "Not all states are used as same enum is used for both main an
1300:C:/Users/Yushev/git/optiga-trust-qi/optiga/cmd\optiga_cmd.c ****         }
1301:C:/Users/Yushev/git/optiga-trust-qi/optiga/cmd\optiga_cmd.c ****     } while (FALSE == exit_loop);
1302:C:/Users/Yushev/git/optiga-trust-qi/optiga/cmd\optiga_cmd.c **** }
1303:C:/Users/Yushev/git/optiga-trust-qi/optiga/cmd\optiga_cmd.c **** 
1304:C:/Users/Yushev/git/optiga-trust-qi/optiga/cmd\optiga_cmd.c **** optiga_cmd_t * optiga_cmd_create(uint8_t optiga_instance_id, callback_handler_t handler, void * cal
1305:C:/Users/Yushev/git/optiga-trust-qi/optiga/cmd\optiga_cmd.c **** {
1306:C:/Users/Yushev/git/optiga-trust-qi/optiga/cmd\optiga_cmd.c ****     optiga_cmd_t * me = NULL;
1307:C:/Users/Yushev/git/optiga-trust-qi/optiga/cmd\optiga_cmd.c **** 
1308:C:/Users/Yushev/git/optiga-trust-qi/optiga/cmd\optiga_cmd.c ****     pal_os_lock_enter_critical_section();
1309:C:/Users/Yushev/git/optiga-trust-qi/optiga/cmd\optiga_cmd.c ****     do
1310:C:/Users/Yushev/git/optiga-trust-qi/optiga/cmd\optiga_cmd.c ****     {
1311:C:/Users/Yushev/git/optiga-trust-qi/optiga/cmd\optiga_cmd.c ****         // Get number of free slots
1312:C:/Users/Yushev/git/optiga-trust-qi/optiga/cmd\optiga_cmd.c ****         if (0 == optiga_cmd_queue_get_count_of(g_optiga_list[optiga_instance_id],
1313:C:/Users/Yushev/git/optiga-trust-qi/optiga/cmd\optiga_cmd.c ****                                                OPTIGA_CMD_QUEUE_SLOT_STATE,
1314:C:/Users/Yushev/git/optiga-trust-qi/optiga/cmd\optiga_cmd.c ****                                                OPTIGA_CMD_QUEUE_NOT_ASSIGNED))
1315:C:/Users/Yushev/git/optiga-trust-qi/optiga/cmd\optiga_cmd.c ****         {
1316:C:/Users/Yushev/git/optiga-trust-qi/optiga/cmd\optiga_cmd.c ****             break;
1317:C:/Users/Yushev/git/optiga-trust-qi/optiga/cmd\optiga_cmd.c ****         }
1318:C:/Users/Yushev/git/optiga-trust-qi/optiga/cmd\optiga_cmd.c **** 
1319:C:/Users/Yushev/git/optiga-trust-qi/optiga/cmd\optiga_cmd.c ****         me = (optiga_cmd_t *)pal_os_calloc(1, sizeof(optiga_cmd_t));
1320:C:/Users/Yushev/git/optiga-trust-qi/optiga/cmd\optiga_cmd.c ****         if (NULL == me)
1321:C:/Users/Yushev/git/optiga-trust-qi/optiga/cmd\optiga_cmd.c ****         {
1322:C:/Users/Yushev/git/optiga-trust-qi/optiga/cmd\optiga_cmd.c ****             break;
1323:C:/Users/Yushev/git/optiga-trust-qi/optiga/cmd\optiga_cmd.c ****         }
1324:C:/Users/Yushev/git/optiga-trust-qi/optiga/cmd\optiga_cmd.c **** 
1325:C:/Users/Yushev/git/optiga-trust-qi/optiga/cmd\optiga_cmd.c ****         me->handler = handler;
1326:C:/Users/Yushev/git/optiga-trust-qi/optiga/cmd\optiga_cmd.c ****         me->caller_context = caller_context;
1327:C:/Users/Yushev/git/optiga-trust-qi/optiga/cmd\optiga_cmd.c **** 
1328:C:/Users/Yushev/git/optiga-trust-qi/optiga/cmd\optiga_cmd.c ****         me->p_optiga = g_optiga_list[optiga_instance_id];
1329:C:/Users/Yushev/git/optiga-trust-qi/optiga/cmd\optiga_cmd.c ****         me->optiga_context_datastore_id = g_hibernate_datastore_id_list[optiga_instance_id];
1330:C:/Users/Yushev/git/optiga-trust-qi/optiga/cmd\optiga_cmd.c **** 
1331:C:/Users/Yushev/git/optiga-trust-qi/optiga/cmd\optiga_cmd.c ****         if (FALSE == me->p_optiga->instance_init_state)
1332:C:/Users/Yushev/git/optiga-trust-qi/optiga/cmd\optiga_cmd.c ****         {
1333:C:/Users/Yushev/git/optiga-trust-qi/optiga/cmd\optiga_cmd.c ****             //create pal os event
1334:C:/Users/Yushev/git/optiga-trust-qi/optiga/cmd\optiga_cmd.c ****             me->p_optiga->p_pal_os_event_ctx = pal_os_event_create(optiga_cmd_queue_scheduler, me->
1335:C:/Users/Yushev/git/optiga-trust-qi/optiga/cmd\optiga_cmd.c ****             me->p_optiga->p_optiga_comms = optiga_comms_create(optiga_cmd_execute_handler, me);
1336:C:/Users/Yushev/git/optiga-trust-qi/optiga/cmd\optiga_cmd.c ****             if (NULL == me->p_optiga->p_optiga_comms)
1337:C:/Users/Yushev/git/optiga-trust-qi/optiga/cmd\optiga_cmd.c ****             {
1338:C:/Users/Yushev/git/optiga-trust-qi/optiga/cmd\optiga_cmd.c ****                 pal_os_free(me);
1339:C:/Users/Yushev/git/optiga-trust-qi/optiga/cmd\optiga_cmd.c ****                 me = NULL;
1340:C:/Users/Yushev/git/optiga-trust-qi/optiga/cmd\optiga_cmd.c ****                 break;
1341:C:/Users/Yushev/git/optiga-trust-qi/optiga/cmd\optiga_cmd.c ****             }
1342:C:/Users/Yushev/git/optiga-trust-qi/optiga/cmd\optiga_cmd.c ****             me->p_optiga->instance_init_state = TRUE;
1343:C:/Users/Yushev/git/optiga-trust-qi/optiga/cmd\optiga_cmd.c ****             me->p_optiga->p_optiga_comms->p_pal_os_event_ctx = me->p_optiga->p_pal_os_event_ctx;
1344:C:/Users/Yushev/git/optiga-trust-qi/optiga/cmd\optiga_cmd.c ****         }
1345:C:/Users/Yushev/git/optiga-trust-qi/optiga/cmd\optiga_cmd.c ****         // attach optiga cmd queue entry
1346:C:/Users/Yushev/git/optiga-trust-qi/optiga/cmd\optiga_cmd.c ****         optiga_cmd_queue_assign_slot(me, &(me->queue_id));
1347:C:/Users/Yushev/git/optiga-trust-qi/optiga/cmd\optiga_cmd.c ****     } while (FALSE);
1348:C:/Users/Yushev/git/optiga-trust-qi/optiga/cmd\optiga_cmd.c **** 
1349:C:/Users/Yushev/git/optiga-trust-qi/optiga/cmd\optiga_cmd.c ****     pal_os_lock_exit_critical_section();
1350:C:/Users/Yushev/git/optiga-trust-qi/optiga/cmd\optiga_cmd.c ****     return (me);
1351:C:/Users/Yushev/git/optiga-trust-qi/optiga/cmd\optiga_cmd.c **** }
1352:C:/Users/Yushev/git/optiga-trust-qi/optiga/cmd\optiga_cmd.c **** 
1353:C:/Users/Yushev/git/optiga-trust-qi/optiga/cmd\optiga_cmd.c **** optiga_lib_status_t optiga_cmd_destroy(optiga_cmd_t * me)
1354:C:/Users/Yushev/git/optiga-trust-qi/optiga/cmd\optiga_cmd.c **** {
1355:C:/Users/Yushev/git/optiga-trust-qi/optiga/cmd\optiga_cmd.c ****     optiga_lib_status_t return_status = OPTIGA_CMD_ERROR;
1356:C:/Users/Yushev/git/optiga-trust-qi/optiga/cmd\optiga_cmd.c ****     do
1357:C:/Users/Yushev/git/optiga-trust-qi/optiga/cmd\optiga_cmd.c ****     {
1358:C:/Users/Yushev/git/optiga-trust-qi/optiga/cmd\optiga_cmd.c ****         if (NULL != me)
1359:C:/Users/Yushev/git/optiga-trust-qi/optiga/cmd\optiga_cmd.c ****         {
1360:C:/Users/Yushev/git/optiga-trust-qi/optiga/cmd\optiga_cmd.c ****             return_status = optiga_cmd_release_session(me);
1361:C:/Users/Yushev/git/optiga-trust-qi/optiga/cmd\optiga_cmd.c ****             // attach optiga cmd queue entry
1362:C:/Users/Yushev/git/optiga-trust-qi/optiga/cmd\optiga_cmd.c ****             optiga_cmd_queue_deassign_slot(me);
1363:C:/Users/Yushev/git/optiga-trust-qi/optiga/cmd\optiga_cmd.c ****             pal_os_free(me);
1364:C:/Users/Yushev/git/optiga-trust-qi/optiga/cmd\optiga_cmd.c ****             //lint --e{838} suppress "Release session API returns success. Status is checked for fu
1365:C:/Users/Yushev/git/optiga-trust-qi/optiga/cmd\optiga_cmd.c ****             return_status = OPTIGA_LIB_SUCCESS;
1366:C:/Users/Yushev/git/optiga-trust-qi/optiga/cmd\optiga_cmd.c ****         }
1367:C:/Users/Yushev/git/optiga-trust-qi/optiga/cmd\optiga_cmd.c ****     } while (FALSE);
1368:C:/Users/Yushev/git/optiga-trust-qi/optiga/cmd\optiga_cmd.c ****     return (return_status);
1369:C:/Users/Yushev/git/optiga-trust-qi/optiga/cmd\optiga_cmd.c **** }
1370:C:/Users/Yushev/git/optiga-trust-qi/optiga/cmd\optiga_cmd.c **** 
1371:C:/Users/Yushev/git/optiga-trust-qi/optiga/cmd\optiga_cmd.c **** 
1372:C:/Users/Yushev/git/optiga-trust-qi/optiga/cmd\optiga_cmd.c **** /*
1373:C:/Users/Yushev/git/optiga-trust-qi/optiga/cmd\optiga_cmd.c **** * Last error code handler
1374:C:/Users/Yushev/git/optiga-trust-qi/optiga/cmd\optiga_cmd.c **** */
1375:C:/Users/Yushev/git/optiga-trust-qi/optiga/cmd\optiga_cmd.c **** _STATIC_H optiga_lib_status_t optiga_cmd_get_error_code_handler(optiga_cmd_t * me)
1376:C:/Users/Yushev/git/optiga-trust-qi/optiga/cmd\optiga_cmd.c **** {
1377:C:/Users/Yushev/git/optiga-trust-qi/optiga/cmd\optiga_cmd.c ****     optiga_context_t * p_optiga;
1378:C:/Users/Yushev/git/optiga-trust-qi/optiga/cmd\optiga_cmd.c ****     optiga_lib_status_t return_status = OPTIGA_DEVICE_ERROR;
1379:C:/Users/Yushev/git/optiga-trust-qi/optiga/cmd\optiga_cmd.c ****     uint16_t index_for_data = OPTIGA_CMD_APDU_INDATA_OFFSET;
1380:C:/Users/Yushev/git/optiga-trust-qi/optiga/cmd\optiga_cmd.c **** 
1381:C:/Users/Yushev/git/optiga-trust-qi/optiga/cmd\optiga_cmd.c **** #define OPTIGA_CMD_OFFSET                     (0x0000)
1382:C:/Users/Yushev/git/optiga-trust-qi/optiga/cmd\optiga_cmd.c **** #define OPTIGA_CMD_BYTES_TO_READ              (0x0001)
1383:C:/Users/Yushev/git/optiga-trust-qi/optiga/cmd\optiga_cmd.c **** #define OPTIGA_CMD_GET_DATA_OBJECT_CMD        (0x01)
1384:C:/Users/Yushev/git/optiga-trust-qi/optiga/cmd\optiga_cmd.c **** #define OPTIGA_CMD_PARAM                      (0x00)
1385:C:/Users/Yushev/git/optiga-trust-qi/optiga/cmd\optiga_cmd.c **** 
1386:C:/Users/Yushev/git/optiga-trust-qi/optiga/cmd\optiga_cmd.c ****     p_optiga = me->p_optiga;
1387:C:/Users/Yushev/git/optiga-trust-qi/optiga/cmd\optiga_cmd.c **** 
1388:C:/Users/Yushev/git/optiga-trust-qi/optiga/cmd\optiga_cmd.c ****     switch (me->device_error_status & OPTIGA_CMD_ERROR_CODE_STATE_MASK)
 746              	 .loc 1 1388 0
 747 029c 677F     	 ldrb r7,[r4,#29]
1386:C:/Users/Yushev/git/optiga-trust-qi/optiga/cmd\optiga_cmd.c **** 
 748              	 .loc 1 1386 0
 749 029e 2668     	 ldr r6,[r4]
 750              	.LVL63:
 751              	 .loc 1 1388 0
 752 02a0 07F00307 	 and r7,r7,#3
 753 02a4 022F     	 cmp r7,#2
 754 02a6 2FD0     	 beq .L68
 755 02a8 032F     	 cmp r7,#3
 756 02aa 4ED0     	 beq .L69
 757 02ac 012F     	 cmp r7,#1
 758 02ae 61D1     	 bne .L77
1389:C:/Users/Yushev/git/optiga-trust-qi/optiga/cmd\optiga_cmd.c ****     {
1390:C:/Users/Yushev/git/optiga-trust-qi/optiga/cmd\optiga_cmd.c ****         case OPTIGA_CMD_ERROR_CODE_PREPARE:
1391:C:/Users/Yushev/git/optiga-trust-qi/optiga/cmd\optiga_cmd.c ****         {
1392:C:/Users/Yushev/git/optiga-trust-qi/optiga/cmd\optiga_cmd.c ****             optiga_common_set_uint16((me->p_optiga->optiga_comms_buffer + index_for_data), OPTIGA_C
 759              	 .loc 1 1392 0
 760 02b0 06F11600 	 add r0,r6,#22
 761 02b4 4FF2C211 	 movw r1,#61890
 762 02b8 FFF7FEFF 	 bl optiga_common_set_uint16
 763              	.LVL64:
1393:C:/Users/Yushev/git/optiga-trust-qi/optiga/cmd\optiga_cmd.c ****             index_for_data += OPTIGA_CMD_UINT16_SIZE_IN_BYTES;
1394:C:/Users/Yushev/git/optiga-trust-qi/optiga/cmd\optiga_cmd.c ****             optiga_common_set_uint16((me->p_optiga->optiga_comms_buffer + index_for_data), OPTIGA_C
 764              	 .loc 1 1394 0
 765 02bc 2068     	 ldr r0,[r4]
 766 02be 0021     	 movs r1,#0
 767 02c0 1830     	 adds r0,r0,#24
 768 02c2 FFF7FEFF 	 bl optiga_common_set_uint16
 769              	.LVL65:
1395:C:/Users/Yushev/git/optiga-trust-qi/optiga/cmd\optiga_cmd.c ****             index_for_data += OPTIGA_CMD_UINT16_SIZE_IN_BYTES;
1396:C:/Users/Yushev/git/optiga-trust-qi/optiga/cmd\optiga_cmd.c ****             optiga_common_set_uint16((me->p_optiga->optiga_comms_buffer + index_for_data), OPTIGA_C
 770              	 .loc 1 1396 0
 771 02c6 2068     	 ldr r0,[r4]
 772 02c8 3946     	 mov r1,r7
 773 02ca 1A30     	 adds r0,r0,#26
 774 02cc FFF7FEFF 	 bl optiga_common_set_uint16
 775              	.LVL66:
1397:C:/Users/Yushev/git/optiga-trust-qi/optiga/cmd\optiga_cmd.c ****             index_for_data += OPTIGA_CMD_UINT16_SIZE_IN_BYTES;
1398:C:/Users/Yushev/git/optiga-trust-qi/optiga/cmd\optiga_cmd.c **** 
1399:C:/Users/Yushev/git/optiga-trust-qi/optiga/cmd\optiga_cmd.c ****             optiga_cmd_prepare_apdu_header(OPTIGA_CMD_GET_DATA_OBJECT_CMD,
1400:C:/Users/Yushev/git/optiga-trust-qi/optiga/cmd\optiga_cmd.c ****                                            OPTIGA_CMD_PARAM,
1401:C:/Users/Yushev/git/optiga-trust-qi/optiga/cmd\optiga_cmd.c ****                                            (uint16_t)(index_for_data - OPTIGA_CMD_APDU_INDATA_OFFSE
1402:C:/Users/Yushev/git/optiga-trust-qi/optiga/cmd\optiga_cmd.c ****                                            me->p_optiga->optiga_comms_buffer + OPTIGA_COMMS_DATA_OF
 776              	 .loc 1 1402 0
 777 02d0 2368     	 ldr r3,[r4]
 778              	.LVL67:
1403:C:/Users/Yushev/git/optiga-trust-qi/optiga/cmd\optiga_cmd.c **** 
1404:C:/Users/Yushev/git/optiga-trust-qi/optiga/cmd\optiga_cmd.c ****             me->p_optiga->comms_tx_size = (uint16_t)(index_for_data - OPTIGA_COMMS_DATA_OFFSET);
1405:C:/Users/Yushev/git/optiga-trust-qi/optiga/cmd\optiga_cmd.c ****             SET_DEV_ERROR_HANDLER_STATE(OPTIGA_CMD_ERROR_CODE_TX);
1406:C:/Users/Yushev/git/optiga-trust-qi/optiga/cmd\optiga_cmd.c ****             pal_os_event_register_callback_oneshot(me->p_optiga->p_pal_os_event_ctx,
 779              	 .loc 1 1406 0
 780 02d2 0C49     	 ldr r1,.L115
 781              	.LBB132:
 782              	.LBB133:
 440:C:/Users/Yushev/git/optiga-trust-qi/optiga/cmd\optiga_cmd.c ****     p_apdu_buffer [1] = param;
 783              	 .loc 1 440 0
 784 02d4 9F74     	 strb r7,[r3,#18]
 441:C:/Users/Yushev/git/optiga-trust-qi/optiga/cmd\optiga_cmd.c ****     p_apdu_buffer [2] = (uint8_t)((in_data_length & 0xFF00) >> 8);
 785              	 .loc 1 441 0
 786 02d6 0022     	 movs r2,#0
 787 02d8 DA74     	 strb r2,[r3,#19]
 442:C:/Users/Yushev/git/optiga-trust-qi/optiga/cmd\optiga_cmd.c ****     p_apdu_buffer [3] = (uint8_t)(in_data_length & 0x00FF);
 788              	 .loc 1 442 0
 789 02da 1A75     	 strb r2,[r3,#20]
 443:C:/Users/Yushev/git/optiga-trust-qi/optiga/cmd\optiga_cmd.c **** }
 790              	 .loc 1 443 0
 791 02dc 0622     	 movs r2,#6
 792 02de 5A75     	 strb r2,[r3,#21]
 793              	.LBE133:
 794              	.LBE132:
1404:C:/Users/Yushev/git/optiga-trust-qi/optiga/cmd\optiga_cmd.c ****             SET_DEV_ERROR_HANDLER_STATE(OPTIGA_CMD_ERROR_CODE_TX);
 795              	 .loc 1 1404 0
 796 02e0 2268     	 ldr r2,[r4]
 797 02e2 0A23     	 movs r3,#10
 798              	.LVL68:
 799 02e4 9380     	 strh r3,[r2,#4]
1405:C:/Users/Yushev/git/optiga-trust-qi/optiga/cmd\optiga_cmd.c ****             pal_os_event_register_callback_oneshot(me->p_optiga->p_pal_os_event_ctx,
 800              	 .loc 1 1405 0
 801 02e6 637F     	 ldrb r3,[r4,#29]
 802 02e8 23F00303 	 bic r3,r3,#3
 803 02ec 43F00203 	 orr r3,r3,#2
 804 02f0 6377     	 strb r3,[r4,#29]
 805              	 .loc 1 1406 0
 806 02f2 D2F87806 	 ldr r0,[r2,#1656]
 807 02f6 4FF47A73 	 mov r3,#1000
 808 02fa 2246     	 mov r2,r4
 809 02fc FFF7FEFF 	 bl pal_os_event_register_callback_oneshot
 810              	.LVL69:
 811 0300 38E0     	 b .L77
 812              	.L116:
 813 0302 00BF     	 .align 2
 814              	.L115:
 815 0304 00000000 	 .word optiga_cmd_event_trigger_execute
 816              	.LVL70:
 817              	.L68:
1407:C:/Users/Yushev/git/optiga-trust-qi/optiga/cmd\optiga_cmd.c ****                                                    (register_callback)optiga_cmd_event_trigger_exec
1408:C:/Users/Yushev/git/optiga-trust-qi/optiga/cmd\optiga_cmd.c ****                                                    me, OPTIGA_CMD_SCHEDULER_IDLING_TIME_MS);
1409:C:/Users/Yushev/git/optiga-trust-qi/optiga/cmd\optiga_cmd.c ****         }
1410:C:/Users/Yushev/git/optiga-trust-qi/optiga/cmd\optiga_cmd.c ****         break;
1411:C:/Users/Yushev/git/optiga-trust-qi/optiga/cmd\optiga_cmd.c ****         case OPTIGA_CMD_ERROR_CODE_TX:
1412:C:/Users/Yushev/git/optiga-trust-qi/optiga/cmd\optiga_cmd.c ****         {
1413:C:/Users/Yushev/git/optiga-trust-qi/optiga/cmd\optiga_cmd.c ****             me->p_optiga->comms_rx_size = OPTIGA_CMD_TOTAL_COMMS_BUFFER_SIZE;
 818              	 .loc 1 1413 0
 819 0308 40F22263 	 movw r3,#1570
 820 030c F380     	 strh r3,[r6,#6]
1414:C:/Users/Yushev/git/optiga-trust-qi/optiga/cmd\optiga_cmd.c **** 
1415:C:/Users/Yushev/git/optiga-trust-qi/optiga/cmd\optiga_cmd.c **** #ifdef OPTIGA_COMMS_SHIELDED_CONNECTION
1416:C:/Users/Yushev/git/optiga-trust-qi/optiga/cmd\optiga_cmd.c ****             me->p_optiga->p_optiga_comms->protection_level = me->protection_level;
 821              	 .loc 1 1416 0
 822 030e 3368     	 ldr r3,[r6]
 823 0310 A27E     	 ldrb r2,[r4,#26]
 824 0312 9A73     	 strb r2,[r3,#14]
1417:C:/Users/Yushev/git/optiga-trust-qi/optiga/cmd\optiga_cmd.c ****             me->p_optiga->p_optiga_comms->protocol_version = me->protocol_version;
 825              	 .loc 1 1417 0
 826 0314 2368     	 ldr r3,[r4]
 827 0316 E27E     	 ldrb r2,[r4,#27]
 828 0318 1B68     	 ldr r3,[r3]
1418:C:/Users/Yushev/git/optiga-trust-qi/optiga/cmd\optiga_cmd.c **** #endif //OPTIGA_COMMS_SHIELDED_CONNECTION
1419:C:/Users/Yushev/git/optiga-trust-qi/optiga/cmd\optiga_cmd.c **** 
1420:C:/Users/Yushev/git/optiga-trust-qi/optiga/cmd\optiga_cmd.c ****             (void)optiga_comms_set_callback_context(p_optiga->p_optiga_comms, (void*)me);
 829              	 .loc 1 1420 0
 830 031a 3546     	 mov r5,r6
1417:C:/Users/Yushev/git/optiga-trust-qi/optiga/cmd\optiga_cmd.c ****             me->p_optiga->p_optiga_comms->protocol_version = me->protocol_version;
 831              	 .loc 1 1417 0
 832 031c DA73     	 strb r2,[r3,#15]
 833              	 .loc 1 1420 0
 834 031e 55F80D0B 	 ldr r0,[r5],#13
 835 0322 2146     	 mov r1,r4
 836 0324 FFF7FEFF 	 bl optiga_comms_set_callback_context
 837              	.LVL71:
1421:C:/Users/Yushev/git/optiga-trust-qi/optiga/cmd\optiga_cmd.c ****             return_status = optiga_comms_transceive(p_optiga->p_optiga_comms,
 838              	 .loc 1 1421 0
 839 0328 B31D     	 adds r3,r6,#6
 840 032a B288     	 ldrh r2,[r6,#4]
 841 032c 0093     	 str r3,[sp]
 842 032e 2946     	 mov r1,r5
 843 0330 2B46     	 mov r3,r5
 844 0332 3068     	 ldr r0,[r6]
 845 0334 FFF7FEFF 	 bl optiga_comms_transceive
 846              	.LVL72:
1422:C:/Users/Yushev/git/optiga-trust-qi/optiga/cmd\optiga_cmd.c ****                                                     p_optiga->optiga_comms_buffer,
1423:C:/Users/Yushev/git/optiga-trust-qi/optiga/cmd\optiga_cmd.c ****                                                     p_optiga->comms_tx_size,
1424:C:/Users/Yushev/git/optiga-trust-qi/optiga/cmd\optiga_cmd.c ****                                                     p_optiga->optiga_comms_buffer,
1425:C:/Users/Yushev/git/optiga-trust-qi/optiga/cmd\optiga_cmd.c ****                                                     &p_optiga->comms_rx_size);
1426:C:/Users/Yushev/git/optiga-trust-qi/optiga/cmd\optiga_cmd.c ****             if (OPTIGA_COMMS_SUCCESS != return_status)
 847              	 .loc 1 1426 0
 848 0338 0546     	 mov r5,r0
 849 033a C0B9     	 cbnz r0,.L76
1427:C:/Users/Yushev/git/optiga-trust-qi/optiga/cmd\optiga_cmd.c ****             {
1428:C:/Users/Yushev/git/optiga-trust-qi/optiga/cmd\optiga_cmd.c ****                 return_status = OPTIGA_CMD_ERROR;
1429:C:/Users/Yushev/git/optiga-trust-qi/optiga/cmd\optiga_cmd.c ****                 break;
1430:C:/Users/Yushev/git/optiga-trust-qi/optiga/cmd\optiga_cmd.c ****             }
1431:C:/Users/Yushev/git/optiga-trust-qi/optiga/cmd\optiga_cmd.c ****             SET_DEV_ERROR_HANDLER_STATE(OPTIGA_CMD_ERROR_CODE_RX);
 850              	 .loc 1 1431 0
 851 033c 637F     	 ldrb r3,[r4,#29]
 852 033e 23F00303 	 bic r3,r3,#3
 853 0342 43F00303 	 orr r3,r3,#3
 854 0346 6377     	 strb r3,[r4,#29]
 855 0348 16E0     	 b .L67
 856              	.LVL73:
 857              	.L69:
1432:C:/Users/Yushev/git/optiga-trust-qi/optiga/cmd\optiga_cmd.c ****         }
1433:C:/Users/Yushev/git/optiga-trust-qi/optiga/cmd\optiga_cmd.c ****         break;
1434:C:/Users/Yushev/git/optiga-trust-qi/optiga/cmd\optiga_cmd.c ****         case OPTIGA_CMD_ERROR_CODE_RX:
1435:C:/Users/Yushev/git/optiga-trust-qi/optiga/cmd\optiga_cmd.c ****         {
1436:C:/Users/Yushev/git/optiga-trust-qi/optiga/cmd\optiga_cmd.c ****             if (OPTIGA_CMD_APDU_FAILURE == me->p_optiga->optiga_comms_buffer[OPTIGA_COMMS_DATA_OFFS
 858              	 .loc 1 1436 0
 859 034a B37C     	 ldrb r3,[r6,#18]
 860 034c FF2B     	 cmp r3,#255
 861 034e 11D0     	 beq .L77
1437:C:/Users/Yushev/git/optiga-trust-qi/optiga/cmd\optiga_cmd.c ****             {
1438:C:/Users/Yushev/git/optiga-trust-qi/optiga/cmd\optiga_cmd.c ****                 break;
1439:C:/Users/Yushev/git/optiga-trust-qi/optiga/cmd\optiga_cmd.c ****             }
1440:C:/Users/Yushev/git/optiga-trust-qi/optiga/cmd\optiga_cmd.c ****             return_status = me->p_optiga->optiga_comms_buffer[OPTIGA_CMD_APDU_INDATA_OFFSET];
 862              	 .loc 1 1440 0
 863 0350 B57D     	 ldrb r5,[r6,#22]
 864              	.LVL74:
1441:C:/Users/Yushev/git/optiga-trust-qi/optiga/cmd\optiga_cmd.c ****             return_status = return_status | OPTIGA_DEVICE_ERROR;
1442:C:/Users/Yushev/git/optiga-trust-qi/optiga/cmd\optiga_cmd.c ****             me->cmd_next_execution_state = OPTIGA_CMD_EXEC_PROCESS_RESPONSE;
1443:C:/Users/Yushev/git/optiga-trust-qi/optiga/cmd\optiga_cmd.c ****             me->cmd_sub_execution_state = OPTIGA_CMD_EXEC_PROCESS_OPTIGA_RESPONSE;
1444:C:/Users/Yushev/git/optiga-trust-qi/optiga/cmd\optiga_cmd.c ****             pal_os_event_register_callback_oneshot(me->p_optiga->p_pal_os_event_ctx,
 865              	 .loc 1 1444 0
 866 0352 D6F87806 	 ldr r0,[r6,#1656]
1442:C:/Users/Yushev/git/optiga-trust-qi/optiga/cmd\optiga_cmd.c ****             me->cmd_sub_execution_state = OPTIGA_CMD_EXEC_PROCESS_OPTIGA_RESPONSE;
 867              	 .loc 1 1442 0
 868 0356 A775     	 strb r7,[r4,#22]
1443:C:/Users/Yushev/git/optiga-trust-qi/optiga/cmd\optiga_cmd.c ****             pal_os_event_register_callback_oneshot(me->p_optiga->p_pal_os_event_ctx,
 869              	 .loc 1 1443 0
 870 0358 0923     	 movs r3,#9
 871 035a E375     	 strb r3,[r4,#23]
 872              	 .loc 1 1444 0
 873 035c 1B49     	 ldr r1,.L117
 874 035e 2246     	 mov r2,r4
 875 0360 4FF47A73 	 mov r3,#1000
1441:C:/Users/Yushev/git/optiga-trust-qi/optiga/cmd\optiga_cmd.c ****             return_status = return_status | OPTIGA_DEVICE_ERROR;
 876              	 .loc 1 1441 0
 877 0364 45F40045 	 orr r5,r5,#32768
 878              	.LVL75:
 879              	 .loc 1 1444 0
 880 0368 FFF7FEFF 	 bl pal_os_event_register_callback_oneshot
 881              	.LVL76:
 882 036c 04E0     	 b .L67
 883              	.LVL77:
 884              	.L76:
1428:C:/Users/Yushev/git/optiga-trust-qi/optiga/cmd\optiga_cmd.c ****                 break;
 885              	 .loc 1 1428 0
 886 036e 40F20225 	 movw r5,#514
 887 0372 01E0     	 b .L67
 888              	.LVL78:
 889              	.L77:
1378:C:/Users/Yushev/git/optiga-trust-qi/optiga/cmd\optiga_cmd.c ****     uint16_t index_for_data = OPTIGA_CMD_APDU_INDATA_OFFSET;
 890              	 .loc 1 1378 0
 891 0374 4FF40045 	 mov r5,#32768
 892              	.LVL79:
 893              	.L67:
 894              	.LBE131:
 895              	.LBE130:
1115:C:/Users/Yushev/git/optiga-trust-qi/optiga/cmd\optiga_cmd.c ****             ((OPTIGA_DEVICE_ERROR == me->exit_status) &&
 896              	 .loc 1 1115 0
 897 0378 2BB2     	 sxth r3,r5
 898 037a 002B     	 cmp r3,#0
1114:C:/Users/Yushev/git/optiga-trust-qi/optiga/cmd\optiga_cmd.c ****         if (((OPTIGA_LIB_SUCCESS != me->exit_status) && !(OPTIGA_DEVICE_ERROR & me->exit_status)) |
 899              	 .loc 1 1114 0
 900 037c 2584     	 strh r5,[r4,#32]
1115:C:/Users/Yushev/git/optiga-trust-qi/optiga/cmd\optiga_cmd.c ****             ((OPTIGA_DEVICE_ERROR == me->exit_status) &&
 901              	 .loc 1 1115 0
 902 037e 3FF73DAF 	 bgt .L60
 903 0382 B5F5004F 	 cmp r5,#32768
 904 0386 1ED1     	 bne .L14
 905              	.LVL80:
1117:C:/Users/Yushev/git/optiga-trust-qi/optiga/cmd\optiga_cmd.c ****         {
 906              	 .loc 1 1117 0
 907 0388 637F     	 ldrb r3,[r4,#29]
1116:C:/Users/Yushev/git/optiga-trust-qi/optiga/cmd\optiga_cmd.c ****             ((me->device_error_status & OPTIGA_CMD_ERROR_CODE_STATE_MASK) == OPTIGA_CMD_ERROR_CODE_
 908              	 .loc 1 1116 0
 909 038a 03F00303 	 and r3,r3,#3
 910 038e 032B     	 cmp r3,#3
 911 0390 19D1     	 bne .L14
 912 0392 33E7     	 b .L60
 913              	.LVL81:
 914              	.L58:
 915              	.LBE129:
 916              	.LBE128:
 917              	.LBB134:
 918              	.LBB135:
 805:C:/Users/Yushev/git/optiga-trust-qi/optiga/cmd\optiga_cmd.c ****     return (OPTIGA_CMD_SUCCESS);
 919              	 .loc 1 805 0
 920 0394 2046     	 mov r0,r4
 921 0396 FFF7FEFF 	 bl optiga_cmd_queue_reset_slot
 922              	.LVL82:
 923              	.LBE135:
 924              	.LBE134:
1224:C:/Users/Yushev/git/optiga-trust-qi/optiga/cmd\optiga_cmd.c ****                 *exit_loop = FALSE;
 925              	 .loc 1 1224 0
 926 039a 0C23     	 movs r3,#12
 927              	.LVL83:
 928              	.L109:
 929 039c E375     	 strb r3,[r4,#23]
 930              	.LVL84:
 931 039e 2FE7     	 b .L63
 932              	.LVL85:
 933              	.L54:
1235:C:/Users/Yushev/git/optiga-trust-qi/optiga/cmd\optiga_cmd.c ****             break;
 934              	 .loc 1 1235 0
 935 03a0 0423     	 movs r3,#4
 936 03a2 A375     	 strb r3,[r4,#22]
 937 03a4 40F20223 	 movw r3,#514
 938 03a8 2384     	 strh r3,[r4,#32]
 939              	.LVL86:
 940 03aa 29E7     	 b .L63
 941              	.LVL87:
 942              	.L26:
 943              	.LBE123:
 944              	.LBE122:
 945              	.LBB136:
 946              	.LBB137:
 947              	.LBB138:
 948              	.LBB139:
 805:C:/Users/Yushev/git/optiga-trust-qi/optiga/cmd\optiga_cmd.c ****     return (OPTIGA_CMD_SUCCESS);
 949              	 .loc 1 805 0
 950 03ac 2046     	 mov r0,r4
 951 03ae FFF7FEFF 	 bl optiga_cmd_queue_reset_slot
 952              	.LVL88:
 953              	.L112:
 954              	.LBE139:
 955              	.LBE138:
1248:C:/Users/Yushev/git/optiga-trust-qi/optiga/cmd\optiga_cmd.c ****         *exit_loop = TRUE;
 956              	 .loc 1 1248 0
 957 03b2 2369     	 ldr r3,[r4,#16]
 958 03b4 E068     	 ldr r0,[r4,#12]
 959 03b6 218C     	 ldrh r1,[r4,#32]
 960              	.LBE137:
 961              	.LBE136:
1302:C:/Users/Yushev/git/optiga-trust-qi/optiga/cmd\optiga_cmd.c **** 
 962              	 .loc 1 1302 0
 963 03b8 03B0     	 add sp,sp,#12
 964              	.LCFI5:
 965              	 .cfi_remember_state
 966              	 .cfi_def_cfa_offset 20
 967              	 
 968 03ba BDE8F040 	 pop {r4,r5,r6,r7,lr}
 969              	.LCFI6:
 970              	 .cfi_restore 14
 971              	 .cfi_restore 7
 972              	 .cfi_restore 6
 973              	 .cfi_restore 5
 974              	 .cfi_restore 4
 975              	 .cfi_def_cfa_offset 0
 976              	.LVL89:
 977              	.LBB141:
 978              	.LBB140:
1248:C:/Users/Yushev/git/optiga-trust-qi/optiga/cmd\optiga_cmd.c ****         *exit_loop = TRUE;
 979              	 .loc 1 1248 0
 980 03be 1847     	 bx r3
 981              	.LVL90:
 982              	.L20:
 983              	.LBE140:
 984              	.LBE141:
1301:C:/Users/Yushev/git/optiga-trust-qi/optiga/cmd\optiga_cmd.c **** }
 985              	 .loc 1 1301 0
 986 03c0 002B     	 cmp r3,#0
 987 03c2 3FF4E2AE 	 beq .L71
 988              	.LVL91:
 989              	.L14:
 990              	.LCFI7:
 991              	 .cfi_restore_state
1302:C:/Users/Yushev/git/optiga-trust-qi/optiga/cmd\optiga_cmd.c **** 
 992              	 .loc 1 1302 0
 993 03c6 03B0     	 add sp,sp,#12
 994              	.LCFI8:
 995              	 .cfi_def_cfa_offset 20
 996              	 
 997 03c8 F0BD     	 pop {r4,r5,r6,r7,pc}
 998              	.LVL92:
 999              	.L118:
 1000 03ca 00BF     	 .align 2
 1001              	.L117:
 1002 03cc 00000000 	 .word optiga_cmd_event_trigger_execute
 1003              	 .cfi_endproc
 1004              	.LFE29:
 1006              	 .section .text.optiga_cmd_event_trigger_execute,"ax",%progbits
 1007              	 .align 1
 1008              	 .thumb
 1009              	 .thumb_func
 1011              	optiga_cmd_event_trigger_execute:
 1012              	.LFB3:
 463:C:/Users/Yushev/git/optiga-trust-qi/optiga/cmd\optiga_cmd.c ****     optiga_cmd_execute_handler(p_ctx, OPTIGA_LIB_SUCCESS);
 1013              	 .loc 1 463 0
 1014              	 .cfi_startproc
 1015              	 
 1016              	 
 1017              	 
 1018              	.LVL93:
 464:C:/Users/Yushev/git/optiga-trust-qi/optiga/cmd\optiga_cmd.c **** }
 1019              	 .loc 1 464 0
 1020 0000 0021     	 movs r1,#0
 1021 0002 FFF7FEBF 	 b optiga_cmd_execute_handler
 1022              	.LVL94:
 1023              	 .cfi_endproc
 1024              	.LFE3:
 1026              	 .section .text.optiga_cmd_get_data_object_handler,"ax",%progbits
 1027              	 .align 1
 1028              	 .thumb
 1029              	 .thumb_func
 1031              	optiga_cmd_get_data_object_handler:
 1032              	.LFB37:
1445:C:/Users/Yushev/git/optiga-trust-qi/optiga/cmd\optiga_cmd.c ****                                                    (register_callback)optiga_cmd_event_trigger_exec
1446:C:/Users/Yushev/git/optiga-trust-qi/optiga/cmd\optiga_cmd.c ****                                                    me, OPTIGA_CMD_SCHEDULER_IDLING_TIME_MS);
1447:C:/Users/Yushev/git/optiga-trust-qi/optiga/cmd\optiga_cmd.c ****         }
1448:C:/Users/Yushev/git/optiga-trust-qi/optiga/cmd\optiga_cmd.c ****         break;
1449:C:/Users/Yushev/git/optiga-trust-qi/optiga/cmd\optiga_cmd.c ****         default:
1450:C:/Users/Yushev/git/optiga-trust-qi/optiga/cmd\optiga_cmd.c ****             break;
1451:C:/Users/Yushev/git/optiga-trust-qi/optiga/cmd\optiga_cmd.c ****     }
1452:C:/Users/Yushev/git/optiga-trust-qi/optiga/cmd\optiga_cmd.c **** 
1453:C:/Users/Yushev/git/optiga-trust-qi/optiga/cmd\optiga_cmd.c **** #undef OPTIGA_CMD_OFFSET
1454:C:/Users/Yushev/git/optiga-trust-qi/optiga/cmd\optiga_cmd.c **** #undef OPTIGA_CMD_BYTES_TO_READ
1455:C:/Users/Yushev/git/optiga-trust-qi/optiga/cmd\optiga_cmd.c **** #undef OPTIGA_CMD_GET_DATA_OBJECT_CMD
1456:C:/Users/Yushev/git/optiga-trust-qi/optiga/cmd\optiga_cmd.c **** #undef OPTIGA_CMD_PARAM
1457:C:/Users/Yushev/git/optiga-trust-qi/optiga/cmd\optiga_cmd.c ****     return (return_status);
1458:C:/Users/Yushev/git/optiga-trust-qi/optiga/cmd\optiga_cmd.c **** }
1459:C:/Users/Yushev/git/optiga-trust-qi/optiga/cmd\optiga_cmd.c **** 
1460:C:/Users/Yushev/git/optiga-trust-qi/optiga/cmd\optiga_cmd.c **** /*
1461:C:/Users/Yushev/git/optiga-trust-qi/optiga/cmd\optiga_cmd.c **** * Open Application handler
1462:C:/Users/Yushev/git/optiga-trust-qi/optiga/cmd\optiga_cmd.c **** */
1463:C:/Users/Yushev/git/optiga-trust-qi/optiga/cmd\optiga_cmd.c **** _STATIC_H optiga_lib_status_t optiga_cmd_open_application_handler(optiga_cmd_t * me)
1464:C:/Users/Yushev/git/optiga-trust-qi/optiga/cmd\optiga_cmd.c **** {
1465:C:/Users/Yushev/git/optiga-trust-qi/optiga/cmd\optiga_cmd.c ****     uint16_t total_apdu_length;
1466:C:/Users/Yushev/git/optiga-trust-qi/optiga/cmd\optiga_cmd.c ****     optiga_lib_status_t return_status = OPTIGA_CMD_ERROR;
1467:C:/Users/Yushev/git/optiga-trust-qi/optiga/cmd\optiga_cmd.c **** 
1468:C:/Users/Yushev/git/optiga-trust-qi/optiga/cmd\optiga_cmd.c ****     switch ((uint8_t)me->cmd_next_execution_state)
1469:C:/Users/Yushev/git/optiga-trust-qi/optiga/cmd\optiga_cmd.c ****     {
1470:C:/Users/Yushev/git/optiga-trust-qi/optiga/cmd\optiga_cmd.c ****         case OPTIGA_CMD_EXEC_PREPARE_COMMAND:
1471:C:/Users/Yushev/git/optiga-trust-qi/optiga/cmd\optiga_cmd.c ****         {
1472:C:/Users/Yushev/git/optiga-trust-qi/optiga/cmd\optiga_cmd.c **** 
1473:C:/Users/Yushev/git/optiga-trust-qi/optiga/cmd\optiga_cmd.c ****             OPTIGA_CMD_LOG_MESSAGE("Sending open app command...");
1474:C:/Users/Yushev/git/optiga-trust-qi/optiga/cmd\optiga_cmd.c **** 
1475:C:/Users/Yushev/git/optiga-trust-qi/optiga/cmd\optiga_cmd.c ****             total_apdu_length = OPTIGA_CMD_APDU_HEADER_SIZE + sizeof(g_optiga_unique_application_id
1476:C:/Users/Yushev/git/optiga-trust-qi/optiga/cmd\optiga_cmd.c ****             total_apdu_length += ((OPTIGA_CMD_PARAM_INITIALIZE_APP_CONTEXT == me->cmd_param) ? (0) 
1477:C:/Users/Yushev/git/optiga-trust-qi/optiga/cmd\optiga_cmd.c ****                                     (sizeof(me->p_optiga->optiga_context_handle_buffer)));
1478:C:/Users/Yushev/git/optiga-trust-qi/optiga/cmd\optiga_cmd.c ****             //lint --e{774} suppress "If OPTIGA_MAX_COMMS_BUFFER_SIZE is set to lesser value it wil
1479:C:/Users/Yushev/git/optiga-trust-qi/optiga/cmd\optiga_cmd.c ****             if (OPTIGA_MAX_COMMS_BUFFER_SIZE < total_apdu_length)
1480:C:/Users/Yushev/git/optiga-trust-qi/optiga/cmd\optiga_cmd.c ****             {
1481:C:/Users/Yushev/git/optiga-trust-qi/optiga/cmd\optiga_cmd.c ****                 return_status = OPTIGA_CMD_ERROR_MEMORY_INSUFFICIENT;
1482:C:/Users/Yushev/git/optiga-trust-qi/optiga/cmd\optiga_cmd.c ****                 break;
1483:C:/Users/Yushev/git/optiga-trust-qi/optiga/cmd\optiga_cmd.c ****             }
1484:C:/Users/Yushev/git/optiga-trust-qi/optiga/cmd\optiga_cmd.c ****             if (OPTIGA_CMD_PARAM_INITIALIZE_APP_CONTEXT != me->cmd_param)
1485:C:/Users/Yushev/git/optiga-trust-qi/optiga/cmd\optiga_cmd.c ****             {
1486:C:/Users/Yushev/git/optiga-trust-qi/optiga/cmd\optiga_cmd.c ****                 ///optiga context restore operation
1487:C:/Users/Yushev/git/optiga-trust-qi/optiga/cmd\optiga_cmd.c ****                 if (OPTIGA_LIB_SUCCESS != optiga_cmd_restore_context(me))
1488:C:/Users/Yushev/git/optiga-trust-qi/optiga/cmd\optiga_cmd.c ****                 {
1489:C:/Users/Yushev/git/optiga-trust-qi/optiga/cmd\optiga_cmd.c ****                     break;
1490:C:/Users/Yushev/git/optiga-trust-qi/optiga/cmd\optiga_cmd.c ****                 }
1491:C:/Users/Yushev/git/optiga-trust-qi/optiga/cmd\optiga_cmd.c ****             }
1492:C:/Users/Yushev/git/optiga-trust-qi/optiga/cmd\optiga_cmd.c ****             optiga_cmd_prepare_apdu_header(OPTIGA_CMD_OPEN_APPLICATION,
1493:C:/Users/Yushev/git/optiga-trust-qi/optiga/cmd\optiga_cmd.c ****                                            me->cmd_param,
1494:C:/Users/Yushev/git/optiga-trust-qi/optiga/cmd\optiga_cmd.c ****                                            ((OPTIGA_CMD_PARAM_INITIALIZE_APP_CONTEXT == me->cmd_par
1495:C:/Users/Yushev/git/optiga-trust-qi/optiga/cmd\optiga_cmd.c ****                                            (sizeof(g_optiga_unique_application_identifier)) :
1496:C:/Users/Yushev/git/optiga-trust-qi/optiga/cmd\optiga_cmd.c ****                                            (sizeof(g_optiga_unique_application_identifier) +
1497:C:/Users/Yushev/git/optiga-trust-qi/optiga/cmd\optiga_cmd.c ****                                            sizeof(me->p_optiga->optiga_context_handle_buffer))),
1498:C:/Users/Yushev/git/optiga-trust-qi/optiga/cmd\optiga_cmd.c ****                                            me->p_optiga->optiga_comms_buffer + OPTIGA_COMMS_DATA_OF
1499:C:/Users/Yushev/git/optiga-trust-qi/optiga/cmd\optiga_cmd.c **** 
1500:C:/Users/Yushev/git/optiga-trust-qi/optiga/cmd\optiga_cmd.c ****             pal_os_memcpy(me->p_optiga->optiga_comms_buffer + OPTIGA_CMD_APDU_INDATA_OFFSET,
1501:C:/Users/Yushev/git/optiga-trust-qi/optiga/cmd\optiga_cmd.c ****                           g_optiga_unique_application_identifier,
1502:C:/Users/Yushev/git/optiga-trust-qi/optiga/cmd\optiga_cmd.c ****                           sizeof(g_optiga_unique_application_identifier));
1503:C:/Users/Yushev/git/optiga-trust-qi/optiga/cmd\optiga_cmd.c ****             if (OPTIGA_CMD_PARAM_INITIALIZE_APP_CONTEXT != me->cmd_param)
1504:C:/Users/Yushev/git/optiga-trust-qi/optiga/cmd\optiga_cmd.c ****             {
1505:C:/Users/Yushev/git/optiga-trust-qi/optiga/cmd\optiga_cmd.c ****                 pal_os_memcpy(&me->p_optiga->optiga_comms_buffer[OPTIGA_CMD_APDU_INDATA_OFFSET +
1506:C:/Users/Yushev/git/optiga-trust-qi/optiga/cmd\optiga_cmd.c ****                               sizeof(g_optiga_unique_application_identifier)],
1507:C:/Users/Yushev/git/optiga-trust-qi/optiga/cmd\optiga_cmd.c ****                               me->p_optiga->optiga_context_handle_buffer,
1508:C:/Users/Yushev/git/optiga-trust-qi/optiga/cmd\optiga_cmd.c ****                               sizeof(me->p_optiga->optiga_context_handle_buffer));
1509:C:/Users/Yushev/git/optiga-trust-qi/optiga/cmd\optiga_cmd.c ****             }
1510:C:/Users/Yushev/git/optiga-trust-qi/optiga/cmd\optiga_cmd.c **** 
1511:C:/Users/Yushev/git/optiga-trust-qi/optiga/cmd\optiga_cmd.c ****             me->p_optiga->comms_tx_size = (OPTIGA_CMD_APDU_HEADER_SIZE +
1512:C:/Users/Yushev/git/optiga-trust-qi/optiga/cmd\optiga_cmd.c ****                                            ((OPTIGA_CMD_PARAM_INITIALIZE_APP_CONTEXT == me->cmd_par
1513:C:/Users/Yushev/git/optiga-trust-qi/optiga/cmd\optiga_cmd.c ****                                            sizeof(g_optiga_unique_application_identifier):
1514:C:/Users/Yushev/git/optiga-trust-qi/optiga/cmd\optiga_cmd.c ****                                            (sizeof(g_optiga_unique_application_identifier) +
1515:C:/Users/Yushev/git/optiga-trust-qi/optiga/cmd\optiga_cmd.c ****                                            sizeof(me->p_optiga->optiga_context_handle_buffer))));
1516:C:/Users/Yushev/git/optiga-trust-qi/optiga/cmd\optiga_cmd.c **** 
1517:C:/Users/Yushev/git/optiga-trust-qi/optiga/cmd\optiga_cmd.c ****             pal_os_memset(me->p_optiga->optiga_context_handle_buffer,
1518:C:/Users/Yushev/git/optiga-trust-qi/optiga/cmd\optiga_cmd.c ****                           0,
1519:C:/Users/Yushev/git/optiga-trust-qi/optiga/cmd\optiga_cmd.c ****                           sizeof(me->p_optiga->optiga_context_handle_buffer));
1520:C:/Users/Yushev/git/optiga-trust-qi/optiga/cmd\optiga_cmd.c ****             if (OPTIGA_LIB_PAL_DATA_STORE_NOT_CONFIGURED != me->optiga_context_datastore_id)
1521:C:/Users/Yushev/git/optiga-trust-qi/optiga/cmd\optiga_cmd.c ****             {
1522:C:/Users/Yushev/git/optiga-trust-qi/optiga/cmd\optiga_cmd.c ****                 //Clearing context handle secret from datastore
1523:C:/Users/Yushev/git/optiga-trust-qi/optiga/cmd\optiga_cmd.c ****                 return_status = pal_os_datastore_write(me->optiga_context_datastore_id,
1524:C:/Users/Yushev/git/optiga-trust-qi/optiga/cmd\optiga_cmd.c ****                                                        me->p_optiga->optiga_context_handle_buffer,
1525:C:/Users/Yushev/git/optiga-trust-qi/optiga/cmd\optiga_cmd.c ****                                                        sizeof(me->p_optiga->optiga_context_handle_b
1526:C:/Users/Yushev/git/optiga-trust-qi/optiga/cmd\optiga_cmd.c ****                 if (PAL_STATUS_SUCCESS != return_status)
1527:C:/Users/Yushev/git/optiga-trust-qi/optiga/cmd\optiga_cmd.c ****                 {
1528:C:/Users/Yushev/git/optiga-trust-qi/optiga/cmd\optiga_cmd.c ****                     return_status = OPTIGA_CMD_ERROR;
1529:C:/Users/Yushev/git/optiga-trust-qi/optiga/cmd\optiga_cmd.c ****                     break;
1530:C:/Users/Yushev/git/optiga-trust-qi/optiga/cmd\optiga_cmd.c ****                 }
1531:C:/Users/Yushev/git/optiga-trust-qi/optiga/cmd\optiga_cmd.c ****             }
1532:C:/Users/Yushev/git/optiga-trust-qi/optiga/cmd\optiga_cmd.c ****             return_status = OPTIGA_LIB_SUCCESS;
1533:C:/Users/Yushev/git/optiga-trust-qi/optiga/cmd\optiga_cmd.c ****         }
1534:C:/Users/Yushev/git/optiga-trust-qi/optiga/cmd\optiga_cmd.c ****         break;
1535:C:/Users/Yushev/git/optiga-trust-qi/optiga/cmd\optiga_cmd.c ****         case OPTIGA_CMD_EXEC_PROCESS_RESPONSE:
1536:C:/Users/Yushev/git/optiga-trust-qi/optiga/cmd\optiga_cmd.c ****         {
1537:C:/Users/Yushev/git/optiga-trust-qi/optiga/cmd\optiga_cmd.c ****             OPTIGA_CMD_LOG_MESSAGE("Processing response for open app command...");
1538:C:/Users/Yushev/git/optiga-trust-qi/optiga/cmd\optiga_cmd.c **** 
1539:C:/Users/Yushev/git/optiga-trust-qi/optiga/cmd\optiga_cmd.c ****             if (OPTIGA_CMD_APDU_SUCCESS != me->p_optiga->optiga_comms_buffer[OPTIGA_COMMS_DATA_OFFS
1540:C:/Users/Yushev/git/optiga-trust-qi/optiga/cmd\optiga_cmd.c ****             {
1541:C:/Users/Yushev/git/optiga-trust-qi/optiga/cmd\optiga_cmd.c ****                 OPTIGA_CMD_LOG_MESSAGE("Error in processing open app response...");
1542:C:/Users/Yushev/git/optiga-trust-qi/optiga/cmd\optiga_cmd.c ****                 //lint --e{835} suppress "SET_DEV_ERROR_NOTIFICATION is generically written for any
1543:C:/Users/Yushev/git/optiga-trust-qi/optiga/cmd\optiga_cmd.c ****                 //lint --e{845} suppress "SET_DEV_ERROR_NOTIFICATION is generically written for any
1544:C:/Users/Yushev/git/optiga-trust-qi/optiga/cmd\optiga_cmd.c ****                 SET_DEV_ERROR_NOTIFICATION(OPTIGA_CMD_EXIT_HANDLER_CALL);
1545:C:/Users/Yushev/git/optiga-trust-qi/optiga/cmd\optiga_cmd.c ****                 break;
1546:C:/Users/Yushev/git/optiga-trust-qi/optiga/cmd\optiga_cmd.c ****             }
1547:C:/Users/Yushev/git/optiga-trust-qi/optiga/cmd\optiga_cmd.c **** #ifdef OPTIGA_COMMS_SHIELDED_CONNECTION
1548:C:/Users/Yushev/git/optiga-trust-qi/optiga/cmd\optiga_cmd.c ****             me->p_optiga->p_optiga_comms->manage_context_operation = OPTIGA_COMMS_SESSION_CONTEXT_N
1549:C:/Users/Yushev/git/optiga-trust-qi/optiga/cmd\optiga_cmd.c **** #endif //OPTIGA_COMMS_SHIELDED_CONNECTION
1550:C:/Users/Yushev/git/optiga-trust-qi/optiga/cmd\optiga_cmd.c ****             OPTIGA_CMD_LOG_MESSAGE("Response of open app command is processed...");
1551:C:/Users/Yushev/git/optiga-trust-qi/optiga/cmd\optiga_cmd.c ****             return_status = OPTIGA_LIB_SUCCESS;
1552:C:/Users/Yushev/git/optiga-trust-qi/optiga/cmd\optiga_cmd.c **** 
1553:C:/Users/Yushev/git/optiga-trust-qi/optiga/cmd\optiga_cmd.c ****         }
1554:C:/Users/Yushev/git/optiga-trust-qi/optiga/cmd\optiga_cmd.c ****         break;
1555:C:/Users/Yushev/git/optiga-trust-qi/optiga/cmd\optiga_cmd.c ****         default:
1556:C:/Users/Yushev/git/optiga-trust-qi/optiga/cmd\optiga_cmd.c ****             break;
1557:C:/Users/Yushev/git/optiga-trust-qi/optiga/cmd\optiga_cmd.c ****     }
1558:C:/Users/Yushev/git/optiga-trust-qi/optiga/cmd\optiga_cmd.c **** 
1559:C:/Users/Yushev/git/optiga-trust-qi/optiga/cmd\optiga_cmd.c ****     return (return_status);
1560:C:/Users/Yushev/git/optiga-trust-qi/optiga/cmd\optiga_cmd.c **** }
1561:C:/Users/Yushev/git/optiga-trust-qi/optiga/cmd\optiga_cmd.c **** 
1562:C:/Users/Yushev/git/optiga-trust-qi/optiga/cmd\optiga_cmd.c **** 
1563:C:/Users/Yushev/git/optiga-trust-qi/optiga/cmd\optiga_cmd.c **** optiga_lib_status_t optiga_cmd_open_application(optiga_cmd_t * me, uint8_t cmd_param, void * params
1564:C:/Users/Yushev/git/optiga-trust-qi/optiga/cmd\optiga_cmd.c **** {
1565:C:/Users/Yushev/git/optiga-trust-qi/optiga/cmd\optiga_cmd.c ****     OPTIGA_CMD_LOG_MESSAGE(__FUNCTION__);
1566:C:/Users/Yushev/git/optiga-trust-qi/optiga/cmd\optiga_cmd.c ****     optiga_cmd_execute(me,
1567:C:/Users/Yushev/git/optiga-trust-qi/optiga/cmd\optiga_cmd.c ****                        cmd_param,
1568:C:/Users/Yushev/git/optiga-trust-qi/optiga/cmd\optiga_cmd.c ****                        optiga_cmd_open_application_handler,
1569:C:/Users/Yushev/git/optiga-trust-qi/optiga/cmd\optiga_cmd.c ****                        OPTIGA_CMD_EXEC_COMMS_OPEN,
1570:C:/Users/Yushev/git/optiga-trust-qi/optiga/cmd\optiga_cmd.c ****                        OPTIGA_CMD_EXEC_COMMS_OPEN_ACQUIRE_LOCK,
1571:C:/Users/Yushev/git/optiga-trust-qi/optiga/cmd\optiga_cmd.c ****                        params,
1572:C:/Users/Yushev/git/optiga-trust-qi/optiga/cmd\optiga_cmd.c ****                        //lint --e{835} suppress "Upper 8 bits of apdu_data is kept as zero and is r
1573:C:/Users/Yushev/git/optiga-trust-qi/optiga/cmd\optiga_cmd.c ****                        OPTIGA_CMD_SET_APDU_DATA(OPTIGA_CMD_OPEN_APPLICATION, OPTIGA_CMD_ZERO_LENGTH
1574:C:/Users/Yushev/git/optiga-trust-qi/optiga/cmd\optiga_cmd.c **** 
1575:C:/Users/Yushev/git/optiga-trust-qi/optiga/cmd\optiga_cmd.c ****     return (OPTIGA_LIB_SUCCESS);
1576:C:/Users/Yushev/git/optiga-trust-qi/optiga/cmd\optiga_cmd.c **** }
1577:C:/Users/Yushev/git/optiga-trust-qi/optiga/cmd\optiga_cmd.c **** 
1578:C:/Users/Yushev/git/optiga-trust-qi/optiga/cmd\optiga_cmd.c **** /*
1579:C:/Users/Yushev/git/optiga-trust-qi/optiga/cmd\optiga_cmd.c **** * Close Application handler
1580:C:/Users/Yushev/git/optiga-trust-qi/optiga/cmd\optiga_cmd.c **** */
1581:C:/Users/Yushev/git/optiga-trust-qi/optiga/cmd\optiga_cmd.c **** _STATIC_H optiga_lib_status_t optiga_cmd_close_application_handler(optiga_cmd_t * me)
1582:C:/Users/Yushev/git/optiga-trust-qi/optiga/cmd\optiga_cmd.c **** {
1583:C:/Users/Yushev/git/optiga-trust-qi/optiga/cmd\optiga_cmd.c ****     uint16_t total_apdu_length;
1584:C:/Users/Yushev/git/optiga-trust-qi/optiga/cmd\optiga_cmd.c ****     optiga_lib_status_t return_status = OPTIGA_CMD_ERROR;
1585:C:/Users/Yushev/git/optiga-trust-qi/optiga/cmd\optiga_cmd.c **** 
1586:C:/Users/Yushev/git/optiga-trust-qi/optiga/cmd\optiga_cmd.c ****     switch ((uint8_t)me->cmd_next_execution_state)
1587:C:/Users/Yushev/git/optiga-trust-qi/optiga/cmd\optiga_cmd.c ****     {
1588:C:/Users/Yushev/git/optiga-trust-qi/optiga/cmd\optiga_cmd.c ****         case OPTIGA_CMD_EXEC_PREPARE_COMMAND:
1589:C:/Users/Yushev/git/optiga-trust-qi/optiga/cmd\optiga_cmd.c ****         {
1590:C:/Users/Yushev/git/optiga-trust-qi/optiga/cmd\optiga_cmd.c **** 
1591:C:/Users/Yushev/git/optiga-trust-qi/optiga/cmd\optiga_cmd.c ****             OPTIGA_CMD_LOG_MESSAGE("Sending close app command..");
1592:C:/Users/Yushev/git/optiga-trust-qi/optiga/cmd\optiga_cmd.c **** 
1593:C:/Users/Yushev/git/optiga-trust-qi/optiga/cmd\optiga_cmd.c ****             total_apdu_length = OPTIGA_CMD_APDU_HEADER_SIZE;
1594:C:/Users/Yushev/git/optiga-trust-qi/optiga/cmd\optiga_cmd.c ****             //lint --e{774} suppress "If OPTIGA_MAX_COMMS_BUFFER_SIZE is set to lesser value it wil
1595:C:/Users/Yushev/git/optiga-trust-qi/optiga/cmd\optiga_cmd.c ****             if (OPTIGA_MAX_COMMS_BUFFER_SIZE < total_apdu_length)
1596:C:/Users/Yushev/git/optiga-trust-qi/optiga/cmd\optiga_cmd.c ****             {
1597:C:/Users/Yushev/git/optiga-trust-qi/optiga/cmd\optiga_cmd.c ****                 return_status = OPTIGA_CMD_ERROR_MEMORY_INSUFFICIENT;
1598:C:/Users/Yushev/git/optiga-trust-qi/optiga/cmd\optiga_cmd.c ****                 break;
1599:C:/Users/Yushev/git/optiga-trust-qi/optiga/cmd\optiga_cmd.c ****             }
1600:C:/Users/Yushev/git/optiga-trust-qi/optiga/cmd\optiga_cmd.c ****             optiga_cmd_prepare_apdu_header(OPTIGA_CMD_CLOSE_APPLICATION,
1601:C:/Users/Yushev/git/optiga-trust-qi/optiga/cmd\optiga_cmd.c ****                                            me->cmd_param,
1602:C:/Users/Yushev/git/optiga-trust-qi/optiga/cmd\optiga_cmd.c ****                                            OPTIGA_CMD_ZERO_LENGTH_OR_VALUE,
1603:C:/Users/Yushev/git/optiga-trust-qi/optiga/cmd\optiga_cmd.c ****                                            me->p_optiga->optiga_comms_buffer + OPTIGA_COMMS_DATA_OF
1604:C:/Users/Yushev/git/optiga-trust-qi/optiga/cmd\optiga_cmd.c **** 
1605:C:/Users/Yushev/git/optiga-trust-qi/optiga/cmd\optiga_cmd.c ****             me->p_optiga->comms_tx_size = OPTIGA_CMD_APDU_HEADER_SIZE;
1606:C:/Users/Yushev/git/optiga-trust-qi/optiga/cmd\optiga_cmd.c ****             return_status = OPTIGA_LIB_SUCCESS;
1607:C:/Users/Yushev/git/optiga-trust-qi/optiga/cmd\optiga_cmd.c ****         }
1608:C:/Users/Yushev/git/optiga-trust-qi/optiga/cmd\optiga_cmd.c ****         break;
1609:C:/Users/Yushev/git/optiga-trust-qi/optiga/cmd\optiga_cmd.c ****         case OPTIGA_CMD_EXEC_PROCESS_RESPONSE:
1610:C:/Users/Yushev/git/optiga-trust-qi/optiga/cmd\optiga_cmd.c ****         {
1611:C:/Users/Yushev/git/optiga-trust-qi/optiga/cmd\optiga_cmd.c ****             OPTIGA_CMD_LOG_MESSAGE("Processing response for close app command...");
1612:C:/Users/Yushev/git/optiga-trust-qi/optiga/cmd\optiga_cmd.c ****             // check if the close app was successful
1613:C:/Users/Yushev/git/optiga-trust-qi/optiga/cmd\optiga_cmd.c ****             if (OPTIGA_CMD_APDU_SUCCESS != me->p_optiga->optiga_comms_buffer[OPTIGA_COMMS_DATA_OFFS
1614:C:/Users/Yushev/git/optiga-trust-qi/optiga/cmd\optiga_cmd.c ****             {
1615:C:/Users/Yushev/git/optiga-trust-qi/optiga/cmd\optiga_cmd.c ****                 OPTIGA_CMD_LOG_MESSAGE("Error in processing close app response...");
1616:C:/Users/Yushev/git/optiga-trust-qi/optiga/cmd\optiga_cmd.c ****                 //lint --e{835} suppress "SET_DEV_ERROR_NOTIFICATION is generically written for any
1617:C:/Users/Yushev/git/optiga-trust-qi/optiga/cmd\optiga_cmd.c ****                 //lint --e{845} suppress "SET_DEV_ERROR_NOTIFICATION is generically written for any
1618:C:/Users/Yushev/git/optiga-trust-qi/optiga/cmd\optiga_cmd.c ****                 SET_DEV_ERROR_NOTIFICATION(OPTIGA_CMD_EXIT_HANDLER_CALL);
1619:C:/Users/Yushev/git/optiga-trust-qi/optiga/cmd\optiga_cmd.c ****                 break;
1620:C:/Users/Yushev/git/optiga-trust-qi/optiga/cmd\optiga_cmd.c ****             }
1621:C:/Users/Yushev/git/optiga-trust-qi/optiga/cmd\optiga_cmd.c ****             if (OPTIGA_CMD_PARAM_INITIALIZE_APP_CONTEXT != me->cmd_param)
1622:C:/Users/Yushev/git/optiga-trust-qi/optiga/cmd\optiga_cmd.c ****             {
1623:C:/Users/Yushev/git/optiga-trust-qi/optiga/cmd\optiga_cmd.c ****                 pal_os_memcpy(me->p_optiga->optiga_context_handle_buffer,
1624:C:/Users/Yushev/git/optiga-trust-qi/optiga/cmd\optiga_cmd.c ****                               me->p_optiga->optiga_comms_buffer + OPTIGA_CMD_APDU_INDATA_OFFSET,
1625:C:/Users/Yushev/git/optiga-trust-qi/optiga/cmd\optiga_cmd.c ****                               sizeof(me->p_optiga->optiga_context_handle_buffer));
1626:C:/Users/Yushev/git/optiga-trust-qi/optiga/cmd\optiga_cmd.c ****                 ///Optiga context store operation
1627:C:/Users/Yushev/git/optiga-trust-qi/optiga/cmd\optiga_cmd.c ****                 if (OPTIGA_LIB_SUCCESS != optiga_cmd_store_context(me))
1628:C:/Users/Yushev/git/optiga-trust-qi/optiga/cmd\optiga_cmd.c ****                 {
1629:C:/Users/Yushev/git/optiga-trust-qi/optiga/cmd\optiga_cmd.c ****                     pal_os_memset(me->p_optiga->optiga_context_handle_buffer,0,
1630:C:/Users/Yushev/git/optiga-trust-qi/optiga/cmd\optiga_cmd.c ****                                     sizeof(me->p_optiga->optiga_context_handle_buffer));
1631:C:/Users/Yushev/git/optiga-trust-qi/optiga/cmd\optiga_cmd.c ****                     break;
1632:C:/Users/Yushev/git/optiga-trust-qi/optiga/cmd\optiga_cmd.c ****                 }
1633:C:/Users/Yushev/git/optiga-trust-qi/optiga/cmd\optiga_cmd.c ****             }
1634:C:/Users/Yushev/git/optiga-trust-qi/optiga/cmd\optiga_cmd.c ****             OPTIGA_CMD_LOG_MESSAGE("Response of close app command is processed...");
1635:C:/Users/Yushev/git/optiga-trust-qi/optiga/cmd\optiga_cmd.c ****             return_status = OPTIGA_LIB_SUCCESS;
1636:C:/Users/Yushev/git/optiga-trust-qi/optiga/cmd\optiga_cmd.c **** 
1637:C:/Users/Yushev/git/optiga-trust-qi/optiga/cmd\optiga_cmd.c ****         }
1638:C:/Users/Yushev/git/optiga-trust-qi/optiga/cmd\optiga_cmd.c ****         break;
1639:C:/Users/Yushev/git/optiga-trust-qi/optiga/cmd\optiga_cmd.c ****         default:
1640:C:/Users/Yushev/git/optiga-trust-qi/optiga/cmd\optiga_cmd.c ****             break;
1641:C:/Users/Yushev/git/optiga-trust-qi/optiga/cmd\optiga_cmd.c ****     }
1642:C:/Users/Yushev/git/optiga-trust-qi/optiga/cmd\optiga_cmd.c **** 
1643:C:/Users/Yushev/git/optiga-trust-qi/optiga/cmd\optiga_cmd.c ****     return (return_status);
1644:C:/Users/Yushev/git/optiga-trust-qi/optiga/cmd\optiga_cmd.c **** }
1645:C:/Users/Yushev/git/optiga-trust-qi/optiga/cmd\optiga_cmd.c **** 
1646:C:/Users/Yushev/git/optiga-trust-qi/optiga/cmd\optiga_cmd.c **** optiga_lib_status_t optiga_cmd_close_application(optiga_cmd_t * me, uint8_t cmd_param, void * param
1647:C:/Users/Yushev/git/optiga-trust-qi/optiga/cmd\optiga_cmd.c **** {
1648:C:/Users/Yushev/git/optiga-trust-qi/optiga/cmd\optiga_cmd.c ****     OPTIGA_CMD_LOG_MESSAGE(__FUNCTION__);
1649:C:/Users/Yushev/git/optiga-trust-qi/optiga/cmd\optiga_cmd.c ****     optiga_cmd_execute(me,
1650:C:/Users/Yushev/git/optiga-trust-qi/optiga/cmd\optiga_cmd.c ****                        cmd_param,
1651:C:/Users/Yushev/git/optiga-trust-qi/optiga/cmd\optiga_cmd.c ****                        optiga_cmd_close_application_handler,
1652:C:/Users/Yushev/git/optiga-trust-qi/optiga/cmd\optiga_cmd.c ****                        OPTIGA_CMD_EXEC_PREPARE_COMMAND,
1653:C:/Users/Yushev/git/optiga-trust-qi/optiga/cmd\optiga_cmd.c ****                        OPTIGA_CMD_EXEC_REQUEST_LOCK,
1654:C:/Users/Yushev/git/optiga-trust-qi/optiga/cmd\optiga_cmd.c ****                        params,
1655:C:/Users/Yushev/git/optiga-trust-qi/optiga/cmd\optiga_cmd.c ****                        //lint --e{835} suppress "Upper 8 bits of apdu_data is kept as zero and is r
1656:C:/Users/Yushev/git/optiga-trust-qi/optiga/cmd\optiga_cmd.c ****                        OPTIGA_CMD_SET_APDU_DATA(OPTIGA_CMD_CLOSE_APPLICATION, OPTIGA_CMD_ZERO_LENGT
1657:C:/Users/Yushev/git/optiga-trust-qi/optiga/cmd\optiga_cmd.c **** 
1658:C:/Users/Yushev/git/optiga-trust-qi/optiga/cmd\optiga_cmd.c ****     return (OPTIGA_LIB_SUCCESS);
1659:C:/Users/Yushev/git/optiga-trust-qi/optiga/cmd\optiga_cmd.c **** }
1660:C:/Users/Yushev/git/optiga-trust-qi/optiga/cmd\optiga_cmd.c **** 
1661:C:/Users/Yushev/git/optiga-trust-qi/optiga/cmd\optiga_cmd.c **** /*
1662:C:/Users/Yushev/git/optiga-trust-qi/optiga/cmd\optiga_cmd.c **** * Get Data Object handler
1663:C:/Users/Yushev/git/optiga-trust-qi/optiga/cmd\optiga_cmd.c **** */
1664:C:/Users/Yushev/git/optiga-trust-qi/optiga/cmd\optiga_cmd.c **** _STATIC_H optiga_lib_status_t optiga_cmd_get_data_object_handler(optiga_cmd_t * me)
1665:C:/Users/Yushev/git/optiga-trust-qi/optiga/cmd\optiga_cmd.c **** {
 1033              	 .loc 1 1665 0
 1034              	 .cfi_startproc
 1035              	 
 1036              	 
 1037              	.LVL95:
 1038 0000 F8B5     	 push {r3,r4,r5,r6,r7,lr}
 1039              	.LCFI9:
 1040              	 .cfi_def_cfa_offset 24
 1041              	 .cfi_offset 3,-24
 1042              	 .cfi_offset 4,-20
 1043              	 .cfi_offset 5,-16
 1044              	 .cfi_offset 6,-12
 1045              	 .cfi_offset 7,-8
 1046              	 .cfi_offset 14,-4
1666:C:/Users/Yushev/git/optiga-trust-qi/optiga/cmd\optiga_cmd.c ****     uint16_t total_apdu_length;
1667:C:/Users/Yushev/git/optiga-trust-qi/optiga/cmd\optiga_cmd.c ****     optiga_get_data_object_params_t * p_optiga_read_data = (optiga_get_data_object_params_t *)me->p
1668:C:/Users/Yushev/git/optiga-trust-qi/optiga/cmd\optiga_cmd.c ****     optiga_lib_status_t return_status = OPTIGA_CMD_ERROR;
1669:C:/Users/Yushev/git/optiga-trust-qi/optiga/cmd\optiga_cmd.c ****     uint16_t index_for_data = OPTIGA_CMD_APDU_INDATA_OFFSET;
1670:C:/Users/Yushev/git/optiga-trust-qi/optiga/cmd\optiga_cmd.c ****     uint16_t size_to_read, data_read;
1671:C:/Users/Yushev/git/optiga-trust-qi/optiga/cmd\optiga_cmd.c ****     uint8_t cmd = OPTIGA_CMD_GET_DATA_OBJECT;
1672:C:/Users/Yushev/git/optiga-trust-qi/optiga/cmd\optiga_cmd.c ****     switch ((uint8_t)me->cmd_next_execution_state)
 1047              	 .loc 1 1672 0
 1048 0002 837D     	 ldrb r3,[r0,#22]
1667:C:/Users/Yushev/git/optiga-trust-qi/optiga/cmd\optiga_cmd.c ****     optiga_lib_status_t return_status = OPTIGA_CMD_ERROR;
 1049              	 .loc 1 1667 0
 1050 0004 8468     	 ldr r4,[r0,#8]
 1051              	.LVL96:
 1052              	 .loc 1 1672 0
 1053 0006 022B     	 cmp r3,#2
1665:C:/Users/Yushev/git/optiga-trust-qi/optiga/cmd\optiga_cmd.c ****     uint16_t total_apdu_length;
 1054              	 .loc 1 1665 0
 1055 0008 0646     	 mov r6,r0
 1056              	 .loc 1 1672 0
 1057 000a 02D0     	 beq .L122
 1058 000c 032B     	 cmp r3,#3
 1059 000e 34D0     	 beq .L123
 1060 0010 74E0     	 b .L135
 1061              	.L122:
 1062              	.LVL97:
1673:C:/Users/Yushev/git/optiga-trust-qi/optiga/cmd\optiga_cmd.c ****     {
1674:C:/Users/Yushev/git/optiga-trust-qi/optiga/cmd\optiga_cmd.c ****         case OPTIGA_CMD_EXEC_PREPARE_COMMAND:
1675:C:/Users/Yushev/git/optiga-trust-qi/optiga/cmd\optiga_cmd.c ****         {
1676:C:/Users/Yushev/git/optiga-trust-qi/optiga/cmd\optiga_cmd.c ****             OPTIGA_CMD_LOG_MESSAGE("Sending read data command...");
1677:C:/Users/Yushev/git/optiga-trust-qi/optiga/cmd\optiga_cmd.c ****             // APDU header size + oid 2bytes + offset 2 bytes + length 2 bytes
1678:C:/Users/Yushev/git/optiga-trust-qi/optiga/cmd\optiga_cmd.c ****             total_apdu_length = OPTIGA_CMD_APDU_HEADER_SIZE + OPTIGA_CMD_UINT16_SIZE_IN_BYTES +
1679:C:/Users/Yushev/git/optiga-trust-qi/optiga/cmd\optiga_cmd.c ****                                     OPTIGA_CMD_UINT16_SIZE_IN_BYTES + OPTIGA_CMD_UINT16_SIZE_IN_BYT
1680:C:/Users/Yushev/git/optiga-trust-qi/optiga/cmd\optiga_cmd.c ****             //lint --e{774} suppress "If OPTIGA_MAX_COMMS_BUFFER_SIZE is set to lesser value it wil
1681:C:/Users/Yushev/git/optiga-trust-qi/optiga/cmd\optiga_cmd.c ****             if (OPTIGA_MAX_COMMS_BUFFER_SIZE < total_apdu_length)
1682:C:/Users/Yushev/git/optiga-trust-qi/optiga/cmd\optiga_cmd.c ****             {
1683:C:/Users/Yushev/git/optiga-trust-qi/optiga/cmd\optiga_cmd.c ****                 return_status = OPTIGA_CMD_ERROR_MEMORY_INSUFFICIENT;
1684:C:/Users/Yushev/git/optiga-trust-qi/optiga/cmd\optiga_cmd.c ****                 *(p_optiga_read_data->ref_bytes_to_read) = 0x00;
1685:C:/Users/Yushev/git/optiga-trust-qi/optiga/cmd\optiga_cmd.c ****                 break;
1686:C:/Users/Yushev/git/optiga-trust-qi/optiga/cmd\optiga_cmd.c ****             }
1687:C:/Users/Yushev/git/optiga-trust-qi/optiga/cmd\optiga_cmd.c ****             //oid
1688:C:/Users/Yushev/git/optiga-trust-qi/optiga/cmd\optiga_cmd.c ****             optiga_common_set_uint16(&me->p_optiga->optiga_comms_buffer[index_for_data],
 1063              	 .loc 1 1688 0
 1064 0012 0068     	 ldr r0,[r0]
 1065              	.LVL98:
 1066 0014 2188     	 ldrh r1,[r4]
 1067 0016 1630     	 adds r0,r0,#22
 1068 0018 FFF7FEFF 	 bl optiga_common_set_uint16
 1069              	.LVL99:
1689:C:/Users/Yushev/git/optiga-trust-qi/optiga/cmd\optiga_cmd.c ****                                      p_optiga_read_data->oid);
1690:C:/Users/Yushev/git/optiga-trust-qi/optiga/cmd\optiga_cmd.c ****             index_for_data += OPTIGA_CMD_UINT16_SIZE_IN_BYTES;
1691:C:/Users/Yushev/git/optiga-trust-qi/optiga/cmd\optiga_cmd.c **** 
1692:C:/Users/Yushev/git/optiga-trust-qi/optiga/cmd\optiga_cmd.c ****             size_to_read = MIN((OPTIGA_MAX_COMMS_BUFFER_SIZE - OPTIGA_CMD_APDU_HEADER_SIZE),
 1070              	 .loc 1 1692 0
 1071 001c E188     	 ldrh r1,[r4,#6]
 1072 001e A388     	 ldrh r3,[r4,#4]
 1073 0020 40F21162 	 movw r2,#1553
 1074 0024 5B1A     	 subs r3,r3,r1
 1075 0026 9342     	 cmp r3,r2
 1076 0028 A8BF     	 it ge
 1077 002a 1346     	 movge r3,r2
 1078 002c 9DB2     	 uxth r5,r3
 1079              	.LVL100:
1693:C:/Users/Yushev/git/optiga-trust-qi/optiga/cmd\optiga_cmd.c ****                                (p_optiga_read_data->bytes_to_read - p_optiga_read_data->accumulated
1694:C:/Users/Yushev/git/optiga-trust-qi/optiga/cmd\optiga_cmd.c **** 
1695:C:/Users/Yushev/git/optiga-trust-qi/optiga/cmd\optiga_cmd.c ****             if (OPTIGA_CMD_READ_DATA == p_optiga_read_data->data_or_metadata)
 1080              	 .loc 1 1695 0
 1081 002e A37A     	 ldrb r3,[r4,#10]
 1082 0030 6BB9     	 cbnz r3,.L133
1696:C:/Users/Yushev/git/optiga-trust-qi/optiga/cmd\optiga_cmd.c ****             {
1697:C:/Users/Yushev/git/optiga-trust-qi/optiga/cmd\optiga_cmd.c ****                 //offset
1698:C:/Users/Yushev/git/optiga-trust-qi/optiga/cmd\optiga_cmd.c ****                 optiga_common_set_uint16(&me->p_optiga->optiga_comms_buffer[index_for_data],
 1083              	 .loc 1 1698 0
 1084 0032 6388     	 ldrh r3,[r4,#2]
 1085 0034 3068     	 ldr r0,[r6]
 1086 0036 1944     	 add r1,r1,r3
 1087 0038 1830     	 adds r0,r0,#24
 1088 003a 89B2     	 uxth r1,r1
 1089 003c FFF7FEFF 	 bl optiga_common_set_uint16
 1090              	.LVL101:
1699:C:/Users/Yushev/git/optiga-trust-qi/optiga/cmd\optiga_cmd.c ****                            (p_optiga_read_data->offset + p_optiga_read_data->accumulated_size));
1700:C:/Users/Yushev/git/optiga-trust-qi/optiga/cmd\optiga_cmd.c ****                 index_for_data += OPTIGA_CMD_UINT16_SIZE_IN_BYTES;
1701:C:/Users/Yushev/git/optiga-trust-qi/optiga/cmd\optiga_cmd.c **** 
1702:C:/Users/Yushev/git/optiga-trust-qi/optiga/cmd\optiga_cmd.c ****                 //length
1703:C:/Users/Yushev/git/optiga-trust-qi/optiga/cmd\optiga_cmd.c ****                 optiga_common_set_uint16(&me->p_optiga->optiga_comms_buffer[index_for_data],
 1091              	 .loc 1 1703 0
 1092 0040 3068     	 ldr r0,[r6]
 1093 0042 2946     	 mov r1,r5
 1094 0044 1A30     	 adds r0,r0,#26
 1095 0046 FFF7FEFF 	 bl optiga_common_set_uint16
 1096              	.LVL102:
1704:C:/Users/Yushev/git/optiga-trust-qi/optiga/cmd\optiga_cmd.c ****                                          size_to_read);
1705:C:/Users/Yushev/git/optiga-trust-qi/optiga/cmd\optiga_cmd.c ****                 index_for_data += OPTIGA_CMD_UINT16_SIZE_IN_BYTES;
 1097              	 .loc 1 1705 0
 1098 004a 0F23     	 movs r3,#15
 1099 004c 00E0     	 b .L124
 1100              	.LVL103:
 1101              	.L133:
1690:C:/Users/Yushev/git/optiga-trust-qi/optiga/cmd\optiga_cmd.c **** 
 1102              	 .loc 1 1690 0
 1103 004e 0B23     	 movs r3,#11
 1104              	.LVL104:
 1105              	.L124:
1706:C:/Users/Yushev/git/optiga-trust-qi/optiga/cmd\optiga_cmd.c ****             }
1707:C:/Users/Yushev/git/optiga-trust-qi/optiga/cmd\optiga_cmd.c ****             // If OID is for Last error code, don't clear the error code in read
1708:C:/Users/Yushev/git/optiga-trust-qi/optiga/cmd\optiga_cmd.c ****             if (OPTIGA_CMD_LAST_ERROR_CODE == p_optiga_read_data->oid)
 1106              	 .loc 1 1708 0
 1107 0050 2288     	 ldrh r2,[r4]
1709:C:/Users/Yushev/git/optiga-trust-qi/optiga/cmd\optiga_cmd.c ****             {
1710:C:/Users/Yushev/git/optiga-trust-qi/optiga/cmd\optiga_cmd.c ****                 cmd = OPTIGA_CMD_GET_DATA_OBJECT_NO_ERROR_CLEAR;
1711:C:/Users/Yushev/git/optiga-trust-qi/optiga/cmd\optiga_cmd.c ****             }
1712:C:/Users/Yushev/git/optiga-trust-qi/optiga/cmd\optiga_cmd.c ****             //prepare APDU header
1713:C:/Users/Yushev/git/optiga-trust-qi/optiga/cmd\optiga_cmd.c ****             optiga_cmd_prepare_apdu_header(cmd,
 1108              	 .loc 1 1713 0
 1109 0052 707E     	 ldrb r0,[r6,#25]
1710:C:/Users/Yushev/git/optiga-trust-qi/optiga/cmd\optiga_cmd.c ****             }
 1110              	 .loc 1 1710 0
 1111 0054 4FF2C211 	 movw r1,#61890
 1112 0058 8A42     	 cmp r2,r1
 1113 005a 14BF     	 ite ne
 1114 005c 8121     	 movne r1,#129
 1115 005e 0121     	 moveq r1,#1
 1116              	.LVL105:
1714:C:/Users/Yushev/git/optiga-trust-qi/optiga/cmd\optiga_cmd.c ****                                            me->cmd_param,
1715:C:/Users/Yushev/git/optiga-trust-qi/optiga/cmd\optiga_cmd.c ****                                            (index_for_data - OPTIGA_CMD_APDU_INDATA_OFFSET),
1716:C:/Users/Yushev/git/optiga-trust-qi/optiga/cmd\optiga_cmd.c ****                                            (me->p_optiga->optiga_comms_buffer + OPTIGA_COMMS_DATA_O
 1117              	 .loc 1 1716 0
 1118 0060 3268     	 ldr r2,[r6]
 1119              	.LVL106:
 1120              	.LBB142:
 1121              	.LBB143:
 440:C:/Users/Yushev/git/optiga-trust-qi/optiga/cmd\optiga_cmd.c ****     p_apdu_buffer [1] = param;
 1122              	 .loc 1 440 0
 1123 0062 9174     	 strb r1,[r2,#18]
 441:C:/Users/Yushev/git/optiga-trust-qi/optiga/cmd\optiga_cmd.c ****     p_apdu_buffer [2] = (uint8_t)((in_data_length & 0xFF00) >> 8);
 1124              	 .loc 1 441 0
 1125 0064 D074     	 strb r0,[r2,#19]
 1126              	.LBE143:
 1127              	.LBE142:
1713:C:/Users/Yushev/git/optiga-trust-qi/optiga/cmd\optiga_cmd.c ****                                            me->cmd_param,
 1128              	 .loc 1 1713 0
 1129 0066 A3F10901 	 sub r1,r3,#9
 1130              	.LVL107:
 1131              	.LBB145:
 1132              	.LBB144:
 442:C:/Users/Yushev/git/optiga-trust-qi/optiga/cmd\optiga_cmd.c ****     p_apdu_buffer [3] = (uint8_t)(in_data_length & 0x00FF);
 1133              	 .loc 1 442 0
 1134 006a 0020     	 movs r0,#0
 1135              	.LVL108:
 1136 006c 1075     	 strb r0,[r2,#20]
 443:C:/Users/Yushev/git/optiga-trust-qi/optiga/cmd\optiga_cmd.c **** }
 1137              	 .loc 1 443 0
 1138 006e 5175     	 strb r1,[r2,#21]
 1139              	.LBE144:
 1140              	.LBE145:
1717:C:/Users/Yushev/git/optiga-trust-qi/optiga/cmd\optiga_cmd.c **** 
1718:C:/Users/Yushev/git/optiga-trust-qi/optiga/cmd\optiga_cmd.c ****             me->p_optiga->comms_tx_size = index_for_data - OPTIGA_COMMS_DATA_OFFSET;
 1141              	 .loc 1 1718 0
 1142 0070 3268     	 ldr r2,[r6]
 1143              	.LVL109:
 1144 0072 053B     	 subs r3,r3,#5
 1145              	.LVL110:
 1146 0074 9380     	 strh r3,[r2,#4]
1719:C:/Users/Yushev/git/optiga-trust-qi/optiga/cmd\optiga_cmd.c ****             p_optiga_read_data->last_read_size = size_to_read;
 1147              	 .loc 1 1719 0
 1148 0076 2581     	 strh r5,[r4,#8]
 1149              	.LVL111:
1720:C:/Users/Yushev/git/optiga-trust-qi/optiga/cmd\optiga_cmd.c ****             return_status = OPTIGA_LIB_SUCCESS;
1721:C:/Users/Yushev/git/optiga-trust-qi/optiga/cmd\optiga_cmd.c ****         }
1722:C:/Users/Yushev/git/optiga-trust-qi/optiga/cmd\optiga_cmd.c ****         break;
 1150              	 .loc 1 1722 0
 1151 0078 F8BD     	 pop {r3,r4,r5,r6,r7,pc}
 1152              	.LVL112:
 1153              	.L123:
1723:C:/Users/Yushev/git/optiga-trust-qi/optiga/cmd\optiga_cmd.c ****         case OPTIGA_CMD_EXEC_PROCESS_RESPONSE:
1724:C:/Users/Yushev/git/optiga-trust-qi/optiga/cmd\optiga_cmd.c ****         {
1725:C:/Users/Yushev/git/optiga-trust-qi/optiga/cmd\optiga_cmd.c ****             OPTIGA_CMD_LOG_MESSAGE("Processing response for read data command...");
1726:C:/Users/Yushev/git/optiga-trust-qi/optiga/cmd\optiga_cmd.c ****             me->chaining_ongoing = FALSE;
 1154              	 .loc 1 1726 0
 1155 007a 0023     	 movs r3,#0
1727:C:/Users/Yushev/git/optiga-trust-qi/optiga/cmd\optiga_cmd.c ****             // check if the read was successful
1728:C:/Users/Yushev/git/optiga-trust-qi/optiga/cmd\optiga_cmd.c ****             if (OPTIGA_CMD_APDU_SUCCESS != me->p_optiga->optiga_comms_buffer[OPTIGA_COMMS_DATA_OFFS
 1156              	 .loc 1 1728 0
 1157 007c 0168     	 ldr r1,[r0]
1726:C:/Users/Yushev/git/optiga-trust-qi/optiga/cmd\optiga_cmd.c ****             // check if the read was successful
 1158              	 .loc 1 1726 0
 1159 007e 0376     	 strb r3,[r0,#24]
 1160              	 .loc 1 1728 0
 1161 0080 8D7C     	 ldrb r5,[r1,#18]
 1162 0082 65B1     	 cbz r5,.L126
1729:C:/Users/Yushev/git/optiga-trust-qi/optiga/cmd\optiga_cmd.c ****             {
1730:C:/Users/Yushev/git/optiga-trust-qi/optiga/cmd\optiga_cmd.c ****                 OPTIGA_CMD_LOG_MESSAGE("Error in processing read data response...");
1731:C:/Users/Yushev/git/optiga-trust-qi/optiga/cmd\optiga_cmd.c ****                 //check if it is out of boundary issue
1732:C:/Users/Yushev/git/optiga-trust-qi/optiga/cmd\optiga_cmd.c ****                 if (OPTIGA_CMD_ZERO_LENGTH_OR_VALUE != p_optiga_read_data->accumulated_size)
 1163              	 .loc 1 1732 0
 1164 0084 E288     	 ldrh r2,[r4,#6]
 1165 0086 437F     	 ldrb r3,[r0,#29]
 1166 0088 1AB1     	 cbz r2,.L127
1733:C:/Users/Yushev/git/optiga-trust-qi/optiga/cmd\optiga_cmd.c ****                 {
1734:C:/Users/Yushev/git/optiga-trust-qi/optiga/cmd\optiga_cmd.c ****                     SET_DEV_ERROR_NOTIFICATION(OPTIGA_CMD_ENTER_HANDLER_CALL);
 1167              	 .loc 1 1734 0
 1168 008a 63F07F03 	 orn r3,r3,#127
 1169 008e 4377     	 strb r3,[r0,#29]
 1170 0090 34E0     	 b .L135
 1171              	.L127:
1735:C:/Users/Yushev/git/optiga-trust-qi/optiga/cmd\optiga_cmd.c ****                 }
