   1              	 .syntax unified
   2              	 .cpu cortex-m4
   3              	 .eabi_attribute 27,3
   4              	 .fpu fpv4-sp-d16
   5              	 .eabi_attribute 20,1
   6              	 .eabi_attribute 21,1
   7              	 .eabi_attribute 23,3
   8              	 .eabi_attribute 24,1
   9              	 .eabi_attribute 25,1
  10              	 .eabi_attribute 26,1
  11              	 .eabi_attribute 30,6
  12              	 .eabi_attribute 34,1
  13              	 .eabi_attribute 18,4
  14              	 .thumb
  15              	 .file "ecdsa_utils.c"
  16              	 .text
  17              	.Ltext0:
  18              	 .cfi_sections .debug_frame
  19              	 .section .text.encode_der_integer,"ax",%progbits
  20              	 .align 2
  21              	 .thumb
  22              	 .thumb_func
  24              	encode_der_integer:
  25              	.LFB0:
  26              	 .file 1 "C:/Users/Yushev/git/wpcqi-optiga-trust-charge/optiga/examples/utilities/ecdsa_utils.c"
   1:C:/Users/Yushev/git/wpcqi-optiga-trust-charge/optiga/examples/utilities\ecdsa_utils.c **** /**
   2:C:/Users/Yushev/git/wpcqi-optiga-trust-charge/optiga/examples/utilities\ecdsa_utils.c **** * MIT License
   3:C:/Users/Yushev/git/wpcqi-optiga-trust-charge/optiga/examples/utilities\ecdsa_utils.c **** *
   4:C:/Users/Yushev/git/wpcqi-optiga-trust-charge/optiga/examples/utilities\ecdsa_utils.c **** * Copyright (c) 2019 Infineon Technologies AG
   5:C:/Users/Yushev/git/wpcqi-optiga-trust-charge/optiga/examples/utilities\ecdsa_utils.c **** *
   6:C:/Users/Yushev/git/wpcqi-optiga-trust-charge/optiga/examples/utilities\ecdsa_utils.c **** * Permission is hereby granted, free of charge, to any person obtaining a copy
   7:C:/Users/Yushev/git/wpcqi-optiga-trust-charge/optiga/examples/utilities\ecdsa_utils.c **** * of this software and associated documentation files (the "Software"), to deal
   8:C:/Users/Yushev/git/wpcqi-optiga-trust-charge/optiga/examples/utilities\ecdsa_utils.c **** * in the Software without restriction, including without limitation the rights
   9:C:/Users/Yushev/git/wpcqi-optiga-trust-charge/optiga/examples/utilities\ecdsa_utils.c **** * to use, copy, modify, merge, publish, distribute, sublicense, and/or sell
  10:C:/Users/Yushev/git/wpcqi-optiga-trust-charge/optiga/examples/utilities\ecdsa_utils.c **** * copies of the Software, and to permit persons to whom the Software is
  11:C:/Users/Yushev/git/wpcqi-optiga-trust-charge/optiga/examples/utilities\ecdsa_utils.c **** * furnished to do so, subject to the following conditions:
  12:C:/Users/Yushev/git/wpcqi-optiga-trust-charge/optiga/examples/utilities\ecdsa_utils.c **** *
  13:C:/Users/Yushev/git/wpcqi-optiga-trust-charge/optiga/examples/utilities\ecdsa_utils.c **** * The above copyright notice and this permission notice shall be included in all
  14:C:/Users/Yushev/git/wpcqi-optiga-trust-charge/optiga/examples/utilities\ecdsa_utils.c **** * copies or substantial portions of the Software.
  15:C:/Users/Yushev/git/wpcqi-optiga-trust-charge/optiga/examples/utilities\ecdsa_utils.c **** *
  16:C:/Users/Yushev/git/wpcqi-optiga-trust-charge/optiga/examples/utilities\ecdsa_utils.c **** * THE SOFTWARE IS PROVIDED "AS IS", WITHOUT WARRANTY OF ANY KIND, EXPRESS OR
  17:C:/Users/Yushev/git/wpcqi-optiga-trust-charge/optiga/examples/utilities\ecdsa_utils.c **** * IMPLIED, INCLUDING BUT NOT LIMITED TO THE WARRANTIES OF MERCHANTABILITY,
  18:C:/Users/Yushev/git/wpcqi-optiga-trust-charge/optiga/examples/utilities\ecdsa_utils.c **** * FITNESS FOR A PARTICULAR PURPOSE AND NONINFRINGEMENT. IN NO EVENT SHALL THE
  19:C:/Users/Yushev/git/wpcqi-optiga-trust-charge/optiga/examples/utilities\ecdsa_utils.c **** * AUTHORS OR COPYRIGHT HOLDERS BE LIABLE FOR ANY CLAIM, DAMAGES OR OTHER
  20:C:/Users/Yushev/git/wpcqi-optiga-trust-charge/optiga/examples/utilities\ecdsa_utils.c **** * LIABILITY, WHETHER IN AN ACTION OF CONTRACT, TORT OR OTHERWISE, ARISING FROM,
  21:C:/Users/Yushev/git/wpcqi-optiga-trust-charge/optiga/examples/utilities\ecdsa_utils.c **** * OUT OF OR IN CONNECTION WITH THE SOFTWARE OR THE USE OR OTHER DEALINGS IN THE
  22:C:/Users/Yushev/git/wpcqi-optiga-trust-charge/optiga/examples/utilities\ecdsa_utils.c **** * SOFTWARE
  23:C:/Users/Yushev/git/wpcqi-optiga-trust-charge/optiga/examples/utilities\ecdsa_utils.c **** *
  24:C:/Users/Yushev/git/wpcqi-optiga-trust-charge/optiga/examples/utilities\ecdsa_utils.c **** *
  25:C:/Users/Yushev/git/wpcqi-optiga-trust-charge/optiga/examples/utilities\ecdsa_utils.c **** * \file ecdsa_utils.c
  26:C:/Users/Yushev/git/wpcqi-optiga-trust-charge/optiga/examples/utilities\ecdsa_utils.c **** *
  27:C:/Users/Yushev/git/wpcqi-optiga-trust-charge/optiga/examples/utilities\ecdsa_utils.c **** * \brief   This file provides functions to convert raw r and s components of the ECDSA signature to
  28:C:/Users/Yushev/git/wpcqi-optiga-trust-charge/optiga/examples/utilities\ecdsa_utils.c **** *
  29:C:/Users/Yushev/git/wpcqi-optiga-trust-charge/optiga/examples/utilities\ecdsa_utils.c **** *
  30:C:/Users/Yushev/git/wpcqi-optiga-trust-charge/optiga/examples/utilities\ecdsa_utils.c **** * \ingroup
  31:C:/Users/Yushev/git/wpcqi-optiga-trust-charge/optiga/examples/utilities\ecdsa_utils.c **** * @{
  32:C:/Users/Yushev/git/wpcqi-optiga-trust-charge/optiga/examples/utilities\ecdsa_utils.c **** */
  33:C:/Users/Yushev/git/wpcqi-optiga-trust-charge/optiga/examples/utilities\ecdsa_utils.c **** 
  34:C:/Users/Yushev/git/wpcqi-optiga-trust-charge/optiga/examples/utilities\ecdsa_utils.c **** #include "ecdsa_utils.h"
  35:C:/Users/Yushev/git/wpcqi-optiga-trust-charge/optiga/examples/utilities\ecdsa_utils.c **** 
  36:C:/Users/Yushev/git/wpcqi-optiga-trust-charge/optiga/examples/utilities\ecdsa_utils.c **** #include <string.h>
  37:C:/Users/Yushev/git/wpcqi-optiga-trust-charge/optiga/examples/utilities\ecdsa_utils.c **** 
  38:C:/Users/Yushev/git/wpcqi-optiga-trust-charge/optiga/examples/utilities\ecdsa_utils.c **** // This implementation only supports a single byte LENGTH field. The maximum
  39:C:/Users/Yushev/git/wpcqi-optiga-trust-charge/optiga/examples/utilities\ecdsa_utils.c **** // possible value than can be encoded within a single byte is 0x7F (127 dec).
  40:C:/Users/Yushev/git/wpcqi-optiga-trust-charge/optiga/examples/utilities\ecdsa_utils.c **** // For higher values, the length must be coded in a multi-byte field.
  41:C:/Users/Yushev/git/wpcqi-optiga-trust-charge/optiga/examples/utilities\ecdsa_utils.c **** #define DER_INTEGER_MAX_LEN 0x7F
  42:C:/Users/Yushev/git/wpcqi-optiga-trust-charge/optiga/examples/utilities\ecdsa_utils.c **** 
  43:C:/Users/Yushev/git/wpcqi-optiga-trust-charge/optiga/examples/utilities\ecdsa_utils.c **** // This implementation only supports a single byte LENGTH field. The maximum
  44:C:/Users/Yushev/git/wpcqi-optiga-trust-charge/optiga/examples/utilities\ecdsa_utils.c **** // possible value than can be encoded within a single byte is 0x7F (127 dec).
  45:C:/Users/Yushev/git/wpcqi-optiga-trust-charge/optiga/examples/utilities\ecdsa_utils.c **** // For higher values, the length must be coded in a multi-byte field.
  46:C:/Users/Yushev/git/wpcqi-optiga-trust-charge/optiga/examples/utilities\ecdsa_utils.c **** #define DER_SEQUENCE_MAX_LEN 0x7F
  47:C:/Users/Yushev/git/wpcqi-optiga-trust-charge/optiga/examples/utilities\ecdsa_utils.c **** 
  48:C:/Users/Yushev/git/wpcqi-optiga-trust-charge/optiga/examples/utilities\ecdsa_utils.c **** // ASN.1 DER TAG field offset
  49:C:/Users/Yushev/git/wpcqi-optiga-trust-charge/optiga/examples/utilities\ecdsa_utils.c **** #define ASN1_DER_TAG_OFFSET 0
  50:C:/Users/Yushev/git/wpcqi-optiga-trust-charge/optiga/examples/utilities\ecdsa_utils.c **** 
  51:C:/Users/Yushev/git/wpcqi-optiga-trust-charge/optiga/examples/utilities\ecdsa_utils.c **** // ASN.1 DER LENGTH field offset
  52:C:/Users/Yushev/git/wpcqi-optiga-trust-charge/optiga/examples/utilities\ecdsa_utils.c **** #define ASN1_DER_LEN_OFFSET 1
  53:C:/Users/Yushev/git/wpcqi-optiga-trust-charge/optiga/examples/utilities\ecdsa_utils.c **** 
  54:C:/Users/Yushev/git/wpcqi-optiga-trust-charge/optiga/examples/utilities\ecdsa_utils.c **** // ASN.1 DER VALUE field offset
  55:C:/Users/Yushev/git/wpcqi-optiga-trust-charge/optiga/examples/utilities\ecdsa_utils.c **** // Only for this implementation!
  56:C:/Users/Yushev/git/wpcqi-optiga-trust-charge/optiga/examples/utilities\ecdsa_utils.c **** #define ASN1_DER_VAL_OFFSET 2
  57:C:/Users/Yushev/git/wpcqi-optiga-trust-charge/optiga/examples/utilities\ecdsa_utils.c **** 
  58:C:/Users/Yushev/git/wpcqi-optiga-trust-charge/optiga/examples/utilities\ecdsa_utils.c **** // ASN.1 DER Tag for INTEGER
  59:C:/Users/Yushev/git/wpcqi-optiga-trust-charge/optiga/examples/utilities\ecdsa_utils.c **** #define DER_TAG_INTEGER 0x02
  60:C:/Users/Yushev/git/wpcqi-optiga-trust-charge/optiga/examples/utilities\ecdsa_utils.c **** 
  61:C:/Users/Yushev/git/wpcqi-optiga-trust-charge/optiga/examples/utilities\ecdsa_utils.c **** // ASN.1 DER Tag for SEQUENCE
  62:C:/Users/Yushev/git/wpcqi-optiga-trust-charge/optiga/examples/utilities\ecdsa_utils.c **** #define DER_TAG_SEQUENCE 0x30
  63:C:/Users/Yushev/git/wpcqi-optiga-trust-charge/optiga/examples/utilities\ecdsa_utils.c **** 
  64:C:/Users/Yushev/git/wpcqi-optiga-trust-charge/optiga/examples/utilities\ecdsa_utils.c **** #define DER_UINT_MASK 0x80
  65:C:/Users/Yushev/git/wpcqi-optiga-trust-charge/optiga/examples/utilities\ecdsa_utils.c **** 
  66:C:/Users/Yushev/git/wpcqi-optiga-trust-charge/optiga/examples/utilities\ecdsa_utils.c **** /**
  67:C:/Users/Yushev/git/wpcqi-optiga-trust-charge/optiga/examples/utilities\ecdsa_utils.c ****  * @brief Encodes a byte buffer as unsigned ASN.1 DER INTEGER
  68:C:/Users/Yushev/git/wpcqi-optiga-trust-charge/optiga/examples/utilities\ecdsa_utils.c ****  *
  69:C:/Users/Yushev/git/wpcqi-optiga-trust-charge/optiga/examples/utilities\ecdsa_utils.c ****  * @param  data[in]            Buffer containing the bytes to be encoded
  70:C:/Users/Yushev/git/wpcqi-optiga-trust-charge/optiga/examples/utilities\ecdsa_utils.c ****  * @param  data_len[in]        Length of the data buffer
  71:C:/Users/Yushev/git/wpcqi-optiga-trust-charge/optiga/examples/utilities\ecdsa_utils.c ****  * @param  out_buf[out]        Output buffer for the encoded ASN.1 bytes
  72:C:/Users/Yushev/git/wpcqi-optiga-trust-charge/optiga/examples/utilities\ecdsa_utils.c ****  * @param  out_buf_len[in]     Size of the out_buf buffer
  73:C:/Users/Yushev/git/wpcqi-optiga-trust-charge/optiga/examples/utilities\ecdsa_utils.c ****  * @return The number of bytes of the ASN.1 encoded stream on success, 0 on error
  74:C:/Users/Yushev/git/wpcqi-optiga-trust-charge/optiga/examples/utilities\ecdsa_utils.c ****  * @note   The parameters to this function must not be NULL.
  75:C:/Users/Yushev/git/wpcqi-optiga-trust-charge/optiga/examples/utilities\ecdsa_utils.c ****  */
  76:C:/Users/Yushev/git/wpcqi-optiga-trust-charge/optiga/examples/utilities\ecdsa_utils.c **** static size_t encode_der_integer(const uint8_t* data, size_t data_len,
  77:C:/Users/Yushev/git/wpcqi-optiga-trust-charge/optiga/examples/utilities\ecdsa_utils.c ****                                  uint8_t* out_buf, size_t out_buf_len)
  78:C:/Users/Yushev/git/wpcqi-optiga-trust-charge/optiga/examples/utilities\ecdsa_utils.c **** {
  27              	 .loc 1 78 0
  28              	 .cfi_startproc
  29              	 
  30              	 
  31 0000 80B5     	 push {r7,lr}
  32              	.LCFI0:
  33              	 .cfi_def_cfa_offset 8
  34              	 .cfi_offset 7,-8
  35              	 .cfi_offset 14,-4
  36 0002 8EB0     	 sub sp,sp,#56
  37              	.LCFI1:
  38              	 .cfi_def_cfa_offset 64
  39 0004 00AF     	 add r7,sp,#0
  40              	.LCFI2:
  41              	 .cfi_def_cfa_register 7
  42 0006 F860     	 str r0,[r7,#12]
  43 0008 B960     	 str r1,[r7,#8]
  44 000a 7A60     	 str r2,[r7,#4]
  45 000c 3B60     	 str r3,[r7]
  79:C:/Users/Yushev/git/wpcqi-optiga-trust-charge/optiga/examples/utilities\ecdsa_utils.c ****     // all write access must be smaller or equal to this pointer
  80:C:/Users/Yushev/git/wpcqi-optiga-trust-charge/optiga/examples/utilities\ecdsa_utils.c ****     const uint8_t* const out_end = out_buf + out_buf_len - 1;
  46              	 .loc 1 80 0
  47 000e 3B68     	 ldr r3,[r7]
  48 0010 013B     	 subs r3,r3,#1
  49 0012 7A68     	 ldr r2,[r7,#4]
  50 0014 1344     	 add r3,r3,r2
  51 0016 FB62     	 str r3,[r7,#44]
  81:C:/Users/Yushev/git/wpcqi-optiga-trust-charge/optiga/examples/utilities\ecdsa_utils.c **** 
  82:C:/Users/Yushev/git/wpcqi-optiga-trust-charge/optiga/examples/utilities\ecdsa_utils.c ****     // fixed position fields
  83:C:/Users/Yushev/git/wpcqi-optiga-trust-charge/optiga/examples/utilities\ecdsa_utils.c ****     uint8_t* const tag_field = &out_buf[ASN1_DER_TAG_OFFSET];
  52              	 .loc 1 83 0
  53 0018 7B68     	 ldr r3,[r7,#4]
  54 001a BB62     	 str r3,[r7,#40]
  84:C:/Users/Yushev/git/wpcqi-optiga-trust-charge/optiga/examples/utilities\ecdsa_utils.c ****     uint8_t* const length_field = &out_buf[ASN1_DER_LEN_OFFSET];
  55              	 .loc 1 84 0
  56 001c 7B68     	 ldr r3,[r7,#4]
  57 001e 0133     	 adds r3,r3,#1
  58 0020 7B62     	 str r3,[r7,#36]
  85:C:/Users/Yushev/git/wpcqi-optiga-trust-charge/optiga/examples/utilities\ecdsa_utils.c ****     uint8_t* const integer_field_start = &out_buf[ASN1_DER_VAL_OFFSET];
  59              	 .loc 1 85 0
  60 0022 7B68     	 ldr r3,[r7,#4]
  61 0024 0233     	 adds r3,r3,#2
  62 0026 3B62     	 str r3,[r7,#32]
  86:C:/Users/Yushev/git/wpcqi-optiga-trust-charge/optiga/examples/utilities\ecdsa_utils.c **** 
  87:C:/Users/Yushev/git/wpcqi-optiga-trust-charge/optiga/examples/utilities\ecdsa_utils.c ****     // write pointer
  88:C:/Users/Yushev/git/wpcqi-optiga-trust-charge/optiga/examples/utilities\ecdsa_utils.c ****     uint8_t* integer_field_cur = integer_field_start;
  63              	 .loc 1 88 0
  64 0028 3B6A     	 ldr r3,[r7,#32]
  65 002a 7B63     	 str r3,[r7,#52]
  89:C:/Users/Yushev/git/wpcqi-optiga-trust-charge/optiga/examples/utilities\ecdsa_utils.c **** 
  90:C:/Users/Yushev/git/wpcqi-optiga-trust-charge/optiga/examples/utilities\ecdsa_utils.c ****     // search for beginning of integer
  91:C:/Users/Yushev/git/wpcqi-optiga-trust-charge/optiga/examples/utilities\ecdsa_utils.c ****     const uint8_t* cur_data = data;
  66              	 .loc 1 91 0
  67 002c FB68     	 ldr r3,[r7,#12]
  68 002e 3B63     	 str r3,[r7,#48]
  92:C:/Users/Yushev/git/wpcqi-optiga-trust-charge/optiga/examples/utilities\ecdsa_utils.c ****     const uint8_t* const data_end = data + data_len;
  69              	 .loc 1 92 0
  70 0030 FA68     	 ldr r2,[r7,#12]
  71 0032 BB68     	 ldr r3,[r7,#8]
  72 0034 1344     	 add r3,r3,r2
  73 0036 FB61     	 str r3,[r7,#28]
  93:C:/Users/Yushev/git/wpcqi-optiga-trust-charge/optiga/examples/utilities\ecdsa_utils.c **** 
  94:C:/Users/Yushev/git/wpcqi-optiga-trust-charge/optiga/examples/utilities\ecdsa_utils.c ****     // check if something to encode, else next loop condition overflows
  95:C:/Users/Yushev/git/wpcqi-optiga-trust-charge/optiga/examples/utilities\ecdsa_utils.c ****     if (data_len == 0) {
  74              	 .loc 1 95 0
  75 0038 BB68     	 ldr r3,[r7,#8]
  76 003a 002B     	 cmp r3,#0
  77 003c 01D1     	 bne .L2
  96:C:/Users/Yushev/git/wpcqi-optiga-trust-charge/optiga/examples/utilities\ecdsa_utils.c ****         return 0;
  78              	 .loc 1 96 0
  79 003e 0023     	 movs r3,#0
  80 0040 44E0     	 b .L3
  81              	.L2:
  97:C:/Users/Yushev/git/wpcqi-optiga-trust-charge/optiga/examples/utilities\ecdsa_utils.c ****     }
  98:C:/Users/Yushev/git/wpcqi-optiga-trust-charge/optiga/examples/utilities\ecdsa_utils.c **** 
  99:C:/Users/Yushev/git/wpcqi-optiga-trust-charge/optiga/examples/utilities\ecdsa_utils.c ****     // don't check the last byte, it will always be a data byte
 100:C:/Users/Yushev/git/wpcqi-optiga-trust-charge/optiga/examples/utilities\ecdsa_utils.c ****     for(; cur_data < (data_end - 1); cur_data++) {
  82              	 .loc 1 100 0
  83 0042 07E0     	 b .L4
  84              	.L7:
 101:C:/Users/Yushev/git/wpcqi-optiga-trust-charge/optiga/examples/utilities\ecdsa_utils.c ****         if (*cur_data != 0x00) {
  85              	 .loc 1 101 0
  86 0044 3B6B     	 ldr r3,[r7,#48]
  87 0046 1B78     	 ldrb r3,[r3]
  88 0048 002B     	 cmp r3,#0
  89 004a 00D0     	 beq .L5
 102:C:/Users/Yushev/git/wpcqi-optiga-trust-charge/optiga/examples/utilities\ecdsa_utils.c ****             break;
  90              	 .loc 1 102 0
  91 004c 07E0     	 b .L6
  92              	.L5:
 100:C:/Users/Yushev/git/wpcqi-optiga-trust-charge/optiga/examples/utilities\ecdsa_utils.c ****         if (*cur_data != 0x00) {
  93              	 .loc 1 100 0
  94 004e 3B6B     	 ldr r3,[r7,#48]
  95 0050 0133     	 adds r3,r3,#1
  96 0052 3B63     	 str r3,[r7,#48]
  97              	.L4:
 100:C:/Users/Yushev/git/wpcqi-optiga-trust-charge/optiga/examples/utilities\ecdsa_utils.c ****         if (*cur_data != 0x00) {
  98              	 .loc 1 100 0 is_stmt 0 discriminator 1
  99 0054 FB69     	 ldr r3,[r7,#28]
 100 0056 5A1E     	 subs r2,r3,#1
 101 0058 3B6B     	 ldr r3,[r7,#48]
 102 005a 9A42     	 cmp r2,r3
 103 005c F2D8     	 bhi .L7
 104              	.L6:
 103:C:/Users/Yushev/git/wpcqi-optiga-trust-charge/optiga/examples/utilities\ecdsa_utils.c ****         }
 104:C:/Users/Yushev/git/wpcqi-optiga-trust-charge/optiga/examples/utilities\ecdsa_utils.c ****     }
 105:C:/Users/Yushev/git/wpcqi-optiga-trust-charge/optiga/examples/utilities\ecdsa_utils.c **** 
 106:C:/Users/Yushev/git/wpcqi-optiga-trust-charge/optiga/examples/utilities\ecdsa_utils.c ****     // check if stuffing byte needed
 107:C:/Users/Yushev/git/wpcqi-optiga-trust-charge/optiga/examples/utilities\ecdsa_utils.c ****     if (*cur_data & DER_UINT_MASK) {
 105              	 .loc 1 107 0 is_stmt 1
 106 005e 3B6B     	 ldr r3,[r7,#48]
 107 0060 1B78     	 ldrb r3,[r3]
 108 0062 DBB2     	 uxtb r3,r3
 109 0064 5BB2     	 sxtb r3,r3
 110 0066 002B     	 cmp r3,#0
 111 0068 02DA     	 bge .L8
 108:C:/Users/Yushev/git/wpcqi-optiga-trust-charge/optiga/examples/utilities\ecdsa_utils.c ****         integer_field_cur++;
 112              	 .loc 1 108 0
 113 006a 7B6B     	 ldr r3,[r7,#52]
 114 006c 0133     	 adds r3,r3,#1
 115 006e 7B63     	 str r3,[r7,#52]
 116              	.L8:
 109:C:/Users/Yushev/git/wpcqi-optiga-trust-charge/optiga/examples/utilities\ecdsa_utils.c ****     }
 110:C:/Users/Yushev/git/wpcqi-optiga-trust-charge/optiga/examples/utilities\ecdsa_utils.c **** 
 111:C:/Users/Yushev/git/wpcqi-optiga-trust-charge/optiga/examples/utilities\ecdsa_utils.c ****     // calculate number of bytes left in data
 112:C:/Users/Yushev/git/wpcqi-optiga-trust-charge/optiga/examples/utilities\ecdsa_utils.c ****     const size_t write_length = data_end - cur_data;
 117              	 .loc 1 112 0
 118 0070 FA69     	 ldr r2,[r7,#28]
 119 0072 3B6B     	 ldr r3,[r7,#48]
 120 0074 D31A     	 subs r3,r2,r3
 121 0076 BB61     	 str r3,[r7,#24]
 113:C:/Users/Yushev/git/wpcqi-optiga-trust-charge/optiga/examples/utilities\ecdsa_utils.c ****     // check if it fits in the output buffer
 114:C:/Users/Yushev/git/wpcqi-optiga-trust-charge/optiga/examples/utilities\ecdsa_utils.c ****     if ((integer_field_cur + write_length - 1) > out_end) {
 122              	 .loc 1 114 0
 123 0078 BB69     	 ldr r3,[r7,#24]
 124 007a 013B     	 subs r3,r3,#1
 125 007c 7A6B     	 ldr r2,[r7,#52]
 126 007e 1A44     	 add r2,r2,r3
 127 0080 FB6A     	 ldr r3,[r7,#44]
 128 0082 9A42     	 cmp r2,r3
 129 0084 01D9     	 bls .L9
 115:C:/Users/Yushev/git/wpcqi-optiga-trust-charge/optiga/examples/utilities\ecdsa_utils.c ****         // Prevented out-of-bounds write
 116:C:/Users/Yushev/git/wpcqi-optiga-trust-charge/optiga/examples/utilities\ecdsa_utils.c ****         return 0;
 130              	 .loc 1 116 0
 131 0086 0023     	 movs r3,#0
 132 0088 20E0     	 b .L3
 133              	.L9:
 117:C:/Users/Yushev/git/wpcqi-optiga-trust-charge/optiga/examples/utilities\ecdsa_utils.c ****     }
 118:C:/Users/Yushev/git/wpcqi-optiga-trust-charge/optiga/examples/utilities\ecdsa_utils.c **** 
 119:C:/Users/Yushev/git/wpcqi-optiga-trust-charge/optiga/examples/utilities\ecdsa_utils.c ****     // ensure we can encode the length
 120:C:/Users/Yushev/git/wpcqi-optiga-trust-charge/optiga/examples/utilities\ecdsa_utils.c ****     const size_t integer_len = (integer_field_cur + write_length) - integer_field_start;
 134              	 .loc 1 120 0
 135 008a 7A6B     	 ldr r2,[r7,#52]
 136 008c BB69     	 ldr r3,[r7,#24]
 137 008e 1344     	 add r3,r3,r2
 138 0090 1A46     	 mov r2,r3
 139 0092 3B6A     	 ldr r3,[r7,#32]
 140 0094 D31A     	 subs r3,r2,r3
 141 0096 7B61     	 str r3,[r7,#20]
 121:C:/Users/Yushev/git/wpcqi-optiga-trust-charge/optiga/examples/utilities\ecdsa_utils.c ****     if (integer_len > DER_INTEGER_MAX_LEN) {
 142              	 .loc 1 121 0
 143 0098 7B69     	 ldr r3,[r7,#20]
 144 009a 7F2B     	 cmp r3,#127
 145 009c 01D9     	 bls .L10
 122:C:/Users/Yushev/git/wpcqi-optiga-trust-charge/optiga/examples/utilities\ecdsa_utils.c ****         // This implementation support single-byte LENGTH fields only
 123:C:/Users/Yushev/git/wpcqi-optiga-trust-charge/optiga/examples/utilities\ecdsa_utils.c ****         return 0;
 146              	 .loc 1 123 0
 147 009e 0023     	 movs r3,#0
 148 00a0 14E0     	 b .L3
 149              	.L10:
 124:C:/Users/Yushev/git/wpcqi-optiga-trust-charge/optiga/examples/utilities\ecdsa_utils.c ****     }
 125:C:/Users/Yushev/git/wpcqi-optiga-trust-charge/optiga/examples/utilities\ecdsa_utils.c **** 
 126:C:/Users/Yushev/git/wpcqi-optiga-trust-charge/optiga/examples/utilities\ecdsa_utils.c ****     // commit writes
 127:C:/Users/Yushev/git/wpcqi-optiga-trust-charge/optiga/examples/utilities\ecdsa_utils.c ****     memcpy(integer_field_cur, cur_data, write_length);
 150              	 .loc 1 127 0
 151 00a2 786B     	 ldr r0,[r7,#52]
 152 00a4 396B     	 ldr r1,[r7,#48]
 153 00a6 BA69     	 ldr r2,[r7,#24]
 154 00a8 FFF7FEFF 	 bl memcpy
 128:C:/Users/Yushev/git/wpcqi-optiga-trust-charge/optiga/examples/utilities\ecdsa_utils.c ****     *tag_field = DER_TAG_INTEGER;
 155              	 .loc 1 128 0
 156 00ac BB6A     	 ldr r3,[r7,#40]
 157 00ae 0222     	 movs r2,#2
 158 00b0 1A70     	 strb r2,[r3]
 129:C:/Users/Yushev/git/wpcqi-optiga-trust-charge/optiga/examples/utilities\ecdsa_utils.c ****     *length_field = integer_len;
 159              	 .loc 1 129 0
 160 00b2 7B69     	 ldr r3,[r7,#20]
 161 00b4 DAB2     	 uxtb r2,r3
 162 00b6 7B6A     	 ldr r3,[r7,#36]
 163 00b8 1A70     	 strb r2,[r3]
 130:C:/Users/Yushev/git/wpcqi-optiga-trust-charge/optiga/examples/utilities\ecdsa_utils.c ****     // check if we have a stuffing byte, and explicitly zero it
 131:C:/Users/Yushev/git/wpcqi-optiga-trust-charge/optiga/examples/utilities\ecdsa_utils.c ****     if (integer_field_cur != integer_field_start) {
 164              	 .loc 1 131 0
 165 00ba 7A6B     	 ldr r2,[r7,#52]
 166 00bc 3B6A     	 ldr r3,[r7,#32]
 167 00be 9A42     	 cmp r2,r3
 168 00c0 02D0     	 beq .L11
 132:C:/Users/Yushev/git/wpcqi-optiga-trust-charge/optiga/examples/utilities\ecdsa_utils.c ****         *integer_field_start = 0x00;
 169              	 .loc 1 132 0
 170 00c2 3B6A     	 ldr r3,[r7,#32]
 171 00c4 0022     	 movs r2,#0
 172 00c6 1A70     	 strb r2,[r3]
 173              	.L11:
 133:C:/Users/Yushev/git/wpcqi-optiga-trust-charge/optiga/examples/utilities\ecdsa_utils.c ****     }
 134:C:/Users/Yushev/git/wpcqi-optiga-trust-charge/optiga/examples/utilities\ecdsa_utils.c **** 
 135:C:/Users/Yushev/git/wpcqi-optiga-trust-charge/optiga/examples/utilities\ecdsa_utils.c ****     return integer_len + ASN1_DER_VAL_OFFSET;
 174              	 .loc 1 135 0
 175 00c8 7B69     	 ldr r3,[r7,#20]
 176 00ca 0233     	 adds r3,r3,#2
 177              	.L3:
 136:C:/Users/Yushev/git/wpcqi-optiga-trust-charge/optiga/examples/utilities\ecdsa_utils.c **** }
 178              	 .loc 1 136 0
 179 00cc 1846     	 mov r0,r3
 180 00ce 3837     	 adds r7,r7,#56
 181              	.LCFI3:
 182              	 .cfi_def_cfa_offset 8
 183 00d0 BD46     	 mov sp,r7
 184              	.LCFI4:
 185              	 .cfi_def_cfa_register 13
 186              	 
 187 00d2 80BD     	 pop {r7,pc}
 188              	 .cfi_endproc
 189              	.LFE0:
 191              	 .section .text.ecdsa_rs_to_asn1_integers,"ax",%progbits
 192              	 .align 2
 193              	 .global ecdsa_rs_to_asn1_integers
 194              	 .thumb
 195              	 .thumb_func
 197              	ecdsa_rs_to_asn1_integers:
 198              	.LFB1:
 137:C:/Users/Yushev/git/wpcqi-optiga-trust-charge/optiga/examples/utilities\ecdsa_utils.c **** 
 138:C:/Users/Yushev/git/wpcqi-optiga-trust-charge/optiga/examples/utilities\ecdsa_utils.c **** bool ecdsa_rs_to_asn1_integers(const uint8_t* r, const uint8_t* s, size_t rs_len,
 139:C:/Users/Yushev/git/wpcqi-optiga-trust-charge/optiga/examples/utilities\ecdsa_utils.c ****                                uint8_t* asn_sig, size_t* asn_sig_len)
 140:C:/Users/Yushev/git/wpcqi-optiga-trust-charge/optiga/examples/utilities\ecdsa_utils.c **** {
 199              	 .loc 1 140 0
 200              	 .cfi_startproc
 201              	 
 202              	 
 203 0000 80B5     	 push {r7,lr}
 204              	.LCFI5:
 205              	 .cfi_def_cfa_offset 8
 206              	 .cfi_offset 7,-8
 207              	 .cfi_offset 14,-4
 208 0002 88B0     	 sub sp,sp,#32
 209              	.LCFI6:
 210              	 .cfi_def_cfa_offset 40
 211 0004 00AF     	 add r7,sp,#0
 212              	.LCFI7:
 213              	 .cfi_def_cfa_register 7
 214 0006 F860     	 str r0,[r7,#12]
 215 0008 B960     	 str r1,[r7,#8]
 216 000a 7A60     	 str r2,[r7,#4]
 217 000c 3B60     	 str r3,[r7]
 141:C:/Users/Yushev/git/wpcqi-optiga-trust-charge/optiga/examples/utilities\ecdsa_utils.c ****     if (r == NULL || s == NULL || asn_sig == NULL || asn_sig_len == NULL) {
 218              	 .loc 1 141 0
 219 000e FB68     	 ldr r3,[r7,#12]
 220 0010 002B     	 cmp r3,#0
 221 0012 08D0     	 beq .L13
 222              	 .loc 1 141 0 is_stmt 0 discriminator 1
 223 0014 BB68     	 ldr r3,[r7,#8]
 224 0016 002B     	 cmp r3,#0
 225 0018 05D0     	 beq .L13
 226              	 .loc 1 141 0 discriminator 2
 227 001a 3B68     	 ldr r3,[r7]
 228 001c 002B     	 cmp r3,#0
 229 001e 02D0     	 beq .L13
 230              	 .loc 1 141 0 discriminator 3
 231 0020 BB6A     	 ldr r3,[r7,#40]
 232 0022 002B     	 cmp r3,#0
 233 0024 01D1     	 bne .L14
 234              	.L13:
 142:C:/Users/Yushev/git/wpcqi-optiga-trust-charge/optiga/examples/utilities\ecdsa_utils.c ****         // No NULL paramters allowed
 143:C:/Users/Yushev/git/wpcqi-optiga-trust-charge/optiga/examples/utilities\ecdsa_utils.c ****         return false;
 235              	 .loc 1 143 0 is_stmt 1
 236 0026 0023     	 movs r3,#0
 237 0028 27E0     	 b .L15
 238              	.L14:
 144:C:/Users/Yushev/git/wpcqi-optiga-trust-charge/optiga/examples/utilities\ecdsa_utils.c ****     }
 145:C:/Users/Yushev/git/wpcqi-optiga-trust-charge/optiga/examples/utilities\ecdsa_utils.c **** 
 146:C:/Users/Yushev/git/wpcqi-optiga-trust-charge/optiga/examples/utilities\ecdsa_utils.c ****     // encode R component
 147:C:/Users/Yushev/git/wpcqi-optiga-trust-charge/optiga/examples/utilities\ecdsa_utils.c ****     const size_t out_len_r = encode_der_integer(r, rs_len, asn_sig, *asn_sig_len);
 239              	 .loc 1 147 0
 240 002a BB6A     	 ldr r3,[r7,#40]
 241 002c 1B68     	 ldr r3,[r3]
 242 002e F868     	 ldr r0,[r7,#12]
 243 0030 7968     	 ldr r1,[r7,#4]
 244 0032 3A68     	 ldr r2,[r7]
 245 0034 FFF7FEFF 	 bl encode_der_integer
 246 0038 F861     	 str r0,[r7,#28]
 148:C:/Users/Yushev/git/wpcqi-optiga-trust-charge/optiga/examples/utilities\ecdsa_utils.c ****     if (out_len_r == 0) {
 247              	 .loc 1 148 0
 248 003a FB69     	 ldr r3,[r7,#28]
 249 003c 002B     	 cmp r3,#0
 250 003e 01D1     	 bne .L16
 149:C:/Users/Yushev/git/wpcqi-optiga-trust-charge/optiga/examples/utilities\ecdsa_utils.c ****         // error while encoding R as DER INTEGER
 150:C:/Users/Yushev/git/wpcqi-optiga-trust-charge/optiga/examples/utilities\ecdsa_utils.c ****         return false;
 251              	 .loc 1 150 0
 252 0040 0023     	 movs r3,#0
 253 0042 1AE0     	 b .L15
 254              	.L16:
 151:C:/Users/Yushev/git/wpcqi-optiga-trust-charge/optiga/examples/utilities\ecdsa_utils.c ****     }
 152:C:/Users/Yushev/git/wpcqi-optiga-trust-charge/optiga/examples/utilities\ecdsa_utils.c **** 
 153:C:/Users/Yushev/git/wpcqi-optiga-trust-charge/optiga/examples/utilities\ecdsa_utils.c ****     uint8_t* const s_start = asn_sig + out_len_r;
 255              	 .loc 1 153 0
 256 0044 3A68     	 ldr r2,[r7]
 257 0046 FB69     	 ldr r3,[r7,#28]
 258 0048 1344     	 add r3,r3,r2
 259 004a BB61     	 str r3,[r7,#24]
 154:C:/Users/Yushev/git/wpcqi-optiga-trust-charge/optiga/examples/utilities\ecdsa_utils.c ****     const size_t s_len = *asn_sig_len - out_len_r;
 260              	 .loc 1 154 0
 261 004c BB6A     	 ldr r3,[r7,#40]
 262 004e 1A68     	 ldr r2,[r3]
 263 0050 FB69     	 ldr r3,[r7,#28]
 264 0052 D31A     	 subs r3,r2,r3
 265 0054 7B61     	 str r3,[r7,#20]
 155:C:/Users/Yushev/git/wpcqi-optiga-trust-charge/optiga/examples/utilities\ecdsa_utils.c **** 
 156:C:/Users/Yushev/git/wpcqi-optiga-trust-charge/optiga/examples/utilities\ecdsa_utils.c ****     // encode S component
 157:C:/Users/Yushev/git/wpcqi-optiga-trust-charge/optiga/examples/utilities\ecdsa_utils.c ****     const size_t out_len_s = encode_der_integer(s, rs_len, s_start, s_len);
 266              	 .loc 1 157 0
 267 0056 B868     	 ldr r0,[r7,#8]
 268 0058 7968     	 ldr r1,[r7,#4]
 269 005a BA69     	 ldr r2,[r7,#24]
 270 005c 7B69     	 ldr r3,[r7,#20]
 271 005e FFF7FEFF 	 bl encode_der_integer
 272 0062 3861     	 str r0,[r7,#16]
 158:C:/Users/Yushev/git/wpcqi-optiga-trust-charge/optiga/examples/utilities\ecdsa_utils.c ****     if (out_len_s == 0) {
 273              	 .loc 1 158 0
 274 0064 3B69     	 ldr r3,[r7,#16]
 275 0066 002B     	 cmp r3,#0
 276 0068 01D1     	 bne .L17
 159:C:/Users/Yushev/git/wpcqi-optiga-trust-charge/optiga/examples/utilities\ecdsa_utils.c ****         // error while encoding S as DER INTEGER
 160:C:/Users/Yushev/git/wpcqi-optiga-trust-charge/optiga/examples/utilities\ecdsa_utils.c ****         return false;
 277              	 .loc 1 160 0
 278 006a 0023     	 movs r3,#0
 279 006c 05E0     	 b .L15
 280              	.L17:
 161:C:/Users/Yushev/git/wpcqi-optiga-trust-charge/optiga/examples/utilities\ecdsa_utils.c ****     }
 162:C:/Users/Yushev/git/wpcqi-optiga-trust-charge/optiga/examples/utilities\ecdsa_utils.c **** 
 163:C:/Users/Yushev/git/wpcqi-optiga-trust-charge/optiga/examples/utilities\ecdsa_utils.c ****     *asn_sig_len = out_len_r + out_len_s;
 281              	 .loc 1 163 0
 282 006e FA69     	 ldr r2,[r7,#28]
 283 0070 3B69     	 ldr r3,[r7,#16]
 284 0072 1A44     	 add r2,r2,r3
 285 0074 BB6A     	 ldr r3,[r7,#40]
 286 0076 1A60     	 str r2,[r3]
 164:C:/Users/Yushev/git/wpcqi-optiga-trust-charge/optiga/examples/utilities\ecdsa_utils.c **** 
 165:C:/Users/Yushev/git/wpcqi-optiga-trust-charge/optiga/examples/utilities\ecdsa_utils.c ****     return true;
 287              	 .loc 1 165 0
 288 0078 0123     	 movs r3,#1
 289              	.L15:
 166:C:/Users/Yushev/git/wpcqi-optiga-trust-charge/optiga/examples/utilities\ecdsa_utils.c **** }
 290              	 .loc 1 166 0
 291 007a 1846     	 mov r0,r3
 292 007c 2037     	 adds r7,r7,#32
 293              	.LCFI8:
 294              	 .cfi_def_cfa_offset 8
 295 007e BD46     	 mov sp,r7
 296              	.LCFI9:
 297              	 .cfi_def_cfa_register 13
 298              	 
 299 0080 80BD     	 pop {r7,pc}
 300              	 .cfi_endproc
 301              	.LFE1:
 303 0082 00BF     	 .section .text.ecdsa_rs_to_asn1_signature,"ax",%progbits
 304              	 .align 2
 305              	 .global ecdsa_rs_to_asn1_signature
 306              	 .thumb
 307              	 .thumb_func
 309              	ecdsa_rs_to_asn1_signature:
 310              	.LFB2:
 167:C:/Users/Yushev/git/wpcqi-optiga-trust-charge/optiga/examples/utilities\ecdsa_utils.c **** 
 168:C:/Users/Yushev/git/wpcqi-optiga-trust-charge/optiga/examples/utilities\ecdsa_utils.c **** bool ecdsa_rs_to_asn1_signature(const uint8_t* r, const uint8_t* s, size_t rs_len,
 169:C:/Users/Yushev/git/wpcqi-optiga-trust-charge/optiga/examples/utilities\ecdsa_utils.c ****                                 uint8_t* asn_sig, size_t* asn_sig_len)
 170:C:/Users/Yushev/git/wpcqi-optiga-trust-charge/optiga/examples/utilities\ecdsa_utils.c **** {
 311              	 .loc 1 170 0
 312              	 .cfi_startproc
 313              	 
 314              	 
 315 0000 80B5     	 push {r7,lr}
 316              	.LCFI10:
 317              	 .cfi_def_cfa_offset 8
 318              	 .cfi_offset 7,-8
 319              	 .cfi_offset 14,-4
 320 0002 8AB0     	 sub sp,sp,#40
 321              	.LCFI11:
 322              	 .cfi_def_cfa_offset 48
 323 0004 02AF     	 add r7,sp,#8
 324              	.LCFI12:
 325              	 .cfi_def_cfa 7,40
 326 0006 F860     	 str r0,[r7,#12]
 327 0008 B960     	 str r1,[r7,#8]
 328 000a 7A60     	 str r2,[r7,#4]
 329 000c 3B60     	 str r3,[r7]
 171:C:/Users/Yushev/git/wpcqi-optiga-trust-charge/optiga/examples/utilities\ecdsa_utils.c ****     if (r == NULL || s == NULL || asn_sig == NULL || asn_sig_len == NULL) {
 330              	 .loc 1 171 0
 331 000e FB68     	 ldr r3,[r7,#12]
 332 0010 002B     	 cmp r3,#0
 333 0012 08D0     	 beq .L19
 334              	 .loc 1 171 0 is_stmt 0 discriminator 1
 335 0014 BB68     	 ldr r3,[r7,#8]
 336 0016 002B     	 cmp r3,#0
 337 0018 05D0     	 beq .L19
 338              	 .loc 1 171 0 discriminator 2
 339 001a 3B68     	 ldr r3,[r7]
 340 001c 002B     	 cmp r3,#0
 341 001e 02D0     	 beq .L19
 342              	 .loc 1 171 0 discriminator 3
 343 0020 BB6A     	 ldr r3,[r7,#40]
 344 0022 002B     	 cmp r3,#0
 345 0024 01D1     	 bne .L20
 346              	.L19:
 172:C:/Users/Yushev/git/wpcqi-optiga-trust-charge/optiga/examples/utilities\ecdsa_utils.c ****         // No NULL paramters allowed
 173:C:/Users/Yushev/git/wpcqi-optiga-trust-charge/optiga/examples/utilities\ecdsa_utils.c ****         return false;
 347              	 .loc 1 173 0 is_stmt 1
 348 0026 0023     	 movs r3,#0
 349 0028 33E0     	 b .L25
 350              	.L20:
 174:C:/Users/Yushev/git/wpcqi-optiga-trust-charge/optiga/examples/utilities\ecdsa_utils.c ****     }
 175:C:/Users/Yushev/git/wpcqi-optiga-trust-charge/optiga/examples/utilities\ecdsa_utils.c **** 
 176:C:/Users/Yushev/git/wpcqi-optiga-trust-charge/optiga/examples/utilities\ecdsa_utils.c ****     if (*asn_sig_len < ASN1_DER_VAL_OFFSET) {
 351              	 .loc 1 176 0
 352 002a BB6A     	 ldr r3,[r7,#40]
 353 002c 1B68     	 ldr r3,[r3]
 354 002e 012B     	 cmp r3,#1
 355 0030 01D8     	 bhi .L22
 177:C:/Users/Yushev/git/wpcqi-optiga-trust-charge/optiga/examples/utilities\ecdsa_utils.c ****         // Not enough space, can't encode anything
 178:C:/Users/Yushev/git/wpcqi-optiga-trust-charge/optiga/examples/utilities\ecdsa_utils.c ****         return false;
 356              	 .loc 1 178 0
 357 0032 0023     	 movs r3,#0
 358 0034 2DE0     	 b .L25
 359              	.L22:
 179:C:/Users/Yushev/git/wpcqi-optiga-trust-charge/optiga/examples/utilities\ecdsa_utils.c ****     }
 180:C:/Users/Yushev/git/wpcqi-optiga-trust-charge/optiga/examples/utilities\ecdsa_utils.c **** 
 181:C:/Users/Yushev/git/wpcqi-optiga-trust-charge/optiga/examples/utilities\ecdsa_utils.c ****      // fixed position fields
 182:C:/Users/Yushev/git/wpcqi-optiga-trust-charge/optiga/examples/utilities\ecdsa_utils.c ****     uint8_t* const tag_field = &asn_sig[ASN1_DER_TAG_OFFSET];
 360              	 .loc 1 182 0
 361 0036 3B68     	 ldr r3,[r7]
 362 0038 FB61     	 str r3,[r7,#28]
 183:C:/Users/Yushev/git/wpcqi-optiga-trust-charge/optiga/examples/utilities\ecdsa_utils.c ****     uint8_t* const length_field = &asn_sig[ASN1_DER_LEN_OFFSET];
 363              	 .loc 1 183 0
 364 003a 3B68     	 ldr r3,[r7]
 365 003c 0133     	 adds r3,r3,#1
 366 003e BB61     	 str r3,[r7,#24]
 184:C:/Users/Yushev/git/wpcqi-optiga-trust-charge/optiga/examples/utilities\ecdsa_utils.c ****     uint8_t* const value_field_start = &asn_sig[ASN1_DER_VAL_OFFSET];
 367              	 .loc 1 184 0
 368 0040 3B68     	 ldr r3,[r7]
 369 0042 0233     	 adds r3,r3,#2
 370 0044 7B61     	 str r3,[r7,#20]
 185:C:/Users/Yushev/git/wpcqi-optiga-trust-charge/optiga/examples/utilities\ecdsa_utils.c **** 
 186:C:/Users/Yushev/git/wpcqi-optiga-trust-charge/optiga/examples/utilities\ecdsa_utils.c ****     // compute size left after SEQUENCE header TAG and LENGTH fields
 187:C:/Users/Yushev/git/wpcqi-optiga-trust-charge/optiga/examples/utilities\ecdsa_utils.c ****     size_t integers_len = *asn_sig_len - ASN1_DER_VAL_OFFSET;
 371              	 .loc 1 187 0
 372 0046 BB6A     	 ldr r3,[r7,#40]
 373 0048 1B68     	 ldr r3,[r3]
 374 004a 023B     	 subs r3,r3,#2
 375 004c 3B61     	 str r3,[r7,#16]
 188:C:/Users/Yushev/git/wpcqi-optiga-trust-charge/optiga/examples/utilities\ecdsa_utils.c **** 
 189:C:/Users/Yushev/git/wpcqi-optiga-trust-charge/optiga/examples/utilities\ecdsa_utils.c ****     if (!ecdsa_rs_to_asn1_integers(r, s, rs_len, value_field_start, &integers_len)) {
 376              	 .loc 1 189 0
 377 004e 07F11003 	 add r3,r7,#16
 378 0052 0093     	 str r3,[sp]
 379 0054 F868     	 ldr r0,[r7,#12]
 380 0056 B968     	 ldr r1,[r7,#8]
 381 0058 7A68     	 ldr r2,[r7,#4]
 382 005a 7B69     	 ldr r3,[r7,#20]
 383 005c FFF7FEFF 	 bl ecdsa_rs_to_asn1_integers
 384 0060 0346     	 mov r3,r0
 385 0062 83F00103 	 eor r3,r3,#1
 386 0066 DBB2     	 uxtb r3,r3
 387 0068 002B     	 cmp r3,#0
 388 006a 01D0     	 beq .L23
 190:C:/Users/Yushev/git/wpcqi-optiga-trust-charge/optiga/examples/utilities\ecdsa_utils.c ****         // Failed to encode R and S as INTEGERs
 191:C:/Users/Yushev/git/wpcqi-optiga-trust-charge/optiga/examples/utilities\ecdsa_utils.c ****         return false;
 389              	 .loc 1 191 0
 390 006c 0023     	 movs r3,#0
 391 006e 10E0     	 b .L25
 392              	.L23:
 192:C:/Users/Yushev/git/wpcqi-optiga-trust-charge/optiga/examples/utilities\ecdsa_utils.c ****     }
 193:C:/Users/Yushev/git/wpcqi-optiga-trust-charge/optiga/examples/utilities\ecdsa_utils.c **** 
 194:C:/Users/Yushev/git/wpcqi-optiga-trust-charge/optiga/examples/utilities\ecdsa_utils.c ****     if (integers_len > DER_SEQUENCE_MAX_LEN) {
 393              	 .loc 1 194 0
 394 0070 3B69     	 ldr r3,[r7,#16]
 395 0072 7F2B     	 cmp r3,#127
 396 0074 01D9     	 bls .L24
 195:C:/Users/Yushev/git/wpcqi-optiga-trust-charge/optiga/examples/utilities\ecdsa_utils.c ****         // This implementation support single-byte LENGTH fields only
 196:C:/Users/Yushev/git/wpcqi-optiga-trust-charge/optiga/examples/utilities\ecdsa_utils.c ****         return false;
 397              	 .loc 1 196 0
 398 0076 0023     	 movs r3,#0
 399 0078 0BE0     	 b .L25
 400              	.L24:
 197:C:/Users/Yushev/git/wpcqi-optiga-trust-charge/optiga/examples/utilities\ecdsa_utils.c ****     }
 198:C:/Users/Yushev/git/wpcqi-optiga-trust-charge/optiga/examples/utilities\ecdsa_utils.c **** 
 199:C:/Users/Yushev/git/wpcqi-optiga-trust-charge/optiga/examples/utilities\ecdsa_utils.c ****     // write SEQUENCE header
 200:C:/Users/Yushev/git/wpcqi-optiga-trust-charge/optiga/examples/utilities\ecdsa_utils.c ****     *tag_field = DER_TAG_SEQUENCE;
 401              	 .loc 1 200 0
 402 007a FB69     	 ldr r3,[r7,#28]
 403 007c 3022     	 movs r2,#48
 404 007e 1A70     	 strb r2,[r3]
 201:C:/Users/Yushev/git/wpcqi-optiga-trust-charge/optiga/examples/utilities\ecdsa_utils.c ****     *length_field = integers_len;
 405              	 .loc 1 201 0
 406 0080 3B69     	 ldr r3,[r7,#16]
 407 0082 DAB2     	 uxtb r2,r3
 408 0084 BB69     	 ldr r3,[r7,#24]
 409 0086 1A70     	 strb r2,[r3]
 202:C:/Users/Yushev/git/wpcqi-optiga-trust-charge/optiga/examples/utilities\ecdsa_utils.c ****     *asn_sig_len = integers_len + ASN1_DER_VAL_OFFSET;
 410              	 .loc 1 202 0
 411 0088 3B69     	 ldr r3,[r7,#16]
 412 008a 9A1C     	 adds r2,r3,#2
 413 008c BB6A     	 ldr r3,[r7,#40]
 414 008e 1A60     	 str r2,[r3]
 203:C:/Users/Yushev/git/wpcqi-optiga-trust-charge/optiga/examples/utilities\ecdsa_utils.c **** 
 204:C:/Users/Yushev/git/wpcqi-optiga-trust-charge/optiga/examples/utilities\ecdsa_utils.c ****     return true;
 415              	 .loc 1 204 0
 416 0090 0123     	 movs r3,#1
 417              	.L25:
 205:C:/Users/Yushev/git/wpcqi-optiga-trust-charge/optiga/examples/utilities\ecdsa_utils.c **** }
 418              	 .loc 1 205 0 discriminator 1
 419 0092 1846     	 mov r0,r3
 420 0094 2037     	 adds r7,r7,#32
 421              	.LCFI13:
 422              	 .cfi_def_cfa_offset 8
 423 0096 BD46     	 mov sp,r7
 424              	.LCFI14:
 425              	 .cfi_def_cfa_register 13
 426              	 
 427 0098 80BD     	 pop {r7,pc}
 428              	 .cfi_endproc
 429              	.LFE2:
 431 009a 00BF     	 .section .text.decode_asn1_uint,"ax",%progbits
 432              	 .align 2
 433              	 .thumb
 434              	 .thumb_func
 436              	decode_asn1_uint:
 437              	.LFB3:
 206:C:/Users/Yushev/git/wpcqi-optiga-trust-charge/optiga/examples/utilities\ecdsa_utils.c **** 
 207:C:/Users/Yushev/git/wpcqi-optiga-trust-charge/optiga/examples/utilities\ecdsa_utils.c **** /**
 208:C:/Users/Yushev/git/wpcqi-optiga-trust-charge/optiga/examples/utilities\ecdsa_utils.c ****  * @brief Decodes an ASN.1 encoded integer to a byte buffer
 209:C:/Users/Yushev/git/wpcqi-optiga-trust-charge/optiga/examples/utilities\ecdsa_utils.c ****  *
 210:C:/Users/Yushev/git/wpcqi-optiga-trust-charge/optiga/examples/utilities\ecdsa_utils.c ****  * @param  asn1[in]            Buffer containing the ASN.1 encoded data
 211:C:/Users/Yushev/git/wpcqi-optiga-trust-charge/optiga/examples/utilities\ecdsa_utils.c ****  * @param  asn1_len[in]        Length of the asn1 buffer
 212:C:/Users/Yushev/git/wpcqi-optiga-trust-charge/optiga/examples/utilities\ecdsa_utils.c ****  * @param  out_int[out]        Output buffer for the decoded integer bytes
 213:C:/Users/Yushev/git/wpcqi-optiga-trust-charge/optiga/examples/utilities\ecdsa_utils.c ****  * @param  out_int_len[in,out] Size of the out_int buffer, contains the number of written bytes aft
 214:C:/Users/Yushev/git/wpcqi-optiga-trust-charge/optiga/examples/utilities\ecdsa_utils.c ****  * @return The number of bytes advanced in the ASN.1 stream on success, 0 on failure
 215:C:/Users/Yushev/git/wpcqi-optiga-trust-charge/optiga/examples/utilities\ecdsa_utils.c ****  * @note   The parameters to this function must not be NULL.
 216:C:/Users/Yushev/git/wpcqi-optiga-trust-charge/optiga/examples/utilities\ecdsa_utils.c ****  */
 217:C:/Users/Yushev/git/wpcqi-optiga-trust-charge/optiga/examples/utilities\ecdsa_utils.c **** static size_t decode_asn1_uint(const uint8_t* asn1, size_t asn1_len,
 218:C:/Users/Yushev/git/wpcqi-optiga-trust-charge/optiga/examples/utilities\ecdsa_utils.c ****                                uint8_t* out_int, size_t* out_int_len)
 219:C:/Users/Yushev/git/wpcqi-optiga-trust-charge/optiga/examples/utilities\ecdsa_utils.c **** {
 438              	 .loc 1 219 0
 439              	 .cfi_startproc
 440              	 
 441              	 
 442 0000 80B5     	 push {r7,lr}
 443              	.LCFI15:
 444              	 .cfi_def_cfa_offset 8
 445              	 .cfi_offset 7,-8
 446              	 .cfi_offset 14,-4
 447 0002 8AB0     	 sub sp,sp,#40
 448              	.LCFI16:
 449              	 .cfi_def_cfa_offset 48
 450 0004 00AF     	 add r7,sp,#0
 451              	.LCFI17:
 452              	 .cfi_def_cfa_register 7
 453 0006 F860     	 str r0,[r7,#12]
 454 0008 B960     	 str r1,[r7,#8]
 455 000a 7A60     	 str r2,[r7,#4]
 456 000c 3B60     	 str r3,[r7]
 220:C:/Users/Yushev/git/wpcqi-optiga-trust-charge/optiga/examples/utilities\ecdsa_utils.c ****     if (asn1_len < (ASN1_DER_VAL_OFFSET + 1)) {
 457              	 .loc 1 220 0
 458 000e BB68     	 ldr r3,[r7,#8]
 459 0010 022B     	 cmp r3,#2
 460 0012 01D8     	 bhi .L27
 221:C:/Users/Yushev/git/wpcqi-optiga-trust-charge/optiga/examples/utilities\ecdsa_utils.c ****         // Not enough data to decode anything
 222:C:/Users/Yushev/git/wpcqi-optiga-trust-charge/optiga/examples/utilities\ecdsa_utils.c ****         return 0;
 461              	 .loc 1 222 0
 462 0014 0023     	 movs r3,#0
 463 0016 6AE0     	 b .L28
 464              	.L27:
 223:C:/Users/Yushev/git/wpcqi-optiga-trust-charge/optiga/examples/utilities\ecdsa_utils.c ****     }
 224:C:/Users/Yushev/git/wpcqi-optiga-trust-charge/optiga/examples/utilities\ecdsa_utils.c **** 
 225:C:/Users/Yushev/git/wpcqi-optiga-trust-charge/optiga/examples/utilities\ecdsa_utils.c ****     // all read access must be before this pointer
 226:C:/Users/Yushev/git/wpcqi-optiga-trust-charge/optiga/examples/utilities\ecdsa_utils.c ****     const uint8_t* const asn1_end = asn1 + asn1_len;
 465              	 .loc 1 226 0
 466 0018 FA68     	 ldr r2,[r7,#12]
 467 001a BB68     	 ldr r3,[r7,#8]
 468 001c 1344     	 add r3,r3,r2
 469 001e FB61     	 str r3,[r7,#28]
 227:C:/Users/Yushev/git/wpcqi-optiga-trust-charge/optiga/examples/utilities\ecdsa_utils.c **** 
 228:C:/Users/Yushev/git/wpcqi-optiga-trust-charge/optiga/examples/utilities\ecdsa_utils.c ****     // fixed position fields
 229:C:/Users/Yushev/git/wpcqi-optiga-trust-charge/optiga/examples/utilities\ecdsa_utils.c ****     const uint8_t* const tag_field = &asn1[ASN1_DER_TAG_OFFSET];
 470              	 .loc 1 229 0
 471 0020 FB68     	 ldr r3,[r7,#12]
 472 0022 BB61     	 str r3,[r7,#24]
 230:C:/Users/Yushev/git/wpcqi-optiga-trust-charge/optiga/examples/utilities\ecdsa_utils.c ****     const uint8_t* const length_field = &asn1[ASN1_DER_LEN_OFFSET];
 473              	 .loc 1 230 0
 474 0024 FB68     	 ldr r3,[r7,#12]
 475 0026 0133     	 adds r3,r3,#1
 476 0028 7B61     	 str r3,[r7,#20]
 231:C:/Users/Yushev/git/wpcqi-optiga-trust-charge/optiga/examples/utilities\ecdsa_utils.c **** 
 232:C:/Users/Yushev/git/wpcqi-optiga-trust-charge/optiga/examples/utilities\ecdsa_utils.c ****     if (*tag_field != DER_TAG_INTEGER) {
 477              	 .loc 1 232 0
 478 002a BB69     	 ldr r3,[r7,#24]
 479 002c 1B78     	 ldrb r3,[r3]
 480 002e 022B     	 cmp r3,#2
 481 0030 01D0     	 beq .L29
 233:C:/Users/Yushev/git/wpcqi-optiga-trust-charge/optiga/examples/utilities\ecdsa_utils.c ****         // Not an DER INTEGER
 234:C:/Users/Yushev/git/wpcqi-optiga-trust-charge/optiga/examples/utilities\ecdsa_utils.c ****         return 0;
 482              	 .loc 1 234 0
 483 0032 0023     	 movs r3,#0
 484 0034 5BE0     	 b .L28
 485              	.L29:
 235:C:/Users/Yushev/git/wpcqi-optiga-trust-charge/optiga/examples/utilities\ecdsa_utils.c ****     }
 236:C:/Users/Yushev/git/wpcqi-optiga-trust-charge/optiga/examples/utilities\ecdsa_utils.c **** 
 237:C:/Users/Yushev/git/wpcqi-optiga-trust-charge/optiga/examples/utilities\ecdsa_utils.c ****     if (*length_field == 0 || *length_field > DER_INTEGER_MAX_LEN) {
 486              	 .loc 1 237 0
 487 0036 7B69     	 ldr r3,[r7,#20]
 488 0038 1B78     	 ldrb r3,[r3]
 489 003a 002B     	 cmp r3,#0
 490 003c 05D0     	 beq .L30
 491              	 .loc 1 237 0 is_stmt 0 discriminator 1
 492 003e 7B69     	 ldr r3,[r7,#20]
 493 0040 1B78     	 ldrb r3,[r3]
 494 0042 DBB2     	 uxtb r3,r3
 495 0044 5BB2     	 sxtb r3,r3
 496 0046 002B     	 cmp r3,#0
 497 0048 01DA     	 bge .L31
 498              	.L30:
 238:C:/Users/Yushev/git/wpcqi-optiga-trust-charge/optiga/examples/utilities\ecdsa_utils.c ****         // Invalid length value
 239:C:/Users/Yushev/git/wpcqi-optiga-trust-charge/optiga/examples/utilities\ecdsa_utils.c ****         return  0;
 499              	 .loc 1 239 0 is_stmt 1
 500 004a 0023     	 movs r3,#0
 501 004c 4FE0     	 b .L28
 502              	.L31:
 240:C:/Users/Yushev/git/wpcqi-optiga-trust-charge/optiga/examples/utilities\ecdsa_utils.c ****     }
 241:C:/Users/Yushev/git/wpcqi-optiga-trust-charge/optiga/examples/utilities\ecdsa_utils.c **** 
 242:C:/Users/Yushev/git/wpcqi-optiga-trust-charge/optiga/examples/utilities\ecdsa_utils.c ****     uint8_t integer_length = *length_field;
 503              	 .loc 1 242 0
 504 004e 7B69     	 ldr r3,[r7,#20]
 505 0050 1B78     	 ldrb r3,[r3]
 506 0052 87F82730 	 strb r3,[r7,#39]
 243:C:/Users/Yushev/git/wpcqi-optiga-trust-charge/optiga/examples/utilities\ecdsa_utils.c ****     const uint8_t* integer_field_cur = &asn1[ASN1_DER_VAL_OFFSET];
 507              	 .loc 1 243 0
 508 0056 FB68     	 ldr r3,[r7,#12]
 509 0058 0233     	 adds r3,r3,#2
 510 005a 3B62     	 str r3,[r7,#32]
 244:C:/Users/Yushev/git/wpcqi-optiga-trust-charge/optiga/examples/utilities\ecdsa_utils.c **** 
 245:C:/Users/Yushev/git/wpcqi-optiga-trust-charge/optiga/examples/utilities\ecdsa_utils.c ****     if ((integer_field_cur + integer_length - 1) > (asn1_end - 1)) {
 511              	 .loc 1 245 0
 512 005c 97F82730 	 ldrb r3,[r7,#39]
 513 0060 013B     	 subs r3,r3,#1
 514 0062 3A6A     	 ldr r2,[r7,#32]
 515 0064 1A44     	 add r2,r2,r3
 516 0066 FB69     	 ldr r3,[r7,#28]
 517 0068 013B     	 subs r3,r3,#1
 518 006a 9A42     	 cmp r2,r3
 519 006c 01D9     	 bls .L32
 246:C:/Users/Yushev/git/wpcqi-optiga-trust-charge/optiga/examples/utilities\ecdsa_utils.c ****         // prevented out-of-bounds read
 247:C:/Users/Yushev/git/wpcqi-optiga-trust-charge/optiga/examples/utilities\ecdsa_utils.c ****         return 0;
 520              	 .loc 1 247 0
 521 006e 0023     	 movs r3,#0
 522 0070 3DE0     	 b .L28
 523              	.L32:
 248:C:/Users/Yushev/git/wpcqi-optiga-trust-charge/optiga/examples/utilities\ecdsa_utils.c ****     }
 249:C:/Users/Yushev/git/wpcqi-optiga-trust-charge/optiga/examples/utilities\ecdsa_utils.c **** 
 250:C:/Users/Yushev/git/wpcqi-optiga-trust-charge/optiga/examples/utilities\ecdsa_utils.c ****     // one byte can never be a stuffing byte
 251:C:/Users/Yushev/git/wpcqi-optiga-trust-charge/optiga/examples/utilities\ecdsa_utils.c ****     if (integer_length > 1) {
 524              	 .loc 1 251 0
 525 0072 97F82730 	 ldrb r3,[r7,#39]
 526 0076 012B     	 cmp r3,#1
 527 0078 11D9     	 bls .L33
 252:C:/Users/Yushev/git/wpcqi-optiga-trust-charge/optiga/examples/utilities\ecdsa_utils.c ****         if (*integer_field_cur == 0x00) {
 528              	 .loc 1 252 0
 529 007a 3B6A     	 ldr r3,[r7,#32]
 530 007c 1B78     	 ldrb r3,[r3]
 531 007e 002B     	 cmp r3,#0
 532 0080 07D1     	 bne .L34
 253:C:/Users/Yushev/git/wpcqi-optiga-trust-charge/optiga/examples/utilities\ecdsa_utils.c ****             // remove stuffing byte
 254:C:/Users/Yushev/git/wpcqi-optiga-trust-charge/optiga/examples/utilities\ecdsa_utils.c ****             integer_length--;
 533              	 .loc 1 254 0
 534 0082 97F82730 	 ldrb r3,[r7,#39]
 535 0086 013B     	 subs r3,r3,#1
 536 0088 87F82730 	 strb r3,[r7,#39]
 255:C:/Users/Yushev/git/wpcqi-optiga-trust-charge/optiga/examples/utilities\ecdsa_utils.c ****             integer_field_cur++;
 537              	 .loc 1 255 0
 538 008c 3B6A     	 ldr r3,[r7,#32]
 539 008e 0133     	 adds r3,r3,#1
 540 0090 3B62     	 str r3,[r7,#32]
 541              	.L34:
 256:C:/Users/Yushev/git/wpcqi-optiga-trust-charge/optiga/examples/utilities\ecdsa_utils.c ****         }
 257:C:/Users/Yushev/git/wpcqi-optiga-trust-charge/optiga/examples/utilities\ecdsa_utils.c **** 
 258:C:/Users/Yushev/git/wpcqi-optiga-trust-charge/optiga/examples/utilities\ecdsa_utils.c ****         if (*integer_field_cur == 0x00) {
 542              	 .loc 1 258 0
 543 0092 3B6A     	 ldr r3,[r7,#32]
 544 0094 1B78     	 ldrb r3,[r3]
 545 0096 002B     	 cmp r3,#0
 546 0098 01D1     	 bne .L33
 259:C:/Users/Yushev/git/wpcqi-optiga-trust-charge/optiga/examples/utilities\ecdsa_utils.c ****             // second zero byte is an encoding error
 260:C:/Users/Yushev/git/wpcqi-optiga-trust-charge/optiga/examples/utilities\ecdsa_utils.c ****             return 0;
 547              	 .loc 1 260 0
 548 009a 0023     	 movs r3,#0
 549 009c 27E0     	 b .L28
 550              	.L33:
 261:C:/Users/Yushev/git/wpcqi-optiga-trust-charge/optiga/examples/utilities\ecdsa_utils.c ****         }
 262:C:/Users/Yushev/git/wpcqi-optiga-trust-charge/optiga/examples/utilities\ecdsa_utils.c ****     }
 263:C:/Users/Yushev/git/wpcqi-optiga-trust-charge/optiga/examples/utilities\ecdsa_utils.c **** 
 264:C:/Users/Yushev/git/wpcqi-optiga-trust-charge/optiga/examples/utilities\ecdsa_utils.c ****     if (integer_length > *out_int_len) {
 551              	 .loc 1 264 0
 552 009e 97F82720 	 ldrb r2,[r7,#39]
 553 00a2 3B68     	 ldr r3,[r7]
 554 00a4 1B68     	 ldr r3,[r3]
 555 00a6 9A42     	 cmp r2,r3
 556 00a8 01D9     	 bls .L35
 265:C:/Users/Yushev/git/wpcqi-optiga-trust-charge/optiga/examples/utilities\ecdsa_utils.c ****         // prevented out-of-bounds write
 266:C:/Users/Yushev/git/wpcqi-optiga-trust-charge/optiga/examples/utilities\ecdsa_utils.c ****         return 0;
 557              	 .loc 1 266 0
 558 00aa 0023     	 movs r3,#0
 559 00ac 1FE0     	 b .L28
 560              	.L35:
 267:C:/Users/Yushev/git/wpcqi-optiga-trust-charge/optiga/examples/utilities\ecdsa_utils.c ****     }
 268:C:/Users/Yushev/git/wpcqi-optiga-trust-charge/optiga/examples/utilities\ecdsa_utils.c **** 
 269:C:/Users/Yushev/git/wpcqi-optiga-trust-charge/optiga/examples/utilities\ecdsa_utils.c ****     // insert padding zeros to ensure position of least significant byte matches
 270:C:/Users/Yushev/git/wpcqi-optiga-trust-charge/optiga/examples/utilities\ecdsa_utils.c ****     const size_t padding = *out_int_len - integer_length;
 561              	 .loc 1 270 0
 562 00ae 3B68     	 ldr r3,[r7]
 563 00b0 1A68     	 ldr r2,[r3]
 564 00b2 97F82730 	 ldrb r3,[r7,#39]
 565 00b6 D31A     	 subs r3,r2,r3
 566 00b8 3B61     	 str r3,[r7,#16]
 271:C:/Users/Yushev/git/wpcqi-optiga-trust-charge/optiga/examples/utilities\ecdsa_utils.c ****     memset(out_int, 0, padding);
 567              	 .loc 1 271 0
 568 00ba 7868     	 ldr r0,[r7,#4]
 569 00bc 0021     	 movs r1,#0
 570 00be 3A69     	 ldr r2,[r7,#16]
 571 00c0 FFF7FEFF 	 bl memset
 272:C:/Users/Yushev/git/wpcqi-optiga-trust-charge/optiga/examples/utilities\ecdsa_utils.c **** 
 273:C:/Users/Yushev/git/wpcqi-optiga-trust-charge/optiga/examples/utilities\ecdsa_utils.c ****     memcpy(out_int + padding, integer_field_cur, integer_length);
 572              	 .loc 1 273 0
 573 00c4 7A68     	 ldr r2,[r7,#4]
 574 00c6 3B69     	 ldr r3,[r7,#16]
 575 00c8 1A44     	 add r2,r2,r3
 576 00ca 97F82730 	 ldrb r3,[r7,#39]
 577 00ce 1046     	 mov r0,r2
 578 00d0 396A     	 ldr r1,[r7,#32]
 579 00d2 1A46     	 mov r2,r3
 580 00d4 FFF7FEFF 	 bl memcpy
 274:C:/Users/Yushev/git/wpcqi-optiga-trust-charge/optiga/examples/utilities\ecdsa_utils.c ****     *out_int_len = integer_length;
 581              	 .loc 1 274 0
 582 00d8 97F82720 	 ldrb r2,[r7,#39]
 583 00dc 3B68     	 ldr r3,[r7]
 584 00de 1A60     	 str r2,[r3]
 275:C:/Users/Yushev/git/wpcqi-optiga-trust-charge/optiga/examples/utilities\ecdsa_utils.c **** 
 276:C:/Users/Yushev/git/wpcqi-optiga-trust-charge/optiga/examples/utilities\ecdsa_utils.c ****     // return number of consumed ASN.1 bytes
 277:C:/Users/Yushev/git/wpcqi-optiga-trust-charge/optiga/examples/utilities\ecdsa_utils.c ****     return integer_field_cur + integer_length - tag_field;
 585              	 .loc 1 277 0
 586 00e0 97F82730 	 ldrb r3,[r7,#39]
 587 00e4 3A6A     	 ldr r2,[r7,#32]
 588 00e6 1344     	 add r3,r3,r2
 589 00e8 1A46     	 mov r2,r3
 590 00ea BB69     	 ldr r3,[r7,#24]
 591 00ec D31A     	 subs r3,r2,r3
 592              	.L28:
 278:C:/Users/Yushev/git/wpcqi-optiga-trust-charge/optiga/examples/utilities\ecdsa_utils.c **** }
 593              	 .loc 1 278 0
 594 00ee 1846     	 mov r0,r3
 595 00f0 2837     	 adds r7,r7,#40
 596              	.LCFI18:
 597              	 .cfi_def_cfa_offset 8
 598 00f2 BD46     	 mov sp,r7
 599              	.LCFI19:
 600              	 .cfi_def_cfa_register 13
 601              	 
 602 00f4 80BD     	 pop {r7,pc}
 603              	 .cfi_endproc
 604              	.LFE3:
 606 00f6 00BF     	 .section .text.asn1_to_ecdsa_rs_sep,"ax",%progbits
 607              	 .align 2
 608              	 .global asn1_to_ecdsa_rs_sep
 609              	 .thumb
 610              	 .thumb_func
 612              	asn1_to_ecdsa_rs_sep:
 613              	.LFB4:
 279:C:/Users/Yushev/git/wpcqi-optiga-trust-charge/optiga/examples/utilities\ecdsa_utils.c **** 
 280:C:/Users/Yushev/git/wpcqi-optiga-trust-charge/optiga/examples/utilities\ecdsa_utils.c **** bool asn1_to_ecdsa_rs_sep(const uint8_t* asn1, size_t asn1_len,
 281:C:/Users/Yushev/git/wpcqi-optiga-trust-charge/optiga/examples/utilities\ecdsa_utils.c ****                       uint8_t* r, size_t* r_len,
 282:C:/Users/Yushev/git/wpcqi-optiga-trust-charge/optiga/examples/utilities\ecdsa_utils.c ****                       uint8_t* s, size_t* s_len)
 283:C:/Users/Yushev/git/wpcqi-optiga-trust-charge/optiga/examples/utilities\ecdsa_utils.c **** {
 614              	 .loc 1 283 0
 615              	 .cfi_startproc
 616              	 
 617              	 
 618 0000 80B5     	 push {r7,lr}
 619              	.LCFI20:
 620              	 .cfi_def_cfa_offset 8
 621              	 .cfi_offset 7,-8
 622              	 .cfi_offset 14,-4
 623 0002 88B0     	 sub sp,sp,#32
 624              	.LCFI21:
 625              	 .cfi_def_cfa_offset 40
 626 0004 00AF     	 add r7,sp,#0
 627              	.LCFI22:
 628              	 .cfi_def_cfa_register 7
 629 0006 F860     	 str r0,[r7,#12]
 630 0008 B960     	 str r1,[r7,#8]
 631 000a 7A60     	 str r2,[r7,#4]
 632 000c 3B60     	 str r3,[r7]
 284:C:/Users/Yushev/git/wpcqi-optiga-trust-charge/optiga/examples/utilities\ecdsa_utils.c ****     if (asn1 == NULL || r == NULL || r_len == NULL || s == NULL || s_len == NULL) {
 633              	 .loc 1 284 0
 634 000e FB68     	 ldr r3,[r7,#12]
 635 0010 002B     	 cmp r3,#0
 636 0012 0BD0     	 beq .L37
 637              	 .loc 1 284 0 is_stmt 0 discriminator 1
 638 0014 7B68     	 ldr r3,[r7,#4]
 639 0016 002B     	 cmp r3,#0
 640 0018 08D0     	 beq .L37
 641              	 .loc 1 284 0 discriminator 2
 642 001a 3B68     	 ldr r3,[r7]
 643 001c 002B     	 cmp r3,#0
 644 001e 05D0     	 beq .L37
 645              	 .loc 1 284 0 discriminator 3
 646 0020 BB6A     	 ldr r3,[r7,#40]
 647 0022 002B     	 cmp r3,#0
 648 0024 02D0     	 beq .L37
 649              	 .loc 1 284 0 discriminator 4
 650 0026 FB6A     	 ldr r3,[r7,#44]
 651 0028 002B     	 cmp r3,#0
 652 002a 01D1     	 bne .L38
 653              	.L37:
 285:C:/Users/Yushev/git/wpcqi-optiga-trust-charge/optiga/examples/utilities\ecdsa_utils.c ****         // No NULL paramters allowed
 286:C:/Users/Yushev/git/wpcqi-optiga-trust-charge/optiga/examples/utilities\ecdsa_utils.c ****         return false;
 654              	 .loc 1 286 0 is_stmt 1
 655 002c 0023     	 movs r3,#0
 656 002e 20E0     	 b .L39
 657              	.L38:
 287:C:/Users/Yushev/git/wpcqi-optiga-trust-charge/optiga/examples/utilities\ecdsa_utils.c ****     }
 288:C:/Users/Yushev/git/wpcqi-optiga-trust-charge/optiga/examples/utilities\ecdsa_utils.c **** 
 289:C:/Users/Yushev/git/wpcqi-optiga-trust-charge/optiga/examples/utilities\ecdsa_utils.c ****     // decode R component
 290:C:/Users/Yushev/git/wpcqi-optiga-trust-charge/optiga/examples/utilities\ecdsa_utils.c ****     const size_t consumed_r = decode_asn1_uint(asn1, asn1_len, r, r_len);
 658              	 .loc 1 290 0
 659 0030 F868     	 ldr r0,[r7,#12]
 660 0032 B968     	 ldr r1,[r7,#8]
 661 0034 7A68     	 ldr r2,[r7,#4]
 662 0036 3B68     	 ldr r3,[r7]
 663 0038 FFF7FEFF 	 bl decode_asn1_uint
 664 003c F861     	 str r0,[r7,#28]
 291:C:/Users/Yushev/git/wpcqi-optiga-trust-charge/optiga/examples/utilities\ecdsa_utils.c ****     if (consumed_r == 0) {
 665              	 .loc 1 291 0
 666 003e FB69     	 ldr r3,[r7,#28]
 667 0040 002B     	 cmp r3,#0
 668 0042 01D1     	 bne .L40
 292:C:/Users/Yushev/git/wpcqi-optiga-trust-charge/optiga/examples/utilities\ecdsa_utils.c ****         // error while decoding R component
 293:C:/Users/Yushev/git/wpcqi-optiga-trust-charge/optiga/examples/utilities\ecdsa_utils.c ****         return false;
 669              	 .loc 1 293 0
 670 0044 0023     	 movs r3,#0
 671 0046 14E0     	 b .L39
 672              	.L40:
 294:C:/Users/Yushev/git/wpcqi-optiga-trust-charge/optiga/examples/utilities\ecdsa_utils.c ****     }
 295:C:/Users/Yushev/git/wpcqi-optiga-trust-charge/optiga/examples/utilities\ecdsa_utils.c **** 
 296:C:/Users/Yushev/git/wpcqi-optiga-trust-charge/optiga/examples/utilities\ecdsa_utils.c ****     const uint8_t* const asn1_s = asn1 + consumed_r;
 673              	 .loc 1 296 0
 674 0048 FA68     	 ldr r2,[r7,#12]
 675 004a FB69     	 ldr r3,[r7,#28]
 676 004c 1344     	 add r3,r3,r2
 677 004e BB61     	 str r3,[r7,#24]
 297:C:/Users/Yushev/git/wpcqi-optiga-trust-charge/optiga/examples/utilities\ecdsa_utils.c ****     const size_t asn1_s_len = asn1_len - consumed_r;
 678              	 .loc 1 297 0
 679 0050 BA68     	 ldr r2,[r7,#8]
 680 0052 FB69     	 ldr r3,[r7,#28]
 681 0054 D31A     	 subs r3,r2,r3
 682 0056 7B61     	 str r3,[r7,#20]
 298:C:/Users/Yushev/git/wpcqi-optiga-trust-charge/optiga/examples/utilities\ecdsa_utils.c **** 
 299:C:/Users/Yushev/git/wpcqi-optiga-trust-charge/optiga/examples/utilities\ecdsa_utils.c ****     // decode S component
 300:C:/Users/Yushev/git/wpcqi-optiga-trust-charge/optiga/examples/utilities\ecdsa_utils.c ****     const size_t consumed_s = decode_asn1_uint(asn1_s, asn1_s_len, s, s_len);
 683              	 .loc 1 300 0
 684 0058 B869     	 ldr r0,[r7,#24]
 685 005a 7969     	 ldr r1,[r7,#20]
 686 005c BA6A     	 ldr r2,[r7,#40]
 687 005e FB6A     	 ldr r3,[r7,#44]
 688 0060 FFF7FEFF 	 bl decode_asn1_uint
 689 0064 3861     	 str r0,[r7,#16]
 301:C:/Users/Yushev/git/wpcqi-optiga-trust-charge/optiga/examples/utilities\ecdsa_utils.c ****     if (consumed_s == 0) {
 690              	 .loc 1 301 0
 691 0066 3B69     	 ldr r3,[r7,#16]
 692 0068 002B     	 cmp r3,#0
 693 006a 01D1     	 bne .L41
 302:C:/Users/Yushev/git/wpcqi-optiga-trust-charge/optiga/examples/utilities\ecdsa_utils.c ****         // error while decoding R component
 303:C:/Users/Yushev/git/wpcqi-optiga-trust-charge/optiga/examples/utilities\ecdsa_utils.c ****         return false;
 694              	 .loc 1 303 0
 695 006c 0023     	 movs r3,#0
 696 006e 00E0     	 b .L39
 697              	.L41:
 304:C:/Users/Yushev/git/wpcqi-optiga-trust-charge/optiga/examples/utilities\ecdsa_utils.c ****     }
 305:C:/Users/Yushev/git/wpcqi-optiga-trust-charge/optiga/examples/utilities\ecdsa_utils.c **** 
 306:C:/Users/Yushev/git/wpcqi-optiga-trust-charge/optiga/examples/utilities\ecdsa_utils.c ****     return true;
 698              	 .loc 1 306 0
 699 0070 0123     	 movs r3,#1
 700              	.L39:
 307:C:/Users/Yushev/git/wpcqi-optiga-trust-charge/optiga/examples/utilities\ecdsa_utils.c **** }
 701              	 .loc 1 307 0
 702 0072 1846     	 mov r0,r3
 703 0074 2037     	 adds r7,r7,#32
 704              	.LCFI23:
 705              	 .cfi_def_cfa_offset 8
 706 0076 BD46     	 mov sp,r7
 707              	.LCFI24:
 708              	 .cfi_def_cfa_register 13
 709              	 
 710 0078 80BD     	 pop {r7,pc}
 711              	 .cfi_endproc
 712              	.LFE4:
 714 007a 00BF     	 .section .text.asn1_to_ecdsa_rs,"ax",%progbits
 715              	 .align 2
 716              	 .global asn1_to_ecdsa_rs
 717              	 .thumb
 718              	 .thumb_func
 720              	asn1_to_ecdsa_rs:
 721              	.LFB5:
 308:C:/Users/Yushev/git/wpcqi-optiga-trust-charge/optiga/examples/utilities\ecdsa_utils.c **** 
 309:C:/Users/Yushev/git/wpcqi-optiga-trust-charge/optiga/examples/utilities\ecdsa_utils.c **** bool asn1_to_ecdsa_rs(const uint8_t* asn1, size_t asn1_len,
 310:C:/Users/Yushev/git/wpcqi-optiga-trust-charge/optiga/examples/utilities\ecdsa_utils.c ****                       uint8_t* rs, size_t rs_len)
 311:C:/Users/Yushev/git/wpcqi-optiga-trust-charge/optiga/examples/utilities\ecdsa_utils.c **** {
 722              	 .loc 1 311 0
 723              	 .cfi_startproc
 724              	 
 725              	 
 726 0000 90B5     	 push {r4,r7,lr}
 727              	.LCFI25:
 728              	 .cfi_def_cfa_offset 12
 729              	 .cfi_offset 4,-12
 730              	 .cfi_offset 7,-8
 731              	 .cfi_offset 14,-4
 732 0002 8BB0     	 sub sp,sp,#44
 733              	.LCFI26:
 734              	 .cfi_def_cfa_offset 56
 735 0004 02AF     	 add r7,sp,#8
 736              	.LCFI27:
 737              	 .cfi_def_cfa 7,48
 738 0006 F860     	 str r0,[r7,#12]
 739 0008 B960     	 str r1,[r7,#8]
 740 000a 7A60     	 str r2,[r7,#4]
 741 000c 3B60     	 str r3,[r7]
 312:C:/Users/Yushev/git/wpcqi-optiga-trust-charge/optiga/examples/utilities\ecdsa_utils.c ****     if (asn1 == NULL || rs == NULL) {
 742              	 .loc 1 312 0
 743 000e FB68     	 ldr r3,[r7,#12]
 744 0010 002B     	 cmp r3,#0
 745 0012 02D0     	 beq .L43
 746              	 .loc 1 312 0 is_stmt 0 discriminator 1
 747 0014 7B68     	 ldr r3,[r7,#4]
 748 0016 002B     	 cmp r3,#0
 749 0018 01D1     	 bne .L44
 750              	.L43:
 313:C:/Users/Yushev/git/wpcqi-optiga-trust-charge/optiga/examples/utilities\ecdsa_utils.c ****         // No NULL paramters allowed
 314:C:/Users/Yushev/git/wpcqi-optiga-trust-charge/optiga/examples/utilities\ecdsa_utils.c ****         return false;
 751              	 .loc 1 314 0 is_stmt 1
 752 001a 0023     	 movs r3,#0
 753 001c 1DE0     	 b .L47
 754              	.L44:
 315:C:/Users/Yushev/git/wpcqi-optiga-trust-charge/optiga/examples/utilities\ecdsa_utils.c ****     }
 316:C:/Users/Yushev/git/wpcqi-optiga-trust-charge/optiga/examples/utilities\ecdsa_utils.c **** 
 317:C:/Users/Yushev/git/wpcqi-optiga-trust-charge/optiga/examples/utilities\ecdsa_utils.c ****     if ((rs_len % 2) != 0) {
 755              	 .loc 1 317 0
 756 001e 3B68     	 ldr r3,[r7]
 757 0020 03F00103 	 and r3,r3,#1
 758 0024 002B     	 cmp r3,#0
 759 0026 01D0     	 beq .L46
 318:C:/Users/Yushev/git/wpcqi-optiga-trust-charge/optiga/examples/utilities\ecdsa_utils.c ****         // length of the output buffer must be 2 times the component size and even
 319:C:/Users/Yushev/git/wpcqi-optiga-trust-charge/optiga/examples/utilities\ecdsa_utils.c ****         return false;
 760              	 .loc 1 319 0
 761 0028 0023     	 movs r3,#0
 762 002a 16E0     	 b .L47
 763              	.L46:
 320:C:/Users/Yushev/git/wpcqi-optiga-trust-charge/optiga/examples/utilities\ecdsa_utils.c ****     }
 321:C:/Users/Yushev/git/wpcqi-optiga-trust-charge/optiga/examples/utilities\ecdsa_utils.c **** 
 322:C:/Users/Yushev/git/wpcqi-optiga-trust-charge/optiga/examples/utilities\ecdsa_utils.c ****     const size_t component_length = rs_len / 2;
 764              	 .loc 1 322 0
 765 002c 3B68     	 ldr r3,[r7]
 766 002e 5B08     	 lsrs r3,r3,#1
 767 0030 FB61     	 str r3,[r7,#28]
 323:C:/Users/Yushev/git/wpcqi-optiga-trust-charge/optiga/examples/utilities\ecdsa_utils.c ****     size_t r_len = component_length;
 768              	 .loc 1 323 0
 769 0032 FB69     	 ldr r3,[r7,#28]
 770 0034 BB61     	 str r3,[r7,#24]
 324:C:/Users/Yushev/git/wpcqi-optiga-trust-charge/optiga/examples/utilities\ecdsa_utils.c ****     size_t s_len = component_length;
 771              	 .loc 1 324 0
 772 0036 FB69     	 ldr r3,[r7,#28]
 773 0038 7B61     	 str r3,[r7,#20]
 325:C:/Users/Yushev/git/wpcqi-optiga-trust-charge/optiga/examples/utilities\ecdsa_utils.c **** 
 326:C:/Users/Yushev/git/wpcqi-optiga-trust-charge/optiga/examples/utilities\ecdsa_utils.c ****     return asn1_to_ecdsa_rs_sep(asn1, asn1_len, rs, &r_len, rs + component_length, &s_len);
 774              	 .loc 1 326 0
 775 003a 7A68     	 ldr r2,[r7,#4]
 776 003c FB69     	 ldr r3,[r7,#28]
 777 003e 1344     	 add r3,r3,r2
 778 0040 07F11804 	 add r4,r7,#24
 779 0044 0093     	 str r3,[sp]
 780 0046 07F11403 	 add r3,r7,#20
 781 004a 0193     	 str r3,[sp,#4]
 782 004c F868     	 ldr r0,[r7,#12]
 783 004e B968     	 ldr r1,[r7,#8]
 784 0050 7A68     	 ldr r2,[r7,#4]
 785 0052 2346     	 mov r3,r4
 786 0054 FFF7FEFF 	 bl asn1_to_ecdsa_rs_sep
 787 0058 0346     	 mov r3,r0
 788              	.L47:
 327:C:/Users/Yushev/git/wpcqi-optiga-trust-charge/optiga/examples/utilities\ecdsa_utils.c **** }
 789              	 .loc 1 327 0 discriminator 1
 790 005a 1846     	 mov r0,r3
 791 005c 2437     	 adds r7,r7,#36
 792              	.LCFI28:
 793              	 .cfi_def_cfa_offset 12
 794 005e BD46     	 mov sp,r7
 795              	.LCFI29:
 796              	 .cfi_def_cfa_register 13
 797              	 
 798 0060 90BD     	 pop {r4,r7,pc}
 799              	 .cfi_endproc
 800              	.LFE5:
 802 0062 00BF     	 .text
 803              	.Letext0:
 804              	 .file 2 "c:\\users\\yushev\\dave_4-4-2_32bit_2018-02-23\\dave-ide-4.4.2-32bit\\eclipse\\arm-gcc-49\\arm-none-eabi\\include\\machine\\_default_types.h"
 805              	 .file 3 "c:\\users\\yushev\\dave_4-4-2_32bit_2018-02-23\\dave-ide-4.4.2-32bit\\eclipse\\arm-gcc-49\\arm-none-eabi\\include\\stdint.h"
 806              	 .file 4 "c:\\users\\yushev\\dave_4-4-2_32bit_2018-02-23\\dave-ide-4.4.2-32bit\\eclipse\\arm-gcc-49\\lib\\gcc\\arm-none-eabi\\4.9.3\\include\\stddef.h"