   1              	 .syntax unified
   2              	 .cpu cortex-m4
   3              	 .eabi_attribute 27,3
   4              	 .fpu fpv4-sp-d16
   5              	 .eabi_attribute 20,1
   6              	 .eabi_attribute 21,1
   7              	 .eabi_attribute 23,3
   8              	 .eabi_attribute 24,1
   9              	 .eabi_attribute 25,1
  10              	 .eabi_attribute 26,1
  11              	 .eabi_attribute 30,4
  12              	 .eabi_attribute 34,1
  13              	 .eabi_attribute 18,4
  14              	 .thumb
  15              	 .file "pal_i2c.c"
  16              	 .text
  17              	.Ltext0:
  18              	 .cfi_sections .debug_frame
  19              	 .section .text.pal_i2c_acquire.isra.2,"ax",%progbits
  20              	 .align 1
  21              	 .thumb
  22              	 .thumb_func
  24              	pal_i2c_acquire.isra.2:
  25              	.LFB402:
  26              	 .file 1 "C:/Users/Yushev/git/optiga-trust-qi/pal/xmc4700/pal_i2c.c"
   1:C:/Users/Yushev/git/optiga-trust-qi/pal/xmc4700\pal_i2c.c **** /**
   2:C:/Users/Yushev/git/optiga-trust-qi/pal/xmc4700\pal_i2c.c **** * \copyright
   3:C:/Users/Yushev/git/optiga-trust-qi/pal/xmc4700\pal_i2c.c **** * MIT License
   4:C:/Users/Yushev/git/optiga-trust-qi/pal/xmc4700\pal_i2c.c **** *
   5:C:/Users/Yushev/git/optiga-trust-qi/pal/xmc4700\pal_i2c.c **** * Copyright (c) 2020 Infineon Technologies AG
   6:C:/Users/Yushev/git/optiga-trust-qi/pal/xmc4700\pal_i2c.c **** *
   7:C:/Users/Yushev/git/optiga-trust-qi/pal/xmc4700\pal_i2c.c **** * Permission is hereby granted, free of charge, to any person obtaining a copy
   8:C:/Users/Yushev/git/optiga-trust-qi/pal/xmc4700\pal_i2c.c **** * of this software and associated documentation files (the "Software"), to deal
   9:C:/Users/Yushev/git/optiga-trust-qi/pal/xmc4700\pal_i2c.c **** * in the Software without restriction, including without limitation the rights
  10:C:/Users/Yushev/git/optiga-trust-qi/pal/xmc4700\pal_i2c.c **** * to use, copy, modify, merge, publish, distribute, sublicense, and/or sell
  11:C:/Users/Yushev/git/optiga-trust-qi/pal/xmc4700\pal_i2c.c **** * copies of the Software, and to permit persons to whom the Software is
  12:C:/Users/Yushev/git/optiga-trust-qi/pal/xmc4700\pal_i2c.c **** * furnished to do so, subject to the following conditions:
  13:C:/Users/Yushev/git/optiga-trust-qi/pal/xmc4700\pal_i2c.c **** *
  14:C:/Users/Yushev/git/optiga-trust-qi/pal/xmc4700\pal_i2c.c **** * The above copyright notice and this permission notice shall be included in all
  15:C:/Users/Yushev/git/optiga-trust-qi/pal/xmc4700\pal_i2c.c **** * copies or substantial portions of the Software.
  16:C:/Users/Yushev/git/optiga-trust-qi/pal/xmc4700\pal_i2c.c **** *
  17:C:/Users/Yushev/git/optiga-trust-qi/pal/xmc4700\pal_i2c.c **** * THE SOFTWARE IS PROVIDED "AS IS", WITHOUT WARRANTY OF ANY KIND, EXPRESS OR
  18:C:/Users/Yushev/git/optiga-trust-qi/pal/xmc4700\pal_i2c.c **** * IMPLIED, INCLUDING BUT NOT LIMITED TO THE WARRANTIES OF MERCHANTABILITY,
  19:C:/Users/Yushev/git/optiga-trust-qi/pal/xmc4700\pal_i2c.c **** * FITNESS FOR A PARTICULAR PURPOSE AND NONINFRINGEMENT. IN NO EVENT SHALL THE
  20:C:/Users/Yushev/git/optiga-trust-qi/pal/xmc4700\pal_i2c.c **** * AUTHORS OR COPYRIGHT HOLDERS BE LIABLE FOR ANY CLAIM, DAMAGES OR OTHER
  21:C:/Users/Yushev/git/optiga-trust-qi/pal/xmc4700\pal_i2c.c **** * LIABILITY, WHETHER IN AN ACTION OF CONTRACT, TORT OR OTHERWISE, ARISING FROM,
  22:C:/Users/Yushev/git/optiga-trust-qi/pal/xmc4700\pal_i2c.c **** * OUT OF OR IN CONNECTION WITH THE SOFTWARE OR THE USE OR OTHER DEALINGS IN THE
  23:C:/Users/Yushev/git/optiga-trust-qi/pal/xmc4700\pal_i2c.c **** * SOFTWARE
  24:C:/Users/Yushev/git/optiga-trust-qi/pal/xmc4700\pal_i2c.c **** *
  25:C:/Users/Yushev/git/optiga-trust-qi/pal/xmc4700\pal_i2c.c **** * \endcopyright
  26:C:/Users/Yushev/git/optiga-trust-qi/pal/xmc4700\pal_i2c.c **** *
  27:C:/Users/Yushev/git/optiga-trust-qi/pal/xmc4700\pal_i2c.c **** * \author Infineon Technologies AG
  28:C:/Users/Yushev/git/optiga-trust-qi/pal/xmc4700\pal_i2c.c **** *
  29:C:/Users/Yushev/git/optiga-trust-qi/pal/xmc4700\pal_i2c.c **** * \file pal_i2c.c
  30:C:/Users/Yushev/git/optiga-trust-qi/pal/xmc4700\pal_i2c.c **** *
  31:C:/Users/Yushev/git/optiga-trust-qi/pal/xmc4700\pal_i2c.c **** * \brief   This file implements the platform abstraction layer(pal) APIs for I2C.
  32:C:/Users/Yushev/git/optiga-trust-qi/pal/xmc4700\pal_i2c.c **** *
  33:C:/Users/Yushev/git/optiga-trust-qi/pal/xmc4700\pal_i2c.c **** * \ingroup  grPAL
  34:C:/Users/Yushev/git/optiga-trust-qi/pal/xmc4700\pal_i2c.c **** *
  35:C:/Users/Yushev/git/optiga-trust-qi/pal/xmc4700\pal_i2c.c **** * @{
  36:C:/Users/Yushev/git/optiga-trust-qi/pal/xmc4700\pal_i2c.c **** */
  37:C:/Users/Yushev/git/optiga-trust-qi/pal/xmc4700\pal_i2c.c **** 
  38:C:/Users/Yushev/git/optiga-trust-qi/pal/xmc4700\pal_i2c.c **** 
  39:C:/Users/Yushev/git/optiga-trust-qi/pal/xmc4700\pal_i2c.c **** 
  40:C:/Users/Yushev/git/optiga-trust-qi/pal/xmc4700\pal_i2c.c **** #include <DAVE.h>
  41:C:/Users/Yushev/git/optiga-trust-qi/pal/xmc4700\pal_i2c.c **** #include "optiga/pal/pal_i2c.h"
  42:C:/Users/Yushev/git/optiga-trust-qi/pal/xmc4700\pal_i2c.c **** 
  43:C:/Users/Yushev/git/optiga-trust-qi/pal/xmc4700\pal_i2c.c **** //#define PAL_I2C_MASTER_MAX_BITRATE  (400U)
  44:C:/Users/Yushev/git/optiga-trust-qi/pal/xmc4700\pal_i2c.c **** /// @cond hidden
  45:C:/Users/Yushev/git/optiga-trust-qi/pal/xmc4700\pal_i2c.c **** 
  46:C:/Users/Yushev/git/optiga-trust-qi/pal/xmc4700\pal_i2c.c **** _STATIC_H volatile uint32_t g_entry_count = 0;
  47:C:/Users/Yushev/git/optiga-trust-qi/pal/xmc4700\pal_i2c.c **** _STATIC_H const pal_i2c_t * gp_pal_i2c_current_ctx;
  48:C:/Users/Yushev/git/optiga-trust-qi/pal/xmc4700\pal_i2c.c **** 
  49:C:/Users/Yushev/git/optiga-trust-qi/pal/xmc4700\pal_i2c.c **** //lint --e{715} suppress "This is implemented for overall completion of API"
  50:C:/Users/Yushev/git/optiga-trust-qi/pal/xmc4700\pal_i2c.c **** _STATIC_H pal_status_t pal_i2c_acquire(const void * p_i2c_context)
  27              	 .loc 1 50 0
  28              	 .cfi_startproc
  29              	 
  30              	 
  31              	 
  32              	.LVL0:
  51:C:/Users/Yushev/git/optiga-trust-qi/pal/xmc4700\pal_i2c.c **** {
  52:C:/Users/Yushev/git/optiga-trust-qi/pal/xmc4700\pal_i2c.c ****     if (0 == g_entry_count)
  33              	 .loc 1 52 0
  34 0000 064B     	 ldr r3,.L5
  35 0002 1A68     	 ldr r2,[r3]
  36 0004 42B9     	 cbnz r2,.L3
  37              	.LBB20:
  38              	.LBB21:
  53:C:/Users/Yushev/git/optiga-trust-qi/pal/xmc4700\pal_i2c.c ****     {
  54:C:/Users/Yushev/git/optiga-trust-qi/pal/xmc4700\pal_i2c.c ****         g_entry_count++;
  39              	 .loc 1 54 0
  40 0006 1A68     	 ldr r2,[r3]
  41 0008 0132     	 adds r2,r2,#1
  42 000a 1A60     	 str r2,[r3]
  55:C:/Users/Yushev/git/optiga-trust-qi/pal/xmc4700\pal_i2c.c ****         if (1 == g_entry_count)
  43              	 .loc 1 55 0
  44 000c 1868     	 ldr r0,[r3]
  45              	.LBE21:
  46              	.LBE20:
  56:C:/Users/Yushev/git/optiga-trust-qi/pal/xmc4700\pal_i2c.c ****         {
  57:C:/Users/Yushev/git/optiga-trust-qi/pal/xmc4700\pal_i2c.c ****             return PAL_STATUS_SUCCESS;
  58:C:/Users/Yushev/git/optiga-trust-qi/pal/xmc4700\pal_i2c.c ****         }
  59:C:/Users/Yushev/git/optiga-trust-qi/pal/xmc4700\pal_i2c.c ****     }
  60:C:/Users/Yushev/git/optiga-trust-qi/pal/xmc4700\pal_i2c.c ****     return PAL_STATUS_FAILURE;
  47              	 .loc 1 60 0
  48 000e 10F1FF30 	 adds r0,r0,#-1
  49 0012 18BF     	 it ne
  50 0014 0120     	 movne r0,#1
  51 0016 7047     	 bx lr
  52              	.L3:
  53 0018 0120     	 movs r0,#1
  61:C:/Users/Yushev/git/optiga-trust-qi/pal/xmc4700\pal_i2c.c **** }
  54              	 .loc 1 61 0
  55 001a 7047     	 bx lr
  56              	.L6:
  57              	 .align 2
  58              	.L5:
  59 001c 00000000 	 .word .LANCHOR0
  60              	 .cfi_endproc
  61              	.LFE402:
  63              	 .section .text.invoke_upper_layer_callback,"ax",%progbits
  64              	 .align 1
  65              	 .global invoke_upper_layer_callback
  66              	 .thumb
  67              	 .thumb_func
  69              	invoke_upper_layer_callback:
  70              	.LFB389:
  62:C:/Users/Yushev/git/optiga-trust-qi/pal/xmc4700\pal_i2c.c **** 
  63:C:/Users/Yushev/git/optiga-trust-qi/pal/xmc4700\pal_i2c.c **** //lint --e{715} suppress "The unused p_i2c_context variable is kept for future enhancements"
  64:C:/Users/Yushev/git/optiga-trust-qi/pal/xmc4700\pal_i2c.c **** _STATIC_H void pal_i2c_release(const void * p_i2c_context)
  65:C:/Users/Yushev/git/optiga-trust-qi/pal/xmc4700\pal_i2c.c **** {
  66:C:/Users/Yushev/git/optiga-trust-qi/pal/xmc4700\pal_i2c.c ****     g_entry_count = 0;
  67:C:/Users/Yushev/git/optiga-trust-qi/pal/xmc4700\pal_i2c.c **** }
  68:C:/Users/Yushev/git/optiga-trust-qi/pal/xmc4700\pal_i2c.c **** /// @endcond
  69:C:/Users/Yushev/git/optiga-trust-qi/pal/xmc4700\pal_i2c.c **** 
  70:C:/Users/Yushev/git/optiga-trust-qi/pal/xmc4700\pal_i2c.c **** void invoke_upper_layer_callback (const pal_i2c_t * p_pal_i2c_ctx, optiga_lib_status_t event)
  71:C:/Users/Yushev/git/optiga-trust-qi/pal/xmc4700\pal_i2c.c **** {
  71              	 .loc 1 71 0
  72              	 .cfi_startproc
  73              	 
  74              	 
  75              	.LVL1:
  76 0000 08B5     	 push {r3,lr}
  77              	.LCFI0:
  78              	 .cfi_def_cfa_offset 8
  79              	 .cfi_offset 3,-8
  80              	 .cfi_offset 14,-4
  72:C:/Users/Yushev/git/optiga-trust-qi/pal/xmc4700\pal_i2c.c ****     upper_layer_callback_t upper_layer_handler;
  73:C:/Users/Yushev/git/optiga-trust-qi/pal/xmc4700\pal_i2c.c ****     //lint --e{611} suppress "void* function pointer is type casted to upper_layer_callback_t type"
  74:C:/Users/Yushev/git/optiga-trust-qi/pal/xmc4700\pal_i2c.c ****     upper_layer_handler = (upper_layer_callback_t)p_pal_i2c_ctx->upper_layer_event_handler;
  75:C:/Users/Yushev/git/optiga-trust-qi/pal/xmc4700\pal_i2c.c **** 
  76:C:/Users/Yushev/git/optiga-trust-qi/pal/xmc4700\pal_i2c.c ****     upper_layer_handler(p_pal_i2c_ctx->p_upper_layer_ctx, event);
  81              	 .loc 1 76 0
  82 0002 C368     	 ldr r3,[r0,#12]
  83 0004 8068     	 ldr r0,[r0,#8]
  84              	.LVL2:
  85 0006 9847     	 blx r3
  86              	.LVL3:
  87              	.LBB22:
  88              	.LBB23:
  66:C:/Users/Yushev/git/optiga-trust-qi/pal/xmc4700\pal_i2c.c **** }
  89              	 .loc 1 66 0
  90 0008 014B     	 ldr r3,.L8
  91 000a 0022     	 movs r2,#0
  92 000c 1A60     	 str r2,[r3]
  93 000e 08BD     	 pop {r3,pc}
  94              	.L9:
  95              	 .align 2
  96              	.L8:
  97 0010 00000000 	 .word .LANCHOR0
  98              	.LBE23:
  99              	.LBE22:
 100              	 .cfi_endproc
 101              	.LFE389:
 103              	 .section .text.i2c_master_end_of_transmit_callback,"ax",%progbits
 104              	 .align 1
 105              	 .global i2c_master_end_of_transmit_callback
 106              	 .thumb
 107              	 .thumb_func
 109              	i2c_master_end_of_transmit_callback:
 110              	.LFB390:
  77:C:/Users/Yushev/git/optiga-trust-qi/pal/xmc4700\pal_i2c.c **** 
  78:C:/Users/Yushev/git/optiga-trust-qi/pal/xmc4700\pal_i2c.c ****     //Release I2C Bus
  79:C:/Users/Yushev/git/optiga-trust-qi/pal/xmc4700\pal_i2c.c ****     pal_i2c_release(p_pal_i2c_ctx->p_upper_layer_ctx);
  80:C:/Users/Yushev/git/optiga-trust-qi/pal/xmc4700\pal_i2c.c **** }
  81:C:/Users/Yushev/git/optiga-trust-qi/pal/xmc4700\pal_i2c.c **** 
  82:C:/Users/Yushev/git/optiga-trust-qi/pal/xmc4700\pal_i2c.c **** /// @cond hidden
  83:C:/Users/Yushev/git/optiga-trust-qi/pal/xmc4700\pal_i2c.c **** void i2c_master_end_of_transmit_callback(void)
  84:C:/Users/Yushev/git/optiga-trust-qi/pal/xmc4700\pal_i2c.c **** {
 111              	 .loc 1 84 0
 112              	 .cfi_startproc
 113              	 
 114              	 
 115              	 
  85:C:/Users/Yushev/git/optiga-trust-qi/pal/xmc4700\pal_i2c.c ****     invoke_upper_layer_callback(gp_pal_i2c_current_ctx, PAL_I2C_EVENT_SUCCESS);
 116              	 .loc 1 85 0
 117 0000 024B     	 ldr r3,.L11
 118 0002 0021     	 movs r1,#0
 119 0004 1868     	 ldr r0,[r3]
 120 0006 FFF7FEBF 	 b invoke_upper_layer_callback
 121              	.LVL4:
 122              	.L12:
 123 000a 00BF     	 .align 2
 124              	.L11:
 125 000c 00000000 	 .word .LANCHOR1
 126              	 .cfi_endproc
 127              	.LFE390:
 129              	 .section .text.i2c_master_end_of_receive_callback,"ax",%progbits
 130              	 .align 1
 131              	 .global i2c_master_end_of_receive_callback
 132              	 .thumb
 133              	 .thumb_func
 135              	i2c_master_end_of_receive_callback:
 136              	.LFB391:
  86:C:/Users/Yushev/git/optiga-trust-qi/pal/xmc4700\pal_i2c.c **** }
  87:C:/Users/Yushev/git/optiga-trust-qi/pal/xmc4700\pal_i2c.c **** 
  88:C:/Users/Yushev/git/optiga-trust-qi/pal/xmc4700\pal_i2c.c **** void i2c_master_end_of_receive_callback(void)
  89:C:/Users/Yushev/git/optiga-trust-qi/pal/xmc4700\pal_i2c.c **** {
 137              	 .loc 1 89 0
 138              	 .cfi_startproc
 139              	 
 140              	 
 141              	 
  90:C:/Users/Yushev/git/optiga-trust-qi/pal/xmc4700\pal_i2c.c ****     invoke_upper_layer_callback(gp_pal_i2c_current_ctx, PAL_I2C_EVENT_SUCCESS);
 142              	 .loc 1 90 0
 143 0000 024B     	 ldr r3,.L14
 144 0002 0021     	 movs r1,#0
 145 0004 1868     	 ldr r0,[r3]
 146 0006 FFF7FEBF 	 b invoke_upper_layer_callback
 147              	.LVL5:
 148              	.L15:
 149 000a 00BF     	 .align 2
 150              	.L14:
 151 000c 00000000 	 .word .LANCHOR1
 152              	 .cfi_endproc
 153              	.LFE391:
 155              	 .section .text.i2c_master_error_detected_callback,"ax",%progbits
 156              	 .align 1
 157              	 .global i2c_master_error_detected_callback
 158              	 .thumb
 159              	 .thumb_func
 161              	i2c_master_error_detected_callback:
 162              	.LFB392:
  91:C:/Users/Yushev/git/optiga-trust-qi/pal/xmc4700\pal_i2c.c **** }
  92:C:/Users/Yushev/git/optiga-trust-qi/pal/xmc4700\pal_i2c.c **** 
  93:C:/Users/Yushev/git/optiga-trust-qi/pal/xmc4700\pal_i2c.c **** void i2c_master_error_detected_callback(void)
  94:C:/Users/Yushev/git/optiga-trust-qi/pal/xmc4700\pal_i2c.c **** {
 163              	 .loc 1 94 0
 164              	 .cfi_startproc
 165              	 
 166              	 
 167 0000 38B5     	 push {r3,r4,r5,lr}
 168              	.LCFI1:
 169              	 .cfi_def_cfa_offset 16
 170              	 .cfi_offset 3,-16
 171              	 .cfi_offset 4,-12
 172              	 .cfi_offset 5,-8
 173              	 .cfi_offset 14,-4
  95:C:/Users/Yushev/git/optiga-trust-qi/pal/xmc4700\pal_i2c.c ****     I2C_MASTER_t * p_i2c_master;
  96:C:/Users/Yushev/git/optiga-trust-qi/pal/xmc4700\pal_i2c.c **** 
  97:C:/Users/Yushev/git/optiga-trust-qi/pal/xmc4700\pal_i2c.c ****     p_i2c_master = gp_pal_i2c_current_ctx->p_i2c_hw_config;
 174              	 .loc 1 97 0
 175 0002 124B     	 ldr r3,.L26
 176 0004 1A68     	 ldr r2,[r3]
 177 0006 1468     	 ldr r4,[r2]
 178              	.LVL6:
 179 0008 A268     	 ldr r2,[r4,#8]
 180              	.LVL7:
 181              	.LBB24:
 182              	.LBB25:
 183              	 .file 2 "C:/Users/Yushev/git/optiga-trust-qi/projects/xmc4700_relax_kit/common/Dave/Generated/I2C_MASTER/i2c_master.h"
   1:C:/Users/Yushev/git/optiga-trust-qi/projects/xmc4700_relax_kit/common/Dave/Generated/I2C_MASTER\i2c_master.h **** /**
   2:C:/Users/Yushev/git/optiga-trust-qi/projects/xmc4700_relax_kit/common/Dave/Generated/I2C_MASTER\i2c_master.h ****  * @file i2c_master.h
   3:C:/Users/Yushev/git/optiga-trust-qi/projects/xmc4700_relax_kit/common/Dave/Generated/I2C_MASTER\i2c_master.h ****  * @date 2017-12-20
   4:C:/Users/Yushev/git/optiga-trust-qi/projects/xmc4700_relax_kit/common/Dave/Generated/I2C_MASTER\i2c_master.h ****  *
   5:C:/Users/Yushev/git/optiga-trust-qi/projects/xmc4700_relax_kit/common/Dave/Generated/I2C_MASTER\i2c_master.h ****  * NOTE:
   6:C:/Users/Yushev/git/optiga-trust-qi/projects/xmc4700_relax_kit/common/Dave/Generated/I2C_MASTER\i2c_master.h ****  * This file is generated by DAVE. Any manual modification done to this file will be lost when the 
   7:C:/Users/Yushev/git/optiga-trust-qi/projects/xmc4700_relax_kit/common/Dave/Generated/I2C_MASTER\i2c_master.h ****  * regenerated.
   8:C:/Users/Yushev/git/optiga-trust-qi/projects/xmc4700_relax_kit/common/Dave/Generated/I2C_MASTER\i2c_master.h ****  */
   9:C:/Users/Yushev/git/optiga-trust-qi/projects/xmc4700_relax_kit/common/Dave/Generated/I2C_MASTER\i2c_master.h **** /**
  10:C:/Users/Yushev/git/optiga-trust-qi/projects/xmc4700_relax_kit/common/Dave/Generated/I2C_MASTER\i2c_master.h ****  * @cond
  11:C:/Users/Yushev/git/optiga-trust-qi/projects/xmc4700_relax_kit/common/Dave/Generated/I2C_MASTER\i2c_master.h ****  **************************************************************************************************
  12:C:/Users/Yushev/git/optiga-trust-qi/projects/xmc4700_relax_kit/common/Dave/Generated/I2C_MASTER\i2c_master.h ****  * I2C_MASTER v4.1.28 Configures USIC channel to transmit & receive data using I2C protocol.
  13:C:/Users/Yushev/git/optiga-trust-qi/projects/xmc4700_relax_kit/common/Dave/Generated/I2C_MASTER\i2c_master.h ****  *
  14:C:/Users/Yushev/git/optiga-trust-qi/projects/xmc4700_relax_kit/common/Dave/Generated/I2C_MASTER\i2c_master.h ****  * Copyright (c) 2015-2018, Infineon Technologies AG
  15:C:/Users/Yushev/git/optiga-trust-qi/projects/xmc4700_relax_kit/common/Dave/Generated/I2C_MASTER\i2c_master.h ****  * All rights reserved.
  16:C:/Users/Yushev/git/optiga-trust-qi/projects/xmc4700_relax_kit/common/Dave/Generated/I2C_MASTER\i2c_master.h ****  *
  17:C:/Users/Yushev/git/optiga-trust-qi/projects/xmc4700_relax_kit/common/Dave/Generated/I2C_MASTER\i2c_master.h ****  * Redistribution and use in source and binary forms, with or without modification,are permitted pr
  18:C:/Users/Yushev/git/optiga-trust-qi/projects/xmc4700_relax_kit/common/Dave/Generated/I2C_MASTER\i2c_master.h ****  * following conditions are met:
  19:C:/Users/Yushev/git/optiga-trust-qi/projects/xmc4700_relax_kit/common/Dave/Generated/I2C_MASTER\i2c_master.h ****  *
  20:C:/Users/Yushev/git/optiga-trust-qi/projects/xmc4700_relax_kit/common/Dave/Generated/I2C_MASTER\i2c_master.h ****  * Redistributions of source code must retain the above copyright notice, this list of conditions a
  21:C:/Users/Yushev/git/optiga-trust-qi/projects/xmc4700_relax_kit/common/Dave/Generated/I2C_MASTER\i2c_master.h ****  * disclaimer.
  22:C:/Users/Yushev/git/optiga-trust-qi/projects/xmc4700_relax_kit/common/Dave/Generated/I2C_MASTER\i2c_master.h ****  *
  23:C:/Users/Yushev/git/optiga-trust-qi/projects/xmc4700_relax_kit/common/Dave/Generated/I2C_MASTER\i2c_master.h ****  * Redistributions in binary form must reproduce the above copyright notice, this list of condition
  24:C:/Users/Yushev/git/optiga-trust-qi/projects/xmc4700_relax_kit/common/Dave/Generated/I2C_MASTER\i2c_master.h ****  * following disclaimer in the documentation and/or other materials provided with the distribution.
  25:C:/Users/Yushev/git/optiga-trust-qi/projects/xmc4700_relax_kit/common/Dave/Generated/I2C_MASTER\i2c_master.h ****  *
  26:C:/Users/Yushev/git/optiga-trust-qi/projects/xmc4700_relax_kit/common/Dave/Generated/I2C_MASTER\i2c_master.h ****  * Neither the name of the copyright holders nor the names of its contributors may be used to endor
  27:C:/Users/Yushev/git/optiga-trust-qi/projects/xmc4700_relax_kit/common/Dave/Generated/I2C_MASTER\i2c_master.h ****  * products derived from this software without specific prior written permission.
  28:C:/Users/Yushev/git/optiga-trust-qi/projects/xmc4700_relax_kit/common/Dave/Generated/I2C_MASTER\i2c_master.h ****  *
  29:C:/Users/Yushev/git/optiga-trust-qi/projects/xmc4700_relax_kit/common/Dave/Generated/I2C_MASTER\i2c_master.h ****  * THIS SOFTWARE IS PROVIDED BY THE COPYRIGHT HOLDERS AND CONTRIBUTORS "AS IS" AND ANY EXPRESS OR I
  30:C:/Users/Yushev/git/optiga-trust-qi/projects/xmc4700_relax_kit/common/Dave/Generated/I2C_MASTER\i2c_master.h ****  * INCLUDING, BUT NOT LIMITED TO, THE IMPLIED WARRANTIES OF MERCHANTABILITY AND FITNESS FOR A PARTI
  31:C:/Users/Yushev/git/optiga-trust-qi/projects/xmc4700_relax_kit/common/Dave/Generated/I2C_MASTER\i2c_master.h ****  * DISCLAIMED. IN NO EVENT SHALL THE COPYRIGHT HOLDER OR CONTRIBUTORS BE LIABLE  FOR ANY DIRECT, IN
  32:C:/Users/Yushev/git/optiga-trust-qi/projects/xmc4700_relax_kit/common/Dave/Generated/I2C_MASTER\i2c_master.h ****  * SPECIAL, EXEMPLARY, OR CONSEQUENTIAL DAMAGES (INCLUDING, BUT NOT LIMITED TO, PROCUREMENT OF SUBS
  33:C:/Users/Yushev/git/optiga-trust-qi/projects/xmc4700_relax_kit/common/Dave/Generated/I2C_MASTER\i2c_master.h ****  * SERVICES; LOSS OF USE, DATA, OR PROFITS; OR BUSINESS INTERRUPTION) HOWEVER CAUSED AND ON ANY THE
  34:C:/Users/Yushev/git/optiga-trust-qi/projects/xmc4700_relax_kit/common/Dave/Generated/I2C_MASTER\i2c_master.h ****  * WHETHER IN CONTRACT, STRICT LIABILITY,OR TORT (INCLUDING NEGLIGENCE OR OTHERWISE) ARISING IN ANY
  35:C:/Users/Yushev/git/optiga-trust-qi/projects/xmc4700_relax_kit/common/Dave/Generated/I2C_MASTER\i2c_master.h ****  * USE OF THIS SOFTWARE, EVEN IF ADVISED OF THE POSSIBILITY OF SUCH DAMAGE.
  36:C:/Users/Yushev/git/optiga-trust-qi/projects/xmc4700_relax_kit/common/Dave/Generated/I2C_MASTER\i2c_master.h ****  *
  37:C:/Users/Yushev/git/optiga-trust-qi/projects/xmc4700_relax_kit/common/Dave/Generated/I2C_MASTER\i2c_master.h ****  * To improve the quality of the software, users are encouraged to share modifications, enhancement
  38:C:/Users/Yushev/git/optiga-trust-qi/projects/xmc4700_relax_kit/common/Dave/Generated/I2C_MASTER\i2c_master.h ****  * with Infineon Technologies AG (dave@infineon.com).
  39:C:/Users/Yushev/git/optiga-trust-qi/projects/xmc4700_relax_kit/common/Dave/Generated/I2C_MASTER\i2c_master.h ****  **************************************************************************************************
  40:C:/Users/Yushev/git/optiga-trust-qi/projects/xmc4700_relax_kit/common/Dave/Generated/I2C_MASTER\i2c_master.h ****  *
  41:C:/Users/Yushev/git/optiga-trust-qi/projects/xmc4700_relax_kit/common/Dave/Generated/I2C_MASTER\i2c_master.h ****  * Change History
  42:C:/Users/Yushev/git/optiga-trust-qi/projects/xmc4700_relax_kit/common/Dave/Generated/I2C_MASTER\i2c_master.h ****  * --------------
  43:C:/Users/Yushev/git/optiga-trust-qi/projects/xmc4700_relax_kit/common/Dave/Generated/I2C_MASTER\i2c_master.h ****  *
  44:C:/Users/Yushev/git/optiga-trust-qi/projects/xmc4700_relax_kit/common/Dave/Generated/I2C_MASTER\i2c_master.h ****  * 2015-02-16:
  45:C:/Users/Yushev/git/optiga-trust-qi/projects/xmc4700_relax_kit/common/Dave/Generated/I2C_MASTER\i2c_master.h ****  *     - Initial version<br>
  46:C:/Users/Yushev/git/optiga-trust-qi/projects/xmc4700_relax_kit/common/Dave/Generated/I2C_MASTER\i2c_master.h ****  *
  47:C:/Users/Yushev/git/optiga-trust-qi/projects/xmc4700_relax_kit/common/Dave/Generated/I2C_MASTER\i2c_master.h ****  * 2015-06-10:
  48:C:/Users/Yushev/git/optiga-trust-qi/projects/xmc4700_relax_kit/common/Dave/Generated/I2C_MASTER\i2c_master.h ****  *     - AbortTransmit and AbortReceive API return type modified. <br>
  49:C:/Users/Yushev/git/optiga-trust-qi/projects/xmc4700_relax_kit/common/Dave/Generated/I2C_MASTER\i2c_master.h ****  *
  50:C:/Users/Yushev/git/optiga-trust-qi/projects/xmc4700_relax_kit/common/Dave/Generated/I2C_MASTER\i2c_master.h ****  * 2015-08-31:
  51:C:/Users/Yushev/git/optiga-trust-qi/projects/xmc4700_relax_kit/common/Dave/Generated/I2C_MASTER\i2c_master.h ****  *     - DMA support APIs added
  52:C:/Users/Yushev/git/optiga-trust-qi/projects/xmc4700_relax_kit/common/Dave/Generated/I2C_MASTER\i2c_master.h ****  * 2015-10-20:
  53:C:/Users/Yushev/git/optiga-trust-qi/projects/xmc4700_relax_kit/common/Dave/Generated/I2C_MASTER\i2c_master.h ****  *     - Code snippets updated
  54:C:/Users/Yushev/git/optiga-trust-qi/projects/xmc4700_relax_kit/common/Dave/Generated/I2C_MASTER\i2c_master.h ****  * 2016-08-18:
  55:C:/Users/Yushev/git/optiga-trust-qi/projects/xmc4700_relax_kit/common/Dave/Generated/I2C_MASTER\i2c_master.h ****  *     - Documentation of slave address formatting improved.
  56:C:/Users/Yushev/git/optiga-trust-qi/projects/xmc4700_relax_kit/common/Dave/Generated/I2C_MASTER\i2c_master.h ****  * 2017-11-17:
  57:C:/Users/Yushev/git/optiga-trust-qi/projects/xmc4700_relax_kit/common/Dave/Generated/I2C_MASTER\i2c_master.h ****  *     - Added tx_irqn and rx_irqn to I2C_MASTER_CONFIG_t
  58:C:/Users/Yushev/git/optiga-trust-qi/projects/xmc4700_relax_kit/common/Dave/Generated/I2C_MASTER\i2c_master.h ****  * 2017-12-20:
  59:C:/Users/Yushev/git/optiga-trust-qi/projects/xmc4700_relax_kit/common/Dave/Generated/I2C_MASTER\i2c_master.h ****  *     - Added I2C_MASTER_FlushTxFifo(), I2C_MASTER_FlushRxFifo(), I2C_MASTER_DisableOutputs(), I2C
  60:C:/Users/Yushev/git/optiga-trust-qi/projects/xmc4700_relax_kit/common/Dave/Generated/I2C_MASTER\i2c_master.h ****  *
  61:C:/Users/Yushev/git/optiga-trust-qi/projects/xmc4700_relax_kit/common/Dave/Generated/I2C_MASTER\i2c_master.h ****  * @endcond
  62:C:/Users/Yushev/git/optiga-trust-qi/projects/xmc4700_relax_kit/common/Dave/Generated/I2C_MASTER\i2c_master.h ****  *
  63:C:/Users/Yushev/git/optiga-trust-qi/projects/xmc4700_relax_kit/common/Dave/Generated/I2C_MASTER\i2c_master.h ****  */
  64:C:/Users/Yushev/git/optiga-trust-qi/projects/xmc4700_relax_kit/common/Dave/Generated/I2C_MASTER\i2c_master.h **** 
  65:C:/Users/Yushev/git/optiga-trust-qi/projects/xmc4700_relax_kit/common/Dave/Generated/I2C_MASTER\i2c_master.h **** #ifndef I2C_MASTER_H
  66:C:/Users/Yushev/git/optiga-trust-qi/projects/xmc4700_relax_kit/common/Dave/Generated/I2C_MASTER\i2c_master.h **** #define I2C_MASTER_H
  67:C:/Users/Yushev/git/optiga-trust-qi/projects/xmc4700_relax_kit/common/Dave/Generated/I2C_MASTER\i2c_master.h **** 
  68:C:/Users/Yushev/git/optiga-trust-qi/projects/xmc4700_relax_kit/common/Dave/Generated/I2C_MASTER\i2c_master.h **** 
  69:C:/Users/Yushev/git/optiga-trust-qi/projects/xmc4700_relax_kit/common/Dave/Generated/I2C_MASTER\i2c_master.h **** 
  70:C:/Users/Yushev/git/optiga-trust-qi/projects/xmc4700_relax_kit/common/Dave/Generated/I2C_MASTER\i2c_master.h **** /**************************************************************************************************
  71:C:/Users/Yushev/git/optiga-trust-qi/projects/xmc4700_relax_kit/common/Dave/Generated/I2C_MASTER\i2c_master.h ****  * HEADER FILES
  72:C:/Users/Yushev/git/optiga-trust-qi/projects/xmc4700_relax_kit/common/Dave/Generated/I2C_MASTER\i2c_master.h ****  **************************************************************************************************
  73:C:/Users/Yushev/git/optiga-trust-qi/projects/xmc4700_relax_kit/common/Dave/Generated/I2C_MASTER\i2c_master.h **** #include <xmc_gpio.h>
  74:C:/Users/Yushev/git/optiga-trust-qi/projects/xmc4700_relax_kit/common/Dave/Generated/I2C_MASTER\i2c_master.h **** #include <xmc_i2c.h>
  75:C:/Users/Yushev/git/optiga-trust-qi/projects/xmc4700_relax_kit/common/Dave/Generated/I2C_MASTER\i2c_master.h **** #include "i2c_master_conf.h"
  76:C:/Users/Yushev/git/optiga-trust-qi/projects/xmc4700_relax_kit/common/Dave/Generated/I2C_MASTER\i2c_master.h **** 
  77:C:/Users/Yushev/git/optiga-trust-qi/projects/xmc4700_relax_kit/common/Dave/Generated/I2C_MASTER\i2c_master.h **** #if(UC_FAMILY == XMC4)
  78:C:/Users/Yushev/git/optiga-trust-qi/projects/xmc4700_relax_kit/common/Dave/Generated/I2C_MASTER\i2c_master.h **** #if ((I2C_MASTER_DMA_TX_ENABLED == 1) || (I2C_MASTER_DMA_RX_ENABLED == 1))
  79:C:/Users/Yushev/git/optiga-trust-qi/projects/xmc4700_relax_kit/common/Dave/Generated/I2C_MASTER\i2c_master.h **** #include "GLOBAL_DMA/global_dma.h"
  80:C:/Users/Yushev/git/optiga-trust-qi/projects/xmc4700_relax_kit/common/Dave/Generated/I2C_MASTER\i2c_master.h **** #endif
  81:C:/Users/Yushev/git/optiga-trust-qi/projects/xmc4700_relax_kit/common/Dave/Generated/I2C_MASTER\i2c_master.h **** #endif
  82:C:/Users/Yushev/git/optiga-trust-qi/projects/xmc4700_relax_kit/common/Dave/Generated/I2C_MASTER\i2c_master.h **** 
  83:C:/Users/Yushev/git/optiga-trust-qi/projects/xmc4700_relax_kit/common/Dave/Generated/I2C_MASTER\i2c_master.h **** #include <DAVE_Common.h>
  84:C:/Users/Yushev/git/optiga-trust-qi/projects/xmc4700_relax_kit/common/Dave/Generated/I2C_MASTER\i2c_master.h **** 
  85:C:/Users/Yushev/git/optiga-trust-qi/projects/xmc4700_relax_kit/common/Dave/Generated/I2C_MASTER\i2c_master.h **** 
  86:C:/Users/Yushev/git/optiga-trust-qi/projects/xmc4700_relax_kit/common/Dave/Generated/I2C_MASTER\i2c_master.h **** typedef void(*i2c_master_fptr_cbhandler)(void);
  87:C:/Users/Yushev/git/optiga-trust-qi/projects/xmc4700_relax_kit/common/Dave/Generated/I2C_MASTER\i2c_master.h **** 
  88:C:/Users/Yushev/git/optiga-trust-qi/projects/xmc4700_relax_kit/common/Dave/Generated/I2C_MASTER\i2c_master.h **** /**************************************************************************************************
  89:C:/Users/Yushev/git/optiga-trust-qi/projects/xmc4700_relax_kit/common/Dave/Generated/I2C_MASTER\i2c_master.h ****  * MACROS
  90:C:/Users/Yushev/git/optiga-trust-qi/projects/xmc4700_relax_kit/common/Dave/Generated/I2C_MASTER\i2c_master.h ****  **************************************************************************************************
  91:C:/Users/Yushev/git/optiga-trust-qi/projects/xmc4700_relax_kit/common/Dave/Generated/I2C_MASTER\i2c_master.h **** #if (!((XMC_LIB_MAJOR_VERSION == 2U) && \
  92:C:/Users/Yushev/git/optiga-trust-qi/projects/xmc4700_relax_kit/common/Dave/Generated/I2C_MASTER\i2c_master.h ****        (XMC_LIB_MINOR_VERSION >= 0U) && \
  93:C:/Users/Yushev/git/optiga-trust-qi/projects/xmc4700_relax_kit/common/Dave/Generated/I2C_MASTER\i2c_master.h ****        (XMC_LIB_PATCH_VERSION >= 0U)))
  94:C:/Users/Yushev/git/optiga-trust-qi/projects/xmc4700_relax_kit/common/Dave/Generated/I2C_MASTER\i2c_master.h **** #error "I2C_MASTER requires XMC Peripheral Library v2.0.0 or higher"
  95:C:/Users/Yushev/git/optiga-trust-qi/projects/xmc4700_relax_kit/common/Dave/Generated/I2C_MASTER\i2c_master.h **** #endif
  96:C:/Users/Yushev/git/optiga-trust-qi/projects/xmc4700_relax_kit/common/Dave/Generated/I2C_MASTER\i2c_master.h **** 
  97:C:/Users/Yushev/git/optiga-trust-qi/projects/xmc4700_relax_kit/common/Dave/Generated/I2C_MASTER\i2c_master.h **** /**************************************************************************************************
  98:C:/Users/Yushev/git/optiga-trust-qi/projects/xmc4700_relax_kit/common/Dave/Generated/I2C_MASTER\i2c_master.h ****  * ENUMS
  99:C:/Users/Yushev/git/optiga-trust-qi/projects/xmc4700_relax_kit/common/Dave/Generated/I2C_MASTER\i2c_master.h ****  **************************************************************************************************
 100:C:/Users/Yushev/git/optiga-trust-qi/projects/xmc4700_relax_kit/common/Dave/Generated/I2C_MASTER\i2c_master.h **** /**
 101:C:/Users/Yushev/git/optiga-trust-qi/projects/xmc4700_relax_kit/common/Dave/Generated/I2C_MASTER\i2c_master.h ****  * @ingroup I2C_MASTER_enumerations
 102:C:/Users/Yushev/git/optiga-trust-qi/projects/xmc4700_relax_kit/common/Dave/Generated/I2C_MASTER\i2c_master.h ****  * @{
 103:C:/Users/Yushev/git/optiga-trust-qi/projects/xmc4700_relax_kit/common/Dave/Generated/I2C_MASTER\i2c_master.h ****  */
 104:C:/Users/Yushev/git/optiga-trust-qi/projects/xmc4700_relax_kit/common/Dave/Generated/I2C_MASTER\i2c_master.h **** /**
 105:C:/Users/Yushev/git/optiga-trust-qi/projects/xmc4700_relax_kit/common/Dave/Generated/I2C_MASTER\i2c_master.h ****  * Initialization status.
 106:C:/Users/Yushev/git/optiga-trust-qi/projects/xmc4700_relax_kit/common/Dave/Generated/I2C_MASTER\i2c_master.h ****  */
 107:C:/Users/Yushev/git/optiga-trust-qi/projects/xmc4700_relax_kit/common/Dave/Generated/I2C_MASTER\i2c_master.h **** typedef enum I2C_MASTER_STATUS
 108:C:/Users/Yushev/git/optiga-trust-qi/projects/xmc4700_relax_kit/common/Dave/Generated/I2C_MASTER\i2c_master.h **** {
 109:C:/Users/Yushev/git/optiga-trust-qi/projects/xmc4700_relax_kit/common/Dave/Generated/I2C_MASTER\i2c_master.h ****   I2C_MASTER_STATUS_SUCCESS = 0U,           /*!< I2C_MASTER SUCCESS */
 110:C:/Users/Yushev/git/optiga-trust-qi/projects/xmc4700_relax_kit/common/Dave/Generated/I2C_MASTER\i2c_master.h ****   I2C_MASTER_STATUS_FAILURE = 1U,           /*!< I2C_MASTER FAILURE */
 111:C:/Users/Yushev/git/optiga-trust-qi/projects/xmc4700_relax_kit/common/Dave/Generated/I2C_MASTER\i2c_master.h ****   I2C_MASTER_STATUS_BUSY = 2U,              /*!< I2C_MASTER BUSY */
 112:C:/Users/Yushev/git/optiga-trust-qi/projects/xmc4700_relax_kit/common/Dave/Generated/I2C_MASTER\i2c_master.h ****   I2C_MASTER_STATUS_UNSUPPORTED_MODE = 3U   /*!< I2C_MASTER UNSUPPORTED MODE */
 113:C:/Users/Yushev/git/optiga-trust-qi/projects/xmc4700_relax_kit/common/Dave/Generated/I2C_MASTER\i2c_master.h **** } I2C_MASTER_STATUS_t;
 114:C:/Users/Yushev/git/optiga-trust-qi/projects/xmc4700_relax_kit/common/Dave/Generated/I2C_MASTER\i2c_master.h **** 
 115:C:/Users/Yushev/git/optiga-trust-qi/projects/xmc4700_relax_kit/common/Dave/Generated/I2C_MASTER\i2c_master.h **** /**
 116:C:/Users/Yushev/git/optiga-trust-qi/projects/xmc4700_relax_kit/common/Dave/Generated/I2C_MASTER\i2c_master.h ****  * Direction
 117:C:/Users/Yushev/git/optiga-trust-qi/projects/xmc4700_relax_kit/common/Dave/Generated/I2C_MASTER\i2c_master.h ****  */
 118:C:/Users/Yushev/git/optiga-trust-qi/projects/xmc4700_relax_kit/common/Dave/Generated/I2C_MASTER\i2c_master.h **** typedef enum I2C_MASTER_DIRECTION
 119:C:/Users/Yushev/git/optiga-trust-qi/projects/xmc4700_relax_kit/common/Dave/Generated/I2C_MASTER\i2c_master.h **** {
 120:C:/Users/Yushev/git/optiga-trust-qi/projects/xmc4700_relax_kit/common/Dave/Generated/I2C_MASTER\i2c_master.h ****   I2C_MASTER_DIRECTION_TRANSMIT = 0U,   /*!< Direction indicates transmit */
 121:C:/Users/Yushev/git/optiga-trust-qi/projects/xmc4700_relax_kit/common/Dave/Generated/I2C_MASTER\i2c_master.h ****   I2C_MASTER_DIRECTION_RECEIVE = 1U     /*!< Direction indicates receive */
 122:C:/Users/Yushev/git/optiga-trust-qi/projects/xmc4700_relax_kit/common/Dave/Generated/I2C_MASTER\i2c_master.h **** } I2C_MASTER_DIRECTION_t;
 123:C:/Users/Yushev/git/optiga-trust-qi/projects/xmc4700_relax_kit/common/Dave/Generated/I2C_MASTER\i2c_master.h **** 
 124:C:/Users/Yushev/git/optiga-trust-qi/projects/xmc4700_relax_kit/common/Dave/Generated/I2C_MASTER\i2c_master.h **** /**
 125:C:/Users/Yushev/git/optiga-trust-qi/projects/xmc4700_relax_kit/common/Dave/Generated/I2C_MASTER\i2c_master.h ****  * @brief Enum used to identify the transfer type used for either transmit or receive function.
 126:C:/Users/Yushev/git/optiga-trust-qi/projects/xmc4700_relax_kit/common/Dave/Generated/I2C_MASTER\i2c_master.h ****  */
 127:C:/Users/Yushev/git/optiga-trust-qi/projects/xmc4700_relax_kit/common/Dave/Generated/I2C_MASTER\i2c_master.h **** typedef enum I2C_MASTER_TRANSFER_MODE
 128:C:/Users/Yushev/git/optiga-trust-qi/projects/xmc4700_relax_kit/common/Dave/Generated/I2C_MASTER\i2c_master.h **** {
 129:C:/Users/Yushev/git/optiga-trust-qi/projects/xmc4700_relax_kit/common/Dave/Generated/I2C_MASTER\i2c_master.h ****   I2C_MASTER_TRANSFER_MODE_INTERRUPT,  /**< Implement data transmit or receive using interrupts */
 130:C:/Users/Yushev/git/optiga-trust-qi/projects/xmc4700_relax_kit/common/Dave/Generated/I2C_MASTER\i2c_master.h ****   I2C_MASTER_TRANSFER_MODE_DMA,        /**< Implement data transmit or receive using DMA */
 131:C:/Users/Yushev/git/optiga-trust-qi/projects/xmc4700_relax_kit/common/Dave/Generated/I2C_MASTER\i2c_master.h ****   I2C_MASTER_TRANSFER_MODE_DIRECT      /**< This configuration exposes signals for external APP con
 132:C:/Users/Yushev/git/optiga-trust-qi/projects/xmc4700_relax_kit/common/Dave/Generated/I2C_MASTER\i2c_master.h **** } I2C_MASTER_TRANSFER_MODE_t;
 133:C:/Users/Yushev/git/optiga-trust-qi/projects/xmc4700_relax_kit/common/Dave/Generated/I2C_MASTER\i2c_master.h **** /**
 134:C:/Users/Yushev/git/optiga-trust-qi/projects/xmc4700_relax_kit/common/Dave/Generated/I2C_MASTER\i2c_master.h ****  * @}
 135:C:/Users/Yushev/git/optiga-trust-qi/projects/xmc4700_relax_kit/common/Dave/Generated/I2C_MASTER\i2c_master.h ****  */
 136:C:/Users/Yushev/git/optiga-trust-qi/projects/xmc4700_relax_kit/common/Dave/Generated/I2C_MASTER\i2c_master.h **** /**************************************************************************************************
 137:C:/Users/Yushev/git/optiga-trust-qi/projects/xmc4700_relax_kit/common/Dave/Generated/I2C_MASTER\i2c_master.h **** * DATA STRUCTURES
 138:C:/Users/Yushev/git/optiga-trust-qi/projects/xmc4700_relax_kit/common/Dave/Generated/I2C_MASTER\i2c_master.h **** ***************************************************************************************************
 139:C:/Users/Yushev/git/optiga-trust-qi/projects/xmc4700_relax_kit/common/Dave/Generated/I2C_MASTER\i2c_master.h **** 
 140:C:/Users/Yushev/git/optiga-trust-qi/projects/xmc4700_relax_kit/common/Dave/Generated/I2C_MASTER\i2c_master.h **** /**
 141:C:/Users/Yushev/git/optiga-trust-qi/projects/xmc4700_relax_kit/common/Dave/Generated/I2C_MASTER\i2c_master.h ****  * @ingroup I2C_MASTER_datastructures
 142:C:/Users/Yushev/git/optiga-trust-qi/projects/xmc4700_relax_kit/common/Dave/Generated/I2C_MASTER\i2c_master.h ****  * @{
 143:C:/Users/Yushev/git/optiga-trust-qi/projects/xmc4700_relax_kit/common/Dave/Generated/I2C_MASTER\i2c_master.h ****  */
 144:C:/Users/Yushev/git/optiga-trust-qi/projects/xmc4700_relax_kit/common/Dave/Generated/I2C_MASTER\i2c_master.h **** /**
 145:C:/Users/Yushev/git/optiga-trust-qi/projects/xmc4700_relax_kit/common/Dave/Generated/I2C_MASTER\i2c_master.h ****  * @brief Structure for DMA configuration.
 146:C:/Users/Yushev/git/optiga-trust-qi/projects/xmc4700_relax_kit/common/Dave/Generated/I2C_MASTER\i2c_master.h ****  */
 147:C:/Users/Yushev/git/optiga-trust-qi/projects/xmc4700_relax_kit/common/Dave/Generated/I2C_MASTER\i2c_master.h **** #if ((I2C_MASTER_DMA_TX_ENABLED == 1) || (I2C_MASTER_DMA_RX_ENABLED == 1))
 148:C:/Users/Yushev/git/optiga-trust-qi/projects/xmc4700_relax_kit/common/Dave/Generated/I2C_MASTER\i2c_master.h **** typedef struct I2C_MASTER_DMA_CONFIG
 149:C:/Users/Yushev/git/optiga-trust-qi/projects/xmc4700_relax_kit/common/Dave/Generated/I2C_MASTER\i2c_master.h **** {
 150:C:/Users/Yushev/git/optiga-trust-qi/projects/xmc4700_relax_kit/common/Dave/Generated/I2C_MASTER\i2c_master.h ****   const XMC_DMA_CH_CONFIG_t * dma_ch_config;   /**< Pointer to the DMA channel configuration.*/
 151:C:/Users/Yushev/git/optiga-trust-qi/projects/xmc4700_relax_kit/common/Dave/Generated/I2C_MASTER\i2c_master.h ****   GLOBAL_DMA_t * global_dma;                   /**< Global DMA handle */
 152:C:/Users/Yushev/git/optiga-trust-qi/projects/xmc4700_relax_kit/common/Dave/Generated/I2C_MASTER\i2c_master.h ****   uint8_t dma_channel;                         /**< DMA channel number */
 153:C:/Users/Yushev/git/optiga-trust-qi/projects/xmc4700_relax_kit/common/Dave/Generated/I2C_MASTER\i2c_master.h **** } I2C_MASTER_DMA_CONFIG_t;
 154:C:/Users/Yushev/git/optiga-trust-qi/projects/xmc4700_relax_kit/common/Dave/Generated/I2C_MASTER\i2c_master.h **** #endif
 155:C:/Users/Yushev/git/optiga-trust-qi/projects/xmc4700_relax_kit/common/Dave/Generated/I2C_MASTER\i2c_master.h **** /**
 156:C:/Users/Yushev/git/optiga-trust-qi/projects/xmc4700_relax_kit/common/Dave/Generated/I2C_MASTER\i2c_master.h ****  * @brief Constant structure for holding the configuration parameters of I2C channel.
 157:C:/Users/Yushev/git/optiga-trust-qi/projects/xmc4700_relax_kit/common/Dave/Generated/I2C_MASTER\i2c_master.h ****  */
 158:C:/Users/Yushev/git/optiga-trust-qi/projects/xmc4700_relax_kit/common/Dave/Generated/I2C_MASTER\i2c_master.h **** typedef struct I2C_MASTER_CONFIG
 159:C:/Users/Yushev/git/optiga-trust-qi/projects/xmc4700_relax_kit/common/Dave/Generated/I2C_MASTER\i2c_master.h **** {
 160:C:/Users/Yushev/git/optiga-trust-qi/projects/xmc4700_relax_kit/common/Dave/Generated/I2C_MASTER\i2c_master.h ****    const XMC_I2C_CH_CONFIG_t *brg_config;             /*!< Basic I2C configuration from the GUI wit
 161:C:/Users/Yushev/git/optiga-trust-qi/projects/xmc4700_relax_kit/common/Dave/Generated/I2C_MASTER\i2c_master.h **** #if (I2C_MASTER_DMA_TX_ENABLED == 1)
 162:C:/Users/Yushev/git/optiga-trust-qi/projects/xmc4700_relax_kit/common/Dave/Generated/I2C_MASTER\i2c_master.h ****    const I2C_MASTER_DMA_CONFIG_t * const transmit_dma_config; /**< Pointer to the DMA channel confi
 163:C:/Users/Yushev/git/optiga-trust-qi/projects/xmc4700_relax_kit/common/Dave/Generated/I2C_MASTER\i2c_master.h ****                                                                    data transmission.*/
 164:C:/Users/Yushev/git/optiga-trust-qi/projects/xmc4700_relax_kit/common/Dave/Generated/I2C_MASTER\i2c_master.h **** #endif
 165:C:/Users/Yushev/git/optiga-trust-qi/projects/xmc4700_relax_kit/common/Dave/Generated/I2C_MASTER\i2c_master.h **** #if (I2C_MASTER_DMA_RX_ENABLED == 1)
 166:C:/Users/Yushev/git/optiga-trust-qi/projects/xmc4700_relax_kit/common/Dave/Generated/I2C_MASTER\i2c_master.h ****    const I2C_MASTER_DMA_CONFIG_t * const receive_dma_config;  /**< Pointer to the DMA channel confi
 167:C:/Users/Yushev/git/optiga-trust-qi/projects/xmc4700_relax_kit/common/Dave/Generated/I2C_MASTER\i2c_master.h ****                                                                    data reception.*/
 168:C:/Users/Yushev/git/optiga-trust-qi/projects/xmc4700_relax_kit/common/Dave/Generated/I2C_MASTER\i2c_master.h **** #endif
 169:C:/Users/Yushev/git/optiga-trust-qi/projects/xmc4700_relax_kit/common/Dave/Generated/I2C_MASTER\i2c_master.h ****    i2c_master_fptr_cbhandler fptr_i2c_config;         /*!< Function pointer to configure the MUX va
 170:C:/Users/Yushev/git/optiga-trust-qi/projects/xmc4700_relax_kit/common/Dave/Generated/I2C_MASTER\i2c_master.h ****    i2c_master_fptr_cbhandler fptr_i2c_enable_io;      /*!< Function pointer to enable SDA/SCL outpu
 171:C:/Users/Yushev/git/optiga-trust-qi/projects/xmc4700_relax_kit/common/Dave/Generated/I2C_MASTER\i2c_master.h ****    i2c_master_fptr_cbhandler fptr_i2c_disable_io;     /*!< Function pointer to disable SDA/SCL outp
 172:C:/Users/Yushev/git/optiga-trust-qi/projects/xmc4700_relax_kit/common/Dave/Generated/I2C_MASTER\i2c_master.h **** 
 173:C:/Users/Yushev/git/optiga-trust-qi/projects/xmc4700_relax_kit/common/Dave/Generated/I2C_MASTER\i2c_master.h ****    i2c_master_fptr_cbhandler tx_cbhandler;            /*!< Function pointer to hold the callback fu
 174:C:/Users/Yushev/git/optiga-trust-qi/projects/xmc4700_relax_kit/common/Dave/Generated/I2C_MASTER\i2c_master.h ****                                                            called when the transmission is complete
 175:C:/Users/Yushev/git/optiga-trust-qi/projects/xmc4700_relax_kit/common/Dave/Generated/I2C_MASTER\i2c_master.h ****    i2c_master_fptr_cbhandler rx_cbhandler;            /*!< Function pointer to hold the callback fu
 176:C:/Users/Yushev/git/optiga-trust-qi/projects/xmc4700_relax_kit/common/Dave/Generated/I2C_MASTER\i2c_master.h ****                                                            called when the reception is complete*/
 177:C:/Users/Yushev/git/optiga-trust-qi/projects/xmc4700_relax_kit/common/Dave/Generated/I2C_MASTER\i2c_master.h ****    i2c_master_fptr_cbhandler nack_cbhandler;          /*!< Function pointer to hold the callback fu
 178:C:/Users/Yushev/git/optiga-trust-qi/projects/xmc4700_relax_kit/common/Dave/Generated/I2C_MASTER\i2c_master.h ****                                                            called when nack is received*/
 179:C:/Users/Yushev/git/optiga-trust-qi/projects/xmc4700_relax_kit/common/Dave/Generated/I2C_MASTER\i2c_master.h ****    i2c_master_fptr_cbhandler arbitration_cbhandler;   /*!< Function pointer to hold the callback fu
 180:C:/Users/Yushev/git/optiga-trust-qi/projects/xmc4700_relax_kit/common/Dave/Generated/I2C_MASTER\i2c_master.h ****                                                            called when arbitration lost is occured*
 181:C:/Users/Yushev/git/optiga-trust-qi/projects/xmc4700_relax_kit/common/Dave/Generated/I2C_MASTER\i2c_master.h ****    i2c_master_fptr_cbhandler error_cbhandler;         /*!< Function pointer to hold the callback fu
 182:C:/Users/Yushev/git/optiga-trust-qi/projects/xmc4700_relax_kit/common/Dave/Generated/I2C_MASTER\i2c_master.h ****                                                            called when error is detected.*/
 183:C:/Users/Yushev/git/optiga-trust-qi/projects/xmc4700_relax_kit/common/Dave/Generated/I2C_MASTER\i2c_master.h ****    I2C_MASTER_TRANSFER_MODE_t transmit_mode;          /**< Mode used for transmitting data. Data ca
 184:C:/Users/Yushev/git/optiga-trust-qi/projects/xmc4700_relax_kit/common/Dave/Generated/I2C_MASTER\i2c_master.h ****                                                            interrupt, DMA or direct(using polling o
 185:C:/Users/Yushev/git/optiga-trust-qi/projects/xmc4700_relax_kit/common/Dave/Generated/I2C_MASTER\i2c_master.h ****    I2C_MASTER_TRANSFER_MODE_t receive_mode;           /**< Mode used for receiving data. Data can b
 186:C:/Users/Yushev/git/optiga-trust-qi/projects/xmc4700_relax_kit/common/Dave/Generated/I2C_MASTER\i2c_master.h ****                                                            interrupt, DMA or direct(using polling o
 187:C:/Users/Yushev/git/optiga-trust-qi/projects/xmc4700_relax_kit/common/Dave/Generated/I2C_MASTER\i2c_master.h **** 
 188:C:/Users/Yushev/git/optiga-trust-qi/projects/xmc4700_relax_kit/common/Dave/Generated/I2C_MASTER\i2c_master.h ****    XMC_USIC_CH_FIFO_SIZE_t txFIFO_size;               /*!< TxFIFO size configuration*/
 189:C:/Users/Yushev/git/optiga-trust-qi/projects/xmc4700_relax_kit/common/Dave/Generated/I2C_MASTER\i2c_master.h ****    XMC_USIC_CH_FIFO_SIZE_t rxFIFO_size;               /*!< RxFIFO size configuration*/
 190:C:/Users/Yushev/git/optiga-trust-qi/projects/xmc4700_relax_kit/common/Dave/Generated/I2C_MASTER\i2c_master.h **** 
 191:C:/Users/Yushev/git/optiga-trust-qi/projects/xmc4700_relax_kit/common/Dave/Generated/I2C_MASTER\i2c_master.h ****    IRQn_Type tx_irqn;
 192:C:/Users/Yushev/git/optiga-trust-qi/projects/xmc4700_relax_kit/common/Dave/Generated/I2C_MASTER\i2c_master.h ****    IRQn_Type rx_irqn; 
 193:C:/Users/Yushev/git/optiga-trust-qi/projects/xmc4700_relax_kit/common/Dave/Generated/I2C_MASTER\i2c_master.h **** } I2C_MASTER_CONFIG_t;
 194:C:/Users/Yushev/git/optiga-trust-qi/projects/xmc4700_relax_kit/common/Dave/Generated/I2C_MASTER\i2c_master.h **** 
 195:C:/Users/Yushev/git/optiga-trust-qi/projects/xmc4700_relax_kit/common/Dave/Generated/I2C_MASTER\i2c_master.h **** /**
 196:C:/Users/Yushev/git/optiga-trust-qi/projects/xmc4700_relax_kit/common/Dave/Generated/I2C_MASTER\i2c_master.h ****  * @brief Structure to hold the dynamic variables for the I2C_MASTER communication.
 197:C:/Users/Yushev/git/optiga-trust-qi/projects/xmc4700_relax_kit/common/Dave/Generated/I2C_MASTER\i2c_master.h ****  */
 198:C:/Users/Yushev/git/optiga-trust-qi/projects/xmc4700_relax_kit/common/Dave/Generated/I2C_MASTER\i2c_master.h **** typedef struct I2C_MASTER_RUNTIME
 199:C:/Users/Yushev/git/optiga-trust-qi/projects/xmc4700_relax_kit/common/Dave/Generated/I2C_MASTER\i2c_master.h **** {
 200:C:/Users/Yushev/git/optiga-trust-qi/projects/xmc4700_relax_kit/common/Dave/Generated/I2C_MASTER\i2c_master.h ****   uint8_t * tx_data;                     /*!< Pointer to the transmit data buffer*/
 201:C:/Users/Yushev/git/optiga-trust-qi/projects/xmc4700_relax_kit/common/Dave/Generated/I2C_MASTER\i2c_master.h ****   uint8_t * rx_data;                     /*!< Pointer to the receive data buffer*/
 202:C:/Users/Yushev/git/optiga-trust-qi/projects/xmc4700_relax_kit/common/Dave/Generated/I2C_MASTER\i2c_master.h ****   uint32_t tx_data_count;                /*!< Number of bytes of data to be transmitted*/
 203:C:/Users/Yushev/git/optiga-trust-qi/projects/xmc4700_relax_kit/common/Dave/Generated/I2C_MASTER\i2c_master.h ****   volatile uint32_t tx_data_index;       /*!< Index to the byte to be transmitted next in the tx_da
 204:C:/Users/Yushev/git/optiga-trust-qi/projects/xmc4700_relax_kit/common/Dave/Generated/I2C_MASTER\i2c_master.h ****   uint32_t rx_data_count;                /*!< Number of bytes of data to be received*/
 205:C:/Users/Yushev/git/optiga-trust-qi/projects/xmc4700_relax_kit/common/Dave/Generated/I2C_MASTER\i2c_master.h **** #if (I2C_MASTER_DMA_RX_ENABLED == 1)
 206:C:/Users/Yushev/git/optiga-trust-qi/projects/xmc4700_relax_kit/common/Dave/Generated/I2C_MASTER\i2c_master.h ****   uint32_t rx_dma_data_count;            /*!< Number of bytes of data to be received-DMA mode*/
 207:C:/Users/Yushev/git/optiga-trust-qi/projects/xmc4700_relax_kit/common/Dave/Generated/I2C_MASTER\i2c_master.h ****   uint32_t rx_dma_data_index;            /*!< Index of bytes of data to be received-DMA mode*/
 208:C:/Users/Yushev/git/optiga-trust-qi/projects/xmc4700_relax_kit/common/Dave/Generated/I2C_MASTER\i2c_master.h **** #endif
 209:C:/Users/Yushev/git/optiga-trust-qi/projects/xmc4700_relax_kit/common/Dave/Generated/I2C_MASTER\i2c_master.h ****   volatile uint32_t rx_data_index;       /*!< Indicates the number of bytes currently available in 
 210:C:/Users/Yushev/git/optiga-trust-qi/projects/xmc4700_relax_kit/common/Dave/Generated/I2C_MASTER\i2c_master.h ****   volatile uint32_t direction;           /*!< Indicates TRANSMIT/RECEIVE */
 211:C:/Users/Yushev/git/optiga-trust-qi/projects/xmc4700_relax_kit/common/Dave/Generated/I2C_MASTER\i2c_master.h ****   uint32_t send_stop;                    /*!< Indicates to stop the I2C */
 212:C:/Users/Yushev/git/optiga-trust-qi/projects/xmc4700_relax_kit/common/Dave/Generated/I2C_MASTER\i2c_master.h ****   uint32_t send_nack;                    /*!< Indicates to send nack */
 213:C:/Users/Yushev/git/optiga-trust-qi/projects/xmc4700_relax_kit/common/Dave/Generated/I2C_MASTER\i2c_master.h ****   uint8_t tx_ack_sr;                         /*!< Service request number assigned to transmit inter
 214:C:/Users/Yushev/git/optiga-trust-qi/projects/xmc4700_relax_kit/common/Dave/Generated/I2C_MASTER\i2c_master.h ****   uint8_t rx_sr;                         /*!< Service request number assigned to receive interrupts
 215:C:/Users/Yushev/git/optiga-trust-qi/projects/xmc4700_relax_kit/common/Dave/Generated/I2C_MASTER\i2c_master.h ****   volatile bool tx_busy;                 /*!< Status flag to indicate busy when a transmission is a
 216:C:/Users/Yushev/git/optiga-trust-qi/projects/xmc4700_relax_kit/common/Dave/Generated/I2C_MASTER\i2c_master.h ****   volatile bool rx_busy;                 /*!< Status flag to indicate busy when a reception is assi
 217:C:/Users/Yushev/git/optiga-trust-qi/projects/xmc4700_relax_kit/common/Dave/Generated/I2C_MASTER\i2c_master.h ****   volatile bool bus_acquired;            /*!< flag to indicate whether bus is acquired or not */
 218:C:/Users/Yushev/git/optiga-trust-qi/projects/xmc4700_relax_kit/common/Dave/Generated/I2C_MASTER\i2c_master.h **** } I2C_MASTER_RUNTIME_t;
 219:C:/Users/Yushev/git/optiga-trust-qi/projects/xmc4700_relax_kit/common/Dave/Generated/I2C_MASTER\i2c_master.h **** 
 220:C:/Users/Yushev/git/optiga-trust-qi/projects/xmc4700_relax_kit/common/Dave/Generated/I2C_MASTER\i2c_master.h **** 
 221:C:/Users/Yushev/git/optiga-trust-qi/projects/xmc4700_relax_kit/common/Dave/Generated/I2C_MASTER\i2c_master.h **** /**
 222:C:/Users/Yushev/git/optiga-trust-qi/projects/xmc4700_relax_kit/common/Dave/Generated/I2C_MASTER\i2c_master.h ****  * @brief Handler structure with pointers to dynamic and static parameters.
 223:C:/Users/Yushev/git/optiga-trust-qi/projects/xmc4700_relax_kit/common/Dave/Generated/I2C_MASTER\i2c_master.h ****  */
 224:C:/Users/Yushev/git/optiga-trust-qi/projects/xmc4700_relax_kit/common/Dave/Generated/I2C_MASTER\i2c_master.h **** typedef struct I2C_MASTER
 225:C:/Users/Yushev/git/optiga-trust-qi/projects/xmc4700_relax_kit/common/Dave/Generated/I2C_MASTER\i2c_master.h **** {
 226:C:/Users/Yushev/git/optiga-trust-qi/projects/xmc4700_relax_kit/common/Dave/Generated/I2C_MASTER\i2c_master.h ****   XMC_USIC_CH_t *channel;                    /*!< USIC channel*/
 227:C:/Users/Yushev/git/optiga-trust-qi/projects/xmc4700_relax_kit/common/Dave/Generated/I2C_MASTER\i2c_master.h ****   const I2C_MASTER_CONFIG_t * const config;  /*!< I2C configuration structure pointer*/
 228:C:/Users/Yushev/git/optiga-trust-qi/projects/xmc4700_relax_kit/common/Dave/Generated/I2C_MASTER\i2c_master.h ****   I2C_MASTER_RUNTIME_t * const runtime;      /*!< Pointer to the structure holding all variables,
 229:C:/Users/Yushev/git/optiga-trust-qi/projects/xmc4700_relax_kit/common/Dave/Generated/I2C_MASTER\i2c_master.h ****    	                                               that can change at runtime*/
 230:C:/Users/Yushev/git/optiga-trust-qi/projects/xmc4700_relax_kit/common/Dave/Generated/I2C_MASTER\i2c_master.h **** } I2C_MASTER_t;
 231:C:/Users/Yushev/git/optiga-trust-qi/projects/xmc4700_relax_kit/common/Dave/Generated/I2C_MASTER\i2c_master.h **** 
 232:C:/Users/Yushev/git/optiga-trust-qi/projects/xmc4700_relax_kit/common/Dave/Generated/I2C_MASTER\i2c_master.h **** /**
 233:C:/Users/Yushev/git/optiga-trust-qi/projects/xmc4700_relax_kit/common/Dave/Generated/I2C_MASTER\i2c_master.h ****  * @}
 234:C:/Users/Yushev/git/optiga-trust-qi/projects/xmc4700_relax_kit/common/Dave/Generated/I2C_MASTER\i2c_master.h ****  */
 235:C:/Users/Yushev/git/optiga-trust-qi/projects/xmc4700_relax_kit/common/Dave/Generated/I2C_MASTER\i2c_master.h **** 
 236:C:/Users/Yushev/git/optiga-trust-qi/projects/xmc4700_relax_kit/common/Dave/Generated/I2C_MASTER\i2c_master.h **** #ifdef __cplusplus
 237:C:/Users/Yushev/git/optiga-trust-qi/projects/xmc4700_relax_kit/common/Dave/Generated/I2C_MASTER\i2c_master.h **** extern "C" {
 238:C:/Users/Yushev/git/optiga-trust-qi/projects/xmc4700_relax_kit/common/Dave/Generated/I2C_MASTER\i2c_master.h **** #endif
 239:C:/Users/Yushev/git/optiga-trust-qi/projects/xmc4700_relax_kit/common/Dave/Generated/I2C_MASTER\i2c_master.h **** 
 240:C:/Users/Yushev/git/optiga-trust-qi/projects/xmc4700_relax_kit/common/Dave/Generated/I2C_MASTER\i2c_master.h **** 
 241:C:/Users/Yushev/git/optiga-trust-qi/projects/xmc4700_relax_kit/common/Dave/Generated/I2C_MASTER\i2c_master.h **** /**
 242:C:/Users/Yushev/git/optiga-trust-qi/projects/xmc4700_relax_kit/common/Dave/Generated/I2C_MASTER\i2c_master.h ****  * @ingroup I2C_MASTER_apidoc
 243:C:/Users/Yushev/git/optiga-trust-qi/projects/xmc4700_relax_kit/common/Dave/Generated/I2C_MASTER\i2c_master.h ****  * @{
 244:C:/Users/Yushev/git/optiga-trust-qi/projects/xmc4700_relax_kit/common/Dave/Generated/I2C_MASTER\i2c_master.h ****  */
 245:C:/Users/Yushev/git/optiga-trust-qi/projects/xmc4700_relax_kit/common/Dave/Generated/I2C_MASTER\i2c_master.h **** 
 246:C:/Users/Yushev/git/optiga-trust-qi/projects/xmc4700_relax_kit/common/Dave/Generated/I2C_MASTER\i2c_master.h **** /**************************************************************************************************
 247:C:/Users/Yushev/git/optiga-trust-qi/projects/xmc4700_relax_kit/common/Dave/Generated/I2C_MASTER\i2c_master.h ****  * API PROTOTYPES
 248:C:/Users/Yushev/git/optiga-trust-qi/projects/xmc4700_relax_kit/common/Dave/Generated/I2C_MASTER\i2c_master.h ****  **************************************************************************************************
 249:C:/Users/Yushev/git/optiga-trust-qi/projects/xmc4700_relax_kit/common/Dave/Generated/I2C_MASTER\i2c_master.h **** /**
 250:C:/Users/Yushev/git/optiga-trust-qi/projects/xmc4700_relax_kit/common/Dave/Generated/I2C_MASTER\i2c_master.h ****  * @brief Get I2C_MASTER APP version.
 251:C:/Users/Yushev/git/optiga-trust-qi/projects/xmc4700_relax_kit/common/Dave/Generated/I2C_MASTER\i2c_master.h ****  * @return \a DAVE_APP_VERSION_t APP version information (major, minor and patch number)
 252:C:/Users/Yushev/git/optiga-trust-qi/projects/xmc4700_relax_kit/common/Dave/Generated/I2C_MASTER\i2c_master.h ****  *
 253:C:/Users/Yushev/git/optiga-trust-qi/projects/xmc4700_relax_kit/common/Dave/Generated/I2C_MASTER\i2c_master.h ****  * \par<b>Description: </b><br>
 254:C:/Users/Yushev/git/optiga-trust-qi/projects/xmc4700_relax_kit/common/Dave/Generated/I2C_MASTER\i2c_master.h ****  * The function can be used to check application software compatibility with a
 255:C:/Users/Yushev/git/optiga-trust-qi/projects/xmc4700_relax_kit/common/Dave/Generated/I2C_MASTER\i2c_master.h ****  * specific version of the APP.
 256:C:/Users/Yushev/git/optiga-trust-qi/projects/xmc4700_relax_kit/common/Dave/Generated/I2C_MASTER\i2c_master.h ****  *
 257:C:/Users/Yushev/git/optiga-trust-qi/projects/xmc4700_relax_kit/common/Dave/Generated/I2C_MASTER\i2c_master.h ****  * @code
 258:C:/Users/Yushev/git/optiga-trust-qi/projects/xmc4700_relax_kit/common/Dave/Generated/I2C_MASTER\i2c_master.h ****  *  #include <DAVE.h>
 259:C:/Users/Yushev/git/optiga-trust-qi/projects/xmc4700_relax_kit/common/Dave/Generated/I2C_MASTER\i2c_master.h ****  *
 260:C:/Users/Yushev/git/optiga-trust-qi/projects/xmc4700_relax_kit/common/Dave/Generated/I2C_MASTER\i2c_master.h ****  *  int main(void)
 261:C:/Users/Yushev/git/optiga-trust-qi/projects/xmc4700_relax_kit/common/Dave/Generated/I2C_MASTER\i2c_master.h ****  *  {
 262:C:/Users/Yushev/git/optiga-trust-qi/projects/xmc4700_relax_kit/common/Dave/Generated/I2C_MASTER\i2c_master.h ****  *    DAVE_APP_VERSION_t version;
 263:C:/Users/Yushev/git/optiga-trust-qi/projects/xmc4700_relax_kit/common/Dave/Generated/I2C_MASTER\i2c_master.h ****  *    DAVE_Init();
 264:C:/Users/Yushev/git/optiga-trust-qi/projects/xmc4700_relax_kit/common/Dave/Generated/I2C_MASTER\i2c_master.h ****  *    version = I2C_MASTER_GetAppVersion();
 265:C:/Users/Yushev/git/optiga-trust-qi/projects/xmc4700_relax_kit/common/Dave/Generated/I2C_MASTER\i2c_master.h ****  *    if(version.major != 4U)
 266:C:/Users/Yushev/git/optiga-trust-qi/projects/xmc4700_relax_kit/common/Dave/Generated/I2C_MASTER\i2c_master.h ****  *    {
 267:C:/Users/Yushev/git/optiga-trust-qi/projects/xmc4700_relax_kit/common/Dave/Generated/I2C_MASTER\i2c_master.h ****  *    }
 268:C:/Users/Yushev/git/optiga-trust-qi/projects/xmc4700_relax_kit/common/Dave/Generated/I2C_MASTER\i2c_master.h ****  *    while(1)
 269:C:/Users/Yushev/git/optiga-trust-qi/projects/xmc4700_relax_kit/common/Dave/Generated/I2C_MASTER\i2c_master.h ****  *    {}
 270:C:/Users/Yushev/git/optiga-trust-qi/projects/xmc4700_relax_kit/common/Dave/Generated/I2C_MASTER\i2c_master.h ****  *    return 0;
 271:C:/Users/Yushev/git/optiga-trust-qi/projects/xmc4700_relax_kit/common/Dave/Generated/I2C_MASTER\i2c_master.h ****  *  }
 272:C:/Users/Yushev/git/optiga-trust-qi/projects/xmc4700_relax_kit/common/Dave/Generated/I2C_MASTER\i2c_master.h ****  * @endcode<BR> </p>
 273:C:/Users/Yushev/git/optiga-trust-qi/projects/xmc4700_relax_kit/common/Dave/Generated/I2C_MASTER\i2c_master.h ****  */
 274:C:/Users/Yushev/git/optiga-trust-qi/projects/xmc4700_relax_kit/common/Dave/Generated/I2C_MASTER\i2c_master.h **** DAVE_APP_VERSION_t I2C_MASTER_GetAppVersion(void);
 275:C:/Users/Yushev/git/optiga-trust-qi/projects/xmc4700_relax_kit/common/Dave/Generated/I2C_MASTER\i2c_master.h **** /**
 276:C:/Users/Yushev/git/optiga-trust-qi/projects/xmc4700_relax_kit/common/Dave/Generated/I2C_MASTER\i2c_master.h ****  * @brief This function initializes the I2C_MASTER APP based on user provided configuration.
 277:C:/Users/Yushev/git/optiga-trust-qi/projects/xmc4700_relax_kit/common/Dave/Generated/I2C_MASTER\i2c_master.h ****  *
 278:C:/Users/Yushev/git/optiga-trust-qi/projects/xmc4700_relax_kit/common/Dave/Generated/I2C_MASTER\i2c_master.h ****  * @return None
 279:C:/Users/Yushev/git/optiga-trust-qi/projects/xmc4700_relax_kit/common/Dave/Generated/I2C_MASTER\i2c_master.h ****  *
 280:C:/Users/Yushev/git/optiga-trust-qi/projects/xmc4700_relax_kit/common/Dave/Generated/I2C_MASTER\i2c_master.h ****  * \par<b>Description: </b><br>
 281:C:/Users/Yushev/git/optiga-trust-qi/projects/xmc4700_relax_kit/common/Dave/Generated/I2C_MASTER\i2c_master.h ****  * I2C configurations like channel selection,baud rate setting,
 282:C:/Users/Yushev/git/optiga-trust-qi/projects/xmc4700_relax_kit/common/Dave/Generated/I2C_MASTER\i2c_master.h ****  * FIFO configuration etc are done in this API.
 283:C:/Users/Yushev/git/optiga-trust-qi/projects/xmc4700_relax_kit/common/Dave/Generated/I2C_MASTER\i2c_master.h ****  * Protocol specific interrupts can also be enabled using the I2C_MASTER_Init
 284:C:/Users/Yushev/git/optiga-trust-qi/projects/xmc4700_relax_kit/common/Dave/Generated/I2C_MASTER\i2c_master.h ****  * function.
 285:C:/Users/Yushev/git/optiga-trust-qi/projects/xmc4700_relax_kit/common/Dave/Generated/I2C_MASTER\i2c_master.h ****  *
 286:C:/Users/Yushev/git/optiga-trust-qi/projects/xmc4700_relax_kit/common/Dave/Generated/I2C_MASTER\i2c_master.h ****  * Pre-requisite: Instantiate I2C_MASTER APP and generate code before using below code snippet.
 287:C:/Users/Yushev/git/optiga-trust-qi/projects/xmc4700_relax_kit/common/Dave/Generated/I2C_MASTER\i2c_master.h ****  * @code
 288:C:/Users/Yushev/git/optiga-trust-qi/projects/xmc4700_relax_kit/common/Dave/Generated/I2C_MASTER\i2c_master.h ****  *
 289:C:/Users/Yushev/git/optiga-trust-qi/projects/xmc4700_relax_kit/common/Dave/Generated/I2C_MASTER\i2c_master.h ****  *  #include <DAVE.h>
 290:C:/Users/Yushev/git/optiga-trust-qi/projects/xmc4700_relax_kit/common/Dave/Generated/I2C_MASTER\i2c_master.h ****  *  int main(void)
 291:C:/Users/Yushev/git/optiga-trust-qi/projects/xmc4700_relax_kit/common/Dave/Generated/I2C_MASTER\i2c_master.h ****  *  {
 292:C:/Users/Yushev/git/optiga-trust-qi/projects/xmc4700_relax_kit/common/Dave/Generated/I2C_MASTER\i2c_master.h ****  *   // Initializing the modules and the multiplexer
 293:C:/Users/Yushev/git/optiga-trust-qi/projects/xmc4700_relax_kit/common/Dave/Generated/I2C_MASTER\i2c_master.h ****  *   DAVE_Init(); // I2C_MASTER_Init will be called from DAVE_Init()
 294:C:/Users/Yushev/git/optiga-trust-qi/projects/xmc4700_relax_kit/common/Dave/Generated/I2C_MASTER\i2c_master.h ****  *   while(1)
 295:C:/Users/Yushev/git/optiga-trust-qi/projects/xmc4700_relax_kit/common/Dave/Generated/I2C_MASTER\i2c_master.h ****  *   {}
 296:C:/Users/Yushev/git/optiga-trust-qi/projects/xmc4700_relax_kit/common/Dave/Generated/I2C_MASTER\i2c_master.h ****  *   return 0;
 297:C:/Users/Yushev/git/optiga-trust-qi/projects/xmc4700_relax_kit/common/Dave/Generated/I2C_MASTER\i2c_master.h ****  *  }
 298:C:/Users/Yushev/git/optiga-trust-qi/projects/xmc4700_relax_kit/common/Dave/Generated/I2C_MASTER\i2c_master.h ****  * @endcode<BR> </p>
 299:C:/Users/Yushev/git/optiga-trust-qi/projects/xmc4700_relax_kit/common/Dave/Generated/I2C_MASTER\i2c_master.h ****  *
 300:C:/Users/Yushev/git/optiga-trust-qi/projects/xmc4700_relax_kit/common/Dave/Generated/I2C_MASTER\i2c_master.h ****  */
 301:C:/Users/Yushev/git/optiga-trust-qi/projects/xmc4700_relax_kit/common/Dave/Generated/I2C_MASTER\i2c_master.h **** 
 302:C:/Users/Yushev/git/optiga-trust-qi/projects/xmc4700_relax_kit/common/Dave/Generated/I2C_MASTER\i2c_master.h **** I2C_MASTER_STATUS_t I2C_MASTER_Init(const I2C_MASTER_t *const handle);
 303:C:/Users/Yushev/git/optiga-trust-qi/projects/xmc4700_relax_kit/common/Dave/Generated/I2C_MASTER\i2c_master.h **** 
 304:C:/Users/Yushev/git/optiga-trust-qi/projects/xmc4700_relax_kit/common/Dave/Generated/I2C_MASTER\i2c_master.h **** 
 305:C:/Users/Yushev/git/optiga-trust-qi/projects/xmc4700_relax_kit/common/Dave/Generated/I2C_MASTER\i2c_master.h **** /**
 306:C:/Users/Yushev/git/optiga-trust-qi/projects/xmc4700_relax_kit/common/Dave/Generated/I2C_MASTER\i2c_master.h ****  * @brief  Receives the data from I2C slave device.
 307:C:/Users/Yushev/git/optiga-trust-qi/projects/xmc4700_relax_kit/common/Dave/Generated/I2C_MASTER\i2c_master.h ****  * @param  handle I2C device handle of type I2C_MASTER_t*
 308:C:/Users/Yushev/git/optiga-trust-qi/projects/xmc4700_relax_kit/common/Dave/Generated/I2C_MASTER\i2c_master.h ****  * @param  send_start Flag to indicate that the start condition need to be send.
 309:C:/Users/Yushev/git/optiga-trust-qi/projects/xmc4700_relax_kit/common/Dave/Generated/I2C_MASTER\i2c_master.h ****  * @param  address I2C slave device address.
 310:C:/Users/Yushev/git/optiga-trust-qi/projects/xmc4700_relax_kit/common/Dave/Generated/I2C_MASTER\i2c_master.h ****  * @param  data buffer to receive data.
 311:C:/Users/Yushev/git/optiga-trust-qi/projects/xmc4700_relax_kit/common/Dave/Generated/I2C_MASTER\i2c_master.h ****  * @param  count The number of bytes to be received from slave.
 312:C:/Users/Yushev/git/optiga-trust-qi/projects/xmc4700_relax_kit/common/Dave/Generated/I2C_MASTER\i2c_master.h ****  * @param  send_stop The flag to indicate that the stop condition need to be send.
 313:C:/Users/Yushev/git/optiga-trust-qi/projects/xmc4700_relax_kit/common/Dave/Generated/I2C_MASTER\i2c_master.h ****  * @param  send_nack The flag to indicate that the NACK condition need to be send for the last byte
 314:C:/Users/Yushev/git/optiga-trust-qi/projects/xmc4700_relax_kit/common/Dave/Generated/I2C_MASTER\i2c_master.h ****  * @return @ref I2C_MASTER_STATUS_t Status.
 315:C:/Users/Yushev/git/optiga-trust-qi/projects/xmc4700_relax_kit/common/Dave/Generated/I2C_MASTER\i2c_master.h ****  * \par<b>NOTE: </b><br>
 316:C:/Users/Yushev/git/optiga-trust-qi/projects/xmc4700_relax_kit/common/Dave/Generated/I2C_MASTER\i2c_master.h ****  * I2C_MASTER_Receive API can be used in Interrupt and Direct modes.\n
 317:C:/Users/Yushev/git/optiga-trust-qi/projects/xmc4700_relax_kit/common/Dave/Generated/I2C_MASTER\i2c_master.h ****  * Address(address) should reserve an additional bit at the LSB for read/write indication. For exam
 318:C:/Users/Yushev/git/optiga-trust-qi/projects/xmc4700_relax_kit/common/Dave/Generated/I2C_MASTER\i2c_master.h ****  * be provided as 0x0a. If the address is 10-bit, only most significant bits with the 10-bit identi
 319:C:/Users/Yushev/git/optiga-trust-qi/projects/xmc4700_relax_kit/common/Dave/Generated/I2C_MASTER\i2c_master.h ****  * For example, if the 10-bit address is 0x305, the address should be provided as 0xf6(prepend with
 320:C:/Users/Yushev/git/optiga-trust-qi/projects/xmc4700_relax_kit/common/Dave/Generated/I2C_MASTER\i2c_master.h ****  * followed by 1-bit field for read/write).\n
 321:C:/Users/Yushev/git/optiga-trust-qi/projects/xmc4700_relax_kit/common/Dave/Generated/I2C_MASTER\i2c_master.h ****  * Pre-requisite: Instantiate I2C_MASTER APP and generate code before using below code snippet.
 322:C:/Users/Yushev/git/optiga-trust-qi/projects/xmc4700_relax_kit/common/Dave/Generated/I2C_MASTER\i2c_master.h ****  *
 323:C:/Users/Yushev/git/optiga-trust-qi/projects/xmc4700_relax_kit/common/Dave/Generated/I2C_MASTER\i2c_master.h ****  * @code
 324:C:/Users/Yushev/git/optiga-trust-qi/projects/xmc4700_relax_kit/common/Dave/Generated/I2C_MASTER\i2c_master.h ****  *
 325:C:/Users/Yushev/git/optiga-trust-qi/projects/xmc4700_relax_kit/common/Dave/Generated/I2C_MASTER\i2c_master.h ****  *  #include <DAVE.h>
 326:C:/Users/Yushev/git/optiga-trust-qi/projects/xmc4700_relax_kit/common/Dave/Generated/I2C_MASTER\i2c_master.h ****  *  #define SLAVE_ADDRESS 0xA0
 327:C:/Users/Yushev/git/optiga-trust-qi/projects/xmc4700_relax_kit/common/Dave/Generated/I2C_MASTER\i2c_master.h ****  *  #define BYTES_TO_READ 10
 328:C:/Users/Yushev/git/optiga-trust-qi/projects/xmc4700_relax_kit/common/Dave/Generated/I2C_MASTER\i2c_master.h ****  *  #define BYTES_TO_TRANSMIT 10
 329:C:/Users/Yushev/git/optiga-trust-qi/projects/xmc4700_relax_kit/common/Dave/Generated/I2C_MASTER\i2c_master.h ****  *
 330:C:/Users/Yushev/git/optiga-trust-qi/projects/xmc4700_relax_kit/common/Dave/Generated/I2C_MASTER\i2c_master.h ****  *  typedef enum PCA9502_REGADDR {
 331:C:/Users/Yushev/git/optiga-trust-qi/projects/xmc4700_relax_kit/common/Dave/Generated/I2C_MASTER\i2c_master.h ****  *    IO_DIR    = 0xA << 3,
 332:C:/Users/Yushev/git/optiga-trust-qi/projects/xmc4700_relax_kit/common/Dave/Generated/I2C_MASTER\i2c_master.h ****  *    IO_STATE  = 0xB << 3,
 333:C:/Users/Yushev/git/optiga-trust-qi/projects/xmc4700_relax_kit/common/Dave/Generated/I2C_MASTER\i2c_master.h ****  *    IO_INTE   = 0xC << 3,
 334:C:/Users/Yushev/git/optiga-trust-qi/projects/xmc4700_relax_kit/common/Dave/Generated/I2C_MASTER\i2c_master.h ****  *    IO_CTRL   = 0xE << 3
 335:C:/Users/Yushev/git/optiga-trust-qi/projects/xmc4700_relax_kit/common/Dave/Generated/I2C_MASTER\i2c_master.h ****  *  } PCA9502_REGADDR_t;
 336:C:/Users/Yushev/git/optiga-trust-qi/projects/xmc4700_relax_kit/common/Dave/Generated/I2C_MASTER\i2c_master.h **** 
 337:C:/Users/Yushev/git/optiga-trust-qi/projects/xmc4700_relax_kit/common/Dave/Generated/I2C_MASTER\i2c_master.h ****  *  uint8_t mem_address[2];
 338:C:/Users/Yushev/git/optiga-trust-qi/projects/xmc4700_relax_kit/common/Dave/Generated/I2C_MASTER\i2c_master.h ****  *  uint8_t data = 0x55;
 339:C:/Users/Yushev/git/optiga-trust-qi/projects/xmc4700_relax_kit/common/Dave/Generated/I2C_MASTER\i2c_master.h ****  *  uint8_t rx_data;
 340:C:/Users/Yushev/git/optiga-trust-qi/projects/xmc4700_relax_kit/common/Dave/Generated/I2C_MASTER\i2c_master.h ****  *
 341:C:/Users/Yushev/git/optiga-trust-qi/projects/xmc4700_relax_kit/common/Dave/Generated/I2C_MASTER\i2c_master.h ****  *  int main(void)
 342:C:/Users/Yushev/git/optiga-trust-qi/projects/xmc4700_relax_kit/common/Dave/Generated/I2C_MASTER\i2c_master.h ****  *  {
 343:C:/Users/Yushev/git/optiga-trust-qi/projects/xmc4700_relax_kit/common/Dave/Generated/I2C_MASTER\i2c_master.h ****  *   DAVE_STATUS_t init_status;  
 344:C:/Users/Yushev/git/optiga-trust-qi/projects/xmc4700_relax_kit/common/Dave/Generated/I2C_MASTER\i2c_master.h ****  *   init_status = DAVE_Init();
 345:C:/Users/Yushev/git/optiga-trust-qi/projects/xmc4700_relax_kit/common/Dave/Generated/I2C_MASTER\i2c_master.h ****  *   if(init_status == DAVE_STATUS_SUCCESS)
 346:C:/Users/Yushev/git/optiga-trust-qi/projects/xmc4700_relax_kit/common/Dave/Generated/I2C_MASTER\i2c_master.h ****  *   {
 347:C:/Users/Yushev/git/optiga-trust-qi/projects/xmc4700_relax_kit/common/Dave/Generated/I2C_MASTER\i2c_master.h ****  *     mem_address[0] = IO_STATE;//memory which need to be read from slave
 348:C:/Users/Yushev/git/optiga-trust-qi/projects/xmc4700_relax_kit/common/Dave/Generated/I2C_MASTER\i2c_master.h ****  *     //Write data to IO EXPANDER
 349:C:/Users/Yushev/git/optiga-trust-qi/projects/xmc4700_relax_kit/common/Dave/Generated/I2C_MASTER\i2c_master.h ****  *     I2C_MASTER_Transmit(&I2C_MASTER_0,true,SLAVE_ADDRESS,mem_address,1,false);
 350:C:/Users/Yushev/git/optiga-trust-qi/projects/xmc4700_relax_kit/common/Dave/Generated/I2C_MASTER\i2c_master.h ****  *     while(I2C_MASTER_IsTxBusy(&I2C_MASTER_0));
 351:C:/Users/Yushev/git/optiga-trust-qi/projects/xmc4700_relax_kit/common/Dave/Generated/I2C_MASTER\i2c_master.h ****  *
 352:C:/Users/Yushev/git/optiga-trust-qi/projects/xmc4700_relax_kit/common/Dave/Generated/I2C_MASTER\i2c_master.h ****  *     I2C_MASTER_Transmit(&I2C_MASTER_0,false,SLAVE_ADDRESS,&data,1,true);
 353:C:/Users/Yushev/git/optiga-trust-qi/projects/xmc4700_relax_kit/common/Dave/Generated/I2C_MASTER\i2c_master.h ****  *     while(I2C_MASTER_IsTxBusy(&I2C_MASTER_0));
 354:C:/Users/Yushev/git/optiga-trust-qi/projects/xmc4700_relax_kit/common/Dave/Generated/I2C_MASTER\i2c_master.h **** 
 355:C:/Users/Yushev/git/optiga-trust-qi/projects/xmc4700_relax_kit/common/Dave/Generated/I2C_MASTER\i2c_master.h ****  *     //Read data from IO EXPANDER
 356:C:/Users/Yushev/git/optiga-trust-qi/projects/xmc4700_relax_kit/common/Dave/Generated/I2C_MASTER\i2c_master.h ****  *     I2C_MASTER_Transmit(&I2C_MASTER_0,true,SLAVE_ADDRESS,mem_address,1,false);
 357:C:/Users/Yushev/git/optiga-trust-qi/projects/xmc4700_relax_kit/common/Dave/Generated/I2C_MASTER\i2c_master.h ****  *     while(I2C_MASTER_IsTxBusy(&I2C_MASTER_0));
 358:C:/Users/Yushev/git/optiga-trust-qi/projects/xmc4700_relax_kit/common/Dave/Generated/I2C_MASTER\i2c_master.h ****  *
 359:C:/Users/Yushev/git/optiga-trust-qi/projects/xmc4700_relax_kit/common/Dave/Generated/I2C_MASTER\i2c_master.h ****  *     I2C_MASTER_Receive(&I2C_MASTER_0,true,SLAVE_ADDRESS,&rx_data,1,true,true);
 360:C:/Users/Yushev/git/optiga-trust-qi/projects/xmc4700_relax_kit/common/Dave/Generated/I2C_MASTER\i2c_master.h ****  *     while(I2C_MASTER_IsRxBusy(&I2C_MASTER_0));
 361:C:/Users/Yushev/git/optiga-trust-qi/projects/xmc4700_relax_kit/common/Dave/Generated/I2C_MASTER\i2c_master.h ****  *   }
 362:C:/Users/Yushev/git/optiga-trust-qi/projects/xmc4700_relax_kit/common/Dave/Generated/I2C_MASTER\i2c_master.h ****  *   while(1)
 363:C:/Users/Yushev/git/optiga-trust-qi/projects/xmc4700_relax_kit/common/Dave/Generated/I2C_MASTER\i2c_master.h ****  *   { }
 364:C:/Users/Yushev/git/optiga-trust-qi/projects/xmc4700_relax_kit/common/Dave/Generated/I2C_MASTER\i2c_master.h ****  *  return 0;
 365:C:/Users/Yushev/git/optiga-trust-qi/projects/xmc4700_relax_kit/common/Dave/Generated/I2C_MASTER\i2c_master.h ****  * }
 366:C:/Users/Yushev/git/optiga-trust-qi/projects/xmc4700_relax_kit/common/Dave/Generated/I2C_MASTER\i2c_master.h ****  *
 367:C:/Users/Yushev/git/optiga-trust-qi/projects/xmc4700_relax_kit/common/Dave/Generated/I2C_MASTER\i2c_master.h ****  * @endcode<BR> </p>
 368:C:/Users/Yushev/git/optiga-trust-qi/projects/xmc4700_relax_kit/common/Dave/Generated/I2C_MASTER\i2c_master.h ****  *
 369:C:/Users/Yushev/git/optiga-trust-qi/projects/xmc4700_relax_kit/common/Dave/Generated/I2C_MASTER\i2c_master.h ****  */
 370:C:/Users/Yushev/git/optiga-trust-qi/projects/xmc4700_relax_kit/common/Dave/Generated/I2C_MASTER\i2c_master.h **** I2C_MASTER_STATUS_t I2C_MASTER_Receive(I2C_MASTER_t *handle, bool send_start, const uint32_t addres
 371:C:/Users/Yushev/git/optiga-trust-qi/projects/xmc4700_relax_kit/common/Dave/Generated/I2C_MASTER\i2c_master.h ****                                        uint8_t * data, const uint32_t count, bool send_stop, bool s
 372:C:/Users/Yushev/git/optiga-trust-qi/projects/xmc4700_relax_kit/common/Dave/Generated/I2C_MASTER\i2c_master.h **** 
 373:C:/Users/Yushev/git/optiga-trust-qi/projects/xmc4700_relax_kit/common/Dave/Generated/I2C_MASTER\i2c_master.h **** /**
 374:C:/Users/Yushev/git/optiga-trust-qi/projects/xmc4700_relax_kit/common/Dave/Generated/I2C_MASTER\i2c_master.h ****  * @brief Transmits data to I2C slave device.
 375:C:/Users/Yushev/git/optiga-trust-qi/projects/xmc4700_relax_kit/common/Dave/Generated/I2C_MASTER\i2c_master.h ****  *
 376:C:/Users/Yushev/git/optiga-trust-qi/projects/xmc4700_relax_kit/common/Dave/Generated/I2C_MASTER\i2c_master.h ****  * @param  handle I2C device handle of type I2C_MASTER_t*
 377:C:/Users/Yushev/git/optiga-trust-qi/projects/xmc4700_relax_kit/common/Dave/Generated/I2C_MASTER\i2c_master.h ****  * @param  send_start The flag to indicate that the start condition need to be send.
 378:C:/Users/Yushev/git/optiga-trust-qi/projects/xmc4700_relax_kit/common/Dave/Generated/I2C_MASTER\i2c_master.h ****  * @param  address I2C slave device address.
 379:C:/Users/Yushev/git/optiga-trust-qi/projects/xmc4700_relax_kit/common/Dave/Generated/I2C_MASTER\i2c_master.h ****  * @param  data buffer containing the data to transmit.
 380:C:/Users/Yushev/git/optiga-trust-qi/projects/xmc4700_relax_kit/common/Dave/Generated/I2C_MASTER\i2c_master.h ****  * @param  size The number of bytes to be send to slave.
 381:C:/Users/Yushev/git/optiga-trust-qi/projects/xmc4700_relax_kit/common/Dave/Generated/I2C_MASTER\i2c_master.h ****  * @param  send_stop The flag to indicate that the stop condition need to be send.
 382:C:/Users/Yushev/git/optiga-trust-qi/projects/xmc4700_relax_kit/common/Dave/Generated/I2C_MASTER\i2c_master.h ****  *
 383:C:/Users/Yushev/git/optiga-trust-qi/projects/xmc4700_relax_kit/common/Dave/Generated/I2C_MASTER\i2c_master.h ****  * @return @ref I2C_MASTER_STATUS_t Status.
 384:C:/Users/Yushev/git/optiga-trust-qi/projects/xmc4700_relax_kit/common/Dave/Generated/I2C_MASTER\i2c_master.h ****  * \par<b>NOTE: </b><br>
 385:C:/Users/Yushev/git/optiga-trust-qi/projects/xmc4700_relax_kit/common/Dave/Generated/I2C_MASTER\i2c_master.h ****  * I2C_MASTER_Transmit API can be used in Interrupt and Direct modes.\n
 386:C:/Users/Yushev/git/optiga-trust-qi/projects/xmc4700_relax_kit/common/Dave/Generated/I2C_MASTER\i2c_master.h ****  * Address(address) should reserve an additional bit at the LSB for read/write indication. For exam
 387:C:/Users/Yushev/git/optiga-trust-qi/projects/xmc4700_relax_kit/common/Dave/Generated/I2C_MASTER\i2c_master.h ****  * be provided as 0x0a. If the address is 10-bit, only most significant bits with the 10-bit identi
 388:C:/Users/Yushev/git/optiga-trust-qi/projects/xmc4700_relax_kit/common/Dave/Generated/I2C_MASTER\i2c_master.h ****  * For example, if the 10-bit address is 0x305, the address should be provided as 0xf6(prepend with
 389:C:/Users/Yushev/git/optiga-trust-qi/projects/xmc4700_relax_kit/common/Dave/Generated/I2C_MASTER\i2c_master.h ****  * followed by 1-bit field for read/write). \n
 390:C:/Users/Yushev/git/optiga-trust-qi/projects/xmc4700_relax_kit/common/Dave/Generated/I2C_MASTER\i2c_master.h ****  * Pre-requisite: Instantiate I2C_MASTER APP and generate code before using below code snippet.
 391:C:/Users/Yushev/git/optiga-trust-qi/projects/xmc4700_relax_kit/common/Dave/Generated/I2C_MASTER\i2c_master.h ****  * 
 392:C:/Users/Yushev/git/optiga-trust-qi/projects/xmc4700_relax_kit/common/Dave/Generated/I2C_MASTER\i2c_master.h ****  * @code
 393:C:/Users/Yushev/git/optiga-trust-qi/projects/xmc4700_relax_kit/common/Dave/Generated/I2C_MASTER\i2c_master.h ****  *
 394:C:/Users/Yushev/git/optiga-trust-qi/projects/xmc4700_relax_kit/common/Dave/Generated/I2C_MASTER\i2c_master.h ****  *  #include <DAVE.h>
 395:C:/Users/Yushev/git/optiga-trust-qi/projects/xmc4700_relax_kit/common/Dave/Generated/I2C_MASTER\i2c_master.h ****  *  #define SLAVE_ADDRESS (0xA0)
 396:C:/Users/Yushev/git/optiga-trust-qi/projects/xmc4700_relax_kit/common/Dave/Generated/I2C_MASTER\i2c_master.h ****  *  typedef enum PCA9502_REGADDR {
 397:C:/Users/Yushev/git/optiga-trust-qi/projects/xmc4700_relax_kit/common/Dave/Generated/I2C_MASTER\i2c_master.h ****  *    IO_DIR    = 0xA << 3,
 398:C:/Users/Yushev/git/optiga-trust-qi/projects/xmc4700_relax_kit/common/Dave/Generated/I2C_MASTER\i2c_master.h ****  *    IO_STATE  = 0xB << 3,
 399:C:/Users/Yushev/git/optiga-trust-qi/projects/xmc4700_relax_kit/common/Dave/Generated/I2C_MASTER\i2c_master.h ****  *    IO_INTE   = 0xC << 3,
 400:C:/Users/Yushev/git/optiga-trust-qi/projects/xmc4700_relax_kit/common/Dave/Generated/I2C_MASTER\i2c_master.h ****  *    IO_CTRL   = 0xE << 3
 401:C:/Users/Yushev/git/optiga-trust-qi/projects/xmc4700_relax_kit/common/Dave/Generated/I2C_MASTER\i2c_master.h ****  *  } PCA9502_REGADDR_t;
 402:C:/Users/Yushev/git/optiga-trust-qi/projects/xmc4700_relax_kit/common/Dave/Generated/I2C_MASTER\i2c_master.h ****  *
 403:C:/Users/Yushev/git/optiga-trust-qi/projects/xmc4700_relax_kit/common/Dave/Generated/I2C_MASTER\i2c_master.h ****  *  uint8_t tx_buffer[64] = {0x01,0x02,0x03,0x04,0x05};
 404:C:/Users/Yushev/git/optiga-trust-qi/projects/xmc4700_relax_kit/common/Dave/Generated/I2C_MASTER\i2c_master.h ****  *  uint8_t mem_address[2];
 405:C:/Users/Yushev/git/optiga-trust-qi/projects/xmc4700_relax_kit/common/Dave/Generated/I2C_MASTER\i2c_master.h ****  *
 406:C:/Users/Yushev/git/optiga-trust-qi/projects/xmc4700_relax_kit/common/Dave/Generated/I2C_MASTER\i2c_master.h ****  *  int main(void)
 407:C:/Users/Yushev/git/optiga-trust-qi/projects/xmc4700_relax_kit/common/Dave/Generated/I2C_MASTER\i2c_master.h ****  *  {
 408:C:/Users/Yushev/git/optiga-trust-qi/projects/xmc4700_relax_kit/common/Dave/Generated/I2C_MASTER\i2c_master.h ****  *    DAVE_STATUS_t init_status;
 409:C:/Users/Yushev/git/optiga-trust-qi/projects/xmc4700_relax_kit/common/Dave/Generated/I2C_MASTER\i2c_master.h ****  *    init_status = DAVE_Init();
 410:C:/Users/Yushev/git/optiga-trust-qi/projects/xmc4700_relax_kit/common/Dave/Generated/I2C_MASTER\i2c_master.h ****  *    if(init_status == DAVE_STATUS_SUCCESS)
 411:C:/Users/Yushev/git/optiga-trust-qi/projects/xmc4700_relax_kit/common/Dave/Generated/I2C_MASTER\i2c_master.h ****  *    {
 412:C:/Users/Yushev/git/optiga-trust-qi/projects/xmc4700_relax_kit/common/Dave/Generated/I2C_MASTER\i2c_master.h ****  *      mem_address[0] = IO_STATE;//memory which need to be read from slave
 413:C:/Users/Yushev/git/optiga-trust-qi/projects/xmc4700_relax_kit/common/Dave/Generated/I2C_MASTER\i2c_master.h ****  *      //Write data to IO EXPANDER
 414:C:/Users/Yushev/git/optiga-trust-qi/projects/xmc4700_relax_kit/common/Dave/Generated/I2C_MASTER\i2c_master.h ****  *      I2C_MASTER_Transmit(&I2C_MASTER_0,true,SLAVE_ADDRESS,mem_address,1,false);
 415:C:/Users/Yushev/git/optiga-trust-qi/projects/xmc4700_relax_kit/common/Dave/Generated/I2C_MASTER\i2c_master.h ****  *      while(I2C_MASTER_IsTxBusy(&I2C_MASTER_0));
 416:C:/Users/Yushev/git/optiga-trust-qi/projects/xmc4700_relax_kit/common/Dave/Generated/I2C_MASTER\i2c_master.h ****  *
 417:C:/Users/Yushev/git/optiga-trust-qi/projects/xmc4700_relax_kit/common/Dave/Generated/I2C_MASTER\i2c_master.h ****  *      I2C_MASTER_Transmit(&I2C_MASTER_0,false,SLAVE_ADDRESS,tx_buffer,5,true);
 418:C:/Users/Yushev/git/optiga-trust-qi/projects/xmc4700_relax_kit/common/Dave/Generated/I2C_MASTER\i2c_master.h ****  *      while(I2C_MASTER_IsTxBusy(&I2C_MASTER_0));
 419:C:/Users/Yushev/git/optiga-trust-qi/projects/xmc4700_relax_kit/common/Dave/Generated/I2C_MASTER\i2c_master.h ****  *    }
 420:C:/Users/Yushev/git/optiga-trust-qi/projects/xmc4700_relax_kit/common/Dave/Generated/I2C_MASTER\i2c_master.h ****  *    while(1)
 421:C:/Users/Yushev/git/optiga-trust-qi/projects/xmc4700_relax_kit/common/Dave/Generated/I2C_MASTER\i2c_master.h ****  *    { }
 422:C:/Users/Yushev/git/optiga-trust-qi/projects/xmc4700_relax_kit/common/Dave/Generated/I2C_MASTER\i2c_master.h **** 
 423:C:/Users/Yushev/git/optiga-trust-qi/projects/xmc4700_relax_kit/common/Dave/Generated/I2C_MASTER\i2c_master.h ****  *   return 0;
 424:C:/Users/Yushev/git/optiga-trust-qi/projects/xmc4700_relax_kit/common/Dave/Generated/I2C_MASTER\i2c_master.h ****  * }
 425:C:/Users/Yushev/git/optiga-trust-qi/projects/xmc4700_relax_kit/common/Dave/Generated/I2C_MASTER\i2c_master.h ****  *
 426:C:/Users/Yushev/git/optiga-trust-qi/projects/xmc4700_relax_kit/common/Dave/Generated/I2C_MASTER\i2c_master.h ****  * @endcode<BR> </p>
 427:C:/Users/Yushev/git/optiga-trust-qi/projects/xmc4700_relax_kit/common/Dave/Generated/I2C_MASTER\i2c_master.h ****  *
 428:C:/Users/Yushev/git/optiga-trust-qi/projects/xmc4700_relax_kit/common/Dave/Generated/I2C_MASTER\i2c_master.h ****  */
 429:C:/Users/Yushev/git/optiga-trust-qi/projects/xmc4700_relax_kit/common/Dave/Generated/I2C_MASTER\i2c_master.h **** I2C_MASTER_STATUS_t I2C_MASTER_Transmit(I2C_MASTER_t *handle, bool send_start, const uint32_t addre
 430:C:/Users/Yushev/git/optiga-trust-qi/projects/xmc4700_relax_kit/common/Dave/Generated/I2C_MASTER\i2c_master.h **** 		                                uint8_t *data, const uint32_t size, bool send_stop);
 431:C:/Users/Yushev/git/optiga-trust-qi/projects/xmc4700_relax_kit/common/Dave/Generated/I2C_MASTER\i2c_master.h **** 
 432:C:/Users/Yushev/git/optiga-trust-qi/projects/xmc4700_relax_kit/common/Dave/Generated/I2C_MASTER\i2c_master.h **** /**
 433:C:/Users/Yushev/git/optiga-trust-qi/projects/xmc4700_relax_kit/common/Dave/Generated/I2C_MASTER\i2c_master.h ****  * @brief Get the I2C flag status.
 434:C:/Users/Yushev/git/optiga-trust-qi/projects/xmc4700_relax_kit/common/Dave/Generated/I2C_MASTER\i2c_master.h ****  *
 435:C:/Users/Yushev/git/optiga-trust-qi/projects/xmc4700_relax_kit/common/Dave/Generated/I2C_MASTER\i2c_master.h ****  * @param  handle I2C device handle of type I2C_MASTER_t*
 436:C:/Users/Yushev/git/optiga-trust-qi/projects/xmc4700_relax_kit/common/Dave/Generated/I2C_MASTER\i2c_master.h ****  * @param  flagtype   single or multiple flags, whose status need to be checked.
 437:C:/Users/Yushev/git/optiga-trust-qi/projects/xmc4700_relax_kit/common/Dave/Generated/I2C_MASTER\i2c_master.h ****  *			 	      bitwise OR operation on elements of enum XMC_I2C_CH_STATUS_FLAG_t can be used to selec
 438:C:/Users/Yushev/git/optiga-trust-qi/projects/xmc4700_relax_kit/common/Dave/Generated/I2C_MASTER\i2c_master.h ****  *                    multiple flags.
 439:C:/Users/Yushev/git/optiga-trust-qi/projects/xmc4700_relax_kit/common/Dave/Generated/I2C_MASTER\i2c_master.h ****  *
 440:C:/Users/Yushev/git/optiga-trust-qi/projects/xmc4700_relax_kit/common/Dave/Generated/I2C_MASTER\i2c_master.h ****  * @return uint32_t Flag status.
 441:C:/Users/Yushev/git/optiga-trust-qi/projects/xmc4700_relax_kit/common/Dave/Generated/I2C_MASTER\i2c_master.h ****  *
 442:C:/Users/Yushev/git/optiga-trust-qi/projects/xmc4700_relax_kit/common/Dave/Generated/I2C_MASTER\i2c_master.h ****  * Pre-requisite: Instantiate I2C_MASTER APP and generate code before using below code snippet.
 443:C:/Users/Yushev/git/optiga-trust-qi/projects/xmc4700_relax_kit/common/Dave/Generated/I2C_MASTER\i2c_master.h ****  *
 444:C:/Users/Yushev/git/optiga-trust-qi/projects/xmc4700_relax_kit/common/Dave/Generated/I2C_MASTER\i2c_master.h ****  * @code
 445:C:/Users/Yushev/git/optiga-trust-qi/projects/xmc4700_relax_kit/common/Dave/Generated/I2C_MASTER\i2c_master.h ****  *
 446:C:/Users/Yushev/git/optiga-trust-qi/projects/xmc4700_relax_kit/common/Dave/Generated/I2C_MASTER\i2c_master.h ****  *  #include <DAVE.h>
 447:C:/Users/Yushev/git/optiga-trust-qi/projects/xmc4700_relax_kit/common/Dave/Generated/I2C_MASTER\i2c_master.h ****  *
 448:C:/Users/Yushev/git/optiga-trust-qi/projects/xmc4700_relax_kit/common/Dave/Generated/I2C_MASTER\i2c_master.h ****  *  #define SLAVE_ADDRESS (0xA0)
 449:C:/Users/Yushev/git/optiga-trust-qi/projects/xmc4700_relax_kit/common/Dave/Generated/I2C_MASTER\i2c_master.h ****  *  int main(void)
 450:C:/Users/Yushev/git/optiga-trust-qi/projects/xmc4700_relax_kit/common/Dave/Generated/I2C_MASTER\i2c_master.h ****  *  {
 451:C:/Users/Yushev/git/optiga-trust-qi/projects/xmc4700_relax_kit/common/Dave/Generated/I2C_MASTER\i2c_master.h ****  *    DAVE_STATUS_t init_status;
 452:C:/Users/Yushev/git/optiga-trust-qi/projects/xmc4700_relax_kit/common/Dave/Generated/I2C_MASTER\i2c_master.h ****  *    init_status = DAVE_Init();
 453:C:/Users/Yushev/git/optiga-trust-qi/projects/xmc4700_relax_kit/common/Dave/Generated/I2C_MASTER\i2c_master.h ****  *    if(init_status == DAVE_STATUS_SUCCESS)
 454:C:/Users/Yushev/git/optiga-trust-qi/projects/xmc4700_relax_kit/common/Dave/Generated/I2C_MASTER\i2c_master.h ****  *    {
 455:C:/Users/Yushev/git/optiga-trust-qi/projects/xmc4700_relax_kit/common/Dave/Generated/I2C_MASTER\i2c_master.h ****  *      I2C_MASTER_SendStart(&I2C_MASTER_0, SLAVE_ADDRESS, XMC_I2C_CH_CMD_WRITE);
 456:C:/Users/Yushev/git/optiga-trust-qi/projects/xmc4700_relax_kit/common/Dave/Generated/I2C_MASTER\i2c_master.h ****  *      while(I2C_MASTER_GetFlagStatus(&I2C_MASTER_0, XMC_I2C_CH_STATUS_FLAG_ACK_RECEIVED) == 0U)
 457:C:/Users/Yushev/git/optiga-trust-qi/projects/xmc4700_relax_kit/common/Dave/Generated/I2C_MASTER\i2c_master.h ****  *      {
 458:C:/Users/Yushev/git/optiga-trust-qi/projects/xmc4700_relax_kit/common/Dave/Generated/I2C_MASTER\i2c_master.h ****  *       // wait for ACK
 459:C:/Users/Yushev/git/optiga-trust-qi/projects/xmc4700_relax_kit/common/Dave/Generated/I2C_MASTER\i2c_master.h ****  *      }
 460:C:/Users/Yushev/git/optiga-trust-qi/projects/xmc4700_relax_kit/common/Dave/Generated/I2C_MASTER\i2c_master.h ****  *    }
 461:C:/Users/Yushev/git/optiga-trust-qi/projects/xmc4700_relax_kit/common/Dave/Generated/I2C_MASTER\i2c_master.h ****  *    while(1)
 462:C:/Users/Yushev/git/optiga-trust-qi/projects/xmc4700_relax_kit/common/Dave/Generated/I2C_MASTER\i2c_master.h ****  *    {}
 463:C:/Users/Yushev/git/optiga-trust-qi/projects/xmc4700_relax_kit/common/Dave/Generated/I2C_MASTER\i2c_master.h ****  *
 464:C:/Users/Yushev/git/optiga-trust-qi/projects/xmc4700_relax_kit/common/Dave/Generated/I2C_MASTER\i2c_master.h ****  *   return 0;
 465:C:/Users/Yushev/git/optiga-trust-qi/projects/xmc4700_relax_kit/common/Dave/Generated/I2C_MASTER\i2c_master.h ****  *  }
 466:C:/Users/Yushev/git/optiga-trust-qi/projects/xmc4700_relax_kit/common/Dave/Generated/I2C_MASTER\i2c_master.h ****  *
 467:C:/Users/Yushev/git/optiga-trust-qi/projects/xmc4700_relax_kit/common/Dave/Generated/I2C_MASTER\i2c_master.h ****  * @endcode<BR> </p>
 468:C:/Users/Yushev/git/optiga-trust-qi/projects/xmc4700_relax_kit/common/Dave/Generated/I2C_MASTER\i2c_master.h ****  *
 469:C:/Users/Yushev/git/optiga-trust-qi/projects/xmc4700_relax_kit/common/Dave/Generated/I2C_MASTER\i2c_master.h ****  */
 470:C:/Users/Yushev/git/optiga-trust-qi/projects/xmc4700_relax_kit/common/Dave/Generated/I2C_MASTER\i2c_master.h **** uint32_t I2C_MASTER_GetFlagStatus(const I2C_MASTER_t *handle, uint32_t flagtype);
 471:C:/Users/Yushev/git/optiga-trust-qi/projects/xmc4700_relax_kit/common/Dave/Generated/I2C_MASTER\i2c_master.h **** 
 472:C:/Users/Yushev/git/optiga-trust-qi/projects/xmc4700_relax_kit/common/Dave/Generated/I2C_MASTER\i2c_master.h **** /**
 473:C:/Users/Yushev/git/optiga-trust-qi/projects/xmc4700_relax_kit/common/Dave/Generated/I2C_MASTER\i2c_master.h ****  * @brief Clear the I2C flag status.
 474:C:/Users/Yushev/git/optiga-trust-qi/projects/xmc4700_relax_kit/common/Dave/Generated/I2C_MASTER\i2c_master.h ****  *
 475:C:/Users/Yushev/git/optiga-trust-qi/projects/xmc4700_relax_kit/common/Dave/Generated/I2C_MASTER\i2c_master.h ****  * @param  handle I2C device handle of type I2C_MASTER_t*
 476:C:/Users/Yushev/git/optiga-trust-qi/projects/xmc4700_relax_kit/common/Dave/Generated/I2C_MASTER\i2c_master.h ****  * @param  flagtype   single or multiple flags, whose status need to be checked.
 477:C:/Users/Yushev/git/optiga-trust-qi/projects/xmc4700_relax_kit/common/Dave/Generated/I2C_MASTER\i2c_master.h ****  *                    The bitwise OR operation on elements of enum XMC_I2C_CH_STATUS_FLAG_t can be 
 478:C:/Users/Yushev/git/optiga-trust-qi/projects/xmc4700_relax_kit/common/Dave/Generated/I2C_MASTER\i2c_master.h ****  *                    multiple flags.
 479:C:/Users/Yushev/git/optiga-trust-qi/projects/xmc4700_relax_kit/common/Dave/Generated/I2C_MASTER\i2c_master.h ****  *
 480:C:/Users/Yushev/git/optiga-trust-qi/projects/xmc4700_relax_kit/common/Dave/Generated/I2C_MASTER\i2c_master.h ****  * @return None <BR>
 481:C:/Users/Yushev/git/optiga-trust-qi/projects/xmc4700_relax_kit/common/Dave/Generated/I2C_MASTER\i2c_master.h ****  * Pre-requisite: Instantiate I2C_MASTER APP and generate code before using below code snippet.
 482:C:/Users/Yushev/git/optiga-trust-qi/projects/xmc4700_relax_kit/common/Dave/Generated/I2C_MASTER\i2c_master.h ****  * @code
 483:C:/Users/Yushev/git/optiga-trust-qi/projects/xmc4700_relax_kit/common/Dave/Generated/I2C_MASTER\i2c_master.h ****  *
 484:C:/Users/Yushev/git/optiga-trust-qi/projects/xmc4700_relax_kit/common/Dave/Generated/I2C_MASTER\i2c_master.h ****  *  #include <DAVE.h>
 485:C:/Users/Yushev/git/optiga-trust-qi/projects/xmc4700_relax_kit/common/Dave/Generated/I2C_MASTER\i2c_master.h ****  *
 486:C:/Users/Yushev/git/optiga-trust-qi/projects/xmc4700_relax_kit/common/Dave/Generated/I2C_MASTER\i2c_master.h ****  *  #define SLAVE_ADDRESS (0xA0)
 487:C:/Users/Yushev/git/optiga-trust-qi/projects/xmc4700_relax_kit/common/Dave/Generated/I2C_MASTER\i2c_master.h ****  *  int main(void)
 488:C:/Users/Yushev/git/optiga-trust-qi/projects/xmc4700_relax_kit/common/Dave/Generated/I2C_MASTER\i2c_master.h ****  *  {
 489:C:/Users/Yushev/git/optiga-trust-qi/projects/xmc4700_relax_kit/common/Dave/Generated/I2C_MASTER\i2c_master.h ****  *    DAVE_STATUS_t init_status;
 490:C:/Users/Yushev/git/optiga-trust-qi/projects/xmc4700_relax_kit/common/Dave/Generated/I2C_MASTER\i2c_master.h ****  *
 491:C:/Users/Yushev/git/optiga-trust-qi/projects/xmc4700_relax_kit/common/Dave/Generated/I2C_MASTER\i2c_master.h ****  *    init_status = DAVE_Init();
 492:C:/Users/Yushev/git/optiga-trust-qi/projects/xmc4700_relax_kit/common/Dave/Generated/I2C_MASTER\i2c_master.h ****  *    if(init_status == DAVE_STATUS_SUCCESS)
 493:C:/Users/Yushev/git/optiga-trust-qi/projects/xmc4700_relax_kit/common/Dave/Generated/I2C_MASTER\i2c_master.h ****  *    {
 494:C:/Users/Yushev/git/optiga-trust-qi/projects/xmc4700_relax_kit/common/Dave/Generated/I2C_MASTER\i2c_master.h ****  *      I2C_MASTER_SendStart(&I2C_MASTER_0, SLAVE_ADDRESS, XMC_I2C_CH_CMD_WRITE);
 495:C:/Users/Yushev/git/optiga-trust-qi/projects/xmc4700_relax_kit/common/Dave/Generated/I2C_MASTER\i2c_master.h ****  *      while(I2C_MASTER_GetFlagStatus(&I2C_MASTER_0, XMC_I2C_CH_STATUS_FLAG_ACK_RECEIVED) == 0U)
 496:C:/Users/Yushev/git/optiga-trust-qi/projects/xmc4700_relax_kit/common/Dave/Generated/I2C_MASTER\i2c_master.h ****  *      {
 497:C:/Users/Yushev/git/optiga-trust-qi/projects/xmc4700_relax_kit/common/Dave/Generated/I2C_MASTER\i2c_master.h ****  *       // wait for ACK
 498:C:/Users/Yushev/git/optiga-trust-qi/projects/xmc4700_relax_kit/common/Dave/Generated/I2C_MASTER\i2c_master.h ****  *      }
 499:C:/Users/Yushev/git/optiga-trust-qi/projects/xmc4700_relax_kit/common/Dave/Generated/I2C_MASTER\i2c_master.h ****  *      I2C_MASTER_ClearFlag(&I2C_MASTER_0,XMC_I2C_CH_STATUS_FLAG_ACK_RECEIVED);
 500:C:/Users/Yushev/git/optiga-trust-qi/projects/xmc4700_relax_kit/common/Dave/Generated/I2C_MASTER\i2c_master.h ****  *    }
 501:C:/Users/Yushev/git/optiga-trust-qi/projects/xmc4700_relax_kit/common/Dave/Generated/I2C_MASTER\i2c_master.h ****  *    while(1)
 502:C:/Users/Yushev/git/optiga-trust-qi/projects/xmc4700_relax_kit/common/Dave/Generated/I2C_MASTER\i2c_master.h ****  *    {}
 503:C:/Users/Yushev/git/optiga-trust-qi/projects/xmc4700_relax_kit/common/Dave/Generated/I2C_MASTER\i2c_master.h ****  *
 504:C:/Users/Yushev/git/optiga-trust-qi/projects/xmc4700_relax_kit/common/Dave/Generated/I2C_MASTER\i2c_master.h ****  *   return 0;
 505:C:/Users/Yushev/git/optiga-trust-qi/projects/xmc4700_relax_kit/common/Dave/Generated/I2C_MASTER\i2c_master.h ****  * }
 506:C:/Users/Yushev/git/optiga-trust-qi/projects/xmc4700_relax_kit/common/Dave/Generated/I2C_MASTER\i2c_master.h ****  * @endcode<BR> </p>
 507:C:/Users/Yushev/git/optiga-trust-qi/projects/xmc4700_relax_kit/common/Dave/Generated/I2C_MASTER\i2c_master.h ****  *
 508:C:/Users/Yushev/git/optiga-trust-qi/projects/xmc4700_relax_kit/common/Dave/Generated/I2C_MASTER\i2c_master.h ****  */
 509:C:/Users/Yushev/git/optiga-trust-qi/projects/xmc4700_relax_kit/common/Dave/Generated/I2C_MASTER\i2c_master.h **** void I2C_MASTER_ClearFlag(const I2C_MASTER_t *handle, uint32_t flagtype);
 510:C:/Users/Yushev/git/optiga-trust-qi/projects/xmc4700_relax_kit/common/Dave/Generated/I2C_MASTER\i2c_master.h **** 
 511:C:/Users/Yushev/git/optiga-trust-qi/projects/xmc4700_relax_kit/common/Dave/Generated/I2C_MASTER\i2c_master.h **** /**
 512:C:/Users/Yushev/git/optiga-trust-qi/projects/xmc4700_relax_kit/common/Dave/Generated/I2C_MASTER\i2c_master.h ****  * @brief Aborts the ongoing data transmission.
 513:C:/Users/Yushev/git/optiga-trust-qi/projects/xmc4700_relax_kit/common/Dave/Generated/I2C_MASTER\i2c_master.h ****  * @param handle  I2C_MASTER APP handle pointer of type @ref I2C_MASTER_t
 514:C:/Users/Yushev/git/optiga-trust-qi/projects/xmc4700_relax_kit/common/Dave/Generated/I2C_MASTER\i2c_master.h ****  * @return I2C_MASTER_STATUS_t status
 515:C:/Users/Yushev/git/optiga-trust-qi/projects/xmc4700_relax_kit/common/Dave/Generated/I2C_MASTER\i2c_master.h ****  *
 516:C:/Users/Yushev/git/optiga-trust-qi/projects/xmc4700_relax_kit/common/Dave/Generated/I2C_MASTER\i2c_master.h ****  * \par<b>Description:</b><br>
 517:C:/Users/Yushev/git/optiga-trust-qi/projects/xmc4700_relax_kit/common/Dave/Generated/I2C_MASTER\i2c_master.h ****  * If there is a transmission in progress, it will be stopped. Once the transmission is stopped, 
 518:C:/Users/Yushev/git/optiga-trust-qi/projects/xmc4700_relax_kit/common/Dave/Generated/I2C_MASTER\i2c_master.h ****  * user can start a new transmission without delay.
 519:C:/Users/Yushev/git/optiga-trust-qi/projects/xmc4700_relax_kit/common/Dave/Generated/I2C_MASTER\i2c_master.h ****  *
 520:C:/Users/Yushev/git/optiga-trust-qi/projects/xmc4700_relax_kit/common/Dave/Generated/I2C_MASTER\i2c_master.h ****  * Pre-requisite: Instantiate I2C_MASTER APP and generate code before using below code snippet.
 521:C:/Users/Yushev/git/optiga-trust-qi/projects/xmc4700_relax_kit/common/Dave/Generated/I2C_MASTER\i2c_master.h ****  *
 522:C:/Users/Yushev/git/optiga-trust-qi/projects/xmc4700_relax_kit/common/Dave/Generated/I2C_MASTER\i2c_master.h ****  *
 523:C:/Users/Yushev/git/optiga-trust-qi/projects/xmc4700_relax_kit/common/Dave/Generated/I2C_MASTER\i2c_master.h ****  * Example Usage:
 524:C:/Users/Yushev/git/optiga-trust-qi/projects/xmc4700_relax_kit/common/Dave/Generated/I2C_MASTER\i2c_master.h ****  * @code
 525:C:/Users/Yushev/git/optiga-trust-qi/projects/xmc4700_relax_kit/common/Dave/Generated/I2C_MASTER\i2c_master.h ****  *
 526:C:/Users/Yushev/git/optiga-trust-qi/projects/xmc4700_relax_kit/common/Dave/Generated/I2C_MASTER\i2c_master.h ****  *  #include <DAVE.h>         //Declarations from DAVE Code Generation (includes SFR declaration)
 527:C:/Users/Yushev/git/optiga-trust-qi/projects/xmc4700_relax_kit/common/Dave/Generated/I2C_MASTER\i2c_master.h ****  *  #define SLAVE_ADDRESS 0xA0
 528:C:/Users/Yushev/git/optiga-trust-qi/projects/xmc4700_relax_kit/common/Dave/Generated/I2C_MASTER\i2c_master.h ****  *  uint8_t tx_buf[50] = "ABCDEFGHIJKLMNOPQRSTUVWXYZ";
 529:C:/Users/Yushev/git/optiga-trust-qi/projects/xmc4700_relax_kit/common/Dave/Generated/I2C_MASTER\i2c_master.h **** 
 530:C:/Users/Yushev/git/optiga-trust-qi/projects/xmc4700_relax_kit/common/Dave/Generated/I2C_MASTER\i2c_master.h ****  *  int main(void)
 531:C:/Users/Yushev/git/optiga-trust-qi/projects/xmc4700_relax_kit/common/Dave/Generated/I2C_MASTER\i2c_master.h ****  *  {
 532:C:/Users/Yushev/git/optiga-trust-qi/projects/xmc4700_relax_kit/common/Dave/Generated/I2C_MASTER\i2c_master.h ****  *    DAVE_STATUS_t init_status;
 533:C:/Users/Yushev/git/optiga-trust-qi/projects/xmc4700_relax_kit/common/Dave/Generated/I2C_MASTER\i2c_master.h ****  *    init_status = DAVE_Init();
 534:C:/Users/Yushev/git/optiga-trust-qi/projects/xmc4700_relax_kit/common/Dave/Generated/I2C_MASTER\i2c_master.h ****  *    if(init_status == DAVE_STATUS_SUCCESS)
 535:C:/Users/Yushev/git/optiga-trust-qi/projects/xmc4700_relax_kit/common/Dave/Generated/I2C_MASTER\i2c_master.h ****  *    {
 536:C:/Users/Yushev/git/optiga-trust-qi/projects/xmc4700_relax_kit/common/Dave/Generated/I2C_MASTER\i2c_master.h ****  *      I2C_MASTER_Transmit(&I2C_MASTER_0, true, SLAVE_ADDRESS, &tx_buf[0], 16, true);
 537:C:/Users/Yushev/git/optiga-trust-qi/projects/xmc4700_relax_kit/common/Dave/Generated/I2C_MASTER\i2c_master.h ****  *      I2C_MASTER_AbortTransmit(&I2C_MASTER_0);
 538:C:/Users/Yushev/git/optiga-trust-qi/projects/xmc4700_relax_kit/common/Dave/Generated/I2C_MASTER\i2c_master.h ****  *      I2C_MASTER_SendStop(&I2C_MASTER_0);
 539:C:/Users/Yushev/git/optiga-trust-qi/projects/xmc4700_relax_kit/common/Dave/Generated/I2C_MASTER\i2c_master.h ****  *      I2C_MASTER_Transmit(&I2C_MASTER_0, true, SLAVE_ADDRESS, &tx_buf[0], 16, true);
 540:C:/Users/Yushev/git/optiga-trust-qi/projects/xmc4700_relax_kit/common/Dave/Generated/I2C_MASTER\i2c_master.h ****  *      while(I2C_MASTER_IsTxBusy(&I2C_MASTER_0));
 541:C:/Users/Yushev/git/optiga-trust-qi/projects/xmc4700_relax_kit/common/Dave/Generated/I2C_MASTER\i2c_master.h ****  *    }
 542:C:/Users/Yushev/git/optiga-trust-qi/projects/xmc4700_relax_kit/common/Dave/Generated/I2C_MASTER\i2c_master.h ****  *    while(1U)
 543:C:/Users/Yushev/git/optiga-trust-qi/projects/xmc4700_relax_kit/common/Dave/Generated/I2C_MASTER\i2c_master.h ****  *    {
 544:C:/Users/Yushev/git/optiga-trust-qi/projects/xmc4700_relax_kit/common/Dave/Generated/I2C_MASTER\i2c_master.h ****  *    }
 545:C:/Users/Yushev/git/optiga-trust-qi/projects/xmc4700_relax_kit/common/Dave/Generated/I2C_MASTER\i2c_master.h ****  *
 546:C:/Users/Yushev/git/optiga-trust-qi/projects/xmc4700_relax_kit/common/Dave/Generated/I2C_MASTER\i2c_master.h ****  *    return 1U;
 547:C:/Users/Yushev/git/optiga-trust-qi/projects/xmc4700_relax_kit/common/Dave/Generated/I2C_MASTER\i2c_master.h ****  *  }
 548:C:/Users/Yushev/git/optiga-trust-qi/projects/xmc4700_relax_kit/common/Dave/Generated/I2C_MASTER\i2c_master.h ****  *
 549:C:/Users/Yushev/git/optiga-trust-qi/projects/xmc4700_relax_kit/common/Dave/Generated/I2C_MASTER\i2c_master.h ****  * @endcode
 550:C:/Users/Yushev/git/optiga-trust-qi/projects/xmc4700_relax_kit/common/Dave/Generated/I2C_MASTER\i2c_master.h ****  *
 551:C:/Users/Yushev/git/optiga-trust-qi/projects/xmc4700_relax_kit/common/Dave/Generated/I2C_MASTER\i2c_master.h ****  */
 552:C:/Users/Yushev/git/optiga-trust-qi/projects/xmc4700_relax_kit/common/Dave/Generated/I2C_MASTER\i2c_master.h **** I2C_MASTER_STATUS_t I2C_MASTER_AbortTransmit(const I2C_MASTER_t *const handle);
 553:C:/Users/Yushev/git/optiga-trust-qi/projects/xmc4700_relax_kit/common/Dave/Generated/I2C_MASTER\i2c_master.h **** 
 554:C:/Users/Yushev/git/optiga-trust-qi/projects/xmc4700_relax_kit/common/Dave/Generated/I2C_MASTER\i2c_master.h **** /**
 555:C:/Users/Yushev/git/optiga-trust-qi/projects/xmc4700_relax_kit/common/Dave/Generated/I2C_MASTER\i2c_master.h **** * @brief Stops the active data reception request.
 556:C:/Users/Yushev/git/optiga-trust-qi/projects/xmc4700_relax_kit/common/Dave/Generated/I2C_MASTER\i2c_master.h ****  * @param handle I2C_MASTER APP handle pointer of type @ref I2C_MASTER_t
 557:C:/Users/Yushev/git/optiga-trust-qi/projects/xmc4700_relax_kit/common/Dave/Generated/I2C_MASTER\i2c_master.h ****  * @return I2C_MASTER_STATUS_t status
 558:C:/Users/Yushev/git/optiga-trust-qi/projects/xmc4700_relax_kit/common/Dave/Generated/I2C_MASTER\i2c_master.h ****  *
 559:C:/Users/Yushev/git/optiga-trust-qi/projects/xmc4700_relax_kit/common/Dave/Generated/I2C_MASTER\i2c_master.h ****  * \par<b>Description:</b><br>
 560:C:/Users/Yushev/git/optiga-trust-qi/projects/xmc4700_relax_kit/common/Dave/Generated/I2C_MASTER\i2c_master.h ****  * If a reception is in progress, it will be stopped. When a reception request
 561:C:/Users/Yushev/git/optiga-trust-qi/projects/xmc4700_relax_kit/common/Dave/Generated/I2C_MASTER\i2c_master.h ****  * is active, user will not be able to place a new receive request till the active
 562:C:/Users/Yushev/git/optiga-trust-qi/projects/xmc4700_relax_kit/common/Dave/Generated/I2C_MASTER\i2c_master.h ****  * reception is complete. This API can stop the progressing reception to make
 563:C:/Users/Yushev/git/optiga-trust-qi/projects/xmc4700_relax_kit/common/Dave/Generated/I2C_MASTER\i2c_master.h ****  * a new receive request.
 564:C:/Users/Yushev/git/optiga-trust-qi/projects/xmc4700_relax_kit/common/Dave/Generated/I2C_MASTER\i2c_master.h ****  *
 565:C:/Users/Yushev/git/optiga-trust-qi/projects/xmc4700_relax_kit/common/Dave/Generated/I2C_MASTER\i2c_master.h ****  * Pre-requisite: Instantiate I2C_MASTER APP and generate code before using below code snippet.
 566:C:/Users/Yushev/git/optiga-trust-qi/projects/xmc4700_relax_kit/common/Dave/Generated/I2C_MASTER\i2c_master.h ****  *
 567:C:/Users/Yushev/git/optiga-trust-qi/projects/xmc4700_relax_kit/common/Dave/Generated/I2C_MASTER\i2c_master.h ****  * Example Usage:
 568:C:/Users/Yushev/git/optiga-trust-qi/projects/xmc4700_relax_kit/common/Dave/Generated/I2C_MASTER\i2c_master.h ****  * @code
 569:C:/Users/Yushev/git/optiga-trust-qi/projects/xmc4700_relax_kit/common/Dave/Generated/I2C_MASTER\i2c_master.h ****  *
 570:C:/Users/Yushev/git/optiga-trust-qi/projects/xmc4700_relax_kit/common/Dave/Generated/I2C_MASTER\i2c_master.h ****  *  #include <DAVE.h>         //Declarations from DAVE Code Generation (includes SFR declaration)
 571:C:/Users/Yushev/git/optiga-trust-qi/projects/xmc4700_relax_kit/common/Dave/Generated/I2C_MASTER\i2c_master.h ****  *  #define SLAVE_ADDRESS 0xA0
 572:C:/Users/Yushev/git/optiga-trust-qi/projects/xmc4700_relax_kit/common/Dave/Generated/I2C_MASTER\i2c_master.h ****  *  int main(void)
 573:C:/Users/Yushev/git/optiga-trust-qi/projects/xmc4700_relax_kit/common/Dave/Generated/I2C_MASTER\i2c_master.h ****  *  {
 574:C:/Users/Yushev/git/optiga-trust-qi/projects/xmc4700_relax_kit/common/Dave/Generated/I2C_MASTER\i2c_master.h ****  *   uint8_t rx_buf[25];
 575:C:/Users/Yushev/git/optiga-trust-qi/projects/xmc4700_relax_kit/common/Dave/Generated/I2C_MASTER\i2c_master.h ****  *   uint8_t tx_buf[2];
 576:C:/Users/Yushev/git/optiga-trust-qi/projects/xmc4700_relax_kit/common/Dave/Generated/I2C_MASTER\i2c_master.h ****  *   DAVE_STATUS_t init_status;
 577:C:/Users/Yushev/git/optiga-trust-qi/projects/xmc4700_relax_kit/common/Dave/Generated/I2C_MASTER\i2c_master.h ****  *   init_status = DAVE_Init();
 578:C:/Users/Yushev/git/optiga-trust-qi/projects/xmc4700_relax_kit/common/Dave/Generated/I2C_MASTER\i2c_master.h ****  *   if(init_status == DAVE_STATUS_SUCCESS)
 579:C:/Users/Yushev/git/optiga-trust-qi/projects/xmc4700_relax_kit/common/Dave/Generated/I2C_MASTER\i2c_master.h ****  *   {
 580:C:/Users/Yushev/git/optiga-trust-qi/projects/xmc4700_relax_kit/common/Dave/Generated/I2C_MASTER\i2c_master.h ****  *     //send the address from which data to be transfered
 581:C:/Users/Yushev/git/optiga-trust-qi/projects/xmc4700_relax_kit/common/Dave/Generated/I2C_MASTER\i2c_master.h ****  *     tx_buf[0] = 0;
 582:C:/Users/Yushev/git/optiga-trust-qi/projects/xmc4700_relax_kit/common/Dave/Generated/I2C_MASTER\i2c_master.h ****  *     I2C_MASTER_Transmit(&I2C_MASTER_0, true, SLAVE_ADDRESS, &tx_buf[0], 1, false);
 583:C:/Users/Yushev/git/optiga-trust-qi/projects/xmc4700_relax_kit/common/Dave/Generated/I2C_MASTER\i2c_master.h ****  *     while(I2C_MASTER_IsTxBusy(&I2C_MASTER_0));
 584:C:/Users/Yushev/git/optiga-trust-qi/projects/xmc4700_relax_kit/common/Dave/Generated/I2C_MASTER\i2c_master.h ****  *     I2C_MASTER_Receive(&I2C_MASTER_0, true, SLAVE_ADDRESS, &rx_buf[0], 16, true, true);
 585:C:/Users/Yushev/git/optiga-trust-qi/projects/xmc4700_relax_kit/common/Dave/Generated/I2C_MASTER\i2c_master.h ****  *     I2C_MASTER_AbortReceive(&I2C_MASTER_0);
 586:C:/Users/Yushev/git/optiga-trust-qi/projects/xmc4700_relax_kit/common/Dave/Generated/I2C_MASTER\i2c_master.h ****  *     I2C_MASTER_SendStop(&I2C_MASTER_0);
 587:C:/Users/Yushev/git/optiga-trust-qi/projects/xmc4700_relax_kit/common/Dave/Generated/I2C_MASTER\i2c_master.h ****  *     I2C_MASTER_Transmit(&I2C_MASTER_0, true, SLAVE_ADDRESS, &tx_buf[0], 1, false);
 588:C:/Users/Yushev/git/optiga-trust-qi/projects/xmc4700_relax_kit/common/Dave/Generated/I2C_MASTER\i2c_master.h ****  *     while(I2C_MASTER_IsTxBusy(&I2C_MASTER_0));
 589:C:/Users/Yushev/git/optiga-trust-qi/projects/xmc4700_relax_kit/common/Dave/Generated/I2C_MASTER\i2c_master.h ****  *     I2C_MASTER_Receive(&I2C_MASTER_0, true, SLAVE_ADDRESS, &rx_buf[0], 16, true, true);
 590:C:/Users/Yushev/git/optiga-trust-qi/projects/xmc4700_relax_kit/common/Dave/Generated/I2C_MASTER\i2c_master.h ****  *     while(I2C_MASTER_IsRxBusy(&I2C_MASTER_0));
 591:C:/Users/Yushev/git/optiga-trust-qi/projects/xmc4700_relax_kit/common/Dave/Generated/I2C_MASTER\i2c_master.h ****  *   }
 592:C:/Users/Yushev/git/optiga-trust-qi/projects/xmc4700_relax_kit/common/Dave/Generated/I2C_MASTER\i2c_master.h ****  *   while(1U)
 593:C:/Users/Yushev/git/optiga-trust-qi/projects/xmc4700_relax_kit/common/Dave/Generated/I2C_MASTER\i2c_master.h ****  *   {
 594:C:/Users/Yushev/git/optiga-trust-qi/projects/xmc4700_relax_kit/common/Dave/Generated/I2C_MASTER\i2c_master.h ****  *   }
 595:C:/Users/Yushev/git/optiga-trust-qi/projects/xmc4700_relax_kit/common/Dave/Generated/I2C_MASTER\i2c_master.h ****  *
 596:C:/Users/Yushev/git/optiga-trust-qi/projects/xmc4700_relax_kit/common/Dave/Generated/I2C_MASTER\i2c_master.h ****  *   return 1U;
 597:C:/Users/Yushev/git/optiga-trust-qi/projects/xmc4700_relax_kit/common/Dave/Generated/I2C_MASTER\i2c_master.h ****  * }
 598:C:/Users/Yushev/git/optiga-trust-qi/projects/xmc4700_relax_kit/common/Dave/Generated/I2C_MASTER\i2c_master.h ****  *
 599:C:/Users/Yushev/git/optiga-trust-qi/projects/xmc4700_relax_kit/common/Dave/Generated/I2C_MASTER\i2c_master.h ****  * @endcode
 600:C:/Users/Yushev/git/optiga-trust-qi/projects/xmc4700_relax_kit/common/Dave/Generated/I2C_MASTER\i2c_master.h ****  *
 601:C:/Users/Yushev/git/optiga-trust-qi/projects/xmc4700_relax_kit/common/Dave/Generated/I2C_MASTER\i2c_master.h ****  */
 602:C:/Users/Yushev/git/optiga-trust-qi/projects/xmc4700_relax_kit/common/Dave/Generated/I2C_MASTER\i2c_master.h **** I2C_MASTER_STATUS_t I2C_MASTER_AbortReceive(const I2C_MASTER_t *const handle);
 603:C:/Users/Yushev/git/optiga-trust-qi/projects/xmc4700_relax_kit/common/Dave/Generated/I2C_MASTER\i2c_master.h **** 
 604:C:/Users/Yushev/git/optiga-trust-qi/projects/xmc4700_relax_kit/common/Dave/Generated/I2C_MASTER\i2c_master.h **** 
 605:C:/Users/Yushev/git/optiga-trust-qi/projects/xmc4700_relax_kit/common/Dave/Generated/I2C_MASTER\i2c_master.h **** #if (I2C_MASTER_DMA_TX_ENABLED == 1U) || defined(DOXYGEN)
 606:C:/Users/Yushev/git/optiga-trust-qi/projects/xmc4700_relax_kit/common/Dave/Generated/I2C_MASTER\i2c_master.h **** /**
 607:C:/Users/Yushev/git/optiga-trust-qi/projects/xmc4700_relax_kit/common/Dave/Generated/I2C_MASTER\i2c_master.h ****  * @brief Registers a request for transmitting data over I2C channel using DMA.
 608:C:/Users/Yushev/git/optiga-trust-qi/projects/xmc4700_relax_kit/common/Dave/Generated/I2C_MASTER\i2c_master.h ****  *
 609:C:/Users/Yushev/git/optiga-trust-qi/projects/xmc4700_relax_kit/common/Dave/Generated/I2C_MASTER\i2c_master.h ****  * @param  handle  I2C_MASTER APP handle pointer of type @ref I2C_MASTER_t
 610:C:/Users/Yushev/git/optiga-trust-qi/projects/xmc4700_relax_kit/common/Dave/Generated/I2C_MASTER\i2c_master.h ****  * @param  block_size size of the block
 611:C:/Users/Yushev/git/optiga-trust-qi/projects/xmc4700_relax_kit/common/Dave/Generated/I2C_MASTER\i2c_master.h ****  * @param  addr    address\n
 612:C:/Users/Yushev/git/optiga-trust-qi/projects/xmc4700_relax_kit/common/Dave/Generated/I2C_MASTER\i2c_master.h ****  * \b Range: minimum= 1, maximum= 4095.
 613:C:/Users/Yushev/git/optiga-trust-qi/projects/xmc4700_relax_kit/common/Dave/Generated/I2C_MASTER\i2c_master.h ****  *
 614:C:/Users/Yushev/git/optiga-trust-qi/projects/xmc4700_relax_kit/common/Dave/Generated/I2C_MASTER\i2c_master.h ****  * @return  I2C_MASTER_STATUS_t: Status of transmit request.\n
 615:C:/Users/Yushev/git/optiga-trust-qi/projects/xmc4700_relax_kit/common/Dave/Generated/I2C_MASTER\i2c_master.h ****  *                        @ref I2C_MASTER_STATUS_SUCCESS if the request is accepted.\n
 616:C:/Users/Yushev/git/optiga-trust-qi/projects/xmc4700_relax_kit/common/Dave/Generated/I2C_MASTER\i2c_master.h ****  *                        @ref I2C_MASTER_STATUS_BUSY if a transmission is in progress.\n
 617:C:/Users/Yushev/git/optiga-trust-qi/projects/xmc4700_relax_kit/common/Dave/Generated/I2C_MASTER\i2c_master.h ****  *
 618:C:/Users/Yushev/git/optiga-trust-qi/projects/xmc4700_relax_kit/common/Dave/Generated/I2C_MASTER\i2c_master.h ****  * <i>Imp Note:</i> Return value should be validated by user to ensure that the
 619:C:/Users/Yushev/git/optiga-trust-qi/projects/xmc4700_relax_kit/common/Dave/Generated/I2C_MASTER\i2c_master.h ****  * request is registered.
 620:C:/Users/Yushev/git/optiga-trust-qi/projects/xmc4700_relax_kit/common/Dave/Generated/I2C_MASTER\i2c_master.h ****  *
 621:C:/Users/Yushev/git/optiga-trust-qi/projects/xmc4700_relax_kit/common/Dave/Generated/I2C_MASTER\i2c_master.h ****  * \par<b>Description:</b><br>
 622:C:/Users/Yushev/git/optiga-trust-qi/projects/xmc4700_relax_kit/common/Dave/Generated/I2C_MASTER\i2c_master.h ****  * The data transmission is accomplished using DMA. User can configure a callback function in the A
 623:C:/Users/Yushev/git/optiga-trust-qi/projects/xmc4700_relax_kit/common/Dave/Generated/I2C_MASTER\i2c_master.h ****  * When the data is fully transmitted, the callback function will be executed. The function uses AP
 624:C:/Users/Yushev/git/optiga-trust-qi/projects/xmc4700_relax_kit/common/Dave/Generated/I2C_MASTER\i2c_master.h ****  * structure to store the status of transmission.
 625:C:/Users/Yushev/git/optiga-trust-qi/projects/xmc4700_relax_kit/common/Dave/Generated/I2C_MASTER\i2c_master.h ****  * This function only registers a data transmission request, if there is no active transmission in 
 626:C:/Users/Yushev/git/optiga-trust-qi/projects/xmc4700_relax_kit/common/Dave/Generated/I2C_MASTER\i2c_master.h ****  * Actual data transmission happens through DMA channel.
 627:C:/Users/Yushev/git/optiga-trust-qi/projects/xmc4700_relax_kit/common/Dave/Generated/I2C_MASTER\i2c_master.h ****  * A maximum of 4095 bytes can be transmitted in one API call. This limit is because of the DMA sin
 628:C:/Users/Yushev/git/optiga-trust-qi/projects/xmc4700_relax_kit/common/Dave/Generated/I2C_MASTER\i2c_master.h ****  * Callback function is executed when all the data bytes are transmitted.
 629:C:/Users/Yushev/git/optiga-trust-qi/projects/xmc4700_relax_kit/common/Dave/Generated/I2C_MASTER\i2c_master.h ****  * If a callback function is not configured, user has to poll for the value of \a tx_busy flag of
 630:C:/Users/Yushev/git/optiga-trust-qi/projects/xmc4700_relax_kit/common/Dave/Generated/I2C_MASTER\i2c_master.h ****  * the APP handle structure( \a handle->runtime->tx_busy ) to check for
 631:C:/Users/Yushev/git/optiga-trust-qi/projects/xmc4700_relax_kit/common/Dave/Generated/I2C_MASTER\i2c_master.h ****  * the completion of data transmission.
 632:C:/Users/Yushev/git/optiga-trust-qi/projects/xmc4700_relax_kit/common/Dave/Generated/I2C_MASTER\i2c_master.h ****  * If data more than the block size of 4095 have to be transmitted, user will have to transmit them
 633:C:/Users/Yushev/git/optiga-trust-qi/projects/xmc4700_relax_kit/common/Dave/Generated/I2C_MASTER\i2c_master.h ****  * calls to this API.
 634:C:/Users/Yushev/git/optiga-trust-qi/projects/xmc4700_relax_kit/common/Dave/Generated/I2C_MASTER\i2c_master.h ****  * \par<b>NOTE: </b><br>
 635:C:/Users/Yushev/git/optiga-trust-qi/projects/xmc4700_relax_kit/common/Dave/Generated/I2C_MASTER\i2c_master.h ****  * I2C_MASTER_StartTransmitDMA API can be used in DMA mode.
 636:C:/Users/Yushev/git/optiga-trust-qi/projects/xmc4700_relax_kit/common/Dave/Generated/I2C_MASTER\i2c_master.h ****  * Transmit should be configured as "DMA" mode in advanced settings tab. \n
 637:C:/Users/Yushev/git/optiga-trust-qi/projects/xmc4700_relax_kit/common/Dave/Generated/I2C_MASTER\i2c_master.h ****  * Address(addr) should reserve an additional bit at the LSB for read/write indication. For example
 638:C:/Users/Yushev/git/optiga-trust-qi/projects/xmc4700_relax_kit/common/Dave/Generated/I2C_MASTER\i2c_master.h ****  * be provided as 0x0a. If the address is 10-bit, only most significant bits with the 10-bit identi
 639:C:/Users/Yushev/git/optiga-trust-qi/projects/xmc4700_relax_kit/common/Dave/Generated/I2C_MASTER\i2c_master.h ****  * For example, if the 10-bit address is 0x305, the address should be provided as 0xf6(prepend with
 640:C:/Users/Yushev/git/optiga-trust-qi/projects/xmc4700_relax_kit/common/Dave/Generated/I2C_MASTER\i2c_master.h ****  * followed by 1-bit field for read/write).<br>
 641:C:/Users/Yushev/git/optiga-trust-qi/projects/xmc4700_relax_kit/common/Dave/Generated/I2C_MASTER\i2c_master.h ****  * Example Usage:
 642:C:/Users/Yushev/git/optiga-trust-qi/projects/xmc4700_relax_kit/common/Dave/Generated/I2C_MASTER\i2c_master.h ****  *
 643:C:/Users/Yushev/git/optiga-trust-qi/projects/xmc4700_relax_kit/common/Dave/Generated/I2C_MASTER\i2c_master.h ****  * @code
 644:C:/Users/Yushev/git/optiga-trust-qi/projects/xmc4700_relax_kit/common/Dave/Generated/I2C_MASTER\i2c_master.h ****  *
 645:C:/Users/Yushev/git/optiga-trust-qi/projects/xmc4700_relax_kit/common/Dave/Generated/I2C_MASTER\i2c_master.h ****  *  #include <DAVE.h>         //Declarations from DAVE Code Generation (includes SFR declaration)
 646:C:/Users/Yushev/git/optiga-trust-qi/projects/xmc4700_relax_kit/common/Dave/Generated/I2C_MASTER\i2c_master.h ****  *  #define SLAVE_ADDRESS 0xA0
 647:C:/Users/Yushev/git/optiga-trust-qi/projects/xmc4700_relax_kit/common/Dave/Generated/I2C_MASTER\i2c_master.h ****  *  uint8_t Send_Data[] = "Infineon Technologies";
 648:C:/Users/Yushev/git/optiga-trust-qi/projects/xmc4700_relax_kit/common/Dave/Generated/I2C_MASTER\i2c_master.h ****  *  int main(void)
 649:C:/Users/Yushev/git/optiga-trust-qi/projects/xmc4700_relax_kit/common/Dave/Generated/I2C_MASTER\i2c_master.h ****  *  {
 650:C:/Users/Yushev/git/optiga-trust-qi/projects/xmc4700_relax_kit/common/Dave/Generated/I2C_MASTER\i2c_master.h ****  *    DAVE_STATUS_t init_status;
 651:C:/Users/Yushev/git/optiga-trust-qi/projects/xmc4700_relax_kit/common/Dave/Generated/I2C_MASTER\i2c_master.h ****  *
 652:C:/Users/Yushev/git/optiga-trust-qi/projects/xmc4700_relax_kit/common/Dave/Generated/I2C_MASTER\i2c_master.h ****  *    init_status = DAVE_Init();
 653:C:/Users/Yushev/git/optiga-trust-qi/projects/xmc4700_relax_kit/common/Dave/Generated/I2C_MASTER\i2c_master.h ****  *    if(init_status == DAVE_STATUS_SUCCESS)
 654:C:/Users/Yushev/git/optiga-trust-qi/projects/xmc4700_relax_kit/common/Dave/Generated/I2C_MASTER\i2c_master.h ****  *    {
 655:C:/Users/Yushev/git/optiga-trust-qi/projects/xmc4700_relax_kit/common/Dave/Generated/I2C_MASTER\i2c_master.h ****  *      I2C_MASTER_SendStart(&I2C_MASTER_0, SLAVE_ADDRESS, XMC_I2C_CH_CMD_WRITE);
 656:C:/Users/Yushev/git/optiga-trust-qi/projects/xmc4700_relax_kit/common/Dave/Generated/I2C_MASTER\i2c_master.h ****  *	    while(I2C_MASTER_GetFlagStatus(&I2C_MASTER_0, XMC_I2C_CH_STATUS_FLAG_ACK_RECEIVED) == 0U)
 657:C:/Users/Yushev/git/optiga-trust-qi/projects/xmc4700_relax_kit/common/Dave/Generated/I2C_MASTER\i2c_master.h ****  *	    {
 658:C:/Users/Yushev/git/optiga-trust-qi/projects/xmc4700_relax_kit/common/Dave/Generated/I2C_MASTER\i2c_master.h ****  *	      // wait for ACK
 659:C:/Users/Yushev/git/optiga-trust-qi/projects/xmc4700_relax_kit/common/Dave/Generated/I2C_MASTER\i2c_master.h ****  *	    }
 660:C:/Users/Yushev/git/optiga-trust-qi/projects/xmc4700_relax_kit/common/Dave/Generated/I2C_MASTER\i2c_master.h ****  *      I2C_MASTER_ClearFlag(&I2C_MASTER_0,XMC_I2C_CH_STATUS_FLAG_ACK_RECEIVED);
 661:C:/Users/Yushev/git/optiga-trust-qi/projects/xmc4700_relax_kit/common/Dave/Generated/I2C_MASTER\i2c_master.h ****  *      // write to address 0
 662:C:/Users/Yushev/git/optiga-trust-qi/projects/xmc4700_relax_kit/common/Dave/Generated/I2C_MASTER\i2c_master.h ****  *      I2C_MASTER_TransmitByte(&I2C_MASTER_0, 0x00);
 663:C:/Users/Yushev/git/optiga-trust-qi/projects/xmc4700_relax_kit/common/Dave/Generated/I2C_MASTER\i2c_master.h ****  *	    while(I2C_MASTER_GetFlagStatus(&I2C_MASTER_0, XMC_I2C_CH_STATUS_FLAG_ACK_RECEIVED) == 0U)
 664:C:/Users/Yushev/git/optiga-trust-qi/projects/xmc4700_relax_kit/common/Dave/Generated/I2C_MASTER\i2c_master.h ****  *	    {
 665:C:/Users/Yushev/git/optiga-trust-qi/projects/xmc4700_relax_kit/common/Dave/Generated/I2C_MASTER\i2c_master.h ****  *	      // wait for ACK
 666:C:/Users/Yushev/git/optiga-trust-qi/projects/xmc4700_relax_kit/common/Dave/Generated/I2C_MASTER\i2c_master.h ****  *	    }
 667:C:/Users/Yushev/git/optiga-trust-qi/projects/xmc4700_relax_kit/common/Dave/Generated/I2C_MASTER\i2c_master.h ****  *      I2C_MASTER_ClearFlag(&I2C_MASTER_0,XMC_I2C_CH_STATUS_FLAG_ACK_RECEIVED);
 668:C:/Users/Yushev/git/optiga-trust-qi/projects/xmc4700_relax_kit/common/Dave/Generated/I2C_MASTER\i2c_master.h ****  *      // trigger the DMA
 669:C:/Users/Yushev/git/optiga-trust-qi/projects/xmc4700_relax_kit/common/Dave/Generated/I2C_MASTER\i2c_master.h ****  *      I2C_MASTER_StartTransmitDMA(&I2C_MASTER_0, sizeof(Send_Data), Send_Data);
 670:C:/Users/Yushev/git/optiga-trust-qi/projects/xmc4700_relax_kit/common/Dave/Generated/I2C_MASTER\i2c_master.h ****  *      while(I2C_MASTER_IsTxBusy(&I2C_MASTER_0));
 671:C:/Users/Yushev/git/optiga-trust-qi/projects/xmc4700_relax_kit/common/Dave/Generated/I2C_MASTER\i2c_master.h ****  *    }
 672:C:/Users/Yushev/git/optiga-trust-qi/projects/xmc4700_relax_kit/common/Dave/Generated/I2C_MASTER\i2c_master.h ****  *    else
 673:C:/Users/Yushev/git/optiga-trust-qi/projects/xmc4700_relax_kit/common/Dave/Generated/I2C_MASTER\i2c_master.h ****  *    {
 674:C:/Users/Yushev/git/optiga-trust-qi/projects/xmc4700_relax_kit/common/Dave/Generated/I2C_MASTER\i2c_master.h ****  *      XMC_DEBUG("main: Application initialization failed");
 675:C:/Users/Yushev/git/optiga-trust-qi/projects/xmc4700_relax_kit/common/Dave/Generated/I2C_MASTER\i2c_master.h ****  *      while(1U)
 676:C:/Users/Yushev/git/optiga-trust-qi/projects/xmc4700_relax_kit/common/Dave/Generated/I2C_MASTER\i2c_master.h ****  *      {
 677:C:/Users/Yushev/git/optiga-trust-qi/projects/xmc4700_relax_kit/common/Dave/Generated/I2C_MASTER\i2c_master.h ****  *      }
 678:C:/Users/Yushev/git/optiga-trust-qi/projects/xmc4700_relax_kit/common/Dave/Generated/I2C_MASTER\i2c_master.h ****  *    }
 679:C:/Users/Yushev/git/optiga-trust-qi/projects/xmc4700_relax_kit/common/Dave/Generated/I2C_MASTER\i2c_master.h ****  *    return 1U;
 680:C:/Users/Yushev/git/optiga-trust-qi/projects/xmc4700_relax_kit/common/Dave/Generated/I2C_MASTER\i2c_master.h ****  * }
 681:C:/Users/Yushev/git/optiga-trust-qi/projects/xmc4700_relax_kit/common/Dave/Generated/I2C_MASTER\i2c_master.h ****  * @endcode
 682:C:/Users/Yushev/git/optiga-trust-qi/projects/xmc4700_relax_kit/common/Dave/Generated/I2C_MASTER\i2c_master.h ****  *
 683:C:/Users/Yushev/git/optiga-trust-qi/projects/xmc4700_relax_kit/common/Dave/Generated/I2C_MASTER\i2c_master.h ****  */
 684:C:/Users/Yushev/git/optiga-trust-qi/projects/xmc4700_relax_kit/common/Dave/Generated/I2C_MASTER\i2c_master.h **** I2C_MASTER_STATUS_t I2C_MASTER_StartTransmitDMA(const I2C_MASTER_t *const handle, uint32_t block_si
 685:C:/Users/Yushev/git/optiga-trust-qi/projects/xmc4700_relax_kit/common/Dave/Generated/I2C_MASTER\i2c_master.h **** #endif
 686:C:/Users/Yushev/git/optiga-trust-qi/projects/xmc4700_relax_kit/common/Dave/Generated/I2C_MASTER\i2c_master.h **** 
 687:C:/Users/Yushev/git/optiga-trust-qi/projects/xmc4700_relax_kit/common/Dave/Generated/I2C_MASTER\i2c_master.h **** #if (I2C_MASTER_DMA_RX_ENABLED == 1U) || defined(DOXYGEN)
 688:C:/Users/Yushev/git/optiga-trust-qi/projects/xmc4700_relax_kit/common/Dave/Generated/I2C_MASTER\i2c_master.h **** /**
 689:C:/Users/Yushev/git/optiga-trust-qi/projects/xmc4700_relax_kit/common/Dave/Generated/I2C_MASTER\i2c_master.h ****  * @brief Registers a request for receiving data over I2C_MASTER channel using DMA.
 690:C:/Users/Yushev/git/optiga-trust-qi/projects/xmc4700_relax_kit/common/Dave/Generated/I2C_MASTER\i2c_master.h ****  *
 691:C:/Users/Yushev/git/optiga-trust-qi/projects/xmc4700_relax_kit/common/Dave/Generated/I2C_MASTER\i2c_master.h ****  *
 692:C:/Users/Yushev/git/optiga-trust-qi/projects/xmc4700_relax_kit/common/Dave/Generated/I2C_MASTER\i2c_master.h ****  * @param  handle  Pointer to I2C_MASTER_t handle structure
 693:C:/Users/Yushev/git/optiga-trust-qi/projects/xmc4700_relax_kit/common/Dave/Generated/I2C_MASTER\i2c_master.h ****  * @param block_size  size of the block
 694:C:/Users/Yushev/git/optiga-trust-qi/projects/xmc4700_relax_kit/common/Dave/Generated/I2C_MASTER\i2c_master.h ****  * @param  addr  address \n
 695:C:/Users/Yushev/git/optiga-trust-qi/projects/xmc4700_relax_kit/common/Dave/Generated/I2C_MASTER\i2c_master.h ****  * \b Range: minimum= 1, maximum= 4095.
 696:C:/Users/Yushev/git/optiga-trust-qi/projects/xmc4700_relax_kit/common/Dave/Generated/I2C_MASTER\i2c_master.h ****  *
 697:C:/Users/Yushev/git/optiga-trust-qi/projects/xmc4700_relax_kit/common/Dave/Generated/I2C_MASTER\i2c_master.h ****  * @return  I2C_MASTER_STATUS_t: Status for receive request.\n
 698:C:/Users/Yushev/git/optiga-trust-qi/projects/xmc4700_relax_kit/common/Dave/Generated/I2C_MASTER\i2c_master.h ****  *                        @ref I2C_MASTER_STATUS_SUCCESS if the request is accepted.\n
 699:C:/Users/Yushev/git/optiga-trust-qi/projects/xmc4700_relax_kit/common/Dave/Generated/I2C_MASTER\i2c_master.h ****  *                        @ref I2C_MASTER_STATUS_BUSY if a reception is in progress.\n
 700:C:/Users/Yushev/git/optiga-trust-qi/projects/xmc4700_relax_kit/common/Dave/Generated/I2C_MASTER\i2c_master.h ****  *
 701:C:/Users/Yushev/git/optiga-trust-qi/projects/xmc4700_relax_kit/common/Dave/Generated/I2C_MASTER\i2c_master.h ****  * \par<b>Description:</b><br>
 702:C:/Users/Yushev/git/optiga-trust-qi/projects/xmc4700_relax_kit/common/Dave/Generated/I2C_MASTER\i2c_master.h ****  * Data will be received asynchronously. When the requested number of data bytes are received, opti
 703:C:/Users/Yushev/git/optiga-trust-qi/projects/xmc4700_relax_kit/common/Dave/Generated/I2C_MASTER\i2c_master.h ****  * configured callback function will be executed.
 704:C:/Users/Yushev/git/optiga-trust-qi/projects/xmc4700_relax_kit/common/Dave/Generated/I2C_MASTER\i2c_master.h ****  * This function only registers a request to receive a number of data bytes from a USIC channel.
 705:C:/Users/Yushev/git/optiga-trust-qi/projects/xmc4700_relax_kit/common/Dave/Generated/I2C_MASTER\i2c_master.h ****  * When all the requested number of data bytes are received, the configured callback function will 
 706:C:/Users/Yushev/git/optiga-trust-qi/projects/xmc4700_relax_kit/common/Dave/Generated/I2C_MASTER\i2c_master.h ****  * If a callback function is not configured, the user has to poll for the value of the variable, \a
 707:C:/Users/Yushev/git/optiga-trust-qi/projects/xmc4700_relax_kit/common/Dave/Generated/I2C_MASTER\i2c_master.h ****  * handle->runtime->rx_busy to be false. The value is updated to \a false when all the requested nu
 708:C:/Users/Yushev/git/optiga-trust-qi/projects/xmc4700_relax_kit/common/Dave/Generated/I2C_MASTER\i2c_master.h ****  * are received.
 709:C:/Users/Yushev/git/optiga-trust-qi/projects/xmc4700_relax_kit/common/Dave/Generated/I2C_MASTER\i2c_master.h ****  * A maximum of 4095 bytes can be received in one API call. This limit is because of the DMA single
 710:C:/Users/Yushev/git/optiga-trust-qi/projects/xmc4700_relax_kit/common/Dave/Generated/I2C_MASTER\i2c_master.h ****  *
 711:C:/Users/Yushev/git/optiga-trust-qi/projects/xmc4700_relax_kit/common/Dave/Generated/I2C_MASTER\i2c_master.h ****  * \par<b>NOTE: </b><br>: I2C_MASTER_StartReceiveDMA API can be used only in DMA mode
 712:C:/Users/Yushev/git/optiga-trust-qi/projects/xmc4700_relax_kit/common/Dave/Generated/I2C_MASTER\i2c_master.h ****  * Receive should be configured as "DMA" mode in advanced settings tab \n
 713:C:/Users/Yushev/git/optiga-trust-qi/projects/xmc4700_relax_kit/common/Dave/Generated/I2C_MASTER\i2c_master.h ****  * Address(addr) should reserve an additional bit at the LSB for read/write indication. For example
 714:C:/Users/Yushev/git/optiga-trust-qi/projects/xmc4700_relax_kit/common/Dave/Generated/I2C_MASTER\i2c_master.h ****  * be provided as 0x0a. If the address is 10-bit, only most significant bits with the 10-bit identi
 715:C:/Users/Yushev/git/optiga-trust-qi/projects/xmc4700_relax_kit/common/Dave/Generated/I2C_MASTER\i2c_master.h ****  * For example, if the 10-bit address is 0x305, the address should be provided as 0xf6(prepend with
 716:C:/Users/Yushev/git/optiga-trust-qi/projects/xmc4700_relax_kit/common/Dave/Generated/I2C_MASTER\i2c_master.h ****  * followed by 1-bit field for read/write).<br>
 717:C:/Users/Yushev/git/optiga-trust-qi/projects/xmc4700_relax_kit/common/Dave/Generated/I2C_MASTER\i2c_master.h ****  *
 718:C:/Users/Yushev/git/optiga-trust-qi/projects/xmc4700_relax_kit/common/Dave/Generated/I2C_MASTER\i2c_master.h ****  * Example Usage:
 719:C:/Users/Yushev/git/optiga-trust-qi/projects/xmc4700_relax_kit/common/Dave/Generated/I2C_MASTER\i2c_master.h ****  * @code
 720:C:/Users/Yushev/git/optiga-trust-qi/projects/xmc4700_relax_kit/common/Dave/Generated/I2C_MASTER\i2c_master.h ****  *
 721:C:/Users/Yushev/git/optiga-trust-qi/projects/xmc4700_relax_kit/common/Dave/Generated/I2C_MASTER\i2c_master.h ****  *  #include <DAVE.h>         //Declarations from DAVE Code Generation (includes SFR declaration)
 722:C:/Users/Yushev/git/optiga-trust-qi/projects/xmc4700_relax_kit/common/Dave/Generated/I2C_MASTER\i2c_master.h ****  *  #define SLAVE_ADDRESS 0xA0
 723:C:/Users/Yushev/git/optiga-trust-qi/projects/xmc4700_relax_kit/common/Dave/Generated/I2C_MASTER\i2c_master.h ****  *  //Pre condition:
 724:C:/Users/Yushev/git/optiga-trust-qi/projects/xmc4700_relax_kit/common/Dave/Generated/I2C_MASTER\i2c_master.h ****  *  //Transmit mode and receive mode should be configured to "DMA" in advanced settings tab
 725:C:/Users/Yushev/git/optiga-trust-qi/projects/xmc4700_relax_kit/common/Dave/Generated/I2C_MASTER\i2c_master.h ****  *
 726:C:/Users/Yushev/git/optiga-trust-qi/projects/xmc4700_relax_kit/common/Dave/Generated/I2C_MASTER\i2c_master.h ****  *  uint8_t ReadData[256];
 727:C:/Users/Yushev/git/optiga-trust-qi/projects/xmc4700_relax_kit/common/Dave/Generated/I2C_MASTER\i2c_master.h ****  *  int main(void)
 728:C:/Users/Yushev/git/optiga-trust-qi/projects/xmc4700_relax_kit/common/Dave/Generated/I2C_MASTER\i2c_master.h ****  *  {
 729:C:/Users/Yushev/git/optiga-trust-qi/projects/xmc4700_relax_kit/common/Dave/Generated/I2C_MASTER\i2c_master.h ****  *    DAVE_STATUS_t init_status;
 730:C:/Users/Yushev/git/optiga-trust-qi/projects/xmc4700_relax_kit/common/Dave/Generated/I2C_MASTER\i2c_master.h ****  *
 731:C:/Users/Yushev/git/optiga-trust-qi/projects/xmc4700_relax_kit/common/Dave/Generated/I2C_MASTER\i2c_master.h ****  *    init_status = DAVE_Init();
 732:C:/Users/Yushev/git/optiga-trust-qi/projects/xmc4700_relax_kit/common/Dave/Generated/I2C_MASTER\i2c_master.h ****  *    if(init_status == DAVE_STATUS_SUCCESS)
 733:C:/Users/Yushev/git/optiga-trust-qi/projects/xmc4700_relax_kit/common/Dave/Generated/I2C_MASTER\i2c_master.h ****  *    {
 734:C:/Users/Yushev/git/optiga-trust-qi/projects/xmc4700_relax_kit/common/Dave/Generated/I2C_MASTER\i2c_master.h ****  *      I2C_MASTER_SendStart(&I2C_MASTER_0, SLAVE_ADDRESS, XMC_I2C_CH_CMD_WRITE);
 735:C:/Users/Yushev/git/optiga-trust-qi/projects/xmc4700_relax_kit/common/Dave/Generated/I2C_MASTER\i2c_master.h ****  *	    while(I2C_MASTER_GetFlagStatus(&I2C_MASTER_0, XMC_I2C_CH_STATUS_FLAG_ACK_RECEIVED) == 0U)
 736:C:/Users/Yushev/git/optiga-trust-qi/projects/xmc4700_relax_kit/common/Dave/Generated/I2C_MASTER\i2c_master.h ****  *	    {
 737:C:/Users/Yushev/git/optiga-trust-qi/projects/xmc4700_relax_kit/common/Dave/Generated/I2C_MASTER\i2c_master.h ****  *	      // wait for ACK
 738:C:/Users/Yushev/git/optiga-trust-qi/projects/xmc4700_relax_kit/common/Dave/Generated/I2C_MASTER\i2c_master.h ****  *	    }
 739:C:/Users/Yushev/git/optiga-trust-qi/projects/xmc4700_relax_kit/common/Dave/Generated/I2C_MASTER\i2c_master.h ****  *      I2C_MASTER_ClearFlag(&I2C_MASTER_0,XMC_I2C_CH_STATUS_FLAG_ACK_RECEIVED);
 740:C:/Users/Yushev/git/optiga-trust-qi/projects/xmc4700_relax_kit/common/Dave/Generated/I2C_MASTER\i2c_master.h ****  *      // write to address 0
 741:C:/Users/Yushev/git/optiga-trust-qi/projects/xmc4700_relax_kit/common/Dave/Generated/I2C_MASTER\i2c_master.h ****  *      I2C_MASTER_TransmitByte(&I2C_MASTER_0, 0x00);
 742:C:/Users/Yushev/git/optiga-trust-qi/projects/xmc4700_relax_kit/common/Dave/Generated/I2C_MASTER\i2c_master.h ****  *	    while(I2C_MASTER_GetFlagStatus(&I2C_MASTER_0, XMC_I2C_CH_STATUS_FLAG_ACK_RECEIVED) == 0U)
 743:C:/Users/Yushev/git/optiga-trust-qi/projects/xmc4700_relax_kit/common/Dave/Generated/I2C_MASTER\i2c_master.h ****  *	    {
 744:C:/Users/Yushev/git/optiga-trust-qi/projects/xmc4700_relax_kit/common/Dave/Generated/I2C_MASTER\i2c_master.h ****  *	      // wait for ACK
 745:C:/Users/Yushev/git/optiga-trust-qi/projects/xmc4700_relax_kit/common/Dave/Generated/I2C_MASTER\i2c_master.h ****  *	    }
 746:C:/Users/Yushev/git/optiga-trust-qi/projects/xmc4700_relax_kit/common/Dave/Generated/I2C_MASTER\i2c_master.h ****  *      I2C_MASTER_ClearFlag(&I2C_MASTER_0,XMC_I2C_CH_STATUS_FLAG_ACK_RECEIVED);
 747:C:/Users/Yushev/git/optiga-trust-qi/projects/xmc4700_relax_kit/common/Dave/Generated/I2C_MASTER\i2c_master.h ****  *      I2C_MASTER_SendRepeatedStart(&I2C_MASTER_0, SLAVE_ADDRESS, XMC_I2C_CH_CMD_READ);
 748:C:/Users/Yushev/git/optiga-trust-qi/projects/xmc4700_relax_kit/common/Dave/Generated/I2C_MASTER\i2c_master.h ****  *	    while(I2C_MASTER_GetFlagStatus(&I2C_MASTER_0, XMC_I2C_CH_STATUS_FLAG_ACK_RECEIVED) == 0U)
 749:C:/Users/Yushev/git/optiga-trust-qi/projects/xmc4700_relax_kit/common/Dave/Generated/I2C_MASTER\i2c_master.h ****  *	    {
 750:C:/Users/Yushev/git/optiga-trust-qi/projects/xmc4700_relax_kit/common/Dave/Generated/I2C_MASTER\i2c_master.h ****  *	      // wait for ACK
 751:C:/Users/Yushev/git/optiga-trust-qi/projects/xmc4700_relax_kit/common/Dave/Generated/I2C_MASTER\i2c_master.h ****  *	    }
 752:C:/Users/Yushev/git/optiga-trust-qi/projects/xmc4700_relax_kit/common/Dave/Generated/I2C_MASTER\i2c_master.h ****  *      I2C_MASTER_ClearFlag(&I2C_MASTER_0,XMC_I2C_CH_STATUS_FLAG_ACK_RECEIVED);
 753:C:/Users/Yushev/git/optiga-trust-qi/projects/xmc4700_relax_kit/common/Dave/Generated/I2C_MASTER\i2c_master.h ****  
 754:C:/Users/Yushev/git/optiga-trust-qi/projects/xmc4700_relax_kit/common/Dave/Generated/I2C_MASTER\i2c_master.h ****  *      I2C_MASTER_StartReceiveDMA(&I2C_MASTER_0, 200, ReadData);
 755:C:/Users/Yushev/git/optiga-trust-qi/projects/xmc4700_relax_kit/common/Dave/Generated/I2C_MASTER\i2c_master.h ****  *      while(I2C_MASTER_IsRxBusy(&I2C_MASTER_0));
 756:C:/Users/Yushev/git/optiga-trust-qi/projects/xmc4700_relax_kit/common/Dave/Generated/I2C_MASTER\i2c_master.h ****  *    }
 757:C:/Users/Yushev/git/optiga-trust-qi/projects/xmc4700_relax_kit/common/Dave/Generated/I2C_MASTER\i2c_master.h ****  *    else
 758:C:/Users/Yushev/git/optiga-trust-qi/projects/xmc4700_relax_kit/common/Dave/Generated/I2C_MASTER\i2c_master.h ****  *    {
 759:C:/Users/Yushev/git/optiga-trust-qi/projects/xmc4700_relax_kit/common/Dave/Generated/I2C_MASTER\i2c_master.h ****  *      XMC_DEBUG("main: Application initialization failed");
 760:C:/Users/Yushev/git/optiga-trust-qi/projects/xmc4700_relax_kit/common/Dave/Generated/I2C_MASTER\i2c_master.h ****  *      while(1U)
 761:C:/Users/Yushev/git/optiga-trust-qi/projects/xmc4700_relax_kit/common/Dave/Generated/I2C_MASTER\i2c_master.h ****  *      {
 762:C:/Users/Yushev/git/optiga-trust-qi/projects/xmc4700_relax_kit/common/Dave/Generated/I2C_MASTER\i2c_master.h ****  *      }
 763:C:/Users/Yushev/git/optiga-trust-qi/projects/xmc4700_relax_kit/common/Dave/Generated/I2C_MASTER\i2c_master.h ****  *    }
 764:C:/Users/Yushev/git/optiga-trust-qi/projects/xmc4700_relax_kit/common/Dave/Generated/I2C_MASTER\i2c_master.h ****  *    return 1U;
 765:C:/Users/Yushev/git/optiga-trust-qi/projects/xmc4700_relax_kit/common/Dave/Generated/I2C_MASTER\i2c_master.h ****  *  }
 766:C:/Users/Yushev/git/optiga-trust-qi/projects/xmc4700_relax_kit/common/Dave/Generated/I2C_MASTER\i2c_master.h ****  *  @endcode
 767:C:/Users/Yushev/git/optiga-trust-qi/projects/xmc4700_relax_kit/common/Dave/Generated/I2C_MASTER\i2c_master.h ****  *
 768:C:/Users/Yushev/git/optiga-trust-qi/projects/xmc4700_relax_kit/common/Dave/Generated/I2C_MASTER\i2c_master.h ****  */
 769:C:/Users/Yushev/git/optiga-trust-qi/projects/xmc4700_relax_kit/common/Dave/Generated/I2C_MASTER\i2c_master.h **** I2C_MASTER_STATUS_t I2C_MASTER_StartReceiveDMA(const I2C_MASTER_t *const handle, uint32_t block_siz
 770:C:/Users/Yushev/git/optiga-trust-qi/projects/xmc4700_relax_kit/common/Dave/Generated/I2C_MASTER\i2c_master.h **** #endif
 771:C:/Users/Yushev/git/optiga-trust-qi/projects/xmc4700_relax_kit/common/Dave/Generated/I2C_MASTER\i2c_master.h **** 
 772:C:/Users/Yushev/git/optiga-trust-qi/projects/xmc4700_relax_kit/common/Dave/Generated/I2C_MASTER\i2c_master.h **** #if (I2C_MASTER_INTERRUPT_TX_ENABLED == 1U)
 773:C:/Users/Yushev/git/optiga-trust-qi/projects/xmc4700_relax_kit/common/Dave/Generated/I2C_MASTER\i2c_master.h **** /**
 774:C:/Users/Yushev/git/optiga-trust-qi/projects/xmc4700_relax_kit/common/Dave/Generated/I2C_MASTER\i2c_master.h ****  * @brief Registers a request for transmitting data over I2C_MASTER channel.
 775:C:/Users/Yushev/git/optiga-trust-qi/projects/xmc4700_relax_kit/common/Dave/Generated/I2C_MASTER\i2c_master.h ****  *
 776:C:/Users/Yushev/git/optiga-trust-qi/projects/xmc4700_relax_kit/common/Dave/Generated/I2C_MASTER\i2c_master.h ****  * @param  handle  I2C_MASTER APP handle pointer of type @ref I2C_MASTER_t
 777:C:/Users/Yushev/git/optiga-trust-qi/projects/xmc4700_relax_kit/common/Dave/Generated/I2C_MASTER\i2c_master.h ****  * @param  send_start flag to indicate the start condition
 778:C:/Users/Yushev/git/optiga-trust-qi/projects/xmc4700_relax_kit/common/Dave/Generated/I2C_MASTER\i2c_master.h ****  * @param  address slave address
 779:C:/Users/Yushev/git/optiga-trust-qi/projects/xmc4700_relax_kit/common/Dave/Generated/I2C_MASTER\i2c_master.h ****  * @param  data    pointer to buffer
 780:C:/Users/Yushev/git/optiga-trust-qi/projects/xmc4700_relax_kit/common/Dave/Generated/I2C_MASTER\i2c_master.h ****  * @param  size    number of bytes
 781:C:/Users/Yushev/git/optiga-trust-qi/projects/xmc4700_relax_kit/common/Dave/Generated/I2C_MASTER\i2c_master.h ****  * @param  send_stop flag to indicate the stop condition\n
 782:C:/Users/Yushev/git/optiga-trust-qi/projects/xmc4700_relax_kit/common/Dave/Generated/I2C_MASTER\i2c_master.h ****  * \b Range: minimum= 1, maximum= maximum supported by uint32_t.
 783:C:/Users/Yushev/git/optiga-trust-qi/projects/xmc4700_relax_kit/common/Dave/Generated/I2C_MASTER\i2c_master.h ****  *
 784:C:/Users/Yushev/git/optiga-trust-qi/projects/xmc4700_relax_kit/common/Dave/Generated/I2C_MASTER\i2c_master.h ****  * @return  I2C_MASTER_STATUS_t: Status of transmit request.\n
 785:C:/Users/Yushev/git/optiga-trust-qi/projects/xmc4700_relax_kit/common/Dave/Generated/I2C_MASTER\i2c_master.h ****  *                        @ref I2C_MASTER_STATUS_SUCCESS if the request is accepted.\n
 786:C:/Users/Yushev/git/optiga-trust-qi/projects/xmc4700_relax_kit/common/Dave/Generated/I2C_MASTER\i2c_master.h ****  *                        @ref I2C_MASTER_STATUS_BUSY if a transmission is in progress.\n
 787:C:/Users/Yushev/git/optiga-trust-qi/projects/xmc4700_relax_kit/common/Dave/Generated/I2C_MASTER\i2c_master.h ****  *
 788:C:/Users/Yushev/git/optiga-trust-qi/projects/xmc4700_relax_kit/common/Dave/Generated/I2C_MASTER\i2c_master.h ****  * <i>Imp Note:</i> Return value should be validated by user to ensure that the
 789:C:/Users/Yushev/git/optiga-trust-qi/projects/xmc4700_relax_kit/common/Dave/Generated/I2C_MASTER\i2c_master.h ****  * request is registered.
 790:C:/Users/Yushev/git/optiga-trust-qi/projects/xmc4700_relax_kit/common/Dave/Generated/I2C_MASTER\i2c_master.h ****  *
 791:C:/Users/Yushev/git/optiga-trust-qi/projects/xmc4700_relax_kit/common/Dave/Generated/I2C_MASTER\i2c_master.h ****  * \par<b>Description:</b><br>
 792:C:/Users/Yushev/git/optiga-trust-qi/projects/xmc4700_relax_kit/common/Dave/Generated/I2C_MASTER\i2c_master.h ****  * The data transmission is accomplished using transmit interrupt. User can configure a callback fu
 793:C:/Users/Yushev/git/optiga-trust-qi/projects/xmc4700_relax_kit/common/Dave/Generated/I2C_MASTER\i2c_master.h ****  * When the data is fully transmitted, the callback function will be executed. If transmit FIFO is 
 794:C:/Users/Yushev/git/optiga-trust-qi/projects/xmc4700_relax_kit/common/Dave/Generated/I2C_MASTER\i2c_master.h ****  * the trigger limit is set to 1. So the transmit interrupt will be generated when all the data in 
 795:C:/Users/Yushev/git/optiga-trust-qi/projects/xmc4700_relax_kit/common/Dave/Generated/I2C_MASTER\i2c_master.h ****  * from FIFO. The function uses APP handle's runtime structure to store the data pointer, count, da
 796:C:/Users/Yushev/git/optiga-trust-qi/projects/xmc4700_relax_kit/common/Dave/Generated/I2C_MASTER\i2c_master.h ****  * status of transmission. This function only registers a data transmission request if there is no 
 797:C:/Users/Yushev/git/optiga-trust-qi/projects/xmc4700_relax_kit/common/Dave/Generated/I2C_MASTER\i2c_master.h ****  * in progress.
 798:C:/Users/Yushev/git/optiga-trust-qi/projects/xmc4700_relax_kit/common/Dave/Generated/I2C_MASTER\i2c_master.h ****  * Actual data transmission happens in the transmit interrupt service routine. A trigger is generat
 799:C:/Users/Yushev/git/optiga-trust-qi/projects/xmc4700_relax_kit/common/Dave/Generated/I2C_MASTER\i2c_master.h ****  * interrupt to start loading the data. If transmit FIFO is configured, the data is filled into the
 800:C:/Users/Yushev/git/optiga-trust-qi/projects/xmc4700_relax_kit/common/Dave/Generated/I2C_MASTER\i2c_master.h ****  * Transmit interrupt will be generated next time when the transmit FIFO is empty. At this point of
 801:C:/Users/Yushev/git/optiga-trust-qi/projects/xmc4700_relax_kit/common/Dave/Generated/I2C_MASTER\i2c_master.h ****  * some more data to be transmitted, it is loaded to the FIFO again. When FIFO is not enabled, data
 802:C:/Users/Yushev/git/optiga-trust-qi/projects/xmc4700_relax_kit/common/Dave/Generated/I2C_MASTER\i2c_master.h ****  * byte at a time. On transmission of each byte an interrupt is generated and the next byte is tran
 803:C:/Users/Yushev/git/optiga-trust-qi/projects/xmc4700_relax_kit/common/Dave/Generated/I2C_MASTER\i2c_master.h ****  * interrupt service routine. Callback function is executed when all the data bytes are transmitted
 804:C:/Users/Yushev/git/optiga-trust-qi/projects/xmc4700_relax_kit/common/Dave/Generated/I2C_MASTER\i2c_master.h ****  * If a callback function is not configured, user has to poll for the value of \a tx_busy flag of t
 805:C:/Users/Yushev/git/optiga-trust-qi/projects/xmc4700_relax_kit/common/Dave/Generated/I2C_MASTER\i2c_master.h ****  * structure( \a handle->runtime->tx_busy ) to check for the completion of data transmission.<br>
 806:C:/Users/Yushev/git/optiga-trust-qi/projects/xmc4700_relax_kit/common/Dave/Generated/I2C_MASTER\i2c_master.h ****  * \par<b>NOTE: </b><br>: I2C_MASTER_StartTransmitIRQ API can be used only in Interrupt mode.
 807:C:/Users/Yushev/git/optiga-trust-qi/projects/xmc4700_relax_kit/common/Dave/Generated/I2C_MASTER\i2c_master.h ****  * Transmit should be configured as "Interrupt" mode in advanced settings tab.\n
 808:C:/Users/Yushev/git/optiga-trust-qi/projects/xmc4700_relax_kit/common/Dave/Generated/I2C_MASTER\i2c_master.h ****  * Address(address) should reserve an additional bit at the LSB for read/write indication. For exam
 809:C:/Users/Yushev/git/optiga-trust-qi/projects/xmc4700_relax_kit/common/Dave/Generated/I2C_MASTER\i2c_master.h ****  * be provided as 0x0a. If the address is 10-bit, only most significant bits with the 10-bit identi
 810:C:/Users/Yushev/git/optiga-trust-qi/projects/xmc4700_relax_kit/common/Dave/Generated/I2C_MASTER\i2c_master.h ****  * For example, if the 10-bit address is 0x305, the address should be provided as 0xf6(prepend with
 811:C:/Users/Yushev/git/optiga-trust-qi/projects/xmc4700_relax_kit/common/Dave/Generated/I2C_MASTER\i2c_master.h ****  * followed by 1-bit field for read/write).
 812:C:/Users/Yushev/git/optiga-trust-qi/projects/xmc4700_relax_kit/common/Dave/Generated/I2C_MASTER\i2c_master.h ****  *
 813:C:/Users/Yushev/git/optiga-trust-qi/projects/xmc4700_relax_kit/common/Dave/Generated/I2C_MASTER\i2c_master.h ****  * @code
 814:C:/Users/Yushev/git/optiga-trust-qi/projects/xmc4700_relax_kit/common/Dave/Generated/I2C_MASTER\i2c_master.h ****  *
 815:C:/Users/Yushev/git/optiga-trust-qi/projects/xmc4700_relax_kit/common/Dave/Generated/I2C_MASTER\i2c_master.h ****  *  #include <DAVE.h>
 816:C:/Users/Yushev/git/optiga-trust-qi/projects/xmc4700_relax_kit/common/Dave/Generated/I2C_MASTER\i2c_master.h ****  *  #define SLAVE_ADDRESS 0xA0
 817:C:/Users/Yushev/git/optiga-trust-qi/projects/xmc4700_relax_kit/common/Dave/Generated/I2C_MASTER\i2c_master.h ****  *  uint8_t tx_buffer[64] = {0x01,0x02,0x03,0x04,0x05};
 818:C:/Users/Yushev/git/optiga-trust-qi/projects/xmc4700_relax_kit/common/Dave/Generated/I2C_MASTER\i2c_master.h ****  *  uint8_t mem_address[2];
 819:C:/Users/Yushev/git/optiga-trust-qi/projects/xmc4700_relax_kit/common/Dave/Generated/I2C_MASTER\i2c_master.h ****  *
 820:C:/Users/Yushev/git/optiga-trust-qi/projects/xmc4700_relax_kit/common/Dave/Generated/I2C_MASTER\i2c_master.h ****  *  int main(void)
 821:C:/Users/Yushev/git/optiga-trust-qi/projects/xmc4700_relax_kit/common/Dave/Generated/I2C_MASTER\i2c_master.h ****  *  {
 822:C:/Users/Yushev/git/optiga-trust-qi/projects/xmc4700_relax_kit/common/Dave/Generated/I2C_MASTER\i2c_master.h ****  *    DAVE_STATUS_t init_status;
 823:C:/Users/Yushev/git/optiga-trust-qi/projects/xmc4700_relax_kit/common/Dave/Generated/I2C_MASTER\i2c_master.h ****  *    init_status = DAVE_Init();
 824:C:/Users/Yushev/git/optiga-trust-qi/projects/xmc4700_relax_kit/common/Dave/Generated/I2C_MASTER\i2c_master.h ****  *    if(init_status == DAVE_STATUS_SUCCESS)
 825:C:/Users/Yushev/git/optiga-trust-qi/projects/xmc4700_relax_kit/common/Dave/Generated/I2C_MASTER\i2c_master.h ****  *    {
 826:C:/Users/Yushev/git/optiga-trust-qi/projects/xmc4700_relax_kit/common/Dave/Generated/I2C_MASTER\i2c_master.h ****  *      mem_address[0] = 0x00;//memory which need to be read from slave
 827:C:/Users/Yushev/git/optiga-trust-qi/projects/xmc4700_relax_kit/common/Dave/Generated/I2C_MASTER\i2c_master.h ****  *      //Write data to IO EXPANDER
 828:C:/Users/Yushev/git/optiga-trust-qi/projects/xmc4700_relax_kit/common/Dave/Generated/I2C_MASTER\i2c_master.h ****  *      I2C_MASTER_StartTransmitIRQ(&I2C_MASTER_0,true,SLAVE_ADDRESS,mem_address,1,false);
 829:C:/Users/Yushev/git/optiga-trust-qi/projects/xmc4700_relax_kit/common/Dave/Generated/I2C_MASTER\i2c_master.h ****  *      while(I2C_MASTER_IsTxBusy(&I2C_MASTER_0));
 830:C:/Users/Yushev/git/optiga-trust-qi/projects/xmc4700_relax_kit/common/Dave/Generated/I2C_MASTER\i2c_master.h ****  *
 831:C:/Users/Yushev/git/optiga-trust-qi/projects/xmc4700_relax_kit/common/Dave/Generated/I2C_MASTER\i2c_master.h ****  *      I2C_MASTER_StartTransmitIRQ(&I2C_MASTER_0,false,SLAVE_ADDRESS,tx_buffer,64,true);
 832:C:/Users/Yushev/git/optiga-trust-qi/projects/xmc4700_relax_kit/common/Dave/Generated/I2C_MASTER\i2c_master.h ****  *      while(I2C_MASTER_IsTxBusy(&I2C_MASTER_0));
 833:C:/Users/Yushev/git/optiga-trust-qi/projects/xmc4700_relax_kit/common/Dave/Generated/I2C_MASTER\i2c_master.h ****  *    }
 834:C:/Users/Yushev/git/optiga-trust-qi/projects/xmc4700_relax_kit/common/Dave/Generated/I2C_MASTER\i2c_master.h ****  *    while(1)
 835:C:/Users/Yushev/git/optiga-trust-qi/projects/xmc4700_relax_kit/common/Dave/Generated/I2C_MASTER\i2c_master.h ****  *    { }
 836:C:/Users/Yushev/git/optiga-trust-qi/projects/xmc4700_relax_kit/common/Dave/Generated/I2C_MASTER\i2c_master.h **** 
 837:C:/Users/Yushev/git/optiga-trust-qi/projects/xmc4700_relax_kit/common/Dave/Generated/I2C_MASTER\i2c_master.h ****  *    return 0;
 838:C:/Users/Yushev/git/optiga-trust-qi/projects/xmc4700_relax_kit/common/Dave/Generated/I2C_MASTER\i2c_master.h ****  *  }
 839:C:/Users/Yushev/git/optiga-trust-qi/projects/xmc4700_relax_kit/common/Dave/Generated/I2C_MASTER\i2c_master.h ****  *
 840:C:/Users/Yushev/git/optiga-trust-qi/projects/xmc4700_relax_kit/common/Dave/Generated/I2C_MASTER\i2c_master.h ****  * @endcode<BR> </p>
 841:C:/Users/Yushev/git/optiga-trust-qi/projects/xmc4700_relax_kit/common/Dave/Generated/I2C_MASTER\i2c_master.h ****  *
 842:C:/Users/Yushev/git/optiga-trust-qi/projects/xmc4700_relax_kit/common/Dave/Generated/I2C_MASTER\i2c_master.h ****  */
 843:C:/Users/Yushev/git/optiga-trust-qi/projects/xmc4700_relax_kit/common/Dave/Generated/I2C_MASTER\i2c_master.h **** 
 844:C:/Users/Yushev/git/optiga-trust-qi/projects/xmc4700_relax_kit/common/Dave/Generated/I2C_MASTER\i2c_master.h **** I2C_MASTER_STATUS_t I2C_MASTER_StartTransmitIRQ(I2C_MASTER_t *handle, bool send_start, const uint32
 845:C:/Users/Yushev/git/optiga-trust-qi/projects/xmc4700_relax_kit/common/Dave/Generated/I2C_MASTER\i2c_master.h ****                                                 uint8_t *data, const uint32_t size, bool send_stop)
 846:C:/Users/Yushev/git/optiga-trust-qi/projects/xmc4700_relax_kit/common/Dave/Generated/I2C_MASTER\i2c_master.h **** #endif
 847:C:/Users/Yushev/git/optiga-trust-qi/projects/xmc4700_relax_kit/common/Dave/Generated/I2C_MASTER\i2c_master.h **** #if (I2C_MASTER_INTERRUPT_RX_ENABLED == 1U)
 848:C:/Users/Yushev/git/optiga-trust-qi/projects/xmc4700_relax_kit/common/Dave/Generated/I2C_MASTER\i2c_master.h **** /**
 849:C:/Users/Yushev/git/optiga-trust-qi/projects/xmc4700_relax_kit/common/Dave/Generated/I2C_MASTER\i2c_master.h ****  * @brief Registers a request for receiving data over I2C_MASTER channel.
 850:C:/Users/Yushev/git/optiga-trust-qi/projects/xmc4700_relax_kit/common/Dave/Generated/I2C_MASTER\i2c_master.h ****  *
 851:C:/Users/Yushev/git/optiga-trust-qi/projects/xmc4700_relax_kit/common/Dave/Generated/I2C_MASTER\i2c_master.h ****  *
 852:C:/Users/Yushev/git/optiga-trust-qi/projects/xmc4700_relax_kit/common/Dave/Generated/I2C_MASTER\i2c_master.h ****  * @param  handle  Pointer to I2C_MASTER_t handle structure
 853:C:/Users/Yushev/git/optiga-trust-qi/projects/xmc4700_relax_kit/common/Dave/Generated/I2C_MASTER\i2c_master.h ****  * @param  send_start flag to indicate the start condition
 854:C:/Users/Yushev/git/optiga-trust-qi/projects/xmc4700_relax_kit/common/Dave/Generated/I2C_MASTER\i2c_master.h ****  * @param  address slave address
 855:C:/Users/Yushev/git/optiga-trust-qi/projects/xmc4700_relax_kit/common/Dave/Generated/I2C_MASTER\i2c_master.h ****  * @param  data    pointer to buffer
 856:C:/Users/Yushev/git/optiga-trust-qi/projects/xmc4700_relax_kit/common/Dave/Generated/I2C_MASTER\i2c_master.h ****  * @param  count    number of bytes
 857:C:/Users/Yushev/git/optiga-trust-qi/projects/xmc4700_relax_kit/common/Dave/Generated/I2C_MASTER\i2c_master.h ****  * @param  send_stop flag to indicate the stop condition
 858:C:/Users/Yushev/git/optiga-trust-qi/projects/xmc4700_relax_kit/common/Dave/Generated/I2C_MASTER\i2c_master.h ****  * @param  send_nack flag to indicate the nack condition\n
 859:C:/Users/Yushev/git/optiga-trust-qi/projects/xmc4700_relax_kit/common/Dave/Generated/I2C_MASTER\i2c_master.h ****  * \b Range: minimum= 1, maximum= maximum value supported by type uint32_t.
 860:C:/Users/Yushev/git/optiga-trust-qi/projects/xmc4700_relax_kit/common/Dave/Generated/I2C_MASTER\i2c_master.h ****  *
 861:C:/Users/Yushev/git/optiga-trust-qi/projects/xmc4700_relax_kit/common/Dave/Generated/I2C_MASTER\i2c_master.h ****  * @return  I2C_MASTER_STATUS_t: Status for receive request.\n
 862:C:/Users/Yushev/git/optiga-trust-qi/projects/xmc4700_relax_kit/common/Dave/Generated/I2C_MASTER\i2c_master.h ****  *                        @ref I2C_MASTER_STATUS_SUCCESS if the request is accepted.\n
 863:C:/Users/Yushev/git/optiga-trust-qi/projects/xmc4700_relax_kit/common/Dave/Generated/I2C_MASTER\i2c_master.h ****  *                        @ref I2C_MASTER_STATUS_BUSY if a reception is in progress.\n
 864:C:/Users/Yushev/git/optiga-trust-qi/projects/xmc4700_relax_kit/common/Dave/Generated/I2C_MASTER\i2c_master.h ****  *
 865:C:/Users/Yushev/git/optiga-trust-qi/projects/xmc4700_relax_kit/common/Dave/Generated/I2C_MASTER\i2c_master.h ****  *
 866:C:/Users/Yushev/git/optiga-trust-qi/projects/xmc4700_relax_kit/common/Dave/Generated/I2C_MASTER\i2c_master.h ****  * \par<b>Description:</b><br>
 867:C:/Users/Yushev/git/optiga-trust-qi/projects/xmc4700_relax_kit/common/Dave/Generated/I2C_MASTER\i2c_master.h ****  * Data will be received asynchronously. When the requested number of data bytes are received, opti
 868:C:/Users/Yushev/git/optiga-trust-qi/projects/xmc4700_relax_kit/common/Dave/Generated/I2C_MASTER\i2c_master.h ****  * configured callback function will be executed. Based on the UI configuration, either standard re
 869:C:/Users/Yushev/git/optiga-trust-qi/projects/xmc4700_relax_kit/common/Dave/Generated/I2C_MASTER\i2c_master.h ****  * receive FIFO is used for data reception. An interrupt is configured for reading received data fr
 870:C:/Users/Yushev/git/optiga-trust-qi/projects/xmc4700_relax_kit/common/Dave/Generated/I2C_MASTER\i2c_master.h ****  * function only registers a request to receive a number of data bytes from a USIC channel. If FIFO
 871:C:/Users/Yushev/git/optiga-trust-qi/projects/xmc4700_relax_kit/common/Dave/Generated/I2C_MASTER\i2c_master.h ****  * reception, the FIFO limit is dynamically configured to optimally utilize the CPU load.  When all
 872:C:/Users/Yushev/git/optiga-trust-qi/projects/xmc4700_relax_kit/common/Dave/Generated/I2C_MASTER\i2c_master.h ****  * of data bytes are received, the configured callback function will be executed. If a callback fun
 873:C:/Users/Yushev/git/optiga-trust-qi/projects/xmc4700_relax_kit/common/Dave/Generated/I2C_MASTER\i2c_master.h ****  * configured, the user has to poll for the value of the variable, \a handle->runtime->rx_busy to b
 874:C:/Users/Yushev/git/optiga-trust-qi/projects/xmc4700_relax_kit/common/Dave/Generated/I2C_MASTER\i2c_master.h ****  * is updated to \a false when all the requested number of data bytes are received.<br>
 875:C:/Users/Yushev/git/optiga-trust-qi/projects/xmc4700_relax_kit/common/Dave/Generated/I2C_MASTER\i2c_master.h ****  * \par<b>NOTE: </b><br>: I2C_MASTER_StartReceiveIRQ API can be used only in Interrupt mode.
 876:C:/Users/Yushev/git/optiga-trust-qi/projects/xmc4700_relax_kit/common/Dave/Generated/I2C_MASTER\i2c_master.h ****  * Receive should be configured as "Interrupt" mode in advanced settings tab.\n
 877:C:/Users/Yushev/git/optiga-trust-qi/projects/xmc4700_relax_kit/common/Dave/Generated/I2C_MASTER\i2c_master.h ****  * Address(address) should reserve an additional bit at the LSB for read/write indication. For exam
 878:C:/Users/Yushev/git/optiga-trust-qi/projects/xmc4700_relax_kit/common/Dave/Generated/I2C_MASTER\i2c_master.h ****  * be provided as 0x0a. If the address is 10-bit, only most significant bits with the 10-bit identi
 879:C:/Users/Yushev/git/optiga-trust-qi/projects/xmc4700_relax_kit/common/Dave/Generated/I2C_MASTER\i2c_master.h ****  * For example, if the 10-bit address is 0x305, the address should be provided as 0xf6(prepend with
 880:C:/Users/Yushev/git/optiga-trust-qi/projects/xmc4700_relax_kit/common/Dave/Generated/I2C_MASTER\i2c_master.h ****  * followed by 1-bit field for read/write).
 881:C:/Users/Yushev/git/optiga-trust-qi/projects/xmc4700_relax_kit/common/Dave/Generated/I2C_MASTER\i2c_master.h ****  *
 882:C:/Users/Yushev/git/optiga-trust-qi/projects/xmc4700_relax_kit/common/Dave/Generated/I2C_MASTER\i2c_master.h ****  * @code
 883:C:/Users/Yushev/git/optiga-trust-qi/projects/xmc4700_relax_kit/common/Dave/Generated/I2C_MASTER\i2c_master.h ****  *
 884:C:/Users/Yushev/git/optiga-trust-qi/projects/xmc4700_relax_kit/common/Dave/Generated/I2C_MASTER\i2c_master.h ****  *  #include <DAVE.h>
 885:C:/Users/Yushev/git/optiga-trust-qi/projects/xmc4700_relax_kit/common/Dave/Generated/I2C_MASTER\i2c_master.h ****  *  #define SLAVE_ADDRESS 0xA0
 886:C:/Users/Yushev/git/optiga-trust-qi/projects/xmc4700_relax_kit/common/Dave/Generated/I2C_MASTER\i2c_master.h ****  *  uint8_t rx_buffer[64];
 887:C:/Users/Yushev/git/optiga-trust-qi/projects/xmc4700_relax_kit/common/Dave/Generated/I2C_MASTER\i2c_master.h ****  *  uint8_t mem_address[2];
 888:C:/Users/Yushev/git/optiga-trust-qi/projects/xmc4700_relax_kit/common/Dave/Generated/I2C_MASTER\i2c_master.h ****  *
 889:C:/Users/Yushev/git/optiga-trust-qi/projects/xmc4700_relax_kit/common/Dave/Generated/I2C_MASTER\i2c_master.h ****  *  int main(void)
 890:C:/Users/Yushev/git/optiga-trust-qi/projects/xmc4700_relax_kit/common/Dave/Generated/I2C_MASTER\i2c_master.h ****  *  {
 891:C:/Users/Yushev/git/optiga-trust-qi/projects/xmc4700_relax_kit/common/Dave/Generated/I2C_MASTER\i2c_master.h ****  *    DAVE_STATUS_t init_status;
 892:C:/Users/Yushev/git/optiga-trust-qi/projects/xmc4700_relax_kit/common/Dave/Generated/I2C_MASTER\i2c_master.h ****  *    init_status = DAVE_Init();
 893:C:/Users/Yushev/git/optiga-trust-qi/projects/xmc4700_relax_kit/common/Dave/Generated/I2C_MASTER\i2c_master.h ****  *    if(init_status == DAVE_STATUS_SUCCESS)
 894:C:/Users/Yushev/git/optiga-trust-qi/projects/xmc4700_relax_kit/common/Dave/Generated/I2C_MASTER\i2c_master.h ****  *    {
 895:C:/Users/Yushev/git/optiga-trust-qi/projects/xmc4700_relax_kit/common/Dave/Generated/I2C_MASTER\i2c_master.h ****  *      mem_address[0] = 0x00;//memory which need to be read from slave
 896:C:/Users/Yushev/git/optiga-trust-qi/projects/xmc4700_relax_kit/common/Dave/Generated/I2C_MASTER\i2c_master.h ****  *     //Write data to IO EXPANDER
 897:C:/Users/Yushev/git/optiga-trust-qi/projects/xmc4700_relax_kit/common/Dave/Generated/I2C_MASTER\i2c_master.h ****  *     I2C_MASTER_StartTransmitIRQ(&I2C_MASTER_0,true,SLAVE_ADDRESS,mem_address,1,false);
 898:C:/Users/Yushev/git/optiga-trust-qi/projects/xmc4700_relax_kit/common/Dave/Generated/I2C_MASTER\i2c_master.h ****  *     while(I2C_MASTER_IsTxBusy(&I2C_MASTER_0));
 899:C:/Users/Yushev/git/optiga-trust-qi/projects/xmc4700_relax_kit/common/Dave/Generated/I2C_MASTER\i2c_master.h ****  *
 900:C:/Users/Yushev/git/optiga-trust-qi/projects/xmc4700_relax_kit/common/Dave/Generated/I2C_MASTER\i2c_master.h ****  *     I2C_MASTER_StartReceiveIRQ(&I2C_MASTER_0,true,SLAVE_ADDRESS,rx_buffer,64,true, true);
 901:C:/Users/Yushev/git/optiga-trust-qi/projects/xmc4700_relax_kit/common/Dave/Generated/I2C_MASTER\i2c_master.h ****  *     while(I2C_MASTER_IsRxBusy(&I2C_MASTER_0));
 902:C:/Users/Yushev/git/optiga-trust-qi/projects/xmc4700_relax_kit/common/Dave/Generated/I2C_MASTER\i2c_master.h ****  *    }
 903:C:/Users/Yushev/git/optiga-trust-qi/projects/xmc4700_relax_kit/common/Dave/Generated/I2C_MASTER\i2c_master.h ****  *    while(1)
 904:C:/Users/Yushev/git/optiga-trust-qi/projects/xmc4700_relax_kit/common/Dave/Generated/I2C_MASTER\i2c_master.h ****  *    { }
 905:C:/Users/Yushev/git/optiga-trust-qi/projects/xmc4700_relax_kit/common/Dave/Generated/I2C_MASTER\i2c_master.h ****  *    return 0;
 906:C:/Users/Yushev/git/optiga-trust-qi/projects/xmc4700_relax_kit/common/Dave/Generated/I2C_MASTER\i2c_master.h ****  *  }
 907:C:/Users/Yushev/git/optiga-trust-qi/projects/xmc4700_relax_kit/common/Dave/Generated/I2C_MASTER\i2c_master.h ****  *
 908:C:/Users/Yushev/git/optiga-trust-qi/projects/xmc4700_relax_kit/common/Dave/Generated/I2C_MASTER\i2c_master.h ****  * @endcode<BR> </p>
 909:C:/Users/Yushev/git/optiga-trust-qi/projects/xmc4700_relax_kit/common/Dave/Generated/I2C_MASTER\i2c_master.h ****  *
 910:C:/Users/Yushev/git/optiga-trust-qi/projects/xmc4700_relax_kit/common/Dave/Generated/I2C_MASTER\i2c_master.h ****  */
 911:C:/Users/Yushev/git/optiga-trust-qi/projects/xmc4700_relax_kit/common/Dave/Generated/I2C_MASTER\i2c_master.h ****  I2C_MASTER_STATUS_t I2C_MASTER_StartReceiveIRQ(I2C_MASTER_t *handle, bool send_start, const uint32
 912:C:/Users/Yushev/git/optiga-trust-qi/projects/xmc4700_relax_kit/common/Dave/Generated/I2C_MASTER\i2c_master.h ****                                                uint8_t * data, const uint32_t count, bool send_stop
 913:C:/Users/Yushev/git/optiga-trust-qi/projects/xmc4700_relax_kit/common/Dave/Generated/I2C_MASTER\i2c_master.h **** #endif
 914:C:/Users/Yushev/git/optiga-trust-qi/projects/xmc4700_relax_kit/common/Dave/Generated/I2C_MASTER\i2c_master.h **** 
 915:C:/Users/Yushev/git/optiga-trust-qi/projects/xmc4700_relax_kit/common/Dave/Generated/I2C_MASTER\i2c_master.h **** 
 916:C:/Users/Yushev/git/optiga-trust-qi/projects/xmc4700_relax_kit/common/Dave/Generated/I2C_MASTER\i2c_master.h **** /**
 917:C:/Users/Yushev/git/optiga-trust-qi/projects/xmc4700_relax_kit/common/Dave/Generated/I2C_MASTER\i2c_master.h ****  * @brief Gets the transmit FIFO event flags.
 918:C:/Users/Yushev/git/optiga-trust-qi/projects/xmc4700_relax_kit/common/Dave/Generated/I2C_MASTER\i2c_master.h ****  *
 919:C:/Users/Yushev/git/optiga-trust-qi/projects/xmc4700_relax_kit/common/Dave/Generated/I2C_MASTER\i2c_master.h ****  * @param  handle I2C_MASTER APP handle pointer of type @ref I2C_MASTER_t
 920:C:/Users/Yushev/git/optiga-trust-qi/projects/xmc4700_relax_kit/common/Dave/Generated/I2C_MASTER\i2c_master.h ****  *
 921:C:/Users/Yushev/git/optiga-trust-qi/projects/xmc4700_relax_kit/common/Dave/Generated/I2C_MASTER\i2c_master.h ****  * @return uint32_t: Status of the STBI and TBERI bits in TRBSR register in
 922:C:/Users/Yushev/git/optiga-trust-qi/projects/xmc4700_relax_kit/common/Dave/Generated/I2C_MASTER\i2c_master.h ****  *                      their bit positions.\n
 923:C:/Users/Yushev/git/optiga-trust-qi/projects/xmc4700_relax_kit/common/Dave/Generated/I2C_MASTER\i2c_master.h ****  *                      \b Range: Use type @ref XMC_USIC_CH_TXFIFO_EVENT_t for the bitmask of event
 924:C:/Users/Yushev/git/optiga-trust-qi/projects/xmc4700_relax_kit/common/Dave/Generated/I2C_MASTER\i2c_master.h ****  *
 925:C:/Users/Yushev/git/optiga-trust-qi/projects/xmc4700_relax_kit/common/Dave/Generated/I2C_MASTER\i2c_master.h ****  * \par<b>Description:</b><br>
 926:C:/Users/Yushev/git/optiga-trust-qi/projects/xmc4700_relax_kit/common/Dave/Generated/I2C_MASTER\i2c_master.h ****  * Function reads the value of TRBSR register. It masks the standard transmit buffer interrupt flag
 927:C:/Users/Yushev/git/optiga-trust-qi/projects/xmc4700_relax_kit/common/Dave/Generated/I2C_MASTER\i2c_master.h ****  * buffer error flag before providing the value.
 928:C:/Users/Yushev/git/optiga-trust-qi/projects/xmc4700_relax_kit/common/Dave/Generated/I2C_MASTER\i2c_master.h ****  * User has to mask the bits of interest before checking the status.
 929:C:/Users/Yushev/git/optiga-trust-qi/projects/xmc4700_relax_kit/common/Dave/Generated/I2C_MASTER\i2c_master.h ****  * \par<b>NOTE: </b><br>: Enable transmit fifo in Advanced settings tab. <br>
 930:C:/Users/Yushev/git/optiga-trust-qi/projects/xmc4700_relax_kit/common/Dave/Generated/I2C_MASTER\i2c_master.h ****  * Example Usage:
 931:C:/Users/Yushev/git/optiga-trust-qi/projects/xmc4700_relax_kit/common/Dave/Generated/I2C_MASTER\i2c_master.h ****  *
 932:C:/Users/Yushev/git/optiga-trust-qi/projects/xmc4700_relax_kit/common/Dave/Generated/I2C_MASTER\i2c_master.h ****  * @code
 933:C:/Users/Yushev/git/optiga-trust-qi/projects/xmc4700_relax_kit/common/Dave/Generated/I2C_MASTER\i2c_master.h ****  *
 934:C:/Users/Yushev/git/optiga-trust-qi/projects/xmc4700_relax_kit/common/Dave/Generated/I2C_MASTER\i2c_master.h ****  *  #include <DAVE.h>         //Declarations from DAVE Code Generation (includes SFR declaration)
 935:C:/Users/Yushev/git/optiga-trust-qi/projects/xmc4700_relax_kit/common/Dave/Generated/I2C_MASTER\i2c_master.h ****  *  #define SLAVE_ADDRESS 0xA0
 936:C:/Users/Yushev/git/optiga-trust-qi/projects/xmc4700_relax_kit/common/Dave/Generated/I2C_MASTER\i2c_master.h ****  *  uint8_t mem_address[2];
 937:C:/Users/Yushev/git/optiga-trust-qi/projects/xmc4700_relax_kit/common/Dave/Generated/I2C_MASTER\i2c_master.h ****  *  int main(void)
 938:C:/Users/Yushev/git/optiga-trust-qi/projects/xmc4700_relax_kit/common/Dave/Generated/I2C_MASTER\i2c_master.h ****  *  {
 939:C:/Users/Yushev/git/optiga-trust-qi/projects/xmc4700_relax_kit/common/Dave/Generated/I2C_MASTER\i2c_master.h ****  *    DAVE_STATUS_t init_status;
 940:C:/Users/Yushev/git/optiga-trust-qi/projects/xmc4700_relax_kit/common/Dave/Generated/I2C_MASTER\i2c_master.h ****  *    init_status = DAVE_Init();
 941:C:/Users/Yushev/git/optiga-trust-qi/projects/xmc4700_relax_kit/common/Dave/Generated/I2C_MASTER\i2c_master.h ****  *    if(init_status == DAVE_STATUS_SUCCESS)
 942:C:/Users/Yushev/git/optiga-trust-qi/projects/xmc4700_relax_kit/common/Dave/Generated/I2C_MASTER\i2c_master.h ****  *    {
 943:C:/Users/Yushev/git/optiga-trust-qi/projects/xmc4700_relax_kit/common/Dave/Generated/I2C_MASTER\i2c_master.h ****  *      mem_address[0] = 0x00;//memory which need to be read from slave
 944:C:/Users/Yushev/git/optiga-trust-qi/projects/xmc4700_relax_kit/common/Dave/Generated/I2C_MASTER\i2c_master.h ****  *      //Configure transmit fifo trigger limit as 10
 945:C:/Users/Yushev/git/optiga-trust-qi/projects/xmc4700_relax_kit/common/Dave/Generated/I2C_MASTER\i2c_master.h ****  *      I2C_MASTER_SetTXFIFOTriggerLimit(&I2C_MASTER_0, 16, 10);
 946:C:/Users/Yushev/git/optiga-trust-qi/projects/xmc4700_relax_kit/common/Dave/Generated/I2C_MASTER\i2c_master.h ****  *      I2C_MASTER_StartTransmitIRQ(&I2C_MASTER_0,true,SLAVE_ADDRESS,mem_address,1,false);
 947:C:/Users/Yushev/git/optiga-trust-qi/projects/xmc4700_relax_kit/common/Dave/Generated/I2C_MASTER\i2c_master.h ****  *      while(I2C_MASTER_IsTxBusy(&I2C_MASTER_0));
 948:C:/Users/Yushev/git/optiga-trust-qi/projects/xmc4700_relax_kit/common/Dave/Generated/I2C_MASTER\i2c_master.h ****  *      I2C_MASTER_StartTransmitIRQ(&I2C_MASTER_0,true,SLAVE_ADDRESS,mem_address,16,false);
 949:C:/Users/Yushev/git/optiga-trust-qi/projects/xmc4700_relax_kit/common/Dave/Generated/I2C_MASTER\i2c_master.h ****  *      //Wait for FIFO transmit standard buffer interrupt to fill it again with remaining data
 950:C:/Users/Yushev/git/optiga-trust-qi/projects/xmc4700_relax_kit/common/Dave/Generated/I2C_MASTER\i2c_master.h ****  *      while((I2C_MASTER_GetTXFIFOStatus(&I2C_MASTER_0) & XMC_USIC_CH_TXFIFO_EVENT_STANDARD) == 0)
 951:C:/Users/Yushev/git/optiga-trust-qi/projects/xmc4700_relax_kit/common/Dave/Generated/I2C_MASTER\i2c_master.h ****  *      I2C_MASTER_ClearTXFIFOStatus(&I2C_MASTER_0, XMC_USIC_CH_TXFIFO_EVENT_STANDARD);
 952:C:/Users/Yushev/git/optiga-trust-qi/projects/xmc4700_relax_kit/common/Dave/Generated/I2C_MASTER\i2c_master.h ****  *      I2C_MASTER_StartTransmitIRQ(&I2C_MASTER_0,true,SLAVE_ADDRESS,mem_address,6,false);
 953:C:/Users/Yushev/git/optiga-trust-qi/projects/xmc4700_relax_kit/common/Dave/Generated/I2C_MASTER\i2c_master.h ****  *    }
 954:C:/Users/Yushev/git/optiga-trust-qi/projects/xmc4700_relax_kit/common/Dave/Generated/I2C_MASTER\i2c_master.h ****  *    else
 955:C:/Users/Yushev/git/optiga-trust-qi/projects/xmc4700_relax_kit/common/Dave/Generated/I2C_MASTER\i2c_master.h ****  *    {
 956:C:/Users/Yushev/git/optiga-trust-qi/projects/xmc4700_relax_kit/common/Dave/Generated/I2C_MASTER\i2c_master.h ****  *      XMC_DEBUG("main: Application initialization failed");
 957:C:/Users/Yushev/git/optiga-trust-qi/projects/xmc4700_relax_kit/common/Dave/Generated/I2C_MASTER\i2c_master.h ****  *      while(1U)
 958:C:/Users/Yushev/git/optiga-trust-qi/projects/xmc4700_relax_kit/common/Dave/Generated/I2C_MASTER\i2c_master.h ****  *      {
 959:C:/Users/Yushev/git/optiga-trust-qi/projects/xmc4700_relax_kit/common/Dave/Generated/I2C_MASTER\i2c_master.h ****  *      }
 960:C:/Users/Yushev/git/optiga-trust-qi/projects/xmc4700_relax_kit/common/Dave/Generated/I2C_MASTER\i2c_master.h ****  *    }
 961:C:/Users/Yushev/git/optiga-trust-qi/projects/xmc4700_relax_kit/common/Dave/Generated/I2C_MASTER\i2c_master.h ****  *    return 1U;
 962:C:/Users/Yushev/git/optiga-trust-qi/projects/xmc4700_relax_kit/common/Dave/Generated/I2C_MASTER\i2c_master.h ****  *  }
 963:C:/Users/Yushev/git/optiga-trust-qi/projects/xmc4700_relax_kit/common/Dave/Generated/I2C_MASTER\i2c_master.h ****  * @endcode
 964:C:/Users/Yushev/git/optiga-trust-qi/projects/xmc4700_relax_kit/common/Dave/Generated/I2C_MASTER\i2c_master.h ****  *
 965:C:/Users/Yushev/git/optiga-trust-qi/projects/xmc4700_relax_kit/common/Dave/Generated/I2C_MASTER\i2c_master.h ****  */
 966:C:/Users/Yushev/git/optiga-trust-qi/projects/xmc4700_relax_kit/common/Dave/Generated/I2C_MASTER\i2c_master.h **** __STATIC_INLINE uint32_t I2C_MASTER_GetTXFIFOStatus(const I2C_MASTER_t* const handle)
 967:C:/Users/Yushev/git/optiga-trust-qi/projects/xmc4700_relax_kit/common/Dave/Generated/I2C_MASTER\i2c_master.h **** {
 968:C:/Users/Yushev/git/optiga-trust-qi/projects/xmc4700_relax_kit/common/Dave/Generated/I2C_MASTER\i2c_master.h ****   XMC_ASSERT("I2C_MASTER_GetTXFIFOStatus: invalid handle", (handle != NULL))
 969:C:/Users/Yushev/git/optiga-trust-qi/projects/xmc4700_relax_kit/common/Dave/Generated/I2C_MASTER\i2c_master.h ****   return XMC_USIC_CH_TXFIFO_GetEvent(handle->channel);
 970:C:/Users/Yushev/git/optiga-trust-qi/projects/xmc4700_relax_kit/common/Dave/Generated/I2C_MASTER\i2c_master.h **** }
 971:C:/Users/Yushev/git/optiga-trust-qi/projects/xmc4700_relax_kit/common/Dave/Generated/I2C_MASTER\i2c_master.h **** 
 972:C:/Users/Yushev/git/optiga-trust-qi/projects/xmc4700_relax_kit/common/Dave/Generated/I2C_MASTER\i2c_master.h **** /**
 973:C:/Users/Yushev/git/optiga-trust-qi/projects/xmc4700_relax_kit/common/Dave/Generated/I2C_MASTER\i2c_master.h ****  * @brief Configures trigger limit for the transmit FIFO.
 974:C:/Users/Yushev/git/optiga-trust-qi/projects/xmc4700_relax_kit/common/Dave/Generated/I2C_MASTER\i2c_master.h ****  *
 975:C:/Users/Yushev/git/optiga-trust-qi/projects/xmc4700_relax_kit/common/Dave/Generated/I2C_MASTER\i2c_master.h ****  * @param  handle I2C_MASTER APP handle pointer of type @ref I2C_MASTER_t
 976:C:/Users/Yushev/git/optiga-trust-qi/projects/xmc4700_relax_kit/common/Dave/Generated/I2C_MASTER\i2c_master.h ****  * @param  size   FIFO size
 977:C:/Users/Yushev/git/optiga-trust-qi/projects/xmc4700_relax_kit/common/Dave/Generated/I2C_MASTER\i2c_master.h ****  * @param  limit Value of transmit FIFO filling level, transition below which the interrupt should 
 978:C:/Users/Yushev/git/optiga-trust-qi/projects/xmc4700_relax_kit/common/Dave/Generated/I2C_MASTER\i2c_master.h ****  *               \bRange: 0 to transmit FIFO size.\n
 979:C:/Users/Yushev/git/optiga-trust-qi/projects/xmc4700_relax_kit/common/Dave/Generated/I2C_MASTER\i2c_master.h ****  *               e.g, If transmit FIFO size is 16, and limit is configured as 8, FIFO standard tran
 980:C:/Users/Yushev/git/optiga-trust-qi/projects/xmc4700_relax_kit/common/Dave/Generated/I2C_MASTER\i2c_master.h ****  *               will be generated when the FIFO filling level drops from 8 to 7.\n
 981:C:/Users/Yushev/git/optiga-trust-qi/projects/xmc4700_relax_kit/common/Dave/Generated/I2C_MASTER\i2c_master.h ****  *
 982:C:/Users/Yushev/git/optiga-trust-qi/projects/xmc4700_relax_kit/common/Dave/Generated/I2C_MASTER\i2c_master.h ****  * @return None\n
 983:C:/Users/Yushev/git/optiga-trust-qi/projects/xmc4700_relax_kit/common/Dave/Generated/I2C_MASTER\i2c_master.h ****  *
 984:C:/Users/Yushev/git/optiga-trust-qi/projects/xmc4700_relax_kit/common/Dave/Generated/I2C_MASTER\i2c_master.h ****  * \par<b>Description:</b><br>
 985:C:/Users/Yushev/git/optiga-trust-qi/projects/xmc4700_relax_kit/common/Dave/Generated/I2C_MASTER\i2c_master.h ****  * Transmit FIFO trigger limit is configured by setting its value in the TBCTR register.
 986:C:/Users/Yushev/git/optiga-trust-qi/projects/xmc4700_relax_kit/common/Dave/Generated/I2C_MASTER\i2c_master.h ****  * Transmit FIFO is configured to generate interrupt when the FIFO filling level drops
 987:C:/Users/Yushev/git/optiga-trust-qi/projects/xmc4700_relax_kit/common/Dave/Generated/I2C_MASTER\i2c_master.h ****  * below the trigger limit.
 988:C:/Users/Yushev/git/optiga-trust-qi/projects/xmc4700_relax_kit/common/Dave/Generated/I2C_MASTER\i2c_master.h ****  *
 989:C:/Users/Yushev/git/optiga-trust-qi/projects/xmc4700_relax_kit/common/Dave/Generated/I2C_MASTER\i2c_master.h ****  * Example Usage:
 990:C:/Users/Yushev/git/optiga-trust-qi/projects/xmc4700_relax_kit/common/Dave/Generated/I2C_MASTER\i2c_master.h ****  * @code
 991:C:/Users/Yushev/git/optiga-trust-qi/projects/xmc4700_relax_kit/common/Dave/Generated/I2C_MASTER\i2c_master.h ****  *
 992:C:/Users/Yushev/git/optiga-trust-qi/projects/xmc4700_relax_kit/common/Dave/Generated/I2C_MASTER\i2c_master.h ****  *  #include <DAVE.h>         //Declarations from DAVE Code Generation (includes SFR declaration)
 993:C:/Users/Yushev/git/optiga-trust-qi/projects/xmc4700_relax_kit/common/Dave/Generated/I2C_MASTER\i2c_master.h ****  *
 994:C:/Users/Yushev/git/optiga-trust-qi/projects/xmc4700_relax_kit/common/Dave/Generated/I2C_MASTER\i2c_master.h ****  *  #define SLAVE_ADDRESS 0xA0
 995:C:/Users/Yushev/git/optiga-trust-qi/projects/xmc4700_relax_kit/common/Dave/Generated/I2C_MASTER\i2c_master.h ****  *  uint8_t Send_Data[] = "Infineon Technologies";
 996:C:/Users/Yushev/git/optiga-trust-qi/projects/xmc4700_relax_kit/common/Dave/Generated/I2C_MASTER\i2c_master.h ****  *  int main(void)
 997:C:/Users/Yushev/git/optiga-trust-qi/projects/xmc4700_relax_kit/common/Dave/Generated/I2C_MASTER\i2c_master.h ****  *  {
 998:C:/Users/Yushev/git/optiga-trust-qi/projects/xmc4700_relax_kit/common/Dave/Generated/I2C_MASTER\i2c_master.h ****  *    DAVE_STATUS_t init_status;
 999:C:/Users/Yushev/git/optiga-trust-qi/projects/xmc4700_relax_kit/common/Dave/Generated/I2C_MASTER\i2c_master.h ****  *
1000:C:/Users/Yushev/git/optiga-trust-qi/projects/xmc4700_relax_kit/common/Dave/Generated/I2C_MASTER\i2c_master.h ****  *    init_status = DAVE_Init();
1001:C:/Users/Yushev/git/optiga-trust-qi/projects/xmc4700_relax_kit/common/Dave/Generated/I2C_MASTER\i2c_master.h ****  *    if(init_status == DAVE_STATUS_SUCCESS)
1002:C:/Users/Yushev/git/optiga-trust-qi/projects/xmc4700_relax_kit/common/Dave/Generated/I2C_MASTER\i2c_master.h ****  *    {
1003:C:/Users/Yushev/git/optiga-trust-qi/projects/xmc4700_relax_kit/common/Dave/Generated/I2C_MASTER\i2c_master.h ****  *      //Configure transmit fifo trigger limit, draining level as 10
1004:C:/Users/Yushev/git/optiga-trust-qi/projects/xmc4700_relax_kit/common/Dave/Generated/I2C_MASTER\i2c_master.h ****  *      I2C_MASTER_SetTXFIFOTriggerLimit(&I2C_MASTER_0, 16, 10);
1005:C:/Users/Yushev/git/optiga-trust-qi/projects/xmc4700_relax_kit/common/Dave/Generated/I2C_MASTER\i2c_master.h ****  *      // Execution will happen two times in the interrupt handler as the limit is set to 10
1006:C:/Users/Yushev/git/optiga-trust-qi/projects/xmc4700_relax_kit/common/Dave/Generated/I2C_MASTER\i2c_master.h ****  *      I2C_MASTER_Transmit(&I2C_MASTER_0, true, SLAVE_ADDRESS, Send_Data, 16, true);
1007:C:/Users/Yushev/git/optiga-trust-qi/projects/xmc4700_relax_kit/common/Dave/Generated/I2C_MASTER\i2c_master.h ****  *      while(I2C_MASTER_IsTxBusy(&I2C_MASTER_0));
1008:C:/Users/Yushev/git/optiga-trust-qi/projects/xmc4700_relax_kit/common/Dave/Generated/I2C_MASTER\i2c_master.h ****  *    }
1009:C:/Users/Yushev/git/optiga-trust-qi/projects/xmc4700_relax_kit/common/Dave/Generated/I2C_MASTER\i2c_master.h ****  *    else
1010:C:/Users/Yushev/git/optiga-trust-qi/projects/xmc4700_relax_kit/common/Dave/Generated/I2C_MASTER\i2c_master.h ****  *    {
1011:C:/Users/Yushev/git/optiga-trust-qi/projects/xmc4700_relax_kit/common/Dave/Generated/I2C_MASTER\i2c_master.h ****  *      XMC_DEBUG("main: Application initialization failed");
1012:C:/Users/Yushev/git/optiga-trust-qi/projects/xmc4700_relax_kit/common/Dave/Generated/I2C_MASTER\i2c_master.h ****  *      while(1U)
1013:C:/Users/Yushev/git/optiga-trust-qi/projects/xmc4700_relax_kit/common/Dave/Generated/I2C_MASTER\i2c_master.h ****  *      {
1014:C:/Users/Yushev/git/optiga-trust-qi/projects/xmc4700_relax_kit/common/Dave/Generated/I2C_MASTER\i2c_master.h ****  *      }
1015:C:/Users/Yushev/git/optiga-trust-qi/projects/xmc4700_relax_kit/common/Dave/Generated/I2C_MASTER\i2c_master.h ****  *    }
1016:C:/Users/Yushev/git/optiga-trust-qi/projects/xmc4700_relax_kit/common/Dave/Generated/I2C_MASTER\i2c_master.h ****  *    return 1U;
1017:C:/Users/Yushev/git/optiga-trust-qi/projects/xmc4700_relax_kit/common/Dave/Generated/I2C_MASTER\i2c_master.h ****  *  }
1018:C:/Users/Yushev/git/optiga-trust-qi/projects/xmc4700_relax_kit/common/Dave/Generated/I2C_MASTER\i2c_master.h ****  *
1019:C:/Users/Yushev/git/optiga-trust-qi/projects/xmc4700_relax_kit/common/Dave/Generated/I2C_MASTER\i2c_master.h ****  * @endcode
1020:C:/Users/Yushev/git/optiga-trust-qi/projects/xmc4700_relax_kit/common/Dave/Generated/I2C_MASTER\i2c_master.h ****  */
1021:C:/Users/Yushev/git/optiga-trust-qi/projects/xmc4700_relax_kit/common/Dave/Generated/I2C_MASTER\i2c_master.h **** __STATIC_INLINE void I2C_MASTER_SetTXFIFOTriggerLimit(I2C_MASTER_t * const handle, const uint32_t s
1022:C:/Users/Yushev/git/optiga-trust-qi/projects/xmc4700_relax_kit/common/Dave/Generated/I2C_MASTER\i2c_master.h **** 		                                              const uint32_t limit)
1023:C:/Users/Yushev/git/optiga-trust-qi/projects/xmc4700_relax_kit/common/Dave/Generated/I2C_MASTER\i2c_master.h **** {
1024:C:/Users/Yushev/git/optiga-trust-qi/projects/xmc4700_relax_kit/common/Dave/Generated/I2C_MASTER\i2c_master.h ****   XMC_ASSERT("I2C_MASTER_SetTXFIFOTriggerLimit: invalid handle", (handle != NULL))
1025:C:/Users/Yushev/git/optiga-trust-qi/projects/xmc4700_relax_kit/common/Dave/Generated/I2C_MASTER\i2c_master.h ****   XMC_USIC_CH_TXFIFO_SetSizeTriggerLimit(handle->channel, (XMC_USIC_CH_FIFO_SIZE_t)size, limit);
1026:C:/Users/Yushev/git/optiga-trust-qi/projects/xmc4700_relax_kit/common/Dave/Generated/I2C_MASTER\i2c_master.h **** }
1027:C:/Users/Yushev/git/optiga-trust-qi/projects/xmc4700_relax_kit/common/Dave/Generated/I2C_MASTER\i2c_master.h **** /**
1028:C:/Users/Yushev/git/optiga-trust-qi/projects/xmc4700_relax_kit/common/Dave/Generated/I2C_MASTER\i2c_master.h ****  * @brief Configures trigger limit for the receive FIFO.
1029:C:/Users/Yushev/git/optiga-trust-qi/projects/xmc4700_relax_kit/common/Dave/Generated/I2C_MASTER\i2c_master.h ****  *
1030:C:/Users/Yushev/git/optiga-trust-qi/projects/xmc4700_relax_kit/common/Dave/Generated/I2C_MASTER\i2c_master.h ****  * @param  handle I2C_MASTER APP handle pointer of type @ref I2C_MASTER_t
1031:C:/Users/Yushev/git/optiga-trust-qi/projects/xmc4700_relax_kit/common/Dave/Generated/I2C_MASTER\i2c_master.h ****  * @param  size   FIFO size
1032:C:/Users/Yushev/git/optiga-trust-qi/projects/xmc4700_relax_kit/common/Dave/Generated/I2C_MASTER\i2c_master.h ****  * @param  limit Value of receive FIFO filling level, transition above which the interrupt should b
1033:C:/Users/Yushev/git/optiga-trust-qi/projects/xmc4700_relax_kit/common/Dave/Generated/I2C_MASTER\i2c_master.h ****  *               \bRange: 0 to receive FIFO size.\n
1034:C:/Users/Yushev/git/optiga-trust-qi/projects/xmc4700_relax_kit/common/Dave/Generated/I2C_MASTER\i2c_master.h ****  *               e.g, If receive FIFO size is 16, and limit is configured as 8, FIFO receive buffer
1035:C:/Users/Yushev/git/optiga-trust-qi/projects/xmc4700_relax_kit/common/Dave/Generated/I2C_MASTER\i2c_master.h ****  *               will be generated when the FIFO filling level rises from 8 to 9.\n
1036:C:/Users/Yushev/git/optiga-trust-qi/projects/xmc4700_relax_kit/common/Dave/Generated/I2C_MASTER\i2c_master.h ****  *
1037:C:/Users/Yushev/git/optiga-trust-qi/projects/xmc4700_relax_kit/common/Dave/Generated/I2C_MASTER\i2c_master.h ****  * @return None\n
1038:C:/Users/Yushev/git/optiga-trust-qi/projects/xmc4700_relax_kit/common/Dave/Generated/I2C_MASTER\i2c_master.h ****  *
1039:C:/Users/Yushev/git/optiga-trust-qi/projects/xmc4700_relax_kit/common/Dave/Generated/I2C_MASTER\i2c_master.h ****  * \par<b>Description:</b><br>
1040:C:/Users/Yushev/git/optiga-trust-qi/projects/xmc4700_relax_kit/common/Dave/Generated/I2C_MASTER\i2c_master.h ****  * Receive FIFO trigger limit is configured by setting its value in the RBCTR register.
1041:C:/Users/Yushev/git/optiga-trust-qi/projects/xmc4700_relax_kit/common/Dave/Generated/I2C_MASTER\i2c_master.h ****  * Receive FIFO is configured to generate interrupt when the FIFO filling level rises
1042:C:/Users/Yushev/git/optiga-trust-qi/projects/xmc4700_relax_kit/common/Dave/Generated/I2C_MASTER\i2c_master.h ****  * above the trigger limit.
1043:C:/Users/Yushev/git/optiga-trust-qi/projects/xmc4700_relax_kit/common/Dave/Generated/I2C_MASTER\i2c_master.h ****  *
1044:C:/Users/Yushev/git/optiga-trust-qi/projects/xmc4700_relax_kit/common/Dave/Generated/I2C_MASTER\i2c_master.h ****  * Example Usage:
1045:C:/Users/Yushev/git/optiga-trust-qi/projects/xmc4700_relax_kit/common/Dave/Generated/I2C_MASTER\i2c_master.h ****  * @code
1046:C:/Users/Yushev/git/optiga-trust-qi/projects/xmc4700_relax_kit/common/Dave/Generated/I2C_MASTER\i2c_master.h ****  *
1047:C:/Users/Yushev/git/optiga-trust-qi/projects/xmc4700_relax_kit/common/Dave/Generated/I2C_MASTER\i2c_master.h ****  *  #include <DAVE.h>         //Declarations from DAVE Code Generation (includes SFR declaration)
1048:C:/Users/Yushev/git/optiga-trust-qi/projects/xmc4700_relax_kit/common/Dave/Generated/I2C_MASTER\i2c_master.h ****  *
1049:C:/Users/Yushev/git/optiga-trust-qi/projects/xmc4700_relax_kit/common/Dave/Generated/I2C_MASTER\i2c_master.h ****  *  #define SLAVE_ADDRESS 0xA0
1050:C:/Users/Yushev/git/optiga-trust-qi/projects/xmc4700_relax_kit/common/Dave/Generated/I2C_MASTER\i2c_master.h ****  *
1051:C:/Users/Yushev/git/optiga-trust-qi/projects/xmc4700_relax_kit/common/Dave/Generated/I2C_MASTER\i2c_master.h ****  *  uint8_t Rx_Data[256];
1052:C:/Users/Yushev/git/optiga-trust-qi/projects/xmc4700_relax_kit/common/Dave/Generated/I2C_MASTER\i2c_master.h ****  *  int main(void)
1053:C:/Users/Yushev/git/optiga-trust-qi/projects/xmc4700_relax_kit/common/Dave/Generated/I2C_MASTER\i2c_master.h ****  *  {
1054:C:/Users/Yushev/git/optiga-trust-qi/projects/xmc4700_relax_kit/common/Dave/Generated/I2C_MASTER\i2c_master.h ****  *    DAVE_STATUS_t init_status;
1055:C:/Users/Yushev/git/optiga-trust-qi/projects/xmc4700_relax_kit/common/Dave/Generated/I2C_MASTER\i2c_master.h ****  *
1056:C:/Users/Yushev/git/optiga-trust-qi/projects/xmc4700_relax_kit/common/Dave/Generated/I2C_MASTER\i2c_master.h ****  *    init_status = DAVE_Init();
1057:C:/Users/Yushev/git/optiga-trust-qi/projects/xmc4700_relax_kit/common/Dave/Generated/I2C_MASTER\i2c_master.h ****  *    if(init_status == DAVE_STATUS_SUCCESS)
1058:C:/Users/Yushev/git/optiga-trust-qi/projects/xmc4700_relax_kit/common/Dave/Generated/I2C_MASTER\i2c_master.h ****  *    {
1059:C:/Users/Yushev/git/optiga-trust-qi/projects/xmc4700_relax_kit/common/Dave/Generated/I2C_MASTER\i2c_master.h ****  *      //Configure receive fifo trigger limit to filling level as 10
1060:C:/Users/Yushev/git/optiga-trust-qi/projects/xmc4700_relax_kit/common/Dave/Generated/I2C_MASTER\i2c_master.h ****  *      I2C_MASTER_SetRXFIFOTriggerLimit(&I2C_MASTER_0, 16, 10);
1061:C:/Users/Yushev/git/optiga-trust-qi/projects/xmc4700_relax_kit/common/Dave/Generated/I2C_MASTER\i2c_master.h ****  *      // Execution will happen two times in the receive interrupt handler as the limit is set to 
1062:C:/Users/Yushev/git/optiga-trust-qi/projects/xmc4700_relax_kit/common/Dave/Generated/I2C_MASTER\i2c_master.h ****  *      I2C_MASTER_Receive(&I2C_MASTER_0, true, SLAVE_ADDRESS, Rx_Data, 16, true, true);
1063:C:/Users/Yushev/git/optiga-trust-qi/projects/xmc4700_relax_kit/common/Dave/Generated/I2C_MASTER\i2c_master.h ****  *      while(I2C_MASTER_IsRxBusy(&I2C_MASTER_0));
1064:C:/Users/Yushev/git/optiga-trust-qi/projects/xmc4700_relax_kit/common/Dave/Generated/I2C_MASTER\i2c_master.h ****  *    }
1065:C:/Users/Yushev/git/optiga-trust-qi/projects/xmc4700_relax_kit/common/Dave/Generated/I2C_MASTER\i2c_master.h ****  *    else
1066:C:/Users/Yushev/git/optiga-trust-qi/projects/xmc4700_relax_kit/common/Dave/Generated/I2C_MASTER\i2c_master.h ****  *    {
1067:C:/Users/Yushev/git/optiga-trust-qi/projects/xmc4700_relax_kit/common/Dave/Generated/I2C_MASTER\i2c_master.h ****  *      XMC_DEBUG("main: Application initialization failed");
1068:C:/Users/Yushev/git/optiga-trust-qi/projects/xmc4700_relax_kit/common/Dave/Generated/I2C_MASTER\i2c_master.h ****  *      while(1U)
1069:C:/Users/Yushev/git/optiga-trust-qi/projects/xmc4700_relax_kit/common/Dave/Generated/I2C_MASTER\i2c_master.h ****  *      {
1070:C:/Users/Yushev/git/optiga-trust-qi/projects/xmc4700_relax_kit/common/Dave/Generated/I2C_MASTER\i2c_master.h ****  *      }
1071:C:/Users/Yushev/git/optiga-trust-qi/projects/xmc4700_relax_kit/common/Dave/Generated/I2C_MASTER\i2c_master.h ****  *    }
1072:C:/Users/Yushev/git/optiga-trust-qi/projects/xmc4700_relax_kit/common/Dave/Generated/I2C_MASTER\i2c_master.h ****  *    return 1U;
1073:C:/Users/Yushev/git/optiga-trust-qi/projects/xmc4700_relax_kit/common/Dave/Generated/I2C_MASTER\i2c_master.h ****  *  }
1074:C:/Users/Yushev/git/optiga-trust-qi/projects/xmc4700_relax_kit/common/Dave/Generated/I2C_MASTER\i2c_master.h ****  *
1075:C:/Users/Yushev/git/optiga-trust-qi/projects/xmc4700_relax_kit/common/Dave/Generated/I2C_MASTER\i2c_master.h ****  * @endcode
1076:C:/Users/Yushev/git/optiga-trust-qi/projects/xmc4700_relax_kit/common/Dave/Generated/I2C_MASTER\i2c_master.h ****  */
1077:C:/Users/Yushev/git/optiga-trust-qi/projects/xmc4700_relax_kit/common/Dave/Generated/I2C_MASTER\i2c_master.h **** __STATIC_INLINE void I2C_MASTER_SetRXFIFOTriggerLimit(I2C_MASTER_t * const handle, const uint32_t s
1078:C:/Users/Yushev/git/optiga-trust-qi/projects/xmc4700_relax_kit/common/Dave/Generated/I2C_MASTER\i2c_master.h **** 		                                              const uint32_t limit)
1079:C:/Users/Yushev/git/optiga-trust-qi/projects/xmc4700_relax_kit/common/Dave/Generated/I2C_MASTER\i2c_master.h **** {
1080:C:/Users/Yushev/git/optiga-trust-qi/projects/xmc4700_relax_kit/common/Dave/Generated/I2C_MASTER\i2c_master.h ****   XMC_ASSERT("I2C_MASTER_SetRXFIFOTriggerLimit: invalid handle", (handle != NULL))
1081:C:/Users/Yushev/git/optiga-trust-qi/projects/xmc4700_relax_kit/common/Dave/Generated/I2C_MASTER\i2c_master.h ****   XMC_USIC_CH_RXFIFO_SetSizeTriggerLimit(handle->channel, (XMC_USIC_CH_FIFO_SIZE_t)size, limit);
1082:C:/Users/Yushev/git/optiga-trust-qi/projects/xmc4700_relax_kit/common/Dave/Generated/I2C_MASTER\i2c_master.h **** }
1083:C:/Users/Yushev/git/optiga-trust-qi/projects/xmc4700_relax_kit/common/Dave/Generated/I2C_MASTER\i2c_master.h **** 
1084:C:/Users/Yushev/git/optiga-trust-qi/projects/xmc4700_relax_kit/common/Dave/Generated/I2C_MASTER\i2c_master.h **** /**
1085:C:/Users/Yushev/git/optiga-trust-qi/projects/xmc4700_relax_kit/common/Dave/Generated/I2C_MASTER\i2c_master.h ****  * @brief Checks if the transmit FIFO is full.
1086:C:/Users/Yushev/git/optiga-trust-qi/projects/xmc4700_relax_kit/common/Dave/Generated/I2C_MASTER\i2c_master.h ****  *
1087:C:/Users/Yushev/git/optiga-trust-qi/projects/xmc4700_relax_kit/common/Dave/Generated/I2C_MASTER\i2c_master.h ****  * @param  handle I2C_MASTER APP handle pointer of type @ref I2C_MASTER_t
1088:C:/Users/Yushev/git/optiga-trust-qi/projects/xmc4700_relax_kit/common/Dave/Generated/I2C_MASTER\i2c_master.h ****  *
1089:C:/Users/Yushev/git/optiga-trust-qi/projects/xmc4700_relax_kit/common/Dave/Generated/I2C_MASTER\i2c_master.h ****  * @return bool Status of transmit FIFO filling level.
1090:C:/Users/Yushev/git/optiga-trust-qi/projects/xmc4700_relax_kit/common/Dave/Generated/I2C_MASTER\i2c_master.h ****  *              \bRange: \atrue- if transmit FIFO is full.<br>
1091:C:/Users/Yushev/git/optiga-trust-qi/projects/xmc4700_relax_kit/common/Dave/Generated/I2C_MASTER\i2c_master.h ****  *                       \afalse- if transmit FIFO is not full.<br>
1092:C:/Users/Yushev/git/optiga-trust-qi/projects/xmc4700_relax_kit/common/Dave/Generated/I2C_MASTER\i2c_master.h ****  * \par<b>Description:</b><br>
1093:C:/Users/Yushev/git/optiga-trust-qi/projects/xmc4700_relax_kit/common/Dave/Generated/I2C_MASTER\i2c_master.h ****  * Checks the status using the register TRBSR. Can be used while filling
1094:C:/Users/Yushev/git/optiga-trust-qi/projects/xmc4700_relax_kit/common/Dave/Generated/I2C_MASTER\i2c_master.h ****  * data to the transmit FIFO.
1095:C:/Users/Yushev/git/optiga-trust-qi/projects/xmc4700_relax_kit/common/Dave/Generated/I2C_MASTER\i2c_master.h ****  * \par<b>NOTE: </b><br>: Transmit should be "Direct" mode in advanced settings tab.<br>
1096:C:/Users/Yushev/git/optiga-trust-qi/projects/xmc4700_relax_kit/common/Dave/Generated/I2C_MASTER\i2c_master.h ****  * Example Usage:
1097:C:/Users/Yushev/git/optiga-trust-qi/projects/xmc4700_relax_kit/common/Dave/Generated/I2C_MASTER\i2c_master.h ****  *
1098:C:/Users/Yushev/git/optiga-trust-qi/projects/xmc4700_relax_kit/common/Dave/Generated/I2C_MASTER\i2c_master.h ****  * @code
1099:C:/Users/Yushev/git/optiga-trust-qi/projects/xmc4700_relax_kit/common/Dave/Generated/I2C_MASTER\i2c_master.h ****  *
1100:C:/Users/Yushev/git/optiga-trust-qi/projects/xmc4700_relax_kit/common/Dave/Generated/I2C_MASTER\i2c_master.h ****  *  #include <DAVE.h>                 //Declarations from DAVE Code Generation (includes SFR declar
1101:C:/Users/Yushev/git/optiga-trust-qi/projects/xmc4700_relax_kit/common/Dave/Generated/I2C_MASTER\i2c_master.h ****  *  #define SLAVE_ADDRESS 0xA0
1102:C:/Users/Yushev/git/optiga-trust-qi/projects/xmc4700_relax_kit/common/Dave/Generated/I2C_MASTER\i2c_master.h **** 
1103:C:/Users/Yushev/git/optiga-trust-qi/projects/xmc4700_relax_kit/common/Dave/Generated/I2C_MASTER\i2c_master.h ****  *
1104:C:/Users/Yushev/git/optiga-trust-qi/projects/xmc4700_relax_kit/common/Dave/Generated/I2C_MASTER\i2c_master.h ****  *  uint8_t send_data[] = "Infineon Technologies";
1105:C:/Users/Yushev/git/optiga-trust-qi/projects/xmc4700_relax_kit/common/Dave/Generated/I2C_MASTER\i2c_master.h ****  *  int main(void)
1106:C:/Users/Yushev/git/optiga-trust-qi/projects/xmc4700_relax_kit/common/Dave/Generated/I2C_MASTER\i2c_master.h ****  *  {
1107:C:/Users/Yushev/git/optiga-trust-qi/projects/xmc4700_relax_kit/common/Dave/Generated/I2C_MASTER\i2c_master.h ****  *    DAVE_STATUS_t status;
1108:C:/Users/Yushev/git/optiga-trust-qi/projects/xmc4700_relax_kit/common/Dave/Generated/I2C_MASTER\i2c_master.h ****  *    status = DAVE_Init();           // Initialization of DAVE APPs
1109:C:/Users/Yushev/git/optiga-trust-qi/projects/xmc4700_relax_kit/common/Dave/Generated/I2C_MASTER\i2c_master.h ****  *
1110:C:/Users/Yushev/git/optiga-trust-qi/projects/xmc4700_relax_kit/common/Dave/Generated/I2C_MASTER\i2c_master.h ****  *    if(status == DAVE_STATUS_FAILURE)
1111:C:/Users/Yushev/git/optiga-trust-qi/projects/xmc4700_relax_kit/common/Dave/Generated/I2C_MASTER\i2c_master.h ****  *    {
1112:C:/Users/Yushev/git/optiga-trust-qi/projects/xmc4700_relax_kit/common/Dave/Generated/I2C_MASTER\i2c_master.h ****  *      XMC_DEBUG("DAVE APPs initialization failed\n");
1113:C:/Users/Yushev/git/optiga-trust-qi/projects/xmc4700_relax_kit/common/Dave/Generated/I2C_MASTER\i2c_master.h ****  *
1114:C:/Users/Yushev/git/optiga-trust-qi/projects/xmc4700_relax_kit/common/Dave/Generated/I2C_MASTER\i2c_master.h ****  *      while(1U)
1115:C:/Users/Yushev/git/optiga-trust-qi/projects/xmc4700_relax_kit/common/Dave/Generated/I2C_MASTER\i2c_master.h ****  *      {
1116:C:/Users/Yushev/git/optiga-trust-qi/projects/xmc4700_relax_kit/common/Dave/Generated/I2C_MASTER\i2c_master.h ****  *      }
1117:C:/Users/Yushev/git/optiga-trust-qi/projects/xmc4700_relax_kit/common/Dave/Generated/I2C_MASTER\i2c_master.h ****  *  }
1118:C:/Users/Yushev/git/optiga-trust-qi/projects/xmc4700_relax_kit/common/Dave/Generated/I2C_MASTER\i2c_master.h ****  *  I2C_MASTER_Transmit(&I2C_MASTER_0, true, SLAVE_ADDRESS, &send_data[0], 10, false);
1119:C:/Users/Yushev/git/optiga-trust-qi/projects/xmc4700_relax_kit/common/Dave/Generated/I2C_MASTER\i2c_master.h ****  *  //Wait when Tx FIFO is full
1120:C:/Users/Yushev/git/optiga-trust-qi/projects/xmc4700_relax_kit/common/Dave/Generated/I2C_MASTER\i2c_master.h ****  *  while(!I2C_MASTER_IsTXFIFOFull(&I2C_MASTER_0))
1121:C:/Users/Yushev/git/optiga-trust-qi/projects/xmc4700_relax_kit/common/Dave/Generated/I2C_MASTER\i2c_master.h ****  *  {
1122:C:/Users/Yushev/git/optiga-trust-qi/projects/xmc4700_relax_kit/common/Dave/Generated/I2C_MASTER\i2c_master.h ****  *    I2C_MASTER_Transmit(&I2C_MASTER_0, false, SLAVE_ADDRESS, &send_data[0], 10, false);
1123:C:/Users/Yushev/git/optiga-trust-qi/projects/xmc4700_relax_kit/common/Dave/Generated/I2C_MASTER\i2c_master.h ****  *  }
1124:C:/Users/Yushev/git/optiga-trust-qi/projects/xmc4700_relax_kit/common/Dave/Generated/I2C_MASTER\i2c_master.h ****  *  while(1U)
1125:C:/Users/Yushev/git/optiga-trust-qi/projects/xmc4700_relax_kit/common/Dave/Generated/I2C_MASTER\i2c_master.h ****  *  {
1126:C:/Users/Yushev/git/optiga-trust-qi/projects/xmc4700_relax_kit/common/Dave/Generated/I2C_MASTER\i2c_master.h ****  *  }
1127:C:/Users/Yushev/git/optiga-trust-qi/projects/xmc4700_relax_kit/common/Dave/Generated/I2C_MASTER\i2c_master.h ****  * }
1128:C:/Users/Yushev/git/optiga-trust-qi/projects/xmc4700_relax_kit/common/Dave/Generated/I2C_MASTER\i2c_master.h ****  * @endcode
1129:C:/Users/Yushev/git/optiga-trust-qi/projects/xmc4700_relax_kit/common/Dave/Generated/I2C_MASTER\i2c_master.h ****  */
1130:C:/Users/Yushev/git/optiga-trust-qi/projects/xmc4700_relax_kit/common/Dave/Generated/I2C_MASTER\i2c_master.h **** __STATIC_INLINE bool I2C_MASTER_IsTXFIFOFull(const I2C_MASTER_t* const handle)
1131:C:/Users/Yushev/git/optiga-trust-qi/projects/xmc4700_relax_kit/common/Dave/Generated/I2C_MASTER\i2c_master.h **** {
1132:C:/Users/Yushev/git/optiga-trust-qi/projects/xmc4700_relax_kit/common/Dave/Generated/I2C_MASTER\i2c_master.h ****   XMC_ASSERT("I2C_MASTER_IsTXFIFOFull: invalid handle", (handle != NULL))
1133:C:/Users/Yushev/git/optiga-trust-qi/projects/xmc4700_relax_kit/common/Dave/Generated/I2C_MASTER\i2c_master.h ****   return XMC_USIC_CH_TXFIFO_IsFull(handle->channel);
1134:C:/Users/Yushev/git/optiga-trust-qi/projects/xmc4700_relax_kit/common/Dave/Generated/I2C_MASTER\i2c_master.h **** }
1135:C:/Users/Yushev/git/optiga-trust-qi/projects/xmc4700_relax_kit/common/Dave/Generated/I2C_MASTER\i2c_master.h **** 
1136:C:/Users/Yushev/git/optiga-trust-qi/projects/xmc4700_relax_kit/common/Dave/Generated/I2C_MASTER\i2c_master.h **** /**
1137:C:/Users/Yushev/git/optiga-trust-qi/projects/xmc4700_relax_kit/common/Dave/Generated/I2C_MASTER\i2c_master.h ****  * @brief Checks if the receive FIFO is empty.
1138:C:/Users/Yushev/git/optiga-trust-qi/projects/xmc4700_relax_kit/common/Dave/Generated/I2C_MASTER\i2c_master.h ****  *
1139:C:/Users/Yushev/git/optiga-trust-qi/projects/xmc4700_relax_kit/common/Dave/Generated/I2C_MASTER\i2c_master.h ****  * @param  handle I2C_MASTER APP handle pointer of type @ref I2C_MASTER_t
1140:C:/Users/Yushev/git/optiga-trust-qi/projects/xmc4700_relax_kit/common/Dave/Generated/I2C_MASTER\i2c_master.h ****  *
1141:C:/Users/Yushev/git/optiga-trust-qi/projects/xmc4700_relax_kit/common/Dave/Generated/I2C_MASTER\i2c_master.h ****  * @return bool Status of receive FIFO filling level.
1142:C:/Users/Yushev/git/optiga-trust-qi/projects/xmc4700_relax_kit/common/Dave/Generated/I2C_MASTER\i2c_master.h ****  *              \bRange: \atrue- if receive FIFO is empty.<br>
1143:C:/Users/Yushev/git/optiga-trust-qi/projects/xmc4700_relax_kit/common/Dave/Generated/I2C_MASTER\i2c_master.h ****  *                       \afalse- if receive FIFO still has data.<br>
1144:C:/Users/Yushev/git/optiga-trust-qi/projects/xmc4700_relax_kit/common/Dave/Generated/I2C_MASTER\i2c_master.h ****  * \par<b>Description:</b><br>
1145:C:/Users/Yushev/git/optiga-trust-qi/projects/xmc4700_relax_kit/common/Dave/Generated/I2C_MASTER\i2c_master.h ****  * Checks the status using the register TRBSR. Can be used while reading data from the receive FIFO
1146:C:/Users/Yushev/git/optiga-trust-qi/projects/xmc4700_relax_kit/common/Dave/Generated/I2C_MASTER\i2c_master.h ****  *
1147:C:/Users/Yushev/git/optiga-trust-qi/projects/xmc4700_relax_kit/common/Dave/Generated/I2C_MASTER\i2c_master.h ****  * Example Usage:
1148:C:/Users/Yushev/git/optiga-trust-qi/projects/xmc4700_relax_kit/common/Dave/Generated/I2C_MASTER\i2c_master.h ****  * @code
1149:C:/Users/Yushev/git/optiga-trust-qi/projects/xmc4700_relax_kit/common/Dave/Generated/I2C_MASTER\i2c_master.h ****  *
1150:C:/Users/Yushev/git/optiga-trust-qi/projects/xmc4700_relax_kit/common/Dave/Generated/I2C_MASTER\i2c_master.h ****  *  #include <DAVE.h>                 //Declarations from DAVE Code Generation (includes SFR declar
1151:C:/Users/Yushev/git/optiga-trust-qi/projects/xmc4700_relax_kit/common/Dave/Generated/I2C_MASTER\i2c_master.h ****  *  #define SLAVE_ADDRESS (0xA0)
1152:C:/Users/Yushev/git/optiga-trust-qi/projects/xmc4700_relax_kit/common/Dave/Generated/I2C_MASTER\i2c_master.h ****  *  int main(void)
1153:C:/Users/Yushev/git/optiga-trust-qi/projects/xmc4700_relax_kit/common/Dave/Generated/I2C_MASTER\i2c_master.h ****  *  {
1154:C:/Users/Yushev/git/optiga-trust-qi/projects/xmc4700_relax_kit/common/Dave/Generated/I2C_MASTER\i2c_master.h ****  *    DAVE_STATUS_t init_status;
1155:C:/Users/Yushev/git/optiga-trust-qi/projects/xmc4700_relax_kit/common/Dave/Generated/I2C_MASTER\i2c_master.h ****  *    uint8_t rec_data[64];
1156:C:/Users/Yushev/git/optiga-trust-qi/projects/xmc4700_relax_kit/common/Dave/Generated/I2C_MASTER\i2c_master.h ****  *    uint8_t index = 0, loc_index = 0;
1157:C:/Users/Yushev/git/optiga-trust-qi/projects/xmc4700_relax_kit/common/Dave/Generated/I2C_MASTER\i2c_master.h ****  *    init_status = DAVE_Init();
1158:C:/Users/Yushev/git/optiga-trust-qi/projects/xmc4700_relax_kit/common/Dave/Generated/I2C_MASTER\i2c_master.h ****  *    if(init_status == DAVE_STATUS_SUCCESS)
1159:C:/Users/Yushev/git/optiga-trust-qi/projects/xmc4700_relax_kit/common/Dave/Generated/I2C_MASTER\i2c_master.h ****  *    {
1160:C:/Users/Yushev/git/optiga-trust-qi/projects/xmc4700_relax_kit/common/Dave/Generated/I2C_MASTER\i2c_master.h ****  *      I2C_MASTER_SendStart(&I2C_MASTER_0, SLAVE_ADDRESS, XMC_I2C_CH_CMD_WRITE);
1161:C:/Users/Yushev/git/optiga-trust-qi/projects/xmc4700_relax_kit/common/Dave/Generated/I2C_MASTER\i2c_master.h ****  *      while(I2C_MASTER_GetFlagStatus(&I2C_MASTER_0, XMC_I2C_CH_STATUS_FLAG_ACK_RECEIVED) == 0U)
1162:C:/Users/Yushev/git/optiga-trust-qi/projects/xmc4700_relax_kit/common/Dave/Generated/I2C_MASTER\i2c_master.h ****  *      {
1163:C:/Users/Yushev/git/optiga-trust-qi/projects/xmc4700_relax_kit/common/Dave/Generated/I2C_MASTER\i2c_master.h ****  *       // wait for ACK
1164:C:/Users/Yushev/git/optiga-trust-qi/projects/xmc4700_relax_kit/common/Dave/Generated/I2C_MASTER\i2c_master.h ****  *      }
1165:C:/Users/Yushev/git/optiga-trust-qi/projects/xmc4700_relax_kit/common/Dave/Generated/I2C_MASTER\i2c_master.h ****  *      I2C_MASTER_ClearFlag(&I2C_MASTER_0,XMC_I2C_CH_STATUS_FLAG_ACK_RECEIVED);
1166:C:/Users/Yushev/git/optiga-trust-qi/projects/xmc4700_relax_kit/common/Dave/Generated/I2C_MASTER\i2c_master.h ****  *      // write to address 0
1167:C:/Users/Yushev/git/optiga-trust-qi/projects/xmc4700_relax_kit/common/Dave/Generated/I2C_MASTER\i2c_master.h ****  *      I2C_MASTER_TransmitByte(&I2C_MASTER_0, 0x00);
1168:C:/Users/Yushev/git/optiga-trust-qi/projects/xmc4700_relax_kit/common/Dave/Generated/I2C_MASTER\i2c_master.h ****  *      while(I2C_MASTER_GetFlagStatus(&I2C_MASTER_0, XMC_I2C_CH_STATUS_FLAG_ACK_RECEIVED) == 0U)
1169:C:/Users/Yushev/git/optiga-trust-qi/projects/xmc4700_relax_kit/common/Dave/Generated/I2C_MASTER\i2c_master.h ****  *      {
1170:C:/Users/Yushev/git/optiga-trust-qi/projects/xmc4700_relax_kit/common/Dave/Generated/I2C_MASTER\i2c_master.h ****  *       // wait for ACK
1171:C:/Users/Yushev/git/optiga-trust-qi/projects/xmc4700_relax_kit/common/Dave/Generated/I2C_MASTER\i2c_master.h ****  *      }
1172:C:/Users/Yushev/git/optiga-trust-qi/projects/xmc4700_relax_kit/common/Dave/Generated/I2C_MASTER\i2c_master.h ****  *      I2C_MASTER_ClearFlag(&I2C_MASTER_0,XMC_I2C_CH_STATUS_FLAG_ACK_RECEIVED);
1173:C:/Users/Yushev/git/optiga-trust-qi/projects/xmc4700_relax_kit/common/Dave/Generated/I2C_MASTER\i2c_master.h ****  *      I2C_MASTER_SendRepeatedStart(&I2C_MASTER_0, SLAVE_ADDRESS, XMC_I2C_CH_CMD_READ);
1174:C:/Users/Yushev/git/optiga-trust-qi/projects/xmc4700_relax_kit/common/Dave/Generated/I2C_MASTER\i2c_master.h ****  *      while(I2C_MASTER_GetFlagStatus(&I2C_MASTER_0, XMC_I2C_CH_STATUS_FLAG_ACK_RECEIVED) == 0U)
1175:C:/Users/Yushev/git/optiga-trust-qi/projects/xmc4700_relax_kit/common/Dave/Generated/I2C_MASTER\i2c_master.h ****  *      {
1176:C:/Users/Yushev/git/optiga-trust-qi/projects/xmc4700_relax_kit/common/Dave/Generated/I2C_MASTER\i2c_master.h ****  *       // wait for ACK
1177:C:/Users/Yushev/git/optiga-trust-qi/projects/xmc4700_relax_kit/common/Dave/Generated/I2C_MASTER\i2c_master.h ****  *      }
1178:C:/Users/Yushev/git/optiga-trust-qi/projects/xmc4700_relax_kit/common/Dave/Generated/I2C_MASTER\i2c_master.h ****  *      I2C_MASTER_ClearFlag(&I2C_MASTER_0,XMC_I2C_CH_STATUS_FLAG_ACK_RECEIVED);
1179:C:/Users/Yushev/git/optiga-trust-qi/projects/xmc4700_relax_kit/common/Dave/Generated/I2C_MASTER\i2c_master.h ****  *      while(index < 16)
1180:C:/Users/Yushev/git/optiga-trust-qi/projects/xmc4700_relax_kit/common/Dave/Generated/I2C_MASTER\i2c_master.h ****  *      {
1181:C:/Users/Yushev/git/optiga-trust-qi/projects/xmc4700_relax_kit/common/Dave/Generated/I2C_MASTER\i2c_master.h ****  *        I2C_MASTER_ReceiveACK(&I2C_MASTER_0);
1182:C:/Users/Yushev/git/optiga-trust-qi/projects/xmc4700_relax_kit/common/Dave/Generated/I2C_MASTER\i2c_master.h ****  *        index++;
1183:C:/Users/Yushev/git/optiga-trust-qi/projects/xmc4700_relax_kit/common/Dave/Generated/I2C_MASTER\i2c_master.h ****  *      }
1184:C:/Users/Yushev/git/optiga-trust-qi/projects/xmc4700_relax_kit/common/Dave/Generated/I2C_MASTER\i2c_master.h ****  *      //Wait when Rx FIFO is empty
1185:C:/Users/Yushev/git/optiga-trust-qi/projects/xmc4700_relax_kit/common/Dave/Generated/I2C_MASTER\i2c_master.h ****  *      while(!I2C_MASTER_IsRXFIFOEmpty(&I2C_MASTER_0))
1186:C:/Users/Yushev/git/optiga-trust-qi/projects/xmc4700_relax_kit/common/Dave/Generated/I2C_MASTER\i2c_master.h ****  *      {
1187:C:/Users/Yushev/git/optiga-trust-qi/projects/xmc4700_relax_kit/common/Dave/Generated/I2C_MASTER\i2c_master.h ****  *        rec_data[loc_index++] = I2C_MASTER_GetReceivedByte(&I2C_MASTER_0);
1188:C:/Users/Yushev/git/optiga-trust-qi/projects/xmc4700_relax_kit/common/Dave/Generated/I2C_MASTER\i2c_master.h ****  *      }
1189:C:/Users/Yushev/git/optiga-trust-qi/projects/xmc4700_relax_kit/common/Dave/Generated/I2C_MASTER\i2c_master.h ****  *    }
1190:C:/Users/Yushev/git/optiga-trust-qi/projects/xmc4700_relax_kit/common/Dave/Generated/I2C_MASTER\i2c_master.h ****  *   while(1U)
1191:C:/Users/Yushev/git/optiga-trust-qi/projects/xmc4700_relax_kit/common/Dave/Generated/I2C_MASTER\i2c_master.h ****  *   {
1192:C:/Users/Yushev/git/optiga-trust-qi/projects/xmc4700_relax_kit/common/Dave/Generated/I2C_MASTER\i2c_master.h ****  *   }
1193:C:/Users/Yushev/git/optiga-trust-qi/projects/xmc4700_relax_kit/common/Dave/Generated/I2C_MASTER\i2c_master.h ****  *  }
1194:C:/Users/Yushev/git/optiga-trust-qi/projects/xmc4700_relax_kit/common/Dave/Generated/I2C_MASTER\i2c_master.h ****  * @endcode
1195:C:/Users/Yushev/git/optiga-trust-qi/projects/xmc4700_relax_kit/common/Dave/Generated/I2C_MASTER\i2c_master.h ****  */
1196:C:/Users/Yushev/git/optiga-trust-qi/projects/xmc4700_relax_kit/common/Dave/Generated/I2C_MASTER\i2c_master.h **** __STATIC_INLINE bool I2C_MASTER_IsRXFIFOEmpty(const I2C_MASTER_t* const handle)
1197:C:/Users/Yushev/git/optiga-trust-qi/projects/xmc4700_relax_kit/common/Dave/Generated/I2C_MASTER\i2c_master.h **** {
1198:C:/Users/Yushev/git/optiga-trust-qi/projects/xmc4700_relax_kit/common/Dave/Generated/I2C_MASTER\i2c_master.h ****   XMC_ASSERT("I2C_MASTER_IsRXFIFOEmpty: invalid handle", (handle != NULL))
1199:C:/Users/Yushev/git/optiga-trust-qi/projects/xmc4700_relax_kit/common/Dave/Generated/I2C_MASTER\i2c_master.h ****   return XMC_USIC_CH_RXFIFO_IsEmpty(handle->channel);
1200:C:/Users/Yushev/git/optiga-trust-qi/projects/xmc4700_relax_kit/common/Dave/Generated/I2C_MASTER\i2c_master.h **** }
1201:C:/Users/Yushev/git/optiga-trust-qi/projects/xmc4700_relax_kit/common/Dave/Generated/I2C_MASTER\i2c_master.h **** 
1202:C:/Users/Yushev/git/optiga-trust-qi/projects/xmc4700_relax_kit/common/Dave/Generated/I2C_MASTER\i2c_master.h **** /**
1203:C:/Users/Yushev/git/optiga-trust-qi/projects/xmc4700_relax_kit/common/Dave/Generated/I2C_MASTER\i2c_master.h ****  * @brief Gets the status of event flags related to receive FIFO.
1204:C:/Users/Yushev/git/optiga-trust-qi/projects/xmc4700_relax_kit/common/Dave/Generated/I2C_MASTER\i2c_master.h ****  *
1205:C:/Users/Yushev/git/optiga-trust-qi/projects/xmc4700_relax_kit/common/Dave/Generated/I2C_MASTER\i2c_master.h ****  *
1206:C:/Users/Yushev/git/optiga-trust-qi/projects/xmc4700_relax_kit/common/Dave/Generated/I2C_MASTER\i2c_master.h ****  * @param  handle I2C_MASTER APP handle pointer of type @ref I2C_MASTER_t
1207:C:/Users/Yushev/git/optiga-trust-qi/projects/xmc4700_relax_kit/common/Dave/Generated/I2C_MASTER\i2c_master.h ****  *
1208:C:/Users/Yushev/git/optiga-trust-qi/projects/xmc4700_relax_kit/common/Dave/Generated/I2C_MASTER\i2c_master.h ****  * @return uint32_t: Status of standard receive buffer event, alternative receive buffer event and 
1209:C:/Users/Yushev/git/optiga-trust-qi/projects/xmc4700_relax_kit/common/Dave/Generated/I2C_MASTER\i2c_master.h ****  * error event in their bit positions in TRBSR register.\n
1210:C:/Users/Yushev/git/optiga-trust-qi/projects/xmc4700_relax_kit/common/Dave/Generated/I2C_MASTER\i2c_master.h ****  * \b Range: Use type @ref XMC_USIC_CH_RXFIFO_EVENT_t for event bitmasks. Multiple events' status c
1211:C:/Users/Yushev/git/optiga-trust-qi/projects/xmc4700_relax_kit/common/Dave/Generated/I2C_MASTER\i2c_master.h ****  * comparison using \a OR operation.
1212:C:/Users/Yushev/git/optiga-trust-qi/projects/xmc4700_relax_kit/common/Dave/Generated/I2C_MASTER\i2c_master.h ****  *
1213:C:/Users/Yushev/git/optiga-trust-qi/projects/xmc4700_relax_kit/common/Dave/Generated/I2C_MASTER\i2c_master.h ****  * \par<b>Description:</b><br>
1214:C:/Users/Yushev/git/optiga-trust-qi/projects/xmc4700_relax_kit/common/Dave/Generated/I2C_MASTER\i2c_master.h ****  * It provides the status of standard receive buffer event, alternative receive buffer event and re
1215:C:/Users/Yushev/git/optiga-trust-qi/projects/xmc4700_relax_kit/common/Dave/Generated/I2C_MASTER\i2c_master.h ****  * event.
1216:C:/Users/Yushev/git/optiga-trust-qi/projects/xmc4700_relax_kit/common/Dave/Generated/I2C_MASTER\i2c_master.h ****  * Function masks the TRBSR register with the bitmask of SRBI, ARBI and RBERI flags. User has to ma
1217:C:/Users/Yushev/git/optiga-trust-qi/projects/xmc4700_relax_kit/common/Dave/Generated/I2C_MASTER\i2c_master.h ****  * interest before checking the status.
1218:C:/Users/Yushev/git/optiga-trust-qi/projects/xmc4700_relax_kit/common/Dave/Generated/I2C_MASTER\i2c_master.h ****  *
1219:C:/Users/Yushev/git/optiga-trust-qi/projects/xmc4700_relax_kit/common/Dave/Generated/I2C_MASTER\i2c_master.h ****  * Example Usage:
1220:C:/Users/Yushev/git/optiga-trust-qi/projects/xmc4700_relax_kit/common/Dave/Generated/I2C_MASTER\i2c_master.h ****  * @code
1221:C:/Users/Yushev/git/optiga-trust-qi/projects/xmc4700_relax_kit/common/Dave/Generated/I2C_MASTER\i2c_master.h ****  *
1222:C:/Users/Yushev/git/optiga-trust-qi/projects/xmc4700_relax_kit/common/Dave/Generated/I2C_MASTER\i2c_master.h ****  *   #include <DAVE.h>         //Declarations from DAVE Code Generation (includes SFR declaration)
1223:C:/Users/Yushev/git/optiga-trust-qi/projects/xmc4700_relax_kit/common/Dave/Generated/I2C_MASTER\i2c_master.h ****  *   #define SLAVE_ADDRESS 0xA0
1224:C:/Users/Yushev/git/optiga-trust-qi/projects/xmc4700_relax_kit/common/Dave/Generated/I2C_MASTER\i2c_master.h ****  *   uint8_t mem_address[2];
1225:C:/Users/Yushev/git/optiga-trust-qi/projects/xmc4700_relax_kit/common/Dave/Generated/I2C_MASTER\i2c_master.h ****  *   int main(void)
1226:C:/Users/Yushev/git/optiga-trust-qi/projects/xmc4700_relax_kit/common/Dave/Generated/I2C_MASTER\i2c_master.h ****  *   {
1227:C:/Users/Yushev/git/optiga-trust-qi/projects/xmc4700_relax_kit/common/Dave/Generated/I2C_MASTER\i2c_master.h ****  *     DAVE_STATUS_t init_status;
1228:C:/Users/Yushev/git/optiga-trust-qi/projects/xmc4700_relax_kit/common/Dave/Generated/I2C_MASTER\i2c_master.h ****  *
1229:C:/Users/Yushev/git/optiga-trust-qi/projects/xmc4700_relax_kit/common/Dave/Generated/I2C_MASTER\i2c_master.h ****  *     init_status = DAVE_Init();
1230:C:/Users/Yushev/git/optiga-trust-qi/projects/xmc4700_relax_kit/common/Dave/Generated/I2C_MASTER\i2c_master.h ****  *     if(init_status == DAVE_STATUS_SUCCESS)
1231:C:/Users/Yushev/git/optiga-trust-qi/projects/xmc4700_relax_kit/common/Dave/Generated/I2C_MASTER\i2c_master.h ****  *     {
1232:C:/Users/Yushev/git/optiga-trust-qi/projects/xmc4700_relax_kit/common/Dave/Generated/I2C_MASTER\i2c_master.h ****  *       mem_address[0] = 0x00;//memory which need to be read from slave
1233:C:/Users/Yushev/git/optiga-trust-qi/projects/xmc4700_relax_kit/common/Dave/Generated/I2C_MASTER\i2c_master.h ****  *       //Configure receive fifo trigger limit as 10
1234:C:/Users/Yushev/git/optiga-trust-qi/projects/xmc4700_relax_kit/common/Dave/Generated/I2C_MASTER\i2c_master.h ****  *       I2C_MASTER_SetRXFIFOTriggerLimit(&I2C_MASTER_0, 16, 10);
1235:C:/Users/Yushev/git/optiga-trust-qi/projects/xmc4700_relax_kit/common/Dave/Generated/I2C_MASTER\i2c_master.h ****  *       I2C_MASTER_StartTransmitIRQ(&I2C_MASTER_0,true,SLAVE_ADDRESS,mem_address,1,false);
1236:C:/Users/Yushev/git/optiga-trust-qi/projects/xmc4700_relax_kit/common/Dave/Generated/I2C_MASTER\i2c_master.h ****  *       while(I2C_MASTER_IsTxBusy(&I2C_MASTER_0));
1237:C:/Users/Yushev/git/optiga-trust-qi/projects/xmc4700_relax_kit/common/Dave/Generated/I2C_MASTER\i2c_master.h ****  *       I2C_MASTER_StartReceiveIRQ(&I2C_MASTER_0,true,SLAVE_ADDRESS,mem_address,16,true, true);
1238:C:/Users/Yushev/git/optiga-trust-qi/projects/xmc4700_relax_kit/common/Dave/Generated/I2C_MASTER\i2c_master.h ****  *       //Wait for FIFO transmit standard buffer interrupt to fill it again with remaining data
1239:C:/Users/Yushev/git/optiga-trust-qi/projects/xmc4700_relax_kit/common/Dave/Generated/I2C_MASTER\i2c_master.h ****  *       while((I2C_MASTER_GetRXFIFOStatus(&I2C_MASTER_0) & XMC_USIC_CH_RXFIFO_EVENT_STANDARD) == 0
1240:C:/Users/Yushev/git/optiga-trust-qi/projects/xmc4700_relax_kit/common/Dave/Generated/I2C_MASTER\i2c_master.h ****  *       I2C_MASTER_ClearRXFIFOStatus(&I2C_MASTER_0, XMC_USIC_CH_RXFIFO_EVENT_STANDARD);
1241:C:/Users/Yushev/git/optiga-trust-qi/projects/xmc4700_relax_kit/common/Dave/Generated/I2C_MASTER\i2c_master.h ****  *       I2C_MASTER_StartReceiveIRQ(&I2C_MASTER_0,true,SLAVE_ADDRESS,mem_address,6,false, false);
1242:C:/Users/Yushev/git/optiga-trust-qi/projects/xmc4700_relax_kit/common/Dave/Generated/I2C_MASTER\i2c_master.h ****  *     }
1243:C:/Users/Yushev/git/optiga-trust-qi/projects/xmc4700_relax_kit/common/Dave/Generated/I2C_MASTER\i2c_master.h ****  *     else
1244:C:/Users/Yushev/git/optiga-trust-qi/projects/xmc4700_relax_kit/common/Dave/Generated/I2C_MASTER\i2c_master.h ****  *     {
1245:C:/Users/Yushev/git/optiga-trust-qi/projects/xmc4700_relax_kit/common/Dave/Generated/I2C_MASTER\i2c_master.h ****  *      XMC_DEBUG("main: Application initialization failed");
1246:C:/Users/Yushev/git/optiga-trust-qi/projects/xmc4700_relax_kit/common/Dave/Generated/I2C_MASTER\i2c_master.h ****  *      while(1U)
1247:C:/Users/Yushev/git/optiga-trust-qi/projects/xmc4700_relax_kit/common/Dave/Generated/I2C_MASTER\i2c_master.h ****  *      {
1248:C:/Users/Yushev/git/optiga-trust-qi/projects/xmc4700_relax_kit/common/Dave/Generated/I2C_MASTER\i2c_master.h ****  *      }
1249:C:/Users/Yushev/git/optiga-trust-qi/projects/xmc4700_relax_kit/common/Dave/Generated/I2C_MASTER\i2c_master.h ****  *     }
1250:C:/Users/Yushev/git/optiga-trust-qi/projects/xmc4700_relax_kit/common/Dave/Generated/I2C_MASTER\i2c_master.h ****  *      return 1U;
1251:C:/Users/Yushev/git/optiga-trust-qi/projects/xmc4700_relax_kit/common/Dave/Generated/I2C_MASTER\i2c_master.h ****  *   }
1252:C:/Users/Yushev/git/optiga-trust-qi/projects/xmc4700_relax_kit/common/Dave/Generated/I2C_MASTER\i2c_master.h ****  * @endcode
1253:C:/Users/Yushev/git/optiga-trust-qi/projects/xmc4700_relax_kit/common/Dave/Generated/I2C_MASTER\i2c_master.h ****  *
1254:C:/Users/Yushev/git/optiga-trust-qi/projects/xmc4700_relax_kit/common/Dave/Generated/I2C_MASTER\i2c_master.h ****  */
1255:C:/Users/Yushev/git/optiga-trust-qi/projects/xmc4700_relax_kit/common/Dave/Generated/I2C_MASTER\i2c_master.h **** __STATIC_INLINE uint32_t I2C_MASTER_GetRXFIFOStatus(const I2C_MASTER_t* const handle)
1256:C:/Users/Yushev/git/optiga-trust-qi/projects/xmc4700_relax_kit/common/Dave/Generated/I2C_MASTER\i2c_master.h **** {
1257:C:/Users/Yushev/git/optiga-trust-qi/projects/xmc4700_relax_kit/common/Dave/Generated/I2C_MASTER\i2c_master.h ****   XMC_ASSERT("I2C_MASTER_GetRXFIFOStatus: invalid handle", (handle != NULL))
1258:C:/Users/Yushev/git/optiga-trust-qi/projects/xmc4700_relax_kit/common/Dave/Generated/I2C_MASTER\i2c_master.h ****   return XMC_USIC_CH_RXFIFO_GetEvent(handle->channel);
1259:C:/Users/Yushev/git/optiga-trust-qi/projects/xmc4700_relax_kit/common/Dave/Generated/I2C_MASTER\i2c_master.h **** }
1260:C:/Users/Yushev/git/optiga-trust-qi/projects/xmc4700_relax_kit/common/Dave/Generated/I2C_MASTER\i2c_master.h **** 
1261:C:/Users/Yushev/git/optiga-trust-qi/projects/xmc4700_relax_kit/common/Dave/Generated/I2C_MASTER\i2c_master.h **** /**
1262:C:/Users/Yushev/git/optiga-trust-qi/projects/xmc4700_relax_kit/common/Dave/Generated/I2C_MASTER\i2c_master.h ****  * @brief Function clears the specified FIFO event flag related to
1263:C:/Users/Yushev/git/optiga-trust-qi/projects/xmc4700_relax_kit/common/Dave/Generated/I2C_MASTER\i2c_master.h ****  * transmit FIFO.
1264:C:/Users/Yushev/git/optiga-trust-qi/projects/xmc4700_relax_kit/common/Dave/Generated/I2C_MASTER\i2c_master.h ****  *
1265:C:/Users/Yushev/git/optiga-trust-qi/projects/xmc4700_relax_kit/common/Dave/Generated/I2C_MASTER\i2c_master.h ****  *
1266:C:/Users/Yushev/git/optiga-trust-qi/projects/xmc4700_relax_kit/common/Dave/Generated/I2C_MASTER\i2c_master.h ****  * @param  handle I2C_MASTER APP handle pointer of type @ref I2C_MASTER_t
1267:C:/Users/Yushev/git/optiga-trust-qi/projects/xmc4700_relax_kit/common/Dave/Generated/I2C_MASTER\i2c_master.h ****  * @param  flag Value with event bits at their bit positions in TRBSR register to be cleared.\n
1268:C:/Users/Yushev/git/optiga-trust-qi/projects/xmc4700_relax_kit/common/Dave/Generated/I2C_MASTER\i2c_master.h ****  *             \b Range: Use type @ref XMC_USIC_CH_TXFIFO_EVENT_t. Multiple events can be combined 
1269:C:/Users/Yushev/git/optiga-trust-qi/projects/xmc4700_relax_kit/common/Dave/Generated/I2C_MASTER\i2c_master.h ****  *             \a OR operation.
1270:C:/Users/Yushev/git/optiga-trust-qi/projects/xmc4700_relax_kit/common/Dave/Generated/I2C_MASTER\i2c_master.h ****  *
1271:C:/Users/Yushev/git/optiga-trust-qi/projects/xmc4700_relax_kit/common/Dave/Generated/I2C_MASTER\i2c_master.h ****  * @return    None
1272:C:/Users/Yushev/git/optiga-trust-qi/projects/xmc4700_relax_kit/common/Dave/Generated/I2C_MASTER\i2c_master.h ****  *
1273:C:/Users/Yushev/git/optiga-trust-qi/projects/xmc4700_relax_kit/common/Dave/Generated/I2C_MASTER\i2c_master.h ****  * \par<b>Description:</b><br>
1274:C:/Users/Yushev/git/optiga-trust-qi/projects/xmc4700_relax_kit/common/Dave/Generated/I2C_MASTER\i2c_master.h ****  * Function clears a status bit in TRBSR register using the TRBSCR register. But the function does 
1275:C:/Users/Yushev/git/optiga-trust-qi/projects/xmc4700_relax_kit/common/Dave/Generated/I2C_MASTER\i2c_master.h ****  * value with the bit positions restricted to transmit FIFO status bits. User should ensure that th
1276:C:/Users/Yushev/git/optiga-trust-qi/projects/xmc4700_relax_kit/common/Dave/Generated/I2C_MASTER\i2c_master.h ****  * appropriately masked.
1277:C:/Users/Yushev/git/optiga-trust-qi/projects/xmc4700_relax_kit/common/Dave/Generated/I2C_MASTER\i2c_master.h ****  *
1278:C:/Users/Yushev/git/optiga-trust-qi/projects/xmc4700_relax_kit/common/Dave/Generated/I2C_MASTER\i2c_master.h ****  * Example Usage:
1279:C:/Users/Yushev/git/optiga-trust-qi/projects/xmc4700_relax_kit/common/Dave/Generated/I2C_MASTER\i2c_master.h ****  * @code
1280:C:/Users/Yushev/git/optiga-trust-qi/projects/xmc4700_relax_kit/common/Dave/Generated/I2C_MASTER\i2c_master.h ****  *
1281:C:/Users/Yushev/git/optiga-trust-qi/projects/xmc4700_relax_kit/common/Dave/Generated/I2C_MASTER\i2c_master.h ****  *  #include <DAVE.h>         //Declarations from DAVE Code Generation (includes SFR declaration)
1282:C:/Users/Yushev/git/optiga-trust-qi/projects/xmc4700_relax_kit/common/Dave/Generated/I2C_MASTER\i2c_master.h ****  *  #define SLAVE_ADDRESS 0xA0
1283:C:/Users/Yushev/git/optiga-trust-qi/projects/xmc4700_relax_kit/common/Dave/Generated/I2C_MASTER\i2c_master.h ****  *  uint8_t mem_address[2];
1284:C:/Users/Yushev/git/optiga-trust-qi/projects/xmc4700_relax_kit/common/Dave/Generated/I2C_MASTER\i2c_master.h ****  *  int main(void)
1285:C:/Users/Yushev/git/optiga-trust-qi/projects/xmc4700_relax_kit/common/Dave/Generated/I2C_MASTER\i2c_master.h ****  *  {
1286:C:/Users/Yushev/git/optiga-trust-qi/projects/xmc4700_relax_kit/common/Dave/Generated/I2C_MASTER\i2c_master.h ****  *    DAVE_STATUS_t init_status;
1287:C:/Users/Yushev/git/optiga-trust-qi/projects/xmc4700_relax_kit/common/Dave/Generated/I2C_MASTER\i2c_master.h ****  *
1288:C:/Users/Yushev/git/optiga-trust-qi/projects/xmc4700_relax_kit/common/Dave/Generated/I2C_MASTER\i2c_master.h ****  *    init_status = DAVE_Init();
1289:C:/Users/Yushev/git/optiga-trust-qi/projects/xmc4700_relax_kit/common/Dave/Generated/I2C_MASTER\i2c_master.h ****  *    if(init_status == DAVE_STATUS_SUCCESS)
1290:C:/Users/Yushev/git/optiga-trust-qi/projects/xmc4700_relax_kit/common/Dave/Generated/I2C_MASTER\i2c_master.h ****  *    {
1291:C:/Users/Yushev/git/optiga-trust-qi/projects/xmc4700_relax_kit/common/Dave/Generated/I2C_MASTER\i2c_master.h ****  *      mem_address[0] = 0x00; //memory which need to be read from slave
1292:C:/Users/Yushev/git/optiga-trust-qi/projects/xmc4700_relax_kit/common/Dave/Generated/I2C_MASTER\i2c_master.h ****  *      //Configure transmit fifo trigger limit as 10
1293:C:/Users/Yushev/git/optiga-trust-qi/projects/xmc4700_relax_kit/common/Dave/Generated/I2C_MASTER\i2c_master.h ****  *      I2C_MASTER_SetTXFIFOTriggerLimit(&I2C_MASTER_0, 16, 10);
1294:C:/Users/Yushev/git/optiga-trust-qi/projects/xmc4700_relax_kit/common/Dave/Generated/I2C_MASTER\i2c_master.h ****  *      I2C_MASTER_StartTransmitIRQ(&I2C_MASTER_0,true,SLAVE_ADDRESS,mem_address,1,false);
1295:C:/Users/Yushev/git/optiga-trust-qi/projects/xmc4700_relax_kit/common/Dave/Generated/I2C_MASTER\i2c_master.h ****  *      while(I2C_MASTER_IsTxBusy(&I2C_MASTER_0));
1296:C:/Users/Yushev/git/optiga-trust-qi/projects/xmc4700_relax_kit/common/Dave/Generated/I2C_MASTER\i2c_master.h ****  *      I2C_MASTER_StartTransmitIRQ(&I2C_MASTER_0,true,SLAVE_ADDRESS,mem_address,16,false);
1297:C:/Users/Yushev/git/optiga-trust-qi/projects/xmc4700_relax_kit/common/Dave/Generated/I2C_MASTER\i2c_master.h ****  *      //Wait for FIFO transmit standard buffer interrupt to fill it again with remaining data
1298:C:/Users/Yushev/git/optiga-trust-qi/projects/xmc4700_relax_kit/common/Dave/Generated/I2C_MASTER\i2c_master.h ****  *      while((I2C_MASTER_GetTXFIFOStatus(&I2C_MASTER_0) & XMC_USIC_CH_TXFIFO_EVENT_STANDARD) == 0)
1299:C:/Users/Yushev/git/optiga-trust-qi/projects/xmc4700_relax_kit/common/Dave/Generated/I2C_MASTER\i2c_master.h ****  *      I2C_MASTER_ClearTXFIFOStatus(&I2C_MASTER_0, XMC_USIC_CH_TXFIFO_EVENT_STANDARD);
1300:C:/Users/Yushev/git/optiga-trust-qi/projects/xmc4700_relax_kit/common/Dave/Generated/I2C_MASTER\i2c_master.h ****  *      I2C_MASTER_StartTransmitIRQ(&I2C_MASTER_0,true,SLAVE_ADDRESS,mem_address,6,false);
1301:C:/Users/Yushev/git/optiga-trust-qi/projects/xmc4700_relax_kit/common/Dave/Generated/I2C_MASTER\i2c_master.h ****  *    }
1302:C:/Users/Yushev/git/optiga-trust-qi/projects/xmc4700_relax_kit/common/Dave/Generated/I2C_MASTER\i2c_master.h ****  *    else
1303:C:/Users/Yushev/git/optiga-trust-qi/projects/xmc4700_relax_kit/common/Dave/Generated/I2C_MASTER\i2c_master.h ****  *    {
1304:C:/Users/Yushev/git/optiga-trust-qi/projects/xmc4700_relax_kit/common/Dave/Generated/I2C_MASTER\i2c_master.h ****  *      XMC_DEBUG("main: Application initialization failed");
1305:C:/Users/Yushev/git/optiga-trust-qi/projects/xmc4700_relax_kit/common/Dave/Generated/I2C_MASTER\i2c_master.h ****  *      while(1U)
1306:C:/Users/Yushev/git/optiga-trust-qi/projects/xmc4700_relax_kit/common/Dave/Generated/I2C_MASTER\i2c_master.h ****  *      {
1307:C:/Users/Yushev/git/optiga-trust-qi/projects/xmc4700_relax_kit/common/Dave/Generated/I2C_MASTER\i2c_master.h ****  *      }
1308:C:/Users/Yushev/git/optiga-trust-qi/projects/xmc4700_relax_kit/common/Dave/Generated/I2C_MASTER\i2c_master.h ****  *    }
1309:C:/Users/Yushev/git/optiga-trust-qi/projects/xmc4700_relax_kit/common/Dave/Generated/I2C_MASTER\i2c_master.h ****  *    return 1U;
1310:C:/Users/Yushev/git/optiga-trust-qi/projects/xmc4700_relax_kit/common/Dave/Generated/I2C_MASTER\i2c_master.h ****  *  }
1311:C:/Users/Yushev/git/optiga-trust-qi/projects/xmc4700_relax_kit/common/Dave/Generated/I2C_MASTER\i2c_master.h ****  * @endcode
1312:C:/Users/Yushev/git/optiga-trust-qi/projects/xmc4700_relax_kit/common/Dave/Generated/I2C_MASTER\i2c_master.h ****  *
1313:C:/Users/Yushev/git/optiga-trust-qi/projects/xmc4700_relax_kit/common/Dave/Generated/I2C_MASTER\i2c_master.h ****  */
1314:C:/Users/Yushev/git/optiga-trust-qi/projects/xmc4700_relax_kit/common/Dave/Generated/I2C_MASTER\i2c_master.h **** __STATIC_INLINE void I2C_MASTER_ClearTXFIFOStatus(const I2C_MASTER_t* const handle, const uint32_t 
1315:C:/Users/Yushev/git/optiga-trust-qi/projects/xmc4700_relax_kit/common/Dave/Generated/I2C_MASTER\i2c_master.h **** {
1316:C:/Users/Yushev/git/optiga-trust-qi/projects/xmc4700_relax_kit/common/Dave/Generated/I2C_MASTER\i2c_master.h ****   XMC_ASSERT("I2C_MASTER_ClearTXFIFOStatus: invalid handle", (handle != NULL))
1317:C:/Users/Yushev/git/optiga-trust-qi/projects/xmc4700_relax_kit/common/Dave/Generated/I2C_MASTER\i2c_master.h ****   XMC_USIC_CH_TXFIFO_ClearEvent(handle->channel, flag);
1318:C:/Users/Yushev/git/optiga-trust-qi/projects/xmc4700_relax_kit/common/Dave/Generated/I2C_MASTER\i2c_master.h **** }
1319:C:/Users/Yushev/git/optiga-trust-qi/projects/xmc4700_relax_kit/common/Dave/Generated/I2C_MASTER\i2c_master.h **** 
1320:C:/Users/Yushev/git/optiga-trust-qi/projects/xmc4700_relax_kit/common/Dave/Generated/I2C_MASTER\i2c_master.h **** /**
1321:C:/Users/Yushev/git/optiga-trust-qi/projects/xmc4700_relax_kit/common/Dave/Generated/I2C_MASTER\i2c_master.h ****  * @brief Function clears the specified FIFO event flag related to receive FIFO. It should be used 
1322:C:/Users/Yushev/git/optiga-trust-qi/projects/xmc4700_relax_kit/common/Dave/Generated/I2C_MASTER\i2c_master.h ****  * of standard receive buffer interrupt, alternative receive buffer interrupt and receive buffer er
1323:C:/Users/Yushev/git/optiga-trust-qi/projects/xmc4700_relax_kit/common/Dave/Generated/I2C_MASTER\i2c_master.h ****  *
1324:C:/Users/Yushev/git/optiga-trust-qi/projects/xmc4700_relax_kit/common/Dave/Generated/I2C_MASTER\i2c_master.h ****  *
1325:C:/Users/Yushev/git/optiga-trust-qi/projects/xmc4700_relax_kit/common/Dave/Generated/I2C_MASTER\i2c_master.h ****  * @param  handle I2C_MASTER APP handle pointer of type @ref I2C_MASTER_t
1326:C:/Users/Yushev/git/optiga-trust-qi/projects/xmc4700_relax_kit/common/Dave/Generated/I2C_MASTER\i2c_master.h ****  * @param  flag Value with event bits at the bit positions in TRBSR register to be cleared.\n
1327:C:/Users/Yushev/git/optiga-trust-qi/projects/xmc4700_relax_kit/common/Dave/Generated/I2C_MASTER\i2c_master.h ****  *             \b Range: Use type @ref XMC_USIC_CH_RXFIFO_EVENT_t for providing events.
1328:C:/Users/Yushev/git/optiga-trust-qi/projects/xmc4700_relax_kit/common/Dave/Generated/I2C_MASTER\i2c_master.h ****  *             Multiple events can be input by using \a OR operation.
1329:C:/Users/Yushev/git/optiga-trust-qi/projects/xmc4700_relax_kit/common/Dave/Generated/I2C_MASTER\i2c_master.h ****  *
1330:C:/Users/Yushev/git/optiga-trust-qi/projects/xmc4700_relax_kit/common/Dave/Generated/I2C_MASTER\i2c_master.h ****  * @return    None
1331:C:/Users/Yushev/git/optiga-trust-qi/projects/xmc4700_relax_kit/common/Dave/Generated/I2C_MASTER\i2c_master.h ****  *
1332:C:/Users/Yushev/git/optiga-trust-qi/projects/xmc4700_relax_kit/common/Dave/Generated/I2C_MASTER\i2c_master.h ****  * \par<b>Description:</b><br>
1333:C:/Users/Yushev/git/optiga-trust-qi/projects/xmc4700_relax_kit/common/Dave/Generated/I2C_MASTER\i2c_master.h ****  * Function clears a status bit in TRBSR using the TRBSCR register.
1334:C:/Users/Yushev/git/optiga-trust-qi/projects/xmc4700_relax_kit/common/Dave/Generated/I2C_MASTER\i2c_master.h ****  * The function does not mask the input value to clear only receive buffer
1335:C:/Users/Yushev/git/optiga-trust-qi/projects/xmc4700_relax_kit/common/Dave/Generated/I2C_MASTER\i2c_master.h ****  * events. So user should appropriately mask the input value before calling
1336:C:/Users/Yushev/git/optiga-trust-qi/projects/xmc4700_relax_kit/common/Dave/Generated/I2C_MASTER\i2c_master.h ****  * the function.
1337:C:/Users/Yushev/git/optiga-trust-qi/projects/xmc4700_relax_kit/common/Dave/Generated/I2C_MASTER\i2c_master.h ****  *
1338:C:/Users/Yushev/git/optiga-trust-qi/projects/xmc4700_relax_kit/common/Dave/Generated/I2C_MASTER\i2c_master.h ****  * Example Usage:
1339:C:/Users/Yushev/git/optiga-trust-qi/projects/xmc4700_relax_kit/common/Dave/Generated/I2C_MASTER\i2c_master.h ****  * @code
1340:C:/Users/Yushev/git/optiga-trust-qi/projects/xmc4700_relax_kit/common/Dave/Generated/I2C_MASTER\i2c_master.h ****  *
1341:C:/Users/Yushev/git/optiga-trust-qi/projects/xmc4700_relax_kit/common/Dave/Generated/I2C_MASTER\i2c_master.h ****  *  #include <DAVE.h>         //Declarations from DAVE Code Generation (includes SFR declaration)
1342:C:/Users/Yushev/git/optiga-trust-qi/projects/xmc4700_relax_kit/common/Dave/Generated/I2C_MASTER\i2c_master.h ****  *  #define SLAVE_ADDRESS 0xA0
1343:C:/Users/Yushev/git/optiga-trust-qi/projects/xmc4700_relax_kit/common/Dave/Generated/I2C_MASTER\i2c_master.h ****  *  uint8_t mem_address[2];
1344:C:/Users/Yushev/git/optiga-trust-qi/projects/xmc4700_relax_kit/common/Dave/Generated/I2C_MASTER\i2c_master.h ****  *  int main(void)
1345:C:/Users/Yushev/git/optiga-trust-qi/projects/xmc4700_relax_kit/common/Dave/Generated/I2C_MASTER\i2c_master.h ****  *  {
1346:C:/Users/Yushev/git/optiga-trust-qi/projects/xmc4700_relax_kit/common/Dave/Generated/I2C_MASTER\i2c_master.h ****  *    DAVE_STATUS_t init_status;
1347:C:/Users/Yushev/git/optiga-trust-qi/projects/xmc4700_relax_kit/common/Dave/Generated/I2C_MASTER\i2c_master.h ****  *
1348:C:/Users/Yushev/git/optiga-trust-qi/projects/xmc4700_relax_kit/common/Dave/Generated/I2C_MASTER\i2c_master.h ****  *    init_status = DAVE_Init();
1349:C:/Users/Yushev/git/optiga-trust-qi/projects/xmc4700_relax_kit/common/Dave/Generated/I2C_MASTER\i2c_master.h ****  *    if(init_status == DAVE_STATUS_SUCCESS)
1350:C:/Users/Yushev/git/optiga-trust-qi/projects/xmc4700_relax_kit/common/Dave/Generated/I2C_MASTER\i2c_master.h ****  *    {
1351:C:/Users/Yushev/git/optiga-trust-qi/projects/xmc4700_relax_kit/common/Dave/Generated/I2C_MASTER\i2c_master.h ****  *      mem_address[0] = 0x00;//memory which need to be read from slave
1352:C:/Users/Yushev/git/optiga-trust-qi/projects/xmc4700_relax_kit/common/Dave/Generated/I2C_MASTER\i2c_master.h ****  *      //Configure receive fifo trigger limit as 10
1353:C:/Users/Yushev/git/optiga-trust-qi/projects/xmc4700_relax_kit/common/Dave/Generated/I2C_MASTER\i2c_master.h ****  *      I2C_MASTER_SetRXFIFOTriggerLimit(&I2C_MASTER_0, 16, 10);
1354:C:/Users/Yushev/git/optiga-trust-qi/projects/xmc4700_relax_kit/common/Dave/Generated/I2C_MASTER\i2c_master.h ****  *      I2C_MASTER_StartTransmitIRQ(&I2C_MASTER_0,true,SLAVE_ADDRESS,mem_address,1,false);
1355:C:/Users/Yushev/git/optiga-trust-qi/projects/xmc4700_relax_kit/common/Dave/Generated/I2C_MASTER\i2c_master.h ****  *      while(I2C_MASTER_IsTxBusy(&I2C_MASTER_0));
1356:C:/Users/Yushev/git/optiga-trust-qi/projects/xmc4700_relax_kit/common/Dave/Generated/I2C_MASTER\i2c_master.h ****  *      I2C_MASTER_StartReceiveIRQ(&I2C_MASTER_0,true,SLAVE_ADDRESS,mem_address,16,true, true);
1357:C:/Users/Yushev/git/optiga-trust-qi/projects/xmc4700_relax_kit/common/Dave/Generated/I2C_MASTER\i2c_master.h ****  *      //Wait for FIFO transmit standard buffer interrupt to fill it again with remaining data
1358:C:/Users/Yushev/git/optiga-trust-qi/projects/xmc4700_relax_kit/common/Dave/Generated/I2C_MASTER\i2c_master.h ****  *      while((I2C_MASTER_GetRXFIFOStatus(&I2C_MASTER_0) & XMC_USIC_CH_RXFIFO_EVENT_STANDARD) == 0)
1359:C:/Users/Yushev/git/optiga-trust-qi/projects/xmc4700_relax_kit/common/Dave/Generated/I2C_MASTER\i2c_master.h ****  *      I2C_MASTER_ClearRXFIFOStatus(&I2C_MASTER_0, XMC_USIC_CH_RXFIFO_EVENT_STANDARD);
1360:C:/Users/Yushev/git/optiga-trust-qi/projects/xmc4700_relax_kit/common/Dave/Generated/I2C_MASTER\i2c_master.h ****  *      I2C_MASTER_StartReceiveIRQ(&I2C_MASTER_0,true,SLAVE_ADDRESS,mem_address,6,false, false);
1361:C:/Users/Yushev/git/optiga-trust-qi/projects/xmc4700_relax_kit/common/Dave/Generated/I2C_MASTER\i2c_master.h ****  *    }
1362:C:/Users/Yushev/git/optiga-trust-qi/projects/xmc4700_relax_kit/common/Dave/Generated/I2C_MASTER\i2c_master.h ****  *    else
1363:C:/Users/Yushev/git/optiga-trust-qi/projects/xmc4700_relax_kit/common/Dave/Generated/I2C_MASTER\i2c_master.h ****  *    {
1364:C:/Users/Yushev/git/optiga-trust-qi/projects/xmc4700_relax_kit/common/Dave/Generated/I2C_MASTER\i2c_master.h ****  *      XMC_DEBUG("main: Application initialization failed");
1365:C:/Users/Yushev/git/optiga-trust-qi/projects/xmc4700_relax_kit/common/Dave/Generated/I2C_MASTER\i2c_master.h ****  *      while(1U)
1366:C:/Users/Yushev/git/optiga-trust-qi/projects/xmc4700_relax_kit/common/Dave/Generated/I2C_MASTER\i2c_master.h ****  *      {
1367:C:/Users/Yushev/git/optiga-trust-qi/projects/xmc4700_relax_kit/common/Dave/Generated/I2C_MASTER\i2c_master.h ****  *      }
1368:C:/Users/Yushev/git/optiga-trust-qi/projects/xmc4700_relax_kit/common/Dave/Generated/I2C_MASTER\i2c_master.h ****  *    }
1369:C:/Users/Yushev/git/optiga-trust-qi/projects/xmc4700_relax_kit/common/Dave/Generated/I2C_MASTER\i2c_master.h ****  *    return 1U;
1370:C:/Users/Yushev/git/optiga-trust-qi/projects/xmc4700_relax_kit/common/Dave/Generated/I2C_MASTER\i2c_master.h ****  *  }
1371:C:/Users/Yushev/git/optiga-trust-qi/projects/xmc4700_relax_kit/common/Dave/Generated/I2C_MASTER\i2c_master.h ****  * @endcode
1372:C:/Users/Yushev/git/optiga-trust-qi/projects/xmc4700_relax_kit/common/Dave/Generated/I2C_MASTER\i2c_master.h ****  *
1373:C:/Users/Yushev/git/optiga-trust-qi/projects/xmc4700_relax_kit/common/Dave/Generated/I2C_MASTER\i2c_master.h ****  */
1374:C:/Users/Yushev/git/optiga-trust-qi/projects/xmc4700_relax_kit/common/Dave/Generated/I2C_MASTER\i2c_master.h **** __STATIC_INLINE void I2C_MASTER_ClearRXFIFOStatus(const I2C_MASTER_t* const handle, const uint32_t 
1375:C:/Users/Yushev/git/optiga-trust-qi/projects/xmc4700_relax_kit/common/Dave/Generated/I2C_MASTER\i2c_master.h **** {
1376:C:/Users/Yushev/git/optiga-trust-qi/projects/xmc4700_relax_kit/common/Dave/Generated/I2C_MASTER\i2c_master.h ****   XMC_ASSERT("I2C_MASTER_ClearRXFIFOStatus: invalid handle", (handle != NULL))
1377:C:/Users/Yushev/git/optiga-trust-qi/projects/xmc4700_relax_kit/common/Dave/Generated/I2C_MASTER\i2c_master.h ****   XMC_USIC_CH_RXFIFO_ClearEvent(handle->channel, flag);
1378:C:/Users/Yushev/git/optiga-trust-qi/projects/xmc4700_relax_kit/common/Dave/Generated/I2C_MASTER\i2c_master.h **** }
1379:C:/Users/Yushev/git/optiga-trust-qi/projects/xmc4700_relax_kit/common/Dave/Generated/I2C_MASTER\i2c_master.h **** 
1380:C:/Users/Yushev/git/optiga-trust-qi/projects/xmc4700_relax_kit/common/Dave/Generated/I2C_MASTER\i2c_master.h **** /**
1381:C:/Users/Yushev/git/optiga-trust-qi/projects/xmc4700_relax_kit/common/Dave/Generated/I2C_MASTER\i2c_master.h ****  * @brief Provides the received data from receive buffer.
1382:C:/Users/Yushev/git/optiga-trust-qi/projects/xmc4700_relax_kit/common/Dave/Generated/I2C_MASTER\i2c_master.h ****  *
1383:C:/Users/Yushev/git/optiga-trust-qi/projects/xmc4700_relax_kit/common/Dave/Generated/I2C_MASTER\i2c_master.h ****  * @param  handle I2C_MASTER APP handle pointer of type @ref I2C_MASTER_t
1384:C:/Users/Yushev/git/optiga-trust-qi/projects/xmc4700_relax_kit/common/Dave/Generated/I2C_MASTER\i2c_master.h ****  * @return uint8_t: Data read from RBUF.\n
1385:C:/Users/Yushev/git/optiga-trust-qi/projects/xmc4700_relax_kit/common/Dave/Generated/I2C_MASTER\i2c_master.h ****  *
1386:C:/Users/Yushev/git/optiga-trust-qi/projects/xmc4700_relax_kit/common/Dave/Generated/I2C_MASTER\i2c_master.h ****  * \par<b>Description:</b><br>
1387:C:/Users/Yushev/git/optiga-trust-qi/projects/xmc4700_relax_kit/common/Dave/Generated/I2C_MASTER\i2c_master.h ****  * This can be used in receive mode "Direct" to read the received data.
1388:C:/Users/Yushev/git/optiga-trust-qi/projects/xmc4700_relax_kit/common/Dave/Generated/I2C_MASTER\i2c_master.h ****  * If Rx FIFO is not configured, function reads the value of RBUF register.
1389:C:/Users/Yushev/git/optiga-trust-qi/projects/xmc4700_relax_kit/common/Dave/Generated/I2C_MASTER\i2c_master.h ****  * Otherwise it reads the data from OUTR register.
1390:C:/Users/Yushev/git/optiga-trust-qi/projects/xmc4700_relax_kit/common/Dave/Generated/I2C_MASTER\i2c_master.h ****  * Example Usage:
1391:C:/Users/Yushev/git/optiga-trust-qi/projects/xmc4700_relax_kit/common/Dave/Generated/I2C_MASTER\i2c_master.h ****  * @code
1392:C:/Users/Yushev/git/optiga-trust-qi/projects/xmc4700_relax_kit/common/Dave/Generated/I2C_MASTER\i2c_master.h ****  *
1393:C:/Users/Yushev/git/optiga-trust-qi/projects/xmc4700_relax_kit/common/Dave/Generated/I2C_MASTER\i2c_master.h ****  *  #include <DAVE.h>         //Declarations from DAVE Code Generation (includes SFR declaration)
1394:C:/Users/Yushev/git/optiga-trust-qi/projects/xmc4700_relax_kit/common/Dave/Generated/I2C_MASTER\i2c_master.h ****  *  #define SLAVE_ADDRESS 0xA0
1395:C:/Users/Yushev/git/optiga-trust-qi/projects/xmc4700_relax_kit/common/Dave/Generated/I2C_MASTER\i2c_master.h ****  *  int main(void)
1396:C:/Users/Yushev/git/optiga-trust-qi/projects/xmc4700_relax_kit/common/Dave/Generated/I2C_MASTER\i2c_master.h ****  *  {
1397:C:/Users/Yushev/git/optiga-trust-qi/projects/xmc4700_relax_kit/common/Dave/Generated/I2C_MASTER\i2c_master.h ****  *    DAVE_STATUS_t init_status;
1398:C:/Users/Yushev/git/optiga-trust-qi/projects/xmc4700_relax_kit/common/Dave/Generated/I2C_MASTER\i2c_master.h ****  *    uint8_t rec_data[10];
1399:C:/Users/Yushev/git/optiga-trust-qi/projects/xmc4700_relax_kit/common/Dave/Generated/I2C_MASTER\i2c_master.h ****  *    uint8_t index = 0,loc_index = 0;
1400:C:/Users/Yushev/git/optiga-trust-qi/projects/xmc4700_relax_kit/common/Dave/Generated/I2C_MASTER\i2c_master.h ****  *
1401:C:/Users/Yushev/git/optiga-trust-qi/projects/xmc4700_relax_kit/common/Dave/Generated/I2C_MASTER\i2c_master.h ****  *    init_status = DAVE_Init();
1402:C:/Users/Yushev/git/optiga-trust-qi/projects/xmc4700_relax_kit/common/Dave/Generated/I2C_MASTER\i2c_master.h ****  *    if(init_status == DAVE_STATUS_SUCCESS)
1403:C:/Users/Yushev/git/optiga-trust-qi/projects/xmc4700_relax_kit/common/Dave/Generated/I2C_MASTER\i2c_master.h ****  *    {
1404:C:/Users/Yushev/git/optiga-trust-qi/projects/xmc4700_relax_kit/common/Dave/Generated/I2C_MASTER\i2c_master.h ****  *      I2C_MASTER_SendStart(&I2C_MASTER_0, SLAVE_ADDRESS, XMC_I2C_CH_CMD_WRITE);
1405:C:/Users/Yushev/git/optiga-trust-qi/projects/xmc4700_relax_kit/common/Dave/Generated/I2C_MASTER\i2c_master.h ****  *      while(I2C_MASTER_GetFlagStatus(&I2C_MASTER_0, XMC_I2C_CH_STATUS_FLAG_ACK_RECEIVED) == 0U)
1406:C:/Users/Yushev/git/optiga-trust-qi/projects/xmc4700_relax_kit/common/Dave/Generated/I2C_MASTER\i2c_master.h ****  *      {
1407:C:/Users/Yushev/git/optiga-trust-qi/projects/xmc4700_relax_kit/common/Dave/Generated/I2C_MASTER\i2c_master.h ****  *       // wait for ACK
1408:C:/Users/Yushev/git/optiga-trust-qi/projects/xmc4700_relax_kit/common/Dave/Generated/I2C_MASTER\i2c_master.h ****  *      }
1409:C:/Users/Yushev/git/optiga-trust-qi/projects/xmc4700_relax_kit/common/Dave/Generated/I2C_MASTER\i2c_master.h ****  *      I2C_MASTER_ClearFlag(&I2C_MASTER_0,XMC_I2C_CH_STATUS_FLAG_ACK_RECEIVED);
1410:C:/Users/Yushev/git/optiga-trust-qi/projects/xmc4700_relax_kit/common/Dave/Generated/I2C_MASTER\i2c_master.h ****  *      // write to address 0
1411:C:/Users/Yushev/git/optiga-trust-qi/projects/xmc4700_relax_kit/common/Dave/Generated/I2C_MASTER\i2c_master.h ****  *      I2C_MASTER_TransmitByte(&I2C_MASTER_0, 0x00);
1412:C:/Users/Yushev/git/optiga-trust-qi/projects/xmc4700_relax_kit/common/Dave/Generated/I2C_MASTER\i2c_master.h ****  *      while(I2C_MASTER_GetFlagStatus(&I2C_MASTER_0, XMC_I2C_CH_STATUS_FLAG_ACK_RECEIVED) == 0U)
1413:C:/Users/Yushev/git/optiga-trust-qi/projects/xmc4700_relax_kit/common/Dave/Generated/I2C_MASTER\i2c_master.h ****  *      {
1414:C:/Users/Yushev/git/optiga-trust-qi/projects/xmc4700_relax_kit/common/Dave/Generated/I2C_MASTER\i2c_master.h ****  *       // wait for ACK
1415:C:/Users/Yushev/git/optiga-trust-qi/projects/xmc4700_relax_kit/common/Dave/Generated/I2C_MASTER\i2c_master.h ****  *      }
1416:C:/Users/Yushev/git/optiga-trust-qi/projects/xmc4700_relax_kit/common/Dave/Generated/I2C_MASTER\i2c_master.h ****  *      I2C_MASTER_ClearFlag(&I2C_MASTER_0,XMC_I2C_CH_STATUS_FLAG_ACK_RECEIVED);
1417:C:/Users/Yushev/git/optiga-trust-qi/projects/xmc4700_relax_kit/common/Dave/Generated/I2C_MASTER\i2c_master.h ****  *      I2C_MASTER_SendRepeatedStart(&I2C_MASTER_0, SLAVE_ADDRESS, XMC_I2C_CH_CMD_READ);
1418:C:/Users/Yushev/git/optiga-trust-qi/projects/xmc4700_relax_kit/common/Dave/Generated/I2C_MASTER\i2c_master.h ****  *      while(I2C_MASTER_GetFlagStatus(&I2C_MASTER_0, XMC_I2C_CH_STATUS_FLAG_ACK_RECEIVED) == 0U)
1419:C:/Users/Yushev/git/optiga-trust-qi/projects/xmc4700_relax_kit/common/Dave/Generated/I2C_MASTER\i2c_master.h ****  *      {
1420:C:/Users/Yushev/git/optiga-trust-qi/projects/xmc4700_relax_kit/common/Dave/Generated/I2C_MASTER\i2c_master.h ****  *        // wait for ACK
1421:C:/Users/Yushev/git/optiga-trust-qi/projects/xmc4700_relax_kit/common/Dave/Generated/I2C_MASTER\i2c_master.h ****  *      }
1422:C:/Users/Yushev/git/optiga-trust-qi/projects/xmc4700_relax_kit/common/Dave/Generated/I2C_MASTER\i2c_master.h ****  *      I2C_MASTER_ClearFlag(&I2C_MASTER_0,XMC_I2C_CH_STATUS_FLAG_ACK_RECEIVED);
1423:C:/Users/Yushev/git/optiga-trust-qi/projects/xmc4700_relax_kit/common/Dave/Generated/I2C_MASTER\i2c_master.h ****  *      while(index < 16)
1424:C:/Users/Yushev/git/optiga-trust-qi/projects/xmc4700_relax_kit/common/Dave/Generated/I2C_MASTER\i2c_master.h ****  *      {
1425:C:/Users/Yushev/git/optiga-trust-qi/projects/xmc4700_relax_kit/common/Dave/Generated/I2C_MASTER\i2c_master.h ****  *        I2C_MASTER_ReceiveACK(&I2C_MASTER_0);
1426:C:/Users/Yushev/git/optiga-trust-qi/projects/xmc4700_relax_kit/common/Dave/Generated/I2C_MASTER\i2c_master.h ****  *         index++;
1427:C:/Users/Yushev/git/optiga-trust-qi/projects/xmc4700_relax_kit/common/Dave/Generated/I2C_MASTER\i2c_master.h ****  *      }
1428:C:/Users/Yushev/git/optiga-trust-qi/projects/xmc4700_relax_kit/common/Dave/Generated/I2C_MASTER\i2c_master.h ****  *      //Wait when Rx FIFO is empty
1429:C:/Users/Yushev/git/optiga-trust-qi/projects/xmc4700_relax_kit/common/Dave/Generated/I2C_MASTER\i2c_master.h ****  *      while(!I2C_MASTER_IsRXFIFOEmpty(&I2C_MASTER_0))
1430:C:/Users/Yushev/git/optiga-trust-qi/projects/xmc4700_relax_kit/common/Dave/Generated/I2C_MASTER\i2c_master.h ****  *      {
1431:C:/Users/Yushev/git/optiga-trust-qi/projects/xmc4700_relax_kit/common/Dave/Generated/I2C_MASTER\i2c_master.h ****  *        rec_data[loc_index++] = I2C_MASTER_GetReceivedByte(&I2C_MASTER_0);
1432:C:/Users/Yushev/git/optiga-trust-qi/projects/xmc4700_relax_kit/common/Dave/Generated/I2C_MASTER\i2c_master.h ****  *      }
1433:C:/Users/Yushev/git/optiga-trust-qi/projects/xmc4700_relax_kit/common/Dave/Generated/I2C_MASTER\i2c_master.h ****  *    }
1434:C:/Users/Yushev/git/optiga-trust-qi/projects/xmc4700_relax_kit/common/Dave/Generated/I2C_MASTER\i2c_master.h ****  *    else
1435:C:/Users/Yushev/git/optiga-trust-qi/projects/xmc4700_relax_kit/common/Dave/Generated/I2C_MASTER\i2c_master.h ****  *    {
1436:C:/Users/Yushev/git/optiga-trust-qi/projects/xmc4700_relax_kit/common/Dave/Generated/I2C_MASTER\i2c_master.h ****  *      XMC_DEBUG("main: Application initialization failed");
1437:C:/Users/Yushev/git/optiga-trust-qi/projects/xmc4700_relax_kit/common/Dave/Generated/I2C_MASTER\i2c_master.h ****  *      while(1U)
1438:C:/Users/Yushev/git/optiga-trust-qi/projects/xmc4700_relax_kit/common/Dave/Generated/I2C_MASTER\i2c_master.h ****  *      {
1439:C:/Users/Yushev/git/optiga-trust-qi/projects/xmc4700_relax_kit/common/Dave/Generated/I2C_MASTER\i2c_master.h ****  *      }
1440:C:/Users/Yushev/git/optiga-trust-qi/projects/xmc4700_relax_kit/common/Dave/Generated/I2C_MASTER\i2c_master.h ****  *    }
1441:C:/Users/Yushev/git/optiga-trust-qi/projects/xmc4700_relax_kit/common/Dave/Generated/I2C_MASTER\i2c_master.h ****  *    return 1U;
1442:C:/Users/Yushev/git/optiga-trust-qi/projects/xmc4700_relax_kit/common/Dave/Generated/I2C_MASTER\i2c_master.h ****  *  }
1443:C:/Users/Yushev/git/optiga-trust-qi/projects/xmc4700_relax_kit/common/Dave/Generated/I2C_MASTER\i2c_master.h ****  * @endcode
1444:C:/Users/Yushev/git/optiga-trust-qi/projects/xmc4700_relax_kit/common/Dave/Generated/I2C_MASTER\i2c_master.h ****  *
1445:C:/Users/Yushev/git/optiga-trust-qi/projects/xmc4700_relax_kit/common/Dave/Generated/I2C_MASTER\i2c_master.h ****  */
1446:C:/Users/Yushev/git/optiga-trust-qi/projects/xmc4700_relax_kit/common/Dave/Generated/I2C_MASTER\i2c_master.h **** /* Wrapper to the LLD API for reading back the value of the RBUF or OUTR register */
1447:C:/Users/Yushev/git/optiga-trust-qi/projects/xmc4700_relax_kit/common/Dave/Generated/I2C_MASTER\i2c_master.h **** __STATIC_INLINE uint8_t I2C_MASTER_GetReceivedByte(I2C_MASTER_t * const handle)
1448:C:/Users/Yushev/git/optiga-trust-qi/projects/xmc4700_relax_kit/common/Dave/Generated/I2C_MASTER\i2c_master.h **** {
1449:C:/Users/Yushev/git/optiga-trust-qi/projects/xmc4700_relax_kit/common/Dave/Generated/I2C_MASTER\i2c_master.h ****   XMC_ASSERT("I2C_MASTER_GetReceivedByte: invalid handle", (handle != NULL))
1450:C:/Users/Yushev/git/optiga-trust-qi/projects/xmc4700_relax_kit/common/Dave/Generated/I2C_MASTER\i2c_master.h ****   return (uint8_t)XMC_I2C_CH_GetReceivedData(handle->channel);
1451:C:/Users/Yushev/git/optiga-trust-qi/projects/xmc4700_relax_kit/common/Dave/Generated/I2C_MASTER\i2c_master.h **** }
1452:C:/Users/Yushev/git/optiga-trust-qi/projects/xmc4700_relax_kit/common/Dave/Generated/I2C_MASTER\i2c_master.h **** 
1453:C:/Users/Yushev/git/optiga-trust-qi/projects/xmc4700_relax_kit/common/Dave/Generated/I2C_MASTER\i2c_master.h **** /**
1454:C:/Users/Yushev/git/optiga-trust-qi/projects/xmc4700_relax_kit/common/Dave/Generated/I2C_MASTER\i2c_master.h ****  * @brief Transmits single byte using I2C protocol.
1455:C:/Users/Yushev/git/optiga-trust-qi/projects/xmc4700_relax_kit/common/Dave/Generated/I2C_MASTER\i2c_master.h ****  *
1456:C:/Users/Yushev/git/optiga-trust-qi/projects/xmc4700_relax_kit/common/Dave/Generated/I2C_MASTER\i2c_master.h ****  * @param  handle I2C_MASTER APP handle pointer of type @ref I2C_MASTER_t
1457:C:/Users/Yushev/git/optiga-trust-qi/projects/xmc4700_relax_kit/common/Dave/Generated/I2C_MASTER\i2c_master.h ****  * @param  byte data byte to transmit. \n
1458:C:/Users/Yushev/git/optiga-trust-qi/projects/xmc4700_relax_kit/common/Dave/Generated/I2C_MASTER\i2c_master.h ****  * @return None\n
1459:C:/Users/Yushev/git/optiga-trust-qi/projects/xmc4700_relax_kit/common/Dave/Generated/I2C_MASTER\i2c_master.h ****  * 
1460:C:/Users/Yushev/git/optiga-trust-qi/projects/xmc4700_relax_kit/common/Dave/Generated/I2C_MASTER\i2c_master.h ****  * Example Usage:
1461:C:/Users/Yushev/git/optiga-trust-qi/projects/xmc4700_relax_kit/common/Dave/Generated/I2C_MASTER\i2c_master.h ****  *
1462:C:/Users/Yushev/git/optiga-trust-qi/projects/xmc4700_relax_kit/common/Dave/Generated/I2C_MASTER\i2c_master.h ****  * @code
1463:C:/Users/Yushev/git/optiga-trust-qi/projects/xmc4700_relax_kit/common/Dave/Generated/I2C_MASTER\i2c_master.h ****  *
1464:C:/Users/Yushev/git/optiga-trust-qi/projects/xmc4700_relax_kit/common/Dave/Generated/I2C_MASTER\i2c_master.h ****  *  #include <DAVE.h>                 //Declarations from DAVE Code Generation (includes SFR declar
1465:C:/Users/Yushev/git/optiga-trust-qi/projects/xmc4700_relax_kit/common/Dave/Generated/I2C_MASTER\i2c_master.h ****  *  #define SLAVE_ADDRESS 0xA0
1466:C:/Users/Yushev/git/optiga-trust-qi/projects/xmc4700_relax_kit/common/Dave/Generated/I2C_MASTER\i2c_master.h ****  *
1467:C:/Users/Yushev/git/optiga-trust-qi/projects/xmc4700_relax_kit/common/Dave/Generated/I2C_MASTER\i2c_master.h ****  *  int main(void)
1468:C:/Users/Yushev/git/optiga-trust-qi/projects/xmc4700_relax_kit/common/Dave/Generated/I2C_MASTER\i2c_master.h ****  *  {
1469:C:/Users/Yushev/git/optiga-trust-qi/projects/xmc4700_relax_kit/common/Dave/Generated/I2C_MASTER\i2c_master.h ****  *    DAVE_STATUS_t status;
1470:C:/Users/Yushev/git/optiga-trust-qi/projects/xmc4700_relax_kit/common/Dave/Generated/I2C_MASTER\i2c_master.h ****  *
1471:C:/Users/Yushev/git/optiga-trust-qi/projects/xmc4700_relax_kit/common/Dave/Generated/I2C_MASTER\i2c_master.h ****  *    status = DAVE_Init();
1472:C:/Users/Yushev/git/optiga-trust-qi/projects/xmc4700_relax_kit/common/Dave/Generated/I2C_MASTER\i2c_master.h ****  *
1473:C:/Users/Yushev/git/optiga-trust-qi/projects/xmc4700_relax_kit/common/Dave/Generated/I2C_MASTER\i2c_master.h ****  *    if(status == DAVE_STATUS_FAILURE)
1474:C:/Users/Yushev/git/optiga-trust-qi/projects/xmc4700_relax_kit/common/Dave/Generated/I2C_MASTER\i2c_master.h ****  *    {
1475:C:/Users/Yushev/git/optiga-trust-qi/projects/xmc4700_relax_kit/common/Dave/Generated/I2C_MASTER\i2c_master.h ****  *      XMC_DEBUG("DAVE APPs initialization failed\n");
1476:C:/Users/Yushev/git/optiga-trust-qi/projects/xmc4700_relax_kit/common/Dave/Generated/I2C_MASTER\i2c_master.h ****  *
1477:C:/Users/Yushev/git/optiga-trust-qi/projects/xmc4700_relax_kit/common/Dave/Generated/I2C_MASTER\i2c_master.h ****  *      while(1U)
1478:C:/Users/Yushev/git/optiga-trust-qi/projects/xmc4700_relax_kit/common/Dave/Generated/I2C_MASTER\i2c_master.h ****  *      {
1479:C:/Users/Yushev/git/optiga-trust-qi/projects/xmc4700_relax_kit/common/Dave/Generated/I2C_MASTER\i2c_master.h ****  *
1480:C:/Users/Yushev/git/optiga-trust-qi/projects/xmc4700_relax_kit/common/Dave/Generated/I2C_MASTER\i2c_master.h ****  *      }
1481:C:/Users/Yushev/git/optiga-trust-qi/projects/xmc4700_relax_kit/common/Dave/Generated/I2C_MASTER\i2c_master.h ****  *    }
1482:C:/Users/Yushev/git/optiga-trust-qi/projects/xmc4700_relax_kit/common/Dave/Generated/I2C_MASTER\i2c_master.h ****  *    I2C_MASTER_SendStart(&I2C_MASTER_0, SLAVE_ADDRESS, XMC_I2C_CH_CMD_WRITE);
