   1              	 .syntax unified
   2              	 .cpu cortex-m4
   3              	 .eabi_attribute 27,3
   4              	 .fpu fpv4-sp-d16
   5              	 .eabi_attribute 20,1
   6              	 .eabi_attribute 21,1
   7              	 .eabi_attribute 23,3
   8              	 .eabi_attribute 24,1
   9              	 .eabi_attribute 25,1
  10              	 .eabi_attribute 26,1
  11              	 .eabi_attribute 30,4
  12              	 .eabi_attribute 34,1
  13              	 .eabi_attribute 18,4
  14              	 .thumb
  15              	 .file "pal_logger.c"
  16              	 .text
  17              	.Ltext0:
  18              	 .cfi_sections .debug_frame
  19              	 .section .text.cunit_console_uart_end_of_transmit_callback,"ax",%progbits
  20              	 .align 1
  21              	 .global cunit_console_uart_end_of_transmit_callback
  22              	 .thumb
  23              	 .thumb_func
  25              	cunit_console_uart_end_of_transmit_callback:
  26              	.LFB387:
  27              	 .file 1 "C:/Users/Yushev/git/optiga-trust-qi/pal/xmc4700/pal_logger.c"
   1:C:/Users/Yushev/git/optiga-trust-qi/pal/xmc4700\pal_logger.c **** /**
   2:C:/Users/Yushev/git/optiga-trust-qi/pal/xmc4700\pal_logger.c **** * \copyright
   3:C:/Users/Yushev/git/optiga-trust-qi/pal/xmc4700\pal_logger.c **** * MIT License
   4:C:/Users/Yushev/git/optiga-trust-qi/pal/xmc4700\pal_logger.c **** *
   5:C:/Users/Yushev/git/optiga-trust-qi/pal/xmc4700\pal_logger.c **** * Copyright (c) 2020 Infineon Technologies AG
   6:C:/Users/Yushev/git/optiga-trust-qi/pal/xmc4700\pal_logger.c **** *
   7:C:/Users/Yushev/git/optiga-trust-qi/pal/xmc4700\pal_logger.c **** * Permission is hereby granted, free of charge, to any person obtaining a copy
   8:C:/Users/Yushev/git/optiga-trust-qi/pal/xmc4700\pal_logger.c **** * of this software and associated documentation files (the "Software"), to deal
   9:C:/Users/Yushev/git/optiga-trust-qi/pal/xmc4700\pal_logger.c **** * in the Software without restriction, including without limitation the rights
  10:C:/Users/Yushev/git/optiga-trust-qi/pal/xmc4700\pal_logger.c **** * to use, copy, modify, merge, publish, distribute, sublicense, and/or sell
  11:C:/Users/Yushev/git/optiga-trust-qi/pal/xmc4700\pal_logger.c **** * copies of the Software, and to permit persons to whom the Software is
  12:C:/Users/Yushev/git/optiga-trust-qi/pal/xmc4700\pal_logger.c **** * furnished to do so, subject to the following conditions:
  13:C:/Users/Yushev/git/optiga-trust-qi/pal/xmc4700\pal_logger.c **** *
  14:C:/Users/Yushev/git/optiga-trust-qi/pal/xmc4700\pal_logger.c **** * The above copyright notice and this permission notice shall be included in all
  15:C:/Users/Yushev/git/optiga-trust-qi/pal/xmc4700\pal_logger.c **** * copies or substantial portions of the Software.
  16:C:/Users/Yushev/git/optiga-trust-qi/pal/xmc4700\pal_logger.c **** *
  17:C:/Users/Yushev/git/optiga-trust-qi/pal/xmc4700\pal_logger.c **** * THE SOFTWARE IS PROVIDED "AS IS", WITHOUT WARRANTY OF ANY KIND, EXPRESS OR
  18:C:/Users/Yushev/git/optiga-trust-qi/pal/xmc4700\pal_logger.c **** * IMPLIED, INCLUDING BUT NOT LIMITED TO THE WARRANTIES OF MERCHANTABILITY,
  19:C:/Users/Yushev/git/optiga-trust-qi/pal/xmc4700\pal_logger.c **** * FITNESS FOR A PARTICULAR PURPOSE AND NONINFRINGEMENT. IN NO EVENT SHALL THE
  20:C:/Users/Yushev/git/optiga-trust-qi/pal/xmc4700\pal_logger.c **** * AUTHORS OR COPYRIGHT HOLDERS BE LIABLE FOR ANY CLAIM, DAMAGES OR OTHER
  21:C:/Users/Yushev/git/optiga-trust-qi/pal/xmc4700\pal_logger.c **** * LIABILITY, WHETHER IN AN ACTION OF CONTRACT, TORT OR OTHERWISE, ARISING FROM,
  22:C:/Users/Yushev/git/optiga-trust-qi/pal/xmc4700\pal_logger.c **** * OUT OF OR IN CONNECTION WITH THE SOFTWARE OR THE USE OR OTHER DEALINGS IN THE
  23:C:/Users/Yushev/git/optiga-trust-qi/pal/xmc4700\pal_logger.c **** * SOFTWARE
  24:C:/Users/Yushev/git/optiga-trust-qi/pal/xmc4700\pal_logger.c **** *
  25:C:/Users/Yushev/git/optiga-trust-qi/pal/xmc4700\pal_logger.c **** * \endcopyright
  26:C:/Users/Yushev/git/optiga-trust-qi/pal/xmc4700\pal_logger.c **** *
  27:C:/Users/Yushev/git/optiga-trust-qi/pal/xmc4700\pal_logger.c **** * \author Infineon Technologies AG
  28:C:/Users/Yushev/git/optiga-trust-qi/pal/xmc4700\pal_logger.c ****  *
  29:C:/Users/Yushev/git/optiga-trust-qi/pal/xmc4700\pal_logger.c ****  * \file    pal_logger.c
  30:C:/Users/Yushev/git/optiga-trust-qi/pal/xmc4700\pal_logger.c ****  *
  31:C:/Users/Yushev/git/optiga-trust-qi/pal/xmc4700\pal_logger.c ****  * \brief   This file provides the prototypes declarations for pal logger.
  32:C:/Users/Yushev/git/optiga-trust-qi/pal/xmc4700\pal_logger.c ****  *
  33:C:/Users/Yushev/git/optiga-trust-qi/pal/xmc4700\pal_logger.c ****  * \ingroup grPAL
  34:C:/Users/Yushev/git/optiga-trust-qi/pal/xmc4700\pal_logger.c ****  *
  35:C:/Users/Yushev/git/optiga-trust-qi/pal/xmc4700\pal_logger.c ****  * @{
  36:C:/Users/Yushev/git/optiga-trust-qi/pal/xmc4700\pal_logger.c ****  */
  37:C:/Users/Yushev/git/optiga-trust-qi/pal/xmc4700\pal_logger.c **** #include <DAVE.h>
  38:C:/Users/Yushev/git/optiga-trust-qi/pal/xmc4700\pal_logger.c **** #include "optiga/pal/pal_logger.h"
  39:C:/Users/Yushev/git/optiga-trust-qi/pal/xmc4700\pal_logger.c **** 
  40:C:/Users/Yushev/git/optiga-trust-qi/pal/xmc4700\pal_logger.c **** /// @cond hidden
  41:C:/Users/Yushev/git/optiga-trust-qi/pal/xmc4700\pal_logger.c **** 
  42:C:/Users/Yushev/git/optiga-trust-qi/pal/xmc4700\pal_logger.c **** //lint --e{552,714} suppress "Accessed by user of this structure" 
  43:C:/Users/Yushev/git/optiga-trust-qi/pal/xmc4700\pal_logger.c **** pal_logger_t logger_console =
  44:C:/Users/Yushev/git/optiga-trust-qi/pal/xmc4700\pal_logger.c **** {
  45:C:/Users/Yushev/git/optiga-trust-qi/pal/xmc4700\pal_logger.c ****         .logger_config_ptr = NULL,
  46:C:/Users/Yushev/git/optiga-trust-qi/pal/xmc4700\pal_logger.c ****         .logger_rx_flag = 1,
  47:C:/Users/Yushev/git/optiga-trust-qi/pal/xmc4700\pal_logger.c ****         .logger_tx_flag = 1
  48:C:/Users/Yushev/git/optiga-trust-qi/pal/xmc4700\pal_logger.c **** };
  49:C:/Users/Yushev/git/optiga-trust-qi/pal/xmc4700\pal_logger.c **** //lint --e{552} suppress "Accessed by user of this structure"
  50:C:/Users/Yushev/git/optiga-trust-qi/pal/xmc4700\pal_logger.c **** pal_logger_t cunit_console =
  51:C:/Users/Yushev/git/optiga-trust-qi/pal/xmc4700\pal_logger.c **** {
  52:C:/Users/Yushev/git/optiga-trust-qi/pal/xmc4700\pal_logger.c ****         .logger_config_ptr = (void*)(&cunit_logger),
  53:C:/Users/Yushev/git/optiga-trust-qi/pal/xmc4700\pal_logger.c ****         .logger_rx_flag = 1,
  54:C:/Users/Yushev/git/optiga-trust-qi/pal/xmc4700\pal_logger.c ****         .logger_tx_flag = 1
  55:C:/Users/Yushev/git/optiga-trust-qi/pal/xmc4700\pal_logger.c **** };
  56:C:/Users/Yushev/git/optiga-trust-qi/pal/xmc4700\pal_logger.c **** 
  57:C:/Users/Yushev/git/optiga-trust-qi/pal/xmc4700\pal_logger.c **** void cunit_console_uart_end_of_transmit_callback(void)
  58:C:/Users/Yushev/git/optiga-trust-qi/pal/xmc4700\pal_logger.c **** {
  28              	 .loc 1 58 0
  29              	 .cfi_startproc
  30              	 
  31              	 
  32              	 
  59:C:/Users/Yushev/git/optiga-trust-qi/pal/xmc4700\pal_logger.c ****     cunit_console.logger_tx_flag = 0;
  33              	 .loc 1 59 0
  34 0000 014B     	 ldr r3,.L2
  35 0002 0022     	 movs r2,#0
  36 0004 5A71     	 strb r2,[r3,#5]
  37 0006 7047     	 bx lr
  38              	.L3:
  39              	 .align 2
  40              	.L2:
  41 0008 00000000 	 .word .LANCHOR0
  42              	 .cfi_endproc
  43              	.LFE387:
  45              	 .section .text.cunit_console_uart_end_of_receive_callback,"ax",%progbits
  46              	 .align 1
  47              	 .global cunit_console_uart_end_of_receive_callback
  48              	 .thumb
  49              	 .thumb_func
  51              	cunit_console_uart_end_of_receive_callback:
  52              	.LFB388:
  60:C:/Users/Yushev/git/optiga-trust-qi/pal/xmc4700\pal_logger.c **** }
  61:C:/Users/Yushev/git/optiga-trust-qi/pal/xmc4700\pal_logger.c **** 
  62:C:/Users/Yushev/git/optiga-trust-qi/pal/xmc4700\pal_logger.c **** void cunit_console_uart_end_of_receive_callback(void)
  63:C:/Users/Yushev/git/optiga-trust-qi/pal/xmc4700\pal_logger.c **** {
  53              	 .loc 1 63 0
  54              	 .cfi_startproc
  55              	 
  56              	 
  57              	 
  64:C:/Users/Yushev/git/optiga-trust-qi/pal/xmc4700\pal_logger.c ****     cunit_console.logger_rx_flag = 0;
  58              	 .loc 1 64 0
  59 0000 014B     	 ldr r3,.L5
  60 0002 0022     	 movs r2,#0
  61 0004 1A71     	 strb r2,[r3,#4]
  62 0006 7047     	 bx lr
  63              	.L6:
  64              	 .align 2
  65              	.L5:
  66 0008 00000000 	 .word .LANCHOR0
  67              	 .cfi_endproc
  68              	.LFE388:
  70              	 .section .text.pal_logger_init,"ax",%progbits
  71              	 .align 1
  72              	 .global pal_logger_init
  73              	 .thumb
  74              	 .thumb_func
  76              	pal_logger_init:
  77              	.LFB389:
  65:C:/Users/Yushev/git/optiga-trust-qi/pal/xmc4700\pal_logger.c **** }
  66:C:/Users/Yushev/git/optiga-trust-qi/pal/xmc4700\pal_logger.c **** 
  67:C:/Users/Yushev/git/optiga-trust-qi/pal/xmc4700\pal_logger.c **** /// @endcond
  68:C:/Users/Yushev/git/optiga-trust-qi/pal/xmc4700\pal_logger.c **** 
  69:C:/Users/Yushev/git/optiga-trust-qi/pal/xmc4700\pal_logger.c **** 
  70:C:/Users/Yushev/git/optiga-trust-qi/pal/xmc4700\pal_logger.c **** pal_status_t pal_logger_init(void * p_logger_context)
  71:C:/Users/Yushev/git/optiga-trust-qi/pal/xmc4700\pal_logger.c **** {
  78              	 .loc 1 71 0
  79              	 .cfi_startproc
  80              	 
  81              	 
  82              	.LVL0:
  83 0000 08B5     	 push {r3,lr}
  84              	.LCFI0:
  85              	 .cfi_def_cfa_offset 8
  86              	 .cfi_offset 3,-8
  87              	 .cfi_offset 14,-4
  72:C:/Users/Yushev/git/optiga-trust-qi/pal/xmc4700\pal_logger.c ****     pal_status_t return_status = PAL_STATUS_FAILURE;
  73:C:/Users/Yushev/git/optiga-trust-qi/pal/xmc4700\pal_logger.c ****     pal_logger_t * p_log_context = p_logger_context;
  74:C:/Users/Yushev/git/optiga-trust-qi/pal/xmc4700\pal_logger.c **** 
  75:C:/Users/Yushev/git/optiga-trust-qi/pal/xmc4700\pal_logger.c ****     do
  76:C:/Users/Yushev/git/optiga-trust-qi/pal/xmc4700\pal_logger.c ****     {
  77:C:/Users/Yushev/git/optiga-trust-qi/pal/xmc4700\pal_logger.c ****         // The instance of VMCOMS is internally declared
  78:C:/Users/Yushev/git/optiga-trust-qi/pal/xmc4700\pal_logger.c ****         if(NULL == p_log_context->logger_config_ptr)
  88              	 .loc 1 78 0
  89 0002 0368     	 ldr r3,[r0]
  90 0004 0BB1     	 cbz r3,.L8
  91              	.LVL1:
  92              	.L11:
  79:C:/Users/Yushev/git/optiga-trust-qi/pal/xmc4700\pal_logger.c ****         {
  80:C:/Users/Yushev/git/optiga-trust-qi/pal/xmc4700\pal_logger.c ****             if(USBD_VCOM_STATUS_SUCCESS != USBD_VCOM_Connect())
  81:C:/Users/Yushev/git/optiga-trust-qi/pal/xmc4700\pal_logger.c ****             {
  82:C:/Users/Yushev/git/optiga-trust-qi/pal/xmc4700\pal_logger.c ****                 break;
  83:C:/Users/Yushev/git/optiga-trust-qi/pal/xmc4700\pal_logger.c ****             }
  84:C:/Users/Yushev/git/optiga-trust-qi/pal/xmc4700\pal_logger.c **** 
  85:C:/Users/Yushev/git/optiga-trust-qi/pal/xmc4700\pal_logger.c ****             while(!USBD_VCOM_IsEnumDone()){};
  86:C:/Users/Yushev/git/optiga-trust-qi/pal/xmc4700\pal_logger.c ****             return_status = PAL_STATUS_SUCCESS;
  87:C:/Users/Yushev/git/optiga-trust-qi/pal/xmc4700\pal_logger.c ****         }
  88:C:/Users/Yushev/git/optiga-trust-qi/pal/xmc4700\pal_logger.c ****         else
  89:C:/Users/Yushev/git/optiga-trust-qi/pal/xmc4700\pal_logger.c ****         {
  90:C:/Users/Yushev/git/optiga-trust-qi/pal/xmc4700\pal_logger.c ****             return_status = PAL_STATUS_SUCCESS;
  93              	 .loc 1 90 0
  94 0006 0020     	 movs r0,#0
  95 0008 08BD     	 pop {r3,pc}
  96              	.LVL2:
  97              	.L8:
  80:C:/Users/Yushev/git/optiga-trust-qi/pal/xmc4700\pal_logger.c ****             {
  98              	 .loc 1 80 0
  99 000a FFF7FEFF 	 bl USBD_VCOM_Connect
 100              	.LVL3:
 101 000e 20B9     	 cbnz r0,.L12
 102              	.L10:
  85:C:/Users/Yushev/git/optiga-trust-qi/pal/xmc4700\pal_logger.c ****             return_status = PAL_STATUS_SUCCESS;
 103              	 .loc 1 85 0 discriminator 1
 104 0010 FFF7FEFF 	 bl USBD_VCOM_IsEnumDone
 105              	.LVL4:
 106 0014 0028     	 cmp r0,#0
 107 0016 FBD0     	 beq .L10
 108 0018 F5E7     	 b .L11
 109              	.L12:
  72:C:/Users/Yushev/git/optiga-trust-qi/pal/xmc4700\pal_logger.c ****     pal_logger_t * p_log_context = p_logger_context;
 110              	 .loc 1 72 0
 111 001a 0120     	 movs r0,#1
 112              	.LVL5:
  91:C:/Users/Yushev/git/optiga-trust-qi/pal/xmc4700\pal_logger.c ****         }
  92:C:/Users/Yushev/git/optiga-trust-qi/pal/xmc4700\pal_logger.c ****     }while(FALSE);
  93:C:/Users/Yushev/git/optiga-trust-qi/pal/xmc4700\pal_logger.c ****     return return_status;
  94:C:/Users/Yushev/git/optiga-trust-qi/pal/xmc4700\pal_logger.c **** }
 113              	 .loc 1 94 0
 114 001c 08BD     	 pop {r3,pc}
 115              	 .cfi_endproc
 116              	.LFE389:
 118              	 .section .text.pal_logger_deinit,"ax",%progbits
 119              	 .align 1
 120              	 .global pal_logger_deinit
 121              	 .thumb
 122              	 .thumb_func
 124              	pal_logger_deinit:
 125              	.LFB390:
  95:C:/Users/Yushev/git/optiga-trust-qi/pal/xmc4700\pal_logger.c **** 
  96:C:/Users/Yushev/git/optiga-trust-qi/pal/xmc4700\pal_logger.c **** 
  97:C:/Users/Yushev/git/optiga-trust-qi/pal/xmc4700\pal_logger.c **** pal_status_t pal_logger_deinit(void * p_logger_context)
  98:C:/Users/Yushev/git/optiga-trust-qi/pal/xmc4700\pal_logger.c **** {
 126              	 .loc 1 98 0
 127              	 .cfi_startproc
 128              	 
 129              	 
 130              	.LVL6:
 131 0000 08B5     	 push {r3,lr}
 132              	.LCFI1:
 133              	 .cfi_def_cfa_offset 8
 134              	 .cfi_offset 3,-8
 135              	 .cfi_offset 14,-4
  99:C:/Users/Yushev/git/optiga-trust-qi/pal/xmc4700\pal_logger.c ****     pal_status_t return_status = PAL_STATUS_FAILURE;
 100:C:/Users/Yushev/git/optiga-trust-qi/pal/xmc4700\pal_logger.c ****     pal_logger_t * p_log_context = p_logger_context;
 101:C:/Users/Yushev/git/optiga-trust-qi/pal/xmc4700\pal_logger.c **** 
 102:C:/Users/Yushev/git/optiga-trust-qi/pal/xmc4700\pal_logger.c ****     do
 103:C:/Users/Yushev/git/optiga-trust-qi/pal/xmc4700\pal_logger.c ****     {
 104:C:/Users/Yushev/git/optiga-trust-qi/pal/xmc4700\pal_logger.c ****         // The instance of VMCOMS is internally declared
 105:C:/Users/Yushev/git/optiga-trust-qi/pal/xmc4700\pal_logger.c ****         if(NULL == p_log_context->logger_config_ptr)
 136              	 .loc 1 105 0
 137 0002 0368     	 ldr r3,[r0]
 138 0004 0BB9     	 cbnz r3,.L17
 106:C:/Users/Yushev/git/optiga-trust-qi/pal/xmc4700\pal_logger.c ****         {
 107:C:/Users/Yushev/git/optiga-trust-qi/pal/xmc4700\pal_logger.c ****             //lint --e{534} suppress "The return status of USBD_VCOM_Disconnect is not required to 
 108:C:/Users/Yushev/git/optiga-trust-qi/pal/xmc4700\pal_logger.c ****             USBD_VCOM_Disconnect();
 139              	 .loc 1 108 0
 140 0006 FFF7FEFF 	 bl USBD_VCOM_Disconnect
 141              	.LVL7:
 142              	.L17:
 109:C:/Users/Yushev/git/optiga-trust-qi/pal/xmc4700\pal_logger.c ****             return_status = PAL_STATUS_SUCCESS;
 110:C:/Users/Yushev/git/optiga-trust-qi/pal/xmc4700\pal_logger.c ****         }
 111:C:/Users/Yushev/git/optiga-trust-qi/pal/xmc4700\pal_logger.c ****         else
 112:C:/Users/Yushev/git/optiga-trust-qi/pal/xmc4700\pal_logger.c ****         {
 113:C:/Users/Yushev/git/optiga-trust-qi/pal/xmc4700\pal_logger.c ****             return_status = PAL_STATUS_SUCCESS;
 114:C:/Users/Yushev/git/optiga-trust-qi/pal/xmc4700\pal_logger.c ****         }
 115:C:/Users/Yushev/git/optiga-trust-qi/pal/xmc4700\pal_logger.c ****     }while(FALSE);
 116:C:/Users/Yushev/git/optiga-trust-qi/pal/xmc4700\pal_logger.c ****     return return_status;
 117:C:/Users/Yushev/git/optiga-trust-qi/pal/xmc4700\pal_logger.c **** }
 143              	 .loc 1 117 0
 144 000a 0020     	 movs r0,#0
 145 000c 08BD     	 pop {r3,pc}
 146              	 .cfi_endproc
 147              	.LFE390:
 149              	 .section .text.pal_logger_write,"ax",%progbits
 150              	 .align 1
 151              	 .global pal_logger_write
 152              	 .thumb
 153              	 .thumb_func
 155              	pal_logger_write:
 156              	.LFB391:
 118:C:/Users/Yushev/git/optiga-trust-qi/pal/xmc4700\pal_logger.c **** 
 119:C:/Users/Yushev/git/optiga-trust-qi/pal/xmc4700\pal_logger.c **** 
 120:C:/Users/Yushev/git/optiga-trust-qi/pal/xmc4700\pal_logger.c **** pal_status_t pal_logger_write(void * p_logger_context, const uint8_t * p_log_data, uint32_t log_dat
 121:C:/Users/Yushev/git/optiga-trust-qi/pal/xmc4700\pal_logger.c **** {
 157              	 .loc 1 121 0
 158              	 .cfi_startproc
 159              	 
 160              	 
 161              	.LVL8:
 162 0000 38B5     	 push {r3,r4,r5,lr}
 163              	.LCFI2:
 164              	 .cfi_def_cfa_offset 16
 165              	 .cfi_offset 3,-16
 166              	 .cfi_offset 4,-12
 167              	 .cfi_offset 5,-8
 168              	 .cfi_offset 14,-4
 169              	 .loc 1 121 0
 170 0002 0446     	 mov r4,r0
 171              	.LVL9:
 172 0004 0846     	 mov r0,r1
 173              	.LVL10:
 122:C:/Users/Yushev/git/optiga-trust-qi/pal/xmc4700\pal_logger.c **** 
 123:C:/Users/Yushev/git/optiga-trust-qi/pal/xmc4700\pal_logger.c ****     int32_t return_status = PAL_STATUS_FAILURE;
 124:C:/Users/Yushev/git/optiga-trust-qi/pal/xmc4700\pal_logger.c ****     pal_logger_t * p_log_context = p_logger_context;
 125:C:/Users/Yushev/git/optiga-trust-qi/pal/xmc4700\pal_logger.c **** 
 126:C:/Users/Yushev/git/optiga-trust-qi/pal/xmc4700\pal_logger.c ****     do
 127:C:/Users/Yushev/git/optiga-trust-qi/pal/xmc4700\pal_logger.c ****     {
 128:C:/Users/Yushev/git/optiga-trust-qi/pal/xmc4700\pal_logger.c ****         // The instance of VMCOMS is internally declared
 129:C:/Users/Yushev/git/optiga-trust-qi/pal/xmc4700\pal_logger.c ****         if(NULL == p_log_context->logger_config_ptr)
 174              	 .loc 1 129 0
 175 0006 2368     	 ldr r3,[r4]
 176 0008 4BB9     	 cbnz r3,.L19
 130:C:/Users/Yushev/git/optiga-trust-qi/pal/xmc4700\pal_logger.c ****         {
 131:C:/Users/Yushev/git/optiga-trust-qi/pal/xmc4700\pal_logger.c ****             if (USBD_VCOM_STATUS_SUCCESS != USBD_VCOM_SendData((int8_t *)p_log_data,(uint16_t)log_d
 177              	 .loc 1 131 0
 178 000a 91B2     	 uxth r1,r2
 179              	.LVL11:
 180 000c FFF7FEFF 	 bl USBD_VCOM_SendData
 181              	.LVL12:
 182 0010 0446     	 mov r4,r0
 183              	.LVL13:
 184 0012 70B9     	 cbnz r0,.L22
 132:C:/Users/Yushev/git/optiga-trust-qi/pal/xmc4700\pal_logger.c ****             {
 133:C:/Users/Yushev/git/optiga-trust-qi/pal/xmc4700\pal_logger.c ****                 break;
 134:C:/Users/Yushev/git/optiga-trust-qi/pal/xmc4700\pal_logger.c ****             }
 135:C:/Users/Yushev/git/optiga-trust-qi/pal/xmc4700\pal_logger.c ****             CDC_Device_USBTask(&USBD_VCOM_cdc_interface);
 185              	 .loc 1 135 0
 186 0014 0848     	 ldr r0,.L24
 187 0016 FFF7FEFF 	 bl CDC_Device_USBTask
 188              	.LVL14:
 136:C:/Users/Yushev/git/optiga-trust-qi/pal/xmc4700\pal_logger.c ****             return_status = PAL_STATUS_SUCCESS;
 189              	 .loc 1 136 0
 190 001a 2046     	 mov r0,r4
 191 001c 0AE0     	 b .L20
 192              	.LVL15:
 193              	.L19:
 137:C:/Users/Yushev/git/optiga-trust-qi/pal/xmc4700\pal_logger.c ****         }
 138:C:/Users/Yushev/git/optiga-trust-qi/pal/xmc4700\pal_logger.c ****         else
 139:C:/Users/Yushev/git/optiga-trust-qi/pal/xmc4700\pal_logger.c ****         {
 140:C:/Users/Yushev/git/optiga-trust-qi/pal/xmc4700\pal_logger.c ****             p_log_context->logger_tx_flag = 1U;
 194              	 .loc 1 140 0
 195 001e 0120     	 movs r0,#1
 196              	.LVL16:
 197 0020 6071     	 strb r0,[r4,#5]
 141:C:/Users/Yushev/git/optiga-trust-qi/pal/xmc4700\pal_logger.c **** 
 142:C:/Users/Yushev/git/optiga-trust-qi/pal/xmc4700\pal_logger.c ****             return_status = (int32_t)UART_Transmit(p_log_context->logger_config_ptr, (uint8_t *)p_l
 198              	 .loc 1 142 0
 199 0022 1846     	 mov r0,r3
 200 0024 FFF7FEFF 	 bl UART_Transmit
 201              	.LVL17:
 143:C:/Users/Yushev/git/optiga-trust-qi/pal/xmc4700\pal_logger.c ****             if (return_status != PAL_STATUS_SUCCESS)
 202              	 .loc 1 143 0
 203 0028 20B9     	 cbnz r0,.L20
 204              	.L21:
 144:C:/Users/Yushev/git/optiga-trust-qi/pal/xmc4700\pal_logger.c ****             {
 145:C:/Users/Yushev/git/optiga-trust-qi/pal/xmc4700\pal_logger.c ****                 break;
 146:C:/Users/Yushev/git/optiga-trust-qi/pal/xmc4700\pal_logger.c ****             }
 147:C:/Users/Yushev/git/optiga-trust-qi/pal/xmc4700\pal_logger.c ****             while (p_log_context->logger_tx_flag)
 205              	 .loc 1 147 0 discriminator 1
 206 002a 6379     	 ldrb r3,[r4,#5]
 207 002c 002B     	 cmp r3,#0
 208 002e FCD1     	 bne .L21
 209 0030 00E0     	 b .L20
 210              	.LVL18:
 211              	.L22:
 123:C:/Users/Yushev/git/optiga-trust-qi/pal/xmc4700\pal_logger.c ****     pal_logger_t * p_log_context = p_logger_context;
 212              	 .loc 1 123 0
 213 0032 0120     	 movs r0,#1
 214              	.LVL19:
 215              	.L20:
 148:C:/Users/Yushev/git/optiga-trust-qi/pal/xmc4700\pal_logger.c ****             {
 149:C:/Users/Yushev/git/optiga-trust-qi/pal/xmc4700\pal_logger.c **** 
 150:C:/Users/Yushev/git/optiga-trust-qi/pal/xmc4700\pal_logger.c ****             }
 151:C:/Users/Yushev/git/optiga-trust-qi/pal/xmc4700\pal_logger.c ****             return_status = PAL_STATUS_SUCCESS;
 152:C:/Users/Yushev/git/optiga-trust-qi/pal/xmc4700\pal_logger.c ****         }
 153:C:/Users/Yushev/git/optiga-trust-qi/pal/xmc4700\pal_logger.c ****     } while(0);
 154:C:/Users/Yushev/git/optiga-trust-qi/pal/xmc4700\pal_logger.c ****     return ((pal_status_t)return_status);
 155:C:/Users/Yushev/git/optiga-trust-qi/pal/xmc4700\pal_logger.c **** }
 216              	 .loc 1 155 0
 217 0034 80B2     	 uxth r0,r0
 218              	.LVL20:
 219 0036 38BD     	 pop {r3,r4,r5,pc}
 220              	.L25:
 221              	 .align 2
 222              	.L24:
 223 0038 00000000 	 .word USBD_VCOM_cdc_interface
 224              	 .cfi_endproc
 225              	.LFE391:
 227              	 .section .text.pal_logger_read,"ax",%progbits
 228              	 .align 1
 229              	 .global pal_logger_read
 230              	 .thumb
 231              	 .thumb_func
 233              	pal_logger_read:
 234              	.LFB392:
 156:C:/Users/Yushev/git/optiga-trust-qi/pal/xmc4700\pal_logger.c **** 
 157:C:/Users/Yushev/git/optiga-trust-qi/pal/xmc4700\pal_logger.c **** pal_status_t pal_logger_read(void * p_logger_context, uint8_t * p_log_data, uint32_t log_data_lengt
 158:C:/Users/Yushev/git/optiga-trust-qi/pal/xmc4700\pal_logger.c **** {
 235              	 .loc 1 158 0
 236              	 .cfi_startproc
 237              	 
 238              	 
 239              	.LVL21:
 240 0000 38B5     	 push {r3,r4,r5,lr}
 241              	.LCFI3:
 242              	 .cfi_def_cfa_offset 16
 243              	 .cfi_offset 3,-16
 244              	 .cfi_offset 4,-12
 245              	 .cfi_offset 5,-8
 246              	 .cfi_offset 14,-4
 247              	 .loc 1 158 0
 248 0002 0446     	 mov r4,r0
 249              	.LVL22:
 250 0004 0846     	 mov r0,r1
 251              	.LVL23:
 159:C:/Users/Yushev/git/optiga-trust-qi/pal/xmc4700\pal_logger.c **** 
 160:C:/Users/Yushev/git/optiga-trust-qi/pal/xmc4700\pal_logger.c ****     int32_t return_status = PAL_STATUS_FAILURE;
 161:C:/Users/Yushev/git/optiga-trust-qi/pal/xmc4700\pal_logger.c ****     pal_logger_t * p_log_context = p_logger_context;
 162:C:/Users/Yushev/git/optiga-trust-qi/pal/xmc4700\pal_logger.c **** 
 163:C:/Users/Yushev/git/optiga-trust-qi/pal/xmc4700\pal_logger.c ****     do
 164:C:/Users/Yushev/git/optiga-trust-qi/pal/xmc4700\pal_logger.c ****     {
 165:C:/Users/Yushev/git/optiga-trust-qi/pal/xmc4700\pal_logger.c ****         // The instance of VMCOMS is internally declared
 166:C:/Users/Yushev/git/optiga-trust-qi/pal/xmc4700\pal_logger.c ****         if(NULL == p_log_context->logger_config_ptr)
 252              	 .loc 1 166 0
 253 0006 2368     	 ldr r3,[r4]
 254 0008 4BB9     	 cbnz r3,.L27
 167:C:/Users/Yushev/git/optiga-trust-qi/pal/xmc4700\pal_logger.c ****         {
 168:C:/Users/Yushev/git/optiga-trust-qi/pal/xmc4700\pal_logger.c ****             if (USBD_VCOM_STATUS_SUCCESS != USBD_VCOM_ReceiveData((int8_t * )p_log_data,(uint16_t)l
 255              	 .loc 1 168 0
 256 000a 91B2     	 uxth r1,r2
 257              	.LVL24:
 258 000c FFF7FEFF 	 bl USBD_VCOM_ReceiveData
 259              	.LVL25:
 260 0010 0446     	 mov r4,r0
 261              	.LVL26:
 262 0012 70B9     	 cbnz r0,.L30
 169:C:/Users/Yushev/git/optiga-trust-qi/pal/xmc4700\pal_logger.c ****             {
 170:C:/Users/Yushev/git/optiga-trust-qi/pal/xmc4700\pal_logger.c ****                 break;
 171:C:/Users/Yushev/git/optiga-trust-qi/pal/xmc4700\pal_logger.c ****             }
 172:C:/Users/Yushev/git/optiga-trust-qi/pal/xmc4700\pal_logger.c ****             CDC_Device_USBTask(&USBD_VCOM_cdc_interface);
 263              	 .loc 1 172 0
 264 0014 0848     	 ldr r0,.L32
 265 0016 FFF7FEFF 	 bl CDC_Device_USBTask
 266              	.LVL27:
 173:C:/Users/Yushev/git/optiga-trust-qi/pal/xmc4700\pal_logger.c ****             return_status = PAL_STATUS_SUCCESS;
 267              	 .loc 1 173 0
 268 001a 2046     	 mov r0,r4
 269 001c 0AE0     	 b .L28
 270              	.LVL28:
 271              	.L27:
 174:C:/Users/Yushev/git/optiga-trust-qi/pal/xmc4700\pal_logger.c ****         }
 175:C:/Users/Yushev/git/optiga-trust-qi/pal/xmc4700\pal_logger.c ****         else
 176:C:/Users/Yushev/git/optiga-trust-qi/pal/xmc4700\pal_logger.c ****         {
 177:C:/Users/Yushev/git/optiga-trust-qi/pal/xmc4700\pal_logger.c ****             p_log_context->logger_rx_flag = 1U;
 272              	 .loc 1 177 0
 273 001e 0120     	 movs r0,#1
 274              	.LVL29:
 275 0020 2071     	 strb r0,[r4,#4]
 178:C:/Users/Yushev/git/optiga-trust-qi/pal/xmc4700\pal_logger.c ****             return_status = (int32_t)UART_Receive(p_log_context->logger_config_ptr, p_log_data, log
 276              	 .loc 1 178 0
 277 0022 1846     	 mov r0,r3
 278 0024 FFF7FEFF 	 bl UART_Receive
 279              	.LVL30:
 179:C:/Users/Yushev/git/optiga-trust-qi/pal/xmc4700\pal_logger.c ****             if (return_status != PAL_STATUS_SUCCESS)
 280              	 .loc 1 179 0
 281 0028 20B9     	 cbnz r0,.L28
 282              	.L29:
 180:C:/Users/Yushev/git/optiga-trust-qi/pal/xmc4700\pal_logger.c ****             {
 181:C:/Users/Yushev/git/optiga-trust-qi/pal/xmc4700\pal_logger.c ****                 break;
 182:C:/Users/Yushev/git/optiga-trust-qi/pal/xmc4700\pal_logger.c ****             }
 183:C:/Users/Yushev/git/optiga-trust-qi/pal/xmc4700\pal_logger.c ****             while (p_log_context->logger_rx_flag)
 283              	 .loc 1 183 0 discriminator 1
 284 002a 2379     	 ldrb r3,[r4,#4]
 285 002c 002B     	 cmp r3,#0
 286 002e FCD1     	 bne .L29
 287 0030 00E0     	 b .L28
 288              	.LVL31:
 289              	.L30:
 160:C:/Users/Yushev/git/optiga-trust-qi/pal/xmc4700\pal_logger.c ****     pal_logger_t * p_log_context = p_logger_context;
 290              	 .loc 1 160 0
 291 0032 0120     	 movs r0,#1
 292              	.LVL32:
 293              	.L28:
 184:C:/Users/Yushev/git/optiga-trust-qi/pal/xmc4700\pal_logger.c ****             {
 185:C:/Users/Yushev/git/optiga-trust-qi/pal/xmc4700\pal_logger.c **** 
 186:C:/Users/Yushev/git/optiga-trust-qi/pal/xmc4700\pal_logger.c ****             }
 187:C:/Users/Yushev/git/optiga-trust-qi/pal/xmc4700\pal_logger.c ****             return_status = PAL_STATUS_SUCCESS;
 188:C:/Users/Yushev/git/optiga-trust-qi/pal/xmc4700\pal_logger.c ****         }
 189:C:/Users/Yushev/git/optiga-trust-qi/pal/xmc4700\pal_logger.c ****     } while(0);
 190:C:/Users/Yushev/git/optiga-trust-qi/pal/xmc4700\pal_logger.c ****     return ((pal_status_t)return_status);
 191:C:/Users/Yushev/git/optiga-trust-qi/pal/xmc4700\pal_logger.c **** }
 294              	 .loc 1 191 0
 295 0034 80B2     	 uxth r0,r0
 296              	.LVL33:
 297 0036 38BD     	 pop {r3,r4,r5,pc}
 298              	.L33:
 299              	 .align 2
 300              	.L32:
 301 0038 00000000 	 .word USBD_VCOM_cdc_interface
 302              	 .cfi_endproc
 303              	.LFE392:
 305              	 .global cunit_console
 306              	 .global logger_console
 307              	 .section .data.cunit_console,"aw",%progbits
 308              	 .align 2
 309              	 .set .LANCHOR0,.+0
 312              	cunit_console:
 313 0000 00000000 	 .word cunit_logger
 314 0004 01       	 .byte 1
 315 0005 01       	 .byte 1
 316 0006 0000     	 .space 2
 317              	 .section .data.logger_console,"aw",%progbits
 318              	 .align 2
 321              	logger_console:
 322 0000 00000000 	 .word 0
 323 0004 01       	 .byte 1
 324 0005 01       	 .byte 1
 325 0006 0000     	 .space 2
 326              	 .text
 327              	.Letext0:
 328              	 .file 2 "c:\\users\\yushev\\dave_4-4-2_32bit_2018-02-23\\dave-ide-4.4.2-32bit\\eclipse\\arm-gcc-49\\arm-none-eabi\\include\\machine\\_default_types.h"
 329              	 .file 3 "c:\\users\\yushev\\dave_4-4-2_32bit_2018-02-23\\dave-ide-4.4.2-32bit\\eclipse\\arm-gcc-49\\arm-none-eabi\\include\\stdint.h"
 330              	 .file 4 "C:/Users/Yushev/git/optiga-trust-qi/projects/xmc4700_relax_kit/common/Libraries/CMSIS/Infineon/XMC4700_series/Include/XMC4700.h"
 331              	 .file 5 "C:/Users/Yushev/git/optiga-trust-qi/projects/xmc4700_relax_kit/common/Libraries/XMCLib/inc/xmc_gpio.h"
 332              	 .file 6 "C:/Users/Yushev/git/optiga-trust-qi/projects/xmc4700_relax_kit/common/Libraries/XMCLib/inc/xmc4_gpio.h"
 333              	 .file 7 "C:/Users/Yushev/git/optiga-trust-qi/projects/xmc4700_relax_kit/common/Libraries/XMCLib/inc/xmc_usic.h"
 334              	 .file 8 "C:/Users/Yushev/git/optiga-trust-qi/projects/xmc4700_relax_kit/common/Libraries/XMCLib/inc/xmc_usbd_regs.h"
 335              	 .file 9 "C:/Users/Yushev/git/optiga-trust-qi/projects/xmc4700_relax_kit/common/Libraries/XMCLib/inc/xmc_usbd.h"
 336              	 .file 10 "C:/Users/Yushev/git/optiga-trust-qi/projects/xmc4700_relax_kit/common/Dave/Generated/USBD/usbd.h"
 337              	 .file 11 "c:\\users\\yushev\\git\\optiga-trust-qi\\projects\\xmc4700_relax_kit\\common\\dave\\generated\\usbd\\usb\\core\\endpoint.h"
 338              	 .file 12 "c:\\users\\yushev\\git\\optiga-trust-qi\\projects\\xmc4700_relax_kit\\common\\dave\\generated\\usbd_vcom\\class_driver\\common\\cdc_class_common.h"
 339              	 .file 13 "c:\\users\\yushev\\git\\optiga-trust-qi\\projects\\xmc4700_relax_kit\\common\\dave\\generated\\usbd_vcom\\class_driver\\device/cdc_class_device.h"
 340              	 .file 14 "C:/Users/Yushev/git/optiga-trust-qi/projects/xmc4700_relax_kit/common/Dave/Generated/USBD_VCOM/usbd_vcom.h"
 341              	 .file 15 "C:/Users/Yushev/git/optiga-trust-qi/projects/xmc4700_relax_kit/common/Libraries/XMCLib/inc/xmc_uart.h"
 342              	 .file 16 "C:/Users/Yushev/git/optiga-trust-qi/projects/xmc4700_relax_kit/common/Dave/Generated/UART/uart.h"
 343              	 .file 17 "C:/Users/Yushev/git/optiga-trust-qi/optiga/include/optiga/pal/pal.h"
 344              	 .file 18 "C:/Users/Yushev/git/optiga-trust-qi/optiga/include/optiga/pal/pal_logger.h"
 345              	 .file 19 "C:/Users/Yushev/git/optiga-trust-qi/projects/xmc4700_relax_kit/common/Libraries/CMSIS/Include/core_cm4.h"
 346              	 .file 20 "C:/Users/Yushev/git/optiga-trust-qi/projects/xmc4700_relax_kit/common/Libraries/CMSIS/Infineon/XMC4700_series/Include/system_XMC4700.h"
 347              	 .file 21 "C:/Users/Yushev/git/optiga-trust-qi/projects/xmc4700_relax_kit/common/Dave/Generated/USBD/usbd_extern.h"
 348              	 .file 22 "C:/Users/Yushev/git/optiga-trust-qi/projects/xmc4700_relax_kit/common/Dave/Generated/USBD_VCOM/usbd_vcom_extern.h"
 349              	 .file 23 "C:/Users/Yushev/git/optiga-trust-qi/projects/xmc4700_relax_kit/common/Dave/Generated/UART/uart_extern.h"