   1              	 .syntax unified
   2              	 .cpu cortex-m4
   3              	 .eabi_attribute 27,3
   4              	 .fpu fpv4-sp-d16
   5              	 .eabi_attribute 20,1
   6              	 .eabi_attribute 21,1
   7              	 .eabi_attribute 23,3
   8              	 .eabi_attribute 24,1
   9              	 .eabi_attribute 25,1
  10              	 .eabi_attribute 26,1
  11              	 .eabi_attribute 30,4
  12              	 .eabi_attribute 34,1
  13              	 .eabi_attribute 18,4
  14              	 .thumb
  15              	 .file "ifx_i2c_transport_layer.c"
  16              	 .text
  17              	.Ltext0:
  18              	 .cfi_sections .debug_frame
  19              	 .section .text.ifx_i2c_tl_send_next_fragment,"ax",%progbits
  20              	 .align 1
  21              	 .thumb
  22              	 .thumb_func
  24              	ifx_i2c_tl_send_next_fragment:
  25              	.LFB4:
  26              	 .file 1 "C:/Users/Yushev/git/optiga-trust-qi/optiga/comms/ifx_i2c/ifx_i2c_transport_layer.c"
   1:C:/Users/Yushev/git/optiga-trust-qi/optiga/comms/ifx_i2c\ifx_i2c_transport_layer.c **** /**
   2:C:/Users/Yushev/git/optiga-trust-qi/optiga/comms/ifx_i2c\ifx_i2c_transport_layer.c **** * \copyright
   3:C:/Users/Yushev/git/optiga-trust-qi/optiga/comms/ifx_i2c\ifx_i2c_transport_layer.c **** * MIT License
   4:C:/Users/Yushev/git/optiga-trust-qi/optiga/comms/ifx_i2c\ifx_i2c_transport_layer.c **** *
   5:C:/Users/Yushev/git/optiga-trust-qi/optiga/comms/ifx_i2c\ifx_i2c_transport_layer.c **** * Copyright (c) 2020 Infineon Technologies AG
   6:C:/Users/Yushev/git/optiga-trust-qi/optiga/comms/ifx_i2c\ifx_i2c_transport_layer.c **** *
   7:C:/Users/Yushev/git/optiga-trust-qi/optiga/comms/ifx_i2c\ifx_i2c_transport_layer.c **** * Permission is hereby granted, free of charge, to any person obtaining a copy
   8:C:/Users/Yushev/git/optiga-trust-qi/optiga/comms/ifx_i2c\ifx_i2c_transport_layer.c **** * of this software and associated documentation files (the "Software"), to deal
   9:C:/Users/Yushev/git/optiga-trust-qi/optiga/comms/ifx_i2c\ifx_i2c_transport_layer.c **** * in the Software without restriction, including without limitation the rights
  10:C:/Users/Yushev/git/optiga-trust-qi/optiga/comms/ifx_i2c\ifx_i2c_transport_layer.c **** * to use, copy, modify, merge, publish, distribute, sublicense, and/or sell
  11:C:/Users/Yushev/git/optiga-trust-qi/optiga/comms/ifx_i2c\ifx_i2c_transport_layer.c **** * copies of the Software, and to permit persons to whom the Software is
  12:C:/Users/Yushev/git/optiga-trust-qi/optiga/comms/ifx_i2c\ifx_i2c_transport_layer.c **** * furnished to do so, subject to the following conditions:
  13:C:/Users/Yushev/git/optiga-trust-qi/optiga/comms/ifx_i2c\ifx_i2c_transport_layer.c **** *
  14:C:/Users/Yushev/git/optiga-trust-qi/optiga/comms/ifx_i2c\ifx_i2c_transport_layer.c **** * The above copyright notice and this permission notice shall be included in all
  15:C:/Users/Yushev/git/optiga-trust-qi/optiga/comms/ifx_i2c\ifx_i2c_transport_layer.c **** * copies or substantial portions of the Software.
  16:C:/Users/Yushev/git/optiga-trust-qi/optiga/comms/ifx_i2c\ifx_i2c_transport_layer.c **** *
  17:C:/Users/Yushev/git/optiga-trust-qi/optiga/comms/ifx_i2c\ifx_i2c_transport_layer.c **** * THE SOFTWARE IS PROVIDED "AS IS", WITHOUT WARRANTY OF ANY KIND, EXPRESS OR
  18:C:/Users/Yushev/git/optiga-trust-qi/optiga/comms/ifx_i2c\ifx_i2c_transport_layer.c **** * IMPLIED, INCLUDING BUT NOT LIMITED TO THE WARRANTIES OF MERCHANTABILITY,
  19:C:/Users/Yushev/git/optiga-trust-qi/optiga/comms/ifx_i2c\ifx_i2c_transport_layer.c **** * FITNESS FOR A PARTICULAR PURPOSE AND NONINFRINGEMENT. IN NO EVENT SHALL THE
  20:C:/Users/Yushev/git/optiga-trust-qi/optiga/comms/ifx_i2c\ifx_i2c_transport_layer.c **** * AUTHORS OR COPYRIGHT HOLDERS BE LIABLE FOR ANY CLAIM, DAMAGES OR OTHER
  21:C:/Users/Yushev/git/optiga-trust-qi/optiga/comms/ifx_i2c\ifx_i2c_transport_layer.c **** * LIABILITY, WHETHER IN AN ACTION OF CONTRACT, TORT OR OTHERWISE, ARISING FROM,
  22:C:/Users/Yushev/git/optiga-trust-qi/optiga/comms/ifx_i2c\ifx_i2c_transport_layer.c **** * OUT OF OR IN CONNECTION WITH THE SOFTWARE OR THE USE OR OTHER DEALINGS IN THE
  23:C:/Users/Yushev/git/optiga-trust-qi/optiga/comms/ifx_i2c\ifx_i2c_transport_layer.c **** * SOFTWARE
  24:C:/Users/Yushev/git/optiga-trust-qi/optiga/comms/ifx_i2c\ifx_i2c_transport_layer.c **** *
  25:C:/Users/Yushev/git/optiga-trust-qi/optiga/comms/ifx_i2c\ifx_i2c_transport_layer.c **** * \endcopyright
  26:C:/Users/Yushev/git/optiga-trust-qi/optiga/comms/ifx_i2c\ifx_i2c_transport_layer.c **** *
  27:C:/Users/Yushev/git/optiga-trust-qi/optiga/comms/ifx_i2c\ifx_i2c_transport_layer.c **** * \author Infineon Technologies AG
  28:C:/Users/Yushev/git/optiga-trust-qi/optiga/comms/ifx_i2c\ifx_i2c_transport_layer.c **** *
  29:C:/Users/Yushev/git/optiga-trust-qi/optiga/comms/ifx_i2c\ifx_i2c_transport_layer.c **** * \file ifx_i2c_transport_layer.c
  30:C:/Users/Yushev/git/optiga-trust-qi/optiga/comms/ifx_i2c\ifx_i2c_transport_layer.c **** *
  31:C:/Users/Yushev/git/optiga-trust-qi/optiga/comms/ifx_i2c\ifx_i2c_transport_layer.c **** * \brief   This file implements the APIs for transport layer of the Infineon I2C Protocol Stack lib
  32:C:/Users/Yushev/git/optiga-trust-qi/optiga/comms/ifx_i2c\ifx_i2c_transport_layer.c **** *
  33:C:/Users/Yushev/git/optiga-trust-qi/optiga/comms/ifx_i2c\ifx_i2c_transport_layer.c **** * \ingroup  grIFXI2C
  34:C:/Users/Yushev/git/optiga-trust-qi/optiga/comms/ifx_i2c\ifx_i2c_transport_layer.c **** *
  35:C:/Users/Yushev/git/optiga-trust-qi/optiga/comms/ifx_i2c\ifx_i2c_transport_layer.c **** * @{
  36:C:/Users/Yushev/git/optiga-trust-qi/optiga/comms/ifx_i2c\ifx_i2c_transport_layer.c **** */
  37:C:/Users/Yushev/git/optiga-trust-qi/optiga/comms/ifx_i2c\ifx_i2c_transport_layer.c **** 
  38:C:/Users/Yushev/git/optiga-trust-qi/optiga/comms/ifx_i2c\ifx_i2c_transport_layer.c **** #include "optiga/ifx_i2c/ifx_i2c_transport_layer.h"
  39:C:/Users/Yushev/git/optiga-trust-qi/optiga/comms/ifx_i2c\ifx_i2c_transport_layer.c **** #include "optiga/ifx_i2c/ifx_i2c_data_link_layer.h" // include lower layer header
  40:C:/Users/Yushev/git/optiga-trust-qi/optiga/comms/ifx_i2c\ifx_i2c_transport_layer.c **** 
  41:C:/Users/Yushev/git/optiga-trust-qi/optiga/comms/ifx_i2c\ifx_i2c_transport_layer.c **** /// @cond hidden
  42:C:/Users/Yushev/git/optiga-trust-qi/optiga/comms/ifx_i2c\ifx_i2c_transport_layer.c **** 
  43:C:/Users/Yushev/git/optiga-trust-qi/optiga/comms/ifx_i2c\ifx_i2c_transport_layer.c **** // Transport Layer states
  44:C:/Users/Yushev/git/optiga-trust-qi/optiga/comms/ifx_i2c\ifx_i2c_transport_layer.c **** #define TL_STATE_UNINIT                     (0x00)
  45:C:/Users/Yushev/git/optiga-trust-qi/optiga/comms/ifx_i2c\ifx_i2c_transport_layer.c **** #define TL_STATE_IDLE                       (0x01)
  46:C:/Users/Yushev/git/optiga-trust-qi/optiga/comms/ifx_i2c\ifx_i2c_transport_layer.c **** #define TL_STATE_TX                         (0x02)
  47:C:/Users/Yushev/git/optiga-trust-qi/optiga/comms/ifx_i2c\ifx_i2c_transport_layer.c **** #define TL_STATE_RX                         (0x04)
  48:C:/Users/Yushev/git/optiga-trust-qi/optiga/comms/ifx_i2c\ifx_i2c_transport_layer.c **** #define TL_STATE_CHAINING                   (0x05)
  49:C:/Users/Yushev/git/optiga-trust-qi/optiga/comms/ifx_i2c\ifx_i2c_transport_layer.c **** #define TL_STATE_ERROR                      (0x06)
  50:C:/Users/Yushev/git/optiga-trust-qi/optiga/comms/ifx_i2c\ifx_i2c_transport_layer.c **** #define TL_STATE_CHAINING_ERROR             (0x07)
  51:C:/Users/Yushev/git/optiga-trust-qi/optiga/comms/ifx_i2c\ifx_i2c_transport_layer.c **** #define TL_STATE_RESEND                     (0x08)
  52:C:/Users/Yushev/git/optiga-trust-qi/optiga/comms/ifx_i2c\ifx_i2c_transport_layer.c **** 
  53:C:/Users/Yushev/git/optiga-trust-qi/optiga/comms/ifx_i2c\ifx_i2c_transport_layer.c **** 
  54:C:/Users/Yushev/git/optiga-trust-qi/optiga/comms/ifx_i2c\ifx_i2c_transport_layer.c **** // Transport Layer chaining values
  55:C:/Users/Yushev/git/optiga-trust-qi/optiga/comms/ifx_i2c\ifx_i2c_transport_layer.c **** #define TL_CHAINING_NO                      (0x00)
  56:C:/Users/Yushev/git/optiga-trust-qi/optiga/comms/ifx_i2c\ifx_i2c_transport_layer.c **** #define TL_CHAINING_FIRST                   (0x01)
  57:C:/Users/Yushev/git/optiga-trust-qi/optiga/comms/ifx_i2c\ifx_i2c_transport_layer.c **** #define TL_CHAINING_INTERMEDIATE            (0x02)
  58:C:/Users/Yushev/git/optiga-trust-qi/optiga/comms/ifx_i2c\ifx_i2c_transport_layer.c **** #define TL_CHAINING_LAST                    (0x04)
  59:C:/Users/Yushev/git/optiga-trust-qi/optiga/comms/ifx_i2c\ifx_i2c_transport_layer.c **** #define TL_CHAINING_ERROR                   (0x07)
  60:C:/Users/Yushev/git/optiga-trust-qi/optiga/comms/ifx_i2c\ifx_i2c_transport_layer.c **** 
  61:C:/Users/Yushev/git/optiga-trust-qi/optiga/comms/ifx_i2c\ifx_i2c_transport_layer.c **** #define TL_PCTR_CHANNEL_MASK                (0xF8)
  62:C:/Users/Yushev/git/optiga-trust-qi/optiga/comms/ifx_i2c\ifx_i2c_transport_layer.c **** #define TL_PCTR_CHAIN_MASK                  (0x07)
  63:C:/Users/Yushev/git/optiga-trust-qi/optiga/comms/ifx_i2c\ifx_i2c_transport_layer.c **** #define TL_PCTR_INVALID                     (0xFF)
  64:C:/Users/Yushev/git/optiga-trust-qi/optiga/comms/ifx_i2c\ifx_i2c_transport_layer.c **** #define TL_PREVIOUS_CHAINING_STATUS         (0x02)
  65:C:/Users/Yushev/git/optiga-trust-qi/optiga/comms/ifx_i2c\ifx_i2c_transport_layer.c **** #define TL_CURRENT_CHAINING_STATUS          (0x08)
  66:C:/Users/Yushev/git/optiga-trust-qi/optiga/comms/ifx_i2c\ifx_i2c_transport_layer.c **** // Setup debug log statements
  67:C:/Users/Yushev/git/optiga-trust-qi/optiga/comms/ifx_i2c\ifx_i2c_transport_layer.c **** #if IFX_I2C_LOG_TL == 1
  68:C:/Users/Yushev/git/optiga-trust-qi/optiga/comms/ifx_i2c\ifx_i2c_transport_layer.c **** #define LOG_TL IFX_I2C_LOG
  69:C:/Users/Yushev/git/optiga-trust-qi/optiga/comms/ifx_i2c\ifx_i2c_transport_layer.c **** #else
  70:C:/Users/Yushev/git/optiga-trust-qi/optiga/comms/ifx_i2c\ifx_i2c_transport_layer.c **** #define LOG_TL(...)    //printf(__VA_ARGS__);
  71:C:/Users/Yushev/git/optiga-trust-qi/optiga/comms/ifx_i2c\ifx_i2c_transport_layer.c **** #endif
  72:C:/Users/Yushev/git/optiga-trust-qi/optiga/comms/ifx_i2c\ifx_i2c_transport_layer.c **** 
  73:C:/Users/Yushev/git/optiga-trust-qi/optiga/comms/ifx_i2c\ifx_i2c_transport_layer.c **** static const uint8_t g_pctr_states_table[TL_CURRENT_CHAINING_STATUS][TL_PREVIOUS_CHAINING_STATUS] =
  74:C:/Users/Yushev/git/optiga-trust-qi/optiga/comms/ifx_i2c\ifx_i2c_transport_layer.c ****                                                                                               {TL_C
  75:C:/Users/Yushev/git/optiga-trust-qi/optiga/comms/ifx_i2c\ifx_i2c_transport_layer.c ****                                                                                               {TL_C
  76:C:/Users/Yushev/git/optiga-trust-qi/optiga/comms/ifx_i2c\ifx_i2c_transport_layer.c ****                                                                                               {TL_C
  77:C:/Users/Yushev/git/optiga-trust-qi/optiga/comms/ifx_i2c\ifx_i2c_transport_layer.c ****                                                                                               {TL_P
  78:C:/Users/Yushev/git/optiga-trust-qi/optiga/comms/ifx_i2c\ifx_i2c_transport_layer.c ****                                                                                               {TL_C
  79:C:/Users/Yushev/git/optiga-trust-qi/optiga/comms/ifx_i2c\ifx_i2c_transport_layer.c ****                                                                                               {TL_P
  80:C:/Users/Yushev/git/optiga-trust-qi/optiga/comms/ifx_i2c\ifx_i2c_transport_layer.c ****                                                                                               {TL_P
  81:C:/Users/Yushev/git/optiga-trust-qi/optiga/comms/ifx_i2c\ifx_i2c_transport_layer.c ****                                                                                               {TL_C
  82:C:/Users/Yushev/git/optiga-trust-qi/optiga/comms/ifx_i2c\ifx_i2c_transport_layer.c ****                                                                                               };
  83:C:/Users/Yushev/git/optiga-trust-qi/optiga/comms/ifx_i2c\ifx_i2c_transport_layer.c **** 
  84:C:/Users/Yushev/git/optiga-trust-qi/optiga/comms/ifx_i2c\ifx_i2c_transport_layer.c **** _STATIC_H optiga_lib_status_t ifx_i2c_tl_send_next_fragment(ifx_i2c_context_t * p_ctx);
  85:C:/Users/Yushev/git/optiga-trust-qi/optiga/comms/ifx_i2c\ifx_i2c_transport_layer.c **** _STATIC_H void ifx_i2c_dl_event_handler(ifx_i2c_context_t * p_ctx,
  86:C:/Users/Yushev/git/optiga-trust-qi/optiga/comms/ifx_i2c\ifx_i2c_transport_layer.c ****                                         optiga_lib_status_t event,
  87:C:/Users/Yushev/git/optiga-trust-qi/optiga/comms/ifx_i2c\ifx_i2c_transport_layer.c ****                                         const uint8_t * p_data,
  88:C:/Users/Yushev/git/optiga-trust-qi/optiga/comms/ifx_i2c\ifx_i2c_transport_layer.c ****                                         uint16_t data_len);
  89:C:/Users/Yushev/git/optiga-trust-qi/optiga/comms/ifx_i2c\ifx_i2c_transport_layer.c **** _STATIC_H optiga_lib_status_t ifx_i2c_tl_resend_packets(ifx_i2c_context_t * p_ctx);
  90:C:/Users/Yushev/git/optiga-trust-qi/optiga/comms/ifx_i2c\ifx_i2c_transport_layer.c **** _STATIC_H optiga_lib_status_t ifx_i2c_tl_send_chaining_error(ifx_i2c_context_t * p_ctx);
  91:C:/Users/Yushev/git/optiga-trust-qi/optiga/comms/ifx_i2c\ifx_i2c_transport_layer.c **** _STATIC_H uint8_t ifx_i2c_tl_calculate_pctr(const ifx_i2c_context_t * p_ctx);
  92:C:/Users/Yushev/git/optiga-trust-qi/optiga/comms/ifx_i2c\ifx_i2c_transport_layer.c **** _STATIC_H optiga_lib_status_t ifx_i2c_tl_check_chaining_error(uint8_t current_chaning, uint8_t prev
  93:C:/Users/Yushev/git/optiga-trust-qi/optiga/comms/ifx_i2c\ifx_i2c_transport_layer.c **** /// @endcond
  94:C:/Users/Yushev/git/optiga-trust-qi/optiga/comms/ifx_i2c\ifx_i2c_transport_layer.c **** 
  95:C:/Users/Yushev/git/optiga-trust-qi/optiga/comms/ifx_i2c\ifx_i2c_transport_layer.c **** optiga_lib_status_t ifx_i2c_tl_init(ifx_i2c_context_t * p_ctx, ifx_i2c_event_handler_t handler)
  96:C:/Users/Yushev/git/optiga-trust-qi/optiga/comms/ifx_i2c\ifx_i2c_transport_layer.c **** {
  97:C:/Users/Yushev/git/optiga-trust-qi/optiga/comms/ifx_i2c\ifx_i2c_transport_layer.c ****     LOG_TL("[IFX-TL]: Init\n");
  98:C:/Users/Yushev/git/optiga-trust-qi/optiga/comms/ifx_i2c\ifx_i2c_transport_layer.c **** 
  99:C:/Users/Yushev/git/optiga-trust-qi/optiga/comms/ifx_i2c\ifx_i2c_transport_layer.c ****     p_ctx->tl.state = TL_STATE_UNINIT;
 100:C:/Users/Yushev/git/optiga-trust-qi/optiga/comms/ifx_i2c\ifx_i2c_transport_layer.c **** 
 101:C:/Users/Yushev/git/optiga-trust-qi/optiga/comms/ifx_i2c\ifx_i2c_transport_layer.c ****     // Initialize Data Link layer (and register event handler)
 102:C:/Users/Yushev/git/optiga-trust-qi/optiga/comms/ifx_i2c\ifx_i2c_transport_layer.c ****     if (IFX_I2C_STACK_SUCCESS != ifx_i2c_dl_init(p_ctx, ifx_i2c_dl_event_handler))
 103:C:/Users/Yushev/git/optiga-trust-qi/optiga/comms/ifx_i2c\ifx_i2c_transport_layer.c ****     {
 104:C:/Users/Yushev/git/optiga-trust-qi/optiga/comms/ifx_i2c\ifx_i2c_transport_layer.c ****         return (IFX_I2C_STACK_ERROR);
 105:C:/Users/Yushev/git/optiga-trust-qi/optiga/comms/ifx_i2c\ifx_i2c_transport_layer.c ****     }
 106:C:/Users/Yushev/git/optiga-trust-qi/optiga/comms/ifx_i2c\ifx_i2c_transport_layer.c ****     p_ctx->tl.initialization_state = TRUE;
 107:C:/Users/Yushev/git/optiga-trust-qi/optiga/comms/ifx_i2c\ifx_i2c_transport_layer.c ****     p_ctx->tl.upper_layer_event_handler = handler;
 108:C:/Users/Yushev/git/optiga-trust-qi/optiga/comms/ifx_i2c\ifx_i2c_transport_layer.c ****     p_ctx->tl.state = TL_STATE_IDLE;
 109:C:/Users/Yushev/git/optiga-trust-qi/optiga/comms/ifx_i2c\ifx_i2c_transport_layer.c ****     p_ctx->tl.max_packet_length = p_ctx->frame_size - (DL_HEADER_SIZE + TL_HEADER_SIZE);
 110:C:/Users/Yushev/git/optiga-trust-qi/optiga/comms/ifx_i2c\ifx_i2c_transport_layer.c **** 
 111:C:/Users/Yushev/git/optiga-trust-qi/optiga/comms/ifx_i2c\ifx_i2c_transport_layer.c ****     return (IFX_I2C_STACK_SUCCESS);
 112:C:/Users/Yushev/git/optiga-trust-qi/optiga/comms/ifx_i2c\ifx_i2c_transport_layer.c **** }
 113:C:/Users/Yushev/git/optiga-trust-qi/optiga/comms/ifx_i2c\ifx_i2c_transport_layer.c **** 
 114:C:/Users/Yushev/git/optiga-trust-qi/optiga/comms/ifx_i2c\ifx_i2c_transport_layer.c **** 
 115:C:/Users/Yushev/git/optiga-trust-qi/optiga/comms/ifx_i2c\ifx_i2c_transport_layer.c **** optiga_lib_status_t ifx_i2c_tl_transceive(ifx_i2c_context_t * p_ctx,
 116:C:/Users/Yushev/git/optiga-trust-qi/optiga/comms/ifx_i2c\ifx_i2c_transport_layer.c ****                                           uint8_t * p_packet,
 117:C:/Users/Yushev/git/optiga-trust-qi/optiga/comms/ifx_i2c\ifx_i2c_transport_layer.c ****                                           uint16_t packet_len,
 118:C:/Users/Yushev/git/optiga-trust-qi/optiga/comms/ifx_i2c\ifx_i2c_transport_layer.c ****                                           uint8_t * p_recv_packet,
 119:C:/Users/Yushev/git/optiga-trust-qi/optiga/comms/ifx_i2c\ifx_i2c_transport_layer.c ****                                           uint16_t * p_recv_packet_len)
 120:C:/Users/Yushev/git/optiga-trust-qi/optiga/comms/ifx_i2c\ifx_i2c_transport_layer.c **** {
 121:C:/Users/Yushev/git/optiga-trust-qi/optiga/comms/ifx_i2c\ifx_i2c_transport_layer.c ****     optiga_lib_status_t status = IFX_I2C_STACK_ERROR;
 122:C:/Users/Yushev/git/optiga-trust-qi/optiga/comms/ifx_i2c\ifx_i2c_transport_layer.c ****     LOG_TL("[IFX-TL]: Transceive txlen %d\n", packet_len);
 123:C:/Users/Yushev/git/optiga-trust-qi/optiga/comms/ifx_i2c\ifx_i2c_transport_layer.c **** 
 124:C:/Users/Yushev/git/optiga-trust-qi/optiga/comms/ifx_i2c\ifx_i2c_transport_layer.c ****     do
 125:C:/Users/Yushev/git/optiga-trust-qi/optiga/comms/ifx_i2c\ifx_i2c_transport_layer.c ****     {
 126:C:/Users/Yushev/git/optiga-trust-qi/optiga/comms/ifx_i2c\ifx_i2c_transport_layer.c ****         // Check function arguments
 127:C:/Users/Yushev/git/optiga-trust-qi/optiga/comms/ifx_i2c\ifx_i2c_transport_layer.c ****         if ((NULL == p_packet) || (0 == packet_len))
 128:C:/Users/Yushev/git/optiga-trust-qi/optiga/comms/ifx_i2c\ifx_i2c_transport_layer.c ****         {
 129:C:/Users/Yushev/git/optiga-trust-qi/optiga/comms/ifx_i2c\ifx_i2c_transport_layer.c ****             break;
 130:C:/Users/Yushev/git/optiga-trust-qi/optiga/comms/ifx_i2c\ifx_i2c_transport_layer.c ****         }
 131:C:/Users/Yushev/git/optiga-trust-qi/optiga/comms/ifx_i2c\ifx_i2c_transport_layer.c ****         // Transport Layer must be idle
 132:C:/Users/Yushev/git/optiga-trust-qi/optiga/comms/ifx_i2c\ifx_i2c_transport_layer.c ****         if (TL_STATE_IDLE != p_ctx->tl.state)
 133:C:/Users/Yushev/git/optiga-trust-qi/optiga/comms/ifx_i2c\ifx_i2c_transport_layer.c ****         {
 134:C:/Users/Yushev/git/optiga-trust-qi/optiga/comms/ifx_i2c\ifx_i2c_transport_layer.c ****             break;
 135:C:/Users/Yushev/git/optiga-trust-qi/optiga/comms/ifx_i2c\ifx_i2c_transport_layer.c ****         }
 136:C:/Users/Yushev/git/optiga-trust-qi/optiga/comms/ifx_i2c\ifx_i2c_transport_layer.c ****         p_ctx->tl.state = TL_STATE_TX;
 137:C:/Users/Yushev/git/optiga-trust-qi/optiga/comms/ifx_i2c\ifx_i2c_transport_layer.c ****         p_ctx->tl.api_start_time = pal_os_timer_get_time_in_milliseconds();
 138:C:/Users/Yushev/git/optiga-trust-qi/optiga/comms/ifx_i2c\ifx_i2c_transport_layer.c ****         p_ctx->tl.p_actual_packet = p_packet;
 139:C:/Users/Yushev/git/optiga-trust-qi/optiga/comms/ifx_i2c\ifx_i2c_transport_layer.c ****         p_ctx->tl.actual_packet_length = packet_len;
 140:C:/Users/Yushev/git/optiga-trust-qi/optiga/comms/ifx_i2c\ifx_i2c_transport_layer.c ****         p_ctx->tl.packet_offset = 0;
 141:C:/Users/Yushev/git/optiga-trust-qi/optiga/comms/ifx_i2c\ifx_i2c_transport_layer.c ****         p_ctx->tl.p_recv_packet_buffer = p_recv_packet;
 142:C:/Users/Yushev/git/optiga-trust-qi/optiga/comms/ifx_i2c\ifx_i2c_transport_layer.c ****         p_ctx->tl.p_recv_packet_buffer_length = p_recv_packet_len;
 143:C:/Users/Yushev/git/optiga-trust-qi/optiga/comms/ifx_i2c\ifx_i2c_transport_layer.c ****         p_ctx->tl.total_recv_length = 0;
 144:C:/Users/Yushev/git/optiga-trust-qi/optiga/comms/ifx_i2c\ifx_i2c_transport_layer.c ****         p_ctx->tl.chaining_error_count = 0;
 145:C:/Users/Yushev/git/optiga-trust-qi/optiga/comms/ifx_i2c\ifx_i2c_transport_layer.c ****         p_ctx->tl.master_chaining_error_count = 0;
 146:C:/Users/Yushev/git/optiga-trust-qi/optiga/comms/ifx_i2c\ifx_i2c_transport_layer.c ****         p_ctx->tl.transmission_completed = 0;
 147:C:/Users/Yushev/git/optiga-trust-qi/optiga/comms/ifx_i2c\ifx_i2c_transport_layer.c ****         p_ctx->tl.error_event = IFX_I2C_STACK_ERROR;
 148:C:/Users/Yushev/git/optiga-trust-qi/optiga/comms/ifx_i2c\ifx_i2c_transport_layer.c ****         status = ifx_i2c_tl_send_next_fragment(p_ctx);
 149:C:/Users/Yushev/git/optiga-trust-qi/optiga/comms/ifx_i2c\ifx_i2c_transport_layer.c ****     } while (FALSE);
 150:C:/Users/Yushev/git/optiga-trust-qi/optiga/comms/ifx_i2c\ifx_i2c_transport_layer.c ****     return (status);
 151:C:/Users/Yushev/git/optiga-trust-qi/optiga/comms/ifx_i2c\ifx_i2c_transport_layer.c **** }
 152:C:/Users/Yushev/git/optiga-trust-qi/optiga/comms/ifx_i2c\ifx_i2c_transport_layer.c **** 
 153:C:/Users/Yushev/git/optiga-trust-qi/optiga/comms/ifx_i2c\ifx_i2c_transport_layer.c **** 
 154:C:/Users/Yushev/git/optiga-trust-qi/optiga/comms/ifx_i2c\ifx_i2c_transport_layer.c **** _STATIC_H optiga_lib_status_t ifx_i2c_tl_resend_packets(ifx_i2c_context_t * p_ctx)
 155:C:/Users/Yushev/git/optiga-trust-qi/optiga/comms/ifx_i2c\ifx_i2c_transport_layer.c **** {
 156:C:/Users/Yushev/git/optiga-trust-qi/optiga/comms/ifx_i2c\ifx_i2c_transport_layer.c ****     // Transport Layer must be idle
 157:C:/Users/Yushev/git/optiga-trust-qi/optiga/comms/ifx_i2c\ifx_i2c_transport_layer.c ****     if (TL_STATE_IDLE != p_ctx->tl.state)
 158:C:/Users/Yushev/git/optiga-trust-qi/optiga/comms/ifx_i2c\ifx_i2c_transport_layer.c ****     {
 159:C:/Users/Yushev/git/optiga-trust-qi/optiga/comms/ifx_i2c\ifx_i2c_transport_layer.c ****         return (IFX_I2C_STACK_ERROR);
 160:C:/Users/Yushev/git/optiga-trust-qi/optiga/comms/ifx_i2c\ifx_i2c_transport_layer.c ****     }
 161:C:/Users/Yushev/git/optiga-trust-qi/optiga/comms/ifx_i2c\ifx_i2c_transport_layer.c **** 
 162:C:/Users/Yushev/git/optiga-trust-qi/optiga/comms/ifx_i2c\ifx_i2c_transport_layer.c ****     p_ctx->tl.packet_offset = 0;
 163:C:/Users/Yushev/git/optiga-trust-qi/optiga/comms/ifx_i2c\ifx_i2c_transport_layer.c ****     p_ctx->tl.total_recv_length = 0;
 164:C:/Users/Yushev/git/optiga-trust-qi/optiga/comms/ifx_i2c\ifx_i2c_transport_layer.c ****     p_ctx->tl.state = TL_STATE_TX;
 165:C:/Users/Yushev/git/optiga-trust-qi/optiga/comms/ifx_i2c\ifx_i2c_transport_layer.c ****     return (ifx_i2c_tl_send_next_fragment(p_ctx));
 166:C:/Users/Yushev/git/optiga-trust-qi/optiga/comms/ifx_i2c\ifx_i2c_transport_layer.c **** }
 167:C:/Users/Yushev/git/optiga-trust-qi/optiga/comms/ifx_i2c\ifx_i2c_transport_layer.c **** 
 168:C:/Users/Yushev/git/optiga-trust-qi/optiga/comms/ifx_i2c\ifx_i2c_transport_layer.c **** _STATIC_H uint8_t ifx_i2c_tl_calculate_pctr(const ifx_i2c_context_t * p_ctx)
 169:C:/Users/Yushev/git/optiga-trust-qi/optiga/comms/ifx_i2c\ifx_i2c_transport_layer.c **** {
 170:C:/Users/Yushev/git/optiga-trust-qi/optiga/comms/ifx_i2c\ifx_i2c_transport_layer.c ****     uint8_t pctr;
 171:C:/Users/Yushev/git/optiga-trust-qi/optiga/comms/ifx_i2c\ifx_i2c_transport_layer.c ****     uint16_t fragment_size = p_ctx->tl.max_packet_length;
 172:C:/Users/Yushev/git/optiga-trust-qi/optiga/comms/ifx_i2c\ifx_i2c_transport_layer.c ****     uint16_t remaining_data = p_ctx->tl.actual_packet_length - p_ctx->tl.packet_offset;
 173:C:/Users/Yushev/git/optiga-trust-qi/optiga/comms/ifx_i2c\ifx_i2c_transport_layer.c ****     // No chain
 174:C:/Users/Yushev/git/optiga-trust-qi/optiga/comms/ifx_i2c\ifx_i2c_transport_layer.c ****     if ((0 == p_ctx->tl.packet_offset) && (remaining_data <= fragment_size))
 175:C:/Users/Yushev/git/optiga-trust-qi/optiga/comms/ifx_i2c\ifx_i2c_transport_layer.c ****     {
 176:C:/Users/Yushev/git/optiga-trust-qi/optiga/comms/ifx_i2c\ifx_i2c_transport_layer.c ****         pctr = TL_CHAINING_NO;
 177:C:/Users/Yushev/git/optiga-trust-qi/optiga/comms/ifx_i2c\ifx_i2c_transport_layer.c ****     }
 178:C:/Users/Yushev/git/optiga-trust-qi/optiga/comms/ifx_i2c\ifx_i2c_transport_layer.c ****     // First chain
 179:C:/Users/Yushev/git/optiga-trust-qi/optiga/comms/ifx_i2c\ifx_i2c_transport_layer.c ****     else if ((0 == p_ctx->tl.packet_offset) && (remaining_data > fragment_size))
 180:C:/Users/Yushev/git/optiga-trust-qi/optiga/comms/ifx_i2c\ifx_i2c_transport_layer.c ****     {
 181:C:/Users/Yushev/git/optiga-trust-qi/optiga/comms/ifx_i2c\ifx_i2c_transport_layer.c ****         pctr = TL_CHAINING_FIRST;
 182:C:/Users/Yushev/git/optiga-trust-qi/optiga/comms/ifx_i2c\ifx_i2c_transport_layer.c ****     }
 183:C:/Users/Yushev/git/optiga-trust-qi/optiga/comms/ifx_i2c\ifx_i2c_transport_layer.c ****     // Intermediate chain
 184:C:/Users/Yushev/git/optiga-trust-qi/optiga/comms/ifx_i2c\ifx_i2c_transport_layer.c ****     else if ((0 != p_ctx->tl.packet_offset) && (remaining_data > fragment_size))
 185:C:/Users/Yushev/git/optiga-trust-qi/optiga/comms/ifx_i2c\ifx_i2c_transport_layer.c ****     {
 186:C:/Users/Yushev/git/optiga-trust-qi/optiga/comms/ifx_i2c\ifx_i2c_transport_layer.c ****         pctr = TL_CHAINING_INTERMEDIATE;
 187:C:/Users/Yushev/git/optiga-trust-qi/optiga/comms/ifx_i2c\ifx_i2c_transport_layer.c ****     }
 188:C:/Users/Yushev/git/optiga-trust-qi/optiga/comms/ifx_i2c\ifx_i2c_transport_layer.c ****     // Last chain
 189:C:/Users/Yushev/git/optiga-trust-qi/optiga/comms/ifx_i2c\ifx_i2c_transport_layer.c ****     else
 190:C:/Users/Yushev/git/optiga-trust-qi/optiga/comms/ifx_i2c\ifx_i2c_transport_layer.c ****     {
 191:C:/Users/Yushev/git/optiga-trust-qi/optiga/comms/ifx_i2c\ifx_i2c_transport_layer.c ****         pctr = TL_CHAINING_LAST;
 192:C:/Users/Yushev/git/optiga-trust-qi/optiga/comms/ifx_i2c\ifx_i2c_transport_layer.c ****     }
 193:C:/Users/Yushev/git/optiga-trust-qi/optiga/comms/ifx_i2c\ifx_i2c_transport_layer.c **** 
 194:C:/Users/Yushev/git/optiga-trust-qi/optiga/comms/ifx_i2c\ifx_i2c_transport_layer.c ****     return (pctr);
 195:C:/Users/Yushev/git/optiga-trust-qi/optiga/comms/ifx_i2c\ifx_i2c_transport_layer.c **** }
 196:C:/Users/Yushev/git/optiga-trust-qi/optiga/comms/ifx_i2c\ifx_i2c_transport_layer.c **** _STATIC_H optiga_lib_status_t ifx_i2c_tl_send_next_fragment(ifx_i2c_context_t * p_ctx)
 197:C:/Users/Yushev/git/optiga-trust-qi/optiga/comms/ifx_i2c\ifx_i2c_transport_layer.c **** {
  27              	 .loc 1 197 0
  28              	 .cfi_startproc
  29              	 
  30              	 
  31              	.LVL0:
  32 0000 70B5     	 push {r4,r5,r6,lr}
  33              	.LCFI0:
  34              	 .cfi_def_cfa_offset 16
  35              	 .cfi_offset 4,-16
  36              	 .cfi_offset 5,-12
  37              	 .cfi_offset 6,-8
  38              	 .cfi_offset 14,-4
  39              	.LBB4:
  40              	.LBB5:
 172:C:/Users/Yushev/git/optiga-trust-qi/optiga/comms/ifx_i2c\ifx_i2c_transport_layer.c ****     // No chain
  41              	 .loc 1 172 0
  42 0002 C28F     	 ldrh r2,[r0,#62]
  43 0004 B0F84060 	 ldrh r6,[r0,#64]
  44              	.LBE5:
  45              	.LBE4:
 198:C:/Users/Yushev/git/optiga-trust-qi/optiga/comms/ifx_i2c\ifx_i2c_transport_layer.c ****     uint8_t pctr;
 199:C:/Users/Yushev/git/optiga-trust-qi/optiga/comms/ifx_i2c\ifx_i2c_transport_layer.c ****     // Calculate size of fragment (last one might be shorter)
 200:C:/Users/Yushev/git/optiga-trust-qi/optiga/comms/ifx_i2c\ifx_i2c_transport_layer.c ****     uint16_t tl_fragment_size = p_ctx->tl.max_packet_length;
  46              	 .loc 1 200 0
  47 0008 B0F84240 	 ldrh r4,[r0,#66]
  48              	.LVL1:
  49              	.LBB8:
  50              	.LBB6:
 172:C:/Users/Yushev/git/optiga-trust-qi/optiga/comms/ifx_i2c\ifx_i2c_transport_layer.c ****     // No chain
  51              	 .loc 1 172 0
  52 000c 921B     	 subs r2,r2,r6
  53              	.LBE6:
  54              	.LBE8:
 197:C:/Users/Yushev/git/optiga-trust-qi/optiga/comms/ifx_i2c\ifx_i2c_transport_layer.c ****     uint8_t pctr;
  55              	 .loc 1 197 0
  56 000e 0546     	 mov r5,r0
  57              	.LBB9:
  58              	.LBB7:
 172:C:/Users/Yushev/git/optiga-trust-qi/optiga/comms/ifx_i2c\ifx_i2c_transport_layer.c ****     // No chain
  59              	 .loc 1 172 0
  60 0010 91B2     	 uxth r1,r2
  61              	.LVL2:
 174:C:/Users/Yushev/git/optiga-trust-qi/optiga/comms/ifx_i2c\ifx_i2c_transport_layer.c ****     {
  62              	 .loc 1 174 0
  63 0012 26B9     	 cbnz r6,.L2
 176:C:/Users/Yushev/git/optiga-trust-qi/optiga/comms/ifx_i2c\ifx_i2c_transport_layer.c ****     }
  64              	 .loc 1 176 0
  65 0014 A142     	 cmp r1,r4
  66 0016 94BF     	 ite ls
  67 0018 0023     	 movls r3,#0
  68 001a 0123     	 movhi r3,#1
  69 001c 03E0     	 b .L3
  70              	.L2:
 186:C:/Users/Yushev/git/optiga-trust-qi/optiga/comms/ifx_i2c\ifx_i2c_transport_layer.c ****     }
  71              	 .loc 1 186 0
  72 001e A142     	 cmp r1,r4
  73 0020 94BF     	 ite ls
  74 0022 0423     	 movls r3,#4
  75 0024 0223     	 movhi r3,#2
  76              	.L3:
  77              	.LVL3:
 172:C:/Users/Yushev/git/optiga-trust-qi/optiga/comms/ifx_i2c\ifx_i2c_transport_layer.c ****     // No chain
  78              	 .loc 1 172 0
  79 0026 A242     	 cmp r2,r4
  80 0028 B8BF     	 it lt
  81 002a 0C46     	 movlt r4,r1
  82              	.LVL4:
  83              	.LBE7:
  84              	.LBE9:
 201:C:/Users/Yushev/git/optiga-trust-qi/optiga/comms/ifx_i2c\ifx_i2c_transport_layer.c ****     pctr = ifx_i2c_tl_calculate_pctr(p_ctx);
 202:C:/Users/Yushev/git/optiga-trust-qi/optiga/comms/ifx_i2c\ifx_i2c_transport_layer.c ****     if ((p_ctx->tl.actual_packet_length - p_ctx->tl.packet_offset) < tl_fragment_size)
 203:C:/Users/Yushev/git/optiga-trust-qi/optiga/comms/ifx_i2c\ifx_i2c_transport_layer.c ****     {
 204:C:/Users/Yushev/git/optiga-trust-qi/optiga/comms/ifx_i2c\ifx_i2c_transport_layer.c ****         tl_fragment_size = p_ctx->tl.actual_packet_length - p_ctx->tl.packet_offset;
 205:C:/Users/Yushev/git/optiga-trust-qi/optiga/comms/ifx_i2c\ifx_i2c_transport_layer.c ****     }
 206:C:/Users/Yushev/git/optiga-trust-qi/optiga/comms/ifx_i2c\ifx_i2c_transport_layer.c ****     // Assign the pctr
 207:C:/Users/Yushev/git/optiga-trust-qi/optiga/comms/ifx_i2c\ifx_i2c_transport_layer.c ****     //lint --e{835} suppress "IFX_I2C_DL_HEADER_OFFSET macro is defined as 0x00 and is kept for fut
 208:C:/Users/Yushev/git/optiga-trust-qi/optiga/comms/ifx_i2c\ifx_i2c_transport_layer.c ****     p_ctx->tx_frame_buffer[IFX_I2C_TL_HEADER_OFFSET] = (pctr | IFX_I2C_PRESENCE_BIT);
 209:C:/Users/Yushev/git/optiga-trust-qi/optiga/comms/ifx_i2c\ifx_i2c_transport_layer.c ****     //copy the data
 210:C:/Users/Yushev/git/optiga-trust-qi/optiga/comms/ifx_i2c\ifx_i2c_transport_layer.c ****     //lint --e{835} suppress "IFX_I2C_DL_HEADER_OFFSET macro is defined as 0x00 and is kept for fut
 211:C:/Users/Yushev/git/optiga-trust-qi/optiga/comms/ifx_i2c\ifx_i2c_transport_layer.c ****     memcpy(p_ctx->tx_frame_buffer+IFX_I2C_TL_HEADER_OFFSET + 1,
 212:C:/Users/Yushev/git/optiga-trust-qi/optiga/comms/ifx_i2c\ifx_i2c_transport_layer.c ****            p_ctx->tl.p_actual_packet + p_ctx->tl.packet_offset,
  85              	 .loc 1 212 0
  86 002c A96B     	 ldr r1,[r5,#56]
  87              	.LVL5:
 208:C:/Users/Yushev/git/optiga-trust-qi/optiga/comms/ifx_i2c\ifx_i2c_transport_layer.c ****     //copy the data
  88              	 .loc 1 208 0
  89 002e 43F00803 	 orr r3,r3,#8
  90              	.LVL6:
 211:C:/Users/Yushev/git/optiga-trust-qi/optiga/comms/ifx_i2c\ifx_i2c_transport_layer.c ****            p_ctx->tl.p_actual_packet + p_ctx->tl.packet_offset,
  91              	 .loc 1 211 0
  92 0032 3144     	 add r1,r1,r6
 208:C:/Users/Yushev/git/optiga-trust-qi/optiga/comms/ifx_i2c\ifx_i2c_transport_layer.c ****     //copy the data
  93              	 .loc 1 208 0
  94 0034 85F8A732 	 strb r3,[r5,#679]
 211:C:/Users/Yushev/git/optiga-trust-qi/optiga/comms/ifx_i2c\ifx_i2c_transport_layer.c ****            p_ctx->tl.p_actual_packet + p_ctx->tl.packet_offset,
  95              	 .loc 1 211 0
  96 0038 05F52A70 	 add r0,r5,#680
  97              	.LVL7:
  98 003c 2246     	 mov r2,r4
  99              	.LVL8:
 100 003e FFF7FEFF 	 bl memcpy
 101              	.LVL9:
 213:C:/Users/Yushev/git/optiga-trust-qi/optiga/comms/ifx_i2c\ifx_i2c_transport_layer.c ****            tl_fragment_size);
 214:C:/Users/Yushev/git/optiga-trust-qi/optiga/comms/ifx_i2c\ifx_i2c_transport_layer.c ****     p_ctx->tl.packet_offset += tl_fragment_size;
 102              	 .loc 1 214 0
 103 0042 2644     	 add r6,r6,r4
 215:C:/Users/Yushev/git/optiga-trust-qi/optiga/comms/ifx_i2c\ifx_i2c_transport_layer.c ****     //send the fragment to dl layer
 216:C:/Users/Yushev/git/optiga-trust-qi/optiga/comms/ifx_i2c\ifx_i2c_transport_layer.c ****     return (ifx_i2c_dl_send_frame(p_ctx,tl_fragment_size + 1));
 104              	 .loc 1 216 0
 105 0044 611C     	 adds r1,r4,#1
 214:C:/Users/Yushev/git/optiga-trust-qi/optiga/comms/ifx_i2c\ifx_i2c_transport_layer.c ****     //send the fragment to dl layer
 106              	 .loc 1 214 0
 107 0046 A5F84060 	 strh r6,[r5,#64]
 108              	 .loc 1 216 0
 109 004a 2846     	 mov r0,r5
 110 004c 89B2     	 uxth r1,r1
 217:C:/Users/Yushev/git/optiga-trust-qi/optiga/comms/ifx_i2c\ifx_i2c_transport_layer.c **** }
 111              	 .loc 1 217 0
 112 004e BDE87040 	 pop {r4,r5,r6,lr}
 113              	.LCFI1:
 114              	 .cfi_restore 14
 115              	 .cfi_restore 6
 116              	 .cfi_restore 5
 117              	 .cfi_restore 4
 118              	 .cfi_def_cfa_offset 0
 119              	.LVL10:
 216:C:/Users/Yushev/git/optiga-trust-qi/optiga/comms/ifx_i2c\ifx_i2c_transport_layer.c **** }
 120              	 .loc 1 216 0
 121 0052 FFF7FEBF 	 b ifx_i2c_dl_send_frame
 122              	.LVL11:
 123              	 .cfi_endproc
 124              	.LFE4:
 126              	 .section .text.ifx_i2c_dl_event_handler,"ax",%progbits
 127              	 .align 1
 128              	 .thumb
 129              	 .thumb_func
 131              	ifx_i2c_dl_event_handler:
 132              	.LFB8:
 218:C:/Users/Yushev/git/optiga-trust-qi/optiga/comms/ifx_i2c\ifx_i2c_transport_layer.c **** 
 219:C:/Users/Yushev/git/optiga-trust-qi/optiga/comms/ifx_i2c\ifx_i2c_transport_layer.c **** _STATIC_H optiga_lib_status_t ifx_i2c_tl_send_chaining_error(ifx_i2c_context_t * p_ctx)
 220:C:/Users/Yushev/git/optiga-trust-qi/optiga/comms/ifx_i2c\ifx_i2c_transport_layer.c **** {
 221:C:/Users/Yushev/git/optiga-trust-qi/optiga/comms/ifx_i2c\ifx_i2c_transport_layer.c ****     uint16_t tl_fragment_size = 1;
 222:C:/Users/Yushev/git/optiga-trust-qi/optiga/comms/ifx_i2c\ifx_i2c_transport_layer.c ****     //lint --e{835} suppress "IFX_I2C_DL_HEADER_OFFSET macro is defined as 0x00 and is kept for fut
 223:C:/Users/Yushev/git/optiga-trust-qi/optiga/comms/ifx_i2c\ifx_i2c_transport_layer.c ****     p_ctx->tx_frame_buffer[IFX_I2C_TL_HEADER_OFFSET] = 0x07;
 224:C:/Users/Yushev/git/optiga-trust-qi/optiga/comms/ifx_i2c\ifx_i2c_transport_layer.c ****     p_ctx->tl.total_recv_length = 0;
 225:C:/Users/Yushev/git/optiga-trust-qi/optiga/comms/ifx_i2c\ifx_i2c_transport_layer.c ****     //send the fragment to dl layer
 226:C:/Users/Yushev/git/optiga-trust-qi/optiga/comms/ifx_i2c\ifx_i2c_transport_layer.c ****     return (ifx_i2c_dl_send_frame(p_ctx,tl_fragment_size));
 227:C:/Users/Yushev/git/optiga-trust-qi/optiga/comms/ifx_i2c\ifx_i2c_transport_layer.c **** }
 228:C:/Users/Yushev/git/optiga-trust-qi/optiga/comms/ifx_i2c\ifx_i2c_transport_layer.c **** 
 229:C:/Users/Yushev/git/optiga-trust-qi/optiga/comms/ifx_i2c\ifx_i2c_transport_layer.c **** _STATIC_H optiga_lib_status_t ifx_i2c_tl_check_chaining_error(uint8_t current_chaning,
 230:C:/Users/Yushev/git/optiga-trust-qi/optiga/comms/ifx_i2c\ifx_i2c_transport_layer.c ****                                                               uint8_t previous_chaining)
 231:C:/Users/Yushev/git/optiga-trust-qi/optiga/comms/ifx_i2c\ifx_i2c_transport_layer.c **** {
 232:C:/Users/Yushev/git/optiga-trust-qi/optiga/comms/ifx_i2c\ifx_i2c_transport_layer.c ****     optiga_lib_status_t status = IFX_I2C_STACK_ERROR;
 233:C:/Users/Yushev/git/optiga-trust-qi/optiga/comms/ifx_i2c\ifx_i2c_transport_layer.c ****     if (((TL_CHAINING_ERROR == current_chaning) || (TL_CHAINING_NO == current_chaning) ||
 234:C:/Users/Yushev/git/optiga-trust-qi/optiga/comms/ifx_i2c\ifx_i2c_transport_layer.c ****         (TL_CHAINING_LAST == current_chaning) || (TL_CHAINING_INTERMEDIATE == current_chaning) ||
 235:C:/Users/Yushev/git/optiga-trust-qi/optiga/comms/ifx_i2c\ifx_i2c_transport_layer.c ****         (TL_CHAINING_FIRST == current_chaning)))
 236:C:/Users/Yushev/git/optiga-trust-qi/optiga/comms/ifx_i2c\ifx_i2c_transport_layer.c ****     {
 237:C:/Users/Yushev/git/optiga-trust-qi/optiga/comms/ifx_i2c\ifx_i2c_transport_layer.c ****         if ((g_pctr_states_table[current_chaning][0] == previous_chaining) ||
 238:C:/Users/Yushev/git/optiga-trust-qi/optiga/comms/ifx_i2c\ifx_i2c_transport_layer.c ****             (g_pctr_states_table[current_chaning][1] == previous_chaining))
 239:C:/Users/Yushev/git/optiga-trust-qi/optiga/comms/ifx_i2c\ifx_i2c_transport_layer.c ****         {
 240:C:/Users/Yushev/git/optiga-trust-qi/optiga/comms/ifx_i2c\ifx_i2c_transport_layer.c ****             status =  IFX_I2C_STACK_SUCCESS;
 241:C:/Users/Yushev/git/optiga-trust-qi/optiga/comms/ifx_i2c\ifx_i2c_transport_layer.c ****         }
 242:C:/Users/Yushev/git/optiga-trust-qi/optiga/comms/ifx_i2c\ifx_i2c_transport_layer.c ****     }
 243:C:/Users/Yushev/git/optiga-trust-qi/optiga/comms/ifx_i2c\ifx_i2c_transport_layer.c **** 
 244:C:/Users/Yushev/git/optiga-trust-qi/optiga/comms/ifx_i2c\ifx_i2c_transport_layer.c ****     return (status);
 245:C:/Users/Yushev/git/optiga-trust-qi/optiga/comms/ifx_i2c\ifx_i2c_transport_layer.c **** }
 246:C:/Users/Yushev/git/optiga-trust-qi/optiga/comms/ifx_i2c\ifx_i2c_transport_layer.c **** // This functionality checks for the present bit in the pctr register
 247:C:/Users/Yushev/git/optiga-trust-qi/optiga/comms/ifx_i2c\ifx_i2c_transport_layer.c **** _STATIC_H  optiga_lib_status_t presence_bit_check(const ifx_i2c_context_t * p_ctx,
 248:C:/Users/Yushev/git/optiga-trust-qi/optiga/comms/ifx_i2c\ifx_i2c_transport_layer.c ****                                                   uint8_t pctr)
 249:C:/Users/Yushev/git/optiga-trust-qi/optiga/comms/ifx_i2c\ifx_i2c_transport_layer.c **** {
 250:C:/Users/Yushev/git/optiga-trust-qi/optiga/comms/ifx_i2c\ifx_i2c_transport_layer.c ****     optiga_lib_status_t return_status= IFX_I2C_STACK_SUCCESS;
 251:C:/Users/Yushev/git/optiga-trust-qi/optiga/comms/ifx_i2c\ifx_i2c_transport_layer.c ****     uint8_t pctr_value;
 252:C:/Users/Yushev/git/optiga-trust-qi/optiga/comms/ifx_i2c\ifx_i2c_transport_layer.c **** 
 253:C:/Users/Yushev/git/optiga-trust-qi/optiga/comms/ifx_i2c\ifx_i2c_transport_layer.c ****     pctr_value = (pctr & TL_PCTR_CHANNEL_MASK);
 254:C:/Users/Yushev/git/optiga-trust-qi/optiga/comms/ifx_i2c\ifx_i2c_transport_layer.c ****     //lint --e{774} suppress "This value changes based on presentation layer macro"
 255:C:/Users/Yushev/git/optiga-trust-qi/optiga/comms/ifx_i2c\ifx_i2c_transport_layer.c ****     if (0 != IFX_I2C_PRESENCE_BIT_CHECK)
 256:C:/Users/Yushev/git/optiga-trust-qi/optiga/comms/ifx_i2c\ifx_i2c_transport_layer.c ****     {
 257:C:/Users/Yushev/git/optiga-trust-qi/optiga/comms/ifx_i2c\ifx_i2c_transport_layer.c ****         if ((FALSE == p_ctx->tl.initialization_state) && ((TL_CHAINING_NO == (pctr & TL_PCTR_CHAIN_
 258:C:/Users/Yushev/git/optiga-trust-qi/optiga/comms/ifx_i2c\ifx_i2c_transport_layer.c ****             || (TL_CHAINING_FIRST == (pctr & TL_PCTR_CHAIN_MASK))))
 259:C:/Users/Yushev/git/optiga-trust-qi/optiga/comms/ifx_i2c\ifx_i2c_transport_layer.c ****         {
 260:C:/Users/Yushev/git/optiga-trust-qi/optiga/comms/ifx_i2c\ifx_i2c_transport_layer.c ****             if (IFX_I2C_PRESENCE_BIT_CHECK != pctr_value)
 261:C:/Users/Yushev/git/optiga-trust-qi/optiga/comms/ifx_i2c\ifx_i2c_transport_layer.c ****             {
 262:C:/Users/Yushev/git/optiga-trust-qi/optiga/comms/ifx_i2c\ifx_i2c_transport_layer.c ****                 return_status = IFX_I2C_STACK_ERROR;
 263:C:/Users/Yushev/git/optiga-trust-qi/optiga/comms/ifx_i2c\ifx_i2c_transport_layer.c ****             }
 264:C:/Users/Yushev/git/optiga-trust-qi/optiga/comms/ifx_i2c\ifx_i2c_transport_layer.c ****         }
 265:C:/Users/Yushev/git/optiga-trust-qi/optiga/comms/ifx_i2c\ifx_i2c_transport_layer.c ****     }
 266:C:/Users/Yushev/git/optiga-trust-qi/optiga/comms/ifx_i2c\ifx_i2c_transport_layer.c ****     else 
 267:C:/Users/Yushev/git/optiga-trust-qi/optiga/comms/ifx_i2c\ifx_i2c_transport_layer.c ****     {
 268:C:/Users/Yushev/git/optiga-trust-qi/optiga/comms/ifx_i2c\ifx_i2c_transport_layer.c ****         if ((FALSE == p_ctx->tl.initialization_state))
 269:C:/Users/Yushev/git/optiga-trust-qi/optiga/comms/ifx_i2c\ifx_i2c_transport_layer.c ****         {
 270:C:/Users/Yushev/git/optiga-trust-qi/optiga/comms/ifx_i2c\ifx_i2c_transport_layer.c ****             if (IFX_I2C_PRESENCE_BIT_CHECK != pctr_value)
 271:C:/Users/Yushev/git/optiga-trust-qi/optiga/comms/ifx_i2c\ifx_i2c_transport_layer.c ****             {
 272:C:/Users/Yushev/git/optiga-trust-qi/optiga/comms/ifx_i2c\ifx_i2c_transport_layer.c ****                 return_status = IFX_I2C_STACK_ERROR;
 273:C:/Users/Yushev/git/optiga-trust-qi/optiga/comms/ifx_i2c\ifx_i2c_transport_layer.c ****             }
 274:C:/Users/Yushev/git/optiga-trust-qi/optiga/comms/ifx_i2c\ifx_i2c_transport_layer.c ****         }
 275:C:/Users/Yushev/git/optiga-trust-qi/optiga/comms/ifx_i2c\ifx_i2c_transport_layer.c ****     }
 276:C:/Users/Yushev/git/optiga-trust-qi/optiga/comms/ifx_i2c\ifx_i2c_transport_layer.c ****     return (return_status);
 277:C:/Users/Yushev/git/optiga-trust-qi/optiga/comms/ifx_i2c\ifx_i2c_transport_layer.c **** }
 278:C:/Users/Yushev/git/optiga-trust-qi/optiga/comms/ifx_i2c\ifx_i2c_transport_layer.c **** _STATIC_H void ifx_i2c_dl_event_handler(ifx_i2c_context_t * p_ctx,
 279:C:/Users/Yushev/git/optiga-trust-qi/optiga/comms/ifx_i2c\ifx_i2c_transport_layer.c ****                                         optiga_lib_status_t event,
 280:C:/Users/Yushev/git/optiga-trust-qi/optiga/comms/ifx_i2c\ifx_i2c_transport_layer.c ****                                         const uint8_t * p_data,
 281:C:/Users/Yushev/git/optiga-trust-qi/optiga/comms/ifx_i2c\ifx_i2c_transport_layer.c ****                                         uint16_t data_len)
 282:C:/Users/Yushev/git/optiga-trust-qi/optiga/comms/ifx_i2c\ifx_i2c_transport_layer.c **** {
 133              	 .loc 1 282 0
 134              	 .cfi_startproc
 135              	 
 136              	 
 137              	.LVL12:
 138 0000 2DE9F047 	 push {r4,r5,r6,r7,r8,r9,r10,lr}
 139              	.LCFI2:
 140              	 .cfi_def_cfa_offset 32
 141              	 .cfi_offset 4,-32
 142              	 .cfi_offset 5,-28
 143              	 .cfi_offset 6,-24
 144              	 .cfi_offset 7,-20
 145              	 .cfi_offset 8,-16
 146              	 .cfi_offset 9,-12
 147              	 .cfi_offset 10,-8
 148              	 .cfi_offset 14,-4
 283:C:/Users/Yushev/git/optiga-trust-qi/optiga/comms/ifx_i2c\ifx_i2c_transport_layer.c ****     uint8_t pctr = 0;
 284:C:/Users/Yushev/git/optiga-trust-qi/optiga/comms/ifx_i2c\ifx_i2c_transport_layer.c ****     uint8_t chaining = 0;
 149              	 .loc 1 284 0
 150 0004 0025     	 movs r5,#0
 282:C:/Users/Yushev/git/optiga-trust-qi/optiga/comms/ifx_i2c\ifx_i2c_transport_layer.c ****     uint8_t pctr = 0;
 151              	 .loc 1 282 0
 152 0006 0446     	 mov r4,r0
 153 0008 8A46     	 mov r10,r1
 154 000a 9046     	 mov r8,r2
 155 000c 1E46     	 mov r6,r3
 283:C:/Users/Yushev/git/optiga-trust-qi/optiga/comms/ifx_i2c\ifx_i2c_transport_layer.c ****     uint8_t pctr = 0;
 156              	 .loc 1 283 0
 157 000e 2F46     	 mov r7,r5
 158              	.LVL13:
 159              	.L44:
 285:C:/Users/Yushev/git/optiga-trust-qi/optiga/comms/ifx_i2c\ifx_i2c_transport_layer.c ****     uint8_t exit_machine = TRUE;
 286:C:/Users/Yushev/git/optiga-trust-qi/optiga/comms/ifx_i2c\ifx_i2c_transport_layer.c ****     do
 287:C:/Users/Yushev/git/optiga-trust-qi/optiga/comms/ifx_i2c\ifx_i2c_transport_layer.c ****     {
 288:C:/Users/Yushev/git/optiga-trust-qi/optiga/comms/ifx_i2c\ifx_i2c_transport_layer.c ****         if (NULL != p_data)
 160              	 .loc 1 288 0
 161 0010 B8F1000F 	 cmp r8,#0
 162 0014 03D0     	 beq .L8
 289:C:/Users/Yushev/git/optiga-trust-qi/optiga/comms/ifx_i2c\ifx_i2c_transport_layer.c ****         {
 290:C:/Users/Yushev/git/optiga-trust-qi/optiga/comms/ifx_i2c\ifx_i2c_transport_layer.c ****             pctr = p_data[0];
 163              	 .loc 1 290 0
 164 0016 98F80070 	 ldrb r7,[r8]
 165              	.LVL14:
 291:C:/Users/Yushev/git/optiga-trust-qi/optiga/comms/ifx_i2c\ifx_i2c_transport_layer.c ****             chaining = pctr & TL_PCTR_CHAIN_MASK;
 166              	 .loc 1 291 0
 167 001a 07F00705 	 and r5,r7,#7
 168              	.LVL15:
 169              	.L8:
 292:C:/Users/Yushev/git/optiga-trust-qi/optiga/comms/ifx_i2c\ifx_i2c_transport_layer.c ****         }
 293:C:/Users/Yushev/git/optiga-trust-qi/optiga/comms/ifx_i2c\ifx_i2c_transport_layer.c ****         // Propagate errors to upper layer
 294:C:/Users/Yushev/git/optiga-trust-qi/optiga/comms/ifx_i2c\ifx_i2c_transport_layer.c ****         if (0 != (event & IFX_I2C_DL_EVENT_ERROR))
 170              	 .loc 1 294 0
 171 001e 1AF00102 	 ands r2,r10,#1
 295:C:/Users/Yushev/git/optiga-trust-qi/optiga/comms/ifx_i2c\ifx_i2c_transport_layer.c ****         {
 296:C:/Users/Yushev/git/optiga-trust-qi/optiga/comms/ifx_i2c\ifx_i2c_transport_layer.c ****             p_ctx->tl.state = TL_STATE_ERROR;
 172              	 .loc 1 296 0
 173 0022 1FBF     	 itttt ne
 174 0024 0623     	 movne r3,#6
 175 0026 84F83430 	 strbne r3,[r4,#52]
 297:C:/Users/Yushev/git/optiga-trust-qi/optiga/comms/ifx_i2c\ifx_i2c_transport_layer.c ****             p_ctx->tl.error_event = IFX_I2C_STACK_ERROR;
 176              	 .loc 1 297 0
 177 002a 4FF48173 	 movne r3,#258
 178 002e A4F85430 	 strhne r3,[r4,#84]
 298:C:/Users/Yushev/git/optiga-trust-qi/optiga/comms/ifx_i2c\ifx_i2c_transport_layer.c ****         }
 299:C:/Users/Yushev/git/optiga-trust-qi/optiga/comms/ifx_i2c\ifx_i2c_transport_layer.c ****         if (0 != data_len)
 179              	 .loc 1 299 0
 180 0032 5EB1     	 cbz r6,.L10
 181              	.LVL16:
 182              	.LBB18:
 183              	.LBB19:
 257:C:/Users/Yushev/git/optiga-trust-qi/optiga/comms/ifx_i2c\ifx_i2c_transport_layer.c ****             || (TL_CHAINING_FIRST == (pctr & TL_PCTR_CHAIN_MASK))))
 184              	 .loc 1 257 0
 185 0034 94F85830 	 ldrb r3,[r4,#88]
 186 0038 43B9     	 cbnz r3,.L10
 187 003a 07F00703 	 and r3,r7,#7
 188 003e 012B     	 cmp r3,#1
 189 0040 04D8     	 bhi .L10
 260:C:/Users/Yushev/git/optiga-trust-qi/optiga/comms/ifx_i2c\ifx_i2c_transport_layer.c ****             {
 190              	 .loc 1 260 0
 191 0042 07F0F803 	 and r3,r7,#248
 192 0046 082B     	 cmp r3,#8
 193 0048 40F0E980 	 bne .L11
 194              	.LVL17:
 195              	.L10:
 196              	.LBE19:
 197              	.LBE18:
 300:C:/Users/Yushev/git/optiga-trust-qi/optiga/comms/ifx_i2c\ifx_i2c_transport_layer.c ****         {
 301:C:/Users/Yushev/git/optiga-trust-qi/optiga/comms/ifx_i2c\ifx_i2c_transport_layer.c ****             if (0 != (presence_bit_check(p_ctx,pctr)))
 302:C:/Users/Yushev/git/optiga-trust-qi/optiga/comms/ifx_i2c\ifx_i2c_transport_layer.c ****             {
 303:C:/Users/Yushev/git/optiga-trust-qi/optiga/comms/ifx_i2c\ifx_i2c_transport_layer.c ****                 p_ctx->tl.state = TL_STATE_ERROR;
 304:C:/Users/Yushev/git/optiga-trust-qi/optiga/comms/ifx_i2c\ifx_i2c_transport_layer.c ****                 p_ctx->tl.error_event = IFX_I2C_STACK_ERROR;
 305:C:/Users/Yushev/git/optiga-trust-qi/optiga/comms/ifx_i2c\ifx_i2c_transport_layer.c ****             }
 306:C:/Users/Yushev/git/optiga-trust-qi/optiga/comms/ifx_i2c\ifx_i2c_transport_layer.c ****         }
 307:C:/Users/Yushev/git/optiga-trust-qi/optiga/comms/ifx_i2c\ifx_i2c_transport_layer.c ****         p_ctx->tl.initialization_state = FALSE;
 198              	 .loc 1 307 0
 199 004c 0023     	 movs r3,#0
 200 004e 84F85830 	 strb r3,[r4,#88]
 308:C:/Users/Yushev/git/optiga-trust-qi/optiga/comms/ifx_i2c\ifx_i2c_transport_layer.c ****         switch (p_ctx->tl.state)
 201              	 .loc 1 308 0
 202 0052 94F83430 	 ldrb r3,[r4,#52]
 203 0056 013B     	 subs r3,r3,#1
 204 0058 072B     	 cmp r3,#7
 205 005a 00F2D380 	 bhi .L12
 206 005e DFE803F0 	 tbb [pc,r3]
 207              	.L14:
 208 0062 04       	 .byte (.L13-.L14)/2
 209 0063 0A       	 .byte (.L15-.L14)/2
 210 0064 D1       	 .byte (.L12-.L14)/2
 211 0065 32       	 .byte (.L16-.L14)/2
 212 0066 70       	 .byte (.L17-.L14)/2
 213 0067 CF       	 .byte (.L18-.L14)/2
 214 0068 B9       	 .byte (.L19-.L14)/2
 215 0069 9F       	 .byte (.L20-.L14)/2
 216              	 .p2align 1
 217              	.L13:
 218              	.LVL18:
 309:C:/Users/Yushev/git/optiga-trust-qi/optiga/comms/ifx_i2c\ifx_i2c_transport_layer.c ****         {
 310:C:/Users/Yushev/git/optiga-trust-qi/optiga/comms/ifx_i2c\ifx_i2c_transport_layer.c ****             case TL_STATE_IDLE:
 311:C:/Users/Yushev/git/optiga-trust-qi/optiga/comms/ifx_i2c\ifx_i2c_transport_layer.c ****             {
 312:C:/Users/Yushev/git/optiga-trust-qi/optiga/comms/ifx_i2c\ifx_i2c_transport_layer.c ****                 exit_machine = FALSE;
 313:C:/Users/Yushev/git/optiga-trust-qi/optiga/comms/ifx_i2c\ifx_i2c_transport_layer.c ****                 p_ctx->tl.upper_layer_event_handler(p_ctx, IFX_I2C_STACK_SUCCESS, 0, 0);
 219              	 .loc 1 313 0
 220 006a 0021     	 movs r1,#0
 221 006c E56D     	 ldr r5,[r4,#92]
 222              	.LVL19:
 223 006e 2046     	 mov r0,r4
 224 0070 0A46     	 mov r2,r1
 225 0072 0B46     	 mov r3,r1
 226 0074 CFE0     	 b .L84
 227              	.LVL20:
 228              	.L15:
 314:C:/Users/Yushev/git/optiga-trust-qi/optiga/comms/ifx_i2c\ifx_i2c_transport_layer.c ****             }
 315:C:/Users/Yushev/git/optiga-trust-qi/optiga/comms/ifx_i2c\ifx_i2c_transport_layer.c ****             break;
 316:C:/Users/Yushev/git/optiga-trust-qi/optiga/comms/ifx_i2c\ifx_i2c_transport_layer.c ****             case TL_STATE_TX:
 317:C:/Users/Yushev/git/optiga-trust-qi/optiga/comms/ifx_i2c\ifx_i2c_transport_layer.c ****             {
 318:C:/Users/Yushev/git/optiga-trust-qi/optiga/comms/ifx_i2c\ifx_i2c_transport_layer.c ****                 // Frame transmission in Data Link layer complete, start receiving frames
 319:C:/Users/Yushev/git/optiga-trust-qi/optiga/comms/ifx_i2c\ifx_i2c_transport_layer.c ****                 if (0 != (event & IFX_I2C_DL_EVENT_TX_SUCCESS))
 229              	 .loc 1 319 0
 230 0076 1AF0020F 	 tst r10,#2
 231 007a 60D0     	 beq .L83
 320:C:/Users/Yushev/git/optiga-trust-qi/optiga/comms/ifx_i2c\ifx_i2c_transport_layer.c ****                 {
 321:C:/Users/Yushev/git/optiga-trust-qi/optiga/comms/ifx_i2c\ifx_i2c_transport_layer.c ****                     if (p_ctx->tl.packet_offset < p_ctx->tl.actual_packet_length)
 232              	 .loc 1 321 0
 233 007c B4F84020 	 ldrh r2,[r4,#64]
 234 0080 E38F     	 ldrh r3,[r4,#62]
 235 0082 9A42     	 cmp r2,r3
 236 0084 09D2     	 bcs .L22
 322:C:/Users/Yushev/git/optiga-trust-qi/optiga/comms/ifx_i2c\ifx_i2c_transport_layer.c ****                     {
 323:C:/Users/Yushev/git/optiga-trust-qi/optiga/comms/ifx_i2c\ifx_i2c_transport_layer.c ****                         // Transmission of one fragment complete, send next fragment
 324:C:/Users/Yushev/git/optiga-trust-qi/optiga/comms/ifx_i2c\ifx_i2c_transport_layer.c ****                         LOG_TL("[IFX-TL]: Tx:Fragment sent,now send next\n");
 325:C:/Users/Yushev/git/optiga-trust-qi/optiga/comms/ifx_i2c\ifx_i2c_transport_layer.c ****                         // Chaining error from slave
 326:C:/Users/Yushev/git/optiga-trust-qi/optiga/comms/ifx_i2c\ifx_i2c_transport_layer.c ****                         if (TL_CHAINING_ERROR == chaining)
 237              	 .loc 1 326 0
 238 0086 072D     	 cmp r5,#7
 239 0088 00F0D180 	 beq .L32
 327:C:/Users/Yushev/git/optiga-trust-qi/optiga/comms/ifx_i2c\ifx_i2c_transport_layer.c ****                         {
 328:C:/Users/Yushev/git/optiga-trust-qi/optiga/comms/ifx_i2c\ifx_i2c_transport_layer.c ****                             LOG_TL("[IFX-TL]: Tx:Chaining error received while Tx\n");
 329:C:/Users/Yushev/git/optiga-trust-qi/optiga/comms/ifx_i2c\ifx_i2c_transport_layer.c ****                             p_ctx->tl.state = TL_STATE_RESEND;
 330:C:/Users/Yushev/git/optiga-trust-qi/optiga/comms/ifx_i2c\ifx_i2c_transport_layer.c ****                             break;
 331:C:/Users/Yushev/git/optiga-trust-qi/optiga/comms/ifx_i2c\ifx_i2c_transport_layer.c ****                         }
 332:C:/Users/Yushev/git/optiga-trust-qi/optiga/comms/ifx_i2c\ifx_i2c_transport_layer.c ****                         // Any fragment received before complete transmission is error
 333:C:/Users/Yushev/git/optiga-trust-qi/optiga/comms/ifx_i2c\ifx_i2c_transport_layer.c ****                         if (0 != data_len)
 240              	 .loc 1 333 0
 241 008c 002E     	 cmp r6,#0
 242 008e 56D1     	 bne .L83
 243              	.LVL21:
 334:C:/Users/Yushev/git/optiga-trust-qi/optiga/comms/ifx_i2c\ifx_i2c_transport_layer.c ****                         {
 335:C:/Users/Yushev/git/optiga-trust-qi/optiga/comms/ifx_i2c\ifx_i2c_transport_layer.c ****                             LOG_TL("[IFX-TL]: Tx:Data received while Tx\n");
 336:C:/Users/Yushev/git/optiga-trust-qi/optiga/comms/ifx_i2c\ifx_i2c_transport_layer.c ****                             p_ctx->tl.state = TL_STATE_ERROR;
 337:C:/Users/Yushev/git/optiga-trust-qi/optiga/comms/ifx_i2c\ifx_i2c_transport_layer.c ****                             break;
 338:C:/Users/Yushev/git/optiga-trust-qi/optiga/comms/ifx_i2c\ifx_i2c_transport_layer.c ****                         }
 339:C:/Users/Yushev/git/optiga-trust-qi/optiga/comms/ifx_i2c\ifx_i2c_transport_layer.c ****                         exit_machine = FALSE;
 340:C:/Users/Yushev/git/optiga-trust-qi/optiga/comms/ifx_i2c\ifx_i2c_transport_layer.c ****                         //lint --e{534} suppress "Error handling is not required so return value is
 341:C:/Users/Yushev/git/optiga-trust-qi/optiga/comms/ifx_i2c\ifx_i2c_transport_layer.c ****                         ifx_i2c_tl_send_next_fragment(p_ctx);
 244              	 .loc 1 341 0
 245 0090 2046     	 mov r0,r4
 342:C:/Users/Yushev/git/optiga-trust-qi/optiga/comms/ifx_i2c\ifx_i2c_transport_layer.c ****                     }
 343:C:/Users/Yushev/git/optiga-trust-qi/optiga/comms/ifx_i2c\ifx_i2c_transport_layer.c ****                     else
 344:C:/Users/Yushev/git/optiga-trust-qi/optiga/comms/ifx_i2c\ifx_i2c_transport_layer.c ****                     {
 345:C:/Users/Yushev/git/optiga-trust-qi/optiga/comms/ifx_i2c\ifx_i2c_transport_layer.c ****                         // Transmission of all fragments complete, start receiving fragments
 346:C:/Users/Yushev/git/optiga-trust-qi/optiga/comms/ifx_i2c\ifx_i2c_transport_layer.c ****                         LOG_TL("[IFX-TL]: Tx:All fragment sent\n");
 347:C:/Users/Yushev/git/optiga-trust-qi/optiga/comms/ifx_i2c\ifx_i2c_transport_layer.c ****                         p_ctx->tl.state = TL_STATE_RX;
 348:C:/Users/Yushev/git/optiga-trust-qi/optiga/comms/ifx_i2c\ifx_i2c_transport_layer.c ****                         p_ctx->tl.total_recv_length = 0;
 349:C:/Users/Yushev/git/optiga-trust-qi/optiga/comms/ifx_i2c\ifx_i2c_transport_layer.c ****                         p_ctx->tl.previous_chaining = TL_CHAINING_NO;
 350:C:/Users/Yushev/git/optiga-trust-qi/optiga/comms/ifx_i2c\ifx_i2c_transport_layer.c ****                         p_ctx->tl.transmission_completed = 1;
 351:C:/Users/Yushev/git/optiga-trust-qi/optiga/comms/ifx_i2c\ifx_i2c_transport_layer.c ****                         // if data is received after sending last frame
 352:C:/Users/Yushev/git/optiga-trust-qi/optiga/comms/ifx_i2c\ifx_i2c_transport_layer.c ****                         if (!(event & IFX_I2C_DL_EVENT_RX_SUCCESS))
 353:C:/Users/Yushev/git/optiga-trust-qi/optiga/comms/ifx_i2c\ifx_i2c_transport_layer.c ****                         {
 354:C:/Users/Yushev/git/optiga-trust-qi/optiga/comms/ifx_i2c\ifx_i2c_transport_layer.c ****                             LOG_TL("[IFX-TL]: Tx:Data already received after Tx\n");
 355:C:/Users/Yushev/git/optiga-trust-qi/optiga/comms/ifx_i2c\ifx_i2c_transport_layer.c ****                             // Received CTRL frame, trigger reception in Data Link layer
 356:C:/Users/Yushev/git/optiga-trust-qi/optiga/comms/ifx_i2c\ifx_i2c_transport_layer.c ****                             if (0 != ifx_i2c_dl_receive_frame(p_ctx))
 357:C:/Users/Yushev/git/optiga-trust-qi/optiga/comms/ifx_i2c\ifx_i2c_transport_layer.c ****                             {
 358:C:/Users/Yushev/git/optiga-trust-qi/optiga/comms/ifx_i2c\ifx_i2c_transport_layer.c ****                                 LOG_TL("[IFX-TL]: Tx:RX Received CTRL frame fail -> Inform UL\n");
 359:C:/Users/Yushev/git/optiga-trust-qi/optiga/comms/ifx_i2c\ifx_i2c_transport_layer.c ****                                 p_ctx->tl.state = TL_STATE_ERROR;
 360:C:/Users/Yushev/git/optiga-trust-qi/optiga/comms/ifx_i2c\ifx_i2c_transport_layer.c ****                             }
 361:C:/Users/Yushev/git/optiga-trust-qi/optiga/comms/ifx_i2c\ifx_i2c_transport_layer.c ****                             exit_machine = FALSE;
 362:C:/Users/Yushev/git/optiga-trust-qi/optiga/comms/ifx_i2c\ifx_i2c_transport_layer.c ****                         }
 363:C:/Users/Yushev/git/optiga-trust-qi/optiga/comms/ifx_i2c\ifx_i2c_transport_layer.c ****                     }
 364:C:/Users/Yushev/git/optiga-trust-qi/optiga/comms/ifx_i2c\ifx_i2c_transport_layer.c ****                 }
 365:C:/Users/Yushev/git/optiga-trust-qi/optiga/comms/ifx_i2c\ifx_i2c_transport_layer.c ****                 else
 366:C:/Users/Yushev/git/optiga-trust-qi/optiga/comms/ifx_i2c\ifx_i2c_transport_layer.c ****                 {
 367:C:/Users/Yushev/git/optiga-trust-qi/optiga/comms/ifx_i2c\ifx_i2c_transport_layer.c ****                     LOG_TL("[IFX-TL]: Tx:IFX_I2C_DL_EVENT_TX_SUCCESS is not satisfied Tx\n");
 368:C:/Users/Yushev/git/optiga-trust-qi/optiga/comms/ifx_i2c\ifx_i2c_transport_layer.c ****                     p_ctx->tl.state = TL_STATE_ERROR;
 369:C:/Users/Yushev/git/optiga-trust-qi/optiga/comms/ifx_i2c\ifx_i2c_transport_layer.c ****                     break;
 370:C:/Users/Yushev/git/optiga-trust-qi/optiga/comms/ifx_i2c\ifx_i2c_transport_layer.c ****                 }
 371:C:/Users/Yushev/git/optiga-trust-qi/optiga/comms/ifx_i2c\ifx_i2c_transport_layer.c ****             }
 372:C:/Users/Yushev/git/optiga-trust-qi/optiga/comms/ifx_i2c\ifx_i2c_transport_layer.c ****             break;
 373:C:/Users/Yushev/git/optiga-trust-qi/optiga/comms/ifx_i2c\ifx_i2c_transport_layer.c ****             case TL_STATE_RX:
 374:C:/Users/Yushev/git/optiga-trust-qi/optiga/comms/ifx_i2c\ifx_i2c_transport_layer.c ****             {
 375:C:/Users/Yushev/git/optiga-trust-qi/optiga/comms/ifx_i2c\ifx_i2c_transport_layer.c ****                 // Reception of frame from Data Link layer
 376:C:/Users/Yushev/git/optiga-trust-qi/optiga/comms/ifx_i2c\ifx_i2c_transport_layer.c ****                 if (0 != (event & IFX_I2C_DL_EVENT_RX_SUCCESS))
 377:C:/Users/Yushev/git/optiga-trust-qi/optiga/comms/ifx_i2c\ifx_i2c_transport_layer.c ****                 {
 378:C:/Users/Yushev/git/optiga-trust-qi/optiga/comms/ifx_i2c\ifx_i2c_transport_layer.c ****                     // Message must contain at least the transport layer header
 379:C:/Users/Yushev/git/optiga-trust-qi/optiga/comms/ifx_i2c\ifx_i2c_transport_layer.c ****                     if (data_len < TL_HEADER_SIZE)
 380:C:/Users/Yushev/git/optiga-trust-qi/optiga/comms/ifx_i2c\ifx_i2c_transport_layer.c ****                     {
 381:C:/Users/Yushev/git/optiga-trust-qi/optiga/comms/ifx_i2c\ifx_i2c_transport_layer.c ****                         LOG_TL("[IFX-TL]: Rx : Data received is more than header len\n");
 382:C:/Users/Yushev/git/optiga-trust-qi/optiga/comms/ifx_i2c\ifx_i2c_transport_layer.c ****                         p_ctx->tl.state = TL_STATE_ERROR;
 383:C:/Users/Yushev/git/optiga-trust-qi/optiga/comms/ifx_i2c\ifx_i2c_transport_layer.c ****                         break;
 384:C:/Users/Yushev/git/optiga-trust-qi/optiga/comms/ifx_i2c\ifx_i2c_transport_layer.c ****                     }
 385:C:/Users/Yushev/git/optiga-trust-qi/optiga/comms/ifx_i2c\ifx_i2c_transport_layer.c **** 
 386:C:/Users/Yushev/git/optiga-trust-qi/optiga/comms/ifx_i2c\ifx_i2c_transport_layer.c ****                     if (IFX_I2C_STACK_MEM_ERROR == p_ctx->tl.error_event)
 387:C:/Users/Yushev/git/optiga-trust-qi/optiga/comms/ifx_i2c\ifx_i2c_transport_layer.c ****                     {
 388:C:/Users/Yushev/git/optiga-trust-qi/optiga/comms/ifx_i2c\ifx_i2c_transport_layer.c ****                         if ((TL_CHAINING_LAST == chaining) || (0 != ifx_i2c_dl_receive_frame(p_ctx)
 389:C:/Users/Yushev/git/optiga-trust-qi/optiga/comms/ifx_i2c\ifx_i2c_transport_layer.c ****                         {
 390:C:/Users/Yushev/git/optiga-trust-qi/optiga/comms/ifx_i2c\ifx_i2c_transport_layer.c ****                             p_ctx->tl.state = TL_STATE_ERROR;
 391:C:/Users/Yushev/git/optiga-trust-qi/optiga/comms/ifx_i2c\ifx_i2c_transport_layer.c ****                             break;
 392:C:/Users/Yushev/git/optiga-trust-qi/optiga/comms/ifx_i2c\ifx_i2c_transport_layer.c ****                         }
 393:C:/Users/Yushev/git/optiga-trust-qi/optiga/comms/ifx_i2c\ifx_i2c_transport_layer.c ****                         p_ctx->tl.state = TL_STATE_RX;
 394:C:/Users/Yushev/git/optiga-trust-qi/optiga/comms/ifx_i2c\ifx_i2c_transport_layer.c ****                         exit_machine = FALSE;
 395:C:/Users/Yushev/git/optiga-trust-qi/optiga/comms/ifx_i2c\ifx_i2c_transport_layer.c ****                         break;
 396:C:/Users/Yushev/git/optiga-trust-qi/optiga/comms/ifx_i2c\ifx_i2c_transport_layer.c ****                     }
 397:C:/Users/Yushev/git/optiga-trust-qi/optiga/comms/ifx_i2c\ifx_i2c_transport_layer.c **** 
 398:C:/Users/Yushev/git/optiga-trust-qi/optiga/comms/ifx_i2c\ifx_i2c_transport_layer.c ****                     // If chaining error detected
 399:C:/Users/Yushev/git/optiga-trust-qi/optiga/comms/ifx_i2c\ifx_i2c_transport_layer.c ****                     if (IFX_I2C_STACK_SUCCESS != ifx_i2c_tl_check_chaining_error(chaining,p_ctx->tl
 400:C:/Users/Yushev/git/optiga-trust-qi/optiga/comms/ifx_i2c\ifx_i2c_transport_layer.c ****                     {
 401:C:/Users/Yushev/git/optiga-trust-qi/optiga/comms/ifx_i2c\ifx_i2c_transport_layer.c ****                         LOG_TL("[IFX-TL]: Rx : Chaining state is not correct\n");
 402:C:/Users/Yushev/git/optiga-trust-qi/optiga/comms/ifx_i2c\ifx_i2c_transport_layer.c ****                         p_ctx->tl.state = TL_STATE_RESEND;
 403:C:/Users/Yushev/git/optiga-trust-qi/optiga/comms/ifx_i2c\ifx_i2c_transport_layer.c ****                         break;
 404:C:/Users/Yushev/git/optiga-trust-qi/optiga/comms/ifx_i2c\ifx_i2c_transport_layer.c ****                     }
 405:C:/Users/Yushev/git/optiga-trust-qi/optiga/comms/ifx_i2c\ifx_i2c_transport_layer.c **** 
 406:C:/Users/Yushev/git/optiga-trust-qi/optiga/comms/ifx_i2c\ifx_i2c_transport_layer.c ****                     p_ctx->tl.previous_chaining = chaining & 0x07;
 407:C:/Users/Yushev/git/optiga-trust-qi/optiga/comms/ifx_i2c\ifx_i2c_transport_layer.c ****                     if (NULL == p_data)
 408:C:/Users/Yushev/git/optiga-trust-qi/optiga/comms/ifx_i2c\ifx_i2c_transport_layer.c ****                     {
 409:C:/Users/Yushev/git/optiga-trust-qi/optiga/comms/ifx_i2c\ifx_i2c_transport_layer.c ****                         p_ctx->tl.state = TL_STATE_ERROR;
 410:C:/Users/Yushev/git/optiga-trust-qi/optiga/comms/ifx_i2c\ifx_i2c_transport_layer.c ****                         break;
 411:C:/Users/Yushev/git/optiga-trust-qi/optiga/comms/ifx_i2c\ifx_i2c_transport_layer.c ****                     }
 412:C:/Users/Yushev/git/optiga-trust-qi/optiga/comms/ifx_i2c\ifx_i2c_transport_layer.c **** 
 413:C:/Users/Yushev/git/optiga-trust-qi/optiga/comms/ifx_i2c\ifx_i2c_transport_layer.c ****                     // No chaining and Last
 414:C:/Users/Yushev/git/optiga-trust-qi/optiga/comms/ifx_i2c\ifx_i2c_transport_layer.c ****                     if ((TL_CHAINING_NO == chaining) || (TL_CHAINING_LAST == chaining))
 415:C:/Users/Yushev/git/optiga-trust-qi/optiga/comms/ifx_i2c\ifx_i2c_transport_layer.c ****                     {
 416:C:/Users/Yushev/git/optiga-trust-qi/optiga/comms/ifx_i2c\ifx_i2c_transport_layer.c ****                         LOG_TL("[IFX-TL]: Rx : No chain/Last chain received, Inform UL\n");
 417:C:/Users/Yushev/git/optiga-trust-qi/optiga/comms/ifx_i2c\ifx_i2c_transport_layer.c ****                         // Check for possible receive buffer overflow
 418:C:/Users/Yushev/git/optiga-trust-qi/optiga/comms/ifx_i2c\ifx_i2c_transport_layer.c ****                         if ((p_ctx->tl.total_recv_length + data_len - 1) > (*p_ctx->tl.p_recv_packe
 419:C:/Users/Yushev/git/optiga-trust-qi/optiga/comms/ifx_i2c\ifx_i2c_transport_layer.c ****                         {
 420:C:/Users/Yushev/git/optiga-trust-qi/optiga/comms/ifx_i2c\ifx_i2c_transport_layer.c ****                             LOG_TL("[IFX-TL]: Chain : Buffer overflow\n");
 421:C:/Users/Yushev/git/optiga-trust-qi/optiga/comms/ifx_i2c\ifx_i2c_transport_layer.c ****                             p_ctx->tl.error_event = IFX_I2C_STACK_MEM_ERROR;
 422:C:/Users/Yushev/git/optiga-trust-qi/optiga/comms/ifx_i2c\ifx_i2c_transport_layer.c ****                             p_ctx->tl.state = TL_STATE_ERROR;
 423:C:/Users/Yushev/git/optiga-trust-qi/optiga/comms/ifx_i2c\ifx_i2c_transport_layer.c ****                             break;
 424:C:/Users/Yushev/git/optiga-trust-qi/optiga/comms/ifx_i2c\ifx_i2c_transport_layer.c ****                         }
 425:C:/Users/Yushev/git/optiga-trust-qi/optiga/comms/ifx_i2c\ifx_i2c_transport_layer.c ****                         exit_machine = FALSE;
 426:C:/Users/Yushev/git/optiga-trust-qi/optiga/comms/ifx_i2c\ifx_i2c_transport_layer.c ****                         // Copy frame payload to transport layer receive buffer
 427:C:/Users/Yushev/git/optiga-trust-qi/optiga/comms/ifx_i2c\ifx_i2c_transport_layer.c ****                         memcpy(p_ctx->tl.p_recv_packet_buffer + p_ctx->tl.total_recv_length, p_data
 428:C:/Users/Yushev/git/optiga-trust-qi/optiga/comms/ifx_i2c\ifx_i2c_transport_layer.c ****                         p_ctx->tl.total_recv_length += (data_len - 1);
 429:C:/Users/Yushev/git/optiga-trust-qi/optiga/comms/ifx_i2c\ifx_i2c_transport_layer.c ****                         // Inform upper layer that a packet has arrived
 430:C:/Users/Yushev/git/optiga-trust-qi/optiga/comms/ifx_i2c\ifx_i2c_transport_layer.c ****                         p_ctx->tl.state = TL_STATE_IDLE;
 431:C:/Users/Yushev/git/optiga-trust-qi/optiga/comms/ifx_i2c\ifx_i2c_transport_layer.c ****                         *p_ctx->tl.p_recv_packet_buffer_length = p_ctx->tl.total_recv_length;
 432:C:/Users/Yushev/git/optiga-trust-qi/optiga/comms/ifx_i2c\ifx_i2c_transport_layer.c ****                         p_ctx->tl.upper_layer_event_handler(p_ctx,IFX_I2C_STACK_SUCCESS,
 433:C:/Users/Yushev/git/optiga-trust-qi/optiga/comms/ifx_i2c\ifx_i2c_transport_layer.c ****                                                             p_ctx->tl.p_recv_packet_buffer,
 434:C:/Users/Yushev/git/optiga-trust-qi/optiga/comms/ifx_i2c\ifx_i2c_transport_layer.c ****                                                             *p_ctx->tl.p_recv_packet_buffer_length)
 435:C:/Users/Yushev/git/optiga-trust-qi/optiga/comms/ifx_i2c\ifx_i2c_transport_layer.c ****                     }
 436:C:/Users/Yushev/git/optiga-trust-qi/optiga/comms/ifx_i2c\ifx_i2c_transport_layer.c ****                     else
 437:C:/Users/Yushev/git/optiga-trust-qi/optiga/comms/ifx_i2c\ifx_i2c_transport_layer.c ****                     {
 438:C:/Users/Yushev/git/optiga-trust-qi/optiga/comms/ifx_i2c\ifx_i2c_transport_layer.c ****                         p_ctx->tl.state = TL_STATE_CHAINING;
 439:C:/Users/Yushev/git/optiga-trust-qi/optiga/comms/ifx_i2c\ifx_i2c_transport_layer.c ****                     }
 440:C:/Users/Yushev/git/optiga-trust-qi/optiga/comms/ifx_i2c\ifx_i2c_transport_layer.c ****                 }
 441:C:/Users/Yushev/git/optiga-trust-qi/optiga/comms/ifx_i2c\ifx_i2c_transport_layer.c ****                 else
 442:C:/Users/Yushev/git/optiga-trust-qi/optiga/comms/ifx_i2c\ifx_i2c_transport_layer.c ****                 {
 443:C:/Users/Yushev/git/optiga-trust-qi/optiga/comms/ifx_i2c\ifx_i2c_transport_layer.c ****                     LOG_TL("[IFX-TL]: Tx:IFX_I2C_DL_EVENT_TX_SUCCESS is not satisfied Tx\n");
 444:C:/Users/Yushev/git/optiga-trust-qi/optiga/comms/ifx_i2c\ifx_i2c_transport_layer.c ****                     p_ctx->tl.state = TL_STATE_ERROR;
 445:C:/Users/Yushev/git/optiga-trust-qi/optiga/comms/ifx_i2c\ifx_i2c_transport_layer.c ****                     break;
 446:C:/Users/Yushev/git/optiga-trust-qi/optiga/comms/ifx_i2c\ifx_i2c_transport_layer.c ****                 }
 447:C:/Users/Yushev/git/optiga-trust-qi/optiga/comms/ifx_i2c\ifx_i2c_transport_layer.c ****             }
 448:C:/Users/Yushev/git/optiga-trust-qi/optiga/comms/ifx_i2c\ifx_i2c_transport_layer.c ****             break;
 449:C:/Users/Yushev/git/optiga-trust-qi/optiga/comms/ifx_i2c\ifx_i2c_transport_layer.c ****             case TL_STATE_CHAINING:
 450:C:/Users/Yushev/git/optiga-trust-qi/optiga/comms/ifx_i2c\ifx_i2c_transport_layer.c ****             {
 451:C:/Users/Yushev/git/optiga-trust-qi/optiga/comms/ifx_i2c\ifx_i2c_transport_layer.c ****                 LOG_TL("[IFX-TL]: Chain : Chaining mode entered\n");
 452:C:/Users/Yushev/git/optiga-trust-qi/optiga/comms/ifx_i2c\ifx_i2c_transport_layer.c ****                 // When receiving a starting fragment, fragment length must be max frame size for i
 453:C:/Users/Yushev/git/optiga-trust-qi/optiga/comms/ifx_i2c\ifx_i2c_transport_layer.c ****                 // frame the buffer should not be empty
 454:C:/Users/Yushev/git/optiga-trust-qi/optiga/comms/ifx_i2c\ifx_i2c_transport_layer.c ****                 if (data_len != (p_ctx->tl.max_packet_length + 1))
 455:C:/Users/Yushev/git/optiga-trust-qi/optiga/comms/ifx_i2c\ifx_i2c_transport_layer.c ****                 {
 456:C:/Users/Yushev/git/optiga-trust-qi/optiga/comms/ifx_i2c\ifx_i2c_transport_layer.c ****                     LOG_TL("[IFX-TL]: Chain : Data len not equal to max frame size\n");
 457:C:/Users/Yushev/git/optiga-trust-qi/optiga/comms/ifx_i2c\ifx_i2c_transport_layer.c ****                     p_ctx->tl.state = TL_STATE_CHAINING_ERROR;
 458:C:/Users/Yushev/git/optiga-trust-qi/optiga/comms/ifx_i2c\ifx_i2c_transport_layer.c ****                     break;
 459:C:/Users/Yushev/git/optiga-trust-qi/optiga/comms/ifx_i2c\ifx_i2c_transport_layer.c ****                 }
 460:C:/Users/Yushev/git/optiga-trust-qi/optiga/comms/ifx_i2c\ifx_i2c_transport_layer.c ****                 // Check for possible receive buffer overflow
 461:C:/Users/Yushev/git/optiga-trust-qi/optiga/comms/ifx_i2c\ifx_i2c_transport_layer.c ****                 if ((p_ctx->tl.total_recv_length + data_len - 1) > (*p_ctx->tl.p_recv_packet_buffer
 462:C:/Users/Yushev/git/optiga-trust-qi/optiga/comms/ifx_i2c\ifx_i2c_transport_layer.c ****                 {
 463:C:/Users/Yushev/git/optiga-trust-qi/optiga/comms/ifx_i2c\ifx_i2c_transport_layer.c ****                     LOG_TL("[IFX-TL]: Chain : Buffer overflow\n");
 464:C:/Users/Yushev/git/optiga-trust-qi/optiga/comms/ifx_i2c\ifx_i2c_transport_layer.c ****                     p_ctx->tl.error_event = IFX_I2C_STACK_MEM_ERROR;
 465:C:/Users/Yushev/git/optiga-trust-qi/optiga/comms/ifx_i2c\ifx_i2c_transport_layer.c ****                     p_ctx->tl.state = TL_STATE_RX;
 466:C:/Users/Yushev/git/optiga-trust-qi/optiga/comms/ifx_i2c\ifx_i2c_transport_layer.c ****                     break;
 467:C:/Users/Yushev/git/optiga-trust-qi/optiga/comms/ifx_i2c\ifx_i2c_transport_layer.c ****                 }
 468:C:/Users/Yushev/git/optiga-trust-qi/optiga/comms/ifx_i2c\ifx_i2c_transport_layer.c ****                 if (NULL == p_data)
 469:C:/Users/Yushev/git/optiga-trust-qi/optiga/comms/ifx_i2c\ifx_i2c_transport_layer.c ****                 {
 470:C:/Users/Yushev/git/optiga-trust-qi/optiga/comms/ifx_i2c\ifx_i2c_transport_layer.c ****                     p_ctx->tl.state = TL_STATE_ERROR;
 471:C:/Users/Yushev/git/optiga-trust-qi/optiga/comms/ifx_i2c\ifx_i2c_transport_layer.c ****                     break;
 472:C:/Users/Yushev/git/optiga-trust-qi/optiga/comms/ifx_i2c\ifx_i2c_transport_layer.c ****                 }
 473:C:/Users/Yushev/git/optiga-trust-qi/optiga/comms/ifx_i2c\ifx_i2c_transport_layer.c ****                 // Copy frame payload to transport layer receive buffer
 474:C:/Users/Yushev/git/optiga-trust-qi/optiga/comms/ifx_i2c\ifx_i2c_transport_layer.c ****                 memcpy(p_ctx->tl.p_recv_packet_buffer + p_ctx->tl.total_recv_length, p_data + 1, da
 475:C:/Users/Yushev/git/optiga-trust-qi/optiga/comms/ifx_i2c\ifx_i2c_transport_layer.c ****                 p_ctx->tl.total_recv_length += (data_len - 1);
 476:C:/Users/Yushev/git/optiga-trust-qi/optiga/comms/ifx_i2c\ifx_i2c_transport_layer.c **** 
 477:C:/Users/Yushev/git/optiga-trust-qi/optiga/comms/ifx_i2c\ifx_i2c_transport_layer.c ****                 p_ctx->tl.previous_chaining = pctr & 0x07;
 478:C:/Users/Yushev/git/optiga-trust-qi/optiga/comms/ifx_i2c\ifx_i2c_transport_layer.c ****                 LOG_TL("[IFX-TL]: Chain : Continue  in receive mode\n");
 479:C:/Users/Yushev/git/optiga-trust-qi/optiga/comms/ifx_i2c\ifx_i2c_transport_layer.c ****                 p_ctx->tl.state = TL_STATE_RX;
 480:C:/Users/Yushev/git/optiga-trust-qi/optiga/comms/ifx_i2c\ifx_i2c_transport_layer.c ****                 // Continue receiving frames until packet is complete
 481:C:/Users/Yushev/git/optiga-trust-qi/optiga/comms/ifx_i2c\ifx_i2c_transport_layer.c ****                 if (0 != ifx_i2c_dl_receive_frame(p_ctx))
 482:C:/Users/Yushev/git/optiga-trust-qi/optiga/comms/ifx_i2c\ifx_i2c_transport_layer.c ****                 {
 483:C:/Users/Yushev/git/optiga-trust-qi/optiga/comms/ifx_i2c\ifx_i2c_transport_layer.c ****                     p_ctx->tl.state = TL_STATE_ERROR;
 484:C:/Users/Yushev/git/optiga-trust-qi/optiga/comms/ifx_i2c\ifx_i2c_transport_layer.c ****                 }
 485:C:/Users/Yushev/git/optiga-trust-qi/optiga/comms/ifx_i2c\ifx_i2c_transport_layer.c ****                 exit_machine = FALSE;
 486:C:/Users/Yushev/git/optiga-trust-qi/optiga/comms/ifx_i2c\ifx_i2c_transport_layer.c ****             }
 487:C:/Users/Yushev/git/optiga-trust-qi/optiga/comms/ifx_i2c\ifx_i2c_transport_layer.c ****             break;
 488:C:/Users/Yushev/git/optiga-trust-qi/optiga/comms/ifx_i2c\ifx_i2c_transport_layer.c ****             case TL_STATE_RESEND:
 489:C:/Users/Yushev/git/optiga-trust-qi/optiga/comms/ifx_i2c\ifx_i2c_transport_layer.c ****             {
 490:C:/Users/Yushev/git/optiga-trust-qi/optiga/comms/ifx_i2c\ifx_i2c_transport_layer.c ****                 LOG_TL("[IFX-TL]: Resend Enter\n");
 491:C:/Users/Yushev/git/optiga-trust-qi/optiga/comms/ifx_i2c\ifx_i2c_transport_layer.c ****                 // In received mode , for wrong pctr with data
 492:C:/Users/Yushev/git/optiga-trust-qi/optiga/comms/ifx_i2c\ifx_i2c_transport_layer.c ****                 if ((data_len > 1) && (p_ctx->tl.transmission_completed == 1))
 493:C:/Users/Yushev/git/optiga-trust-qi/optiga/comms/ifx_i2c\ifx_i2c_transport_layer.c ****                 {
 494:C:/Users/Yushev/git/optiga-trust-qi/optiga/comms/ifx_i2c\ifx_i2c_transport_layer.c ****                     LOG_TL("[IFX-TL]: Resend : Send chaining error\n");
 495:C:/Users/Yushev/git/optiga-trust-qi/optiga/comms/ifx_i2c\ifx_i2c_transport_layer.c ****                     p_ctx->tl.state = TL_STATE_CHAINING_ERROR;
 496:C:/Users/Yushev/git/optiga-trust-qi/optiga/comms/ifx_i2c\ifx_i2c_transport_layer.c ****                     break;
 497:C:/Users/Yushev/git/optiga-trust-qi/optiga/comms/ifx_i2c\ifx_i2c_transport_layer.c ****                 }
 498:C:/Users/Yushev/git/optiga-trust-qi/optiga/comms/ifx_i2c\ifx_i2c_transport_layer.c ****                 // Master Resend the packets,Resend only once, otherwise exit with error
 499:C:/Users/Yushev/git/optiga-trust-qi/optiga/comms/ifx_i2c\ifx_i2c_transport_layer.c ****                 if (0 == (p_ctx->tl.chaining_error_count++))
 500:C:/Users/Yushev/git/optiga-trust-qi/optiga/comms/ifx_i2c\ifx_i2c_transport_layer.c ****                 {
 501:C:/Users/Yushev/git/optiga-trust-qi/optiga/comms/ifx_i2c\ifx_i2c_transport_layer.c ****                     LOG_TL("[IFX-TL]: Resend : Resending\n");
 502:C:/Users/Yushev/git/optiga-trust-qi/optiga/comms/ifx_i2c\ifx_i2c_transport_layer.c ****                     p_ctx->tl.state = TL_STATE_IDLE;
 503:C:/Users/Yushev/git/optiga-trust-qi/optiga/comms/ifx_i2c\ifx_i2c_transport_layer.c ****                     if (0 != ifx_i2c_tl_resend_packets(p_ctx))
 504:C:/Users/Yushev/git/optiga-trust-qi/optiga/comms/ifx_i2c\ifx_i2c_transport_layer.c ****                     {
 505:C:/Users/Yushev/git/optiga-trust-qi/optiga/comms/ifx_i2c\ifx_i2c_transport_layer.c ****                         p_ctx->tl.state = TL_STATE_ERROR;
 506:C:/Users/Yushev/git/optiga-trust-qi/optiga/comms/ifx_i2c\ifx_i2c_transport_layer.c ****                     }
 507:C:/Users/Yushev/git/optiga-trust-qi/optiga/comms/ifx_i2c\ifx_i2c_transport_layer.c ****                     else
 508:C:/Users/Yushev/git/optiga-trust-qi/optiga/comms/ifx_i2c\ifx_i2c_transport_layer.c ****                     {
 509:C:/Users/Yushev/git/optiga-trust-qi/optiga/comms/ifx_i2c\ifx_i2c_transport_layer.c ****                         exit_machine = FALSE;
 510:C:/Users/Yushev/git/optiga-trust-qi/optiga/comms/ifx_i2c\ifx_i2c_transport_layer.c ****                     }
 511:C:/Users/Yushev/git/optiga-trust-qi/optiga/comms/ifx_i2c\ifx_i2c_transport_layer.c ****                 }
 512:C:/Users/Yushev/git/optiga-trust-qi/optiga/comms/ifx_i2c\ifx_i2c_transport_layer.c ****                 else
 513:C:/Users/Yushev/git/optiga-trust-qi/optiga/comms/ifx_i2c\ifx_i2c_transport_layer.c ****                 {
 514:C:/Users/Yushev/git/optiga-trust-qi/optiga/comms/ifx_i2c\ifx_i2c_transport_layer.c ****                     LOG_TL("[IFX-TL]: Resend : chaining_error_count exceeded\n");
 515:C:/Users/Yushev/git/optiga-trust-qi/optiga/comms/ifx_i2c\ifx_i2c_transport_layer.c ****                     p_ctx->tl.state = TL_STATE_ERROR;
 516:C:/Users/Yushev/git/optiga-trust-qi/optiga/comms/ifx_i2c\ifx_i2c_transport_layer.c ****                 }
 517:C:/Users/Yushev/git/optiga-trust-qi/optiga/comms/ifx_i2c\ifx_i2c_transport_layer.c ****             }
 518:C:/Users/Yushev/git/optiga-trust-qi/optiga/comms/ifx_i2c\ifx_i2c_transport_layer.c ****             break;
 519:C:/Users/Yushev/git/optiga-trust-qi/optiga/comms/ifx_i2c\ifx_i2c_transport_layer.c ****             case TL_STATE_CHAINING_ERROR:
 520:C:/Users/Yushev/git/optiga-trust-qi/optiga/comms/ifx_i2c\ifx_i2c_transport_layer.c ****             {
 521:C:/Users/Yushev/git/optiga-trust-qi/optiga/comms/ifx_i2c\ifx_i2c_transport_layer.c ****                 // Send chaining error to slave
 522:C:/Users/Yushev/git/optiga-trust-qi/optiga/comms/ifx_i2c\ifx_i2c_transport_layer.c ****                 p_ctx->tl.state = TL_STATE_TX;
 523:C:/Users/Yushev/git/optiga-trust-qi/optiga/comms/ifx_i2c\ifx_i2c_transport_layer.c ****                 if (0 == (p_ctx->tl.master_chaining_error_count++))
 524:C:/Users/Yushev/git/optiga-trust-qi/optiga/comms/ifx_i2c\ifx_i2c_transport_layer.c ****                 {
 525:C:/Users/Yushev/git/optiga-trust-qi/optiga/comms/ifx_i2c\ifx_i2c_transport_layer.c ****                     LOG_TL("[IFX-TL]: Chain error : Sending chain error\n");
 526:C:/Users/Yushev/git/optiga-trust-qi/optiga/comms/ifx_i2c\ifx_i2c_transport_layer.c ****                     // Send chaining error only once
 527:C:/Users/Yushev/git/optiga-trust-qi/optiga/comms/ifx_i2c\ifx_i2c_transport_layer.c ****                     if (0 != ifx_i2c_tl_send_chaining_error(p_ctx))
 528:C:/Users/Yushev/git/optiga-trust-qi/optiga/comms/ifx_i2c\ifx_i2c_transport_layer.c ****                     {
 529:C:/Users/Yushev/git/optiga-trust-qi/optiga/comms/ifx_i2c\ifx_i2c_transport_layer.c ****                         p_ctx->tl.state = TL_STATE_ERROR;
 530:C:/Users/Yushev/git/optiga-trust-qi/optiga/comms/ifx_i2c\ifx_i2c_transport_layer.c ****                     }
 531:C:/Users/Yushev/git/optiga-trust-qi/optiga/comms/ifx_i2c\ifx_i2c_transport_layer.c ****                     else
 532:C:/Users/Yushev/git/optiga-trust-qi/optiga/comms/ifx_i2c\ifx_i2c_transport_layer.c ****                     {
 533:C:/Users/Yushev/git/optiga-trust-qi/optiga/comms/ifx_i2c\ifx_i2c_transport_layer.c ****                         exit_machine = FALSE;
 534:C:/Users/Yushev/git/optiga-trust-qi/optiga/comms/ifx_i2c\ifx_i2c_transport_layer.c ****                     }
 535:C:/Users/Yushev/git/optiga-trust-qi/optiga/comms/ifx_i2c\ifx_i2c_transport_layer.c ****                 }
 536:C:/Users/Yushev/git/optiga-trust-qi/optiga/comms/ifx_i2c\ifx_i2c_transport_layer.c ****                 else
 537:C:/Users/Yushev/git/optiga-trust-qi/optiga/comms/ifx_i2c\ifx_i2c_transport_layer.c ****                 {
 538:C:/Users/Yushev/git/optiga-trust-qi/optiga/comms/ifx_i2c\ifx_i2c_transport_layer.c ****                     LOG_TL("[IFX-TL]: Chain error : master_chaining_error_count exceeded\n");
 539:C:/Users/Yushev/git/optiga-trust-qi/optiga/comms/ifx_i2c\ifx_i2c_transport_layer.c ****                     p_ctx->tl.state = TL_STATE_ERROR;
 540:C:/Users/Yushev/git/optiga-trust-qi/optiga/comms/ifx_i2c\ifx_i2c_transport_layer.c ****                 }
 541:C:/Users/Yushev/git/optiga-trust-qi/optiga/comms/ifx_i2c\ifx_i2c_transport_layer.c ****             }
 542:C:/Users/Yushev/git/optiga-trust-qi/optiga/comms/ifx_i2c\ifx_i2c_transport_layer.c ****             break;
 543:C:/Users/Yushev/git/optiga-trust-qi/optiga/comms/ifx_i2c\ifx_i2c_transport_layer.c ****             case TL_STATE_ERROR:
 544:C:/Users/Yushev/git/optiga-trust-qi/optiga/comms/ifx_i2c\ifx_i2c_transport_layer.c ****             {
 545:C:/Users/Yushev/git/optiga-trust-qi/optiga/comms/ifx_i2c\ifx_i2c_transport_layer.c ****                 LOG_TL("[IFX-TL]: Error\n");
 546:C:/Users/Yushev/git/optiga-trust-qi/optiga/comms/ifx_i2c\ifx_i2c_transport_layer.c ****                 exit_machine = FALSE;
 547:C:/Users/Yushev/git/optiga-trust-qi/optiga/comms/ifx_i2c\ifx_i2c_transport_layer.c ****                 if ((0 != (event & IFX_I2C_DL_EVENT_ERROR)) || (0 != data_len))
 548:C:/Users/Yushev/git/optiga-trust-qi/optiga/comms/ifx_i2c\ifx_i2c_transport_layer.c ****                 {
 549:C:/Users/Yushev/git/optiga-trust-qi/optiga/comms/ifx_i2c\ifx_i2c_transport_layer.c ****                     p_ctx->tl.state = TL_STATE_IDLE;
 550:C:/Users/Yushev/git/optiga-trust-qi/optiga/comms/ifx_i2c\ifx_i2c_transport_layer.c ****                 }
 551:C:/Users/Yushev/git/optiga-trust-qi/optiga/comms/ifx_i2c\ifx_i2c_transport_layer.c ****                 p_ctx->tl.upper_layer_event_handler(p_ctx, p_ctx->tl.error_event, 0u, 0u);
 552:C:/Users/Yushev/git/optiga-trust-qi/optiga/comms/ifx_i2c\ifx_i2c_transport_layer.c ****             }
 553:C:/Users/Yushev/git/optiga-trust-qi/optiga/comms/ifx_i2c\ifx_i2c_transport_layer.c ****             break;
 554:C:/Users/Yushev/git/optiga-trust-qi/optiga/comms/ifx_i2c\ifx_i2c_transport_layer.c ****             default:
 555:C:/Users/Yushev/git/optiga-trust-qi/optiga/comms/ifx_i2c\ifx_i2c_transport_layer.c ****             {
 556:C:/Users/Yushev/git/optiga-trust-qi/optiga/comms/ifx_i2c\ifx_i2c_transport_layer.c ****                 LOG_TL("[IFX-TL]: Exit from default case\n");
 557:C:/Users/Yushev/git/optiga-trust-qi/optiga/comms/ifx_i2c\ifx_i2c_transport_layer.c ****                 p_ctx->tl.state = TL_STATE_IDLE;
 558:C:/Users/Yushev/git/optiga-trust-qi/optiga/comms/ifx_i2c\ifx_i2c_transport_layer.c ****                 exit_machine = FALSE;
 559:C:/Users/Yushev/git/optiga-trust-qi/optiga/comms/ifx_i2c\ifx_i2c_transport_layer.c ****                 p_ctx->tl.upper_layer_event_handler(p_ctx, p_ctx->tl.error_event, 0u, 0u);
 560:C:/Users/Yushev/git/optiga-trust-qi/optiga/comms/ifx_i2c\ifx_i2c_transport_layer.c ****             }
 561:C:/Users/Yushev/git/optiga-trust-qi/optiga/comms/ifx_i2c\ifx_i2c_transport_layer.c ****             break;
 562:C:/Users/Yushev/git/optiga-trust-qi/optiga/comms/ifx_i2c\ifx_i2c_transport_layer.c ****         }
 563:C:/Users/Yushev/git/optiga-trust-qi/optiga/comms/ifx_i2c\ifx_i2c_transport_layer.c ****     } while (TRUE == exit_machine);
 564:C:/Users/Yushev/git/optiga-trust-qi/optiga/comms/ifx_i2c\ifx_i2c_transport_layer.c **** }
 246              	 .loc 1 564 0
 247 0092 BDE8F047 	 pop {r4,r5,r6,r7,r8,r9,r10,lr}
 248              	.LCFI3:
 249              	 .cfi_remember_state
 250              	 .cfi_restore 14
 251              	 .cfi_restore 10
 252              	 .cfi_restore 9
 253              	 .cfi_restore 8
 254              	 .cfi_restore 7
 255              	 .cfi_restore 6
 256              	 .cfi_restore 5
 257              	 .cfi_restore 4
 258              	 .cfi_def_cfa_offset 0
 259              	.LVL22:
 341:C:/Users/Yushev/git/optiga-trust-qi/optiga/comms/ifx_i2c\ifx_i2c_transport_layer.c ****                     }
 260              	 .loc 1 341 0
 261 0096 FFF7FEBF 	 b ifx_i2c_tl_send_next_fragment
 262              	.LVL23:
 263              	.L22:
 264              	.LCFI4:
 265              	 .cfi_restore_state
 347:C:/Users/Yushev/git/optiga-trust-qi/optiga/comms/ifx_i2c\ifx_i2c_transport_layer.c ****                         p_ctx->tl.total_recv_length = 0;
 266              	 .loc 1 347 0
 267 009a 0423     	 movs r3,#4
 268 009c 84F83430 	 strb r3,[r4,#52]
 348:C:/Users/Yushev/git/optiga-trust-qi/optiga/comms/ifx_i2c\ifx_i2c_transport_layer.c ****                         p_ctx->tl.previous_chaining = TL_CHAINING_NO;
 269              	 .loc 1 348 0
 270 00a0 0023     	 movs r3,#0
 271 00a2 A387     	 strh r3,[r4,#60]
 349:C:/Users/Yushev/git/optiga-trust-qi/optiga/comms/ifx_i2c\ifx_i2c_transport_layer.c ****                         p_ctx->tl.transmission_completed = 1;
 272              	 .loc 1 349 0
 273 00a4 84F85230 	 strb r3,[r4,#82]
 352:C:/Users/Yushev/git/optiga-trust-qi/optiga/comms/ifx_i2c\ifx_i2c_transport_layer.c ****                         {
 274              	 .loc 1 352 0
 275 00a8 1AF0040F 	 tst r10,#4
 350:C:/Users/Yushev/git/optiga-trust-qi/optiga/comms/ifx_i2c\ifx_i2c_transport_layer.c ****                         // if data is received after sending last frame
 276              	 .loc 1 350 0
 277 00ac 4FF00103 	 mov r3,#1
 278 00b0 84F85330 	 strb r3,[r4,#83]
 352:C:/Users/Yushev/git/optiga-trust-qi/optiga/comms/ifx_i2c\ifx_i2c_transport_layer.c ****                         {
 279              	 .loc 1 352 0
 280 00b4 ACD1     	 bne .L44
 356:C:/Users/Yushev/git/optiga-trust-qi/optiga/comms/ifx_i2c\ifx_i2c_transport_layer.c ****                             {
 281              	 .loc 1 356 0
 282 00b6 2046     	 mov r0,r4
 283 00b8 FFF7FEFF 	 bl ifx_i2c_dl_receive_frame
 284              	.LVL24:
 285 00bc 0028     	 cmp r0,#0
 286 00be 00F0D280 	 beq .L7
 287              	.LVL25:
 288              	.L38:
 359:C:/Users/Yushev/git/optiga-trust-qi/optiga/comms/ifx_i2c\ifx_i2c_transport_layer.c ****                             }
 289              	 .loc 1 359 0
 290 00c2 0623     	 movs r3,#6
 291 00c4 0FE0     	 b .L86
 292              	.LVL26:
 293              	.L16:
 376:C:/Users/Yushev/git/optiga-trust-qi/optiga/comms/ifx_i2c\ifx_i2c_transport_layer.c ****                 {
 294              	 .loc 1 376 0
 295 00c6 1AF0040F 	 tst r10,#4
 296 00ca 38D0     	 beq .L83
 379:C:/Users/Yushev/git/optiga-trust-qi/optiga/comms/ifx_i2c\ifx_i2c_transport_layer.c ****                     {
 297              	 .loc 1 379 0
 298 00cc BEB3     	 cbz r6,.L83
 386:C:/Users/Yushev/git/optiga-trust-qi/optiga/comms/ifx_i2c\ifx_i2c_transport_layer.c ****                     {
 299              	 .loc 1 386 0
 300 00ce B4F85430 	 ldrh r3,[r4,#84]
 301 00d2 B3F5827F 	 cmp r3,#260
 302 00d6 0AD1     	 bne .L28
 388:C:/Users/Yushev/git/optiga-trust-qi/optiga/comms/ifx_i2c\ifx_i2c_transport_layer.c ****                         {
 303              	 .loc 1 388 0
 304 00d8 042D     	 cmp r5,#4
 305 00da 30D0     	 beq .L83
 388:C:/Users/Yushev/git/optiga-trust-qi/optiga/comms/ifx_i2c\ifx_i2c_transport_layer.c ****                         {
 306              	 .loc 1 388 0 is_stmt 0 discriminator 1
 307 00dc 2046     	 mov r0,r4
 308 00de FFF7FEFF 	 bl ifx_i2c_dl_receive_frame
 309              	.LVL27:
 310 00e2 60BB     	 cbnz r0,.L83
 393:C:/Users/Yushev/git/optiga-trust-qi/optiga/comms/ifx_i2c\ifx_i2c_transport_layer.c ****                         exit_machine = FALSE;
 311              	 .loc 1 393 0 is_stmt 1
 312 00e4 0423     	 movs r3,#4
 313              	.LVL28:
 314              	.L86:
 315 00e6 84F83430 	 strb r3,[r4,#52]
 316              	.LVL29:
 395:C:/Users/Yushev/git/optiga-trust-qi/optiga/comms/ifx_i2c\ifx_i2c_transport_layer.c ****                     }
 317              	 .loc 1 395 0
 318 00ea BDE8F087 	 pop {r4,r5,r6,r7,r8,r9,r10,pc}
 319              	.LVL30:
 320              	.L28:
 321              	.LBB20:
 322              	.LBB21:
 233:C:/Users/Yushev/git/optiga-trust-qi/optiga/comms/ifx_i2c\ifx_i2c_transport_layer.c ****         (TL_CHAINING_LAST == current_chaning) || (TL_CHAINING_INTERMEDIATE == current_chaning) ||
 323              	 .loc 1 233 0
 324 00ee 072D     	 cmp r5,#7
 325              	.LBE21:
 326              	.LBE20:
 399:C:/Users/Yushev/git/optiga-trust-qi/optiga/comms/ifx_i2c\ifx_i2c_transport_layer.c ****                     {
 327              	 .loc 1 399 0
 328 00f0 94F85220 	 ldrb r2,[r4,#82]
 329              	.LVL31:
 330              	.LBB23:
 331              	.LBB22:
 233:C:/Users/Yushev/git/optiga-trust-qi/optiga/comms/ifx_i2c\ifx_i2c_transport_layer.c ****         (TL_CHAINING_LAST == current_chaning) || (TL_CHAINING_INTERMEDIATE == current_chaning) ||
 332              	 .loc 1 233 0
 333 00f4 04D0     	 beq .L31
 334 00f6 022D     	 cmp r5,#2
 335 00f8 02D9     	 bls .L31
 336 00fa 042D     	 cmp r5,#4
 337 00fc 40F09780 	 bne .L32
 338              	.L31:
 237:C:/Users/Yushev/git/optiga-trust-qi/optiga/comms/ifx_i2c\ifx_i2c_transport_layer.c ****             (g_pctr_states_table[current_chaning][1] == previous_chaining))
 339              	 .loc 1 237 0
 340 0100 5A4B     	 ldr r3,.L87
 341 0102 13F81510 	 ldrb r1,[r3,r5,lsl#1]
 342 0106 9142     	 cmp r1,r2
 343 0108 05D0     	 beq .L33
 238:C:/Users/Yushev/git/optiga-trust-qi/optiga/comms/ifx_i2c\ifx_i2c_transport_layer.c ****         {
 344              	 .loc 1 238 0
 345 010a 03EB4503 	 add r3,r3,r5,lsl#1
 237:C:/Users/Yushev/git/optiga-trust-qi/optiga/comms/ifx_i2c\ifx_i2c_transport_layer.c ****             (g_pctr_states_table[current_chaning][1] == previous_chaining))
 346              	 .loc 1 237 0
 347 010e 5B78     	 ldrb r3,[r3,#1]
 348 0110 9342     	 cmp r3,r2
 349 0112 40F08C80 	 bne .L32
 350              	.L33:
 351              	.LVL32:
 352              	.LBE22:
 353              	.LBE23:
 406:C:/Users/Yushev/git/optiga-trust-qi/optiga/comms/ifx_i2c\ifx_i2c_transport_layer.c ****                     if (NULL == p_data)
 354              	 .loc 1 406 0
 355 0116 84F85250 	 strb r5,[r4,#82]
 407:C:/Users/Yushev/git/optiga-trust-qi/optiga/comms/ifx_i2c\ifx_i2c_transport_layer.c ****                     {
 356              	 .loc 1 407 0
 357 011a B8F1000F 	 cmp r8,#0
 358 011e 0ED0     	 beq .L83
 414:C:/Users/Yushev/git/optiga-trust-qi/optiga/comms/ifx_i2c\ifx_i2c_transport_layer.c ****                     {
 359              	 .loc 1 414 0
 360 0120 15F00309 	 ands r9,r5,#3
 361 0124 40F09D80 	 bne .L34
 418:C:/Users/Yushev/git/optiga-trust-qi/optiga/comms/ifx_i2c\ifx_i2c_transport_layer.c ****                         {
 362              	 .loc 1 418 0
 363 0128 A18F     	 ldrh r1,[r4,#60]
 364 012a A26C     	 ldr r2,[r4,#72]
 365              	.LVL33:
 366 012c 8B19     	 adds r3,r1,r6
 367 012e 1288     	 ldrh r2,[r2]
 368 0130 013B     	 subs r3,r3,#1
 369 0132 9342     	 cmp r3,r2
 370 0134 7FDD     	 ble .L35
 421:C:/Users/Yushev/git/optiga-trust-qi/optiga/comms/ifx_i2c\ifx_i2c_transport_layer.c ****                             p_ctx->tl.state = TL_STATE_ERROR;
 371              	 .loc 1 421 0
 372 0136 4FF48273 	 mov r3,#260
 373 013a A4F85430 	 strh r3,[r4,#84]
 374              	.LVL34:
 375              	.L83:
 422:C:/Users/Yushev/git/optiga-trust-qi/optiga/comms/ifx_i2c\ifx_i2c_transport_layer.c ****                             break;
 376              	 .loc 1 422 0
 377 013e 0623     	 movs r3,#6
 378 0140 76E0     	 b .L82
 379              	.L17:
 454:C:/Users/Yushev/git/optiga-trust-qi/optiga/comms/ifx_i2c\ifx_i2c_transport_layer.c ****                 {
 380              	 .loc 1 454 0
 381 0142 B4F84220 	 ldrh r2,[r4,#66]
 382 0146 531C     	 adds r3,r2,#1
 383 0148 9E42     	 cmp r6,r3
 384 014a 01D0     	 beq .L36
 385              	.L40:
 457:C:/Users/Yushev/git/optiga-trust-qi/optiga/comms/ifx_i2c\ifx_i2c_transport_layer.c ****                     break;
 386              	 .loc 1 457 0
 387 014c 0723     	 movs r3,#7
 388 014e 6FE0     	 b .L82
 389              	.L36:
 461:C:/Users/Yushev/git/optiga-trust-qi/optiga/comms/ifx_i2c\ifx_i2c_transport_layer.c ****                 {
 390              	 .loc 1 461 0
 391 0150 A08F     	 ldrh r0,[r4,#60]
 392 0152 A16C     	 ldr r1,[r4,#72]
 393 0154 8319     	 adds r3,r0,r6
 394 0156 0988     	 ldrh r1,[r1]
 395 0158 013B     	 subs r3,r3,#1
 396 015a 8B42     	 cmp r3,r1
 397 015c 05DD     	 ble .L37
 464:C:/Users/Yushev/git/optiga-trust-qi/optiga/comms/ifx_i2c\ifx_i2c_transport_layer.c ****                     p_ctx->tl.state = TL_STATE_RX;
 398              	 .loc 1 464 0
 399 015e 4FF48273 	 mov r3,#260
 400 0162 A4F85430 	 strh r3,[r4,#84]
 465:C:/Users/Yushev/git/optiga-trust-qi/optiga/comms/ifx_i2c\ifx_i2c_transport_layer.c ****                     break;
 401              	 .loc 1 465 0
 402 0166 0423     	 movs r3,#4
 403 0168 62E0     	 b .L82
 404              	.L37:
 468:C:/Users/Yushev/git/optiga-trust-qi/optiga/comms/ifx_i2c\ifx_i2c_transport_layer.c ****                 {
 405              	 .loc 1 468 0
 406 016a B8F1000F 	 cmp r8,#0
 407 016e E6D0     	 beq .L83
 474:C:/Users/Yushev/git/optiga-trust-qi/optiga/comms/ifx_i2c\ifx_i2c_transport_layer.c ****                 p_ctx->tl.total_recv_length += (data_len - 1);
 408              	 .loc 1 474 0
 409 0170 636C     	 ldr r3,[r4,#68]
 410 0172 08F10101 	 add r1,r8,#1
 411 0176 1844     	 add r0,r0,r3
 412 0178 FFF7FEFF 	 bl memcpy
 413              	.LVL35:
 414 017c A38F     	 ldrh r3,[r4,#60]
 415 017e 013B     	 subs r3,r3,#1
 475:C:/Users/Yushev/git/optiga-trust-qi/optiga/comms/ifx_i2c\ifx_i2c_transport_layer.c **** 
 416              	 .loc 1 475 0
 417 0180 1E44     	 add r6,r6,r3
 477:C:/Users/Yushev/git/optiga-trust-qi/optiga/comms/ifx_i2c\ifx_i2c_transport_layer.c ****                 LOG_TL("[IFX-TL]: Chain : Continue  in receive mode\n");
 418              	 .loc 1 477 0
 419 0182 07F00707 	 and r7,r7,#7
 420              	.LVL36:
 479:C:/Users/Yushev/git/optiga-trust-qi/optiga/comms/ifx_i2c\ifx_i2c_transport_layer.c ****                 // Continue receiving frames until packet is complete
 421              	 .loc 1 479 0
 422 0186 0423     	 movs r3,#4
 475:C:/Users/Yushev/git/optiga-trust-qi/optiga/comms/ifx_i2c\ifx_i2c_transport_layer.c **** 
 423              	 .loc 1 475 0
 424 0188 A687     	 strh r6,[r4,#60]
 477:C:/Users/Yushev/git/optiga-trust-qi/optiga/comms/ifx_i2c\ifx_i2c_transport_layer.c ****                 LOG_TL("[IFX-TL]: Chain : Continue  in receive mode\n");
 425              	 .loc 1 477 0
 426 018a 84F85270 	 strb r7,[r4,#82]
 479:C:/Users/Yushev/git/optiga-trust-qi/optiga/comms/ifx_i2c\ifx_i2c_transport_layer.c ****                 // Continue receiving frames until packet is complete
 427              	 .loc 1 479 0
 428 018e 84F83430 	 strb r3,[r4,#52]
 481:C:/Users/Yushev/git/optiga-trust-qi/optiga/comms/ifx_i2c\ifx_i2c_transport_layer.c ****                 {
 429              	 .loc 1 481 0
 430 0192 2046     	 mov r0,r4
 431 0194 FFF7FEFF 	 bl ifx_i2c_dl_receive_frame
 432              	.LVL37:
 433 0198 0028     	 cmp r0,#0
 434 019a 92D1     	 bne .L38
 435 019c BDE8F087 	 pop {r4,r5,r6,r7,r8,r9,r10,pc}
 436              	.LVL38:
 437              	.L20:
 492:C:/Users/Yushev/git/optiga-trust-qi/optiga/comms/ifx_i2c\ifx_i2c_transport_layer.c ****                 {
 438              	 .loc 1 492 0
 439 01a0 012E     	 cmp r6,#1
 440 01a2 03D9     	 bls .L39
 492:C:/Users/Yushev/git/optiga-trust-qi/optiga/comms/ifx_i2c\ifx_i2c_transport_layer.c ****                 {
 441              	 .loc 1 492 0 is_stmt 0 discriminator 1
 442 01a4 94F85330 	 ldrb r3,[r4,#83]
 443 01a8 012B     	 cmp r3,#1
 444 01aa CFD0     	 beq .L40
 445              	.L39:
 499:C:/Users/Yushev/git/optiga-trust-qi/optiga/comms/ifx_i2c\ifx_i2c_transport_layer.c ****                 {
 446              	 .loc 1 499 0 is_stmt 1
 447 01ac 94F85030 	 ldrb r3,[r4,#80]
 448 01b0 5A1C     	 adds r2,r3,#1
 449 01b2 84F85020 	 strb r2,[r4,#80]
 450 01b6 002B     	 cmp r3,#0
 451 01b8 C1D1     	 bne .L83
 452              	.LVL39:
 453              	.LBB24:
 454              	.LBB25:
 162:C:/Users/Yushev/git/optiga-trust-qi/optiga/comms/ifx_i2c\ifx_i2c_transport_layer.c ****     p_ctx->tl.total_recv_length = 0;
 455              	 .loc 1 162 0
 456 01ba A4F84030 	 strh r3,[r4,#64]
 163:C:/Users/Yushev/git/optiga-trust-qi/optiga/comms/ifx_i2c\ifx_i2c_transport_layer.c ****     p_ctx->tl.state = TL_STATE_TX;
 457              	 .loc 1 163 0
 458 01be A387     	 strh r3,[r4,#60]
 164:C:/Users/Yushev/git/optiga-trust-qi/optiga/comms/ifx_i2c\ifx_i2c_transport_layer.c ****     return (ifx_i2c_tl_send_next_fragment(p_ctx));
 459              	 .loc 1 164 0
 460 01c0 0223     	 movs r3,#2
 461 01c2 84F83430 	 strb r3,[r4,#52]
 165:C:/Users/Yushev/git/optiga-trust-qi/optiga/comms/ifx_i2c\ifx_i2c_transport_layer.c **** }
 462              	 .loc 1 165 0
 463 01c6 2046     	 mov r0,r4
 464 01c8 FFF7FEFF 	 bl ifx_i2c_tl_send_next_fragment
 465              	.LVL40:
 466              	.LBE25:
 467              	.LBE24:
 503:C:/Users/Yushev/git/optiga-trust-qi/optiga/comms/ifx_i2c\ifx_i2c_transport_layer.c ****                     {
 468              	 .loc 1 503 0
 469 01cc 0028     	 cmp r0,#0
 470 01ce B6D1     	 bne .L83
 471 01d0 BDE8F087 	 pop {r4,r5,r6,r7,r8,r9,r10,pc}
 472              	.LVL41:
 473              	.L19:
 522:C:/Users/Yushev/git/optiga-trust-qi/optiga/comms/ifx_i2c\ifx_i2c_transport_layer.c ****                 if (0 == (p_ctx->tl.master_chaining_error_count++))
 474              	 .loc 1 522 0
 475 01d4 0223     	 movs r3,#2
 476 01d6 84F83430 	 strb r3,[r4,#52]
 523:C:/Users/Yushev/git/optiga-trust-qi/optiga/comms/ifx_i2c\ifx_i2c_transport_layer.c ****                 {
 477              	 .loc 1 523 0
 478 01da 94F85130 	 ldrb r3,[r4,#81]
 479 01de 5A1C     	 adds r2,r3,#1
 480 01e0 84F85120 	 strb r2,[r4,#81]
 481 01e4 002B     	 cmp r3,#0
 482 01e6 AAD1     	 bne .L83
 483              	.LVL42:
 484              	.LBB26:
 485              	.LBB27:
 223:C:/Users/Yushev/git/optiga-trust-qi/optiga/comms/ifx_i2c\ifx_i2c_transport_layer.c ****     p_ctx->tl.total_recv_length = 0;
 486              	 .loc 1 223 0
 487 01e8 0722     	 movs r2,#7
 488 01ea 84F8A722 	 strb r2,[r4,#679]
 224:C:/Users/Yushev/git/optiga-trust-qi/optiga/comms/ifx_i2c\ifx_i2c_transport_layer.c ****     //send the fragment to dl layer
 489              	 .loc 1 224 0
 490 01ee A387     	 strh r3,[r4,#60]
 226:C:/Users/Yushev/git/optiga-trust-qi/optiga/comms/ifx_i2c\ifx_i2c_transport_layer.c **** }
 491              	 .loc 1 226 0
 492 01f0 2046     	 mov r0,r4
 493 01f2 0121     	 movs r1,#1
 494 01f4 FFF7FEFF 	 bl ifx_i2c_dl_send_frame
 495              	.LVL43:
 496              	.LBE27:
 497              	.LBE26:
 527:C:/Users/Yushev/git/optiga-trust-qi/optiga/comms/ifx_i2c\ifx_i2c_transport_layer.c ****                     {
 498              	 .loc 1 527 0
 499 01f8 0028     	 cmp r0,#0
 500 01fa A0D1     	 bne .L83
 501 01fc BDE8F087 	 pop {r4,r5,r6,r7,r8,r9,r10,pc}
 502              	.LVL44:
 503              	.L18:
 547:C:/Users/Yushev/git/optiga-trust-qi/optiga/comms/ifx_i2c\ifx_i2c_transport_layer.c ****                 {
 504              	 .loc 1 547 0
 505 0200 02B9     	 cbnz r2,.L12
 547:C:/Users/Yushev/git/optiga-trust-qi/optiga/comms/ifx_i2c\ifx_i2c_transport_layer.c ****                 {
 506              	 .loc 1 547 0 is_stmt 0 discriminator 1
 507 0202 16B1     	 cbz r6,.L85
 508              	.LVL45:
 509              	.L12:
 557:C:/Users/Yushev/git/optiga-trust-qi/optiga/comms/ifx_i2c\ifx_i2c_transport_layer.c ****                 exit_machine = FALSE;
 510              	 .loc 1 557 0 is_stmt 1
 511 0204 0123     	 movs r3,#1
 512 0206 84F83430 	 strb r3,[r4,#52]
 513              	.L85:
 514              	.LVL46:
 559:C:/Users/Yushev/git/optiga-trust-qi/optiga/comms/ifx_i2c\ifx_i2c_transport_layer.c ****             }
 515              	 .loc 1 559 0
 516 020a 0022     	 movs r2,#0
 517 020c E56D     	 ldr r5,[r4,#92]
 518              	.LVL47:
 519 020e B4F85410 	 ldrh r1,[r4,#84]
 520 0212 2046     	 mov r0,r4
 521 0214 1346     	 mov r3,r2
 522              	.LVL48:
 523              	.L84:
 524 0216 AC46     	 mov ip,r5
 525              	 .loc 1 564 0
 526 0218 BDE8F047 	 pop {r4,r5,r6,r7,r8,r9,r10,lr}
 527              	.LCFI5:
 528              	 .cfi_remember_state
 529              	 .cfi_restore 14
 530              	 .cfi_restore 10
 531              	 .cfi_restore 9
 532              	 .cfi_restore 8
 533              	 .cfi_restore 7
 534              	 .cfi_restore 6
 535              	 .cfi_restore 5
 536              	 .cfi_restore 4
 537              	 .cfi_def_cfa_offset 0
 538              	.LVL49:
 559:C:/Users/Yushev/git/optiga-trust-qi/optiga/comms/ifx_i2c\ifx_i2c_transport_layer.c ****             }
 539              	 .loc 1 559 0
 540 021c 6047     	 bx ip
 541              	.LVL50:
 542              	.L11:
 543              	.LCFI6:
 544              	 .cfi_restore_state
 303:C:/Users/Yushev/git/optiga-trust-qi/optiga/comms/ifx_i2c\ifx_i2c_transport_layer.c ****                 p_ctx->tl.error_event = IFX_I2C_STACK_ERROR;
 545              	 .loc 1 303 0
 546 021e 0623     	 movs r3,#6
 547 0220 84F83430 	 strb r3,[r4,#52]
 304:C:/Users/Yushev/git/optiga-trust-qi/optiga/comms/ifx_i2c\ifx_i2c_transport_layer.c ****             }
 548              	 .loc 1 304 0
 549 0224 4FF48173 	 mov r3,#258
 550 0228 A4F85430 	 strh r3,[r4,#84]
 551 022c 0EE7     	 b .L10
 552              	.LVL51:
 553              	.L32:
 402:C:/Users/Yushev/git/optiga-trust-qi/optiga/comms/ifx_i2c\ifx_i2c_transport_layer.c ****                         break;
 554              	 .loc 1 402 0
 555 022e 0823     	 movs r3,#8
 556              	.LVL52:
 557              	.L82:
 558 0230 84F83430 	 strb r3,[r4,#52]
 403:C:/Users/Yushev/git/optiga-trust-qi/optiga/comms/ifx_i2c\ifx_i2c_transport_layer.c ****                     }
 559              	 .loc 1 403 0
 560 0234 ECE6     	 b .L44
 561              	.LVL53:
 562              	.L35:
 427:C:/Users/Yushev/git/optiga-trust-qi/optiga/comms/ifx_i2c\ifx_i2c_transport_layer.c ****                         p_ctx->tl.total_recv_length += (data_len - 1);
 563              	 .loc 1 427 0
 564 0236 606C     	 ldr r0,[r4,#68]
 565 0238 721E     	 subs r2,r6,#1
 566 023a 0844     	 add r0,r0,r1
 567 023c 08F10101 	 add r1,r8,#1
 568 0240 FFF7FEFF 	 bl memcpy
 569              	.LVL54:
 570 0244 A38F     	 ldrh r3,[r4,#60]
 432:C:/Users/Yushev/git/optiga-trust-qi/optiga/comms/ifx_i2c\ifx_i2c_transport_layer.c ****                                                             p_ctx->tl.p_recv_packet_buffer,
 571              	 .loc 1 432 0
 572 0246 E56D     	 ldr r5,[r4,#92]
 573              	.LVL55:
 430:C:/Users/Yushev/git/optiga-trust-qi/optiga/comms/ifx_i2c\ifx_i2c_transport_layer.c ****                         *p_ctx->tl.p_recv_packet_buffer_length = p_ctx->tl.total_recv_length;
 574              	 .loc 1 430 0
 575 0248 0122     	 movs r2,#1
 576 024a 013B     	 subs r3,r3,#1
 577 024c 84F83420 	 strb r2,[r4,#52]
 428:C:/Users/Yushev/git/optiga-trust-qi/optiga/comms/ifx_i2c\ifx_i2c_transport_layer.c ****                         // Inform upper layer that a packet has arrived
 578              	 .loc 1 428 0
 579 0250 3344     	 add r3,r3,r6
 431:C:/Users/Yushev/git/optiga-trust-qi/optiga/comms/ifx_i2c\ifx_i2c_transport_layer.c ****                         p_ctx->tl.upper_layer_event_handler(p_ctx,IFX_I2C_STACK_SUCCESS,
 580              	 .loc 1 431 0
 581 0252 A26C     	 ldr r2,[r4,#72]
 428:C:/Users/Yushev/git/optiga-trust-qi/optiga/comms/ifx_i2c\ifx_i2c_transport_layer.c ****                         // Inform upper layer that a packet has arrived
 582              	 .loc 1 428 0
 583 0254 9BB2     	 uxth r3,r3
 584 0256 A387     	 strh r3,[r4,#60]
 432:C:/Users/Yushev/git/optiga-trust-qi/optiga/comms/ifx_i2c\ifx_i2c_transport_layer.c ****                                                             p_ctx->tl.p_recv_packet_buffer,
 585              	 .loc 1 432 0
 586 0258 2046     	 mov r0,r4
 431:C:/Users/Yushev/git/optiga-trust-qi/optiga/comms/ifx_i2c\ifx_i2c_transport_layer.c ****                         p_ctx->tl.upper_layer_event_handler(p_ctx,IFX_I2C_STACK_SUCCESS,
 587              	 .loc 1 431 0
 588 025a 1380     	 strh r3,[r2]
 432:C:/Users/Yushev/git/optiga-trust-qi/optiga/comms/ifx_i2c\ifx_i2c_transport_layer.c ****                                                             p_ctx->tl.p_recv_packet_buffer,
 589              	 .loc 1 432 0
 590 025c 4946     	 mov r1,r9
 591 025e 626C     	 ldr r2,[r4,#68]
 592 0260 D9E7     	 b .L84
 593              	.LVL56:
 594              	.L34:
 438:C:/Users/Yushev/git/optiga-trust-qi/optiga/comms/ifx_i2c\ifx_i2c_transport_layer.c ****                     }
 595              	 .loc 1 438 0
 596 0262 0523     	 movs r3,#5
 597 0264 E4E7     	 b .L82
 598              	.LVL57:
 599              	.L7:
 600 0266 BDE8F087 	 pop {r4,r5,r6,r7,r8,r9,r10,pc}
 601              	.LVL58:
 602              	.L88:
 603 026a 00BF     	 .align 2
 604              	.L87:
 605 026c 00000000 	 .word .LANCHOR0
 606              	 .cfi_endproc
 607              	.LFE8:
 609              	 .section .text.ifx_i2c_tl_init,"ax",%progbits
 610              	 .align 1
 611              	 .global ifx_i2c_tl_init
 612              	 .thumb
 613              	 .thumb_func
 615              	ifx_i2c_tl_init:
 616              	.LFB0:
  96:C:/Users/Yushev/git/optiga-trust-qi/optiga/comms/ifx_i2c\ifx_i2c_transport_layer.c ****     LOG_TL("[IFX-TL]: Init\n");
 617              	 .loc 1 96 0
 618              	 .cfi_startproc
 619              	 
 620              	 
 621              	.LVL59:
 622 0000 38B5     	 push {r3,r4,r5,lr}
 623              	.LCFI7:
 624              	 .cfi_def_cfa_offset 16
 625              	 .cfi_offset 3,-16
 626              	 .cfi_offset 4,-12
 627              	 .cfi_offset 5,-8
 628              	 .cfi_offset 14,-4
  99:C:/Users/Yushev/git/optiga-trust-qi/optiga/comms/ifx_i2c\ifx_i2c_transport_layer.c **** 
 629              	 .loc 1 99 0
 630 0002 0023     	 movs r3,#0
  96:C:/Users/Yushev/git/optiga-trust-qi/optiga/comms/ifx_i2c\ifx_i2c_transport_layer.c ****     LOG_TL("[IFX-TL]: Init\n");
 631              	 .loc 1 96 0
 632 0004 0D46     	 mov r5,r1
  99:C:/Users/Yushev/git/optiga-trust-qi/optiga/comms/ifx_i2c\ifx_i2c_transport_layer.c **** 
 633              	 .loc 1 99 0
 634 0006 80F83430 	 strb r3,[r0,#52]
 102:C:/Users/Yushev/git/optiga-trust-qi/optiga/comms/ifx_i2c\ifx_i2c_transport_layer.c ****     {
 635              	 .loc 1 102 0
 636 000a 0949     	 ldr r1,.L92
 637              	.LVL60:
  96:C:/Users/Yushev/git/optiga-trust-qi/optiga/comms/ifx_i2c\ifx_i2c_transport_layer.c ****     LOG_TL("[IFX-TL]: Init\n");
 638              	 .loc 1 96 0
 639 000c 0446     	 mov r4,r0
 102:C:/Users/Yushev/git/optiga-trust-qi/optiga/comms/ifx_i2c\ifx_i2c_transport_layer.c ****     {
 640              	 .loc 1 102 0
 641 000e FFF7FEFF 	 bl ifx_i2c_dl_init
 642              	.LVL61:
 643 0012 50B9     	 cbnz r0,.L91
 106:C:/Users/Yushev/git/optiga-trust-qi/optiga/comms/ifx_i2c\ifx_i2c_transport_layer.c ****     p_ctx->tl.upper_layer_event_handler = handler;
 644              	 .loc 1 106 0
 645 0014 0123     	 movs r3,#1
 646 0016 84F85830 	 strb r3,[r4,#88]
 108:C:/Users/Yushev/git/optiga-trust-qi/optiga/comms/ifx_i2c\ifx_i2c_transport_layer.c ****     p_ctx->tl.max_packet_length = p_ctx->frame_size - (DL_HEADER_SIZE + TL_HEADER_SIZE);
 647              	 .loc 1 108 0
 648 001a 84F83430 	 strb r3,[r4,#52]
 109:C:/Users/Yushev/git/optiga-trust-qi/optiga/comms/ifx_i2c\ifx_i2c_transport_layer.c **** 
 649              	 .loc 1 109 0
 650 001e A388     	 ldrh r3,[r4,#4]
 107:C:/Users/Yushev/git/optiga-trust-qi/optiga/comms/ifx_i2c\ifx_i2c_transport_layer.c ****     p_ctx->tl.state = TL_STATE_IDLE;
 651              	 .loc 1 107 0
 652 0020 E565     	 str r5,[r4,#92]
 109:C:/Users/Yushev/git/optiga-trust-qi/optiga/comms/ifx_i2c\ifx_i2c_transport_layer.c **** 
 653              	 .loc 1 109 0
 654 0022 063B     	 subs r3,r3,#6
 655 0024 A4F84230 	 strh r3,[r4,#66]
 111:C:/Users/Yushev/git/optiga-trust-qi/optiga/comms/ifx_i2c\ifx_i2c_transport_layer.c **** }
 656              	 .loc 1 111 0
 657 0028 38BD     	 pop {r3,r4,r5,pc}
 658              	.LVL62:
 659              	.L91:
 104:C:/Users/Yushev/git/optiga-trust-qi/optiga/comms/ifx_i2c\ifx_i2c_transport_layer.c ****     }
 660              	 .loc 1 104 0
 661 002a 4FF48170 	 mov r0,#258
 112:C:/Users/Yushev/git/optiga-trust-qi/optiga/comms/ifx_i2c\ifx_i2c_transport_layer.c **** 
 662              	 .loc 1 112 0
 663 002e 38BD     	 pop {r3,r4,r5,pc}
 664              	.LVL63:
 665              	.L93:
 666              	 .align 2
 667              	.L92:
 668 0030 00000000 	 .word ifx_i2c_dl_event_handler
 669              	 .cfi_endproc
 670              	.LFE0:
 672              	 .section .text.ifx_i2c_tl_transceive,"ax",%progbits
 673              	 .align 1
 674              	 .global ifx_i2c_tl_transceive
 675              	 .thumb
 676              	 .thumb_func
 678              	ifx_i2c_tl_transceive:
 679              	.LFB1:
 120:C:/Users/Yushev/git/optiga-trust-qi/optiga/comms/ifx_i2c\ifx_i2c_transport_layer.c ****     optiga_lib_status_t status = IFX_I2C_STACK_ERROR;
 680              	 .loc 1 120 0
 681              	 .cfi_startproc
 682              	 
 683              	 
 684              	.LVL64:
 685 0000 2DE9F041 	 push {r4,r5,r6,r7,r8,lr}
 686              	.LCFI8:
 687              	 .cfi_def_cfa_offset 24
 688              	 .cfi_offset 4,-24
 689              	 .cfi_offset 5,-20
 690              	 .cfi_offset 6,-16
 691              	 .cfi_offset 7,-12
 692              	 .cfi_offset 8,-8
 693              	 .cfi_offset 14,-4
 120:C:/Users/Yushev/git/optiga-trust-qi/optiga/comms/ifx_i2c\ifx_i2c_transport_layer.c ****     optiga_lib_status_t status = IFX_I2C_STACK_ERROR;
 694              	 .loc 1 120 0
 695 0004 069F     	 ldr r7,[sp,#24]
 696 0006 0446     	 mov r4,r0
 697 0008 1546     	 mov r5,r2
 698 000a 9846     	 mov r8,r3
 127:C:/Users/Yushev/git/optiga-trust-qi/optiga/comms/ifx_i2c\ifx_i2c_transport_layer.c ****         {
 699              	 .loc 1 127 0
 700 000c 0E46     	 mov r6,r1
 701 000e 11B3     	 cbz r1,.L95
 127:C:/Users/Yushev/git/optiga-trust-qi/optiga/comms/ifx_i2c\ifx_i2c_transport_layer.c ****         {
 702              	 .loc 1 127 0 is_stmt 0 discriminator 1
 703 0010 0AB3     	 cbz r2,.L95
 132:C:/Users/Yushev/git/optiga-trust-qi/optiga/comms/ifx_i2c\ifx_i2c_transport_layer.c ****         {
 704              	 .loc 1 132 0 is_stmt 1
 705 0012 90F83430 	 ldrb r3,[r0,#52]
 706              	.LVL65:
 707 0016 012B     	 cmp r3,#1
 708 0018 1DD1     	 bne .L95
 136:C:/Users/Yushev/git/optiga-trust-qi/optiga/comms/ifx_i2c\ifx_i2c_transport_layer.c ****         p_ctx->tl.api_start_time = pal_os_timer_get_time_in_milliseconds();
 709              	 .loc 1 136 0
 710 001a 0223     	 movs r3,#2
 711 001c 80F83430 	 strb r3,[r0,#52]
 137:C:/Users/Yushev/git/optiga-trust-qi/optiga/comms/ifx_i2c\ifx_i2c_transport_layer.c ****         p_ctx->tl.p_actual_packet = p_packet;
 712              	 .loc 1 137 0
 713 0020 FFF7FEFF 	 bl pal_os_timer_get_time_in_milliseconds
 714              	.LVL66:
 140:C:/Users/Yushev/git/optiga-trust-qi/optiga/comms/ifx_i2c\ifx_i2c_transport_layer.c ****         p_ctx->tl.p_recv_packet_buffer = p_recv_packet;
 715              	 .loc 1 140 0
 716 0024 0022     	 movs r2,#0
 144:C:/Users/Yushev/git/optiga-trust-qi/optiga/comms/ifx_i2c\ifx_i2c_transport_layer.c ****         p_ctx->tl.master_chaining_error_count = 0;
 717              	 .loc 1 144 0
 718 0026 84F85020 	 strb r2,[r4,#80]
 145:C:/Users/Yushev/git/optiga-trust-qi/optiga/comms/ifx_i2c\ifx_i2c_transport_layer.c ****         p_ctx->tl.transmission_completed = 0;
 719              	 .loc 1 145 0
 720 002a 84F85120 	 strb r2,[r4,#81]
 146:C:/Users/Yushev/git/optiga-trust-qi/optiga/comms/ifx_i2c\ifx_i2c_transport_layer.c ****         p_ctx->tl.error_event = IFX_I2C_STACK_ERROR;
 721              	 .loc 1 146 0
 722 002e 84F85320 	 strb r2,[r4,#83]
 147:C:/Users/Yushev/git/optiga-trust-qi/optiga/comms/ifx_i2c\ifx_i2c_transport_layer.c ****         status = ifx_i2c_tl_send_next_fragment(p_ctx);
 723              	 .loc 1 147 0
 724 0032 4FF48173 	 mov r3,#258
 137:C:/Users/Yushev/git/optiga-trust-qi/optiga/comms/ifx_i2c\ifx_i2c_transport_layer.c ****         p_ctx->tl.p_actual_packet = p_packet;
 725              	 .loc 1 137 0
 726 0036 E064     	 str r0,[r4,#76]
 138:C:/Users/Yushev/git/optiga-trust-qi/optiga/comms/ifx_i2c\ifx_i2c_transport_layer.c ****         p_ctx->tl.actual_packet_length = packet_len;
 727              	 .loc 1 138 0
 728 0038 A663     	 str r6,[r4,#56]
 139:C:/Users/Yushev/git/optiga-trust-qi/optiga/comms/ifx_i2c\ifx_i2c_transport_layer.c ****         p_ctx->tl.packet_offset = 0;
 729              	 .loc 1 139 0
 730 003a E587     	 strh r5,[r4,#62]
 140:C:/Users/Yushev/git/optiga-trust-qi/optiga/comms/ifx_i2c\ifx_i2c_transport_layer.c ****         p_ctx->tl.p_recv_packet_buffer = p_recv_packet;
 731              	 .loc 1 140 0
 732 003c A4F84020 	 strh r2,[r4,#64]
 141:C:/Users/Yushev/git/optiga-trust-qi/optiga/comms/ifx_i2c\ifx_i2c_transport_layer.c ****         p_ctx->tl.p_recv_packet_buffer_length = p_recv_packet_len;
 733              	 .loc 1 141 0
 734 0040 C4F84480 	 str r8,[r4,#68]
 142:C:/Users/Yushev/git/optiga-trust-qi/optiga/comms/ifx_i2c\ifx_i2c_transport_layer.c ****         p_ctx->tl.total_recv_length = 0;
 735              	 .loc 1 142 0
 736 0044 A764     	 str r7,[r4,#72]
 143:C:/Users/Yushev/git/optiga-trust-qi/optiga/comms/ifx_i2c\ifx_i2c_transport_layer.c ****         p_ctx->tl.chaining_error_count = 0;
 737              	 .loc 1 143 0
 738 0046 A287     	 strh r2,[r4,#60]
 147:C:/Users/Yushev/git/optiga-trust-qi/optiga/comms/ifx_i2c\ifx_i2c_transport_layer.c ****         status = ifx_i2c_tl_send_next_fragment(p_ctx);
 739              	 .loc 1 147 0
 740 0048 A4F85430 	 strh r3,[r4,#84]
 148:C:/Users/Yushev/git/optiga-trust-qi/optiga/comms/ifx_i2c\ifx_i2c_transport_layer.c ****     } while (FALSE);
 741              	 .loc 1 148 0
 742 004c 2046     	 mov r0,r4
 151:C:/Users/Yushev/git/optiga-trust-qi/optiga/comms/ifx_i2c\ifx_i2c_transport_layer.c **** 
 743              	 .loc 1 151 0
 744 004e BDE8F041 	 pop {r4,r5,r6,r7,r8,lr}
 745              	.LCFI9:
 746              	 .cfi_remember_state
 747              	 .cfi_restore 14
 748              	 .cfi_restore 8
 749              	 .cfi_restore 7
 750              	 .cfi_restore 6
 751              	 .cfi_restore 5
 752              	 .cfi_restore 4
 753              	 .cfi_def_cfa_offset 0
 754              	.LVL67:
 148:C:/Users/Yushev/git/optiga-trust-qi/optiga/comms/ifx_i2c\ifx_i2c_transport_layer.c ****     } while (FALSE);
 755              	 .loc 1 148 0
 756 0052 FFF7FEBF 	 b ifx_i2c_tl_send_next_fragment
 757              	.LVL68:
 758              	.L95:
 759              	.LCFI10:
 760              	 .cfi_restore_state
 151:C:/Users/Yushev/git/optiga-trust-qi/optiga/comms/ifx_i2c\ifx_i2c_transport_layer.c **** 
 761              	 .loc 1 151 0
 762 0056 4FF48170 	 mov r0,#258
 763              	.LVL69:
 764 005a BDE8F081 	 pop {r4,r5,r6,r7,r8,pc}
 765              	 .cfi_endproc
 766              	.LFE1:
 768              	 .section .rodata.g_pctr_states_table,"a",%progbits
 769              	 .set .LANCHOR0,.+0
 772              	g_pctr_states_table:
 773 0000 00       	 .byte 0
 774 0001 04       	 .byte 4
 775 0002 00       	 .byte 0
 776 0003 04       	 .byte 4
 777 0004 01       	 .byte 1
 778 0005 02       	 .byte 2
 779 0006 FF       	 .byte -1
 780 0007 FF       	 .byte -1
 781 0008 01       	 .byte 1
 782 0009 02       	 .byte 2
 783 000a FF       	 .byte -1
 784 000b FF       	 .byte -1
 785 000c FF       	 .byte -1
 786 000d FF       	 .byte -1
 787 000e 07       	 .byte 7
 788 000f 07       	 .byte 7
 789              	 .text
 790              	.Letext0:
 791              	 .file 2 "c:\\users\\yushev\\dave_4-4-2_32bit_2018-02-23\\dave-ide-4.4.2-32bit\\eclipse\\arm-gcc-49\\arm-none-eabi\\include\\machine\\_default_types.h"
 792              	 .file 3 "c:\\users\\yushev\\dave_4-4-2_32bit_2018-02-23\\dave-ide-4.4.2-32bit\\eclipse\\arm-gcc-49\\arm-none-eabi\\include\\stdint.h"
 793              	 .file 4 "C:/Users/Yushev/git/optiga-trust-qi/optiga/include/optiga/common/optiga_lib_types.h"
 794              	 .file 5 "C:/Users/Yushev/git/optiga-trust-qi/optiga/include/optiga/pal/pal_i2c.h"
 795              	 .file 6 "C:/Users/Yushev/git/optiga-trust-qi/optiga/include/optiga/pal/pal_gpio.h"
 796              	 .file 7 "C:/Users/Yushev/git/optiga-trust-qi/optiga/include/optiga/ifx_i2c/ifx_i2c_config.h"
 797              	 .file 8 "C:/Users/Yushev/git/optiga-trust-qi/optiga/include/optiga/ifx_i2c/ifx_i2c_data_link_layer.h"
 798              	 .file 9 "C:/Users/Yushev/git/optiga-trust-qi/optiga/include/optiga/pal/pal_os_timer.h"