   1              	 .syntax unified
   2              	 .cpu cortex-m4
   3              	 .eabi_attribute 27,3
   4              	 .fpu fpv4-sp-d16
   5              	 .eabi_attribute 20,1
   6              	 .eabi_attribute 21,1
   7              	 .eabi_attribute 23,3
   8              	 .eabi_attribute 24,1
   9              	 .eabi_attribute 25,1
  10              	 .eabi_attribute 26,1
  11              	 .eabi_attribute 30,4
  12              	 .eabi_attribute 34,1
  13              	 .eabi_attribute 18,4
  14              	 .thumb
  15              	 .file "ifx_i2c_data_link_layer.c"
  16              	 .text
  17              	.Ltext0:
  18              	 .cfi_sections .debug_frame
  19              	 .section .text.ifx_i2c_dl_calc_crc,"ax",%progbits
  20              	 .align 1
  21              	 .thumb
  22              	 .thumb_func
  24              	ifx_i2c_dl_calc_crc:
  25              	.LFB4:
  26              	 .file 1 "C:/Users/Yushev/git/optiga-trust-qi/optiga/comms/ifx_i2c/ifx_i2c_data_link_layer.c"
   1:C:/Users/Yushev/git/optiga-trust-qi/optiga/comms/ifx_i2c\ifx_i2c_data_link_layer.c **** /**
   2:C:/Users/Yushev/git/optiga-trust-qi/optiga/comms/ifx_i2c\ifx_i2c_data_link_layer.c **** * \copyright
   3:C:/Users/Yushev/git/optiga-trust-qi/optiga/comms/ifx_i2c\ifx_i2c_data_link_layer.c **** * MIT License
   4:C:/Users/Yushev/git/optiga-trust-qi/optiga/comms/ifx_i2c\ifx_i2c_data_link_layer.c **** *
   5:C:/Users/Yushev/git/optiga-trust-qi/optiga/comms/ifx_i2c\ifx_i2c_data_link_layer.c **** * Copyright (c) 2020 Infineon Technologies AG
   6:C:/Users/Yushev/git/optiga-trust-qi/optiga/comms/ifx_i2c\ifx_i2c_data_link_layer.c **** *
   7:C:/Users/Yushev/git/optiga-trust-qi/optiga/comms/ifx_i2c\ifx_i2c_data_link_layer.c **** * Permission is hereby granted, free of charge, to any person obtaining a copy
   8:C:/Users/Yushev/git/optiga-trust-qi/optiga/comms/ifx_i2c\ifx_i2c_data_link_layer.c **** * of this software and associated documentation files (the "Software"), to deal
   9:C:/Users/Yushev/git/optiga-trust-qi/optiga/comms/ifx_i2c\ifx_i2c_data_link_layer.c **** * in the Software without restriction, including without limitation the rights
  10:C:/Users/Yushev/git/optiga-trust-qi/optiga/comms/ifx_i2c\ifx_i2c_data_link_layer.c **** * to use, copy, modify, merge, publish, distribute, sublicense, and/or sell
  11:C:/Users/Yushev/git/optiga-trust-qi/optiga/comms/ifx_i2c\ifx_i2c_data_link_layer.c **** * copies of the Software, and to permit persons to whom the Software is
  12:C:/Users/Yushev/git/optiga-trust-qi/optiga/comms/ifx_i2c\ifx_i2c_data_link_layer.c **** * furnished to do so, subject to the following conditions:
  13:C:/Users/Yushev/git/optiga-trust-qi/optiga/comms/ifx_i2c\ifx_i2c_data_link_layer.c **** *
  14:C:/Users/Yushev/git/optiga-trust-qi/optiga/comms/ifx_i2c\ifx_i2c_data_link_layer.c **** * The above copyright notice and this permission notice shall be included in all
  15:C:/Users/Yushev/git/optiga-trust-qi/optiga/comms/ifx_i2c\ifx_i2c_data_link_layer.c **** * copies or substantial portions of the Software.
  16:C:/Users/Yushev/git/optiga-trust-qi/optiga/comms/ifx_i2c\ifx_i2c_data_link_layer.c **** *
  17:C:/Users/Yushev/git/optiga-trust-qi/optiga/comms/ifx_i2c\ifx_i2c_data_link_layer.c **** * THE SOFTWARE IS PROVIDED "AS IS", WITHOUT WARRANTY OF ANY KIND, EXPRESS OR
  18:C:/Users/Yushev/git/optiga-trust-qi/optiga/comms/ifx_i2c\ifx_i2c_data_link_layer.c **** * IMPLIED, INCLUDING BUT NOT LIMITED TO THE WARRANTIES OF MERCHANTABILITY,
  19:C:/Users/Yushev/git/optiga-trust-qi/optiga/comms/ifx_i2c\ifx_i2c_data_link_layer.c **** * FITNESS FOR A PARTICULAR PURPOSE AND NONINFRINGEMENT. IN NO EVENT SHALL THE
  20:C:/Users/Yushev/git/optiga-trust-qi/optiga/comms/ifx_i2c\ifx_i2c_data_link_layer.c **** * AUTHORS OR COPYRIGHT HOLDERS BE LIABLE FOR ANY CLAIM, DAMAGES OR OTHER
  21:C:/Users/Yushev/git/optiga-trust-qi/optiga/comms/ifx_i2c\ifx_i2c_data_link_layer.c **** * LIABILITY, WHETHER IN AN ACTION OF CONTRACT, TORT OR OTHERWISE, ARISING FROM,
  22:C:/Users/Yushev/git/optiga-trust-qi/optiga/comms/ifx_i2c\ifx_i2c_data_link_layer.c **** * OUT OF OR IN CONNECTION WITH THE SOFTWARE OR THE USE OR OTHER DEALINGS IN THE
  23:C:/Users/Yushev/git/optiga-trust-qi/optiga/comms/ifx_i2c\ifx_i2c_data_link_layer.c **** * SOFTWARE
  24:C:/Users/Yushev/git/optiga-trust-qi/optiga/comms/ifx_i2c\ifx_i2c_data_link_layer.c **** *
  25:C:/Users/Yushev/git/optiga-trust-qi/optiga/comms/ifx_i2c\ifx_i2c_data_link_layer.c **** * \endcopyright
  26:C:/Users/Yushev/git/optiga-trust-qi/optiga/comms/ifx_i2c\ifx_i2c_data_link_layer.c **** *
  27:C:/Users/Yushev/git/optiga-trust-qi/optiga/comms/ifx_i2c\ifx_i2c_data_link_layer.c **** * \author Infineon Technologies AG
  28:C:/Users/Yushev/git/optiga-trust-qi/optiga/comms/ifx_i2c\ifx_i2c_data_link_layer.c **** *
  29:C:/Users/Yushev/git/optiga-trust-qi/optiga/comms/ifx_i2c\ifx_i2c_data_link_layer.c **** * \file ifx_i2c_data_link_layer.c
  30:C:/Users/Yushev/git/optiga-trust-qi/optiga/comms/ifx_i2c\ifx_i2c_data_link_layer.c **** *
  31:C:/Users/Yushev/git/optiga-trust-qi/optiga/comms/ifx_i2c\ifx_i2c_data_link_layer.c **** * \brief   This file implements the APIs for data link layer of the Infineon I2C Protocol Stack lib
  32:C:/Users/Yushev/git/optiga-trust-qi/optiga/comms/ifx_i2c\ifx_i2c_data_link_layer.c **** *
  33:C:/Users/Yushev/git/optiga-trust-qi/optiga/comms/ifx_i2c\ifx_i2c_data_link_layer.c **** * \ingroup  grIFXI2C
  34:C:/Users/Yushev/git/optiga-trust-qi/optiga/comms/ifx_i2c\ifx_i2c_data_link_layer.c **** *
  35:C:/Users/Yushev/git/optiga-trust-qi/optiga/comms/ifx_i2c\ifx_i2c_data_link_layer.c **** * @{
  36:C:/Users/Yushev/git/optiga-trust-qi/optiga/comms/ifx_i2c\ifx_i2c_data_link_layer.c **** */
  37:C:/Users/Yushev/git/optiga-trust-qi/optiga/comms/ifx_i2c\ifx_i2c_data_link_layer.c **** 
  38:C:/Users/Yushev/git/optiga-trust-qi/optiga/comms/ifx_i2c\ifx_i2c_data_link_layer.c **** #include "optiga/ifx_i2c/ifx_i2c_data_link_layer.h"
  39:C:/Users/Yushev/git/optiga-trust-qi/optiga/comms/ifx_i2c\ifx_i2c_data_link_layer.c **** #include "optiga/ifx_i2c/ifx_i2c_physical_layer.h"
  40:C:/Users/Yushev/git/optiga-trust-qi/optiga/comms/ifx_i2c\ifx_i2c_data_link_layer.c **** 
  41:C:/Users/Yushev/git/optiga-trust-qi/optiga/comms/ifx_i2c\ifx_i2c_data_link_layer.c **** /// @cond hidden
  42:C:/Users/Yushev/git/optiga-trust-qi/optiga/comms/ifx_i2c\ifx_i2c_data_link_layer.c **** 
  43:C:/Users/Yushev/git/optiga-trust-qi/optiga/comms/ifx_i2c\ifx_i2c_data_link_layer.c **** // Data Link layer internal states
  44:C:/Users/Yushev/git/optiga-trust-qi/optiga/comms/ifx_i2c\ifx_i2c_data_link_layer.c **** #define DL_STATE_UNINIT                 (0x00)
  45:C:/Users/Yushev/git/optiga-trust-qi/optiga/comms/ifx_i2c\ifx_i2c_data_link_layer.c **** #define DL_STATE_IDLE                   (0x01)
  46:C:/Users/Yushev/git/optiga-trust-qi/optiga/comms/ifx_i2c\ifx_i2c_data_link_layer.c **** #define DL_STATE_TX                     (0x02)
  47:C:/Users/Yushev/git/optiga-trust-qi/optiga/comms/ifx_i2c\ifx_i2c_data_link_layer.c **** #define DL_STATE_RX                     (0x03)
  48:C:/Users/Yushev/git/optiga-trust-qi/optiga/comms/ifx_i2c\ifx_i2c_data_link_layer.c **** #define DL_STATE_ACK                    (0x04)
  49:C:/Users/Yushev/git/optiga-trust-qi/optiga/comms/ifx_i2c\ifx_i2c_data_link_layer.c **** #define DL_STATE_RESEND                 (0x05)
  50:C:/Users/Yushev/git/optiga-trust-qi/optiga/comms/ifx_i2c\ifx_i2c_data_link_layer.c **** #define DL_STATE_NACK                   (0x06)
  51:C:/Users/Yushev/git/optiga-trust-qi/optiga/comms/ifx_i2c\ifx_i2c_data_link_layer.c **** #define DL_STATE_ERROR                  (0x08)
  52:C:/Users/Yushev/git/optiga-trust-qi/optiga/comms/ifx_i2c\ifx_i2c_data_link_layer.c **** #define DL_STATE_DISCARD                (0x09)
  53:C:/Users/Yushev/git/optiga-trust-qi/optiga/comms/ifx_i2c\ifx_i2c_data_link_layer.c **** #define DL_STATE_RX_DF                  (0x0A)
  54:C:/Users/Yushev/git/optiga-trust-qi/optiga/comms/ifx_i2c\ifx_i2c_data_link_layer.c **** #define DL_STATE_RX_CF                  (0x0B)
  55:C:/Users/Yushev/git/optiga-trust-qi/optiga/comms/ifx_i2c\ifx_i2c_data_link_layer.c **** 
  56:C:/Users/Yushev/git/optiga-trust-qi/optiga/comms/ifx_i2c\ifx_i2c_data_link_layer.c **** // Data Link Layer Frame Control Constants
  57:C:/Users/Yushev/git/optiga-trust-qi/optiga/comms/ifx_i2c\ifx_i2c_data_link_layer.c **** #define DL_FCTR_FTYPE_MASK              (0x80)
  58:C:/Users/Yushev/git/optiga-trust-qi/optiga/comms/ifx_i2c\ifx_i2c_data_link_layer.c **** #define DL_FCTR_FTYPE_OFFSET            (7U)
  59:C:/Users/Yushev/git/optiga-trust-qi/optiga/comms/ifx_i2c\ifx_i2c_data_link_layer.c **** #define DL_FCTR_VALUE_CONTROL_FRAME     (0x01)
  60:C:/Users/Yushev/git/optiga-trust-qi/optiga/comms/ifx_i2c\ifx_i2c_data_link_layer.c **** 
  61:C:/Users/Yushev/git/optiga-trust-qi/optiga/comms/ifx_i2c\ifx_i2c_data_link_layer.c **** #define DL_FCTR_SEQCTR_MASK             (0x60)
  62:C:/Users/Yushev/git/optiga-trust-qi/optiga/comms/ifx_i2c\ifx_i2c_data_link_layer.c **** #define DL_FCTR_SEQCTR_OFFSET           (5U)
  63:C:/Users/Yushev/git/optiga-trust-qi/optiga/comms/ifx_i2c\ifx_i2c_data_link_layer.c **** #define DL_FCTR_SEQCTR_VALUE_ACK        (0x00)
  64:C:/Users/Yushev/git/optiga-trust-qi/optiga/comms/ifx_i2c\ifx_i2c_data_link_layer.c **** #define DL_FCTR_SEQCTR_VALUE_NACK       (0x01)
  65:C:/Users/Yushev/git/optiga-trust-qi/optiga/comms/ifx_i2c\ifx_i2c_data_link_layer.c **** #define DL_FCTR_SEQCTR_VALUE_RESYNC     (0x02)
  66:C:/Users/Yushev/git/optiga-trust-qi/optiga/comms/ifx_i2c\ifx_i2c_data_link_layer.c **** #define DL_FCTR_SEQCTR_VALUE_RFU        (0x03)
  67:C:/Users/Yushev/git/optiga-trust-qi/optiga/comms/ifx_i2c\ifx_i2c_data_link_layer.c **** 
  68:C:/Users/Yushev/git/optiga-trust-qi/optiga/comms/ifx_i2c\ifx_i2c_data_link_layer.c **** #define DL_FCTR_FRNR_MASK               (0x0C)
  69:C:/Users/Yushev/git/optiga-trust-qi/optiga/comms/ifx_i2c\ifx_i2c_data_link_layer.c **** #define DL_FCTR_FRNR_OFFSET             (2U)
  70:C:/Users/Yushev/git/optiga-trust-qi/optiga/comms/ifx_i2c\ifx_i2c_data_link_layer.c **** 
  71:C:/Users/Yushev/git/optiga-trust-qi/optiga/comms/ifx_i2c\ifx_i2c_data_link_layer.c **** #define DL_FCTR_ACKNR_MASK              (0x03)
  72:C:/Users/Yushev/git/optiga-trust-qi/optiga/comms/ifx_i2c\ifx_i2c_data_link_layer.c **** #define DL_FCTR_ACKNR_OFFSET            (0U)
  73:C:/Users/Yushev/git/optiga-trust-qi/optiga/comms/ifx_i2c\ifx_i2c_data_link_layer.c **** 
  74:C:/Users/Yushev/git/optiga-trust-qi/optiga/comms/ifx_i2c\ifx_i2c_data_link_layer.c **** // Data Link Layer frame counter max value
  75:C:/Users/Yushev/git/optiga-trust-qi/optiga/comms/ifx_i2c\ifx_i2c_data_link_layer.c **** #define DL_MAX_FRAME_NUM                (0x03)
  76:C:/Users/Yushev/git/optiga-trust-qi/optiga/comms/ifx_i2c\ifx_i2c_data_link_layer.c **** 
  77:C:/Users/Yushev/git/optiga-trust-qi/optiga/comms/ifx_i2c\ifx_i2c_data_link_layer.c **** // Data link layer length
  78:C:/Users/Yushev/git/optiga-trust-qi/optiga/comms/ifx_i2c\ifx_i2c_data_link_layer.c **** #define DL_CONTROL_FRAME_LENGTH         (5U)
  79:C:/Users/Yushev/git/optiga-trust-qi/optiga/comms/ifx_i2c\ifx_i2c_data_link_layer.c **** 
  80:C:/Users/Yushev/git/optiga-trust-qi/optiga/comms/ifx_i2c\ifx_i2c_data_link_layer.c **** // Seconds to milliseconds
  81:C:/Users/Yushev/git/optiga-trust-qi/optiga/comms/ifx_i2c\ifx_i2c_data_link_layer.c **** #define DL_SEC_TO_MSECS                 (1000U)
  82:C:/Users/Yushev/git/optiga-trust-qi/optiga/comms/ifx_i2c\ifx_i2c_data_link_layer.c **** 
  83:C:/Users/Yushev/git/optiga-trust-qi/optiga/comms/ifx_i2c\ifx_i2c_data_link_layer.c **** #if defined (OPTIGA_LIB_ENABLE_LOGGING) && defined (OPTIGA_LIB_ENABLE_COMMS_LOGGING)
  84:C:/Users/Yushev/git/optiga-trust-qi/optiga/comms/ifx_i2c\ifx_i2c_data_link_layer.c **** 
  85:C:/Users/Yushev/git/optiga-trust-qi/optiga/comms/ifx_i2c\ifx_i2c_data_link_layer.c **** // Logs the message provided from OPTIGA Comms layer
  86:C:/Users/Yushev/git/optiga-trust-qi/optiga/comms/ifx_i2c\ifx_i2c_data_link_layer.c **** #define OPTIGA_COMMS_LOG_MESSAGE(msg) \
  87:C:/Users/Yushev/git/optiga-trust-qi/optiga/comms/ifx_i2c\ifx_i2c_data_link_layer.c **** {\
  88:C:/Users/Yushev/git/optiga-trust-qi/optiga/comms/ifx_i2c\ifx_i2c_data_link_layer.c ****     optiga_lib_print_message(msg,OPTIGA_COMMUNICATION_LAYER,OPTIGA_COMMUNICATION_LAYER_COLOR);\
  89:C:/Users/Yushev/git/optiga-trust-qi/optiga/comms/ifx_i2c\ifx_i2c_data_link_layer.c **** }
  90:C:/Users/Yushev/git/optiga-trust-qi/optiga/comms/ifx_i2c\ifx_i2c_data_link_layer.c **** 
  91:C:/Users/Yushev/git/optiga-trust-qi/optiga/comms/ifx_i2c\ifx_i2c_data_link_layer.c **** // Logs the status info provided from OPTIGA Comms layer
  92:C:/Users/Yushev/git/optiga-trust-qi/optiga/comms/ifx_i2c\ifx_i2c_data_link_layer.c **** //lint --e{750} suppress "The unused OPTIGA_COMMS_LOG_STATUS macro is kept for future enhancements"
  93:C:/Users/Yushev/git/optiga-trust-qi/optiga/comms/ifx_i2c\ifx_i2c_data_link_layer.c **** #define OPTIGA_COMMS_LOG_STATUS(return_value)                                 \
  94:C:/Users/Yushev/git/optiga-trust-qi/optiga/comms/ifx_i2c\ifx_i2c_data_link_layer.c **** {                                                       \
  95:C:/Users/Yushev/git/optiga-trust-qi/optiga/comms/ifx_i2c\ifx_i2c_data_link_layer.c ****     if (OPTIGA_LIB_SUCCESS != return_value)                                 \
  96:C:/Users/Yushev/git/optiga-trust-qi/optiga/comms/ifx_i2c\ifx_i2c_data_link_layer.c ****     {                                                     \
  97:C:/Users/Yushev/git/optiga-trust-qi/optiga/comms/ifx_i2c\ifx_i2c_data_link_layer.c ****         optiga_lib_print_status(OPTIGA_COMMUNICATION_LAYER,OPTIGA_ERROR_COLOR,return_value);       
  98:C:/Users/Yushev/git/optiga-trust-qi/optiga/comms/ifx_i2c\ifx_i2c_data_link_layer.c ****     }                                                     \
  99:C:/Users/Yushev/git/optiga-trust-qi/optiga/comms/ifx_i2c\ifx_i2c_data_link_layer.c ****     else                                                  \
 100:C:/Users/Yushev/git/optiga-trust-qi/optiga/comms/ifx_i2c\ifx_i2c_data_link_layer.c ****     {                                                     \
 101:C:/Users/Yushev/git/optiga-trust-qi/optiga/comms/ifx_i2c\ifx_i2c_data_link_layer.c ****         optiga_lib_print_status(OPTIGA_COMMUNICATION_LAYER,OPTIGA_COMMUNICATION_LAYER_COLOR,return_
 102:C:/Users/Yushev/git/optiga-trust-qi/optiga/comms/ifx_i2c\ifx_i2c_data_link_layer.c ****     }                                                     \
 103:C:/Users/Yushev/git/optiga-trust-qi/optiga/comms/ifx_i2c\ifx_i2c_data_link_layer.c **** }
 104:C:/Users/Yushev/git/optiga-trust-qi/optiga/comms/ifx_i2c\ifx_i2c_data_link_layer.c **** 
 105:C:/Users/Yushev/git/optiga-trust-qi/optiga/comms/ifx_i2c\ifx_i2c_data_link_layer.c **** #ifdef OPTIGA_COMMS_SHIELDED_CONNECTION
 106:C:/Users/Yushev/git/optiga-trust-qi/optiga/comms/ifx_i2c\ifx_i2c_data_link_layer.c **** 
 107:C:/Users/Yushev/git/optiga-trust-qi/optiga/comms/ifx_i2c\ifx_i2c_data_link_layer.c **** // Logs the transmitted data to OPTIGA from IFXI2C layer in hexadecimal format
 108:C:/Users/Yushev/git/optiga-trust-qi/optiga/comms/ifx_i2c\ifx_i2c_data_link_layer.c **** #define OPTIGA_IFXI2C_LOG_TRANSMIT_HEX_DATA(array,array_len,p_ifx_i2c_ctx)              \
 109:C:/Users/Yushev/git/optiga-trust-qi/optiga/comms/ifx_i2c\ifx_i2c_data_link_layer.c **** {                                                 \
 110:C:/Users/Yushev/git/optiga-trust-qi/optiga/comms/ifx_i2c\ifx_i2c_data_link_layer.c ****   if (0 != frame_len)                                       \
 111:C:/Users/Yushev/git/optiga-trust-qi/optiga/comms/ifx_i2c\ifx_i2c_data_link_layer.c ****   {                                               \
 112:C:/Users/Yushev/git/optiga-trust-qi/optiga/comms/ifx_i2c\ifx_i2c_data_link_layer.c ****     if (((((ifx_i2c_context_t * )p_ifx_i2c_ctx)->protection_level & 0x0F) == 0x01) ||       \
 113:C:/Users/Yushev/git/optiga-trust-qi/optiga/comms/ifx_i2c\ifx_i2c_data_link_layer.c ****       ((((ifx_i2c_context_t * )p_ifx_i2c_ctx)->protection_level & 0x0F) == 0x03))       \
 114:C:/Users/Yushev/git/optiga-trust-qi/optiga/comms/ifx_i2c\ifx_i2c_data_link_layer.c ****       {                                             \
 115:C:/Users/Yushev/git/optiga-trust-qi/optiga/comms/ifx_i2c\ifx_i2c_data_link_layer.c ****         optiga_lib_print_array_hex_format(array,array_len,OPTIGA_PROTECTED_DATA_COLOR);  \
 116:C:/Users/Yushev/git/optiga-trust-qi/optiga/comms/ifx_i2c\ifx_i2c_data_link_layer.c ****       }                                             \
 117:C:/Users/Yushev/git/optiga-trust-qi/optiga/comms/ifx_i2c\ifx_i2c_data_link_layer.c ****       else                                          \
 118:C:/Users/Yushev/git/optiga-trust-qi/optiga/comms/ifx_i2c\ifx_i2c_data_link_layer.c ****       {                                             \
 119:C:/Users/Yushev/git/optiga-trust-qi/optiga/comms/ifx_i2c\ifx_i2c_data_link_layer.c ****         optiga_lib_print_array_hex_format(array,array_len,OPTIGA_UNPROTECTED_DATA_COLOR);\
 120:C:/Users/Yushev/git/optiga-trust-qi/optiga/comms/ifx_i2c\ifx_i2c_data_link_layer.c ****       }                                             \
 121:C:/Users/Yushev/git/optiga-trust-qi/optiga/comms/ifx_i2c\ifx_i2c_data_link_layer.c ****   }                                               \
 122:C:/Users/Yushev/git/optiga-trust-qi/optiga/comms/ifx_i2c\ifx_i2c_data_link_layer.c **** }
 123:C:/Users/Yushev/git/optiga-trust-qi/optiga/comms/ifx_i2c\ifx_i2c_data_link_layer.c **** 
 124:C:/Users/Yushev/git/optiga-trust-qi/optiga/comms/ifx_i2c\ifx_i2c_data_link_layer.c **** // Logs the received data from OPTIGA in hexadecimal format
 125:C:/Users/Yushev/git/optiga-trust-qi/optiga/comms/ifx_i2c\ifx_i2c_data_link_layer.c **** #define OPTIGA_IFXI2C_LOG_RECEIVE_HEX_DATA(array,array_len,p_ifx_i2c_ctx) \
 126:C:/Users/Yushev/git/optiga-trust-qi/optiga/comms/ifx_i2c\ifx_i2c_data_link_layer.c **** {\
 127:C:/Users/Yushev/git/optiga-trust-qi/optiga/comms/ifx_i2c\ifx_i2c_data_link_layer.c ****     if (((((ifx_i2c_context_t * )p_ifx_i2c_ctx)->protection_level & 0x0F) == 0x02) || \
 128:C:/Users/Yushev/git/optiga-trust-qi/optiga/comms/ifx_i2c\ifx_i2c_data_link_layer.c ****         ((((ifx_i2c_context_t * )p_ifx_i2c_ctx)->protection_level & 0x0F) == 0x03)) \
 129:C:/Users/Yushev/git/optiga-trust-qi/optiga/comms/ifx_i2c\ifx_i2c_data_link_layer.c ****         { \
 130:C:/Users/Yushev/git/optiga-trust-qi/optiga/comms/ifx_i2c\ifx_i2c_data_link_layer.c ****             optiga_lib_print_array_hex_format(array,array_len,OPTIGA_PROTECTED_DATA_COLOR); \
 131:C:/Users/Yushev/git/optiga-trust-qi/optiga/comms/ifx_i2c\ifx_i2c_data_link_layer.c ****         } \
 132:C:/Users/Yushev/git/optiga-trust-qi/optiga/comms/ifx_i2c\ifx_i2c_data_link_layer.c ****         else \
 133:C:/Users/Yushev/git/optiga-trust-qi/optiga/comms/ifx_i2c\ifx_i2c_data_link_layer.c ****         { \
 134:C:/Users/Yushev/git/optiga-trust-qi/optiga/comms/ifx_i2c\ifx_i2c_data_link_layer.c ****             optiga_lib_print_array_hex_format(array,array_len,OPTIGA_UNPROTECTED_DATA_COLOR); \
 135:C:/Users/Yushev/git/optiga-trust-qi/optiga/comms/ifx_i2c\ifx_i2c_data_link_layer.c ****         } \
 136:C:/Users/Yushev/git/optiga-trust-qi/optiga/comms/ifx_i2c\ifx_i2c_data_link_layer.c **** }
 137:C:/Users/Yushev/git/optiga-trust-qi/optiga/comms/ifx_i2c\ifx_i2c_data_link_layer.c **** #else
 138:C:/Users/Yushev/git/optiga-trust-qi/optiga/comms/ifx_i2c\ifx_i2c_data_link_layer.c **** 
 139:C:/Users/Yushev/git/optiga-trust-qi/optiga/comms/ifx_i2c\ifx_i2c_data_link_layer.c **** // Logs the transmitted data to OPTIGA from IFXI2C layer in hexadecimal format
 140:C:/Users/Yushev/git/optiga-trust-qi/optiga/comms/ifx_i2c\ifx_i2c_data_link_layer.c **** #define OPTIGA_IFXI2C_LOG_TRANSMIT_HEX_DATA(array,array_len,p_ifx_i2c_ctx) \
 141:C:/Users/Yushev/git/optiga-trust-qi/optiga/comms/ifx_i2c\ifx_i2c_data_link_layer.c **** {\
 142:C:/Users/Yushev/git/optiga-trust-qi/optiga/comms/ifx_i2c\ifx_i2c_data_link_layer.c ****     OPTIGA_COMMS_LOG_MESSAGE("");\
 143:C:/Users/Yushev/git/optiga-trust-qi/optiga/comms/ifx_i2c\ifx_i2c_data_link_layer.c ****     optiga_lib_print_array_hex_format(array,array_len,OPTIGA_UNPROTECTED_DATA_COLOR);\
 144:C:/Users/Yushev/git/optiga-trust-qi/optiga/comms/ifx_i2c\ifx_i2c_data_link_layer.c **** }
 145:C:/Users/Yushev/git/optiga-trust-qi/optiga/comms/ifx_i2c\ifx_i2c_data_link_layer.c **** 
 146:C:/Users/Yushev/git/optiga-trust-qi/optiga/comms/ifx_i2c\ifx_i2c_data_link_layer.c **** // Logs the received data from OPTIGA in hexadecimal format
 147:C:/Users/Yushev/git/optiga-trust-qi/optiga/comms/ifx_i2c\ifx_i2c_data_link_layer.c **** #define OPTIGA_IFXI2C_LOG_RECEIVE_HEX_DATA(array,array_len,p_ifx_i2c_ctx) \
 148:C:/Users/Yushev/git/optiga-trust-qi/optiga/comms/ifx_i2c\ifx_i2c_data_link_layer.c **** {\
 149:C:/Users/Yushev/git/optiga-trust-qi/optiga/comms/ifx_i2c\ifx_i2c_data_link_layer.c ****     OPTIGA_COMMS_LOG_MESSAGE("");\
 150:C:/Users/Yushev/git/optiga-trust-qi/optiga/comms/ifx_i2c\ifx_i2c_data_link_layer.c ****     optiga_lib_print_array_hex_format(array,array_len,OPTIGA_UNPROTECTED_DATA_COLOR);\
 151:C:/Users/Yushev/git/optiga-trust-qi/optiga/comms/ifx_i2c\ifx_i2c_data_link_layer.c **** }
 152:C:/Users/Yushev/git/optiga-trust-qi/optiga/comms/ifx_i2c\ifx_i2c_data_link_layer.c **** 
 153:C:/Users/Yushev/git/optiga-trust-qi/optiga/comms/ifx_i2c\ifx_i2c_data_link_layer.c **** #endif
 154:C:/Users/Yushev/git/optiga-trust-qi/optiga/comms/ifx_i2c\ifx_i2c_data_link_layer.c **** 
 155:C:/Users/Yushev/git/optiga-trust-qi/optiga/comms/ifx_i2c\ifx_i2c_data_link_layer.c **** #else
 156:C:/Users/Yushev/git/optiga-trust-qi/optiga/comms/ifx_i2c\ifx_i2c_data_link_layer.c **** 
 157:C:/Users/Yushev/git/optiga-trust-qi/optiga/comms/ifx_i2c\ifx_i2c_data_link_layer.c **** #define OPTIGA_IFXI2C_LOG_TRANSMIT_HEX_DATA(array,array_len,p_ifx_i2c_ctx) {}
 158:C:/Users/Yushev/git/optiga-trust-qi/optiga/comms/ifx_i2c\ifx_i2c_data_link_layer.c **** #define OPTIGA_IFXI2C_LOG_RECEIVE_HEX_DATA(array,array_len,p_ifx_i2c_ctx) {}
 159:C:/Users/Yushev/git/optiga-trust-qi/optiga/comms/ifx_i2c\ifx_i2c_data_link_layer.c **** #define OPTIGA_COMMS_LOG_MESSAGE(msg) {}
 160:C:/Users/Yushev/git/optiga-trust-qi/optiga/comms/ifx_i2c\ifx_i2c_data_link_layer.c **** //lint --e{750} suppress "The unused OPTIGA_COMMS_LOG_STATUS macro is kept for future enhancements"
 161:C:/Users/Yushev/git/optiga-trust-qi/optiga/comms/ifx_i2c\ifx_i2c_data_link_layer.c **** #define OPTIGA_COMMS_LOG_STATUS(return_value) {}
 162:C:/Users/Yushev/git/optiga-trust-qi/optiga/comms/ifx_i2c\ifx_i2c_data_link_layer.c **** #endif
 163:C:/Users/Yushev/git/optiga-trust-qi/optiga/comms/ifx_i2c\ifx_i2c_data_link_layer.c **** 
 164:C:/Users/Yushev/git/optiga-trust-qi/optiga/comms/ifx_i2c\ifx_i2c_data_link_layer.c **** // Setup debug log statements
 165:C:/Users/Yushev/git/optiga-trust-qi/optiga/comms/ifx_i2c\ifx_i2c_data_link_layer.c **** #if IFX_I2C_LOG_DL == 1
 166:C:/Users/Yushev/git/optiga-trust-qi/optiga/comms/ifx_i2c\ifx_i2c_data_link_layer.c **** #define LOG_DL IFX_I2C_LOG
 167:C:/Users/Yushev/git/optiga-trust-qi/optiga/comms/ifx_i2c\ifx_i2c_data_link_layer.c **** #else
 168:C:/Users/Yushev/git/optiga-trust-qi/optiga/comms/ifx_i2c\ifx_i2c_data_link_layer.c **** #define LOG_DL(...) //printf(__VA_ARGS__)
 169:C:/Users/Yushev/git/optiga-trust-qi/optiga/comms/ifx_i2c\ifx_i2c_data_link_layer.c **** #endif
 170:C:/Users/Yushev/git/optiga-trust-qi/optiga/comms/ifx_i2c\ifx_i2c_data_link_layer.c **** 
 171:C:/Users/Yushev/git/optiga-trust-qi/optiga/comms/ifx_i2c\ifx_i2c_data_link_layer.c **** /// Helper function to calculate CRC of a byte
 172:C:/Users/Yushev/git/optiga-trust-qi/optiga/comms/ifx_i2c\ifx_i2c_data_link_layer.c **** _STATIC_H uint16_t ifx_i2c_dl_calc_crc_byte(uint16_t seed,
 173:C:/Users/Yushev/git/optiga-trust-qi/optiga/comms/ifx_i2c\ifx_i2c_data_link_layer.c ****                                                        uint8_t byte);
 174:C:/Users/Yushev/git/optiga-trust-qi/optiga/comms/ifx_i2c\ifx_i2c_data_link_layer.c **** /// Helper function to calculate CRC of a frame
 175:C:/Users/Yushev/git/optiga-trust-qi/optiga/comms/ifx_i2c\ifx_i2c_data_link_layer.c **** _STATIC_H uint16_t ifx_i2c_dl_calc_crc(const uint8_t * p_data,
 176:C:/Users/Yushev/git/optiga-trust-qi/optiga/comms/ifx_i2c\ifx_i2c_data_link_layer.c ****                                                   uint16_t data_len);
 177:C:/Users/Yushev/git/optiga-trust-qi/optiga/comms/ifx_i2c\ifx_i2c_data_link_layer.c **** /// Internal function to send frame
 178:C:/Users/Yushev/git/optiga-trust-qi/optiga/comms/ifx_i2c\ifx_i2c_data_link_layer.c **** _STATIC_H optiga_lib_status_t ifx_i2c_dl_send_frame_internal(ifx_i2c_context_t * p_ctx,
 179:C:/Users/Yushev/git/optiga-trust-qi/optiga/comms/ifx_i2c\ifx_i2c_data_link_layer.c ****                                                              uint16_t frame_len,
 180:C:/Users/Yushev/git/optiga-trust-qi/optiga/comms/ifx_i2c\ifx_i2c_data_link_layer.c ****                                                              uint8_t seqctr_value,
 181:C:/Users/Yushev/git/optiga-trust-qi/optiga/comms/ifx_i2c\ifx_i2c_data_link_layer.c ****                                                              uint8_t resend);
 182:C:/Users/Yushev/git/optiga-trust-qi/optiga/comms/ifx_i2c\ifx_i2c_data_link_layer.c **** /// Helper function to send resync
 183:C:/Users/Yushev/git/optiga-trust-qi/optiga/comms/ifx_i2c\ifx_i2c_data_link_layer.c **** _STATIC_H optiga_lib_status_t ifx_i2c_dl_resync(ifx_i2c_context_t * p_ctx);
 184:C:/Users/Yushev/git/optiga-trust-qi/optiga/comms/ifx_i2c\ifx_i2c_data_link_layer.c **** /// Helper function to resend frame
 185:C:/Users/Yushev/git/optiga-trust-qi/optiga/comms/ifx_i2c\ifx_i2c_data_link_layer.c **** _STATIC_H void ifx_i2c_dl_resend_frame(ifx_i2c_context_t * p_ctx,
 186:C:/Users/Yushev/git/optiga-trust-qi/optiga/comms/ifx_i2c\ifx_i2c_data_link_layer.c ****                                        uint8_t seqctr_value);
 187:C:/Users/Yushev/git/optiga-trust-qi/optiga/comms/ifx_i2c\ifx_i2c_data_link_layer.c **** /// Data Link Layer state machine
 188:C:/Users/Yushev/git/optiga-trust-qi/optiga/comms/ifx_i2c\ifx_i2c_data_link_layer.c **** _STATIC_H void ifx_i2c_pl_event_handler(ifx_i2c_context_t * p_ctx,
 189:C:/Users/Yushev/git/optiga-trust-qi/optiga/comms/ifx_i2c\ifx_i2c_data_link_layer.c ****                                         optiga_lib_status_t event,
 190:C:/Users/Yushev/git/optiga-trust-qi/optiga/comms/ifx_i2c\ifx_i2c_data_link_layer.c ****                                         const uint8_t * p_data,
 191:C:/Users/Yushev/git/optiga-trust-qi/optiga/comms/ifx_i2c\ifx_i2c_data_link_layer.c ****                                         uint16_t data_len);
 192:C:/Users/Yushev/git/optiga-trust-qi/optiga/comms/ifx_i2c\ifx_i2c_data_link_layer.c **** 
 193:C:/Users/Yushev/git/optiga-trust-qi/optiga/comms/ifx_i2c\ifx_i2c_data_link_layer.c **** /// @endcond
 194:C:/Users/Yushev/git/optiga-trust-qi/optiga/comms/ifx_i2c\ifx_i2c_data_link_layer.c **** 
 195:C:/Users/Yushev/git/optiga-trust-qi/optiga/comms/ifx_i2c\ifx_i2c_data_link_layer.c **** optiga_lib_status_t ifx_i2c_dl_init(ifx_i2c_context_t * p_ctx, ifx_i2c_event_handler_t handler)
 196:C:/Users/Yushev/git/optiga-trust-qi/optiga/comms/ifx_i2c\ifx_i2c_data_link_layer.c **** {
 197:C:/Users/Yushev/git/optiga-trust-qi/optiga/comms/ifx_i2c\ifx_i2c_data_link_layer.c ****     LOG_DL("[IFX-DL]: Init\n");
 198:C:/Users/Yushev/git/optiga-trust-qi/optiga/comms/ifx_i2c\ifx_i2c_data_link_layer.c **** 
 199:C:/Users/Yushev/git/optiga-trust-qi/optiga/comms/ifx_i2c\ifx_i2c_data_link_layer.c ****     p_ctx->dl.state = DL_STATE_UNINIT;
 200:C:/Users/Yushev/git/optiga-trust-qi/optiga/comms/ifx_i2c\ifx_i2c_data_link_layer.c ****     // Initialize Physical Layer (and register event handler)
 201:C:/Users/Yushev/git/optiga-trust-qi/optiga/comms/ifx_i2c\ifx_i2c_data_link_layer.c ****     if (IFX_I2C_STACK_SUCCESS != ifx_i2c_pl_init(p_ctx, ifx_i2c_pl_event_handler))
 202:C:/Users/Yushev/git/optiga-trust-qi/optiga/comms/ifx_i2c\ifx_i2c_data_link_layer.c ****     {
 203:C:/Users/Yushev/git/optiga-trust-qi/optiga/comms/ifx_i2c\ifx_i2c_data_link_layer.c ****         return (IFX_I2C_STACK_ERROR);
 204:C:/Users/Yushev/git/optiga-trust-qi/optiga/comms/ifx_i2c\ifx_i2c_data_link_layer.c ****     }
 205:C:/Users/Yushev/git/optiga-trust-qi/optiga/comms/ifx_i2c\ifx_i2c_data_link_layer.c **** 
 206:C:/Users/Yushev/git/optiga-trust-qi/optiga/comms/ifx_i2c\ifx_i2c_data_link_layer.c ****     // Initialize internal variables
 207:C:/Users/Yushev/git/optiga-trust-qi/optiga/comms/ifx_i2c\ifx_i2c_data_link_layer.c ****     p_ctx->dl.upper_layer_event_handler = handler;
 208:C:/Users/Yushev/git/optiga-trust-qi/optiga/comms/ifx_i2c\ifx_i2c_data_link_layer.c ****     p_ctx->dl.state = DL_STATE_IDLE;
 209:C:/Users/Yushev/git/optiga-trust-qi/optiga/comms/ifx_i2c\ifx_i2c_data_link_layer.c ****     p_ctx->dl.tx_seq_nr = DL_MAX_FRAME_NUM;
 210:C:/Users/Yushev/git/optiga-trust-qi/optiga/comms/ifx_i2c\ifx_i2c_data_link_layer.c ****     p_ctx->dl.rx_seq_nr = DL_MAX_FRAME_NUM;
 211:C:/Users/Yushev/git/optiga-trust-qi/optiga/comms/ifx_i2c\ifx_i2c_data_link_layer.c ****     p_ctx->dl.resynced = 0;
 212:C:/Users/Yushev/git/optiga-trust-qi/optiga/comms/ifx_i2c\ifx_i2c_data_link_layer.c ****     p_ctx->dl.error = 0;
 213:C:/Users/Yushev/git/optiga-trust-qi/optiga/comms/ifx_i2c\ifx_i2c_data_link_layer.c ****     p_ctx->dl.p_tx_frame_buffer = p_ctx->tx_frame_buffer;
 214:C:/Users/Yushev/git/optiga-trust-qi/optiga/comms/ifx_i2c\ifx_i2c_data_link_layer.c ****     p_ctx->dl.p_rx_frame_buffer = p_ctx->rx_frame_buffer;
 215:C:/Users/Yushev/git/optiga-trust-qi/optiga/comms/ifx_i2c\ifx_i2c_data_link_layer.c **** 
 216:C:/Users/Yushev/git/optiga-trust-qi/optiga/comms/ifx_i2c\ifx_i2c_data_link_layer.c ****     return IFX_I2C_STACK_SUCCESS;
 217:C:/Users/Yushev/git/optiga-trust-qi/optiga/comms/ifx_i2c\ifx_i2c_data_link_layer.c **** }
 218:C:/Users/Yushev/git/optiga-trust-qi/optiga/comms/ifx_i2c\ifx_i2c_data_link_layer.c **** 
 219:C:/Users/Yushev/git/optiga-trust-qi/optiga/comms/ifx_i2c\ifx_i2c_data_link_layer.c **** optiga_lib_status_t ifx_i2c_dl_send_frame(ifx_i2c_context_t * p_ctx, uint16_t frame_len)
 220:C:/Users/Yushev/git/optiga-trust-qi/optiga/comms/ifx_i2c\ifx_i2c_data_link_layer.c **** {
 221:C:/Users/Yushev/git/optiga-trust-qi/optiga/comms/ifx_i2c\ifx_i2c_data_link_layer.c ****     LOG_DL("[IFX-DL]: Start TX Frame\n");
 222:C:/Users/Yushev/git/optiga-trust-qi/optiga/comms/ifx_i2c\ifx_i2c_data_link_layer.c ****     // State must be idle and payload available
 223:C:/Users/Yushev/git/optiga-trust-qi/optiga/comms/ifx_i2c\ifx_i2c_data_link_layer.c ****     if (p_ctx->dl.state != DL_STATE_IDLE || (0 == frame_len))
 224:C:/Users/Yushev/git/optiga-trust-qi/optiga/comms/ifx_i2c\ifx_i2c_data_link_layer.c ****     {
 225:C:/Users/Yushev/git/optiga-trust-qi/optiga/comms/ifx_i2c\ifx_i2c_data_link_layer.c ****         return (IFX_I2C_STACK_ERROR);
 226:C:/Users/Yushev/git/optiga-trust-qi/optiga/comms/ifx_i2c\ifx_i2c_data_link_layer.c ****     }
 227:C:/Users/Yushev/git/optiga-trust-qi/optiga/comms/ifx_i2c\ifx_i2c_data_link_layer.c **** 
 228:C:/Users/Yushev/git/optiga-trust-qi/optiga/comms/ifx_i2c\ifx_i2c_data_link_layer.c ****     p_ctx->dl.state = DL_STATE_TX;
 229:C:/Users/Yushev/git/optiga-trust-qi/optiga/comms/ifx_i2c\ifx_i2c_data_link_layer.c ****     p_ctx->dl.retransmit_counter = 0;
 230:C:/Users/Yushev/git/optiga-trust-qi/optiga/comms/ifx_i2c\ifx_i2c_data_link_layer.c ****     p_ctx->dl.action_rx_only = 0;
 231:C:/Users/Yushev/git/optiga-trust-qi/optiga/comms/ifx_i2c\ifx_i2c_data_link_layer.c ****     p_ctx->dl.tx_buffer_size = frame_len;
 232:C:/Users/Yushev/git/optiga-trust-qi/optiga/comms/ifx_i2c\ifx_i2c_data_link_layer.c ****     p_ctx->dl.data_poll_timeout = PL_TRANS_TIMEOUT_MS;
 233:C:/Users/Yushev/git/optiga-trust-qi/optiga/comms/ifx_i2c\ifx_i2c_data_link_layer.c **** 
 234:C:/Users/Yushev/git/optiga-trust-qi/optiga/comms/ifx_i2c\ifx_i2c_data_link_layer.c ****     return (ifx_i2c_dl_send_frame_internal(p_ctx, frame_len, DL_FCTR_SEQCTR_VALUE_ACK, 0));
 235:C:/Users/Yushev/git/optiga-trust-qi/optiga/comms/ifx_i2c\ifx_i2c_data_link_layer.c **** }
 236:C:/Users/Yushev/git/optiga-trust-qi/optiga/comms/ifx_i2c\ifx_i2c_data_link_layer.c **** 
 237:C:/Users/Yushev/git/optiga-trust-qi/optiga/comms/ifx_i2c\ifx_i2c_data_link_layer.c **** optiga_lib_status_t ifx_i2c_dl_receive_frame(ifx_i2c_context_t * p_ctx)
 238:C:/Users/Yushev/git/optiga-trust-qi/optiga/comms/ifx_i2c\ifx_i2c_data_link_layer.c **** {
 239:C:/Users/Yushev/git/optiga-trust-qi/optiga/comms/ifx_i2c\ifx_i2c_data_link_layer.c ****     LOG_DL("[IFX-DL]: Start RX Frame\n");
 240:C:/Users/Yushev/git/optiga-trust-qi/optiga/comms/ifx_i2c\ifx_i2c_data_link_layer.c **** 
 241:C:/Users/Yushev/git/optiga-trust-qi/optiga/comms/ifx_i2c\ifx_i2c_data_link_layer.c ****     if (DL_STATE_IDLE != p_ctx->dl.state)
 242:C:/Users/Yushev/git/optiga-trust-qi/optiga/comms/ifx_i2c\ifx_i2c_data_link_layer.c ****     {
 243:C:/Users/Yushev/git/optiga-trust-qi/optiga/comms/ifx_i2c\ifx_i2c_data_link_layer.c ****         return (IFX_I2C_STACK_ERROR);
 244:C:/Users/Yushev/git/optiga-trust-qi/optiga/comms/ifx_i2c\ifx_i2c_data_link_layer.c ****     }
 245:C:/Users/Yushev/git/optiga-trust-qi/optiga/comms/ifx_i2c\ifx_i2c_data_link_layer.c **** 
 246:C:/Users/Yushev/git/optiga-trust-qi/optiga/comms/ifx_i2c\ifx_i2c_data_link_layer.c ****     // Set internal state
 247:C:/Users/Yushev/git/optiga-trust-qi/optiga/comms/ifx_i2c\ifx_i2c_data_link_layer.c ****     p_ctx->dl.state = DL_STATE_RX;
 248:C:/Users/Yushev/git/optiga-trust-qi/optiga/comms/ifx_i2c\ifx_i2c_data_link_layer.c ****     p_ctx->dl.retransmit_counter = 0;
 249:C:/Users/Yushev/git/optiga-trust-qi/optiga/comms/ifx_i2c\ifx_i2c_data_link_layer.c ****     p_ctx->dl.action_rx_only = 1;
 250:C:/Users/Yushev/git/optiga-trust-qi/optiga/comms/ifx_i2c\ifx_i2c_data_link_layer.c ****     p_ctx->dl.frame_start_time = pal_os_timer_get_time_in_milliseconds();
 251:C:/Users/Yushev/git/optiga-trust-qi/optiga/comms/ifx_i2c\ifx_i2c_data_link_layer.c ****     p_ctx->dl.data_poll_timeout = TL_MAX_EXIT_TIMEOUT * DL_SEC_TO_MSECS;
 252:C:/Users/Yushev/git/optiga-trust-qi/optiga/comms/ifx_i2c\ifx_i2c_data_link_layer.c **** 
 253:C:/Users/Yushev/git/optiga-trust-qi/optiga/comms/ifx_i2c\ifx_i2c_data_link_layer.c ****     return (ifx_i2c_pl_receive_frame(p_ctx));
 254:C:/Users/Yushev/git/optiga-trust-qi/optiga/comms/ifx_i2c\ifx_i2c_data_link_layer.c **** }
 255:C:/Users/Yushev/git/optiga-trust-qi/optiga/comms/ifx_i2c\ifx_i2c_data_link_layer.c **** 
 256:C:/Users/Yushev/git/optiga-trust-qi/optiga/comms/ifx_i2c\ifx_i2c_data_link_layer.c **** _STATIC_H uint16_t ifx_i2c_dl_calc_crc_byte(uint16_t seed, uint8_t byte)
 257:C:/Users/Yushev/git/optiga-trust-qi/optiga/comms/ifx_i2c\ifx_i2c_data_link_layer.c **** {
 258:C:/Users/Yushev/git/optiga-trust-qi/optiga/comms/ifx_i2c\ifx_i2c_data_link_layer.c ****     uint16_t h1;
 259:C:/Users/Yushev/git/optiga-trust-qi/optiga/comms/ifx_i2c\ifx_i2c_data_link_layer.c ****     uint16_t h2;
 260:C:/Users/Yushev/git/optiga-trust-qi/optiga/comms/ifx_i2c\ifx_i2c_data_link_layer.c ****     uint16_t h3;
 261:C:/Users/Yushev/git/optiga-trust-qi/optiga/comms/ifx_i2c\ifx_i2c_data_link_layer.c ****     uint16_t h4;
 262:C:/Users/Yushev/git/optiga-trust-qi/optiga/comms/ifx_i2c\ifx_i2c_data_link_layer.c **** 
 263:C:/Users/Yushev/git/optiga-trust-qi/optiga/comms/ifx_i2c\ifx_i2c_data_link_layer.c ****     h1 = (seed ^ byte) & 0xFF;
 264:C:/Users/Yushev/git/optiga-trust-qi/optiga/comms/ifx_i2c\ifx_i2c_data_link_layer.c ****     h2 = h1 & 0x0F;
 265:C:/Users/Yushev/git/optiga-trust-qi/optiga/comms/ifx_i2c\ifx_i2c_data_link_layer.c ****     h3 = ((uint16_t)(h2 << 4)) ^ h1;
 266:C:/Users/Yushev/git/optiga-trust-qi/optiga/comms/ifx_i2c\ifx_i2c_data_link_layer.c ****     h4 = h3 >> 4;
 267:C:/Users/Yushev/git/optiga-trust-qi/optiga/comms/ifx_i2c\ifx_i2c_data_link_layer.c **** 
 268:C:/Users/Yushev/git/optiga-trust-qi/optiga/comms/ifx_i2c\ifx_i2c_data_link_layer.c ****     return ((uint16_t)((((uint16_t)((((uint16_t)(h3 << 1)) ^ h4) << 4)) ^ h2) << 3)) ^ h4 ^ (seed >
 269:C:/Users/Yushev/git/optiga-trust-qi/optiga/comms/ifx_i2c\ifx_i2c_data_link_layer.c **** }
 270:C:/Users/Yushev/git/optiga-trust-qi/optiga/comms/ifx_i2c\ifx_i2c_data_link_layer.c **** 
 271:C:/Users/Yushev/git/optiga-trust-qi/optiga/comms/ifx_i2c\ifx_i2c_data_link_layer.c **** _STATIC_H uint16_t ifx_i2c_dl_calc_crc(const uint8_t * p_data, uint16_t data_len)
 272:C:/Users/Yushev/git/optiga-trust-qi/optiga/comms/ifx_i2c\ifx_i2c_data_link_layer.c **** {
  27              	 .loc 1 272 0
  28              	 .cfi_startproc
  29              	 
  30              	 
  31              	.LVL0:
  32 0000 70B5     	 push {r4,r5,r6,lr}
  33              	.LCFI0:
  34              	 .cfi_def_cfa_offset 16
  35              	 .cfi_offset 4,-16
  36              	 .cfi_offset 5,-12
  37              	 .cfi_offset 6,-8
  38              	 .cfi_offset 14,-4
 273:C:/Users/Yushev/git/optiga-trust-qi/optiga/comms/ifx_i2c\ifx_i2c_data_link_layer.c ****     uint16_t i;
 274:C:/Users/Yushev/git/optiga-trust-qi/optiga/comms/ifx_i2c\ifx_i2c_data_link_layer.c ****     uint16_t crc = 0;
  39              	 .loc 1 274 0
  40 0002 0022     	 movs r2,#0
 275:C:/Users/Yushev/git/optiga-trust-qi/optiga/comms/ifx_i2c\ifx_i2c_data_link_layer.c **** 
 276:C:/Users/Yushev/git/optiga-trust-qi/optiga/comms/ifx_i2c\ifx_i2c_data_link_layer.c ****     for (i = 0; i < data_len; i++)
  41              	 .loc 1 276 0
  42 0004 0646     	 mov r6,r0
  43              	.LVL1:
  44              	.L2:
  45 0006 331A     	 subs r3,r6,r0
  46              	 .loc 1 276 0 is_stmt 0 discriminator 1
  47 0008 9BB2     	 uxth r3,r3
  48 000a 8B42     	 cmp r3,r1
  49 000c 11D2     	 bcs .L5
 277:C:/Users/Yushev/git/optiga-trust-qi/optiga/comms/ifx_i2c\ifx_i2c_data_link_layer.c ****     {
 278:C:/Users/Yushev/git/optiga-trust-qi/optiga/comms/ifx_i2c\ifx_i2c_data_link_layer.c ****         crc = ifx_i2c_dl_calc_crc_byte(crc, p_data[i]);
  50              	 .loc 1 278 0 is_stmt 1 discriminator 3
  51 000e 16F8013B 	 ldrb r3,[r6],#1
  52              	.LVL2:
  53              	.LBB4:
  54              	.LBB5:
 263:C:/Users/Yushev/git/optiga-trust-qi/optiga/comms/ifx_i2c\ifx_i2c_data_link_layer.c ****     h2 = h1 & 0x0F;
  55              	 .loc 1 263 0 discriminator 3
  56 0012 5340     	 eors r3,r3,r2
  57              	.LVL3:
 264:C:/Users/Yushev/git/optiga-trust-qi/optiga/comms/ifx_i2c\ifx_i2c_data_link_layer.c ****     h3 = ((uint16_t)(h2 << 4)) ^ h1;
  58              	 .loc 1 264 0 discriminator 3
  59 0014 03F00F04 	 and r4,r3,#15
  60              	.LVL4:
 263:C:/Users/Yushev/git/optiga-trust-qi/optiga/comms/ifx_i2c\ifx_i2c_data_link_layer.c ****     h2 = h1 & 0x0F;
  61              	 .loc 1 263 0 discriminator 3
  62 0018 DBB2     	 uxtb r3,r3
  63              	.LVL5:
 265:C:/Users/Yushev/git/optiga-trust-qi/optiga/comms/ifx_i2c\ifx_i2c_data_link_layer.c ****     h4 = h3 >> 4;
  64              	 .loc 1 265 0 discriminator 3
  65 001a 83EA0413 	 eor r3,r3,r4,lsl#4
  66              	.LVL6:
 266:C:/Users/Yushev/git/optiga-trust-qi/optiga/comms/ifx_i2c\ifx_i2c_data_link_layer.c **** 
  67              	 .loc 1 266 0 discriminator 3
  68 001e 1D09     	 lsrs r5,r3,#4
  69              	.LVL7:
 268:C:/Users/Yushev/git/optiga-trust-qi/optiga/comms/ifx_i2c\ifx_i2c_data_link_layer.c **** }
  70              	 .loc 1 268 0 discriminator 3
  71 0020 85EA4303 	 eor r3,r5,r3,lsl#1
  72              	.LVL8:
  73 0024 85EA1222 	 eor r2,r5,r2,lsr#8
  74              	.LVL9:
  75 0028 44EA0314 	 orr r4,r4,r3,lsl#4
  76              	.LVL10:
  77 002c 82EAC402 	 eor r2,r2,r4,lsl#3
  78 0030 E9E7     	 b .L2
  79              	.LVL11:
  80              	.L5:
  81              	.LBE5:
  82              	.LBE4:
 279:C:/Users/Yushev/git/optiga-trust-qi/optiga/comms/ifx_i2c\ifx_i2c_data_link_layer.c ****     }
 280:C:/Users/Yushev/git/optiga-trust-qi/optiga/comms/ifx_i2c\ifx_i2c_data_link_layer.c **** 
 281:C:/Users/Yushev/git/optiga-trust-qi/optiga/comms/ifx_i2c\ifx_i2c_data_link_layer.c ****     return (crc);
 282:C:/Users/Yushev/git/optiga-trust-qi/optiga/comms/ifx_i2c\ifx_i2c_data_link_layer.c **** }
  83              	 .loc 1 282 0
  84 0032 1046     	 mov r0,r2
  85              	.LVL12:
  86 0034 70BD     	 pop {r4,r5,r6,pc}
  87              	 .cfi_endproc
  88              	.LFE4:
  90              	 .section .text.ifx_i2c_dl_send_frame_internal,"ax",%progbits
  91              	 .align 1
  92              	 .thumb
  93              	 .thumb_func
  95              	ifx_i2c_dl_send_frame_internal:
  96              	.LFB5:
 283:C:/Users/Yushev/git/optiga-trust-qi/optiga/comms/ifx_i2c\ifx_i2c_data_link_layer.c **** 
 284:C:/Users/Yushev/git/optiga-trust-qi/optiga/comms/ifx_i2c\ifx_i2c_data_link_layer.c **** _STATIC_H optiga_lib_status_t ifx_i2c_dl_send_frame_internal(ifx_i2c_context_t * p_ctx,
 285:C:/Users/Yushev/git/optiga-trust-qi/optiga/comms/ifx_i2c\ifx_i2c_data_link_layer.c ****                                                              uint16_t frame_len,
 286:C:/Users/Yushev/git/optiga-trust-qi/optiga/comms/ifx_i2c\ifx_i2c_data_link_layer.c ****                                                              uint8_t seqctr_value,
 287:C:/Users/Yushev/git/optiga-trust-qi/optiga/comms/ifx_i2c\ifx_i2c_data_link_layer.c ****                                                              uint8_t resend)
 288:C:/Users/Yushev/git/optiga-trust-qi/optiga/comms/ifx_i2c\ifx_i2c_data_link_layer.c **** {
  97              	 .loc 1 288 0
  98              	 .cfi_startproc
  99              	 
 100              	 
 101              	.LVL13:
 102 0000 70B5     	 push {r4,r5,r6,lr}
 103              	.LCFI1:
 104              	 .cfi_def_cfa_offset 16
 105              	 .cfi_offset 4,-16
 106              	 .cfi_offset 5,-12
 107              	 .cfi_offset 6,-8
 108              	 .cfi_offset 14,-4
 109              	 .loc 1 288 0
 110 0002 0E46     	 mov r6,r1
 289:C:/Users/Yushev/git/optiga-trust-qi/optiga/comms/ifx_i2c\ifx_i2c_data_link_layer.c ****     uint16_t crc;
 290:C:/Users/Yushev/git/optiga-trust-qi/optiga/comms/ifx_i2c\ifx_i2c_data_link_layer.c ****     uint16_t ack_nr = p_ctx->dl.rx_seq_nr;
 111              	 .loc 1 290 0
 112 0004 90F86210 	 ldrb r1,[r0,#98]
 113              	.LVL14:
 291:C:/Users/Yushev/git/optiga-trust-qi/optiga/comms/ifx_i2c\ifx_i2c_data_link_layer.c ****     uint8_t * p_buffer;
 292:C:/Users/Yushev/git/optiga-trust-qi/optiga/comms/ifx_i2c\ifx_i2c_data_link_layer.c **** 
 293:C:/Users/Yushev/git/optiga-trust-qi/optiga/comms/ifx_i2c\ifx_i2c_data_link_layer.c ****     LOG_DL("[IFX-DL]: TX Frame len %d\n", frame_len);
 294:C:/Users/Yushev/git/optiga-trust-qi/optiga/comms/ifx_i2c\ifx_i2c_data_link_layer.c ****     // In case of sending a NACK the next frame is referenced
 295:C:/Users/Yushev/git/optiga-trust-qi/optiga/comms/ifx_i2c\ifx_i2c_data_link_layer.c ****     if (DL_FCTR_SEQCTR_VALUE_NACK == seqctr_value)
 114              	 .loc 1 295 0
 115 0008 012A     	 cmp r2,#1
 288:C:/Users/Yushev/git/optiga-trust-qi/optiga/comms/ifx_i2c\ifx_i2c_data_link_layer.c ****     uint16_t crc;
 116              	 .loc 1 288 0
 117 000a 0546     	 mov r5,r0
 296:C:/Users/Yushev/git/optiga-trust-qi/optiga/comms/ifx_i2c\ifx_i2c_data_link_layer.c ****     {
 297:C:/Users/Yushev/git/optiga-trust-qi/optiga/comms/ifx_i2c\ifx_i2c_data_link_layer.c ****         ack_nr = (p_ctx->dl.rx_seq_nr + 1) & DL_MAX_FRAME_NUM;
 118              	 .loc 1 297 0
 119 000c 04BF     	 itt eq
 120 000e 481C     	 addeq r0,r1,#1
 121              	.LVL15:
 122 0010 00F00301 	 andeq r1,r0,#3
 123              	.LVL16:
 298:C:/Users/Yushev/git/optiga-trust-qi/optiga/comms/ifx_i2c\ifx_i2c_data_link_layer.c ****     }
 299:C:/Users/Yushev/git/optiga-trust-qi/optiga/comms/ifx_i2c\ifx_i2c_data_link_layer.c ****     p_buffer = p_ctx->dl.p_tx_frame_buffer;
 300:C:/Users/Yushev/git/optiga-trust-qi/optiga/comms/ifx_i2c\ifx_i2c_data_link_layer.c ****     if (DL_FCTR_SEQCTR_VALUE_RESYNC == seqctr_value)
 124              	 .loc 1 300 0
 125 0014 022A     	 cmp r2,#2
 299:C:/Users/Yushev/git/optiga-trust-qi/optiga/comms/ifx_i2c\ifx_i2c_data_link_layer.c ****     if (DL_FCTR_SEQCTR_VALUE_RESYNC == seqctr_value)
 126              	 .loc 1 299 0
 127 0016 2C6F     	 ldr r4,[r5,#112]
 128              	.LVL17:
 129              	 .loc 1 300 0
 130 0018 02D1     	 bne .L8
 131              	.LVL18:
 301:C:/Users/Yushev/git/optiga-trust-qi/optiga/comms/ifx_i2c\ifx_i2c_data_link_layer.c ****     {
 302:C:/Users/Yushev/git/optiga-trust-qi/optiga/comms/ifx_i2c\ifx_i2c_data_link_layer.c ****         ack_nr = 0;
 303:C:/Users/Yushev/git/optiga-trust-qi/optiga/comms/ifx_i2c\ifx_i2c_data_link_layer.c ****         // Use rx buffer to send resync
 304:C:/Users/Yushev/git/optiga-trust-qi/optiga/comms/ifx_i2c\ifx_i2c_data_link_layer.c ****         p_buffer = p_ctx->dl.p_rx_frame_buffer;
 132              	 .loc 1 304 0
 133 001a 6C6F     	 ldr r4,[r5,#116]
 134              	.LVL19:
 302:C:/Users/Yushev/git/optiga-trust-qi/optiga/comms/ifx_i2c\ifx_i2c_data_link_layer.c ****         // Use rx buffer to send resync
 135              	 .loc 1 302 0
 136 001c 0021     	 movs r1,#0
 137 001e 05E0     	 b .L9
 138              	.LVL20:
 139              	.L8:
 305:C:/Users/Yushev/git/optiga-trust-qi/optiga/comms/ifx_i2c\ifx_i2c_data_link_layer.c ****     }
 306:C:/Users/Yushev/git/optiga-trust-qi/optiga/comms/ifx_i2c\ifx_i2c_data_link_layer.c ****     // Use tx buffer when discarding a frame and send nakc for later received frame
 307:C:/Users/Yushev/git/optiga-trust-qi/optiga/comms/ifx_i2c\ifx_i2c_data_link_layer.c ****     if ((DL_FCTR_SEQCTR_VALUE_ACK == seqctr_value) && (DL_STATE_DISCARD == p_ctx->dl.state))
 140              	 .loc 1 307 0
 141 0020 22B9     	 cbnz r2,.L9
 142              	 .loc 1 307 0 is_stmt 0 discriminator 1
 143 0022 95F86000 	 ldrb r0,[r5,#96]
 144 0026 0928     	 cmp r0,#9
 308:C:/Users/Yushev/git/optiga-trust-qi/optiga/comms/ifx_i2c\ifx_i2c_data_link_layer.c ****     {
 309:C:/Users/Yushev/git/optiga-trust-qi/optiga/comms/ifx_i2c\ifx_i2c_data_link_layer.c ****         p_buffer = p_ctx->dl.p_rx_frame_buffer;
 145              	 .loc 1 309 0 is_stmt 1 discriminator 1
 146 0028 08BF     	 it eq
 147 002a 6C6F     	 ldreq r4,[r5,#116]
 148              	.LVL21:
 149              	.L9:
 310:C:/Users/Yushev/git/optiga-trust-qi/optiga/comms/ifx_i2c\ifx_i2c_data_link_layer.c ****     }
 311:C:/Users/Yushev/git/optiga-trust-qi/optiga/comms/ifx_i2c\ifx_i2c_data_link_layer.c **** 
 312:C:/Users/Yushev/git/optiga-trust-qi/optiga/comms/ifx_i2c\ifx_i2c_data_link_layer.c ****     // Set sequence control value (ACK or NACK) and referenced frame number
 313:C:/Users/Yushev/git/optiga-trust-qi/optiga/comms/ifx_i2c\ifx_i2c_data_link_layer.c ****     //lint --e{835} suppress "DL_FCTR_ACKNR_OFFSET macro is defined as 0x00 and is kept for future 
 314:C:/Users/Yushev/git/optiga-trust-qi/optiga/comms/ifx_i2c\ifx_i2c_data_link_layer.c ****     p_buffer[0] = (uint8_t)(ack_nr << DL_FCTR_ACKNR_OFFSET);
 315:C:/Users/Yushev/git/optiga-trust-qi/optiga/comms/ifx_i2c\ifx_i2c_data_link_layer.c ****     p_buffer[0] |= (uint8_t)(seqctr_value << DL_FCTR_SEQCTR_OFFSET);
 150              	 .loc 1 315 0
 151 002c 41EA4211 	 orr r1,r1,r2,lsl#5
 152 0030 C9B2     	 uxtb r1,r1
 153 0032 2170     	 strb r1,[r4]
 316:C:/Users/Yushev/git/optiga-trust-qi/optiga/comms/ifx_i2c\ifx_i2c_data_link_layer.c **** 
 317:C:/Users/Yushev/git/optiga-trust-qi/optiga/comms/ifx_i2c\ifx_i2c_data_link_layer.c ****     if (0 != frame_len) // Data frame
 154              	 .loc 1 317 0
 155 0034 A6B1     	 cbz r6,.L10
 318:C:/Users/Yushev/git/optiga-trust-qi/optiga/comms/ifx_i2c\ifx_i2c_data_link_layer.c ****     {
 319:C:/Users/Yushev/git/optiga-trust-qi/optiga/comms/ifx_i2c\ifx_i2c_data_link_layer.c ****         // Increment and set frame transmit sequence number
 320:C:/Users/Yushev/git/optiga-trust-qi/optiga/comms/ifx_i2c\ifx_i2c_data_link_layer.c ****         if ((0 == resend) || (0 != p_ctx->dl.resynced))
 156              	 .loc 1 320 0
 157 0036 13B1     	 cbz r3,.L11
 158              	 .loc 1 320 0 is_stmt 0 discriminator 1
 159 0038 95F86630 	 ldrb r3,[r5,#102]
 160              	.LVL22:
 161 003c 33B1     	 cbz r3,.L12
 162              	.L11:
 321:C:/Users/Yushev/git/optiga-trust-qi/optiga/comms/ifx_i2c\ifx_i2c_data_link_layer.c ****         {
 322:C:/Users/Yushev/git/optiga-trust-qi/optiga/comms/ifx_i2c\ifx_i2c_data_link_layer.c ****             p_ctx->dl.tx_seq_nr = (p_ctx->dl.tx_seq_nr + 1) & DL_MAX_FRAME_NUM;
 163              	 .loc 1 322 0 is_stmt 1
 164 003e 95F86130 	 ldrb r3,[r5,#97]
 165 0042 0133     	 adds r3,r3,#1
 166 0044 03F00303 	 and r3,r3,#3
 167 0048 85F86130 	 strb r3,[r5,#97]
 168              	.L12:
 323:C:/Users/Yushev/git/optiga-trust-qi/optiga/comms/ifx_i2c\ifx_i2c_data_link_layer.c ****         }
 324:C:/Users/Yushev/git/optiga-trust-qi/optiga/comms/ifx_i2c\ifx_i2c_data_link_layer.c ****         p_buffer[0] |= (uint8_t)(p_ctx->dl.tx_seq_nr << DL_FCTR_FRNR_OFFSET);
 169              	 .loc 1 324 0
 170 004c 2378     	 ldrb r3,[r4]
 171 004e 95F86120 	 ldrb r2,[r5,#97]
 172              	.LVL23:
 173 0052 43EA8203 	 orr r3,r3,r2,lsl#2
 174 0056 2370     	 strb r3,[r4]
 325:C:/Users/Yushev/git/optiga-trust-qi/optiga/comms/ifx_i2c\ifx_i2c_data_link_layer.c ****         // Reset resync received
 326:C:/Users/Yushev/git/optiga-trust-qi/optiga/comms/ifx_i2c\ifx_i2c_data_link_layer.c ****         p_ctx->dl.resynced = 0;
 175              	 .loc 1 326 0
 176 0058 0023     	 movs r3,#0
 177 005a 85F86630 	 strb r3,[r5,#102]
 178 005e 02E0     	 b .L13
 179              	.LVL24:
 180              	.L10:
 327:C:/Users/Yushev/git/optiga-trust-qi/optiga/comms/ifx_i2c\ifx_i2c_data_link_layer.c ****         OPTIGA_COMMS_LOG_MESSAGE(">>>>");
 328:C:/Users/Yushev/git/optiga-trust-qi/optiga/comms/ifx_i2c\ifx_i2c_data_link_layer.c ****     }
 329:C:/Users/Yushev/git/optiga-trust-qi/optiga/comms/ifx_i2c\ifx_i2c_data_link_layer.c ****     else // Control frame
 330:C:/Users/Yushev/git/optiga-trust-qi/optiga/comms/ifx_i2c\ifx_i2c_data_link_layer.c ****     {
 331:C:/Users/Yushev/git/optiga-trust-qi/optiga/comms/ifx_i2c\ifx_i2c_data_link_layer.c ****         p_buffer[0] |= DL_FCTR_FTYPE_MASK;
 181              	 .loc 1 331 0
 182 0060 61F07F01 	 orn r1,r1,#127
 183 0064 2170     	 strb r1,[r4]
 184              	.LVL25:
 185              	.L13:
 332:C:/Users/Yushev/git/optiga-trust-qi/optiga/comms/ifx_i2c\ifx_i2c_data_link_layer.c ****     }
 333:C:/Users/Yushev/git/optiga-trust-qi/optiga/comms/ifx_i2c\ifx_i2c_data_link_layer.c **** 
 334:C:/Users/Yushev/git/optiga-trust-qi/optiga/comms/ifx_i2c\ifx_i2c_data_link_layer.c ****     // Set frame length
 335:C:/Users/Yushev/git/optiga-trust-qi/optiga/comms/ifx_i2c\ifx_i2c_data_link_layer.c ****     p_buffer[1] = (uint8_t)(frame_len >> 8);
 186              	 .loc 1 335 0
 187 0066 330A     	 lsrs r3,r6,#8
 336:C:/Users/Yushev/git/optiga-trust-qi/optiga/comms/ifx_i2c\ifx_i2c_data_link_layer.c ****     p_buffer[2] = (uint8_t)frame_len;
 337:C:/Users/Yushev/git/optiga-trust-qi/optiga/comms/ifx_i2c\ifx_i2c_data_link_layer.c **** 
 338:C:/Users/Yushev/git/optiga-trust-qi/optiga/comms/ifx_i2c\ifx_i2c_data_link_layer.c ****     // Calculate frame CRC
 339:C:/Users/Yushev/git/optiga-trust-qi/optiga/comms/ifx_i2c\ifx_i2c_data_link_layer.c ****     crc = ifx_i2c_dl_calc_crc(p_buffer, 3 + frame_len);
 188              	 .loc 1 339 0
 189 0068 F11C     	 adds r1,r6,#3
 335:C:/Users/Yushev/git/optiga-trust-qi/optiga/comms/ifx_i2c\ifx_i2c_data_link_layer.c ****     p_buffer[2] = (uint8_t)frame_len;
 190              	 .loc 1 335 0
 191 006a 6370     	 strb r3,[r4,#1]
 336:C:/Users/Yushev/git/optiga-trust-qi/optiga/comms/ifx_i2c\ifx_i2c_data_link_layer.c ****     p_buffer[2] = (uint8_t)frame_len;
 192              	 .loc 1 336 0
 193 006c A670     	 strb r6,[r4,#2]
 194              	 .loc 1 339 0
 195 006e 2046     	 mov r0,r4
 196 0070 89B2     	 uxth r1,r1
 197 0072 FFF7FEFF 	 bl ifx_i2c_dl_calc_crc
 198              	.LVL26:
 340:C:/Users/Yushev/git/optiga-trust-qi/optiga/comms/ifx_i2c\ifx_i2c_data_link_layer.c ****     p_buffer[3 + frame_len] = (uint8_t) (crc >> 8);
 199              	 .loc 1 340 0
 200 0076 A319     	 adds r3,r4,r6
 201 0078 020A     	 lsrs r2,r0,#8
 202 007a DA70     	 strb r2,[r3,#3]
 341:C:/Users/Yushev/git/optiga-trust-qi/optiga/comms/ifx_i2c\ifx_i2c_data_link_layer.c ****     p_buffer[4 + frame_len] = (uint8_t)crc;
 203              	 .loc 1 341 0
 204 007c 1871     	 strb r0,[r3,#4]
 342:C:/Users/Yushev/git/optiga-trust-qi/optiga/comms/ifx_i2c\ifx_i2c_data_link_layer.c **** 
 343:C:/Users/Yushev/git/optiga-trust-qi/optiga/comms/ifx_i2c\ifx_i2c_data_link_layer.c ****     // Transmit frame
 344:C:/Users/Yushev/git/optiga-trust-qi/optiga/comms/ifx_i2c\ifx_i2c_data_link_layer.c ****     OPTIGA_IFXI2C_LOG_TRANSMIT_HEX_DATA(p_buffer,DL_HEADER_SIZE + frame_len,p_ctx)
 345:C:/Users/Yushev/git/optiga-trust-qi/optiga/comms/ifx_i2c\ifx_i2c_data_link_layer.c ****     return (ifx_i2c_pl_send_frame(p_ctx, p_buffer, DL_HEADER_SIZE + frame_len));
 205              	 .loc 1 345 0
 206 007e 721D     	 adds r2,r6,#5
 207 0080 2846     	 mov r0,r5
 208              	.LVL27:
 209 0082 2146     	 mov r1,r4
 210 0084 92B2     	 uxth r2,r2
 346:C:/Users/Yushev/git/optiga-trust-qi/optiga/comms/ifx_i2c\ifx_i2c_data_link_layer.c **** }
 211              	 .loc 1 346 0
 212 0086 BDE87040 	 pop {r4,r5,r6,lr}
 213              	.LCFI2:
 214              	 .cfi_restore 14
 215              	 .cfi_restore 6
 216              	 .cfi_restore 5
 217              	 .cfi_restore 4
 218              	 .cfi_def_cfa_offset 0
 219              	.LVL28:
 345:C:/Users/Yushev/git/optiga-trust-qi/optiga/comms/ifx_i2c\ifx_i2c_data_link_layer.c **** }
 220              	 .loc 1 345 0
 221 008a FFF7FEBF 	 b ifx_i2c_pl_send_frame
 222              	.LVL29:
 223              	 .cfi_endproc
 224              	.LFE5:
 226              	 .section .text.ifx_i2c_pl_event_handler,"ax",%progbits
 227              	 .align 1
 228              	 .thumb
 229              	 .thumb_func
 231              	ifx_i2c_pl_event_handler:
 232              	.LFB8:
 347:C:/Users/Yushev/git/optiga-trust-qi/optiga/comms/ifx_i2c\ifx_i2c_data_link_layer.c **** 
 348:C:/Users/Yushev/git/optiga-trust-qi/optiga/comms/ifx_i2c\ifx_i2c_data_link_layer.c **** _STATIC_H optiga_lib_status_t ifx_i2c_dl_resync(ifx_i2c_context_t * p_ctx)
 349:C:/Users/Yushev/git/optiga-trust-qi/optiga/comms/ifx_i2c\ifx_i2c_data_link_layer.c **** {
 350:C:/Users/Yushev/git/optiga-trust-qi/optiga/comms/ifx_i2c\ifx_i2c_data_link_layer.c ****     optiga_lib_status_t api_status;
 351:C:/Users/Yushev/git/optiga-trust-qi/optiga/comms/ifx_i2c\ifx_i2c_data_link_layer.c ****     // Reset tx and rx counters
 352:C:/Users/Yushev/git/optiga-trust-qi/optiga/comms/ifx_i2c\ifx_i2c_data_link_layer.c ****     p_ctx->dl.tx_seq_nr = DL_MAX_FRAME_NUM;
 353:C:/Users/Yushev/git/optiga-trust-qi/optiga/comms/ifx_i2c\ifx_i2c_data_link_layer.c ****     p_ctx->dl.rx_seq_nr = DL_MAX_FRAME_NUM;
 354:C:/Users/Yushev/git/optiga-trust-qi/optiga/comms/ifx_i2c\ifx_i2c_data_link_layer.c ****     p_ctx->dl.resynced = 1;
 355:C:/Users/Yushev/git/optiga-trust-qi/optiga/comms/ifx_i2c\ifx_i2c_data_link_layer.c ****     LOG_DL("[IFX-DL]: Send Re-Sync Frame\n");
 356:C:/Users/Yushev/git/optiga-trust-qi/optiga/comms/ifx_i2c\ifx_i2c_data_link_layer.c ****     p_ctx->dl.state = DL_STATE_RESEND;
 357:C:/Users/Yushev/git/optiga-trust-qi/optiga/comms/ifx_i2c\ifx_i2c_data_link_layer.c ****     api_status = ifx_i2c_dl_send_frame_internal(p_ctx, 0, DL_FCTR_SEQCTR_VALUE_RESYNC, 0);
 358:C:/Users/Yushev/git/optiga-trust-qi/optiga/comms/ifx_i2c\ifx_i2c_data_link_layer.c ****     return (api_status);
 359:C:/Users/Yushev/git/optiga-trust-qi/optiga/comms/ifx_i2c\ifx_i2c_data_link_layer.c **** }
 360:C:/Users/Yushev/git/optiga-trust-qi/optiga/comms/ifx_i2c\ifx_i2c_data_link_layer.c **** 
 361:C:/Users/Yushev/git/optiga-trust-qi/optiga/comms/ifx_i2c\ifx_i2c_data_link_layer.c **** _STATIC_H void ifx_i2c_dl_resend_frame(ifx_i2c_context_t * p_ctx, uint8_t seqctr_value)
 362:C:/Users/Yushev/git/optiga-trust-qi/optiga/comms/ifx_i2c\ifx_i2c_data_link_layer.c **** {
 363:C:/Users/Yushev/git/optiga-trust-qi/optiga/comms/ifx_i2c\ifx_i2c_data_link_layer.c ****     optiga_lib_status_t status;
 364:C:/Users/Yushev/git/optiga-trust-qi/optiga/comms/ifx_i2c\ifx_i2c_data_link_layer.c ****     // If exit timeout not violated
 365:C:/Users/Yushev/git/optiga-trust-qi/optiga/comms/ifx_i2c\ifx_i2c_data_link_layer.c ****     uint32_t current_time_stamp = pal_os_timer_get_time_in_milliseconds();
 366:C:/Users/Yushev/git/optiga-trust-qi/optiga/comms/ifx_i2c\ifx_i2c_data_link_layer.c ****     uint32_t time_stamp_diff = current_time_stamp - p_ctx->tl.api_start_time;
 367:C:/Users/Yushev/git/optiga-trust-qi/optiga/comms/ifx_i2c\ifx_i2c_data_link_layer.c **** 
 368:C:/Users/Yushev/git/optiga-trust-qi/optiga/comms/ifx_i2c\ifx_i2c_data_link_layer.c ****     if (p_ctx->tl.api_start_time > current_time_stamp)
 369:C:/Users/Yushev/git/optiga-trust-qi/optiga/comms/ifx_i2c\ifx_i2c_data_link_layer.c ****     {
 370:C:/Users/Yushev/git/optiga-trust-qi/optiga/comms/ifx_i2c\ifx_i2c_data_link_layer.c ****         time_stamp_diff = (0xFFFFFFFF + (current_time_stamp - p_ctx->tl.api_start_time)) + 0x01;
 371:C:/Users/Yushev/git/optiga-trust-qi/optiga/comms/ifx_i2c\ifx_i2c_data_link_layer.c ****     }
 372:C:/Users/Yushev/git/optiga-trust-qi/optiga/comms/ifx_i2c\ifx_i2c_data_link_layer.c ****     if (time_stamp_diff < (TL_MAX_EXIT_TIMEOUT * DL_SEC_TO_MSECS))
 373:C:/Users/Yushev/git/optiga-trust-qi/optiga/comms/ifx_i2c\ifx_i2c_data_link_layer.c ****     {
 374:C:/Users/Yushev/git/optiga-trust-qi/optiga/comms/ifx_i2c\ifx_i2c_data_link_layer.c ****         if (DL_TRANS_REPEAT == p_ctx->dl.retransmit_counter)
 375:C:/Users/Yushev/git/optiga-trust-qi/optiga/comms/ifx_i2c\ifx_i2c_data_link_layer.c ****         {
 376:C:/Users/Yushev/git/optiga-trust-qi/optiga/comms/ifx_i2c\ifx_i2c_data_link_layer.c ****             LOG_DL("[IFX-DL]: Re-Sync counters\n");
 377:C:/Users/Yushev/git/optiga-trust-qi/optiga/comms/ifx_i2c\ifx_i2c_data_link_layer.c ****             p_ctx->dl.retransmit_counter = 0;
 378:C:/Users/Yushev/git/optiga-trust-qi/optiga/comms/ifx_i2c\ifx_i2c_data_link_layer.c ****             status = ifx_i2c_dl_resync(p_ctx);
 379:C:/Users/Yushev/git/optiga-trust-qi/optiga/comms/ifx_i2c\ifx_i2c_data_link_layer.c ****         }
 380:C:/Users/Yushev/git/optiga-trust-qi/optiga/comms/ifx_i2c\ifx_i2c_data_link_layer.c ****         else
 381:C:/Users/Yushev/git/optiga-trust-qi/optiga/comms/ifx_i2c\ifx_i2c_data_link_layer.c ****         {
 382:C:/Users/Yushev/git/optiga-trust-qi/optiga/comms/ifx_i2c\ifx_i2c_data_link_layer.c ****             LOG_DL("[IFX-DL]: Re-TX Frame\n");
 383:C:/Users/Yushev/git/optiga-trust-qi/optiga/comms/ifx_i2c\ifx_i2c_data_link_layer.c ****             p_ctx->dl.retransmit_counter++;
 384:C:/Users/Yushev/git/optiga-trust-qi/optiga/comms/ifx_i2c\ifx_i2c_data_link_layer.c ****             p_ctx->dl.state = DL_STATE_TX;
 385:C:/Users/Yushev/git/optiga-trust-qi/optiga/comms/ifx_i2c\ifx_i2c_data_link_layer.c ****             status = ifx_i2c_dl_send_frame_internal(p_ctx, p_ctx->dl.tx_buffer_size, seqctr_value, 
 386:C:/Users/Yushev/git/optiga-trust-qi/optiga/comms/ifx_i2c\ifx_i2c_data_link_layer.c ****         }
 387:C:/Users/Yushev/git/optiga-trust-qi/optiga/comms/ifx_i2c\ifx_i2c_data_link_layer.c ****         // Handle error in above case by sending NACK
 388:C:/Users/Yushev/git/optiga-trust-qi/optiga/comms/ifx_i2c\ifx_i2c_data_link_layer.c ****         if (IFX_I2C_STACK_SUCCESS != status)
 389:C:/Users/Yushev/git/optiga-trust-qi/optiga/comms/ifx_i2c\ifx_i2c_data_link_layer.c ****         {
 390:C:/Users/Yushev/git/optiga-trust-qi/optiga/comms/ifx_i2c\ifx_i2c_data_link_layer.c ****             p_ctx->dl.state  = DL_STATE_NACK;
 391:C:/Users/Yushev/git/optiga-trust-qi/optiga/comms/ifx_i2c\ifx_i2c_data_link_layer.c ****         }
 392:C:/Users/Yushev/git/optiga-trust-qi/optiga/comms/ifx_i2c\ifx_i2c_data_link_layer.c ****     }
 393:C:/Users/Yushev/git/optiga-trust-qi/optiga/comms/ifx_i2c\ifx_i2c_data_link_layer.c ****     else
 394:C:/Users/Yushev/git/optiga-trust-qi/optiga/comms/ifx_i2c\ifx_i2c_data_link_layer.c ****     {
 395:C:/Users/Yushev/git/optiga-trust-qi/optiga/comms/ifx_i2c\ifx_i2c_data_link_layer.c ****         p_ctx->dl.state = DL_STATE_ERROR;
 396:C:/Users/Yushev/git/optiga-trust-qi/optiga/comms/ifx_i2c\ifx_i2c_data_link_layer.c ****     }
 397:C:/Users/Yushev/git/optiga-trust-qi/optiga/comms/ifx_i2c\ifx_i2c_data_link_layer.c **** }
 398:C:/Users/Yushev/git/optiga-trust-qi/optiga/comms/ifx_i2c\ifx_i2c_data_link_layer.c **** 
 399:C:/Users/Yushev/git/optiga-trust-qi/optiga/comms/ifx_i2c\ifx_i2c_data_link_layer.c **** _STATIC_H void ifx_i2c_pl_event_handler(ifx_i2c_context_t * p_ctx,
 400:C:/Users/Yushev/git/optiga-trust-qi/optiga/comms/ifx_i2c\ifx_i2c_data_link_layer.c ****                                         optiga_lib_status_t event,
 401:C:/Users/Yushev/git/optiga-trust-qi/optiga/comms/ifx_i2c\ifx_i2c_data_link_layer.c ****                                         const uint8_t * p_data,
 402:C:/Users/Yushev/git/optiga-trust-qi/optiga/comms/ifx_i2c\ifx_i2c_data_link_layer.c ****                                         uint16_t data_len)
 403:C:/Users/Yushev/git/optiga-trust-qi/optiga/comms/ifx_i2c\ifx_i2c_data_link_layer.c **** {
 233              	 .loc 1 403 0
 234              	 .cfi_startproc
 235              	 
 236              	 
 237              	.LVL30:
 238 0000 2DE9F04F 	 push {r4,r5,r6,r7,r8,r9,r10,fp,lr}
 239              	.LCFI3:
 240              	 .cfi_def_cfa_offset 36
 241              	 .cfi_offset 4,-36
 242              	 .cfi_offset 5,-32
 243              	 .cfi_offset 6,-28
 244              	 .cfi_offset 7,-24
 245              	 .cfi_offset 8,-20
 246              	 .cfi_offset 9,-16
 247              	 .cfi_offset 10,-12
 248              	 .cfi_offset 11,-8
 249              	 .cfi_offset 14,-4
 250 0004 85B0     	 sub sp,sp,#20
 251              	.LCFI4:
 252              	 .cfi_def_cfa_offset 56
 404:C:/Users/Yushev/git/optiga-trust-qi/optiga/comms/ifx_i2c\ifx_i2c_data_link_layer.c ****     uint8_t fctr = 0;
 405:C:/Users/Yushev/git/optiga-trust-qi/optiga/comms/ifx_i2c\ifx_i2c_data_link_layer.c ****     uint8_t fr_nr = 0;
 406:C:/Users/Yushev/git/optiga-trust-qi/optiga/comms/ifx_i2c\ifx_i2c_data_link_layer.c ****     uint8_t ack_nr = 0;
 407:C:/Users/Yushev/git/optiga-trust-qi/optiga/comms/ifx_i2c\ifx_i2c_data_link_layer.c ****     uint8_t seqctr = 0;
 408:C:/Users/Yushev/git/optiga-trust-qi/optiga/comms/ifx_i2c\ifx_i2c_data_link_layer.c ****     uint8_t current_event;
 409:C:/Users/Yushev/git/optiga-trust-qi/optiga/comms/ifx_i2c\ifx_i2c_data_link_layer.c ****     uint8_t ftype = 0;
 410:C:/Users/Yushev/git/optiga-trust-qi/optiga/comms/ifx_i2c\ifx_i2c_data_link_layer.c ****     uint8_t continue_state_machine = TRUE;
 411:C:/Users/Yushev/git/optiga-trust-qi/optiga/comms/ifx_i2c\ifx_i2c_data_link_layer.c ****     uint16_t packet_len = 0;
 412:C:/Users/Yushev/git/optiga-trust-qi/optiga/comms/ifx_i2c\ifx_i2c_data_link_layer.c ****     uint16_t crc_received = 0;
 413:C:/Users/Yushev/git/optiga-trust-qi/optiga/comms/ifx_i2c\ifx_i2c_data_link_layer.c ****     uint16_t crc_calculated = 0;
 253              	 .loc 1 413 0
 254 0006 0025     	 movs r5,#0
 403:C:/Users/Yushev/git/optiga-trust-qi/optiga/comms/ifx_i2c\ifx_i2c_data_link_layer.c ****     uint8_t fctr = 0;
 255              	 .loc 1 403 0
 256 0008 0446     	 mov r4,r0
 257 000a 8B46     	 mov fp,r1
 258 000c 9146     	 mov r9,r2
 259 000e 1F46     	 mov r7,r3
 412:C:/Users/Yushev/git/optiga-trust-qi/optiga/comms/ifx_i2c\ifx_i2c_data_link_layer.c ****     uint16_t crc_calculated = 0;
 260              	 .loc 1 412 0
 261 0010 A846     	 mov r8,r5
 411:C:/Users/Yushev/git/optiga-trust-qi/optiga/comms/ifx_i2c\ifx_i2c_data_link_layer.c ****     uint16_t crc_received = 0;
 262              	 .loc 1 411 0
 263 0012 0195     	 str r5,[sp,#4]
 407:C:/Users/Yushev/git/optiga-trust-qi/optiga/comms/ifx_i2c\ifx_i2c_data_link_layer.c ****     uint8_t current_event;
 264              	 .loc 1 407 0
 265 0014 2E46     	 mov r6,r5
 406:C:/Users/Yushev/git/optiga-trust-qi/optiga/comms/ifx_i2c\ifx_i2c_data_link_layer.c ****     uint8_t seqctr = 0;
 266              	 .loc 1 406 0
 267 0016 0295     	 str r5,[sp,#8]
 405:C:/Users/Yushev/git/optiga-trust-qi/optiga/comms/ifx_i2c\ifx_i2c_data_link_layer.c ****     uint8_t ack_nr = 0;
 268              	 .loc 1 405 0
 269 0018 AA46     	 mov r10,r5
 270              	.LVL31:
 271              	.L64:
 414:C:/Users/Yushev/git/optiga-trust-qi/optiga/comms/ifx_i2c\ifx_i2c_data_link_layer.c ****     LOG_DL("[IFX-DL]: #Enter DL Handler\n");
 415:C:/Users/Yushev/git/optiga-trust-qi/optiga/comms/ifx_i2c\ifx_i2c_data_link_layer.c ****     do
 416:C:/Users/Yushev/git/optiga-trust-qi/optiga/comms/ifx_i2c\ifx_i2c_data_link_layer.c ****     {
 417:C:/Users/Yushev/git/optiga-trust-qi/optiga/comms/ifx_i2c\ifx_i2c_data_link_layer.c ****         if ((IFX_I2C_FATAL_ERROR == event) && (DL_STATE_IDLE != p_ctx->dl.state))
 272              	 .loc 1 417 0
 273 001a BBF5837F 	 cmp fp,#262
 274 001e 06D1     	 bne .L21
 275              	 .loc 1 417 0 is_stmt 0 discriminator 1
 276 0020 94F86030 	 ldrb r3,[r4,#96]
 277 0024 012B     	 cmp r3,#1
 278 0026 02D0     	 beq .L21
 418:C:/Users/Yushev/git/optiga-trust-qi/optiga/comms/ifx_i2c\ifx_i2c_data_link_layer.c ****         {    // Exit in case of fatal error
 419:C:/Users/Yushev/git/optiga-trust-qi/optiga/comms/ifx_i2c\ifx_i2c_data_link_layer.c ****             LOG_DL("[IFX-DL]: Fatal error received\n");
 420:C:/Users/Yushev/git/optiga-trust-qi/optiga/comms/ifx_i2c\ifx_i2c_data_link_layer.c ****             p_ctx->dl.state = DL_STATE_ERROR;
 279              	 .loc 1 420 0 is_stmt 1
 280 0028 0823     	 movs r3,#8
 281              	.L82:
 282 002a 84F86030 	 strb r3,[r4,#96]
 283              	.L21:
 421:C:/Users/Yushev/git/optiga-trust-qi/optiga/comms/ifx_i2c\ifx_i2c_data_link_layer.c ****         }
 422:C:/Users/Yushev/git/optiga-trust-qi/optiga/comms/ifx_i2c\ifx_i2c_data_link_layer.c ****         switch (p_ctx->dl.state)
 284              	 .loc 1 422 0
 285 002e 94F86030 	 ldrb r3,[r4,#96]
 286 0032 013B     	 subs r3,r3,#1
 287 0034 0A2B     	 cmp r3,#10
 288 0036 00F24581 	 bhi .L22
 289 003a DFE813F0 	 tbh [pc,r3,lsl#1]
 290              	.L24:
 291 003e 0B00     	 .2byte (.L23-.L24)/2
 292 0040 1300     	 .2byte (.L25-.L24)/2
 293 0042 2200     	 .2byte (.L26-.L24)/2
 294 0044 CA00     	 .2byte (.L27-.L24)/2
 295 0046 E900     	 .2byte (.L28-.L24)/2
 296 0048 E200     	 .2byte (.L29-.L24)/2
 297 004a 4301     	 .2byte (.L22-.L24)/2
 298 004c 1D01     	 .2byte (.L30-.L24)/2
 299 004e C100     	 .2byte (.L31-.L24)/2
 300 0050 4D00     	 .2byte (.L32-.L24)/2
 301 0052 8400     	 .2byte (.L33-.L24)/2
 302              	 .p2align 1
 303              	.L23:
 423:C:/Users/Yushev/git/optiga-trust-qi/optiga/comms/ifx_i2c\ifx_i2c_data_link_layer.c ****         {
 424:C:/Users/Yushev/git/optiga-trust-qi/optiga/comms/ifx_i2c\ifx_i2c_data_link_layer.c ****             case DL_STATE_IDLE:
 425:C:/Users/Yushev/git/optiga-trust-qi/optiga/comms/ifx_i2c\ifx_i2c_data_link_layer.c ****             {
 426:C:/Users/Yushev/git/optiga-trust-qi/optiga/comms/ifx_i2c\ifx_i2c_data_link_layer.c ****                 current_event = (event != IFX_I2C_STACK_SUCCESS) ? IFX_I2C_DL_EVENT_ERROR : IFX_I2C
 304              	 .loc 1 426 0
 305 0054 BBF1000F 	 cmp fp,#0
 306              	.LVL32:
 427:C:/Users/Yushev/git/optiga-trust-qi/optiga/comms/ifx_i2c\ifx_i2c_data_link_layer.c ****                 continue_state_machine = FALSE;
 428:C:/Users/Yushev/git/optiga-trust-qi/optiga/comms/ifx_i2c\ifx_i2c_data_link_layer.c ****                 p_ctx->dl.upper_layer_event_handler(p_ctx,current_event, 0, 0);
 307              	 .loc 1 428 0
 308 0058 E56F     	 ldr r5,[r4,#124]
 309              	.LVL33:
 310 005a 2046     	 mov r0,r4
 311 005c 14BF     	 ite ne
 312 005e 0121     	 movne r1,#1
 313 0060 0221     	 moveq r1,#2
 314 0062 34E1     	 b .L85
 315              	.LVL34:
 316              	.L25:
 429:C:/Users/Yushev/git/optiga-trust-qi/optiga/comms/ifx_i2c\ifx_i2c_data_link_layer.c ****             }
 430:C:/Users/Yushev/git/optiga-trust-qi/optiga/comms/ifx_i2c\ifx_i2c_data_link_layer.c ****             break;
 431:C:/Users/Yushev/git/optiga-trust-qi/optiga/comms/ifx_i2c\ifx_i2c_data_link_layer.c ****             case DL_STATE_TX:
 432:C:/Users/Yushev/git/optiga-trust-qi/optiga/comms/ifx_i2c\ifx_i2c_data_link_layer.c ****             {
 433:C:/Users/Yushev/git/optiga-trust-qi/optiga/comms/ifx_i2c\ifx_i2c_data_link_layer.c ****                 // If writing a frame failed retry sending
 434:C:/Users/Yushev/git/optiga-trust-qi/optiga/comms/ifx_i2c\ifx_i2c_data_link_layer.c ****                 if (IFX_I2C_STACK_ERROR == event)
 317              	 .loc 1 434 0
 318 0064 BBF5817F 	 cmp fp,#258
 319 0068 00F0B680 	 beq .L90
 435:C:/Users/Yushev/git/optiga-trust-qi/optiga/comms/ifx_i2c\ifx_i2c_data_link_layer.c ****                 {
 436:C:/Users/Yushev/git/optiga-trust-qi/optiga/comms/ifx_i2c\ifx_i2c_data_link_layer.c ****                     p_ctx->dl.state = DL_STATE_RESEND;
 437:C:/Users/Yushev/git/optiga-trust-qi/optiga/comms/ifx_i2c\ifx_i2c_data_link_layer.c ****                     break;
 438:C:/Users/Yushev/git/optiga-trust-qi/optiga/comms/ifx_i2c\ifx_i2c_data_link_layer.c ****                 }
 439:C:/Users/Yushev/git/optiga-trust-qi/optiga/comms/ifx_i2c\ifx_i2c_data_link_layer.c ****                 LOG_DL("[IFX-DL]: Frame Sent\n");
 440:C:/Users/Yushev/git/optiga-trust-qi/optiga/comms/ifx_i2c\ifx_i2c_data_link_layer.c ****                 // Transmission successful, start receiving frame
 441:C:/Users/Yushev/git/optiga-trust-qi/optiga/comms/ifx_i2c\ifx_i2c_data_link_layer.c ****                 p_ctx->dl.frame_start_time = pal_os_timer_get_time_in_milliseconds();
 320              	 .loc 1 441 0
 321 006c FFF7FEFF 	 bl pal_os_timer_get_time_in_milliseconds
 322              	.LVL35:
 442:C:/Users/Yushev/git/optiga-trust-qi/optiga/comms/ifx_i2c\ifx_i2c_data_link_layer.c ****                 p_ctx->dl.state = DL_STATE_RX;
 323              	 .loc 1 442 0
 324 0070 0323     	 movs r3,#3
 441:C:/Users/Yushev/git/optiga-trust-qi/optiga/comms/ifx_i2c\ifx_i2c_data_link_layer.c ****                 p_ctx->dl.state = DL_STATE_RX;
 325              	 .loc 1 441 0
 326 0072 A067     	 str r0,[r4,#120]
 327              	 .loc 1 442 0
 328 0074 84F86030 	 strb r3,[r4,#96]
 443:C:/Users/Yushev/git/optiga-trust-qi/optiga/comms/ifx_i2c\ifx_i2c_data_link_layer.c ****                 if (0 != ifx_i2c_pl_receive_frame(p_ctx))
 329              	 .loc 1 443 0
 330 0078 2046     	 mov r0,r4
 331 007a FFF7FEFF 	 bl ifx_i2c_pl_receive_frame
 332              	.LVL36:
 333 007e A8BB     	 cbnz r0,.L42
 334 0080 2CE1     	 b .L20
 335              	.L26:
 444:C:/Users/Yushev/git/optiga-trust-qi/optiga/comms/ifx_i2c\ifx_i2c_data_link_layer.c ****                 {
 445:C:/Users/Yushev/git/optiga-trust-qi/optiga/comms/ifx_i2c\ifx_i2c_data_link_layer.c ****                     p_ctx->dl.state  = DL_STATE_NACK;
 446:C:/Users/Yushev/git/optiga-trust-qi/optiga/comms/ifx_i2c\ifx_i2c_data_link_layer.c ****                 }
 447:C:/Users/Yushev/git/optiga-trust-qi/optiga/comms/ifx_i2c\ifx_i2c_data_link_layer.c ****                 else
 448:C:/Users/Yushev/git/optiga-trust-qi/optiga/comms/ifx_i2c\ifx_i2c_data_link_layer.c ****                 {
 449:C:/Users/Yushev/git/optiga-trust-qi/optiga/comms/ifx_i2c\ifx_i2c_data_link_layer.c ****                     continue_state_machine = FALSE;
 450:C:/Users/Yushev/git/optiga-trust-qi/optiga/comms/ifx_i2c\ifx_i2c_data_link_layer.c ****                 }
 451:C:/Users/Yushev/git/optiga-trust-qi/optiga/comms/ifx_i2c\ifx_i2c_data_link_layer.c ****             }
 452:C:/Users/Yushev/git/optiga-trust-qi/optiga/comms/ifx_i2c\ifx_i2c_data_link_layer.c ****             break;
 453:C:/Users/Yushev/git/optiga-trust-qi/optiga/comms/ifx_i2c\ifx_i2c_data_link_layer.c ****             case DL_STATE_RX:
 454:C:/Users/Yushev/git/optiga-trust-qi/optiga/comms/ifx_i2c\ifx_i2c_data_link_layer.c ****             {
 455:C:/Users/Yushev/git/optiga-trust-qi/optiga/comms/ifx_i2c\ifx_i2c_data_link_layer.c ****                 if (IFX_I2C_STACK_ERROR == event)
 336              	 .loc 1 455 0
 337 0082 BBF5817F 	 cmp fp,#258
 338 0086 00F0A780 	 beq .L90
 456:C:/Users/Yushev/git/optiga-trust-qi/optiga/comms/ifx_i2c\ifx_i2c_data_link_layer.c ****                 {    // If no frame was received retry sending
 457:C:/Users/Yushev/git/optiga-trust-qi/optiga/comms/ifx_i2c\ifx_i2c_data_link_layer.c ****                     p_ctx->dl.state = DL_STATE_RESEND;
 458:C:/Users/Yushev/git/optiga-trust-qi/optiga/comms/ifx_i2c\ifx_i2c_data_link_layer.c ****                     break;
 459:C:/Users/Yushev/git/optiga-trust-qi/optiga/comms/ifx_i2c\ifx_i2c_data_link_layer.c ****                 }
 460:C:/Users/Yushev/git/optiga-trust-qi/optiga/comms/ifx_i2c\ifx_i2c_data_link_layer.c ****                 // Received frame from device, start analyzing
 461:C:/Users/Yushev/git/optiga-trust-qi/optiga/comms/ifx_i2c\ifx_i2c_data_link_layer.c ****                 LOG_DL("[IFX-DL]: Received Frame of length %d\n",data_len);
 462:C:/Users/Yushev/git/optiga-trust-qi/optiga/comms/ifx_i2c\ifx_i2c_data_link_layer.c **** 
 463:C:/Users/Yushev/git/optiga-trust-qi/optiga/comms/ifx_i2c\ifx_i2c_data_link_layer.c ****                 if (data_len < DL_HEADER_SIZE)
 339              	 .loc 1 463 0
 340 008a 042F     	 cmp r7,#4
 341 008c 2ED9     	 bls .L42
 464:C:/Users/Yushev/git/optiga-trust-qi/optiga/comms/ifx_i2c\ifx_i2c_data_link_layer.c ****                 {    // Received length is less than minimum size
 465:C:/Users/Yushev/git/optiga-trust-qi/optiga/comms/ifx_i2c\ifx_i2c_data_link_layer.c ****                     LOG_DL("[IFX-DL]: received data_len < DL_HEADER_SIZE\n");
 466:C:/Users/Yushev/git/optiga-trust-qi/optiga/comms/ifx_i2c\ifx_i2c_data_link_layer.c ****                     p_ctx->dl.state  = DL_STATE_NACK;
 467:C:/Users/Yushev/git/optiga-trust-qi/optiga/comms/ifx_i2c\ifx_i2c_data_link_layer.c ****                     break;
 468:C:/Users/Yushev/git/optiga-trust-qi/optiga/comms/ifx_i2c\ifx_i2c_data_link_layer.c ****                 }
 469:C:/Users/Yushev/git/optiga-trust-qi/optiga/comms/ifx_i2c\ifx_i2c_data_link_layer.c ****                 // Check transmit frame sequence number
 470:C:/Users/Yushev/git/optiga-trust-qi/optiga/comms/ifx_i2c\ifx_i2c_data_link_layer.c ****                 fctr = p_data[0];
 342              	 .loc 1 470 0
 343 008e 99F80030 	 ldrb r3,[r9]
 344              	.LVL37:
 471:C:/Users/Yushev/git/optiga-trust-qi/optiga/comms/ifx_i2c\ifx_i2c_data_link_layer.c ****                 ftype = (fctr & DL_FCTR_FTYPE_MASK) >> DL_FCTR_FTYPE_OFFSET;
 472:C:/Users/Yushev/git/optiga-trust-qi/optiga/comms/ifx_i2c\ifx_i2c_data_link_layer.c ****                 seqctr = (fctr & DL_FCTR_SEQCTR_MASK) >> DL_FCTR_SEQCTR_OFFSET;
 473:C:/Users/Yushev/git/optiga-trust-qi/optiga/comms/ifx_i2c\ifx_i2c_data_link_layer.c ****                 //lint --e{835} suppress "DL_FCTR_ACKNR_OFFSET is defined as 0x00 and is kept for f
 474:C:/Users/Yushev/git/optiga-trust-qi/optiga/comms/ifx_i2c\ifx_i2c_data_link_layer.c ****                 ack_nr = (fctr & DL_FCTR_ACKNR_MASK) >> DL_FCTR_ACKNR_OFFSET;
 475:C:/Users/Yushev/git/optiga-trust-qi/optiga/comms/ifx_i2c\ifx_i2c_data_link_layer.c ****                 fr_nr = (fctr & DL_FCTR_FRNR_MASK) >> DL_FCTR_FRNR_OFFSET;
 476:C:/Users/Yushev/git/optiga-trust-qi/optiga/comms/ifx_i2c\ifx_i2c_data_link_layer.c ****                 packet_len = (p_data[1] << 8) | p_data[2];
 345              	 .loc 1 476 0
 346 0092 99F80180 	 ldrb r8,[r9,#1]
 347              	.LVL38:
 475:C:/Users/Yushev/git/optiga-trust-qi/optiga/comms/ifx_i2c\ifx_i2c_data_link_layer.c ****                 packet_len = (p_data[1] << 8) | p_data[2];
 348              	 .loc 1 475 0
 349 0096 0393     	 str r3,[sp,#12]
 474:C:/Users/Yushev/git/optiga-trust-qi/optiga/comms/ifx_i2c\ifx_i2c_data_link_layer.c ****                 fr_nr = (fctr & DL_FCTR_FRNR_MASK) >> DL_FCTR_FRNR_OFFSET;
 350              	 .loc 1 474 0
 351 0098 03F00302 	 and r2,r3,#3
 352 009c 0292     	 str r2,[sp,#8]
 353              	.LVL39:
 354              	 .loc 1 476 0
 355 009e 99F80220 	 ldrb r2,[r9,#2]
 472:C:/Users/Yushev/git/optiga-trust-qi/optiga/comms/ifx_i2c\ifx_i2c_data_link_layer.c ****                 //lint --e{835} suppress "DL_FCTR_ACKNR_OFFSET is defined as 0x00 and is kept for f
 356              	 .loc 1 472 0
 357 00a2 C3F34116 	 ubfx r6,r3,#5,#2
 358              	.LVL40:
 475:C:/Users/Yushev/git/optiga-trust-qi/optiga/comms/ifx_i2c\ifx_i2c_data_link_layer.c ****                 packet_len = (p_data[1] << 8) | p_data[2];
 359              	 .loc 1 475 0
 360 00a6 C3F3810A 	 ubfx r10,r3,#2,#2
 361              	.LVL41:
 362              	 .loc 1 476 0
 363 00aa 42EA0823 	 orr r3,r2,r8,lsl#8
 364              	.LVL42:
 477:C:/Users/Yushev/git/optiga-trust-qi/optiga/comms/ifx_i2c\ifx_i2c_data_link_layer.c **** 
 478:C:/Users/Yushev/git/optiga-trust-qi/optiga/comms/ifx_i2c\ifx_i2c_data_link_layer.c ****                 // Check frame CRC value
 479:C:/Users/Yushev/git/optiga-trust-qi/optiga/comms/ifx_i2c\ifx_i2c_data_link_layer.c ****                 crc_received = (p_data[data_len - 2] << 8) | p_data[data_len - 1];
 365              	 .loc 1 479 0
 366 00ae 09EB0702 	 add r2,r9,r7
 480:C:/Users/Yushev/git/optiga-trust-qi/optiga/comms/ifx_i2c\ifx_i2c_data_link_layer.c ****                 crc_calculated = ifx_i2c_dl_calc_crc(p_data, data_len - 2);
 367              	 .loc 1 480 0
 368 00b2 B91E     	 subs r1,r7,#2
 479:C:/Users/Yushev/git/optiga-trust-qi/optiga/comms/ifx_i2c\ifx_i2c_data_link_layer.c ****                 crc_calculated = ifx_i2c_dl_calc_crc(p_data, data_len - 2);
 369              	 .loc 1 479 0
 370 00b4 12F802CC 	 ldrb ip,[r2,#-2]
 371 00b8 12F8012C 	 ldrb r2,[r2,#-1]
 476:C:/Users/Yushev/git/optiga-trust-qi/optiga/comms/ifx_i2c\ifx_i2c_data_link_layer.c **** 
 372              	 .loc 1 476 0
 373 00bc 0193     	 str r3,[sp,#4]
 374              	.LVL43:
 375              	 .loc 1 480 0
 376 00be 4846     	 mov r0,r9
 377 00c0 89B2     	 uxth r1,r1
 479:C:/Users/Yushev/git/optiga-trust-qi/optiga/comms/ifx_i2c\ifx_i2c_data_link_layer.c ****                 crc_calculated = ifx_i2c_dl_calc_crc(p_data, data_len - 2);
 378              	 .loc 1 479 0
 379 00c2 42EA0C28 	 orr r8,r2,ip,lsl#8
 380              	.LVL44:
 381              	 .loc 1 480 0
 382 00c6 FFF7FEFF 	 bl ifx_i2c_dl_calc_crc
 383              	.LVL45:
 481:C:/Users/Yushev/git/optiga-trust-qi/optiga/comms/ifx_i2c\ifx_i2c_data_link_layer.c ****                 p_ctx->dl.state = (ftype == DL_FCTR_VALUE_CONTROL_FRAME) ? DL_STATE_RX_CF : DL_STAT
 384              	 .loc 1 481 0
 385 00ca 039B     	 ldr r3,[sp,#12]
 386 00cc DB09     	 lsrs r3,r3,#7
 480:C:/Users/Yushev/git/optiga-trust-qi/optiga/comms/ifx_i2c\ifx_i2c_data_link_layer.c ****                 p_ctx->dl.state = (ftype == DL_FCTR_VALUE_CONTROL_FRAME) ? DL_STATE_RX_CF : DL_STAT
 387              	 .loc 1 480 0
 388 00ce 0546     	 mov r5,r0
 389              	.LVL46:
 390              	 .loc 1 481 0
 391 00d0 14BF     	 ite ne
 392 00d2 0B23     	 movne r3,#11
 393 00d4 0A23     	 moveq r3,#10
 394 00d6 42E0     	 b .L80
 395              	.LVL47:
 396              	.L32:
 482:C:/Users/Yushev/git/optiga-trust-qi/optiga/comms/ifx_i2c\ifx_i2c_data_link_layer.c ****             }
 483:C:/Users/Yushev/git/optiga-trust-qi/optiga/comms/ifx_i2c\ifx_i2c_data_link_layer.c ****             break;
 484:C:/Users/Yushev/git/optiga-trust-qi/optiga/comms/ifx_i2c\ifx_i2c_data_link_layer.c ****             case DL_STATE_RX_DF:
 485:C:/Users/Yushev/git/optiga-trust-qi/optiga/comms/ifx_i2c\ifx_i2c_data_link_layer.c ****             {
 486:C:/Users/Yushev/git/optiga-trust-qi/optiga/comms/ifx_i2c\ifx_i2c_data_link_layer.c ****                 LOG_DL("[IFX-DL]: Data Frame Received\n");
 487:C:/Users/Yushev/git/optiga-trust-qi/optiga/comms/ifx_i2c\ifx_i2c_data_link_layer.c ****                 if ((crc_received != crc_calculated) || (0 == packet_len) ||
 397              	 .loc 1 487 0
 398 00d8 A845     	 cmp r8,r5
 399 00da 07D1     	 bne .L42
 400              	 .loc 1 487 0 is_stmt 0 discriminator 1
 401 00dc 019B     	 ldr r3,[sp,#4]
 402 00de 2BB1     	 cbz r3,.L42
 488:C:/Users/Yushev/git/optiga-trust-qi/optiga/comms/ifx_i2c\ifx_i2c_data_link_layer.c ****                     (data_len != (DL_HEADER_SIZE + packet_len)) || (DL_FCTR_SEQCTR_VALUE_RFU == seq
 403              	 .loc 1 488 0 is_stmt 1 discriminator 2
 404 00e0 0533     	 adds r3,r3,#5
 487:C:/Users/Yushev/git/optiga-trust-qi/optiga/comms/ifx_i2c\ifx_i2c_data_link_layer.c ****                     (data_len != (DL_HEADER_SIZE + packet_len)) || (DL_FCTR_SEQCTR_VALUE_RFU == seq
 405              	 .loc 1 487 0 discriminator 2
 406 00e2 9F42     	 cmp r7,r3
 407 00e4 02D1     	 bne .L42
 408              	 .loc 1 488 0 discriminator 1
 409 00e6 B31E     	 subs r3,r6,#2
 410 00e8 012B     	 cmp r3,#1
 411 00ea 01D8     	 bhi .L43
 412              	.L42:
 489:C:/Users/Yushev/git/optiga-trust-qi/optiga/comms/ifx_i2c\ifx_i2c_data_link_layer.c ****                     (DL_FCTR_SEQCTR_VALUE_RESYNC == seqctr))
 490:C:/Users/Yushev/git/optiga-trust-qi/optiga/comms/ifx_i2c\ifx_i2c_data_link_layer.c ****                 {
 491:C:/Users/Yushev/git/optiga-trust-qi/optiga/comms/ifx_i2c\ifx_i2c_data_link_layer.c ****                     // CRC,Length of data frame is 0/ SEQCTR has RFU/Re-sync in Data frame
 492:C:/Users/Yushev/git/optiga-trust-qi/optiga/comms/ifx_i2c\ifx_i2c_data_link_layer.c ****                     LOG_DL("[IFX-DL]: NACK for CRC error,Data frame length is not correct,RFU in SE
 493:C:/Users/Yushev/git/optiga-trust-qi/optiga/comms/ifx_i2c\ifx_i2c_data_link_layer.c ****                     p_ctx->dl.state  = DL_STATE_NACK;
 413              	 .loc 1 493 0
 414 00ec 0623     	 movs r3,#6
 415 00ee 36E0     	 b .L80
 416              	.L43:
 494:C:/Users/Yushev/git/optiga-trust-qi/optiga/comms/ifx_i2c\ifx_i2c_data_link_layer.c ****                     break;
 495:C:/Users/Yushev/git/optiga-trust-qi/optiga/comms/ifx_i2c\ifx_i2c_data_link_layer.c ****                 }
 496:C:/Users/Yushev/git/optiga-trust-qi/optiga/comms/ifx_i2c\ifx_i2c_data_link_layer.c ****                 if (fr_nr != ((p_ctx->dl.rx_seq_nr + 1) & DL_MAX_FRAME_NUM))
 417              	 .loc 1 496 0
 418 00f0 94F86230 	 ldrb r3,[r4,#98]
 419 00f4 0133     	 adds r3,r3,#1
 420 00f6 03F00303 	 and r3,r3,#3
 421 00fa 9A45     	 cmp r10,r3
 422 00fc 05D0     	 beq .L44
 497:C:/Users/Yushev/git/optiga-trust-qi/optiga/comms/ifx_i2c\ifx_i2c_data_link_layer.c ****                 {
 498:C:/Users/Yushev/git/optiga-trust-qi/optiga/comms/ifx_i2c\ifx_i2c_data_link_layer.c ****                     LOG_DL("[IFX-DL]: Data frame number not expected\n");
 499:C:/Users/Yushev/git/optiga-trust-qi/optiga/comms/ifx_i2c\ifx_i2c_data_link_layer.c ****                     p_ctx->dl.state  = DL_STATE_DISCARD;
 423              	 .loc 1 499 0
 424 00fe 0923     	 movs r3,#9
 425 0100 84F86030 	 strb r3,[r4,#96]
 426              	.LVL48:
 500:C:/Users/Yushev/git/optiga-trust-qi/optiga/comms/ifx_i2c\ifx_i2c_data_link_layer.c ****                     continue_state_machine = FALSE;
 501:C:/Users/Yushev/git/optiga-trust-qi/optiga/comms/ifx_i2c\ifx_i2c_data_link_layer.c ****                     //lint --e{534} suppress "Error handling is not required so return value is not
 502:C:/Users/Yushev/git/optiga-trust-qi/optiga/comms/ifx_i2c\ifx_i2c_data_link_layer.c ****                     ifx_i2c_dl_send_frame_internal(p_ctx, 0, DL_FCTR_SEQCTR_VALUE_ACK, 0);
 427              	 .loc 1 502 0
 428 0104 2046     	 mov r0,r4
 429 0106 0021     	 movs r1,#0
 430 0108 16E0     	 b .L86
 431              	.LVL49:
 432              	.L44:
 503:C:/Users/Yushev/git/optiga-trust-qi/optiga/comms/ifx_i2c\ifx_i2c_data_link_layer.c ****                     break;
 504:C:/Users/Yushev/git/optiga-trust-qi/optiga/comms/ifx_i2c\ifx_i2c_data_link_layer.c ****                 }
 505:C:/Users/Yushev/git/optiga-trust-qi/optiga/comms/ifx_i2c\ifx_i2c_data_link_layer.c ****                 if (ack_nr != p_ctx->dl.tx_seq_nr)
 433              	 .loc 1 505 0
 434 010a 94F86130 	 ldrb r3,[r4,#97]
 435 010e 029A     	 ldr r2,[sp,#8]
 436 0110 9342     	 cmp r3,r2
 437 0112 44D1     	 bne .L52
 506:C:/Users/Yushev/git/optiga-trust-qi/optiga/comms/ifx_i2c\ifx_i2c_data_link_layer.c ****                 {
 507:C:/Users/Yushev/git/optiga-trust-qi/optiga/comms/ifx_i2c\ifx_i2c_data_link_layer.c ****                     // ack number error
 508:C:/Users/Yushev/git/optiga-trust-qi/optiga/comms/ifx_i2c\ifx_i2c_data_link_layer.c ****                     LOG_DL("[IFX-DL]: Error in ack number\n");
 509:C:/Users/Yushev/git/optiga-trust-qi/optiga/comms/ifx_i2c\ifx_i2c_data_link_layer.c ****                     //lint --e{534} suppress "Error handling is not required so return value is not
 510:C:/Users/Yushev/git/optiga-trust-qi/optiga/comms/ifx_i2c\ifx_i2c_data_link_layer.c ****                     p_ctx->dl.state = DL_STATE_DISCARD;
 511:C:/Users/Yushev/git/optiga-trust-qi/optiga/comms/ifx_i2c\ifx_i2c_data_link_layer.c ****                     break;
 512:C:/Users/Yushev/git/optiga-trust-qi/optiga/comms/ifx_i2c\ifx_i2c_data_link_layer.c ****                 }
 513:C:/Users/Yushev/git/optiga-trust-qi/optiga/comms/ifx_i2c\ifx_i2c_data_link_layer.c ****                 if (DL_FCTR_SEQCTR_VALUE_NACK == seqctr)
 438              	 .loc 1 513 0
 439 0114 012E     	 cmp r6,#1
 440 0116 46D0     	 beq .L81
 514:C:/Users/Yushev/git/optiga-trust-qi/optiga/comms/ifx_i2c\ifx_i2c_data_link_layer.c ****                 {
 515:C:/Users/Yushev/git/optiga-trust-qi/optiga/comms/ifx_i2c\ifx_i2c_data_link_layer.c ****                     // NACK for transmitted frame
 516:C:/Users/Yushev/git/optiga-trust-qi/optiga/comms/ifx_i2c\ifx_i2c_data_link_layer.c ****                     LOG_DL("[IFX-DL]: NACK received in data frame\n");
 517:C:/Users/Yushev/git/optiga-trust-qi/optiga/comms/ifx_i2c\ifx_i2c_data_link_layer.c ****                     p_ctx->dl.state = DL_STATE_RESEND;
 518:C:/Users/Yushev/git/optiga-trust-qi/optiga/comms/ifx_i2c\ifx_i2c_data_link_layer.c ****                     break;
 519:C:/Users/Yushev/git/optiga-trust-qi/optiga/comms/ifx_i2c\ifx_i2c_data_link_layer.c ****                 }
 520:C:/Users/Yushev/git/optiga-trust-qi/optiga/comms/ifx_i2c\ifx_i2c_data_link_layer.c ****                 p_ctx->dl.rx_seq_nr = (p_ctx->dl.rx_seq_nr + 1) & DL_MAX_FRAME_NUM;
 521:C:/Users/Yushev/git/optiga-trust-qi/optiga/comms/ifx_i2c\ifx_i2c_data_link_layer.c ****                 memcpy(p_ctx->dl.p_rx_frame_buffer, p_data, data_len);
 441              	 .loc 1 521 0
 442 0118 4946     	 mov r1,r9
 520:C:/Users/Yushev/git/optiga-trust-qi/optiga/comms/ifx_i2c\ifx_i2c_data_link_layer.c ****                 memcpy(p_ctx->dl.p_rx_frame_buffer, p_data, data_len);
 443              	 .loc 1 520 0
 444 011a 84F862A0 	 strb r10,[r4,#98]
 445              	 .loc 1 521 0
 446 011e 606F     	 ldr r0,[r4,#116]
 447 0120 3A46     	 mov r2,r7
 448 0122 FFF7FEFF 	 bl memcpy
 449              	.LVL50:
 522:C:/Users/Yushev/git/optiga-trust-qi/optiga/comms/ifx_i2c\ifx_i2c_data_link_layer.c ****                 p_ctx->dl.rx_buffer_size = data_len;
 523:C:/Users/Yushev/git/optiga-trust-qi/optiga/comms/ifx_i2c\ifx_i2c_data_link_layer.c **** 
 524:C:/Users/Yushev/git/optiga-trust-qi/optiga/comms/ifx_i2c\ifx_i2c_data_link_layer.c ****                 // Send control frame to acknowledge reception of this data frame
 525:C:/Users/Yushev/git/optiga-trust-qi/optiga/comms/ifx_i2c\ifx_i2c_data_link_layer.c ****                 LOG_DL("[IFX-DL]: Read Data Frame -> Send ACK\n");
 526:C:/Users/Yushev/git/optiga-trust-qi/optiga/comms/ifx_i2c\ifx_i2c_data_link_layer.c ****                 p_ctx->dl.retransmit_counter = 0;
 450              	 .loc 1 526 0
 451 0126 0021     	 movs r1,#0
 527:C:/Users/Yushev/git/optiga-trust-qi/optiga/comms/ifx_i2c\ifx_i2c_data_link_layer.c ****                 p_ctx->dl.state = DL_STATE_ACK;
 452              	 .loc 1 527 0
 453 0128 0423     	 movs r3,#4
 522:C:/Users/Yushev/git/optiga-trust-qi/optiga/comms/ifx_i2c\ifx_i2c_data_link_layer.c ****                 p_ctx->dl.rx_buffer_size = data_len;
 454              	 .loc 1 522 0
 455 012a A4F86E70 	 strh r7,[r4,#110]
 526:C:/Users/Yushev/git/optiga-trust-qi/optiga/comms/ifx_i2c\ifx_i2c_data_link_layer.c ****                 p_ctx->dl.state = DL_STATE_ACK;
 456              	 .loc 1 526 0
 457 012e 84F86410 	 strb r1,[r4,#100]
 458              	 .loc 1 527 0
 459 0132 84F86030 	 strb r3,[r4,#96]
 460              	.LVL51:
 528:C:/Users/Yushev/git/optiga-trust-qi/optiga/comms/ifx_i2c\ifx_i2c_data_link_layer.c ****                 continue_state_machine = FALSE;
 529:C:/Users/Yushev/git/optiga-trust-qi/optiga/comms/ifx_i2c\ifx_i2c_data_link_layer.c **** 
 530:C:/Users/Yushev/git/optiga-trust-qi/optiga/comms/ifx_i2c\ifx_i2c_data_link_layer.c ****                 OPTIGA_COMMS_LOG_MESSAGE("<<<<");\
 531:C:/Users/Yushev/git/optiga-trust-qi/optiga/comms/ifx_i2c\ifx_i2c_data_link_layer.c ****                 OPTIGA_IFXI2C_LOG_RECEIVE_HEX_DATA(p_data,data_len,p_ctx);
 532:C:/Users/Yushev/git/optiga-trust-qi/optiga/comms/ifx_i2c\ifx_i2c_data_link_layer.c ****                 //lint --e{534} suppress "Error handling is not required so return value is not che
 533:C:/Users/Yushev/git/optiga-trust-qi/optiga/comms/ifx_i2c\ifx_i2c_data_link_layer.c ****                 ifx_i2c_dl_send_frame_internal(p_ctx, 0, DL_FCTR_SEQCTR_VALUE_ACK, 0);
 461              	 .loc 1 533 0
 462 0136 2046     	 mov r0,r4
 463              	.LVL52:
 464              	.L86:
 465 0138 0A46     	 mov r2,r1
 466              	.L88:
 467 013a 0B46     	 mov r3,r1
 534:C:/Users/Yushev/git/optiga-trust-qi/optiga/comms/ifx_i2c\ifx_i2c_data_link_layer.c ****             }
 535:C:/Users/Yushev/git/optiga-trust-qi/optiga/comms/ifx_i2c\ifx_i2c_data_link_layer.c ****             break;
 536:C:/Users/Yushev/git/optiga-trust-qi/optiga/comms/ifx_i2c\ifx_i2c_data_link_layer.c ****             case DL_STATE_RX_CF:
 537:C:/Users/Yushev/git/optiga-trust-qi/optiga/comms/ifx_i2c\ifx_i2c_data_link_layer.c ****             {
 538:C:/Users/Yushev/git/optiga-trust-qi/optiga/comms/ifx_i2c\ifx_i2c_data_link_layer.c ****                 LOG_DL("[IFX-DL]: Control Frame Received\n");
 539:C:/Users/Yushev/git/optiga-trust-qi/optiga/comms/ifx_i2c\ifx_i2c_data_link_layer.c ****                 // Except Re-Sync, Discard Control frame when in receiver mode
 540:C:/Users/Yushev/git/optiga-trust-qi/optiga/comms/ifx_i2c\ifx_i2c_data_link_layer.c ****                 // Discard Re-Sync in transmission mode
 541:C:/Users/Yushev/git/optiga-trust-qi/optiga/comms/ifx_i2c\ifx_i2c_data_link_layer.c ****                 //lint --e{514} suppress "Refer the above comment for the explaination of this chec
 542:C:/Users/Yushev/git/optiga-trust-qi/optiga/comms/ifx_i2c\ifx_i2c_data_link_layer.c ****                 if ((p_ctx->dl.action_rx_only) ^ (DL_FCTR_SEQCTR_VALUE_RESYNC == seqctr))
 543:C:/Users/Yushev/git/optiga-trust-qi/optiga/comms/ifx_i2c\ifx_i2c_data_link_layer.c ****                 {
 544:C:/Users/Yushev/git/optiga-trust-qi/optiga/comms/ifx_i2c\ifx_i2c_data_link_layer.c ****                     //If control frame already received for data frame, ignore any received control
 545:C:/Users/Yushev/git/optiga-trust-qi/optiga/comms/ifx_i2c\ifx_i2c_data_link_layer.c ****                     LOG_DL("[IFX-DL]: CF in receiver mode,Discard\n");
 546:C:/Users/Yushev/git/optiga-trust-qi/optiga/comms/ifx_i2c\ifx_i2c_data_link_layer.c ****                     p_ctx->dl.state = DL_STATE_DISCARD;
 547:C:/Users/Yushev/git/optiga-trust-qi/optiga/comms/ifx_i2c\ifx_i2c_data_link_layer.c ****                     break;
 548:C:/Users/Yushev/git/optiga-trust-qi/optiga/comms/ifx_i2c\ifx_i2c_data_link_layer.c ****                 }
 549:C:/Users/Yushev/git/optiga-trust-qi/optiga/comms/ifx_i2c\ifx_i2c_data_link_layer.c ****                 if (crc_received != crc_calculated)
 550:C:/Users/Yushev/git/optiga-trust-qi/optiga/comms/ifx_i2c\ifx_i2c_data_link_layer.c ****                 {
 551:C:/Users/Yushev/git/optiga-trust-qi/optiga/comms/ifx_i2c\ifx_i2c_data_link_layer.c ****                     // Re-Transmit frame in case of CF CRC error
 552:C:/Users/Yushev/git/optiga-trust-qi/optiga/comms/ifx_i2c\ifx_i2c_data_link_layer.c ****                     LOG_DL("[IFX-DL]: Retransmit frame for CF CRC error\n");
 553:C:/Users/Yushev/git/optiga-trust-qi/optiga/comms/ifx_i2c\ifx_i2c_data_link_layer.c ****                     p_ctx->dl.state = DL_STATE_RESEND;
 554:C:/Users/Yushev/git/optiga-trust-qi/optiga/comms/ifx_i2c\ifx_i2c_data_link_layer.c ****                     break;
 555:C:/Users/Yushev/git/optiga-trust-qi/optiga/comms/ifx_i2c\ifx_i2c_data_link_layer.c ****                 }
 556:C:/Users/Yushev/git/optiga-trust-qi/optiga/comms/ifx_i2c\ifx_i2c_data_link_layer.c ****                 if ((data_len > DL_CONTROL_FRAME_LENGTH) || (0 != packet_len))
 557:C:/Users/Yushev/git/optiga-trust-qi/optiga/comms/ifx_i2c\ifx_i2c_data_link_layer.c ****                 {
 558:C:/Users/Yushev/git/optiga-trust-qi/optiga/comms/ifx_i2c\ifx_i2c_data_link_layer.c ****                     // Control frame is more than 5/Control frame with non-zero FRNR/packet len is 
 559:C:/Users/Yushev/git/optiga-trust-qi/optiga/comms/ifx_i2c\ifx_i2c_data_link_layer.c ****                     LOG_DL("[IFX-DL]: Errors in control frame\n");
 560:C:/Users/Yushev/git/optiga-trust-qi/optiga/comms/ifx_i2c\ifx_i2c_data_link_layer.c ****                     p_ctx->dl.state = DL_STATE_DISCARD;
 561:C:/Users/Yushev/git/optiga-trust-qi/optiga/comms/ifx_i2c\ifx_i2c_data_link_layer.c ****                     break;
 562:C:/Users/Yushev/git/optiga-trust-qi/optiga/comms/ifx_i2c\ifx_i2c_data_link_layer.c ****                 }
 563:C:/Users/Yushev/git/optiga-trust-qi/optiga/comms/ifx_i2c\ifx_i2c_data_link_layer.c ****                 if (DL_FCTR_SEQCTR_VALUE_RESYNC == seqctr)
 564:C:/Users/Yushev/git/optiga-trust-qi/optiga/comms/ifx_i2c\ifx_i2c_data_link_layer.c ****                 {    // Re-sync received
 565:C:/Users/Yushev/git/optiga-trust-qi/optiga/comms/ifx_i2c\ifx_i2c_data_link_layer.c ****                     LOG_DL("[IFX-DL]: Re-Sync received\n");
 566:C:/Users/Yushev/git/optiga-trust-qi/optiga/comms/ifx_i2c\ifx_i2c_data_link_layer.c ****                     p_ctx->dl.state = DL_STATE_DISCARD;
 567:C:/Users/Yushev/git/optiga-trust-qi/optiga/comms/ifx_i2c\ifx_i2c_data_link_layer.c ****                     p_ctx->dl.resynced = 1;
 568:C:/Users/Yushev/git/optiga-trust-qi/optiga/comms/ifx_i2c\ifx_i2c_data_link_layer.c ****                     p_ctx->dl.tx_seq_nr = DL_MAX_FRAME_NUM;
 569:C:/Users/Yushev/git/optiga-trust-qi/optiga/comms/ifx_i2c\ifx_i2c_data_link_layer.c ****                     p_ctx->dl.rx_seq_nr = DL_MAX_FRAME_NUM;
 570:C:/Users/Yushev/git/optiga-trust-qi/optiga/comms/ifx_i2c\ifx_i2c_data_link_layer.c ****                     break;
 571:C:/Users/Yushev/git/optiga-trust-qi/optiga/comms/ifx_i2c\ifx_i2c_data_link_layer.c ****                 }
 572:C:/Users/Yushev/git/optiga-trust-qi/optiga/comms/ifx_i2c\ifx_i2c_data_link_layer.c ****                 if ((0 != fr_nr) || (DL_FCTR_SEQCTR_VALUE_RFU == seqctr) || (ack_nr != p_ctx->dl.tx
 573:C:/Users/Yushev/git/optiga-trust-qi/optiga/comms/ifx_i2c\ifx_i2c_data_link_layer.c ****                 {
 574:C:/Users/Yushev/git/optiga-trust-qi/optiga/comms/ifx_i2c\ifx_i2c_data_link_layer.c ****                     // Control frame with non-zero FRNR/ ACK not received/ ack number != tx number
 575:C:/Users/Yushev/git/optiga-trust-qi/optiga/comms/ifx_i2c\ifx_i2c_data_link_layer.c ****                     LOG_DL("[IFX-DL]: Errors in control frame\n");
 576:C:/Users/Yushev/git/optiga-trust-qi/optiga/comms/ifx_i2c\ifx_i2c_data_link_layer.c ****                     p_ctx->dl.state = DL_STATE_DISCARD;
 577:C:/Users/Yushev/git/optiga-trust-qi/optiga/comms/ifx_i2c\ifx_i2c_data_link_layer.c ****                     break;
 578:C:/Users/Yushev/git/optiga-trust-qi/optiga/comms/ifx_i2c\ifx_i2c_data_link_layer.c ****                 }
 579:C:/Users/Yushev/git/optiga-trust-qi/optiga/comms/ifx_i2c\ifx_i2c_data_link_layer.c ****                 if (DL_FCTR_SEQCTR_VALUE_NACK == seqctr)
 580:C:/Users/Yushev/git/optiga-trust-qi/optiga/comms/ifx_i2c\ifx_i2c_data_link_layer.c ****                 {
 581:C:/Users/Yushev/git/optiga-trust-qi/optiga/comms/ifx_i2c\ifx_i2c_data_link_layer.c ****                     // NACK for transmitted frame
 582:C:/Users/Yushev/git/optiga-trust-qi/optiga/comms/ifx_i2c\ifx_i2c_data_link_layer.c ****                     LOG_DL("[IFX-DL]: NACK received\n");
 583:C:/Users/Yushev/git/optiga-trust-qi/optiga/comms/ifx_i2c\ifx_i2c_data_link_layer.c ****                     p_ctx->dl.state = DL_STATE_RESEND;
 584:C:/Users/Yushev/git/optiga-trust-qi/optiga/comms/ifx_i2c\ifx_i2c_data_link_layer.c ****                     break;
 585:C:/Users/Yushev/git/optiga-trust-qi/optiga/comms/ifx_i2c\ifx_i2c_data_link_layer.c ****                 }
 586:C:/Users/Yushev/git/optiga-trust-qi/optiga/comms/ifx_i2c\ifx_i2c_data_link_layer.c **** 
 587:C:/Users/Yushev/git/optiga-trust-qi/optiga/comms/ifx_i2c\ifx_i2c_data_link_layer.c ****                 LOG_DL("[IFX-DL]: ACK received\n");
 588:C:/Users/Yushev/git/optiga-trust-qi/optiga/comms/ifx_i2c\ifx_i2c_data_link_layer.c ****                 // Report frame reception to upper layer and go in idle state
 589:C:/Users/Yushev/git/optiga-trust-qi/optiga/comms/ifx_i2c\ifx_i2c_data_link_layer.c ****                 p_ctx->dl.state = DL_STATE_IDLE;
 590:C:/Users/Yushev/git/optiga-trust-qi/optiga/comms/ifx_i2c\ifx_i2c_data_link_layer.c ****                 continue_state_machine = FALSE;
 591:C:/Users/Yushev/git/optiga-trust-qi/optiga/comms/ifx_i2c\ifx_i2c_data_link_layer.c ****                 p_ctx->dl.upper_layer_event_handler(p_ctx, IFX_I2C_DL_EVENT_TX_SUCCESS, 0, 0);
 592:C:/Users/Yushev/git/optiga-trust-qi/optiga/comms/ifx_i2c\ifx_i2c_data_link_layer.c ****             }
 593:C:/Users/Yushev/git/optiga-trust-qi/optiga/comms/ifx_i2c\ifx_i2c_data_link_layer.c ****             break;
 594:C:/Users/Yushev/git/optiga-trust-qi/optiga/comms/ifx_i2c\ifx_i2c_data_link_layer.c ****             case DL_STATE_DISCARD:
 595:C:/Users/Yushev/git/optiga-trust-qi/optiga/comms/ifx_i2c\ifx_i2c_data_link_layer.c ****             {
 596:C:/Users/Yushev/git/optiga-trust-qi/optiga/comms/ifx_i2c\ifx_i2c_data_link_layer.c ****                 LOG_DL("[IFX-DL]: Discard frame\n");
 597:C:/Users/Yushev/git/optiga-trust-qi/optiga/comms/ifx_i2c\ifx_i2c_data_link_layer.c ****                 p_ctx->dl.state = DL_STATE_RX;
 598:C:/Users/Yushev/git/optiga-trust-qi/optiga/comms/ifx_i2c\ifx_i2c_data_link_layer.c ****                 continue_state_machine = FALSE;
 599:C:/Users/Yushev/git/optiga-trust-qi/optiga/comms/ifx_i2c\ifx_i2c_data_link_layer.c ****                 //lint --e{534} suppress "Error handling is not required so return value is not che
 600:C:/Users/Yushev/git/optiga-trust-qi/optiga/comms/ifx_i2c\ifx_i2c_data_link_layer.c ****                 ifx_i2c_pl_receive_frame(p_ctx);
 601:C:/Users/Yushev/git/optiga-trust-qi/optiga/comms/ifx_i2c\ifx_i2c_data_link_layer.c ****             }
 602:C:/Users/Yushev/git/optiga-trust-qi/optiga/comms/ifx_i2c\ifx_i2c_data_link_layer.c ****             break;
 603:C:/Users/Yushev/git/optiga-trust-qi/optiga/comms/ifx_i2c\ifx_i2c_data_link_layer.c ****             case DL_STATE_ACK:
 604:C:/Users/Yushev/git/optiga-trust-qi/optiga/comms/ifx_i2c\ifx_i2c_data_link_layer.c ****             {
 605:C:/Users/Yushev/git/optiga-trust-qi/optiga/comms/ifx_i2c\ifx_i2c_data_link_layer.c ****                 LOG_DL("[IFX-DL]: ACK sent\n");
 606:C:/Users/Yushev/git/optiga-trust-qi/optiga/comms/ifx_i2c\ifx_i2c_data_link_layer.c ****                 if (IFX_I2C_STACK_ERROR == event)
 607:C:/Users/Yushev/git/optiga-trust-qi/optiga/comms/ifx_i2c\ifx_i2c_data_link_layer.c ****                 {
 608:C:/Users/Yushev/git/optiga-trust-qi/optiga/comms/ifx_i2c\ifx_i2c_data_link_layer.c ****                     // If writing the ACK frame failed, Re-Send
 609:C:/Users/Yushev/git/optiga-trust-qi/optiga/comms/ifx_i2c\ifx_i2c_data_link_layer.c ****                     LOG_DL("[IFX-DL]: Physical Layer error -> Resend ACK\n");
 610:C:/Users/Yushev/git/optiga-trust-qi/optiga/comms/ifx_i2c\ifx_i2c_data_link_layer.c ****                     p_ctx->dl.state = DL_STATE_RESEND;
 611:C:/Users/Yushev/git/optiga-trust-qi/optiga/comms/ifx_i2c\ifx_i2c_data_link_layer.c ****                     break;
 612:C:/Users/Yushev/git/optiga-trust-qi/optiga/comms/ifx_i2c\ifx_i2c_data_link_layer.c ****                 }
 613:C:/Users/Yushev/git/optiga-trust-qi/optiga/comms/ifx_i2c\ifx_i2c_data_link_layer.c ****                 // Control frame successful transmitted
 614:C:/Users/Yushev/git/optiga-trust-qi/optiga/comms/ifx_i2c\ifx_i2c_data_link_layer.c ****                 p_ctx->dl.state = DL_STATE_IDLE;
 615:C:/Users/Yushev/git/optiga-trust-qi/optiga/comms/ifx_i2c\ifx_i2c_data_link_layer.c ****                 continue_state_machine = FALSE;
 616:C:/Users/Yushev/git/optiga-trust-qi/optiga/comms/ifx_i2c\ifx_i2c_data_link_layer.c ****                 if (0 != p_ctx->dl.action_rx_only)
 617:C:/Users/Yushev/git/optiga-trust-qi/optiga/comms/ifx_i2c\ifx_i2c_data_link_layer.c ****                 {
 618:C:/Users/Yushev/git/optiga-trust-qi/optiga/comms/ifx_i2c\ifx_i2c_data_link_layer.c ****                     p_ctx->dl.upper_layer_event_handler(p_ctx,
 619:C:/Users/Yushev/git/optiga-trust-qi/optiga/comms/ifx_i2c\ifx_i2c_data_link_layer.c ****                                                         IFX_I2C_DL_EVENT_RX_SUCCESS,
 620:C:/Users/Yushev/git/optiga-trust-qi/optiga/comms/ifx_i2c\ifx_i2c_data_link_layer.c ****                                                         p_ctx->dl.p_rx_frame_buffer + 3,
 621:C:/Users/Yushev/git/optiga-trust-qi/optiga/comms/ifx_i2c\ifx_i2c_data_link_layer.c ****                                                         p_ctx->dl.rx_buffer_size - DL_HEADER_SIZE);
 622:C:/Users/Yushev/git/optiga-trust-qi/optiga/comms/ifx_i2c\ifx_i2c_data_link_layer.c ****                 }
 623:C:/Users/Yushev/git/optiga-trust-qi/optiga/comms/ifx_i2c\ifx_i2c_data_link_layer.c ****                 else
 624:C:/Users/Yushev/git/optiga-trust-qi/optiga/comms/ifx_i2c\ifx_i2c_data_link_layer.c ****                 {
 625:C:/Users/Yushev/git/optiga-trust-qi/optiga/comms/ifx_i2c\ifx_i2c_data_link_layer.c ****                     p_ctx->dl.upper_layer_event_handler(p_ctx,
 626:C:/Users/Yushev/git/optiga-trust-qi/optiga/comms/ifx_i2c\ifx_i2c_data_link_layer.c ****                                                         IFX_I2C_DL_EVENT_TX_SUCCESS | IFX_I2C_DL_EV
 627:C:/Users/Yushev/git/optiga-trust-qi/optiga/comms/ifx_i2c\ifx_i2c_data_link_layer.c ****                                                         p_ctx->dl.p_rx_frame_buffer + 3,
 628:C:/Users/Yushev/git/optiga-trust-qi/optiga/comms/ifx_i2c\ifx_i2c_data_link_layer.c ****                                                         p_ctx->dl.rx_buffer_size - DL_HEADER_SIZE);
 629:C:/Users/Yushev/git/optiga-trust-qi/optiga/comms/ifx_i2c\ifx_i2c_data_link_layer.c ****                 }
 630:C:/Users/Yushev/git/optiga-trust-qi/optiga/comms/ifx_i2c\ifx_i2c_data_link_layer.c ****             }
 631:C:/Users/Yushev/git/optiga-trust-qi/optiga/comms/ifx_i2c\ifx_i2c_data_link_layer.c ****             break;
 632:C:/Users/Yushev/git/optiga-trust-qi/optiga/comms/ifx_i2c\ifx_i2c_data_link_layer.c ****             case DL_STATE_NACK:
 633:C:/Users/Yushev/git/optiga-trust-qi/optiga/comms/ifx_i2c\ifx_i2c_data_link_layer.c ****             {
 634:C:/Users/Yushev/git/optiga-trust-qi/optiga/comms/ifx_i2c\ifx_i2c_data_link_layer.c ****                 // Sending NACK
 635:C:/Users/Yushev/git/optiga-trust-qi/optiga/comms/ifx_i2c\ifx_i2c_data_link_layer.c ****                 LOG_DL("[IFX-DL]: Sending NACK\n");
 636:C:/Users/Yushev/git/optiga-trust-qi/optiga/comms/ifx_i2c\ifx_i2c_data_link_layer.c ****                 p_ctx->dl.state = DL_STATE_TX;
 637:C:/Users/Yushev/git/optiga-trust-qi/optiga/comms/ifx_i2c\ifx_i2c_data_link_layer.c ****                 continue_state_machine = FALSE;
 638:C:/Users/Yushev/git/optiga-trust-qi/optiga/comms/ifx_i2c\ifx_i2c_data_link_layer.c ****                 //lint --e{534} suppress "Error handling is not required so return value is not che
 639:C:/Users/Yushev/git/optiga-trust-qi/optiga/comms/ifx_i2c\ifx_i2c_data_link_layer.c ****                 ifx_i2c_dl_send_frame_internal(p_ctx, 0, DL_FCTR_SEQCTR_VALUE_NACK, 0);
 640:C:/Users/Yushev/git/optiga-trust-qi/optiga/comms/ifx_i2c\ifx_i2c_data_link_layer.c ****             }
 641:C:/Users/Yushev/git/optiga-trust-qi/optiga/comms/ifx_i2c\ifx_i2c_data_link_layer.c ****             break;
 642:C:/Users/Yushev/git/optiga-trust-qi/optiga/comms/ifx_i2c\ifx_i2c_data_link_layer.c ****             case DL_STATE_RESEND:
 643:C:/Users/Yushev/git/optiga-trust-qi/optiga/comms/ifx_i2c\ifx_i2c_data_link_layer.c ****             {
 644:C:/Users/Yushev/git/optiga-trust-qi/optiga/comms/ifx_i2c\ifx_i2c_data_link_layer.c ****                 //Resend frame
 645:C:/Users/Yushev/git/optiga-trust-qi/optiga/comms/ifx_i2c\ifx_i2c_data_link_layer.c ****                 ifx_i2c_dl_resend_frame(p_ctx, DL_FCTR_SEQCTR_VALUE_ACK);
 646:C:/Users/Yushev/git/optiga-trust-qi/optiga/comms/ifx_i2c\ifx_i2c_data_link_layer.c ****                 if (DL_STATE_ERROR != p_ctx->dl.state)
 647:C:/Users/Yushev/git/optiga-trust-qi/optiga/comms/ifx_i2c\ifx_i2c_data_link_layer.c ****                 {
 648:C:/Users/Yushev/git/optiga-trust-qi/optiga/comms/ifx_i2c\ifx_i2c_data_link_layer.c ****                     continue_state_machine = FALSE;
 649:C:/Users/Yushev/git/optiga-trust-qi/optiga/comms/ifx_i2c\ifx_i2c_data_link_layer.c ****                 }
 650:C:/Users/Yushev/git/optiga-trust-qi/optiga/comms/ifx_i2c\ifx_i2c_data_link_layer.c ****             }
 651:C:/Users/Yushev/git/optiga-trust-qi/optiga/comms/ifx_i2c\ifx_i2c_data_link_layer.c ****             break;
 652:C:/Users/Yushev/git/optiga-trust-qi/optiga/comms/ifx_i2c\ifx_i2c_data_link_layer.c ****             case DL_STATE_ERROR:
 653:C:/Users/Yushev/git/optiga-trust-qi/optiga/comms/ifx_i2c\ifx_i2c_data_link_layer.c ****             {
 654:C:/Users/Yushev/git/optiga-trust-qi/optiga/comms/ifx_i2c\ifx_i2c_data_link_layer.c ****                 if (0 == p_ctx->dl.resynced)
 655:C:/Users/Yushev/git/optiga-trust-qi/optiga/comms/ifx_i2c\ifx_i2c_data_link_layer.c ****                 {
 656:C:/Users/Yushev/git/optiga-trust-qi/optiga/comms/ifx_i2c\ifx_i2c_data_link_layer.c ****                     p_ctx->dl.error = 1;
 657:C:/Users/Yushev/git/optiga-trust-qi/optiga/comms/ifx_i2c\ifx_i2c_data_link_layer.c ****                 }
 658:C:/Users/Yushev/git/optiga-trust-qi/optiga/comms/ifx_i2c\ifx_i2c_data_link_layer.c ****                 if (0 == p_ctx->dl.error)
 659:C:/Users/Yushev/git/optiga-trust-qi/optiga/comms/ifx_i2c\ifx_i2c_data_link_layer.c ****                 {
 660:C:/Users/Yushev/git/optiga-trust-qi/optiga/comms/ifx_i2c\ifx_i2c_data_link_layer.c ****                     LOG_DL("[IFX-DL]: Exit error after fatal error\n");
 661:C:/Users/Yushev/git/optiga-trust-qi/optiga/comms/ifx_i2c\ifx_i2c_data_link_layer.c ****                     //After sending resync, inform upper layer
 662:C:/Users/Yushev/git/optiga-trust-qi/optiga/comms/ifx_i2c\ifx_i2c_data_link_layer.c ****                     p_ctx->dl.state = DL_STATE_IDLE;
 663:C:/Users/Yushev/git/optiga-trust-qi/optiga/comms/ifx_i2c\ifx_i2c_data_link_layer.c ****                     p_ctx->dl.upper_layer_event_handler(p_ctx, IFX_I2C_DL_EVENT_ERROR, 0, 0);
 664:C:/Users/Yushev/git/optiga-trust-qi/optiga/comms/ifx_i2c\ifx_i2c_data_link_layer.c ****                 }
 665:C:/Users/Yushev/git/optiga-trust-qi/optiga/comms/ifx_i2c\ifx_i2c_data_link_layer.c ****                 else
 666:C:/Users/Yushev/git/optiga-trust-qi/optiga/comms/ifx_i2c\ifx_i2c_data_link_layer.c ****                 {
 667:C:/Users/Yushev/git/optiga-trust-qi/optiga/comms/ifx_i2c\ifx_i2c_data_link_layer.c ****                     LOG_DL("[IFX-DL]: Sending re-sync after fatal error\n");
 668:C:/Users/Yushev/git/optiga-trust-qi/optiga/comms/ifx_i2c\ifx_i2c_data_link_layer.c ****                     // Send re-sync to slave on error
 669:C:/Users/Yushev/git/optiga-trust-qi/optiga/comms/ifx_i2c\ifx_i2c_data_link_layer.c ****                     //lint --e{534} suppress "As this is last step, no effect of checking return co
 670:C:/Users/Yushev/git/optiga-trust-qi/optiga/comms/ifx_i2c\ifx_i2c_data_link_layer.c ****                     ifx_i2c_dl_resync(p_ctx);
 671:C:/Users/Yushev/git/optiga-trust-qi/optiga/comms/ifx_i2c\ifx_i2c_data_link_layer.c ****                     p_ctx->dl.state = DL_STATE_ERROR;
 672:C:/Users/Yushev/git/optiga-trust-qi/optiga/comms/ifx_i2c\ifx_i2c_data_link_layer.c ****                     p_ctx->dl.error = 0;
 673:C:/Users/Yushev/git/optiga-trust-qi/optiga/comms/ifx_i2c\ifx_i2c_data_link_layer.c ****                 }
 674:C:/Users/Yushev/git/optiga-trust-qi/optiga/comms/ifx_i2c\ifx_i2c_data_link_layer.c ****                 continue_state_machine = FALSE;
 675:C:/Users/Yushev/git/optiga-trust-qi/optiga/comms/ifx_i2c\ifx_i2c_data_link_layer.c ****             }
 676:C:/Users/Yushev/git/optiga-trust-qi/optiga/comms/ifx_i2c\ifx_i2c_data_link_layer.c ****             break;
 677:C:/Users/Yushev/git/optiga-trust-qi/optiga/comms/ifx_i2c\ifx_i2c_data_link_layer.c ****             default:
 678:C:/Users/Yushev/git/optiga-trust-qi/optiga/comms/ifx_i2c\ifx_i2c_data_link_layer.c ****                 LOG_DL("[IFX-DL]: Default condition occurred. Exiting with error\n");
 679:C:/Users/Yushev/git/optiga-trust-qi/optiga/comms/ifx_i2c\ifx_i2c_data_link_layer.c ****                 p_ctx->dl.state = DL_STATE_IDLE;
 680:C:/Users/Yushev/git/optiga-trust-qi/optiga/comms/ifx_i2c\ifx_i2c_data_link_layer.c ****                 p_ctx->dl.upper_layer_event_handler(p_ctx, IFX_I2C_DL_EVENT_ERROR, 0, 0);
 681:C:/Users/Yushev/git/optiga-trust-qi/optiga/comms/ifx_i2c\ifx_i2c_data_link_layer.c ****                 continue_state_machine = FALSE;
 682:C:/Users/Yushev/git/optiga-trust-qi/optiga/comms/ifx_i2c\ifx_i2c_data_link_layer.c ****                 break;
 683:C:/Users/Yushev/git/optiga-trust-qi/optiga/comms/ifx_i2c\ifx_i2c_data_link_layer.c ****         }
 684:C:/Users/Yushev/git/optiga-trust-qi/optiga/comms/ifx_i2c\ifx_i2c_data_link_layer.c ****     } while (TRUE == continue_state_machine);
 685:C:/Users/Yushev/git/optiga-trust-qi/optiga/comms/ifx_i2c\ifx_i2c_data_link_layer.c ****     LOG_DL("[IFX-DL]: #Exiting DL Handler\n");
 686:C:/Users/Yushev/git/optiga-trust-qi/optiga/comms/ifx_i2c\ifx_i2c_data_link_layer.c **** }
 468              	 .loc 1 686 0
 469 013c 05B0     	 add sp,sp,#20
 470              	.LCFI5:
 471              	 .cfi_remember_state
 472              	 .cfi_def_cfa_offset 36
 473              	 
 474 013e BDE8F04F 	 pop {r4,r5,r6,r7,r8,r9,r10,fp,lr}
 475              	.LCFI6:
 476              	 .cfi_restore 14
 477              	 .cfi_restore 11
 478              	 .cfi_restore 10
 479              	 .cfi_restore 9
 480              	 .cfi_restore 8
 481              	 .cfi_restore 7
 482              	 .cfi_restore 6
 483              	 .cfi_restore 5
 484              	 .cfi_restore 4
 485              	 .cfi_def_cfa_offset 0
 486              	.LVL53:
 533:C:/Users/Yushev/git/optiga-trust-qi/optiga/comms/ifx_i2c\ifx_i2c_data_link_layer.c ****             }
 487              	 .loc 1 533 0
 488 0142 FFF7FEBF 	 b ifx_i2c_dl_send_frame_internal
 489              	.LVL54:
 490              	.L33:
 491              	.LCFI7:
 492              	 .cfi_restore_state
 542:C:/Users/Yushev/git/optiga-trust-qi/optiga/comms/ifx_i2c\ifx_i2c_data_link_layer.c ****                 {
 493              	 .loc 1 542 0
 494 0146 B31E     	 subs r3,r6,#2
 495 0148 5A42     	 rsbs r2,r3,#0
 496 014a 5A41     	 adcs r2,r2,r3
 497 014c 94F86330 	 ldrb r3,[r4,#99]
 498 0150 9342     	 cmp r3,r2
 499 0152 01D0     	 beq .L47
 546:C:/Users/Yushev/git/optiga-trust-qi/optiga/comms/ifx_i2c\ifx_i2c_data_link_layer.c ****                     break;
 500              	 .loc 1 546 0
 501 0154 0923     	 movs r3,#9
 502 0156 02E0     	 b .L80
 503              	.L47:
 549:C:/Users/Yushev/git/optiga-trust-qi/optiga/comms/ifx_i2c\ifx_i2c_data_link_layer.c ****                 {
 504              	 .loc 1 549 0
 505 0158 A845     	 cmp r8,r5
 506 015a 03D0     	 beq .L48
 553:C:/Users/Yushev/git/optiga-trust-qi/optiga/comms/ifx_i2c\ifx_i2c_data_link_layer.c ****                     break;
 507              	 .loc 1 553 0
 508 015c 0523     	 movs r3,#5
 509              	.L80:
 510 015e 84F86030 	 strb r3,[r4,#96]
 554:C:/Users/Yushev/git/optiga-trust-qi/optiga/comms/ifx_i2c\ifx_i2c_data_link_layer.c ****                 }
 511              	 .loc 1 554 0
 512 0162 5AE7     	 b .L64
 513              	.L48:
 556:C:/Users/Yushev/git/optiga-trust-qi/optiga/comms/ifx_i2c\ifx_i2c_data_link_layer.c ****                 {
 514              	 .loc 1 556 0
 515 0164 052F     	 cmp r7,#5
 516 0166 1AD8     	 bhi .L52
 556:C:/Users/Yushev/git/optiga-trust-qi/optiga/comms/ifx_i2c\ifx_i2c_data_link_layer.c ****                 {
 517              	 .loc 1 556 0 is_stmt 0 discriminator 1
 518 0168 019A     	 ldr r2,[sp,#4]
 519 016a C2B9     	 cbnz r2,.L52
 563:C:/Users/Yushev/git/optiga-trust-qi/optiga/comms/ifx_i2c\ifx_i2c_data_link_layer.c ****                 {    // Re-sync received
 520              	 .loc 1 563 0 is_stmt 1
 521 016c 6BB1     	 cbz r3,.L51
 566:C:/Users/Yushev/git/optiga-trust-qi/optiga/comms/ifx_i2c\ifx_i2c_data_link_layer.c ****                     p_ctx->dl.resynced = 1;
 522              	 .loc 1 566 0
 523 016e 0923     	 movs r3,#9
 524 0170 84F86030 	 strb r3,[r4,#96]
 567:C:/Users/Yushev/git/optiga-trust-qi/optiga/comms/ifx_i2c\ifx_i2c_data_link_layer.c ****                     p_ctx->dl.tx_seq_nr = DL_MAX_FRAME_NUM;
 525              	 .loc 1 567 0
 526 0174 0123     	 movs r3,#1
 527 0176 84F86630 	 strb r3,[r4,#102]
 568:C:/Users/Yushev/git/optiga-trust-qi/optiga/comms/ifx_i2c\ifx_i2c_data_link_layer.c ****                     p_ctx->dl.rx_seq_nr = DL_MAX_FRAME_NUM;
 528              	 .loc 1 568 0
 529 017a 0323     	 movs r3,#3
 530 017c 84F86130 	 strb r3,[r4,#97]
 569:C:/Users/Yushev/git/optiga-trust-qi/optiga/comms/ifx_i2c\ifx_i2c_data_link_layer.c ****                     break;
 531              	 .loc 1 569 0
 532 0180 84F86230 	 strb r3,[r4,#98]
 570:C:/Users/Yushev/git/optiga-trust-qi/optiga/comms/ifx_i2c\ifx_i2c_data_link_layer.c ****                 }
 533              	 .loc 1 570 0
 534 0184 4546     	 mov r5,r8
 535              	.LVL55:
 536 0186 0226     	 movs r6,#2
 537              	.LVL56:
 538 0188 47E7     	 b .L64
 539              	.LVL57:
 540              	.L51:
 572:C:/Users/Yushev/git/optiga-trust-qi/optiga/comms/ifx_i2c\ifx_i2c_data_link_layer.c ****                 {
 541              	 .loc 1 572 0
 542 018a BAF1000F 	 cmp r10,#0
 543 018e 06D1     	 bne .L52
 572:C:/Users/Yushev/git/optiga-trust-qi/optiga/comms/ifx_i2c\ifx_i2c_data_link_layer.c ****                 {
 544              	 .loc 1 572 0 is_stmt 0 discriminator 1
 545 0190 032E     	 cmp r6,#3
 546 0192 04D0     	 beq .L52
 572:C:/Users/Yushev/git/optiga-trust-qi/optiga/comms/ifx_i2c\ifx_i2c_data_link_layer.c ****                 {
 547              	 .loc 1 572 0 discriminator 2
 548 0194 94F86130 	 ldrb r3,[r4,#97]
 549 0198 029A     	 ldr r2,[sp,#8]
 550 019a 9342     	 cmp r3,r2
 551 019c 01D0     	 beq .L53
 552              	.L52:
 576:C:/Users/Yushev/git/optiga-trust-qi/optiga/comms/ifx_i2c\ifx_i2c_data_link_layer.c ****                     break;
 553              	 .loc 1 576 0 is_stmt 1
 554 019e 0923     	 movs r3,#9
 555 01a0 02E0     	 b .L79
 556              	.L53:
 579:C:/Users/Yushev/git/optiga-trust-qi/optiga/comms/ifx_i2c\ifx_i2c_data_link_layer.c ****                 {
 557              	 .loc 1 579 0
 558 01a2 012E     	 cmp r6,#1
 559 01a4 04D1     	 bne .L54
 560              	.L81:
 583:C:/Users/Yushev/git/optiga-trust-qi/optiga/comms/ifx_i2c\ifx_i2c_data_link_layer.c ****                     break;
 561              	 .loc 1 583 0
 562 01a6 0523     	 movs r3,#5
 563              	.L79:
 564 01a8 84F86030 	 strb r3,[r4,#96]
 584:C:/Users/Yushev/git/optiga-trust-qi/optiga/comms/ifx_i2c\ifx_i2c_data_link_layer.c ****                 }
 565              	 .loc 1 584 0
 566 01ac 4546     	 mov r5,r8
 567              	.LVL58:
 568 01ae 34E7     	 b .L64
 569              	.LVL59:
 570              	.L54:
 589:C:/Users/Yushev/git/optiga-trust-qi/optiga/comms/ifx_i2c\ifx_i2c_data_link_layer.c ****                 continue_state_machine = FALSE;
 571              	 .loc 1 589 0
 572 01b0 0123     	 movs r3,#1
 573 01b2 84F86030 	 strb r3,[r4,#96]
 574              	.LVL60:
 591:C:/Users/Yushev/git/optiga-trust-qi/optiga/comms/ifx_i2c\ifx_i2c_data_link_layer.c ****             }
 575              	 .loc 1 591 0
 576 01b6 E56F     	 ldr r5,[r4,#124]
 577              	.LVL61:
 578 01b8 2046     	 mov r0,r4
 579 01ba 0221     	 movs r1,#2
 580 01bc 5246     	 mov r2,r10
 581 01be 87E0     	 b .L87
 582              	.LVL62:
 583              	.L31:
 597:C:/Users/Yushev/git/optiga-trust-qi/optiga/comms/ifx_i2c\ifx_i2c_data_link_layer.c ****                 continue_state_machine = FALSE;
 584              	 .loc 1 597 0
 585 01c0 0323     	 movs r3,#3
 600:C:/Users/Yushev/git/optiga-trust-qi/optiga/comms/ifx_i2c\ifx_i2c_data_link_layer.c ****             }
 586              	 .loc 1 600 0
 587 01c2 2046     	 mov r0,r4
 597:C:/Users/Yushev/git/optiga-trust-qi/optiga/comms/ifx_i2c\ifx_i2c_data_link_layer.c ****                 continue_state_machine = FALSE;
 588              	 .loc 1 597 0
 589 01c4 84F86030 	 strb r3,[r4,#96]
 590              	.LVL63:
 591              	 .loc 1 686 0
 592 01c8 05B0     	 add sp,sp,#20
 593              	.LCFI8:
 594              	 .cfi_remember_state
 595              	 .cfi_def_cfa_offset 36
 596              	 
 597 01ca BDE8F04F 	 pop {r4,r5,r6,r7,r8,r9,r10,fp,lr}
 598              	.LCFI9:
 599              	 .cfi_restore 14
 600              	 .cfi_restore 11
 601              	 .cfi_restore 10
 602              	 .cfi_restore 9
 603              	 .cfi_restore 8
 604              	 .cfi_restore 7
 605              	 .cfi_restore 6
 606              	 .cfi_restore 5
 607              	 .cfi_restore 4
 608              	 .cfi_def_cfa_offset 0
 609              	.LVL64:
 600:C:/Users/Yushev/git/optiga-trust-qi/optiga/comms/ifx_i2c\ifx_i2c_data_link_layer.c ****             }
 610              	 .loc 1 600 0
 611 01ce FFF7FEBF 	 b ifx_i2c_pl_receive_frame
 612              	.LVL65:
 613              	.L27:
 614              	.LCFI10:
 615              	 .cfi_restore_state
 606:C:/Users/Yushev/git/optiga-trust-qi/optiga/comms/ifx_i2c\ifx_i2c_data_link_layer.c ****                 {
 616              	 .loc 1 606 0
 617 01d2 BBF5817F 	 cmp fp,#258
 618 01d6 01D1     	 bne .L55
 619              	.L90:
 610:C:/Users/Yushev/git/optiga-trust-qi/optiga/comms/ifx_i2c\ifx_i2c_data_link_layer.c ****                     break;
 620              	 .loc 1 610 0
 621 01d8 0523     	 movs r3,#5
 622 01da 26E7     	 b .L82
 623              	.L55:
 614:C:/Users/Yushev/git/optiga-trust-qi/optiga/comms/ifx_i2c\ifx_i2c_data_link_layer.c ****                 continue_state_machine = FALSE;
 624              	 .loc 1 614 0
 625 01dc 0123     	 movs r3,#1
 626 01de 84F86030 	 strb r3,[r4,#96]
 627              	.LVL66:
 616:C:/Users/Yushev/git/optiga-trust-qi/optiga/comms/ifx_i2c\ifx_i2c_data_link_layer.c ****                 {
 628              	 .loc 1 616 0
 629 01e2 94F86310 	 ldrb r1,[r4,#99]
 630 01e6 B4F86E30 	 ldrh r3,[r4,#110]
 631 01ea D4F87CC0 	 ldr ip,[r4,#124]
 632 01ee 626F     	 ldr r2,[r4,#116]
 618:C:/Users/Yushev/git/optiga-trust-qi/optiga/comms/ifx_i2c\ifx_i2c_data_link_layer.c ****                                                         IFX_I2C_DL_EVENT_RX_SUCCESS,
 633              	 .loc 1 618 0
 634 01f0 053B     	 subs r3,r3,#5
 635 01f2 2046     	 mov r0,r4
 616:C:/Users/Yushev/git/optiga-trust-qi/optiga/comms/ifx_i2c\ifx_i2c_data_link_layer.c ****                 {
 636              	 .loc 1 616 0
 637 01f4 09B1     	 cbz r1,.L56
 638              	.LVL67:
 618:C:/Users/Yushev/git/optiga-trust-qi/optiga/comms/ifx_i2c\ifx_i2c_data_link_layer.c ****                                                         IFX_I2C_DL_EVENT_RX_SUCCESS,
 639              	 .loc 1 618 0
 640 01f6 0421     	 movs r1,#4
 641 01f8 00E0     	 b .L91
 642              	.L56:
 625:C:/Users/Yushev/git/optiga-trust-qi/optiga/comms/ifx_i2c\ifx_i2c_data_link_layer.c ****                                                         IFX_I2C_DL_EVENT_TX_SUCCESS | IFX_I2C_DL_EV
 643              	 .loc 1 625 0
 644 01fa 0621     	 movs r1,#6
 645              	.L91:
 646 01fc 0332     	 adds r2,r2,#3
 647 01fe 9BB2     	 uxth r3,r3
 648 0200 68E0     	 b .L89
 649              	.LVL68:
 650              	.L29:
 636:C:/Users/Yushev/git/optiga-trust-qi/optiga/comms/ifx_i2c\ifx_i2c_data_link_layer.c ****                 continue_state_machine = FALSE;
 651              	 .loc 1 636 0
 652 0202 0223     	 movs r3,#2
 653 0204 84F86030 	 strb r3,[r4,#96]
 654              	.LVL69:
 639:C:/Users/Yushev/git/optiga-trust-qi/optiga/comms/ifx_i2c\ifx_i2c_data_link_layer.c ****             }
 655              	 .loc 1 639 0
 656 0208 2046     	 mov r0,r4
 657 020a 0021     	 movs r1,#0
 658 020c 0122     	 movs r2,#1
 659 020e 94E7     	 b .L88
 660              	.LVL70:
 661              	.L28:
 662              	.LBB12:
 663              	.LBB13:
 365:C:/Users/Yushev/git/optiga-trust-qi/optiga/comms/ifx_i2c\ifx_i2c_data_link_layer.c ****     uint32_t time_stamp_diff = current_time_stamp - p_ctx->tl.api_start_time;
 664              	 .loc 1 365 0
 665 0210 FFF7FEFF 	 bl pal_os_timer_get_time_in_milliseconds
 666              	.LVL71:
 366:C:/Users/Yushev/git/optiga-trust-qi/optiga/comms/ifx_i2c\ifx_i2c_data_link_layer.c **** 
 667              	 .loc 1 366 0
 668 0214 E36C     	 ldr r3,[r4,#76]
 669 0216 C01A     	 subs r0,r0,r3
 670              	.LVL72:
 372:C:/Users/Yushev/git/optiga-trust-qi/optiga/comms/ifx_i2c\ifx_i2c_data_link_layer.c ****     {
 671              	 .loc 1 372 0
 672 0218 324B     	 ldr r3,.L92
 673 021a 9842     	 cmp r0,r3
 674 021c 24D8     	 bhi .L57
 374:C:/Users/Yushev/git/optiga-trust-qi/optiga/comms/ifx_i2c\ifx_i2c_data_link_layer.c ****         {
 675              	 .loc 1 374 0
 676 021e 94F86430 	 ldrb r3,[r4,#100]
 677 0222 032B     	 cmp r3,#3
 678 0224 10D1     	 bne .L58
 679              	.LBB14:
 680              	.LBB15:
 352:C:/Users/Yushev/git/optiga-trust-qi/optiga/comms/ifx_i2c\ifx_i2c_data_link_layer.c ****     p_ctx->dl.rx_seq_nr = DL_MAX_FRAME_NUM;
 681              	 .loc 1 352 0
 682 0226 84F86130 	 strb r3,[r4,#97]
 353:C:/Users/Yushev/git/optiga-trust-qi/optiga/comms/ifx_i2c\ifx_i2c_data_link_layer.c ****     p_ctx->dl.resynced = 1;
 683              	 .loc 1 353 0
 684 022a 84F86230 	 strb r3,[r4,#98]
 354:C:/Users/Yushev/git/optiga-trust-qi/optiga/comms/ifx_i2c\ifx_i2c_data_link_layer.c ****     LOG_DL("[IFX-DL]: Send Re-Sync Frame\n");
 685              	 .loc 1 354 0
 686 022e 0123     	 movs r3,#1
 687              	.LBE15:
 688              	.LBE14:
 377:C:/Users/Yushev/git/optiga-trust-qi/optiga/comms/ifx_i2c\ifx_i2c_data_link_layer.c ****             status = ifx_i2c_dl_resync(p_ctx);
 689              	 .loc 1 377 0
 690 0230 0021     	 movs r1,#0
 691              	.LBB18:
 692              	.LBB16:
 354:C:/Users/Yushev/git/optiga-trust-qi/optiga/comms/ifx_i2c\ifx_i2c_data_link_layer.c ****     LOG_DL("[IFX-DL]: Send Re-Sync Frame\n");
 693              	 .loc 1 354 0
 694 0232 84F86630 	 strb r3,[r4,#102]
 356:C:/Users/Yushev/git/optiga-trust-qi/optiga/comms/ifx_i2c\ifx_i2c_data_link_layer.c ****     api_status = ifx_i2c_dl_send_frame_internal(p_ctx, 0, DL_FCTR_SEQCTR_VALUE_RESYNC, 0);
 695              	 .loc 1 356 0
 696 0236 0523     	 movs r3,#5
 697 0238 84F86030 	 strb r3,[r4,#96]
 698              	.LBE16:
 699              	.LBE18:
 377:C:/Users/Yushev/git/optiga-trust-qi/optiga/comms/ifx_i2c\ifx_i2c_data_link_layer.c ****             status = ifx_i2c_dl_resync(p_ctx);
 700              	 .loc 1 377 0
 701 023c 84F86410 	 strb r1,[r4,#100]
 702              	.LVL73:
 703              	.LBB19:
 704              	.LBB17:
 357:C:/Users/Yushev/git/optiga-trust-qi/optiga/comms/ifx_i2c\ifx_i2c_data_link_layer.c ****     return (api_status);
 705              	 .loc 1 357 0
 706 0240 2046     	 mov r0,r4
 707              	.LVL74:
 708 0242 0222     	 movs r2,#2
 709 0244 0B46     	 mov r3,r1
 710 0246 0AE0     	 b .L83
 711              	.LVL75:
 712              	.L58:
 713              	.LBE17:
 714              	.LBE19:
 383:C:/Users/Yushev/git/optiga-trust-qi/optiga/comms/ifx_i2c\ifx_i2c_data_link_layer.c ****             p_ctx->dl.state = DL_STATE_TX;
 715              	 .loc 1 383 0
 716 0248 0133     	 adds r3,r3,#1
 717 024a 84F86430 	 strb r3,[r4,#100]
 385:C:/Users/Yushev/git/optiga-trust-qi/optiga/comms/ifx_i2c\ifx_i2c_data_link_layer.c ****         }
 718              	 .loc 1 385 0
 719 024e B4F86C10 	 ldrh r1,[r4,#108]
 384:C:/Users/Yushev/git/optiga-trust-qi/optiga/comms/ifx_i2c\ifx_i2c_data_link_layer.c ****             status = ifx_i2c_dl_send_frame_internal(p_ctx, p_ctx->dl.tx_buffer_size, seqctr_value, 
 720              	 .loc 1 384 0
 721 0252 0223     	 movs r3,#2
 722 0254 84F86030 	 strb r3,[r4,#96]
 385:C:/Users/Yushev/git/optiga-trust-qi/optiga/comms/ifx_i2c\ifx_i2c_data_link_layer.c ****         }
 723              	 .loc 1 385 0
 724 0258 2046     	 mov r0,r4
 725              	.LVL76:
 726 025a 0022     	 movs r2,#0
 727 025c 0123     	 movs r3,#1
 728              	.LVL77:
 729              	.L83:
 730 025e FFF7FEFF 	 bl ifx_i2c_dl_send_frame_internal
 731              	.LVL78:
 388:C:/Users/Yushev/git/optiga-trust-qi/optiga/comms/ifx_i2c\ifx_i2c_data_link_layer.c ****         {
 732              	 .loc 1 388 0
 733 0262 20B1     	 cbz r0,.L60
 390:C:/Users/Yushev/git/optiga-trust-qi/optiga/comms/ifx_i2c\ifx_i2c_data_link_layer.c ****         }
 734              	 .loc 1 390 0
 735 0264 0623     	 movs r3,#6
 736 0266 00E0     	 b .L84
 737              	.LVL79:
 738              	.L57:
 395:C:/Users/Yushev/git/optiga-trust-qi/optiga/comms/ifx_i2c\ifx_i2c_data_link_layer.c ****     }
 739              	 .loc 1 395 0
 740 0268 0823     	 movs r3,#8
 741              	.LVL80:
 742              	.L84:
 743 026a 84F86030 	 strb r3,[r4,#96]
 744              	.L60:
 745              	.LBE13:
 746              	.LBE12:
 646:C:/Users/Yushev/git/optiga-trust-qi/optiga/comms/ifx_i2c\ifx_i2c_data_link_layer.c ****                 {
 747              	 .loc 1 646 0
 748 026e 94F86030 	 ldrb r3,[r4,#96]
 749 0272 082B     	 cmp r3,#8
 750 0274 32D1     	 bne .L20
 751 0276 D0E6     	 b .L64
 752              	.LVL81:
 753              	.L30:
 654:C:/Users/Yushev/git/optiga-trust-qi/optiga/comms/ifx_i2c\ifx_i2c_data_link_layer.c ****                 {
 754              	 .loc 1 654 0
 755 0278 94F86630 	 ldrb r3,[r4,#102]
 756 027c 13B9     	 cbnz r3,.L62
 656:C:/Users/Yushev/git/optiga-trust-qi/optiga/comms/ifx_i2c\ifx_i2c_data_link_layer.c ****                 }
 757              	 .loc 1 656 0
 758 027e 0123     	 movs r3,#1
 759 0280 84F86530 	 strb r3,[r4,#101]
 760              	.L62:
 658:C:/Users/Yushev/git/optiga-trust-qi/optiga/comms/ifx_i2c\ifx_i2c_data_link_layer.c ****                 {
 761              	 .loc 1 658 0
 762 0284 94F86520 	 ldrb r2,[r4,#101]
 763 0288 0121     	 movs r1,#1
 764 028a 22B9     	 cbnz r2,.L63
 662:C:/Users/Yushev/git/optiga-trust-qi/optiga/comms/ifx_i2c\ifx_i2c_data_link_layer.c ****                     p_ctx->dl.upper_layer_event_handler(p_ctx, IFX_I2C_DL_EVENT_ERROR, 0, 0);
 765              	 .loc 1 662 0
 766 028c 84F86010 	 strb r1,[r4,#96]
 663:C:/Users/Yushev/git/optiga-trust-qi/optiga/comms/ifx_i2c\ifx_i2c_data_link_layer.c ****                 }
 767              	 .loc 1 663 0
 768 0290 E56F     	 ldr r5,[r4,#124]
 769              	.LVL82:
 770 0292 2046     	 mov r0,r4
 771 0294 1CE0     	 b .L87
 772              	.LVL83:
 773              	.L63:
 774              	.LBB20:
 775              	.LBB21:
 352:C:/Users/Yushev/git/optiga-trust-qi/optiga/comms/ifx_i2c\ifx_i2c_data_link_layer.c ****     p_ctx->dl.rx_seq_nr = DL_MAX_FRAME_NUM;
 776              	 .loc 1 352 0
 777 0296 0323     	 movs r3,#3
 778 0298 84F86130 	 strb r3,[r4,#97]
 353:C:/Users/Yushev/git/optiga-trust-qi/optiga/comms/ifx_i2c\ifx_i2c_data_link_layer.c ****     p_ctx->dl.resynced = 1;
 779              	 .loc 1 353 0
 780 029c 84F86230 	 strb r3,[r4,#98]
 354:C:/Users/Yushev/git/optiga-trust-qi/optiga/comms/ifx_i2c\ifx_i2c_data_link_layer.c ****     LOG_DL("[IFX-DL]: Send Re-Sync Frame\n");
 781              	 .loc 1 354 0
 782 02a0 84F86610 	 strb r1,[r4,#102]
 356:C:/Users/Yushev/git/optiga-trust-qi/optiga/comms/ifx_i2c\ifx_i2c_data_link_layer.c ****     api_status = ifx_i2c_dl_send_frame_internal(p_ctx, 0, DL_FCTR_SEQCTR_VALUE_RESYNC, 0);
 783              	 .loc 1 356 0
 784 02a4 0523     	 movs r3,#5
 357:C:/Users/Yushev/git/optiga-trust-qi/optiga/comms/ifx_i2c\ifx_i2c_data_link_layer.c ****     return (api_status);
 785              	 .loc 1 357 0
 786 02a6 0021     	 movs r1,#0
 356:C:/Users/Yushev/git/optiga-trust-qi/optiga/comms/ifx_i2c\ifx_i2c_data_link_layer.c ****     api_status = ifx_i2c_dl_send_frame_internal(p_ctx, 0, DL_FCTR_SEQCTR_VALUE_RESYNC, 0);
 787              	 .loc 1 356 0
 788 02a8 84F86030 	 strb r3,[r4,#96]
 357:C:/Users/Yushev/git/optiga-trust-qi/optiga/comms/ifx_i2c\ifx_i2c_data_link_layer.c ****     return (api_status);
 789              	 .loc 1 357 0
 790 02ac 2046     	 mov r0,r4
 791 02ae 0B46     	 mov r3,r1
 792 02b0 0222     	 movs r2,#2
 793 02b2 FFF7FEFF 	 bl ifx_i2c_dl_send_frame_internal
 794              	.LVL84:
 795              	.LBE21:
 796              	.LBE20:
 671:C:/Users/Yushev/git/optiga-trust-qi/optiga/comms/ifx_i2c\ifx_i2c_data_link_layer.c ****                     p_ctx->dl.error = 0;
 797              	 .loc 1 671 0
 798 02b6 0823     	 movs r3,#8
 799 02b8 84F86030 	 strb r3,[r4,#96]
 672:C:/Users/Yushev/git/optiga-trust-qi/optiga/comms/ifx_i2c\ifx_i2c_data_link_layer.c ****                 }
 800              	 .loc 1 672 0
 801 02bc 0023     	 movs r3,#0
 802 02be 84F86530 	 strb r3,[r4,#101]
 803 02c2 0BE0     	 b .L20
 804              	.LVL85:
 805              	.L22:
 679:C:/Users/Yushev/git/optiga-trust-qi/optiga/comms/ifx_i2c\ifx_i2c_data_link_layer.c ****                 p_ctx->dl.upper_layer_event_handler(p_ctx, IFX_I2C_DL_EVENT_ERROR, 0, 0);
 806              	 .loc 1 679 0
 807 02c4 0121     	 movs r1,#1
 680:C:/Users/Yushev/git/optiga-trust-qi/optiga/comms/ifx_i2c\ifx_i2c_data_link_layer.c ****                 continue_state_machine = FALSE;
 808              	 .loc 1 680 0
 809 02c6 E56F     	 ldr r5,[r4,#124]
 810              	.LVL86:
 679:C:/Users/Yushev/git/optiga-trust-qi/optiga/comms/ifx_i2c\ifx_i2c_data_link_layer.c ****                 p_ctx->dl.upper_layer_event_handler(p_ctx, IFX_I2C_DL_EVENT_ERROR, 0, 0);
 811              	 .loc 1 679 0
 812 02c8 84F86010 	 strb r1,[r4,#96]
 680:C:/Users/Yushev/git/optiga-trust-qi/optiga/comms/ifx_i2c\ifx_i2c_data_link_layer.c ****                 continue_state_machine = FALSE;
 813              	 .loc 1 680 0
 814 02cc 2046     	 mov r0,r4
 815              	.LVL87:
 816              	.L85:
 817 02ce 0022     	 movs r2,#0
 818              	.L87:
 819 02d0 1346     	 mov r3,r2
 820 02d2 AC46     	 mov ip,r5
 821              	.L89:
 822              	 .loc 1 686 0
 823 02d4 05B0     	 add sp,sp,#20
 824              	.LCFI11:
 825              	 .cfi_remember_state
 826              	 .cfi_def_cfa_offset 36
 827              	 
 828 02d6 BDE8F04F 	 pop {r4,r5,r6,r7,r8,r9,r10,fp,lr}
 829              	.LCFI12:
 830              	 .cfi_restore 14
 831              	 .cfi_restore 11
 832              	 .cfi_restore 10
 833              	 .cfi_restore 9
 834              	 .cfi_restore 8
 835              	 .cfi_restore 7
 836              	 .cfi_restore 6
 837              	 .cfi_restore 5
 838              	 .cfi_restore 4
 839              	 .cfi_def_cfa_offset 0
 840              	.LVL88:
 680:C:/Users/Yushev/git/optiga-trust-qi/optiga/comms/ifx_i2c\ifx_i2c_data_link_layer.c ****                 continue_state_machine = FALSE;
 841              	 .loc 1 680 0
 842 02da 6047     	 bx ip
 843              	.LVL89:
 844              	.L20:
 845              	.LCFI13:
 846              	 .cfi_restore_state
 847              	 .loc 1 686 0
 848 02dc 05B0     	 add sp,sp,#20
 849              	.LCFI14:
 850              	 .cfi_def_cfa_offset 36
 851              	 
 852 02de BDE8F08F 	 pop {r4,r5,r6,r7,r8,r9,r10,fp,pc}
 853              	.LVL90:
 854              	.L93:
 855 02e2 00BF     	 .align 2
 856              	.L92:
 857 02e4 1FBF0200 	 .word 179999
 858              	 .cfi_endproc
 859              	.LFE8:
 861              	 .section .text.ifx_i2c_dl_init,"ax",%progbits
 862              	 .align 1
 863              	 .global ifx_i2c_dl_init
 864              	 .thumb
 865              	 .thumb_func
 867              	ifx_i2c_dl_init:
 868              	.LFB0:
 196:C:/Users/Yushev/git/optiga-trust-qi/optiga/comms/ifx_i2c\ifx_i2c_data_link_layer.c ****     LOG_DL("[IFX-DL]: Init\n");
 869              	 .loc 1 196 0
 870              	 .cfi_startproc
 871              	 
 872              	 
 873              	.LVL91:
 874 0000 38B5     	 push {r3,r4,r5,lr}
 875              	.LCFI15:
 876              	 .cfi_def_cfa_offset 16
 877              	 .cfi_offset 3,-16
 878              	 .cfi_offset 4,-12
 879              	 .cfi_offset 5,-8
 880              	 .cfi_offset 14,-4
 199:C:/Users/Yushev/git/optiga-trust-qi/optiga/comms/ifx_i2c\ifx_i2c_data_link_layer.c ****     // Initialize Physical Layer (and register event handler)
 881              	 .loc 1 199 0
 882 0002 0023     	 movs r3,#0
 196:C:/Users/Yushev/git/optiga-trust-qi/optiga/comms/ifx_i2c\ifx_i2c_data_link_layer.c ****     LOG_DL("[IFX-DL]: Init\n");
 883              	 .loc 1 196 0
 884 0004 0D46     	 mov r5,r1
 199:C:/Users/Yushev/git/optiga-trust-qi/optiga/comms/ifx_i2c\ifx_i2c_data_link_layer.c ****     // Initialize Physical Layer (and register event handler)
 885              	 .loc 1 199 0
 886 0006 80F86030 	 strb r3,[r0,#96]
 201:C:/Users/Yushev/git/optiga-trust-qi/optiga/comms/ifx_i2c\ifx_i2c_data_link_layer.c ****     {
 887              	 .loc 1 201 0
 888 000a 0E49     	 ldr r1,.L97
 889              	.LVL92:
 196:C:/Users/Yushev/git/optiga-trust-qi/optiga/comms/ifx_i2c\ifx_i2c_data_link_layer.c ****     LOG_DL("[IFX-DL]: Init\n");
 890              	 .loc 1 196 0
 891 000c 0446     	 mov r4,r0
 201:C:/Users/Yushev/git/optiga-trust-qi/optiga/comms/ifx_i2c\ifx_i2c_data_link_layer.c ****     {
 892              	 .loc 1 201 0
 893 000e FFF7FEFF 	 bl ifx_i2c_pl_init
 894              	.LVL93:
 895 0012 98B9     	 cbnz r0,.L96
 208:C:/Users/Yushev/git/optiga-trust-qi/optiga/comms/ifx_i2c\ifx_i2c_data_link_layer.c ****     p_ctx->dl.tx_seq_nr = DL_MAX_FRAME_NUM;
 896              	 .loc 1 208 0
 897 0014 0123     	 movs r3,#1
 898 0016 84F86030 	 strb r3,[r4,#96]
 209:C:/Users/Yushev/git/optiga-trust-qi/optiga/comms/ifx_i2c\ifx_i2c_data_link_layer.c ****     p_ctx->dl.rx_seq_nr = DL_MAX_FRAME_NUM;
 899              	 .loc 1 209 0
 900 001a 0323     	 movs r3,#3
 901 001c 84F86130 	 strb r3,[r4,#97]
 210:C:/Users/Yushev/git/optiga-trust-qi/optiga/comms/ifx_i2c\ifx_i2c_data_link_layer.c ****     p_ctx->dl.resynced = 0;
 902              	 .loc 1 210 0
 903 0020 84F86230 	 strb r3,[r4,#98]
 213:C:/Users/Yushev/git/optiga-trust-qi/optiga/comms/ifx_i2c\ifx_i2c_data_link_layer.c ****     p_ctx->dl.p_rx_frame_buffer = p_ctx->rx_frame_buffer;
 904              	 .loc 1 213 0
 905 0024 04F52973 	 add r3,r4,#676
 906 0028 2367     	 str r3,[r4,#112]
 211:C:/Users/Yushev/git/optiga-trust-qi/optiga/comms/ifx_i2c\ifx_i2c_data_link_layer.c ****     p_ctx->dl.error = 0;
 907              	 .loc 1 211 0
 908 002a 84F86600 	 strb r0,[r4,#102]
 214:C:/Users/Yushev/git/optiga-trust-qi/optiga/comms/ifx_i2c\ifx_i2c_data_link_layer.c **** 
 909              	 .loc 1 214 0
 910 002e 04F2BA33 	 addw r3,r4,#954
 212:C:/Users/Yushev/git/optiga-trust-qi/optiga/comms/ifx_i2c\ifx_i2c_data_link_layer.c ****     p_ctx->dl.p_tx_frame_buffer = p_ctx->tx_frame_buffer;
 911              	 .loc 1 212 0
 912 0032 84F86500 	 strb r0,[r4,#101]
 207:C:/Users/Yushev/git/optiga-trust-qi/optiga/comms/ifx_i2c\ifx_i2c_data_link_layer.c ****     p_ctx->dl.state = DL_STATE_IDLE;
 913              	 .loc 1 207 0
 914 0036 E567     	 str r5,[r4,#124]
 214:C:/Users/Yushev/git/optiga-trust-qi/optiga/comms/ifx_i2c\ifx_i2c_data_link_layer.c **** 
 915              	 .loc 1 214 0
 916 0038 6367     	 str r3,[r4,#116]
 216:C:/Users/Yushev/git/optiga-trust-qi/optiga/comms/ifx_i2c\ifx_i2c_data_link_layer.c **** }
 917              	 .loc 1 216 0
 918 003a 38BD     	 pop {r3,r4,r5,pc}
 919              	.LVL94:
 920              	.L96:
 203:C:/Users/Yushev/git/optiga-trust-qi/optiga/comms/ifx_i2c\ifx_i2c_data_link_layer.c ****     }
 921              	 .loc 1 203 0
 922 003c 4FF48170 	 mov r0,#258
 217:C:/Users/Yushev/git/optiga-trust-qi/optiga/comms/ifx_i2c\ifx_i2c_data_link_layer.c **** 
 923              	 .loc 1 217 0
 924 0040 38BD     	 pop {r3,r4,r5,pc}
 925              	.LVL95:
 926              	.L98:
 927 0042 00BF     	 .align 2
 928              	.L97:
 929 0044 00000000 	 .word ifx_i2c_pl_event_handler
 930              	 .cfi_endproc
 931              	.LFE0:
 933              	 .section .text.ifx_i2c_dl_send_frame,"ax",%progbits
 934              	 .align 1
 935              	 .global ifx_i2c_dl_send_frame
 936              	 .thumb
 937              	 .thumb_func
 939              	ifx_i2c_dl_send_frame:
 940              	.LFB1:
 220:C:/Users/Yushev/git/optiga-trust-qi/optiga/comms/ifx_i2c\ifx_i2c_data_link_layer.c ****     LOG_DL("[IFX-DL]: Start TX Frame\n");
 941              	 .loc 1 220 0
 942              	 .cfi_startproc
 943              	 
 944              	 
 945              	.LVL96:
 946 0000 10B5     	 push {r4,lr}
 947              	.LCFI16:
 948              	 .cfi_def_cfa_offset 8
 949              	 .cfi_offset 4,-8
 950              	 .cfi_offset 14,-4
 223:C:/Users/Yushev/git/optiga-trust-qi/optiga/comms/ifx_i2c\ifx_i2c_data_link_layer.c ****     {
 951              	 .loc 1 223 0
 952 0002 90F86020 	 ldrb r2,[r0,#96]
 953 0006 012A     	 cmp r2,#1
 220:C:/Users/Yushev/git/optiga-trust-qi/optiga/comms/ifx_i2c\ifx_i2c_data_link_layer.c ****     LOG_DL("[IFX-DL]: Start TX Frame\n");
 954              	 .loc 1 220 0
 955 0008 0346     	 mov r3,r0
 223:C:/Users/Yushev/git/optiga-trust-qi/optiga/comms/ifx_i2c\ifx_i2c_data_link_layer.c ****     {
 956              	 .loc 1 223 0
 957 000a 11D1     	 bne .L100
 223:C:/Users/Yushev/git/optiga-trust-qi/optiga/comms/ifx_i2c\ifx_i2c_data_link_layer.c ****     {
 958              	 .loc 1 223 0 is_stmt 0 discriminator 1
 959 000c 81B1     	 cbz r1,.L100
 228:C:/Users/Yushev/git/optiga-trust-qi/optiga/comms/ifx_i2c\ifx_i2c_data_link_layer.c ****     p_ctx->dl.retransmit_counter = 0;
 960              	 .loc 1 228 0 is_stmt 1
 961 000e 0222     	 movs r2,#2
 962 0010 80F86020 	 strb r2,[r0,#96]
 229:C:/Users/Yushev/git/optiga-trust-qi/optiga/comms/ifx_i2c\ifx_i2c_data_link_layer.c ****     p_ctx->dl.action_rx_only = 0;
 963              	 .loc 1 229 0
 964 0014 0022     	 movs r2,#0
 965 0016 80F86420 	 strb r2,[r0,#100]
 230:C:/Users/Yushev/git/optiga-trust-qi/optiga/comms/ifx_i2c\ifx_i2c_data_link_layer.c ****     p_ctx->dl.tx_buffer_size = frame_len;
 966              	 .loc 1 230 0
 967 001a 80F86320 	 strb r2,[r0,#99]
 232:C:/Users/Yushev/git/optiga-trust-qi/optiga/comms/ifx_i2c\ifx_i2c_data_link_layer.c **** 
 968              	 .loc 1 232 0
 969 001e 0A24     	 movs r4,#10
 231:C:/Users/Yushev/git/optiga-trust-qi/optiga/comms/ifx_i2c\ifx_i2c_data_link_layer.c ****     p_ctx->dl.data_poll_timeout = PL_TRANS_TIMEOUT_MS;
 970              	 .loc 1 231 0
 971 0020 A3F86C10 	 strh r1,[r3,#108]
 232:C:/Users/Yushev/git/optiga-trust-qi/optiga/comms/ifx_i2c\ifx_i2c_data_link_layer.c **** 
 972              	 .loc 1 232 0
 973 0024 8466     	 str r4,[r0,#104]
 234:C:/Users/Yushev/git/optiga-trust-qi/optiga/comms/ifx_i2c\ifx_i2c_data_link_layer.c **** }
 974              	 .loc 1 234 0
 975 0026 1346     	 mov r3,r2
 235:C:/Users/Yushev/git/optiga-trust-qi/optiga/comms/ifx_i2c\ifx_i2c_data_link_layer.c **** 
 976              	 .loc 1 235 0
 977 0028 BDE81040 	 pop {r4,lr}
 978              	.LCFI17:
 979              	 .cfi_remember_state
 980              	 .cfi_restore 14
 981              	 .cfi_restore 4
 982              	 .cfi_def_cfa_offset 0
 234:C:/Users/Yushev/git/optiga-trust-qi/optiga/comms/ifx_i2c\ifx_i2c_data_link_layer.c **** }
 983              	 .loc 1 234 0
 984 002c FFF7FEBF 	 b ifx_i2c_dl_send_frame_internal
 985              	.LVL97:
 986              	.L100:
 987              	.LCFI18:
 988              	 .cfi_restore_state
 235:C:/Users/Yushev/git/optiga-trust-qi/optiga/comms/ifx_i2c\ifx_i2c_data_link_layer.c **** 
 989              	 .loc 1 235 0
 990 0030 4FF48170 	 mov r0,#258
 991              	.LVL98:
 992 0034 10BD     	 pop {r4,pc}
 993              	 .cfi_endproc
 994              	.LFE1:
 996              	 .section .text.ifx_i2c_dl_receive_frame,"ax",%progbits
 997              	 .align 1
 998              	 .global ifx_i2c_dl_receive_frame
 999              	 .thumb
 1000              	 .thumb_func
 1002              	ifx_i2c_dl_receive_frame:
 1003              	.LFB2:
 238:C:/Users/Yushev/git/optiga-trust-qi/optiga/comms/ifx_i2c\ifx_i2c_data_link_layer.c ****     LOG_DL("[IFX-DL]: Start RX Frame\n");
 1004              	 .loc 1 238 0
 1005              	 .cfi_startproc
 1006              	 
 1007              	 
 1008              	.LVL99:
 1009 0000 10B5     	 push {r4,lr}
 1010              	.LCFI19:
 1011              	 .cfi_def_cfa_offset 8
 1012              	 .cfi_offset 4,-8
 1013              	 .cfi_offset 14,-4
 241:C:/Users/Yushev/git/optiga-trust-qi/optiga/comms/ifx_i2c\ifx_i2c_data_link_layer.c ****     {
 1014              	 .loc 1 241 0
 1015 0002 90F86030 	 ldrb r3,[r0,#96]
 1016 0006 012B     	 cmp r3,#1
 238:C:/Users/Yushev/git/optiga-trust-qi/optiga/comms/ifx_i2c\ifx_i2c_data_link_layer.c ****     LOG_DL("[IFX-DL]: Start RX Frame\n");
 1017              	 .loc 1 238 0
 1018 0008 0446     	 mov r4,r0
 241:C:/Users/Yushev/git/optiga-trust-qi/optiga/comms/ifx_i2c\ifx_i2c_data_link_layer.c ****     {
 1019              	 .loc 1 241 0
 1020 000a 11D1     	 bne .L105
 247:C:/Users/Yushev/git/optiga-trust-qi/optiga/comms/ifx_i2c\ifx_i2c_data_link_layer.c ****     p_ctx->dl.retransmit_counter = 0;
 1021              	 .loc 1 247 0
 1022 000c 0322     	 movs r2,#3
 1023 000e 80F86020 	 strb r2,[r0,#96]
 248:C:/Users/Yushev/git/optiga-trust-qi/optiga/comms/ifx_i2c\ifx_i2c_data_link_layer.c ****     p_ctx->dl.action_rx_only = 1;
 1024              	 .loc 1 248 0
 1025 0012 0022     	 movs r2,#0
 249:C:/Users/Yushev/git/optiga-trust-qi/optiga/comms/ifx_i2c\ifx_i2c_data_link_layer.c ****     p_ctx->dl.frame_start_time = pal_os_timer_get_time_in_milliseconds();
 1026              	 .loc 1 249 0
 1027 0014 80F86330 	 strb r3,[r0,#99]
 248:C:/Users/Yushev/git/optiga-trust-qi/optiga/comms/ifx_i2c\ifx_i2c_data_link_layer.c ****     p_ctx->dl.action_rx_only = 1;
 1028              	 .loc 1 248 0
 1029 0018 80F86420 	 strb r2,[r0,#100]
 250:C:/Users/Yushev/git/optiga-trust-qi/optiga/comms/ifx_i2c\ifx_i2c_data_link_layer.c ****     p_ctx->dl.data_poll_timeout = TL_MAX_EXIT_TIMEOUT * DL_SEC_TO_MSECS;
 1030              	 .loc 1 250 0
 1031 001c FFF7FEFF 	 bl pal_os_timer_get_time_in_milliseconds
 1032              	.LVL100:
 251:C:/Users/Yushev/git/optiga-trust-qi/optiga/comms/ifx_i2c\ifx_i2c_data_link_layer.c **** 
 1033              	 .loc 1 251 0
 1034 0020 054B     	 ldr r3,.L106
 250:C:/Users/Yushev/git/optiga-trust-qi/optiga/comms/ifx_i2c\ifx_i2c_data_link_layer.c ****     p_ctx->dl.data_poll_timeout = TL_MAX_EXIT_TIMEOUT * DL_SEC_TO_MSECS;
 1035              	 .loc 1 250 0
 1036 0022 A067     	 str r0,[r4,#120]
 251:C:/Users/Yushev/git/optiga-trust-qi/optiga/comms/ifx_i2c\ifx_i2c_data_link_layer.c **** 
 1037              	 .loc 1 251 0
 1038 0024 A366     	 str r3,[r4,#104]
 253:C:/Users/Yushev/git/optiga-trust-qi/optiga/comms/ifx_i2c\ifx_i2c_data_link_layer.c **** }
 1039              	 .loc 1 253 0
 1040 0026 2046     	 mov r0,r4
 254:C:/Users/Yushev/git/optiga-trust-qi/optiga/comms/ifx_i2c\ifx_i2c_data_link_layer.c **** 
 1041              	 .loc 1 254 0
 1042 0028 BDE81040 	 pop {r4,lr}
 1043              	.LCFI20:
 1044              	 .cfi_remember_state
 1045              	 .cfi_restore 14
 1046              	 .cfi_restore 4
 1047              	 .cfi_def_cfa_offset 0
 1048              	.LVL101:
 253:C:/Users/Yushev/git/optiga-trust-qi/optiga/comms/ifx_i2c\ifx_i2c_data_link_layer.c **** }
 1049              	 .loc 1 253 0
 1050 002c FFF7FEBF 	 b ifx_i2c_pl_receive_frame
 1051              	.LVL102:
 1052              	.L105:
 1053              	.LCFI21:
 1054              	 .cfi_restore_state
 254:C:/Users/Yushev/git/optiga-trust-qi/optiga/comms/ifx_i2c\ifx_i2c_data_link_layer.c **** 
 1055              	 .loc 1 254 0
 1056 0030 4FF48170 	 mov r0,#258
 1057              	.LVL103:
 1058 0034 10BD     	 pop {r4,pc}
 1059              	.LVL104:
 1060              	.L107:
 1061 0036 00BF     	 .align 2
 1062              	.L106:
 1063 0038 20BF0200 	 .word 180000
 1064              	 .cfi_endproc
 1065              	.LFE2:
 1067              	 .text
 1068              	.Letext0:
 1069              	 .file 2 "c:\\users\\yushev\\dave_4-4-2_32bit_2018-02-23\\dave-ide-4.4.2-32bit\\eclipse\\arm-gcc-49\\arm-none-eabi\\include\\machine\\_default_types.h"
 1070              	 .file 3 "c:\\users\\yushev\\dave_4-4-2_32bit_2018-02-23\\dave-ide-4.4.2-32bit\\eclipse\\arm-gcc-49\\arm-none-eabi\\include\\stdint.h"
 1071              	 .file 4 "C:/Users/Yushev/git/optiga-trust-qi/optiga/include/optiga/common/optiga_lib_types.h"
 1072              	 .file 5 "C:/Users/Yushev/git/optiga-trust-qi/optiga/include/optiga/pal/pal_i2c.h"
 1073              	 .file 6 "C:/Users/Yushev/git/optiga-trust-qi/optiga/include/optiga/pal/pal_gpio.h"
 1074              	 .file 7 "C:/Users/Yushev/git/optiga-trust-qi/optiga/include/optiga/ifx_i2c/ifx_i2c_config.h"
 1075              	 .file 8 "C:/Users/Yushev/git/optiga-trust-qi/optiga/include/optiga/ifx_i2c/ifx_i2c_physical_layer.h"
 1076              	 .file 9 "C:/Users/Yushev/git/optiga-trust-qi/optiga/include/optiga/pal/pal_os_timer.h"