   1              	 .syntax unified
   2              	 .cpu cortex-m4
   3              	 .eabi_attribute 27,3
   4              	 .fpu fpv4-sp-d16
   5              	 .eabi_attribute 20,1
   6              	 .eabi_attribute 21,1
   7              	 .eabi_attribute 23,3
   8              	 .eabi_attribute 24,1
   9              	 .eabi_attribute 25,1
  10              	 .eabi_attribute 26,1
  11              	 .eabi_attribute 30,4
  12              	 .eabi_attribute 34,1
  13              	 .eabi_attribute 18,4
  14              	 .thumb
  15              	 .file "digital_io.c"
  16              	 .text
  17              	.Ltext0:
  18              	 .cfi_sections .debug_frame
  19              	 .section .text.DIGITAL_IO_GetAppVersion,"ax",%progbits
  20              	 .align 1
  21              	 .global DIGITAL_IO_GetAppVersion
  22              	 .thumb
  23              	 .thumb_func
  25              	DIGITAL_IO_GetAppVersion:
  26              	.LFB149:
  27              	 .file 1 "C:/Users/Yushev/git/optiga-trust-qi/projects/xmc4700_relax_kit/common/Dave/Generated/DIGITAL_IO/digital_io.c"
   1:C:/Users/Yushev/git/optiga-trust-qi/projects/xmc4700_relax_kit/common/Dave/Generated/DIGITAL_IO\digital_io.c **** /**
   2:C:/Users/Yushev/git/optiga-trust-qi/projects/xmc4700_relax_kit/common/Dave/Generated/DIGITAL_IO\digital_io.c ****  * @file digital_io.c
   3:C:/Users/Yushev/git/optiga-trust-qi/projects/xmc4700_relax_kit/common/Dave/Generated/DIGITAL_IO\digital_io.c ****  * @date 2016-07-08
   4:C:/Users/Yushev/git/optiga-trust-qi/projects/xmc4700_relax_kit/common/Dave/Generated/DIGITAL_IO\digital_io.c ****  *
   5:C:/Users/Yushev/git/optiga-trust-qi/projects/xmc4700_relax_kit/common/Dave/Generated/DIGITAL_IO\digital_io.c ****  * NOTE:
   6:C:/Users/Yushev/git/optiga-trust-qi/projects/xmc4700_relax_kit/common/Dave/Generated/DIGITAL_IO\digital_io.c ****  * This file is generated by DAVE. Any manual modification done to this file will be lost when the 
   7:C:/Users/Yushev/git/optiga-trust-qi/projects/xmc4700_relax_kit/common/Dave/Generated/DIGITAL_IO\digital_io.c ****  *
   8:C:/Users/Yushev/git/optiga-trust-qi/projects/xmc4700_relax_kit/common/Dave/Generated/DIGITAL_IO\digital_io.c ****  * @cond
   9:C:/Users/Yushev/git/optiga-trust-qi/projects/xmc4700_relax_kit/common/Dave/Generated/DIGITAL_IO\digital_io.c ****  **************************************************************************************************
  10:C:/Users/Yushev/git/optiga-trust-qi/projects/xmc4700_relax_kit/common/Dave/Generated/DIGITAL_IO\digital_io.c ****  * DIGITAL_IO v4.0.16 - The DIGITAL_IO APP is used to configure a port pin as digital Input/Output.
  11:C:/Users/Yushev/git/optiga-trust-qi/projects/xmc4700_relax_kit/common/Dave/Generated/DIGITAL_IO\digital_io.c ****  *
  12:C:/Users/Yushev/git/optiga-trust-qi/projects/xmc4700_relax_kit/common/Dave/Generated/DIGITAL_IO\digital_io.c ****  * Copyright (c) 2015-2016, Infineon Technologies AG
  13:C:/Users/Yushev/git/optiga-trust-qi/projects/xmc4700_relax_kit/common/Dave/Generated/DIGITAL_IO\digital_io.c ****  * All rights reserved.
  14:C:/Users/Yushev/git/optiga-trust-qi/projects/xmc4700_relax_kit/common/Dave/Generated/DIGITAL_IO\digital_io.c ****  *
  15:C:/Users/Yushev/git/optiga-trust-qi/projects/xmc4700_relax_kit/common/Dave/Generated/DIGITAL_IO\digital_io.c ****  * Redistribution and use in source and binary forms, with or without modification,are permitted pr
  16:C:/Users/Yushev/git/optiga-trust-qi/projects/xmc4700_relax_kit/common/Dave/Generated/DIGITAL_IO\digital_io.c ****  * following conditions are met:
  17:C:/Users/Yushev/git/optiga-trust-qi/projects/xmc4700_relax_kit/common/Dave/Generated/DIGITAL_IO\digital_io.c ****  *
  18:C:/Users/Yushev/git/optiga-trust-qi/projects/xmc4700_relax_kit/common/Dave/Generated/DIGITAL_IO\digital_io.c ****  *   Redistributions of source code must retain the above copyright notice, this list of conditions
  19:C:/Users/Yushev/git/optiga-trust-qi/projects/xmc4700_relax_kit/common/Dave/Generated/DIGITAL_IO\digital_io.c ****  *   disclaimer.
  20:C:/Users/Yushev/git/optiga-trust-qi/projects/xmc4700_relax_kit/common/Dave/Generated/DIGITAL_IO\digital_io.c ****  *
  21:C:/Users/Yushev/git/optiga-trust-qi/projects/xmc4700_relax_kit/common/Dave/Generated/DIGITAL_IO\digital_io.c ****  *   Redistributions in binary form must reproduce the above copyright notice, this list of conditi
  22:C:/Users/Yushev/git/optiga-trust-qi/projects/xmc4700_relax_kit/common/Dave/Generated/DIGITAL_IO\digital_io.c ****  *   following disclaimer in the documentation and/or other materials provided with the distributio
  23:C:/Users/Yushev/git/optiga-trust-qi/projects/xmc4700_relax_kit/common/Dave/Generated/DIGITAL_IO\digital_io.c ****  *
  24:C:/Users/Yushev/git/optiga-trust-qi/projects/xmc4700_relax_kit/common/Dave/Generated/DIGITAL_IO\digital_io.c ****  *   Neither the name of the copyright holders nor the names of its contributors may be used to end
  25:C:/Users/Yushev/git/optiga-trust-qi/projects/xmc4700_relax_kit/common/Dave/Generated/DIGITAL_IO\digital_io.c ****  *   products derived from this software without specific prior written permission.
  26:C:/Users/Yushev/git/optiga-trust-qi/projects/xmc4700_relax_kit/common/Dave/Generated/DIGITAL_IO\digital_io.c ****  *
  27:C:/Users/Yushev/git/optiga-trust-qi/projects/xmc4700_relax_kit/common/Dave/Generated/DIGITAL_IO\digital_io.c ****  * THIS SOFTWARE IS PROVIDED BY THE COPYRIGHT HOLDERS AND CONTRIBUTORS "AS IS" AND ANY EXPRESS OR I
  28:C:/Users/Yushev/git/optiga-trust-qi/projects/xmc4700_relax_kit/common/Dave/Generated/DIGITAL_IO\digital_io.c ****  * INCLUDING, BUT NOT LIMITED TO, THE IMPLIED WARRANTIES OF MERCHANTABILITY AND FITNESS FOR A PARTI
  29:C:/Users/Yushev/git/optiga-trust-qi/projects/xmc4700_relax_kit/common/Dave/Generated/DIGITAL_IO\digital_io.c ****  * DISCLAIMED. IN NO EVENT SHALL THE COPYRIGHT HOLDER OR CONTRIBUTORS BE LIABLE  FOR ANY DIRECT, IN
  30:C:/Users/Yushev/git/optiga-trust-qi/projects/xmc4700_relax_kit/common/Dave/Generated/DIGITAL_IO\digital_io.c ****  * SPECIAL, EXEMPLARY, OR CONSEQUENTIAL DAMAGES (INCLUDING, BUT NOT LIMITED TO, PROCUREMENT OF SUBS
  31:C:/Users/Yushev/git/optiga-trust-qi/projects/xmc4700_relax_kit/common/Dave/Generated/DIGITAL_IO\digital_io.c ****  * SERVICES; LOSS OF USE, DATA, OR PROFITS; OR BUSINESS INTERRUPTION) HOWEVER CAUSED AND ON ANY THE
  32:C:/Users/Yushev/git/optiga-trust-qi/projects/xmc4700_relax_kit/common/Dave/Generated/DIGITAL_IO\digital_io.c ****  * WHETHER IN CONTRACT, STRICT LIABILITY,OR TORT (INCLUDING NEGLIGENCE OR OTHERWISE) ARISING IN ANY
  33:C:/Users/Yushev/git/optiga-trust-qi/projects/xmc4700_relax_kit/common/Dave/Generated/DIGITAL_IO\digital_io.c ****  * USE OF THIS SOFTWARE, EVEN IF ADVISED OF THE POSSIBILITY OF SUCH DAMAGE.
  34:C:/Users/Yushev/git/optiga-trust-qi/projects/xmc4700_relax_kit/common/Dave/Generated/DIGITAL_IO\digital_io.c ****  *
  35:C:/Users/Yushev/git/optiga-trust-qi/projects/xmc4700_relax_kit/common/Dave/Generated/DIGITAL_IO\digital_io.c ****  * To improve the quality of the software, users are encouraged to share modifications, enhancement
  36:C:/Users/Yushev/git/optiga-trust-qi/projects/xmc4700_relax_kit/common/Dave/Generated/DIGITAL_IO\digital_io.c ****  * with Infineon Technologies AG (dave@infineon.com).
  37:C:/Users/Yushev/git/optiga-trust-qi/projects/xmc4700_relax_kit/common/Dave/Generated/DIGITAL_IO\digital_io.c ****  **************************************************************************************************
  38:C:/Users/Yushev/git/optiga-trust-qi/projects/xmc4700_relax_kit/common/Dave/Generated/DIGITAL_IO\digital_io.c ****  *
  39:C:/Users/Yushev/git/optiga-trust-qi/projects/xmc4700_relax_kit/common/Dave/Generated/DIGITAL_IO\digital_io.c ****  * Change History
  40:C:/Users/Yushev/git/optiga-trust-qi/projects/xmc4700_relax_kit/common/Dave/Generated/DIGITAL_IO\digital_io.c ****  * --------------
  41:C:/Users/Yushev/git/optiga-trust-qi/projects/xmc4700_relax_kit/common/Dave/Generated/DIGITAL_IO\digital_io.c ****  *
  42:C:/Users/Yushev/git/optiga-trust-qi/projects/xmc4700_relax_kit/common/Dave/Generated/DIGITAL_IO\digital_io.c ****  * 2015-02-16
  43:C:/Users/Yushev/git/optiga-trust-qi/projects/xmc4700_relax_kit/common/Dave/Generated/DIGITAL_IO\digital_io.c ****  *     - Initial version<br>
  44:C:/Users/Yushev/git/optiga-trust-qi/projects/xmc4700_relax_kit/common/Dave/Generated/DIGITAL_IO\digital_io.c ****  * 2015-12-22
  45:C:/Users/Yushev/git/optiga-trust-qi/projects/xmc4700_relax_kit/common/Dave/Generated/DIGITAL_IO\digital_io.c ****  *     - Added hardware controlled IO feature.
  46:C:/Users/Yushev/git/optiga-trust-qi/projects/xmc4700_relax_kit/common/Dave/Generated/DIGITAL_IO\digital_io.c ****  * 2016-07-08:
  47:C:/Users/Yushev/git/optiga-trust-qi/projects/xmc4700_relax_kit/common/Dave/Generated/DIGITAL_IO\digital_io.c ****  *     - Fixed incorrect case for an included header.<br>
  48:C:/Users/Yushev/git/optiga-trust-qi/projects/xmc4700_relax_kit/common/Dave/Generated/DIGITAL_IO\digital_io.c ****  *
  49:C:/Users/Yushev/git/optiga-trust-qi/projects/xmc4700_relax_kit/common/Dave/Generated/DIGITAL_IO\digital_io.c ****  * @endcond
  50:C:/Users/Yushev/git/optiga-trust-qi/projects/xmc4700_relax_kit/common/Dave/Generated/DIGITAL_IO\digital_io.c ****  *
  51:C:/Users/Yushev/git/optiga-trust-qi/projects/xmc4700_relax_kit/common/Dave/Generated/DIGITAL_IO\digital_io.c ****  */
  52:C:/Users/Yushev/git/optiga-trust-qi/projects/xmc4700_relax_kit/common/Dave/Generated/DIGITAL_IO\digital_io.c **** 
  53:C:/Users/Yushev/git/optiga-trust-qi/projects/xmc4700_relax_kit/common/Dave/Generated/DIGITAL_IO\digital_io.c **** /**************************************************************************************************
  54:C:/Users/Yushev/git/optiga-trust-qi/projects/xmc4700_relax_kit/common/Dave/Generated/DIGITAL_IO\digital_io.c ****  * HEADER FILES
  55:C:/Users/Yushev/git/optiga-trust-qi/projects/xmc4700_relax_kit/common/Dave/Generated/DIGITAL_IO\digital_io.c ****  **************************************************************************************************
  56:C:/Users/Yushev/git/optiga-trust-qi/projects/xmc4700_relax_kit/common/Dave/Generated/DIGITAL_IO\digital_io.c **** #include "digital_io.h"
  57:C:/Users/Yushev/git/optiga-trust-qi/projects/xmc4700_relax_kit/common/Dave/Generated/DIGITAL_IO\digital_io.c **** 
  58:C:/Users/Yushev/git/optiga-trust-qi/projects/xmc4700_relax_kit/common/Dave/Generated/DIGITAL_IO\digital_io.c **** /**************************************************************************************************
  59:C:/Users/Yushev/git/optiga-trust-qi/projects/xmc4700_relax_kit/common/Dave/Generated/DIGITAL_IO\digital_io.c ****  * MACROS
  60:C:/Users/Yushev/git/optiga-trust-qi/projects/xmc4700_relax_kit/common/Dave/Generated/DIGITAL_IO\digital_io.c ****  **************************************************************************************************
  61:C:/Users/Yushev/git/optiga-trust-qi/projects/xmc4700_relax_kit/common/Dave/Generated/DIGITAL_IO\digital_io.c **** 
  62:C:/Users/Yushev/git/optiga-trust-qi/projects/xmc4700_relax_kit/common/Dave/Generated/DIGITAL_IO\digital_io.c **** /**************************************************************************************************
  63:C:/Users/Yushev/git/optiga-trust-qi/projects/xmc4700_relax_kit/common/Dave/Generated/DIGITAL_IO\digital_io.c ****  * LOCAL DATA
  64:C:/Users/Yushev/git/optiga-trust-qi/projects/xmc4700_relax_kit/common/Dave/Generated/DIGITAL_IO\digital_io.c ****  **************************************************************************************************
  65:C:/Users/Yushev/git/optiga-trust-qi/projects/xmc4700_relax_kit/common/Dave/Generated/DIGITAL_IO\digital_io.c **** 
  66:C:/Users/Yushev/git/optiga-trust-qi/projects/xmc4700_relax_kit/common/Dave/Generated/DIGITAL_IO\digital_io.c **** /**************************************************************************************************
  67:C:/Users/Yushev/git/optiga-trust-qi/projects/xmc4700_relax_kit/common/Dave/Generated/DIGITAL_IO\digital_io.c ****  * LOCAL ROUTINES
  68:C:/Users/Yushev/git/optiga-trust-qi/projects/xmc4700_relax_kit/common/Dave/Generated/DIGITAL_IO\digital_io.c ****  **************************************************************************************************
  69:C:/Users/Yushev/git/optiga-trust-qi/projects/xmc4700_relax_kit/common/Dave/Generated/DIGITAL_IO\digital_io.c **** 
  70:C:/Users/Yushev/git/optiga-trust-qi/projects/xmc4700_relax_kit/common/Dave/Generated/DIGITAL_IO\digital_io.c ****  /*************************************************************************************************
  71:C:/Users/Yushev/git/optiga-trust-qi/projects/xmc4700_relax_kit/common/Dave/Generated/DIGITAL_IO\digital_io.c ****  * API IMPLEMENTATION
  72:C:/Users/Yushev/git/optiga-trust-qi/projects/xmc4700_relax_kit/common/Dave/Generated/DIGITAL_IO\digital_io.c ****  **************************************************************************************************
  73:C:/Users/Yushev/git/optiga-trust-qi/projects/xmc4700_relax_kit/common/Dave/Generated/DIGITAL_IO\digital_io.c **** 
  74:C:/Users/Yushev/git/optiga-trust-qi/projects/xmc4700_relax_kit/common/Dave/Generated/DIGITAL_IO\digital_io.c **** /**
  75:C:/Users/Yushev/git/optiga-trust-qi/projects/xmc4700_relax_kit/common/Dave/Generated/DIGITAL_IO\digital_io.c **** * @brief Get DIGITAL_IO APP version
  76:C:/Users/Yushev/git/optiga-trust-qi/projects/xmc4700_relax_kit/common/Dave/Generated/DIGITAL_IO\digital_io.c **** * @return DAVE_APP_VERSION_t APP version information (major, minor and patch number)
  77:C:/Users/Yushev/git/optiga-trust-qi/projects/xmc4700_relax_kit/common/Dave/Generated/DIGITAL_IO\digital_io.c **** */
  78:C:/Users/Yushev/git/optiga-trust-qi/projects/xmc4700_relax_kit/common/Dave/Generated/DIGITAL_IO\digital_io.c **** 
  79:C:/Users/Yushev/git/optiga-trust-qi/projects/xmc4700_relax_kit/common/Dave/Generated/DIGITAL_IO\digital_io.c **** DAVE_APP_VERSION_t DIGITAL_IO_GetAppVersion(void)
  80:C:/Users/Yushev/git/optiga-trust-qi/projects/xmc4700_relax_kit/common/Dave/Generated/DIGITAL_IO\digital_io.c **** {
  28              	 .loc 1 80 0
  29              	 .cfi_startproc
  30              	 
  31              	 
  32              	 
  33              	.LVL0:
  81:C:/Users/Yushev/git/optiga-trust-qi/projects/xmc4700_relax_kit/common/Dave/Generated/DIGITAL_IO\digital_io.c ****   DAVE_APP_VERSION_t version;
  82:C:/Users/Yushev/git/optiga-trust-qi/projects/xmc4700_relax_kit/common/Dave/Generated/DIGITAL_IO\digital_io.c **** 
  83:C:/Users/Yushev/git/optiga-trust-qi/projects/xmc4700_relax_kit/common/Dave/Generated/DIGITAL_IO\digital_io.c ****   version.major = (uint8_t)DIGITAL_IO_MAJOR_VERSION;
  84:C:/Users/Yushev/git/optiga-trust-qi/projects/xmc4700_relax_kit/common/Dave/Generated/DIGITAL_IO\digital_io.c ****   version.minor = (uint8_t)DIGITAL_IO_MINOR_VERSION;
  85:C:/Users/Yushev/git/optiga-trust-qi/projects/xmc4700_relax_kit/common/Dave/Generated/DIGITAL_IO\digital_io.c ****   version.patch = (uint8_t)DIGITAL_IO_PATCH_VERSION;
  86:C:/Users/Yushev/git/optiga-trust-qi/projects/xmc4700_relax_kit/common/Dave/Generated/DIGITAL_IO\digital_io.c **** 
  87:C:/Users/Yushev/git/optiga-trust-qi/projects/xmc4700_relax_kit/common/Dave/Generated/DIGITAL_IO\digital_io.c ****   return (version);
  34              	 .loc 1 87 0
  35 0000 0023     	 movs r3,#0
  36 0002 1846     	 mov r0,r3
  37 0004 0422     	 movs r2,#4
  38 0006 62F30700 	 bfi r0,r2,#0,#8
  39 000a 63F30F20 	 bfi r0,r3,#8,#8
  40 000e 1023     	 movs r3,#16
  41 0010 63F31740 	 bfi r0,r3,#16,#8
  80:C:/Users/Yushev/git/optiga-trust-qi/projects/xmc4700_relax_kit/common/Dave/Generated/DIGITAL_IO\digital_io.c ****   DAVE_APP_VERSION_t version;
  42              	 .loc 1 80 0
  43 0014 82B0     	 sub sp,sp,#8
  44              	.LCFI0:
  45              	 .cfi_def_cfa_offset 8
  88:C:/Users/Yushev/git/optiga-trust-qi/projects/xmc4700_relax_kit/common/Dave/Generated/DIGITAL_IO\digital_io.c **** }
  46              	 .loc 1 88 0
  47 0016 02B0     	 add sp,sp,#8
  48              	.LCFI1:
  49              	 .cfi_def_cfa_offset 0
  50              	 
  51 0018 7047     	 bx lr
  52              	 .cfi_endproc
  53              	.LFE149:
  55              	 .section .text.DIGITAL_IO_Init,"ax",%progbits
  56              	 .align 1
  57              	 .global DIGITAL_IO_Init
  58              	 .thumb
  59              	 .thumb_func
  61              	DIGITAL_IO_Init:
  62              	.LFB150:
  89:C:/Users/Yushev/git/optiga-trust-qi/projects/xmc4700_relax_kit/common/Dave/Generated/DIGITAL_IO\digital_io.c **** 
  90:C:/Users/Yushev/git/optiga-trust-qi/projects/xmc4700_relax_kit/common/Dave/Generated/DIGITAL_IO\digital_io.c **** 
  91:C:/Users/Yushev/git/optiga-trust-qi/projects/xmc4700_relax_kit/common/Dave/Generated/DIGITAL_IO\digital_io.c **** /**
  92:C:/Users/Yushev/git/optiga-trust-qi/projects/xmc4700_relax_kit/common/Dave/Generated/DIGITAL_IO\digital_io.c **** * @brief Function to initialize the port pin as per UI settings.
  93:C:/Users/Yushev/git/optiga-trust-qi/projects/xmc4700_relax_kit/common/Dave/Generated/DIGITAL_IO\digital_io.c **** * @param handler Pointer pointing to APP data structure.
  94:C:/Users/Yushev/git/optiga-trust-qi/projects/xmc4700_relax_kit/common/Dave/Generated/DIGITAL_IO\digital_io.c **** * @return DIGITAL_IO_STATUS_t DIGITAL_IO APP status.
  95:C:/Users/Yushev/git/optiga-trust-qi/projects/xmc4700_relax_kit/common/Dave/Generated/DIGITAL_IO\digital_io.c **** */
  96:C:/Users/Yushev/git/optiga-trust-qi/projects/xmc4700_relax_kit/common/Dave/Generated/DIGITAL_IO\digital_io.c **** 
  97:C:/Users/Yushev/git/optiga-trust-qi/projects/xmc4700_relax_kit/common/Dave/Generated/DIGITAL_IO\digital_io.c **** DIGITAL_IO_STATUS_t DIGITAL_IO_Init(const DIGITAL_IO_t *const handler)
  98:C:/Users/Yushev/git/optiga-trust-qi/projects/xmc4700_relax_kit/common/Dave/Generated/DIGITAL_IO\digital_io.c **** {
  63              	 .loc 1 98 0
  64              	 .cfi_startproc
  65              	 
  66              	 
  67              	.LVL1:
  68 0000 10B5     	 push {r4,lr}
  69              	.LCFI2:
  70              	 .cfi_def_cfa_offset 8
  71              	 .cfi_offset 4,-8
  72              	 .cfi_offset 14,-4
  73              	 .loc 1 98 0
  74 0002 0446     	 mov r4,r0
  99:C:/Users/Yushev/git/optiga-trust-qi/projects/xmc4700_relax_kit/common/Dave/Generated/DIGITAL_IO\digital_io.c ****   XMC_ASSERT("DIGITAL_IO_Init: handler null pointer", handler != NULL);
 100:C:/Users/Yushev/git/optiga-trust-qi/projects/xmc4700_relax_kit/common/Dave/Generated/DIGITAL_IO\digital_io.c **** 
 101:C:/Users/Yushev/git/optiga-trust-qi/projects/xmc4700_relax_kit/common/Dave/Generated/DIGITAL_IO\digital_io.c ****   /* Initializes input / output characteristics */
 102:C:/Users/Yushev/git/optiga-trust-qi/projects/xmc4700_relax_kit/common/Dave/Generated/DIGITAL_IO\digital_io.c ****   XMC_GPIO_Init(handler->gpio_port, handler->gpio_pin, &handler->gpio_config);
  75              	 .loc 1 102 0
  76 0004 221D     	 adds r2,r4,#4
  77 0006 217C     	 ldrb r1,[r4,#16]
  78 0008 0068     	 ldr r0,[r0]
  79              	.LVL2:
  80 000a FFF7FEFF 	 bl XMC_GPIO_Init
  81              	.LVL3:
 103:C:/Users/Yushev/git/optiga-trust-qi/projects/xmc4700_relax_kit/common/Dave/Generated/DIGITAL_IO\digital_io.c **** 
 104:C:/Users/Yushev/git/optiga-trust-qi/projects/xmc4700_relax_kit/common/Dave/Generated/DIGITAL_IO\digital_io.c ****   /*Configure hardware port control*/
 105:C:/Users/Yushev/git/optiga-trust-qi/projects/xmc4700_relax_kit/common/Dave/Generated/DIGITAL_IO\digital_io.c ****   XMC_GPIO_SetHardwareControl(handler->gpio_port, handler->gpio_pin, handler->hwctrl);
  82              	 .loc 1 105 0
  83 000e 2068     	 ldr r0,[r4]
  84 0010 217C     	 ldrb r1,[r4,#16]
  85 0012 627C     	 ldrb r2,[r4,#17]
  86 0014 FFF7FEFF 	 bl XMC_GPIO_SetHardwareControl
  87              	.LVL4:
 106:C:/Users/Yushev/git/optiga-trust-qi/projects/xmc4700_relax_kit/common/Dave/Generated/DIGITAL_IO\digital_io.c **** 
 107:C:/Users/Yushev/git/optiga-trust-qi/projects/xmc4700_relax_kit/common/Dave/Generated/DIGITAL_IO\digital_io.c ****   return (DIGITAL_IO_STATUS_OK);
 108:C:/Users/Yushev/git/optiga-trust-qi/projects/xmc4700_relax_kit/common/Dave/Generated/DIGITAL_IO\digital_io.c **** }
  88              	 .loc 1 108 0
  89 0018 0020     	 movs r0,#0
  90 001a 10BD     	 pop {r4,pc}
  91              	 .cfi_endproc
  92              	.LFE150:
  94              	 .text
  95              	.Letext0:
  96              	 .file 2 "c:\\users\\yushev\\dave_4-4-2_32bit_2018-02-23\\dave-ide-4.4.2-32bit\\eclipse\\arm-gcc-49\\arm-none-eabi\\include\\machine\\_default_types.h"
  97              	 .file 3 "c:\\users\\yushev\\dave_4-4-2_32bit_2018-02-23\\dave-ide-4.4.2-32bit\\eclipse\\arm-gcc-49\\arm-none-eabi\\include\\stdint.h"
  98              	 .file 4 "C:/Users/Yushev/git/optiga-trust-qi/projects/xmc4700_relax_kit/common/Libraries/XMCLib/inc/xmc_gpio.h"
  99              	 .file 5 "C:/Users/Yushev/git/optiga-trust-qi/projects/xmc4700_relax_kit/common/Libraries/XMCLib/inc/xmc4_gpio.h"
 100              	 .file 6 "C:/Users/Yushev/git/optiga-trust-qi/projects/xmc4700_relax_kit/common/Dave/Generated/DAVE_Common.h"
 101              	 .file 7 "C:/Users/Yushev/git/optiga-trust-qi/projects/xmc4700_relax_kit/common/Dave/Generated/DIGITAL_IO/digital_io.h"
 102              	 .file 8 "C:/Users/Yushev/git/optiga-trust-qi/projects/xmc4700_relax_kit/common/Libraries/CMSIS/Include/core_cm4.h"