   1              	 .syntax unified
   2              	 .cpu cortex-m4
   3              	 .eabi_attribute 27,3
   4              	 .fpu fpv4-sp-d16
   5              	 .eabi_attribute 20,1
   6              	 .eabi_attribute 21,1
   7              	 .eabi_attribute 23,3
   8              	 .eabi_attribute 24,1
   9              	 .eabi_attribute 25,1
  10              	 .eabi_attribute 26,1
  11              	 .eabi_attribute 30,4
  12              	 .eabi_attribute 34,1
  13              	 .eabi_attribute 18,4
  14              	 .thumb
  15              	 .file "example_optiga_util_read_data.c"
  16              	 .text
  17              	.Ltext0:
  18              	 .cfi_sections .debug_frame
  19              	 .section .text.optiga_util_callback,"ax",%progbits
  20              	 .align 1
  21              	 .thumb
  22              	 .thumb_func
  24              	optiga_util_callback:
  25              	.LFB0:
  26              	 .file 1 "C:/Users/Yushev/git/optiga-trust-qi/examples/optiga/example_optiga_util_read_data.c"
   1:C:/Users/Yushev/git/optiga-trust-qi/examples/optiga\example_optiga_util_read_data.c **** /**
   2:C:/Users/Yushev/git/optiga-trust-qi/examples/optiga\example_optiga_util_read_data.c **** * \copyright
   3:C:/Users/Yushev/git/optiga-trust-qi/examples/optiga\example_optiga_util_read_data.c **** * MIT License
   4:C:/Users/Yushev/git/optiga-trust-qi/examples/optiga\example_optiga_util_read_data.c **** *
   5:C:/Users/Yushev/git/optiga-trust-qi/examples/optiga\example_optiga_util_read_data.c **** * Copyright (c) 2020 Infineon Technologies AG
   6:C:/Users/Yushev/git/optiga-trust-qi/examples/optiga\example_optiga_util_read_data.c **** *
   7:C:/Users/Yushev/git/optiga-trust-qi/examples/optiga\example_optiga_util_read_data.c **** * Permission is hereby granted, free of charge, to any person obtaining a copy
   8:C:/Users/Yushev/git/optiga-trust-qi/examples/optiga\example_optiga_util_read_data.c **** * of this software and associated documentation files (the "Software"), to deal
   9:C:/Users/Yushev/git/optiga-trust-qi/examples/optiga\example_optiga_util_read_data.c **** * in the Software without restriction, including without limitation the rights
  10:C:/Users/Yushev/git/optiga-trust-qi/examples/optiga\example_optiga_util_read_data.c **** * to use, copy, modify, merge, publish, distribute, sublicense, and/or sell
  11:C:/Users/Yushev/git/optiga-trust-qi/examples/optiga\example_optiga_util_read_data.c **** * copies of the Software, and to permit persons to whom the Software is
  12:C:/Users/Yushev/git/optiga-trust-qi/examples/optiga\example_optiga_util_read_data.c **** * furnished to do so, subject to the following conditions:
  13:C:/Users/Yushev/git/optiga-trust-qi/examples/optiga\example_optiga_util_read_data.c **** *
  14:C:/Users/Yushev/git/optiga-trust-qi/examples/optiga\example_optiga_util_read_data.c **** * The above copyright notice and this permission notice shall be included in all
  15:C:/Users/Yushev/git/optiga-trust-qi/examples/optiga\example_optiga_util_read_data.c **** * copies or substantial portions of the Software.
  16:C:/Users/Yushev/git/optiga-trust-qi/examples/optiga\example_optiga_util_read_data.c **** *
  17:C:/Users/Yushev/git/optiga-trust-qi/examples/optiga\example_optiga_util_read_data.c **** * THE SOFTWARE IS PROVIDED "AS IS", WITHOUT WARRANTY OF ANY KIND, EXPRESS OR
  18:C:/Users/Yushev/git/optiga-trust-qi/examples/optiga\example_optiga_util_read_data.c **** * IMPLIED, INCLUDING BUT NOT LIMITED TO THE WARRANTIES OF MERCHANTABILITY,
  19:C:/Users/Yushev/git/optiga-trust-qi/examples/optiga\example_optiga_util_read_data.c **** * FITNESS FOR A PARTICULAR PURPOSE AND NONINFRINGEMENT. IN NO EVENT SHALL THE
  20:C:/Users/Yushev/git/optiga-trust-qi/examples/optiga\example_optiga_util_read_data.c **** * AUTHORS OR COPYRIGHT HOLDERS BE LIABLE FOR ANY CLAIM, DAMAGES OR OTHER
  21:C:/Users/Yushev/git/optiga-trust-qi/examples/optiga\example_optiga_util_read_data.c **** * LIABILITY, WHETHER IN AN ACTION OF CONTRACT, TORT OR OTHERWISE, ARISING FROM,
  22:C:/Users/Yushev/git/optiga-trust-qi/examples/optiga\example_optiga_util_read_data.c **** * OUT OF OR IN CONNECTION WITH THE SOFTWARE OR THE USE OR OTHER DEALINGS IN THE
  23:C:/Users/Yushev/git/optiga-trust-qi/examples/optiga\example_optiga_util_read_data.c **** * SOFTWARE
  24:C:/Users/Yushev/git/optiga-trust-qi/examples/optiga\example_optiga_util_read_data.c **** *
  25:C:/Users/Yushev/git/optiga-trust-qi/examples/optiga\example_optiga_util_read_data.c **** * \endcopyright
  26:C:/Users/Yushev/git/optiga-trust-qi/examples/optiga\example_optiga_util_read_data.c **** *
  27:C:/Users/Yushev/git/optiga-trust-qi/examples/optiga\example_optiga_util_read_data.c **** * \author Infineon Technologies AG
  28:C:/Users/Yushev/git/optiga-trust-qi/examples/optiga\example_optiga_util_read_data.c **** *
  29:C:/Users/Yushev/git/optiga-trust-qi/examples/optiga\example_optiga_util_read_data.c **** * \file example_optiga_util_read_data.c
  30:C:/Users/Yushev/git/optiga-trust-qi/examples/optiga\example_optiga_util_read_data.c **** *
  31:C:/Users/Yushev/git/optiga-trust-qi/examples/optiga\example_optiga_util_read_data.c **** * \brief   This file provides the example for reading data/metadata from OPTIGA using
  32:C:/Users/Yushev/git/optiga-trust-qi/examples/optiga\example_optiga_util_read_data.c **** *          #optiga_util_read_data and #optiga_util_read_metadata.
  33:C:/Users/Yushev/git/optiga-trust-qi/examples/optiga\example_optiga_util_read_data.c **** *
  34:C:/Users/Yushev/git/optiga-trust-qi/examples/optiga\example_optiga_util_read_data.c **** * \ingroup grOptigaExamples
  35:C:/Users/Yushev/git/optiga-trust-qi/examples/optiga\example_optiga_util_read_data.c **** *
  36:C:/Users/Yushev/git/optiga-trust-qi/examples/optiga\example_optiga_util_read_data.c **** * @{
  37:C:/Users/Yushev/git/optiga-trust-qi/examples/optiga\example_optiga_util_read_data.c **** */
  38:C:/Users/Yushev/git/optiga-trust-qi/examples/optiga\example_optiga_util_read_data.c **** #include "optiga_example.h"
  39:C:/Users/Yushev/git/optiga-trust-qi/examples/optiga\example_optiga_util_read_data.c **** #include "optiga/optiga_util.h"
  40:C:/Users/Yushev/git/optiga-trust-qi/examples/optiga\example_optiga_util_read_data.c **** 
  41:C:/Users/Yushev/git/optiga-trust-qi/examples/optiga\example_optiga_util_read_data.c **** /**
  42:C:/Users/Yushev/git/optiga-trust-qi/examples/optiga\example_optiga_util_read_data.c ****  * Callback when optiga_util_xxxx operation is completed asynchronously
  43:C:/Users/Yushev/git/optiga-trust-qi/examples/optiga\example_optiga_util_read_data.c ****  */
  44:C:/Users/Yushev/git/optiga-trust-qi/examples/optiga\example_optiga_util_read_data.c **** static volatile optiga_lib_status_t optiga_lib_status;
  45:C:/Users/Yushev/git/optiga-trust-qi/examples/optiga\example_optiga_util_read_data.c **** //lint --e{818} suppress "argument "context" is not used in the sample provided"
  46:C:/Users/Yushev/git/optiga-trust-qi/examples/optiga\example_optiga_util_read_data.c **** static void optiga_util_callback(void * context, optiga_lib_status_t return_status)
  47:C:/Users/Yushev/git/optiga-trust-qi/examples/optiga\example_optiga_util_read_data.c **** {
  27              	 .loc 1 47 0
  28              	 .cfi_startproc
  29              	 
  30              	 
  31              	 
  32              	.LVL0:
  48:C:/Users/Yushev/git/optiga-trust-qi/examples/optiga\example_optiga_util_read_data.c ****     optiga_lib_status = return_status;
  33              	 .loc 1 48 0
  34 0000 014B     	 ldr r3,.L2
  35 0002 1980     	 strh r1,[r3]
  36 0004 7047     	 bx lr
  37              	.L3:
  38 0006 00BF     	 .align 2
  39              	.L2:
  40 0008 00000000 	 .word .LANCHOR0
  41              	 .cfi_endproc
  42              	.LFE0:
  44              	 .section .text.example_optiga_util_read_data,"ax",%progbits
  45              	 .align 1
  46              	 .global example_optiga_util_read_data
  47              	 .thumb
  48              	 .thumb_func
  50              	example_optiga_util_read_data:
  51              	.LFB1:
  49:C:/Users/Yushev/git/optiga-trust-qi/examples/optiga\example_optiga_util_read_data.c ****     if (NULL != context)
  50:C:/Users/Yushev/git/optiga-trust-qi/examples/optiga\example_optiga_util_read_data.c ****     {
  51:C:/Users/Yushev/git/optiga-trust-qi/examples/optiga\example_optiga_util_read_data.c ****         // callback to upper layer here
  52:C:/Users/Yushev/git/optiga-trust-qi/examples/optiga\example_optiga_util_read_data.c ****     }
  53:C:/Users/Yushev/git/optiga-trust-qi/examples/optiga\example_optiga_util_read_data.c **** }
  54:C:/Users/Yushev/git/optiga-trust-qi/examples/optiga\example_optiga_util_read_data.c **** 
  55:C:/Users/Yushev/git/optiga-trust-qi/examples/optiga\example_optiga_util_read_data.c **** /**
  56:C:/Users/Yushev/git/optiga-trust-qi/examples/optiga\example_optiga_util_read_data.c ****  * The below example demonstrates read data/metadata functionalities
  57:C:/Users/Yushev/git/optiga-trust-qi/examples/optiga\example_optiga_util_read_data.c ****  *
  58:C:/Users/Yushev/git/optiga-trust-qi/examples/optiga\example_optiga_util_read_data.c ****  * Example for #optiga_util_read_data and #optiga_util_read_metadata
  59:C:/Users/Yushev/git/optiga-trust-qi/examples/optiga\example_optiga_util_read_data.c ****  *
  60:C:/Users/Yushev/git/optiga-trust-qi/examples/optiga\example_optiga_util_read_data.c ****  */
  61:C:/Users/Yushev/git/optiga-trust-qi/examples/optiga\example_optiga_util_read_data.c **** void example_optiga_util_read_data(void)
  62:C:/Users/Yushev/git/optiga-trust-qi/examples/optiga\example_optiga_util_read_data.c **** {
  52              	 .loc 1 62 0
  53              	 .cfi_startproc
  54              	 
  55              	 
  56              	.LVL1:
  57 0000 70B5     	 push {r4,r5,r6,lr}
  58              	.LCFI0:
  59              	 .cfi_def_cfa_offset 16
  60              	 .cfi_offset 4,-16
  61              	 .cfi_offset 5,-12
  62              	 .cfi_offset 6,-8
  63              	 .cfi_offset 14,-4
  63:C:/Users/Yushev/git/optiga-trust-qi/examples/optiga\example_optiga_util_read_data.c ****     uint16_t offset, bytes_to_read;
  64:C:/Users/Yushev/git/optiga-trust-qi/examples/optiga\example_optiga_util_read_data.c ****     uint16_t optiga_oid;
  65:C:/Users/Yushev/git/optiga-trust-qi/examples/optiga\example_optiga_util_read_data.c ****     uint8_t read_data_buffer[1024];
  66:C:/Users/Yushev/git/optiga-trust-qi/examples/optiga\example_optiga_util_read_data.c ****     optiga_lib_status_t return_status = !OPTIGA_LIB_SUCCESS;
  67:C:/Users/Yushev/git/optiga-trust-qi/examples/optiga\example_optiga_util_read_data.c ****     optiga_util_t * me = NULL;
  68:C:/Users/Yushev/git/optiga-trust-qi/examples/optiga\example_optiga_util_read_data.c ****     OPTIGA_EXAMPLE_LOG_MESSAGE(__FUNCTION__);
  64              	 .loc 1 68 0
  65 0002 3348     	 ldr r0,.L31
  66 0004 3349     	 ldr r1,.L31+4
  67 0006 344A     	 ldr r2,.L31+8
  62:C:/Users/Yushev/git/optiga-trust-qi/examples/optiga\example_optiga_util_read_data.c ****     uint16_t offset, bytes_to_read;
  68              	 .loc 1 62 0
  69 0008 ADF5826D 	 sub sp,sp,#1040
  70              	.LCFI1:
  71              	 .cfi_def_cfa_offset 1056
  72              	 .loc 1 68 0
  73 000c FFF7FEFF 	 bl optiga_lib_print_message
  74              	.LVL2:
  69:C:/Users/Yushev/git/optiga-trust-qi/examples/optiga\example_optiga_util_read_data.c **** 
  70:C:/Users/Yushev/git/optiga-trust-qi/examples/optiga\example_optiga_util_read_data.c ****     do
  71:C:/Users/Yushev/git/optiga-trust-qi/examples/optiga\example_optiga_util_read_data.c ****     {
  72:C:/Users/Yushev/git/optiga-trust-qi/examples/optiga\example_optiga_util_read_data.c ****         /**
  73:C:/Users/Yushev/git/optiga-trust-qi/examples/optiga\example_optiga_util_read_data.c ****          * 1. Create OPTIGA Util Instance
  74:C:/Users/Yushev/git/optiga-trust-qi/examples/optiga\example_optiga_util_read_data.c ****          */
  75:C:/Users/Yushev/git/optiga-trust-qi/examples/optiga\example_optiga_util_read_data.c ****         me = optiga_util_create(0, optiga_util_callback, NULL);
  75              	 .loc 1 75 0
  76 0010 0020     	 movs r0,#0
  77 0012 3249     	 ldr r1,.L31+12
  78 0014 0246     	 mov r2,r0
  79 0016 FFF7FEFF 	 bl optiga_util_create
  80              	.LVL3:
  76:C:/Users/Yushev/git/optiga-trust-qi/examples/optiga\example_optiga_util_read_data.c ****         if (NULL == me)
  81              	 .loc 1 76 0
  82 001a 0446     	 mov r4,r0
  83 001c 0028     	 cmp r0,#0
  84 001e 52D0     	 beq .L15
  85              	.LVL4:
  77:C:/Users/Yushev/git/optiga-trust-qi/examples/optiga\example_optiga_util_read_data.c ****         {
  78:C:/Users/Yushev/git/optiga-trust-qi/examples/optiga\example_optiga_util_read_data.c ****             break;
  79:C:/Users/Yushev/git/optiga-trust-qi/examples/optiga\example_optiga_util_read_data.c ****         }
  80:C:/Users/Yushev/git/optiga-trust-qi/examples/optiga\example_optiga_util_read_data.c **** 
  81:C:/Users/Yushev/git/optiga-trust-qi/examples/optiga\example_optiga_util_read_data.c ****         //Read device end entity certificate from OPTIGA
  82:C:/Users/Yushev/git/optiga-trust-qi/examples/optiga\example_optiga_util_read_data.c ****         optiga_oid = 0xE0E0;
  83:C:/Users/Yushev/git/optiga-trust-qi/examples/optiga\example_optiga_util_read_data.c ****         offset = 0x00;
  84:C:/Users/Yushev/git/optiga-trust-qi/examples/optiga\example_optiga_util_read_data.c ****         bytes_to_read = sizeof(read_data_buffer);
  86              	 .loc 1 84 0
  87 0020 0DF10E06 	 add r6,sp,#14
  88 0024 4FF48063 	 mov r3,#1024
  85:C:/Users/Yushev/git/optiga-trust-qi/examples/optiga\example_optiga_util_read_data.c **** 
  86:C:/Users/Yushev/git/optiga-trust-qi/examples/optiga\example_optiga_util_read_data.c ****         // OPTIGA Comms Shielded connection settings to enable the protection
  87:C:/Users/Yushev/git/optiga-trust-qi/examples/optiga\example_optiga_util_read_data.c ****         OPTIGA_UTIL_SET_COMMS_PROTOCOL_VERSION(me, OPTIGA_COMMS_PROTOCOL_VERSION_PRE_SHARED_SECRET)
  89              	 .loc 1 87 0
  90 0028 0221     	 movs r1,#2
  91 002a 0122     	 movs r2,#1
  84:C:/Users/Yushev/git/optiga-trust-qi/examples/optiga\example_optiga_util_read_data.c **** 
  92              	 .loc 1 84 0
  93 002c 3380     	 strh r3,[r6]
  88:C:/Users/Yushev/git/optiga-trust-qi/examples/optiga\example_optiga_util_read_data.c ****         OPTIGA_UTIL_SET_COMMS_PROTECTION_LEVEL(me, OPTIGA_COMMS_RESPONSE_PROTECTION);
  89:C:/Users/Yushev/git/optiga-trust-qi/examples/optiga\example_optiga_util_read_data.c **** 
  90:C:/Users/Yushev/git/optiga-trust-qi/examples/optiga\example_optiga_util_read_data.c ****         /**
  91:C:/Users/Yushev/git/optiga-trust-qi/examples/optiga\example_optiga_util_read_data.c ****          * 2. Read data from a data object (e.g. certificate data object)
  92:C:/Users/Yushev/git/optiga-trust-qi/examples/optiga\example_optiga_util_read_data.c ****          *    using optiga_util_read_data.
  93:C:/Users/Yushev/git/optiga-trust-qi/examples/optiga\example_optiga_util_read_data.c ****          */
  94:C:/Users/Yushev/git/optiga-trust-qi/examples/optiga\example_optiga_util_read_data.c ****         optiga_lib_status = OPTIGA_LIB_BUSY;
  94              	 .loc 1 94 0
  95 002e 2C4D     	 ldr r5,.L31+16
  87:C:/Users/Yushev/git/optiga-trust-qi/examples/optiga\example_optiga_util_read_data.c ****         OPTIGA_UTIL_SET_COMMS_PROTECTION_LEVEL(me, OPTIGA_COMMS_RESPONSE_PROTECTION);
  96              	 .loc 1 87 0
  97 0030 FFF7FEFF 	 bl optiga_util_set_comms_params
  98              	.LVL5:
  88:C:/Users/Yushev/git/optiga-trust-qi/examples/optiga\example_optiga_util_read_data.c ****         OPTIGA_UTIL_SET_COMMS_PROTECTION_LEVEL(me, OPTIGA_COMMS_RESPONSE_PROTECTION);
  99              	 .loc 1 88 0
 100 0034 2046     	 mov r0,r4
 101 0036 0121     	 movs r1,#1
 102 0038 0222     	 movs r2,#2
 103 003a FFF7FEFF 	 bl optiga_util_set_comms_params
 104              	.LVL6:
 105              	 .loc 1 94 0
 106 003e 0123     	 movs r3,#1
 107 0040 2B80     	 strh r3,[r5]
  95:C:/Users/Yushev/git/optiga-trust-qi/examples/optiga\example_optiga_util_read_data.c ****         return_status = optiga_util_read_data(me,
 108              	 .loc 1 95 0
 109 0042 0022     	 movs r2,#0
 110 0044 0096     	 str r6,[sp]
 111 0046 2046     	 mov r0,r4
 112 0048 4EF2E001 	 movw r1,#57568
 113 004c 04AB     	 add r3,sp,#16
 114 004e FFF7FEFF 	 bl optiga_util_read_data
 115              	.LVL7:
  96:C:/Users/Yushev/git/optiga-trust-qi/examples/optiga\example_optiga_util_read_data.c ****                                               optiga_oid,
  97:C:/Users/Yushev/git/optiga-trust-qi/examples/optiga\example_optiga_util_read_data.c ****                                               offset,
  98:C:/Users/Yushev/git/optiga-trust-qi/examples/optiga\example_optiga_util_read_data.c ****                                               read_data_buffer,
  99:C:/Users/Yushev/git/optiga-trust-qi/examples/optiga\example_optiga_util_read_data.c ****                                               &bytes_to_read);
 100:C:/Users/Yushev/git/optiga-trust-qi/examples/optiga\example_optiga_util_read_data.c **** 
 101:C:/Users/Yushev/git/optiga-trust-qi/examples/optiga\example_optiga_util_read_data.c ****         WAIT_AND_CHECK_STATUS(return_status, optiga_lib_status);
 116              	 .loc 1 101 0
 117 0052 0246     	 mov r2,r0
 118 0054 10BB     	 cbnz r0,.L14
 119              	.L6:
 120              	 .loc 1 101 0 is_stmt 0 discriminator 1
 121 0056 2A88     	 ldrh r2,[r5]
 122 0058 214B     	 ldr r3,.L31+16
 123 005a 92B2     	 uxth r2,r2
 124 005c 012A     	 cmp r2,#1
 125 005e FAD0     	 beq .L6
 126              	 .loc 1 101 0 discriminator 2
 127 0060 1A88     	 ldrh r2,[r3]
 128 0062 92B2     	 uxth r2,r2
 129 0064 0AB1     	 cbz r2,.L7
 130              	 .loc 1 101 0 discriminator 3
 131 0066 1A88     	 ldrh r2,[r3]
 132 0068 16E0     	 b .L29
 133              	.L7:
 102:C:/Users/Yushev/git/optiga-trust-qi/examples/optiga\example_optiga_util_read_data.c ****         /**
 103:C:/Users/Yushev/git/optiga-trust-qi/examples/optiga\example_optiga_util_read_data.c ****          * Read metadata of a data object (e.g. certificate data object E0E0)
 104:C:/Users/Yushev/git/optiga-trust-qi/examples/optiga\example_optiga_util_read_data.c ****          * using optiga_util_read_data.
 105:C:/Users/Yushev/git/optiga-trust-qi/examples/optiga\example_optiga_util_read_data.c ****          */
 106:C:/Users/Yushev/git/optiga-trust-qi/examples/optiga\example_optiga_util_read_data.c ****         optiga_oid = 0xE0E0;
 107:C:/Users/Yushev/git/optiga-trust-qi/examples/optiga\example_optiga_util_read_data.c ****         bytes_to_read = sizeof(read_data_buffer);
 134              	 .loc 1 107 0 is_stmt 1
 135 006a 4FF48062 	 mov r2,#1024
 136 006e 3280     	 strh r2,[r6]
 108:C:/Users/Yushev/git/optiga-trust-qi/examples/optiga\example_optiga_util_read_data.c ****         optiga_lib_status = OPTIGA_LIB_BUSY;
 137              	 .loc 1 108 0
 138 0070 0122     	 movs r2,#1
 139 0072 1A80     	 strh r2,[r3]
 109:C:/Users/Yushev/git/optiga-trust-qi/examples/optiga\example_optiga_util_read_data.c ****         return_status = optiga_util_read_metadata(me,
 140              	 .loc 1 109 0
 141 0074 2046     	 mov r0,r4
 142              	.LVL8:
 143 0076 04AA     	 add r2,sp,#16
 144 0078 4EF2E001 	 movw r1,#57568
 145 007c 3346     	 mov r3,r6
 146 007e FFF7FEFF 	 bl optiga_util_read_metadata
 147              	.LVL9:
 110:C:/Users/Yushev/git/optiga-trust-qi/examples/optiga\example_optiga_util_read_data.c ****                                                   optiga_oid,
 111:C:/Users/Yushev/git/optiga-trust-qi/examples/optiga\example_optiga_util_read_data.c ****                                                   read_data_buffer,
 112:C:/Users/Yushev/git/optiga-trust-qi/examples/optiga\example_optiga_util_read_data.c ****                                                   &bytes_to_read);
 113:C:/Users/Yushev/git/optiga-trust-qi/examples/optiga\example_optiga_util_read_data.c **** 
 114:C:/Users/Yushev/git/optiga-trust-qi/examples/optiga\example_optiga_util_read_data.c ****         WAIT_AND_CHECK_STATUS(return_status, optiga_lib_status);
 148              	 .loc 1 114 0
 149 0082 0246     	 mov r2,r0
 150 0084 50B9     	 cbnz r0,.L14
 151              	.L9:
 152              	 .loc 1 114 0 is_stmt 0 discriminator 1
 153 0086 2B88     	 ldrh r3,[r5]
 154 0088 154A     	 ldr r2,.L31+16
 155 008a 9BB2     	 uxth r3,r3
 156 008c 012B     	 cmp r3,#1
 157 008e FAD0     	 beq .L9
 158              	 .loc 1 114 0 discriminator 2
 159 0090 1388     	 ldrh r3,[r2]
 160 0092 9BB2     	 uxth r3,r3
 161 0094 43B1     	 cbz r3,.L10
 162              	 .loc 1 114 0 discriminator 3
 163 0096 1288     	 ldrh r2,[r2]
 164              	.L29:
 165 0098 92B2     	 uxth r2,r2
 166              	.LVL10:
 115:C:/Users/Yushev/git/optiga-trust-qi/examples/optiga\example_optiga_util_read_data.c ****         return_status = OPTIGA_LIB_SUCCESS;
 116:C:/Users/Yushev/git/optiga-trust-qi/examples/optiga\example_optiga_util_read_data.c ****     } while (FALSE);
 117:C:/Users/Yushev/git/optiga-trust-qi/examples/optiga\example_optiga_util_read_data.c ****     OPTIGA_EXAMPLE_LOG_STATUS(return_status);
 167              	 .loc 1 117 0 is_stmt 1 discriminator 3
 168 009a 2AB1     	 cbz r2,.L10
 169              	.LVL11:
 170              	.L14:
 171              	 .loc 1 117 0 is_stmt 0 discriminator 1
 172 009c 0D48     	 ldr r0,.L31+4
 173 009e 1149     	 ldr r1,.L31+20
 174 00a0 FFF7FEFF 	 bl optiga_lib_print_status
 175              	.LVL12:
 118:C:/Users/Yushev/git/optiga-trust-qi/examples/optiga\example_optiga_util_read_data.c **** 
 119:C:/Users/Yushev/git/optiga-trust-qi/examples/optiga\example_optiga_util_read_data.c ****     if (me)
 176              	 .loc 1 119 0 is_stmt 1 discriminator 1
 177 00a4 2CB9     	 cbnz r4,.L11
 178 00a6 10E0     	 b .L4
 179              	.LVL13:
 180              	.L10:
 117:C:/Users/Yushev/git/optiga-trust-qi/examples/optiga\example_optiga_util_read_data.c **** 
 181              	 .loc 1 117 0
 182 00a8 0A48     	 ldr r0,.L31+4
 183 00aa 0B49     	 ldr r1,.L31+8
 184 00ac 0022     	 movs r2,#0
 185 00ae FFF7FEFF 	 bl optiga_lib_print_status
 186              	.LVL14:
 187              	.L11:
 120:C:/Users/Yushev/git/optiga-trust-qi/examples/optiga\example_optiga_util_read_data.c ****     {
 121:C:/Users/Yushev/git/optiga-trust-qi/examples/optiga\example_optiga_util_read_data.c ****         //Destroy the instance after the completion of usecase if not required.
 122:C:/Users/Yushev/git/optiga-trust-qi/examples/optiga\example_optiga_util_read_data.c ****         return_status = optiga_util_destroy(me);
 188              	 .loc 1 122 0
 189 00b2 2046     	 mov r0,r4
 190 00b4 FFF7FEFF 	 bl optiga_util_destroy
 191              	.LVL15:
 123:C:/Users/Yushev/git/optiga-trust-qi/examples/optiga\example_optiga_util_read_data.c ****         if(OPTIGA_LIB_SUCCESS != return_status)
 192              	 .loc 1 123 0
 193 00b8 0246     	 mov r2,r0
 194 00ba 30B1     	 cbz r0,.L4
 124:C:/Users/Yushev/git/optiga-trust-qi/examples/optiga\example_optiga_util_read_data.c ****         {
 125:C:/Users/Yushev/git/optiga-trust-qi/examples/optiga\example_optiga_util_read_data.c ****             //lint --e{774} suppress This is a generic macro
 126:C:/Users/Yushev/git/optiga-trust-qi/examples/optiga\example_optiga_util_read_data.c ****             OPTIGA_EXAMPLE_LOG_STATUS(return_status);
 195              	 .loc 1 126 0 discriminator 1
 196 00bc 0548     	 ldr r0,.L31+4
 197              	.LVL16:
 198 00be 0949     	 ldr r1,.L31+20
 199 00c0 FFF7FEFF 	 bl optiga_lib_print_status
 200              	.LVL17:
 201 00c4 01E0     	 b .L4
 202              	.LVL18:
 203              	.L15:
  66:C:/Users/Yushev/git/optiga-trust-qi/examples/optiga\example_optiga_util_read_data.c ****     optiga_util_t * me = NULL;
 204              	 .loc 1 66 0
 205 00c6 0122     	 movs r2,#1
 206 00c8 E8E7     	 b .L14
 207              	.LVL19:
 208              	.L4:
 127:C:/Users/Yushev/git/optiga-trust-qi/examples/optiga\example_optiga_util_read_data.c ****         }
 128:C:/Users/Yushev/git/optiga-trust-qi/examples/optiga\example_optiga_util_read_data.c ****     }
 129:C:/Users/Yushev/git/optiga-trust-qi/examples/optiga\example_optiga_util_read_data.c **** 
 130:C:/Users/Yushev/git/optiga-trust-qi/examples/optiga\example_optiga_util_read_data.c **** }
 209              	 .loc 1 130 0
 210 00ca 0DF5826D 	 add sp,sp,#1040
 211              	.LCFI2:
 212              	 .cfi_def_cfa_offset 16
 213              	 
 214 00ce 70BD     	 pop {r4,r5,r6,pc}
 215              	.LVL20:
 216              	.L32:
 217              	 .align 2
 218              	.L31:
 219 00d0 00000000 	 .word .LANCHOR1
 220 00d4 00000000 	 .word .LC0
 221 00d8 15000000 	 .word .LC1
 222 00dc 00000000 	 .word optiga_util_callback
 223 00e0 00000000 	 .word .LANCHOR0
 224 00e4 1A000000 	 .word .LC2
 225              	 .cfi_endproc
 226              	.LFE1:
 228              	 .section .rodata.__FUNCTION__.5865,"a",%progbits
 229              	 .set .LANCHOR1,.+0
 232              	__FUNCTION__.5865:
 233 0000 6578616D 	 .ascii "example_optiga_util_read_data\000"
 233      706C655F 
 233      6F707469 
 233      67615F75 
 233      74696C5F 
 234              	 .section .rodata.str1.1,"aMS",%progbits,1
 235              	.LC0:
 236 0000 5B6F7074 	 .ascii "[optiga example]  : \000"
 236      69676120 
 236      6578616D 
 236      706C655D 
 236      20203A20 
 237              	.LC1:
 238 0015 1B5B306D 	 .ascii "\033[0m\000"
 238      00
 239              	.LC2:
 240 001a 1B5B3331 	 .ascii "\033[31m\000"
 240      6D00
 241              	 .section .bss.optiga_lib_status,"aw",%nobits
 242              	 .align 1
 243              	 .set .LANCHOR0,.+0
 246              	optiga_lib_status:
 247 0000 0000     	 .space 2
 248              	 .text
 249              	.Letext0:
 250              	 .file 2 "c:\\users\\yushev\\dave_4-4-2_32bit_2018-02-23\\dave-ide-4.4.2-32bit\\eclipse\\arm-gcc-49\\arm-none-eabi\\include\\machine\\_default_types.h"
 251              	 .file 3 "c:\\users\\yushev\\dave_4-4-2_32bit_2018-02-23\\dave-ide-4.4.2-32bit\\eclipse\\arm-gcc-49\\arm-none-eabi\\include\\stdint.h"
 252              	 .file 4 "C:/Users/Yushev/git/optiga-trust-qi/optiga/include/optiga/common/optiga_lib_types.h"
 253              	 .file 5 "C:/Users/Yushev/git/optiga-trust-qi/optiga/include/optiga/common/optiga_lib_common.h"
 254              	 .file 6 "C:/Users/Yushev/git/optiga-trust-qi/optiga/include/optiga/cmd/optiga_cmd.h"
 255              	 .file 7 "C:/Users/Yushev/git/optiga-trust-qi/optiga/include/optiga/optiga_util.h"
 256              	 .file 8 "C:/Users/Yushev/git/optiga-trust-qi/optiga/include/optiga/common/optiga_lib_logger.h"