   1              	 .syntax unified
   2              	 .cpu cortex-m4
   3              	 .eabi_attribute 27,3
   4              	 .fpu fpv4-sp-d16
   5              	 .eabi_attribute 20,1
   6              	 .eabi_attribute 21,1
   7              	 .eabi_attribute 23,3
   8              	 .eabi_attribute 24,1
   9              	 .eabi_attribute 25,1
  10              	 .eabi_attribute 26,1
  11              	 .eabi_attribute 30,4
  12              	 .eabi_attribute 34,1
  13              	 .eabi_attribute 18,4
  14              	 .thumb
  15              	 .file "example_optiga_crypt_hash.c"
  16              	 .text
  17              	.Ltext0:
  18              	 .cfi_sections .debug_frame
  19              	 .section .text.optiga_crypt_callback,"ax",%progbits
  20              	 .align 1
  21              	 .thumb
  22              	 .thumb_func
  24              	optiga_crypt_callback:
  25              	.LFB0:
  26              	 .file 1 "C:/Users/Yushev/git/optiga-trust-qi/examples/optiga/example_optiga_crypt_hash.c"
   1:C:/Users/Yushev/git/optiga-trust-qi/examples/optiga\example_optiga_crypt_hash.c **** /**
   2:C:/Users/Yushev/git/optiga-trust-qi/examples/optiga\example_optiga_crypt_hash.c **** * \copyright
   3:C:/Users/Yushev/git/optiga-trust-qi/examples/optiga\example_optiga_crypt_hash.c **** * MIT License
   4:C:/Users/Yushev/git/optiga-trust-qi/examples/optiga\example_optiga_crypt_hash.c **** *
   5:C:/Users/Yushev/git/optiga-trust-qi/examples/optiga\example_optiga_crypt_hash.c **** * Copyright (c) 2020 Infineon Technologies AG
   6:C:/Users/Yushev/git/optiga-trust-qi/examples/optiga\example_optiga_crypt_hash.c **** *
   7:C:/Users/Yushev/git/optiga-trust-qi/examples/optiga\example_optiga_crypt_hash.c **** * Permission is hereby granted, free of charge, to any person obtaining a copy
   8:C:/Users/Yushev/git/optiga-trust-qi/examples/optiga\example_optiga_crypt_hash.c **** * of this software and associated documentation files (the "Software"), to deal
   9:C:/Users/Yushev/git/optiga-trust-qi/examples/optiga\example_optiga_crypt_hash.c **** * in the Software without restriction, including without limitation the rights
  10:C:/Users/Yushev/git/optiga-trust-qi/examples/optiga\example_optiga_crypt_hash.c **** * to use, copy, modify, merge, publish, distribute, sublicense, and/or sell
  11:C:/Users/Yushev/git/optiga-trust-qi/examples/optiga\example_optiga_crypt_hash.c **** * copies of the Software, and to permit persons to whom the Software is
  12:C:/Users/Yushev/git/optiga-trust-qi/examples/optiga\example_optiga_crypt_hash.c **** * furnished to do so, subject to the following conditions:
  13:C:/Users/Yushev/git/optiga-trust-qi/examples/optiga\example_optiga_crypt_hash.c **** *
  14:C:/Users/Yushev/git/optiga-trust-qi/examples/optiga\example_optiga_crypt_hash.c **** * The above copyright notice and this permission notice shall be included in all
  15:C:/Users/Yushev/git/optiga-trust-qi/examples/optiga\example_optiga_crypt_hash.c **** * copies or substantial portions of the Software.
  16:C:/Users/Yushev/git/optiga-trust-qi/examples/optiga\example_optiga_crypt_hash.c **** *
  17:C:/Users/Yushev/git/optiga-trust-qi/examples/optiga\example_optiga_crypt_hash.c **** * THE SOFTWARE IS PROVIDED "AS IS", WITHOUT WARRANTY OF ANY KIND, EXPRESS OR
  18:C:/Users/Yushev/git/optiga-trust-qi/examples/optiga\example_optiga_crypt_hash.c **** * IMPLIED, INCLUDING BUT NOT LIMITED TO THE WARRANTIES OF MERCHANTABILITY,
  19:C:/Users/Yushev/git/optiga-trust-qi/examples/optiga\example_optiga_crypt_hash.c **** * FITNESS FOR A PARTICULAR PURPOSE AND NONINFRINGEMENT. IN NO EVENT SHALL THE
  20:C:/Users/Yushev/git/optiga-trust-qi/examples/optiga\example_optiga_crypt_hash.c **** * AUTHORS OR COPYRIGHT HOLDERS BE LIABLE FOR ANY CLAIM, DAMAGES OR OTHER
  21:C:/Users/Yushev/git/optiga-trust-qi/examples/optiga\example_optiga_crypt_hash.c **** * LIABILITY, WHETHER IN AN ACTION OF CONTRACT, TORT OR OTHERWISE, ARISING FROM,
  22:C:/Users/Yushev/git/optiga-trust-qi/examples/optiga\example_optiga_crypt_hash.c **** * OUT OF OR IN CONNECTION WITH THE SOFTWARE OR THE USE OR OTHER DEALINGS IN THE
  23:C:/Users/Yushev/git/optiga-trust-qi/examples/optiga\example_optiga_crypt_hash.c **** * SOFTWARE
  24:C:/Users/Yushev/git/optiga-trust-qi/examples/optiga\example_optiga_crypt_hash.c **** *
  25:C:/Users/Yushev/git/optiga-trust-qi/examples/optiga\example_optiga_crypt_hash.c **** * \endcopyright
  26:C:/Users/Yushev/git/optiga-trust-qi/examples/optiga\example_optiga_crypt_hash.c **** *
  27:C:/Users/Yushev/git/optiga-trust-qi/examples/optiga\example_optiga_crypt_hash.c **** * \author Infineon Technologies AG
  28:C:/Users/Yushev/git/optiga-trust-qi/examples/optiga\example_optiga_crypt_hash.c **** *
  29:C:/Users/Yushev/git/optiga-trust-qi/examples/optiga\example_optiga_crypt_hash.c **** * \file example_optiga_crypt_hash.c
  30:C:/Users/Yushev/git/optiga-trust-qi/examples/optiga\example_optiga_crypt_hash.c **** *
  31:C:/Users/Yushev/git/optiga-trust-qi/examples/optiga\example_optiga_crypt_hash.c **** * \brief    This file provides the example for hashing operations using
  32:C:/Users/Yushev/git/optiga-trust-qi/examples/optiga\example_optiga_crypt_hash.c **** *           #optiga_crypt_hash_start, #optiga_crypt_hash_update and
  33:C:/Users/Yushev/git/optiga-trust-qi/examples/optiga\example_optiga_crypt_hash.c **** *           #optiga_crypt_hash_finalize.
  34:C:/Users/Yushev/git/optiga-trust-qi/examples/optiga\example_optiga_crypt_hash.c **** *
  35:C:/Users/Yushev/git/optiga-trust-qi/examples/optiga\example_optiga_crypt_hash.c **** * \ingroup grOptigaExamples
  36:C:/Users/Yushev/git/optiga-trust-qi/examples/optiga\example_optiga_crypt_hash.c **** *
  37:C:/Users/Yushev/git/optiga-trust-qi/examples/optiga\example_optiga_crypt_hash.c **** * @{
  38:C:/Users/Yushev/git/optiga-trust-qi/examples/optiga\example_optiga_crypt_hash.c **** */
  39:C:/Users/Yushev/git/optiga-trust-qi/examples/optiga\example_optiga_crypt_hash.c **** 
  40:C:/Users/Yushev/git/optiga-trust-qi/examples/optiga\example_optiga_crypt_hash.c **** #include "optiga/optiga_crypt.h"
  41:C:/Users/Yushev/git/optiga-trust-qi/examples/optiga\example_optiga_crypt_hash.c **** #include "optiga_example.h"
  42:C:/Users/Yushev/git/optiga-trust-qi/examples/optiga\example_optiga_crypt_hash.c **** 
  43:C:/Users/Yushev/git/optiga-trust-qi/examples/optiga\example_optiga_crypt_hash.c **** #ifdef OPTIGA_CRYPT_HASH_ENABLED
  44:C:/Users/Yushev/git/optiga-trust-qi/examples/optiga\example_optiga_crypt_hash.c **** 
  45:C:/Users/Yushev/git/optiga-trust-qi/examples/optiga\example_optiga_crypt_hash.c **** /**
  46:C:/Users/Yushev/git/optiga-trust-qi/examples/optiga\example_optiga_crypt_hash.c ****  * Callback when optiga_crypt_xxxx operation is completed asynchronously
  47:C:/Users/Yushev/git/optiga-trust-qi/examples/optiga\example_optiga_crypt_hash.c ****  */
  48:C:/Users/Yushev/git/optiga-trust-qi/examples/optiga\example_optiga_crypt_hash.c **** static volatile optiga_lib_status_t optiga_lib_status;
  49:C:/Users/Yushev/git/optiga-trust-qi/examples/optiga\example_optiga_crypt_hash.c **** //lint --e{818} suppress "argument "context" is not used in the sample provided"
  50:C:/Users/Yushev/git/optiga-trust-qi/examples/optiga\example_optiga_crypt_hash.c **** static void optiga_crypt_callback(void * context, optiga_lib_status_t return_status)
  51:C:/Users/Yushev/git/optiga-trust-qi/examples/optiga\example_optiga_crypt_hash.c **** {
  27              	 .loc 1 51 0
  28              	 .cfi_startproc
  29              	 
  30              	 
  31              	 
  32              	.LVL0:
  52:C:/Users/Yushev/git/optiga-trust-qi/examples/optiga\example_optiga_crypt_hash.c ****     optiga_lib_status = return_status;
  33              	 .loc 1 52 0
  34 0000 014B     	 ldr r3,.L2
  35 0002 1980     	 strh r1,[r3]
  36 0004 7047     	 bx lr
  37              	.L3:
  38 0006 00BF     	 .align 2
  39              	.L2:
  40 0008 00000000 	 .word .LANCHOR0
  41              	 .cfi_endproc
  42              	.LFE0:
  44              	 .section .text.example_optiga_crypt_hash,"ax",%progbits
  45              	 .align 1
  46              	 .global example_optiga_crypt_hash
  47              	 .thumb
  48              	 .thumb_func
  50              	example_optiga_crypt_hash:
  51              	.LFB1:
  53:C:/Users/Yushev/git/optiga-trust-qi/examples/optiga\example_optiga_crypt_hash.c ****     if (NULL != context)
  54:C:/Users/Yushev/git/optiga-trust-qi/examples/optiga\example_optiga_crypt_hash.c ****     {
  55:C:/Users/Yushev/git/optiga-trust-qi/examples/optiga\example_optiga_crypt_hash.c ****         // callback to upper layer here
  56:C:/Users/Yushev/git/optiga-trust-qi/examples/optiga\example_optiga_crypt_hash.c ****     }
  57:C:/Users/Yushev/git/optiga-trust-qi/examples/optiga\example_optiga_crypt_hash.c **** }
  58:C:/Users/Yushev/git/optiga-trust-qi/examples/optiga\example_optiga_crypt_hash.c **** 
  59:C:/Users/Yushev/git/optiga-trust-qi/examples/optiga\example_optiga_crypt_hash.c **** /**
  60:C:/Users/Yushev/git/optiga-trust-qi/examples/optiga\example_optiga_crypt_hash.c ****  * Prepare the hash context
  61:C:/Users/Yushev/git/optiga-trust-qi/examples/optiga\example_optiga_crypt_hash.c ****  */
  62:C:/Users/Yushev/git/optiga-trust-qi/examples/optiga\example_optiga_crypt_hash.c **** #define OPTIGA_HASH_CONTEXT_INIT(hash_context,p_context_buffer,context_buffer_size,hash_type) \
  63:C:/Users/Yushev/git/optiga-trust-qi/examples/optiga\example_optiga_crypt_hash.c **** {                                                               \
  64:C:/Users/Yushev/git/optiga-trust-qi/examples/optiga\example_optiga_crypt_hash.c ****     hash_context.context_buffer = p_context_buffer;             \
  65:C:/Users/Yushev/git/optiga-trust-qi/examples/optiga\example_optiga_crypt_hash.c ****     hash_context.context_buffer_length = context_buffer_size;   \
  66:C:/Users/Yushev/git/optiga-trust-qi/examples/optiga\example_optiga_crypt_hash.c ****     hash_context.hash_algo = hash_type;                         \
  67:C:/Users/Yushev/git/optiga-trust-qi/examples/optiga\example_optiga_crypt_hash.c **** }
  68:C:/Users/Yushev/git/optiga-trust-qi/examples/optiga\example_optiga_crypt_hash.c **** 
  69:C:/Users/Yushev/git/optiga-trust-qi/examples/optiga\example_optiga_crypt_hash.c **** /**
  70:C:/Users/Yushev/git/optiga-trust-qi/examples/optiga\example_optiga_crypt_hash.c ****  * The below example demonstrates the generation of digest using
  71:C:/Users/Yushev/git/optiga-trust-qi/examples/optiga\example_optiga_crypt_hash.c ****  * optiga_crypt_hash_xxxx operations.
  72:C:/Users/Yushev/git/optiga-trust-qi/examples/optiga\example_optiga_crypt_hash.c ****  *
  73:C:/Users/Yushev/git/optiga-trust-qi/examples/optiga\example_optiga_crypt_hash.c ****  * Example for #optiga_crypt_hash_start, #optiga_crypt_hash_update,
  74:C:/Users/Yushev/git/optiga-trust-qi/examples/optiga\example_optiga_crypt_hash.c ****  * #optiga_crypt_hash_finalize
  75:C:/Users/Yushev/git/optiga-trust-qi/examples/optiga\example_optiga_crypt_hash.c ****  *
  76:C:/Users/Yushev/git/optiga-trust-qi/examples/optiga\example_optiga_crypt_hash.c ****  */
  77:C:/Users/Yushev/git/optiga-trust-qi/examples/optiga\example_optiga_crypt_hash.c **** void example_optiga_crypt_hash(void)
  78:C:/Users/Yushev/git/optiga-trust-qi/examples/optiga\example_optiga_crypt_hash.c **** {
  52              	 .loc 1 78 0
  53              	 .cfi_startproc
  54              	 
  55              	 
  56              	.LVL1:
  57 0000 70B5     	 push {r4,r5,r6,lr}
  58              	.LCFI0:
  59              	 .cfi_def_cfa_offset 16
  60              	 .cfi_offset 4,-16
  61              	 .cfi_offset 5,-12
  62              	 .cfi_offset 6,-8
  63              	 .cfi_offset 14,-4
  79:C:/Users/Yushev/git/optiga-trust-qi/examples/optiga\example_optiga_crypt_hash.c ****     optiga_lib_status_t return_status = !OPTIGA_LIB_SUCCESS;
  80:C:/Users/Yushev/git/optiga-trust-qi/examples/optiga\example_optiga_crypt_hash.c **** 
  81:C:/Users/Yushev/git/optiga-trust-qi/examples/optiga\example_optiga_crypt_hash.c ****     // Note : The size of the hash context provided by OPTIGA is OPTIGA_HASH_CONTEXT_LENGTH_SHA_256
  82:C:/Users/Yushev/git/optiga-trust-qi/examples/optiga\example_optiga_crypt_hash.c ****     uint8_t hash_context_buffer [OPTIGA_HASH_CONTEXT_LENGTH_SHA_256];
  83:C:/Users/Yushev/git/optiga-trust-qi/examples/optiga\example_optiga_crypt_hash.c ****     optiga_hash_context_t hash_context;
  84:C:/Users/Yushev/git/optiga-trust-qi/examples/optiga\example_optiga_crypt_hash.c **** 
  85:C:/Users/Yushev/git/optiga-trust-qi/examples/optiga\example_optiga_crypt_hash.c ****     uint8_t data_to_hash [] = {"OPTIGA, Infineon Technologies AG"};
  64              	 .loc 1 85 0
  65 0002 3C4B     	 ldr r3,.L38
  78:C:/Users/Yushev/git/optiga-trust-qi/examples/optiga\example_optiga_crypt_hash.c ****     optiga_lib_status_t return_status = !OPTIGA_LIB_SUCCESS;
  66              	 .loc 1 78 0
  67 0004 B8B0     	 sub sp,sp,#224
  68              	.LCFI1:
  69              	 .cfi_def_cfa_offset 240
  70              	 .loc 1 85 0
  71 0006 0EAA     	 add r2,sp,#56
  72 0008 03F12005 	 add r5,r3,#32
  73 000c 1646     	 mov r6,r2
  74              	.L5:
  75 000e 1868     	 ldr r0,[r3]
  76 0010 5968     	 ldr r1,[r3,#4]
  77 0012 1446     	 mov r4,r2
  78 0014 03C4     	 stmia r4!,{r0,r1}
  79 0016 0833     	 adds r3,r3,#8
  80 0018 AB42     	 cmp r3,r5
  81 001a 2246     	 mov r2,r4
  82 001c F7D1     	 bne .L5
  83 001e 1B78     	 ldrb r3,[r3]
  84 0020 2370     	 strb r3,[r4]
  85              	.LVL2:
  86:C:/Users/Yushev/git/optiga-trust-qi/examples/optiga\example_optiga_crypt_hash.c ****     hash_data_from_host_t hash_data_host;
  87:C:/Users/Yushev/git/optiga-trust-qi/examples/optiga\example_optiga_crypt_hash.c **** 
  88:C:/Users/Yushev/git/optiga-trust-qi/examples/optiga\example_optiga_crypt_hash.c ****     uint8_t digest [32];
  89:C:/Users/Yushev/git/optiga-trust-qi/examples/optiga\example_optiga_crypt_hash.c **** 
  90:C:/Users/Yushev/git/optiga-trust-qi/examples/optiga\example_optiga_crypt_hash.c ****     optiga_crypt_t * me = NULL;
  91:C:/Users/Yushev/git/optiga-trust-qi/examples/optiga\example_optiga_crypt_hash.c ****     OPTIGA_EXAMPLE_LOG_MESSAGE(__FUNCTION__);
  86              	 .loc 1 91 0
  87 0022 3548     	 ldr r0,.L38+4
  88 0024 3549     	 ldr r1,.L38+8
  89 0026 364A     	 ldr r2,.L38+12
  90 0028 FFF7FEFF 	 bl optiga_lib_print_message
  91              	.LVL3:
  92:C:/Users/Yushev/git/optiga-trust-qi/examples/optiga\example_optiga_crypt_hash.c **** 
  93:C:/Users/Yushev/git/optiga-trust-qi/examples/optiga\example_optiga_crypt_hash.c ****     do
  94:C:/Users/Yushev/git/optiga-trust-qi/examples/optiga\example_optiga_crypt_hash.c ****     {
  95:C:/Users/Yushev/git/optiga-trust-qi/examples/optiga\example_optiga_crypt_hash.c ****         /**
  96:C:/Users/Yushev/git/optiga-trust-qi/examples/optiga\example_optiga_crypt_hash.c ****          * 1. Create OPTIGA Crypt Instance
  97:C:/Users/Yushev/git/optiga-trust-qi/examples/optiga\example_optiga_crypt_hash.c ****          */
  98:C:/Users/Yushev/git/optiga-trust-qi/examples/optiga\example_optiga_crypt_hash.c ****         me = optiga_crypt_create(0, optiga_crypt_callback, NULL);
  92              	 .loc 1 98 0
  93 002c 0020     	 movs r0,#0
  94 002e 3549     	 ldr r1,.L38+16
  95 0030 0246     	 mov r2,r0
  96 0032 FFF7FEFF 	 bl optiga_crypt_create
  97              	.LVL4:
  99:C:/Users/Yushev/git/optiga-trust-qi/examples/optiga\example_optiga_crypt_hash.c ****         if (NULL == me)
  98              	 .loc 1 99 0
  99 0036 0546     	 mov r5,r0
 100 0038 0028     	 cmp r0,#0
 101 003a 56D0     	 beq .L18
 100:C:/Users/Yushev/git/optiga-trust-qi/examples/optiga\example_optiga_crypt_hash.c ****         {
 101:C:/Users/Yushev/git/optiga-trust-qi/examples/optiga\example_optiga_crypt_hash.c ****             break;
 102:C:/Users/Yushev/git/optiga-trust-qi/examples/optiga\example_optiga_crypt_hash.c ****         }
 103:C:/Users/Yushev/git/optiga-trust-qi/examples/optiga\example_optiga_crypt_hash.c **** 
 104:C:/Users/Yushev/git/optiga-trust-qi/examples/optiga\example_optiga_crypt_hash.c ****         /**
 105:C:/Users/Yushev/git/optiga-trust-qi/examples/optiga\example_optiga_crypt_hash.c ****          * 2. Initialize the Hash context
 106:C:/Users/Yushev/git/optiga-trust-qi/examples/optiga\example_optiga_crypt_hash.c ****          */
 107:C:/Users/Yushev/git/optiga-trust-qi/examples/optiga\example_optiga_crypt_hash.c ****         OPTIGA_HASH_CONTEXT_INIT(hash_context,hash_context_buffer,  \
 102              	 .loc 1 107 0
 103 003c 17AB     	 add r3,sp,#92
 104 003e 0393     	 str r3,[sp,#12]
 105 0040 8223     	 movs r3,#130
 106 0042 0493     	 str r3,[sp,#16]
 108:C:/Users/Yushev/git/optiga-trust-qi/examples/optiga\example_optiga_crypt_hash.c ****                                  sizeof(hash_context_buffer),(uint8_t)OPTIGA_HASH_TYPE_SHA_256);
 109:C:/Users/Yushev/git/optiga-trust-qi/examples/optiga\example_optiga_crypt_hash.c **** 
 110:C:/Users/Yushev/git/optiga-trust-qi/examples/optiga\example_optiga_crypt_hash.c ****         optiga_lib_status = OPTIGA_LIB_BUSY;
 107              	 .loc 1 110 0
 108 0044 304C     	 ldr r4,.L38+20
 107:C:/Users/Yushev/git/optiga-trust-qi/examples/optiga\example_optiga_crypt_hash.c ****                                  sizeof(hash_context_buffer),(uint8_t)OPTIGA_HASH_TYPE_SHA_256);
 109              	 .loc 1 107 0
 110 0046 E223     	 movs r3,#226
 111 0048 8DF81430 	 strb r3,[sp,#20]
 111:C:/Users/Yushev/git/optiga-trust-qi/examples/optiga\example_optiga_crypt_hash.c **** 
 112:C:/Users/Yushev/git/optiga-trust-qi/examples/optiga\example_optiga_crypt_hash.c ****         /**
 113:C:/Users/Yushev/git/optiga-trust-qi/examples/optiga\example_optiga_crypt_hash.c ****          * 3. Initialize the hashing context at OPTIGA
 114:C:/Users/Yushev/git/optiga-trust-qi/examples/optiga\example_optiga_crypt_hash.c ****          */
 115:C:/Users/Yushev/git/optiga-trust-qi/examples/optiga\example_optiga_crypt_hash.c ****         return_status = optiga_crypt_hash_start(me, &hash_context);
 112              	 .loc 1 115 0
 113 004c 03A9     	 add r1,sp,#12
 110:C:/Users/Yushev/git/optiga-trust-qi/examples/optiga\example_optiga_crypt_hash.c **** 
 114              	 .loc 1 110 0
 115 004e 0123     	 movs r3,#1
 116 0050 2380     	 strh r3,[r4]
 117              	 .loc 1 115 0
 118 0052 FFF7FEFF 	 bl optiga_crypt_hash_start
 119              	.LVL5:
 116:C:/Users/Yushev/git/optiga-trust-qi/examples/optiga\example_optiga_crypt_hash.c ****         WAIT_AND_CHECK_STATUS(return_status, optiga_lib_status);
 120              	 .loc 1 116 0
 121 0056 0246     	 mov r2,r0
 122 0058 0028     	 cmp r0,#0
 123 005a 31D1     	 bne .L17
 124              	.L7:
 125              	 .loc 1 116 0 is_stmt 0 discriminator 1
 126 005c 2288     	 ldrh r2,[r4]
 127 005e 2A4B     	 ldr r3,.L38+20
 128 0060 92B2     	 uxth r2,r2
 129 0062 012A     	 cmp r2,#1
 130 0064 FAD0     	 beq .L7
 131              	 .loc 1 116 0 discriminator 2
 132 0066 1A88     	 ldrh r2,[r3]
 133 0068 92B2     	 uxth r2,r2
 134 006a 9AB9     	 cbnz r2,.L36
 117:C:/Users/Yushev/git/optiga-trust-qi/examples/optiga\example_optiga_crypt_hash.c **** 
 118:C:/Users/Yushev/git/optiga-trust-qi/examples/optiga\example_optiga_crypt_hash.c ****         /**
 119:C:/Users/Yushev/git/optiga-trust-qi/examples/optiga\example_optiga_crypt_hash.c ****          * 4. Continue hashing the data
 120:C:/Users/Yushev/git/optiga-trust-qi/examples/optiga\example_optiga_crypt_hash.c ****          */
 121:C:/Users/Yushev/git/optiga-trust-qi/examples/optiga\example_optiga_crypt_hash.c ****         hash_data_host.buffer = data_to_hash;
 122:C:/Users/Yushev/git/optiga-trust-qi/examples/optiga\example_optiga_crypt_hash.c ****         hash_data_host.length = sizeof(data_to_hash);
 135              	 .loc 1 122 0 is_stmt 1
 136 006c 2122     	 movs r2,#33
 137 006e 0292     	 str r2,[sp,#8]
 123:C:/Users/Yushev/git/optiga-trust-qi/examples/optiga\example_optiga_crypt_hash.c **** 
 124:C:/Users/Yushev/git/optiga-trust-qi/examples/optiga\example_optiga_crypt_hash.c ****         optiga_lib_status = OPTIGA_LIB_BUSY;
 138              	 .loc 1 124 0
 139 0070 0122     	 movs r2,#1
 140 0072 1A80     	 strh r2,[r3]
 125:C:/Users/Yushev/git/optiga-trust-qi/examples/optiga\example_optiga_crypt_hash.c ****         return_status = optiga_crypt_hash_update(me,
 141              	 .loc 1 125 0
 142 0074 2846     	 mov r0,r5
 143              	.LVL6:
 144 0076 03A9     	 add r1,sp,#12
 145 0078 01AB     	 add r3,sp,#4
 121:C:/Users/Yushev/git/optiga-trust-qi/examples/optiga\example_optiga_crypt_hash.c ****         hash_data_host.length = sizeof(data_to_hash);
 146              	 .loc 1 121 0
 147 007a 0196     	 str r6,[sp,#4]
 148              	 .loc 1 125 0
 149 007c FFF7FEFF 	 bl optiga_crypt_hash_update
 150              	.LVL7:
 126:C:/Users/Yushev/git/optiga-trust-qi/examples/optiga\example_optiga_crypt_hash.c ****                                                  &hash_context,
 127:C:/Users/Yushev/git/optiga-trust-qi/examples/optiga\example_optiga_crypt_hash.c ****                                                  OPTIGA_CRYPT_HOST_DATA,
 128:C:/Users/Yushev/git/optiga-trust-qi/examples/optiga\example_optiga_crypt_hash.c ****                                                  &hash_data_host);
 129:C:/Users/Yushev/git/optiga-trust-qi/examples/optiga\example_optiga_crypt_hash.c ****         WAIT_AND_CHECK_STATUS(return_status, optiga_lib_status);
 151              	 .loc 1 129 0
 152 0080 0246     	 mov r2,r0
 153 0082 E8B9     	 cbnz r0,.L17
 154              	.L10:
 155              	 .loc 1 129 0 is_stmt 0 discriminator 1
 156 0084 2288     	 ldrh r2,[r4]
 157 0086 204B     	 ldr r3,.L38+20
 158 0088 92B2     	 uxth r2,r2
 159 008a 012A     	 cmp r2,#1
 160 008c FAD0     	 beq .L10
 161              	 .loc 1 129 0 discriminator 2
 162 008e 1A88     	 ldrh r2,[r3]
 163 0090 92B2     	 uxth r2,r2
 164 0092 0AB1     	 cbz r2,.L11
 165              	.L36:
 166              	 .loc 1 129 0 discriminator 3
 167 0094 1A88     	 ldrh r2,[r3]
 168 0096 11E0     	 b .L35
 169              	.L11:
 130:C:/Users/Yushev/git/optiga-trust-qi/examples/optiga\example_optiga_crypt_hash.c **** 
 131:C:/Users/Yushev/git/optiga-trust-qi/examples/optiga\example_optiga_crypt_hash.c ****         /**
 132:C:/Users/Yushev/git/optiga-trust-qi/examples/optiga\example_optiga_crypt_hash.c ****          * 5. Finalize the hash
 133:C:/Users/Yushev/git/optiga-trust-qi/examples/optiga\example_optiga_crypt_hash.c ****          */
 134:C:/Users/Yushev/git/optiga-trust-qi/examples/optiga\example_optiga_crypt_hash.c ****         optiga_lib_status = OPTIGA_LIB_BUSY;
 170              	 .loc 1 134 0 is_stmt 1
 171 0098 0122     	 movs r2,#1
 172 009a 1A80     	 strh r2,[r3]
 135:C:/Users/Yushev/git/optiga-trust-qi/examples/optiga\example_optiga_crypt_hash.c ****         return_status = optiga_crypt_hash_finalize(me,
 173              	 .loc 1 135 0
 174 009c 2846     	 mov r0,r5
 175              	.LVL8:
 176 009e 06AA     	 add r2,sp,#24
 177 00a0 03A9     	 add r1,sp,#12
 178 00a2 FFF7FEFF 	 bl optiga_crypt_hash_finalize
 179              	.LVL9:
 136:C:/Users/Yushev/git/optiga-trust-qi/examples/optiga\example_optiga_crypt_hash.c ****                                                    &hash_context,
 137:C:/Users/Yushev/git/optiga-trust-qi/examples/optiga\example_optiga_crypt_hash.c ****                                                    digest);
 138:C:/Users/Yushev/git/optiga-trust-qi/examples/optiga\example_optiga_crypt_hash.c **** 
 139:C:/Users/Yushev/git/optiga-trust-qi/examples/optiga\example_optiga_crypt_hash.c ****         WAIT_AND_CHECK_STATUS(return_status, optiga_lib_status);
 180              	 .loc 1 139 0
 181 00a6 0246     	 mov r2,r0
 182 00a8 50B9     	 cbnz r0,.L17
 183              	.L12:
 184              	 .loc 1 139 0 is_stmt 0 discriminator 1
 185 00aa 2388     	 ldrh r3,[r4]
 186 00ac 164A     	 ldr r2,.L38+20
 187 00ae 9BB2     	 uxth r3,r3
 188 00b0 012B     	 cmp r3,#1
 189 00b2 FAD0     	 beq .L12
 190              	 .loc 1 139 0 discriminator 2
 191 00b4 1388     	 ldrh r3,[r2]
 192 00b6 9BB2     	 uxth r3,r3
 193 00b8 43B1     	 cbz r3,.L13
 194              	 .loc 1 139 0 discriminator 3
 195 00ba 1288     	 ldrh r2,[r2]
 196              	.L35:
 197 00bc 92B2     	 uxth r2,r2
 198              	.LVL10:
 140:C:/Users/Yushev/git/optiga-trust-qi/examples/optiga\example_optiga_crypt_hash.c ****         return_status = OPTIGA_LIB_SUCCESS;
 141:C:/Users/Yushev/git/optiga-trust-qi/examples/optiga\example_optiga_crypt_hash.c **** 
 142:C:/Users/Yushev/git/optiga-trust-qi/examples/optiga\example_optiga_crypt_hash.c ****     } while (FALSE);
 143:C:/Users/Yushev/git/optiga-trust-qi/examples/optiga\example_optiga_crypt_hash.c ****     OPTIGA_EXAMPLE_LOG_STATUS(return_status);
 199              	 .loc 1 143 0 is_stmt 1 discriminator 3
 200 00be 2AB1     	 cbz r2,.L13
 201              	.LVL11:
 202              	.L17:
 203              	 .loc 1 143 0 is_stmt 0 discriminator 1
 204 00c0 0E48     	 ldr r0,.L38+8
 205 00c2 1249     	 ldr r1,.L38+24
 206 00c4 FFF7FEFF 	 bl optiga_lib_print_status
 207              	.LVL12:
 144:C:/Users/Yushev/git/optiga-trust-qi/examples/optiga\example_optiga_crypt_hash.c ****     
 145:C:/Users/Yushev/git/optiga-trust-qi/examples/optiga\example_optiga_crypt_hash.c ****     if (me)
 208              	 .loc 1 145 0 is_stmt 1 discriminator 1
 209 00c8 2DB9     	 cbnz r5,.L14
 210 00ca 10E0     	 b .L4
 211              	.L13:
 143:C:/Users/Yushev/git/optiga-trust-qi/examples/optiga\example_optiga_crypt_hash.c ****     
 212              	 .loc 1 143 0
 213 00cc 0B48     	 ldr r0,.L38+8
 214 00ce 0C49     	 ldr r1,.L38+12
 215 00d0 0022     	 movs r2,#0
 216 00d2 FFF7FEFF 	 bl optiga_lib_print_status
 217              	.LVL13:
 218              	.L14:
 146:C:/Users/Yushev/git/optiga-trust-qi/examples/optiga\example_optiga_crypt_hash.c ****     {
 147:C:/Users/Yushev/git/optiga-trust-qi/examples/optiga\example_optiga_crypt_hash.c ****         //Destroy the instance after the completion of usecase if not required.
 148:C:/Users/Yushev/git/optiga-trust-qi/examples/optiga\example_optiga_crypt_hash.c ****         return_status = optiga_crypt_destroy(me);
 219              	 .loc 1 148 0
 220 00d6 2846     	 mov r0,r5
 221 00d8 FFF7FEFF 	 bl optiga_crypt_destroy
 222              	.LVL14:
 149:C:/Users/Yushev/git/optiga-trust-qi/examples/optiga\example_optiga_crypt_hash.c ****         if(OPTIGA_LIB_SUCCESS != return_status)
 223              	 .loc 1 149 0
 224 00dc 0246     	 mov r2,r0
 225 00de 30B1     	 cbz r0,.L4
 150:C:/Users/Yushev/git/optiga-trust-qi/examples/optiga\example_optiga_crypt_hash.c ****         {
 151:C:/Users/Yushev/git/optiga-trust-qi/examples/optiga\example_optiga_crypt_hash.c ****             //lint --e{774} suppress This is a generic macro
 152:C:/Users/Yushev/git/optiga-trust-qi/examples/optiga\example_optiga_crypt_hash.c ****             OPTIGA_EXAMPLE_LOG_STATUS(return_status);
 226              	 .loc 1 152 0 discriminator 1
 227 00e0 0648     	 ldr r0,.L38+8
 228              	.LVL15:
 229 00e2 0A49     	 ldr r1,.L38+24
 230 00e4 FFF7FEFF 	 bl optiga_lib_print_status
 231              	.LVL16:
 232 00e8 01E0     	 b .L4
 233              	.LVL17:
 234              	.L18:
  79:C:/Users/Yushev/git/optiga-trust-qi/examples/optiga\example_optiga_crypt_hash.c **** 
 235              	 .loc 1 79 0
 236 00ea 0122     	 movs r2,#1
 237 00ec E8E7     	 b .L17
 238              	.LVL18:
 239              	.L4:
 153:C:/Users/Yushev/git/optiga-trust-qi/examples/optiga\example_optiga_crypt_hash.c ****         }
 154:C:/Users/Yushev/git/optiga-trust-qi/examples/optiga\example_optiga_crypt_hash.c ****     }
 155:C:/Users/Yushev/git/optiga-trust-qi/examples/optiga\example_optiga_crypt_hash.c **** }
 240              	 .loc 1 155 0
 241 00ee 38B0     	 add sp,sp,#224
 242              	.LCFI2:
 243              	 .cfi_def_cfa_offset 16
 244              	 
 245 00f0 70BD     	 pop {r4,r5,r6,pc}
 246              	.LVL19:
 247              	.L39:
 248 00f2 00BF     	 .align 2
 249              	.L38:
 250 00f4 20000000 	 .word .LC0
 251 00f8 00000000 	 .word .LANCHOR1
 252 00fc 00000000 	 .word .LC1
 253 0100 15000000 	 .word .LC2
 254 0104 00000000 	 .word optiga_crypt_callback
 255 0108 00000000 	 .word .LANCHOR0
 256 010c 1A000000 	 .word .LC3
 257              	 .cfi_endproc
 258              	.LFE1:
 260              	 .section .text.example_optiga_crypt_hash_data,"ax",%progbits
 261              	 .align 1
 262              	 .global example_optiga_crypt_hash_data
 263              	 .thumb
 264              	 .thumb_func
 266              	example_optiga_crypt_hash_data:
 267              	.LFB2:
 156:C:/Users/Yushev/git/optiga-trust-qi/examples/optiga\example_optiga_crypt_hash.c **** 
 157:C:/Users/Yushev/git/optiga-trust-qi/examples/optiga\example_optiga_crypt_hash.c **** /**
 158:C:/Users/Yushev/git/optiga-trust-qi/examples/optiga\example_optiga_crypt_hash.c ****  * The below example demonstrates the generation of digest using
 159:C:/Users/Yushev/git/optiga-trust-qi/examples/optiga\example_optiga_crypt_hash.c ****  * optiga_crypt_hash operations.
 160:C:/Users/Yushev/git/optiga-trust-qi/examples/optiga\example_optiga_crypt_hash.c ****  *
 161:C:/Users/Yushev/git/optiga-trust-qi/examples/optiga\example_optiga_crypt_hash.c ****  * Example for #optiga_crypt_hash
 162:C:/Users/Yushev/git/optiga-trust-qi/examples/optiga\example_optiga_crypt_hash.c ****  *
 163:C:/Users/Yushev/git/optiga-trust-qi/examples/optiga\example_optiga_crypt_hash.c ****  */
 164:C:/Users/Yushev/git/optiga-trust-qi/examples/optiga\example_optiga_crypt_hash.c **** void example_optiga_crypt_hash_data(void)
 165:C:/Users/Yushev/git/optiga-trust-qi/examples/optiga\example_optiga_crypt_hash.c **** {
 268              	 .loc 1 165 0
 269              	 .cfi_startproc
 270              	 
 271              	 
 272              	.LVL20:
 273 0000 70B5     	 push {r4,r5,r6,lr}
 274              	.LCFI3:
 275              	 .cfi_def_cfa_offset 16
 276              	 .cfi_offset 4,-16
 277              	 .cfi_offset 5,-12
 278              	 .cfi_offset 6,-8
 279              	 .cfi_offset 14,-4
 166:C:/Users/Yushev/git/optiga-trust-qi/examples/optiga\example_optiga_crypt_hash.c ****     optiga_lib_status_t return_status = !OPTIGA_LIB_SUCCESS;
 167:C:/Users/Yushev/git/optiga-trust-qi/examples/optiga\example_optiga_crypt_hash.c **** 
 168:C:/Users/Yushev/git/optiga-trust-qi/examples/optiga\example_optiga_crypt_hash.c ****     uint8_t data_to_hash [] = {"OPTIGA, Infineon Technologies AG"};
 280              	 .loc 1 168 0
 281 0002 274B     	 ldr r3,.L62
 165:C:/Users/Yushev/git/optiga-trust-qi/examples/optiga\example_optiga_crypt_hash.c ****     optiga_lib_status_t return_status = !OPTIGA_LIB_SUCCESS;
 282              	 .loc 1 165 0
 283 0004 96B0     	 sub sp,sp,#88
 284              	.LCFI4:
 285              	 .cfi_def_cfa_offset 104
 286              	 .loc 1 168 0
 287 0006 0DAA     	 add r2,sp,#52
 288 0008 03F12005 	 add r5,r3,#32
 289 000c 1646     	 mov r6,r2
 290              	.L41:
 291 000e 1868     	 ldr r0,[r3]
 292 0010 5968     	 ldr r1,[r3,#4]
 293 0012 1446     	 mov r4,r2
 294 0014 03C4     	 stmia r4!,{r0,r1}
 295 0016 0833     	 adds r3,r3,#8
 296 0018 AB42     	 cmp r3,r5
 297 001a 2246     	 mov r2,r4
 298 001c F7D1     	 bne .L41
 299 001e 1B78     	 ldrb r3,[r3]
 300 0020 2370     	 strb r3,[r4]
 301              	.LVL21:
 169:C:/Users/Yushev/git/optiga-trust-qi/examples/optiga\example_optiga_crypt_hash.c ****     hash_data_from_host_t hash_data_host;
 170:C:/Users/Yushev/git/optiga-trust-qi/examples/optiga\example_optiga_crypt_hash.c **** 
 171:C:/Users/Yushev/git/optiga-trust-qi/examples/optiga\example_optiga_crypt_hash.c ****     uint8_t digest [32];
 172:C:/Users/Yushev/git/optiga-trust-qi/examples/optiga\example_optiga_crypt_hash.c **** 
 173:C:/Users/Yushev/git/optiga-trust-qi/examples/optiga\example_optiga_crypt_hash.c ****     optiga_crypt_t * me = NULL;
 174:C:/Users/Yushev/git/optiga-trust-qi/examples/optiga\example_optiga_crypt_hash.c ****     OPTIGA_EXAMPLE_LOG_MESSAGE(__FUNCTION__);
 302              	 .loc 1 174 0
 303 0022 2048     	 ldr r0,.L62+4
 304 0024 2049     	 ldr r1,.L62+8
 305 0026 214A     	 ldr r2,.L62+12
 306 0028 FFF7FEFF 	 bl optiga_lib_print_message
 307              	.LVL22:
 175:C:/Users/Yushev/git/optiga-trust-qi/examples/optiga\example_optiga_crypt_hash.c **** 
 176:C:/Users/Yushev/git/optiga-trust-qi/examples/optiga\example_optiga_crypt_hash.c ****     do
 177:C:/Users/Yushev/git/optiga-trust-qi/examples/optiga\example_optiga_crypt_hash.c ****     {
 178:C:/Users/Yushev/git/optiga-trust-qi/examples/optiga\example_optiga_crypt_hash.c ****         /**
 179:C:/Users/Yushev/git/optiga-trust-qi/examples/optiga\example_optiga_crypt_hash.c ****          * 1. Create OPTIGA Crypt Instance
 180:C:/Users/Yushev/git/optiga-trust-qi/examples/optiga\example_optiga_crypt_hash.c ****          */
 181:C:/Users/Yushev/git/optiga-trust-qi/examples/optiga\example_optiga_crypt_hash.c ****         me = optiga_crypt_create(0, optiga_crypt_callback, NULL);
 308              	 .loc 1 181 0
 309 002c 0020     	 movs r0,#0
 310 002e 2049     	 ldr r1,.L62+16
 311 0030 0246     	 mov r2,r0
 312 0032 FFF7FEFF 	 bl optiga_crypt_create
 313              	.LVL23:
 182:C:/Users/Yushev/git/optiga-trust-qi/examples/optiga\example_optiga_crypt_hash.c ****         if (NULL == me)
 314              	 .loc 1 182 0
 315 0036 0546     	 mov r5,r0
 316 0038 0028     	 cmp r0,#0
 317 003a 2DD0     	 beq .L49
 183:C:/Users/Yushev/git/optiga-trust-qi/examples/optiga\example_optiga_crypt_hash.c ****         {
 184:C:/Users/Yushev/git/optiga-trust-qi/examples/optiga\example_optiga_crypt_hash.c ****             break;
 185:C:/Users/Yushev/git/optiga-trust-qi/examples/optiga\example_optiga_crypt_hash.c ****         }
 186:C:/Users/Yushev/git/optiga-trust-qi/examples/optiga\example_optiga_crypt_hash.c **** 
 187:C:/Users/Yushev/git/optiga-trust-qi/examples/optiga\example_optiga_crypt_hash.c ****         /**
 188:C:/Users/Yushev/git/optiga-trust-qi/examples/optiga\example_optiga_crypt_hash.c ****          * 2. Initialize the hashing context at OPTIGA
 189:C:/Users/Yushev/git/optiga-trust-qi/examples/optiga\example_optiga_crypt_hash.c ****          */
 190:C:/Users/Yushev/git/optiga-trust-qi/examples/optiga\example_optiga_crypt_hash.c ****         hash_data_host.buffer = data_to_hash;
 191:C:/Users/Yushev/git/optiga-trust-qi/examples/optiga\example_optiga_crypt_hash.c ****         hash_data_host.length = sizeof(data_to_hash);
 318              	 .loc 1 191 0
 319 003c 2123     	 movs r3,#33
 192:C:/Users/Yushev/git/optiga-trust-qi/examples/optiga\example_optiga_crypt_hash.c ****         optiga_lib_status = OPTIGA_LIB_BUSY;
 320              	 .loc 1 192 0
 321 003e 1D4C     	 ldr r4,.L62+20
 191:C:/Users/Yushev/git/optiga-trust-qi/examples/optiga\example_optiga_crypt_hash.c ****         optiga_lib_status = OPTIGA_LIB_BUSY;
 322              	 .loc 1 191 0
 323 0040 0493     	 str r3,[sp,#16]
 324              	 .loc 1 192 0
 325 0042 0122     	 movs r2,#1
 193:C:/Users/Yushev/git/optiga-trust-qi/examples/optiga\example_optiga_crypt_hash.c ****         return_status = optiga_crypt_hash(me, OPTIGA_HASH_TYPE_SHA_256, OPTIGA_CRYPT_HOST_DATA, &ha
 326              	 .loc 1 193 0
 327 0044 05AB     	 add r3,sp,#20
 192:C:/Users/Yushev/git/optiga-trust-qi/examples/optiga\example_optiga_crypt_hash.c ****         optiga_lib_status = OPTIGA_LIB_BUSY;
 328              	 .loc 1 192 0
 329 0046 2280     	 strh r2,[r4]
 330              	 .loc 1 193 0
 331 0048 E221     	 movs r1,#226
 332 004a 0093     	 str r3,[sp]
 333 004c 03AB     	 add r3,sp,#12
 190:C:/Users/Yushev/git/optiga-trust-qi/examples/optiga\example_optiga_crypt_hash.c ****         hash_data_host.length = sizeof(data_to_hash);
 334              	 .loc 1 190 0
 335 004e 0396     	 str r6,[sp,#12]
 336              	 .loc 1 193 0
 337 0050 FFF7FEFF 	 bl optiga_crypt_hash
 338              	.LVL24:
 194:C:/Users/Yushev/git/optiga-trust-qi/examples/optiga\example_optiga_crypt_hash.c ****         WAIT_AND_CHECK_STATUS(return_status, optiga_lib_status);
 339              	 .loc 1 194 0
 340 0054 0246     	 mov r2,r0
 341 0056 50B9     	 cbnz r0,.L48
 342              	.L43:
 343              	 .loc 1 194 0 is_stmt 0 discriminator 1
 344 0058 2388     	 ldrh r3,[r4]
 345 005a 164A     	 ldr r2,.L62+20
 346 005c 9BB2     	 uxth r3,r3
 347 005e 012B     	 cmp r3,#1
 348 0060 FAD0     	 beq .L43
 349              	 .loc 1 194 0 discriminator 2
 350 0062 1388     	 ldrh r3,[r2]
 351 0064 9BB2     	 uxth r3,r3
 352 0066 43B1     	 cbz r3,.L44
 353              	 .loc 1 194 0 discriminator 3
 354 0068 1288     	 ldrh r2,[r2]
 355 006a 92B2     	 uxth r2,r2
 356              	.LVL25:
 195:C:/Users/Yushev/git/optiga-trust-qi/examples/optiga\example_optiga_crypt_hash.c ****         return_status = OPTIGA_LIB_SUCCESS;
 196:C:/Users/Yushev/git/optiga-trust-qi/examples/optiga\example_optiga_crypt_hash.c **** 
 197:C:/Users/Yushev/git/optiga-trust-qi/examples/optiga\example_optiga_crypt_hash.c ****     } while (FALSE);
 198:C:/Users/Yushev/git/optiga-trust-qi/examples/optiga\example_optiga_crypt_hash.c ****     OPTIGA_EXAMPLE_LOG_STATUS(return_status);
 357              	 .loc 1 198 0 is_stmt 1 discriminator 3
 358 006c 2AB1     	 cbz r2,.L44
 359              	.LVL26:
 360              	.L48:
 361              	 .loc 1 198 0 is_stmt 0 discriminator 1
 362 006e 0E48     	 ldr r0,.L62+8
 363 0070 1149     	 ldr r1,.L62+24
 364 0072 FFF7FEFF 	 bl optiga_lib_print_status
 365              	.LVL27:
 199:C:/Users/Yushev/git/optiga-trust-qi/examples/optiga\example_optiga_crypt_hash.c ****     
 200:C:/Users/Yushev/git/optiga-trust-qi/examples/optiga\example_optiga_crypt_hash.c ****     if (me)
 366              	 .loc 1 200 0 is_stmt 1 discriminator 1
 367 0076 2DB9     	 cbnz r5,.L45
 368 0078 10E0     	 b .L40
 369              	.L44:
 198:C:/Users/Yushev/git/optiga-trust-qi/examples/optiga\example_optiga_crypt_hash.c ****     
 370              	 .loc 1 198 0 discriminator 2
 371 007a 0B48     	 ldr r0,.L62+8
 372 007c 0B49     	 ldr r1,.L62+12
 373 007e 0022     	 movs r2,#0
 374 0080 FFF7FEFF 	 bl optiga_lib_print_status
 375              	.LVL28:
 376              	.L45:
 201:C:/Users/Yushev/git/optiga-trust-qi/examples/optiga\example_optiga_crypt_hash.c ****     {
 202:C:/Users/Yushev/git/optiga-trust-qi/examples/optiga\example_optiga_crypt_hash.c ****         //Destroy the instance after the completion of usecase if not required.
 203:C:/Users/Yushev/git/optiga-trust-qi/examples/optiga\example_optiga_crypt_hash.c ****         return_status = optiga_crypt_destroy(me);
 377              	 .loc 1 203 0
 378 0084 2846     	 mov r0,r5
 379 0086 FFF7FEFF 	 bl optiga_crypt_destroy
 380              	.LVL29:
 204:C:/Users/Yushev/git/optiga-trust-qi/examples/optiga\example_optiga_crypt_hash.c ****         if(OPTIGA_LIB_SUCCESS != return_status)
 381              	 .loc 1 204 0
 382 008a 0246     	 mov r2,r0
 383 008c 30B1     	 cbz r0,.L40
 205:C:/Users/Yushev/git/optiga-trust-qi/examples/optiga\example_optiga_crypt_hash.c ****         {
 206:C:/Users/Yushev/git/optiga-trust-qi/examples/optiga\example_optiga_crypt_hash.c ****             //lint --e{774} suppress This is a generic macro
 207:C:/Users/Yushev/git/optiga-trust-qi/examples/optiga\example_optiga_crypt_hash.c ****             OPTIGA_EXAMPLE_LOG_STATUS(return_status);
 384              	 .loc 1 207 0 discriminator 1
 385 008e 0648     	 ldr r0,.L62+8
 386              	.LVL30:
 387 0090 0949     	 ldr r1,.L62+24
 388 0092 FFF7FEFF 	 bl optiga_lib_print_status
 389              	.LVL31:
 390 0096 01E0     	 b .L40
 391              	.LVL32:
 392              	.L49:
 166:C:/Users/Yushev/git/optiga-trust-qi/examples/optiga\example_optiga_crypt_hash.c **** 
 393              	 .loc 1 166 0
 394 0098 0122     	 movs r2,#1
 395 009a E8E7     	 b .L48
 396              	.LVL33:
 397              	.L40:
 208:C:/Users/Yushev/git/optiga-trust-qi/examples/optiga\example_optiga_crypt_hash.c ****         }
 209:C:/Users/Yushev/git/optiga-trust-qi/examples/optiga\example_optiga_crypt_hash.c ****     }
 210:C:/Users/Yushev/git/optiga-trust-qi/examples/optiga\example_optiga_crypt_hash.c **** }
 398              	 .loc 1 210 0
 399 009c 16B0     	 add sp,sp,#88
 400              	.LCFI5:
 401              	 .cfi_def_cfa_offset 16
 402              	 
 403 009e 70BD     	 pop {r4,r5,r6,pc}
 404              	.LVL34:
 405              	.L63:
 406              	 .align 2
 407              	.L62:
 408 00a0 20000000 	 .word .LC0
 409 00a4 00000000 	 .word .LANCHOR2
 410 00a8 00000000 	 .word .LC1
 411 00ac 15000000 	 .word .LC2
 412 00b0 00000000 	 .word optiga_crypt_callback
 413 00b4 00000000 	 .word .LANCHOR0
 414 00b8 1A000000 	 .word .LC3
 415              	 .cfi_endproc
 416              	.LFE2:
 418              	 .section .rodata.__FUNCTION__.5868,"a",%progbits
 419              	 .set .LANCHOR1,.+0
 422              	__FUNCTION__.5868:
 423 0000 6578616D 	 .ascii "example_optiga_crypt_hash\000"
 423      706C655F 
 423      6F707469 
 423      67615F63 
 423      72797074 
 424              	 .section .rodata.str1.1,"aMS",%progbits,1
 425              	.LC1:
 426 0000 5B6F7074 	 .ascii "[optiga example]  : \000"
 426      69676120 
 426      6578616D 
 426      706C655D 
 426      20203A20 
 427              	.LC2:
 428 0015 1B5B306D 	 .ascii "\033[0m\000"
 428      00
 429              	.LC3:
 430 001a 1B5B3331 	 .ascii "\033[31m\000"
 430      6D00
 431              	.LC0:
 432 0020 4F505449 	 .ascii "OPTIGA, Infineon Technologies AG\000"
 432      47412C20 
 432      496E6669 
 432      6E656F6E 
 432      20546563 
 433              	 .section .rodata.__FUNCTION__.5887,"a",%progbits
 434              	 .set .LANCHOR2,.+0
 437              	__FUNCTION__.5887:
 438 0000 6578616D 	 .ascii "example_optiga_crypt_hash_data\000"
 438      706C655F 
 438      6F707469 
 438      67615F63 
 438      72797074 
 439              	 .section .bss.optiga_lib_status,"aw",%nobits
 440              	 .align 1
 441              	 .set .LANCHOR0,.+0
 444              	optiga_lib_status:
 445 0000 0000     	 .space 2
 446              	 .text
 447              	.Letext0:
 448              	 .file 2 "c:\\users\\yushev\\dave_4-4-2_32bit_2018-02-23\\dave-ide-4.4.2-32bit\\eclipse\\arm-gcc-49\\arm-none-eabi\\include\\machine\\_default_types.h"
 449              	 .file 3 "c:\\users\\yushev\\dave_4-4-2_32bit_2018-02-23\\dave-ide-4.4.2-32bit\\eclipse\\arm-gcc-49\\arm-none-eabi\\include\\stdint.h"
 450              	 .file 4 "C:/Users/Yushev/git/optiga-trust-qi/optiga/include/optiga/common/optiga_lib_types.h"
 451              	 .file 5 "C:/Users/Yushev/git/optiga-trust-qi/optiga/include/optiga/common/optiga_lib_common.h"
 452              	 .file 6 "C:/Users/Yushev/git/optiga-trust-qi/optiga/include/optiga/cmd/optiga_cmd.h"
 453              	 .file 7 "C:/Users/Yushev/git/optiga-trust-qi/optiga/include/optiga/optiga_crypt.h"
 454              	 .file 8 "C:/Users/Yushev/git/optiga-trust-qi/optiga/include/optiga/common/optiga_lib_logger.h"