   1              	 .syntax unified
   2              	 .cpu cortex-m4
   3              	 .eabi_attribute 27,3
   4              	 .fpu fpv4-sp-d16
   5              	 .eabi_attribute 20,1
   6              	 .eabi_attribute 21,1
   7              	 .eabi_attribute 23,3
   8              	 .eabi_attribute 24,1
   9              	 .eabi_attribute 25,1
  10              	 .eabi_attribute 26,1
  11              	 .eabi_attribute 30,4
  12              	 .eabi_attribute 34,1
  13              	 .eabi_attribute 18,4
  14              	 .thumb
  15              	 .file "example_optiga_crypt_ecc_generate_keypair.c"
  16              	 .text
  17              	.Ltext0:
  18              	 .cfi_sections .debug_frame
  19              	 .section .text.optiga_crypt_callback,"ax",%progbits
  20              	 .align 1
  21              	 .thumb
  22              	 .thumb_func
  24              	optiga_crypt_callback:
  25              	.LFB0:
  26              	 .file 1 "C:/Users/Yushev/git/optiga-trust-qi/examples/optiga/example_optiga_crypt_ecc_generate_keypair.c"
   1:C:/Users/Yushev/git/optiga-trust-qi/examples/optiga\example_optiga_crypt_ecc_generate_keypair.c **** /**
   2:C:/Users/Yushev/git/optiga-trust-qi/examples/optiga\example_optiga_crypt_ecc_generate_keypair.c **** * \copyright
   3:C:/Users/Yushev/git/optiga-trust-qi/examples/optiga\example_optiga_crypt_ecc_generate_keypair.c **** * MIT License
   4:C:/Users/Yushev/git/optiga-trust-qi/examples/optiga\example_optiga_crypt_ecc_generate_keypair.c **** *
   5:C:/Users/Yushev/git/optiga-trust-qi/examples/optiga\example_optiga_crypt_ecc_generate_keypair.c **** * Copyright (c) 2020 Infineon Technologies AG
   6:C:/Users/Yushev/git/optiga-trust-qi/examples/optiga\example_optiga_crypt_ecc_generate_keypair.c **** *
   7:C:/Users/Yushev/git/optiga-trust-qi/examples/optiga\example_optiga_crypt_ecc_generate_keypair.c **** * Permission is hereby granted, free of charge, to any person obtaining a copy
   8:C:/Users/Yushev/git/optiga-trust-qi/examples/optiga\example_optiga_crypt_ecc_generate_keypair.c **** * of this software and associated documentation files (the "Software"), to deal
   9:C:/Users/Yushev/git/optiga-trust-qi/examples/optiga\example_optiga_crypt_ecc_generate_keypair.c **** * in the Software without restriction, including without limitation the rights
  10:C:/Users/Yushev/git/optiga-trust-qi/examples/optiga\example_optiga_crypt_ecc_generate_keypair.c **** * to use, copy, modify, merge, publish, distribute, sublicense, and/or sell
  11:C:/Users/Yushev/git/optiga-trust-qi/examples/optiga\example_optiga_crypt_ecc_generate_keypair.c **** * copies of the Software, and to permit persons to whom the Software is
  12:C:/Users/Yushev/git/optiga-trust-qi/examples/optiga\example_optiga_crypt_ecc_generate_keypair.c **** * furnished to do so, subject to the following conditions:
  13:C:/Users/Yushev/git/optiga-trust-qi/examples/optiga\example_optiga_crypt_ecc_generate_keypair.c **** *
  14:C:/Users/Yushev/git/optiga-trust-qi/examples/optiga\example_optiga_crypt_ecc_generate_keypair.c **** * The above copyright notice and this permission notice shall be included in all
  15:C:/Users/Yushev/git/optiga-trust-qi/examples/optiga\example_optiga_crypt_ecc_generate_keypair.c **** * copies or substantial portions of the Software.
  16:C:/Users/Yushev/git/optiga-trust-qi/examples/optiga\example_optiga_crypt_ecc_generate_keypair.c **** *
  17:C:/Users/Yushev/git/optiga-trust-qi/examples/optiga\example_optiga_crypt_ecc_generate_keypair.c **** * THE SOFTWARE IS PROVIDED "AS IS", WITHOUT WARRANTY OF ANY KIND, EXPRESS OR
  18:C:/Users/Yushev/git/optiga-trust-qi/examples/optiga\example_optiga_crypt_ecc_generate_keypair.c **** * IMPLIED, INCLUDING BUT NOT LIMITED TO THE WARRANTIES OF MERCHANTABILITY,
  19:C:/Users/Yushev/git/optiga-trust-qi/examples/optiga\example_optiga_crypt_ecc_generate_keypair.c **** * FITNESS FOR A PARTICULAR PURPOSE AND NONINFRINGEMENT. IN NO EVENT SHALL THE
  20:C:/Users/Yushev/git/optiga-trust-qi/examples/optiga\example_optiga_crypt_ecc_generate_keypair.c **** * AUTHORS OR COPYRIGHT HOLDERS BE LIABLE FOR ANY CLAIM, DAMAGES OR OTHER
  21:C:/Users/Yushev/git/optiga-trust-qi/examples/optiga\example_optiga_crypt_ecc_generate_keypair.c **** * LIABILITY, WHETHER IN AN ACTION OF CONTRACT, TORT OR OTHERWISE, ARISING FROM,
  22:C:/Users/Yushev/git/optiga-trust-qi/examples/optiga\example_optiga_crypt_ecc_generate_keypair.c **** * OUT OF OR IN CONNECTION WITH THE SOFTWARE OR THE USE OR OTHER DEALINGS IN THE
  23:C:/Users/Yushev/git/optiga-trust-qi/examples/optiga\example_optiga_crypt_ecc_generate_keypair.c **** * SOFTWARE
  24:C:/Users/Yushev/git/optiga-trust-qi/examples/optiga\example_optiga_crypt_ecc_generate_keypair.c **** *
  25:C:/Users/Yushev/git/optiga-trust-qi/examples/optiga\example_optiga_crypt_ecc_generate_keypair.c **** * \endcopyright
  26:C:/Users/Yushev/git/optiga-trust-qi/examples/optiga\example_optiga_crypt_ecc_generate_keypair.c **** *
  27:C:/Users/Yushev/git/optiga-trust-qi/examples/optiga\example_optiga_crypt_ecc_generate_keypair.c **** * \author Infineon Technologies AG
  28:C:/Users/Yushev/git/optiga-trust-qi/examples/optiga\example_optiga_crypt_ecc_generate_keypair.c **** *
  29:C:/Users/Yushev/git/optiga-trust-qi/examples/optiga\example_optiga_crypt_ecc_generate_keypair.c **** * \file example_optiga_crypt_ecc_generate_keypair.c
  30:C:/Users/Yushev/git/optiga-trust-qi/examples/optiga\example_optiga_crypt_ecc_generate_keypair.c **** *
  31:C:/Users/Yushev/git/optiga-trust-qi/examples/optiga\example_optiga_crypt_ecc_generate_keypair.c **** * \brief   This file provides the example for generation of ecc keypair using
  32:C:/Users/Yushev/git/optiga-trust-qi/examples/optiga\example_optiga_crypt_ecc_generate_keypair.c **** *          optiga_crypt_ecc_generate_keypair.
  33:C:/Users/Yushev/git/optiga-trust-qi/examples/optiga\example_optiga_crypt_ecc_generate_keypair.c **** *
  34:C:/Users/Yushev/git/optiga-trust-qi/examples/optiga\example_optiga_crypt_ecc_generate_keypair.c **** * \ingroup grOptigaExamples
  35:C:/Users/Yushev/git/optiga-trust-qi/examples/optiga\example_optiga_crypt_ecc_generate_keypair.c **** *
  36:C:/Users/Yushev/git/optiga-trust-qi/examples/optiga\example_optiga_crypt_ecc_generate_keypair.c **** * @{
  37:C:/Users/Yushev/git/optiga-trust-qi/examples/optiga\example_optiga_crypt_ecc_generate_keypair.c **** */
  38:C:/Users/Yushev/git/optiga-trust-qi/examples/optiga\example_optiga_crypt_ecc_generate_keypair.c **** #include "optiga/optiga_util.h"
  39:C:/Users/Yushev/git/optiga-trust-qi/examples/optiga\example_optiga_crypt_ecc_generate_keypair.c **** #include "optiga/optiga_crypt.h"
  40:C:/Users/Yushev/git/optiga-trust-qi/examples/optiga\example_optiga_crypt_ecc_generate_keypair.c **** #include "optiga_example.h"
  41:C:/Users/Yushev/git/optiga-trust-qi/examples/optiga\example_optiga_crypt_ecc_generate_keypair.c **** 
  42:C:/Users/Yushev/git/optiga-trust-qi/examples/optiga\example_optiga_crypt_ecc_generate_keypair.c **** #ifdef OPTIGA_CRYPT_ECC_GENERATE_KEYPAIR_ENABLED
  43:C:/Users/Yushev/git/optiga-trust-qi/examples/optiga\example_optiga_crypt_ecc_generate_keypair.c **** 
  44:C:/Users/Yushev/git/optiga-trust-qi/examples/optiga\example_optiga_crypt_ecc_generate_keypair.c **** /**
  45:C:/Users/Yushev/git/optiga-trust-qi/examples/optiga\example_optiga_crypt_ecc_generate_keypair.c ****  * Callback when optiga_crypt_xxxx operation is completed asynchronously
  46:C:/Users/Yushev/git/optiga-trust-qi/examples/optiga\example_optiga_crypt_ecc_generate_keypair.c ****  */
  47:C:/Users/Yushev/git/optiga-trust-qi/examples/optiga\example_optiga_crypt_ecc_generate_keypair.c **** static volatile optiga_lib_status_t optiga_lib_status;
  48:C:/Users/Yushev/git/optiga-trust-qi/examples/optiga\example_optiga_crypt_ecc_generate_keypair.c **** //lint --e{818} suppress "argument "context" is not used in the sample provided"
  49:C:/Users/Yushev/git/optiga-trust-qi/examples/optiga\example_optiga_crypt_ecc_generate_keypair.c **** static void optiga_crypt_callback(void * context, optiga_lib_status_t return_status)
  50:C:/Users/Yushev/git/optiga-trust-qi/examples/optiga\example_optiga_crypt_ecc_generate_keypair.c **** {
  27              	 .loc 1 50 0
  28              	 .cfi_startproc
  29              	 
  30              	 
  31              	 
  32              	.LVL0:
  51:C:/Users/Yushev/git/optiga-trust-qi/examples/optiga\example_optiga_crypt_ecc_generate_keypair.c ****     optiga_lib_status = return_status;
  33              	 .loc 1 51 0
  34 0000 014B     	 ldr r3,.L2
  35 0002 1980     	 strh r1,[r3]
  36 0004 7047     	 bx lr
  37              	.L3:
  38 0006 00BF     	 .align 2
  39              	.L2:
  40 0008 00000000 	 .word .LANCHOR0
  41              	 .cfi_endproc
  42              	.LFE0:
  44              	 .section .text.optiga_util_callback,"ax",%progbits
  45              	 .align 1
  46              	 .thumb
  47              	 .thumb_func
  49              	optiga_util_callback:
  50              	.LFB1:
  52:C:/Users/Yushev/git/optiga-trust-qi/examples/optiga\example_optiga_crypt_ecc_generate_keypair.c ****     if (NULL != context)
  53:C:/Users/Yushev/git/optiga-trust-qi/examples/optiga\example_optiga_crypt_ecc_generate_keypair.c ****     {
  54:C:/Users/Yushev/git/optiga-trust-qi/examples/optiga\example_optiga_crypt_ecc_generate_keypair.c ****         // callback to upper layer here
  55:C:/Users/Yushev/git/optiga-trust-qi/examples/optiga\example_optiga_crypt_ecc_generate_keypair.c ****     }
  56:C:/Users/Yushev/git/optiga-trust-qi/examples/optiga\example_optiga_crypt_ecc_generate_keypair.c **** }
  57:C:/Users/Yushev/git/optiga-trust-qi/examples/optiga\example_optiga_crypt_ecc_generate_keypair.c **** //lint --e{818} suppress "argument "context" is not used in the sample provided"
  58:C:/Users/Yushev/git/optiga-trust-qi/examples/optiga\example_optiga_crypt_ecc_generate_keypair.c **** static void optiga_util_callback(void * context, optiga_lib_status_t return_status)
  59:C:/Users/Yushev/git/optiga-trust-qi/examples/optiga\example_optiga_crypt_ecc_generate_keypair.c **** {
  51              	 .loc 1 59 0
  52              	 .cfi_startproc
  53              	 
  54              	 
  55              	 
  56              	.LVL1:
  60:C:/Users/Yushev/git/optiga-trust-qi/examples/optiga\example_optiga_crypt_ecc_generate_keypair.c ****     optiga_lib_status = return_status;
  57              	 .loc 1 60 0
  58 0000 014B     	 ldr r3,.L5
  59 0002 1980     	 strh r1,[r3]
  60 0004 7047     	 bx lr
  61              	.L6:
  62 0006 00BF     	 .align 2
  63              	.L5:
  64 0008 00000000 	 .word .LANCHOR0
  65              	 .cfi_endproc
  66              	.LFE1:
  68              	 .section .text.example_optiga_crypt_ecc_generate_keypair,"ax",%progbits
  69              	 .align 1
  70              	 .global example_optiga_crypt_ecc_generate_keypair
  71              	 .thumb
  72              	 .thumb_func
  74              	example_optiga_crypt_ecc_generate_keypair:
  75              	.LFB2:
  61:C:/Users/Yushev/git/optiga-trust-qi/examples/optiga\example_optiga_crypt_ecc_generate_keypair.c ****     if (NULL != context)
  62:C:/Users/Yushev/git/optiga-trust-qi/examples/optiga\example_optiga_crypt_ecc_generate_keypair.c ****     {
  63:C:/Users/Yushev/git/optiga-trust-qi/examples/optiga\example_optiga_crypt_ecc_generate_keypair.c ****         // callback to upper layer here
  64:C:/Users/Yushev/git/optiga-trust-qi/examples/optiga\example_optiga_crypt_ecc_generate_keypair.c ****     }
  65:C:/Users/Yushev/git/optiga-trust-qi/examples/optiga\example_optiga_crypt_ecc_generate_keypair.c **** }
  66:C:/Users/Yushev/git/optiga-trust-qi/examples/optiga\example_optiga_crypt_ecc_generate_keypair.c **** /**
  67:C:/Users/Yushev/git/optiga-trust-qi/examples/optiga\example_optiga_crypt_ecc_generate_keypair.c ****  * Sample metadata of 0xE0F1 
  68:C:/Users/Yushev/git/optiga-trust-qi/examples/optiga\example_optiga_crypt_ecc_generate_keypair.c ****  */
  69:C:/Users/Yushev/git/optiga-trust-qi/examples/optiga\example_optiga_crypt_ecc_generate_keypair.c **** const uint8_t E0F1_metadata[] = { 0x20, 0x06, 0xD0, 0x01, 0x00, 0xD3, 0x01, 0x00 };
  70:C:/Users/Yushev/git/optiga-trust-qi/examples/optiga\example_optiga_crypt_ecc_generate_keypair.c **** 
  71:C:/Users/Yushev/git/optiga-trust-qi/examples/optiga\example_optiga_crypt_ecc_generate_keypair.c **** /**
  72:C:/Users/Yushev/git/optiga-trust-qi/examples/optiga\example_optiga_crypt_ecc_generate_keypair.c ****  * The below example demonstrates the generation of
  73:C:/Users/Yushev/git/optiga-trust-qi/examples/optiga\example_optiga_crypt_ecc_generate_keypair.c ****  * ECC Key pair using #optiga_crypt_ecc_generate_keypair.
  74:C:/Users/Yushev/git/optiga-trust-qi/examples/optiga\example_optiga_crypt_ecc_generate_keypair.c ****  *
  75:C:/Users/Yushev/git/optiga-trust-qi/examples/optiga\example_optiga_crypt_ecc_generate_keypair.c ****  */
  76:C:/Users/Yushev/git/optiga-trust-qi/examples/optiga\example_optiga_crypt_ecc_generate_keypair.c **** void example_optiga_crypt_ecc_generate_keypair(void)
  77:C:/Users/Yushev/git/optiga-trust-qi/examples/optiga\example_optiga_crypt_ecc_generate_keypair.c **** {
  76              	 .loc 1 77 0
  77              	 .cfi_startproc
  78              	 
  79              	 
  80              	.LVL2:
  81 0000 70B5     	 push {r4,r5,r6,lr}
  82              	.LCFI0:
  83              	 .cfi_def_cfa_offset 16
  84              	 .cfi_offset 4,-16
  85              	 .cfi_offset 5,-12
  86              	 .cfi_offset 6,-8
  87              	 .cfi_offset 14,-4
  88 0002 9EB0     	 sub sp,sp,#120
  89              	.LCFI1:
  90              	 .cfi_def_cfa_offset 136
  78:C:/Users/Yushev/git/optiga-trust-qi/examples/optiga\example_optiga_crypt_ecc_generate_keypair.c ****     optiga_lib_status_t return_status = !OPTIGA_LIB_SUCCESS;
  79:C:/Users/Yushev/git/optiga-trust-qi/examples/optiga\example_optiga_crypt_ecc_generate_keypair.c ****     optiga_key_id_t optiga_key_id;
  80:C:/Users/Yushev/git/optiga-trust-qi/examples/optiga\example_optiga_crypt_ecc_generate_keypair.c **** 
  81:C:/Users/Yushev/git/optiga-trust-qi/examples/optiga\example_optiga_crypt_ecc_generate_keypair.c ****     //To store the generated public key as part of Generate key pair
  82:C:/Users/Yushev/git/optiga-trust-qi/examples/optiga\example_optiga_crypt_ecc_generate_keypair.c ****     uint8_t public_key [100];
  83:C:/Users/Yushev/git/optiga-trust-qi/examples/optiga\example_optiga_crypt_ecc_generate_keypair.c ****     uint16_t public_key_length = sizeof(public_key);
  91              	 .loc 1 83 0
  92 0004 6423     	 movs r3,#100
  84:C:/Users/Yushev/git/optiga-trust-qi/examples/optiga\example_optiga_crypt_ecc_generate_keypair.c ****     uint16_t optiga_oid;
  85:C:/Users/Yushev/git/optiga-trust-qi/examples/optiga\example_optiga_crypt_ecc_generate_keypair.c ****     
  86:C:/Users/Yushev/git/optiga-trust-qi/examples/optiga\example_optiga_crypt_ecc_generate_keypair.c ****     optiga_crypt_t * crypt_me = NULL;
  87:C:/Users/Yushev/git/optiga-trust-qi/examples/optiga\example_optiga_crypt_ecc_generate_keypair.c ****     optiga_util_t * util_me = NULL;    
  88:C:/Users/Yushev/git/optiga-trust-qi/examples/optiga\example_optiga_crypt_ecc_generate_keypair.c ****     OPTIGA_EXAMPLE_LOG_MESSAGE(__FUNCTION__);
  93              	 .loc 1 88 0
  94 0006 3648     	 ldr r0,.L45
  95 0008 3649     	 ldr r1,.L45+4
  96 000a 374A     	 ldr r2,.L45+8
  83:C:/Users/Yushev/git/optiga-trust-qi/examples/optiga\example_optiga_crypt_ecc_generate_keypair.c ****     uint16_t optiga_oid;
  97              	 .loc 1 83 0
  98 000c ADF81230 	 strh r3,[sp,#18]
  99              	.LVL3:
 100              	 .loc 1 88 0
 101 0010 FFF7FEFF 	 bl optiga_lib_print_message
 102              	.LVL4:
  89:C:/Users/Yushev/git/optiga-trust-qi/examples/optiga\example_optiga_crypt_ecc_generate_keypair.c **** 
  90:C:/Users/Yushev/git/optiga-trust-qi/examples/optiga\example_optiga_crypt_ecc_generate_keypair.c ****     do
  91:C:/Users/Yushev/git/optiga-trust-qi/examples/optiga\example_optiga_crypt_ecc_generate_keypair.c ****     {
  92:C:/Users/Yushev/git/optiga-trust-qi/examples/optiga\example_optiga_crypt_ecc_generate_keypair.c ****         /**
  93:C:/Users/Yushev/git/optiga-trust-qi/examples/optiga\example_optiga_crypt_ecc_generate_keypair.c ****          * 1. Create OPTIGA Crypt Instance
  94:C:/Users/Yushev/git/optiga-trust-qi/examples/optiga\example_optiga_crypt_ecc_generate_keypair.c ****          */
  95:C:/Users/Yushev/git/optiga-trust-qi/examples/optiga\example_optiga_crypt_ecc_generate_keypair.c ****         crypt_me = optiga_crypt_create(0, optiga_crypt_callback, NULL);
 103              	 .loc 1 95 0
 104 0014 0020     	 movs r0,#0
 105 0016 3549     	 ldr r1,.L45+12
 106 0018 0246     	 mov r2,r0
 107 001a FFF7FEFF 	 bl optiga_crypt_create
 108              	.LVL5:
  96:C:/Users/Yushev/git/optiga-trust-qi/examples/optiga\example_optiga_crypt_ecc_generate_keypair.c ****         if (NULL == crypt_me)
 109              	 .loc 1 96 0
 110 001e 0546     	 mov r5,r0
 111 0020 0028     	 cmp r0,#0
 112 0022 58D0     	 beq .L8
  97:C:/Users/Yushev/git/optiga-trust-qi/examples/optiga\example_optiga_crypt_ecc_generate_keypair.c ****         {
  98:C:/Users/Yushev/git/optiga-trust-qi/examples/optiga\example_optiga_crypt_ecc_generate_keypair.c ****             break;
  99:C:/Users/Yushev/git/optiga-trust-qi/examples/optiga\example_optiga_crypt_ecc_generate_keypair.c ****         }
 100:C:/Users/Yushev/git/optiga-trust-qi/examples/optiga\example_optiga_crypt_ecc_generate_keypair.c **** 
 101:C:/Users/Yushev/git/optiga-trust-qi/examples/optiga\example_optiga_crypt_ecc_generate_keypair.c ****         util_me = optiga_util_create(0, optiga_util_callback, NULL);
 113              	 .loc 1 101 0
 114 0024 0020     	 movs r0,#0
 115              	.LVL6:
 116 0026 3249     	 ldr r1,.L45+16
 117 0028 0246     	 mov r2,r0
 118 002a FFF7FEFF 	 bl optiga_util_create
 119              	.LVL7:
 102:C:/Users/Yushev/git/optiga-trust-qi/examples/optiga\example_optiga_crypt_ecc_generate_keypair.c ****         if (NULL == util_me)
 120              	 .loc 1 102 0
 121 002e 0646     	 mov r6,r0
 122 0030 0028     	 cmp r0,#0
 123 0032 50D0     	 beq .L8
 103:C:/Users/Yushev/git/optiga-trust-qi/examples/optiga\example_optiga_crypt_ecc_generate_keypair.c ****         {
 104:C:/Users/Yushev/git/optiga-trust-qi/examples/optiga\example_optiga_crypt_ecc_generate_keypair.c ****             break;
 105:C:/Users/Yushev/git/optiga-trust-qi/examples/optiga\example_optiga_crypt_ecc_generate_keypair.c ****         }
 106:C:/Users/Yushev/git/optiga-trust-qi/examples/optiga\example_optiga_crypt_ecc_generate_keypair.c ****         
 107:C:/Users/Yushev/git/optiga-trust-qi/examples/optiga\example_optiga_crypt_ecc_generate_keypair.c ****         optiga_lib_status = OPTIGA_LIB_BUSY;
 124              	 .loc 1 107 0
 125 0034 2F4C     	 ldr r4,.L45+20
 108:C:/Users/Yushev/git/optiga-trust-qi/examples/optiga\example_optiga_crypt_ecc_generate_keypair.c ****         optiga_oid = 0xE0F1;
 109:C:/Users/Yushev/git/optiga-trust-qi/examples/optiga\example_optiga_crypt_ecc_generate_keypair.c ****         return_status = optiga_util_write_metadata(util_me,
 126              	 .loc 1 109 0
 127 0036 304A     	 ldr r2,.L45+24
 107:C:/Users/Yushev/git/optiga-trust-qi/examples/optiga\example_optiga_crypt_ecc_generate_keypair.c ****         optiga_oid = 0xE0F1;
 128              	 .loc 1 107 0
 129 0038 0123     	 movs r3,#1
 130 003a 2380     	 strh r3,[r4]
 131              	.LVL8:
 132              	 .loc 1 109 0
 133 003c 4EF2F101 	 movw r1,#57585
 134 0040 0823     	 movs r3,#8
 135 0042 FFF7FEFF 	 bl optiga_util_write_metadata
 136              	.LVL9:
 110:C:/Users/Yushev/git/optiga-trust-qi/examples/optiga\example_optiga_crypt_ecc_generate_keypair.c ****                                                    optiga_oid,
 111:C:/Users/Yushev/git/optiga-trust-qi/examples/optiga\example_optiga_crypt_ecc_generate_keypair.c ****                                                    E0F1_metadata,
 112:C:/Users/Yushev/git/optiga-trust-qi/examples/optiga\example_optiga_crypt_ecc_generate_keypair.c ****                                                    sizeof(E0F1_metadata));
 113:C:/Users/Yushev/git/optiga-trust-qi/examples/optiga\example_optiga_crypt_ecc_generate_keypair.c **** 
 114:C:/Users/Yushev/git/optiga-trust-qi/examples/optiga\example_optiga_crypt_ecc_generate_keypair.c ****         WAIT_AND_CHECK_STATUS(return_status, optiga_lib_status);
 137              	 .loc 1 114 0
 138 0046 0246     	 mov r2,r0
 139 0048 30BB     	 cbnz r0,.L20
 140              	.L10:
 141              	 .loc 1 114 0 is_stmt 0 discriminator 1
 142 004a 2388     	 ldrh r3,[r4]
 143 004c 294A     	 ldr r2,.L45+20
 144 004e 9BB2     	 uxth r3,r3
 145 0050 012B     	 cmp r3,#1
 146 0052 FAD0     	 beq .L10
 147              	 .loc 1 114 0 discriminator 2
 148 0054 1388     	 ldrh r3,[r2]
 149 0056 9BB2     	 uxth r3,r3
 150 0058 DBB9     	 cbnz r3,.L43
 115:C:/Users/Yushev/git/optiga-trust-qi/examples/optiga\example_optiga_crypt_ecc_generate_keypair.c ****         
 116:C:/Users/Yushev/git/optiga-trust-qi/examples/optiga\example_optiga_crypt_ecc_generate_keypair.c ****         /**
 117:C:/Users/Yushev/git/optiga-trust-qi/examples/optiga\example_optiga_crypt_ecc_generate_keypair.c ****          * 2. Generate ECC Key pair
 118:C:/Users/Yushev/git/optiga-trust-qi/examples/optiga\example_optiga_crypt_ecc_generate_keypair.c ****          *       - Use ECC NIST P 256 Curve
 119:C:/Users/Yushev/git/optiga-trust-qi/examples/optiga\example_optiga_crypt_ecc_generate_keypair.c ****          *       - Specify the Key Usage (Key Agreement or Sign based on requirement)
 120:C:/Users/Yushev/git/optiga-trust-qi/examples/optiga\example_optiga_crypt_ecc_generate_keypair.c ****          *       - Store the Private key in OPTIGA Key store
 121:C:/Users/Yushev/git/optiga-trust-qi/examples/optiga\example_optiga_crypt_ecc_generate_keypair.c ****          *       - Export Public Key
 122:C:/Users/Yushev/git/optiga-trust-qi/examples/optiga\example_optiga_crypt_ecc_generate_keypair.c ****          */
 123:C:/Users/Yushev/git/optiga-trust-qi/examples/optiga\example_optiga_crypt_ecc_generate_keypair.c ****         optiga_lib_status = OPTIGA_LIB_BUSY;
 151              	 .loc 1 123 0 is_stmt 1
 152 005a 0121     	 movs r1,#1
 153 005c 1180     	 strh r1,[r2]
 124:C:/Users/Yushev/git/optiga-trust-qi/examples/optiga\example_optiga_crypt_ecc_generate_keypair.c ****         optiga_key_id = OPTIGA_KEY_ID_E0F1;
 154              	 .loc 1 124 0
 155 005e 1EAA     	 add r2,sp,#120
 156 0060 4EF2F101 	 movw r1,#57585
 157 0064 22F8681D 	 strh r1,[r2,#-104]!
 125:C:/Users/Yushev/git/optiga-trust-qi/examples/optiga\example_optiga_crypt_ecc_generate_keypair.c ****         //for Session based, use OPTIGA_KEY_ID_SESSION_BASED as key id as shown below.
 126:C:/Users/Yushev/git/optiga-trust-qi/examples/optiga\example_optiga_crypt_ecc_generate_keypair.c ****         //optiga_key_id = OPTIGA_KEY_ID_SESSION_BASED;
 127:C:/Users/Yushev/git/optiga-trust-qi/examples/optiga\example_optiga_crypt_ecc_generate_keypair.c ****         return_status = optiga_crypt_ecc_generate_keypair(crypt_me,
 158              	 .loc 1 127 0
 159 0068 0092     	 str r2,[sp]
 160 006a 05AA     	 add r2,sp,#20
 161 006c 0192     	 str r2,[sp,#4]
 162 006e 0DF11202 	 add r2,sp,#18
 163 0072 0292     	 str r2,[sp,#8]
 164 0074 2846     	 mov r0,r5
 165              	.LVL10:
 166 0076 1022     	 movs r2,#16
 167 0078 0321     	 movs r1,#3
 168 007a FFF7FEFF 	 bl optiga_crypt_ecc_generate_keypair
 169              	.LVL11:
 128:C:/Users/Yushev/git/optiga-trust-qi/examples/optiga\example_optiga_crypt_ecc_generate_keypair.c ****                                                           OPTIGA_ECC_CURVE_NIST_P_256,
 129:C:/Users/Yushev/git/optiga-trust-qi/examples/optiga\example_optiga_crypt_ecc_generate_keypair.c ****                                                           (uint8_t)OPTIGA_KEY_USAGE_SIGN,
 130:C:/Users/Yushev/git/optiga-trust-qi/examples/optiga\example_optiga_crypt_ecc_generate_keypair.c ****                                                           FALSE,
 131:C:/Users/Yushev/git/optiga-trust-qi/examples/optiga\example_optiga_crypt_ecc_generate_keypair.c ****                                                           &optiga_key_id,
 132:C:/Users/Yushev/git/optiga-trust-qi/examples/optiga\example_optiga_crypt_ecc_generate_keypair.c ****                                                           public_key,
 133:C:/Users/Yushev/git/optiga-trust-qi/examples/optiga\example_optiga_crypt_ecc_generate_keypair.c ****                                                           &public_key_length);
 134:C:/Users/Yushev/git/optiga-trust-qi/examples/optiga\example_optiga_crypt_ecc_generate_keypair.c ****         WAIT_AND_CHECK_STATUS(return_status, optiga_lib_status);
 170              	 .loc 1 134 0
 171 007e 0246     	 mov r2,r0
 172 0080 50B9     	 cbnz r0,.L20
 173              	.L13:
 174              	 .loc 1 134 0 is_stmt 0 discriminator 1
 175 0082 2388     	 ldrh r3,[r4]
 176 0084 1B4A     	 ldr r2,.L45+20
 177 0086 9BB2     	 uxth r3,r3
 178 0088 012B     	 cmp r3,#1
 179 008a FAD0     	 beq .L13
 180              	 .loc 1 134 0 discriminator 2
 181 008c 1388     	 ldrh r3,[r2]
 182 008e 9BB2     	 uxth r3,r3
 183 0090 43B1     	 cbz r3,.L14
 184              	.L43:
 185              	 .loc 1 134 0 discriminator 3
 186 0092 1288     	 ldrh r2,[r2]
 187 0094 92B2     	 uxth r2,r2
 188              	.LVL12:
 135:C:/Users/Yushev/git/optiga-trust-qi/examples/optiga\example_optiga_crypt_ecc_generate_keypair.c ****         return_status = OPTIGA_LIB_SUCCESS;
 136:C:/Users/Yushev/git/optiga-trust-qi/examples/optiga\example_optiga_crypt_ecc_generate_keypair.c ****     } while (FALSE);
 137:C:/Users/Yushev/git/optiga-trust-qi/examples/optiga\example_optiga_crypt_ecc_generate_keypair.c ****     OPTIGA_EXAMPLE_LOG_STATUS(return_status);
 189              	 .loc 1 137 0 is_stmt 1 discriminator 3
 190 0096 2AB1     	 cbz r2,.L14
 191              	.LVL13:
 192              	.L20:
 193              	 .loc 1 137 0 is_stmt 0 discriminator 1
 194 0098 1248     	 ldr r0,.L45+4
 195 009a 1849     	 ldr r1,.L45+28
 196 009c FFF7FEFF 	 bl optiga_lib_print_status
 197              	.LVL14:
 138:C:/Users/Yushev/git/optiga-trust-qi/examples/optiga\example_optiga_crypt_ecc_generate_keypair.c **** 
 139:C:/Users/Yushev/git/optiga-trust-qi/examples/optiga\example_optiga_crypt_ecc_generate_keypair.c ****     if (crypt_me)
 198              	 .loc 1 139 0 is_stmt 1 discriminator 1
 199 00a0 75B1     	 cbz r5,.L16
 200 00a2 04E0     	 b .L15
 201              	.LVL15:
 202              	.L14:
 137:C:/Users/Yushev/git/optiga-trust-qi/examples/optiga\example_optiga_crypt_ecc_generate_keypair.c **** 
 203              	 .loc 1 137 0
 204 00a4 0F48     	 ldr r0,.L45+4
 205 00a6 1049     	 ldr r1,.L45+8
 206 00a8 0022     	 movs r2,#0
 207 00aa FFF7FEFF 	 bl optiga_lib_print_status
 208              	.LVL16:
 209              	.L15:
 140:C:/Users/Yushev/git/optiga-trust-qi/examples/optiga\example_optiga_crypt_ecc_generate_keypair.c ****     {
 141:C:/Users/Yushev/git/optiga-trust-qi/examples/optiga\example_optiga_crypt_ecc_generate_keypair.c ****         //Destroy the instance after the completion of usecase if not required.
 142:C:/Users/Yushev/git/optiga-trust-qi/examples/optiga\example_optiga_crypt_ecc_generate_keypair.c ****         return_status = optiga_crypt_destroy(crypt_me);
 210              	 .loc 1 142 0
 211 00ae 2846     	 mov r0,r5
 212 00b0 FFF7FEFF 	 bl optiga_crypt_destroy
 213              	.LVL17:
 143:C:/Users/Yushev/git/optiga-trust-qi/examples/optiga\example_optiga_crypt_ecc_generate_keypair.c ****         if(OPTIGA_LIB_SUCCESS != return_status)
 214              	 .loc 1 143 0
 215 00b4 0246     	 mov r2,r0
 216 00b6 18B1     	 cbz r0,.L16
 144:C:/Users/Yushev/git/optiga-trust-qi/examples/optiga\example_optiga_crypt_ecc_generate_keypair.c ****         {
 145:C:/Users/Yushev/git/optiga-trust-qi/examples/optiga\example_optiga_crypt_ecc_generate_keypair.c ****             //lint --e{774} suppress This is a generic macro
 146:C:/Users/Yushev/git/optiga-trust-qi/examples/optiga\example_optiga_crypt_ecc_generate_keypair.c ****             OPTIGA_EXAMPLE_LOG_STATUS(return_status);
 217              	 .loc 1 146 0 discriminator 1
 218 00b8 0A48     	 ldr r0,.L45+4
 219              	.LVL18:
 220 00ba 1049     	 ldr r1,.L45+28
 221 00bc FFF7FEFF 	 bl optiga_lib_print_status
 222              	.LVL19:
 223              	.L16:
 147:C:/Users/Yushev/git/optiga-trust-qi/examples/optiga\example_optiga_crypt_ecc_generate_keypair.c ****         }
 148:C:/Users/Yushev/git/optiga-trust-qi/examples/optiga\example_optiga_crypt_ecc_generate_keypair.c ****     }
 149:C:/Users/Yushev/git/optiga-trust-qi/examples/optiga\example_optiga_crypt_ecc_generate_keypair.c ****     if (util_me)
 224              	 .loc 1 149 0
 225 00c0 66B1     	 cbz r6,.L7
 150:C:/Users/Yushev/git/optiga-trust-qi/examples/optiga\example_optiga_crypt_ecc_generate_keypair.c ****     {
 151:C:/Users/Yushev/git/optiga-trust-qi/examples/optiga\example_optiga_crypt_ecc_generate_keypair.c ****         //Destroy the instance after the completion of usecase if not required.
 152:C:/Users/Yushev/git/optiga-trust-qi/examples/optiga\example_optiga_crypt_ecc_generate_keypair.c ****         return_status = optiga_util_destroy(util_me);
 226              	 .loc 1 152 0
 227 00c2 3046     	 mov r0,r6
 228 00c4 FFF7FEFF 	 bl optiga_util_destroy
 229              	.LVL20:
 153:C:/Users/Yushev/git/optiga-trust-qi/examples/optiga\example_optiga_crypt_ecc_generate_keypair.c ****         if(OPTIGA_LIB_SUCCESS != return_status)
 230              	 .loc 1 153 0
 231 00c8 0246     	 mov r2,r0
 232 00ca 38B1     	 cbz r0,.L7
 154:C:/Users/Yushev/git/optiga-trust-qi/examples/optiga\example_optiga_crypt_ecc_generate_keypair.c ****         {
 155:C:/Users/Yushev/git/optiga-trust-qi/examples/optiga\example_optiga_crypt_ecc_generate_keypair.c ****             //lint --e{774} suppress This is a generic macro
 156:C:/Users/Yushev/git/optiga-trust-qi/examples/optiga\example_optiga_crypt_ecc_generate_keypair.c ****             OPTIGA_EXAMPLE_LOG_STATUS(return_status);
 233              	 .loc 1 156 0 discriminator 1
 234 00cc 0548     	 ldr r0,.L45+4
 235              	.LVL21:
 236 00ce 0B49     	 ldr r1,.L45+28
 237 00d0 FFF7FEFF 	 bl optiga_lib_print_status
 238              	.LVL22:
 239 00d4 02E0     	 b .L7
 240              	.LVL23:
 241              	.L8:
  87:C:/Users/Yushev/git/optiga-trust-qi/examples/optiga\example_optiga_crypt_ecc_generate_keypair.c ****     OPTIGA_EXAMPLE_LOG_MESSAGE(__FUNCTION__);
 242              	 .loc 1 87 0
 243 00d6 0026     	 movs r6,#0
  78:C:/Users/Yushev/git/optiga-trust-qi/examples/optiga\example_optiga_crypt_ecc_generate_keypair.c ****     optiga_key_id_t optiga_key_id;
 244              	 .loc 1 78 0
 245 00d8 0122     	 movs r2,#1
 246              	.LVL24:
 247 00da DDE7     	 b .L20
 248              	.LVL25:
 249              	.L7:
 157:C:/Users/Yushev/git/optiga-trust-qi/examples/optiga\example_optiga_crypt_ecc_generate_keypair.c ****         }
 158:C:/Users/Yushev/git/optiga-trust-qi/examples/optiga\example_optiga_crypt_ecc_generate_keypair.c ****     }    
 159:C:/Users/Yushev/git/optiga-trust-qi/examples/optiga\example_optiga_crypt_ecc_generate_keypair.c **** }
 250              	 .loc 1 159 0
 251 00dc 1EB0     	 add sp,sp,#120
 252              	.LCFI2:
 253              	 .cfi_def_cfa_offset 16
 254              	 
 255 00de 70BD     	 pop {r4,r5,r6,pc}
 256              	.LVL26:
 257              	.L46:
 258              	 .align 2
 259              	.L45:
 260 00e0 00000000 	 .word .LANCHOR1
 261 00e4 00000000 	 .word .LC0
 262 00e8 15000000 	 .word .LC1
 263 00ec 00000000 	 .word optiga_crypt_callback
 264 00f0 00000000 	 .word optiga_util_callback
 265 00f4 00000000 	 .word .LANCHOR0
 266 00f8 00000000 	 .word .LANCHOR2
 267 00fc 1A000000 	 .word .LC2
 268              	 .cfi_endproc
 269              	.LFE2:
 271              	 .global E0F1_metadata
 272              	 .section .rodata.E0F1_metadata,"a",%progbits
 273              	 .set .LANCHOR2,.+0
 276              	E0F1_metadata:
 277 0000 20       	 .byte 32
 278 0001 06       	 .byte 6
 279 0002 D0       	 .byte -48
 280 0003 01       	 .byte 1
 281 0004 00       	 .byte 0
 282 0005 D3       	 .byte -45
 283 0006 01       	 .byte 1
 284 0007 00       	 .byte 0
 285              	 .section .rodata.str1.1,"aMS",%progbits,1
 286              	.LC0:
 287 0000 5B6F7074 	 .ascii "[optiga example]  : \000"
 287      69676120 
 287      6578616D 
 287      706C655D 
 287      20203A20 
 288              	.LC1:
 289 0015 1B5B306D 	 .ascii "\033[0m\000"
 289      00
 290              	.LC2:
 291 001a 1B5B3331 	 .ascii "\033[31m\000"
 291      6D00
 292              	 .section .rodata.__FUNCTION__.5943,"a",%progbits
 293              	 .set .LANCHOR1,.+0
 296              	__FUNCTION__.5943:
 297 0000 6578616D 	 .ascii "example_optiga_crypt_ecc_generate_keypair\000"
 297      706C655F 
 297      6F707469 
 297      67615F63 
 297      72797074 
 298              	 .section .bss.optiga_lib_status,"aw",%nobits
 299              	 .align 1
 300              	 .set .LANCHOR0,.+0
 303              	optiga_lib_status:
 304 0000 0000     	 .space 2
 305              	 .text
 306              	.Letext0:
 307              	 .file 2 "c:\\users\\yushev\\dave_4-4-2_32bit_2018-02-23\\dave-ide-4.4.2-32bit\\eclipse\\arm-gcc-49\\arm-none-eabi\\include\\machine\\_default_types.h"
 308              	 .file 3 "c:\\users\\yushev\\dave_4-4-2_32bit_2018-02-23\\dave-ide-4.4.2-32bit\\eclipse\\arm-gcc-49\\arm-none-eabi\\include\\stdint.h"
 309              	 .file 4 "C:/Users/Yushev/git/optiga-trust-qi/optiga/include/optiga/common/optiga_lib_types.h"
 310              	 .file 5 "C:/Users/Yushev/git/optiga-trust-qi/optiga/include/optiga/common/optiga_lib_common.h"
 311              	 .file 6 "C:/Users/Yushev/git/optiga-trust-qi/optiga/include/optiga/cmd/optiga_cmd.h"
 312              	 .file 7 "C:/Users/Yushev/git/optiga-trust-qi/optiga/include/optiga/optiga_util.h"
 313              	 .file 8 "C:/Users/Yushev/git/optiga-trust-qi/optiga/include/optiga/optiga_crypt.h"
 314              	 .file 9 "C:/Users/Yushev/git/optiga-trust-qi/optiga/include/optiga/common/optiga_lib_logger.h"