   1              	 .syntax unified
   2              	 .cpu cortex-m4
   3              	 .eabi_attribute 27,3
   4              	 .fpu fpv4-sp-d16
   5              	 .eabi_attribute 20,1
   6              	 .eabi_attribute 21,1
   7              	 .eabi_attribute 23,3
   8              	 .eabi_attribute 24,1
   9              	 .eabi_attribute 25,1
  10              	 .eabi_attribute 26,1
  11              	 .eabi_attribute 30,4
  12              	 .eabi_attribute 34,1
  13              	 .eabi_attribute 18,4
  14              	 .thumb
  15              	 .file "example_optiga_crypt_ecdsa_verify.c"
  16              	 .text
  17              	.Ltext0:
  18              	 .cfi_sections .debug_frame
  19              	 .section .text.optiga_crypt_callback,"ax",%progbits
  20              	 .align 1
  21              	 .thumb
  22              	 .thumb_func
  24              	optiga_crypt_callback:
  25              	.LFB0:
  26              	 .file 1 "C:/Users/Yushev/git/optiga-trust-qi/examples/optiga/example_optiga_crypt_ecdsa_verify.c"
   1:C:/Users/Yushev/git/optiga-trust-qi/examples/optiga\example_optiga_crypt_ecdsa_verify.c **** /**
   2:C:/Users/Yushev/git/optiga-trust-qi/examples/optiga\example_optiga_crypt_ecdsa_verify.c **** * \copyright
   3:C:/Users/Yushev/git/optiga-trust-qi/examples/optiga\example_optiga_crypt_ecdsa_verify.c **** * MIT License
   4:C:/Users/Yushev/git/optiga-trust-qi/examples/optiga\example_optiga_crypt_ecdsa_verify.c **** *
   5:C:/Users/Yushev/git/optiga-trust-qi/examples/optiga\example_optiga_crypt_ecdsa_verify.c **** * Copyright (c) 2020 Infineon Technologies AG
   6:C:/Users/Yushev/git/optiga-trust-qi/examples/optiga\example_optiga_crypt_ecdsa_verify.c **** *
   7:C:/Users/Yushev/git/optiga-trust-qi/examples/optiga\example_optiga_crypt_ecdsa_verify.c **** * Permission is hereby granted, free of charge, to any person obtaining a copy
   8:C:/Users/Yushev/git/optiga-trust-qi/examples/optiga\example_optiga_crypt_ecdsa_verify.c **** * of this software and associated documentation files (the "Software"), to deal
   9:C:/Users/Yushev/git/optiga-trust-qi/examples/optiga\example_optiga_crypt_ecdsa_verify.c **** * in the Software without restriction, including without limitation the rights
  10:C:/Users/Yushev/git/optiga-trust-qi/examples/optiga\example_optiga_crypt_ecdsa_verify.c **** * to use, copy, modify, merge, publish, distribute, sublicense, and/or sell
  11:C:/Users/Yushev/git/optiga-trust-qi/examples/optiga\example_optiga_crypt_ecdsa_verify.c **** * copies of the Software, and to permit persons to whom the Software is
  12:C:/Users/Yushev/git/optiga-trust-qi/examples/optiga\example_optiga_crypt_ecdsa_verify.c **** * furnished to do so, subject to the following conditions:
  13:C:/Users/Yushev/git/optiga-trust-qi/examples/optiga\example_optiga_crypt_ecdsa_verify.c **** *
  14:C:/Users/Yushev/git/optiga-trust-qi/examples/optiga\example_optiga_crypt_ecdsa_verify.c **** * The above copyright notice and this permission notice shall be included in all
  15:C:/Users/Yushev/git/optiga-trust-qi/examples/optiga\example_optiga_crypt_ecdsa_verify.c **** * copies or substantial portions of the Software.
  16:C:/Users/Yushev/git/optiga-trust-qi/examples/optiga\example_optiga_crypt_ecdsa_verify.c **** *
  17:C:/Users/Yushev/git/optiga-trust-qi/examples/optiga\example_optiga_crypt_ecdsa_verify.c **** * THE SOFTWARE IS PROVIDED "AS IS", WITHOUT WARRANTY OF ANY KIND, EXPRESS OR
  18:C:/Users/Yushev/git/optiga-trust-qi/examples/optiga\example_optiga_crypt_ecdsa_verify.c **** * IMPLIED, INCLUDING BUT NOT LIMITED TO THE WARRANTIES OF MERCHANTABILITY,
  19:C:/Users/Yushev/git/optiga-trust-qi/examples/optiga\example_optiga_crypt_ecdsa_verify.c **** * FITNESS FOR A PARTICULAR PURPOSE AND NONINFRINGEMENT. IN NO EVENT SHALL THE
  20:C:/Users/Yushev/git/optiga-trust-qi/examples/optiga\example_optiga_crypt_ecdsa_verify.c **** * AUTHORS OR COPYRIGHT HOLDERS BE LIABLE FOR ANY CLAIM, DAMAGES OR OTHER
  21:C:/Users/Yushev/git/optiga-trust-qi/examples/optiga\example_optiga_crypt_ecdsa_verify.c **** * LIABILITY, WHETHER IN AN ACTION OF CONTRACT, TORT OR OTHERWISE, ARISING FROM,
  22:C:/Users/Yushev/git/optiga-trust-qi/examples/optiga\example_optiga_crypt_ecdsa_verify.c **** * OUT OF OR IN CONNECTION WITH THE SOFTWARE OR THE USE OR OTHER DEALINGS IN THE
  23:C:/Users/Yushev/git/optiga-trust-qi/examples/optiga\example_optiga_crypt_ecdsa_verify.c **** * SOFTWARE
  24:C:/Users/Yushev/git/optiga-trust-qi/examples/optiga\example_optiga_crypt_ecdsa_verify.c **** *
  25:C:/Users/Yushev/git/optiga-trust-qi/examples/optiga\example_optiga_crypt_ecdsa_verify.c **** * \endcopyright
  26:C:/Users/Yushev/git/optiga-trust-qi/examples/optiga\example_optiga_crypt_ecdsa_verify.c **** *
  27:C:/Users/Yushev/git/optiga-trust-qi/examples/optiga\example_optiga_crypt_ecdsa_verify.c **** * \author Infineon Technologies AG
  28:C:/Users/Yushev/git/optiga-trust-qi/examples/optiga\example_optiga_crypt_ecdsa_verify.c **** *
  29:C:/Users/Yushev/git/optiga-trust-qi/examples/optiga\example_optiga_crypt_ecdsa_verify.c **** * \file example_optiga_crypt_ecdsa_verify.c
  30:C:/Users/Yushev/git/optiga-trust-qi/examples/optiga\example_optiga_crypt_ecdsa_verify.c **** *
  31:C:/Users/Yushev/git/optiga-trust-qi/examples/optiga\example_optiga_crypt_ecdsa_verify.c **** * \brief   This file provides the example for ECDSA verify operation using #optiga_crypt_ecdsa_veri
  32:C:/Users/Yushev/git/optiga-trust-qi/examples/optiga\example_optiga_crypt_ecdsa_verify.c **** *
  33:C:/Users/Yushev/git/optiga-trust-qi/examples/optiga\example_optiga_crypt_ecdsa_verify.c **** * \ingroup grOptigaExamples
  34:C:/Users/Yushev/git/optiga-trust-qi/examples/optiga\example_optiga_crypt_ecdsa_verify.c **** *
  35:C:/Users/Yushev/git/optiga-trust-qi/examples/optiga\example_optiga_crypt_ecdsa_verify.c **** * @{
  36:C:/Users/Yushev/git/optiga-trust-qi/examples/optiga\example_optiga_crypt_ecdsa_verify.c **** */
  37:C:/Users/Yushev/git/optiga-trust-qi/examples/optiga\example_optiga_crypt_ecdsa_verify.c **** 
  38:C:/Users/Yushev/git/optiga-trust-qi/examples/optiga\example_optiga_crypt_ecdsa_verify.c **** #include "optiga/optiga_crypt.h"
  39:C:/Users/Yushev/git/optiga-trust-qi/examples/optiga\example_optiga_crypt_ecdsa_verify.c **** #include "optiga_example.h"
  40:C:/Users/Yushev/git/optiga-trust-qi/examples/optiga\example_optiga_crypt_ecdsa_verify.c **** 
  41:C:/Users/Yushev/git/optiga-trust-qi/examples/optiga\example_optiga_crypt_ecdsa_verify.c **** #ifdef OPTIGA_CRYPT_ECDSA_VERIFY_ENABLED
  42:C:/Users/Yushev/git/optiga-trust-qi/examples/optiga\example_optiga_crypt_ecdsa_verify.c **** 
  43:C:/Users/Yushev/git/optiga-trust-qi/examples/optiga\example_optiga_crypt_ecdsa_verify.c **** void example_util_encode_ecc_public_key_in_bit_string_format(const uint8_t * q_buffer,
  44:C:/Users/Yushev/git/optiga-trust-qi/examples/optiga\example_optiga_crypt_ecdsa_verify.c ****                                                         uint8_t q_length,
  45:C:/Users/Yushev/git/optiga-trust-qi/examples/optiga\example_optiga_crypt_ecdsa_verify.c ****                                                         uint8_t * pub_key_buffer,
  46:C:/Users/Yushev/git/optiga-trust-qi/examples/optiga\example_optiga_crypt_ecdsa_verify.c ****                                                         uint16_t * pub_key_length);
  47:C:/Users/Yushev/git/optiga-trust-qi/examples/optiga\example_optiga_crypt_ecdsa_verify.c **** 
  48:C:/Users/Yushev/git/optiga-trust-qi/examples/optiga\example_optiga_crypt_ecdsa_verify.c **** /**
  49:C:/Users/Yushev/git/optiga-trust-qi/examples/optiga\example_optiga_crypt_ecdsa_verify.c ****  * Callback when optiga_crypt_xxxx operation is completed asynchronously
  50:C:/Users/Yushev/git/optiga-trust-qi/examples/optiga\example_optiga_crypt_ecdsa_verify.c ****  */
  51:C:/Users/Yushev/git/optiga-trust-qi/examples/optiga\example_optiga_crypt_ecdsa_verify.c **** static volatile optiga_lib_status_t optiga_lib_status;
  52:C:/Users/Yushev/git/optiga-trust-qi/examples/optiga\example_optiga_crypt_ecdsa_verify.c **** //lint --e{818} suppress "argument "context" is not used in the sample provided"
  53:C:/Users/Yushev/git/optiga-trust-qi/examples/optiga\example_optiga_crypt_ecdsa_verify.c **** static void optiga_crypt_callback(void * context, optiga_lib_status_t return_status)
  54:C:/Users/Yushev/git/optiga-trust-qi/examples/optiga\example_optiga_crypt_ecdsa_verify.c **** {
  27              	 .loc 1 54 0
  28              	 .cfi_startproc
  29              	 
  30              	 
  31              	 
  32              	.LVL0:
  55:C:/Users/Yushev/git/optiga-trust-qi/examples/optiga\example_optiga_crypt_ecdsa_verify.c ****     optiga_lib_status = return_status;
  33              	 .loc 1 55 0
  34 0000 014B     	 ldr r3,.L2
  35 0002 1980     	 strh r1,[r3]
  36 0004 7047     	 bx lr
  37              	.L3:
  38 0006 00BF     	 .align 2
  39              	.L2:
  40 0008 00000000 	 .word .LANCHOR0
  41              	 .cfi_endproc
  42              	.LFE0:
  44              	 .section .text.example_optiga_crypt_ecdsa_verify,"ax",%progbits
  45              	 .align 1
  46              	 .global example_optiga_crypt_ecdsa_verify
  47              	 .thumb
  48              	 .thumb_func
  50              	example_optiga_crypt_ecdsa_verify:
  51              	.LFB1:
  56:C:/Users/Yushev/git/optiga-trust-qi/examples/optiga\example_optiga_crypt_ecdsa_verify.c ****     if (NULL != context)
  57:C:/Users/Yushev/git/optiga-trust-qi/examples/optiga\example_optiga_crypt_ecdsa_verify.c ****     {
  58:C:/Users/Yushev/git/optiga-trust-qi/examples/optiga\example_optiga_crypt_ecdsa_verify.c ****         // callback to upper layer here
  59:C:/Users/Yushev/git/optiga-trust-qi/examples/optiga\example_optiga_crypt_ecdsa_verify.c ****     }
  60:C:/Users/Yushev/git/optiga-trust-qi/examples/optiga\example_optiga_crypt_ecdsa_verify.c **** }
  61:C:/Users/Yushev/git/optiga-trust-qi/examples/optiga\example_optiga_crypt_ecdsa_verify.c **** 
  62:C:/Users/Yushev/git/optiga-trust-qi/examples/optiga\example_optiga_crypt_ecdsa_verify.c **** static const uint8_t ecc_public_key_component [] =
  63:C:/Users/Yushev/git/optiga-trust-qi/examples/optiga\example_optiga_crypt_ecdsa_verify.c **** {
  64:C:/Users/Yushev/git/optiga-trust-qi/examples/optiga\example_optiga_crypt_ecdsa_verify.c ****     //NIST-256 Public Key
  65:C:/Users/Yushev/git/optiga-trust-qi/examples/optiga\example_optiga_crypt_ecdsa_verify.c ****     0x8b,0x88,0x9c,0x1d,0xd6,0x07,0x58,0x2e,
  66:C:/Users/Yushev/git/optiga-trust-qi/examples/optiga\example_optiga_crypt_ecdsa_verify.c ****     0xd6,0xf8,0x2c,0xc2,0xd9,0xbe,0xd0,0xfe,
  67:C:/Users/Yushev/git/optiga-trust-qi/examples/optiga\example_optiga_crypt_ecdsa_verify.c ****     0x64,0xf3,0x24,0x5e,0x94,0x7d,0x54,0xcd,
  68:C:/Users/Yushev/git/optiga-trust-qi/examples/optiga\example_optiga_crypt_ecdsa_verify.c ****     0x20,0xdc,0x58,0x98,0xcf,0x51,0x31,0x44,
  69:C:/Users/Yushev/git/optiga-trust-qi/examples/optiga\example_optiga_crypt_ecdsa_verify.c ****     0x22,0xea,0x01,0xd4,0x0b,0x23,0xb2,0x45,
  70:C:/Users/Yushev/git/optiga-trust-qi/examples/optiga\example_optiga_crypt_ecdsa_verify.c ****     0x7c,0x42,0xdf,0x3c,0xfb,0x0d,0x33,0x10,
  71:C:/Users/Yushev/git/optiga-trust-qi/examples/optiga\example_optiga_crypt_ecdsa_verify.c ****     0xb8,0x49,0xb7,0xaa,0x0a,0x85,0xde,0xe7,
  72:C:/Users/Yushev/git/optiga-trust-qi/examples/optiga\example_optiga_crypt_ecdsa_verify.c ****     0x6a,0xf1,0xac,0x31,0x31,0x1e,0x8c,0x4b
  73:C:/Users/Yushev/git/optiga-trust-qi/examples/optiga\example_optiga_crypt_ecdsa_verify.c **** };
  74:C:/Users/Yushev/git/optiga-trust-qi/examples/optiga\example_optiga_crypt_ecdsa_verify.c **** 
  75:C:/Users/Yushev/git/optiga-trust-qi/examples/optiga\example_optiga_crypt_ecdsa_verify.c **** //SHA-256 Digest
  76:C:/Users/Yushev/git/optiga-trust-qi/examples/optiga\example_optiga_crypt_ecdsa_verify.c **** static const uint8_t digest [] =
  77:C:/Users/Yushev/git/optiga-trust-qi/examples/optiga\example_optiga_crypt_ecdsa_verify.c **** {
  78:C:/Users/Yushev/git/optiga-trust-qi/examples/optiga\example_optiga_crypt_ecdsa_verify.c ****     0xE9,0x5F,0xB3,0xB1,0x9F,0xA4,0xDD,0x27,0xFE,0xAE,0xB3,0x33,0x40,0x80,0xCE,0x35,
  79:C:/Users/Yushev/git/optiga-trust-qi/examples/optiga\example_optiga_crypt_ecdsa_verify.c ****     0xDF,0x3E,0x08,0xF1,0x6F,0x36,0xF3,0x24,0x0E,0xB0,0xB3,0x2F,0xAB,0xD0,0x90,0xCA,
  80:C:/Users/Yushev/git/optiga-trust-qi/examples/optiga\example_optiga_crypt_ecdsa_verify.c **** };
  81:C:/Users/Yushev/git/optiga-trust-qi/examples/optiga\example_optiga_crypt_ecdsa_verify.c **** 
  82:C:/Users/Yushev/git/optiga-trust-qi/examples/optiga\example_optiga_crypt_ecdsa_verify.c **** // ECDSA Signature
  83:C:/Users/Yushev/git/optiga-trust-qi/examples/optiga\example_optiga_crypt_ecdsa_verify.c **** static const uint8_t signature [] =
  84:C:/Users/Yushev/git/optiga-trust-qi/examples/optiga\example_optiga_crypt_ecdsa_verify.c **** {
  85:C:/Users/Yushev/git/optiga-trust-qi/examples/optiga\example_optiga_crypt_ecdsa_verify.c ****     //DER INTEGER Format
  86:C:/Users/Yushev/git/optiga-trust-qi/examples/optiga\example_optiga_crypt_ecdsa_verify.c ****     0x02,
  87:C:/Users/Yushev/git/optiga-trust-qi/examples/optiga\example_optiga_crypt_ecdsa_verify.c ****         //Length
  88:C:/Users/Yushev/git/optiga-trust-qi/examples/optiga\example_optiga_crypt_ecdsa_verify.c ****         0x20,
  89:C:/Users/Yushev/git/optiga-trust-qi/examples/optiga\example_optiga_crypt_ecdsa_verify.c ****             0x39,0xA4,0x70,0xE9,0x32,0x30,0xF5,0x5F,
  90:C:/Users/Yushev/git/optiga-trust-qi/examples/optiga\example_optiga_crypt_ecdsa_verify.c ****             0xA4,0xDF,0x8A,0x07,0x36,0x58,0x65,0xC6,
  91:C:/Users/Yushev/git/optiga-trust-qi/examples/optiga\example_optiga_crypt_ecdsa_verify.c ****             0xE6,0x1B,0x07,0x51,0xFB,0xC6,0x16,0x05,
  92:C:/Users/Yushev/git/optiga-trust-qi/examples/optiga\example_optiga_crypt_ecdsa_verify.c ****             0xEB,0xDF,0x56,0x6D,0xA9,0x50,0x3B,0x24,
  93:C:/Users/Yushev/git/optiga-trust-qi/examples/optiga\example_optiga_crypt_ecdsa_verify.c ****     //DER INTEGER Format
  94:C:/Users/Yushev/git/optiga-trust-qi/examples/optiga\example_optiga_crypt_ecdsa_verify.c ****     0x02,
  95:C:/Users/Yushev/git/optiga-trust-qi/examples/optiga\example_optiga_crypt_ecdsa_verify.c ****         //Length
  96:C:/Users/Yushev/git/optiga-trust-qi/examples/optiga\example_optiga_crypt_ecdsa_verify.c ****         0x1E,
  97:C:/Users/Yushev/git/optiga-trust-qi/examples/optiga\example_optiga_crypt_ecdsa_verify.c ****             0x49,0x33,0x6C,0x07,0x2B,0xD0,0x40,0x20,
  98:C:/Users/Yushev/git/optiga-trust-qi/examples/optiga\example_optiga_crypt_ecdsa_verify.c ****             0x0F,0xD4,0xE0,0x7E,0x67,0x66,0xC4,0xF5,
  99:C:/Users/Yushev/git/optiga-trust-qi/examples/optiga\example_optiga_crypt_ecdsa_verify.c ****             0x7F,0x98,0xEC,0x38,0xB8,0xEF,0x44,0x8F,
 100:C:/Users/Yushev/git/optiga-trust-qi/examples/optiga\example_optiga_crypt_ecdsa_verify.c ****             0x6A,0xE1,0xFD,0x1E,0x92,0xB4,
 101:C:/Users/Yushev/git/optiga-trust-qi/examples/optiga\example_optiga_crypt_ecdsa_verify.c **** };
 102:C:/Users/Yushev/git/optiga-trust-qi/examples/optiga\example_optiga_crypt_ecdsa_verify.c **** 
 103:C:/Users/Yushev/git/optiga-trust-qi/examples/optiga\example_optiga_crypt_ecdsa_verify.c **** uint8_t ecc_public_key[70] = {0x00};
 104:C:/Users/Yushev/git/optiga-trust-qi/examples/optiga\example_optiga_crypt_ecdsa_verify.c **** uint16_t ecc_public_key_length = 0;
 105:C:/Users/Yushev/git/optiga-trust-qi/examples/optiga\example_optiga_crypt_ecdsa_verify.c **** 
 106:C:/Users/Yushev/git/optiga-trust-qi/examples/optiga\example_optiga_crypt_ecdsa_verify.c **** /**
 107:C:/Users/Yushev/git/optiga-trust-qi/examples/optiga\example_optiga_crypt_ecdsa_verify.c ****  * The below example demonstrates the verification of signature using
 108:C:/Users/Yushev/git/optiga-trust-qi/examples/optiga\example_optiga_crypt_ecdsa_verify.c ****  * the public key provided by host.
 109:C:/Users/Yushev/git/optiga-trust-qi/examples/optiga\example_optiga_crypt_ecdsa_verify.c ****  *
 110:C:/Users/Yushev/git/optiga-trust-qi/examples/optiga\example_optiga_crypt_ecdsa_verify.c ****  * Example for #optiga_crypt_ecdsa_verify
 111:C:/Users/Yushev/git/optiga-trust-qi/examples/optiga\example_optiga_crypt_ecdsa_verify.c ****  *
 112:C:/Users/Yushev/git/optiga-trust-qi/examples/optiga\example_optiga_crypt_ecdsa_verify.c ****  */
 113:C:/Users/Yushev/git/optiga-trust-qi/examples/optiga\example_optiga_crypt_ecdsa_verify.c **** void example_optiga_crypt_ecdsa_verify(void)
 114:C:/Users/Yushev/git/optiga-trust-qi/examples/optiga\example_optiga_crypt_ecdsa_verify.c **** {
  52              	 .loc 1 114 0
  53              	 .cfi_startproc
  54              	 
  55              	 
  56              	.LVL1:
  57 0000 30B5     	 push {r4,r5,lr}
  58              	.LCFI0:
  59              	 .cfi_def_cfa_offset 12
  60              	 .cfi_offset 4,-12
  61              	 .cfi_offset 5,-8
  62              	 .cfi_offset 14,-4
 115:C:/Users/Yushev/git/optiga-trust-qi/examples/optiga\example_optiga_crypt_ecdsa_verify.c ****     optiga_lib_status_t return_status = !OPTIGA_LIB_SUCCESS;
 116:C:/Users/Yushev/git/optiga-trust-qi/examples/optiga\example_optiga_crypt_ecdsa_verify.c **** 
 117:C:/Users/Yushev/git/optiga-trust-qi/examples/optiga\example_optiga_crypt_ecdsa_verify.c ****     optiga_crypt_t * me = NULL;
 118:C:/Users/Yushev/git/optiga-trust-qi/examples/optiga\example_optiga_crypt_ecdsa_verify.c ****     OPTIGA_EXAMPLE_LOG_MESSAGE(__FUNCTION__);
 119:C:/Users/Yushev/git/optiga-trust-qi/examples/optiga\example_optiga_crypt_ecdsa_verify.c **** 
 120:C:/Users/Yushev/git/optiga-trust-qi/examples/optiga\example_optiga_crypt_ecdsa_verify.c ****     example_util_encode_ecc_public_key_in_bit_string_format(ecc_public_key_component,
  63              	 .loc 1 120 0
  64 0002 264D     	 ldr r5,.L25
  65 0004 264C     	 ldr r4,.L25+4
 118:C:/Users/Yushev/git/optiga-trust-qi/examples/optiga\example_optiga_crypt_ecdsa_verify.c **** 
  66              	 .loc 1 118 0
  67 0006 2748     	 ldr r0,.L25+8
  68 0008 2749     	 ldr r1,.L25+12
  69 000a 284A     	 ldr r2,.L25+16
 114:C:/Users/Yushev/git/optiga-trust-qi/examples/optiga\example_optiga_crypt_ecdsa_verify.c ****     optiga_lib_status_t return_status = !OPTIGA_LIB_SUCCESS;
  70              	 .loc 1 114 0
  71 000c 87B0     	 sub sp,sp,#28
  72              	.LCFI1:
  73              	 .cfi_def_cfa_offset 40
 118:C:/Users/Yushev/git/optiga-trust-qi/examples/optiga\example_optiga_crypt_ecdsa_verify.c **** 
  74              	 .loc 1 118 0
  75 000e FFF7FEFF 	 bl optiga_lib_print_message
  76              	.LVL2:
  77              	 .loc 1 120 0
  78 0012 2A46     	 mov r2,r5
  79 0014 2648     	 ldr r0,.L25+20
  80 0016 4021     	 movs r1,#64
  81 0018 2346     	 mov r3,r4
  82 001a FFF7FEFF 	 bl example_util_encode_ecc_public_key_in_bit_string_format
  83              	.LVL3:
 121:C:/Users/Yushev/git/optiga-trust-qi/examples/optiga\example_optiga_crypt_ecdsa_verify.c ****                                                         sizeof(ecc_public_key_component),
 122:C:/Users/Yushev/git/optiga-trust-qi/examples/optiga\example_optiga_crypt_ecdsa_verify.c ****                                                         ecc_public_key,
 123:C:/Users/Yushev/git/optiga-trust-qi/examples/optiga\example_optiga_crypt_ecdsa_verify.c ****                                                         &ecc_public_key_length);
 124:C:/Users/Yushev/git/optiga-trust-qi/examples/optiga\example_optiga_crypt_ecdsa_verify.c ****     
 125:C:/Users/Yushev/git/optiga-trust-qi/examples/optiga\example_optiga_crypt_ecdsa_verify.c ****     public_key_from_host_t public_key_details = {
  84              	 .loc 1 125 0
  85 001e 2388     	 ldrh r3,[r4]
  86 0020 ADF81430 	 strh r3,[sp,#20]
 126:C:/Users/Yushev/git/optiga-trust-qi/examples/optiga\example_optiga_crypt_ecdsa_verify.c ****                                                  ecc_public_key,
 127:C:/Users/Yushev/git/optiga-trust-qi/examples/optiga\example_optiga_crypt_ecdsa_verify.c ****                                                  ecc_public_key_length,
 128:C:/Users/Yushev/git/optiga-trust-qi/examples/optiga\example_optiga_crypt_ecdsa_verify.c ****                                                  (uint8_t)OPTIGA_ECC_CURVE_NIST_P_256
 129:C:/Users/Yushev/git/optiga-trust-qi/examples/optiga\example_optiga_crypt_ecdsa_verify.c ****                                                 };
 130:C:/Users/Yushev/git/optiga-trust-qi/examples/optiga\example_optiga_crypt_ecdsa_verify.c **** 
 131:C:/Users/Yushev/git/optiga-trust-qi/examples/optiga\example_optiga_crypt_ecdsa_verify.c **** 
 132:C:/Users/Yushev/git/optiga-trust-qi/examples/optiga\example_optiga_crypt_ecdsa_verify.c ****     do
 133:C:/Users/Yushev/git/optiga-trust-qi/examples/optiga\example_optiga_crypt_ecdsa_verify.c ****     {
 134:C:/Users/Yushev/git/optiga-trust-qi/examples/optiga\example_optiga_crypt_ecdsa_verify.c ****         /**
 135:C:/Users/Yushev/git/optiga-trust-qi/examples/optiga\example_optiga_crypt_ecdsa_verify.c ****          * 1. Create OPTIGA Crypt Instance
 136:C:/Users/Yushev/git/optiga-trust-qi/examples/optiga\example_optiga_crypt_ecdsa_verify.c ****          */
 137:C:/Users/Yushev/git/optiga-trust-qi/examples/optiga\example_optiga_crypt_ecdsa_verify.c ****         me = optiga_crypt_create(0, optiga_crypt_callback, NULL);
  87              	 .loc 1 137 0
  88 0024 0020     	 movs r0,#0
 125:C:/Users/Yushev/git/optiga-trust-qi/examples/optiga\example_optiga_crypt_ecdsa_verify.c ****                                                  ecc_public_key,
  89              	 .loc 1 125 0
  90 0026 0323     	 movs r3,#3
  91              	 .loc 1 137 0
  92 0028 0246     	 mov r2,r0
  93 002a 2249     	 ldr r1,.L25+24
 125:C:/Users/Yushev/git/optiga-trust-qi/examples/optiga\example_optiga_crypt_ecdsa_verify.c ****                                                  ecc_public_key,
  94              	 .loc 1 125 0
  95 002c 0495     	 str r5,[sp,#16]
  96 002e 8DF81630 	 strb r3,[sp,#22]
  97              	 .loc 1 137 0
  98 0032 FFF7FEFF 	 bl optiga_crypt_create
  99              	.LVL4:
 100 0036 0122     	 movs r2,#1
 138:C:/Users/Yushev/git/optiga-trust-qi/examples/optiga\example_optiga_crypt_ecdsa_verify.c ****         if (NULL == me)
 101              	 .loc 1 138 0
 102 0038 0546     	 mov r5,r0
 103 003a C0B1     	 cbz r0,.L11
 139:C:/Users/Yushev/git/optiga-trust-qi/examples/optiga\example_optiga_crypt_ecdsa_verify.c ****         {
 140:C:/Users/Yushev/git/optiga-trust-qi/examples/optiga\example_optiga_crypt_ecdsa_verify.c ****             break;
 141:C:/Users/Yushev/git/optiga-trust-qi/examples/optiga\example_optiga_crypt_ecdsa_verify.c ****         }
 142:C:/Users/Yushev/git/optiga-trust-qi/examples/optiga\example_optiga_crypt_ecdsa_verify.c **** 
 143:C:/Users/Yushev/git/optiga-trust-qi/examples/optiga\example_optiga_crypt_ecdsa_verify.c ****         /**
 144:C:/Users/Yushev/git/optiga-trust-qi/examples/optiga\example_optiga_crypt_ecdsa_verify.c ****          * 2. Verify ECDSA signature using public key from host
 145:C:/Users/Yushev/git/optiga-trust-qi/examples/optiga\example_optiga_crypt_ecdsa_verify.c ****          */
 146:C:/Users/Yushev/git/optiga-trust-qi/examples/optiga\example_optiga_crypt_ecdsa_verify.c ****         optiga_lib_status = OPTIGA_LIB_BUSY;
 104              	 .loc 1 146 0
 105 003c 1E4C     	 ldr r4,.L25+28
 147:C:/Users/Yushev/git/optiga-trust-qi/examples/optiga\example_optiga_crypt_ecdsa_verify.c ****         return_status = optiga_crypt_ecdsa_verify (me,
 106              	 .loc 1 147 0
 107 003e 1F49     	 ldr r1,.L25+32
 146:C:/Users/Yushev/git/optiga-trust-qi/examples/optiga\example_optiga_crypt_ecdsa_verify.c ****         return_status = optiga_crypt_ecdsa_verify (me,
 108              	 .loc 1 146 0
 109 0040 2280     	 strh r2,[r4]
 110              	 .loc 1 147 0
 111 0042 4223     	 movs r3,#66
 112 0044 0093     	 str r3,[sp]
 113 0046 04AB     	 add r3,sp,#16
 114 0048 0192     	 str r2,[sp,#4]
 115 004a 0293     	 str r3,[sp,#8]
 116 004c 2022     	 movs r2,#32
 117 004e 1C4B     	 ldr r3,.L25+36
 118 0050 FFF7FEFF 	 bl optiga_crypt_ecdsa_verify
 119              	.LVL5:
 148:C:/Users/Yushev/git/optiga-trust-qi/examples/optiga\example_optiga_crypt_ecdsa_verify.c ****                                                    digest,
 149:C:/Users/Yushev/git/optiga-trust-qi/examples/optiga\example_optiga_crypt_ecdsa_verify.c ****                                                    sizeof(digest),
 150:C:/Users/Yushev/git/optiga-trust-qi/examples/optiga\example_optiga_crypt_ecdsa_verify.c ****                                                    signature,
 151:C:/Users/Yushev/git/optiga-trust-qi/examples/optiga\example_optiga_crypt_ecdsa_verify.c ****                                                    sizeof(signature),
 152:C:/Users/Yushev/git/optiga-trust-qi/examples/optiga\example_optiga_crypt_ecdsa_verify.c ****                                                    OPTIGA_CRYPT_HOST_DATA,
 153:C:/Users/Yushev/git/optiga-trust-qi/examples/optiga\example_optiga_crypt_ecdsa_verify.c ****                                                    &public_key_details);
 154:C:/Users/Yushev/git/optiga-trust-qi/examples/optiga\example_optiga_crypt_ecdsa_verify.c **** 
 155:C:/Users/Yushev/git/optiga-trust-qi/examples/optiga\example_optiga_crypt_ecdsa_verify.c ****         WAIT_AND_CHECK_STATUS(return_status, optiga_lib_status);
 120              	 .loc 1 155 0
 121 0054 0246     	 mov r2,r0
 122 0056 50B9     	 cbnz r0,.L11
 123              	.L6:
 124              	 .loc 1 155 0 is_stmt 0 discriminator 1
 125 0058 2388     	 ldrh r3,[r4]
 126 005a 174A     	 ldr r2,.L25+28
 127 005c 9BB2     	 uxth r3,r3
 128 005e 012B     	 cmp r3,#1
 129 0060 FAD0     	 beq .L6
 130              	 .loc 1 155 0 discriminator 2
 131 0062 1388     	 ldrh r3,[r2]
 132 0064 9BB2     	 uxth r3,r3
 133 0066 43B1     	 cbz r3,.L7
 134              	 .loc 1 155 0 discriminator 3
 135 0068 1288     	 ldrh r2,[r2]
 136 006a 92B2     	 uxth r2,r2
 137              	.LVL6:
 156:C:/Users/Yushev/git/optiga-trust-qi/examples/optiga\example_optiga_crypt_ecdsa_verify.c ****         return_status = OPTIGA_LIB_SUCCESS;
 157:C:/Users/Yushev/git/optiga-trust-qi/examples/optiga\example_optiga_crypt_ecdsa_verify.c ****     } while (FALSE);
 158:C:/Users/Yushev/git/optiga-trust-qi/examples/optiga\example_optiga_crypt_ecdsa_verify.c ****     OPTIGA_EXAMPLE_LOG_STATUS(return_status);
 138              	 .loc 1 158 0 is_stmt 1 discriminator 3
 139 006c 2AB1     	 cbz r2,.L7
 140              	.LVL7:
 141              	.L11:
 142              	 .loc 1 158 0 is_stmt 0 discriminator 1
 143 006e 0E48     	 ldr r0,.L25+12
 144 0070 1449     	 ldr r1,.L25+40
 145 0072 FFF7FEFF 	 bl optiga_lib_print_status
 146              	.LVL8:
 159:C:/Users/Yushev/git/optiga-trust-qi/examples/optiga\example_optiga_crypt_ecdsa_verify.c ****     
 160:C:/Users/Yushev/git/optiga-trust-qi/examples/optiga\example_optiga_crypt_ecdsa_verify.c ****     if (me)
 147              	 .loc 1 160 0 is_stmt 1 discriminator 1
 148 0076 2DB9     	 cbnz r5,.L8
 149 0078 0DE0     	 b .L4
 150              	.L7:
 158:C:/Users/Yushev/git/optiga-trust-qi/examples/optiga\example_optiga_crypt_ecdsa_verify.c ****     
 151              	 .loc 1 158 0 discriminator 2
 152 007a 0B48     	 ldr r0,.L25+12
 153 007c 0B49     	 ldr r1,.L25+16
 154 007e 0022     	 movs r2,#0
 155 0080 FFF7FEFF 	 bl optiga_lib_print_status
 156              	.LVL9:
 157              	.L8:
 161:C:/Users/Yushev/git/optiga-trust-qi/examples/optiga\example_optiga_crypt_ecdsa_verify.c ****     {
 162:C:/Users/Yushev/git/optiga-trust-qi/examples/optiga\example_optiga_crypt_ecdsa_verify.c ****         //Destroy the instance after the completion of usecase if not required.
 163:C:/Users/Yushev/git/optiga-trust-qi/examples/optiga\example_optiga_crypt_ecdsa_verify.c ****         return_status = optiga_crypt_destroy(me);
 158              	 .loc 1 163 0
 159 0084 2846     	 mov r0,r5
 160 0086 FFF7FEFF 	 bl optiga_crypt_destroy
 161              	.LVL10:
 164:C:/Users/Yushev/git/optiga-trust-qi/examples/optiga\example_optiga_crypt_ecdsa_verify.c ****         if(OPTIGA_LIB_SUCCESS != return_status)
 162              	 .loc 1 164 0
 163 008a 0246     	 mov r2,r0
 164 008c 18B1     	 cbz r0,.L4
 165:C:/Users/Yushev/git/optiga-trust-qi/examples/optiga\example_optiga_crypt_ecdsa_verify.c ****         {
 166:C:/Users/Yushev/git/optiga-trust-qi/examples/optiga\example_optiga_crypt_ecdsa_verify.c ****             //lint --e{774} suppress This is a generic macro
 167:C:/Users/Yushev/git/optiga-trust-qi/examples/optiga\example_optiga_crypt_ecdsa_verify.c ****             OPTIGA_EXAMPLE_LOG_STATUS(return_status);
 165              	 .loc 1 167 0 discriminator 1
 166 008e 0648     	 ldr r0,.L25+12
 167              	.LVL11:
 168 0090 0C49     	 ldr r1,.L25+40
 169 0092 FFF7FEFF 	 bl optiga_lib_print_status
 170              	.LVL12:
 171              	.L4:
 168:C:/Users/Yushev/git/optiga-trust-qi/examples/optiga\example_optiga_crypt_ecdsa_verify.c ****         }
 169:C:/Users/Yushev/git/optiga-trust-qi/examples/optiga\example_optiga_crypt_ecdsa_verify.c ****     }
 170:C:/Users/Yushev/git/optiga-trust-qi/examples/optiga\example_optiga_crypt_ecdsa_verify.c ****     
 171:C:/Users/Yushev/git/optiga-trust-qi/examples/optiga\example_optiga_crypt_ecdsa_verify.c **** }
 172              	 .loc 1 171 0
 173 0096 07B0     	 add sp,sp,#28
 174              	.LCFI2:
 175              	 .cfi_def_cfa_offset 12
 176              	 
 177 0098 30BD     	 pop {r4,r5,pc}
 178              	.LVL13:
 179              	.L26:
 180 009a 00BF     	 .align 2
 181              	.L25:
 182 009c 00000000 	 .word .LANCHOR3
 183 00a0 00000000 	 .word .LANCHOR4
 184 00a4 00000000 	 .word .LANCHOR1
 185 00a8 00000000 	 .word .LC0
 186 00ac 15000000 	 .word .LC1
 187 00b0 00000000 	 .word .LANCHOR2
 188 00b4 00000000 	 .word optiga_crypt_callback
 189 00b8 00000000 	 .word .LANCHOR0
 190 00bc 00000000 	 .word .LANCHOR5
 191 00c0 00000000 	 .word .LANCHOR6
 192 00c4 1A000000 	 .word .LC2
 193              	 .cfi_endproc
 194              	.LFE1:
 196              	 .global ecc_public_key_length
 197              	 .global ecc_public_key
 198              	 .section .bss.ecc_public_key_length,"aw",%nobits
 199              	 .align 1
 200              	 .set .LANCHOR4,.+0
 203              	ecc_public_key_length:
 204 0000 0000     	 .space 2
 205              	 .section .rodata.digest,"a",%progbits
 206              	 .set .LANCHOR5,.+0
 209              	digest:
 210 0000 E9       	 .byte -23
 211 0001 5F       	 .byte 95
 212 0002 B3       	 .byte -77
 213 0003 B1       	 .byte -79
 214 0004 9F       	 .byte -97
 215 0005 A4       	 .byte -92
 216 0006 DD       	 .byte -35
 217 0007 27       	 .byte 39
 218 0008 FE       	 .byte -2
 219 0009 AE       	 .byte -82
 220 000a B3       	 .byte -77
 221 000b 33       	 .byte 51
 222 000c 40       	 .byte 64
 223 000d 80       	 .byte -128
 224 000e CE       	 .byte -50
 225 000f 35       	 .byte 53
 226 0010 DF       	 .byte -33
 227 0011 3E       	 .byte 62
 228 0012 08       	 .byte 8
 229 0013 F1       	 .byte -15
 230 0014 6F       	 .byte 111
 231 0015 36       	 .byte 54
 232 0016 F3       	 .byte -13
 233 0017 24       	 .byte 36
 234 0018 0E       	 .byte 14
 235 0019 B0       	 .byte -80
 236 001a B3       	 .byte -77
 237 001b 2F       	 .byte 47
 238 001c AB       	 .byte -85
 239 001d D0       	 .byte -48
 240 001e 90       	 .byte -112
 241 001f CA       	 .byte -54
 242              	 .section .rodata.ecc_public_key_component,"a",%progbits
 243              	 .set .LANCHOR2,.+0
 246              	ecc_public_key_component:
 247 0000 8B       	 .byte -117
 248 0001 88       	 .byte -120
 249 0002 9C       	 .byte -100
 250 0003 1D       	 .byte 29
 251 0004 D6       	 .byte -42
 252 0005 07       	 .byte 7
 253 0006 58       	 .byte 88
 254 0007 2E       	 .byte 46
 255 0008 D6       	 .byte -42
 256 0009 F8       	 .byte -8
 257 000a 2C       	 .byte 44
 258 000b C2       	 .byte -62
 259 000c D9       	 .byte -39
 260 000d BE       	 .byte -66
 261 000e D0       	 .byte -48
 262 000f FE       	 .byte -2
 263 0010 64       	 .byte 100
 264 0011 F3       	 .byte -13
 265 0012 24       	 .byte 36
 266 0013 5E       	 .byte 94
 267 0014 94       	 .byte -108
 268 0015 7D       	 .byte 125
 269 0016 54       	 .byte 84
 270 0017 CD       	 .byte -51
 271 0018 20       	 .byte 32
 272 0019 DC       	 .byte -36
 273 001a 58       	 .byte 88
 274 001b 98       	 .byte -104
 275 001c CF       	 .byte -49
 276 001d 51       	 .byte 81
 277 001e 31       	 .byte 49
 278 001f 44       	 .byte 68
 279 0020 22       	 .byte 34
 280 0021 EA       	 .byte -22
 281 0022 01       	 .byte 1
 282 0023 D4       	 .byte -44
 283 0024 0B       	 .byte 11
 284 0025 23       	 .byte 35
 285 0026 B2       	 .byte -78
 286 0027 45       	 .byte 69
 287 0028 7C       	 .byte 124
 288 0029 42       	 .byte 66
 289 002a DF       	 .byte -33
 290 002b 3C       	 .byte 60
 291 002c FB       	 .byte -5
 292 002d 0D       	 .byte 13
 293 002e 33       	 .byte 51
 294 002f 10       	 .byte 16
 295 0030 B8       	 .byte -72
 296 0031 49       	 .byte 73
 297 0032 B7       	 .byte -73
 298 0033 AA       	 .byte -86
 299 0034 0A       	 .byte 10
 300 0035 85       	 .byte -123
 301 0036 DE       	 .byte -34
 302 0037 E7       	 .byte -25
 303 0038 6A       	 .byte 106
 304 0039 F1       	 .byte -15
 305 003a AC       	 .byte -84
 306 003b 31       	 .byte 49
 307 003c 31       	 .byte 49
 308 003d 1E       	 .byte 30
 309 003e 8C       	 .byte -116
 310 003f 4B       	 .byte 75
 311              	 .section .rodata.__FUNCTION__.5873,"a",%progbits
 312              	 .set .LANCHOR1,.+0
 315              	__FUNCTION__.5873:
 316 0000 6578616D 	 .ascii "example_optiga_crypt_ecdsa_verify\000"
 316      706C655F 
 316      6F707469 
 316      67615F63 
 316      72797074 
 317              	 .section .rodata.str1.1,"aMS",%progbits,1
 318              	.LC0:
 319 0000 5B6F7074 	 .ascii "[optiga example]  : \000"
 319      69676120 
 319      6578616D 
 319      706C655D 
 319      20203A20 
 320              	.LC1:
 321 0015 1B5B306D 	 .ascii "\033[0m\000"
 321      00
 322              	.LC2:
 323 001a 1B5B3331 	 .ascii "\033[31m\000"
 323      6D00
 324              	 .section .rodata.signature,"a",%progbits
 325              	 .set .LANCHOR6,.+0
 328              	signature:
 329 0000 02       	 .byte 2
 330 0001 20       	 .byte 32
 331 0002 39       	 .byte 57
 332 0003 A4       	 .byte -92
 333 0004 70       	 .byte 112
 334 0005 E9       	 .byte -23
 335 0006 32       	 .byte 50
 336 0007 30       	 .byte 48
 337 0008 F5       	 .byte -11
 338 0009 5F       	 .byte 95
 339 000a A4       	 .byte -92
 340 000b DF       	 .byte -33
 341 000c 8A       	 .byte -118
 342 000d 07       	 .byte 7
 343 000e 36       	 .byte 54
 344 000f 58       	 .byte 88
 345 0010 65       	 .byte 101
 346 0011 C6       	 .byte -58
 347 0012 E6       	 .byte -26
 348 0013 1B       	 .byte 27
 349 0014 07       	 .byte 7
 350 0015 51       	 .byte 81
 351 0016 FB       	 .byte -5
 352 0017 C6       	 .byte -58
 353 0018 16       	 .byte 22
 354 0019 05       	 .byte 5
 355 001a EB       	 .byte -21
 356 001b DF       	 .byte -33
 357 001c 56       	 .byte 86
 358 001d 6D       	 .byte 109
 359 001e A9       	 .byte -87
 360 001f 50       	 .byte 80
 361 0020 3B       	 .byte 59
 362 0021 24       	 .byte 36
 363 0022 02       	 .byte 2
 364 0023 1E       	 .byte 30
 365 0024 49       	 .byte 73
 366 0025 33       	 .byte 51
 367 0026 6C       	 .byte 108
 368 0027 07       	 .byte 7
 369 0028 2B       	 .byte 43
 370 0029 D0       	 .byte -48
 371 002a 40       	 .byte 64
 372 002b 20       	 .byte 32
 373 002c 0F       	 .byte 15
 374 002d D4       	 .byte -44
 375 002e E0       	 .byte -32
 376 002f 7E       	 .byte 126
 377 0030 67       	 .byte 103
 378 0031 66       	 .byte 102
 379 0032 C4       	 .byte -60
 380 0033 F5       	 .byte -11
 381 0034 7F       	 .byte 127
 382 0035 98       	 .byte -104
 383 0036 EC       	 .byte -20
 384 0037 38       	 .byte 56
 385 0038 B8       	 .byte -72
 386 0039 EF       	 .byte -17
 387 003a 44       	 .byte 68
 388 003b 8F       	 .byte -113
 389 003c 6A       	 .byte 106
 390 003d E1       	 .byte -31
 391 003e FD       	 .byte -3
 392 003f 1E       	 .byte 30
 393 0040 92       	 .byte -110
 394 0041 B4       	 .byte -76
 395              	 .section .bss.ecc_public_key,"aw",%nobits
 396              	 .set .LANCHOR3,.+0
 399              	ecc_public_key:
 400 0000 00000000 	 .space 70
 400      00000000 
 400      00000000 
 400      00000000 
 400      00000000 
 401              	 .section .bss.optiga_lib_status,"aw",%nobits
 402              	 .align 1
 403              	 .set .LANCHOR0,.+0
 406              	optiga_lib_status:
 407 0000 0000     	 .space 2
 408              	 .text
 409              	.Letext0:
 410              	 .file 2 "c:\\users\\yushev\\dave_4-4-2_32bit_2018-02-23\\dave-ide-4.4.2-32bit\\eclipse\\arm-gcc-49\\arm-none-eabi\\include\\machine\\_default_types.h"
 411              	 .file 3 "c:\\users\\yushev\\dave_4-4-2_32bit_2018-02-23\\dave-ide-4.4.2-32bit\\eclipse\\arm-gcc-49\\arm-none-eabi\\include\\stdint.h"
 412              	 .file 4 "C:/Users/Yushev/git/optiga-trust-qi/optiga/include/optiga/common/optiga_lib_types.h"
 413              	 .file 5 "C:/Users/Yushev/git/optiga-trust-qi/optiga/include/optiga/common/optiga_lib_common.h"
 414              	 .file 6 "C:/Users/Yushev/git/optiga-trust-qi/optiga/include/optiga/cmd/optiga_cmd.h"
 415              	 .file 7 "C:/Users/Yushev/git/optiga-trust-qi/optiga/include/optiga/optiga_crypt.h"
 416              	 .file 8 "C:/Users/Yushev/git/optiga-trust-qi/optiga/include/optiga/common/optiga_lib_logger.h"