   1              	 .syntax unified
   2              	 .cpu cortex-m4
   3              	 .eabi_attribute 27,3
   4              	 .fpu fpv4-sp-d16
   5              	 .eabi_attribute 20,1
   6              	 .eabi_attribute 21,1
   7              	 .eabi_attribute 23,3
   8              	 .eabi_attribute 24,1
   9              	 .eabi_attribute 25,1
  10              	 .eabi_attribute 26,1
  11              	 .eabi_attribute 30,4
  12              	 .eabi_attribute 34,1
  13              	 .eabi_attribute 18,4
  14              	 .thumb
  15              	 .file "example_optiga_hibernate_restore.c"
  16              	 .text
  17              	.Ltext0:
  18              	 .cfi_sections .debug_frame
  19              	 .section .text.optiga_lib_callback,"ax",%progbits
  20              	 .align 1
  21              	 .thumb
  22              	 .thumb_func
  24              	optiga_lib_callback:
  25              	.LFB0:
  26              	 .file 1 "C:/Users/Yushev/git/optiga-trust-qi/examples/optiga/usecases/example_optiga_hibernate_restore.c"
   1:C:/Users/Yushev/git/optiga-trust-qi/examples/optiga/usecases\example_optiga_hibernate_restore.c **** /**
   2:C:/Users/Yushev/git/optiga-trust-qi/examples/optiga/usecases\example_optiga_hibernate_restore.c **** * \copyright
   3:C:/Users/Yushev/git/optiga-trust-qi/examples/optiga/usecases\example_optiga_hibernate_restore.c **** * MIT License
   4:C:/Users/Yushev/git/optiga-trust-qi/examples/optiga/usecases\example_optiga_hibernate_restore.c **** *
   5:C:/Users/Yushev/git/optiga-trust-qi/examples/optiga/usecases\example_optiga_hibernate_restore.c **** * Copyright (c) 2020 Infineon Technologies AG
   6:C:/Users/Yushev/git/optiga-trust-qi/examples/optiga/usecases\example_optiga_hibernate_restore.c **** *
   7:C:/Users/Yushev/git/optiga-trust-qi/examples/optiga/usecases\example_optiga_hibernate_restore.c **** * Permission is hereby granted, free of charge, to any person obtaining a copy
   8:C:/Users/Yushev/git/optiga-trust-qi/examples/optiga/usecases\example_optiga_hibernate_restore.c **** * of this software and associated documentation files (the "Software"), to deal
   9:C:/Users/Yushev/git/optiga-trust-qi/examples/optiga/usecases\example_optiga_hibernate_restore.c **** * in the Software without restriction, including without limitation the rights
  10:C:/Users/Yushev/git/optiga-trust-qi/examples/optiga/usecases\example_optiga_hibernate_restore.c **** * to use, copy, modify, merge, publish, distribute, sublicense, and/or sell
  11:C:/Users/Yushev/git/optiga-trust-qi/examples/optiga/usecases\example_optiga_hibernate_restore.c **** * copies of the Software, and to permit persons to whom the Software is
  12:C:/Users/Yushev/git/optiga-trust-qi/examples/optiga/usecases\example_optiga_hibernate_restore.c **** * furnished to do so, subject to the following conditions:
  13:C:/Users/Yushev/git/optiga-trust-qi/examples/optiga/usecases\example_optiga_hibernate_restore.c **** *
  14:C:/Users/Yushev/git/optiga-trust-qi/examples/optiga/usecases\example_optiga_hibernate_restore.c **** * The above copyright notice and this permission notice shall be included in all
  15:C:/Users/Yushev/git/optiga-trust-qi/examples/optiga/usecases\example_optiga_hibernate_restore.c **** * copies or substantial portions of the Software.
  16:C:/Users/Yushev/git/optiga-trust-qi/examples/optiga/usecases\example_optiga_hibernate_restore.c **** *
  17:C:/Users/Yushev/git/optiga-trust-qi/examples/optiga/usecases\example_optiga_hibernate_restore.c **** * THE SOFTWARE IS PROVIDED "AS IS", WITHOUT WARRANTY OF ANY KIND, EXPRESS OR
  18:C:/Users/Yushev/git/optiga-trust-qi/examples/optiga/usecases\example_optiga_hibernate_restore.c **** * IMPLIED, INCLUDING BUT NOT LIMITED TO THE WARRANTIES OF MERCHANTABILITY,
  19:C:/Users/Yushev/git/optiga-trust-qi/examples/optiga/usecases\example_optiga_hibernate_restore.c **** * FITNESS FOR A PARTICULAR PURPOSE AND NONINFRINGEMENT. IN NO EVENT SHALL THE
  20:C:/Users/Yushev/git/optiga-trust-qi/examples/optiga/usecases\example_optiga_hibernate_restore.c **** * AUTHORS OR COPYRIGHT HOLDERS BE LIABLE FOR ANY CLAIM, DAMAGES OR OTHER
  21:C:/Users/Yushev/git/optiga-trust-qi/examples/optiga/usecases\example_optiga_hibernate_restore.c **** * LIABILITY, WHETHER IN AN ACTION OF CONTRACT, TORT OR OTHERWISE, ARISING FROM,
  22:C:/Users/Yushev/git/optiga-trust-qi/examples/optiga/usecases\example_optiga_hibernate_restore.c **** * OUT OF OR IN CONNECTION WITH THE SOFTWARE OR THE USE OR OTHER DEALINGS IN THE
  23:C:/Users/Yushev/git/optiga-trust-qi/examples/optiga/usecases\example_optiga_hibernate_restore.c **** * SOFTWARE
  24:C:/Users/Yushev/git/optiga-trust-qi/examples/optiga/usecases\example_optiga_hibernate_restore.c **** *
  25:C:/Users/Yushev/git/optiga-trust-qi/examples/optiga/usecases\example_optiga_hibernate_restore.c **** * \endcopyright
  26:C:/Users/Yushev/git/optiga-trust-qi/examples/optiga/usecases\example_optiga_hibernate_restore.c **** *
  27:C:/Users/Yushev/git/optiga-trust-qi/examples/optiga/usecases\example_optiga_hibernate_restore.c **** * \author Infineon Technologies AG
  28:C:/Users/Yushev/git/optiga-trust-qi/examples/optiga/usecases\example_optiga_hibernate_restore.c **** *
  29:C:/Users/Yushev/git/optiga-trust-qi/examples/optiga/usecases\example_optiga_hibernate_restore.c **** * \file example_optiga_hibernate_restore.c
  30:C:/Users/Yushev/git/optiga-trust-qi/examples/optiga/usecases\example_optiga_hibernate_restore.c **** *
  31:C:/Users/Yushev/git/optiga-trust-qi/examples/optiga/usecases\example_optiga_hibernate_restore.c **** * \brief   This file provides an example for hibernate and restore functionalities
  32:C:/Users/Yushev/git/optiga-trust-qi/examples/optiga/usecases\example_optiga_hibernate_restore.c **** *
  33:C:/Users/Yushev/git/optiga-trust-qi/examples/optiga/usecases\example_optiga_hibernate_restore.c **** * \ingroup grUseCases
  34:C:/Users/Yushev/git/optiga-trust-qi/examples/optiga/usecases\example_optiga_hibernate_restore.c **** *
  35:C:/Users/Yushev/git/optiga-trust-qi/examples/optiga/usecases\example_optiga_hibernate_restore.c **** * @{
  36:C:/Users/Yushev/git/optiga-trust-qi/examples/optiga/usecases\example_optiga_hibernate_restore.c **** */
  37:C:/Users/Yushev/git/optiga-trust-qi/examples/optiga/usecases\example_optiga_hibernate_restore.c **** 
  38:C:/Users/Yushev/git/optiga-trust-qi/examples/optiga/usecases\example_optiga_hibernate_restore.c **** #include "optiga/optiga_util.h"
  39:C:/Users/Yushev/git/optiga-trust-qi/examples/optiga/usecases\example_optiga_hibernate_restore.c **** #include "optiga/optiga_crypt.h"
  40:C:/Users/Yushev/git/optiga-trust-qi/examples/optiga/usecases\example_optiga_hibernate_restore.c **** #include "optiga/pal/pal_os_timer.h"
  41:C:/Users/Yushev/git/optiga-trust-qi/examples/optiga/usecases\example_optiga_hibernate_restore.c **** #include "optiga_example.h"
  42:C:/Users/Yushev/git/optiga-trust-qi/examples/optiga/usecases\example_optiga_hibernate_restore.c **** 
  43:C:/Users/Yushev/git/optiga-trust-qi/examples/optiga/usecases\example_optiga_hibernate_restore.c **** //lint --e{526} suppress "the function is defined in example_pair_host_and_optiga_using_pre_shared_
  44:C:/Users/Yushev/git/optiga-trust-qi/examples/optiga/usecases\example_optiga_hibernate_restore.c **** void example_pair_host_and_optiga_using_pre_shared_secret(void);
  45:C:/Users/Yushev/git/optiga-trust-qi/examples/optiga/usecases\example_optiga_hibernate_restore.c **** /**
  46:C:/Users/Yushev/git/optiga-trust-qi/examples/optiga/usecases\example_optiga_hibernate_restore.c ****  * Callback when optiga_util_xxxx operation is completed asynchronously
  47:C:/Users/Yushev/git/optiga-trust-qi/examples/optiga/usecases\example_optiga_hibernate_restore.c ****  */
  48:C:/Users/Yushev/git/optiga-trust-qi/examples/optiga/usecases\example_optiga_hibernate_restore.c **** static volatile optiga_lib_status_t optiga_lib_status;
  49:C:/Users/Yushev/git/optiga-trust-qi/examples/optiga/usecases\example_optiga_hibernate_restore.c **** //lint --e{818} suppress "argument "context" is not used in the sample provided"
  50:C:/Users/Yushev/git/optiga-trust-qi/examples/optiga/usecases\example_optiga_hibernate_restore.c **** static void optiga_lib_callback(void * context, optiga_lib_status_t return_status)
  51:C:/Users/Yushev/git/optiga-trust-qi/examples/optiga/usecases\example_optiga_hibernate_restore.c **** {
  27              	 .loc 1 51 0
  28              	 .cfi_startproc
  29              	 
  30              	 
  31              	 
  32              	.LVL0:
  52:C:/Users/Yushev/git/optiga-trust-qi/examples/optiga/usecases\example_optiga_hibernate_restore.c ****     optiga_lib_status = return_status;
  33              	 .loc 1 52 0
  34 0000 014B     	 ldr r3,.L2
  35 0002 1980     	 strh r1,[r3]
  36 0004 7047     	 bx lr
  37              	.L3:
  38 0006 00BF     	 .align 2
  39              	.L2:
  40 0008 00000000 	 .word .LANCHOR0
  41              	 .cfi_endproc
  42              	.LFE0:
  44              	 .section .text.example_optiga_util_hibernate_restore,"ax",%progbits
  45              	 .align 1
  46              	 .global example_optiga_util_hibernate_restore
  47              	 .thumb
  48              	 .thumb_func
  50              	example_optiga_util_hibernate_restore:
  51              	.LFB1:
  53:C:/Users/Yushev/git/optiga-trust-qi/examples/optiga/usecases\example_optiga_hibernate_restore.c ****     if (NULL != context)
  54:C:/Users/Yushev/git/optiga-trust-qi/examples/optiga/usecases\example_optiga_hibernate_restore.c ****     {
  55:C:/Users/Yushev/git/optiga-trust-qi/examples/optiga/usecases\example_optiga_hibernate_restore.c ****         // callback to upper layer here
  56:C:/Users/Yushev/git/optiga-trust-qi/examples/optiga/usecases\example_optiga_hibernate_restore.c ****     }
  57:C:/Users/Yushev/git/optiga-trust-qi/examples/optiga/usecases\example_optiga_hibernate_restore.c **** }
  58:C:/Users/Yushev/git/optiga-trust-qi/examples/optiga/usecases\example_optiga_hibernate_restore.c **** 
  59:C:/Users/Yushev/git/optiga-trust-qi/examples/optiga/usecases\example_optiga_hibernate_restore.c **** //SHA-256 Digest to be signed
  60:C:/Users/Yushev/git/optiga-trust-qi/examples/optiga/usecases\example_optiga_hibernate_restore.c **** static const uint8_t digest [] =
  61:C:/Users/Yushev/git/optiga-trust-qi/examples/optiga/usecases\example_optiga_hibernate_restore.c **** {
  62:C:/Users/Yushev/git/optiga-trust-qi/examples/optiga/usecases\example_optiga_hibernate_restore.c ****     0x61, 0xC7, 0xDE, 0xF9, 0x0F, 0xD5, 0xCD, 0x7A,0x8B, 0x7A, 0x36, 0x41, 0x04, 0xE0, 0x0D, 0x82,
  63:C:/Users/Yushev/git/optiga-trust-qi/examples/optiga/usecases\example_optiga_hibernate_restore.c ****     0x38, 0x46, 0xBF, 0xB7, 0x70, 0xEE, 0xBF, 0x8F,0x40, 0x25, 0x2E, 0x0A, 0x21, 0x42, 0xAF, 0x9C,
  64:C:/Users/Yushev/git/optiga-trust-qi/examples/optiga/usecases\example_optiga_hibernate_restore.c **** };
  65:C:/Users/Yushev/git/optiga-trust-qi/examples/optiga/usecases\example_optiga_hibernate_restore.c **** 
  66:C:/Users/Yushev/git/optiga-trust-qi/examples/optiga/usecases\example_optiga_hibernate_restore.c **** /**
  67:C:/Users/Yushev/git/optiga-trust-qi/examples/optiga/usecases\example_optiga_hibernate_restore.c ****  * The below example demonstrates hibernate and restore functionalities
  68:C:/Users/Yushev/git/optiga-trust-qi/examples/optiga/usecases\example_optiga_hibernate_restore.c ****  *
  69:C:/Users/Yushev/git/optiga-trust-qi/examples/optiga/usecases\example_optiga_hibernate_restore.c ****  * Example for #optiga_util_open_application and #optiga_util_close_application
  70:C:/Users/Yushev/git/optiga-trust-qi/examples/optiga/usecases\example_optiga_hibernate_restore.c ****  *
  71:C:/Users/Yushev/git/optiga-trust-qi/examples/optiga/usecases\example_optiga_hibernate_restore.c ****  */
  72:C:/Users/Yushev/git/optiga-trust-qi/examples/optiga/usecases\example_optiga_hibernate_restore.c **** void example_optiga_util_hibernate_restore(void)
  73:C:/Users/Yushev/git/optiga-trust-qi/examples/optiga/usecases\example_optiga_hibernate_restore.c **** {
  52              	 .loc 1 73 0
  53              	 .cfi_startproc
  54              	 
  55              	 
  56              	.LVL1:
  57 0000 2DE9F043 	 push {r4,r5,r6,r7,r8,r9,lr}
  58              	.LCFI0:
  59              	 .cfi_def_cfa_offset 28
  60              	 .cfi_offset 4,-28
  61              	 .cfi_offset 5,-24
  62              	 .cfi_offset 6,-20
  63              	 .cfi_offset 7,-16
  64              	 .cfi_offset 8,-12
  65              	 .cfi_offset 9,-8
  66              	 .cfi_offset 14,-4
  67 0004 B7B0     	 sub sp,sp,#220
  68              	.LCFI1:
  69              	 .cfi_def_cfa_offset 248
  74:C:/Users/Yushev/git/optiga-trust-qi/examples/optiga/usecases\example_optiga_hibernate_restore.c ****     optiga_util_t * me_util = NULL;
  75:C:/Users/Yushev/git/optiga-trust-qi/examples/optiga/usecases\example_optiga_hibernate_restore.c ****     optiga_crypt_t * me_crypt = NULL;
  76:C:/Users/Yushev/git/optiga-trust-qi/examples/optiga/usecases\example_optiga_hibernate_restore.c ****     // To store the public key generated
  77:C:/Users/Yushev/git/optiga-trust-qi/examples/optiga/usecases\example_optiga_hibernate_restore.c ****     uint8_t public_key [100];
  78:C:/Users/Yushev/git/optiga-trust-qi/examples/optiga/usecases\example_optiga_hibernate_restore.c ****     //To store the signature generated
  79:C:/Users/Yushev/git/optiga-trust-qi/examples/optiga/usecases\example_optiga_hibernate_restore.c ****     uint8_t signature [80];
  80:C:/Users/Yushev/git/optiga-trust-qi/examples/optiga/usecases\example_optiga_hibernate_restore.c ****     uint16_t signature_length = sizeof(signature);
  70              	 .loc 1 80 0
  71 0006 5023     	 movs r3,#80
  81:C:/Users/Yushev/git/optiga-trust-qi/examples/optiga/usecases\example_optiga_hibernate_restore.c ****     uint16_t bytes_to_read = 1;
  82:C:/Users/Yushev/git/optiga-trust-qi/examples/optiga/usecases\example_optiga_hibernate_restore.c ****     optiga_key_id_t optiga_key_id;
  83:C:/Users/Yushev/git/optiga-trust-qi/examples/optiga/usecases\example_optiga_hibernate_restore.c ****     optiga_lib_status_t return_status = !OPTIGA_LIB_SUCCESS;
  84:C:/Users/Yushev/git/optiga-trust-qi/examples/optiga/usecases\example_optiga_hibernate_restore.c ****     uint8_t security_event_counter = 0;
  72              	 .loc 1 84 0
  73 0008 0026     	 movs r6,#0
  80:C:/Users/Yushev/git/optiga-trust-qi/examples/optiga/usecases\example_optiga_hibernate_restore.c ****     uint16_t bytes_to_read = 1;
  74              	 .loc 1 80 0
  75 000a ADF81430 	 strh r3,[sp,#20]
  85:C:/Users/Yushev/git/optiga-trust-qi/examples/optiga/usecases\example_optiga_hibernate_restore.c ****     public_key_from_host_t public_key_details;
  86:C:/Users/Yushev/git/optiga-trust-qi/examples/optiga/usecases\example_optiga_hibernate_restore.c ****     //To store the generated public key as part of Generate key pair
  87:C:/Users/Yushev/git/optiga-trust-qi/examples/optiga/usecases\example_optiga_hibernate_restore.c ****     uint16_t public_key_length = sizeof(public_key);
  88:C:/Users/Yushev/git/optiga-trust-qi/examples/optiga/usecases\example_optiga_hibernate_restore.c **** 
  89:C:/Users/Yushev/git/optiga-trust-qi/examples/optiga/usecases\example_optiga_hibernate_restore.c ****     OPTIGA_EXAMPLE_LOG_MESSAGE("Begin demonstrating hibernate feature...\n");    
  76              	 .loc 1 89 0
  77 000e 9148     	 ldr r0,.L74
  78 0010 9149     	 ldr r1,.L74+4
  79 0012 924A     	 ldr r2,.L74+8
  84:C:/Users/Yushev/git/optiga-trust-qi/examples/optiga/usecases\example_optiga_hibernate_restore.c ****     public_key_from_host_t public_key_details;
  80              	 .loc 1 84 0
  81 0014 8DF81360 	 strb r6,[sp,#19]
  87:C:/Users/Yushev/git/optiga-trust-qi/examples/optiga/usecases\example_optiga_hibernate_restore.c **** 
  82              	 .loc 1 87 0
  83 0018 6423     	 movs r3,#100
  81:C:/Users/Yushev/git/optiga-trust-qi/examples/optiga/usecases\example_optiga_hibernate_restore.c ****     optiga_key_id_t optiga_key_id;
  84              	 .loc 1 81 0
  85 001a 4FF00108 	 mov r8,#1
  87:C:/Users/Yushev/git/optiga-trust-qi/examples/optiga/usecases\example_optiga_hibernate_restore.c **** 
  86              	 .loc 1 87 0
  87 001e ADF81A30 	 strh r3,[sp,#26]
  81:C:/Users/Yushev/git/optiga-trust-qi/examples/optiga/usecases\example_optiga_hibernate_restore.c ****     optiga_key_id_t optiga_key_id;
  88              	 .loc 1 81 0
  89 0022 ADF81680 	 strh r8,[sp,#22]
  90              	.LVL2:
  91              	 .loc 1 89 0
  92 0026 FFF7FEFF 	 bl optiga_lib_print_message
  93              	.LVL3:
  90:C:/Users/Yushev/git/optiga-trust-qi/examples/optiga/usecases\example_optiga_hibernate_restore.c ****     OPTIGA_EXAMPLE_LOG_MESSAGE(__FUNCTION__);
  94              	 .loc 1 90 0
  95 002a 8D48     	 ldr r0,.L74+12
  96 002c 8A49     	 ldr r1,.L74+4
  97 002e 8B4A     	 ldr r2,.L74+8
  98 0030 FFF7FEFF 	 bl optiga_lib_print_message
  99              	.LVL4:
  91:C:/Users/Yushev/git/optiga-trust-qi/examples/optiga/usecases\example_optiga_hibernate_restore.c **** 
  92:C:/Users/Yushev/git/optiga-trust-qi/examples/optiga/usecases\example_optiga_hibernate_restore.c ****     do
  93:C:/Users/Yushev/git/optiga-trust-qi/examples/optiga/usecases\example_optiga_hibernate_restore.c ****     {
  94:C:/Users/Yushev/git/optiga-trust-qi/examples/optiga/usecases\example_optiga_hibernate_restore.c ****         //Create an instance of optiga_util and optiga_crypt
  95:C:/Users/Yushev/git/optiga-trust-qi/examples/optiga/usecases\example_optiga_hibernate_restore.c ****         me_util = optiga_util_create(0, optiga_lib_callback, NULL);
 100              	 .loc 1 95 0
 101 0034 3046     	 mov r0,r6
 102 0036 8B49     	 ldr r1,.L74+16
 103 0038 3246     	 mov r2,r6
 104 003a FFF7FEFF 	 bl optiga_util_create
 105              	.LVL5:
  96:C:/Users/Yushev/git/optiga-trust-qi/examples/optiga/usecases\example_optiga_hibernate_restore.c ****         if (NULL == me_util)
 106              	 .loc 1 96 0
 107 003e 0546     	 mov r5,r0
 108 0040 0028     	 cmp r0,#0
 109 0042 00F0E480 	 beq .L5
  97:C:/Users/Yushev/git/optiga-trust-qi/examples/optiga/usecases\example_optiga_hibernate_restore.c ****         {
  98:C:/Users/Yushev/git/optiga-trust-qi/examples/optiga/usecases\example_optiga_hibernate_restore.c ****             break;
  99:C:/Users/Yushev/git/optiga-trust-qi/examples/optiga/usecases\example_optiga_hibernate_restore.c ****         }
 100:C:/Users/Yushev/git/optiga-trust-qi/examples/optiga/usecases\example_optiga_hibernate_restore.c **** 
 101:C:/Users/Yushev/git/optiga-trust-qi/examples/optiga/usecases\example_optiga_hibernate_restore.c ****         me_crypt = optiga_crypt_create(0, optiga_lib_callback, NULL);
 110              	 .loc 1 101 0
 111 0046 3046     	 mov r0,r6
 112              	.LVL6:
 113 0048 8649     	 ldr r1,.L74+16
 114 004a 3246     	 mov r2,r6
 115 004c FFF7FEFF 	 bl optiga_crypt_create
 116              	.LVL7:
 102:C:/Users/Yushev/git/optiga-trust-qi/examples/optiga/usecases\example_optiga_hibernate_restore.c ****         if (NULL == me_crypt)
 117              	 .loc 1 102 0
 118 0050 0446     	 mov r4,r0
 119 0052 0028     	 cmp r0,#0
 120 0054 00F0DB80 	 beq .L5
 103:C:/Users/Yushev/git/optiga-trust-qi/examples/optiga/usecases\example_optiga_hibernate_restore.c ****         {
 104:C:/Users/Yushev/git/optiga-trust-qi/examples/optiga/usecases\example_optiga_hibernate_restore.c ****             break;
 105:C:/Users/Yushev/git/optiga-trust-qi/examples/optiga/usecases\example_optiga_hibernate_restore.c ****         }
 106:C:/Users/Yushev/git/optiga-trust-qi/examples/optiga/usecases\example_optiga_hibernate_restore.c **** 
 107:C:/Users/Yushev/git/optiga-trust-qi/examples/optiga/usecases\example_optiga_hibernate_restore.c ****         /**
 108:C:/Users/Yushev/git/optiga-trust-qi/examples/optiga/usecases\example_optiga_hibernate_restore.c ****          * 1. Open the application on OPTIGA which is a pre-condition to perform any other operatio
 109:C:/Users/Yushev/git/optiga-trust-qi/examples/optiga/usecases\example_optiga_hibernate_restore.c ****          *    using optiga_util_open_application
 110:C:/Users/Yushev/git/optiga-trust-qi/examples/optiga/usecases\example_optiga_hibernate_restore.c ****          */
 111:C:/Users/Yushev/git/optiga-trust-qi/examples/optiga/usecases\example_optiga_hibernate_restore.c ****         optiga_lib_status = OPTIGA_LIB_BUSY;
 121              	 .loc 1 111 0
 122 0058 834F     	 ldr r7,.L74+20
 112:C:/Users/Yushev/git/optiga-trust-qi/examples/optiga/usecases\example_optiga_hibernate_restore.c ****         return_status = optiga_util_open_application(me_util, 0);
 123              	 .loc 1 112 0
 124 005a 2846     	 mov r0,r5
 125              	.LVL8:
 126 005c 3146     	 mov r1,r6
 111:C:/Users/Yushev/git/optiga-trust-qi/examples/optiga/usecases\example_optiga_hibernate_restore.c ****         return_status = optiga_util_open_application(me_util, 0);
 127              	 .loc 1 111 0
 128 005e A7F80080 	 strh r8,[r7]
 129              	 .loc 1 112 0
 130 0062 FFF7FEFF 	 bl optiga_util_open_application
 131              	.LVL9:
 113:C:/Users/Yushev/git/optiga-trust-qi/examples/optiga/usecases\example_optiga_hibernate_restore.c **** 
 114:C:/Users/Yushev/git/optiga-trust-qi/examples/optiga/usecases\example_optiga_hibernate_restore.c ****         WAIT_AND_CHECK_STATUS(return_status, optiga_lib_status);
 132              	 .loc 1 114 0
 133 0066 0246     	 mov r2,r0
 134 0068 0028     	 cmp r0,#0
 135 006a 40F0D280 	 bne .L32
 136              	.L7:
 137              	 .loc 1 114 0 is_stmt 0 discriminator 1
 138 006e 3B88     	 ldrh r3,[r7]
 139 0070 7D4E     	 ldr r6,.L74+20
 140 0072 9BB2     	 uxth r3,r3
 141 0074 012B     	 cmp r3,#1
 142 0076 FAD0     	 beq .L7
 143              	 .loc 1 114 0 discriminator 2
 144 0078 B6F80080 	 ldrh r8,[r6]
 145 007c 1FFA88F8 	 uxth r8,r8
 146 0080 B8F1000F 	 cmp r8,#0
 147 0084 01D0     	 beq .L8
 148              	 .loc 1 114 0 discriminator 3
 149 0086 3288     	 ldrh r2,[r6]
 150 0088 B8E0     	 b .L70
 151              	.L8:
 115:C:/Users/Yushev/git/optiga-trust-qi/examples/optiga/usecases\example_optiga_hibernate_restore.c **** 
 116:C:/Users/Yushev/git/optiga-trust-qi/examples/optiga/usecases\example_optiga_hibernate_restore.c ****         /**
 117:C:/Users/Yushev/git/optiga-trust-qi/examples/optiga/usecases\example_optiga_hibernate_restore.c ****          * 2. Pairing the Host and OPTIGA using a pre-shared secret
 118:C:/Users/Yushev/git/optiga-trust-qi/examples/optiga/usecases\example_optiga_hibernate_restore.c ****          */
 119:C:/Users/Yushev/git/optiga-trust-qi/examples/optiga/usecases\example_optiga_hibernate_restore.c ****         example_pair_host_and_optiga_using_pre_shared_secret();
 152              	 .loc 1 119 0 is_stmt 1
 153 008a FFF7FEFF 	 bl example_pair_host_and_optiga_using_pre_shared_secret
 154              	.LVL10:
 120:C:/Users/Yushev/git/optiga-trust-qi/examples/optiga/usecases\example_optiga_hibernate_restore.c **** 
 121:C:/Users/Yushev/git/optiga-trust-qi/examples/optiga/usecases\example_optiga_hibernate_restore.c ****         /**
 122:C:/Users/Yushev/git/optiga-trust-qi/examples/optiga/usecases\example_optiga_hibernate_restore.c ****          * 3. Generate ECC Key pair
 123:C:/Users/Yushev/git/optiga-trust-qi/examples/optiga/usecases\example_optiga_hibernate_restore.c ****          *       - Use ECC NIST P 256 Curve
 124:C:/Users/Yushev/git/optiga-trust-qi/examples/optiga/usecases\example_optiga_hibernate_restore.c ****          *       - Specify the Key Usage (Key Agreement or Sign based on requirement)
 125:C:/Users/Yushev/git/optiga-trust-qi/examples/optiga/usecases\example_optiga_hibernate_restore.c ****          *       - Store the Private key generated in a Session OID
 126:C:/Users/Yushev/git/optiga-trust-qi/examples/optiga/usecases\example_optiga_hibernate_restore.c ****          *       - Export Public Key
 127:C:/Users/Yushev/git/optiga-trust-qi/examples/optiga/usecases\example_optiga_hibernate_restore.c ****          */
 128:C:/Users/Yushev/git/optiga-trust-qi/examples/optiga/usecases\example_optiga_hibernate_restore.c ****         optiga_lib_status = OPTIGA_LIB_BUSY;
 155              	 .loc 1 128 0
 156 008e 0121     	 movs r1,#1
 157 0090 3180     	 strh r1,[r6]
 129:C:/Users/Yushev/git/optiga-trust-qi/examples/optiga/usecases\example_optiga_hibernate_restore.c ****         optiga_key_id = OPTIGA_KEY_ID_SESSION_BASED;
 158              	 .loc 1 129 0
 159 0092 36AE     	 add r6,sp,#216
 130:C:/Users/Yushev/git/optiga-trust-qi/examples/optiga/usecases\example_optiga_hibernate_restore.c ****         // OPTIGA Comms Shielded connection settings to enable the protection
 131:C:/Users/Yushev/git/optiga-trust-qi/examples/optiga/usecases\example_optiga_hibernate_restore.c ****         OPTIGA_CRYPT_SET_COMMS_PROTECTION_LEVEL(me_crypt, OPTIGA_COMMS_RESPONSE_PROTECTION);
 160              	 .loc 1 131 0
 161 0094 2046     	 mov r0,r4
 129:C:/Users/Yushev/git/optiga-trust-qi/examples/optiga/usecases\example_optiga_hibernate_restore.c ****         optiga_key_id = OPTIGA_KEY_ID_SESSION_BASED;
 162              	 .loc 1 129 0
 163 0096 26F8C08D 	 strh r8,[r6,#-192]!
 164              	 .loc 1 131 0
 165 009a 0222     	 movs r2,#2
 166 009c FFF7FEFF 	 bl optiga_crypt_set_comms_params
 167              	.LVL11:
 132:C:/Users/Yushev/git/optiga-trust-qi/examples/optiga/usecases\example_optiga_hibernate_restore.c **** 
 133:C:/Users/Yushev/git/optiga-trust-qi/examples/optiga/usecases\example_optiga_hibernate_restore.c ****         return_status = optiga_crypt_ecc_generate_keypair(me_crypt,
 168              	 .loc 1 133 0
 169 00a0 0096     	 str r6,[sp]
 170 00a2 0DF11A03 	 add r3,sp,#26
 171 00a6 1DAE     	 add r6,sp,#116
 172 00a8 0293     	 str r3,[sp,#8]
 173 00aa 1022     	 movs r2,#16
 174 00ac 0196     	 str r6,[sp,#4]
 175 00ae 2046     	 mov r0,r4
 176 00b0 0321     	 movs r1,#3
 177 00b2 4346     	 mov r3,r8
 178 00b4 FFF7FEFF 	 bl optiga_crypt_ecc_generate_keypair
 179              	.LVL12:
 134:C:/Users/Yushev/git/optiga-trust-qi/examples/optiga/usecases\example_optiga_hibernate_restore.c ****                                                           OPTIGA_ECC_CURVE_NIST_P_256,
 135:C:/Users/Yushev/git/optiga-trust-qi/examples/optiga/usecases\example_optiga_hibernate_restore.c ****                                                           (uint8_t)OPTIGA_KEY_USAGE_SIGN,
 136:C:/Users/Yushev/git/optiga-trust-qi/examples/optiga/usecases\example_optiga_hibernate_restore.c ****                                                           FALSE,
 137:C:/Users/Yushev/git/optiga-trust-qi/examples/optiga/usecases\example_optiga_hibernate_restore.c ****                                                           &optiga_key_id,
 138:C:/Users/Yushev/git/optiga-trust-qi/examples/optiga/usecases\example_optiga_hibernate_restore.c ****                                                           public_key,
 139:C:/Users/Yushev/git/optiga-trust-qi/examples/optiga/usecases\example_optiga_hibernate_restore.c ****                                                           &public_key_length);
 140:C:/Users/Yushev/git/optiga-trust-qi/examples/optiga/usecases\example_optiga_hibernate_restore.c ****         WAIT_AND_CHECK_STATUS(return_status, optiga_lib_status);
 180              	 .loc 1 140 0
 181 00b8 0246     	 mov r2,r0
 182 00ba 0028     	 cmp r0,#0
 183 00bc 40F0A980 	 bne .L32
 184              	.L10:
 185              	 .loc 1 140 0 is_stmt 0 discriminator 1
 186 00c0 3B88     	 ldrh r3,[r7]
 187 00c2 694A     	 ldr r2,.L74+20
 188 00c4 9BB2     	 uxth r3,r3
 189 00c6 012B     	 cmp r3,#1
 190 00c8 FAD0     	 beq .L10
 191              	 .loc 1 140 0 discriminator 2
 192 00ca 1388     	 ldrh r3,[r2]
 193 00cc 9BB2     	 uxth r3,r3
 194 00ce 002B     	 cmp r3,#0
 195 00d0 40F09380 	 bne .L71
 196              	.LVL13:
 197              	.L11:
 141:C:/Users/Yushev/git/optiga-trust-qi/examples/optiga/usecases\example_optiga_hibernate_restore.c **** 
 142:C:/Users/Yushev/git/optiga-trust-qi/examples/optiga/usecases\example_optiga_hibernate_restore.c ****         /**
 143:C:/Users/Yushev/git/optiga-trust-qi/examples/optiga/usecases\example_optiga_hibernate_restore.c ****          * - The subsequent steps will hibernate OPTIGA and save the session and optiga comms relat
 144:C:/Users/Yushev/git/optiga-trust-qi/examples/optiga/usecases\example_optiga_hibernate_restore.c ****          * - The session and optiga comms related information are then restored back and crypto ope
 145:C:/Users/Yushev/git/optiga-trust-qi/examples/optiga/usecases\example_optiga_hibernate_restore.c ****          */
 146:C:/Users/Yushev/git/optiga-trust-qi/examples/optiga/usecases\example_optiga_hibernate_restore.c **** 
 147:C:/Users/Yushev/git/optiga-trust-qi/examples/optiga/usecases\example_optiga_hibernate_restore.c ****         /**
 148:C:/Users/Yushev/git/optiga-trust-qi/examples/optiga/usecases\example_optiga_hibernate_restore.c ****          * 4. To perform the hibernate, Security Event Counter(SEC) must be 0.
 149:C:/Users/Yushev/git/optiga-trust-qi/examples/optiga/usecases\example_optiga_hibernate_restore.c ****          *    Read SEC data object (0xE0C5) and wait until SEC = 0
 150:C:/Users/Yushev/git/optiga-trust-qi/examples/optiga/usecases\example_optiga_hibernate_restore.c ****          */
 151:C:/Users/Yushev/git/optiga-trust-qi/examples/optiga/usecases\example_optiga_hibernate_restore.c ****         do
 152:C:/Users/Yushev/git/optiga-trust-qi/examples/optiga/usecases\example_optiga_hibernate_restore.c ****         {
 153:C:/Users/Yushev/git/optiga-trust-qi/examples/optiga/usecases\example_optiga_hibernate_restore.c ****             optiga_lib_status = OPTIGA_LIB_BUSY;
 198              	 .loc 1 153 0 is_stmt 1
 199 00d4 0123     	 movs r3,#1
 200 00d6 3B80     	 strh r3,[r7]
 154:C:/Users/Yushev/git/optiga-trust-qi/examples/optiga/usecases\example_optiga_hibernate_restore.c ****             return_status = optiga_util_read_data(me_util,
 201              	 .loc 1 154 0
 202 00d8 0DF11603 	 add r3,sp,#22
 203 00dc 0093     	 str r3,[sp]
 204 00de 2846     	 mov r0,r5
 205 00e0 4EF2C501 	 movw r1,#57541
 206 00e4 0022     	 movs r2,#0
 207 00e6 0DF11303 	 add r3,sp,#19
 208 00ea FFF7FEFF 	 bl optiga_util_read_data
 209              	.LVL14:
 155:C:/Users/Yushev/git/optiga-trust-qi/examples/optiga/usecases\example_optiga_hibernate_restore.c ****                                                   0xE0C5,
 156:C:/Users/Yushev/git/optiga-trust-qi/examples/optiga/usecases\example_optiga_hibernate_restore.c ****                                                   0x0000,
 157:C:/Users/Yushev/git/optiga-trust-qi/examples/optiga/usecases\example_optiga_hibernate_restore.c ****                                                   &security_event_counter,
 158:C:/Users/Yushev/git/optiga-trust-qi/examples/optiga/usecases\example_optiga_hibernate_restore.c ****                                                   &bytes_to_read);
 159:C:/Users/Yushev/git/optiga-trust-qi/examples/optiga/usecases\example_optiga_hibernate_restore.c **** 
 160:C:/Users/Yushev/git/optiga-trust-qi/examples/optiga/usecases\example_optiga_hibernate_restore.c ****             WAIT_AND_CHECK_STATUS(return_status, optiga_lib_status);
 210              	 .loc 1 160 0
 211 00ee 88B9     	 cbnz r0,.L13
 212              	.L12:
 213              	 .loc 1 160 0 is_stmt 0 discriminator 1
 214 00f0 3B88     	 ldrh r3,[r7]
 215 00f2 5D4A     	 ldr r2,.L74+20
 216 00f4 9BB2     	 uxth r3,r3
 217 00f6 012B     	 cmp r3,#1
 218 00f8 FAD0     	 beq .L12
 219              	 .loc 1 160 0 discriminator 2
 220 00fa 1388     	 ldrh r3,[r2]
 221 00fc 9BB2     	 uxth r3,r3
 222 00fe 0BB1     	 cbz r3,.L14
 223              	 .loc 1 160 0 discriminator 3
 224 0100 1388     	 ldrh r3,[r2]
 225              	.LVL15:
 226 0102 07E0     	 b .L13
 227              	.LVL16:
 228              	.L14:
 161:C:/Users/Yushev/git/optiga-trust-qi/examples/optiga/usecases\example_optiga_hibernate_restore.c ****             pal_os_timer_delay_in_milliseconds(1000);
 229              	 .loc 1 161 0 is_stmt 1
 230 0104 4FF47A70 	 mov r0,#1000
 231              	.LVL17:
 232 0108 FFF7FEFF 	 bl pal_os_timer_delay_in_milliseconds
 233              	.LVL18:
 162:C:/Users/Yushev/git/optiga-trust-qi/examples/optiga/usecases\example_optiga_hibernate_restore.c ****         } while (0 != security_event_counter);
 234              	 .loc 1 162 0
 235 010c 9DF81330 	 ldrb r3,[sp,#19]
 236 0110 002B     	 cmp r3,#0
 237 0112 DFD1     	 bne .L11
 238              	.L13:
 163:C:/Users/Yushev/git/optiga-trust-qi/examples/optiga/usecases\example_optiga_hibernate_restore.c **** 
 164:C:/Users/Yushev/git/optiga-trust-qi/examples/optiga/usecases\example_optiga_hibernate_restore.c ****         /**
 165:C:/Users/Yushev/git/optiga-trust-qi/examples/optiga/usecases\example_optiga_hibernate_restore.c ****          * 5. Hibernate the application on OPTIGA
 166:C:/Users/Yushev/git/optiga-trust-qi/examples/optiga/usecases\example_optiga_hibernate_restore.c ****          *    using optiga_util_close_application with perform_hibernate parameter as true
 167:C:/Users/Yushev/git/optiga-trust-qi/examples/optiga/usecases\example_optiga_hibernate_restore.c ****          */
 168:C:/Users/Yushev/git/optiga-trust-qi/examples/optiga/usecases\example_optiga_hibernate_restore.c ****         optiga_lib_status = OPTIGA_LIB_BUSY;
 239              	 .loc 1 168 0
 240 0114 0121     	 movs r1,#1
 169:C:/Users/Yushev/git/optiga-trust-qi/examples/optiga/usecases\example_optiga_hibernate_restore.c ****         return_status = optiga_util_close_application(me_util, 1);
 241              	 .loc 1 169 0
 242 0116 2846     	 mov r0,r5
 168:C:/Users/Yushev/git/optiga-trust-qi/examples/optiga/usecases\example_optiga_hibernate_restore.c ****         return_status = optiga_util_close_application(me_util, 1);
 243              	 .loc 1 168 0
 244 0118 3980     	 strh r1,[r7]
 245              	 .loc 1 169 0
 246 011a FFF7FEFF 	 bl optiga_util_close_application
 247              	.LVL19:
 170:C:/Users/Yushev/git/optiga-trust-qi/examples/optiga/usecases\example_optiga_hibernate_restore.c **** 
 171:C:/Users/Yushev/git/optiga-trust-qi/examples/optiga/usecases\example_optiga_hibernate_restore.c ****         WAIT_AND_CHECK_STATUS(return_status, optiga_lib_status);
 248              	 .loc 1 171 0
 249 011e 0246     	 mov r2,r0
 250 0120 0028     	 cmp r0,#0
 251 0122 76D1     	 bne .L32
 252              	.L16:
 253              	 .loc 1 171 0 is_stmt 0 discriminator 1
 254 0124 3A88     	 ldrh r2,[r7]
 255 0126 504B     	 ldr r3,.L74+20
 256 0128 92B2     	 uxth r2,r2
 257 012a 012A     	 cmp r2,#1
 258 012c FAD0     	 beq .L16
 259              	 .loc 1 171 0 discriminator 2
 260 012e 1A88     	 ldrh r2,[r3]
 261 0130 92B2     	 uxth r2,r2
 262 0132 002A     	 cmp r2,#0
 263 0134 50D1     	 bne .L69
 172:C:/Users/Yushev/git/optiga-trust-qi/examples/optiga/usecases\example_optiga_hibernate_restore.c **** 
 173:C:/Users/Yushev/git/optiga-trust-qi/examples/optiga/usecases\example_optiga_hibernate_restore.c ****         /**
 174:C:/Users/Yushev/git/optiga-trust-qi/examples/optiga/usecases\example_optiga_hibernate_restore.c ****          * 6. Restore the application on OPTIGA
 175:C:/Users/Yushev/git/optiga-trust-qi/examples/optiga/usecases\example_optiga_hibernate_restore.c ****          *    using optiga_util_open_application with perform_restore parameter as true
 176:C:/Users/Yushev/git/optiga-trust-qi/examples/optiga/usecases\example_optiga_hibernate_restore.c ****          */
 177:C:/Users/Yushev/git/optiga-trust-qi/examples/optiga/usecases\example_optiga_hibernate_restore.c ****         optiga_lib_status = OPTIGA_LIB_BUSY;
 264              	 .loc 1 177 0 is_stmt 1
 265 0136 0121     	 movs r1,#1
 178:C:/Users/Yushev/git/optiga-trust-qi/examples/optiga/usecases\example_optiga_hibernate_restore.c ****         return_status = optiga_util_open_application(me_util, 1);
 266              	 .loc 1 178 0
 267 0138 2846     	 mov r0,r5
 268              	.LVL20:
 177:C:/Users/Yushev/git/optiga-trust-qi/examples/optiga/usecases\example_optiga_hibernate_restore.c ****         return_status = optiga_util_open_application(me_util, 1);
 269              	 .loc 1 177 0
 270 013a 1980     	 strh r1,[r3]
 271              	 .loc 1 178 0
 272 013c FFF7FEFF 	 bl optiga_util_open_application
 273              	.LVL21:
 179:C:/Users/Yushev/git/optiga-trust-qi/examples/optiga/usecases\example_optiga_hibernate_restore.c **** 
 180:C:/Users/Yushev/git/optiga-trust-qi/examples/optiga/usecases\example_optiga_hibernate_restore.c ****         WAIT_AND_CHECK_STATUS(return_status, optiga_lib_status);
 274              	 .loc 1 180 0
 275 0140 0246     	 mov r2,r0
 276 0142 0028     	 cmp r0,#0
 277 0144 65D1     	 bne .L32
 278              	.L18:
 279              	 .loc 1 180 0 is_stmt 0 discriminator 1
 280 0146 3A88     	 ldrh r2,[r7]
 281 0148 474B     	 ldr r3,.L74+20
 282 014a 92B2     	 uxth r2,r2
 283 014c 012A     	 cmp r2,#1
 284 014e FAD0     	 beq .L18
 285              	 .loc 1 180 0 discriminator 2
 286 0150 B3F80080 	 ldrh r8,[r3]
 287 0154 1FFA88F8 	 uxth r8,r8
 288 0158 B8F1000F 	 cmp r8,#0
 289 015c 3CD1     	 bne .L69
 181:C:/Users/Yushev/git/optiga-trust-qi/examples/optiga/usecases\example_optiga_hibernate_restore.c **** 
 182:C:/Users/Yushev/git/optiga-trust-qi/examples/optiga/usecases\example_optiga_hibernate_restore.c ****         /**
 183:C:/Users/Yushev/git/optiga-trust-qi/examples/optiga/usecases\example_optiga_hibernate_restore.c ****          * 7. Sign the digest using the session key from Step 3
 184:C:/Users/Yushev/git/optiga-trust-qi/examples/optiga/usecases\example_optiga_hibernate_restore.c ****          */
 185:C:/Users/Yushev/git/optiga-trust-qi/examples/optiga/usecases\example_optiga_hibernate_restore.c ****         optiga_lib_status = OPTIGA_LIB_BUSY;
 290              	 .loc 1 185 0 is_stmt 1
 291 015e 0121     	 movs r1,#1
 186:C:/Users/Yushev/git/optiga-trust-qi/examples/optiga/usecases\example_optiga_hibernate_restore.c ****         OPTIGA_CRYPT_SET_COMMS_PROTECTION_LEVEL(me_crypt, OPTIGA_COMMS_RESPONSE_PROTECTION);
 292              	 .loc 1 186 0
 293 0160 2046     	 mov r0,r4
 294              	.LVL22:
 295 0162 0222     	 movs r2,#2
 185:C:/Users/Yushev/git/optiga-trust-qi/examples/optiga/usecases\example_optiga_hibernate_restore.c ****         OPTIGA_CRYPT_SET_COMMS_PROTECTION_LEVEL(me_crypt, OPTIGA_COMMS_RESPONSE_PROTECTION);
 296              	 .loc 1 185 0
 297 0164 1980     	 strh r1,[r3]
 187:C:/Users/Yushev/git/optiga-trust-qi/examples/optiga/usecases\example_optiga_hibernate_restore.c ****         return_status = optiga_crypt_ecdsa_sign(me_crypt,
 298              	 .loc 1 187 0
 299 0166 0DF12409 	 add r9,sp,#36
 186:C:/Users/Yushev/git/optiga-trust-qi/examples/optiga/usecases\example_optiga_hibernate_restore.c ****         OPTIGA_CRYPT_SET_COMMS_PROTECTION_LEVEL(me_crypt, OPTIGA_COMMS_RESPONSE_PROTECTION);
 300              	 .loc 1 186 0
 301 016a FFF7FEFF 	 bl optiga_crypt_set_comms_params
 302              	.LVL23:
 303              	 .loc 1 187 0
 304 016e 05AB     	 add r3,sp,#20
 305 0170 0193     	 str r3,[sp,#4]
 306 0172 2022     	 movs r2,#32
 307 0174 CDF80090 	 str r9,[sp]
 308 0178 2046     	 mov r0,r4
 309 017a 3C49     	 ldr r1,.L74+24
 310 017c 4346     	 mov r3,r8
 311 017e FFF7FEFF 	 bl optiga_crypt_ecdsa_sign
 312              	.LVL24:
 188:C:/Users/Yushev/git/optiga-trust-qi/examples/optiga/usecases\example_optiga_hibernate_restore.c ****                                                 digest,
 189:C:/Users/Yushev/git/optiga-trust-qi/examples/optiga/usecases\example_optiga_hibernate_restore.c ****                                                 sizeof(digest),
 190:C:/Users/Yushev/git/optiga-trust-qi/examples/optiga/usecases\example_optiga_hibernate_restore.c ****                                                 OPTIGA_KEY_ID_SESSION_BASED,
 191:C:/Users/Yushev/git/optiga-trust-qi/examples/optiga/usecases\example_optiga_hibernate_restore.c ****                                                 signature,
 192:C:/Users/Yushev/git/optiga-trust-qi/examples/optiga/usecases\example_optiga_hibernate_restore.c ****                                                 &signature_length);
 193:C:/Users/Yushev/git/optiga-trust-qi/examples/optiga/usecases\example_optiga_hibernate_restore.c **** 
 194:C:/Users/Yushev/git/optiga-trust-qi/examples/optiga/usecases\example_optiga_hibernate_restore.c ****         WAIT_AND_CHECK_STATUS(return_status, optiga_lib_status);
 313              	 .loc 1 194 0
 314 0182 0246     	 mov r2,r0
 315 0184 0028     	 cmp r0,#0
 316 0186 44D1     	 bne .L32
 317              	.L20:
 318              	 .loc 1 194 0 is_stmt 0 discriminator 1
 319 0188 3A88     	 ldrh r2,[r7]
 320 018a 374B     	 ldr r3,.L74+20
 321 018c 92B2     	 uxth r2,r2
 322 018e 012A     	 cmp r2,#1
 323 0190 FAD0     	 beq .L20
 324              	 .loc 1 194 0 discriminator 2
 325 0192 1A88     	 ldrh r2,[r3]
 326 0194 92B2     	 uxth r2,r2
 327 0196 FAB9     	 cbnz r2,.L69
 195:C:/Users/Yushev/git/optiga-trust-qi/examples/optiga/usecases\example_optiga_hibernate_restore.c **** 
 196:C:/Users/Yushev/git/optiga-trust-qi/examples/optiga/usecases\example_optiga_hibernate_restore.c ****         /**
 197:C:/Users/Yushev/git/optiga-trust-qi/examples/optiga/usecases\example_optiga_hibernate_restore.c ****          * 8. Verify ECDSA signature using public key from step 2
 198:C:/Users/Yushev/git/optiga-trust-qi/examples/optiga/usecases\example_optiga_hibernate_restore.c ****          */
 199:C:/Users/Yushev/git/optiga-trust-qi/examples/optiga/usecases\example_optiga_hibernate_restore.c ****         optiga_lib_status = OPTIGA_LIB_BUSY;
 328              	 .loc 1 199 0 is_stmt 1
 329 0198 0122     	 movs r2,#1
 330 019a 1A80     	 strh r2,[r3]
 200:C:/Users/Yushev/git/optiga-trust-qi/examples/optiga/usecases\example_optiga_hibernate_restore.c ****         public_key_details.public_key = public_key;
 201:C:/Users/Yushev/git/optiga-trust-qi/examples/optiga/usecases\example_optiga_hibernate_restore.c ****         public_key_details.length = public_key_length;
 331              	 .loc 1 201 0
 332 019c BDF81A30 	 ldrh r3,[sp,#26]
 333 01a0 ADF82030 	 strh r3,[sp,#32]
 202:C:/Users/Yushev/git/optiga-trust-qi/examples/optiga/usecases\example_optiga_hibernate_restore.c ****         public_key_details.key_type = (uint8_t)OPTIGA_ECC_CURVE_NIST_P_256;
 334              	 .loc 1 202 0
 335 01a4 0323     	 movs r3,#3
 336 01a6 8DF82230 	 strb r3,[sp,#34]
 203:C:/Users/Yushev/git/optiga-trust-qi/examples/optiga/usecases\example_optiga_hibernate_restore.c ****         return_status = optiga_crypt_ecdsa_verify (me_crypt,
 337              	 .loc 1 203 0
 338 01aa BDF81430 	 ldrh r3,[sp,#20]
 339 01ae 0093     	 str r3,[sp]
 340 01b0 07AB     	 add r3,sp,#28
 341 01b2 0192     	 str r2,[sp,#4]
 342 01b4 0293     	 str r3,[sp,#8]
 343 01b6 2022     	 movs r2,#32
 344 01b8 2046     	 mov r0,r4
 345              	.LVL25:
 346 01ba 2C49     	 ldr r1,.L74+24
 200:C:/Users/Yushev/git/optiga-trust-qi/examples/optiga/usecases\example_optiga_hibernate_restore.c ****         public_key_details.public_key = public_key;
 347              	 .loc 1 200 0
 348 01bc 0796     	 str r6,[sp,#28]
 349              	 .loc 1 203 0
 350 01be 4B46     	 mov r3,r9
 351 01c0 FFF7FEFF 	 bl optiga_crypt_ecdsa_verify
 352              	.LVL26:
 204:C:/Users/Yushev/git/optiga-trust-qi/examples/optiga/usecases\example_optiga_hibernate_restore.c ****                                                    digest,
 205:C:/Users/Yushev/git/optiga-trust-qi/examples/optiga/usecases\example_optiga_hibernate_restore.c ****                                                    sizeof(digest),
 206:C:/Users/Yushev/git/optiga-trust-qi/examples/optiga/usecases\example_optiga_hibernate_restore.c ****                                                    signature,
 207:C:/Users/Yushev/git/optiga-trust-qi/examples/optiga/usecases\example_optiga_hibernate_restore.c ****                                                    signature_length,
 208:C:/Users/Yushev/git/optiga-trust-qi/examples/optiga/usecases\example_optiga_hibernate_restore.c ****                                                    OPTIGA_CRYPT_HOST_DATA,
 209:C:/Users/Yushev/git/optiga-trust-qi/examples/optiga/usecases\example_optiga_hibernate_restore.c ****                                                    &public_key_details);
 210:C:/Users/Yushev/git/optiga-trust-qi/examples/optiga/usecases\example_optiga_hibernate_restore.c **** 
 211:C:/Users/Yushev/git/optiga-trust-qi/examples/optiga/usecases\example_optiga_hibernate_restore.c ****         WAIT_AND_CHECK_STATUS(return_status, optiga_lib_status);
 353              	 .loc 1 211 0
 354 01c4 0246     	 mov r2,r0
 355 01c6 20BB     	 cbnz r0,.L32
 356              	.L22:
 357              	 .loc 1 211 0 is_stmt 0 discriminator 1
 358 01c8 3A88     	 ldrh r2,[r7]
 359 01ca 274B     	 ldr r3,.L74+20
 360 01cc 92B2     	 uxth r2,r2
 361 01ce 012A     	 cmp r2,#1
 362 01d0 FAD0     	 beq .L22
 363              	 .loc 1 211 0 discriminator 2
 364 01d2 1988     	 ldrh r1,[r3]
 365 01d4 89B2     	 uxth r1,r1
 366 01d6 09B1     	 cbz r1,.L23
 367              	.L69:
 368              	 .loc 1 211 0 discriminator 3
 369 01d8 1A88     	 ldrh r2,[r3]
 370 01da 0FE0     	 b .L70
 371              	.L23:
 212:C:/Users/Yushev/git/optiga-trust-qi/examples/optiga/usecases\example_optiga_hibernate_restore.c **** 
 213:C:/Users/Yushev/git/optiga-trust-qi/examples/optiga/usecases\example_optiga_hibernate_restore.c ****         /**
 214:C:/Users/Yushev/git/optiga-trust-qi/examples/optiga/usecases\example_optiga_hibernate_restore.c ****          * 9. Close the application on OPTIGA without hibernating
 215:C:/Users/Yushev/git/optiga-trust-qi/examples/optiga/usecases\example_optiga_hibernate_restore.c ****          *    using optiga_util_close_application
 216:C:/Users/Yushev/git/optiga-trust-qi/examples/optiga/usecases\example_optiga_hibernate_restore.c ****          */
 217:C:/Users/Yushev/git/optiga-trust-qi/examples/optiga/usecases\example_optiga_hibernate_restore.c ****         optiga_lib_status = OPTIGA_LIB_BUSY;
 372              	 .loc 1 217 0 is_stmt 1
 373 01dc 0122     	 movs r2,#1
 218:C:/Users/Yushev/git/optiga-trust-qi/examples/optiga/usecases\example_optiga_hibernate_restore.c ****         return_status = optiga_util_close_application(me_util, 0);
 374              	 .loc 1 218 0
 375 01de 2846     	 mov r0,r5
 376              	.LVL27:
 217:C:/Users/Yushev/git/optiga-trust-qi/examples/optiga/usecases\example_optiga_hibernate_restore.c ****         return_status = optiga_util_close_application(me_util, 0);
 377              	 .loc 1 217 0
 378 01e0 1A80     	 strh r2,[r3]
 379              	 .loc 1 218 0
 380 01e2 FFF7FEFF 	 bl optiga_util_close_application
 381              	.LVL28:
 219:C:/Users/Yushev/git/optiga-trust-qi/examples/optiga/usecases\example_optiga_hibernate_restore.c ****         WAIT_AND_CHECK_STATUS(return_status, optiga_lib_status);
 382              	 .loc 1 219 0
 383 01e6 0246     	 mov r2,r0
 384 01e8 98B9     	 cbnz r0,.L32
 385              	.L24:
 386              	 .loc 1 219 0 is_stmt 0 discriminator 1
 387 01ea 3B88     	 ldrh r3,[r7]
 388 01ec 1E4A     	 ldr r2,.L74+20
 389 01ee 9BB2     	 uxth r3,r3
 390 01f0 012B     	 cmp r3,#1
 391 01f2 FAD0     	 beq .L24
 392              	 .loc 1 219 0 discriminator 2
 393 01f4 1388     	 ldrh r3,[r2]
 394 01f6 9BB2     	 uxth r3,r3
 395 01f8 1BB1     	 cbz r3,.L25
 396              	.L71:
 397              	 .loc 1 219 0 discriminator 3
 398 01fa 1288     	 ldrh r2,[r2]
 399              	.L70:
 400 01fc 92B2     	 uxth r2,r2
 401              	.LVL29:
 220:C:/Users/Yushev/git/optiga-trust-qi/examples/optiga/usecases\example_optiga_hibernate_restore.c ****         return_status = OPTIGA_LIB_SUCCESS;
 221:C:/Users/Yushev/git/optiga-trust-qi/examples/optiga/usecases\example_optiga_hibernate_restore.c ****         OPTIGA_EXAMPLE_LOG_MESSAGE("Hibernate feature demonstration completed...\n");
 222:C:/Users/Yushev/git/optiga-trust-qi/examples/optiga/usecases\example_optiga_hibernate_restore.c ****     } while (FALSE);
 223:C:/Users/Yushev/git/optiga-trust-qi/examples/optiga/usecases\example_optiga_hibernate_restore.c ****     OPTIGA_EXAMPLE_LOG_STATUS(return_status);
 402              	 .loc 1 223 0 is_stmt 1 discriminator 3
 403 01fe 72B1     	 cbz r2,.L26
 404 0200 07E0     	 b .L32
 405              	.LVL30:
 406              	.L25:
 221:C:/Users/Yushev/git/optiga-trust-qi/examples/optiga/usecases\example_optiga_hibernate_restore.c ****     } while (FALSE);
 407              	 .loc 1 221 0
 408 0202 1B48     	 ldr r0,.L74+28
 409 0204 1449     	 ldr r1,.L74+4
 410 0206 154A     	 ldr r2,.L74+8
 411 0208 FFF7FEFF 	 bl optiga_lib_print_message
 412              	.LVL31:
 413 020c 07E0     	 b .L26
 414              	.LVL32:
 415              	.L5:
  83:C:/Users/Yushev/git/optiga-trust-qi/examples/optiga/usecases\example_optiga_hibernate_restore.c ****     uint8_t security_event_counter = 0;
 416              	 .loc 1 83 0
 417 020e 0122     	 movs r2,#1
  75:C:/Users/Yushev/git/optiga-trust-qi/examples/optiga/usecases\example_optiga_hibernate_restore.c ****     // To store the public key generated
 418              	 .loc 1 75 0
 419 0210 0024     	 movs r4,#0
 420              	.LVL33:
 421              	.L32:
 422              	 .loc 1 223 0 discriminator 1
 423 0212 1148     	 ldr r0,.L74+4
 424 0214 1749     	 ldr r1,.L74+32
 425 0216 FFF7FEFF 	 bl optiga_lib_print_status
 426              	.LVL34:
 224:C:/Users/Yushev/git/optiga-trust-qi/examples/optiga/usecases\example_optiga_hibernate_restore.c **** 
 225:C:/Users/Yushev/git/optiga-trust-qi/examples/optiga/usecases\example_optiga_hibernate_restore.c ****     if (me_util)
 427              	 .loc 1 225 0 discriminator 1
 428 021a 75B1     	 cbz r5,.L28
 429 021c 04E0     	 b .L27
 430              	.L26:
 223:C:/Users/Yushev/git/optiga-trust-qi/examples/optiga/usecases\example_optiga_hibernate_restore.c **** 
 431              	 .loc 1 223 0 discriminator 2
 432 021e 0E48     	 ldr r0,.L74+4
 433 0220 0E49     	 ldr r1,.L74+8
 434 0222 0022     	 movs r2,#0
 435 0224 FFF7FEFF 	 bl optiga_lib_print_status
 436              	.LVL35:
 437              	.L27:
 226:C:/Users/Yushev/git/optiga-trust-qi/examples/optiga/usecases\example_optiga_hibernate_restore.c ****     {
 227:C:/Users/Yushev/git/optiga-trust-qi/examples/optiga/usecases\example_optiga_hibernate_restore.c ****         //Destroy the instance after the completion of usecase if not required.
 228:C:/Users/Yushev/git/optiga-trust-qi/examples/optiga/usecases\example_optiga_hibernate_restore.c ****         return_status = optiga_util_destroy(me_util);
 438              	 .loc 1 228 0
 439 0228 2846     	 mov r0,r5
 440 022a FFF7FEFF 	 bl optiga_util_destroy
 441              	.LVL36:
 229:C:/Users/Yushev/git/optiga-trust-qi/examples/optiga/usecases\example_optiga_hibernate_restore.c ****         if(OPTIGA_LIB_SUCCESS != return_status)
 442              	 .loc 1 229 0
 443 022e 0246     	 mov r2,r0
 444 0230 18B1     	 cbz r0,.L28
 230:C:/Users/Yushev/git/optiga-trust-qi/examples/optiga/usecases\example_optiga_hibernate_restore.c ****         {
 231:C:/Users/Yushev/git/optiga-trust-qi/examples/optiga/usecases\example_optiga_hibernate_restore.c ****             //lint --e{774} suppress This is a generic macro
 232:C:/Users/Yushev/git/optiga-trust-qi/examples/optiga/usecases\example_optiga_hibernate_restore.c ****             OPTIGA_EXAMPLE_LOG_STATUS(return_status);
 445              	 .loc 1 232 0 discriminator 1
 446 0232 0948     	 ldr r0,.L74+4
 447              	.LVL37:
 448 0234 0F49     	 ldr r1,.L74+32
 449 0236 FFF7FEFF 	 bl optiga_lib_print_status
 450              	.LVL38:
 451              	.L28:
 233:C:/Users/Yushev/git/optiga-trust-qi/examples/optiga/usecases\example_optiga_hibernate_restore.c ****         }
 234:C:/Users/Yushev/git/optiga-trust-qi/examples/optiga/usecases\example_optiga_hibernate_restore.c ****     }
 235:C:/Users/Yushev/git/optiga-trust-qi/examples/optiga/usecases\example_optiga_hibernate_restore.c **** 
 236:C:/Users/Yushev/git/optiga-trust-qi/examples/optiga/usecases\example_optiga_hibernate_restore.c ****     if (me_crypt)
 452              	 .loc 1 236 0
 453 023a 44B1     	 cbz r4,.L4
 237:C:/Users/Yushev/git/optiga-trust-qi/examples/optiga/usecases\example_optiga_hibernate_restore.c ****     {
 238:C:/Users/Yushev/git/optiga-trust-qi/examples/optiga/usecases\example_optiga_hibernate_restore.c ****         //Destroy the instance after the completion of usecase if not required.
 239:C:/Users/Yushev/git/optiga-trust-qi/examples/optiga/usecases\example_optiga_hibernate_restore.c ****         return_status = optiga_crypt_destroy(me_crypt);
 454              	 .loc 1 239 0
 455 023c 2046     	 mov r0,r4
 456 023e FFF7FEFF 	 bl optiga_crypt_destroy
 457              	.LVL39:
 240:C:/Users/Yushev/git/optiga-trust-qi/examples/optiga/usecases\example_optiga_hibernate_restore.c ****         if(OPTIGA_LIB_SUCCESS != return_status)
 458              	 .loc 1 240 0
 459 0242 0246     	 mov r2,r0
 460 0244 18B1     	 cbz r0,.L4
 241:C:/Users/Yushev/git/optiga-trust-qi/examples/optiga/usecases\example_optiga_hibernate_restore.c ****         {
 242:C:/Users/Yushev/git/optiga-trust-qi/examples/optiga/usecases\example_optiga_hibernate_restore.c ****             //lint --e{774} suppress This is a generic macro
 243:C:/Users/Yushev/git/optiga-trust-qi/examples/optiga/usecases\example_optiga_hibernate_restore.c ****             OPTIGA_EXAMPLE_LOG_STATUS(return_status);
 461              	 .loc 1 243 0 discriminator 1
 462 0246 0448     	 ldr r0,.L74+4
 463              	.LVL40:
 464 0248 0A49     	 ldr r1,.L74+32
 465 024a FFF7FEFF 	 bl optiga_lib_print_status
 466              	.LVL41:
 467              	.L4:
 244:C:/Users/Yushev/git/optiga-trust-qi/examples/optiga/usecases\example_optiga_hibernate_restore.c ****         }
 245:C:/Users/Yushev/git/optiga-trust-qi/examples/optiga/usecases\example_optiga_hibernate_restore.c ****     }
 246:C:/Users/Yushev/git/optiga-trust-qi/examples/optiga/usecases\example_optiga_hibernate_restore.c **** }
 468              	 .loc 1 246 0
 469 024e 37B0     	 add sp,sp,#220
 470              	.LCFI2:
 471              	 .cfi_def_cfa_offset 28
 472              	 
 473 0250 BDE8F083 	 pop {r4,r5,r6,r7,r8,r9,pc}
 474              	.LVL42:
 475              	.L75:
 476              	 .align 2
 477              	.L74:
 478 0254 00000000 	 .word .LC0
 479 0258 2A000000 	 .word .LC1
 480 025c 3F000000 	 .word .LC2
 481 0260 00000000 	 .word .LANCHOR1
 482 0264 00000000 	 .word optiga_lib_callback
 483 0268 00000000 	 .word .LANCHOR0
 484 026c 00000000 	 .word .LANCHOR2
 485 0270 44000000 	 .word .LC3
 486 0274 72000000 	 .word .LC4
 487              	 .cfi_endproc
 488              	.LFE1:
 490              	 .section .rodata.digest,"a",%progbits
 491              	 .set .LANCHOR2,.+0
 494              	digest:
 495 0000 61       	 .byte 97
 496 0001 C7       	 .byte -57
 497 0002 DE       	 .byte -34
 498 0003 F9       	 .byte -7
 499 0004 0F       	 .byte 15
 500 0005 D5       	 .byte -43
 501 0006 CD       	 .byte -51
 502 0007 7A       	 .byte 122
 503 0008 8B       	 .byte -117
 504 0009 7A       	 .byte 122
 505 000a 36       	 .byte 54
 506 000b 41       	 .byte 65
 507 000c 04       	 .byte 4
 508 000d E0       	 .byte -32
 509 000e 0D       	 .byte 13
 510 000f 82       	 .byte -126
 511 0010 38       	 .byte 56
 512 0011 46       	 .byte 70
 513 0012 BF       	 .byte -65
 514 0013 B7       	 .byte -73
 515 0014 70       	 .byte 112
 516 0015 EE       	 .byte -18
 517 0016 BF       	 .byte -65
 518 0017 8F       	 .byte -113
 519 0018 40       	 .byte 64
 520 0019 25       	 .byte 37
 521 001a 2E       	 .byte 46
 522 001b 0A       	 .byte 10
 523 001c 21       	 .byte 33
 524 001d 42       	 .byte 66
 525 001e AF       	 .byte -81
 526 001f 9C       	 .byte -100
 527              	 .section .rodata.str1.1,"aMS",%progbits,1
 528              	.LC0:
 529 0000 42656769 	 .ascii "Begin demonstrating hibernate feature...\012\000"
 529      6E206465 
 529      6D6F6E73 
 529      74726174 
 529      696E6720 
 530              	.LC1:
 531 002a 5B6F7074 	 .ascii "[optiga example]  : \000"
 531      69676120 
 531      6578616D 
 531      706C655D 
 531      20203A20 
 532              	.LC2:
 533 003f 1B5B306D 	 .ascii "\033[0m\000"
 533      00
 534              	.LC3:
 535 0044 48696265 	 .ascii "Hibernate feature demonstration completed...\012\000"
 535      726E6174 
 535      65206665 
 535      61747572 
 535      65206465 
 536              	.LC4:
 537 0072 1B5B3331 	 .ascii "\033[31m\000"
 537      6D00
 538              	 .section .bss.optiga_lib_status,"aw",%nobits
 539              	 .align 1
 540              	 .set .LANCHOR0,.+0
 543              	optiga_lib_status:
 544 0000 0000     	 .space 2
 545              	 .section .rodata.__FUNCTION__.5960,"a",%progbits
 546              	 .set .LANCHOR1,.+0
 549              	__FUNCTION__.5960:
 550 0000 6578616D 	 .ascii "example_optiga_util_hibernate_restore\000"
 550      706C655F 
 550      6F707469 
 550      67615F75 
 550      74696C5F 
 551              	 .text
 552              	.Letext0:
 553              	 .file 2 "c:\\users\\yushev\\dave_4-4-2_32bit_2018-02-23\\dave-ide-4.4.2-32bit\\eclipse\\arm-gcc-49\\arm-none-eabi\\include\\machine\\_default_types.h"
 554              	 .file 3 "c:\\users\\yushev\\dave_4-4-2_32bit_2018-02-23\\dave-ide-4.4.2-32bit\\eclipse\\arm-gcc-49\\arm-none-eabi\\include\\stdint.h"
 555              	 .file 4 "C:/Users/Yushev/git/optiga-trust-qi/optiga/include/optiga/common/optiga_lib_types.h"
 556              	 .file 5 "C:/Users/Yushev/git/optiga-trust-qi/optiga/include/optiga/common/optiga_lib_common.h"
 557              	 .file 6 "C:/Users/Yushev/git/optiga-trust-qi/optiga/include/optiga/cmd/optiga_cmd.h"
 558              	 .file 7 "C:/Users/Yushev/git/optiga-trust-qi/optiga/include/optiga/optiga_util.h"
 559              	 .file 8 "C:/Users/Yushev/git/optiga-trust-qi/optiga/include/optiga/optiga_crypt.h"
 560              	 .file 9 "C:/Users/Yushev/git/optiga-trust-qi/optiga/include/optiga/common/optiga_lib_logger.h"
 561              	 .file 10 "C:/Users/Yushev/git/optiga-trust-qi/optiga/include/optiga/pal/pal_os_timer.h"