   1              	 .syntax unified
   2              	 .cpu cortex-m4
   3              	 .eabi_attribute 27,3
   4              	 .fpu fpv4-sp-d16
   5              	 .eabi_attribute 20,1
   6              	 .eabi_attribute 21,1
   7              	 .eabi_attribute 23,3
   8              	 .eabi_attribute 24,1
   9              	 .eabi_attribute 25,1
  10              	 .eabi_attribute 26,1
  11              	 .eabi_attribute 30,4
  12              	 .eabi_attribute 34,1
  13              	 .eabi_attribute 18,4
  14              	 .thumb
  15              	 .file "example_read_coprocessor_id.c"
  16              	 .text
  17              	.Ltext0:
  18              	 .cfi_sections .debug_frame
  19              	 .section .text.optiga_lib_callback,"ax",%progbits
  20              	 .align 1
  21              	 .thumb
  22              	 .thumb_func
  24              	optiga_lib_callback:
  25              	.LFB0:
  26              	 .file 1 "C:/Users/Yushev/git/optiga-trust-qi/examples/optiga/usecases/example_read_coprocessor_id.c"
   1:C:/Users/Yushev/git/optiga-trust-qi/examples/optiga/usecases\example_read_coprocessor_id.c **** /**
   2:C:/Users/Yushev/git/optiga-trust-qi/examples/optiga/usecases\example_read_coprocessor_id.c **** * \copyright
   3:C:/Users/Yushev/git/optiga-trust-qi/examples/optiga/usecases\example_read_coprocessor_id.c **** * MIT License
   4:C:/Users/Yushev/git/optiga-trust-qi/examples/optiga/usecases\example_read_coprocessor_id.c **** *
   5:C:/Users/Yushev/git/optiga-trust-qi/examples/optiga/usecases\example_read_coprocessor_id.c **** * Copyright (c) 2020 Infineon Technologies AG
   6:C:/Users/Yushev/git/optiga-trust-qi/examples/optiga/usecases\example_read_coprocessor_id.c **** *
   7:C:/Users/Yushev/git/optiga-trust-qi/examples/optiga/usecases\example_read_coprocessor_id.c **** * Permission is hereby granted, free of charge, to any person obtaining a copy
   8:C:/Users/Yushev/git/optiga-trust-qi/examples/optiga/usecases\example_read_coprocessor_id.c **** * of this software and associated documentation files (the "Software"), to deal
   9:C:/Users/Yushev/git/optiga-trust-qi/examples/optiga/usecases\example_read_coprocessor_id.c **** * in the Software without restriction, including without limitation the rights
  10:C:/Users/Yushev/git/optiga-trust-qi/examples/optiga/usecases\example_read_coprocessor_id.c **** * to use, copy, modify, merge, publish, distribute, sublicense, and/or sell
  11:C:/Users/Yushev/git/optiga-trust-qi/examples/optiga/usecases\example_read_coprocessor_id.c **** * copies of the Software, and to permit persons to whom the Software is
  12:C:/Users/Yushev/git/optiga-trust-qi/examples/optiga/usecases\example_read_coprocessor_id.c **** * furnished to do so, subject to the following conditions:
  13:C:/Users/Yushev/git/optiga-trust-qi/examples/optiga/usecases\example_read_coprocessor_id.c **** *
  14:C:/Users/Yushev/git/optiga-trust-qi/examples/optiga/usecases\example_read_coprocessor_id.c **** * The above copyright notice and this permission notice shall be included in all
  15:C:/Users/Yushev/git/optiga-trust-qi/examples/optiga/usecases\example_read_coprocessor_id.c **** * copies or substantial portions of the Software.
  16:C:/Users/Yushev/git/optiga-trust-qi/examples/optiga/usecases\example_read_coprocessor_id.c **** *
  17:C:/Users/Yushev/git/optiga-trust-qi/examples/optiga/usecases\example_read_coprocessor_id.c **** * THE SOFTWARE IS PROVIDED "AS IS", WITHOUT WARRANTY OF ANY KIND, EXPRESS OR
  18:C:/Users/Yushev/git/optiga-trust-qi/examples/optiga/usecases\example_read_coprocessor_id.c **** * IMPLIED, INCLUDING BUT NOT LIMITED TO THE WARRANTIES OF MERCHANTABILITY,
  19:C:/Users/Yushev/git/optiga-trust-qi/examples/optiga/usecases\example_read_coprocessor_id.c **** * FITNESS FOR A PARTICULAR PURPOSE AND NONINFRINGEMENT. IN NO EVENT SHALL THE
  20:C:/Users/Yushev/git/optiga-trust-qi/examples/optiga/usecases\example_read_coprocessor_id.c **** * AUTHORS OR COPYRIGHT HOLDERS BE LIABLE FOR ANY CLAIM, DAMAGES OR OTHER
  21:C:/Users/Yushev/git/optiga-trust-qi/examples/optiga/usecases\example_read_coprocessor_id.c **** * LIABILITY, WHETHER IN AN ACTION OF CONTRACT, TORT OR OTHERWISE, ARISING FROM,
  22:C:/Users/Yushev/git/optiga-trust-qi/examples/optiga/usecases\example_read_coprocessor_id.c **** * OUT OF OR IN CONNECTION WITH THE SOFTWARE OR THE USE OR OTHER DEALINGS IN THE
  23:C:/Users/Yushev/git/optiga-trust-qi/examples/optiga/usecases\example_read_coprocessor_id.c **** * SOFTWARE
  24:C:/Users/Yushev/git/optiga-trust-qi/examples/optiga/usecases\example_read_coprocessor_id.c **** *
  25:C:/Users/Yushev/git/optiga-trust-qi/examples/optiga/usecases\example_read_coprocessor_id.c **** * \endcopyright
  26:C:/Users/Yushev/git/optiga-trust-qi/examples/optiga/usecases\example_read_coprocessor_id.c **** *
  27:C:/Users/Yushev/git/optiga-trust-qi/examples/optiga/usecases\example_read_coprocessor_id.c **** * \author Infineon Technologies AG
  28:C:/Users/Yushev/git/optiga-trust-qi/examples/optiga/usecases\example_read_coprocessor_id.c **** *
  29:C:/Users/Yushev/git/optiga-trust-qi/examples/optiga/usecases\example_read_coprocessor_id.c **** * \file example_read_coprocessor_id.c
  30:C:/Users/Yushev/git/optiga-trust-qi/examples/optiga/usecases\example_read_coprocessor_id.c **** *
  31:C:/Users/Yushev/git/optiga-trust-qi/examples/optiga/usecases\example_read_coprocessor_id.c **** * \brief   This file provides an example for reading the Coprocessor ID and displaying it's fields.
  32:C:/Users/Yushev/git/optiga-trust-qi/examples/optiga/usecases\example_read_coprocessor_id.c **** *
  33:C:/Users/Yushev/git/optiga-trust-qi/examples/optiga/usecases\example_read_coprocessor_id.c **** * \ingroup grUseCases
  34:C:/Users/Yushev/git/optiga-trust-qi/examples/optiga/usecases\example_read_coprocessor_id.c **** *
  35:C:/Users/Yushev/git/optiga-trust-qi/examples/optiga/usecases\example_read_coprocessor_id.c **** * @{
  36:C:/Users/Yushev/git/optiga-trust-qi/examples/optiga/usecases\example_read_coprocessor_id.c **** */
  37:C:/Users/Yushev/git/optiga-trust-qi/examples/optiga/usecases\example_read_coprocessor_id.c **** 
  38:C:/Users/Yushev/git/optiga-trust-qi/examples/optiga/usecases\example_read_coprocessor_id.c **** #include "optiga/optiga_util.h"
  39:C:/Users/Yushev/git/optiga-trust-qi/examples/optiga/usecases\example_read_coprocessor_id.c **** #include "optiga_example.h"
  40:C:/Users/Yushev/git/optiga-trust-qi/examples/optiga/usecases\example_read_coprocessor_id.c **** #include "optiga/pal/pal_logger.h"
  41:C:/Users/Yushev/git/optiga-trust-qi/examples/optiga/usecases\example_read_coprocessor_id.c **** #include "optiga/pal/pal_os_memory.h"
  42:C:/Users/Yushev/git/optiga-trust-qi/examples/optiga/usecases\example_read_coprocessor_id.c **** 
  43:C:/Users/Yushev/git/optiga-trust-qi/examples/optiga/usecases\example_read_coprocessor_id.c **** extern pal_logger_t logger_console;
  44:C:/Users/Yushev/git/optiga-trust-qi/examples/optiga/usecases\example_read_coprocessor_id.c **** 
  45:C:/Users/Yushev/git/optiga-trust-qi/examples/optiga/usecases\example_read_coprocessor_id.c **** /**
  46:C:/Users/Yushev/git/optiga-trust-qi/examples/optiga/usecases\example_read_coprocessor_id.c ****  * Callback when optiga_util_xxxx operation is completed asynchronously
  47:C:/Users/Yushev/git/optiga-trust-qi/examples/optiga/usecases\example_read_coprocessor_id.c ****  */
  48:C:/Users/Yushev/git/optiga-trust-qi/examples/optiga/usecases\example_read_coprocessor_id.c **** static volatile optiga_lib_status_t optiga_lib_status;
  49:C:/Users/Yushev/git/optiga-trust-qi/examples/optiga/usecases\example_read_coprocessor_id.c **** //lint --e{818} suppress "argument "context" is not used in the sample provided"
  50:C:/Users/Yushev/git/optiga-trust-qi/examples/optiga/usecases\example_read_coprocessor_id.c **** static void optiga_lib_callback(void * context, optiga_lib_status_t return_status)
  51:C:/Users/Yushev/git/optiga-trust-qi/examples/optiga/usecases\example_read_coprocessor_id.c **** {
  27              	 .loc 1 51 0
  28              	 .cfi_startproc
  29              	 
  30              	 
  31              	 
  32              	.LVL0:
  52:C:/Users/Yushev/git/optiga-trust-qi/examples/optiga/usecases\example_read_coprocessor_id.c ****     optiga_lib_status = return_status;
  33              	 .loc 1 52 0
  34 0000 014B     	 ldr r3,.L2
  35 0002 1980     	 strh r1,[r3]
  36 0004 7047     	 bx lr
  37              	.L3:
  38 0006 00BF     	 .align 2
  39              	.L2:
  40 0008 00000000 	 .word .LANCHOR0
  41              	 .cfi_endproc
  42              	.LFE0:
  44              	 .section .text.optiga_lib_print_coprocessor_components,"ax",%progbits
  45              	 .align 1
  46              	 .thumb
  47              	 .thumb_func
  49              	optiga_lib_print_coprocessor_components:
  50              	.LFB3:
  53:C:/Users/Yushev/git/optiga-trust-qi/examples/optiga/usecases\example_read_coprocessor_id.c ****     if (NULL != context)
  54:C:/Users/Yushev/git/optiga-trust-qi/examples/optiga/usecases\example_read_coprocessor_id.c ****     {
  55:C:/Users/Yushev/git/optiga-trust-qi/examples/optiga/usecases\example_read_coprocessor_id.c ****         // callback to upper layer here
  56:C:/Users/Yushev/git/optiga-trust-qi/examples/optiga/usecases\example_read_coprocessor_id.c ****     }
  57:C:/Users/Yushev/git/optiga-trust-qi/examples/optiga/usecases\example_read_coprocessor_id.c **** }
  58:C:/Users/Yushev/git/optiga-trust-qi/examples/optiga/usecases\example_read_coprocessor_id.c **** 
  59:C:/Users/Yushev/git/optiga-trust-qi/examples/optiga/usecases\example_read_coprocessor_id.c **** #if defined (OPTIGA_LIB_ENABLE_EXAMPLE_LOGGING)
  60:C:/Users/Yushev/git/optiga-trust-qi/examples/optiga/usecases\example_read_coprocessor_id.c **** /*Convert Byte to HexString */
  61:C:/Users/Yushev/git/optiga-trust-qi/examples/optiga/usecases\example_read_coprocessor_id.c **** #define OPTIGA_LOGGER_CONVERT_BYTE_TO_HEX(hex_byte, p_hex_string, index) \
  62:C:/Users/Yushev/git/optiga-trust-qi/examples/optiga/usecases\example_read_coprocessor_id.c **** { \
  63:C:/Users/Yushev/git/optiga-trust-qi/examples/optiga/usecases\example_read_coprocessor_id.c ****     uint8_t nibble;                       \
  64:C:/Users/Yushev/git/optiga-trust-qi/examples/optiga/usecases\example_read_coprocessor_id.c ****     nibble = (hex_byte & 0xF0)>>4;         \
  65:C:/Users/Yushev/git/optiga-trust-qi/examples/optiga/usecases\example_read_coprocessor_id.c ****     p_hex_string [index++] = ((nibble > 0x09)) ? (nibble + 0x37) : (nibble + 0x30); \
  66:C:/Users/Yushev/git/optiga-trust-qi/examples/optiga/usecases\example_read_coprocessor_id.c ****     nibble = hex_byte & 0x0F;         \
  67:C:/Users/Yushev/git/optiga-trust-qi/examples/optiga/usecases\example_read_coprocessor_id.c ****     p_hex_string [index++] = ((nibble > 0x09)) ? (nibble + 0x37) : (nibble + 0x30); \
  68:C:/Users/Yushev/git/optiga-trust-qi/examples/optiga/usecases\example_read_coprocessor_id.c **** }
  69:C:/Users/Yushev/git/optiga-trust-qi/examples/optiga/usecases\example_read_coprocessor_id.c **** 
  70:C:/Users/Yushev/git/optiga-trust-qi/examples/optiga/usecases\example_read_coprocessor_id.c **** /* Converts the uint8 array to hex string format */
  71:C:/Users/Yushev/git/optiga-trust-qi/examples/optiga/usecases\example_read_coprocessor_id.c **** static void optiga_lib_byte_to_hex_string(const uint8_t * p_array_buffer,
  72:C:/Users/Yushev/git/optiga-trust-qi/examples/optiga/usecases\example_read_coprocessor_id.c ****                                              uint8_t * p_hex_string,
  73:C:/Users/Yushev/git/optiga-trust-qi/examples/optiga/usecases\example_read_coprocessor_id.c ****                                              uint32_t length,
  74:C:/Users/Yushev/git/optiga-trust-qi/examples/optiga/usecases\example_read_coprocessor_id.c ****                                              bool_t is_input_byte_array)
  75:C:/Users/Yushev/git/optiga-trust-qi/examples/optiga/usecases\example_read_coprocessor_id.c **** {
  76:C:/Users/Yushev/git/optiga-trust-qi/examples/optiga/usecases\example_read_coprocessor_id.c ****     uint32_t loop = 0;
  77:C:/Users/Yushev/git/optiga-trust-qi/examples/optiga/usecases\example_read_coprocessor_id.c ****     uint8_t hex_byte = 0, index = 0;
  78:C:/Users/Yushev/git/optiga-trust-qi/examples/optiga/usecases\example_read_coprocessor_id.c **** 
  79:C:/Users/Yushev/git/optiga-trust-qi/examples/optiga/usecases\example_read_coprocessor_id.c ****     do
  80:C:/Users/Yushev/git/optiga-trust-qi/examples/optiga/usecases\example_read_coprocessor_id.c ****     {
  81:C:/Users/Yushev/git/optiga-trust-qi/examples/optiga/usecases\example_read_coprocessor_id.c ****         if ((NULL == p_array_buffer) || (NULL == p_hex_string))
  82:C:/Users/Yushev/git/optiga-trust-qi/examples/optiga/usecases\example_read_coprocessor_id.c ****         {
  83:C:/Users/Yushev/git/optiga-trust-qi/examples/optiga/usecases\example_read_coprocessor_id.c ****             return;
  84:C:/Users/Yushev/git/optiga-trust-qi/examples/optiga/usecases\example_read_coprocessor_id.c ****         }
  85:C:/Users/Yushev/git/optiga-trust-qi/examples/optiga/usecases\example_read_coprocessor_id.c **** 
  86:C:/Users/Yushev/git/optiga-trust-qi/examples/optiga/usecases\example_read_coprocessor_id.c ****         for (loop = 0; loop < length; loop++)
  87:C:/Users/Yushev/git/optiga-trust-qi/examples/optiga/usecases\example_read_coprocessor_id.c ****         {
  88:C:/Users/Yushev/git/optiga-trust-qi/examples/optiga/usecases\example_read_coprocessor_id.c ****             index = 0;
  89:C:/Users/Yushev/git/optiga-trust-qi/examples/optiga/usecases\example_read_coprocessor_id.c ****             hex_byte = p_array_buffer[loop];
  90:C:/Users/Yushev/git/optiga-trust-qi/examples/optiga/usecases\example_read_coprocessor_id.c ****             if (TRUE == is_input_byte_array)
  91:C:/Users/Yushev/git/optiga-trust-qi/examples/optiga/usecases\example_read_coprocessor_id.c ****             {
  92:C:/Users/Yushev/git/optiga-trust-qi/examples/optiga/usecases\example_read_coprocessor_id.c ****                 p_hex_string [index++] = '0';
  93:C:/Users/Yushev/git/optiga-trust-qi/examples/optiga/usecases\example_read_coprocessor_id.c ****                 p_hex_string [index++] = 'x';
  94:C:/Users/Yushev/git/optiga-trust-qi/examples/optiga/usecases\example_read_coprocessor_id.c ****             }
  95:C:/Users/Yushev/git/optiga-trust-qi/examples/optiga/usecases\example_read_coprocessor_id.c **** 
  96:C:/Users/Yushev/git/optiga-trust-qi/examples/optiga/usecases\example_read_coprocessor_id.c ****             /*Convert Byte to HexString */
  97:C:/Users/Yushev/git/optiga-trust-qi/examples/optiga/usecases\example_read_coprocessor_id.c ****             OPTIGA_LOGGER_CONVERT_BYTE_TO_HEX(hex_byte,p_hex_string, index);
  98:C:/Users/Yushev/git/optiga-trust-qi/examples/optiga/usecases\example_read_coprocessor_id.c ****             
  99:C:/Users/Yushev/git/optiga-trust-qi/examples/optiga/usecases\example_read_coprocessor_id.c ****             p_hex_string [index++] = ' ';
 100:C:/Users/Yushev/git/optiga-trust-qi/examples/optiga/usecases\example_read_coprocessor_id.c ****             p_hex_string += index;
 101:C:/Users/Yushev/git/optiga-trust-qi/examples/optiga/usecases\example_read_coprocessor_id.c ****         }
 102:C:/Users/Yushev/git/optiga-trust-qi/examples/optiga/usecases\example_read_coprocessor_id.c ****         *p_hex_string = 0x00;
 103:C:/Users/Yushev/git/optiga-trust-qi/examples/optiga/usecases\example_read_coprocessor_id.c ****     } while(0);
 104:C:/Users/Yushev/git/optiga-trust-qi/examples/optiga/usecases\example_read_coprocessor_id.c **** }
 105:C:/Users/Yushev/git/optiga-trust-qi/examples/optiga/usecases\example_read_coprocessor_id.c **** 
 106:C:/Users/Yushev/git/optiga-trust-qi/examples/optiga/usecases\example_read_coprocessor_id.c **** static void optiga_lib_print_coprocessor_data(const uint8_t * p_log_string,
 107:C:/Users/Yushev/git/optiga-trust-qi/examples/optiga/usecases\example_read_coprocessor_id.c ****                                               uint16_t length,
 108:C:/Users/Yushev/git/optiga-trust-qi/examples/optiga/usecases\example_read_coprocessor_id.c ****                                               const char_t * p_log_color)
 109:C:/Users/Yushev/git/optiga-trust-qi/examples/optiga/usecases\example_read_coprocessor_id.c **** {
 110:C:/Users/Yushev/git/optiga-trust-qi/examples/optiga/usecases\example_read_coprocessor_id.c ****     uint8_t temp_buffer[100];
 111:C:/Users/Yushev/git/optiga-trust-qi/examples/optiga/usecases\example_read_coprocessor_id.c ****     char_t output_buffer[100];
 112:C:/Users/Yushev/git/optiga-trust-qi/examples/optiga/usecases\example_read_coprocessor_id.c ****     uint16_t index;
 113:C:/Users/Yushev/git/optiga-trust-qi/examples/optiga/usecases\example_read_coprocessor_id.c ****     uint16_t temp_length;
 114:C:/Users/Yushev/git/optiga-trust-qi/examples/optiga/usecases\example_read_coprocessor_id.c ****     uint8_t new_line_characters[2] = {0x0D, 0x0A};
 115:C:/Users/Yushev/git/optiga-trust-qi/examples/optiga/usecases\example_read_coprocessor_id.c ****     uint8_t buffer_window = 32; // Alignment of 16 bytes per line
 116:C:/Users/Yushev/git/optiga-trust-qi/examples/optiga/usecases\example_read_coprocessor_id.c ****     
 117:C:/Users/Yushev/git/optiga-trust-qi/examples/optiga/usecases\example_read_coprocessor_id.c ****     //Logging the arrays in chunks of 16 bytes through chaining
 118:C:/Users/Yushev/git/optiga-trust-qi/examples/optiga/usecases\example_read_coprocessor_id.c ****     for (index = 0; index < length; index+=buffer_window)
 119:C:/Users/Yushev/git/optiga-trust-qi/examples/optiga/usecases\example_read_coprocessor_id.c ****     {
 120:C:/Users/Yushev/git/optiga-trust-qi/examples/optiga/usecases\example_read_coprocessor_id.c ****         temp_length = buffer_window;
 121:C:/Users/Yushev/git/optiga-trust-qi/examples/optiga/usecases\example_read_coprocessor_id.c ****         if ((length - index) < buffer_window)
 122:C:/Users/Yushev/git/optiga-trust-qi/examples/optiga/usecases\example_read_coprocessor_id.c ****         {
 123:C:/Users/Yushev/git/optiga-trust-qi/examples/optiga/usecases\example_read_coprocessor_id.c ****             temp_length =  length - index;
 124:C:/Users/Yushev/git/optiga-trust-qi/examples/optiga/usecases\example_read_coprocessor_id.c ****         }
 125:C:/Users/Yushev/git/optiga-trust-qi/examples/optiga/usecases\example_read_coprocessor_id.c **** 
 126:C:/Users/Yushev/git/optiga-trust-qi/examples/optiga/usecases\example_read_coprocessor_id.c ****         pal_os_memset(temp_buffer, 0x00, sizeof(temp_buffer));
 127:C:/Users/Yushev/git/optiga-trust-qi/examples/optiga/usecases\example_read_coprocessor_id.c ****         pal_os_memset(output_buffer, 0x00, sizeof(output_buffer));
 128:C:/Users/Yushev/git/optiga-trust-qi/examples/optiga/usecases\example_read_coprocessor_id.c **** 
 129:C:/Users/Yushev/git/optiga-trust-qi/examples/optiga/usecases\example_read_coprocessor_id.c ****         optiga_lib_byte_to_hex_string((uint8_t*)(p_log_string + index), temp_buffer, temp_length, F
 130:C:/Users/Yushev/git/optiga-trust-qi/examples/optiga/usecases\example_read_coprocessor_id.c **** 
 131:C:/Users/Yushev/git/optiga-trust-qi/examples/optiga/usecases\example_read_coprocessor_id.c ****         sprintf((char_t *)output_buffer, "%s%s%s", p_log_color, temp_buffer, OPTIGA_LIB_LOGGER_COLO
 132:C:/Users/Yushev/git/optiga-trust-qi/examples/optiga/usecases\example_read_coprocessor_id.c **** 
 133:C:/Users/Yushev/git/optiga-trust-qi/examples/optiga/usecases\example_read_coprocessor_id.c ****         // New line characted entered at the end of each segment
 134:C:/Users/Yushev/git/optiga-trust-qi/examples/optiga/usecases\example_read_coprocessor_id.c ****         output_buffer[strlen(output_buffer)] = (char_t)new_line_characters[0];
 135:C:/Users/Yushev/git/optiga-trust-qi/examples/optiga/usecases\example_read_coprocessor_id.c ****         output_buffer[strlen(output_buffer)+1] = (char_t)new_line_characters[1];
 136:C:/Users/Yushev/git/optiga-trust-qi/examples/optiga/usecases\example_read_coprocessor_id.c ****         //lint --e{534} The return value is not used hence not checked*/
 137:C:/Users/Yushev/git/optiga-trust-qi/examples/optiga/usecases\example_read_coprocessor_id.c ****         pal_logger_write(&logger_console, (const uint8_t *)output_buffer, strlen(output_buffer) + 2
 138:C:/Users/Yushev/git/optiga-trust-qi/examples/optiga/usecases\example_read_coprocessor_id.c ****     }
 139:C:/Users/Yushev/git/optiga-trust-qi/examples/optiga/usecases\example_read_coprocessor_id.c **** }
 140:C:/Users/Yushev/git/optiga-trust-qi/examples/optiga/usecases\example_read_coprocessor_id.c **** 
 141:C:/Users/Yushev/git/optiga-trust-qi/examples/optiga/usecases\example_read_coprocessor_id.c **** static void optiga_lib_print_coprocessor_components(const char_t * p_log_string,
 142:C:/Users/Yushev/git/optiga-trust-qi/examples/optiga/usecases\example_read_coprocessor_id.c ****                                                     const uint8_t * p_log_array,
 143:C:/Users/Yushev/git/optiga-trust-qi/examples/optiga/usecases\example_read_coprocessor_id.c ****                                                     uint16_t length)
 144:C:/Users/Yushev/git/optiga-trust-qi/examples/optiga/usecases\example_read_coprocessor_id.c **** {
  51              	 .loc 1 144 0
  52              	 .cfi_startproc
  53              	 
  54              	 
  55              	.LVL1:
  56 0000 2DE9F041 	 push {r4,r5,r6,r7,r8,lr}
  57              	.LCFI0:
  58              	 .cfi_def_cfa_offset 24
  59              	 .cfi_offset 4,-24
  60              	 .cfi_offset 5,-20
  61              	 .cfi_offset 6,-16
  62              	 .cfi_offset 7,-12
  63              	 .cfi_offset 8,-8
  64              	 .cfi_offset 14,-4
 145:C:/Users/Yushev/git/optiga-trust-qi/examples/optiga/usecases\example_read_coprocessor_id.c ****     char_t color_buffer[100];
 146:C:/Users/Yushev/git/optiga-trust-qi/examples/optiga/usecases\example_read_coprocessor_id.c **** 
 147:C:/Users/Yushev/git/optiga-trust-qi/examples/optiga/usecases\example_read_coprocessor_id.c ****     OPTIGA_LIB_LOGGER_PRINT_INFO(color_buffer, p_log_string, OPTIGA_EXAMPLE, OPTIGA_EXAMPLE_COLOR);
  65              	 .loc 1 147 0
  66 0004 3D4D     	 ldr r5,.L22
  67 0006 3E4B     	 ldr r3,.L22+4
 144:C:/Users/Yushev/git/optiga-trust-qi/examples/optiga/usecases\example_read_coprocessor_id.c ****     char_t color_buffer[100];
  68              	 .loc 1 144 0
  69 0008 CEB0     	 sub sp,sp,#312
  70              	.LCFI1:
  71              	 .cfi_def_cfa_offset 336
  72              	 .loc 1 147 0
  73 000a 8DE82100 	 stmia sp,{r0,r5}
 144:C:/Users/Yushev/git/optiga-trust-qi/examples/optiga/usecases\example_read_coprocessor_id.c ****     char_t color_buffer[100];
  74              	 .loc 1 144 0
  75 000e 0F46     	 mov r7,r1
  76 0010 1646     	 mov r6,r2
  77              	 .loc 1 147 0
  78 0012 3C49     	 ldr r1,.L22+8
  79              	.LVL2:
  80 0014 2A46     	 mov r2,r5
  81              	.LVL3:
  82 0016 03A8     	 add r0,sp,#12
  83              	.LVL4:
  84 0018 FFF7FEFF 	 bl sprintf
  85              	.LVL5:
 148:C:/Users/Yushev/git/optiga-trust-qi/examples/optiga/usecases\example_read_coprocessor_id.c ****     //lint --e{534} The return value is not used hence not checked*/
 149:C:/Users/Yushev/git/optiga-trust-qi/examples/optiga/usecases\example_read_coprocessor_id.c ****     pal_logger_write(&logger_console, (const uint8_t *)color_buffer, strlen(color_buffer));
  86              	 .loc 1 149 0
  87 001c 03A8     	 add r0,sp,#12
  88 001e FFF7FEFF 	 bl strlen
  89              	.LVL6:
  90 0022 03A9     	 add r1,sp,#12
  91 0024 0246     	 mov r2,r0
  92 0026 3848     	 ldr r0,.L22+12
  93 0028 FFF7FEFF 	 bl pal_logger_write
  94              	.LVL7:
  95              	.LBB8:
  96              	.LBB9:
 118:C:/Users/Yushev/git/optiga-trust-qi/examples/optiga/usecases\example_read_coprocessor_id.c ****     {
  97              	 .loc 1 118 0
  98 002c 4FF00008 	 mov r8,#0
  99              	.L5:
 100              	.LVL8:
 101 0030 B045     	 cmp r8,r6
 102 0032 60D2     	 bcs .L20
 103              	.LVL9:
 121:C:/Users/Yushev/git/optiga-trust-qi/examples/optiga/usecases\example_read_coprocessor_id.c ****         {
 104              	 .loc 1 121 0
 105 0034 C8EB0604 	 rsb r4,r8,r6
 106 0038 1F2C     	 cmp r4,#31
 126:C:/Users/Yushev/git/optiga-trust-qi/examples/optiga/usecases\example_read_coprocessor_id.c ****         pal_os_memset(output_buffer, 0x00, sizeof(output_buffer));
 107              	 .loc 1 126 0
 108 003a 1CA8     	 add r0,sp,#112
 109 003c 4FF00001 	 mov r1,#0
 110 0040 4FF06402 	 mov r2,#100
 123:C:/Users/Yushev/git/optiga-trust-qi/examples/optiga/usecases\example_read_coprocessor_id.c ****         }
 111              	 .loc 1 123 0
 112 0044 D4BF     	 ite le
 113 0046 A4B2     	 uxthle r4,r4
 114              	.LVL10:
 120:C:/Users/Yushev/git/optiga-trust-qi/examples/optiga/usecases\example_read_coprocessor_id.c ****         if ((length - index) < buffer_window)
 115              	 .loc 1 120 0
 116 0048 2024     	 movgt r4,#32
 117              	.LVL11:
 126:C:/Users/Yushev/git/optiga-trust-qi/examples/optiga/usecases\example_read_coprocessor_id.c ****         pal_os_memset(output_buffer, 0x00, sizeof(output_buffer));
 118              	 .loc 1 126 0
 119 004a FFF7FEFF 	 bl pal_os_memset
 120              	.LVL12:
 127:C:/Users/Yushev/git/optiga-trust-qi/examples/optiga/usecases\example_read_coprocessor_id.c **** 
 121              	 .loc 1 127 0
 122 004e 35A8     	 add r0,sp,#212
 123 0050 0021     	 movs r1,#0
 124 0052 6422     	 movs r2,#100
 125 0054 FFF7FEFF 	 bl pal_os_memset
 126              	.LVL13:
 127              	.LBB10:
 128              	.LBB11:
  81:C:/Users/Yushev/git/optiga-trust-qi/examples/optiga/usecases\example_read_coprocessor_id.c ****         {
 129              	 .loc 1 81 0
 130 0058 17EB080E 	 adds lr,r7,r8
 131              	.LVL14:
 132 005c 27D0     	 beq .L7
 133 005e 631C     	 adds r3,r4,#1
 134 0060 03EB4303 	 add r3,r3,r3,lsl#1
 135 0064 1CAA     	 add r2,sp,#112
 136              	.LVL15:
 137 0066 0DF17301 	 add r1,sp,#115
 138 006a 0EF1FF3E 	 add lr,lr,#-1
 139              	.LVL16:
 140 006e 1A44     	 add r2,r2,r3
 141              	.LVL17:
 142              	.L8:
  86:C:/Users/Yushev/git/optiga-trust-qi/examples/optiga/usecases\example_read_coprocessor_id.c ****         {
 143              	 .loc 1 86 0
 144 0070 9142     	 cmp r1,r2
 145 0072 15D0     	 beq .L21
 146              	.LVL18:
  89:C:/Users/Yushev/git/optiga-trust-qi/examples/optiga/usecases\example_read_coprocessor_id.c ****             if (TRUE == is_input_byte_array)
 147              	 .loc 1 89 0
 148 0074 1EF8013F 	 ldrb r3,[lr,#1]!
 149              	.LVL19:
 150              	.LBB12:
  97:C:/Users/Yushev/git/optiga-trust-qi/examples/optiga/usecases\example_read_coprocessor_id.c ****             
 151              	 .loc 1 97 0
 152 0078 1809     	 lsrs r0,r3,#4
 153              	.LVL20:
 154 007a 0928     	 cmp r0,#9
 155 007c 03F00F03 	 and r3,r3,#15
 156              	.LVL21:
 157 0080 8CBF     	 ite hi
 158 0082 3730     	 addhi r0,r0,#55
 159 0084 3030     	 addls r0,r0,#48
 160 0086 092B     	 cmp r3,#9
 161 0088 8CBF     	 ite hi
 162 008a 3733     	 addhi r3,r3,#55
 163              	.LVL22:
 164 008c 3033     	 addls r3,r3,#48
 165 008e 01F8023C 	 strb r3,[r1,#-2]
 166              	.LVL23:
 167              	.LBE12:
  99:C:/Users/Yushev/git/optiga-trust-qi/examples/optiga/usecases\example_read_coprocessor_id.c ****             p_hex_string += index;
 168              	 .loc 1 99 0
 169 0092 2023     	 movs r3,#32
 170              	.LBB13:
  97:C:/Users/Yushev/git/optiga-trust-qi/examples/optiga/usecases\example_read_coprocessor_id.c ****             
 171              	 .loc 1 97 0
 172 0094 01F8030C 	 strb r0,[r1,#-3]
 173              	.LBE13:
  99:C:/Users/Yushev/git/optiga-trust-qi/examples/optiga/usecases\example_read_coprocessor_id.c ****             p_hex_string += index;
 174              	 .loc 1 99 0
 175 0098 01F8013C 	 strb r3,[r1,#-1]
 176              	.LVL24:
 177 009c 0331     	 adds r1,r1,#3
 178              	.LVL25:
 179 009e E7E7     	 b .L8
 180              	.LVL26:
 181              	.L21:
 102:C:/Users/Yushev/git/optiga-trust-qi/examples/optiga/usecases\example_read_coprocessor_id.c ****     } while(0);
 182              	 .loc 1 102 0
 183 00a0 4EAB     	 add r3,sp,#312
 184 00a2 04EB4404 	 add r4,r4,r4,lsl#1
 185              	.LVL27:
 186 00a6 1C44     	 add r4,r4,r3
 187 00a8 0023     	 movs r3,#0
 188 00aa 04F8C83C 	 strb r3,[r4,#-200]
 189              	.LVL28:
 190              	.L7:
 191              	.LBE11:
 192              	.LBE10:
 131:C:/Users/Yushev/git/optiga-trust-qi/examples/optiga/usecases\example_read_coprocessor_id.c **** 
 193              	 .loc 1 131 0
 194 00ae 1749     	 ldr r1,.L22+16
 195 00b0 124A     	 ldr r2,.L22
 196 00b2 0095     	 str r5,[sp]
 197 00b4 1CAB     	 add r3,sp,#112
 198 00b6 35A8     	 add r0,sp,#212
 199 00b8 FFF7FEFF 	 bl sprintf
 200              	.LVL29:
 134:C:/Users/Yushev/git/optiga-trust-qi/examples/optiga/usecases\example_read_coprocessor_id.c ****         output_buffer[strlen(output_buffer)+1] = (char_t)new_line_characters[1];
 201              	 .loc 1 134 0
 202 00bc 35A8     	 add r0,sp,#212
 203 00be FFF7FEFF 	 bl strlen
 204              	.LVL30:
 205 00c2 4EAB     	 add r3,sp,#312
 206 00c4 1844     	 add r0,r0,r3
 207 00c6 0D23     	 movs r3,#13
 208 00c8 00F8643C 	 strb r3,[r0,#-100]
 135:C:/Users/Yushev/git/optiga-trust-qi/examples/optiga/usecases\example_read_coprocessor_id.c ****         //lint --e{534} The return value is not used hence not checked*/
 209              	 .loc 1 135 0
 210 00cc 35A8     	 add r0,sp,#212
 211 00ce FFF7FEFF 	 bl strlen
 212              	.LVL31:
 213 00d2 4EAB     	 add r3,sp,#312
 214 00d4 1844     	 add r0,r0,r3
 215 00d6 0A23     	 movs r3,#10
 216 00d8 00F8633C 	 strb r3,[r0,#-99]
 137:C:/Users/Yushev/git/optiga-trust-qi/examples/optiga/usecases\example_read_coprocessor_id.c ****     }
 217              	 .loc 1 137 0
 218 00dc 35A8     	 add r0,sp,#212
 219 00de FFF7FEFF 	 bl strlen
 220              	.LVL32:
 118:C:/Users/Yushev/git/optiga-trust-qi/examples/optiga/usecases\example_read_coprocessor_id.c ****     {
 221              	 .loc 1 118 0
 222 00e2 08F12008 	 add r8,r8,#32
 223              	.LVL33:
 137:C:/Users/Yushev/git/optiga-trust-qi/examples/optiga/usecases\example_read_coprocessor_id.c ****     }
 224              	 .loc 1 137 0
 225 00e6 821C     	 adds r2,r0,#2
 226 00e8 35A9     	 add r1,sp,#212
 227 00ea 0748     	 ldr r0,.L22+12
 228 00ec FFF7FEFF 	 bl pal_logger_write
 229              	.LVL34:
 118:C:/Users/Yushev/git/optiga-trust-qi/examples/optiga/usecases\example_read_coprocessor_id.c ****     {
 230              	 .loc 1 118 0
 231 00f0 1FFA88F8 	 uxth r8,r8
 232              	.LVL35:
 233 00f4 9CE7     	 b .L5
 234              	.LVL36:
 235              	.L20:
 236              	.LBE9:
 237              	.LBE8:
 150:C:/Users/Yushev/git/optiga-trust-qi/examples/optiga/usecases\example_read_coprocessor_id.c ****     optiga_lib_print_coprocessor_data(p_log_array, length, OPTIGA_EXAMPLE_COLOR);
 151:C:/Users/Yushev/git/optiga-trust-qi/examples/optiga/usecases\example_read_coprocessor_id.c **** }
 238              	 .loc 1 151 0
 239 00f6 4EB0     	 add sp,sp,#312
 240              	.LCFI2:
 241              	 .cfi_def_cfa_offset 24
 242              	 
 243 00f8 BDE8F081 	 pop {r4,r5,r6,r7,r8,pc}
 244              	.LVL37:
 245              	.L23:
 246              	 .align 2
 247              	.L22:
 248 00fc 09000000 	 .word .LC2
 249 0100 0E000000 	 .word .LC3
 250 0104 00000000 	 .word .LC1
 251 0108 00000000 	 .word logger_console
 252 010c 23000000 	 .word .LC4
 253              	 .cfi_endproc
 254              	.LFE3:
 256              	 .section .text.example_read_coprocessor_id,"ax",%progbits
 257              	 .align 1
 258              	 .global example_read_coprocessor_id
 259              	 .thumb
 260              	 .thumb_func
 262              	example_read_coprocessor_id:
 263              	.LFB4:
 152:C:/Users/Yushev/git/optiga-trust-qi/examples/optiga/usecases\example_read_coprocessor_id.c **** 
 153:C:/Users/Yushev/git/optiga-trust-qi/examples/optiga/usecases\example_read_coprocessor_id.c **** #define OPTIGA_EXAMPLE_LOG_COPROCESSOR_ID_INFO(msg, array, length) \
 154:C:/Users/Yushev/git/optiga-trust-qi/examples/optiga/usecases\example_read_coprocessor_id.c ****                                                optiga_lib_print_coprocessor_components(msg, array, 
 155:C:/Users/Yushev/git/optiga-trust-qi/examples/optiga/usecases\example_read_coprocessor_id.c **** #else
 156:C:/Users/Yushev/git/optiga-trust-qi/examples/optiga/usecases\example_read_coprocessor_id.c **** #define OPTIGA_EXAMPLE_LOG_COPROCESSOR_ID_INFO(msg, array, length)
 157:C:/Users/Yushev/git/optiga-trust-qi/examples/optiga/usecases\example_read_coprocessor_id.c **** #endif
 158:C:/Users/Yushev/git/optiga-trust-qi/examples/optiga/usecases\example_read_coprocessor_id.c **** 
 159:C:/Users/Yushev/git/optiga-trust-qi/examples/optiga/usecases\example_read_coprocessor_id.c **** /**
 160:C:/Users/Yushev/git/optiga-trust-qi/examples/optiga/usecases\example_read_coprocessor_id.c ****  * The below example demonstrates reading of Coprocessor ID and displaying it's individual componen
 161:C:/Users/Yushev/git/optiga-trust-qi/examples/optiga/usecases\example_read_coprocessor_id.c ****  *
 162:C:/Users/Yushev/git/optiga-trust-qi/examples/optiga/usecases\example_read_coprocessor_id.c ****  * Preconditions: The optiga_util_open_application must be executed before invoking the below examp
 163:C:/Users/Yushev/git/optiga-trust-qi/examples/optiga/usecases\example_read_coprocessor_id.c ****  *
 164:C:/Users/Yushev/git/optiga-trust-qi/examples/optiga/usecases\example_read_coprocessor_id.c ****  */
 165:C:/Users/Yushev/git/optiga-trust-qi/examples/optiga/usecases\example_read_coprocessor_id.c **** void example_read_coprocessor_id(void)
 166:C:/Users/Yushev/git/optiga-trust-qi/examples/optiga/usecases\example_read_coprocessor_id.c **** {
 264              	 .loc 1 166 0
 265              	 .cfi_startproc
 266              	 
 267              	 
 268              	.LVL38:
 269 0000 30B5     	 push {r4,r5,lr}
 270              	.LCFI3:
 271              	 .cfi_def_cfa_offset 12
 272              	 .cfi_offset 4,-12
 273              	 .cfi_offset 5,-8
 274              	 .cfi_offset 14,-4
 167:C:/Users/Yushev/git/optiga-trust-qi/examples/optiga/usecases\example_read_coprocessor_id.c ****     uint16_t bytes_to_read;
 168:C:/Users/Yushev/git/optiga-trust-qi/examples/optiga/usecases\example_read_coprocessor_id.c ****     uint8_t coprocessor_uid[32];
 169:C:/Users/Yushev/git/optiga-trust-qi/examples/optiga/usecases\example_read_coprocessor_id.c ****     optiga_lib_status_t return_status = !OPTIGA_LIB_SUCCESS;
 170:C:/Users/Yushev/git/optiga-trust-qi/examples/optiga/usecases\example_read_coprocessor_id.c ****     optiga_util_t * me_util = NULL;
 171:C:/Users/Yushev/git/optiga-trust-qi/examples/optiga/usecases\example_read_coprocessor_id.c **** 
 172:C:/Users/Yushev/git/optiga-trust-qi/examples/optiga/usecases\example_read_coprocessor_id.c ****     OPTIGA_EXAMPLE_LOG_MESSAGE(__FUNCTION__);
 275              	 .loc 1 172 0
 276 0002 4348     	 ldr r0,.L39
 277 0004 4349     	 ldr r1,.L39+4
 278 0006 444A     	 ldr r2,.L39+8
 166:C:/Users/Yushev/git/optiga-trust-qi/examples/optiga/usecases\example_read_coprocessor_id.c ****     uint16_t bytes_to_read;
 279              	 .loc 1 166 0
 280 0008 8DB0     	 sub sp,sp,#52
 281              	.LCFI4:
 282              	 .cfi_def_cfa_offset 64
 283              	 .loc 1 172 0
 284 000a FFF7FEFF 	 bl optiga_lib_print_message
 285              	.LVL39:
 173:C:/Users/Yushev/git/optiga-trust-qi/examples/optiga/usecases\example_read_coprocessor_id.c **** 
 174:C:/Users/Yushev/git/optiga-trust-qi/examples/optiga/usecases\example_read_coprocessor_id.c ****     do
 175:C:/Users/Yushev/git/optiga-trust-qi/examples/optiga/usecases\example_read_coprocessor_id.c ****     {
 176:C:/Users/Yushev/git/optiga-trust-qi/examples/optiga/usecases\example_read_coprocessor_id.c ****         /**
 177:C:/Users/Yushev/git/optiga-trust-qi/examples/optiga/usecases\example_read_coprocessor_id.c ****          * 1. Create OPTIGA Util Instance
 178:C:/Users/Yushev/git/optiga-trust-qi/examples/optiga/usecases\example_read_coprocessor_id.c ****          */
 179:C:/Users/Yushev/git/optiga-trust-qi/examples/optiga/usecases\example_read_coprocessor_id.c ****         me_util = optiga_util_create(0, optiga_lib_callback, NULL);
 286              	 .loc 1 179 0
 287 000e 0020     	 movs r0,#0
 288 0010 0246     	 mov r2,r0
 289 0012 4249     	 ldr r1,.L39+12
 290 0014 FFF7FEFF 	 bl optiga_util_create
 291              	.LVL40:
 292 0018 0122     	 movs r2,#1
 180:C:/Users/Yushev/git/optiga-trust-qi/examples/optiga/usecases\example_read_coprocessor_id.c ****         if (NULL == me_util)
 293              	 .loc 1 180 0
 294 001a 0546     	 mov r5,r0
 295 001c 0028     	 cmp r0,#0
 296 001e 61D0     	 beq .L28
 181:C:/Users/Yushev/git/optiga-trust-qi/examples/optiga/usecases\example_read_coprocessor_id.c ****         {
 182:C:/Users/Yushev/git/optiga-trust-qi/examples/optiga/usecases\example_read_coprocessor_id.c ****             break;
 183:C:/Users/Yushev/git/optiga-trust-qi/examples/optiga/usecases\example_read_coprocessor_id.c ****         }
 184:C:/Users/Yushev/git/optiga-trust-qi/examples/optiga/usecases\example_read_coprocessor_id.c **** 
 185:C:/Users/Yushev/git/optiga-trust-qi/examples/optiga/usecases\example_read_coprocessor_id.c ****         /**
 186:C:/Users/Yushev/git/optiga-trust-qi/examples/optiga/usecases\example_read_coprocessor_id.c ****          * 2. Read Coprocessor UID (0xE0C2) data object from OPTIGA
 187:C:/Users/Yushev/git/optiga-trust-qi/examples/optiga/usecases\example_read_coprocessor_id.c ****          *    using optiga_util_read_data.
 188:C:/Users/Yushev/git/optiga-trust-qi/examples/optiga/usecases\example_read_coprocessor_id.c ****          */
 189:C:/Users/Yushev/git/optiga-trust-qi/examples/optiga/usecases\example_read_coprocessor_id.c ****         bytes_to_read = sizeof(coprocessor_uid);
 297              	 .loc 1 189 0
 298 0020 2023     	 movs r3,#32
 190:C:/Users/Yushev/git/optiga-trust-qi/examples/optiga/usecases\example_read_coprocessor_id.c ****         optiga_lib_status = OPTIGA_LIB_BUSY;
 299              	 .loc 1 190 0
 300 0022 3F4C     	 ldr r4,.L39+16
 189:C:/Users/Yushev/git/optiga-trust-qi/examples/optiga/usecases\example_read_coprocessor_id.c ****         optiga_lib_status = OPTIGA_LIB_BUSY;
 301              	 .loc 1 189 0
 302 0024 ADF80E30 	 strh r3,[sp,#14]
 191:C:/Users/Yushev/git/optiga-trust-qi/examples/optiga/usecases\example_read_coprocessor_id.c ****         return_status = optiga_util_read_data(me_util,
 303              	 .loc 1 191 0
 304 0028 0DF10E03 	 add r3,sp,#14
 190:C:/Users/Yushev/git/optiga-trust-qi/examples/optiga/usecases\example_read_coprocessor_id.c ****         optiga_lib_status = OPTIGA_LIB_BUSY;
 305              	 .loc 1 190 0
 306 002c 2280     	 strh r2,[r4]
 307              	 .loc 1 191 0
 308 002e 0093     	 str r3,[sp]
 309 0030 0022     	 movs r2,#0
 310 0032 4EF2C201 	 movw r1,#57538
 311 0036 04AB     	 add r3,sp,#16
 312 0038 FFF7FEFF 	 bl optiga_util_read_data
 313              	.LVL41:
 192:C:/Users/Yushev/git/optiga-trust-qi/examples/optiga/usecases\example_read_coprocessor_id.c ****                                               0xE0C2,
 193:C:/Users/Yushev/git/optiga-trust-qi/examples/optiga/usecases\example_read_coprocessor_id.c ****                                               0x0000,
 194:C:/Users/Yushev/git/optiga-trust-qi/examples/optiga/usecases\example_read_coprocessor_id.c ****                                               coprocessor_uid,
 195:C:/Users/Yushev/git/optiga-trust-qi/examples/optiga/usecases\example_read_coprocessor_id.c ****                                               &bytes_to_read);
 196:C:/Users/Yushev/git/optiga-trust-qi/examples/optiga/usecases\example_read_coprocessor_id.c **** 
 197:C:/Users/Yushev/git/optiga-trust-qi/examples/optiga/usecases\example_read_coprocessor_id.c ****         WAIT_AND_CHECK_STATUS(return_status, optiga_lib_status);
 314              	 .loc 1 197 0
 315 003c 0246     	 mov r2,r0
 316 003e 0028     	 cmp r0,#0
 317 0040 50D1     	 bne .L28
 318              	.L26:
 319              	 .loc 1 197 0 is_stmt 0 discriminator 1
 320 0042 2388     	 ldrh r3,[r4]
 321 0044 364A     	 ldr r2,.L39+16
 322 0046 9BB2     	 uxth r3,r3
 323 0048 012B     	 cmp r3,#1
 324 004a FAD0     	 beq .L26
 325              	 .loc 1 197 0 discriminator 2
 326 004c 1388     	 ldrh r3,[r2]
 327 004e 9BB2     	 uxth r3,r3
 328 0050 23B1     	 cbz r3,.L27
 329              	 .loc 1 197 0 discriminator 3
 330 0052 1288     	 ldrh r2,[r2]
 331 0054 92B2     	 uxth r2,r2
 332              	.LVL42:
 198:C:/Users/Yushev/git/optiga-trust-qi/examples/optiga/usecases\example_read_coprocessor_id.c ****         return_status = OPTIGA_LIB_SUCCESS;
 199:C:/Users/Yushev/git/optiga-trust-qi/examples/optiga/usecases\example_read_coprocessor_id.c ****         OPTIGA_EXAMPLE_LOG_MESSAGE("Coprocessor UID components are mentioned below:\n");
 200:C:/Users/Yushev/git/optiga-trust-qi/examples/optiga/usecases\example_read_coprocessor_id.c ****         OPTIGA_EXAMPLE_LOG_COPROCESSOR_ID_INFO("CIM Identifier                       : ", &coproces
 201:C:/Users/Yushev/git/optiga-trust-qi/examples/optiga/usecases\example_read_coprocessor_id.c ****         OPTIGA_EXAMPLE_LOG_COPROCESSOR_ID_INFO("Platform Identifier                  : ", &coproces
 202:C:/Users/Yushev/git/optiga-trust-qi/examples/optiga/usecases\example_read_coprocessor_id.c ****         OPTIGA_EXAMPLE_LOG_COPROCESSOR_ID_INFO("Model Identifier                     : ", &coproces
 203:C:/Users/Yushev/git/optiga-trust-qi/examples/optiga/usecases\example_read_coprocessor_id.c ****         OPTIGA_EXAMPLE_LOG_COPROCESSOR_ID_INFO("ROM mask ID                          : ", &coproces
 204:C:/Users/Yushev/git/optiga-trust-qi/examples/optiga/usecases\example_read_coprocessor_id.c ****         OPTIGA_EXAMPLE_LOG_COPROCESSOR_ID_INFO("Chip type                            : ", &coproces
 205:C:/Users/Yushev/git/optiga-trust-qi/examples/optiga/usecases\example_read_coprocessor_id.c ****         OPTIGA_EXAMPLE_LOG_COPROCESSOR_ID_INFO("Batch number                         : ", &coproces
 206:C:/Users/Yushev/git/optiga-trust-qi/examples/optiga/usecases\example_read_coprocessor_id.c ****         OPTIGA_EXAMPLE_LOG_COPROCESSOR_ID_INFO("Chip position on wafer: X-coordinate : ", &coproces
 207:C:/Users/Yushev/git/optiga-trust-qi/examples/optiga/usecases\example_read_coprocessor_id.c ****         OPTIGA_EXAMPLE_LOG_COPROCESSOR_ID_INFO("Chip position on wafer: Y-coordinate : ", &coproces
 208:C:/Users/Yushev/git/optiga-trust-qi/examples/optiga/usecases\example_read_coprocessor_id.c ****         OPTIGA_EXAMPLE_LOG_COPROCESSOR_ID_INFO("Firmware Identifier                  : ", &coproces
 209:C:/Users/Yushev/git/optiga-trust-qi/examples/optiga/usecases\example_read_coprocessor_id.c ****         OPTIGA_EXAMPLE_LOG_COPROCESSOR_ID_INFO("ESW build number, BCD coded          : ", &coproces
 210:C:/Users/Yushev/git/optiga-trust-qi/examples/optiga/usecases\example_read_coprocessor_id.c ****         optiga_lib_print_string_with_newline("");
 211:C:/Users/Yushev/git/optiga-trust-qi/examples/optiga/usecases\example_read_coprocessor_id.c ****     } while(FALSE);
 212:C:/Users/Yushev/git/optiga-trust-qi/examples/optiga/usecases\example_read_coprocessor_id.c ****     OPTIGA_EXAMPLE_LOG_STATUS(return_status);
 333              	 .loc 1 212 0 is_stmt 1 discriminator 3
 334 0056 002A     	 cmp r2,#0
 335 0058 4AD0     	 beq .L29
 336 005a 43E0     	 b .L28
 337              	.LVL43:
 338              	.L27:
 199:C:/Users/Yushev/git/optiga-trust-qi/examples/optiga/usecases\example_read_coprocessor_id.c ****         OPTIGA_EXAMPLE_LOG_COPROCESSOR_ID_INFO("CIM Identifier                       : ", &coproces
 339              	 .loc 1 199 0
 340 005c 3148     	 ldr r0,.L39+20
 341 005e 2D49     	 ldr r1,.L39+4
 342 0060 2D4A     	 ldr r2,.L39+8
 343 0062 FFF7FEFF 	 bl optiga_lib_print_message
 344              	.LVL44:
 200:C:/Users/Yushev/git/optiga-trust-qi/examples/optiga/usecases\example_read_coprocessor_id.c ****         OPTIGA_EXAMPLE_LOG_COPROCESSOR_ID_INFO("Platform Identifier                  : ", &coproces
 345              	 .loc 1 200 0
 346 0066 04A9     	 add r1,sp,#16
 347 0068 2F48     	 ldr r0,.L39+24
 348 006a 0122     	 movs r2,#1
 349 006c FFF7FEFF 	 bl optiga_lib_print_coprocessor_components
 350              	.LVL45:
 201:C:/Users/Yushev/git/optiga-trust-qi/examples/optiga/usecases\example_read_coprocessor_id.c ****         OPTIGA_EXAMPLE_LOG_COPROCESSOR_ID_INFO("Model Identifier                     : ", &coproces
 351              	 .loc 1 201 0
 352 0070 0DF11101 	 add r1,sp,#17
 353 0074 2D48     	 ldr r0,.L39+28
 354 0076 0122     	 movs r2,#1
 355 0078 FFF7FEFF 	 bl optiga_lib_print_coprocessor_components
 356              	.LVL46:
 202:C:/Users/Yushev/git/optiga-trust-qi/examples/optiga/usecases\example_read_coprocessor_id.c ****         OPTIGA_EXAMPLE_LOG_COPROCESSOR_ID_INFO("ROM mask ID                          : ", &coproces
 357              	 .loc 1 202 0
 358 007c 0DF11201 	 add r1,sp,#18
 359 0080 2B48     	 ldr r0,.L39+32
 360 0082 0122     	 movs r2,#1
 361 0084 FFF7FEFF 	 bl optiga_lib_print_coprocessor_components
 362              	.LVL47:
 203:C:/Users/Yushev/git/optiga-trust-qi/examples/optiga/usecases\example_read_coprocessor_id.c ****         OPTIGA_EXAMPLE_LOG_COPROCESSOR_ID_INFO("Chip type                            : ", &coproces
 363              	 .loc 1 203 0
 364 0088 0DF11301 	 add r1,sp,#19
 365 008c 2948     	 ldr r0,.L39+36
 366 008e 0222     	 movs r2,#2
 367 0090 FFF7FEFF 	 bl optiga_lib_print_coprocessor_components
 368              	.LVL48:
 204:C:/Users/Yushev/git/optiga-trust-qi/examples/optiga/usecases\example_read_coprocessor_id.c ****         OPTIGA_EXAMPLE_LOG_COPROCESSOR_ID_INFO("Batch number                         : ", &coproces
 369              	 .loc 1 204 0
 370 0094 0DF11501 	 add r1,sp,#21
 371 0098 2748     	 ldr r0,.L39+40
 372 009a 0622     	 movs r2,#6
 373 009c FFF7FEFF 	 bl optiga_lib_print_coprocessor_components
 374              	.LVL49:
 205:C:/Users/Yushev/git/optiga-trust-qi/examples/optiga/usecases\example_read_coprocessor_id.c ****         OPTIGA_EXAMPLE_LOG_COPROCESSOR_ID_INFO("Chip position on wafer: X-coordinate : ", &coproces
 375              	 .loc 1 205 0
 376 00a0 0DF11B01 	 add r1,sp,#27
 377 00a4 2548     	 ldr r0,.L39+44
 378 00a6 0622     	 movs r2,#6
 379 00a8 FFF7FEFF 	 bl optiga_lib_print_coprocessor_components
 380              	.LVL50:
 206:C:/Users/Yushev/git/optiga-trust-qi/examples/optiga/usecases\example_read_coprocessor_id.c ****         OPTIGA_EXAMPLE_LOG_COPROCESSOR_ID_INFO("Chip position on wafer: Y-coordinate : ", &coproces
 381              	 .loc 1 206 0
 382 00ac 0DF12101 	 add r1,sp,#33
 383 00b0 2348     	 ldr r0,.L39+48
 384 00b2 0222     	 movs r2,#2
 385 00b4 FFF7FEFF 	 bl optiga_lib_print_coprocessor_components
 386              	.LVL51:
 207:C:/Users/Yushev/git/optiga-trust-qi/examples/optiga/usecases\example_read_coprocessor_id.c ****         OPTIGA_EXAMPLE_LOG_COPROCESSOR_ID_INFO("Firmware Identifier                  : ", &coproces
 387              	 .loc 1 207 0
 388 00b8 0DF12301 	 add r1,sp,#35
 389 00bc 2148     	 ldr r0,.L39+52
 390 00be 0222     	 movs r2,#2
 391 00c0 FFF7FEFF 	 bl optiga_lib_print_coprocessor_components
 392              	.LVL52:
 208:C:/Users/Yushev/git/optiga-trust-qi/examples/optiga/usecases\example_read_coprocessor_id.c ****         OPTIGA_EXAMPLE_LOG_COPROCESSOR_ID_INFO("ESW build number, BCD coded          : ", &coproces
 393              	 .loc 1 208 0
 394 00c4 0DF12501 	 add r1,sp,#37
 395 00c8 1F48     	 ldr r0,.L39+56
 396 00ca 0422     	 movs r2,#4
 397 00cc FFF7FEFF 	 bl optiga_lib_print_coprocessor_components
 398              	.LVL53:
 209:C:/Users/Yushev/git/optiga-trust-qi/examples/optiga/usecases\example_read_coprocessor_id.c ****         optiga_lib_print_string_with_newline("");
 399              	 .loc 1 209 0
 400 00d0 1E48     	 ldr r0,.L39+60
 401 00d2 0DF12901 	 add r1,sp,#41
 402 00d6 0222     	 movs r2,#2
 403 00d8 FFF7FEFF 	 bl optiga_lib_print_coprocessor_components
 404              	.LVL54:
 210:C:/Users/Yushev/git/optiga-trust-qi/examples/optiga/usecases\example_read_coprocessor_id.c ****     } while(FALSE);
 405              	 .loc 1 210 0
 406 00dc 1C48     	 ldr r0,.L39+64
 407 00de FFF7FEFF 	 bl optiga_lib_print_string_with_newline
 408              	.LVL55:
 409 00e2 05E0     	 b .L29
 410              	.LVL56:
 411              	.L28:
 412              	 .loc 1 212 0 discriminator 1
 413 00e4 0B48     	 ldr r0,.L39+4
 414 00e6 1B49     	 ldr r1,.L39+68
 415 00e8 FFF7FEFF 	 bl optiga_lib_print_status
 416              	.LVL57:
 213:C:/Users/Yushev/git/optiga-trust-qi/examples/optiga/usecases\example_read_coprocessor_id.c ****     
 214:C:/Users/Yushev/git/optiga-trust-qi/examples/optiga/usecases\example_read_coprocessor_id.c ****     if(me_util)
 417              	 .loc 1 214 0 discriminator 1
 418 00ec 2DB9     	 cbnz r5,.L30
 419 00ee 0DE0     	 b .L24
 420              	.L29:
 212:C:/Users/Yushev/git/optiga-trust-qi/examples/optiga/usecases\example_read_coprocessor_id.c ****     
 421              	 .loc 1 212 0 discriminator 2
 422 00f0 0848     	 ldr r0,.L39+4
 423 00f2 0949     	 ldr r1,.L39+8
 424 00f4 0022     	 movs r2,#0
 425 00f6 FFF7FEFF 	 bl optiga_lib_print_status
 426              	.LVL58:
 427              	.L30:
 215:C:/Users/Yushev/git/optiga-trust-qi/examples/optiga/usecases\example_read_coprocessor_id.c ****     {
 216:C:/Users/Yushev/git/optiga-trust-qi/examples/optiga/usecases\example_read_coprocessor_id.c ****         //Destroy the instance after the completion of usecase if not required.
 217:C:/Users/Yushev/git/optiga-trust-qi/examples/optiga/usecases\example_read_coprocessor_id.c ****         return_status = optiga_util_destroy(me_util);
 428              	 .loc 1 217 0
 429 00fa 2846     	 mov r0,r5
 430 00fc FFF7FEFF 	 bl optiga_util_destroy
 431              	.LVL59:
 218:C:/Users/Yushev/git/optiga-trust-qi/examples/optiga/usecases\example_read_coprocessor_id.c ****         if(OPTIGA_LIB_SUCCESS != return_status)
 432              	 .loc 1 218 0
 433 0100 0246     	 mov r2,r0
 434 0102 18B1     	 cbz r0,.L24
 219:C:/Users/Yushev/git/optiga-trust-qi/examples/optiga/usecases\example_read_coprocessor_id.c ****         {
 220:C:/Users/Yushev/git/optiga-trust-qi/examples/optiga/usecases\example_read_coprocessor_id.c ****             //lint --e{774} suppress This is a generic macro
 221:C:/Users/Yushev/git/optiga-trust-qi/examples/optiga/usecases\example_read_coprocessor_id.c ****             OPTIGA_EXAMPLE_LOG_STATUS(return_status);
 435              	 .loc 1 221 0 discriminator 1
 436 0104 0348     	 ldr r0,.L39+4
 437              	.LVL60:
 438 0106 1349     	 ldr r1,.L39+68
 439 0108 FFF7FEFF 	 bl optiga_lib_print_status
 440              	.LVL61:
 441              	.L24:
 222:C:/Users/Yushev/git/optiga-trust-qi/examples/optiga/usecases\example_read_coprocessor_id.c ****         }
 223:C:/Users/Yushev/git/optiga-trust-qi/examples/optiga/usecases\example_read_coprocessor_id.c ****     }
 224:C:/Users/Yushev/git/optiga-trust-qi/examples/optiga/usecases\example_read_coprocessor_id.c **** }
 442              	 .loc 1 224 0
 443 010c 0DB0     	 add sp,sp,#52
 444              	.LCFI5:
 445              	 .cfi_def_cfa_offset 12
 446              	 
 447 010e 30BD     	 pop {r4,r5,pc}
 448              	.LVL62:
 449              	.L40:
 450              	 .align 2
 451              	.L39:
 452 0110 00000000 	 .word .LANCHOR1
 453 0114 0E000000 	 .word .LC3
 454 0118 09000000 	 .word .LC2
 455 011c 00000000 	 .word optiga_lib_callback
 456 0120 00000000 	 .word .LANCHOR0
 457 0124 2A000000 	 .word .LC5
 458 0128 5B000000 	 .word .LC6
 459 012c 83000000 	 .word .LC7
 460 0130 AB000000 	 .word .LC8
 461 0134 D3000000 	 .word .LC9
 462 0138 FB000000 	 .word .LC10
 463 013c 23010000 	 .word .LC11
 464 0140 4B010000 	 .word .LC12
 465 0144 73010000 	 .word .LC13
 466 0148 9B010000 	 .word .LC14
 467 014c C3010000 	 .word .LC15
 468 0150 EB010000 	 .word .LC16
 469 0154 EC010000 	 .word .LC17
 470              	 .cfi_endproc
 471              	.LFE4:
 473              	 .section .rodata.str1.1,"aMS",%progbits,1
 474              	.LC1:
 475 0000 25732573 	 .ascii "%s%s%s%s\000"
 475      25732573 
 475      00
 476              	.LC2:
 477 0009 1B5B306D 	 .ascii "\033[0m\000"
 477      00
 478              	.LC3:
 479 000e 5B6F7074 	 .ascii "[optiga example]  : \000"
 479      69676120 
 479      6578616D 
 479      706C655D 
 479      20203A20 
 480              	.LC4:
 481 0023 25732573 	 .ascii "%s%s%s\000"
 481      257300
 482              	.LC5:
 483 002a 436F7072 	 .ascii "Coprocessor UID components are mentioned below:\012"
 483      6F636573 
 483      736F7220 
 483      55494420 
 483      636F6D70 
 484 005a 00       	 .ascii "\000"
 485              	.LC6:
 486 005b 43494D20 	 .ascii "CIM Identifier                       : \000"
 486      4964656E 
 486      74696669 
 486      65722020 
 486      20202020 
 487              	.LC7:
 488 0083 506C6174 	 .ascii "Platform Identifier                  : \000"
 488      666F726D 
 488      20496465 
 488      6E746966 
 488      69657220 
 489              	.LC8:
 490 00ab 4D6F6465 	 .ascii "Model Identifier                     : \000"
 490      6C204964 
 490      656E7469 
 490      66696572 
 490      20202020 
 491              	.LC9:
 492 00d3 524F4D20 	 .ascii "ROM mask ID                          : \000"
 492      6D61736B 
 492      20494420 
 492      20202020 
 492      20202020 
 493              	.LC10:
 494 00fb 43686970 	 .ascii "Chip type                            : \000"
 494      20747970 
 494      65202020 
 494      20202020 
 494      20202020 
 495              	.LC11:
 496 0123 42617463 	 .ascii "Batch number                         : \000"
 496      68206E75 
 496      6D626572 
 496      20202020 
 496      20202020 
 497              	.LC12:
 498 014b 43686970 	 .ascii "Chip position on wafer: X-coordinate : \000"
 498      20706F73 
 498      6974696F 
 498      6E206F6E 
 498      20776166 
 499              	.LC13:
 500 0173 43686970 	 .ascii "Chip position on wafer: Y-coordinate : \000"
 500      20706F73 
 500      6974696F 
 500      6E206F6E 
 500      20776166 
 501              	.LC14:
 502 019b 4669726D 	 .ascii "Firmware Identifier                  : \000"
 502      77617265 
 502      20496465 
 502      6E746966 
 502      69657220 
 503              	.LC15:
 504 01c3 45535720 	 .ascii "ESW build number, BCD coded          : \000"
 504      6275696C 
 504      64206E75 
 504      6D626572 
 504      2C204243 
 505              	.LC16:
 506 01eb 00       	 .ascii "\000"
 507              	.LC17:
 508 01ec 1B5B3331 	 .ascii "\033[31m\000"
 508      6D00
 509              	 .section .rodata.__FUNCTION__.5934,"a",%progbits
 510              	 .set .LANCHOR1,.+0
 513              	__FUNCTION__.5934:
 514 0000 6578616D 	 .ascii "example_read_coprocessor_id\000"
 514      706C655F 
 514      72656164 
 514      5F636F70 
 514      726F6365 
 515              	 .section .bss.optiga_lib_status,"aw",%nobits
 516              	 .align 1
 517              	 .set .LANCHOR0,.+0
 520              	optiga_lib_status:
 521 0000 0000     	 .space 2
 522              	 .text
 523              	.Letext0:
 524              	 .file 2 "c:\\users\\yushev\\dave_4-4-2_32bit_2018-02-23\\dave-ide-4.4.2-32bit\\eclipse\\arm-gcc-49\\arm-none-eabi\\include\\machine\\_default_types.h"
 525              	 .file 3 "c:\\users\\yushev\\dave_4-4-2_32bit_2018-02-23\\dave-ide-4.4.2-32bit\\eclipse\\arm-gcc-49\\lib\\gcc\\arm-none-eabi\\4.9.3\\include\\stddef.h"
 526              	 .file 4 "c:\\users\\yushev\\dave_4-4-2_32bit_2018-02-23\\dave-ide-4.4.2-32bit\\eclipse\\arm-gcc-49\\arm-none-eabi\\include\\stdint.h"
 527              	 .file 5 "C:/Users/Yushev/git/optiga-trust-qi/optiga/include/optiga/common/optiga_lib_types.h"
 528              	 .file 6 "C:/Users/Yushev/git/optiga-trust-qi/optiga/include/optiga/common/optiga_lib_common.h"
 529              	 .file 7 "C:/Users/Yushev/git/optiga-trust-qi/optiga/include/optiga/cmd/optiga_cmd.h"
 530              	 .file 8 "C:/Users/Yushev/git/optiga-trust-qi/optiga/include/optiga/optiga_util.h"
 531              	 .file 9 "C:/Users/Yushev/git/optiga-trust-qi/optiga/include/optiga/pal/pal.h"
 532              	 .file 10 "C:/Users/Yushev/git/optiga-trust-qi/optiga/include/optiga/pal/pal_logger.h"
 533              	 .file 11 "c:\\users\\yushev\\dave_4-4-2_32bit_2018-02-23\\dave-ide-4.4.2-32bit\\eclipse\\arm-gcc-49\\arm-none-eabi\\include\\stdio.h"
 534              	 .file 12 "c:\\users\\yushev\\dave_4-4-2_32bit_2018-02-23\\dave-ide-4.4.2-32bit\\eclipse\\arm-gcc-49\\arm-none-eabi\\include\\string.h"
 535              	 .file 13 "C:/Users/Yushev/git/optiga-trust-qi/optiga/include/optiga/pal/pal_os_memory.h"
 536              	 .file 14 "C:/Users/Yushev/git/optiga-trust-qi/optiga/include/optiga/common/optiga_lib_logger.h"