   1              	 .syntax unified
   2              	 .cpu cortex-m4
   3              	 .eabi_attribute 27,3
   4              	 .fpu fpv4-sp-d16
   5              	 .eabi_attribute 20,1
   6              	 .eabi_attribute 21,1
   7              	 .eabi_attribute 23,3
   8              	 .eabi_attribute 24,1
   9              	 .eabi_attribute 25,1
  10              	 .eabi_attribute 26,1
  11              	 .eabi_attribute 30,4
  12              	 .eabi_attribute 34,1
  13              	 .eabi_attribute 18,4
  14              	 .thumb
  15              	 .file "example_utilities.c"
  16              	 .text
  17              	.Ltext0:
  18              	 .cfi_sections .debug_frame
  19              	 .section .text.example_util_encode_ecc_public_key_in_bit_string_format,"ax",%progbits
  20              	 .align 1
  21              	 .global example_util_encode_ecc_public_key_in_bit_string_format
  22              	 .thumb
  23              	 .thumb_func
  25              	example_util_encode_ecc_public_key_in_bit_string_format:
  26              	.LFB0:
  27              	 .file 1 "C:/Users/Yushev/git/optiga-trust-qi/examples/optiga/example_utilities.c"
   1:C:/Users/Yushev/git/optiga-trust-qi/examples/optiga\example_utilities.c **** /**
   2:C:/Users/Yushev/git/optiga-trust-qi/examples/optiga\example_utilities.c **** * \copyright
   3:C:/Users/Yushev/git/optiga-trust-qi/examples/optiga\example_utilities.c **** * MIT License
   4:C:/Users/Yushev/git/optiga-trust-qi/examples/optiga\example_utilities.c **** *
   5:C:/Users/Yushev/git/optiga-trust-qi/examples/optiga\example_utilities.c **** * Copyright (c) 2020 Infineon Technologies AG
   6:C:/Users/Yushev/git/optiga-trust-qi/examples/optiga\example_utilities.c **** *
   7:C:/Users/Yushev/git/optiga-trust-qi/examples/optiga\example_utilities.c **** * Permission is hereby granted, free of charge, to any person obtaining a copy
   8:C:/Users/Yushev/git/optiga-trust-qi/examples/optiga\example_utilities.c **** * of this software and associated documentation files (the "Software"), to deal
   9:C:/Users/Yushev/git/optiga-trust-qi/examples/optiga\example_utilities.c **** * in the Software without restriction, including without limitation the rights
  10:C:/Users/Yushev/git/optiga-trust-qi/examples/optiga\example_utilities.c **** * to use, copy, modify, merge, publish, distribute, sublicense, and/or sell
  11:C:/Users/Yushev/git/optiga-trust-qi/examples/optiga\example_utilities.c **** * copies of the Software, and to permit persons to whom the Software is
  12:C:/Users/Yushev/git/optiga-trust-qi/examples/optiga\example_utilities.c **** * furnished to do so, subject to the following conditions:
  13:C:/Users/Yushev/git/optiga-trust-qi/examples/optiga\example_utilities.c **** *
  14:C:/Users/Yushev/git/optiga-trust-qi/examples/optiga\example_utilities.c **** * The above copyright notice and this permission notice shall be included in all
  15:C:/Users/Yushev/git/optiga-trust-qi/examples/optiga\example_utilities.c **** * copies or substantial portions of the Software.
  16:C:/Users/Yushev/git/optiga-trust-qi/examples/optiga\example_utilities.c **** *
  17:C:/Users/Yushev/git/optiga-trust-qi/examples/optiga\example_utilities.c **** * THE SOFTWARE IS PROVIDED "AS IS", WITHOUT WARRANTY OF ANY KIND, EXPRESS OR
  18:C:/Users/Yushev/git/optiga-trust-qi/examples/optiga\example_utilities.c **** * IMPLIED, INCLUDING BUT NOT LIMITED TO THE WARRANTIES OF MERCHANTABILITY,
  19:C:/Users/Yushev/git/optiga-trust-qi/examples/optiga\example_utilities.c **** * FITNESS FOR A PARTICULAR PURPOSE AND NONINFRINGEMENT. IN NO EVENT SHALL THE
  20:C:/Users/Yushev/git/optiga-trust-qi/examples/optiga\example_utilities.c **** * AUTHORS OR COPYRIGHT HOLDERS BE LIABLE FOR ANY CLAIM, DAMAGES OR OTHER
  21:C:/Users/Yushev/git/optiga-trust-qi/examples/optiga\example_utilities.c **** * LIABILITY, WHETHER IN AN ACTION OF CONTRACT, TORT OR OTHERWISE, ARISING FROM,
  22:C:/Users/Yushev/git/optiga-trust-qi/examples/optiga\example_utilities.c **** * OUT OF OR IN CONNECTION WITH THE SOFTWARE OR THE USE OR OTHER DEALINGS IN THE
  23:C:/Users/Yushev/git/optiga-trust-qi/examples/optiga\example_utilities.c **** * SOFTWARE
  24:C:/Users/Yushev/git/optiga-trust-qi/examples/optiga\example_utilities.c **** *
  25:C:/Users/Yushev/git/optiga-trust-qi/examples/optiga\example_utilities.c **** * \endcopyright
  26:C:/Users/Yushev/git/optiga-trust-qi/examples/optiga\example_utilities.c **** *
  27:C:/Users/Yushev/git/optiga-trust-qi/examples/optiga\example_utilities.c **** * \author Infineon Technologies AG
  28:C:/Users/Yushev/git/optiga-trust-qi/examples/optiga\example_utilities.c **** *
  29:C:/Users/Yushev/git/optiga-trust-qi/examples/optiga\example_utilities.c **** * \file example_utilities.c
  30:C:/Users/Yushev/git/optiga-trust-qi/examples/optiga\example_utilities.c **** *
  31:C:/Users/Yushev/git/optiga-trust-qi/examples/optiga\example_utilities.c **** * \brief   This file provides the utilities for example code.
  32:C:/Users/Yushev/git/optiga-trust-qi/examples/optiga\example_utilities.c **** *
  33:C:/Users/Yushev/git/optiga-trust-qi/examples/optiga\example_utilities.c **** * \ingroup grOptigaExamples
  34:C:/Users/Yushev/git/optiga-trust-qi/examples/optiga\example_utilities.c **** *
  35:C:/Users/Yushev/git/optiga-trust-qi/examples/optiga\example_utilities.c **** * @{
  36:C:/Users/Yushev/git/optiga-trust-qi/examples/optiga\example_utilities.c **** */
  37:C:/Users/Yushev/git/optiga-trust-qi/examples/optiga\example_utilities.c **** 
  38:C:/Users/Yushev/git/optiga-trust-qi/examples/optiga\example_utilities.c **** #include "optiga/pal/pal_os_memory.h"
  39:C:/Users/Yushev/git/optiga-trust-qi/examples/optiga\example_utilities.c **** 
  40:C:/Users/Yushev/git/optiga-trust-qi/examples/optiga\example_utilities.c **** #define OPTIGA_EXAMPLE_UTIL_DER_BITSTRING_TAG               (0x03)
  41:C:/Users/Yushev/git/optiga-trust-qi/examples/optiga\example_utilities.c **** #define OPTIGA_EXAMPLE_UTIL_DER_NUM_UNUSED_BITS             (0x00)
  42:C:/Users/Yushev/git/optiga-trust-qi/examples/optiga\example_utilities.c **** 
  43:C:/Users/Yushev/git/optiga-trust-qi/examples/optiga\example_utilities.c **** void example_util_encode_ecc_public_key_in_bit_string_format(const uint8_t * q_buffer,
  44:C:/Users/Yushev/git/optiga-trust-qi/examples/optiga\example_utilities.c ****                                                         uint8_t q_length,
  45:C:/Users/Yushev/git/optiga-trust-qi/examples/optiga\example_utilities.c ****                                                         uint8_t * pub_key_buffer,
  46:C:/Users/Yushev/git/optiga-trust-qi/examples/optiga\example_utilities.c ****                                                         uint16_t * pub_key_length)
  47:C:/Users/Yushev/git/optiga-trust-qi/examples/optiga\example_utilities.c **** {
  28              	 .loc 1 47 0
  29              	 .cfi_startproc
  30              	 
  31              	 
  32              	.LVL0:
  33 0000 70B5     	 push {r4,r5,r6,lr}
  34              	.LCFI0:
  35              	 .cfi_def_cfa_offset 16
  36              	 .cfi_offset 4,-16
  37              	 .cfi_offset 5,-12
  38              	 .cfi_offset 6,-8
  39              	 .cfi_offset 14,-4
  40              	 .loc 1 47 0
  41 0002 1D46     	 mov r5,r3
  48:C:/Users/Yushev/git/optiga-trust-qi/examples/optiga\example_utilities.c **** #define OPTIGA_EXAMPLE_UTIL_ECC_DER_ADDITIONAL_LENGTH (0x02)
  49:C:/Users/Yushev/git/optiga-trust-qi/examples/optiga\example_utilities.c **** 
  50:C:/Users/Yushev/git/optiga-trust-qi/examples/optiga\example_utilities.c ****     uint16_t index = 0;
  51:C:/Users/Yushev/git/optiga-trust-qi/examples/optiga\example_utilities.c **** 
  52:C:/Users/Yushev/git/optiga-trust-qi/examples/optiga\example_utilities.c ****     pub_key_buffer[index++] = OPTIGA_EXAMPLE_UTIL_DER_BITSTRING_TAG;
  42              	 .loc 1 52 0
  43 0004 0323     	 movs r3,#3
  44              	.LVL1:
  45 0006 1370     	 strb r3,[r2]
  46              	.LVL2:
  53:C:/Users/Yushev/git/optiga-trust-qi/examples/optiga\example_utilities.c ****     pub_key_buffer[index++] = q_length + OPTIGA_EXAMPLE_UTIL_ECC_DER_ADDITIONAL_LENGTH;
  47              	 .loc 1 53 0
  48 0008 8B1C     	 adds r3,r1,#2
  49 000a 5370     	 strb r3,[r2,#1]
  50              	.LVL3:
  54:C:/Users/Yushev/git/optiga-trust-qi/examples/optiga\example_utilities.c ****     pub_key_buffer[index++] = OPTIGA_EXAMPLE_UTIL_DER_NUM_UNUSED_BITS;
  51              	 .loc 1 54 0
  52 000c 0023     	 movs r3,#0
  47:C:/Users/Yushev/git/optiga-trust-qi/examples/optiga\example_utilities.c **** #define OPTIGA_EXAMPLE_UTIL_ECC_DER_ADDITIONAL_LENGTH (0x02)
  53              	 .loc 1 47 0
  54 000e 0C46     	 mov r4,r1
  55              	 .loc 1 54 0
  56 0010 9370     	 strb r3,[r2,#2]
  57              	.LVL4:
  47:C:/Users/Yushev/git/optiga-trust-qi/examples/optiga\example_utilities.c **** #define OPTIGA_EXAMPLE_UTIL_ECC_DER_ADDITIONAL_LENGTH (0x02)
  58              	 .loc 1 47 0
  59 0012 0646     	 mov r6,r0
  55:C:/Users/Yushev/git/optiga-trust-qi/examples/optiga\example_utilities.c ****     // Compression format. Supports only 04 [uncompressed]
  56:C:/Users/Yushev/git/optiga-trust-qi/examples/optiga\example_utilities.c ****     pub_key_buffer[index++] = 0x04;
  60              	 .loc 1 56 0
  61 0014 0423     	 movs r3,#4
  62 0016 D370     	 strb r3,[r2,#3]
  57:C:/Users/Yushev/git/optiga-trust-qi/examples/optiga\example_utilities.c **** 
  58:C:/Users/Yushev/git/optiga-trust-qi/examples/optiga\example_utilities.c ****     pal_os_memcpy(&pub_key_buffer[index], q_buffer, q_length);
  63              	 .loc 1 58 0
  64 0018 D018     	 adds r0,r2,r3
  65              	.LVL5:
  66 001a 3146     	 mov r1,r6
  67              	.LVL6:
  68 001c 2246     	 mov r2,r4
  69              	.LVL7:
  59:C:/Users/Yushev/git/optiga-trust-qi/examples/optiga\example_utilities.c ****     index += q_length;
  70              	 .loc 1 59 0
  71 001e 0434     	 adds r4,r4,#4
  58:C:/Users/Yushev/git/optiga-trust-qi/examples/optiga\example_utilities.c ****     index += q_length;
  72              	 .loc 1 58 0
  73 0020 FFF7FEFF 	 bl pal_os_memcpy
  74              	.LVL8:
  60:C:/Users/Yushev/git/optiga-trust-qi/examples/optiga\example_utilities.c **** 
  61:C:/Users/Yushev/git/optiga-trust-qi/examples/optiga\example_utilities.c ****     *pub_key_length = index;
  75              	 .loc 1 61 0
  76 0024 2C80     	 strh r4,[r5]
  77 0026 70BD     	 pop {r4,r5,r6,pc}
  78              	 .cfi_endproc
  79              	.LFE0:
  81              	 .text
  82              	.Letext0:
  83              	 .file 2 "c:\\users\\yushev\\dave_4-4-2_32bit_2018-02-23\\dave-ide-4.4.2-32bit\\eclipse\\arm-gcc-49\\arm-none-eabi\\include\\machine\\_default_types.h"
  84              	 .file 3 "c:\\users\\yushev\\dave_4-4-2_32bit_2018-02-23\\dave-ide-4.4.2-32bit\\eclipse\\arm-gcc-49\\arm-none-eabi\\include\\stdint.h"
  85              	 .file 4 "C:/Users/Yushev/git/optiga-trust-qi/optiga/include/optiga/pal/pal_os_memory.h"