   1              	 .syntax unified
   2              	 .cpu cortex-m4
   3              	 .eabi_attribute 27,3
   4              	 .fpu fpv4-sp-d16
   5              	 .eabi_attribute 20,1
   6              	 .eabi_attribute 21,1
   7              	 .eabi_attribute 23,3
   8              	 .eabi_attribute 24,1
   9              	 .eabi_attribute 25,1
  10              	 .eabi_attribute 26,1
  11              	 .eabi_attribute 30,6
  12              	 .eabi_attribute 34,1
  13              	 .eabi_attribute 18,4
  14              	 .thumb
  15              	 .file "optiga_lib_common.c"
  16              	 .text
  17              	.Ltext0:
  18              	 .cfi_sections .debug_frame
  19              	 .section .text.optiga_common_set_uint16,"ax",%progbits
  20              	 .align 2
  21              	 .global optiga_common_set_uint16
  22              	 .thumb
  23              	 .thumb_func
  25              	optiga_common_set_uint16:
  26              	.LFB0:
  27              	 .file 1 "C:/Users/Yushev/git/wpcqi-optiga-trust-charge/optiga/optiga/common/optiga_lib_common.c"
   1:C:/Users/Yushev/git/wpcqi-optiga-trust-charge/optiga/optiga/common\optiga_lib_common.c **** /**
   2:C:/Users/Yushev/git/wpcqi-optiga-trust-charge/optiga/optiga/common\optiga_lib_common.c **** * \copyright
   3:C:/Users/Yushev/git/wpcqi-optiga-trust-charge/optiga/optiga/common\optiga_lib_common.c **** * MIT License
   4:C:/Users/Yushev/git/wpcqi-optiga-trust-charge/optiga/optiga/common\optiga_lib_common.c **** *
   5:C:/Users/Yushev/git/wpcqi-optiga-trust-charge/optiga/optiga/common\optiga_lib_common.c **** * Copyright (c) 2020 Infineon Technologies AG
   6:C:/Users/Yushev/git/wpcqi-optiga-trust-charge/optiga/optiga/common\optiga_lib_common.c **** *
   7:C:/Users/Yushev/git/wpcqi-optiga-trust-charge/optiga/optiga/common\optiga_lib_common.c **** * Permission is hereby granted, free of charge, to any person obtaining a copy
   8:C:/Users/Yushev/git/wpcqi-optiga-trust-charge/optiga/optiga/common\optiga_lib_common.c **** * of this software and associated documentation files (the "Software"), to deal
   9:C:/Users/Yushev/git/wpcqi-optiga-trust-charge/optiga/optiga/common\optiga_lib_common.c **** * in the Software without restriction, including without limitation the rights
  10:C:/Users/Yushev/git/wpcqi-optiga-trust-charge/optiga/optiga/common\optiga_lib_common.c **** * to use, copy, modify, merge, publish, distribute, sublicense, and/or sell
  11:C:/Users/Yushev/git/wpcqi-optiga-trust-charge/optiga/optiga/common\optiga_lib_common.c **** * copies of the Software, and to permit persons to whom the Software is
  12:C:/Users/Yushev/git/wpcqi-optiga-trust-charge/optiga/optiga/common\optiga_lib_common.c **** * furnished to do so, subject to the following conditions:
  13:C:/Users/Yushev/git/wpcqi-optiga-trust-charge/optiga/optiga/common\optiga_lib_common.c **** *
  14:C:/Users/Yushev/git/wpcqi-optiga-trust-charge/optiga/optiga/common\optiga_lib_common.c **** * The above copyright notice and this permission notice shall be included in all
  15:C:/Users/Yushev/git/wpcqi-optiga-trust-charge/optiga/optiga/common\optiga_lib_common.c **** * copies or substantial portions of the Software.
  16:C:/Users/Yushev/git/wpcqi-optiga-trust-charge/optiga/optiga/common\optiga_lib_common.c **** *
  17:C:/Users/Yushev/git/wpcqi-optiga-trust-charge/optiga/optiga/common\optiga_lib_common.c **** * THE SOFTWARE IS PROVIDED "AS IS", WITHOUT WARRANTY OF ANY KIND, EXPRESS OR
  18:C:/Users/Yushev/git/wpcqi-optiga-trust-charge/optiga/optiga/common\optiga_lib_common.c **** * IMPLIED, INCLUDING BUT NOT LIMITED TO THE WARRANTIES OF MERCHANTABILITY,
  19:C:/Users/Yushev/git/wpcqi-optiga-trust-charge/optiga/optiga/common\optiga_lib_common.c **** * FITNESS FOR A PARTICULAR PURPOSE AND NONINFRINGEMENT. IN NO EVENT SHALL THE
  20:C:/Users/Yushev/git/wpcqi-optiga-trust-charge/optiga/optiga/common\optiga_lib_common.c **** * AUTHORS OR COPYRIGHT HOLDERS BE LIABLE FOR ANY CLAIM, DAMAGES OR OTHER
  21:C:/Users/Yushev/git/wpcqi-optiga-trust-charge/optiga/optiga/common\optiga_lib_common.c **** * LIABILITY, WHETHER IN AN ACTION OF CONTRACT, TORT OR OTHERWISE, ARISING FROM,
  22:C:/Users/Yushev/git/wpcqi-optiga-trust-charge/optiga/optiga/common\optiga_lib_common.c **** * OUT OF OR IN CONNECTION WITH THE SOFTWARE OR THE USE OR OTHER DEALINGS IN THE
  23:C:/Users/Yushev/git/wpcqi-optiga-trust-charge/optiga/optiga/common\optiga_lib_common.c **** * SOFTWARE
  24:C:/Users/Yushev/git/wpcqi-optiga-trust-charge/optiga/optiga/common\optiga_lib_common.c **** *
  25:C:/Users/Yushev/git/wpcqi-optiga-trust-charge/optiga/optiga/common\optiga_lib_common.c **** * \endcopyright
  26:C:/Users/Yushev/git/wpcqi-optiga-trust-charge/optiga/optiga/common\optiga_lib_common.c **** *
  27:C:/Users/Yushev/git/wpcqi-optiga-trust-charge/optiga/optiga/common\optiga_lib_common.c **** * \author Infineon Technologies AG
  28:C:/Users/Yushev/git/wpcqi-optiga-trust-charge/optiga/optiga/common\optiga_lib_common.c **** *
  29:C:/Users/Yushev/git/wpcqi-optiga-trust-charge/optiga/optiga/common\optiga_lib_common.c **** * \file optiga_lib_common.c
  30:C:/Users/Yushev/git/wpcqi-optiga-trust-charge/optiga/optiga/common\optiga_lib_common.c **** *
  31:C:/Users/Yushev/git/wpcqi-optiga-trust-charge/optiga/optiga/common\optiga_lib_common.c **** * \brief   This file implements the commonly used functions by the OPTIGA Library .
  32:C:/Users/Yushev/git/wpcqi-optiga-trust-charge/optiga/optiga/common\optiga_lib_common.c **** *
  33:C:/Users/Yushev/git/wpcqi-optiga-trust-charge/optiga/optiga/common\optiga_lib_common.c **** * \ingroup  grOptigaLibCommon
  34:C:/Users/Yushev/git/wpcqi-optiga-trust-charge/optiga/optiga/common\optiga_lib_common.c **** *
  35:C:/Users/Yushev/git/wpcqi-optiga-trust-charge/optiga/optiga/common\optiga_lib_common.c **** * @{
  36:C:/Users/Yushev/git/wpcqi-optiga-trust-charge/optiga/optiga/common\optiga_lib_common.c **** */
  37:C:/Users/Yushev/git/wpcqi-optiga-trust-charge/optiga/optiga/common\optiga_lib_common.c **** 
  38:C:/Users/Yushev/git/wpcqi-optiga-trust-charge/optiga/optiga/common\optiga_lib_common.c **** #include "optiga/common/optiga_lib_types.h"
  39:C:/Users/Yushev/git/wpcqi-optiga-trust-charge/optiga/optiga/common\optiga_lib_common.c **** #include "optiga/common/optiga_lib_common.h"
  40:C:/Users/Yushev/git/wpcqi-optiga-trust-charge/optiga/optiga/common\optiga_lib_common.c **** 
  41:C:/Users/Yushev/git/wpcqi-optiga-trust-charge/optiga/optiga/common\optiga_lib_common.c **** void optiga_common_set_uint16 (uint8_t * p_output_buffer,uint16_t two_byte_value)
  42:C:/Users/Yushev/git/wpcqi-optiga-trust-charge/optiga/optiga/common\optiga_lib_common.c **** {
  28              	 .loc 1 42 0
  29              	 .cfi_startproc
  30              	 
  31              	 
  32              	 
  33 0000 80B4     	 push {r7}
  34              	.LCFI0:
  35              	 .cfi_def_cfa_offset 4
  36              	 .cfi_offset 7,-4
  37 0002 83B0     	 sub sp,sp,#12
  38              	.LCFI1:
  39              	 .cfi_def_cfa_offset 16
  40 0004 00AF     	 add r7,sp,#0
  41              	.LCFI2:
  42              	 .cfi_def_cfa_register 7
  43 0006 7860     	 str r0,[r7,#4]
  44 0008 0B46     	 mov r3,r1
  45 000a 7B80     	 strh r3,[r7,#2]
  43:C:/Users/Yushev/git/wpcqi-optiga-trust-charge/optiga/optiga/common\optiga_lib_common.c ****     *p_output_buffer = (uint8_t)(two_byte_value>>8);
  46              	 .loc 1 43 0
  47 000c 7B88     	 ldrh r3,[r7,#2]
  48 000e 1B0A     	 lsrs r3,r3,#8
  49 0010 9BB2     	 uxth r3,r3
  50 0012 DAB2     	 uxtb r2,r3
  51 0014 7B68     	 ldr r3,[r7,#4]
  52 0016 1A70     	 strb r2,[r3]
  44:C:/Users/Yushev/git/wpcqi-optiga-trust-charge/optiga/optiga/common\optiga_lib_common.c ****     *(p_output_buffer + 1) = (uint8_t)(two_byte_value);
  53              	 .loc 1 44 0
  54 0018 7B68     	 ldr r3,[r7,#4]
  55 001a 0133     	 adds r3,r3,#1
  56 001c 7A88     	 ldrh r2,[r7,#2]
  57 001e D2B2     	 uxtb r2,r2
  58 0020 1A70     	 strb r2,[r3]
  45:C:/Users/Yushev/git/wpcqi-optiga-trust-charge/optiga/optiga/common\optiga_lib_common.c **** }
  59              	 .loc 1 45 0
  60 0022 0C37     	 adds r7,r7,#12
  61              	.LCFI3:
  62              	 .cfi_def_cfa_offset 4
  63 0024 BD46     	 mov sp,r7
  64              	.LCFI4:
  65              	 .cfi_def_cfa_register 13
  66              	 
  67 0026 5DF8047B 	 ldr r7,[sp],#4
  68              	.LCFI5:
  69              	 .cfi_restore 7
  70              	 .cfi_def_cfa_offset 0
  71 002a 7047     	 bx lr
  72              	 .cfi_endproc
  73              	.LFE0:
  75              	 .section .text.optiga_common_set_uint32,"ax",%progbits
  76              	 .align 2
  77              	 .global optiga_common_set_uint32
  78              	 .thumb
  79              	 .thumb_func
  81              	optiga_common_set_uint32:
  82              	.LFB1:
  46:C:/Users/Yushev/git/wpcqi-optiga-trust-charge/optiga/optiga/common\optiga_lib_common.c **** 
  47:C:/Users/Yushev/git/wpcqi-optiga-trust-charge/optiga/optiga/common\optiga_lib_common.c **** void optiga_common_set_uint32 (uint8_t* p_output_buffer,uint32_t four_byte_value)
  48:C:/Users/Yushev/git/wpcqi-optiga-trust-charge/optiga/optiga/common\optiga_lib_common.c **** {
  83              	 .loc 1 48 0
  84              	 .cfi_startproc
  85              	 
  86              	 
  87              	 
  88 0000 80B4     	 push {r7}
  89              	.LCFI6:
  90              	 .cfi_def_cfa_offset 4
  91              	 .cfi_offset 7,-4
  92 0002 83B0     	 sub sp,sp,#12
  93              	.LCFI7:
  94              	 .cfi_def_cfa_offset 16
  95 0004 00AF     	 add r7,sp,#0
  96              	.LCFI8:
  97              	 .cfi_def_cfa_register 7
  98 0006 7860     	 str r0,[r7,#4]
  99 0008 3960     	 str r1,[r7]
  49:C:/Users/Yushev/git/wpcqi-optiga-trust-charge/optiga/optiga/common\optiga_lib_common.c ****     *(p_output_buffer) = (uint8_t)(four_byte_value>>24);
 100              	 .loc 1 49 0
 101 000a 3B68     	 ldr r3,[r7]
 102 000c 1B0E     	 lsrs r3,r3,#24
 103 000e DAB2     	 uxtb r2,r3
 104 0010 7B68     	 ldr r3,[r7,#4]
 105 0012 1A70     	 strb r2,[r3]
  50:C:/Users/Yushev/git/wpcqi-optiga-trust-charge/optiga/optiga/common\optiga_lib_common.c ****     *(p_output_buffer + 1) = (uint8_t)(four_byte_value>>16);
 106              	 .loc 1 50 0
 107 0014 7B68     	 ldr r3,[r7,#4]
 108 0016 0133     	 adds r3,r3,#1
 109 0018 3A68     	 ldr r2,[r7]
 110 001a 120C     	 lsrs r2,r2,#16
 111 001c D2B2     	 uxtb r2,r2
 112 001e 1A70     	 strb r2,[r3]
  51:C:/Users/Yushev/git/wpcqi-optiga-trust-charge/optiga/optiga/common\optiga_lib_common.c ****     *(p_output_buffer + 2) = (uint8_t)(four_byte_value>>8);
 113              	 .loc 1 51 0
 114 0020 7B68     	 ldr r3,[r7,#4]
 115 0022 0233     	 adds r3,r3,#2
 116 0024 3A68     	 ldr r2,[r7]
 117 0026 120A     	 lsrs r2,r2,#8
 118 0028 D2B2     	 uxtb r2,r2
 119 002a 1A70     	 strb r2,[r3]
  52:C:/Users/Yushev/git/wpcqi-optiga-trust-charge/optiga/optiga/common\optiga_lib_common.c ****     *(p_output_buffer + 3) = (uint8_t)(four_byte_value);
 120              	 .loc 1 52 0
 121 002c 7B68     	 ldr r3,[r7,#4]
 122 002e 0333     	 adds r3,r3,#3
 123 0030 3A68     	 ldr r2,[r7]
 124 0032 D2B2     	 uxtb r2,r2
 125 0034 1A70     	 strb r2,[r3]
  53:C:/Users/Yushev/git/wpcqi-optiga-trust-charge/optiga/optiga/common\optiga_lib_common.c **** }
 126              	 .loc 1 53 0
 127 0036 0C37     	 adds r7,r7,#12
 128              	.LCFI9:
 129              	 .cfi_def_cfa_offset 4
 130 0038 BD46     	 mov sp,r7
 131              	.LCFI10:
 132              	 .cfi_def_cfa_register 13
 133              	 
 134 003a 5DF8047B 	 ldr r7,[sp],#4
 135              	.LCFI11:
 136              	 .cfi_restore 7
 137              	 .cfi_def_cfa_offset 0
 138 003e 7047     	 bx lr
 139              	 .cfi_endproc
 140              	.LFE1:
 142              	 .section .text.optiga_common_get_uint32,"ax",%progbits
 143              	 .align 2
 144              	 .global optiga_common_get_uint32
 145              	 .thumb
 146              	 .thumb_func
 148              	optiga_common_get_uint32:
 149              	.LFB2:
  54:C:/Users/Yushev/git/wpcqi-optiga-trust-charge/optiga/optiga/common\optiga_lib_common.c **** 
  55:C:/Users/Yushev/git/wpcqi-optiga-trust-charge/optiga/optiga/common\optiga_lib_common.c **** uint32_t optiga_common_get_uint32 (const uint8_t* p_input_buffer)
  56:C:/Users/Yushev/git/wpcqi-optiga-trust-charge/optiga/optiga/common\optiga_lib_common.c **** {
 150              	 .loc 1 56 0
 151              	 .cfi_startproc
 152              	 
 153              	 
 154              	 
 155 0000 80B4     	 push {r7}
 156              	.LCFI12:
 157              	 .cfi_def_cfa_offset 4
 158              	 .cfi_offset 7,-4
 159 0002 85B0     	 sub sp,sp,#20
 160              	.LCFI13:
 161              	 .cfi_def_cfa_offset 24
 162 0004 00AF     	 add r7,sp,#0
 163              	.LCFI14:
 164              	 .cfi_def_cfa_register 7
 165 0006 7860     	 str r0,[r7,#4]
  57:C:/Users/Yushev/git/wpcqi-optiga-trust-charge/optiga/optiga/common\optiga_lib_common.c ****     uint32_t four_byte_value;
  58:C:/Users/Yushev/git/wpcqi-optiga-trust-charge/optiga/optiga/common\optiga_lib_common.c ****     four_byte_value = ((uint32_t)(*p_input_buffer))<< 24 | ((uint32_t)(*(p_input_buffer + 1))<< 16 
 166              	 .loc 1 58 0
 167 0008 7B68     	 ldr r3,[r7,#4]
 168 000a 1B78     	 ldrb r3,[r3]
 169 000c 1A06     	 lsls r2,r3,#24
 170 000e 7B68     	 ldr r3,[r7,#4]
 171 0010 0133     	 adds r3,r3,#1
 172 0012 1B78     	 ldrb r3,[r3]
 173 0014 1904     	 lsls r1,r3,#16
  59:C:/Users/Yushev/git/wpcqi-optiga-trust-charge/optiga/optiga/common\optiga_lib_common.c ****                       ((uint32_t)(*(p_input_buffer + 2)))<< 8 | (uint32_t)(*(p_input_buffer + 3)));
 174              	 .loc 1 59 0
 175 0016 7B68     	 ldr r3,[r7,#4]
 176 0018 0233     	 adds r3,r3,#2
 177 001a 1B78     	 ldrb r3,[r3]
 178 001c 1B02     	 lsls r3,r3,#8
  58:C:/Users/Yushev/git/wpcqi-optiga-trust-charge/optiga/optiga/common\optiga_lib_common.c ****                       ((uint32_t)(*(p_input_buffer + 2)))<< 8 | (uint32_t)(*(p_input_buffer + 3)));
 179              	 .loc 1 58 0
 180 001e 0B43     	 orrs r3,r3,r1
 181              	 .loc 1 59 0
 182 0020 7968     	 ldr r1,[r7,#4]
 183 0022 0331     	 adds r1,r1,#3
 184 0024 0978     	 ldrb r1,[r1]
 185 0026 0B43     	 orrs r3,r3,r1
  58:C:/Users/Yushev/git/wpcqi-optiga-trust-charge/optiga/optiga/common\optiga_lib_common.c ****                       ((uint32_t)(*(p_input_buffer + 2)))<< 8 | (uint32_t)(*(p_input_buffer + 3)));
 186              	 .loc 1 58 0
 187 0028 1343     	 orrs r3,r3,r2
 188 002a FB60     	 str r3,[r7,#12]
  60:C:/Users/Yushev/git/wpcqi-optiga-trust-charge/optiga/optiga/common\optiga_lib_common.c **** 
  61:C:/Users/Yushev/git/wpcqi-optiga-trust-charge/optiga/optiga/common\optiga_lib_common.c ****     return (four_byte_value);
 189              	 .loc 1 61 0
 190 002c FB68     	 ldr r3,[r7,#12]
  62:C:/Users/Yushev/git/wpcqi-optiga-trust-charge/optiga/optiga/common\optiga_lib_common.c **** }
 191              	 .loc 1 62 0
 192 002e 1846     	 mov r0,r3
 193 0030 1437     	 adds r7,r7,#20
 194              	.LCFI15:
 195              	 .cfi_def_cfa_offset 4
 196 0032 BD46     	 mov sp,r7
 197              	.LCFI16:
 198              	 .cfi_def_cfa_register 13
 199              	 
 200 0034 5DF8047B 	 ldr r7,[sp],#4
 201              	.LCFI17:
 202              	 .cfi_restore 7
 203              	 .cfi_def_cfa_offset 0
 204 0038 7047     	 bx lr
 205              	 .cfi_endproc
 206              	.LFE2:
 208 003a 00BF     	 .section .text.optiga_common_get_uint16,"ax",%progbits
 209              	 .align 2
 210              	 .global optiga_common_get_uint16
 211              	 .thumb
 212              	 .thumb_func
 214              	optiga_common_get_uint16:
 215              	.LFB3:
  63:C:/Users/Yushev/git/wpcqi-optiga-trust-charge/optiga/optiga/common\optiga_lib_common.c **** 
  64:C:/Users/Yushev/git/wpcqi-optiga-trust-charge/optiga/optiga/common\optiga_lib_common.c **** void optiga_common_get_uint16 (const uint8_t * p_input_buffer,uint16_t* p_two_byte_value)
  65:C:/Users/Yushev/git/wpcqi-optiga-trust-charge/optiga/optiga/common\optiga_lib_common.c **** {
 216              	 .loc 1 65 0
 217              	 .cfi_startproc
 218              	 
 219              	 
 220              	 
 221 0000 80B4     	 push {r7}
 222              	.LCFI18:
 223              	 .cfi_def_cfa_offset 4
 224              	 .cfi_offset 7,-4
 225 0002 83B0     	 sub sp,sp,#12
 226              	.LCFI19:
 227              	 .cfi_def_cfa_offset 16
 228 0004 00AF     	 add r7,sp,#0
 229              	.LCFI20:
 230              	 .cfi_def_cfa_register 7
 231 0006 7860     	 str r0,[r7,#4]
 232 0008 3960     	 str r1,[r7]
  66:C:/Users/Yushev/git/wpcqi-optiga-trust-charge/optiga/optiga/common\optiga_lib_common.c ****     *p_two_byte_value = (uint16_t)(*p_input_buffer << 8);
 233              	 .loc 1 66 0
 234 000a 7B68     	 ldr r3,[r7,#4]
 235 000c 1B78     	 ldrb r3,[r3]
 236 000e 9BB2     	 uxth r3,r3
 237 0010 1B02     	 lsls r3,r3,#8
 238 0012 9AB2     	 uxth r2,r3
 239 0014 3B68     	 ldr r3,[r7]
 240 0016 1A80     	 strh r2,[r3]
  67:C:/Users/Yushev/git/wpcqi-optiga-trust-charge/optiga/optiga/common\optiga_lib_common.c ****     *p_two_byte_value |= (uint16_t)(*(p_input_buffer+1));
 241              	 .loc 1 67 0
 242 0018 3B68     	 ldr r3,[r7]
 243 001a 1A88     	 ldrh r2,[r3]
 244 001c 7B68     	 ldr r3,[r7,#4]
 245 001e 0133     	 adds r3,r3,#1
 246 0020 1B78     	 ldrb r3,[r3]
 247 0022 9BB2     	 uxth r3,r3
 248 0024 1343     	 orrs r3,r3,r2
 249 0026 9AB2     	 uxth r2,r3
 250 0028 3B68     	 ldr r3,[r7]
 251 002a 1A80     	 strh r2,[r3]
  68:C:/Users/Yushev/git/wpcqi-optiga-trust-charge/optiga/optiga/common\optiga_lib_common.c **** }
 252              	 .loc 1 68 0
 253 002c 0C37     	 adds r7,r7,#12
 254              	.LCFI21:
 255              	 .cfi_def_cfa_offset 4
 256 002e BD46     	 mov sp,r7
 257              	.LCFI22:
 258              	 .cfi_def_cfa_register 13
 259              	 
 260 0030 5DF8047B 	 ldr r7,[sp],#4
 261              	.LCFI23:
 262              	 .cfi_restore 7
 263              	 .cfi_def_cfa_offset 0
 264 0034 7047     	 bx lr
 265              	 .cfi_endproc
 266              	.LFE3:
 268 0036 00BF     	 .text
 269              	.Letext0:
 270              	 .file 2 "c:\\users\\yushev\\dave_4-4-2_32bit_2018-02-23\\dave-ide-4.4.2-32bit\\eclipse\\arm-gcc-49\\arm-none-eabi\\include\\machine\\_default_types.h"
 271              	 .file 3 "c:\\users\\yushev\\dave_4-4-2_32bit_2018-02-23\\dave-ide-4.4.2-32bit\\eclipse\\arm-gcc-49\\arm-none-eabi\\include\\stdint.h"