   1              	 .syntax unified
   2              	 .cpu cortex-m4
   3              	 .eabi_attribute 27,3
   4              	 .fpu fpv4-sp-d16
   5              	 .eabi_attribute 20,1
   6              	 .eabi_attribute 21,1
   7              	 .eabi_attribute 23,3
   8              	 .eabi_attribute 24,1
   9              	 .eabi_attribute 25,1
  10              	 .eabi_attribute 26,1
  11              	 .eabi_attribute 30,6
  12              	 .eabi_attribute 34,1
  13              	 .eabi_attribute 18,4
  14              	 .thumb
  15              	 .file "aes.c"
  16              	 .text
  17              	.Ltext0:
  18              	 .cfi_sections .debug_frame
  19              	 .section .bss.FSb,"aw",%nobits
  20              	 .align 2
  23              	FSb:
  24 0000 00000000 	 .space 256
  24      00000000 
  24      00000000 
  24      00000000 
  24      00000000 
  25              	 .section .bss.FT0,"aw",%nobits
  26              	 .align 2
  29              	FT0:
  30 0000 00000000 	 .space 1024
  30      00000000 
  30      00000000 
  30      00000000 
  30      00000000 
  31              	 .section .bss.FT1,"aw",%nobits
  32              	 .align 2
  35              	FT1:
  36 0000 00000000 	 .space 1024
  36      00000000 
  36      00000000 
  36      00000000 
  36      00000000 
  37              	 .section .bss.FT2,"aw",%nobits
  38              	 .align 2
  41              	FT2:
  42 0000 00000000 	 .space 1024
  42      00000000 
  42      00000000 
  42      00000000 
  42      00000000 
  43              	 .section .bss.FT3,"aw",%nobits
  44              	 .align 2
  47              	FT3:
  48 0000 00000000 	 .space 1024
  48      00000000 
  48      00000000 
  48      00000000 
  48      00000000 
  49              	 .section .bss.RSb,"aw",%nobits
  50              	 .align 2
  53              	RSb:
  54 0000 00000000 	 .space 256
  54      00000000 
  54      00000000 
  54      00000000 
  54      00000000 
  55              	 .section .bss.RT0,"aw",%nobits
  56              	 .align 2
  59              	RT0:
  60 0000 00000000 	 .space 1024
  60      00000000 
  60      00000000 
  60      00000000 
  60      00000000 
  61              	 .section .bss.RT1,"aw",%nobits
  62              	 .align 2
  65              	RT1:
  66 0000 00000000 	 .space 1024
  66      00000000 
  66      00000000 
  66      00000000 
  66      00000000 
  67              	 .section .bss.RT2,"aw",%nobits
  68              	 .align 2
  71              	RT2:
  72 0000 00000000 	 .space 1024
  72      00000000 
  72      00000000 
  72      00000000 
  72      00000000 
  73              	 .section .bss.RT3,"aw",%nobits
  74              	 .align 2
  77              	RT3:
  78 0000 00000000 	 .space 1024
  78      00000000 
  78      00000000 
  78      00000000 
  78      00000000 
  79              	 .section .bss.RCON,"aw",%nobits
  80              	 .align 2
  83              	RCON:
  84 0000 00000000 	 .space 40
  84      00000000 
  84      00000000 
  84      00000000 
  84      00000000 
  85              	 .section .bss.aes_init_done,"aw",%nobits
  86              	 .align 2
  89              	aes_init_done:
  90 0000 00000000 	 .space 4
  91              	 .section .text.aes_gen_tables,"ax",%progbits
  92              	 .align 2
  93              	 .thumb
  94              	 .thumb_func
  96              	aes_gen_tables:
  97              	.LFB0:
  98              	 .file 1 "C:/Users/Yushev/git/wpcqi-optiga-trust-charge/optiga/externals/mbedtls/library/aes.c"
   1:C:/Users/Yushev/git/wpcqi-optiga-trust-charge/optiga/externals/mbedtls/library\aes.c **** /*
   2:C:/Users/Yushev/git/wpcqi-optiga-trust-charge/optiga/externals/mbedtls/library\aes.c ****  *  FIPS-197 compliant AES implementation
   3:C:/Users/Yushev/git/wpcqi-optiga-trust-charge/optiga/externals/mbedtls/library\aes.c ****  *
   4:C:/Users/Yushev/git/wpcqi-optiga-trust-charge/optiga/externals/mbedtls/library\aes.c ****  *  Copyright (C) 2006-2015, ARM Limited, All Rights Reserved
   5:C:/Users/Yushev/git/wpcqi-optiga-trust-charge/optiga/externals/mbedtls/library\aes.c ****  *  SPDX-License-Identifier: Apache-2.0
   6:C:/Users/Yushev/git/wpcqi-optiga-trust-charge/optiga/externals/mbedtls/library\aes.c ****  *
   7:C:/Users/Yushev/git/wpcqi-optiga-trust-charge/optiga/externals/mbedtls/library\aes.c ****  *  Licensed under the Apache License, Version 2.0 (the "License"); you may
   8:C:/Users/Yushev/git/wpcqi-optiga-trust-charge/optiga/externals/mbedtls/library\aes.c ****  *  not use this file except in compliance with the License.
   9:C:/Users/Yushev/git/wpcqi-optiga-trust-charge/optiga/externals/mbedtls/library\aes.c ****  *  You may obtain a copy of the License at
  10:C:/Users/Yushev/git/wpcqi-optiga-trust-charge/optiga/externals/mbedtls/library\aes.c ****  *
  11:C:/Users/Yushev/git/wpcqi-optiga-trust-charge/optiga/externals/mbedtls/library\aes.c ****  *  http://www.apache.org/licenses/LICENSE-2.0
  12:C:/Users/Yushev/git/wpcqi-optiga-trust-charge/optiga/externals/mbedtls/library\aes.c ****  *
  13:C:/Users/Yushev/git/wpcqi-optiga-trust-charge/optiga/externals/mbedtls/library\aes.c ****  *  Unless required by applicable law or agreed to in writing, software
  14:C:/Users/Yushev/git/wpcqi-optiga-trust-charge/optiga/externals/mbedtls/library\aes.c ****  *  distributed under the License is distributed on an "AS IS" BASIS, WITHOUT
  15:C:/Users/Yushev/git/wpcqi-optiga-trust-charge/optiga/externals/mbedtls/library\aes.c ****  *  WARRANTIES OR CONDITIONS OF ANY KIND, either express or implied.
  16:C:/Users/Yushev/git/wpcqi-optiga-trust-charge/optiga/externals/mbedtls/library\aes.c ****  *  See the License for the specific language governing permissions and
  17:C:/Users/Yushev/git/wpcqi-optiga-trust-charge/optiga/externals/mbedtls/library\aes.c ****  *  limitations under the License.
  18:C:/Users/Yushev/git/wpcqi-optiga-trust-charge/optiga/externals/mbedtls/library\aes.c ****  *
  19:C:/Users/Yushev/git/wpcqi-optiga-trust-charge/optiga/externals/mbedtls/library\aes.c ****  *  This file is part of mbed TLS (https://tls.mbed.org)
  20:C:/Users/Yushev/git/wpcqi-optiga-trust-charge/optiga/externals/mbedtls/library\aes.c ****  */
  21:C:/Users/Yushev/git/wpcqi-optiga-trust-charge/optiga/externals/mbedtls/library\aes.c **** /*
  22:C:/Users/Yushev/git/wpcqi-optiga-trust-charge/optiga/externals/mbedtls/library\aes.c ****  *  The AES block cipher was designed by Vincent Rijmen and Joan Daemen.
  23:C:/Users/Yushev/git/wpcqi-optiga-trust-charge/optiga/externals/mbedtls/library\aes.c ****  *
  24:C:/Users/Yushev/git/wpcqi-optiga-trust-charge/optiga/externals/mbedtls/library\aes.c ****  *  http://csrc.nist.gov/encryption/aes/rijndael/Rijndael.pdf
  25:C:/Users/Yushev/git/wpcqi-optiga-trust-charge/optiga/externals/mbedtls/library\aes.c ****  *  http://csrc.nist.gov/publications/fips/fips197/fips-197.pdf
  26:C:/Users/Yushev/git/wpcqi-optiga-trust-charge/optiga/externals/mbedtls/library\aes.c ****  */
  27:C:/Users/Yushev/git/wpcqi-optiga-trust-charge/optiga/externals/mbedtls/library\aes.c **** 
  28:C:/Users/Yushev/git/wpcqi-optiga-trust-charge/optiga/externals/mbedtls/library\aes.c **** #if !defined(MBEDTLS_CONFIG_FILE)
  29:C:/Users/Yushev/git/wpcqi-optiga-trust-charge/optiga/externals/mbedtls/library\aes.c **** #include "mbedtls/config.h"
  30:C:/Users/Yushev/git/wpcqi-optiga-trust-charge/optiga/externals/mbedtls/library\aes.c **** #else
  31:C:/Users/Yushev/git/wpcqi-optiga-trust-charge/optiga/externals/mbedtls/library\aes.c **** #include MBEDTLS_CONFIG_FILE
  32:C:/Users/Yushev/git/wpcqi-optiga-trust-charge/optiga/externals/mbedtls/library\aes.c **** #endif
  33:C:/Users/Yushev/git/wpcqi-optiga-trust-charge/optiga/externals/mbedtls/library\aes.c **** 
  34:C:/Users/Yushev/git/wpcqi-optiga-trust-charge/optiga/externals/mbedtls/library\aes.c **** #if defined(MBEDTLS_AES_C)
  35:C:/Users/Yushev/git/wpcqi-optiga-trust-charge/optiga/externals/mbedtls/library\aes.c **** 
  36:C:/Users/Yushev/git/wpcqi-optiga-trust-charge/optiga/externals/mbedtls/library\aes.c **** #include <string.h>
  37:C:/Users/Yushev/git/wpcqi-optiga-trust-charge/optiga/externals/mbedtls/library\aes.c **** 
  38:C:/Users/Yushev/git/wpcqi-optiga-trust-charge/optiga/externals/mbedtls/library\aes.c **** #include "mbedtls/aes.h"
  39:C:/Users/Yushev/git/wpcqi-optiga-trust-charge/optiga/externals/mbedtls/library\aes.c **** #include "mbedtls/platform.h"
  40:C:/Users/Yushev/git/wpcqi-optiga-trust-charge/optiga/externals/mbedtls/library\aes.c **** #include "mbedtls/platform_util.h"
  41:C:/Users/Yushev/git/wpcqi-optiga-trust-charge/optiga/externals/mbedtls/library\aes.c **** #if defined(MBEDTLS_PADLOCK_C)
  42:C:/Users/Yushev/git/wpcqi-optiga-trust-charge/optiga/externals/mbedtls/library\aes.c **** #include "mbedtls/padlock.h"
  43:C:/Users/Yushev/git/wpcqi-optiga-trust-charge/optiga/externals/mbedtls/library\aes.c **** #endif
  44:C:/Users/Yushev/git/wpcqi-optiga-trust-charge/optiga/externals/mbedtls/library\aes.c **** #if defined(MBEDTLS_AESNI_C)
  45:C:/Users/Yushev/git/wpcqi-optiga-trust-charge/optiga/externals/mbedtls/library\aes.c **** #include "mbedtls/aesni.h"
  46:C:/Users/Yushev/git/wpcqi-optiga-trust-charge/optiga/externals/mbedtls/library\aes.c **** #endif
  47:C:/Users/Yushev/git/wpcqi-optiga-trust-charge/optiga/externals/mbedtls/library\aes.c **** 
  48:C:/Users/Yushev/git/wpcqi-optiga-trust-charge/optiga/externals/mbedtls/library\aes.c **** #if defined(MBEDTLS_SELF_TEST)
  49:C:/Users/Yushev/git/wpcqi-optiga-trust-charge/optiga/externals/mbedtls/library\aes.c **** #if defined(MBEDTLS_PLATFORM_C)
  50:C:/Users/Yushev/git/wpcqi-optiga-trust-charge/optiga/externals/mbedtls/library\aes.c **** #include "mbedtls/platform.h"
  51:C:/Users/Yushev/git/wpcqi-optiga-trust-charge/optiga/externals/mbedtls/library\aes.c **** #else
  52:C:/Users/Yushev/git/wpcqi-optiga-trust-charge/optiga/externals/mbedtls/library\aes.c **** #include <stdio.h>
  53:C:/Users/Yushev/git/wpcqi-optiga-trust-charge/optiga/externals/mbedtls/library\aes.c **** #define mbedtls_printf printf
  54:C:/Users/Yushev/git/wpcqi-optiga-trust-charge/optiga/externals/mbedtls/library\aes.c **** #endif /* MBEDTLS_PLATFORM_C */
  55:C:/Users/Yushev/git/wpcqi-optiga-trust-charge/optiga/externals/mbedtls/library\aes.c **** #endif /* MBEDTLS_SELF_TEST */
  56:C:/Users/Yushev/git/wpcqi-optiga-trust-charge/optiga/externals/mbedtls/library\aes.c **** 
  57:C:/Users/Yushev/git/wpcqi-optiga-trust-charge/optiga/externals/mbedtls/library\aes.c **** #if !defined(MBEDTLS_AES_ALT)
  58:C:/Users/Yushev/git/wpcqi-optiga-trust-charge/optiga/externals/mbedtls/library\aes.c **** 
  59:C:/Users/Yushev/git/wpcqi-optiga-trust-charge/optiga/externals/mbedtls/library\aes.c **** /* Parameter validation macros based on platform_util.h */
  60:C:/Users/Yushev/git/wpcqi-optiga-trust-charge/optiga/externals/mbedtls/library\aes.c **** #define AES_VALIDATE_RET( cond )    \
  61:C:/Users/Yushev/git/wpcqi-optiga-trust-charge/optiga/externals/mbedtls/library\aes.c ****     MBEDTLS_INTERNAL_VALIDATE_RET( cond, MBEDTLS_ERR_AES_BAD_INPUT_DATA )
  62:C:/Users/Yushev/git/wpcqi-optiga-trust-charge/optiga/externals/mbedtls/library\aes.c **** #define AES_VALIDATE( cond )        \
  63:C:/Users/Yushev/git/wpcqi-optiga-trust-charge/optiga/externals/mbedtls/library\aes.c ****     MBEDTLS_INTERNAL_VALIDATE( cond )
  64:C:/Users/Yushev/git/wpcqi-optiga-trust-charge/optiga/externals/mbedtls/library\aes.c **** 
  65:C:/Users/Yushev/git/wpcqi-optiga-trust-charge/optiga/externals/mbedtls/library\aes.c **** /*
  66:C:/Users/Yushev/git/wpcqi-optiga-trust-charge/optiga/externals/mbedtls/library\aes.c ****  * 32-bit integer manipulation macros (little endian)
  67:C:/Users/Yushev/git/wpcqi-optiga-trust-charge/optiga/externals/mbedtls/library\aes.c ****  */
  68:C:/Users/Yushev/git/wpcqi-optiga-trust-charge/optiga/externals/mbedtls/library\aes.c **** #ifndef GET_UINT32_LE
  69:C:/Users/Yushev/git/wpcqi-optiga-trust-charge/optiga/externals/mbedtls/library\aes.c **** #define GET_UINT32_LE(n,b,i)                            \
  70:C:/Users/Yushev/git/wpcqi-optiga-trust-charge/optiga/externals/mbedtls/library\aes.c **** {                                                       \
  71:C:/Users/Yushev/git/wpcqi-optiga-trust-charge/optiga/externals/mbedtls/library\aes.c ****     (n) = ( (uint32_t) (b)[(i)    ]       )             \
  72:C:/Users/Yushev/git/wpcqi-optiga-trust-charge/optiga/externals/mbedtls/library\aes.c ****         | ( (uint32_t) (b)[(i) + 1] <<  8 )             \
  73:C:/Users/Yushev/git/wpcqi-optiga-trust-charge/optiga/externals/mbedtls/library\aes.c ****         | ( (uint32_t) (b)[(i) + 2] << 16 )             \
  74:C:/Users/Yushev/git/wpcqi-optiga-trust-charge/optiga/externals/mbedtls/library\aes.c ****         | ( (uint32_t) (b)[(i) + 3] << 24 );            \
  75:C:/Users/Yushev/git/wpcqi-optiga-trust-charge/optiga/externals/mbedtls/library\aes.c **** }
  76:C:/Users/Yushev/git/wpcqi-optiga-trust-charge/optiga/externals/mbedtls/library\aes.c **** #endif
  77:C:/Users/Yushev/git/wpcqi-optiga-trust-charge/optiga/externals/mbedtls/library\aes.c **** 
  78:C:/Users/Yushev/git/wpcqi-optiga-trust-charge/optiga/externals/mbedtls/library\aes.c **** #ifndef PUT_UINT32_LE
  79:C:/Users/Yushev/git/wpcqi-optiga-trust-charge/optiga/externals/mbedtls/library\aes.c **** #define PUT_UINT32_LE(n,b,i)                                    \
  80:C:/Users/Yushev/git/wpcqi-optiga-trust-charge/optiga/externals/mbedtls/library\aes.c **** {                                                               \
  81:C:/Users/Yushev/git/wpcqi-optiga-trust-charge/optiga/externals/mbedtls/library\aes.c ****     (b)[(i)    ] = (unsigned char) ( ( (n)       ) & 0xFF );    \
  82:C:/Users/Yushev/git/wpcqi-optiga-trust-charge/optiga/externals/mbedtls/library\aes.c ****     (b)[(i) + 1] = (unsigned char) ( ( (n) >>  8 ) & 0xFF );    \
  83:C:/Users/Yushev/git/wpcqi-optiga-trust-charge/optiga/externals/mbedtls/library\aes.c ****     (b)[(i) + 2] = (unsigned char) ( ( (n) >> 16 ) & 0xFF );    \
  84:C:/Users/Yushev/git/wpcqi-optiga-trust-charge/optiga/externals/mbedtls/library\aes.c ****     (b)[(i) + 3] = (unsigned char) ( ( (n) >> 24 ) & 0xFF );    \
  85:C:/Users/Yushev/git/wpcqi-optiga-trust-charge/optiga/externals/mbedtls/library\aes.c **** }
  86:C:/Users/Yushev/git/wpcqi-optiga-trust-charge/optiga/externals/mbedtls/library\aes.c **** #endif
  87:C:/Users/Yushev/git/wpcqi-optiga-trust-charge/optiga/externals/mbedtls/library\aes.c **** 
  88:C:/Users/Yushev/git/wpcqi-optiga-trust-charge/optiga/externals/mbedtls/library\aes.c **** #if defined(MBEDTLS_PADLOCK_C) &&                      \
  89:C:/Users/Yushev/git/wpcqi-optiga-trust-charge/optiga/externals/mbedtls/library\aes.c ****     ( defined(MBEDTLS_HAVE_X86) || defined(MBEDTLS_PADLOCK_ALIGN16) )
  90:C:/Users/Yushev/git/wpcqi-optiga-trust-charge/optiga/externals/mbedtls/library\aes.c **** static int aes_padlock_ace = -1;
  91:C:/Users/Yushev/git/wpcqi-optiga-trust-charge/optiga/externals/mbedtls/library\aes.c **** #endif
  92:C:/Users/Yushev/git/wpcqi-optiga-trust-charge/optiga/externals/mbedtls/library\aes.c **** 
  93:C:/Users/Yushev/git/wpcqi-optiga-trust-charge/optiga/externals/mbedtls/library\aes.c **** #if defined(MBEDTLS_AES_ROM_TABLES)
  94:C:/Users/Yushev/git/wpcqi-optiga-trust-charge/optiga/externals/mbedtls/library\aes.c **** /*
  95:C:/Users/Yushev/git/wpcqi-optiga-trust-charge/optiga/externals/mbedtls/library\aes.c ****  * Forward S-box
  96:C:/Users/Yushev/git/wpcqi-optiga-trust-charge/optiga/externals/mbedtls/library\aes.c ****  */
  97:C:/Users/Yushev/git/wpcqi-optiga-trust-charge/optiga/externals/mbedtls/library\aes.c **** static const unsigned char FSb[256] =
  98:C:/Users/Yushev/git/wpcqi-optiga-trust-charge/optiga/externals/mbedtls/library\aes.c **** {
  99:C:/Users/Yushev/git/wpcqi-optiga-trust-charge/optiga/externals/mbedtls/library\aes.c ****     0x63, 0x7C, 0x77, 0x7B, 0xF2, 0x6B, 0x6F, 0xC5,
 100:C:/Users/Yushev/git/wpcqi-optiga-trust-charge/optiga/externals/mbedtls/library\aes.c ****     0x30, 0x01, 0x67, 0x2B, 0xFE, 0xD7, 0xAB, 0x76,
 101:C:/Users/Yushev/git/wpcqi-optiga-trust-charge/optiga/externals/mbedtls/library\aes.c ****     0xCA, 0x82, 0xC9, 0x7D, 0xFA, 0x59, 0x47, 0xF0,
 102:C:/Users/Yushev/git/wpcqi-optiga-trust-charge/optiga/externals/mbedtls/library\aes.c ****     0xAD, 0xD4, 0xA2, 0xAF, 0x9C, 0xA4, 0x72, 0xC0,
 103:C:/Users/Yushev/git/wpcqi-optiga-trust-charge/optiga/externals/mbedtls/library\aes.c ****     0xB7, 0xFD, 0x93, 0x26, 0x36, 0x3F, 0xF7, 0xCC,
 104:C:/Users/Yushev/git/wpcqi-optiga-trust-charge/optiga/externals/mbedtls/library\aes.c ****     0x34, 0xA5, 0xE5, 0xF1, 0x71, 0xD8, 0x31, 0x15,
 105:C:/Users/Yushev/git/wpcqi-optiga-trust-charge/optiga/externals/mbedtls/library\aes.c ****     0x04, 0xC7, 0x23, 0xC3, 0x18, 0x96, 0x05, 0x9A,
 106:C:/Users/Yushev/git/wpcqi-optiga-trust-charge/optiga/externals/mbedtls/library\aes.c ****     0x07, 0x12, 0x80, 0xE2, 0xEB, 0x27, 0xB2, 0x75,
 107:C:/Users/Yushev/git/wpcqi-optiga-trust-charge/optiga/externals/mbedtls/library\aes.c ****     0x09, 0x83, 0x2C, 0x1A, 0x1B, 0x6E, 0x5A, 0xA0,
 108:C:/Users/Yushev/git/wpcqi-optiga-trust-charge/optiga/externals/mbedtls/library\aes.c ****     0x52, 0x3B, 0xD6, 0xB3, 0x29, 0xE3, 0x2F, 0x84,
 109:C:/Users/Yushev/git/wpcqi-optiga-trust-charge/optiga/externals/mbedtls/library\aes.c ****     0x53, 0xD1, 0x00, 0xED, 0x20, 0xFC, 0xB1, 0x5B,
 110:C:/Users/Yushev/git/wpcqi-optiga-trust-charge/optiga/externals/mbedtls/library\aes.c ****     0x6A, 0xCB, 0xBE, 0x39, 0x4A, 0x4C, 0x58, 0xCF,
 111:C:/Users/Yushev/git/wpcqi-optiga-trust-charge/optiga/externals/mbedtls/library\aes.c ****     0xD0, 0xEF, 0xAA, 0xFB, 0x43, 0x4D, 0x33, 0x85,
 112:C:/Users/Yushev/git/wpcqi-optiga-trust-charge/optiga/externals/mbedtls/library\aes.c ****     0x45, 0xF9, 0x02, 0x7F, 0x50, 0x3C, 0x9F, 0xA8,
 113:C:/Users/Yushev/git/wpcqi-optiga-trust-charge/optiga/externals/mbedtls/library\aes.c ****     0x51, 0xA3, 0x40, 0x8F, 0x92, 0x9D, 0x38, 0xF5,
 114:C:/Users/Yushev/git/wpcqi-optiga-trust-charge/optiga/externals/mbedtls/library\aes.c ****     0xBC, 0xB6, 0xDA, 0x21, 0x10, 0xFF, 0xF3, 0xD2,
 115:C:/Users/Yushev/git/wpcqi-optiga-trust-charge/optiga/externals/mbedtls/library\aes.c ****     0xCD, 0x0C, 0x13, 0xEC, 0x5F, 0x97, 0x44, 0x17,
 116:C:/Users/Yushev/git/wpcqi-optiga-trust-charge/optiga/externals/mbedtls/library\aes.c ****     0xC4, 0xA7, 0x7E, 0x3D, 0x64, 0x5D, 0x19, 0x73,
 117:C:/Users/Yushev/git/wpcqi-optiga-trust-charge/optiga/externals/mbedtls/library\aes.c ****     0x60, 0x81, 0x4F, 0xDC, 0x22, 0x2A, 0x90, 0x88,
 118:C:/Users/Yushev/git/wpcqi-optiga-trust-charge/optiga/externals/mbedtls/library\aes.c ****     0x46, 0xEE, 0xB8, 0x14, 0xDE, 0x5E, 0x0B, 0xDB,
 119:C:/Users/Yushev/git/wpcqi-optiga-trust-charge/optiga/externals/mbedtls/library\aes.c ****     0xE0, 0x32, 0x3A, 0x0A, 0x49, 0x06, 0x24, 0x5C,
 120:C:/Users/Yushev/git/wpcqi-optiga-trust-charge/optiga/externals/mbedtls/library\aes.c ****     0xC2, 0xD3, 0xAC, 0x62, 0x91, 0x95, 0xE4, 0x79,
 121:C:/Users/Yushev/git/wpcqi-optiga-trust-charge/optiga/externals/mbedtls/library\aes.c ****     0xE7, 0xC8, 0x37, 0x6D, 0x8D, 0xD5, 0x4E, 0xA9,
 122:C:/Users/Yushev/git/wpcqi-optiga-trust-charge/optiga/externals/mbedtls/library\aes.c ****     0x6C, 0x56, 0xF4, 0xEA, 0x65, 0x7A, 0xAE, 0x08,
 123:C:/Users/Yushev/git/wpcqi-optiga-trust-charge/optiga/externals/mbedtls/library\aes.c ****     0xBA, 0x78, 0x25, 0x2E, 0x1C, 0xA6, 0xB4, 0xC6,
 124:C:/Users/Yushev/git/wpcqi-optiga-trust-charge/optiga/externals/mbedtls/library\aes.c ****     0xE8, 0xDD, 0x74, 0x1F, 0x4B, 0xBD, 0x8B, 0x8A,
 125:C:/Users/Yushev/git/wpcqi-optiga-trust-charge/optiga/externals/mbedtls/library\aes.c ****     0x70, 0x3E, 0xB5, 0x66, 0x48, 0x03, 0xF6, 0x0E,
 126:C:/Users/Yushev/git/wpcqi-optiga-trust-charge/optiga/externals/mbedtls/library\aes.c ****     0x61, 0x35, 0x57, 0xB9, 0x86, 0xC1, 0x1D, 0x9E,
 127:C:/Users/Yushev/git/wpcqi-optiga-trust-charge/optiga/externals/mbedtls/library\aes.c ****     0xE1, 0xF8, 0x98, 0x11, 0x69, 0xD9, 0x8E, 0x94,
 128:C:/Users/Yushev/git/wpcqi-optiga-trust-charge/optiga/externals/mbedtls/library\aes.c ****     0x9B, 0x1E, 0x87, 0xE9, 0xCE, 0x55, 0x28, 0xDF,
 129:C:/Users/Yushev/git/wpcqi-optiga-trust-charge/optiga/externals/mbedtls/library\aes.c ****     0x8C, 0xA1, 0x89, 0x0D, 0xBF, 0xE6, 0x42, 0x68,
 130:C:/Users/Yushev/git/wpcqi-optiga-trust-charge/optiga/externals/mbedtls/library\aes.c ****     0x41, 0x99, 0x2D, 0x0F, 0xB0, 0x54, 0xBB, 0x16
 131:C:/Users/Yushev/git/wpcqi-optiga-trust-charge/optiga/externals/mbedtls/library\aes.c **** };
 132:C:/Users/Yushev/git/wpcqi-optiga-trust-charge/optiga/externals/mbedtls/library\aes.c **** 
 133:C:/Users/Yushev/git/wpcqi-optiga-trust-charge/optiga/externals/mbedtls/library\aes.c **** /*
 134:C:/Users/Yushev/git/wpcqi-optiga-trust-charge/optiga/externals/mbedtls/library\aes.c ****  * Forward tables
 135:C:/Users/Yushev/git/wpcqi-optiga-trust-charge/optiga/externals/mbedtls/library\aes.c ****  */
 136:C:/Users/Yushev/git/wpcqi-optiga-trust-charge/optiga/externals/mbedtls/library\aes.c **** #define FT \
 137:C:/Users/Yushev/git/wpcqi-optiga-trust-charge/optiga/externals/mbedtls/library\aes.c **** \
 138:C:/Users/Yushev/git/wpcqi-optiga-trust-charge/optiga/externals/mbedtls/library\aes.c ****     V(A5,63,63,C6), V(84,7C,7C,F8), V(99,77,77,EE), V(8D,7B,7B,F6), \
 139:C:/Users/Yushev/git/wpcqi-optiga-trust-charge/optiga/externals/mbedtls/library\aes.c ****     V(0D,F2,F2,FF), V(BD,6B,6B,D6), V(B1,6F,6F,DE), V(54,C5,C5,91), \
 140:C:/Users/Yushev/git/wpcqi-optiga-trust-charge/optiga/externals/mbedtls/library\aes.c ****     V(50,30,30,60), V(03,01,01,02), V(A9,67,67,CE), V(7D,2B,2B,56), \
 141:C:/Users/Yushev/git/wpcqi-optiga-trust-charge/optiga/externals/mbedtls/library\aes.c ****     V(19,FE,FE,E7), V(62,D7,D7,B5), V(E6,AB,AB,4D), V(9A,76,76,EC), \
 142:C:/Users/Yushev/git/wpcqi-optiga-trust-charge/optiga/externals/mbedtls/library\aes.c ****     V(45,CA,CA,8F), V(9D,82,82,1F), V(40,C9,C9,89), V(87,7D,7D,FA), \
 143:C:/Users/Yushev/git/wpcqi-optiga-trust-charge/optiga/externals/mbedtls/library\aes.c ****     V(15,FA,FA,EF), V(EB,59,59,B2), V(C9,47,47,8E), V(0B,F0,F0,FB), \
 144:C:/Users/Yushev/git/wpcqi-optiga-trust-charge/optiga/externals/mbedtls/library\aes.c ****     V(EC,AD,AD,41), V(67,D4,D4,B3), V(FD,A2,A2,5F), V(EA,AF,AF,45), \
 145:C:/Users/Yushev/git/wpcqi-optiga-trust-charge/optiga/externals/mbedtls/library\aes.c ****     V(BF,9C,9C,23), V(F7,A4,A4,53), V(96,72,72,E4), V(5B,C0,C0,9B), \
 146:C:/Users/Yushev/git/wpcqi-optiga-trust-charge/optiga/externals/mbedtls/library\aes.c ****     V(C2,B7,B7,75), V(1C,FD,FD,E1), V(AE,93,93,3D), V(6A,26,26,4C), \
 147:C:/Users/Yushev/git/wpcqi-optiga-trust-charge/optiga/externals/mbedtls/library\aes.c ****     V(5A,36,36,6C), V(41,3F,3F,7E), V(02,F7,F7,F5), V(4F,CC,CC,83), \
 148:C:/Users/Yushev/git/wpcqi-optiga-trust-charge/optiga/externals/mbedtls/library\aes.c ****     V(5C,34,34,68), V(F4,A5,A5,51), V(34,E5,E5,D1), V(08,F1,F1,F9), \
 149:C:/Users/Yushev/git/wpcqi-optiga-trust-charge/optiga/externals/mbedtls/library\aes.c ****     V(93,71,71,E2), V(73,D8,D8,AB), V(53,31,31,62), V(3F,15,15,2A), \
 150:C:/Users/Yushev/git/wpcqi-optiga-trust-charge/optiga/externals/mbedtls/library\aes.c ****     V(0C,04,04,08), V(52,C7,C7,95), V(65,23,23,46), V(5E,C3,C3,9D), \
 151:C:/Users/Yushev/git/wpcqi-optiga-trust-charge/optiga/externals/mbedtls/library\aes.c ****     V(28,18,18,30), V(A1,96,96,37), V(0F,05,05,0A), V(B5,9A,9A,2F), \
 152:C:/Users/Yushev/git/wpcqi-optiga-trust-charge/optiga/externals/mbedtls/library\aes.c ****     V(09,07,07,0E), V(36,12,12,24), V(9B,80,80,1B), V(3D,E2,E2,DF), \
 153:C:/Users/Yushev/git/wpcqi-optiga-trust-charge/optiga/externals/mbedtls/library\aes.c ****     V(26,EB,EB,CD), V(69,27,27,4E), V(CD,B2,B2,7F), V(9F,75,75,EA), \
 154:C:/Users/Yushev/git/wpcqi-optiga-trust-charge/optiga/externals/mbedtls/library\aes.c ****     V(1B,09,09,12), V(9E,83,83,1D), V(74,2C,2C,58), V(2E,1A,1A,34), \
 155:C:/Users/Yushev/git/wpcqi-optiga-trust-charge/optiga/externals/mbedtls/library\aes.c ****     V(2D,1B,1B,36), V(B2,6E,6E,DC), V(EE,5A,5A,B4), V(FB,A0,A0,5B), \
 156:C:/Users/Yushev/git/wpcqi-optiga-trust-charge/optiga/externals/mbedtls/library\aes.c ****     V(F6,52,52,A4), V(4D,3B,3B,76), V(61,D6,D6,B7), V(CE,B3,B3,7D), \
 157:C:/Users/Yushev/git/wpcqi-optiga-trust-charge/optiga/externals/mbedtls/library\aes.c ****     V(7B,29,29,52), V(3E,E3,E3,DD), V(71,2F,2F,5E), V(97,84,84,13), \
 158:C:/Users/Yushev/git/wpcqi-optiga-trust-charge/optiga/externals/mbedtls/library\aes.c ****     V(F5,53,53,A6), V(68,D1,D1,B9), V(00,00,00,00), V(2C,ED,ED,C1), \
 159:C:/Users/Yushev/git/wpcqi-optiga-trust-charge/optiga/externals/mbedtls/library\aes.c ****     V(60,20,20,40), V(1F,FC,FC,E3), V(C8,B1,B1,79), V(ED,5B,5B,B6), \
 160:C:/Users/Yushev/git/wpcqi-optiga-trust-charge/optiga/externals/mbedtls/library\aes.c ****     V(BE,6A,6A,D4), V(46,CB,CB,8D), V(D9,BE,BE,67), V(4B,39,39,72), \
 161:C:/Users/Yushev/git/wpcqi-optiga-trust-charge/optiga/externals/mbedtls/library\aes.c ****     V(DE,4A,4A,94), V(D4,4C,4C,98), V(E8,58,58,B0), V(4A,CF,CF,85), \
 162:C:/Users/Yushev/git/wpcqi-optiga-trust-charge/optiga/externals/mbedtls/library\aes.c ****     V(6B,D0,D0,BB), V(2A,EF,EF,C5), V(E5,AA,AA,4F), V(16,FB,FB,ED), \
 163:C:/Users/Yushev/git/wpcqi-optiga-trust-charge/optiga/externals/mbedtls/library\aes.c ****     V(C5,43,43,86), V(D7,4D,4D,9A), V(55,33,33,66), V(94,85,85,11), \
 164:C:/Users/Yushev/git/wpcqi-optiga-trust-charge/optiga/externals/mbedtls/library\aes.c ****     V(CF,45,45,8A), V(10,F9,F9,E9), V(06,02,02,04), V(81,7F,7F,FE), \
 165:C:/Users/Yushev/git/wpcqi-optiga-trust-charge/optiga/externals/mbedtls/library\aes.c ****     V(F0,50,50,A0), V(44,3C,3C,78), V(BA,9F,9F,25), V(E3,A8,A8,4B), \
 166:C:/Users/Yushev/git/wpcqi-optiga-trust-charge/optiga/externals/mbedtls/library\aes.c ****     V(F3,51,51,A2), V(FE,A3,A3,5D), V(C0,40,40,80), V(8A,8F,8F,05), \
 167:C:/Users/Yushev/git/wpcqi-optiga-trust-charge/optiga/externals/mbedtls/library\aes.c ****     V(AD,92,92,3F), V(BC,9D,9D,21), V(48,38,38,70), V(04,F5,F5,F1), \
 168:C:/Users/Yushev/git/wpcqi-optiga-trust-charge/optiga/externals/mbedtls/library\aes.c ****     V(DF,BC,BC,63), V(C1,B6,B6,77), V(75,DA,DA,AF), V(63,21,21,42), \
 169:C:/Users/Yushev/git/wpcqi-optiga-trust-charge/optiga/externals/mbedtls/library\aes.c ****     V(30,10,10,20), V(1A,FF,FF,E5), V(0E,F3,F3,FD), V(6D,D2,D2,BF), \
 170:C:/Users/Yushev/git/wpcqi-optiga-trust-charge/optiga/externals/mbedtls/library\aes.c ****     V(4C,CD,CD,81), V(14,0C,0C,18), V(35,13,13,26), V(2F,EC,EC,C3), \
 171:C:/Users/Yushev/git/wpcqi-optiga-trust-charge/optiga/externals/mbedtls/library\aes.c ****     V(E1,5F,5F,BE), V(A2,97,97,35), V(CC,44,44,88), V(39,17,17,2E), \
 172:C:/Users/Yushev/git/wpcqi-optiga-trust-charge/optiga/externals/mbedtls/library\aes.c ****     V(57,C4,C4,93), V(F2,A7,A7,55), V(82,7E,7E,FC), V(47,3D,3D,7A), \
 173:C:/Users/Yushev/git/wpcqi-optiga-trust-charge/optiga/externals/mbedtls/library\aes.c ****     V(AC,64,64,C8), V(E7,5D,5D,BA), V(2B,19,19,32), V(95,73,73,E6), \
 174:C:/Users/Yushev/git/wpcqi-optiga-trust-charge/optiga/externals/mbedtls/library\aes.c ****     V(A0,60,60,C0), V(98,81,81,19), V(D1,4F,4F,9E), V(7F,DC,DC,A3), \
 175:C:/Users/Yushev/git/wpcqi-optiga-trust-charge/optiga/externals/mbedtls/library\aes.c ****     V(66,22,22,44), V(7E,2A,2A,54), V(AB,90,90,3B), V(83,88,88,0B), \
 176:C:/Users/Yushev/git/wpcqi-optiga-trust-charge/optiga/externals/mbedtls/library\aes.c ****     V(CA,46,46,8C), V(29,EE,EE,C7), V(D3,B8,B8,6B), V(3C,14,14,28), \
 177:C:/Users/Yushev/git/wpcqi-optiga-trust-charge/optiga/externals/mbedtls/library\aes.c ****     V(79,DE,DE,A7), V(E2,5E,5E,BC), V(1D,0B,0B,16), V(76,DB,DB,AD), \
 178:C:/Users/Yushev/git/wpcqi-optiga-trust-charge/optiga/externals/mbedtls/library\aes.c ****     V(3B,E0,E0,DB), V(56,32,32,64), V(4E,3A,3A,74), V(1E,0A,0A,14), \
 179:C:/Users/Yushev/git/wpcqi-optiga-trust-charge/optiga/externals/mbedtls/library\aes.c ****     V(DB,49,49,92), V(0A,06,06,0C), V(6C,24,24,48), V(E4,5C,5C,B8), \
 180:C:/Users/Yushev/git/wpcqi-optiga-trust-charge/optiga/externals/mbedtls/library\aes.c ****     V(5D,C2,C2,9F), V(6E,D3,D3,BD), V(EF,AC,AC,43), V(A6,62,62,C4), \
 181:C:/Users/Yushev/git/wpcqi-optiga-trust-charge/optiga/externals/mbedtls/library\aes.c ****     V(A8,91,91,39), V(A4,95,95,31), V(37,E4,E4,D3), V(8B,79,79,F2), \
 182:C:/Users/Yushev/git/wpcqi-optiga-trust-charge/optiga/externals/mbedtls/library\aes.c ****     V(32,E7,E7,D5), V(43,C8,C8,8B), V(59,37,37,6E), V(B7,6D,6D,DA), \
 183:C:/Users/Yushev/git/wpcqi-optiga-trust-charge/optiga/externals/mbedtls/library\aes.c ****     V(8C,8D,8D,01), V(64,D5,D5,B1), V(D2,4E,4E,9C), V(E0,A9,A9,49), \
 184:C:/Users/Yushev/git/wpcqi-optiga-trust-charge/optiga/externals/mbedtls/library\aes.c ****     V(B4,6C,6C,D8), V(FA,56,56,AC), V(07,F4,F4,F3), V(25,EA,EA,CF), \
 185:C:/Users/Yushev/git/wpcqi-optiga-trust-charge/optiga/externals/mbedtls/library\aes.c ****     V(AF,65,65,CA), V(8E,7A,7A,F4), V(E9,AE,AE,47), V(18,08,08,10), \
 186:C:/Users/Yushev/git/wpcqi-optiga-trust-charge/optiga/externals/mbedtls/library\aes.c ****     V(D5,BA,BA,6F), V(88,78,78,F0), V(6F,25,25,4A), V(72,2E,2E,5C), \
 187:C:/Users/Yushev/git/wpcqi-optiga-trust-charge/optiga/externals/mbedtls/library\aes.c ****     V(24,1C,1C,38), V(F1,A6,A6,57), V(C7,B4,B4,73), V(51,C6,C6,97), \
 188:C:/Users/Yushev/git/wpcqi-optiga-trust-charge/optiga/externals/mbedtls/library\aes.c ****     V(23,E8,E8,CB), V(7C,DD,DD,A1), V(9C,74,74,E8), V(21,1F,1F,3E), \
 189:C:/Users/Yushev/git/wpcqi-optiga-trust-charge/optiga/externals/mbedtls/library\aes.c ****     V(DD,4B,4B,96), V(DC,BD,BD,61), V(86,8B,8B,0D), V(85,8A,8A,0F), \
 190:C:/Users/Yushev/git/wpcqi-optiga-trust-charge/optiga/externals/mbedtls/library\aes.c ****     V(90,70,70,E0), V(42,3E,3E,7C), V(C4,B5,B5,71), V(AA,66,66,CC), \
 191:C:/Users/Yushev/git/wpcqi-optiga-trust-charge/optiga/externals/mbedtls/library\aes.c ****     V(D8,48,48,90), V(05,03,03,06), V(01,F6,F6,F7), V(12,0E,0E,1C), \
 192:C:/Users/Yushev/git/wpcqi-optiga-trust-charge/optiga/externals/mbedtls/library\aes.c ****     V(A3,61,61,C2), V(5F,35,35,6A), V(F9,57,57,AE), V(D0,B9,B9,69), \
 193:C:/Users/Yushev/git/wpcqi-optiga-trust-charge/optiga/externals/mbedtls/library\aes.c ****     V(91,86,86,17), V(58,C1,C1,99), V(27,1D,1D,3A), V(B9,9E,9E,27), \
 194:C:/Users/Yushev/git/wpcqi-optiga-trust-charge/optiga/externals/mbedtls/library\aes.c ****     V(38,E1,E1,D9), V(13,F8,F8,EB), V(B3,98,98,2B), V(33,11,11,22), \
 195:C:/Users/Yushev/git/wpcqi-optiga-trust-charge/optiga/externals/mbedtls/library\aes.c ****     V(BB,69,69,D2), V(70,D9,D9,A9), V(89,8E,8E,07), V(A7,94,94,33), \
 196:C:/Users/Yushev/git/wpcqi-optiga-trust-charge/optiga/externals/mbedtls/library\aes.c ****     V(B6,9B,9B,2D), V(22,1E,1E,3C), V(92,87,87,15), V(20,E9,E9,C9), \
 197:C:/Users/Yushev/git/wpcqi-optiga-trust-charge/optiga/externals/mbedtls/library\aes.c ****     V(49,CE,CE,87), V(FF,55,55,AA), V(78,28,28,50), V(7A,DF,DF,A5), \
 198:C:/Users/Yushev/git/wpcqi-optiga-trust-charge/optiga/externals/mbedtls/library\aes.c ****     V(8F,8C,8C,03), V(F8,A1,A1,59), V(80,89,89,09), V(17,0D,0D,1A), \
 199:C:/Users/Yushev/git/wpcqi-optiga-trust-charge/optiga/externals/mbedtls/library\aes.c ****     V(DA,BF,BF,65), V(31,E6,E6,D7), V(C6,42,42,84), V(B8,68,68,D0), \
 200:C:/Users/Yushev/git/wpcqi-optiga-trust-charge/optiga/externals/mbedtls/library\aes.c ****     V(C3,41,41,82), V(B0,99,99,29), V(77,2D,2D,5A), V(11,0F,0F,1E), \
 201:C:/Users/Yushev/git/wpcqi-optiga-trust-charge/optiga/externals/mbedtls/library\aes.c ****     V(CB,B0,B0,7B), V(FC,54,54,A8), V(D6,BB,BB,6D), V(3A,16,16,2C)
 202:C:/Users/Yushev/git/wpcqi-optiga-trust-charge/optiga/externals/mbedtls/library\aes.c **** 
 203:C:/Users/Yushev/git/wpcqi-optiga-trust-charge/optiga/externals/mbedtls/library\aes.c **** #define V(a,b,c,d) 0x##a##b##c##d
 204:C:/Users/Yushev/git/wpcqi-optiga-trust-charge/optiga/externals/mbedtls/library\aes.c **** static const uint32_t FT0[256] = { FT };
 205:C:/Users/Yushev/git/wpcqi-optiga-trust-charge/optiga/externals/mbedtls/library\aes.c **** #undef V
 206:C:/Users/Yushev/git/wpcqi-optiga-trust-charge/optiga/externals/mbedtls/library\aes.c **** 
 207:C:/Users/Yushev/git/wpcqi-optiga-trust-charge/optiga/externals/mbedtls/library\aes.c **** #if !defined(MBEDTLS_AES_FEWER_TABLES)
 208:C:/Users/Yushev/git/wpcqi-optiga-trust-charge/optiga/externals/mbedtls/library\aes.c **** 
 209:C:/Users/Yushev/git/wpcqi-optiga-trust-charge/optiga/externals/mbedtls/library\aes.c **** #define V(a,b,c,d) 0x##b##c##d##a
 210:C:/Users/Yushev/git/wpcqi-optiga-trust-charge/optiga/externals/mbedtls/library\aes.c **** static const uint32_t FT1[256] = { FT };
 211:C:/Users/Yushev/git/wpcqi-optiga-trust-charge/optiga/externals/mbedtls/library\aes.c **** #undef V
 212:C:/Users/Yushev/git/wpcqi-optiga-trust-charge/optiga/externals/mbedtls/library\aes.c **** 
 213:C:/Users/Yushev/git/wpcqi-optiga-trust-charge/optiga/externals/mbedtls/library\aes.c **** #define V(a,b,c,d) 0x##c##d##a##b
 214:C:/Users/Yushev/git/wpcqi-optiga-trust-charge/optiga/externals/mbedtls/library\aes.c **** static const uint32_t FT2[256] = { FT };
 215:C:/Users/Yushev/git/wpcqi-optiga-trust-charge/optiga/externals/mbedtls/library\aes.c **** #undef V
 216:C:/Users/Yushev/git/wpcqi-optiga-trust-charge/optiga/externals/mbedtls/library\aes.c **** 
 217:C:/Users/Yushev/git/wpcqi-optiga-trust-charge/optiga/externals/mbedtls/library\aes.c **** #define V(a,b,c,d) 0x##d##a##b##c
 218:C:/Users/Yushev/git/wpcqi-optiga-trust-charge/optiga/externals/mbedtls/library\aes.c **** static const uint32_t FT3[256] = { FT };
 219:C:/Users/Yushev/git/wpcqi-optiga-trust-charge/optiga/externals/mbedtls/library\aes.c **** #undef V
 220:C:/Users/Yushev/git/wpcqi-optiga-trust-charge/optiga/externals/mbedtls/library\aes.c **** 
 221:C:/Users/Yushev/git/wpcqi-optiga-trust-charge/optiga/externals/mbedtls/library\aes.c **** #endif /* !MBEDTLS_AES_FEWER_TABLES */
 222:C:/Users/Yushev/git/wpcqi-optiga-trust-charge/optiga/externals/mbedtls/library\aes.c **** 
 223:C:/Users/Yushev/git/wpcqi-optiga-trust-charge/optiga/externals/mbedtls/library\aes.c **** #undef FT
 224:C:/Users/Yushev/git/wpcqi-optiga-trust-charge/optiga/externals/mbedtls/library\aes.c **** 
 225:C:/Users/Yushev/git/wpcqi-optiga-trust-charge/optiga/externals/mbedtls/library\aes.c **** /*
 226:C:/Users/Yushev/git/wpcqi-optiga-trust-charge/optiga/externals/mbedtls/library\aes.c ****  * Reverse S-box
 227:C:/Users/Yushev/git/wpcqi-optiga-trust-charge/optiga/externals/mbedtls/library\aes.c ****  */
 228:C:/Users/Yushev/git/wpcqi-optiga-trust-charge/optiga/externals/mbedtls/library\aes.c **** static const unsigned char RSb[256] =
 229:C:/Users/Yushev/git/wpcqi-optiga-trust-charge/optiga/externals/mbedtls/library\aes.c **** {
 230:C:/Users/Yushev/git/wpcqi-optiga-trust-charge/optiga/externals/mbedtls/library\aes.c ****     0x52, 0x09, 0x6A, 0xD5, 0x30, 0x36, 0xA5, 0x38,
 231:C:/Users/Yushev/git/wpcqi-optiga-trust-charge/optiga/externals/mbedtls/library\aes.c ****     0xBF, 0x40, 0xA3, 0x9E, 0x81, 0xF3, 0xD7, 0xFB,
 232:C:/Users/Yushev/git/wpcqi-optiga-trust-charge/optiga/externals/mbedtls/library\aes.c ****     0x7C, 0xE3, 0x39, 0x82, 0x9B, 0x2F, 0xFF, 0x87,
 233:C:/Users/Yushev/git/wpcqi-optiga-trust-charge/optiga/externals/mbedtls/library\aes.c ****     0x34, 0x8E, 0x43, 0x44, 0xC4, 0xDE, 0xE9, 0xCB,
 234:C:/Users/Yushev/git/wpcqi-optiga-trust-charge/optiga/externals/mbedtls/library\aes.c ****     0x54, 0x7B, 0x94, 0x32, 0xA6, 0xC2, 0x23, 0x3D,
 235:C:/Users/Yushev/git/wpcqi-optiga-trust-charge/optiga/externals/mbedtls/library\aes.c ****     0xEE, 0x4C, 0x95, 0x0B, 0x42, 0xFA, 0xC3, 0x4E,
 236:C:/Users/Yushev/git/wpcqi-optiga-trust-charge/optiga/externals/mbedtls/library\aes.c ****     0x08, 0x2E, 0xA1, 0x66, 0x28, 0xD9, 0x24, 0xB2,
 237:C:/Users/Yushev/git/wpcqi-optiga-trust-charge/optiga/externals/mbedtls/library\aes.c ****     0x76, 0x5B, 0xA2, 0x49, 0x6D, 0x8B, 0xD1, 0x25,
 238:C:/Users/Yushev/git/wpcqi-optiga-trust-charge/optiga/externals/mbedtls/library\aes.c ****     0x72, 0xF8, 0xF6, 0x64, 0x86, 0x68, 0x98, 0x16,
 239:C:/Users/Yushev/git/wpcqi-optiga-trust-charge/optiga/externals/mbedtls/library\aes.c ****     0xD4, 0xA4, 0x5C, 0xCC, 0x5D, 0x65, 0xB6, 0x92,
 240:C:/Users/Yushev/git/wpcqi-optiga-trust-charge/optiga/externals/mbedtls/library\aes.c ****     0x6C, 0x70, 0x48, 0x50, 0xFD, 0xED, 0xB9, 0xDA,
 241:C:/Users/Yushev/git/wpcqi-optiga-trust-charge/optiga/externals/mbedtls/library\aes.c ****     0x5E, 0x15, 0x46, 0x57, 0xA7, 0x8D, 0x9D, 0x84,
 242:C:/Users/Yushev/git/wpcqi-optiga-trust-charge/optiga/externals/mbedtls/library\aes.c ****     0x90, 0xD8, 0xAB, 0x00, 0x8C, 0xBC, 0xD3, 0x0A,
 243:C:/Users/Yushev/git/wpcqi-optiga-trust-charge/optiga/externals/mbedtls/library\aes.c ****     0xF7, 0xE4, 0x58, 0x05, 0xB8, 0xB3, 0x45, 0x06,
 244:C:/Users/Yushev/git/wpcqi-optiga-trust-charge/optiga/externals/mbedtls/library\aes.c ****     0xD0, 0x2C, 0x1E, 0x8F, 0xCA, 0x3F, 0x0F, 0x02,
 245:C:/Users/Yushev/git/wpcqi-optiga-trust-charge/optiga/externals/mbedtls/library\aes.c ****     0xC1, 0xAF, 0xBD, 0x03, 0x01, 0x13, 0x8A, 0x6B,
 246:C:/Users/Yushev/git/wpcqi-optiga-trust-charge/optiga/externals/mbedtls/library\aes.c ****     0x3A, 0x91, 0x11, 0x41, 0x4F, 0x67, 0xDC, 0xEA,
 247:C:/Users/Yushev/git/wpcqi-optiga-trust-charge/optiga/externals/mbedtls/library\aes.c ****     0x97, 0xF2, 0xCF, 0xCE, 0xF0, 0xB4, 0xE6, 0x73,
 248:C:/Users/Yushev/git/wpcqi-optiga-trust-charge/optiga/externals/mbedtls/library\aes.c ****     0x96, 0xAC, 0x74, 0x22, 0xE7, 0xAD, 0x35, 0x85,
 249:C:/Users/Yushev/git/wpcqi-optiga-trust-charge/optiga/externals/mbedtls/library\aes.c ****     0xE2, 0xF9, 0x37, 0xE8, 0x1C, 0x75, 0xDF, 0x6E,
 250:C:/Users/Yushev/git/wpcqi-optiga-trust-charge/optiga/externals/mbedtls/library\aes.c ****     0x47, 0xF1, 0x1A, 0x71, 0x1D, 0x29, 0xC5, 0x89,
 251:C:/Users/Yushev/git/wpcqi-optiga-trust-charge/optiga/externals/mbedtls/library\aes.c ****     0x6F, 0xB7, 0x62, 0x0E, 0xAA, 0x18, 0xBE, 0x1B,
 252:C:/Users/Yushev/git/wpcqi-optiga-trust-charge/optiga/externals/mbedtls/library\aes.c ****     0xFC, 0x56, 0x3E, 0x4B, 0xC6, 0xD2, 0x79, 0x20,
 253:C:/Users/Yushev/git/wpcqi-optiga-trust-charge/optiga/externals/mbedtls/library\aes.c ****     0x9A, 0xDB, 0xC0, 0xFE, 0x78, 0xCD, 0x5A, 0xF4,
 254:C:/Users/Yushev/git/wpcqi-optiga-trust-charge/optiga/externals/mbedtls/library\aes.c ****     0x1F, 0xDD, 0xA8, 0x33, 0x88, 0x07, 0xC7, 0x31,
 255:C:/Users/Yushev/git/wpcqi-optiga-trust-charge/optiga/externals/mbedtls/library\aes.c ****     0xB1, 0x12, 0x10, 0x59, 0x27, 0x80, 0xEC, 0x5F,
 256:C:/Users/Yushev/git/wpcqi-optiga-trust-charge/optiga/externals/mbedtls/library\aes.c ****     0x60, 0x51, 0x7F, 0xA9, 0x19, 0xB5, 0x4A, 0x0D,
 257:C:/Users/Yushev/git/wpcqi-optiga-trust-charge/optiga/externals/mbedtls/library\aes.c ****     0x2D, 0xE5, 0x7A, 0x9F, 0x93, 0xC9, 0x9C, 0xEF,
 258:C:/Users/Yushev/git/wpcqi-optiga-trust-charge/optiga/externals/mbedtls/library\aes.c ****     0xA0, 0xE0, 0x3B, 0x4D, 0xAE, 0x2A, 0xF5, 0xB0,
 259:C:/Users/Yushev/git/wpcqi-optiga-trust-charge/optiga/externals/mbedtls/library\aes.c ****     0xC8, 0xEB, 0xBB, 0x3C, 0x83, 0x53, 0x99, 0x61,
 260:C:/Users/Yushev/git/wpcqi-optiga-trust-charge/optiga/externals/mbedtls/library\aes.c ****     0x17, 0x2B, 0x04, 0x7E, 0xBA, 0x77, 0xD6, 0x26,
 261:C:/Users/Yushev/git/wpcqi-optiga-trust-charge/optiga/externals/mbedtls/library\aes.c ****     0xE1, 0x69, 0x14, 0x63, 0x55, 0x21, 0x0C, 0x7D
 262:C:/Users/Yushev/git/wpcqi-optiga-trust-charge/optiga/externals/mbedtls/library\aes.c **** };
 263:C:/Users/Yushev/git/wpcqi-optiga-trust-charge/optiga/externals/mbedtls/library\aes.c **** 
 264:C:/Users/Yushev/git/wpcqi-optiga-trust-charge/optiga/externals/mbedtls/library\aes.c **** /*
 265:C:/Users/Yushev/git/wpcqi-optiga-trust-charge/optiga/externals/mbedtls/library\aes.c ****  * Reverse tables
 266:C:/Users/Yushev/git/wpcqi-optiga-trust-charge/optiga/externals/mbedtls/library\aes.c ****  */
 267:C:/Users/Yushev/git/wpcqi-optiga-trust-charge/optiga/externals/mbedtls/library\aes.c **** #define RT \
 268:C:/Users/Yushev/git/wpcqi-optiga-trust-charge/optiga/externals/mbedtls/library\aes.c **** \
 269:C:/Users/Yushev/git/wpcqi-optiga-trust-charge/optiga/externals/mbedtls/library\aes.c ****     V(50,A7,F4,51), V(53,65,41,7E), V(C3,A4,17,1A), V(96,5E,27,3A), \
 270:C:/Users/Yushev/git/wpcqi-optiga-trust-charge/optiga/externals/mbedtls/library\aes.c ****     V(CB,6B,AB,3B), V(F1,45,9D,1F), V(AB,58,FA,AC), V(93,03,E3,4B), \
 271:C:/Users/Yushev/git/wpcqi-optiga-trust-charge/optiga/externals/mbedtls/library\aes.c ****     V(55,FA,30,20), V(F6,6D,76,AD), V(91,76,CC,88), V(25,4C,02,F5), \
 272:C:/Users/Yushev/git/wpcqi-optiga-trust-charge/optiga/externals/mbedtls/library\aes.c ****     V(FC,D7,E5,4F), V(D7,CB,2A,C5), V(80,44,35,26), V(8F,A3,62,B5), \
 273:C:/Users/Yushev/git/wpcqi-optiga-trust-charge/optiga/externals/mbedtls/library\aes.c ****     V(49,5A,B1,DE), V(67,1B,BA,25), V(98,0E,EA,45), V(E1,C0,FE,5D), \
 274:C:/Users/Yushev/git/wpcqi-optiga-trust-charge/optiga/externals/mbedtls/library\aes.c ****     V(02,75,2F,C3), V(12,F0,4C,81), V(A3,97,46,8D), V(C6,F9,D3,6B), \
 275:C:/Users/Yushev/git/wpcqi-optiga-trust-charge/optiga/externals/mbedtls/library\aes.c ****     V(E7,5F,8F,03), V(95,9C,92,15), V(EB,7A,6D,BF), V(DA,59,52,95), \
 276:C:/Users/Yushev/git/wpcqi-optiga-trust-charge/optiga/externals/mbedtls/library\aes.c ****     V(2D,83,BE,D4), V(D3,21,74,58), V(29,69,E0,49), V(44,C8,C9,8E), \
 277:C:/Users/Yushev/git/wpcqi-optiga-trust-charge/optiga/externals/mbedtls/library\aes.c ****     V(6A,89,C2,75), V(78,79,8E,F4), V(6B,3E,58,99), V(DD,71,B9,27), \
 278:C:/Users/Yushev/git/wpcqi-optiga-trust-charge/optiga/externals/mbedtls/library\aes.c ****     V(B6,4F,E1,BE), V(17,AD,88,F0), V(66,AC,20,C9), V(B4,3A,CE,7D), \
 279:C:/Users/Yushev/git/wpcqi-optiga-trust-charge/optiga/externals/mbedtls/library\aes.c ****     V(18,4A,DF,63), V(82,31,1A,E5), V(60,33,51,97), V(45,7F,53,62), \
 280:C:/Users/Yushev/git/wpcqi-optiga-trust-charge/optiga/externals/mbedtls/library\aes.c ****     V(E0,77,64,B1), V(84,AE,6B,BB), V(1C,A0,81,FE), V(94,2B,08,F9), \
 281:C:/Users/Yushev/git/wpcqi-optiga-trust-charge/optiga/externals/mbedtls/library\aes.c ****     V(58,68,48,70), V(19,FD,45,8F), V(87,6C,DE,94), V(B7,F8,7B,52), \
 282:C:/Users/Yushev/git/wpcqi-optiga-trust-charge/optiga/externals/mbedtls/library\aes.c ****     V(23,D3,73,AB), V(E2,02,4B,72), V(57,8F,1F,E3), V(2A,AB,55,66), \
 283:C:/Users/Yushev/git/wpcqi-optiga-trust-charge/optiga/externals/mbedtls/library\aes.c ****     V(07,28,EB,B2), V(03,C2,B5,2F), V(9A,7B,C5,86), V(A5,08,37,D3), \
 284:C:/Users/Yushev/git/wpcqi-optiga-trust-charge/optiga/externals/mbedtls/library\aes.c ****     V(F2,87,28,30), V(B2,A5,BF,23), V(BA,6A,03,02), V(5C,82,16,ED), \
 285:C:/Users/Yushev/git/wpcqi-optiga-trust-charge/optiga/externals/mbedtls/library\aes.c ****     V(2B,1C,CF,8A), V(92,B4,79,A7), V(F0,F2,07,F3), V(A1,E2,69,4E), \
 286:C:/Users/Yushev/git/wpcqi-optiga-trust-charge/optiga/externals/mbedtls/library\aes.c ****     V(CD,F4,DA,65), V(D5,BE,05,06), V(1F,62,34,D1), V(8A,FE,A6,C4), \
 287:C:/Users/Yushev/git/wpcqi-optiga-trust-charge/optiga/externals/mbedtls/library\aes.c ****     V(9D,53,2E,34), V(A0,55,F3,A2), V(32,E1,8A,05), V(75,EB,F6,A4), \
 288:C:/Users/Yushev/git/wpcqi-optiga-trust-charge/optiga/externals/mbedtls/library\aes.c ****     V(39,EC,83,0B), V(AA,EF,60,40), V(06,9F,71,5E), V(51,10,6E,BD), \
 289:C:/Users/Yushev/git/wpcqi-optiga-trust-charge/optiga/externals/mbedtls/library\aes.c ****     V(F9,8A,21,3E), V(3D,06,DD,96), V(AE,05,3E,DD), V(46,BD,E6,4D), \
 290:C:/Users/Yushev/git/wpcqi-optiga-trust-charge/optiga/externals/mbedtls/library\aes.c ****     V(B5,8D,54,91), V(05,5D,C4,71), V(6F,D4,06,04), V(FF,15,50,60), \
 291:C:/Users/Yushev/git/wpcqi-optiga-trust-charge/optiga/externals/mbedtls/library\aes.c ****     V(24,FB,98,19), V(97,E9,BD,D6), V(CC,43,40,89), V(77,9E,D9,67), \
 292:C:/Users/Yushev/git/wpcqi-optiga-trust-charge/optiga/externals/mbedtls/library\aes.c ****     V(BD,42,E8,B0), V(88,8B,89,07), V(38,5B,19,E7), V(DB,EE,C8,79), \
 293:C:/Users/Yushev/git/wpcqi-optiga-trust-charge/optiga/externals/mbedtls/library\aes.c ****     V(47,0A,7C,A1), V(E9,0F,42,7C), V(C9,1E,84,F8), V(00,00,00,00), \
 294:C:/Users/Yushev/git/wpcqi-optiga-trust-charge/optiga/externals/mbedtls/library\aes.c ****     V(83,86,80,09), V(48,ED,2B,32), V(AC,70,11,1E), V(4E,72,5A,6C), \
 295:C:/Users/Yushev/git/wpcqi-optiga-trust-charge/optiga/externals/mbedtls/library\aes.c ****     V(FB,FF,0E,FD), V(56,38,85,0F), V(1E,D5,AE,3D), V(27,39,2D,36), \
 296:C:/Users/Yushev/git/wpcqi-optiga-trust-charge/optiga/externals/mbedtls/library\aes.c ****     V(64,D9,0F,0A), V(21,A6,5C,68), V(D1,54,5B,9B), V(3A,2E,36,24), \
 297:C:/Users/Yushev/git/wpcqi-optiga-trust-charge/optiga/externals/mbedtls/library\aes.c ****     V(B1,67,0A,0C), V(0F,E7,57,93), V(D2,96,EE,B4), V(9E,91,9B,1B), \
 298:C:/Users/Yushev/git/wpcqi-optiga-trust-charge/optiga/externals/mbedtls/library\aes.c ****     V(4F,C5,C0,80), V(A2,20,DC,61), V(69,4B,77,5A), V(16,1A,12,1C), \
 299:C:/Users/Yushev/git/wpcqi-optiga-trust-charge/optiga/externals/mbedtls/library\aes.c ****     V(0A,BA,93,E2), V(E5,2A,A0,C0), V(43,E0,22,3C), V(1D,17,1B,12), \
 300:C:/Users/Yushev/git/wpcqi-optiga-trust-charge/optiga/externals/mbedtls/library\aes.c ****     V(0B,0D,09,0E), V(AD,C7,8B,F2), V(B9,A8,B6,2D), V(C8,A9,1E,14), \
 301:C:/Users/Yushev/git/wpcqi-optiga-trust-charge/optiga/externals/mbedtls/library\aes.c ****     V(85,19,F1,57), V(4C,07,75,AF), V(BB,DD,99,EE), V(FD,60,7F,A3), \
 302:C:/Users/Yushev/git/wpcqi-optiga-trust-charge/optiga/externals/mbedtls/library\aes.c ****     V(9F,26,01,F7), V(BC,F5,72,5C), V(C5,3B,66,44), V(34,7E,FB,5B), \
 303:C:/Users/Yushev/git/wpcqi-optiga-trust-charge/optiga/externals/mbedtls/library\aes.c ****     V(76,29,43,8B), V(DC,C6,23,CB), V(68,FC,ED,B6), V(63,F1,E4,B8), \
 304:C:/Users/Yushev/git/wpcqi-optiga-trust-charge/optiga/externals/mbedtls/library\aes.c ****     V(CA,DC,31,D7), V(10,85,63,42), V(40,22,97,13), V(20,11,C6,84), \
 305:C:/Users/Yushev/git/wpcqi-optiga-trust-charge/optiga/externals/mbedtls/library\aes.c ****     V(7D,24,4A,85), V(F8,3D,BB,D2), V(11,32,F9,AE), V(6D,A1,29,C7), \
 306:C:/Users/Yushev/git/wpcqi-optiga-trust-charge/optiga/externals/mbedtls/library\aes.c ****     V(4B,2F,9E,1D), V(F3,30,B2,DC), V(EC,52,86,0D), V(D0,E3,C1,77), \
 307:C:/Users/Yushev/git/wpcqi-optiga-trust-charge/optiga/externals/mbedtls/library\aes.c ****     V(6C,16,B3,2B), V(99,B9,70,A9), V(FA,48,94,11), V(22,64,E9,47), \
 308:C:/Users/Yushev/git/wpcqi-optiga-trust-charge/optiga/externals/mbedtls/library\aes.c ****     V(C4,8C,FC,A8), V(1A,3F,F0,A0), V(D8,2C,7D,56), V(EF,90,33,22), \
 309:C:/Users/Yushev/git/wpcqi-optiga-trust-charge/optiga/externals/mbedtls/library\aes.c ****     V(C7,4E,49,87), V(C1,D1,38,D9), V(FE,A2,CA,8C), V(36,0B,D4,98), \
 310:C:/Users/Yushev/git/wpcqi-optiga-trust-charge/optiga/externals/mbedtls/library\aes.c ****     V(CF,81,F5,A6), V(28,DE,7A,A5), V(26,8E,B7,DA), V(A4,BF,AD,3F), \
 311:C:/Users/Yushev/git/wpcqi-optiga-trust-charge/optiga/externals/mbedtls/library\aes.c ****     V(E4,9D,3A,2C), V(0D,92,78,50), V(9B,CC,5F,6A), V(62,46,7E,54), \
 312:C:/Users/Yushev/git/wpcqi-optiga-trust-charge/optiga/externals/mbedtls/library\aes.c ****     V(C2,13,8D,F6), V(E8,B8,D8,90), V(5E,F7,39,2E), V(F5,AF,C3,82), \
 313:C:/Users/Yushev/git/wpcqi-optiga-trust-charge/optiga/externals/mbedtls/library\aes.c ****     V(BE,80,5D,9F), V(7C,93,D0,69), V(A9,2D,D5,6F), V(B3,12,25,CF), \
 314:C:/Users/Yushev/git/wpcqi-optiga-trust-charge/optiga/externals/mbedtls/library\aes.c ****     V(3B,99,AC,C8), V(A7,7D,18,10), V(6E,63,9C,E8), V(7B,BB,3B,DB), \
 315:C:/Users/Yushev/git/wpcqi-optiga-trust-charge/optiga/externals/mbedtls/library\aes.c ****     V(09,78,26,CD), V(F4,18,59,6E), V(01,B7,9A,EC), V(A8,9A,4F,83), \
 316:C:/Users/Yushev/git/wpcqi-optiga-trust-charge/optiga/externals/mbedtls/library\aes.c ****     V(65,6E,95,E6), V(7E,E6,FF,AA), V(08,CF,BC,21), V(E6,E8,15,EF), \
 317:C:/Users/Yushev/git/wpcqi-optiga-trust-charge/optiga/externals/mbedtls/library\aes.c ****     V(D9,9B,E7,BA), V(CE,36,6F,4A), V(D4,09,9F,EA), V(D6,7C,B0,29), \
 318:C:/Users/Yushev/git/wpcqi-optiga-trust-charge/optiga/externals/mbedtls/library\aes.c ****     V(AF,B2,A4,31), V(31,23,3F,2A), V(30,94,A5,C6), V(C0,66,A2,35), \
 319:C:/Users/Yushev/git/wpcqi-optiga-trust-charge/optiga/externals/mbedtls/library\aes.c ****     V(37,BC,4E,74), V(A6,CA,82,FC), V(B0,D0,90,E0), V(15,D8,A7,33), \
 320:C:/Users/Yushev/git/wpcqi-optiga-trust-charge/optiga/externals/mbedtls/library\aes.c ****     V(4A,98,04,F1), V(F7,DA,EC,41), V(0E,50,CD,7F), V(2F,F6,91,17), \
 321:C:/Users/Yushev/git/wpcqi-optiga-trust-charge/optiga/externals/mbedtls/library\aes.c ****     V(8D,D6,4D,76), V(4D,B0,EF,43), V(54,4D,AA,CC), V(DF,04,96,E4), \
 322:C:/Users/Yushev/git/wpcqi-optiga-trust-charge/optiga/externals/mbedtls/library\aes.c ****     V(E3,B5,D1,9E), V(1B,88,6A,4C), V(B8,1F,2C,C1), V(7F,51,65,46), \
 323:C:/Users/Yushev/git/wpcqi-optiga-trust-charge/optiga/externals/mbedtls/library\aes.c ****     V(04,EA,5E,9D), V(5D,35,8C,01), V(73,74,87,FA), V(2E,41,0B,FB), \
 324:C:/Users/Yushev/git/wpcqi-optiga-trust-charge/optiga/externals/mbedtls/library\aes.c ****     V(5A,1D,67,B3), V(52,D2,DB,92), V(33,56,10,E9), V(13,47,D6,6D), \
 325:C:/Users/Yushev/git/wpcqi-optiga-trust-charge/optiga/externals/mbedtls/library\aes.c ****     V(8C,61,D7,9A), V(7A,0C,A1,37), V(8E,14,F8,59), V(89,3C,13,EB), \
 326:C:/Users/Yushev/git/wpcqi-optiga-trust-charge/optiga/externals/mbedtls/library\aes.c ****     V(EE,27,A9,CE), V(35,C9,61,B7), V(ED,E5,1C,E1), V(3C,B1,47,7A), \
 327:C:/Users/Yushev/git/wpcqi-optiga-trust-charge/optiga/externals/mbedtls/library\aes.c ****     V(59,DF,D2,9C), V(3F,73,F2,55), V(79,CE,14,18), V(BF,37,C7,73), \
 328:C:/Users/Yushev/git/wpcqi-optiga-trust-charge/optiga/externals/mbedtls/library\aes.c ****     V(EA,CD,F7,53), V(5B,AA,FD,5F), V(14,6F,3D,DF), V(86,DB,44,78), \
 329:C:/Users/Yushev/git/wpcqi-optiga-trust-charge/optiga/externals/mbedtls/library\aes.c ****     V(81,F3,AF,CA), V(3E,C4,68,B9), V(2C,34,24,38), V(5F,40,A3,C2), \
 330:C:/Users/Yushev/git/wpcqi-optiga-trust-charge/optiga/externals/mbedtls/library\aes.c ****     V(72,C3,1D,16), V(0C,25,E2,BC), V(8B,49,3C,28), V(41,95,0D,FF), \
 331:C:/Users/Yushev/git/wpcqi-optiga-trust-charge/optiga/externals/mbedtls/library\aes.c ****     V(71,01,A8,39), V(DE,B3,0C,08), V(9C,E4,B4,D8), V(90,C1,56,64), \
 332:C:/Users/Yushev/git/wpcqi-optiga-trust-charge/optiga/externals/mbedtls/library\aes.c ****     V(61,84,CB,7B), V(70,B6,32,D5), V(74,5C,6C,48), V(42,57,B8,D0)
 333:C:/Users/Yushev/git/wpcqi-optiga-trust-charge/optiga/externals/mbedtls/library\aes.c **** 
 334:C:/Users/Yushev/git/wpcqi-optiga-trust-charge/optiga/externals/mbedtls/library\aes.c **** #define V(a,b,c,d) 0x##a##b##c##d
 335:C:/Users/Yushev/git/wpcqi-optiga-trust-charge/optiga/externals/mbedtls/library\aes.c **** static const uint32_t RT0[256] = { RT };
 336:C:/Users/Yushev/git/wpcqi-optiga-trust-charge/optiga/externals/mbedtls/library\aes.c **** #undef V
 337:C:/Users/Yushev/git/wpcqi-optiga-trust-charge/optiga/externals/mbedtls/library\aes.c **** 
 338:C:/Users/Yushev/git/wpcqi-optiga-trust-charge/optiga/externals/mbedtls/library\aes.c **** #if !defined(MBEDTLS_AES_FEWER_TABLES)
 339:C:/Users/Yushev/git/wpcqi-optiga-trust-charge/optiga/externals/mbedtls/library\aes.c **** 
 340:C:/Users/Yushev/git/wpcqi-optiga-trust-charge/optiga/externals/mbedtls/library\aes.c **** #define V(a,b,c,d) 0x##b##c##d##a
 341:C:/Users/Yushev/git/wpcqi-optiga-trust-charge/optiga/externals/mbedtls/library\aes.c **** static const uint32_t RT1[256] = { RT };
 342:C:/Users/Yushev/git/wpcqi-optiga-trust-charge/optiga/externals/mbedtls/library\aes.c **** #undef V
 343:C:/Users/Yushev/git/wpcqi-optiga-trust-charge/optiga/externals/mbedtls/library\aes.c **** 
 344:C:/Users/Yushev/git/wpcqi-optiga-trust-charge/optiga/externals/mbedtls/library\aes.c **** #define V(a,b,c,d) 0x##c##d##a##b
 345:C:/Users/Yushev/git/wpcqi-optiga-trust-charge/optiga/externals/mbedtls/library\aes.c **** static const uint32_t RT2[256] = { RT };
 346:C:/Users/Yushev/git/wpcqi-optiga-trust-charge/optiga/externals/mbedtls/library\aes.c **** #undef V
 347:C:/Users/Yushev/git/wpcqi-optiga-trust-charge/optiga/externals/mbedtls/library\aes.c **** 
 348:C:/Users/Yushev/git/wpcqi-optiga-trust-charge/optiga/externals/mbedtls/library\aes.c **** #define V(a,b,c,d) 0x##d##a##b##c
 349:C:/Users/Yushev/git/wpcqi-optiga-trust-charge/optiga/externals/mbedtls/library\aes.c **** static const uint32_t RT3[256] = { RT };
 350:C:/Users/Yushev/git/wpcqi-optiga-trust-charge/optiga/externals/mbedtls/library\aes.c **** #undef V
 351:C:/Users/Yushev/git/wpcqi-optiga-trust-charge/optiga/externals/mbedtls/library\aes.c **** 
 352:C:/Users/Yushev/git/wpcqi-optiga-trust-charge/optiga/externals/mbedtls/library\aes.c **** #endif /* !MBEDTLS_AES_FEWER_TABLES */
 353:C:/Users/Yushev/git/wpcqi-optiga-trust-charge/optiga/externals/mbedtls/library\aes.c **** 
 354:C:/Users/Yushev/git/wpcqi-optiga-trust-charge/optiga/externals/mbedtls/library\aes.c **** #undef RT
 355:C:/Users/Yushev/git/wpcqi-optiga-trust-charge/optiga/externals/mbedtls/library\aes.c **** 
 356:C:/Users/Yushev/git/wpcqi-optiga-trust-charge/optiga/externals/mbedtls/library\aes.c **** /*
 357:C:/Users/Yushev/git/wpcqi-optiga-trust-charge/optiga/externals/mbedtls/library\aes.c ****  * Round constants
 358:C:/Users/Yushev/git/wpcqi-optiga-trust-charge/optiga/externals/mbedtls/library\aes.c ****  */
 359:C:/Users/Yushev/git/wpcqi-optiga-trust-charge/optiga/externals/mbedtls/library\aes.c **** static const uint32_t RCON[10] =
 360:C:/Users/Yushev/git/wpcqi-optiga-trust-charge/optiga/externals/mbedtls/library\aes.c **** {
 361:C:/Users/Yushev/git/wpcqi-optiga-trust-charge/optiga/externals/mbedtls/library\aes.c ****     0x00000001, 0x00000002, 0x00000004, 0x00000008,
 362:C:/Users/Yushev/git/wpcqi-optiga-trust-charge/optiga/externals/mbedtls/library\aes.c ****     0x00000010, 0x00000020, 0x00000040, 0x00000080,
 363:C:/Users/Yushev/git/wpcqi-optiga-trust-charge/optiga/externals/mbedtls/library\aes.c ****     0x0000001B, 0x00000036
 364:C:/Users/Yushev/git/wpcqi-optiga-trust-charge/optiga/externals/mbedtls/library\aes.c **** };
 365:C:/Users/Yushev/git/wpcqi-optiga-trust-charge/optiga/externals/mbedtls/library\aes.c **** 
 366:C:/Users/Yushev/git/wpcqi-optiga-trust-charge/optiga/externals/mbedtls/library\aes.c **** #else /* MBEDTLS_AES_ROM_TABLES */
 367:C:/Users/Yushev/git/wpcqi-optiga-trust-charge/optiga/externals/mbedtls/library\aes.c **** 
 368:C:/Users/Yushev/git/wpcqi-optiga-trust-charge/optiga/externals/mbedtls/library\aes.c **** /*
 369:C:/Users/Yushev/git/wpcqi-optiga-trust-charge/optiga/externals/mbedtls/library\aes.c ****  * Forward S-box & tables
 370:C:/Users/Yushev/git/wpcqi-optiga-trust-charge/optiga/externals/mbedtls/library\aes.c ****  */
 371:C:/Users/Yushev/git/wpcqi-optiga-trust-charge/optiga/externals/mbedtls/library\aes.c **** static unsigned char FSb[256];
 372:C:/Users/Yushev/git/wpcqi-optiga-trust-charge/optiga/externals/mbedtls/library\aes.c **** static uint32_t FT0[256];
 373:C:/Users/Yushev/git/wpcqi-optiga-trust-charge/optiga/externals/mbedtls/library\aes.c **** #if !defined(MBEDTLS_AES_FEWER_TABLES)
 374:C:/Users/Yushev/git/wpcqi-optiga-trust-charge/optiga/externals/mbedtls/library\aes.c **** static uint32_t FT1[256];
 375:C:/Users/Yushev/git/wpcqi-optiga-trust-charge/optiga/externals/mbedtls/library\aes.c **** static uint32_t FT2[256];
 376:C:/Users/Yushev/git/wpcqi-optiga-trust-charge/optiga/externals/mbedtls/library\aes.c **** static uint32_t FT3[256];
 377:C:/Users/Yushev/git/wpcqi-optiga-trust-charge/optiga/externals/mbedtls/library\aes.c **** #endif /* !MBEDTLS_AES_FEWER_TABLES */
 378:C:/Users/Yushev/git/wpcqi-optiga-trust-charge/optiga/externals/mbedtls/library\aes.c **** 
 379:C:/Users/Yushev/git/wpcqi-optiga-trust-charge/optiga/externals/mbedtls/library\aes.c **** /*
 380:C:/Users/Yushev/git/wpcqi-optiga-trust-charge/optiga/externals/mbedtls/library\aes.c ****  * Reverse S-box & tables
 381:C:/Users/Yushev/git/wpcqi-optiga-trust-charge/optiga/externals/mbedtls/library\aes.c ****  */
 382:C:/Users/Yushev/git/wpcqi-optiga-trust-charge/optiga/externals/mbedtls/library\aes.c **** static unsigned char RSb[256];
 383:C:/Users/Yushev/git/wpcqi-optiga-trust-charge/optiga/externals/mbedtls/library\aes.c **** static uint32_t RT0[256];
 384:C:/Users/Yushev/git/wpcqi-optiga-trust-charge/optiga/externals/mbedtls/library\aes.c **** #if !defined(MBEDTLS_AES_FEWER_TABLES)
 385:C:/Users/Yushev/git/wpcqi-optiga-trust-charge/optiga/externals/mbedtls/library\aes.c **** static uint32_t RT1[256];
 386:C:/Users/Yushev/git/wpcqi-optiga-trust-charge/optiga/externals/mbedtls/library\aes.c **** static uint32_t RT2[256];
 387:C:/Users/Yushev/git/wpcqi-optiga-trust-charge/optiga/externals/mbedtls/library\aes.c **** static uint32_t RT3[256];
 388:C:/Users/Yushev/git/wpcqi-optiga-trust-charge/optiga/externals/mbedtls/library\aes.c **** #endif /* !MBEDTLS_AES_FEWER_TABLES */
 389:C:/Users/Yushev/git/wpcqi-optiga-trust-charge/optiga/externals/mbedtls/library\aes.c **** 
 390:C:/Users/Yushev/git/wpcqi-optiga-trust-charge/optiga/externals/mbedtls/library\aes.c **** /*
 391:C:/Users/Yushev/git/wpcqi-optiga-trust-charge/optiga/externals/mbedtls/library\aes.c ****  * Round constants
 392:C:/Users/Yushev/git/wpcqi-optiga-trust-charge/optiga/externals/mbedtls/library\aes.c ****  */
 393:C:/Users/Yushev/git/wpcqi-optiga-trust-charge/optiga/externals/mbedtls/library\aes.c **** static uint32_t RCON[10];
 394:C:/Users/Yushev/git/wpcqi-optiga-trust-charge/optiga/externals/mbedtls/library\aes.c **** 
 395:C:/Users/Yushev/git/wpcqi-optiga-trust-charge/optiga/externals/mbedtls/library\aes.c **** /*
 396:C:/Users/Yushev/git/wpcqi-optiga-trust-charge/optiga/externals/mbedtls/library\aes.c ****  * Tables generation code
 397:C:/Users/Yushev/git/wpcqi-optiga-trust-charge/optiga/externals/mbedtls/library\aes.c ****  */
 398:C:/Users/Yushev/git/wpcqi-optiga-trust-charge/optiga/externals/mbedtls/library\aes.c **** #define ROTL8(x) ( ( x << 8 ) & 0xFFFFFFFF ) | ( x >> 24 )
 399:C:/Users/Yushev/git/wpcqi-optiga-trust-charge/optiga/externals/mbedtls/library\aes.c **** #define XTIME(x) ( ( x << 1 ) ^ ( ( x & 0x80 ) ? 0x1B : 0x00 ) )
 400:C:/Users/Yushev/git/wpcqi-optiga-trust-charge/optiga/externals/mbedtls/library\aes.c **** #define MUL(x,y) ( ( x && y ) ? pow[(log[x]+log[y]) % 255] : 0 )
 401:C:/Users/Yushev/git/wpcqi-optiga-trust-charge/optiga/externals/mbedtls/library\aes.c **** 
 402:C:/Users/Yushev/git/wpcqi-optiga-trust-charge/optiga/externals/mbedtls/library\aes.c **** static int aes_init_done = 0;
 403:C:/Users/Yushev/git/wpcqi-optiga-trust-charge/optiga/externals/mbedtls/library\aes.c **** 
 404:C:/Users/Yushev/git/wpcqi-optiga-trust-charge/optiga/externals/mbedtls/library\aes.c **** static void aes_gen_tables( void )
 405:C:/Users/Yushev/git/wpcqi-optiga-trust-charge/optiga/externals/mbedtls/library\aes.c **** {
  99              	 .loc 1 405 0
 100              	 .cfi_startproc
 101              	 
 102              	 
 103              	 
 104 0000 90B4     	 push {r4,r7}
 105              	.LCFI0:
 106              	 .cfi_def_cfa_offset 8
 107              	 .cfi_offset 4,-8
 108              	 .cfi_offset 7,-4
 109 0002 ADF5016D 	 sub sp,sp,#2064
 110              	.LCFI1:
 111              	 .cfi_def_cfa_offset 2072
 112 0006 00AF     	 add r7,sp,#0
 113              	.LCFI2:
 114              	 .cfi_def_cfa_register 7
 406:C:/Users/Yushev/git/wpcqi-optiga-trust-charge/optiga/externals/mbedtls/library\aes.c ****     int i, x, y, z;
 407:C:/Users/Yushev/git/wpcqi-optiga-trust-charge/optiga/externals/mbedtls/library\aes.c ****     int pow[256];
 408:C:/Users/Yushev/git/wpcqi-optiga-trust-charge/optiga/externals/mbedtls/library\aes.c ****     int log[256];
 409:C:/Users/Yushev/git/wpcqi-optiga-trust-charge/optiga/externals/mbedtls/library\aes.c **** 
 410:C:/Users/Yushev/git/wpcqi-optiga-trust-charge/optiga/externals/mbedtls/library\aes.c ****     /*
 411:C:/Users/Yushev/git/wpcqi-optiga-trust-charge/optiga/externals/mbedtls/library\aes.c ****      * compute pow and log tables over GF(2^8)
 412:C:/Users/Yushev/git/wpcqi-optiga-trust-charge/optiga/externals/mbedtls/library\aes.c ****      */
 413:C:/Users/Yushev/git/wpcqi-optiga-trust-charge/optiga/externals/mbedtls/library\aes.c ****     for( i = 0, x = 1; i < 256; i++ )
 115              	 .loc 1 413 0
 116 0008 0023     	 movs r3,#0
 117 000a C7F80C38 	 str r3,[r7,#2060]
 118 000e 0123     	 movs r3,#1
 119 0010 C7F80838 	 str r3,[r7,#2056]
 120 0014 26E0     	 b .L2
 121              	.L5:
 414:C:/Users/Yushev/git/wpcqi-optiga-trust-charge/optiga/externals/mbedtls/library\aes.c ****     {
 415:C:/Users/Yushev/git/wpcqi-optiga-trust-charge/optiga/externals/mbedtls/library\aes.c ****         pow[i] = x;
 122              	 .loc 1 415 0
 123 0016 07F58063 	 add r3,r7,#1024
 124 001a D7F80C28 	 ldr r2,[r7,#2060]
 125 001e D7F80818 	 ldr r1,[r7,#2056]
 126 0022 43F82210 	 str r1,[r3,r2,lsl#2]
 416:C:/Users/Yushev/git/wpcqi-optiga-trust-charge/optiga/externals/mbedtls/library\aes.c ****         log[x] = i;
 127              	 .loc 1 416 0
 128 0026 3B46     	 mov r3,r7
 129 0028 D7F80828 	 ldr r2,[r7,#2056]
 130 002c D7F80C18 	 ldr r1,[r7,#2060]
 131 0030 43F82210 	 str r1,[r3,r2,lsl#2]
 417:C:/Users/Yushev/git/wpcqi-optiga-trust-charge/optiga/externals/mbedtls/library\aes.c ****         x = ( x ^ XTIME( x ) ) & 0xFF;
 132              	 .loc 1 417 0
 133 0034 D7F80838 	 ldr r3,[r7,#2056]
 134 0038 5A00     	 lsls r2,r3,#1
 135 003a D7F80838 	 ldr r3,[r7,#2056]
 136 003e 03F08003 	 and r3,r3,#128
 137 0042 002B     	 cmp r3,#0
 138 0044 01D0     	 beq .L3
 139              	 .loc 1 417 0 is_stmt 0 discriminator 1
 140 0046 1B23     	 movs r3,#27
 141 0048 00E0     	 b .L4
 142              	.L3:
 143              	 .loc 1 417 0 discriminator 2
 144 004a 0023     	 movs r3,#0
 145              	.L4:
 146              	 .loc 1 417 0 discriminator 4
 147 004c 5A40     	 eors r2,r2,r3
 148 004e D7F80838 	 ldr r3,[r7,#2056]
 149 0052 5340     	 eors r3,r3,r2
 150 0054 DBB2     	 uxtb r3,r3
 151 0056 C7F80838 	 str r3,[r7,#2056]
 413:C:/Users/Yushev/git/wpcqi-optiga-trust-charge/optiga/externals/mbedtls/library\aes.c ****     {
 152              	 .loc 1 413 0 is_stmt 1 discriminator 4
 153 005a D7F80C38 	 ldr r3,[r7,#2060]
 154 005e 0133     	 adds r3,r3,#1
 155 0060 C7F80C38 	 str r3,[r7,#2060]
 156              	.L2:
 413:C:/Users/Yushev/git/wpcqi-optiga-trust-charge/optiga/externals/mbedtls/library\aes.c ****     {
 157              	 .loc 1 413 0 is_stmt 0 discriminator 2
 158 0064 D7F80C38 	 ldr r3,[r7,#2060]
 159 0068 FF2B     	 cmp r3,#255
 160 006a D4DD     	 ble .L5
 418:C:/Users/Yushev/git/wpcqi-optiga-trust-charge/optiga/externals/mbedtls/library\aes.c ****     }
 419:C:/Users/Yushev/git/wpcqi-optiga-trust-charge/optiga/externals/mbedtls/library\aes.c **** 
 420:C:/Users/Yushev/git/wpcqi-optiga-trust-charge/optiga/externals/mbedtls/library\aes.c ****     /*
 421:C:/Users/Yushev/git/wpcqi-optiga-trust-charge/optiga/externals/mbedtls/library\aes.c ****      * calculate the round constants
 422:C:/Users/Yushev/git/wpcqi-optiga-trust-charge/optiga/externals/mbedtls/library\aes.c ****      */
 423:C:/Users/Yushev/git/wpcqi-optiga-trust-charge/optiga/externals/mbedtls/library\aes.c ****     for( i = 0, x = 1; i < 10; i++ )
 161              	 .loc 1 423 0 is_stmt 1
 162 006c 0023     	 movs r3,#0
 163 006e C7F80C38 	 str r3,[r7,#2060]
 164 0072 0123     	 movs r3,#1
 165 0074 C7F80838 	 str r3,[r7,#2056]
 166 0078 1BE0     	 b .L6
 167              	.L9:
 424:C:/Users/Yushev/git/wpcqi-optiga-trust-charge/optiga/externals/mbedtls/library\aes.c ****     {
 425:C:/Users/Yushev/git/wpcqi-optiga-trust-charge/optiga/externals/mbedtls/library\aes.c ****         RCON[i] = (uint32_t) x;
 168              	 .loc 1 425 0
 169 007a D7F80828 	 ldr r2,[r7,#2056]
 170 007e D849     	 ldr r1,.L24
 171 0080 D7F80C38 	 ldr r3,[r7,#2060]
 172 0084 41F82320 	 str r2,[r1,r3,lsl#2]
 426:C:/Users/Yushev/git/wpcqi-optiga-trust-charge/optiga/externals/mbedtls/library\aes.c ****         x = XTIME( x ) & 0xFF;
 173              	 .loc 1 426 0
 174 0088 D7F80838 	 ldr r3,[r7,#2056]
 175 008c 5A00     	 lsls r2,r3,#1
 176 008e D7F80838 	 ldr r3,[r7,#2056]
 177 0092 03F08003 	 and r3,r3,#128
 178 0096 002B     	 cmp r3,#0
 179 0098 01D0     	 beq .L7
 180              	 .loc 1 426 0 is_stmt 0 discriminator 1
 181 009a 1B23     	 movs r3,#27
 182 009c 00E0     	 b .L8
 183              	.L7:
 184              	 .loc 1 426 0 discriminator 2
 185 009e 0023     	 movs r3,#0
 186              	.L8:
 187              	 .loc 1 426 0 discriminator 4
 188 00a0 5340     	 eors r3,r3,r2
 189 00a2 DBB2     	 uxtb r3,r3
 190 00a4 C7F80838 	 str r3,[r7,#2056]
 423:C:/Users/Yushev/git/wpcqi-optiga-trust-charge/optiga/externals/mbedtls/library\aes.c ****     {
 191              	 .loc 1 423 0 is_stmt 1 discriminator 4
 192 00a8 D7F80C38 	 ldr r3,[r7,#2060]
 193 00ac 0133     	 adds r3,r3,#1
 194 00ae C7F80C38 	 str r3,[r7,#2060]
 195              	.L6:
 423:C:/Users/Yushev/git/wpcqi-optiga-trust-charge/optiga/externals/mbedtls/library\aes.c ****     {
 196              	 .loc 1 423 0 is_stmt 0 discriminator 2
 197 00b2 D7F80C38 	 ldr r3,[r7,#2060]
 198 00b6 092B     	 cmp r3,#9
 199 00b8 DFDD     	 ble .L9
 427:C:/Users/Yushev/git/wpcqi-optiga-trust-charge/optiga/externals/mbedtls/library\aes.c ****     }
 428:C:/Users/Yushev/git/wpcqi-optiga-trust-charge/optiga/externals/mbedtls/library\aes.c **** 
 429:C:/Users/Yushev/git/wpcqi-optiga-trust-charge/optiga/externals/mbedtls/library\aes.c ****     /*
 430:C:/Users/Yushev/git/wpcqi-optiga-trust-charge/optiga/externals/mbedtls/library\aes.c ****      * generate the forward and reverse S-boxes
 431:C:/Users/Yushev/git/wpcqi-optiga-trust-charge/optiga/externals/mbedtls/library\aes.c ****      */
 432:C:/Users/Yushev/git/wpcqi-optiga-trust-charge/optiga/externals/mbedtls/library\aes.c ****     FSb[0x00] = 0x63;
 200              	 .loc 1 432 0 is_stmt 1
 201 00ba CA4B     	 ldr r3,.L24+4
 202 00bc 6322     	 movs r2,#99
 203 00be 1A70     	 strb r2,[r3]
 433:C:/Users/Yushev/git/wpcqi-optiga-trust-charge/optiga/externals/mbedtls/library\aes.c ****     RSb[0x63] = 0x00;
 204              	 .loc 1 433 0
 205 00c0 C94B     	 ldr r3,.L24+8
 206 00c2 0022     	 movs r2,#0
 207 00c4 83F86320 	 strb r2,[r3,#99]
 434:C:/Users/Yushev/git/wpcqi-optiga-trust-charge/optiga/externals/mbedtls/library\aes.c **** 
 435:C:/Users/Yushev/git/wpcqi-optiga-trust-charge/optiga/externals/mbedtls/library\aes.c ****     for( i = 1; i < 256; i++ )
 208              	 .loc 1 435 0
 209 00c8 0123     	 movs r3,#1
 210 00ca C7F80C38 	 str r3,[r7,#2060]
 211 00ce 6DE0     	 b .L10
 212              	.L11:
 436:C:/Users/Yushev/git/wpcqi-optiga-trust-charge/optiga/externals/mbedtls/library\aes.c ****     {
 437:C:/Users/Yushev/git/wpcqi-optiga-trust-charge/optiga/externals/mbedtls/library\aes.c ****         x = pow[255 - log[i]];
 213              	 .loc 1 437 0 discriminator 3
 214 00d0 3B46     	 mov r3,r7
 215 00d2 D7F80C28 	 ldr r2,[r7,#2060]
 216 00d6 53F82230 	 ldr r3,[r3,r2,lsl#2]
 217 00da C3F1FF02 	 rsb r2,r3,#255
 218 00de 07F58063 	 add r3,r7,#1024
 219 00e2 53F82230 	 ldr r3,[r3,r2,lsl#2]
 220 00e6 C7F80838 	 str r3,[r7,#2056]
 438:C:/Users/Yushev/git/wpcqi-optiga-trust-charge/optiga/externals/mbedtls/library\aes.c **** 
 439:C:/Users/Yushev/git/wpcqi-optiga-trust-charge/optiga/externals/mbedtls/library\aes.c ****         y  = x; y = ( ( y << 1 ) | ( y >> 7 ) ) & 0xFF;
 221              	 .loc 1 439 0 discriminator 3
 222 00ea D7F80838 	 ldr r3,[r7,#2056]
 223 00ee C7F80438 	 str r3,[r7,#2052]
 224 00f2 D7F80438 	 ldr r3,[r7,#2052]
 225 00f6 5A00     	 lsls r2,r3,#1
 226 00f8 D7F80438 	 ldr r3,[r7,#2052]
 227 00fc DB11     	 asrs r3,r3,#7
 228 00fe 1343     	 orrs r3,r3,r2
 229 0100 DBB2     	 uxtb r3,r3
 230 0102 C7F80438 	 str r3,[r7,#2052]
 440:C:/Users/Yushev/git/wpcqi-optiga-trust-charge/optiga/externals/mbedtls/library\aes.c ****         x ^= y; y = ( ( y << 1 ) | ( y >> 7 ) ) & 0xFF;
 231              	 .loc 1 440 0 discriminator 3
 232 0106 D7F80828 	 ldr r2,[r7,#2056]
 233 010a D7F80438 	 ldr r3,[r7,#2052]
 234 010e 5340     	 eors r3,r3,r2
 235 0110 C7F80838 	 str r3,[r7,#2056]
 236 0114 D7F80438 	 ldr r3,[r7,#2052]
 237 0118 5A00     	 lsls r2,r3,#1
 238 011a D7F80438 	 ldr r3,[r7,#2052]
 239 011e DB11     	 asrs r3,r3,#7
 240 0120 1343     	 orrs r3,r3,r2
 241 0122 DBB2     	 uxtb r3,r3
 242 0124 C7F80438 	 str r3,[r7,#2052]
 441:C:/Users/Yushev/git/wpcqi-optiga-trust-charge/optiga/externals/mbedtls/library\aes.c ****         x ^= y; y = ( ( y << 1 ) | ( y >> 7 ) ) & 0xFF;
 243              	 .loc 1 441 0 discriminator 3
 244 0128 D7F80828 	 ldr r2,[r7,#2056]
 245 012c D7F80438 	 ldr r3,[r7,#2052]
 246 0130 5340     	 eors r3,r3,r2
 247 0132 C7F80838 	 str r3,[r7,#2056]
 248 0136 D7F80438 	 ldr r3,[r7,#2052]
 249 013a 5A00     	 lsls r2,r3,#1
 250 013c D7F80438 	 ldr r3,[r7,#2052]
 251 0140 DB11     	 asrs r3,r3,#7
 252 0142 1343     	 orrs r3,r3,r2
 253 0144 DBB2     	 uxtb r3,r3
 254 0146 C7F80438 	 str r3,[r7,#2052]
 442:C:/Users/Yushev/git/wpcqi-optiga-trust-charge/optiga/externals/mbedtls/library\aes.c ****         x ^= y; y = ( ( y << 1 ) | ( y >> 7 ) ) & 0xFF;
 255              	 .loc 1 442 0 discriminator 3
 256 014a D7F80828 	 ldr r2,[r7,#2056]
 257 014e D7F80438 	 ldr r3,[r7,#2052]
 258 0152 5340     	 eors r3,r3,r2
 259 0154 C7F80838 	 str r3,[r7,#2056]
 260 0158 D7F80438 	 ldr r3,[r7,#2052]
 261 015c 5A00     	 lsls r2,r3,#1
 262 015e D7F80438 	 ldr r3,[r7,#2052]
 263 0162 DB11     	 asrs r3,r3,#7
 264 0164 1343     	 orrs r3,r3,r2
 265 0166 DBB2     	 uxtb r3,r3
 266 0168 C7F80438 	 str r3,[r7,#2052]
 443:C:/Users/Yushev/git/wpcqi-optiga-trust-charge/optiga/externals/mbedtls/library\aes.c ****         x ^= y ^ 0x63;
 267              	 .loc 1 443 0 discriminator 3
 268 016c D7F80438 	 ldr r3,[r7,#2052]
 269 0170 83F06303 	 eor r3,r3,#99
 270 0174 D7F80828 	 ldr r2,[r7,#2056]
 271 0178 5340     	 eors r3,r3,r2
 272 017a C7F80838 	 str r3,[r7,#2056]
 444:C:/Users/Yushev/git/wpcqi-optiga-trust-charge/optiga/externals/mbedtls/library\aes.c **** 
 445:C:/Users/Yushev/git/wpcqi-optiga-trust-charge/optiga/externals/mbedtls/library\aes.c ****         FSb[i] = (unsigned char) x;
 273              	 .loc 1 445 0 discriminator 3
 274 017e D7F80838 	 ldr r3,[r7,#2056]
 275 0182 D9B2     	 uxtb r1,r3
 276 0184 974A     	 ldr r2,.L24+4
 277 0186 D7F80C38 	 ldr r3,[r7,#2060]
 278 018a 1344     	 add r3,r3,r2
 279 018c 0A46     	 mov r2,r1
 280 018e 1A70     	 strb r2,[r3]
 446:C:/Users/Yushev/git/wpcqi-optiga-trust-charge/optiga/externals/mbedtls/library\aes.c ****         RSb[x] = (unsigned char) i;
 281              	 .loc 1 446 0 discriminator 3
 282 0190 D7F80C38 	 ldr r3,[r7,#2060]
 283 0194 D9B2     	 uxtb r1,r3
 284 0196 944A     	 ldr r2,.L24+8
 285 0198 D7F80838 	 ldr r3,[r7,#2056]
 286 019c 1344     	 add r3,r3,r2
 287 019e 0A46     	 mov r2,r1
 288 01a0 1A70     	 strb r2,[r3]
 435:C:/Users/Yushev/git/wpcqi-optiga-trust-charge/optiga/externals/mbedtls/library\aes.c ****     {
 289              	 .loc 1 435 0 discriminator 3
 290 01a2 D7F80C38 	 ldr r3,[r7,#2060]
 291 01a6 0133     	 adds r3,r3,#1
 292 01a8 C7F80C38 	 str r3,[r7,#2060]
 293              	.L10:
 435:C:/Users/Yushev/git/wpcqi-optiga-trust-charge/optiga/externals/mbedtls/library\aes.c ****     {
 294              	 .loc 1 435 0 is_stmt 0 discriminator 1
 295 01ac D7F80C38 	 ldr r3,[r7,#2060]
 296 01b0 FF2B     	 cmp r3,#255
 297 01b2 8DDD     	 ble .L11
 447:C:/Users/Yushev/git/wpcqi-optiga-trust-charge/optiga/externals/mbedtls/library\aes.c ****     }
 448:C:/Users/Yushev/git/wpcqi-optiga-trust-charge/optiga/externals/mbedtls/library\aes.c **** 
 449:C:/Users/Yushev/git/wpcqi-optiga-trust-charge/optiga/externals/mbedtls/library\aes.c ****     /*
 450:C:/Users/Yushev/git/wpcqi-optiga-trust-charge/optiga/externals/mbedtls/library\aes.c ****      * generate the forward and reverse tables
 451:C:/Users/Yushev/git/wpcqi-optiga-trust-charge/optiga/externals/mbedtls/library\aes.c ****      */
 452:C:/Users/Yushev/git/wpcqi-optiga-trust-charge/optiga/externals/mbedtls/library\aes.c ****     for( i = 0; i < 256; i++ )
 298              	 .loc 1 452 0 is_stmt 1
 299 01b4 0023     	 movs r3,#0
 300 01b6 C7F80C38 	 str r3,[r7,#2060]
 301 01ba 06E1     	 b .L12
 302              	.L23:
 453:C:/Users/Yushev/git/wpcqi-optiga-trust-charge/optiga/externals/mbedtls/library\aes.c ****     {
 454:C:/Users/Yushev/git/wpcqi-optiga-trust-charge/optiga/externals/mbedtls/library\aes.c ****         x = FSb[i];
 303              	 .loc 1 454 0
 304 01bc 894A     	 ldr r2,.L24+4
 305 01be D7F80C38 	 ldr r3,[r7,#2060]
 306 01c2 1344     	 add r3,r3,r2
 307 01c4 1B78     	 ldrb r3,[r3]
 308 01c6 C7F80838 	 str r3,[r7,#2056]
 455:C:/Users/Yushev/git/wpcqi-optiga-trust-charge/optiga/externals/mbedtls/library\aes.c ****         y = XTIME( x ) & 0xFF;
 309              	 .loc 1 455 0
 310 01ca D7F80838 	 ldr r3,[r7,#2056]
 311 01ce 5A00     	 lsls r2,r3,#1
 312 01d0 D7F80838 	 ldr r3,[r7,#2056]
 313 01d4 03F08003 	 and r3,r3,#128
 314 01d8 002B     	 cmp r3,#0
 315 01da 01D0     	 beq .L13
 316              	 .loc 1 455 0 is_stmt 0 discriminator 1
 317 01dc 1B23     	 movs r3,#27
 318 01de 00E0     	 b .L14
 319              	.L13:
 320              	 .loc 1 455 0 discriminator 2
 321 01e0 0023     	 movs r3,#0
 322              	.L14:
 323              	 .loc 1 455 0 discriminator 4
 324 01e2 5340     	 eors r3,r3,r2
 325 01e4 DBB2     	 uxtb r3,r3
 326 01e6 C7F80438 	 str r3,[r7,#2052]
 456:C:/Users/Yushev/git/wpcqi-optiga-trust-charge/optiga/externals/mbedtls/library\aes.c ****         z =  ( y ^ x ) & 0xFF;
 327              	 .loc 1 456 0 is_stmt 1 discriminator 4
 328 01ea D7F80428 	 ldr r2,[r7,#2052]
 329 01ee D7F80838 	 ldr r3,[r7,#2056]
 330 01f2 5340     	 eors r3,r3,r2
 331 01f4 DBB2     	 uxtb r3,r3
 332 01f6 C7F80038 	 str r3,[r7,#2048]
 457:C:/Users/Yushev/git/wpcqi-optiga-trust-charge/optiga/externals/mbedtls/library\aes.c **** 
 458:C:/Users/Yushev/git/wpcqi-optiga-trust-charge/optiga/externals/mbedtls/library\aes.c ****         FT0[i] = ( (uint32_t) y       ) ^
 459:C:/Users/Yushev/git/wpcqi-optiga-trust-charge/optiga/externals/mbedtls/library\aes.c ****                  ( (uint32_t) x <<  8 ) ^
 333              	 .loc 1 459 0 discriminator 4
 334 01fa D7F80838 	 ldr r3,[r7,#2056]
 335 01fe 1A02     	 lsls r2,r3,#8
 458:C:/Users/Yushev/git/wpcqi-optiga-trust-charge/optiga/externals/mbedtls/library\aes.c ****                  ( (uint32_t) x <<  8 ) ^
 336              	 .loc 1 458 0 discriminator 4
 337 0200 D7F80438 	 ldr r3,[r7,#2052]
 338 0204 5A40     	 eors r2,r2,r3
 460:C:/Users/Yushev/git/wpcqi-optiga-trust-charge/optiga/externals/mbedtls/library\aes.c ****                  ( (uint32_t) x << 16 ) ^
 339              	 .loc 1 460 0 discriminator 4
 340 0206 D7F80838 	 ldr r3,[r7,#2056]
 341 020a 1B04     	 lsls r3,r3,#16
 459:C:/Users/Yushev/git/wpcqi-optiga-trust-charge/optiga/externals/mbedtls/library\aes.c ****                  ( (uint32_t) x << 16 ) ^
 342              	 .loc 1 459 0 discriminator 4
 343 020c 5A40     	 eors r2,r2,r3
 461:C:/Users/Yushev/git/wpcqi-optiga-trust-charge/optiga/externals/mbedtls/library\aes.c ****                  ( (uint32_t) z << 24 );
 344              	 .loc 1 461 0 discriminator 4
 345 020e D7F80038 	 ldr r3,[r7,#2048]
 346 0212 1B06     	 lsls r3,r3,#24
 460:C:/Users/Yushev/git/wpcqi-optiga-trust-charge/optiga/externals/mbedtls/library\aes.c ****                  ( (uint32_t) x << 16 ) ^
 347              	 .loc 1 460 0 discriminator 4
 348 0214 5A40     	 eors r2,r2,r3
 458:C:/Users/Yushev/git/wpcqi-optiga-trust-charge/optiga/externals/mbedtls/library\aes.c ****                  ( (uint32_t) x <<  8 ) ^
 349              	 .loc 1 458 0 discriminator 4
 350 0216 7549     	 ldr r1,.L24+12
 351 0218 D7F80C38 	 ldr r3,[r7,#2060]
 352 021c 41F82320 	 str r2,[r1,r3,lsl#2]
 462:C:/Users/Yushev/git/wpcqi-optiga-trust-charge/optiga/externals/mbedtls/library\aes.c **** 
 463:C:/Users/Yushev/git/wpcqi-optiga-trust-charge/optiga/externals/mbedtls/library\aes.c **** #if !defined(MBEDTLS_AES_FEWER_TABLES)
 464:C:/Users/Yushev/git/wpcqi-optiga-trust-charge/optiga/externals/mbedtls/library\aes.c ****         FT1[i] = ROTL8( FT0[i] );
 353              	 .loc 1 464 0 discriminator 4
 354 0220 724A     	 ldr r2,.L24+12
 355 0222 D7F80C38 	 ldr r3,[r7,#2060]
 356 0226 52F82330 	 ldr r3,[r2,r3,lsl#2]
 357 022a 4FEA3362 	 ror r2,r3,#24
 358 022e 7049     	 ldr r1,.L24+16
 359 0230 D7F80C38 	 ldr r3,[r7,#2060]
 360 0234 41F82320 	 str r2,[r1,r3,lsl#2]
 465:C:/Users/Yushev/git/wpcqi-optiga-trust-charge/optiga/externals/mbedtls/library\aes.c ****         FT2[i] = ROTL8( FT1[i] );
 361              	 .loc 1 465 0 discriminator 4
 362 0238 6D4A     	 ldr r2,.L24+16
 363 023a D7F80C38 	 ldr r3,[r7,#2060]
 364 023e 52F82330 	 ldr r3,[r2,r3,lsl#2]
 365 0242 4FEA3362 	 ror r2,r3,#24
 366 0246 6B49     	 ldr r1,.L24+20
 367 0248 D7F80C38 	 ldr r3,[r7,#2060]
 368 024c 41F82320 	 str r2,[r1,r3,lsl#2]
 466:C:/Users/Yushev/git/wpcqi-optiga-trust-charge/optiga/externals/mbedtls/library\aes.c ****         FT3[i] = ROTL8( FT2[i] );
 369              	 .loc 1 466 0 discriminator 4
 370 0250 684A     	 ldr r2,.L24+20
 371 0252 D7F80C38 	 ldr r3,[r7,#2060]
 372 0256 52F82330 	 ldr r3,[r2,r3,lsl#2]
 373 025a 4FEA3362 	 ror r2,r3,#24
 374 025e 6649     	 ldr r1,.L24+24
 375 0260 D7F80C38 	 ldr r3,[r7,#2060]
 376 0264 41F82320 	 str r2,[r1,r3,lsl#2]
 467:C:/Users/Yushev/git/wpcqi-optiga-trust-charge/optiga/externals/mbedtls/library\aes.c **** #endif /* !MBEDTLS_AES_FEWER_TABLES */
 468:C:/Users/Yushev/git/wpcqi-optiga-trust-charge/optiga/externals/mbedtls/library\aes.c **** 
 469:C:/Users/Yushev/git/wpcqi-optiga-trust-charge/optiga/externals/mbedtls/library\aes.c ****         x = RSb[i];
 377              	 .loc 1 469 0 discriminator 4
 378 0268 5F4A     	 ldr r2,.L24+8
 379 026a D7F80C38 	 ldr r3,[r7,#2060]
 380 026e 1344     	 add r3,r3,r2
 381 0270 1B78     	 ldrb r3,[r3]
 382 0272 C7F80838 	 str r3,[r7,#2056]
 470:C:/Users/Yushev/git/wpcqi-optiga-trust-charge/optiga/externals/mbedtls/library\aes.c **** 
 471:C:/Users/Yushev/git/wpcqi-optiga-trust-charge/optiga/externals/mbedtls/library\aes.c ****         RT0[i] = ( (uint32_t) MUL( 0x0E, x )       ) ^
 383              	 .loc 1 471 0 discriminator 4
 384 0276 D7F80838 	 ldr r3,[r7,#2056]
 385 027a 002B     	 cmp r3,#0
 386 027c 18D0     	 beq .L15
 387              	 .loc 1 471 0 is_stmt 0 discriminator 1
 388 027e 3B46     	 mov r3,r7
 389 0280 9A6B     	 ldr r2,[r3,#56]
 390 0282 3B46     	 mov r3,r7
 391 0284 D7F80818 	 ldr r1,[r7,#2056]
 392 0288 53F82130 	 ldr r3,[r3,r1,lsl#2]
 393 028c 1A44     	 add r2,r2,r3
 394 028e 5B4B     	 ldr r3,.L24+28
 395 0290 82FB0301 	 smull r0,r1,r2,r3
 396 0294 5318     	 adds r3,r2,r1
 397 0296 D911     	 asrs r1,r3,#7
 398 0298 D317     	 asrs r3,r2,#31
 399 029a C91A     	 subs r1,r1,r3
 400 029c 0B46     	 mov r3,r1
 401 029e 1B02     	 lsls r3,r3,#8
 402 02a0 5B1A     	 subs r3,r3,r1
 403 02a2 D11A     	 subs r1,r2,r3
 404 02a4 07F58063 	 add r3,r7,#1024
 405 02a8 53F82130 	 ldr r3,[r3,r1,lsl#2]
 406 02ac 1C46     	 mov r4,r3
 407 02ae 00E0     	 b .L16
 408              	.L15:
 409              	 .loc 1 471 0 discriminator 2
 410 02b0 0024     	 movs r4,#0
 411              	.L16:
 472:C:/Users/Yushev/git/wpcqi-optiga-trust-charge/optiga/externals/mbedtls/library\aes.c ****                  ( (uint32_t) MUL( 0x09, x ) <<  8 ) ^
 412              	 .loc 1 472 0 is_stmt 1
 413 02b2 D7F80838 	 ldr r3,[r7,#2056]
 414 02b6 002B     	 cmp r3,#0
 415 02b8 18D0     	 beq .L17
 416              	 .loc 1 472 0 is_stmt 0 discriminator 1
 417 02ba 3B46     	 mov r3,r7
 418 02bc 5A6A     	 ldr r2,[r3,#36]
 419 02be 3B46     	 mov r3,r7
 420 02c0 D7F80818 	 ldr r1,[r7,#2056]
 421 02c4 53F82130 	 ldr r3,[r3,r1,lsl#2]
 422 02c8 1A44     	 add r2,r2,r3
 423 02ca 4C4B     	 ldr r3,.L24+28
 424 02cc 82FB0301 	 smull r0,r1,r2,r3
 425 02d0 5318     	 adds r3,r2,r1
 426 02d2 D911     	 asrs r1,r3,#7
 427 02d4 D317     	 asrs r3,r2,#31
 428 02d6 C91A     	 subs r1,r1,r3
 429 02d8 0B46     	 mov r3,r1
 430 02da 1B02     	 lsls r3,r3,#8
 431 02dc 5B1A     	 subs r3,r3,r1
 432 02de D11A     	 subs r1,r2,r3
 433 02e0 07F58063 	 add r3,r7,#1024
 434 02e4 53F82130 	 ldr r3,[r3,r1,lsl#2]
 435 02e8 1B02     	 lsls r3,r3,#8
 436 02ea 00E0     	 b .L18
 437              	.L17:
 438              	 .loc 1 472 0 discriminator 2
 439 02ec 0023     	 movs r3,#0
 440              	.L18:
 471:C:/Users/Yushev/git/wpcqi-optiga-trust-charge/optiga/externals/mbedtls/library\aes.c ****                  ( (uint32_t) MUL( 0x09, x ) <<  8 ) ^
 441              	 .loc 1 471 0 is_stmt 1
 442 02ee 5C40     	 eors r4,r4,r3
 473:C:/Users/Yushev/git/wpcqi-optiga-trust-charge/optiga/externals/mbedtls/library\aes.c ****                  ( (uint32_t) MUL( 0x0D, x ) << 16 ) ^
 443              	 .loc 1 473 0
 444 02f0 D7F80838 	 ldr r3,[r7,#2056]
 445 02f4 002B     	 cmp r3,#0
 446 02f6 18D0     	 beq .L19
 447              	 .loc 1 473 0 is_stmt 0 discriminator 1
 448 02f8 3B46     	 mov r3,r7
 449 02fa 5A6B     	 ldr r2,[r3,#52]
 450 02fc 3B46     	 mov r3,r7
 451 02fe D7F80818 	 ldr r1,[r7,#2056]
 452 0302 53F82130 	 ldr r3,[r3,r1,lsl#2]
 453 0306 1A44     	 add r2,r2,r3
 454 0308 3C4B     	 ldr r3,.L24+28
 455 030a 82FB0301 	 smull r0,r1,r2,r3
 456 030e 5318     	 adds r3,r2,r1
 457 0310 D911     	 asrs r1,r3,#7
 458 0312 D317     	 asrs r3,r2,#31
 459 0314 C91A     	 subs r1,r1,r3
 460 0316 0B46     	 mov r3,r1
 461 0318 1B02     	 lsls r3,r3,#8
 462 031a 5B1A     	 subs r3,r3,r1
 463 031c D11A     	 subs r1,r2,r3
 464 031e 07F58063 	 add r3,r7,#1024
 465 0322 53F82130 	 ldr r3,[r3,r1,lsl#2]
 466 0326 1B04     	 lsls r3,r3,#16
 467 0328 00E0     	 b .L20
 468              	.L19:
 469              	 .loc 1 473 0 discriminator 2
 470 032a 0023     	 movs r3,#0
 471              	.L20:
 472:C:/Users/Yushev/git/wpcqi-optiga-trust-charge/optiga/externals/mbedtls/library\aes.c ****                  ( (uint32_t) MUL( 0x09, x ) <<  8 ) ^
 472              	 .loc 1 472 0 is_stmt 1
 473 032c 5C40     	 eors r4,r4,r3
 474:C:/Users/Yushev/git/wpcqi-optiga-trust-charge/optiga/externals/mbedtls/library\aes.c ****                  ( (uint32_t) MUL( 0x0B, x ) << 24 );
 474              	 .loc 1 474 0
 475 032e D7F80838 	 ldr r3,[r7,#2056]
 476 0332 002B     	 cmp r3,#0
 477 0334 18D0     	 beq .L21
 478              	 .loc 1 474 0 is_stmt 0 discriminator 1
 479 0336 3B46     	 mov r3,r7
 480 0338 DA6A     	 ldr r2,[r3,#44]
 481 033a 3B46     	 mov r3,r7
 482 033c D7F80818 	 ldr r1,[r7,#2056]
 483 0340 53F82130 	 ldr r3,[r3,r1,lsl#2]
 484 0344 1A44     	 add r2,r2,r3
 485 0346 2D4B     	 ldr r3,.L24+28
 486 0348 82FB0301 	 smull r0,r1,r2,r3
 487 034c 5318     	 adds r3,r2,r1
 488 034e D911     	 asrs r1,r3,#7
 489 0350 D317     	 asrs r3,r2,#31
 490 0352 C91A     	 subs r1,r1,r3
 491 0354 0B46     	 mov r3,r1
 492 0356 1B02     	 lsls r3,r3,#8
 493 0358 5B1A     	 subs r3,r3,r1
 494 035a D11A     	 subs r1,r2,r3
 495 035c 07F58063 	 add r3,r7,#1024
 496 0360 53F82130 	 ldr r3,[r3,r1,lsl#2]
 497 0364 1B06     	 lsls r3,r3,#24
 498 0366 00E0     	 b .L22
 499              	.L21:
 500              	 .loc 1 474 0 discriminator 2
 501 0368 0023     	 movs r3,#0
 502              	.L22:
 473:C:/Users/Yushev/git/wpcqi-optiga-trust-charge/optiga/externals/mbedtls/library\aes.c ****                  ( (uint32_t) MUL( 0x0D, x ) << 16 ) ^
 503              	 .loc 1 473 0 is_stmt 1 discriminator 2
 504 036a 84EA0302 	 eor r2,r4,r3
 471:C:/Users/Yushev/git/wpcqi-optiga-trust-charge/optiga/externals/mbedtls/library\aes.c ****                  ( (uint32_t) MUL( 0x09, x ) <<  8 ) ^
 505              	 .loc 1 471 0 discriminator 2
 506 036e 2449     	 ldr r1,.L24+32
 507 0370 D7F80C38 	 ldr r3,[r7,#2060]
 508 0374 41F82320 	 str r2,[r1,r3,lsl#2]
 475:C:/Users/Yushev/git/wpcqi-optiga-trust-charge/optiga/externals/mbedtls/library\aes.c **** 
 476:C:/Users/Yushev/git/wpcqi-optiga-trust-charge/optiga/externals/mbedtls/library\aes.c **** #if !defined(MBEDTLS_AES_FEWER_TABLES)
 477:C:/Users/Yushev/git/wpcqi-optiga-trust-charge/optiga/externals/mbedtls/library\aes.c ****         RT1[i] = ROTL8( RT0[i] );
 509              	 .loc 1 477 0 discriminator 2
 510 0378 214A     	 ldr r2,.L24+32
 511 037a D7F80C38 	 ldr r3,[r7,#2060]
 512 037e 52F82330 	 ldr r3,[r2,r3,lsl#2]
 513 0382 4FEA3362 	 ror r2,r3,#24
 514 0386 1F49     	 ldr r1,.L24+36
 515 0388 D7F80C38 	 ldr r3,[r7,#2060]
 516 038c 41F82320 	 str r2,[r1,r3,lsl#2]
 478:C:/Users/Yushev/git/wpcqi-optiga-trust-charge/optiga/externals/mbedtls/library\aes.c ****         RT2[i] = ROTL8( RT1[i] );
 517              	 .loc 1 478 0 discriminator 2
 518 0390 1C4A     	 ldr r2,.L24+36
 519 0392 D7F80C38 	 ldr r3,[r7,#2060]
 520 0396 52F82330 	 ldr r3,[r2,r3,lsl#2]
 521 039a 4FEA3362 	 ror r2,r3,#24
 522 039e 1A49     	 ldr r1,.L24+40
 523 03a0 D7F80C38 	 ldr r3,[r7,#2060]
 524 03a4 41F82320 	 str r2,[r1,r3,lsl#2]
 479:C:/Users/Yushev/git/wpcqi-optiga-trust-charge/optiga/externals/mbedtls/library\aes.c ****         RT3[i] = ROTL8( RT2[i] );
 525              	 .loc 1 479 0 discriminator 2
 526 03a8 174A     	 ldr r2,.L24+40
 527 03aa D7F80C38 	 ldr r3,[r7,#2060]
 528 03ae 52F82330 	 ldr r3,[r2,r3,lsl#2]
 529 03b2 4FEA3362 	 ror r2,r3,#24
 530 03b6 1549     	 ldr r1,.L24+44
 531 03b8 D7F80C38 	 ldr r3,[r7,#2060]
 532 03bc 41F82320 	 str r2,[r1,r3,lsl#2]
 452:C:/Users/Yushev/git/wpcqi-optiga-trust-charge/optiga/externals/mbedtls/library\aes.c ****     {
 533              	 .loc 1 452 0 discriminator 2
 534 03c0 D7F80C38 	 ldr r3,[r7,#2060]
 535 03c4 0133     	 adds r3,r3,#1
 536 03c6 C7F80C38 	 str r3,[r7,#2060]
 537              	.L12:
 452:C:/Users/Yushev/git/wpcqi-optiga-trust-charge/optiga/externals/mbedtls/library\aes.c ****     {
 538              	 .loc 1 452 0 is_stmt 0 discriminator 1
 539 03ca D7F80C38 	 ldr r3,[r7,#2060]
 540 03ce FF2B     	 cmp r3,#255
 541 03d0 7FF7F4AE 	 ble .L23
 480:C:/Users/Yushev/git/wpcqi-optiga-trust-charge/optiga/externals/mbedtls/library\aes.c **** #endif /* !MBEDTLS_AES_FEWER_TABLES */
 481:C:/Users/Yushev/git/wpcqi-optiga-trust-charge/optiga/externals/mbedtls/library\aes.c ****     }
 482:C:/Users/Yushev/git/wpcqi-optiga-trust-charge/optiga/externals/mbedtls/library\aes.c **** }
 542              	 .loc 1 482 0 is_stmt 1
 543 03d4 07F50167 	 add r7,r7,#2064
 544              	.LCFI3:
 545              	 .cfi_def_cfa_offset 8
 546 03d8 BD46     	 mov sp,r7
 547              	.LCFI4:
 548              	 .cfi_def_cfa_register 13
 549              	 
 550 03da 90BC     	 pop {r4,r7}
 551              	.LCFI5:
 552              	 .cfi_restore 7
 553              	 .cfi_restore 4
 554              	 .cfi_def_cfa_offset 0
 555 03dc 7047     	 bx lr
 556              	.L25:
 557 03de 00BF     	 .align 2
 558              	.L24:
 559 03e0 00000000 	 .word RCON
 560 03e4 00000000 	 .word FSb
 561 03e8 00000000 	 .word RSb
 562 03ec 00000000 	 .word FT0
 563 03f0 00000000 	 .word FT1
 564 03f4 00000000 	 .word FT2
 565 03f8 00000000 	 .word FT3
 566 03fc 81808080 	 .word -2139062143
 567 0400 00000000 	 .word RT0
 568 0404 00000000 	 .word RT1
 569 0408 00000000 	 .word RT2
 570 040c 00000000 	 .word RT3
 571              	 .cfi_endproc
 572              	.LFE0:
 574              	 .section .text.mbedtls_aes_init,"ax",%progbits
 575              	 .align 2
 576              	 .global mbedtls_aes_init
 577              	 .thumb
 578              	 .thumb_func
 580              	mbedtls_aes_init:
 581              	.LFB1:
 483:C:/Users/Yushev/git/wpcqi-optiga-trust-charge/optiga/externals/mbedtls/library\aes.c **** 
 484:C:/Users/Yushev/git/wpcqi-optiga-trust-charge/optiga/externals/mbedtls/library\aes.c **** #undef ROTL8
 485:C:/Users/Yushev/git/wpcqi-optiga-trust-charge/optiga/externals/mbedtls/library\aes.c **** 
 486:C:/Users/Yushev/git/wpcqi-optiga-trust-charge/optiga/externals/mbedtls/library\aes.c **** #endif /* MBEDTLS_AES_ROM_TABLES */
 487:C:/Users/Yushev/git/wpcqi-optiga-trust-charge/optiga/externals/mbedtls/library\aes.c **** 
 488:C:/Users/Yushev/git/wpcqi-optiga-trust-charge/optiga/externals/mbedtls/library\aes.c **** #if defined(MBEDTLS_AES_FEWER_TABLES)
 489:C:/Users/Yushev/git/wpcqi-optiga-trust-charge/optiga/externals/mbedtls/library\aes.c **** 
 490:C:/Users/Yushev/git/wpcqi-optiga-trust-charge/optiga/externals/mbedtls/library\aes.c **** #define ROTL8(x)  ( (uint32_t)( ( x ) <<  8 ) + (uint32_t)( ( x ) >> 24 ) )
 491:C:/Users/Yushev/git/wpcqi-optiga-trust-charge/optiga/externals/mbedtls/library\aes.c **** #define ROTL16(x) ( (uint32_t)( ( x ) << 16 ) + (uint32_t)( ( x ) >> 16 ) )
 492:C:/Users/Yushev/git/wpcqi-optiga-trust-charge/optiga/externals/mbedtls/library\aes.c **** #define ROTL24(x) ( (uint32_t)( ( x ) << 24 ) + (uint32_t)( ( x ) >>  8 ) )
 493:C:/Users/Yushev/git/wpcqi-optiga-trust-charge/optiga/externals/mbedtls/library\aes.c **** 
 494:C:/Users/Yushev/git/wpcqi-optiga-trust-charge/optiga/externals/mbedtls/library\aes.c **** #define AES_RT0(idx) RT0[idx]
 495:C:/Users/Yushev/git/wpcqi-optiga-trust-charge/optiga/externals/mbedtls/library\aes.c **** #define AES_RT1(idx) ROTL8(  RT0[idx] )
 496:C:/Users/Yushev/git/wpcqi-optiga-trust-charge/optiga/externals/mbedtls/library\aes.c **** #define AES_RT2(idx) ROTL16( RT0[idx] )
 497:C:/Users/Yushev/git/wpcqi-optiga-trust-charge/optiga/externals/mbedtls/library\aes.c **** #define AES_RT3(idx) ROTL24( RT0[idx] )
 498:C:/Users/Yushev/git/wpcqi-optiga-trust-charge/optiga/externals/mbedtls/library\aes.c **** 
 499:C:/Users/Yushev/git/wpcqi-optiga-trust-charge/optiga/externals/mbedtls/library\aes.c **** #define AES_FT0(idx) FT0[idx]
 500:C:/Users/Yushev/git/wpcqi-optiga-trust-charge/optiga/externals/mbedtls/library\aes.c **** #define AES_FT1(idx) ROTL8(  FT0[idx] )
 501:C:/Users/Yushev/git/wpcqi-optiga-trust-charge/optiga/externals/mbedtls/library\aes.c **** #define AES_FT2(idx) ROTL16( FT0[idx] )
 502:C:/Users/Yushev/git/wpcqi-optiga-trust-charge/optiga/externals/mbedtls/library\aes.c **** #define AES_FT3(idx) ROTL24( FT0[idx] )
 503:C:/Users/Yushev/git/wpcqi-optiga-trust-charge/optiga/externals/mbedtls/library\aes.c **** 
 504:C:/Users/Yushev/git/wpcqi-optiga-trust-charge/optiga/externals/mbedtls/library\aes.c **** #else /* MBEDTLS_AES_FEWER_TABLES */
 505:C:/Users/Yushev/git/wpcqi-optiga-trust-charge/optiga/externals/mbedtls/library\aes.c **** 
 506:C:/Users/Yushev/git/wpcqi-optiga-trust-charge/optiga/externals/mbedtls/library\aes.c **** #define AES_RT0(idx) RT0[idx]
 507:C:/Users/Yushev/git/wpcqi-optiga-trust-charge/optiga/externals/mbedtls/library\aes.c **** #define AES_RT1(idx) RT1[idx]
 508:C:/Users/Yushev/git/wpcqi-optiga-trust-charge/optiga/externals/mbedtls/library\aes.c **** #define AES_RT2(idx) RT2[idx]
 509:C:/Users/Yushev/git/wpcqi-optiga-trust-charge/optiga/externals/mbedtls/library\aes.c **** #define AES_RT3(idx) RT3[idx]
 510:C:/Users/Yushev/git/wpcqi-optiga-trust-charge/optiga/externals/mbedtls/library\aes.c **** 
 511:C:/Users/Yushev/git/wpcqi-optiga-trust-charge/optiga/externals/mbedtls/library\aes.c **** #define AES_FT0(idx) FT0[idx]
 512:C:/Users/Yushev/git/wpcqi-optiga-trust-charge/optiga/externals/mbedtls/library\aes.c **** #define AES_FT1(idx) FT1[idx]
 513:C:/Users/Yushev/git/wpcqi-optiga-trust-charge/optiga/externals/mbedtls/library\aes.c **** #define AES_FT2(idx) FT2[idx]
 514:C:/Users/Yushev/git/wpcqi-optiga-trust-charge/optiga/externals/mbedtls/library\aes.c **** #define AES_FT3(idx) FT3[idx]
 515:C:/Users/Yushev/git/wpcqi-optiga-trust-charge/optiga/externals/mbedtls/library\aes.c **** 
 516:C:/Users/Yushev/git/wpcqi-optiga-trust-charge/optiga/externals/mbedtls/library\aes.c **** #endif /* MBEDTLS_AES_FEWER_TABLES */
 517:C:/Users/Yushev/git/wpcqi-optiga-trust-charge/optiga/externals/mbedtls/library\aes.c **** 
 518:C:/Users/Yushev/git/wpcqi-optiga-trust-charge/optiga/externals/mbedtls/library\aes.c **** void mbedtls_aes_init( mbedtls_aes_context *ctx )
 519:C:/Users/Yushev/git/wpcqi-optiga-trust-charge/optiga/externals/mbedtls/library\aes.c **** {
 582              	 .loc 1 519 0
 583              	 .cfi_startproc
 584              	 
 585              	 
 586 0000 80B5     	 push {r7,lr}
 587              	.LCFI6:
 588              	 .cfi_def_cfa_offset 8
 589              	 .cfi_offset 7,-8
 590              	 .cfi_offset 14,-4
 591 0002 82B0     	 sub sp,sp,#8
 592              	.LCFI7:
 593              	 .cfi_def_cfa_offset 16
 594 0004 00AF     	 add r7,sp,#0
 595              	.LCFI8:
 596              	 .cfi_def_cfa_register 7
 597 0006 7860     	 str r0,[r7,#4]
 520:C:/Users/Yushev/git/wpcqi-optiga-trust-charge/optiga/externals/mbedtls/library\aes.c ****     AES_VALIDATE( ctx != NULL );
 521:C:/Users/Yushev/git/wpcqi-optiga-trust-charge/optiga/externals/mbedtls/library\aes.c **** 
 522:C:/Users/Yushev/git/wpcqi-optiga-trust-charge/optiga/externals/mbedtls/library\aes.c ****     memset( ctx, 0, sizeof( mbedtls_aes_context ) );
 598              	 .loc 1 522 0
 599 0008 7868     	 ldr r0,[r7,#4]
 600 000a 0021     	 movs r1,#0
 601 000c 4FF48C72 	 mov r2,#280
 602 0010 FFF7FEFF 	 bl memset
 523:C:/Users/Yushev/git/wpcqi-optiga-trust-charge/optiga/externals/mbedtls/library\aes.c **** }
 603              	 .loc 1 523 0
 604 0014 0837     	 adds r7,r7,#8
 605              	.LCFI9:
 606              	 .cfi_def_cfa_offset 8
 607 0016 BD46     	 mov sp,r7
 608              	.LCFI10:
 609              	 .cfi_def_cfa_register 13
 610              	 
 611 0018 80BD     	 pop {r7,pc}
 612              	 .cfi_endproc
 613              	.LFE1:
 615 001a 00BF     	 .section .text.mbedtls_aes_free,"ax",%progbits
 616              	 .align 2
 617              	 .global mbedtls_aes_free
 618              	 .thumb
 619              	 .thumb_func
 621              	mbedtls_aes_free:
 622              	.LFB2:
 524:C:/Users/Yushev/git/wpcqi-optiga-trust-charge/optiga/externals/mbedtls/library\aes.c **** 
 525:C:/Users/Yushev/git/wpcqi-optiga-trust-charge/optiga/externals/mbedtls/library\aes.c **** void mbedtls_aes_free( mbedtls_aes_context *ctx )
 526:C:/Users/Yushev/git/wpcqi-optiga-trust-charge/optiga/externals/mbedtls/library\aes.c **** {
 623              	 .loc 1 526 0
 624              	 .cfi_startproc
 625              	 
 626              	 
 627 0000 80B5     	 push {r7,lr}
 628              	.LCFI11:
 629              	 .cfi_def_cfa_offset 8
 630              	 .cfi_offset 7,-8
 631              	 .cfi_offset 14,-4
 632 0002 82B0     	 sub sp,sp,#8
 633              	.LCFI12:
 634              	 .cfi_def_cfa_offset 16
 635 0004 00AF     	 add r7,sp,#0
 636              	.LCFI13:
 637              	 .cfi_def_cfa_register 7
 638 0006 7860     	 str r0,[r7,#4]
 527:C:/Users/Yushev/git/wpcqi-optiga-trust-charge/optiga/externals/mbedtls/library\aes.c ****     if( ctx == NULL )
 639              	 .loc 1 527 0
 640 0008 7B68     	 ldr r3,[r7,#4]
 641 000a 002B     	 cmp r3,#0
 642 000c 00D1     	 bne .L28
 528:C:/Users/Yushev/git/wpcqi-optiga-trust-charge/optiga/externals/mbedtls/library\aes.c ****         return;
 643              	 .loc 1 528 0
 644 000e 04E0     	 b .L27
 645              	.L28:
 529:C:/Users/Yushev/git/wpcqi-optiga-trust-charge/optiga/externals/mbedtls/library\aes.c **** 
 530:C:/Users/Yushev/git/wpcqi-optiga-trust-charge/optiga/externals/mbedtls/library\aes.c ****     mbedtls_platform_zeroize( ctx, sizeof( mbedtls_aes_context ) );
 646              	 .loc 1 530 0
 647 0010 7868     	 ldr r0,[r7,#4]
 648 0012 4FF48C71 	 mov r1,#280
 649 0016 FFF7FEFF 	 bl mbedtls_platform_zeroize
 650              	.L27:
 531:C:/Users/Yushev/git/wpcqi-optiga-trust-charge/optiga/externals/mbedtls/library\aes.c **** }
 651              	 .loc 1 531 0
 652 001a 0837     	 adds r7,r7,#8
 653              	.LCFI14:
 654              	 .cfi_def_cfa_offset 8
 655 001c BD46     	 mov sp,r7
 656              	.LCFI15:
 657              	 .cfi_def_cfa_register 13
 658              	 
 659 001e 80BD     	 pop {r7,pc}
 660              	 .cfi_endproc
 661              	.LFE2:
 663              	 .section .text.mbedtls_aes_setkey_enc,"ax",%progbits
 664              	 .align 2
 665              	 .global mbedtls_aes_setkey_enc
 666              	 .thumb
 667              	 .thumb_func
 669              	mbedtls_aes_setkey_enc:
 670              	.LFB3:
 532:C:/Users/Yushev/git/wpcqi-optiga-trust-charge/optiga/externals/mbedtls/library\aes.c **** 
 533:C:/Users/Yushev/git/wpcqi-optiga-trust-charge/optiga/externals/mbedtls/library\aes.c **** #if defined(MBEDTLS_CIPHER_MODE_XTS)
 534:C:/Users/Yushev/git/wpcqi-optiga-trust-charge/optiga/externals/mbedtls/library\aes.c **** void mbedtls_aes_xts_init( mbedtls_aes_xts_context *ctx )
 535:C:/Users/Yushev/git/wpcqi-optiga-trust-charge/optiga/externals/mbedtls/library\aes.c **** {
 536:C:/Users/Yushev/git/wpcqi-optiga-trust-charge/optiga/externals/mbedtls/library\aes.c ****     AES_VALIDATE( ctx != NULL );
 537:C:/Users/Yushev/git/wpcqi-optiga-trust-charge/optiga/externals/mbedtls/library\aes.c **** 
 538:C:/Users/Yushev/git/wpcqi-optiga-trust-charge/optiga/externals/mbedtls/library\aes.c ****     mbedtls_aes_init( &ctx->crypt );
 539:C:/Users/Yushev/git/wpcqi-optiga-trust-charge/optiga/externals/mbedtls/library\aes.c ****     mbedtls_aes_init( &ctx->tweak );
 540:C:/Users/Yushev/git/wpcqi-optiga-trust-charge/optiga/externals/mbedtls/library\aes.c **** }
 541:C:/Users/Yushev/git/wpcqi-optiga-trust-charge/optiga/externals/mbedtls/library\aes.c **** 
 542:C:/Users/Yushev/git/wpcqi-optiga-trust-charge/optiga/externals/mbedtls/library\aes.c **** void mbedtls_aes_xts_free( mbedtls_aes_xts_context *ctx )
 543:C:/Users/Yushev/git/wpcqi-optiga-trust-charge/optiga/externals/mbedtls/library\aes.c **** {
 544:C:/Users/Yushev/git/wpcqi-optiga-trust-charge/optiga/externals/mbedtls/library\aes.c ****     if( ctx == NULL )
 545:C:/Users/Yushev/git/wpcqi-optiga-trust-charge/optiga/externals/mbedtls/library\aes.c ****         return;
 546:C:/Users/Yushev/git/wpcqi-optiga-trust-charge/optiga/externals/mbedtls/library\aes.c **** 
 547:C:/Users/Yushev/git/wpcqi-optiga-trust-charge/optiga/externals/mbedtls/library\aes.c ****     mbedtls_aes_free( &ctx->crypt );
 548:C:/Users/Yushev/git/wpcqi-optiga-trust-charge/optiga/externals/mbedtls/library\aes.c ****     mbedtls_aes_free( &ctx->tweak );
 549:C:/Users/Yushev/git/wpcqi-optiga-trust-charge/optiga/externals/mbedtls/library\aes.c **** }
 550:C:/Users/Yushev/git/wpcqi-optiga-trust-charge/optiga/externals/mbedtls/library\aes.c **** #endif /* MBEDTLS_CIPHER_MODE_XTS */
 551:C:/Users/Yushev/git/wpcqi-optiga-trust-charge/optiga/externals/mbedtls/library\aes.c **** 
 552:C:/Users/Yushev/git/wpcqi-optiga-trust-charge/optiga/externals/mbedtls/library\aes.c **** /*
 553:C:/Users/Yushev/git/wpcqi-optiga-trust-charge/optiga/externals/mbedtls/library\aes.c ****  * AES key schedule (encryption)
 554:C:/Users/Yushev/git/wpcqi-optiga-trust-charge/optiga/externals/mbedtls/library\aes.c ****  */
 555:C:/Users/Yushev/git/wpcqi-optiga-trust-charge/optiga/externals/mbedtls/library\aes.c **** #if !defined(MBEDTLS_AES_SETKEY_ENC_ALT)
 556:C:/Users/Yushev/git/wpcqi-optiga-trust-charge/optiga/externals/mbedtls/library\aes.c **** int mbedtls_aes_setkey_enc( mbedtls_aes_context *ctx, const unsigned char *key,
 557:C:/Users/Yushev/git/wpcqi-optiga-trust-charge/optiga/externals/mbedtls/library\aes.c ****                     unsigned int keybits )
 558:C:/Users/Yushev/git/wpcqi-optiga-trust-charge/optiga/externals/mbedtls/library\aes.c **** {
 671              	 .loc 1 558 0
 672              	 .cfi_startproc
 673              	 
 674              	 
 675 0000 80B5     	 push {r7,lr}
 676              	.LCFI16:
 677              	 .cfi_def_cfa_offset 8
 678              	 .cfi_offset 7,-8
 679              	 .cfi_offset 14,-4
 680 0002 86B0     	 sub sp,sp,#24
 681              	.LCFI17:
 682              	 .cfi_def_cfa_offset 32
 683 0004 00AF     	 add r7,sp,#0
 684              	.LCFI18:
 685              	 .cfi_def_cfa_register 7
 686 0006 F860     	 str r0,[r7,#12]
 687 0008 B960     	 str r1,[r7,#8]
 688 000a 7A60     	 str r2,[r7,#4]
 559:C:/Users/Yushev/git/wpcqi-optiga-trust-charge/optiga/externals/mbedtls/library\aes.c ****     unsigned int i;
 560:C:/Users/Yushev/git/wpcqi-optiga-trust-charge/optiga/externals/mbedtls/library\aes.c ****     uint32_t *RK;
 561:C:/Users/Yushev/git/wpcqi-optiga-trust-charge/optiga/externals/mbedtls/library\aes.c **** 
 562:C:/Users/Yushev/git/wpcqi-optiga-trust-charge/optiga/externals/mbedtls/library\aes.c ****     AES_VALIDATE_RET( ctx != NULL );
 563:C:/Users/Yushev/git/wpcqi-optiga-trust-charge/optiga/externals/mbedtls/library\aes.c ****     AES_VALIDATE_RET( key != NULL );
 564:C:/Users/Yushev/git/wpcqi-optiga-trust-charge/optiga/externals/mbedtls/library\aes.c **** 
 565:C:/Users/Yushev/git/wpcqi-optiga-trust-charge/optiga/externals/mbedtls/library\aes.c ****     switch( keybits )
 689              	 .loc 1 565 0
 690 000c 7B68     	 ldr r3,[r7,#4]
 691 000e C02B     	 cmp r3,#192
 692 0010 08D0     	 beq .L32
 693 0012 B3F5807F 	 cmp r3,#256
 694 0016 09D0     	 beq .L33
 695 0018 802B     	 cmp r3,#128
 696 001a 0BD1     	 bne .L50
 566:C:/Users/Yushev/git/wpcqi-optiga-trust-charge/optiga/externals/mbedtls/library\aes.c ****     {
 567:C:/Users/Yushev/git/wpcqi-optiga-trust-charge/optiga/externals/mbedtls/library\aes.c ****         case 128: ctx->nr = 10; break;
 697              	 .loc 1 567 0
 698 001c FB68     	 ldr r3,[r7,#12]
 699 001e 0A22     	 movs r2,#10
 700 0020 1A60     	 str r2,[r3]
 701 0022 0AE0     	 b .L35
 702              	.L32:
 568:C:/Users/Yushev/git/wpcqi-optiga-trust-charge/optiga/externals/mbedtls/library\aes.c ****         case 192: ctx->nr = 12; break;
 703              	 .loc 1 568 0
 704 0024 FB68     	 ldr r3,[r7,#12]
 705 0026 0C22     	 movs r2,#12
 706 0028 1A60     	 str r2,[r3]
 707 002a 06E0     	 b .L35
 708              	.L33:
 569:C:/Users/Yushev/git/wpcqi-optiga-trust-charge/optiga/externals/mbedtls/library\aes.c ****         case 256: ctx->nr = 14; break;
 709              	 .loc 1 569 0
 710 002c FB68     	 ldr r3,[r7,#12]
 711 002e 0E22     	 movs r2,#14
 712 0030 1A60     	 str r2,[r3]
 713 0032 02E0     	 b .L35
 714              	.L50:
 570:C:/Users/Yushev/git/wpcqi-optiga-trust-charge/optiga/externals/mbedtls/library\aes.c ****         default : return( MBEDTLS_ERR_AES_INVALID_KEY_LENGTH );
 715              	 .loc 1 570 0
 716 0034 6FF01F03 	 mvn r3,#31
 717 0038 AAE1     	 b .L36
 718              	.L35:
 571:C:/Users/Yushev/git/wpcqi-optiga-trust-charge/optiga/externals/mbedtls/library\aes.c ****     }
 572:C:/Users/Yushev/git/wpcqi-optiga-trust-charge/optiga/externals/mbedtls/library\aes.c **** 
 573:C:/Users/Yushev/git/wpcqi-optiga-trust-charge/optiga/externals/mbedtls/library\aes.c **** #if !defined(MBEDTLS_AES_ROM_TABLES)
 574:C:/Users/Yushev/git/wpcqi-optiga-trust-charge/optiga/externals/mbedtls/library\aes.c ****     if( aes_init_done == 0 )
 719              	 .loc 1 574 0
 720 003a 854B     	 ldr r3,.L51
 721 003c 1B68     	 ldr r3,[r3]
 722 003e 002B     	 cmp r3,#0
 723 0040 04D1     	 bne .L37
 575:C:/Users/Yushev/git/wpcqi-optiga-trust-charge/optiga/externals/mbedtls/library\aes.c ****     {
 576:C:/Users/Yushev/git/wpcqi-optiga-trust-charge/optiga/externals/mbedtls/library\aes.c ****         aes_gen_tables();
 724              	 .loc 1 576 0
 725 0042 FFF7FEFF 	 bl aes_gen_tables
 577:C:/Users/Yushev/git/wpcqi-optiga-trust-charge/optiga/externals/mbedtls/library\aes.c ****         aes_init_done = 1;
 726              	 .loc 1 577 0
 727 0046 824B     	 ldr r3,.L51
 728 0048 0122     	 movs r2,#1
 729 004a 1A60     	 str r2,[r3]
 730              	.L37:
 578:C:/Users/Yushev/git/wpcqi-optiga-trust-charge/optiga/externals/mbedtls/library\aes.c ****     }
 579:C:/Users/Yushev/git/wpcqi-optiga-trust-charge/optiga/externals/mbedtls/library\aes.c **** #endif
 580:C:/Users/Yushev/git/wpcqi-optiga-trust-charge/optiga/externals/mbedtls/library\aes.c **** 
 581:C:/Users/Yushev/git/wpcqi-optiga-trust-charge/optiga/externals/mbedtls/library\aes.c **** #if defined(MBEDTLS_PADLOCK_C) && defined(MBEDTLS_PADLOCK_ALIGN16)
 582:C:/Users/Yushev/git/wpcqi-optiga-trust-charge/optiga/externals/mbedtls/library\aes.c ****     if( aes_padlock_ace == -1 )
 583:C:/Users/Yushev/git/wpcqi-optiga-trust-charge/optiga/externals/mbedtls/library\aes.c ****         aes_padlock_ace = mbedtls_padlock_has_support( MBEDTLS_PADLOCK_ACE );
 584:C:/Users/Yushev/git/wpcqi-optiga-trust-charge/optiga/externals/mbedtls/library\aes.c **** 
 585:C:/Users/Yushev/git/wpcqi-optiga-trust-charge/optiga/externals/mbedtls/library\aes.c ****     if( aes_padlock_ace )
 586:C:/Users/Yushev/git/wpcqi-optiga-trust-charge/optiga/externals/mbedtls/library\aes.c ****         ctx->rk = RK = MBEDTLS_PADLOCK_ALIGN16( ctx->buf );
 587:C:/Users/Yushev/git/wpcqi-optiga-trust-charge/optiga/externals/mbedtls/library\aes.c ****     else
 588:C:/Users/Yushev/git/wpcqi-optiga-trust-charge/optiga/externals/mbedtls/library\aes.c **** #endif
 589:C:/Users/Yushev/git/wpcqi-optiga-trust-charge/optiga/externals/mbedtls/library\aes.c ****     ctx->rk = RK = ctx->buf;
 731              	 .loc 1 589 0
 732 004c FB68     	 ldr r3,[r7,#12]
 733 004e 0833     	 adds r3,r3,#8
 734 0050 3B61     	 str r3,[r7,#16]
 735 0052 FB68     	 ldr r3,[r7,#12]
 736 0054 3A69     	 ldr r2,[r7,#16]
 737 0056 5A60     	 str r2,[r3,#4]
 590:C:/Users/Yushev/git/wpcqi-optiga-trust-charge/optiga/externals/mbedtls/library\aes.c **** 
 591:C:/Users/Yushev/git/wpcqi-optiga-trust-charge/optiga/externals/mbedtls/library\aes.c **** #if defined(MBEDTLS_AESNI_C) && defined(MBEDTLS_HAVE_X86_64)
 592:C:/Users/Yushev/git/wpcqi-optiga-trust-charge/optiga/externals/mbedtls/library\aes.c ****     if( mbedtls_aesni_has_support( MBEDTLS_AESNI_AES ) )
 593:C:/Users/Yushev/git/wpcqi-optiga-trust-charge/optiga/externals/mbedtls/library\aes.c ****         return( mbedtls_aesni_setkey_enc( (unsigned char *) ctx->rk, key, keybits ) );
 594:C:/Users/Yushev/git/wpcqi-optiga-trust-charge/optiga/externals/mbedtls/library\aes.c **** #endif
 595:C:/Users/Yushev/git/wpcqi-optiga-trust-charge/optiga/externals/mbedtls/library\aes.c **** 
 596:C:/Users/Yushev/git/wpcqi-optiga-trust-charge/optiga/externals/mbedtls/library\aes.c ****     for( i = 0; i < ( keybits >> 5 ); i++ )
 738              	 .loc 1 596 0
 739 0058 0023     	 movs r3,#0
 740 005a 7B61     	 str r3,[r7,#20]
 741 005c 26E0     	 b .L38
 742              	.L39:
 597:C:/Users/Yushev/git/wpcqi-optiga-trust-charge/optiga/externals/mbedtls/library\aes.c ****     {
 598:C:/Users/Yushev/git/wpcqi-optiga-trust-charge/optiga/externals/mbedtls/library\aes.c ****         GET_UINT32_LE( RK[i], key, i << 2 );
 743              	 .loc 1 598 0 discriminator 3
 744 005e 7B69     	 ldr r3,[r7,#20]
 745 0060 9B00     	 lsls r3,r3,#2
 746 0062 3A69     	 ldr r2,[r7,#16]
 747 0064 1344     	 add r3,r3,r2
 748 0066 7A69     	 ldr r2,[r7,#20]
 749 0068 9200     	 lsls r2,r2,#2
 750 006a B968     	 ldr r1,[r7,#8]
 751 006c 0A44     	 add r2,r2,r1
 752 006e 1278     	 ldrb r2,[r2]
 753 0070 1046     	 mov r0,r2
 754 0072 7A69     	 ldr r2,[r7,#20]
 755 0074 9200     	 lsls r2,r2,#2
 756 0076 0132     	 adds r2,r2,#1
 757 0078 B968     	 ldr r1,[r7,#8]
 758 007a 0A44     	 add r2,r2,r1
 759 007c 1278     	 ldrb r2,[r2]
 760 007e 1202     	 lsls r2,r2,#8
 761 0080 40EA0201 	 orr r1,r0,r2
 762 0084 7A69     	 ldr r2,[r7,#20]
 763 0086 9200     	 lsls r2,r2,#2
 764 0088 0232     	 adds r2,r2,#2
 765 008a B868     	 ldr r0,[r7,#8]
 766 008c 0244     	 add r2,r2,r0
 767 008e 1278     	 ldrb r2,[r2]
 768 0090 1204     	 lsls r2,r2,#16
 769 0092 1143     	 orrs r1,r1,r2
 770 0094 7A69     	 ldr r2,[r7,#20]
 771 0096 9200     	 lsls r2,r2,#2
 772 0098 0332     	 adds r2,r2,#3
 773 009a B868     	 ldr r0,[r7,#8]
 774 009c 0244     	 add r2,r2,r0
 775 009e 1278     	 ldrb r2,[r2]
 776 00a0 1206     	 lsls r2,r2,#24
 777 00a2 0A43     	 orrs r2,r2,r1
 778 00a4 1A60     	 str r2,[r3]
 596:C:/Users/Yushev/git/wpcqi-optiga-trust-charge/optiga/externals/mbedtls/library\aes.c ****     {
 779              	 .loc 1 596 0 discriminator 3
 780 00a6 7B69     	 ldr r3,[r7,#20]
 781 00a8 0133     	 adds r3,r3,#1
 782 00aa 7B61     	 str r3,[r7,#20]
 783              	.L38:
 596:C:/Users/Yushev/git/wpcqi-optiga-trust-charge/optiga/externals/mbedtls/library\aes.c ****     {
 784              	 .loc 1 596 0 is_stmt 0 discriminator 1
 785 00ac 7B68     	 ldr r3,[r7,#4]
 786 00ae 5A09     	 lsrs r2,r3,#5
 787 00b0 7B69     	 ldr r3,[r7,#20]
 788 00b2 9A42     	 cmp r2,r3
 789 00b4 D3D8     	 bhi .L39
 599:C:/Users/Yushev/git/wpcqi-optiga-trust-charge/optiga/externals/mbedtls/library\aes.c ****     }
 600:C:/Users/Yushev/git/wpcqi-optiga-trust-charge/optiga/externals/mbedtls/library\aes.c **** 
 601:C:/Users/Yushev/git/wpcqi-optiga-trust-charge/optiga/externals/mbedtls/library\aes.c ****     switch( ctx->nr )
 790              	 .loc 1 601 0 is_stmt 1
 791 00b6 FB68     	 ldr r3,[r7,#12]
 792 00b8 1B68     	 ldr r3,[r3]
 793 00ba 0C2B     	 cmp r3,#12
 794 00bc 5BD0     	 beq .L41
 795 00be 0E2B     	 cmp r3,#14
 796 00c0 00F0C380 	 beq .L42
 797 00c4 0A2B     	 cmp r3,#10
 798 00c6 40F06281 	 bne .L40
 602:C:/Users/Yushev/git/wpcqi-optiga-trust-charge/optiga/externals/mbedtls/library\aes.c ****     {
 603:C:/Users/Yushev/git/wpcqi-optiga-trust-charge/optiga/externals/mbedtls/library\aes.c ****         case 10:
 604:C:/Users/Yushev/git/wpcqi-optiga-trust-charge/optiga/externals/mbedtls/library\aes.c **** 
 605:C:/Users/Yushev/git/wpcqi-optiga-trust-charge/optiga/externals/mbedtls/library\aes.c ****             for( i = 0; i < 10; i++, RK += 4 )
 799              	 .loc 1 605 0
 800 00ca 0023     	 movs r3,#0
 801 00cc 7B61     	 str r3,[r7,#20]
 802 00ce 4EE0     	 b .L44
 803              	.L45:
 606:C:/Users/Yushev/git/wpcqi-optiga-trust-charge/optiga/externals/mbedtls/library\aes.c ****             {
 607:C:/Users/Yushev/git/wpcqi-optiga-trust-charge/optiga/externals/mbedtls/library\aes.c ****                 RK[4]  = RK[0] ^ RCON[i] ^
 804              	 .loc 1 607 0 discriminator 3
 805 00d0 3B69     	 ldr r3,[r7,#16]
 806 00d2 1033     	 adds r3,r3,#16
 807 00d4 3A69     	 ldr r2,[r7,#16]
 808 00d6 1168     	 ldr r1,[r2]
 809 00d8 5E48     	 ldr r0,.L51+4
 810 00da 7A69     	 ldr r2,[r7,#20]
 811 00dc 50F82220 	 ldr r2,[r0,r2,lsl#2]
 812 00e0 4A40     	 eors r2,r2,r1
 608:C:/Users/Yushev/git/wpcqi-optiga-trust-charge/optiga/externals/mbedtls/library\aes.c ****                 ( (uint32_t) FSb[ ( RK[3] >>  8 ) & 0xFF ]       ) ^
 813              	 .loc 1 608 0 discriminator 3
 814 00e2 3969     	 ldr r1,[r7,#16]
 815 00e4 0C31     	 adds r1,r1,#12
 816 00e6 0968     	 ldr r1,[r1]
 817 00e8 090A     	 lsrs r1,r1,#8
 818 00ea C9B2     	 uxtb r1,r1
 819 00ec 5A48     	 ldr r0,.L51+8
 820 00ee 415C     	 ldrb r1,[r0,r1]
 607:C:/Users/Yushev/git/wpcqi-optiga-trust-charge/optiga/externals/mbedtls/library\aes.c ****                 ( (uint32_t) FSb[ ( RK[3] >>  8 ) & 0xFF ]       ) ^
 821              	 .loc 1 607 0 discriminator 3
 822 00f0 5140     	 eors r1,r1,r2
 609:C:/Users/Yushev/git/wpcqi-optiga-trust-charge/optiga/externals/mbedtls/library\aes.c ****                 ( (uint32_t) FSb[ ( RK[3] >> 16 ) & 0xFF ] <<  8 ) ^
 823              	 .loc 1 609 0 discriminator 3
 824 00f2 3A69     	 ldr r2,[r7,#16]
 825 00f4 0C32     	 adds r2,r2,#12
 826 00f6 1268     	 ldr r2,[r2]
 827 00f8 120C     	 lsrs r2,r2,#16
 828 00fa D2B2     	 uxtb r2,r2
 829 00fc 5648     	 ldr r0,.L51+8
 830 00fe 825C     	 ldrb r2,[r0,r2]
 831 0100 1202     	 lsls r2,r2,#8
 608:C:/Users/Yushev/git/wpcqi-optiga-trust-charge/optiga/externals/mbedtls/library\aes.c ****                 ( (uint32_t) FSb[ ( RK[3] >>  8 ) & 0xFF ]       ) ^
 832              	 .loc 1 608 0 discriminator 3
 833 0102 5140     	 eors r1,r1,r2
 610:C:/Users/Yushev/git/wpcqi-optiga-trust-charge/optiga/externals/mbedtls/library\aes.c ****                 ( (uint32_t) FSb[ ( RK[3] >> 24 ) & 0xFF ] << 16 ) ^
 834              	 .loc 1 610 0 discriminator 3
 835 0104 3A69     	 ldr r2,[r7,#16]
 836 0106 0C32     	 adds r2,r2,#12
 837 0108 1268     	 ldr r2,[r2]
 838 010a 120E     	 lsrs r2,r2,#24
 839 010c 5248     	 ldr r0,.L51+8
 840 010e 825C     	 ldrb r2,[r0,r2]
 841 0110 1204     	 lsls r2,r2,#16
 609:C:/Users/Yushev/git/wpcqi-optiga-trust-charge/optiga/externals/mbedtls/library\aes.c ****                 ( (uint32_t) FSb[ ( RK[3] >> 16 ) & 0xFF ] <<  8 ) ^
 842              	 .loc 1 609 0 discriminator 3
 843 0112 5140     	 eors r1,r1,r2
 611:C:/Users/Yushev/git/wpcqi-optiga-trust-charge/optiga/externals/mbedtls/library\aes.c ****                 ( (uint32_t) FSb[ ( RK[3]       ) & 0xFF ] << 24 );
 844              	 .loc 1 611 0 discriminator 3
 845 0114 3A69     	 ldr r2,[r7,#16]
 846 0116 0C32     	 adds r2,r2,#12
 847 0118 1268     	 ldr r2,[r2]
 848 011a D2B2     	 uxtb r2,r2
 849 011c 4E48     	 ldr r0,.L51+8
 850 011e 825C     	 ldrb r2,[r0,r2]
 851 0120 1206     	 lsls r2,r2,#24
 610:C:/Users/Yushev/git/wpcqi-optiga-trust-charge/optiga/externals/mbedtls/library\aes.c ****                 ( (uint32_t) FSb[ ( RK[3] >> 24 ) & 0xFF ] << 16 ) ^
 852              	 .loc 1 610 0 discriminator 3
 853 0122 4A40     	 eors r2,r2,r1
 607:C:/Users/Yushev/git/wpcqi-optiga-trust-charge/optiga/externals/mbedtls/library\aes.c ****                 ( (uint32_t) FSb[ ( RK[3] >>  8 ) & 0xFF ]       ) ^
 854              	 .loc 1 607 0 discriminator 3
 855 0124 1A60     	 str r2,[r3]
 612:C:/Users/Yushev/git/wpcqi-optiga-trust-charge/optiga/externals/mbedtls/library\aes.c **** 
 613:C:/Users/Yushev/git/wpcqi-optiga-trust-charge/optiga/externals/mbedtls/library\aes.c ****                 RK[5]  = RK[1] ^ RK[4];
 856              	 .loc 1 613 0 discriminator 3
 857 0126 3B69     	 ldr r3,[r7,#16]
 858 0128 1433     	 adds r3,r3,#20
 859 012a 3A69     	 ldr r2,[r7,#16]
 860 012c 0432     	 adds r2,r2,#4
 861 012e 1168     	 ldr r1,[r2]
 862 0130 3A69     	 ldr r2,[r7,#16]
 863 0132 1032     	 adds r2,r2,#16
 864 0134 1268     	 ldr r2,[r2]
 865 0136 4A40     	 eors r2,r2,r1
 866 0138 1A60     	 str r2,[r3]
 614:C:/Users/Yushev/git/wpcqi-optiga-trust-charge/optiga/externals/mbedtls/library\aes.c ****                 RK[6]  = RK[2] ^ RK[5];
 867              	 .loc 1 614 0 discriminator 3
 868 013a 3B69     	 ldr r3,[r7,#16]
 869 013c 1833     	 adds r3,r3,#24
 870 013e 3A69     	 ldr r2,[r7,#16]
 871 0140 0832     	 adds r2,r2,#8
 872 0142 1168     	 ldr r1,[r2]
 873 0144 3A69     	 ldr r2,[r7,#16]
 874 0146 1432     	 adds r2,r2,#20
 875 0148 1268     	 ldr r2,[r2]
 876 014a 4A40     	 eors r2,r2,r1
 877 014c 1A60     	 str r2,[r3]
 615:C:/Users/Yushev/git/wpcqi-optiga-trust-charge/optiga/externals/mbedtls/library\aes.c ****                 RK[7]  = RK[3] ^ RK[6];
 878              	 .loc 1 615 0 discriminator 3
 879 014e 3B69     	 ldr r3,[r7,#16]
 880 0150 1C33     	 adds r3,r3,#28
 881 0152 3A69     	 ldr r2,[r7,#16]
 882 0154 0C32     	 adds r2,r2,#12
 883 0156 1168     	 ldr r1,[r2]
 884 0158 3A69     	 ldr r2,[r7,#16]
 885 015a 1832     	 adds r2,r2,#24
 886 015c 1268     	 ldr r2,[r2]
 887 015e 4A40     	 eors r2,r2,r1
 888 0160 1A60     	 str r2,[r3]
 605:C:/Users/Yushev/git/wpcqi-optiga-trust-charge/optiga/externals/mbedtls/library\aes.c ****             {
 889              	 .loc 1 605 0 discriminator 3
 890 0162 7B69     	 ldr r3,[r7,#20]
 891 0164 0133     	 adds r3,r3,#1
 892 0166 7B61     	 str r3,[r7,#20]
 893 0168 3B69     	 ldr r3,[r7,#16]
 894 016a 1033     	 adds r3,r3,#16
 895 016c 3B61     	 str r3,[r7,#16]
 896              	.L44:
 605:C:/Users/Yushev/git/wpcqi-optiga-trust-charge/optiga/externals/mbedtls/library\aes.c ****             {
 897              	 .loc 1 605 0 is_stmt 0 discriminator 1
 898 016e 7B69     	 ldr r3,[r7,#20]
 899 0170 092B     	 cmp r3,#9
 900 0172 ADD9     	 bls .L45
 616:C:/Users/Yushev/git/wpcqi-optiga-trust-charge/optiga/externals/mbedtls/library\aes.c ****             }
 617:C:/Users/Yushev/git/wpcqi-optiga-trust-charge/optiga/externals/mbedtls/library\aes.c ****             break;
 901              	 .loc 1 617 0 is_stmt 1
 902 0174 0BE1     	 b .L40
 903              	.L41:
 618:C:/Users/Yushev/git/wpcqi-optiga-trust-charge/optiga/externals/mbedtls/library\aes.c **** 
 619:C:/Users/Yushev/git/wpcqi-optiga-trust-charge/optiga/externals/mbedtls/library\aes.c ****         case 12:
 620:C:/Users/Yushev/git/wpcqi-optiga-trust-charge/optiga/externals/mbedtls/library\aes.c **** 
 621:C:/Users/Yushev/git/wpcqi-optiga-trust-charge/optiga/externals/mbedtls/library\aes.c ****             for( i = 0; i < 8; i++, RK += 6 )
 904              	 .loc 1 621 0
 905 0176 0023     	 movs r3,#0
 906 0178 7B61     	 str r3,[r7,#20]
 907 017a 62E0     	 b .L46
 908              	.L47:
 622:C:/Users/Yushev/git/wpcqi-optiga-trust-charge/optiga/externals/mbedtls/library\aes.c ****             {
 623:C:/Users/Yushev/git/wpcqi-optiga-trust-charge/optiga/externals/mbedtls/library\aes.c ****                 RK[6]  = RK[0] ^ RCON[i] ^
 909              	 .loc 1 623 0 discriminator 3
 910 017c 3B69     	 ldr r3,[r7,#16]
 911 017e 1833     	 adds r3,r3,#24
 912 0180 3A69     	 ldr r2,[r7,#16]
 913 0182 1168     	 ldr r1,[r2]
 914 0184 3348     	 ldr r0,.L51+4
 915 0186 7A69     	 ldr r2,[r7,#20]
 916 0188 50F82220 	 ldr r2,[r0,r2,lsl#2]
 917 018c 4A40     	 eors r2,r2,r1
 624:C:/Users/Yushev/git/wpcqi-optiga-trust-charge/optiga/externals/mbedtls/library\aes.c ****                 ( (uint32_t) FSb[ ( RK[5] >>  8 ) & 0xFF ]       ) ^
 918              	 .loc 1 624 0 discriminator 3
 919 018e 3969     	 ldr r1,[r7,#16]
 920 0190 1431     	 adds r1,r1,#20
 921 0192 0968     	 ldr r1,[r1]
 922 0194 090A     	 lsrs r1,r1,#8
 923 0196 C9B2     	 uxtb r1,r1
 924 0198 2F48     	 ldr r0,.L51+8
 925 019a 415C     	 ldrb r1,[r0,r1]
 623:C:/Users/Yushev/git/wpcqi-optiga-trust-charge/optiga/externals/mbedtls/library\aes.c ****                 ( (uint32_t) FSb[ ( RK[5] >>  8 ) & 0xFF ]       ) ^
 926              	 .loc 1 623 0 discriminator 3
 927 019c 5140     	 eors r1,r1,r2
 625:C:/Users/Yushev/git/wpcqi-optiga-trust-charge/optiga/externals/mbedtls/library\aes.c ****                 ( (uint32_t) FSb[ ( RK[5] >> 16 ) & 0xFF ] <<  8 ) ^
 928              	 .loc 1 625 0 discriminator 3
 929 019e 3A69     	 ldr r2,[r7,#16]
 930 01a0 1432     	 adds r2,r2,#20
 931 01a2 1268     	 ldr r2,[r2]
 932 01a4 120C     	 lsrs r2,r2,#16
 933 01a6 D2B2     	 uxtb r2,r2
 934 01a8 2B48     	 ldr r0,.L51+8
 935 01aa 825C     	 ldrb r2,[r0,r2]
 936 01ac 1202     	 lsls r2,r2,#8
 624:C:/Users/Yushev/git/wpcqi-optiga-trust-charge/optiga/externals/mbedtls/library\aes.c ****                 ( (uint32_t) FSb[ ( RK[5] >>  8 ) & 0xFF ]       ) ^
 937              	 .loc 1 624 0 discriminator 3
 938 01ae 5140     	 eors r1,r1,r2
 626:C:/Users/Yushev/git/wpcqi-optiga-trust-charge/optiga/externals/mbedtls/library\aes.c ****                 ( (uint32_t) FSb[ ( RK[5] >> 24 ) & 0xFF ] << 16 ) ^
 939              	 .loc 1 626 0 discriminator 3
 940 01b0 3A69     	 ldr r2,[r7,#16]
 941 01b2 1432     	 adds r2,r2,#20
 942 01b4 1268     	 ldr r2,[r2]
 943 01b6 120E     	 lsrs r2,r2,#24
 944 01b8 2748     	 ldr r0,.L51+8
 945 01ba 825C     	 ldrb r2,[r0,r2]
 946 01bc 1204     	 lsls r2,r2,#16
 625:C:/Users/Yushev/git/wpcqi-optiga-trust-charge/optiga/externals/mbedtls/library\aes.c ****                 ( (uint32_t) FSb[ ( RK[5] >> 16 ) & 0xFF ] <<  8 ) ^
 947              	 .loc 1 625 0 discriminator 3
 948 01be 5140     	 eors r1,r1,r2
 627:C:/Users/Yushev/git/wpcqi-optiga-trust-charge/optiga/externals/mbedtls/library\aes.c ****                 ( (uint32_t) FSb[ ( RK[5]       ) & 0xFF ] << 24 );
 949              	 .loc 1 627 0 discriminator 3
 950 01c0 3A69     	 ldr r2,[r7,#16]
 951 01c2 1432     	 adds r2,r2,#20
 952 01c4 1268     	 ldr r2,[r2]
 953 01c6 D2B2     	 uxtb r2,r2
 954 01c8 2348     	 ldr r0,.L51+8
 955 01ca 825C     	 ldrb r2,[r0,r2]
 956 01cc 1206     	 lsls r2,r2,#24
 626:C:/Users/Yushev/git/wpcqi-optiga-trust-charge/optiga/externals/mbedtls/library\aes.c ****                 ( (uint32_t) FSb[ ( RK[5] >> 24 ) & 0xFF ] << 16 ) ^
 957              	 .loc 1 626 0 discriminator 3
 958 01ce 4A40     	 eors r2,r2,r1
 623:C:/Users/Yushev/git/wpcqi-optiga-trust-charge/optiga/externals/mbedtls/library\aes.c ****                 ( (uint32_t) FSb[ ( RK[5] >>  8 ) & 0xFF ]       ) ^
 959              	 .loc 1 623 0 discriminator 3
 960 01d0 1A60     	 str r2,[r3]
 628:C:/Users/Yushev/git/wpcqi-optiga-trust-charge/optiga/externals/mbedtls/library\aes.c **** 
 629:C:/Users/Yushev/git/wpcqi-optiga-trust-charge/optiga/externals/mbedtls/library\aes.c ****                 RK[7]  = RK[1] ^ RK[6];
 961              	 .loc 1 629 0 discriminator 3
 962 01d2 3B69     	 ldr r3,[r7,#16]
 963 01d4 1C33     	 adds r3,r3,#28
 964 01d6 3A69     	 ldr r2,[r7,#16]
 965 01d8 0432     	 adds r2,r2,#4
 966 01da 1168     	 ldr r1,[r2]
 967 01dc 3A69     	 ldr r2,[r7,#16]
 968 01de 1832     	 adds r2,r2,#24
 969 01e0 1268     	 ldr r2,[r2]
 970 01e2 4A40     	 eors r2,r2,r1
 971 01e4 1A60     	 str r2,[r3]
 630:C:/Users/Yushev/git/wpcqi-optiga-trust-charge/optiga/externals/mbedtls/library\aes.c ****                 RK[8]  = RK[2] ^ RK[7];
 972              	 .loc 1 630 0 discriminator 3
 973 01e6 3B69     	 ldr r3,[r7,#16]
 974 01e8 2033     	 adds r3,r3,#32
 975 01ea 3A69     	 ldr r2,[r7,#16]
 976 01ec 0832     	 adds r2,r2,#8
 977 01ee 1168     	 ldr r1,[r2]
 978 01f0 3A69     	 ldr r2,[r7,#16]
 979 01f2 1C32     	 adds r2,r2,#28
 980 01f4 1268     	 ldr r2,[r2]
 981 01f6 4A40     	 eors r2,r2,r1
 982 01f8 1A60     	 str r2,[r3]
 631:C:/Users/Yushev/git/wpcqi-optiga-trust-charge/optiga/externals/mbedtls/library\aes.c ****                 RK[9]  = RK[3] ^ RK[8];
 983              	 .loc 1 631 0 discriminator 3
 984 01fa 3B69     	 ldr r3,[r7,#16]
 985 01fc 2433     	 adds r3,r3,#36
 986 01fe 3A69     	 ldr r2,[r7,#16]
 987 0200 0C32     	 adds r2,r2,#12
 988 0202 1168     	 ldr r1,[r2]
 989 0204 3A69     	 ldr r2,[r7,#16]
 990 0206 2032     	 adds r2,r2,#32
 991 0208 1268     	 ldr r2,[r2]
 992 020a 4A40     	 eors r2,r2,r1
 993 020c 1A60     	 str r2,[r3]
 632:C:/Users/Yushev/git/wpcqi-optiga-trust-charge/optiga/externals/mbedtls/library\aes.c ****                 RK[10] = RK[4] ^ RK[9];
 994              	 .loc 1 632 0 discriminator 3
 995 020e 3B69     	 ldr r3,[r7,#16]
 996 0210 2833     	 adds r3,r3,#40
 997 0212 3A69     	 ldr r2,[r7,#16]
 998 0214 1032     	 adds r2,r2,#16
 999 0216 1168     	 ldr r1,[r2]
 1000 0218 3A69     	 ldr r2,[r7,#16]
 1001 021a 2432     	 adds r2,r2,#36
 1002 021c 1268     	 ldr r2,[r2]
 1003 021e 4A40     	 eors r2,r2,r1
 1004 0220 1A60     	 str r2,[r3]
 633:C:/Users/Yushev/git/wpcqi-optiga-trust-charge/optiga/externals/mbedtls/library\aes.c ****                 RK[11] = RK[5] ^ RK[10];
 1005              	 .loc 1 633 0 discriminator 3
 1006 0222 3B69     	 ldr r3,[r7,#16]
 1007 0224 2C33     	 adds r3,r3,#44
 1008 0226 3A69     	 ldr r2,[r7,#16]
 1009 0228 1432     	 adds r2,r2,#20
 1010 022a 1168     	 ldr r1,[r2]
 1011 022c 3A69     	 ldr r2,[r7,#16]
 1012 022e 2832     	 adds r2,r2,#40
 1013 0230 1268     	 ldr r2,[r2]
 1014 0232 4A40     	 eors r2,r2,r1
 1015 0234 1A60     	 str r2,[r3]
 621:C:/Users/Yushev/git/wpcqi-optiga-trust-charge/optiga/externals/mbedtls/library\aes.c ****             {
 1016              	 .loc 1 621 0 discriminator 3
 1017 0236 7B69     	 ldr r3,[r7,#20]
 1018 0238 0133     	 adds r3,r3,#1
 1019 023a 7B61     	 str r3,[r7,#20]
 1020 023c 3B69     	 ldr r3,[r7,#16]
 1021 023e 1833     	 adds r3,r3,#24
 1022 0240 3B61     	 str r3,[r7,#16]
 1023              	.L46:
 621:C:/Users/Yushev/git/wpcqi-optiga-trust-charge/optiga/externals/mbedtls/library\aes.c ****             {
 1024              	 .loc 1 621 0 is_stmt 0 discriminator 1
 1025 0242 7B69     	 ldr r3,[r7,#20]
 1026 0244 072B     	 cmp r3,#7
 1027 0246 99D9     	 bls .L47
 634:C:/Users/Yushev/git/wpcqi-optiga-trust-charge/optiga/externals/mbedtls/library\aes.c ****             }
 635:C:/Users/Yushev/git/wpcqi-optiga-trust-charge/optiga/externals/mbedtls/library\aes.c ****             break;
 1028              	 .loc 1 635 0 is_stmt 1
 1029 0248 A1E0     	 b .L40
 1030              	.L42:
 636:C:/Users/Yushev/git/wpcqi-optiga-trust-charge/optiga/externals/mbedtls/library\aes.c **** 
 637:C:/Users/Yushev/git/wpcqi-optiga-trust-charge/optiga/externals/mbedtls/library\aes.c ****         case 14:
 638:C:/Users/Yushev/git/wpcqi-optiga-trust-charge/optiga/externals/mbedtls/library\aes.c **** 
 639:C:/Users/Yushev/git/wpcqi-optiga-trust-charge/optiga/externals/mbedtls/library\aes.c ****             for( i = 0; i < 7; i++, RK += 8 )
 1031              	 .loc 1 639 0
 1032 024a 0023     	 movs r3,#0
 1033 024c 7B61     	 str r3,[r7,#20]
 1034 024e 99E0     	 b .L48
 1035              	.L52:
 1036              	 .align 2
 1037              	.L51:
 1038 0250 00000000 	 .word aes_init_done
 1039 0254 00000000 	 .word RCON
 1040 0258 00000000 	 .word FSb
 1041              	.L49:
 640:C:/Users/Yushev/git/wpcqi-optiga-trust-charge/optiga/externals/mbedtls/library\aes.c ****             {
 641:C:/Users/Yushev/git/wpcqi-optiga-trust-charge/optiga/externals/mbedtls/library\aes.c ****                 RK[8]  = RK[0] ^ RCON[i] ^
 1042              	 .loc 1 641 0 discriminator 3
 1043 025c 3B69     	 ldr r3,[r7,#16]
 1044 025e 2033     	 adds r3,r3,#32
 1045 0260 3A69     	 ldr r2,[r7,#16]
 1046 0262 1168     	 ldr r1,[r2]
 1047 0264 4C48     	 ldr r0,.L53
 1048 0266 7A69     	 ldr r2,[r7,#20]
 1049 0268 50F82220 	 ldr r2,[r0,r2,lsl#2]
 1050 026c 4A40     	 eors r2,r2,r1
 642:C:/Users/Yushev/git/wpcqi-optiga-trust-charge/optiga/externals/mbedtls/library\aes.c ****                 ( (uint32_t) FSb[ ( RK[7] >>  8 ) & 0xFF ]       ) ^
 1051              	 .loc 1 642 0 discriminator 3
 1052 026e 3969     	 ldr r1,[r7,#16]
 1053 0270 1C31     	 adds r1,r1,#28
 1054 0272 0968     	 ldr r1,[r1]
 1055 0274 090A     	 lsrs r1,r1,#8
 1056 0276 C9B2     	 uxtb r1,r1
 1057 0278 4848     	 ldr r0,.L53+4
 1058 027a 415C     	 ldrb r1,[r0,r1]
 641:C:/Users/Yushev/git/wpcqi-optiga-trust-charge/optiga/externals/mbedtls/library\aes.c ****                 ( (uint32_t) FSb[ ( RK[7] >>  8 ) & 0xFF ]       ) ^
 1059              	 .loc 1 641 0 discriminator 3
 1060 027c 5140     	 eors r1,r1,r2
 643:C:/Users/Yushev/git/wpcqi-optiga-trust-charge/optiga/externals/mbedtls/library\aes.c ****                 ( (uint32_t) FSb[ ( RK[7] >> 16 ) & 0xFF ] <<  8 ) ^
 1061              	 .loc 1 643 0 discriminator 3
 1062 027e 3A69     	 ldr r2,[r7,#16]
 1063 0280 1C32     	 adds r2,r2,#28
 1064 0282 1268     	 ldr r2,[r2]
 1065 0284 120C     	 lsrs r2,r2,#16
 1066 0286 D2B2     	 uxtb r2,r2
 1067 0288 4448     	 ldr r0,.L53+4
 1068 028a 825C     	 ldrb r2,[r0,r2]
 1069 028c 1202     	 lsls r2,r2,#8
 642:C:/Users/Yushev/git/wpcqi-optiga-trust-charge/optiga/externals/mbedtls/library\aes.c ****                 ( (uint32_t) FSb[ ( RK[7] >>  8 ) & 0xFF ]       ) ^
 1070              	 .loc 1 642 0 discriminator 3
 1071 028e 5140     	 eors r1,r1,r2
 644:C:/Users/Yushev/git/wpcqi-optiga-trust-charge/optiga/externals/mbedtls/library\aes.c ****                 ( (uint32_t) FSb[ ( RK[7] >> 24 ) & 0xFF ] << 16 ) ^
 1072              	 .loc 1 644 0 discriminator 3
 1073 0290 3A69     	 ldr r2,[r7,#16]
 1074 0292 1C32     	 adds r2,r2,#28
 1075 0294 1268     	 ldr r2,[r2]
 1076 0296 120E     	 lsrs r2,r2,#24
 1077 0298 4048     	 ldr r0,.L53+4
 1078 029a 825C     	 ldrb r2,[r0,r2]
 1079 029c 1204     	 lsls r2,r2,#16
 643:C:/Users/Yushev/git/wpcqi-optiga-trust-charge/optiga/externals/mbedtls/library\aes.c ****                 ( (uint32_t) FSb[ ( RK[7] >> 16 ) & 0xFF ] <<  8 ) ^
 1080              	 .loc 1 643 0 discriminator 3
 1081 029e 5140     	 eors r1,r1,r2
 645:C:/Users/Yushev/git/wpcqi-optiga-trust-charge/optiga/externals/mbedtls/library\aes.c ****                 ( (uint32_t) FSb[ ( RK[7]       ) & 0xFF ] << 24 );
 1082              	 .loc 1 645 0 discriminator 3
 1083 02a0 3A69     	 ldr r2,[r7,#16]
 1084 02a2 1C32     	 adds r2,r2,#28
 1085 02a4 1268     	 ldr r2,[r2]
 1086 02a6 D2B2     	 uxtb r2,r2
 1087 02a8 3C48     	 ldr r0,.L53+4
 1088 02aa 825C     	 ldrb r2,[r0,r2]
 1089 02ac 1206     	 lsls r2,r2,#24
 644:C:/Users/Yushev/git/wpcqi-optiga-trust-charge/optiga/externals/mbedtls/library\aes.c ****                 ( (uint32_t) FSb[ ( RK[7] >> 24 ) & 0xFF ] << 16 ) ^
 1090              	 .loc 1 644 0 discriminator 3
 1091 02ae 4A40     	 eors r2,r2,r1
 641:C:/Users/Yushev/git/wpcqi-optiga-trust-charge/optiga/externals/mbedtls/library\aes.c ****                 ( (uint32_t) FSb[ ( RK[7] >>  8 ) & 0xFF ]       ) ^
 1092              	 .loc 1 641 0 discriminator 3
 1093 02b0 1A60     	 str r2,[r3]
 646:C:/Users/Yushev/git/wpcqi-optiga-trust-charge/optiga/externals/mbedtls/library\aes.c **** 
 647:C:/Users/Yushev/git/wpcqi-optiga-trust-charge/optiga/externals/mbedtls/library\aes.c ****                 RK[9]  = RK[1] ^ RK[8];
 1094              	 .loc 1 647 0 discriminator 3
 1095 02b2 3B69     	 ldr r3,[r7,#16]
 1096 02b4 2433     	 adds r3,r3,#36
 1097 02b6 3A69     	 ldr r2,[r7,#16]
 1098 02b8 0432     	 adds r2,r2,#4
 1099 02ba 1168     	 ldr r1,[r2]
 1100 02bc 3A69     	 ldr r2,[r7,#16]
 1101 02be 2032     	 adds r2,r2,#32
 1102 02c0 1268     	 ldr r2,[r2]
 1103 02c2 4A40     	 eors r2,r2,r1
 1104 02c4 1A60     	 str r2,[r3]
 648:C:/Users/Yushev/git/wpcqi-optiga-trust-charge/optiga/externals/mbedtls/library\aes.c ****                 RK[10] = RK[2] ^ RK[9];
 1105              	 .loc 1 648 0 discriminator 3
 1106 02c6 3B69     	 ldr r3,[r7,#16]
 1107 02c8 2833     	 adds r3,r3,#40
 1108 02ca 3A69     	 ldr r2,[r7,#16]
 1109 02cc 0832     	 adds r2,r2,#8
 1110 02ce 1168     	 ldr r1,[r2]
 1111 02d0 3A69     	 ldr r2,[r7,#16]
 1112 02d2 2432     	 adds r2,r2,#36
 1113 02d4 1268     	 ldr r2,[r2]
 1114 02d6 4A40     	 eors r2,r2,r1
 1115 02d8 1A60     	 str r2,[r3]
 649:C:/Users/Yushev/git/wpcqi-optiga-trust-charge/optiga/externals/mbedtls/library\aes.c ****                 RK[11] = RK[3] ^ RK[10];
 1116              	 .loc 1 649 0 discriminator 3
 1117 02da 3B69     	 ldr r3,[r7,#16]
 1118 02dc 2C33     	 adds r3,r3,#44
 1119 02de 3A69     	 ldr r2,[r7,#16]
 1120 02e0 0C32     	 adds r2,r2,#12
 1121 02e2 1168     	 ldr r1,[r2]
 1122 02e4 3A69     	 ldr r2,[r7,#16]
 1123 02e6 2832     	 adds r2,r2,#40
 1124 02e8 1268     	 ldr r2,[r2]
 1125 02ea 4A40     	 eors r2,r2,r1
 1126 02ec 1A60     	 str r2,[r3]
 650:C:/Users/Yushev/git/wpcqi-optiga-trust-charge/optiga/externals/mbedtls/library\aes.c **** 
 651:C:/Users/Yushev/git/wpcqi-optiga-trust-charge/optiga/externals/mbedtls/library\aes.c ****                 RK[12] = RK[4] ^
 1127              	 .loc 1 651 0 discriminator 3
 1128 02ee 3B69     	 ldr r3,[r7,#16]
 1129 02f0 3033     	 adds r3,r3,#48
 1130 02f2 3A69     	 ldr r2,[r7,#16]
 1131 02f4 1032     	 adds r2,r2,#16
 1132 02f6 1268     	 ldr r2,[r2]
 652:C:/Users/Yushev/git/wpcqi-optiga-trust-charge/optiga/externals/mbedtls/library\aes.c ****                 ( (uint32_t) FSb[ ( RK[11]       ) & 0xFF ]       ) ^
 1133              	 .loc 1 652 0 discriminator 3
 1134 02f8 3969     	 ldr r1,[r7,#16]
 1135 02fa 2C31     	 adds r1,r1,#44
 1136 02fc 0968     	 ldr r1,[r1]
 1137 02fe C9B2     	 uxtb r1,r1
 1138 0300 2648     	 ldr r0,.L53+4
 1139 0302 415C     	 ldrb r1,[r0,r1]
 651:C:/Users/Yushev/git/wpcqi-optiga-trust-charge/optiga/externals/mbedtls/library\aes.c ****                 ( (uint32_t) FSb[ ( RK[11]       ) & 0xFF ]       ) ^
 1140              	 .loc 1 651 0 discriminator 3
 1141 0304 5140     	 eors r1,r1,r2
 653:C:/Users/Yushev/git/wpcqi-optiga-trust-charge/optiga/externals/mbedtls/library\aes.c ****                 ( (uint32_t) FSb[ ( RK[11] >>  8 ) & 0xFF ] <<  8 ) ^
 1142              	 .loc 1 653 0 discriminator 3
 1143 0306 3A69     	 ldr r2,[r7,#16]
 1144 0308 2C32     	 adds r2,r2,#44
 1145 030a 1268     	 ldr r2,[r2]
 1146 030c 120A     	 lsrs r2,r2,#8
 1147 030e D2B2     	 uxtb r2,r2
 1148 0310 2248     	 ldr r0,.L53+4
 1149 0312 825C     	 ldrb r2,[r0,r2]
 1150 0314 1202     	 lsls r2,r2,#8
 652:C:/Users/Yushev/git/wpcqi-optiga-trust-charge/optiga/externals/mbedtls/library\aes.c ****                 ( (uint32_t) FSb[ ( RK[11]       ) & 0xFF ]       ) ^
 1151              	 .loc 1 652 0 discriminator 3
 1152 0316 5140     	 eors r1,r1,r2
 654:C:/Users/Yushev/git/wpcqi-optiga-trust-charge/optiga/externals/mbedtls/library\aes.c ****                 ( (uint32_t) FSb[ ( RK[11] >> 16 ) & 0xFF ] << 16 ) ^
 1153              	 .loc 1 654 0 discriminator 3
 1154 0318 3A69     	 ldr r2,[r7,#16]
 1155 031a 2C32     	 adds r2,r2,#44
 1156 031c 1268     	 ldr r2,[r2]
 1157 031e 120C     	 lsrs r2,r2,#16
 1158 0320 D2B2     	 uxtb r2,r2
 1159 0322 1E48     	 ldr r0,.L53+4
 1160 0324 825C     	 ldrb r2,[r0,r2]
 1161 0326 1204     	 lsls r2,r2,#16
 653:C:/Users/Yushev/git/wpcqi-optiga-trust-charge/optiga/externals/mbedtls/library\aes.c ****                 ( (uint32_t) FSb[ ( RK[11] >>  8 ) & 0xFF ] <<  8 ) ^
 1162              	 .loc 1 653 0 discriminator 3
 1163 0328 5140     	 eors r1,r1,r2
 655:C:/Users/Yushev/git/wpcqi-optiga-trust-charge/optiga/externals/mbedtls/library\aes.c ****                 ( (uint32_t) FSb[ ( RK[11] >> 24 ) & 0xFF ] << 24 );
 1164              	 .loc 1 655 0 discriminator 3
 1165 032a 3A69     	 ldr r2,[r7,#16]
 1166 032c 2C32     	 adds r2,r2,#44
 1167 032e 1268     	 ldr r2,[r2]
 1168 0330 120E     	 lsrs r2,r2,#24
 1169 0332 1A48     	 ldr r0,.L53+4
 1170 0334 825C     	 ldrb r2,[r0,r2]
 1171 0336 1206     	 lsls r2,r2,#24
 654:C:/Users/Yushev/git/wpcqi-optiga-trust-charge/optiga/externals/mbedtls/library\aes.c ****                 ( (uint32_t) FSb[ ( RK[11] >> 16 ) & 0xFF ] << 16 ) ^
 1172              	 .loc 1 654 0 discriminator 3
 1173 0338 4A40     	 eors r2,r2,r1
 651:C:/Users/Yushev/git/wpcqi-optiga-trust-charge/optiga/externals/mbedtls/library\aes.c ****                 ( (uint32_t) FSb[ ( RK[11]       ) & 0xFF ]       ) ^
 1174              	 .loc 1 651 0 discriminator 3
 1175 033a 1A60     	 str r2,[r3]
 656:C:/Users/Yushev/git/wpcqi-optiga-trust-charge/optiga/externals/mbedtls/library\aes.c **** 
 657:C:/Users/Yushev/git/wpcqi-optiga-trust-charge/optiga/externals/mbedtls/library\aes.c ****                 RK[13] = RK[5] ^ RK[12];
 1176              	 .loc 1 657 0 discriminator 3
 1177 033c 3B69     	 ldr r3,[r7,#16]
 1178 033e 3433     	 adds r3,r3,#52
 1179 0340 3A69     	 ldr r2,[r7,#16]
 1180 0342 1432     	 adds r2,r2,#20
 1181 0344 1168     	 ldr r1,[r2]
 1182 0346 3A69     	 ldr r2,[r7,#16]
 1183 0348 3032     	 adds r2,r2,#48
 1184 034a 1268     	 ldr r2,[r2]
 1185 034c 4A40     	 eors r2,r2,r1
 1186 034e 1A60     	 str r2,[r3]
 658:C:/Users/Yushev/git/wpcqi-optiga-trust-charge/optiga/externals/mbedtls/library\aes.c ****                 RK[14] = RK[6] ^ RK[13];
 1187              	 .loc 1 658 0 discriminator 3
 1188 0350 3B69     	 ldr r3,[r7,#16]
 1189 0352 3833     	 adds r3,r3,#56
 1190 0354 3A69     	 ldr r2,[r7,#16]
 1191 0356 1832     	 adds r2,r2,#24
 1192 0358 1168     	 ldr r1,[r2]
 1193 035a 3A69     	 ldr r2,[r7,#16]
 1194 035c 3432     	 adds r2,r2,#52
 1195 035e 1268     	 ldr r2,[r2]
 1196 0360 4A40     	 eors r2,r2,r1
 1197 0362 1A60     	 str r2,[r3]
 659:C:/Users/Yushev/git/wpcqi-optiga-trust-charge/optiga/externals/mbedtls/library\aes.c ****                 RK[15] = RK[7] ^ RK[14];
 1198              	 .loc 1 659 0 discriminator 3
 1199 0364 3B69     	 ldr r3,[r7,#16]
 1200 0366 3C33     	 adds r3,r3,#60
 1201 0368 3A69     	 ldr r2,[r7,#16]
 1202 036a 1C32     	 adds r2,r2,#28
 1203 036c 1168     	 ldr r1,[r2]
 1204 036e 3A69     	 ldr r2,[r7,#16]
 1205 0370 3832     	 adds r2,r2,#56
 1206 0372 1268     	 ldr r2,[r2]
 1207 0374 4A40     	 eors r2,r2,r1
 1208 0376 1A60     	 str r2,[r3]
 639:C:/Users/Yushev/git/wpcqi-optiga-trust-charge/optiga/externals/mbedtls/library\aes.c ****             {
 1209              	 .loc 1 639 0 discriminator 3
 1210 0378 7B69     	 ldr r3,[r7,#20]
 1211 037a 0133     	 adds r3,r3,#1
 1212 037c 7B61     	 str r3,[r7,#20]
 1213 037e 3B69     	 ldr r3,[r7,#16]
 1214 0380 2033     	 adds r3,r3,#32
 1215 0382 3B61     	 str r3,[r7,#16]
 1216              	.L48:
 639:C:/Users/Yushev/git/wpcqi-optiga-trust-charge/optiga/externals/mbedtls/library\aes.c ****             {
 1217              	 .loc 1 639 0 is_stmt 0 discriminator 1
 1218 0384 7B69     	 ldr r3,[r7,#20]
 1219 0386 062B     	 cmp r3,#6
 1220 0388 7FF668AF 	 bls .L49
 660:C:/Users/Yushev/git/wpcqi-optiga-trust-charge/optiga/externals/mbedtls/library\aes.c ****             }
 661:C:/Users/Yushev/git/wpcqi-optiga-trust-charge/optiga/externals/mbedtls/library\aes.c ****             break;
 1221              	 .loc 1 661 0 is_stmt 1
 1222 038c 00BF     	 nop
 1223              	.L40:
 662:C:/Users/Yushev/git/wpcqi-optiga-trust-charge/optiga/externals/mbedtls/library\aes.c ****     }
 663:C:/Users/Yushev/git/wpcqi-optiga-trust-charge/optiga/externals/mbedtls/library\aes.c **** 
 664:C:/Users/Yushev/git/wpcqi-optiga-trust-charge/optiga/externals/mbedtls/library\aes.c ****     return( 0 );
 1224              	 .loc 1 664 0
 1225 038e 0023     	 movs r3,#0
 1226              	.L36:
 665:C:/Users/Yushev/git/wpcqi-optiga-trust-charge/optiga/externals/mbedtls/library\aes.c **** }
 1227              	 .loc 1 665 0
 1228 0390 1846     	 mov r0,r3
 1229 0392 1837     	 adds r7,r7,#24
 1230              	.LCFI19:
 1231              	 .cfi_def_cfa_offset 8
 1232 0394 BD46     	 mov sp,r7
 1233              	.LCFI20:
 1234              	 .cfi_def_cfa_register 13
 1235              	 
 1236 0396 80BD     	 pop {r7,pc}
 1237              	.L54:
 1238              	 .align 2
 1239              	.L53:
 1240 0398 00000000 	 .word RCON
 1241 039c 00000000 	 .word FSb
 1242              	 .cfi_endproc
 1243              	.LFE3:
 1245              	 .section .text.mbedtls_aes_setkey_dec,"ax",%progbits
 1246              	 .align 2
 1247              	 .global mbedtls_aes_setkey_dec
 1248              	 .thumb
 1249              	 .thumb_func
 1251              	mbedtls_aes_setkey_dec:
 1252              	.LFB4:
 666:C:/Users/Yushev/git/wpcqi-optiga-trust-charge/optiga/externals/mbedtls/library\aes.c **** #endif /* !MBEDTLS_AES_SETKEY_ENC_ALT */
 667:C:/Users/Yushev/git/wpcqi-optiga-trust-charge/optiga/externals/mbedtls/library\aes.c **** 
 668:C:/Users/Yushev/git/wpcqi-optiga-trust-charge/optiga/externals/mbedtls/library\aes.c **** /*
 669:C:/Users/Yushev/git/wpcqi-optiga-trust-charge/optiga/externals/mbedtls/library\aes.c ****  * AES key schedule (decryption)
 670:C:/Users/Yushev/git/wpcqi-optiga-trust-charge/optiga/externals/mbedtls/library\aes.c ****  */
 671:C:/Users/Yushev/git/wpcqi-optiga-trust-charge/optiga/externals/mbedtls/library\aes.c **** #if !defined(MBEDTLS_AES_SETKEY_DEC_ALT)
 672:C:/Users/Yushev/git/wpcqi-optiga-trust-charge/optiga/externals/mbedtls/library\aes.c **** int mbedtls_aes_setkey_dec( mbedtls_aes_context *ctx, const unsigned char *key,
 673:C:/Users/Yushev/git/wpcqi-optiga-trust-charge/optiga/externals/mbedtls/library\aes.c ****                     unsigned int keybits )
 674:C:/Users/Yushev/git/wpcqi-optiga-trust-charge/optiga/externals/mbedtls/library\aes.c **** {
 1253              	 .loc 1 674 0
 1254              	 .cfi_startproc
 1255              	 
 1256              	 
 1257 0000 80B5     	 push {r7,lr}
 1258              	.LCFI21:
 1259              	 .cfi_def_cfa_offset 8
 1260              	 .cfi_offset 7,-8
 1261              	 .cfi_offset 14,-4
 1262 0002 D0B0     	 sub sp,sp,#320
 1263              	.LCFI22:
 1264              	 .cfi_def_cfa_offset 328
 1265 0004 00AF     	 add r7,sp,#0
 1266              	.LCFI23:
 1267              	 .cfi_def_cfa_register 7
 1268 0006 07F10C03 	 add r3,r7,#12
 1269 000a 1860     	 str r0,[r3]
 1270 000c 07F10803 	 add r3,r7,#8
 1271 0010 1960     	 str r1,[r3]
 1272 0012 3B1D     	 adds r3,r7,#4
 1273 0014 1A60     	 str r2,[r3]
 675:C:/Users/Yushev/git/wpcqi-optiga-trust-charge/optiga/externals/mbedtls/library\aes.c ****     int i, j, ret;
 676:C:/Users/Yushev/git/wpcqi-optiga-trust-charge/optiga/externals/mbedtls/library\aes.c ****     mbedtls_aes_context cty;
 677:C:/Users/Yushev/git/wpcqi-optiga-trust-charge/optiga/externals/mbedtls/library\aes.c ****     uint32_t *RK;
 678:C:/Users/Yushev/git/wpcqi-optiga-trust-charge/optiga/externals/mbedtls/library\aes.c ****     uint32_t *SK;
 679:C:/Users/Yushev/git/wpcqi-optiga-trust-charge/optiga/externals/mbedtls/library\aes.c **** 
 680:C:/Users/Yushev/git/wpcqi-optiga-trust-charge/optiga/externals/mbedtls/library\aes.c ****     AES_VALIDATE_RET( ctx != NULL );
 681:C:/Users/Yushev/git/wpcqi-optiga-trust-charge/optiga/externals/mbedtls/library\aes.c ****     AES_VALIDATE_RET( key != NULL );
 682:C:/Users/Yushev/git/wpcqi-optiga-trust-charge/optiga/externals/mbedtls/library\aes.c **** 
 683:C:/Users/Yushev/git/wpcqi-optiga-trust-charge/optiga/externals/mbedtls/library\aes.c ****     mbedtls_aes_init( &cty );
 1274              	 .loc 1 683 0
 1275 0016 07F11403 	 add r3,r7,#20
 1276 001a 1846     	 mov r0,r3
 1277 001c FFF7FEFF 	 bl mbedtls_aes_init
 684:C:/Users/Yushev/git/wpcqi-optiga-trust-charge/optiga/externals/mbedtls/library\aes.c **** 
 685:C:/Users/Yushev/git/wpcqi-optiga-trust-charge/optiga/externals/mbedtls/library\aes.c **** #if defined(MBEDTLS_PADLOCK_C) && defined(MBEDTLS_PADLOCK_ALIGN16)
 686:C:/Users/Yushev/git/wpcqi-optiga-trust-charge/optiga/externals/mbedtls/library\aes.c ****     if( aes_padlock_ace == -1 )
 687:C:/Users/Yushev/git/wpcqi-optiga-trust-charge/optiga/externals/mbedtls/library\aes.c ****         aes_padlock_ace = mbedtls_padlock_has_support( MBEDTLS_PADLOCK_ACE );
 688:C:/Users/Yushev/git/wpcqi-optiga-trust-charge/optiga/externals/mbedtls/library\aes.c **** 
 689:C:/Users/Yushev/git/wpcqi-optiga-trust-charge/optiga/externals/mbedtls/library\aes.c ****     if( aes_padlock_ace )
 690:C:/Users/Yushev/git/wpcqi-optiga-trust-charge/optiga/externals/mbedtls/library\aes.c ****         ctx->rk = RK = MBEDTLS_PADLOCK_ALIGN16( ctx->buf );
 691:C:/Users/Yushev/git/wpcqi-optiga-trust-charge/optiga/externals/mbedtls/library\aes.c ****     else
 692:C:/Users/Yushev/git/wpcqi-optiga-trust-charge/optiga/externals/mbedtls/library\aes.c **** #endif
 693:C:/Users/Yushev/git/wpcqi-optiga-trust-charge/optiga/externals/mbedtls/library\aes.c ****     ctx->rk = RK = ctx->buf;
 1278              	 .loc 1 693 0
 1279 0020 07F10C03 	 add r3,r7,#12
 1280 0024 1B68     	 ldr r3,[r3]
 1281 0026 0833     	 adds r3,r3,#8
 1282 0028 C7F83431 	 str r3,[r7,#308]
 1283 002c 07F10C03 	 add r3,r7,#12
 1284 0030 1B68     	 ldr r3,[r3]
 1285 0032 D7F83421 	 ldr r2,[r7,#308]
 1286 0036 5A60     	 str r2,[r3,#4]
 694:C:/Users/Yushev/git/wpcqi-optiga-trust-charge/optiga/externals/mbedtls/library\aes.c **** 
 695:C:/Users/Yushev/git/wpcqi-optiga-trust-charge/optiga/externals/mbedtls/library\aes.c ****     /* Also checks keybits */
 696:C:/Users/Yushev/git/wpcqi-optiga-trust-charge/optiga/externals/mbedtls/library\aes.c ****     if( ( ret = mbedtls_aes_setkey_enc( &cty, key, keybits ) ) != 0 )
 1287              	 .loc 1 696 0
 1288 0038 07F11401 	 add r1,r7,#20
 1289 003c 07F10802 	 add r2,r7,#8
 1290 0040 3B1D     	 adds r3,r7,#4
 1291 0042 0846     	 mov r0,r1
 1292 0044 1168     	 ldr r1,[r2]
 1293 0046 1A68     	 ldr r2,[r3]
 1294 0048 FFF7FEFF 	 bl mbedtls_aes_setkey_enc
 1295 004c C7F82C01 	 str r0,[r7,#300]
 1296 0050 D7F82C31 	 ldr r3,[r7,#300]
 1297 0054 002B     	 cmp r3,#0
 1298 0056 00D0     	 beq .L56
 697:C:/Users/Yushev/git/wpcqi-optiga-trust-charge/optiga/externals/mbedtls/library\aes.c ****         goto exit;
 1299              	 .loc 1 697 0
 1300 0058 D0E0     	 b .L57
 1301              	.L56:
 698:C:/Users/Yushev/git/wpcqi-optiga-trust-charge/optiga/externals/mbedtls/library\aes.c **** 
 699:C:/Users/Yushev/git/wpcqi-optiga-trust-charge/optiga/externals/mbedtls/library\aes.c ****     ctx->nr = cty.nr;
 1302              	 .loc 1 699 0
 1303 005a 07F11403 	 add r3,r7,#20
 1304 005e 1A68     	 ldr r2,[r3]
 1305 0060 07F10C03 	 add r3,r7,#12
 1306 0064 1B68     	 ldr r3,[r3]
 1307 0066 1A60     	 str r2,[r3]
 700:C:/Users/Yushev/git/wpcqi-optiga-trust-charge/optiga/externals/mbedtls/library\aes.c **** 
 701:C:/Users/Yushev/git/wpcqi-optiga-trust-charge/optiga/externals/mbedtls/library\aes.c **** #if defined(MBEDTLS_AESNI_C) && defined(MBEDTLS_HAVE_X86_64)
 702:C:/Users/Yushev/git/wpcqi-optiga-trust-charge/optiga/externals/mbedtls/library\aes.c ****     if( mbedtls_aesni_has_support( MBEDTLS_AESNI_AES ) )
 703:C:/Users/Yushev/git/wpcqi-optiga-trust-charge/optiga/externals/mbedtls/library\aes.c ****     {
 704:C:/Users/Yushev/git/wpcqi-optiga-trust-charge/optiga/externals/mbedtls/library\aes.c ****         mbedtls_aesni_inverse_key( (unsigned char *) ctx->rk,
 705:C:/Users/Yushev/git/wpcqi-optiga-trust-charge/optiga/externals/mbedtls/library\aes.c ****                            (const unsigned char *) cty.rk, ctx->nr );
 706:C:/Users/Yushev/git/wpcqi-optiga-trust-charge/optiga/externals/mbedtls/library\aes.c ****         goto exit;
 707:C:/Users/Yushev/git/wpcqi-optiga-trust-charge/optiga/externals/mbedtls/library\aes.c ****     }
 708:C:/Users/Yushev/git/wpcqi-optiga-trust-charge/optiga/externals/mbedtls/library\aes.c **** #endif
 709:C:/Users/Yushev/git/wpcqi-optiga-trust-charge/optiga/externals/mbedtls/library\aes.c **** 
 710:C:/Users/Yushev/git/wpcqi-optiga-trust-charge/optiga/externals/mbedtls/library\aes.c ****     SK = cty.rk + cty.nr * 4;
 1308              	 .loc 1 710 0
 1309 0068 07F11403 	 add r3,r7,#20
 1310 006c 5B68     	 ldr r3,[r3,#4]
 1311 006e 07F11402 	 add r2,r7,#20
 1312 0072 1268     	 ldr r2,[r2]
 1313 0074 1201     	 lsls r2,r2,#4
 1314 0076 1344     	 add r3,r3,r2
 1315 0078 C7F83031 	 str r3,[r7,#304]
 711:C:/Users/Yushev/git/wpcqi-optiga-trust-charge/optiga/externals/mbedtls/library\aes.c **** 
 712:C:/Users/Yushev/git/wpcqi-optiga-trust-charge/optiga/externals/mbedtls/library\aes.c ****     *RK++ = *SK++;
 1316              	 .loc 1 712 0
 1317 007c D7F83431 	 ldr r3,[r7,#308]
 1318 0080 1A1D     	 adds r2,r3,#4
 1319 0082 C7F83421 	 str r2,[r7,#308]
 1320 0086 D7F83021 	 ldr r2,[r7,#304]
 1321 008a 111D     	 adds r1,r2,#4
 1322 008c C7F83011 	 str r1,[r7,#304]
 1323 0090 1268     	 ldr r2,[r2]
 1324 0092 1A60     	 str r2,[r3]
 713:C:/Users/Yushev/git/wpcqi-optiga-trust-charge/optiga/externals/mbedtls/library\aes.c ****     *RK++ = *SK++;
 1325              	 .loc 1 713 0
 1326 0094 D7F83431 	 ldr r3,[r7,#308]
 1327 0098 1A1D     	 adds r2,r3,#4
 1328 009a C7F83421 	 str r2,[r7,#308]
 1329 009e D7F83021 	 ldr r2,[r7,#304]
 1330 00a2 111D     	 adds r1,r2,#4
 1331 00a4 C7F83011 	 str r1,[r7,#304]
 1332 00a8 1268     	 ldr r2,[r2]
 1333 00aa 1A60     	 str r2,[r3]
 714:C:/Users/Yushev/git/wpcqi-optiga-trust-charge/optiga/externals/mbedtls/library\aes.c ****     *RK++ = *SK++;
 1334              	 .loc 1 714 0
 1335 00ac D7F83431 	 ldr r3,[r7,#308]
 1336 00b0 1A1D     	 adds r2,r3,#4
 1337 00b2 C7F83421 	 str r2,[r7,#308]
 1338 00b6 D7F83021 	 ldr r2,[r7,#304]
 1339 00ba 111D     	 adds r1,r2,#4
 1340 00bc C7F83011 	 str r1,[r7,#304]
 1341 00c0 1268     	 ldr r2,[r2]
 1342 00c2 1A60     	 str r2,[r3]
 715:C:/Users/Yushev/git/wpcqi-optiga-trust-charge/optiga/externals/mbedtls/library\aes.c ****     *RK++ = *SK++;
 1343              	 .loc 1 715 0
 1344 00c4 D7F83431 	 ldr r3,[r7,#308]
 1345 00c8 1A1D     	 adds r2,r3,#4
 1346 00ca C7F83421 	 str r2,[r7,#308]
 1347 00ce D7F83021 	 ldr r2,[r7,#304]
 1348 00d2 111D     	 adds r1,r2,#4
 1349 00d4 C7F83011 	 str r1,[r7,#304]
 1350 00d8 1268     	 ldr r2,[r2]
 1351 00da 1A60     	 str r2,[r3]
 716:C:/Users/Yushev/git/wpcqi-optiga-trust-charge/optiga/externals/mbedtls/library\aes.c **** 
 717:C:/Users/Yushev/git/wpcqi-optiga-trust-charge/optiga/externals/mbedtls/library\aes.c ****     for( i = ctx->nr - 1, SK -= 8; i > 0; i--, SK -= 8 )
 1352              	 .loc 1 717 0
 1353 00dc 07F10C03 	 add r3,r7,#12
 1354 00e0 1B68     	 ldr r3,[r3]
 1355 00e2 1B68     	 ldr r3,[r3]
 1356 00e4 013B     	 subs r3,r3,#1
 1357 00e6 C7F83C31 	 str r3,[r7,#316]
 1358 00ea D7F83031 	 ldr r3,[r7,#304]
 1359 00ee 203B     	 subs r3,r3,#32
 1360 00f0 C7F83031 	 str r3,[r7,#304]
 1361 00f4 4EE0     	 b .L58
 1362              	.L61:
 718:C:/Users/Yushev/git/wpcqi-optiga-trust-charge/optiga/externals/mbedtls/library\aes.c ****     {
 719:C:/Users/Yushev/git/wpcqi-optiga-trust-charge/optiga/externals/mbedtls/library\aes.c ****         for( j = 0; j < 4; j++, SK++ )
 1363              	 .loc 1 719 0
 1364 00f6 0023     	 movs r3,#0
 1365 00f8 C7F83831 	 str r3,[r7,#312]
 1366 00fc 3CE0     	 b .L59
 1367              	.L60:
 720:C:/Users/Yushev/git/wpcqi-optiga-trust-charge/optiga/externals/mbedtls/library\aes.c ****         {
 721:C:/Users/Yushev/git/wpcqi-optiga-trust-charge/optiga/externals/mbedtls/library\aes.c ****             *RK++ = AES_RT0( FSb[ ( *SK       ) & 0xFF ] ) ^
 1368              	 .loc 1 721 0 discriminator 3
 1369 00fe D7F83431 	 ldr r3,[r7,#308]
 1370 0102 1A1D     	 adds r2,r3,#4
 1371 0104 C7F83421 	 str r2,[r7,#308]
 1372 0108 D7F83021 	 ldr r2,[r7,#304]
 1373 010c 1268     	 ldr r2,[r2]
 1374 010e D2B2     	 uxtb r2,r2
 1375 0110 4049     	 ldr r1,.L63
 1376 0112 8A5C     	 ldrb r2,[r1,r2]
 1377 0114 1146     	 mov r1,r2
 1378 0116 404A     	 ldr r2,.L63+4
 1379 0118 52F82110 	 ldr r1,[r2,r1,lsl#2]
 722:C:/Users/Yushev/git/wpcqi-optiga-trust-charge/optiga/externals/mbedtls/library\aes.c ****                     AES_RT1( FSb[ ( *SK >>  8 ) & 0xFF ] ) ^
 1380              	 .loc 1 722 0 discriminator 3
 1381 011c D7F83021 	 ldr r2,[r7,#304]
 1382 0120 1268     	 ldr r2,[r2]
 1383 0122 120A     	 lsrs r2,r2,#8
 1384 0124 D2B2     	 uxtb r2,r2
 1385 0126 3B48     	 ldr r0,.L63
 1386 0128 825C     	 ldrb r2,[r0,r2]
 1387 012a 1046     	 mov r0,r2
 1388 012c 3B4A     	 ldr r2,.L63+8
 1389 012e 52F82020 	 ldr r2,[r2,r0,lsl#2]
 721:C:/Users/Yushev/git/wpcqi-optiga-trust-charge/optiga/externals/mbedtls/library\aes.c ****                     AES_RT1( FSb[ ( *SK >>  8 ) & 0xFF ] ) ^
 1390              	 .loc 1 721 0 discriminator 3
 1391 0132 5140     	 eors r1,r1,r2
 723:C:/Users/Yushev/git/wpcqi-optiga-trust-charge/optiga/externals/mbedtls/library\aes.c ****                     AES_RT2( FSb[ ( *SK >> 16 ) & 0xFF ] ) ^
 1392              	 .loc 1 723 0 discriminator 3
 1393 0134 D7F83021 	 ldr r2,[r7,#304]
 1394 0138 1268     	 ldr r2,[r2]
 1395 013a 120C     	 lsrs r2,r2,#16
 1396 013c D2B2     	 uxtb r2,r2
 1397 013e 3548     	 ldr r0,.L63
 1398 0140 825C     	 ldrb r2,[r0,r2]
 1399 0142 1046     	 mov r0,r2
 1400 0144 364A     	 ldr r2,.L63+12
 1401 0146 52F82020 	 ldr r2,[r2,r0,lsl#2]
 722:C:/Users/Yushev/git/wpcqi-optiga-trust-charge/optiga/externals/mbedtls/library\aes.c ****                     AES_RT1( FSb[ ( *SK >>  8 ) & 0xFF ] ) ^
 1402              	 .loc 1 722 0 discriminator 3
 1403 014a 5140     	 eors r1,r1,r2
 724:C:/Users/Yushev/git/wpcqi-optiga-trust-charge/optiga/externals/mbedtls/library\aes.c ****                     AES_RT3( FSb[ ( *SK >> 24 ) & 0xFF ] );
 1404              	 .loc 1 724 0 discriminator 3
 1405 014c D7F83021 	 ldr r2,[r7,#304]
 1406 0150 1268     	 ldr r2,[r2]
 1407 0152 120E     	 lsrs r2,r2,#24
 1408 0154 2F48     	 ldr r0,.L63
 1409 0156 825C     	 ldrb r2,[r0,r2]
 1410 0158 1046     	 mov r0,r2
 1411 015a 324A     	 ldr r2,.L63+16
 1412 015c 52F82020 	 ldr r2,[r2,r0,lsl#2]
 723:C:/Users/Yushev/git/wpcqi-optiga-trust-charge/optiga/externals/mbedtls/library\aes.c ****                     AES_RT2( FSb[ ( *SK >> 16 ) & 0xFF ] ) ^
 1413              	 .loc 1 723 0 discriminator 3
 1414 0160 4A40     	 eors r2,r2,r1
 721:C:/Users/Yushev/git/wpcqi-optiga-trust-charge/optiga/externals/mbedtls/library\aes.c ****                     AES_RT1( FSb[ ( *SK >>  8 ) & 0xFF ] ) ^
 1415              	 .loc 1 721 0 discriminator 3
 1416 0162 1A60     	 str r2,[r3]
 719:C:/Users/Yushev/git/wpcqi-optiga-trust-charge/optiga/externals/mbedtls/library\aes.c ****         {
 1417              	 .loc 1 719 0 discriminator 3
 1418 0164 D7F83831 	 ldr r3,[r7,#312]
 1419 0168 0133     	 adds r3,r3,#1
 1420 016a C7F83831 	 str r3,[r7,#312]
 1421 016e D7F83031 	 ldr r3,[r7,#304]
 1422 0172 0433     	 adds r3,r3,#4
 1423 0174 C7F83031 	 str r3,[r7,#304]
 1424              	.L59:
 719:C:/Users/Yushev/git/wpcqi-optiga-trust-charge/optiga/externals/mbedtls/library\aes.c ****         {
 1425              	 .loc 1 719 0 is_stmt 0 discriminator 1
 1426 0178 D7F83831 	 ldr r3,[r7,#312]
 1427 017c 032B     	 cmp r3,#3
 1428 017e BEDD     	 ble .L60
 717:C:/Users/Yushev/git/wpcqi-optiga-trust-charge/optiga/externals/mbedtls/library\aes.c ****     {
 1429              	 .loc 1 717 0 is_stmt 1 discriminator 2
 1430 0180 D7F83C31 	 ldr r3,[r7,#316]
 1431 0184 013B     	 subs r3,r3,#1
 1432 0186 C7F83C31 	 str r3,[r7,#316]
 1433 018a D7F83031 	 ldr r3,[r7,#304]
 1434 018e 203B     	 subs r3,r3,#32
 1435 0190 C7F83031 	 str r3,[r7,#304]
 1436              	.L58:
 717:C:/Users/Yushev/git/wpcqi-optiga-trust-charge/optiga/externals/mbedtls/library\aes.c ****     {
 1437              	 .loc 1 717 0 is_stmt 0 discriminator 1
 1438 0194 D7F83C31 	 ldr r3,[r7,#316]
 1439 0198 002B     	 cmp r3,#0
 1440 019a ACDC     	 bgt .L61
 725:C:/Users/Yushev/git/wpcqi-optiga-trust-charge/optiga/externals/mbedtls/library\aes.c ****         }
 726:C:/Users/Yushev/git/wpcqi-optiga-trust-charge/optiga/externals/mbedtls/library\aes.c ****     }
 727:C:/Users/Yushev/git/wpcqi-optiga-trust-charge/optiga/externals/mbedtls/library\aes.c **** 
 728:C:/Users/Yushev/git/wpcqi-optiga-trust-charge/optiga/externals/mbedtls/library\aes.c ****     *RK++ = *SK++;
 1441              	 .loc 1 728 0 is_stmt 1
 1442 019c D7F83431 	 ldr r3,[r7,#308]
 1443 01a0 1A1D     	 adds r2,r3,#4
 1444 01a2 C7F83421 	 str r2,[r7,#308]
 1445 01a6 D7F83021 	 ldr r2,[r7,#304]
 1446 01aa 111D     	 adds r1,r2,#4
 1447 01ac C7F83011 	 str r1,[r7,#304]
 1448 01b0 1268     	 ldr r2,[r2]
 1449 01b2 1A60     	 str r2,[r3]
 729:C:/Users/Yushev/git/wpcqi-optiga-trust-charge/optiga/externals/mbedtls/library\aes.c ****     *RK++ = *SK++;
 1450              	 .loc 1 729 0
 1451 01b4 D7F83431 	 ldr r3,[r7,#308]
 1452 01b8 1A1D     	 adds r2,r3,#4
 1453 01ba C7F83421 	 str r2,[r7,#308]
 1454 01be D7F83021 	 ldr r2,[r7,#304]
 1455 01c2 111D     	 adds r1,r2,#4
 1456 01c4 C7F83011 	 str r1,[r7,#304]
 1457 01c8 1268     	 ldr r2,[r2]
 1458 01ca 1A60     	 str r2,[r3]
 730:C:/Users/Yushev/git/wpcqi-optiga-trust-charge/optiga/externals/mbedtls/library\aes.c ****     *RK++ = *SK++;
 1459              	 .loc 1 730 0
 1460 01cc D7F83431 	 ldr r3,[r7,#308]
 1461 01d0 1A1D     	 adds r2,r3,#4
 1462 01d2 C7F83421 	 str r2,[r7,#308]
 1463 01d6 D7F83021 	 ldr r2,[r7,#304]
 1464 01da 111D     	 adds r1,r2,#4
 1465 01dc C7F83011 	 str r1,[r7,#304]
 1466 01e0 1268     	 ldr r2,[r2]
 1467 01e2 1A60     	 str r2,[r3]
 731:C:/Users/Yushev/git/wpcqi-optiga-trust-charge/optiga/externals/mbedtls/library\aes.c ****     *RK++ = *SK++;
 1468              	 .loc 1 731 0
 1469 01e4 D7F83431 	 ldr r3,[r7,#308]
 1470 01e8 1A1D     	 adds r2,r3,#4
 1471 01ea C7F83421 	 str r2,[r7,#308]
 1472 01ee D7F83021 	 ldr r2,[r7,#304]
 1473 01f2 111D     	 adds r1,r2,#4
 1474 01f4 C7F83011 	 str r1,[r7,#304]
 1475 01f8 1268     	 ldr r2,[r2]
 1476 01fa 1A60     	 str r2,[r3]
 1477              	.L57:
 732:C:/Users/Yushev/git/wpcqi-optiga-trust-charge/optiga/externals/mbedtls/library\aes.c **** 
 733:C:/Users/Yushev/git/wpcqi-optiga-trust-charge/optiga/externals/mbedtls/library\aes.c **** exit:
 734:C:/Users/Yushev/git/wpcqi-optiga-trust-charge/optiga/externals/mbedtls/library\aes.c ****     mbedtls_aes_free( &cty );
 1478              	 .loc 1 734 0
 1479 01fc 07F11403 	 add r3,r7,#20
 1480 0200 1846     	 mov r0,r3
 1481 0202 FFF7FEFF 	 bl mbedtls_aes_free
 735:C:/Users/Yushev/git/wpcqi-optiga-trust-charge/optiga/externals/mbedtls/library\aes.c **** 
 736:C:/Users/Yushev/git/wpcqi-optiga-trust-charge/optiga/externals/mbedtls/library\aes.c ****     return( ret );
 1482              	 .loc 1 736 0
 1483 0206 D7F82C31 	 ldr r3,[r7,#300]
 737:C:/Users/Yushev/git/wpcqi-optiga-trust-charge/optiga/externals/mbedtls/library\aes.c **** }
 1484              	 .loc 1 737 0
 1485 020a 1846     	 mov r0,r3
 1486 020c 07F5A077 	 add r7,r7,#320
 1487              	.LCFI24:
 1488              	 .cfi_def_cfa_offset 8
 1489 0210 BD46     	 mov sp,r7
 1490              	.LCFI25:
 1491              	 .cfi_def_cfa_register 13
 1492              	 
 1493 0212 80BD     	 pop {r7,pc}
 1494              	.L64:
 1495              	 .align 2
 1496              	.L63:
 1497 0214 00000000 	 .word FSb
 1498 0218 00000000 	 .word RT0
 1499 021c 00000000 	 .word RT1
 1500 0220 00000000 	 .word RT2
 1501 0224 00000000 	 .word RT3
 1502              	 .cfi_endproc
 1503              	.LFE4:
 1505              	 .section .text.mbedtls_internal_aes_encrypt,"ax",%progbits
 1506              	 .align 2
 1507              	 .global mbedtls_internal_aes_encrypt
 1508              	 .thumb
 1509              	 .thumb_func
 1511              	mbedtls_internal_aes_encrypt:
 1512              	.LFB5:
 738:C:/Users/Yushev/git/wpcqi-optiga-trust-charge/optiga/externals/mbedtls/library\aes.c **** 
 739:C:/Users/Yushev/git/wpcqi-optiga-trust-charge/optiga/externals/mbedtls/library\aes.c **** #if defined(MBEDTLS_CIPHER_MODE_XTS)
 740:C:/Users/Yushev/git/wpcqi-optiga-trust-charge/optiga/externals/mbedtls/library\aes.c **** static int mbedtls_aes_xts_decode_keys( const unsigned char *key,
 741:C:/Users/Yushev/git/wpcqi-optiga-trust-charge/optiga/externals/mbedtls/library\aes.c ****                                         unsigned int keybits,
 742:C:/Users/Yushev/git/wpcqi-optiga-trust-charge/optiga/externals/mbedtls/library\aes.c ****                                         const unsigned char **key1,
 743:C:/Users/Yushev/git/wpcqi-optiga-trust-charge/optiga/externals/mbedtls/library\aes.c ****                                         unsigned int *key1bits,
 744:C:/Users/Yushev/git/wpcqi-optiga-trust-charge/optiga/externals/mbedtls/library\aes.c ****                                         const unsigned char **key2,
 745:C:/Users/Yushev/git/wpcqi-optiga-trust-charge/optiga/externals/mbedtls/library\aes.c ****                                         unsigned int *key2bits )
 746:C:/Users/Yushev/git/wpcqi-optiga-trust-charge/optiga/externals/mbedtls/library\aes.c **** {
 747:C:/Users/Yushev/git/wpcqi-optiga-trust-charge/optiga/externals/mbedtls/library\aes.c ****     const unsigned int half_keybits = keybits / 2;
 748:C:/Users/Yushev/git/wpcqi-optiga-trust-charge/optiga/externals/mbedtls/library\aes.c ****     const unsigned int half_keybytes = half_keybits / 8;
 749:C:/Users/Yushev/git/wpcqi-optiga-trust-charge/optiga/externals/mbedtls/library\aes.c **** 
 750:C:/Users/Yushev/git/wpcqi-optiga-trust-charge/optiga/externals/mbedtls/library\aes.c ****     switch( keybits )
 751:C:/Users/Yushev/git/wpcqi-optiga-trust-charge/optiga/externals/mbedtls/library\aes.c ****     {
 752:C:/Users/Yushev/git/wpcqi-optiga-trust-charge/optiga/externals/mbedtls/library\aes.c ****         case 256: break;
 753:C:/Users/Yushev/git/wpcqi-optiga-trust-charge/optiga/externals/mbedtls/library\aes.c ****         case 512: break;
 754:C:/Users/Yushev/git/wpcqi-optiga-trust-charge/optiga/externals/mbedtls/library\aes.c ****         default : return( MBEDTLS_ERR_AES_INVALID_KEY_LENGTH );
 755:C:/Users/Yushev/git/wpcqi-optiga-trust-charge/optiga/externals/mbedtls/library\aes.c ****     }
 756:C:/Users/Yushev/git/wpcqi-optiga-trust-charge/optiga/externals/mbedtls/library\aes.c **** 
 757:C:/Users/Yushev/git/wpcqi-optiga-trust-charge/optiga/externals/mbedtls/library\aes.c ****     *key1bits = half_keybits;
 758:C:/Users/Yushev/git/wpcqi-optiga-trust-charge/optiga/externals/mbedtls/library\aes.c ****     *key2bits = half_keybits;
 759:C:/Users/Yushev/git/wpcqi-optiga-trust-charge/optiga/externals/mbedtls/library\aes.c ****     *key1 = &key[0];
 760:C:/Users/Yushev/git/wpcqi-optiga-trust-charge/optiga/externals/mbedtls/library\aes.c ****     *key2 = &key[half_keybytes];
 761:C:/Users/Yushev/git/wpcqi-optiga-trust-charge/optiga/externals/mbedtls/library\aes.c **** 
 762:C:/Users/Yushev/git/wpcqi-optiga-trust-charge/optiga/externals/mbedtls/library\aes.c ****     return 0;
 763:C:/Users/Yushev/git/wpcqi-optiga-trust-charge/optiga/externals/mbedtls/library\aes.c **** }
 764:C:/Users/Yushev/git/wpcqi-optiga-trust-charge/optiga/externals/mbedtls/library\aes.c **** 
 765:C:/Users/Yushev/git/wpcqi-optiga-trust-charge/optiga/externals/mbedtls/library\aes.c **** int mbedtls_aes_xts_setkey_enc( mbedtls_aes_xts_context *ctx,
 766:C:/Users/Yushev/git/wpcqi-optiga-trust-charge/optiga/externals/mbedtls/library\aes.c ****                                 const unsigned char *key,
 767:C:/Users/Yushev/git/wpcqi-optiga-trust-charge/optiga/externals/mbedtls/library\aes.c ****                                 unsigned int keybits)
 768:C:/Users/Yushev/git/wpcqi-optiga-trust-charge/optiga/externals/mbedtls/library\aes.c **** {
 769:C:/Users/Yushev/git/wpcqi-optiga-trust-charge/optiga/externals/mbedtls/library\aes.c ****     int ret;
 770:C:/Users/Yushev/git/wpcqi-optiga-trust-charge/optiga/externals/mbedtls/library\aes.c ****     const unsigned char *key1, *key2;
 771:C:/Users/Yushev/git/wpcqi-optiga-trust-charge/optiga/externals/mbedtls/library\aes.c ****     unsigned int key1bits, key2bits;
 772:C:/Users/Yushev/git/wpcqi-optiga-trust-charge/optiga/externals/mbedtls/library\aes.c **** 
 773:C:/Users/Yushev/git/wpcqi-optiga-trust-charge/optiga/externals/mbedtls/library\aes.c ****     AES_VALIDATE_RET( ctx != NULL );
 774:C:/Users/Yushev/git/wpcqi-optiga-trust-charge/optiga/externals/mbedtls/library\aes.c ****     AES_VALIDATE_RET( key != NULL );
 775:C:/Users/Yushev/git/wpcqi-optiga-trust-charge/optiga/externals/mbedtls/library\aes.c **** 
 776:C:/Users/Yushev/git/wpcqi-optiga-trust-charge/optiga/externals/mbedtls/library\aes.c ****     ret = mbedtls_aes_xts_decode_keys( key, keybits, &key1, &key1bits,
 777:C:/Users/Yushev/git/wpcqi-optiga-trust-charge/optiga/externals/mbedtls/library\aes.c ****                                        &key2, &key2bits );
 778:C:/Users/Yushev/git/wpcqi-optiga-trust-charge/optiga/externals/mbedtls/library\aes.c ****     if( ret != 0 )
 779:C:/Users/Yushev/git/wpcqi-optiga-trust-charge/optiga/externals/mbedtls/library\aes.c ****         return( ret );
 780:C:/Users/Yushev/git/wpcqi-optiga-trust-charge/optiga/externals/mbedtls/library\aes.c **** 
 781:C:/Users/Yushev/git/wpcqi-optiga-trust-charge/optiga/externals/mbedtls/library\aes.c ****     /* Set the tweak key. Always set tweak key for the encryption mode. */
 782:C:/Users/Yushev/git/wpcqi-optiga-trust-charge/optiga/externals/mbedtls/library\aes.c ****     ret = mbedtls_aes_setkey_enc( &ctx->tweak, key2, key2bits );
 783:C:/Users/Yushev/git/wpcqi-optiga-trust-charge/optiga/externals/mbedtls/library\aes.c ****     if( ret != 0 )
 784:C:/Users/Yushev/git/wpcqi-optiga-trust-charge/optiga/externals/mbedtls/library\aes.c ****         return( ret );
 785:C:/Users/Yushev/git/wpcqi-optiga-trust-charge/optiga/externals/mbedtls/library\aes.c **** 
 786:C:/Users/Yushev/git/wpcqi-optiga-trust-charge/optiga/externals/mbedtls/library\aes.c ****     /* Set crypt key for encryption. */
 787:C:/Users/Yushev/git/wpcqi-optiga-trust-charge/optiga/externals/mbedtls/library\aes.c ****     return mbedtls_aes_setkey_enc( &ctx->crypt, key1, key1bits );
 788:C:/Users/Yushev/git/wpcqi-optiga-trust-charge/optiga/externals/mbedtls/library\aes.c **** }
 789:C:/Users/Yushev/git/wpcqi-optiga-trust-charge/optiga/externals/mbedtls/library\aes.c **** 
 790:C:/Users/Yushev/git/wpcqi-optiga-trust-charge/optiga/externals/mbedtls/library\aes.c **** int mbedtls_aes_xts_setkey_dec( mbedtls_aes_xts_context *ctx,
 791:C:/Users/Yushev/git/wpcqi-optiga-trust-charge/optiga/externals/mbedtls/library\aes.c ****                                 const unsigned char *key,
 792:C:/Users/Yushev/git/wpcqi-optiga-trust-charge/optiga/externals/mbedtls/library\aes.c ****                                 unsigned int keybits)
 793:C:/Users/Yushev/git/wpcqi-optiga-trust-charge/optiga/externals/mbedtls/library\aes.c **** {
 794:C:/Users/Yushev/git/wpcqi-optiga-trust-charge/optiga/externals/mbedtls/library\aes.c ****     int ret;
 795:C:/Users/Yushev/git/wpcqi-optiga-trust-charge/optiga/externals/mbedtls/library\aes.c ****     const unsigned char *key1, *key2;
 796:C:/Users/Yushev/git/wpcqi-optiga-trust-charge/optiga/externals/mbedtls/library\aes.c ****     unsigned int key1bits, key2bits;
 797:C:/Users/Yushev/git/wpcqi-optiga-trust-charge/optiga/externals/mbedtls/library\aes.c **** 
 798:C:/Users/Yushev/git/wpcqi-optiga-trust-charge/optiga/externals/mbedtls/library\aes.c ****     AES_VALIDATE_RET( ctx != NULL );
 799:C:/Users/Yushev/git/wpcqi-optiga-trust-charge/optiga/externals/mbedtls/library\aes.c ****     AES_VALIDATE_RET( key != NULL );
 800:C:/Users/Yushev/git/wpcqi-optiga-trust-charge/optiga/externals/mbedtls/library\aes.c **** 
 801:C:/Users/Yushev/git/wpcqi-optiga-trust-charge/optiga/externals/mbedtls/library\aes.c ****     ret = mbedtls_aes_xts_decode_keys( key, keybits, &key1, &key1bits,
 802:C:/Users/Yushev/git/wpcqi-optiga-trust-charge/optiga/externals/mbedtls/library\aes.c ****                                        &key2, &key2bits );
 803:C:/Users/Yushev/git/wpcqi-optiga-trust-charge/optiga/externals/mbedtls/library\aes.c ****     if( ret != 0 )
 804:C:/Users/Yushev/git/wpcqi-optiga-trust-charge/optiga/externals/mbedtls/library\aes.c ****         return( ret );
 805:C:/Users/Yushev/git/wpcqi-optiga-trust-charge/optiga/externals/mbedtls/library\aes.c **** 
 806:C:/Users/Yushev/git/wpcqi-optiga-trust-charge/optiga/externals/mbedtls/library\aes.c ****     /* Set the tweak key. Always set tweak key for encryption. */
 807:C:/Users/Yushev/git/wpcqi-optiga-trust-charge/optiga/externals/mbedtls/library\aes.c ****     ret = mbedtls_aes_setkey_enc( &ctx->tweak, key2, key2bits );
 808:C:/Users/Yushev/git/wpcqi-optiga-trust-charge/optiga/externals/mbedtls/library\aes.c ****     if( ret != 0 )
 809:C:/Users/Yushev/git/wpcqi-optiga-trust-charge/optiga/externals/mbedtls/library\aes.c ****         return( ret );
 810:C:/Users/Yushev/git/wpcqi-optiga-trust-charge/optiga/externals/mbedtls/library\aes.c **** 
 811:C:/Users/Yushev/git/wpcqi-optiga-trust-charge/optiga/externals/mbedtls/library\aes.c ****     /* Set crypt key for decryption. */
 812:C:/Users/Yushev/git/wpcqi-optiga-trust-charge/optiga/externals/mbedtls/library\aes.c ****     return mbedtls_aes_setkey_dec( &ctx->crypt, key1, key1bits );
 813:C:/Users/Yushev/git/wpcqi-optiga-trust-charge/optiga/externals/mbedtls/library\aes.c **** }
 814:C:/Users/Yushev/git/wpcqi-optiga-trust-charge/optiga/externals/mbedtls/library\aes.c **** #endif /* MBEDTLS_CIPHER_MODE_XTS */
 815:C:/Users/Yushev/git/wpcqi-optiga-trust-charge/optiga/externals/mbedtls/library\aes.c **** 
 816:C:/Users/Yushev/git/wpcqi-optiga-trust-charge/optiga/externals/mbedtls/library\aes.c **** #endif /* !MBEDTLS_AES_SETKEY_DEC_ALT */
 817:C:/Users/Yushev/git/wpcqi-optiga-trust-charge/optiga/externals/mbedtls/library\aes.c **** 
 818:C:/Users/Yushev/git/wpcqi-optiga-trust-charge/optiga/externals/mbedtls/library\aes.c **** #define AES_FROUND(X0,X1,X2,X3,Y0,Y1,Y2,Y3)         \
 819:C:/Users/Yushev/git/wpcqi-optiga-trust-charge/optiga/externals/mbedtls/library\aes.c **** {                                                   \
 820:C:/Users/Yushev/git/wpcqi-optiga-trust-charge/optiga/externals/mbedtls/library\aes.c ****     X0 = *RK++ ^ AES_FT0( ( Y0       ) & 0xFF ) ^   \
 821:C:/Users/Yushev/git/wpcqi-optiga-trust-charge/optiga/externals/mbedtls/library\aes.c ****                  AES_FT1( ( Y1 >>  8 ) & 0xFF ) ^   \
 822:C:/Users/Yushev/git/wpcqi-optiga-trust-charge/optiga/externals/mbedtls/library\aes.c ****                  AES_FT2( ( Y2 >> 16 ) & 0xFF ) ^   \
 823:C:/Users/Yushev/git/wpcqi-optiga-trust-charge/optiga/externals/mbedtls/library\aes.c ****                  AES_FT3( ( Y3 >> 24 ) & 0xFF );    \
 824:C:/Users/Yushev/git/wpcqi-optiga-trust-charge/optiga/externals/mbedtls/library\aes.c ****                                                     \
 825:C:/Users/Yushev/git/wpcqi-optiga-trust-charge/optiga/externals/mbedtls/library\aes.c ****     X1 = *RK++ ^ AES_FT0( ( Y1       ) & 0xFF ) ^   \
 826:C:/Users/Yushev/git/wpcqi-optiga-trust-charge/optiga/externals/mbedtls/library\aes.c ****                  AES_FT1( ( Y2 >>  8 ) & 0xFF ) ^   \
 827:C:/Users/Yushev/git/wpcqi-optiga-trust-charge/optiga/externals/mbedtls/library\aes.c ****                  AES_FT2( ( Y3 >> 16 ) & 0xFF ) ^   \
 828:C:/Users/Yushev/git/wpcqi-optiga-trust-charge/optiga/externals/mbedtls/library\aes.c ****                  AES_FT3( ( Y0 >> 24 ) & 0xFF );    \
 829:C:/Users/Yushev/git/wpcqi-optiga-trust-charge/optiga/externals/mbedtls/library\aes.c ****                                                     \
 830:C:/Users/Yushev/git/wpcqi-optiga-trust-charge/optiga/externals/mbedtls/library\aes.c ****     X2 = *RK++ ^ AES_FT0( ( Y2       ) & 0xFF ) ^   \
 831:C:/Users/Yushev/git/wpcqi-optiga-trust-charge/optiga/externals/mbedtls/library\aes.c ****                  AES_FT1( ( Y3 >>  8 ) & 0xFF ) ^   \
 832:C:/Users/Yushev/git/wpcqi-optiga-trust-charge/optiga/externals/mbedtls/library\aes.c ****                  AES_FT2( ( Y0 >> 16 ) & 0xFF ) ^   \
 833:C:/Users/Yushev/git/wpcqi-optiga-trust-charge/optiga/externals/mbedtls/library\aes.c ****                  AES_FT3( ( Y1 >> 24 ) & 0xFF );    \
 834:C:/Users/Yushev/git/wpcqi-optiga-trust-charge/optiga/externals/mbedtls/library\aes.c ****                                                     \
 835:C:/Users/Yushev/git/wpcqi-optiga-trust-charge/optiga/externals/mbedtls/library\aes.c ****     X3 = *RK++ ^ AES_FT0( ( Y3       ) & 0xFF ) ^   \
 836:C:/Users/Yushev/git/wpcqi-optiga-trust-charge/optiga/externals/mbedtls/library\aes.c ****                  AES_FT1( ( Y0 >>  8 ) & 0xFF ) ^   \
 837:C:/Users/Yushev/git/wpcqi-optiga-trust-charge/optiga/externals/mbedtls/library\aes.c ****                  AES_FT2( ( Y1 >> 16 ) & 0xFF ) ^   \
 838:C:/Users/Yushev/git/wpcqi-optiga-trust-charge/optiga/externals/mbedtls/library\aes.c ****                  AES_FT3( ( Y2 >> 24 ) & 0xFF );    \
 839:C:/Users/Yushev/git/wpcqi-optiga-trust-charge/optiga/externals/mbedtls/library\aes.c **** }
 840:C:/Users/Yushev/git/wpcqi-optiga-trust-charge/optiga/externals/mbedtls/library\aes.c **** 
 841:C:/Users/Yushev/git/wpcqi-optiga-trust-charge/optiga/externals/mbedtls/library\aes.c **** #define AES_RROUND(X0,X1,X2,X3,Y0,Y1,Y2,Y3)         \
 842:C:/Users/Yushev/git/wpcqi-optiga-trust-charge/optiga/externals/mbedtls/library\aes.c **** {                                                   \
 843:C:/Users/Yushev/git/wpcqi-optiga-trust-charge/optiga/externals/mbedtls/library\aes.c ****     X0 = *RK++ ^ AES_RT0( ( Y0       ) & 0xFF ) ^   \
 844:C:/Users/Yushev/git/wpcqi-optiga-trust-charge/optiga/externals/mbedtls/library\aes.c ****                  AES_RT1( ( Y3 >>  8 ) & 0xFF ) ^   \
 845:C:/Users/Yushev/git/wpcqi-optiga-trust-charge/optiga/externals/mbedtls/library\aes.c ****                  AES_RT2( ( Y2 >> 16 ) & 0xFF ) ^   \
 846:C:/Users/Yushev/git/wpcqi-optiga-trust-charge/optiga/externals/mbedtls/library\aes.c ****                  AES_RT3( ( Y1 >> 24 ) & 0xFF );    \
 847:C:/Users/Yushev/git/wpcqi-optiga-trust-charge/optiga/externals/mbedtls/library\aes.c ****                                                     \
 848:C:/Users/Yushev/git/wpcqi-optiga-trust-charge/optiga/externals/mbedtls/library\aes.c ****     X1 = *RK++ ^ AES_RT0( ( Y1       ) & 0xFF ) ^   \
 849:C:/Users/Yushev/git/wpcqi-optiga-trust-charge/optiga/externals/mbedtls/library\aes.c ****                  AES_RT1( ( Y0 >>  8 ) & 0xFF ) ^   \
 850:C:/Users/Yushev/git/wpcqi-optiga-trust-charge/optiga/externals/mbedtls/library\aes.c ****                  AES_RT2( ( Y3 >> 16 ) & 0xFF ) ^   \
 851:C:/Users/Yushev/git/wpcqi-optiga-trust-charge/optiga/externals/mbedtls/library\aes.c ****                  AES_RT3( ( Y2 >> 24 ) & 0xFF );    \
 852:C:/Users/Yushev/git/wpcqi-optiga-trust-charge/optiga/externals/mbedtls/library\aes.c ****                                                     \
 853:C:/Users/Yushev/git/wpcqi-optiga-trust-charge/optiga/externals/mbedtls/library\aes.c ****     X2 = *RK++ ^ AES_RT0( ( Y2       ) & 0xFF ) ^   \
 854:C:/Users/Yushev/git/wpcqi-optiga-trust-charge/optiga/externals/mbedtls/library\aes.c ****                  AES_RT1( ( Y1 >>  8 ) & 0xFF ) ^   \
 855:C:/Users/Yushev/git/wpcqi-optiga-trust-charge/optiga/externals/mbedtls/library\aes.c ****                  AES_RT2( ( Y0 >> 16 ) & 0xFF ) ^   \
 856:C:/Users/Yushev/git/wpcqi-optiga-trust-charge/optiga/externals/mbedtls/library\aes.c ****                  AES_RT3( ( Y3 >> 24 ) & 0xFF );    \
 857:C:/Users/Yushev/git/wpcqi-optiga-trust-charge/optiga/externals/mbedtls/library\aes.c ****                                                     \
 858:C:/Users/Yushev/git/wpcqi-optiga-trust-charge/optiga/externals/mbedtls/library\aes.c ****     X3 = *RK++ ^ AES_RT0( ( Y3       ) & 0xFF ) ^   \
 859:C:/Users/Yushev/git/wpcqi-optiga-trust-charge/optiga/externals/mbedtls/library\aes.c ****                  AES_RT1( ( Y2 >>  8 ) & 0xFF ) ^   \
 860:C:/Users/Yushev/git/wpcqi-optiga-trust-charge/optiga/externals/mbedtls/library\aes.c ****                  AES_RT2( ( Y1 >> 16 ) & 0xFF ) ^   \
 861:C:/Users/Yushev/git/wpcqi-optiga-trust-charge/optiga/externals/mbedtls/library\aes.c ****                  AES_RT3( ( Y0 >> 24 ) & 0xFF );    \
 862:C:/Users/Yushev/git/wpcqi-optiga-trust-charge/optiga/externals/mbedtls/library\aes.c **** }
 863:C:/Users/Yushev/git/wpcqi-optiga-trust-charge/optiga/externals/mbedtls/library\aes.c **** 
 864:C:/Users/Yushev/git/wpcqi-optiga-trust-charge/optiga/externals/mbedtls/library\aes.c **** /*
 865:C:/Users/Yushev/git/wpcqi-optiga-trust-charge/optiga/externals/mbedtls/library\aes.c ****  * AES-ECB block encryption
 866:C:/Users/Yushev/git/wpcqi-optiga-trust-charge/optiga/externals/mbedtls/library\aes.c ****  */
 867:C:/Users/Yushev/git/wpcqi-optiga-trust-charge/optiga/externals/mbedtls/library\aes.c **** #if !defined(MBEDTLS_AES_ENCRYPT_ALT)
 868:C:/Users/Yushev/git/wpcqi-optiga-trust-charge/optiga/externals/mbedtls/library\aes.c **** int mbedtls_internal_aes_encrypt( mbedtls_aes_context *ctx,
 869:C:/Users/Yushev/git/wpcqi-optiga-trust-charge/optiga/externals/mbedtls/library\aes.c ****                                   const unsigned char input[16],
 870:C:/Users/Yushev/git/wpcqi-optiga-trust-charge/optiga/externals/mbedtls/library\aes.c ****                                   unsigned char output[16] )
 871:C:/Users/Yushev/git/wpcqi-optiga-trust-charge/optiga/externals/mbedtls/library\aes.c **** {
 1513              	 .loc 1 871 0
 1514              	 .cfi_startproc
 1515              	 
 1516              	 
 1517              	 
 1518 0000 80B4     	 push {r7}
 1519              	.LCFI26:
 1520              	 .cfi_def_cfa_offset 4
 1521              	 .cfi_offset 7,-4
 1522 0002 8FB0     	 sub sp,sp,#60
 1523              	.LCFI27:
 1524              	 .cfi_def_cfa_offset 64
 1525 0004 00AF     	 add r7,sp,#0
 1526              	.LCFI28:
 1527              	 .cfi_def_cfa_register 7
 1528 0006 F860     	 str r0,[r7,#12]
 1529 0008 B960     	 str r1,[r7,#8]
 1530 000a 7A60     	 str r2,[r7,#4]
 872:C:/Users/Yushev/git/wpcqi-optiga-trust-charge/optiga/externals/mbedtls/library\aes.c ****     int i;
 873:C:/Users/Yushev/git/wpcqi-optiga-trust-charge/optiga/externals/mbedtls/library\aes.c ****     uint32_t *RK, X0, X1, X2, X3, Y0, Y1, Y2, Y3;
 874:C:/Users/Yushev/git/wpcqi-optiga-trust-charge/optiga/externals/mbedtls/library\aes.c **** 
 875:C:/Users/Yushev/git/wpcqi-optiga-trust-charge/optiga/externals/mbedtls/library\aes.c ****     RK = ctx->rk;
 1531              	 .loc 1 875 0
 1532 000c FB68     	 ldr r3,[r7,#12]
 1533 000e 5B68     	 ldr r3,[r3,#4]
 1534 0010 3B63     	 str r3,[r7,#48]
 876:C:/Users/Yushev/git/wpcqi-optiga-trust-charge/optiga/externals/mbedtls/library\aes.c **** 
 877:C:/Users/Yushev/git/wpcqi-optiga-trust-charge/optiga/externals/mbedtls/library\aes.c ****     GET_UINT32_LE( X0, input,  0 ); X0 ^= *RK++;
 1535              	 .loc 1 877 0
 1536 0012 BB68     	 ldr r3,[r7,#8]
 1537 0014 1B78     	 ldrb r3,[r3]
 1538 0016 1A46     	 mov r2,r3
 1539 0018 BB68     	 ldr r3,[r7,#8]
 1540 001a 0133     	 adds r3,r3,#1
 1541 001c 1B78     	 ldrb r3,[r3]
 1542 001e 1B02     	 lsls r3,r3,#8
 1543 0020 1A43     	 orrs r2,r2,r3
 1544 0022 BB68     	 ldr r3,[r7,#8]
 1545 0024 0233     	 adds r3,r3,#2
 1546 0026 1B78     	 ldrb r3,[r3]
 1547 0028 1B04     	 lsls r3,r3,#16
 1548 002a 1A43     	 orrs r2,r2,r3
 1549 002c BB68     	 ldr r3,[r7,#8]
 1550 002e 0333     	 adds r3,r3,#3
 1551 0030 1B78     	 ldrb r3,[r3]
 1552 0032 1B06     	 lsls r3,r3,#24
 1553 0034 1343     	 orrs r3,r3,r2
 1554 0036 FB62     	 str r3,[r7,#44]
 1555 0038 3B6B     	 ldr r3,[r7,#48]
 1556 003a 1A1D     	 adds r2,r3,#4
 1557 003c 3A63     	 str r2,[r7,#48]
 1558 003e 1B68     	 ldr r3,[r3]
 1559 0040 FA6A     	 ldr r2,[r7,#44]
 1560 0042 5340     	 eors r3,r3,r2
 1561 0044 FB62     	 str r3,[r7,#44]
 878:C:/Users/Yushev/git/wpcqi-optiga-trust-charge/optiga/externals/mbedtls/library\aes.c ****     GET_UINT32_LE( X1, input,  4 ); X1 ^= *RK++;
 1562              	 .loc 1 878 0
 1563 0046 BB68     	 ldr r3,[r7,#8]
 1564 0048 0433     	 adds r3,r3,#4
 1565 004a 1B78     	 ldrb r3,[r3]
 1566 004c 1A46     	 mov r2,r3
 1567 004e BB68     	 ldr r3,[r7,#8]
 1568 0050 0533     	 adds r3,r3,#5
 1569 0052 1B78     	 ldrb r3,[r3]
 1570 0054 1B02     	 lsls r3,r3,#8
 1571 0056 1A43     	 orrs r2,r2,r3
 1572 0058 BB68     	 ldr r3,[r7,#8]
 1573 005a 0633     	 adds r3,r3,#6
 1574 005c 1B78     	 ldrb r3,[r3]
 1575 005e 1B04     	 lsls r3,r3,#16
 1576 0060 1A43     	 orrs r2,r2,r3
 1577 0062 BB68     	 ldr r3,[r7,#8]
 1578 0064 0733     	 adds r3,r3,#7
 1579 0066 1B78     	 ldrb r3,[r3]
 1580 0068 1B06     	 lsls r3,r3,#24
 1581 006a 1343     	 orrs r3,r3,r2
 1582 006c BB62     	 str r3,[r7,#40]
 1583 006e 3B6B     	 ldr r3,[r7,#48]
 1584 0070 1A1D     	 adds r2,r3,#4
 1585 0072 3A63     	 str r2,[r7,#48]
 1586 0074 1B68     	 ldr r3,[r3]
 1587 0076 BA6A     	 ldr r2,[r7,#40]
 1588 0078 5340     	 eors r3,r3,r2
 1589 007a BB62     	 str r3,[r7,#40]
 879:C:/Users/Yushev/git/wpcqi-optiga-trust-charge/optiga/externals/mbedtls/library\aes.c ****     GET_UINT32_LE( X2, input,  8 ); X2 ^= *RK++;
 1590              	 .loc 1 879 0
 1591 007c BB68     	 ldr r3,[r7,#8]
 1592 007e 0833     	 adds r3,r3,#8
 1593 0080 1B78     	 ldrb r3,[r3]
 1594 0082 1A46     	 mov r2,r3
 1595 0084 BB68     	 ldr r3,[r7,#8]
 1596 0086 0933     	 adds r3,r3,#9
 1597 0088 1B78     	 ldrb r3,[r3]
 1598 008a 1B02     	 lsls r3,r3,#8
 1599 008c 1A43     	 orrs r2,r2,r3
 1600 008e BB68     	 ldr r3,[r7,#8]
 1601 0090 0A33     	 adds r3,r3,#10
 1602 0092 1B78     	 ldrb r3,[r3]
 1603 0094 1B04     	 lsls r3,r3,#16
 1604 0096 1A43     	 orrs r2,r2,r3
 1605 0098 BB68     	 ldr r3,[r7,#8]
 1606 009a 0B33     	 adds r3,r3,#11
 1607 009c 1B78     	 ldrb r3,[r3]
 1608 009e 1B06     	 lsls r3,r3,#24
 1609 00a0 1343     	 orrs r3,r3,r2
 1610 00a2 7B62     	 str r3,[r7,#36]
 1611 00a4 3B6B     	 ldr r3,[r7,#48]
 1612 00a6 1A1D     	 adds r2,r3,#4
 1613 00a8 3A63     	 str r2,[r7,#48]
 1614 00aa 1B68     	 ldr r3,[r3]
 1615 00ac 7A6A     	 ldr r2,[r7,#36]
 1616 00ae 5340     	 eors r3,r3,r2
 1617 00b0 7B62     	 str r3,[r7,#36]
 880:C:/Users/Yushev/git/wpcqi-optiga-trust-charge/optiga/externals/mbedtls/library\aes.c ****     GET_UINT32_LE( X3, input, 12 ); X3 ^= *RK++;
 1618              	 .loc 1 880 0
 1619 00b2 BB68     	 ldr r3,[r7,#8]
 1620 00b4 0C33     	 adds r3,r3,#12
 1621 00b6 1B78     	 ldrb r3,[r3]
 1622 00b8 1A46     	 mov r2,r3
 1623 00ba BB68     	 ldr r3,[r7,#8]
 1624 00bc 0D33     	 adds r3,r3,#13
 1625 00be 1B78     	 ldrb r3,[r3]
 1626 00c0 1B02     	 lsls r3,r3,#8
 1627 00c2 1A43     	 orrs r2,r2,r3
 1628 00c4 BB68     	 ldr r3,[r7,#8]
 1629 00c6 0E33     	 adds r3,r3,#14
 1630 00c8 1B78     	 ldrb r3,[r3]
 1631 00ca 1B04     	 lsls r3,r3,#16
 1632 00cc 1A43     	 orrs r2,r2,r3
 1633 00ce BB68     	 ldr r3,[r7,#8]
 1634 00d0 0F33     	 adds r3,r3,#15
 1635 00d2 1B78     	 ldrb r3,[r3]
 1636 00d4 1B06     	 lsls r3,r3,#24
 1637 00d6 1343     	 orrs r3,r3,r2
 1638 00d8 3B62     	 str r3,[r7,#32]
 1639 00da 3B6B     	 ldr r3,[r7,#48]
 1640 00dc 1A1D     	 adds r2,r3,#4
 1641 00de 3A63     	 str r2,[r7,#48]
 1642 00e0 1B68     	 ldr r3,[r3]
 1643 00e2 3A6A     	 ldr r2,[r7,#32]
 1644 00e4 5340     	 eors r3,r3,r2
 1645 00e6 3B62     	 str r3,[r7,#32]
 881:C:/Users/Yushev/git/wpcqi-optiga-trust-charge/optiga/externals/mbedtls/library\aes.c **** 
 882:C:/Users/Yushev/git/wpcqi-optiga-trust-charge/optiga/externals/mbedtls/library\aes.c ****     for( i = ( ctx->nr >> 1 ) - 1; i > 0; i-- )
 1646              	 .loc 1 882 0
 1647 00e8 FB68     	 ldr r3,[r7,#12]
 1648 00ea 1B68     	 ldr r3,[r3]
 1649 00ec 5B10     	 asrs r3,r3,#1
 1650 00ee 013B     	 subs r3,r3,#1
 1651 00f0 7B63     	 str r3,[r7,#52]
 1652 00f2 FAE0     	 b .L66
 1653              	.L67:
 883:C:/Users/Yushev/git/wpcqi-optiga-trust-charge/optiga/externals/mbedtls/library\aes.c ****     {
 884:C:/Users/Yushev/git/wpcqi-optiga-trust-charge/optiga/externals/mbedtls/library\aes.c ****         AES_FROUND( Y0, Y1, Y2, Y3, X0, X1, X2, X3 );
 1654              	 .loc 1 884 0 discriminator 3
 1655 00f4 3B6B     	 ldr r3,[r7,#48]
 1656 00f6 1A1D     	 adds r2,r3,#4
 1657 00f8 3A63     	 str r2,[r7,#48]
 1658 00fa 1A68     	 ldr r2,[r3]
 1659 00fc FB6A     	 ldr r3,[r7,#44]
 1660 00fe DBB2     	 uxtb r3,r3
 1661 0100 AC49     	 ldr r1,.L69
 1662 0102 51F82330 	 ldr r3,[r1,r3,lsl#2]
 1663 0106 5A40     	 eors r2,r2,r3
 1664 0108 BB6A     	 ldr r3,[r7,#40]
 1665 010a 1B0A     	 lsrs r3,r3,#8
 1666 010c DBB2     	 uxtb r3,r3
 1667 010e AA49     	 ldr r1,.L69+4
 1668 0110 51F82330 	 ldr r3,[r1,r3,lsl#2]
 1669 0114 5A40     	 eors r2,r2,r3
 1670 0116 7B6A     	 ldr r3,[r7,#36]
 1671 0118 1B0C     	 lsrs r3,r3,#16
 1672 011a DBB2     	 uxtb r3,r3
 1673 011c A749     	 ldr r1,.L69+8
 1674 011e 51F82330 	 ldr r3,[r1,r3,lsl#2]
 1675 0122 5A40     	 eors r2,r2,r3
 1676 0124 3B6A     	 ldr r3,[r7,#32]
 1677 0126 1B0E     	 lsrs r3,r3,#24
 1678 0128 A549     	 ldr r1,.L69+12
 1679 012a 51F82330 	 ldr r3,[r1,r3,lsl#2]
 1680 012e 5340     	 eors r3,r3,r2
 1681 0130 FB61     	 str r3,[r7,#28]
 1682 0132 3B6B     	 ldr r3,[r7,#48]
 1683 0134 1A1D     	 adds r2,r3,#4
 1684 0136 3A63     	 str r2,[r7,#48]
 1685 0138 1A68     	 ldr r2,[r3]
 1686 013a BB6A     	 ldr r3,[r7,#40]
 1687 013c DBB2     	 uxtb r3,r3
 1688 013e 9D49     	 ldr r1,.L69
 1689 0140 51F82330 	 ldr r3,[r1,r3,lsl#2]
 1690 0144 5A40     	 eors r2,r2,r3
 1691 0146 7B6A     	 ldr r3,[r7,#36]
 1692 0148 1B0A     	 lsrs r3,r3,#8
 1693 014a DBB2     	 uxtb r3,r3
 1694 014c 9A49     	 ldr r1,.L69+4
 1695 014e 51F82330 	 ldr r3,[r1,r3,lsl#2]
 1696 0152 5A40     	 eors r2,r2,r3
 1697 0154 3B6A     	 ldr r3,[r7,#32]
 1698 0156 1B0C     	 lsrs r3,r3,#16
 1699 0158 DBB2     	 uxtb r3,r3
 1700 015a 9849     	 ldr r1,.L69+8
 1701 015c 51F82330 	 ldr r3,[r1,r3,lsl#2]
 1702 0160 5A40     	 eors r2,r2,r3
 1703 0162 FB6A     	 ldr r3,[r7,#44]
 1704 0164 1B0E     	 lsrs r3,r3,#24
 1705 0166 9649     	 ldr r1,.L69+12
 1706 0168 51F82330 	 ldr r3,[r1,r3,lsl#2]
 1707 016c 5340     	 eors r3,r3,r2
 1708 016e BB61     	 str r3,[r7,#24]
 1709 0170 3B6B     	 ldr r3,[r7,#48]
 1710 0172 1A1D     	 adds r2,r3,#4
 1711 0174 3A63     	 str r2,[r7,#48]
 1712 0176 1A68     	 ldr r2,[r3]
 1713 0178 7B6A     	 ldr r3,[r7,#36]
 1714 017a DBB2     	 uxtb r3,r3
 1715 017c 8D49     	 ldr r1,.L69
 1716 017e 51F82330 	 ldr r3,[r1,r3,lsl#2]
 1717 0182 5A40     	 eors r2,r2,r3
 1718 0184 3B6A     	 ldr r3,[r7,#32]
 1719 0186 1B0A     	 lsrs r3,r3,#8
 1720 0188 DBB2     	 uxtb r3,r3
 1721 018a 8B49     	 ldr r1,.L69+4
 1722 018c 51F82330 	 ldr r3,[r1,r3,lsl#2]
 1723 0190 5A40     	 eors r2,r2,r3
 1724 0192 FB6A     	 ldr r3,[r7,#44]
 1725 0194 1B0C     	 lsrs r3,r3,#16
 1726 0196 DBB2     	 uxtb r3,r3
 1727 0198 8849     	 ldr r1,.L69+8
 1728 019a 51F82330 	 ldr r3,[r1,r3,lsl#2]
 1729 019e 5A40     	 eors r2,r2,r3
 1730 01a0 BB6A     	 ldr r3,[r7,#40]
 1731 01a2 1B0E     	 lsrs r3,r3,#24
 1732 01a4 8649     	 ldr r1,.L69+12
 1733 01a6 51F82330 	 ldr r3,[r1,r3,lsl#2]
 1734 01aa 5340     	 eors r3,r3,r2
 1735 01ac 7B61     	 str r3,[r7,#20]
 1736 01ae 3B6B     	 ldr r3,[r7,#48]
 1737 01b0 1A1D     	 adds r2,r3,#4
 1738 01b2 3A63     	 str r2,[r7,#48]
 1739 01b4 1A68     	 ldr r2,[r3]
 1740 01b6 3B6A     	 ldr r3,[r7,#32]
 1741 01b8 DBB2     	 uxtb r3,r3
 1742 01ba 7E49     	 ldr r1,.L69
 1743 01bc 51F82330 	 ldr r3,[r1,r3,lsl#2]
 1744 01c0 5A40     	 eors r2,r2,r3
 1745 01c2 FB6A     	 ldr r3,[r7,#44]
 1746 01c4 1B0A     	 lsrs r3,r3,#8
 1747 01c6 DBB2     	 uxtb r3,r3
 1748 01c8 7B49     	 ldr r1,.L69+4
 1749 01ca 51F82330 	 ldr r3,[r1,r3,lsl#2]
 1750 01ce 5A40     	 eors r2,r2,r3
 1751 01d0 BB6A     	 ldr r3,[r7,#40]
 1752 01d2 1B0C     	 lsrs r3,r3,#16
 1753 01d4 DBB2     	 uxtb r3,r3
 1754 01d6 7949     	 ldr r1,.L69+8
 1755 01d8 51F82330 	 ldr r3,[r1,r3,lsl#2]
 1756 01dc 5A40     	 eors r2,r2,r3
 1757 01de 7B6A     	 ldr r3,[r7,#36]
 1758 01e0 1B0E     	 lsrs r3,r3,#24
 1759 01e2 7749     	 ldr r1,.L69+12
 1760 01e4 51F82330 	 ldr r3,[r1,r3,lsl#2]
 1761 01e8 5340     	 eors r3,r3,r2
 1762 01ea 3B61     	 str r3,[r7,#16]
 885:C:/Users/Yushev/git/wpcqi-optiga-trust-charge/optiga/externals/mbedtls/library\aes.c ****         AES_FROUND( X0, X1, X2, X3, Y0, Y1, Y2, Y3 );
 1763              	 .loc 1 885 0 discriminator 3
 1764 01ec 3B6B     	 ldr r3,[r7,#48]
 1765 01ee 1A1D     	 adds r2,r3,#4
 1766 01f0 3A63     	 str r2,[r7,#48]
 1767 01f2 1A68     	 ldr r2,[r3]
 1768 01f4 FB69     	 ldr r3,[r7,#28]
 1769 01f6 DBB2     	 uxtb r3,r3
 1770 01f8 6E49     	 ldr r1,.L69
 1771 01fa 51F82330 	 ldr r3,[r1,r3,lsl#2]
 1772 01fe 5A40     	 eors r2,r2,r3
 1773 0200 BB69     	 ldr r3,[r7,#24]
 1774 0202 1B0A     	 lsrs r3,r3,#8
 1775 0204 DBB2     	 uxtb r3,r3
 1776 0206 6C49     	 ldr r1,.L69+4
 1777 0208 51F82330 	 ldr r3,[r1,r3,lsl#2]
 1778 020c 5A40     	 eors r2,r2,r3
 1779 020e 7B69     	 ldr r3,[r7,#20]
 1780 0210 1B0C     	 lsrs r3,r3,#16
 1781 0212 DBB2     	 uxtb r3,r3
 1782 0214 6949     	 ldr r1,.L69+8
 1783 0216 51F82330 	 ldr r3,[r1,r3,lsl#2]
 1784 021a 5A40     	 eors r2,r2,r3
 1785 021c 3B69     	 ldr r3,[r7,#16]
 1786 021e 1B0E     	 lsrs r3,r3,#24
 1787 0220 6749     	 ldr r1,.L69+12
 1788 0222 51F82330 	 ldr r3,[r1,r3,lsl#2]
 1789 0226 5340     	 eors r3,r3,r2
 1790 0228 FB62     	 str r3,[r7,#44]
 1791 022a 3B6B     	 ldr r3,[r7,#48]
 1792 022c 1A1D     	 adds r2,r3,#4
 1793 022e 3A63     	 str r2,[r7,#48]
 1794 0230 1A68     	 ldr r2,[r3]
 1795 0232 BB69     	 ldr r3,[r7,#24]
 1796 0234 DBB2     	 uxtb r3,r3
 1797 0236 5F49     	 ldr r1,.L69
 1798 0238 51F82330 	 ldr r3,[r1,r3,lsl#2]
 1799 023c 5A40     	 eors r2,r2,r3
 1800 023e 7B69     	 ldr r3,[r7,#20]
 1801 0240 1B0A     	 lsrs r3,r3,#8
 1802 0242 DBB2     	 uxtb r3,r3
 1803 0244 5C49     	 ldr r1,.L69+4
 1804 0246 51F82330 	 ldr r3,[r1,r3,lsl#2]
 1805 024a 5A40     	 eors r2,r2,r3
 1806 024c 3B69     	 ldr r3,[r7,#16]
 1807 024e 1B0C     	 lsrs r3,r3,#16
 1808 0250 DBB2     	 uxtb r3,r3
 1809 0252 5A49     	 ldr r1,.L69+8
 1810 0254 51F82330 	 ldr r3,[r1,r3,lsl#2]
 1811 0258 5A40     	 eors r2,r2,r3
 1812 025a FB69     	 ldr r3,[r7,#28]
 1813 025c 1B0E     	 lsrs r3,r3,#24
 1814 025e 5849     	 ldr r1,.L69+12
 1815 0260 51F82330 	 ldr r3,[r1,r3,lsl#2]
 1816 0264 5340     	 eors r3,r3,r2
 1817 0266 BB62     	 str r3,[r7,#40]
 1818 0268 3B6B     	 ldr r3,[r7,#48]
 1819 026a 1A1D     	 adds r2,r3,#4
 1820 026c 3A63     	 str r2,[r7,#48]
 1821 026e 1A68     	 ldr r2,[r3]
 1822 0270 7B69     	 ldr r3,[r7,#20]
 1823 0272 DBB2     	 uxtb r3,r3
 1824 0274 4F49     	 ldr r1,.L69
 1825 0276 51F82330 	 ldr r3,[r1,r3,lsl#2]
 1826 027a 5A40     	 eors r2,r2,r3
 1827 027c 3B69     	 ldr r3,[r7,#16]
 1828 027e 1B0A     	 lsrs r3,r3,#8
 1829 0280 DBB2     	 uxtb r3,r3
 1830 0282 4D49     	 ldr r1,.L69+4
 1831 0284 51F82330 	 ldr r3,[r1,r3,lsl#2]
 1832 0288 5A40     	 eors r2,r2,r3
 1833 028a FB69     	 ldr r3,[r7,#28]
 1834 028c 1B0C     	 lsrs r3,r3,#16
 1835 028e DBB2     	 uxtb r3,r3
 1836 0290 4A49     	 ldr r1,.L69+8
 1837 0292 51F82330 	 ldr r3,[r1,r3,lsl#2]
 1838 0296 5A40     	 eors r2,r2,r3
 1839 0298 BB69     	 ldr r3,[r7,#24]
 1840 029a 1B0E     	 lsrs r3,r3,#24
 1841 029c 4849     	 ldr r1,.L69+12
 1842 029e 51F82330 	 ldr r3,[r1,r3,lsl#2]
 1843 02a2 5340     	 eors r3,r3,r2
 1844 02a4 7B62     	 str r3,[r7,#36]
 1845 02a6 3B6B     	 ldr r3,[r7,#48]
 1846 02a8 1A1D     	 adds r2,r3,#4
 1847 02aa 3A63     	 str r2,[r7,#48]
 1848 02ac 1A68     	 ldr r2,[r3]
 1849 02ae 3B69     	 ldr r3,[r7,#16]
 1850 02b0 DBB2     	 uxtb r3,r3
 1851 02b2 4049     	 ldr r1,.L69
 1852 02b4 51F82330 	 ldr r3,[r1,r3,lsl#2]
 1853 02b8 5A40     	 eors r2,r2,r3
 1854 02ba FB69     	 ldr r3,[r7,#28]
 1855 02bc 1B0A     	 lsrs r3,r3,#8
 1856 02be DBB2     	 uxtb r3,r3
 1857 02c0 3D49     	 ldr r1,.L69+4
 1858 02c2 51F82330 	 ldr r3,[r1,r3,lsl#2]
 1859 02c6 5A40     	 eors r2,r2,r3
 1860 02c8 BB69     	 ldr r3,[r7,#24]
 1861 02ca 1B0C     	 lsrs r3,r3,#16
 1862 02cc DBB2     	 uxtb r3,r3
 1863 02ce 3B49     	 ldr r1,.L69+8
 1864 02d0 51F82330 	 ldr r3,[r1,r3,lsl#2]
 1865 02d4 5A40     	 eors r2,r2,r3
 1866 02d6 7B69     	 ldr r3,[r7,#20]
 1867 02d8 1B0E     	 lsrs r3,r3,#24
 1868 02da 3949     	 ldr r1,.L69+12
 1869 02dc 51F82330 	 ldr r3,[r1,r3,lsl#2]
 1870 02e0 5340     	 eors r3,r3,r2
 1871 02e2 3B62     	 str r3,[r7,#32]
 882:C:/Users/Yushev/git/wpcqi-optiga-trust-charge/optiga/externals/mbedtls/library\aes.c ****     {
 1872              	 .loc 1 882 0 discriminator 3
 1873 02e4 7B6B     	 ldr r3,[r7,#52]
 1874 02e6 013B     	 subs r3,r3,#1
 1875 02e8 7B63     	 str r3,[r7,#52]
 1876              	.L66:
 882:C:/Users/Yushev/git/wpcqi-optiga-trust-charge/optiga/externals/mbedtls/library\aes.c ****     {
 1877              	 .loc 1 882 0 is_stmt 0 discriminator 1
 1878 02ea 7B6B     	 ldr r3,[r7,#52]
 1879 02ec 002B     	 cmp r3,#0
 1880 02ee 3FF701AF 	 bgt .L67
 886:C:/Users/Yushev/git/wpcqi-optiga-trust-charge/optiga/externals/mbedtls/library\aes.c ****     }
 887:C:/Users/Yushev/git/wpcqi-optiga-trust-charge/optiga/externals/mbedtls/library\aes.c **** 
 888:C:/Users/Yushev/git/wpcqi-optiga-trust-charge/optiga/externals/mbedtls/library\aes.c ****     AES_FROUND( Y0, Y1, Y2, Y3, X0, X1, X2, X3 );
 1881              	 .loc 1 888 0 is_stmt 1
 1882 02f2 3B6B     	 ldr r3,[r7,#48]
 1883 02f4 1A1D     	 adds r2,r3,#4
 1884 02f6 3A63     	 str r2,[r7,#48]
 1885 02f8 1A68     	 ldr r2,[r3]
 1886 02fa FB6A     	 ldr r3,[r7,#44]
 1887 02fc DBB2     	 uxtb r3,r3
 1888 02fe 2D49     	 ldr r1,.L69
 1889 0300 51F82330 	 ldr r3,[r1,r3,lsl#2]
 1890 0304 5A40     	 eors r2,r2,r3
 1891 0306 BB6A     	 ldr r3,[r7,#40]
 1892 0308 1B0A     	 lsrs r3,r3,#8
 1893 030a DBB2     	 uxtb r3,r3
 1894 030c 2A49     	 ldr r1,.L69+4
 1895 030e 51F82330 	 ldr r3,[r1,r3,lsl#2]
 1896 0312 5A40     	 eors r2,r2,r3
 1897 0314 7B6A     	 ldr r3,[r7,#36]
 1898 0316 1B0C     	 lsrs r3,r3,#16
 1899 0318 DBB2     	 uxtb r3,r3
 1900 031a 2849     	 ldr r1,.L69+8
 1901 031c 51F82330 	 ldr r3,[r1,r3,lsl#2]
 1902 0320 5A40     	 eors r2,r2,r3
 1903 0322 3B6A     	 ldr r3,[r7,#32]
 1904 0324 1B0E     	 lsrs r3,r3,#24
 1905 0326 2649     	 ldr r1,.L69+12
 1906 0328 51F82330 	 ldr r3,[r1,r3,lsl#2]
 1907 032c 5340     	 eors r3,r3,r2
 1908 032e FB61     	 str r3,[r7,#28]
 1909 0330 3B6B     	 ldr r3,[r7,#48]
 1910 0332 1A1D     	 adds r2,r3,#4
 1911 0334 3A63     	 str r2,[r7,#48]
 1912 0336 1A68     	 ldr r2,[r3]
 1913 0338 BB6A     	 ldr r3,[r7,#40]
 1914 033a DBB2     	 uxtb r3,r3
 1915 033c 1D49     	 ldr r1,.L69
 1916 033e 51F82330 	 ldr r3,[r1,r3,lsl#2]
 1917 0342 5A40     	 eors r2,r2,r3
 1918 0344 7B6A     	 ldr r3,[r7,#36]
 1919 0346 1B0A     	 lsrs r3,r3,#8
 1920 0348 DBB2     	 uxtb r3,r3
 1921 034a 1B49     	 ldr r1,.L69+4
 1922 034c 51F82330 	 ldr r3,[r1,r3,lsl#2]
 1923 0350 5A40     	 eors r2,r2,r3
 1924 0352 3B6A     	 ldr r3,[r7,#32]
 1925 0354 1B0C     	 lsrs r3,r3,#16
 1926 0356 DBB2     	 uxtb r3,r3
 1927 0358 1849     	 ldr r1,.L69+8
 1928 035a 51F82330 	 ldr r3,[r1,r3,lsl#2]
 1929 035e 5A40     	 eors r2,r2,r3
 1930 0360 FB6A     	 ldr r3,[r7,#44]
 1931 0362 1B0E     	 lsrs r3,r3,#24
 1932 0364 1649     	 ldr r1,.L69+12
 1933 0366 51F82330 	 ldr r3,[r1,r3,lsl#2]
 1934 036a 5340     	 eors r3,r3,r2
 1935 036c BB61     	 str r3,[r7,#24]
 1936 036e 3B6B     	 ldr r3,[r7,#48]
 1937 0370 1A1D     	 adds r2,r3,#4
 1938 0372 3A63     	 str r2,[r7,#48]
 1939 0374 1A68     	 ldr r2,[r3]
 1940 0376 7B6A     	 ldr r3,[r7,#36]
 1941 0378 DBB2     	 uxtb r3,r3
 1942 037a 0E49     	 ldr r1,.L69
 1943 037c 51F82330 	 ldr r3,[r1,r3,lsl#2]
 1944 0380 5A40     	 eors r2,r2,r3
 1945 0382 3B6A     	 ldr r3,[r7,#32]
 1946 0384 1B0A     	 lsrs r3,r3,#8
 1947 0386 DBB2     	 uxtb r3,r3
 1948 0388 0B49     	 ldr r1,.L69+4
 1949 038a 51F82330 	 ldr r3,[r1,r3,lsl#2]
 1950 038e 5A40     	 eors r2,r2,r3
 1951 0390 FB6A     	 ldr r3,[r7,#44]
 1952 0392 1B0C     	 lsrs r3,r3,#16
 1953 0394 DBB2     	 uxtb r3,r3
 1954 0396 0949     	 ldr r1,.L69+8
 1955 0398 51F82330 	 ldr r3,[r1,r3,lsl#2]
 1956 039c 5A40     	 eors r2,r2,r3
 1957 039e BB6A     	 ldr r3,[r7,#40]
 1958 03a0 1B0E     	 lsrs r3,r3,#24
 1959 03a2 0749     	 ldr r1,.L69+12
 1960 03a4 51F82330 	 ldr r3,[r1,r3,lsl#2]
 1961 03a8 5340     	 eors r3,r3,r2
 1962 03aa 7B61     	 str r3,[r7,#20]
 1963 03ac 3B6B     	 ldr r3,[r7,#48]
 1964 03ae 1A1D     	 adds r2,r3,#4
 1965 03b0 08E0     	 b .L70
 1966              	.L71:
 1967 03b2 00BF     	 .align 2
 1968              	.L69:
 1969 03b4 00000000 	 .word FT0
 1970 03b8 00000000 	 .word FT1
 1971 03bc 00000000 	 .word FT2
 1972 03c0 00000000 	 .word FT3
 1973              	.L70:
 1974 03c4 3A63     	 str r2,[r7,#48]
 1975 03c6 1A68     	 ldr r2,[r3]
 1976 03c8 3B6A     	 ldr r3,[r7,#32]
 1977 03ca DBB2     	 uxtb r3,r3
 1978 03cc 7949     	 ldr r1,.L72
 1979 03ce 51F82330 	 ldr r3,[r1,r3,lsl#2]
 1980 03d2 5A40     	 eors r2,r2,r3
 1981 03d4 FB6A     	 ldr r3,[r7,#44]
 1982 03d6 1B0A     	 lsrs r3,r3,#8
 1983 03d8 DBB2     	 uxtb r3,r3
 1984 03da 7749     	 ldr r1,.L72+4
 1985 03dc 51F82330 	 ldr r3,[r1,r3,lsl#2]
 1986 03e0 5A40     	 eors r2,r2,r3
 1987 03e2 BB6A     	 ldr r3,[r7,#40]
 1988 03e4 1B0C     	 lsrs r3,r3,#16
 1989 03e6 DBB2     	 uxtb r3,r3
 1990 03e8 7449     	 ldr r1,.L72+8
 1991 03ea 51F82330 	 ldr r3,[r1,r3,lsl#2]
 1992 03ee 5A40     	 eors r2,r2,r3
 1993 03f0 7B6A     	 ldr r3,[r7,#36]
 1994 03f2 1B0E     	 lsrs r3,r3,#24
 1995 03f4 7249     	 ldr r1,.L72+12
 1996 03f6 51F82330 	 ldr r3,[r1,r3,lsl#2]
 1997 03fa 5340     	 eors r3,r3,r2
 1998 03fc 3B61     	 str r3,[r7,#16]
 889:C:/Users/Yushev/git/wpcqi-optiga-trust-charge/optiga/externals/mbedtls/library\aes.c **** 
 890:C:/Users/Yushev/git/wpcqi-optiga-trust-charge/optiga/externals/mbedtls/library\aes.c ****     X0 = *RK++ ^ \
 1999              	 .loc 1 890 0
 2000 03fe 3B6B     	 ldr r3,[r7,#48]
 2001 0400 1A1D     	 adds r2,r3,#4
 2002 0402 3A63     	 str r2,[r7,#48]
 2003 0404 1B68     	 ldr r3,[r3]
 891:C:/Users/Yushev/git/wpcqi-optiga-trust-charge/optiga/externals/mbedtls/library\aes.c ****             ( (uint32_t) FSb[ ( Y0       ) & 0xFF ]       ) ^
 2004              	 .loc 1 891 0
 2005 0406 FA69     	 ldr r2,[r7,#28]
 2006 0408 D2B2     	 uxtb r2,r2
 2007 040a 6E49     	 ldr r1,.L72+16
 2008 040c 8A5C     	 ldrb r2,[r1,r2]
 890:C:/Users/Yushev/git/wpcqi-optiga-trust-charge/optiga/externals/mbedtls/library\aes.c ****             ( (uint32_t) FSb[ ( Y0       ) & 0xFF ]       ) ^
 2009              	 .loc 1 890 0
 2010 040e 5A40     	 eors r2,r2,r3
 892:C:/Users/Yushev/git/wpcqi-optiga-trust-charge/optiga/externals/mbedtls/library\aes.c ****             ( (uint32_t) FSb[ ( Y1 >>  8 ) & 0xFF ] <<  8 ) ^
 2011              	 .loc 1 892 0
 2012 0410 BB69     	 ldr r3,[r7,#24]
 2013 0412 1B0A     	 lsrs r3,r3,#8
 2014 0414 DBB2     	 uxtb r3,r3
 2015 0416 6B49     	 ldr r1,.L72+16
 2016 0418 CB5C     	 ldrb r3,[r1,r3]
 2017 041a 1B02     	 lsls r3,r3,#8
 891:C:/Users/Yushev/git/wpcqi-optiga-trust-charge/optiga/externals/mbedtls/library\aes.c ****             ( (uint32_t) FSb[ ( Y0       ) & 0xFF ]       ) ^
 2018              	 .loc 1 891 0
 2019 041c 5A40     	 eors r2,r2,r3
 893:C:/Users/Yushev/git/wpcqi-optiga-trust-charge/optiga/externals/mbedtls/library\aes.c ****             ( (uint32_t) FSb[ ( Y2 >> 16 ) & 0xFF ] << 16 ) ^
 2020              	 .loc 1 893 0
 2021 041e 7B69     	 ldr r3,[r7,#20]
 2022 0420 1B0C     	 lsrs r3,r3,#16
 2023 0422 DBB2     	 uxtb r3,r3
 2024 0424 6749     	 ldr r1,.L72+16
 2025 0426 CB5C     	 ldrb r3,[r1,r3]
 2026 0428 1B04     	 lsls r3,r3,#16
 892:C:/Users/Yushev/git/wpcqi-optiga-trust-charge/optiga/externals/mbedtls/library\aes.c ****             ( (uint32_t) FSb[ ( Y1 >>  8 ) & 0xFF ] <<  8 ) ^
 2027              	 .loc 1 892 0
 2028 042a 5A40     	 eors r2,r2,r3
 894:C:/Users/Yushev/git/wpcqi-optiga-trust-charge/optiga/externals/mbedtls/library\aes.c ****             ( (uint32_t) FSb[ ( Y3 >> 24 ) & 0xFF ] << 24 );
 2029              	 .loc 1 894 0
 2030 042c 3B69     	 ldr r3,[r7,#16]
 2031 042e 1B0E     	 lsrs r3,r3,#24
 2032 0430 6449     	 ldr r1,.L72+16
 2033 0432 CB5C     	 ldrb r3,[r1,r3]
 2034 0434 1B06     	 lsls r3,r3,#24
 890:C:/Users/Yushev/git/wpcqi-optiga-trust-charge/optiga/externals/mbedtls/library\aes.c ****             ( (uint32_t) FSb[ ( Y0       ) & 0xFF ]       ) ^
 2035              	 .loc 1 890 0
 2036 0436 5340     	 eors r3,r3,r2
 2037 0438 FB62     	 str r3,[r7,#44]
 895:C:/Users/Yushev/git/wpcqi-optiga-trust-charge/optiga/externals/mbedtls/library\aes.c **** 
 896:C:/Users/Yushev/git/wpcqi-optiga-trust-charge/optiga/externals/mbedtls/library\aes.c ****     X1 = *RK++ ^ \
 2038              	 .loc 1 896 0
 2039 043a 3B6B     	 ldr r3,[r7,#48]
 2040 043c 1A1D     	 adds r2,r3,#4
 2041 043e 3A63     	 str r2,[r7,#48]
 2042 0440 1B68     	 ldr r3,[r3]
 897:C:/Users/Yushev/git/wpcqi-optiga-trust-charge/optiga/externals/mbedtls/library\aes.c ****             ( (uint32_t) FSb[ ( Y1       ) & 0xFF ]       ) ^
 2043              	 .loc 1 897 0
 2044 0442 BA69     	 ldr r2,[r7,#24]
 2045 0444 D2B2     	 uxtb r2,r2
 2046 0446 5F49     	 ldr r1,.L72+16
 2047 0448 8A5C     	 ldrb r2,[r1,r2]
 896:C:/Users/Yushev/git/wpcqi-optiga-trust-charge/optiga/externals/mbedtls/library\aes.c ****             ( (uint32_t) FSb[ ( Y1       ) & 0xFF ]       ) ^
 2048              	 .loc 1 896 0
 2049 044a 5A40     	 eors r2,r2,r3
 898:C:/Users/Yushev/git/wpcqi-optiga-trust-charge/optiga/externals/mbedtls/library\aes.c ****             ( (uint32_t) FSb[ ( Y2 >>  8 ) & 0xFF ] <<  8 ) ^
 2050              	 .loc 1 898 0
 2051 044c 7B69     	 ldr r3,[r7,#20]
 2052 044e 1B0A     	 lsrs r3,r3,#8
 2053 0450 DBB2     	 uxtb r3,r3
 2054 0452 5C49     	 ldr r1,.L72+16
 2055 0454 CB5C     	 ldrb r3,[r1,r3]
 2056 0456 1B02     	 lsls r3,r3,#8
 897:C:/Users/Yushev/git/wpcqi-optiga-trust-charge/optiga/externals/mbedtls/library\aes.c ****             ( (uint32_t) FSb[ ( Y1       ) & 0xFF ]       ) ^
 2057              	 .loc 1 897 0
 2058 0458 5A40     	 eors r2,r2,r3
 899:C:/Users/Yushev/git/wpcqi-optiga-trust-charge/optiga/externals/mbedtls/library\aes.c ****             ( (uint32_t) FSb[ ( Y3 >> 16 ) & 0xFF ] << 16 ) ^
 2059              	 .loc 1 899 0
 2060 045a 3B69     	 ldr r3,[r7,#16]
 2061 045c 1B0C     	 lsrs r3,r3,#16
 2062 045e DBB2     	 uxtb r3,r3
 2063 0460 5849     	 ldr r1,.L72+16
 2064 0462 CB5C     	 ldrb r3,[r1,r3]
 2065 0464 1B04     	 lsls r3,r3,#16
 898:C:/Users/Yushev/git/wpcqi-optiga-trust-charge/optiga/externals/mbedtls/library\aes.c ****             ( (uint32_t) FSb[ ( Y2 >>  8 ) & 0xFF ] <<  8 ) ^
 2066              	 .loc 1 898 0
 2067 0466 5A40     	 eors r2,r2,r3
 900:C:/Users/Yushev/git/wpcqi-optiga-trust-charge/optiga/externals/mbedtls/library\aes.c ****             ( (uint32_t) FSb[ ( Y0 >> 24 ) & 0xFF ] << 24 );
 2068              	 .loc 1 900 0
 2069 0468 FB69     	 ldr r3,[r7,#28]
 2070 046a 1B0E     	 lsrs r3,r3,#24
 2071 046c 5549     	 ldr r1,.L72+16
 2072 046e CB5C     	 ldrb r3,[r1,r3]
 2073 0470 1B06     	 lsls r3,r3,#24
 896:C:/Users/Yushev/git/wpcqi-optiga-trust-charge/optiga/externals/mbedtls/library\aes.c ****             ( (uint32_t) FSb[ ( Y1       ) & 0xFF ]       ) ^
 2074              	 .loc 1 896 0
 2075 0472 5340     	 eors r3,r3,r2
 2076 0474 BB62     	 str r3,[r7,#40]
 901:C:/Users/Yushev/git/wpcqi-optiga-trust-charge/optiga/externals/mbedtls/library\aes.c **** 
 902:C:/Users/Yushev/git/wpcqi-optiga-trust-charge/optiga/externals/mbedtls/library\aes.c ****     X2 = *RK++ ^ \
 2077              	 .loc 1 902 0
 2078 0476 3B6B     	 ldr r3,[r7,#48]
 2079 0478 1A1D     	 adds r2,r3,#4
 2080 047a 3A63     	 str r2,[r7,#48]
 2081 047c 1B68     	 ldr r3,[r3]
 903:C:/Users/Yushev/git/wpcqi-optiga-trust-charge/optiga/externals/mbedtls/library\aes.c ****             ( (uint32_t) FSb[ ( Y2       ) & 0xFF ]       ) ^
 2082              	 .loc 1 903 0
 2083 047e 7A69     	 ldr r2,[r7,#20]
 2084 0480 D2B2     	 uxtb r2,r2
 2085 0482 5049     	 ldr r1,.L72+16
 2086 0484 8A5C     	 ldrb r2,[r1,r2]
 902:C:/Users/Yushev/git/wpcqi-optiga-trust-charge/optiga/externals/mbedtls/library\aes.c ****             ( (uint32_t) FSb[ ( Y2       ) & 0xFF ]       ) ^
 2087              	 .loc 1 902 0
 2088 0486 5A40     	 eors r2,r2,r3
 904:C:/Users/Yushev/git/wpcqi-optiga-trust-charge/optiga/externals/mbedtls/library\aes.c ****             ( (uint32_t) FSb[ ( Y3 >>  8 ) & 0xFF ] <<  8 ) ^
 2089              	 .loc 1 904 0
 2090 0488 3B69     	 ldr r3,[r7,#16]
 2091 048a 1B0A     	 lsrs r3,r3,#8
 2092 048c DBB2     	 uxtb r3,r3
 2093 048e 4D49     	 ldr r1,.L72+16
 2094 0490 CB5C     	 ldrb r3,[r1,r3]
 2095 0492 1B02     	 lsls r3,r3,#8
 903:C:/Users/Yushev/git/wpcqi-optiga-trust-charge/optiga/externals/mbedtls/library\aes.c ****             ( (uint32_t) FSb[ ( Y2       ) & 0xFF ]       ) ^
 2096              	 .loc 1 903 0
 2097 0494 5A40     	 eors r2,r2,r3
 905:C:/Users/Yushev/git/wpcqi-optiga-trust-charge/optiga/externals/mbedtls/library\aes.c ****             ( (uint32_t) FSb[ ( Y0 >> 16 ) & 0xFF ] << 16 ) ^
 2098              	 .loc 1 905 0
 2099 0496 FB69     	 ldr r3,[r7,#28]
 2100 0498 1B0C     	 lsrs r3,r3,#16
 2101 049a DBB2     	 uxtb r3,r3
 2102 049c 4949     	 ldr r1,.L72+16
 2103 049e CB5C     	 ldrb r3,[r1,r3]
 2104 04a0 1B04     	 lsls r3,r3,#16
 904:C:/Users/Yushev/git/wpcqi-optiga-trust-charge/optiga/externals/mbedtls/library\aes.c ****             ( (uint32_t) FSb[ ( Y3 >>  8 ) & 0xFF ] <<  8 ) ^
 2105              	 .loc 1 904 0
 2106 04a2 5A40     	 eors r2,r2,r3
 906:C:/Users/Yushev/git/wpcqi-optiga-trust-charge/optiga/externals/mbedtls/library\aes.c ****             ( (uint32_t) FSb[ ( Y1 >> 24 ) & 0xFF ] << 24 );
 2107              	 .loc 1 906 0
 2108 04a4 BB69     	 ldr r3,[r7,#24]
 2109 04a6 1B0E     	 lsrs r3,r3,#24
 2110 04a8 4649     	 ldr r1,.L72+16
 2111 04aa CB5C     	 ldrb r3,[r1,r3]
 2112 04ac 1B06     	 lsls r3,r3,#24
 902:C:/Users/Yushev/git/wpcqi-optiga-trust-charge/optiga/externals/mbedtls/library\aes.c ****             ( (uint32_t) FSb[ ( Y2       ) & 0xFF ]       ) ^
 2113              	 .loc 1 902 0
 2114 04ae 5340     	 eors r3,r3,r2
 2115 04b0 7B62     	 str r3,[r7,#36]
 907:C:/Users/Yushev/git/wpcqi-optiga-trust-charge/optiga/externals/mbedtls/library\aes.c **** 
 908:C:/Users/Yushev/git/wpcqi-optiga-trust-charge/optiga/externals/mbedtls/library\aes.c ****     X3 = *RK++ ^ \
 2116              	 .loc 1 908 0
 2117 04b2 3B6B     	 ldr r3,[r7,#48]
 2118 04b4 1A1D     	 adds r2,r3,#4
 2119 04b6 3A63     	 str r2,[r7,#48]
 2120 04b8 1B68     	 ldr r3,[r3]
 909:C:/Users/Yushev/git/wpcqi-optiga-trust-charge/optiga/externals/mbedtls/library\aes.c ****             ( (uint32_t) FSb[ ( Y3       ) & 0xFF ]       ) ^
 2121              	 .loc 1 909 0
 2122 04ba 3A69     	 ldr r2,[r7,#16]
 2123 04bc D2B2     	 uxtb r2,r2
 2124 04be 4149     	 ldr r1,.L72+16
 2125 04c0 8A5C     	 ldrb r2,[r1,r2]
 908:C:/Users/Yushev/git/wpcqi-optiga-trust-charge/optiga/externals/mbedtls/library\aes.c ****             ( (uint32_t) FSb[ ( Y3       ) & 0xFF ]       ) ^
 2126              	 .loc 1 908 0
 2127 04c2 5A40     	 eors r2,r2,r3
 910:C:/Users/Yushev/git/wpcqi-optiga-trust-charge/optiga/externals/mbedtls/library\aes.c ****             ( (uint32_t) FSb[ ( Y0 >>  8 ) & 0xFF ] <<  8 ) ^
 2128              	 .loc 1 910 0
 2129 04c4 FB69     	 ldr r3,[r7,#28]
 2130 04c6 1B0A     	 lsrs r3,r3,#8
 2131 04c8 DBB2     	 uxtb r3,r3
 2132 04ca 3E49     	 ldr r1,.L72+16
 2133 04cc CB5C     	 ldrb r3,[r1,r3]
 2134 04ce 1B02     	 lsls r3,r3,#8
 909:C:/Users/Yushev/git/wpcqi-optiga-trust-charge/optiga/externals/mbedtls/library\aes.c ****             ( (uint32_t) FSb[ ( Y3       ) & 0xFF ]       ) ^
 2135              	 .loc 1 909 0
 2136 04d0 5A40     	 eors r2,r2,r3
 911:C:/Users/Yushev/git/wpcqi-optiga-trust-charge/optiga/externals/mbedtls/library\aes.c ****             ( (uint32_t) FSb[ ( Y1 >> 16 ) & 0xFF ] << 16 ) ^
 2137              	 .loc 1 911 0
 2138 04d2 BB69     	 ldr r3,[r7,#24]
 2139 04d4 1B0C     	 lsrs r3,r3,#16
 2140 04d6 DBB2     	 uxtb r3,r3
 2141 04d8 3A49     	 ldr r1,.L72+16
 2142 04da CB5C     	 ldrb r3,[r1,r3]
 2143 04dc 1B04     	 lsls r3,r3,#16
 910:C:/Users/Yushev/git/wpcqi-optiga-trust-charge/optiga/externals/mbedtls/library\aes.c ****             ( (uint32_t) FSb[ ( Y0 >>  8 ) & 0xFF ] <<  8 ) ^
 2144              	 .loc 1 910 0
 2145 04de 5A40     	 eors r2,r2,r3
 912:C:/Users/Yushev/git/wpcqi-optiga-trust-charge/optiga/externals/mbedtls/library\aes.c ****             ( (uint32_t) FSb[ ( Y2 >> 24 ) & 0xFF ] << 24 );
 2146              	 .loc 1 912 0
 2147 04e0 7B69     	 ldr r3,[r7,#20]
 2148 04e2 1B0E     	 lsrs r3,r3,#24
 2149 04e4 3749     	 ldr r1,.L72+16
 2150 04e6 CB5C     	 ldrb r3,[r1,r3]
 2151 04e8 1B06     	 lsls r3,r3,#24
 908:C:/Users/Yushev/git/wpcqi-optiga-trust-charge/optiga/externals/mbedtls/library\aes.c ****             ( (uint32_t) FSb[ ( Y3       ) & 0xFF ]       ) ^
 2152              	 .loc 1 908 0
 2153 04ea 5340     	 eors r3,r3,r2
 2154 04ec 3B62     	 str r3,[r7,#32]
 913:C:/Users/Yushev/git/wpcqi-optiga-trust-charge/optiga/externals/mbedtls/library\aes.c **** 
 914:C:/Users/Yushev/git/wpcqi-optiga-trust-charge/optiga/externals/mbedtls/library\aes.c ****     PUT_UINT32_LE( X0, output,  0 );
 2155              	 .loc 1 914 0
 2156 04ee FB6A     	 ldr r3,[r7,#44]
 2157 04f0 DAB2     	 uxtb r2,r3
 2158 04f2 7B68     	 ldr r3,[r7,#4]
 2159 04f4 1A70     	 strb r2,[r3]
 2160 04f6 7B68     	 ldr r3,[r7,#4]
 2161 04f8 0133     	 adds r3,r3,#1
 2162 04fa FA6A     	 ldr r2,[r7,#44]
 2163 04fc 120A     	 lsrs r2,r2,#8
 2164 04fe D2B2     	 uxtb r2,r2
 2165 0500 1A70     	 strb r2,[r3]
 2166 0502 7B68     	 ldr r3,[r7,#4]
 2167 0504 0233     	 adds r3,r3,#2
 2168 0506 FA6A     	 ldr r2,[r7,#44]
 2169 0508 120C     	 lsrs r2,r2,#16
 2170 050a D2B2     	 uxtb r2,r2
 2171 050c 1A70     	 strb r2,[r3]
 2172 050e 7B68     	 ldr r3,[r7,#4]
 2173 0510 0333     	 adds r3,r3,#3
 2174 0512 FA6A     	 ldr r2,[r7,#44]
 2175 0514 120E     	 lsrs r2,r2,#24
 2176 0516 D2B2     	 uxtb r2,r2
 2177 0518 1A70     	 strb r2,[r3]
 915:C:/Users/Yushev/git/wpcqi-optiga-trust-charge/optiga/externals/mbedtls/library\aes.c ****     PUT_UINT32_LE( X1, output,  4 );
 2178              	 .loc 1 915 0
 2179 051a 7B68     	 ldr r3,[r7,#4]
 2180 051c 0433     	 adds r3,r3,#4
 2181 051e BA6A     	 ldr r2,[r7,#40]
 2182 0520 D2B2     	 uxtb r2,r2
 2183 0522 1A70     	 strb r2,[r3]
 2184 0524 7B68     	 ldr r3,[r7,#4]
 2185 0526 0533     	 adds r3,r3,#5
 2186 0528 BA6A     	 ldr r2,[r7,#40]
 2187 052a 120A     	 lsrs r2,r2,#8
 2188 052c D2B2     	 uxtb r2,r2
 2189 052e 1A70     	 strb r2,[r3]
 2190 0530 7B68     	 ldr r3,[r7,#4]
 2191 0532 0633     	 adds r3,r3,#6
 2192 0534 BA6A     	 ldr r2,[r7,#40]
 2193 0536 120C     	 lsrs r2,r2,#16
 2194 0538 D2B2     	 uxtb r2,r2
 2195 053a 1A70     	 strb r2,[r3]
 2196 053c 7B68     	 ldr r3,[r7,#4]
 2197 053e 0733     	 adds r3,r3,#7
 2198 0540 BA6A     	 ldr r2,[r7,#40]
 2199 0542 120E     	 lsrs r2,r2,#24
 2200 0544 D2B2     	 uxtb r2,r2
 2201 0546 1A70     	 strb r2,[r3]
 916:C:/Users/Yushev/git/wpcqi-optiga-trust-charge/optiga/externals/mbedtls/library\aes.c ****     PUT_UINT32_LE( X2, output,  8 );
 2202              	 .loc 1 916 0
 2203 0548 7B68     	 ldr r3,[r7,#4]
 2204 054a 0833     	 adds r3,r3,#8
 2205 054c 7A6A     	 ldr r2,[r7,#36]
 2206 054e D2B2     	 uxtb r2,r2
 2207 0550 1A70     	 strb r2,[r3]
 2208 0552 7B68     	 ldr r3,[r7,#4]
 2209 0554 0933     	 adds r3,r3,#9
 2210 0556 7A6A     	 ldr r2,[r7,#36]
 2211 0558 120A     	 lsrs r2,r2,#8
 2212 055a D2B2     	 uxtb r2,r2
 2213 055c 1A70     	 strb r2,[r3]
 2214 055e 7B68     	 ldr r3,[r7,#4]
 2215 0560 0A33     	 adds r3,r3,#10
 2216 0562 7A6A     	 ldr r2,[r7,#36]
 2217 0564 120C     	 lsrs r2,r2,#16
 2218 0566 D2B2     	 uxtb r2,r2
 2219 0568 1A70     	 strb r2,[r3]
 2220 056a 7B68     	 ldr r3,[r7,#4]
 2221 056c 0B33     	 adds r3,r3,#11
 2222 056e 7A6A     	 ldr r2,[r7,#36]
 2223 0570 120E     	 lsrs r2,r2,#24
 2224 0572 D2B2     	 uxtb r2,r2
 2225 0574 1A70     	 strb r2,[r3]
 917:C:/Users/Yushev/git/wpcqi-optiga-trust-charge/optiga/externals/mbedtls/library\aes.c ****     PUT_UINT32_LE( X3, output, 12 );
 2226              	 .loc 1 917 0
 2227 0576 7B68     	 ldr r3,[r7,#4]
 2228 0578 0C33     	 adds r3,r3,#12
 2229 057a 3A6A     	 ldr r2,[r7,#32]
 2230 057c D2B2     	 uxtb r2,r2
 2231 057e 1A70     	 strb r2,[r3]
 2232 0580 7B68     	 ldr r3,[r7,#4]
 2233 0582 0D33     	 adds r3,r3,#13
 2234 0584 3A6A     	 ldr r2,[r7,#32]
 2235 0586 120A     	 lsrs r2,r2,#8
 2236 0588 D2B2     	 uxtb r2,r2
 2237 058a 1A70     	 strb r2,[r3]
 2238 058c 7B68     	 ldr r3,[r7,#4]
 2239 058e 0E33     	 adds r3,r3,#14
 2240 0590 3A6A     	 ldr r2,[r7,#32]
 2241 0592 120C     	 lsrs r2,r2,#16
 2242 0594 D2B2     	 uxtb r2,r2
 2243 0596 1A70     	 strb r2,[r3]
 2244 0598 7B68     	 ldr r3,[r7,#4]
 2245 059a 0F33     	 adds r3,r3,#15
 2246 059c 3A6A     	 ldr r2,[r7,#32]
 2247 059e 120E     	 lsrs r2,r2,#24
 2248 05a0 D2B2     	 uxtb r2,r2
 2249 05a2 1A70     	 strb r2,[r3]
 918:C:/Users/Yushev/git/wpcqi-optiga-trust-charge/optiga/externals/mbedtls/library\aes.c **** 
 919:C:/Users/Yushev/git/wpcqi-optiga-trust-charge/optiga/externals/mbedtls/library\aes.c ****     return( 0 );
 2250              	 .loc 1 919 0
 2251 05a4 0023     	 movs r3,#0
 920:C:/Users/Yushev/git/wpcqi-optiga-trust-charge/optiga/externals/mbedtls/library\aes.c **** }
 2252              	 .loc 1 920 0
 2253 05a6 1846     	 mov r0,r3
 2254 05a8 3C37     	 adds r7,r7,#60
 2255              	.LCFI29:
 2256              	 .cfi_def_cfa_offset 4
 2257 05aa BD46     	 mov sp,r7
 2258              	.LCFI30:
 2259              	 .cfi_def_cfa_register 13
 2260              	 
 2261 05ac 5DF8047B 	 ldr r7,[sp],#4
 2262              	.LCFI31:
 2263              	 .cfi_restore 7
 2264              	 .cfi_def_cfa_offset 0
 2265 05b0 7047     	 bx lr
 2266              	.L73:
 2267 05b2 00BF     	 .align 2
 2268              	.L72:
 2269 05b4 00000000 	 .word FT0
 2270 05b8 00000000 	 .word FT1
 2271 05bc 00000000 	 .word FT2
 2272 05c0 00000000 	 .word FT3
 2273 05c4 00000000 	 .word FSb
 2274              	 .cfi_endproc
 2275              	.LFE5:
 2277              	 .section .text.mbedtls_aes_encrypt,"ax",%progbits
 2278              	 .align 2
 2279              	 .global mbedtls_aes_encrypt
 2280              	 .thumb
 2281              	 .thumb_func
 2283              	mbedtls_aes_encrypt:
 2284              	.LFB6:
 921:C:/Users/Yushev/git/wpcqi-optiga-trust-charge/optiga/externals/mbedtls/library\aes.c **** #endif /* !MBEDTLS_AES_ENCRYPT_ALT */
 922:C:/Users/Yushev/git/wpcqi-optiga-trust-charge/optiga/externals/mbedtls/library\aes.c **** 
 923:C:/Users/Yushev/git/wpcqi-optiga-trust-charge/optiga/externals/mbedtls/library\aes.c **** #if !defined(MBEDTLS_DEPRECATED_REMOVED)
 924:C:/Users/Yushev/git/wpcqi-optiga-trust-charge/optiga/externals/mbedtls/library\aes.c **** void mbedtls_aes_encrypt( mbedtls_aes_context *ctx,
 925:C:/Users/Yushev/git/wpcqi-optiga-trust-charge/optiga/externals/mbedtls/library\aes.c ****                           const unsigned char input[16],
 926:C:/Users/Yushev/git/wpcqi-optiga-trust-charge/optiga/externals/mbedtls/library\aes.c ****                           unsigned char output[16] )
 927:C:/Users/Yushev/git/wpcqi-optiga-trust-charge/optiga/externals/mbedtls/library\aes.c **** {
 2285              	 .loc 1 927 0
 2286              	 .cfi_startproc
 2287              	 
 2288              	 
 2289 0000 80B5     	 push {r7,lr}
 2290              	.LCFI32:
 2291              	 .cfi_def_cfa_offset 8
 2292              	 .cfi_offset 7,-8
 2293              	 .cfi_offset 14,-4
 2294 0002 84B0     	 sub sp,sp,#16
 2295              	.LCFI33:
 2296              	 .cfi_def_cfa_offset 24
 2297 0004 00AF     	 add r7,sp,#0
 2298              	.LCFI34:
 2299              	 .cfi_def_cfa_register 7
 2300 0006 F860     	 str r0,[r7,#12]
 2301 0008 B960     	 str r1,[r7,#8]
 2302 000a 7A60     	 str r2,[r7,#4]
 928:C:/Users/Yushev/git/wpcqi-optiga-trust-charge/optiga/externals/mbedtls/library\aes.c ****     mbedtls_internal_aes_encrypt( ctx, input, output );
 2303              	 .loc 1 928 0
 2304 000c F868     	 ldr r0,[r7,#12]
 2305 000e B968     	 ldr r1,[r7,#8]
 2306 0010 7A68     	 ldr r2,[r7,#4]
 2307 0012 FFF7FEFF 	 bl mbedtls_internal_aes_encrypt
 929:C:/Users/Yushev/git/wpcqi-optiga-trust-charge/optiga/externals/mbedtls/library\aes.c **** }
 2308              	 .loc 1 929 0
 2309 0016 1037     	 adds r7,r7,#16
 2310              	.LCFI35:
 2311              	 .cfi_def_cfa_offset 8
 2312 0018 BD46     	 mov sp,r7
 2313              	.LCFI36:
 2314              	 .cfi_def_cfa_register 13
 2315              	 
 2316 001a 80BD     	 pop {r7,pc}
 2317              	 .cfi_endproc
 2318              	.LFE6:
 2320              	 .section .text.mbedtls_internal_aes_decrypt,"ax",%progbits
 2321              	 .align 2
 2322              	 .global mbedtls_internal_aes_decrypt
 2323              	 .thumb
 2324              	 .thumb_func
 2326              	mbedtls_internal_aes_decrypt:
 2327              	.LFB7:
 930:C:/Users/Yushev/git/wpcqi-optiga-trust-charge/optiga/externals/mbedtls/library\aes.c **** #endif /* !MBEDTLS_DEPRECATED_REMOVED */
 931:C:/Users/Yushev/git/wpcqi-optiga-trust-charge/optiga/externals/mbedtls/library\aes.c **** 
 932:C:/Users/Yushev/git/wpcqi-optiga-trust-charge/optiga/externals/mbedtls/library\aes.c **** /*
 933:C:/Users/Yushev/git/wpcqi-optiga-trust-charge/optiga/externals/mbedtls/library\aes.c ****  * AES-ECB block decryption
 934:C:/Users/Yushev/git/wpcqi-optiga-trust-charge/optiga/externals/mbedtls/library\aes.c ****  */
 935:C:/Users/Yushev/git/wpcqi-optiga-trust-charge/optiga/externals/mbedtls/library\aes.c **** #if !defined(MBEDTLS_AES_DECRYPT_ALT)
 936:C:/Users/Yushev/git/wpcqi-optiga-trust-charge/optiga/externals/mbedtls/library\aes.c **** int mbedtls_internal_aes_decrypt( mbedtls_aes_context *ctx,
 937:C:/Users/Yushev/git/wpcqi-optiga-trust-charge/optiga/externals/mbedtls/library\aes.c ****                                   const unsigned char input[16],
 938:C:/Users/Yushev/git/wpcqi-optiga-trust-charge/optiga/externals/mbedtls/library\aes.c ****                                   unsigned char output[16] )
 939:C:/Users/Yushev/git/wpcqi-optiga-trust-charge/optiga/externals/mbedtls/library\aes.c **** {
 2328              	 .loc 1 939 0
 2329              	 .cfi_startproc
 2330              	 
 2331              	 
 2332              	 
 2333 0000 80B4     	 push {r7}
 2334              	.LCFI37:
 2335              	 .cfi_def_cfa_offset 4
 2336              	 .cfi_offset 7,-4
 2337 0002 8FB0     	 sub sp,sp,#60
 2338              	.LCFI38:
 2339              	 .cfi_def_cfa_offset 64
 2340 0004 00AF     	 add r7,sp,#0
 2341              	.LCFI39:
 2342              	 .cfi_def_cfa_register 7
 2343 0006 F860     	 str r0,[r7,#12]
 2344 0008 B960     	 str r1,[r7,#8]
 2345 000a 7A60     	 str r2,[r7,#4]
 940:C:/Users/Yushev/git/wpcqi-optiga-trust-charge/optiga/externals/mbedtls/library\aes.c ****     int i;
 941:C:/Users/Yushev/git/wpcqi-optiga-trust-charge/optiga/externals/mbedtls/library\aes.c ****     uint32_t *RK, X0, X1, X2, X3, Y0, Y1, Y2, Y3;
 942:C:/Users/Yushev/git/wpcqi-optiga-trust-charge/optiga/externals/mbedtls/library\aes.c **** 
 943:C:/Users/Yushev/git/wpcqi-optiga-trust-charge/optiga/externals/mbedtls/library\aes.c ****     RK = ctx->rk;
 2346              	 .loc 1 943 0
 2347 000c FB68     	 ldr r3,[r7,#12]
 2348 000e 5B68     	 ldr r3,[r3,#4]
 2349 0010 3B63     	 str r3,[r7,#48]
 944:C:/Users/Yushev/git/wpcqi-optiga-trust-charge/optiga/externals/mbedtls/library\aes.c **** 
 945:C:/Users/Yushev/git/wpcqi-optiga-trust-charge/optiga/externals/mbedtls/library\aes.c ****     GET_UINT32_LE( X0, input,  0 ); X0 ^= *RK++;
 2350              	 .loc 1 945 0
 2351 0012 BB68     	 ldr r3,[r7,#8]
 2352 0014 1B78     	 ldrb r3,[r3]
 2353 0016 1A46     	 mov r2,r3
 2354 0018 BB68     	 ldr r3,[r7,#8]
 2355 001a 0133     	 adds r3,r3,#1
 2356 001c 1B78     	 ldrb r3,[r3]
 2357 001e 1B02     	 lsls r3,r3,#8
 2358 0020 1A43     	 orrs r2,r2,r3
 2359 0022 BB68     	 ldr r3,[r7,#8]
 2360 0024 0233     	 adds r3,r3,#2
 2361 0026 1B78     	 ldrb r3,[r3]
 2362 0028 1B04     	 lsls r3,r3,#16
 2363 002a 1A43     	 orrs r2,r2,r3
 2364 002c BB68     	 ldr r3,[r7,#8]
 2365 002e 0333     	 adds r3,r3,#3
 2366 0030 1B78     	 ldrb r3,[r3]
 2367 0032 1B06     	 lsls r3,r3,#24
 2368 0034 1343     	 orrs r3,r3,r2
 2369 0036 FB62     	 str r3,[r7,#44]
 2370 0038 3B6B     	 ldr r3,[r7,#48]
 2371 003a 1A1D     	 adds r2,r3,#4
 2372 003c 3A63     	 str r2,[r7,#48]
 2373 003e 1B68     	 ldr r3,[r3]
 2374 0040 FA6A     	 ldr r2,[r7,#44]
 2375 0042 5340     	 eors r3,r3,r2
 2376 0044 FB62     	 str r3,[r7,#44]
 946:C:/Users/Yushev/git/wpcqi-optiga-trust-charge/optiga/externals/mbedtls/library\aes.c ****     GET_UINT32_LE( X1, input,  4 ); X1 ^= *RK++;
 2377              	 .loc 1 946 0
 2378 0046 BB68     	 ldr r3,[r7,#8]
 2379 0048 0433     	 adds r3,r3,#4
 2380 004a 1B78     	 ldrb r3,[r3]
 2381 004c 1A46     	 mov r2,r3
 2382 004e BB68     	 ldr r3,[r7,#8]
 2383 0050 0533     	 adds r3,r3,#5
 2384 0052 1B78     	 ldrb r3,[r3]
 2385 0054 1B02     	 lsls r3,r3,#8
 2386 0056 1A43     	 orrs r2,r2,r3
 2387 0058 BB68     	 ldr r3,[r7,#8]
 2388 005a 0633     	 adds r3,r3,#6
 2389 005c 1B78     	 ldrb r3,[r3]
 2390 005e 1B04     	 lsls r3,r3,#16
 2391 0060 1A43     	 orrs r2,r2,r3
 2392 0062 BB68     	 ldr r3,[r7,#8]
 2393 0064 0733     	 adds r3,r3,#7
 2394 0066 1B78     	 ldrb r3,[r3]
 2395 0068 1B06     	 lsls r3,r3,#24
 2396 006a 1343     	 orrs r3,r3,r2
 2397 006c BB62     	 str r3,[r7,#40]
 2398 006e 3B6B     	 ldr r3,[r7,#48]
 2399 0070 1A1D     	 adds r2,r3,#4
 2400 0072 3A63     	 str r2,[r7,#48]
 2401 0074 1B68     	 ldr r3,[r3]
 2402 0076 BA6A     	 ldr r2,[r7,#40]
 2403 0078 5340     	 eors r3,r3,r2
 2404 007a BB62     	 str r3,[r7,#40]
 947:C:/Users/Yushev/git/wpcqi-optiga-trust-charge/optiga/externals/mbedtls/library\aes.c ****     GET_UINT32_LE( X2, input,  8 ); X2 ^= *RK++;
 2405              	 .loc 1 947 0
 2406 007c BB68     	 ldr r3,[r7,#8]
 2407 007e 0833     	 adds r3,r3,#8
 2408 0080 1B78     	 ldrb r3,[r3]
 2409 0082 1A46     	 mov r2,r3
 2410 0084 BB68     	 ldr r3,[r7,#8]
 2411 0086 0933     	 adds r3,r3,#9
 2412 0088 1B78     	 ldrb r3,[r3]
 2413 008a 1B02     	 lsls r3,r3,#8
 2414 008c 1A43     	 orrs r2,r2,r3
 2415 008e BB68     	 ldr r3,[r7,#8]
 2416 0090 0A33     	 adds r3,r3,#10
 2417 0092 1B78     	 ldrb r3,[r3]
 2418 0094 1B04     	 lsls r3,r3,#16
 2419 0096 1A43     	 orrs r2,r2,r3
 2420 0098 BB68     	 ldr r3,[r7,#8]
 2421 009a 0B33     	 adds r3,r3,#11
 2422 009c 1B78     	 ldrb r3,[r3]
 2423 009e 1B06     	 lsls r3,r3,#24
 2424 00a0 1343     	 orrs r3,r3,r2
 2425 00a2 7B62     	 str r3,[r7,#36]
 2426 00a4 3B6B     	 ldr r3,[r7,#48]
 2427 00a6 1A1D     	 adds r2,r3,#4
 2428 00a8 3A63     	 str r2,[r7,#48]
 2429 00aa 1B68     	 ldr r3,[r3]
 2430 00ac 7A6A     	 ldr r2,[r7,#36]
 2431 00ae 5340     	 eors r3,r3,r2
 2432 00b0 7B62     	 str r3,[r7,#36]
 948:C:/Users/Yushev/git/wpcqi-optiga-trust-charge/optiga/externals/mbedtls/library\aes.c ****     GET_UINT32_LE( X3, input, 12 ); X3 ^= *RK++;
 2433              	 .loc 1 948 0
 2434 00b2 BB68     	 ldr r3,[r7,#8]
 2435 00b4 0C33     	 adds r3,r3,#12
 2436 00b6 1B78     	 ldrb r3,[r3]
 2437 00b8 1A46     	 mov r2,r3
 2438 00ba BB68     	 ldr r3,[r7,#8]
 2439 00bc 0D33     	 adds r3,r3,#13
 2440 00be 1B78     	 ldrb r3,[r3]
 2441 00c0 1B02     	 lsls r3,r3,#8
 2442 00c2 1A43     	 orrs r2,r2,r3
 2443 00c4 BB68     	 ldr r3,[r7,#8]
 2444 00c6 0E33     	 adds r3,r3,#14
 2445 00c8 1B78     	 ldrb r3,[r3]
 2446 00ca 1B04     	 lsls r3,r3,#16
 2447 00cc 1A43     	 orrs r2,r2,r3
 2448 00ce BB68     	 ldr r3,[r7,#8]
 2449 00d0 0F33     	 adds r3,r3,#15
 2450 00d2 1B78     	 ldrb r3,[r3]
 2451 00d4 1B06     	 lsls r3,r3,#24
 2452 00d6 1343     	 orrs r3,r3,r2
 2453 00d8 3B62     	 str r3,[r7,#32]
 2454 00da 3B6B     	 ldr r3,[r7,#48]
 2455 00dc 1A1D     	 adds r2,r3,#4
 2456 00de 3A63     	 str r2,[r7,#48]
 2457 00e0 1B68     	 ldr r3,[r3]
 2458 00e2 3A6A     	 ldr r2,[r7,#32]
 2459 00e4 5340     	 eors r3,r3,r2
 2460 00e6 3B62     	 str r3,[r7,#32]
 949:C:/Users/Yushev/git/wpcqi-optiga-trust-charge/optiga/externals/mbedtls/library\aes.c **** 
 950:C:/Users/Yushev/git/wpcqi-optiga-trust-charge/optiga/externals/mbedtls/library\aes.c ****     for( i = ( ctx->nr >> 1 ) - 1; i > 0; i-- )
 2461              	 .loc 1 950 0
 2462 00e8 FB68     	 ldr r3,[r7,#12]
 2463 00ea 1B68     	 ldr r3,[r3]
 2464 00ec 5B10     	 asrs r3,r3,#1
 2465 00ee 013B     	 subs r3,r3,#1
 2466 00f0 7B63     	 str r3,[r7,#52]
 2467 00f2 FAE0     	 b .L76
 2468              	.L77:
 951:C:/Users/Yushev/git/wpcqi-optiga-trust-charge/optiga/externals/mbedtls/library\aes.c ****     {
 952:C:/Users/Yushev/git/wpcqi-optiga-trust-charge/optiga/externals/mbedtls/library\aes.c ****         AES_RROUND( Y0, Y1, Y2, Y3, X0, X1, X2, X3 );
 2469              	 .loc 1 952 0 discriminator 3
 2470 00f4 3B6B     	 ldr r3,[r7,#48]
 2471 00f6 1A1D     	 adds r2,r3,#4
 2472 00f8 3A63     	 str r2,[r7,#48]
 2473 00fa 1A68     	 ldr r2,[r3]
 2474 00fc FB6A     	 ldr r3,[r7,#44]
 2475 00fe DBB2     	 uxtb r3,r3
 2476 0100 AC49     	 ldr r1,.L79
 2477 0102 51F82330 	 ldr r3,[r1,r3,lsl#2]
 2478 0106 5A40     	 eors r2,r2,r3
 2479 0108 3B6A     	 ldr r3,[r7,#32]
 2480 010a 1B0A     	 lsrs r3,r3,#8
 2481 010c DBB2     	 uxtb r3,r3
 2482 010e AA49     	 ldr r1,.L79+4
 2483 0110 51F82330 	 ldr r3,[r1,r3,lsl#2]
 2484 0114 5A40     	 eors r2,r2,r3
 2485 0116 7B6A     	 ldr r3,[r7,#36]
 2486 0118 1B0C     	 lsrs r3,r3,#16
 2487 011a DBB2     	 uxtb r3,r3
 2488 011c A749     	 ldr r1,.L79+8
 2489 011e 51F82330 	 ldr r3,[r1,r3,lsl#2]
 2490 0122 5A40     	 eors r2,r2,r3
 2491 0124 BB6A     	 ldr r3,[r7,#40]
 2492 0126 1B0E     	 lsrs r3,r3,#24
 2493 0128 A549     	 ldr r1,.L79+12
 2494 012a 51F82330 	 ldr r3,[r1,r3,lsl#2]
 2495 012e 5340     	 eors r3,r3,r2
 2496 0130 FB61     	 str r3,[r7,#28]
 2497 0132 3B6B     	 ldr r3,[r7,#48]
 2498 0134 1A1D     	 adds r2,r3,#4
 2499 0136 3A63     	 str r2,[r7,#48]
 2500 0138 1A68     	 ldr r2,[r3]
 2501 013a BB6A     	 ldr r3,[r7,#40]
 2502 013c DBB2     	 uxtb r3,r3
 2503 013e 9D49     	 ldr r1,.L79
 2504 0140 51F82330 	 ldr r3,[r1,r3,lsl#2]
 2505 0144 5A40     	 eors r2,r2,r3
 2506 0146 FB6A     	 ldr r3,[r7,#44]
 2507 0148 1B0A     	 lsrs r3,r3,#8
 2508 014a DBB2     	 uxtb r3,r3
 2509 014c 9A49     	 ldr r1,.L79+4
 2510 014e 51F82330 	 ldr r3,[r1,r3,lsl#2]
 2511 0152 5A40     	 eors r2,r2,r3
 2512 0154 3B6A     	 ldr r3,[r7,#32]
 2513 0156 1B0C     	 lsrs r3,r3,#16
 2514 0158 DBB2     	 uxtb r3,r3
 2515 015a 9849     	 ldr r1,.L79+8
 2516 015c 51F82330 	 ldr r3,[r1,r3,lsl#2]
 2517 0160 5A40     	 eors r2,r2,r3
 2518 0162 7B6A     	 ldr r3,[r7,#36]
 2519 0164 1B0E     	 lsrs r3,r3,#24
 2520 0166 9649     	 ldr r1,.L79+12
 2521 0168 51F82330 	 ldr r3,[r1,r3,lsl#2]
 2522 016c 5340     	 eors r3,r3,r2
 2523 016e BB61     	 str r3,[r7,#24]
 2524 0170 3B6B     	 ldr r3,[r7,#48]
 2525 0172 1A1D     	 adds r2,r3,#4
 2526 0174 3A63     	 str r2,[r7,#48]
 2527 0176 1A68     	 ldr r2,[r3]
 2528 0178 7B6A     	 ldr r3,[r7,#36]
 2529 017a DBB2     	 uxtb r3,r3
 2530 017c 8D49     	 ldr r1,.L79
 2531 017e 51F82330 	 ldr r3,[r1,r3,lsl#2]
 2532 0182 5A40     	 eors r2,r2,r3
 2533 0184 BB6A     	 ldr r3,[r7,#40]
 2534 0186 1B0A     	 lsrs r3,r3,#8
 2535 0188 DBB2     	 uxtb r3,r3
 2536 018a 8B49     	 ldr r1,.L79+4
 2537 018c 51F82330 	 ldr r3,[r1,r3,lsl#2]
 2538 0190 5A40     	 eors r2,r2,r3
 2539 0192 FB6A     	 ldr r3,[r7,#44]
 2540 0194 1B0C     	 lsrs r3,r3,#16
 2541 0196 DBB2     	 uxtb r3,r3
 2542 0198 8849     	 ldr r1,.L79+8
 2543 019a 51F82330 	 ldr r3,[r1,r3,lsl#2]
 2544 019e 5A40     	 eors r2,r2,r3
 2545 01a0 3B6A     	 ldr r3,[r7,#32]
 2546 01a2 1B0E     	 lsrs r3,r3,#24
 2547 01a4 8649     	 ldr r1,.L79+12
 2548 01a6 51F82330 	 ldr r3,[r1,r3,lsl#2]
 2549 01aa 5340     	 eors r3,r3,r2
 2550 01ac 7B61     	 str r3,[r7,#20]
 2551 01ae 3B6B     	 ldr r3,[r7,#48]
 2552 01b0 1A1D     	 adds r2,r3,#4
 2553 01b2 3A63     	 str r2,[r7,#48]
 2554 01b4 1A68     	 ldr r2,[r3]
 2555 01b6 3B6A     	 ldr r3,[r7,#32]
 2556 01b8 DBB2     	 uxtb r3,r3
 2557 01ba 7E49     	 ldr r1,.L79
 2558 01bc 51F82330 	 ldr r3,[r1,r3,lsl#2]
 2559 01c0 5A40     	 eors r2,r2,r3
 2560 01c2 7B6A     	 ldr r3,[r7,#36]
 2561 01c4 1B0A     	 lsrs r3,r3,#8
 2562 01c6 DBB2     	 uxtb r3,r3
 2563 01c8 7B49     	 ldr r1,.L79+4
 2564 01ca 51F82330 	 ldr r3,[r1,r3,lsl#2]
 2565 01ce 5A40     	 eors r2,r2,r3
 2566 01d0 BB6A     	 ldr r3,[r7,#40]
 2567 01d2 1B0C     	 lsrs r3,r3,#16
 2568 01d4 DBB2     	 uxtb r3,r3
 2569 01d6 7949     	 ldr r1,.L79+8
 2570 01d8 51F82330 	 ldr r3,[r1,r3,lsl#2]
 2571 01dc 5A40     	 eors r2,r2,r3
 2572 01de FB6A     	 ldr r3,[r7,#44]
 2573 01e0 1B0E     	 lsrs r3,r3,#24
 2574 01e2 7749     	 ldr r1,.L79+12
 2575 01e4 51F82330 	 ldr r3,[r1,r3,lsl#2]
 2576 01e8 5340     	 eors r3,r3,r2
 2577 01ea 3B61     	 str r3,[r7,#16]
 953:C:/Users/Yushev/git/wpcqi-optiga-trust-charge/optiga/externals/mbedtls/library\aes.c ****         AES_RROUND( X0, X1, X2, X3, Y0, Y1, Y2, Y3 );
 2578              	 .loc 1 953 0 discriminator 3
 2579 01ec 3B6B     	 ldr r3,[r7,#48]
 2580 01ee 1A1D     	 adds r2,r3,#4
 2581 01f0 3A63     	 str r2,[r7,#48]
 2582 01f2 1A68     	 ldr r2,[r3]
 2583 01f4 FB69     	 ldr r3,[r7,#28]
 2584 01f6 DBB2     	 uxtb r3,r3
 2585 01f8 6E49     	 ldr r1,.L79
 2586 01fa 51F82330 	 ldr r3,[r1,r3,lsl#2]
 2587 01fe 5A40     	 eors r2,r2,r3
 2588 0200 3B69     	 ldr r3,[r7,#16]
 2589 0202 1B0A     	 lsrs r3,r3,#8
 2590 0204 DBB2     	 uxtb r3,r3
 2591 0206 6C49     	 ldr r1,.L79+4
 2592 0208 51F82330 	 ldr r3,[r1,r3,lsl#2]
 2593 020c 5A40     	 eors r2,r2,r3
 2594 020e 7B69     	 ldr r3,[r7,#20]
 2595 0210 1B0C     	 lsrs r3,r3,#16
 2596 0212 DBB2     	 uxtb r3,r3
 2597 0214 6949     	 ldr r1,.L79+8
 2598 0216 51F82330 	 ldr r3,[r1,r3,lsl#2]
 2599 021a 5A40     	 eors r2,r2,r3
 2600 021c BB69     	 ldr r3,[r7,#24]
 2601 021e 1B0E     	 lsrs r3,r3,#24
 2602 0220 6749     	 ldr r1,.L79+12
 2603 0222 51F82330 	 ldr r3,[r1,r3,lsl#2]
 2604 0226 5340     	 eors r3,r3,r2
 2605 0228 FB62     	 str r3,[r7,#44]
 2606 022a 3B6B     	 ldr r3,[r7,#48]
 2607 022c 1A1D     	 adds r2,r3,#4
 2608 022e 3A63     	 str r2,[r7,#48]
 2609 0230 1A68     	 ldr r2,[r3]
 2610 0232 BB69     	 ldr r3,[r7,#24]
 2611 0234 DBB2     	 uxtb r3,r3
 2612 0236 5F49     	 ldr r1,.L79
 2613 0238 51F82330 	 ldr r3,[r1,r3,lsl#2]
 2614 023c 5A40     	 eors r2,r2,r3
 2615 023e FB69     	 ldr r3,[r7,#28]
 2616 0240 1B0A     	 lsrs r3,r3,#8
 2617 0242 DBB2     	 uxtb r3,r3
 2618 0244 5C49     	 ldr r1,.L79+4
 2619 0246 51F82330 	 ldr r3,[r1,r3,lsl#2]
 2620 024a 5A40     	 eors r2,r2,r3
 2621 024c 3B69     	 ldr r3,[r7,#16]
 2622 024e 1B0C     	 lsrs r3,r3,#16
 2623 0250 DBB2     	 uxtb r3,r3
 2624 0252 5A49     	 ldr r1,.L79+8
 2625 0254 51F82330 	 ldr r3,[r1,r3,lsl#2]
 2626 0258 5A40     	 eors r2,r2,r3
 2627 025a 7B69     	 ldr r3,[r7,#20]
 2628 025c 1B0E     	 lsrs r3,r3,#24
 2629 025e 5849     	 ldr r1,.L79+12
 2630 0260 51F82330 	 ldr r3,[r1,r3,lsl#2]
 2631 0264 5340     	 eors r3,r3,r2
 2632 0266 BB62     	 str r3,[r7,#40]
 2633 0268 3B6B     	 ldr r3,[r7,#48]
 2634 026a 1A1D     	 adds r2,r3,#4
 2635 026c 3A63     	 str r2,[r7,#48]
 2636 026e 1A68     	 ldr r2,[r3]
 2637 0270 7B69     	 ldr r3,[r7,#20]
 2638 0272 DBB2     	 uxtb r3,r3
 2639 0274 4F49     	 ldr r1,.L79
 2640 0276 51F82330 	 ldr r3,[r1,r3,lsl#2]
 2641 027a 5A40     	 eors r2,r2,r3
 2642 027c BB69     	 ldr r3,[r7,#24]
 2643 027e 1B0A     	 lsrs r3,r3,#8
 2644 0280 DBB2     	 uxtb r3,r3
 2645 0282 4D49     	 ldr r1,.L79+4
 2646 0284 51F82330 	 ldr r3,[r1,r3,lsl#2]
 2647 0288 5A40     	 eors r2,r2,r3
 2648 028a FB69     	 ldr r3,[r7,#28]
 2649 028c 1B0C     	 lsrs r3,r3,#16
 2650 028e DBB2     	 uxtb r3,r3
 2651 0290 4A49     	 ldr r1,.L79+8
 2652 0292 51F82330 	 ldr r3,[r1,r3,lsl#2]
 2653 0296 5A40     	 eors r2,r2,r3
 2654 0298 3B69     	 ldr r3,[r7,#16]
 2655 029a 1B0E     	 lsrs r3,r3,#24
 2656 029c 4849     	 ldr r1,.L79+12
 2657 029e 51F82330 	 ldr r3,[r1,r3,lsl#2]
 2658 02a2 5340     	 eors r3,r3,r2
 2659 02a4 7B62     	 str r3,[r7,#36]
 2660 02a6 3B6B     	 ldr r3,[r7,#48]
 2661 02a8 1A1D     	 adds r2,r3,#4
 2662 02aa 3A63     	 str r2,[r7,#48]
 2663 02ac 1A68     	 ldr r2,[r3]
 2664 02ae 3B69     	 ldr r3,[r7,#16]
 2665 02b0 DBB2     	 uxtb r3,r3
 2666 02b2 4049     	 ldr r1,.L79
 2667 02b4 51F82330 	 ldr r3,[r1,r3,lsl#2]
 2668 02b8 5A40     	 eors r2,r2,r3
 2669 02ba 7B69     	 ldr r3,[r7,#20]
 2670 02bc 1B0A     	 lsrs r3,r3,#8
 2671 02be DBB2     	 uxtb r3,r3
 2672 02c0 3D49     	 ldr r1,.L79+4
 2673 02c2 51F82330 	 ldr r3,[r1,r3,lsl#2]
 2674 02c6 5A40     	 eors r2,r2,r3
 2675 02c8 BB69     	 ldr r3,[r7,#24]
 2676 02ca 1B0C     	 lsrs r3,r3,#16
 2677 02cc DBB2     	 uxtb r3,r3
 2678 02ce 3B49     	 ldr r1,.L79+8
 2679 02d0 51F82330 	 ldr r3,[r1,r3,lsl#2]
 2680 02d4 5A40     	 eors r2,r2,r3
 2681 02d6 FB69     	 ldr r3,[r7,#28]
 2682 02d8 1B0E     	 lsrs r3,r3,#24
 2683 02da 3949     	 ldr r1,.L79+12
 2684 02dc 51F82330 	 ldr r3,[r1,r3,lsl#2]
 2685 02e0 5340     	 eors r3,r3,r2
 2686 02e2 3B62     	 str r3,[r7,#32]
 950:C:/Users/Yushev/git/wpcqi-optiga-trust-charge/optiga/externals/mbedtls/library\aes.c ****     {
 2687              	 .loc 1 950 0 discriminator 3
 2688 02e4 7B6B     	 ldr r3,[r7,#52]
 2689 02e6 013B     	 subs r3,r3,#1
 2690 02e8 7B63     	 str r3,[r7,#52]
 2691              	.L76:
 950:C:/Users/Yushev/git/wpcqi-optiga-trust-charge/optiga/externals/mbedtls/library\aes.c ****     {
 2692              	 .loc 1 950 0 is_stmt 0 discriminator 1
 2693 02ea 7B6B     	 ldr r3,[r7,#52]
 2694 02ec 002B     	 cmp r3,#0
 2695 02ee 3FF701AF 	 bgt .L77
 954:C:/Users/Yushev/git/wpcqi-optiga-trust-charge/optiga/externals/mbedtls/library\aes.c ****     }
 955:C:/Users/Yushev/git/wpcqi-optiga-trust-charge/optiga/externals/mbedtls/library\aes.c **** 
 956:C:/Users/Yushev/git/wpcqi-optiga-trust-charge/optiga/externals/mbedtls/library\aes.c ****     AES_RROUND( Y0, Y1, Y2, Y3, X0, X1, X2, X3 );
 2696              	 .loc 1 956 0 is_stmt 1
 2697 02f2 3B6B     	 ldr r3,[r7,#48]
 2698 02f4 1A1D     	 adds r2,r3,#4
 2699 02f6 3A63     	 str r2,[r7,#48]
 2700 02f8 1A68     	 ldr r2,[r3]
 2701 02fa FB6A     	 ldr r3,[r7,#44]
 2702 02fc DBB2     	 uxtb r3,r3
 2703 02fe 2D49     	 ldr r1,.L79
 2704 0300 51F82330 	 ldr r3,[r1,r3,lsl#2]
 2705 0304 5A40     	 eors r2,r2,r3
 2706 0306 3B6A     	 ldr r3,[r7,#32]
 2707 0308 1B0A     	 lsrs r3,r3,#8
 2708 030a DBB2     	 uxtb r3,r3
 2709 030c 2A49     	 ldr r1,.L79+4
 2710 030e 51F82330 	 ldr r3,[r1,r3,lsl#2]
 2711 0312 5A40     	 eors r2,r2,r3
 2712 0314 7B6A     	 ldr r3,[r7,#36]
 2713 0316 1B0C     	 lsrs r3,r3,#16
 2714 0318 DBB2     	 uxtb r3,r3
 2715 031a 2849     	 ldr r1,.L79+8
 2716 031c 51F82330 	 ldr r3,[r1,r3,lsl#2]
 2717 0320 5A40     	 eors r2,r2,r3
 2718 0322 BB6A     	 ldr r3,[r7,#40]
 2719 0324 1B0E     	 lsrs r3,r3,#24
 2720 0326 2649     	 ldr r1,.L79+12
 2721 0328 51F82330 	 ldr r3,[r1,r3,lsl#2]
 2722 032c 5340     	 eors r3,r3,r2
 2723 032e FB61     	 str r3,[r7,#28]
 2724 0330 3B6B     	 ldr r3,[r7,#48]
 2725 0332 1A1D     	 adds r2,r3,#4
 2726 0334 3A63     	 str r2,[r7,#48]
 2727 0336 1A68     	 ldr r2,[r3]
 2728 0338 BB6A     	 ldr r3,[r7,#40]
 2729 033a DBB2     	 uxtb r3,r3
 2730 033c 1D49     	 ldr r1,.L79
 2731 033e 51F82330 	 ldr r3,[r1,r3,lsl#2]
 2732 0342 5A40     	 eors r2,r2,r3
 2733 0344 FB6A     	 ldr r3,[r7,#44]
 2734 0346 1B0A     	 lsrs r3,r3,#8
 2735 0348 DBB2     	 uxtb r3,r3
 2736 034a 1B49     	 ldr r1,.L79+4
 2737 034c 51F82330 	 ldr r3,[r1,r3,lsl#2]
 2738 0350 5A40     	 eors r2,r2,r3
 2739 0352 3B6A     	 ldr r3,[r7,#32]
 2740 0354 1B0C     	 lsrs r3,r3,#16
 2741 0356 DBB2     	 uxtb r3,r3
 2742 0358 1849     	 ldr r1,.L79+8
 2743 035a 51F82330 	 ldr r3,[r1,r3,lsl#2]
 2744 035e 5A40     	 eors r2,r2,r3
 2745 0360 7B6A     	 ldr r3,[r7,#36]
 2746 0362 1B0E     	 lsrs r3,r3,#24
 2747 0364 1649     	 ldr r1,.L79+12
 2748 0366 51F82330 	 ldr r3,[r1,r3,lsl#2]
 2749 036a 5340     	 eors r3,r3,r2
 2750 036c BB61     	 str r3,[r7,#24]
 2751 036e 3B6B     	 ldr r3,[r7,#48]
 2752 0370 1A1D     	 adds r2,r3,#4
 2753 0372 3A63     	 str r2,[r7,#48]
 2754 0374 1A68     	 ldr r2,[r3]
 2755 0376 7B6A     	 ldr r3,[r7,#36]
 2756 0378 DBB2     	 uxtb r3,r3
 2757 037a 0E49     	 ldr r1,.L79
 2758 037c 51F82330 	 ldr r3,[r1,r3,lsl#2]
 2759 0380 5A40     	 eors r2,r2,r3
 2760 0382 BB6A     	 ldr r3,[r7,#40]
 2761 0384 1B0A     	 lsrs r3,r3,#8
 2762 0386 DBB2     	 uxtb r3,r3
 2763 0388 0B49     	 ldr r1,.L79+4
 2764 038a 51F82330 	 ldr r3,[r1,r3,lsl#2]
 2765 038e 5A40     	 eors r2,r2,r3
 2766 0390 FB6A     	 ldr r3,[r7,#44]
 2767 0392 1B0C     	 lsrs r3,r3,#16
 2768 0394 DBB2     	 uxtb r3,r3
 2769 0396 0949     	 ldr r1,.L79+8
 2770 0398 51F82330 	 ldr r3,[r1,r3,lsl#2]
 2771 039c 5A40     	 eors r2,r2,r3
 2772 039e 3B6A     	 ldr r3,[r7,#32]
 2773 03a0 1B0E     	 lsrs r3,r3,#24
 2774 03a2 0749     	 ldr r1,.L79+12
 2775 03a4 51F82330 	 ldr r3,[r1,r3,lsl#2]
 2776 03a8 5340     	 eors r3,r3,r2
 2777 03aa 7B61     	 str r3,[r7,#20]
 2778 03ac 3B6B     	 ldr r3,[r7,#48]
 2779 03ae 1A1D     	 adds r2,r3,#4
 2780 03b0 08E0     	 b .L80
 2781              	.L81:
 2782 03b2 00BF     	 .align 2
 2783              	.L79:
 2784 03b4 00000000 	 .word RT0
 2785 03b8 00000000 	 .word RT1
 2786 03bc 00000000 	 .word RT2
 2787 03c0 00000000 	 .word RT3
 2788              	.L80:
 2789 03c4 3A63     	 str r2,[r7,#48]
 2790 03c6 1A68     	 ldr r2,[r3]
 2791 03c8 3B6A     	 ldr r3,[r7,#32]
 2792 03ca DBB2     	 uxtb r3,r3
 2793 03cc 7949     	 ldr r1,.L82
 2794 03ce 51F82330 	 ldr r3,[r1,r3,lsl#2]
 2795 03d2 5A40     	 eors r2,r2,r3
 2796 03d4 7B6A     	 ldr r3,[r7,#36]
 2797 03d6 1B0A     	 lsrs r3,r3,#8
 2798 03d8 DBB2     	 uxtb r3,r3
 2799 03da 7749     	 ldr r1,.L82+4
 2800 03dc 51F82330 	 ldr r3,[r1,r3,lsl#2]
 2801 03e0 5A40     	 eors r2,r2,r3
 2802 03e2 BB6A     	 ldr r3,[r7,#40]
 2803 03e4 1B0C     	 lsrs r3,r3,#16
 2804 03e6 DBB2     	 uxtb r3,r3
 2805 03e8 7449     	 ldr r1,.L82+8
 2806 03ea 51F82330 	 ldr r3,[r1,r3,lsl#2]
 2807 03ee 5A40     	 eors r2,r2,r3
 2808 03f0 FB6A     	 ldr r3,[r7,#44]
 2809 03f2 1B0E     	 lsrs r3,r3,#24
 2810 03f4 7249     	 ldr r1,.L82+12
 2811 03f6 51F82330 	 ldr r3,[r1,r3,lsl#2]
 2812 03fa 5340     	 eors r3,r3,r2
 2813 03fc 3B61     	 str r3,[r7,#16]
 957:C:/Users/Yushev/git/wpcqi-optiga-trust-charge/optiga/externals/mbedtls/library\aes.c **** 
 958:C:/Users/Yushev/git/wpcqi-optiga-trust-charge/optiga/externals/mbedtls/library\aes.c ****     X0 = *RK++ ^ \
 2814              	 .loc 1 958 0
 2815 03fe 3B6B     	 ldr r3,[r7,#48]
 2816 0400 1A1D     	 adds r2,r3,#4
 2817 0402 3A63     	 str r2,[r7,#48]
 2818 0404 1B68     	 ldr r3,[r3]
 959:C:/Users/Yushev/git/wpcqi-optiga-trust-charge/optiga/externals/mbedtls/library\aes.c ****             ( (uint32_t) RSb[ ( Y0       ) & 0xFF ]       ) ^
 2819              	 .loc 1 959 0
 2820 0406 FA69     	 ldr r2,[r7,#28]
 2821 0408 D2B2     	 uxtb r2,r2
 2822 040a 6E49     	 ldr r1,.L82+16
 2823 040c 8A5C     	 ldrb r2,[r1,r2]
 958:C:/Users/Yushev/git/wpcqi-optiga-trust-charge/optiga/externals/mbedtls/library\aes.c ****             ( (uint32_t) RSb[ ( Y0       ) & 0xFF ]       ) ^
 2824              	 .loc 1 958 0
 2825 040e 5A40     	 eors r2,r2,r3
 960:C:/Users/Yushev/git/wpcqi-optiga-trust-charge/optiga/externals/mbedtls/library\aes.c ****             ( (uint32_t) RSb[ ( Y3 >>  8 ) & 0xFF ] <<  8 ) ^
 2826              	 .loc 1 960 0
 2827 0410 3B69     	 ldr r3,[r7,#16]
 2828 0412 1B0A     	 lsrs r3,r3,#8
 2829 0414 DBB2     	 uxtb r3,r3
 2830 0416 6B49     	 ldr r1,.L82+16
 2831 0418 CB5C     	 ldrb r3,[r1,r3]
 2832 041a 1B02     	 lsls r3,r3,#8
 959:C:/Users/Yushev/git/wpcqi-optiga-trust-charge/optiga/externals/mbedtls/library\aes.c ****             ( (uint32_t) RSb[ ( Y0       ) & 0xFF ]       ) ^
 2833              	 .loc 1 959 0
 2834 041c 5A40     	 eors r2,r2,r3
 961:C:/Users/Yushev/git/wpcqi-optiga-trust-charge/optiga/externals/mbedtls/library\aes.c ****             ( (uint32_t) RSb[ ( Y2 >> 16 ) & 0xFF ] << 16 ) ^
 2835              	 .loc 1 961 0
 2836 041e 7B69     	 ldr r3,[r7,#20]
 2837 0420 1B0C     	 lsrs r3,r3,#16
 2838 0422 DBB2     	 uxtb r3,r3
 2839 0424 6749     	 ldr r1,.L82+16
 2840 0426 CB5C     	 ldrb r3,[r1,r3]
 2841 0428 1B04     	 lsls r3,r3,#16
 960:C:/Users/Yushev/git/wpcqi-optiga-trust-charge/optiga/externals/mbedtls/library\aes.c ****             ( (uint32_t) RSb[ ( Y3 >>  8 ) & 0xFF ] <<  8 ) ^
 2842              	 .loc 1 960 0
 2843 042a 5A40     	 eors r2,r2,r3
 962:C:/Users/Yushev/git/wpcqi-optiga-trust-charge/optiga/externals/mbedtls/library\aes.c ****             ( (uint32_t) RSb[ ( Y1 >> 24 ) & 0xFF ] << 24 );
 2844              	 .loc 1 962 0
 2845 042c BB69     	 ldr r3,[r7,#24]
 2846 042e 1B0E     	 lsrs r3,r3,#24
 2847 0430 6449     	 ldr r1,.L82+16
 2848 0432 CB5C     	 ldrb r3,[r1,r3]
 2849 0434 1B06     	 lsls r3,r3,#24
 958:C:/Users/Yushev/git/wpcqi-optiga-trust-charge/optiga/externals/mbedtls/library\aes.c ****             ( (uint32_t) RSb[ ( Y0       ) & 0xFF ]       ) ^
 2850              	 .loc 1 958 0
 2851 0436 5340     	 eors r3,r3,r2
 2852 0438 FB62     	 str r3,[r7,#44]
 963:C:/Users/Yushev/git/wpcqi-optiga-trust-charge/optiga/externals/mbedtls/library\aes.c **** 
 964:C:/Users/Yushev/git/wpcqi-optiga-trust-charge/optiga/externals/mbedtls/library\aes.c ****     X1 = *RK++ ^ \
 2853              	 .loc 1 964 0
 2854 043a 3B6B     	 ldr r3,[r7,#48]
 2855 043c 1A1D     	 adds r2,r3,#4
 2856 043e 3A63     	 str r2,[r7,#48]
 2857 0440 1B68     	 ldr r3,[r3]
 965:C:/Users/Yushev/git/wpcqi-optiga-trust-charge/optiga/externals/mbedtls/library\aes.c ****             ( (uint32_t) RSb[ ( Y1       ) & 0xFF ]       ) ^
 2858              	 .loc 1 965 0
 2859 0442 BA69     	 ldr r2,[r7,#24]
 2860 0444 D2B2     	 uxtb r2,r2
 2861 0446 5F49     	 ldr r1,.L82+16
 2862 0448 8A5C     	 ldrb r2,[r1,r2]
 964:C:/Users/Yushev/git/wpcqi-optiga-trust-charge/optiga/externals/mbedtls/library\aes.c ****             ( (uint32_t) RSb[ ( Y1       ) & 0xFF ]       ) ^
 2863              	 .loc 1 964 0
 2864 044a 5A40     	 eors r2,r2,r3
 966:C:/Users/Yushev/git/wpcqi-optiga-trust-charge/optiga/externals/mbedtls/library\aes.c ****             ( (uint32_t) RSb[ ( Y0 >>  8 ) & 0xFF ] <<  8 ) ^
 2865              	 .loc 1 966 0
 2866 044c FB69     	 ldr r3,[r7,#28]
 2867 044e 1B0A     	 lsrs r3,r3,#8
 2868 0450 DBB2     	 uxtb r3,r3
 2869 0452 5C49     	 ldr r1,.L82+16
 2870 0454 CB5C     	 ldrb r3,[r1,r3]
 2871 0456 1B02     	 lsls r3,r3,#8
 965:C:/Users/Yushev/git/wpcqi-optiga-trust-charge/optiga/externals/mbedtls/library\aes.c ****             ( (uint32_t) RSb[ ( Y1       ) & 0xFF ]       ) ^
 2872              	 .loc 1 965 0
 2873 0458 5A40     	 eors r2,r2,r3
 967:C:/Users/Yushev/git/wpcqi-optiga-trust-charge/optiga/externals/mbedtls/library\aes.c ****             ( (uint32_t) RSb[ ( Y3 >> 16 ) & 0xFF ] << 16 ) ^
 2874              	 .loc 1 967 0
 2875 045a 3B69     	 ldr r3,[r7,#16]
 2876 045c 1B0C     	 lsrs r3,r3,#16
 2877 045e DBB2     	 uxtb r3,r3
 2878 0460 5849     	 ldr r1,.L82+16
 2879 0462 CB5C     	 ldrb r3,[r1,r3]
 2880 0464 1B04     	 lsls r3,r3,#16
 966:C:/Users/Yushev/git/wpcqi-optiga-trust-charge/optiga/externals/mbedtls/library\aes.c ****             ( (uint32_t) RSb[ ( Y0 >>  8 ) & 0xFF ] <<  8 ) ^
 2881              	 .loc 1 966 0
 2882 0466 5A40     	 eors r2,r2,r3
 968:C:/Users/Yushev/git/wpcqi-optiga-trust-charge/optiga/externals/mbedtls/library\aes.c ****             ( (uint32_t) RSb[ ( Y2 >> 24 ) & 0xFF ] << 24 );
 2883              	 .loc 1 968 0
 2884 0468 7B69     	 ldr r3,[r7,#20]
 2885 046a 1B0E     	 lsrs r3,r3,#24
 2886 046c 5549     	 ldr r1,.L82+16
 2887 046e CB5C     	 ldrb r3,[r1,r3]
 2888 0470 1B06     	 lsls r3,r3,#24
 964:C:/Users/Yushev/git/wpcqi-optiga-trust-charge/optiga/externals/mbedtls/library\aes.c ****             ( (uint32_t) RSb[ ( Y1       ) & 0xFF ]       ) ^
 2889              	 .loc 1 964 0
 2890 0472 5340     	 eors r3,r3,r2
 2891 0474 BB62     	 str r3,[r7,#40]
 969:C:/Users/Yushev/git/wpcqi-optiga-trust-charge/optiga/externals/mbedtls/library\aes.c **** 
 970:C:/Users/Yushev/git/wpcqi-optiga-trust-charge/optiga/externals/mbedtls/library\aes.c ****     X2 = *RK++ ^ \
 2892              	 .loc 1 970 0
 2893 0476 3B6B     	 ldr r3,[r7,#48]
 2894 0478 1A1D     	 adds r2,r3,#4
 2895 047a 3A63     	 str r2,[r7,#48]
 2896 047c 1B68     	 ldr r3,[r3]
 971:C:/Users/Yushev/git/wpcqi-optiga-trust-charge/optiga/externals/mbedtls/library\aes.c ****             ( (uint32_t) RSb[ ( Y2       ) & 0xFF ]       ) ^
 2897              	 .loc 1 971 0
 2898 047e 7A69     	 ldr r2,[r7,#20]
 2899 0480 D2B2     	 uxtb r2,r2
 2900 0482 5049     	 ldr r1,.L82+16
 2901 0484 8A5C     	 ldrb r2,[r1,r2]
 970:C:/Users/Yushev/git/wpcqi-optiga-trust-charge/optiga/externals/mbedtls/library\aes.c ****             ( (uint32_t) RSb[ ( Y2       ) & 0xFF ]       ) ^
 2902              	 .loc 1 970 0
 2903 0486 5A40     	 eors r2,r2,r3
 972:C:/Users/Yushev/git/wpcqi-optiga-trust-charge/optiga/externals/mbedtls/library\aes.c ****             ( (uint32_t) RSb[ ( Y1 >>  8 ) & 0xFF ] <<  8 ) ^
 2904              	 .loc 1 972 0
 2905 0488 BB69     	 ldr r3,[r7,#24]
 2906 048a 1B0A     	 lsrs r3,r3,#8
 2907 048c DBB2     	 uxtb r3,r3
 2908 048e 4D49     	 ldr r1,.L82+16
 2909 0490 CB5C     	 ldrb r3,[r1,r3]
 2910 0492 1B02     	 lsls r3,r3,#8
 971:C:/Users/Yushev/git/wpcqi-optiga-trust-charge/optiga/externals/mbedtls/library\aes.c ****             ( (uint32_t) RSb[ ( Y2       ) & 0xFF ]       ) ^
 2911              	 .loc 1 971 0
 2912 0494 5A40     	 eors r2,r2,r3
 973:C:/Users/Yushev/git/wpcqi-optiga-trust-charge/optiga/externals/mbedtls/library\aes.c ****             ( (uint32_t) RSb[ ( Y0 >> 16 ) & 0xFF ] << 16 ) ^
 2913              	 .loc 1 973 0
 2914 0496 FB69     	 ldr r3,[r7,#28]
 2915 0498 1B0C     	 lsrs r3,r3,#16
 2916 049a DBB2     	 uxtb r3,r3
 2917 049c 4949     	 ldr r1,.L82+16
 2918 049e CB5C     	 ldrb r3,[r1,r3]
 2919 04a0 1B04     	 lsls r3,r3,#16
 972:C:/Users/Yushev/git/wpcqi-optiga-trust-charge/optiga/externals/mbedtls/library\aes.c ****             ( (uint32_t) RSb[ ( Y1 >>  8 ) & 0xFF ] <<  8 ) ^
 2920              	 .loc 1 972 0
 2921 04a2 5A40     	 eors r2,r2,r3
 974:C:/Users/Yushev/git/wpcqi-optiga-trust-charge/optiga/externals/mbedtls/library\aes.c ****             ( (uint32_t) RSb[ ( Y3 >> 24 ) & 0xFF ] << 24 );
 2922              	 .loc 1 974 0
 2923 04a4 3B69     	 ldr r3,[r7,#16]
 2924 04a6 1B0E     	 lsrs r3,r3,#24
 2925 04a8 4649     	 ldr r1,.L82+16
 2926 04aa CB5C     	 ldrb r3,[r1,r3]
 2927 04ac 1B06     	 lsls r3,r3,#24
 970:C:/Users/Yushev/git/wpcqi-optiga-trust-charge/optiga/externals/mbedtls/library\aes.c ****             ( (uint32_t) RSb[ ( Y2       ) & 0xFF ]       ) ^
 2928              	 .loc 1 970 0
 2929 04ae 5340     	 eors r3,r3,r2
 2930 04b0 7B62     	 str r3,[r7,#36]
 975:C:/Users/Yushev/git/wpcqi-optiga-trust-charge/optiga/externals/mbedtls/library\aes.c **** 
 976:C:/Users/Yushev/git/wpcqi-optiga-trust-charge/optiga/externals/mbedtls/library\aes.c ****     X3 = *RK++ ^ \
 2931              	 .loc 1 976 0
 2932 04b2 3B6B     	 ldr r3,[r7,#48]
 2933 04b4 1A1D     	 adds r2,r3,#4
