   1              	 .syntax unified
   2              	 .cpu cortex-m4
   3              	 .eabi_attribute 27,3
   4              	 .fpu fpv4-sp-d16
   5              	 .eabi_attribute 20,1
   6              	 .eabi_attribute 21,1
   7              	 .eabi_attribute 23,3
   8              	 .eabi_attribute 24,1
   9              	 .eabi_attribute 25,1
  10              	 .eabi_attribute 26,1
  11              	 .eabi_attribute 30,6
  12              	 .eabi_attribute 34,1
  13              	 .eabi_attribute 18,4
  14              	 .thumb
  15              	 .file "bignum.c"
  16              	 .text
  17              	.Ltext0:
  18              	 .cfi_sections .debug_frame
  19              	 .section .text.mbedtls_mpi_zeroize,"ax",%progbits
  20              	 .align 2
  21              	 .thumb
  22              	 .thumb_func
  24              	mbedtls_mpi_zeroize:
  25              	.LFB0:
  26              	 .file 1 "C:/Users/Yushev/git/wpcqi-optiga-trust-charge/optiga/externals/mbedtls/library/bignum.c"
   1:C:/Users/Yushev/git/wpcqi-optiga-trust-charge/optiga/externals/mbedtls/library\bignum.c **** /*
   2:C:/Users/Yushev/git/wpcqi-optiga-trust-charge/optiga/externals/mbedtls/library\bignum.c ****  *  Multi-precision integer library
   3:C:/Users/Yushev/git/wpcqi-optiga-trust-charge/optiga/externals/mbedtls/library\bignum.c ****  *
   4:C:/Users/Yushev/git/wpcqi-optiga-trust-charge/optiga/externals/mbedtls/library\bignum.c ****  *  Copyright (C) 2006-2015, ARM Limited, All Rights Reserved
   5:C:/Users/Yushev/git/wpcqi-optiga-trust-charge/optiga/externals/mbedtls/library\bignum.c ****  *  SPDX-License-Identifier: Apache-2.0
   6:C:/Users/Yushev/git/wpcqi-optiga-trust-charge/optiga/externals/mbedtls/library\bignum.c ****  *
   7:C:/Users/Yushev/git/wpcqi-optiga-trust-charge/optiga/externals/mbedtls/library\bignum.c ****  *  Licensed under the Apache License, Version 2.0 (the "License"); you may
   8:C:/Users/Yushev/git/wpcqi-optiga-trust-charge/optiga/externals/mbedtls/library\bignum.c ****  *  not use this file except in compliance with the License.
   9:C:/Users/Yushev/git/wpcqi-optiga-trust-charge/optiga/externals/mbedtls/library\bignum.c ****  *  You may obtain a copy of the License at
  10:C:/Users/Yushev/git/wpcqi-optiga-trust-charge/optiga/externals/mbedtls/library\bignum.c ****  *
  11:C:/Users/Yushev/git/wpcqi-optiga-trust-charge/optiga/externals/mbedtls/library\bignum.c ****  *  http://www.apache.org/licenses/LICENSE-2.0
  12:C:/Users/Yushev/git/wpcqi-optiga-trust-charge/optiga/externals/mbedtls/library\bignum.c ****  *
  13:C:/Users/Yushev/git/wpcqi-optiga-trust-charge/optiga/externals/mbedtls/library\bignum.c ****  *  Unless required by applicable law or agreed to in writing, software
  14:C:/Users/Yushev/git/wpcqi-optiga-trust-charge/optiga/externals/mbedtls/library\bignum.c ****  *  distributed under the License is distributed on an "AS IS" BASIS, WITHOUT
  15:C:/Users/Yushev/git/wpcqi-optiga-trust-charge/optiga/externals/mbedtls/library\bignum.c ****  *  WARRANTIES OR CONDITIONS OF ANY KIND, either express or implied.
  16:C:/Users/Yushev/git/wpcqi-optiga-trust-charge/optiga/externals/mbedtls/library\bignum.c ****  *  See the License for the specific language governing permissions and
  17:C:/Users/Yushev/git/wpcqi-optiga-trust-charge/optiga/externals/mbedtls/library\bignum.c ****  *  limitations under the License.
  18:C:/Users/Yushev/git/wpcqi-optiga-trust-charge/optiga/externals/mbedtls/library\bignum.c ****  *
  19:C:/Users/Yushev/git/wpcqi-optiga-trust-charge/optiga/externals/mbedtls/library\bignum.c ****  *  This file is part of mbed TLS (https://tls.mbed.org)
  20:C:/Users/Yushev/git/wpcqi-optiga-trust-charge/optiga/externals/mbedtls/library\bignum.c ****  */
  21:C:/Users/Yushev/git/wpcqi-optiga-trust-charge/optiga/externals/mbedtls/library\bignum.c **** 
  22:C:/Users/Yushev/git/wpcqi-optiga-trust-charge/optiga/externals/mbedtls/library\bignum.c **** /*
  23:C:/Users/Yushev/git/wpcqi-optiga-trust-charge/optiga/externals/mbedtls/library\bignum.c ****  *  The following sources were referenced in the design of this Multi-precision
  24:C:/Users/Yushev/git/wpcqi-optiga-trust-charge/optiga/externals/mbedtls/library\bignum.c ****  *  Integer library:
  25:C:/Users/Yushev/git/wpcqi-optiga-trust-charge/optiga/externals/mbedtls/library\bignum.c ****  *
  26:C:/Users/Yushev/git/wpcqi-optiga-trust-charge/optiga/externals/mbedtls/library\bignum.c ****  *  [1] Handbook of Applied Cryptography - 1997
  27:C:/Users/Yushev/git/wpcqi-optiga-trust-charge/optiga/externals/mbedtls/library\bignum.c ****  *      Menezes, van Oorschot and Vanstone
  28:C:/Users/Yushev/git/wpcqi-optiga-trust-charge/optiga/externals/mbedtls/library\bignum.c ****  *
  29:C:/Users/Yushev/git/wpcqi-optiga-trust-charge/optiga/externals/mbedtls/library\bignum.c ****  *  [2] Multi-Precision Math
  30:C:/Users/Yushev/git/wpcqi-optiga-trust-charge/optiga/externals/mbedtls/library\bignum.c ****  *      Tom St Denis
  31:C:/Users/Yushev/git/wpcqi-optiga-trust-charge/optiga/externals/mbedtls/library\bignum.c ****  *      https://github.com/libtom/libtommath/blob/develop/tommath.pdf
  32:C:/Users/Yushev/git/wpcqi-optiga-trust-charge/optiga/externals/mbedtls/library\bignum.c ****  *
  33:C:/Users/Yushev/git/wpcqi-optiga-trust-charge/optiga/externals/mbedtls/library\bignum.c ****  *  [3] GNU Multi-Precision Arithmetic Library
  34:C:/Users/Yushev/git/wpcqi-optiga-trust-charge/optiga/externals/mbedtls/library\bignum.c ****  *      https://gmplib.org/manual/index.html
  35:C:/Users/Yushev/git/wpcqi-optiga-trust-charge/optiga/externals/mbedtls/library\bignum.c ****  *
  36:C:/Users/Yushev/git/wpcqi-optiga-trust-charge/optiga/externals/mbedtls/library\bignum.c ****  */
  37:C:/Users/Yushev/git/wpcqi-optiga-trust-charge/optiga/externals/mbedtls/library\bignum.c **** 
  38:C:/Users/Yushev/git/wpcqi-optiga-trust-charge/optiga/externals/mbedtls/library\bignum.c **** #if !defined(MBEDTLS_CONFIG_FILE)
  39:C:/Users/Yushev/git/wpcqi-optiga-trust-charge/optiga/externals/mbedtls/library\bignum.c **** #include "mbedtls/config.h"
  40:C:/Users/Yushev/git/wpcqi-optiga-trust-charge/optiga/externals/mbedtls/library\bignum.c **** #else
  41:C:/Users/Yushev/git/wpcqi-optiga-trust-charge/optiga/externals/mbedtls/library\bignum.c **** #include MBEDTLS_CONFIG_FILE
  42:C:/Users/Yushev/git/wpcqi-optiga-trust-charge/optiga/externals/mbedtls/library\bignum.c **** #endif
  43:C:/Users/Yushev/git/wpcqi-optiga-trust-charge/optiga/externals/mbedtls/library\bignum.c **** 
  44:C:/Users/Yushev/git/wpcqi-optiga-trust-charge/optiga/externals/mbedtls/library\bignum.c **** #if defined(MBEDTLS_BIGNUM_C)
  45:C:/Users/Yushev/git/wpcqi-optiga-trust-charge/optiga/externals/mbedtls/library\bignum.c **** 
  46:C:/Users/Yushev/git/wpcqi-optiga-trust-charge/optiga/externals/mbedtls/library\bignum.c **** #include "mbedtls/bignum.h"
  47:C:/Users/Yushev/git/wpcqi-optiga-trust-charge/optiga/externals/mbedtls/library\bignum.c **** #include "mbedtls/bn_mul.h"
  48:C:/Users/Yushev/git/wpcqi-optiga-trust-charge/optiga/externals/mbedtls/library\bignum.c **** #include "mbedtls/platform_util.h"
  49:C:/Users/Yushev/git/wpcqi-optiga-trust-charge/optiga/externals/mbedtls/library\bignum.c **** 
  50:C:/Users/Yushev/git/wpcqi-optiga-trust-charge/optiga/externals/mbedtls/library\bignum.c **** #include <string.h>
  51:C:/Users/Yushev/git/wpcqi-optiga-trust-charge/optiga/externals/mbedtls/library\bignum.c **** 
  52:C:/Users/Yushev/git/wpcqi-optiga-trust-charge/optiga/externals/mbedtls/library\bignum.c **** #if defined(MBEDTLS_PLATFORM_C)
  53:C:/Users/Yushev/git/wpcqi-optiga-trust-charge/optiga/externals/mbedtls/library\bignum.c **** #include "mbedtls/platform.h"
  54:C:/Users/Yushev/git/wpcqi-optiga-trust-charge/optiga/externals/mbedtls/library\bignum.c **** #else
  55:C:/Users/Yushev/git/wpcqi-optiga-trust-charge/optiga/externals/mbedtls/library\bignum.c **** #include <stdio.h>
  56:C:/Users/Yushev/git/wpcqi-optiga-trust-charge/optiga/externals/mbedtls/library\bignum.c **** #include <stdlib.h>
  57:C:/Users/Yushev/git/wpcqi-optiga-trust-charge/optiga/externals/mbedtls/library\bignum.c **** #define mbedtls_printf     printf
  58:C:/Users/Yushev/git/wpcqi-optiga-trust-charge/optiga/externals/mbedtls/library\bignum.c **** #define mbedtls_calloc    calloc
  59:C:/Users/Yushev/git/wpcqi-optiga-trust-charge/optiga/externals/mbedtls/library\bignum.c **** #define mbedtls_free       free
  60:C:/Users/Yushev/git/wpcqi-optiga-trust-charge/optiga/externals/mbedtls/library\bignum.c **** #endif
  61:C:/Users/Yushev/git/wpcqi-optiga-trust-charge/optiga/externals/mbedtls/library\bignum.c **** 
  62:C:/Users/Yushev/git/wpcqi-optiga-trust-charge/optiga/externals/mbedtls/library\bignum.c **** #define MPI_VALIDATE_RET( cond )                                       \
  63:C:/Users/Yushev/git/wpcqi-optiga-trust-charge/optiga/externals/mbedtls/library\bignum.c ****     MBEDTLS_INTERNAL_VALIDATE_RET( cond, MBEDTLS_ERR_MPI_BAD_INPUT_DATA )
  64:C:/Users/Yushev/git/wpcqi-optiga-trust-charge/optiga/externals/mbedtls/library\bignum.c **** #define MPI_VALIDATE( cond )                                           \
  65:C:/Users/Yushev/git/wpcqi-optiga-trust-charge/optiga/externals/mbedtls/library\bignum.c ****     MBEDTLS_INTERNAL_VALIDATE( cond )
  66:C:/Users/Yushev/git/wpcqi-optiga-trust-charge/optiga/externals/mbedtls/library\bignum.c **** 
  67:C:/Users/Yushev/git/wpcqi-optiga-trust-charge/optiga/externals/mbedtls/library\bignum.c **** #define ciL    (sizeof(mbedtls_mpi_uint))         /* chars in limb  */
  68:C:/Users/Yushev/git/wpcqi-optiga-trust-charge/optiga/externals/mbedtls/library\bignum.c **** #define biL    (ciL << 3)               /* bits  in limb  */
  69:C:/Users/Yushev/git/wpcqi-optiga-trust-charge/optiga/externals/mbedtls/library\bignum.c **** #define biH    (ciL << 2)               /* half limb size */
  70:C:/Users/Yushev/git/wpcqi-optiga-trust-charge/optiga/externals/mbedtls/library\bignum.c **** 
  71:C:/Users/Yushev/git/wpcqi-optiga-trust-charge/optiga/externals/mbedtls/library\bignum.c **** #define MPI_SIZE_T_MAX  ( (size_t) -1 ) /* SIZE_T_MAX is not standard */
  72:C:/Users/Yushev/git/wpcqi-optiga-trust-charge/optiga/externals/mbedtls/library\bignum.c **** 
  73:C:/Users/Yushev/git/wpcqi-optiga-trust-charge/optiga/externals/mbedtls/library\bignum.c **** /*
  74:C:/Users/Yushev/git/wpcqi-optiga-trust-charge/optiga/externals/mbedtls/library\bignum.c ****  * Convert between bits/chars and number of limbs
  75:C:/Users/Yushev/git/wpcqi-optiga-trust-charge/optiga/externals/mbedtls/library\bignum.c ****  * Divide first in order to avoid potential overflows
  76:C:/Users/Yushev/git/wpcqi-optiga-trust-charge/optiga/externals/mbedtls/library\bignum.c ****  */
  77:C:/Users/Yushev/git/wpcqi-optiga-trust-charge/optiga/externals/mbedtls/library\bignum.c **** #define BITS_TO_LIMBS(i)  ( (i) / biL + ( (i) % biL != 0 ) )
  78:C:/Users/Yushev/git/wpcqi-optiga-trust-charge/optiga/externals/mbedtls/library\bignum.c **** #define CHARS_TO_LIMBS(i) ( (i) / ciL + ( (i) % ciL != 0 ) )
  79:C:/Users/Yushev/git/wpcqi-optiga-trust-charge/optiga/externals/mbedtls/library\bignum.c **** 
  80:C:/Users/Yushev/git/wpcqi-optiga-trust-charge/optiga/externals/mbedtls/library\bignum.c **** /* Implementation that should never be optimized out by the compiler */
  81:C:/Users/Yushev/git/wpcqi-optiga-trust-charge/optiga/externals/mbedtls/library\bignum.c **** static void mbedtls_mpi_zeroize( mbedtls_mpi_uint *v, size_t n )
  82:C:/Users/Yushev/git/wpcqi-optiga-trust-charge/optiga/externals/mbedtls/library\bignum.c **** {
  27              	 .loc 1 82 0
  28              	 .cfi_startproc
  29              	 
  30              	 
  31 0000 80B5     	 push {r7,lr}
  32              	.LCFI0:
  33              	 .cfi_def_cfa_offset 8
  34              	 .cfi_offset 7,-8
  35              	 .cfi_offset 14,-4
  36 0002 82B0     	 sub sp,sp,#8
  37              	.LCFI1:
  38              	 .cfi_def_cfa_offset 16
  39 0004 00AF     	 add r7,sp,#0
  40              	.LCFI2:
  41              	 .cfi_def_cfa_register 7
  42 0006 7860     	 str r0,[r7,#4]
  43 0008 3960     	 str r1,[r7]
  83:C:/Users/Yushev/git/wpcqi-optiga-trust-charge/optiga/externals/mbedtls/library\bignum.c ****     mbedtls_platform_zeroize( v, ciL * n );
  44              	 .loc 1 83 0
  45 000a 3B68     	 ldr r3,[r7]
  46 000c 9B00     	 lsls r3,r3,#2
  47 000e 7868     	 ldr r0,[r7,#4]
  48 0010 1946     	 mov r1,r3
  49 0012 FFF7FEFF 	 bl mbedtls_platform_zeroize
  84:C:/Users/Yushev/git/wpcqi-optiga-trust-charge/optiga/externals/mbedtls/library\bignum.c **** }
  50              	 .loc 1 84 0
  51 0016 0837     	 adds r7,r7,#8
  52              	.LCFI3:
  53              	 .cfi_def_cfa_offset 8
  54 0018 BD46     	 mov sp,r7
  55              	.LCFI4:
  56              	 .cfi_def_cfa_register 13
  57              	 
  58 001a 80BD     	 pop {r7,pc}
  59              	 .cfi_endproc
  60              	.LFE0:
  62              	 .section .text.mbedtls_mpi_init,"ax",%progbits
  63              	 .align 2
  64              	 .global mbedtls_mpi_init
  65              	 .thumb
  66              	 .thumb_func
  68              	mbedtls_mpi_init:
  69              	.LFB1:
  85:C:/Users/Yushev/git/wpcqi-optiga-trust-charge/optiga/externals/mbedtls/library\bignum.c **** 
  86:C:/Users/Yushev/git/wpcqi-optiga-trust-charge/optiga/externals/mbedtls/library\bignum.c **** /*
  87:C:/Users/Yushev/git/wpcqi-optiga-trust-charge/optiga/externals/mbedtls/library\bignum.c ****  * Initialize one MPI
  88:C:/Users/Yushev/git/wpcqi-optiga-trust-charge/optiga/externals/mbedtls/library\bignum.c ****  */
  89:C:/Users/Yushev/git/wpcqi-optiga-trust-charge/optiga/externals/mbedtls/library\bignum.c **** void mbedtls_mpi_init( mbedtls_mpi *X )
  90:C:/Users/Yushev/git/wpcqi-optiga-trust-charge/optiga/externals/mbedtls/library\bignum.c **** {
  70              	 .loc 1 90 0
  71              	 .cfi_startproc
  72              	 
  73              	 
  74              	 
  75 0000 80B4     	 push {r7}
  76              	.LCFI5:
  77              	 .cfi_def_cfa_offset 4
  78              	 .cfi_offset 7,-4
  79 0002 83B0     	 sub sp,sp,#12
  80              	.LCFI6:
  81              	 .cfi_def_cfa_offset 16
  82 0004 00AF     	 add r7,sp,#0
  83              	.LCFI7:
  84              	 .cfi_def_cfa_register 7
  85 0006 7860     	 str r0,[r7,#4]
  91:C:/Users/Yushev/git/wpcqi-optiga-trust-charge/optiga/externals/mbedtls/library\bignum.c ****     MPI_VALIDATE( X != NULL );
  92:C:/Users/Yushev/git/wpcqi-optiga-trust-charge/optiga/externals/mbedtls/library\bignum.c **** 
  93:C:/Users/Yushev/git/wpcqi-optiga-trust-charge/optiga/externals/mbedtls/library\bignum.c ****     X->s = 1;
  86              	 .loc 1 93 0
  87 0008 7B68     	 ldr r3,[r7,#4]
  88 000a 0122     	 movs r2,#1
  89 000c 1A60     	 str r2,[r3]
  94:C:/Users/Yushev/git/wpcqi-optiga-trust-charge/optiga/externals/mbedtls/library\bignum.c ****     X->n = 0;
  90              	 .loc 1 94 0
  91 000e 7B68     	 ldr r3,[r7,#4]
  92 0010 0022     	 movs r2,#0
  93 0012 5A60     	 str r2,[r3,#4]
  95:C:/Users/Yushev/git/wpcqi-optiga-trust-charge/optiga/externals/mbedtls/library\bignum.c ****     X->p = NULL;
  94              	 .loc 1 95 0
  95 0014 7B68     	 ldr r3,[r7,#4]
  96 0016 0022     	 movs r2,#0
  97 0018 9A60     	 str r2,[r3,#8]
  96:C:/Users/Yushev/git/wpcqi-optiga-trust-charge/optiga/externals/mbedtls/library\bignum.c **** }
  98              	 .loc 1 96 0
  99 001a 0C37     	 adds r7,r7,#12
 100              	.LCFI8:
 101              	 .cfi_def_cfa_offset 4
 102 001c BD46     	 mov sp,r7
 103              	.LCFI9:
 104              	 .cfi_def_cfa_register 13
 105              	 
 106 001e 5DF8047B 	 ldr r7,[sp],#4
 107              	.LCFI10:
 108              	 .cfi_restore 7
 109              	 .cfi_def_cfa_offset 0
 110 0022 7047     	 bx lr
 111              	 .cfi_endproc
 112              	.LFE1:
 114              	 .section .text.mbedtls_mpi_free,"ax",%progbits
 115              	 .align 2
 116              	 .global mbedtls_mpi_free
 117              	 .thumb
 118              	 .thumb_func
 120              	mbedtls_mpi_free:
 121              	.LFB2:
  97:C:/Users/Yushev/git/wpcqi-optiga-trust-charge/optiga/externals/mbedtls/library\bignum.c **** 
  98:C:/Users/Yushev/git/wpcqi-optiga-trust-charge/optiga/externals/mbedtls/library\bignum.c **** /*
  99:C:/Users/Yushev/git/wpcqi-optiga-trust-charge/optiga/externals/mbedtls/library\bignum.c ****  * Unallocate one MPI
 100:C:/Users/Yushev/git/wpcqi-optiga-trust-charge/optiga/externals/mbedtls/library\bignum.c ****  */
 101:C:/Users/Yushev/git/wpcqi-optiga-trust-charge/optiga/externals/mbedtls/library\bignum.c **** void mbedtls_mpi_free( mbedtls_mpi *X )
 102:C:/Users/Yushev/git/wpcqi-optiga-trust-charge/optiga/externals/mbedtls/library\bignum.c **** {
 122              	 .loc 1 102 0
 123              	 .cfi_startproc
 124              	 
 125              	 
 126 0000 80B5     	 push {r7,lr}
 127              	.LCFI11:
 128              	 .cfi_def_cfa_offset 8
 129              	 .cfi_offset 7,-8
 130              	 .cfi_offset 14,-4
 131 0002 82B0     	 sub sp,sp,#8
 132              	.LCFI12:
 133              	 .cfi_def_cfa_offset 16
 134 0004 00AF     	 add r7,sp,#0
 135              	.LCFI13:
 136              	 .cfi_def_cfa_register 7
 137 0006 7860     	 str r0,[r7,#4]
 103:C:/Users/Yushev/git/wpcqi-optiga-trust-charge/optiga/externals/mbedtls/library\bignum.c ****     if( X == NULL )
 138              	 .loc 1 103 0
 139 0008 7B68     	 ldr r3,[r7,#4]
 140 000a 002B     	 cmp r3,#0
 141 000c 00D1     	 bne .L4
 104:C:/Users/Yushev/git/wpcqi-optiga-trust-charge/optiga/externals/mbedtls/library\bignum.c ****         return;
 142              	 .loc 1 104 0
 143 000e 19E0     	 b .L3
 144              	.L4:
 105:C:/Users/Yushev/git/wpcqi-optiga-trust-charge/optiga/externals/mbedtls/library\bignum.c **** 
 106:C:/Users/Yushev/git/wpcqi-optiga-trust-charge/optiga/externals/mbedtls/library\bignum.c ****     if( X->p != NULL )
 145              	 .loc 1 106 0
 146 0010 7B68     	 ldr r3,[r7,#4]
 147 0012 9B68     	 ldr r3,[r3,#8]
 148 0014 002B     	 cmp r3,#0
 149 0016 0CD0     	 beq .L6
 107:C:/Users/Yushev/git/wpcqi-optiga-trust-charge/optiga/externals/mbedtls/library\bignum.c ****     {
 108:C:/Users/Yushev/git/wpcqi-optiga-trust-charge/optiga/externals/mbedtls/library\bignum.c ****         mbedtls_mpi_zeroize( X->p, X->n );
 150              	 .loc 1 108 0
 151 0018 7B68     	 ldr r3,[r7,#4]
 152 001a 9A68     	 ldr r2,[r3,#8]
 153 001c 7B68     	 ldr r3,[r7,#4]
 154 001e 5B68     	 ldr r3,[r3,#4]
 155 0020 1046     	 mov r0,r2
 156 0022 1946     	 mov r1,r3
 157 0024 FFF7FEFF 	 bl mbedtls_mpi_zeroize
 109:C:/Users/Yushev/git/wpcqi-optiga-trust-charge/optiga/externals/mbedtls/library\bignum.c ****         mbedtls_free( X->p );
 158              	 .loc 1 109 0
 159 0028 7B68     	 ldr r3,[r7,#4]
 160 002a 9B68     	 ldr r3,[r3,#8]
 161 002c 1846     	 mov r0,r3
 162 002e FFF7FEFF 	 bl free
 163              	.L6:
 110:C:/Users/Yushev/git/wpcqi-optiga-trust-charge/optiga/externals/mbedtls/library\bignum.c ****     }
 111:C:/Users/Yushev/git/wpcqi-optiga-trust-charge/optiga/externals/mbedtls/library\bignum.c **** 
 112:C:/Users/Yushev/git/wpcqi-optiga-trust-charge/optiga/externals/mbedtls/library\bignum.c ****     X->s = 1;
 164              	 .loc 1 112 0
 165 0032 7B68     	 ldr r3,[r7,#4]
 166 0034 0122     	 movs r2,#1
 167 0036 1A60     	 str r2,[r3]
 113:C:/Users/Yushev/git/wpcqi-optiga-trust-charge/optiga/externals/mbedtls/library\bignum.c ****     X->n = 0;
 168              	 .loc 1 113 0
 169 0038 7B68     	 ldr r3,[r7,#4]
 170 003a 0022     	 movs r2,#0
 171 003c 5A60     	 str r2,[r3,#4]
 114:C:/Users/Yushev/git/wpcqi-optiga-trust-charge/optiga/externals/mbedtls/library\bignum.c ****     X->p = NULL;
 172              	 .loc 1 114 0
 173 003e 7B68     	 ldr r3,[r7,#4]
 174 0040 0022     	 movs r2,#0
 175 0042 9A60     	 str r2,[r3,#8]
 176              	.L3:
 115:C:/Users/Yushev/git/wpcqi-optiga-trust-charge/optiga/externals/mbedtls/library\bignum.c **** }
 177              	 .loc 1 115 0
 178 0044 0837     	 adds r7,r7,#8
 179              	.LCFI14:
 180              	 .cfi_def_cfa_offset 8
 181 0046 BD46     	 mov sp,r7
 182              	.LCFI15:
 183              	 .cfi_def_cfa_register 13
 184              	 
 185 0048 80BD     	 pop {r7,pc}
 186              	 .cfi_endproc
 187              	.LFE2:
 189 004a 00BF     	 .section .text.mbedtls_mpi_grow,"ax",%progbits
 190              	 .align 2
 191              	 .global mbedtls_mpi_grow
 192              	 .thumb
 193              	 .thumb_func
 195              	mbedtls_mpi_grow:
 196              	.LFB3:
 116:C:/Users/Yushev/git/wpcqi-optiga-trust-charge/optiga/externals/mbedtls/library\bignum.c **** 
 117:C:/Users/Yushev/git/wpcqi-optiga-trust-charge/optiga/externals/mbedtls/library\bignum.c **** /*
 118:C:/Users/Yushev/git/wpcqi-optiga-trust-charge/optiga/externals/mbedtls/library\bignum.c ****  * Enlarge to the specified number of limbs
 119:C:/Users/Yushev/git/wpcqi-optiga-trust-charge/optiga/externals/mbedtls/library\bignum.c ****  */
 120:C:/Users/Yushev/git/wpcqi-optiga-trust-charge/optiga/externals/mbedtls/library\bignum.c **** int mbedtls_mpi_grow( mbedtls_mpi *X, size_t nblimbs )
 121:C:/Users/Yushev/git/wpcqi-optiga-trust-charge/optiga/externals/mbedtls/library\bignum.c **** {
 197              	 .loc 1 121 0
 198              	 .cfi_startproc
 199              	 
 200              	 
 201 0000 80B5     	 push {r7,lr}
 202              	.LCFI16:
 203              	 .cfi_def_cfa_offset 8
 204              	 .cfi_offset 7,-8
 205              	 .cfi_offset 14,-4
 206 0002 84B0     	 sub sp,sp,#16
 207              	.LCFI17:
 208              	 .cfi_def_cfa_offset 24
 209 0004 00AF     	 add r7,sp,#0
 210              	.LCFI18:
 211              	 .cfi_def_cfa_register 7
 212 0006 7860     	 str r0,[r7,#4]
 213 0008 3960     	 str r1,[r7]
 122:C:/Users/Yushev/git/wpcqi-optiga-trust-charge/optiga/externals/mbedtls/library\bignum.c ****     mbedtls_mpi_uint *p;
 123:C:/Users/Yushev/git/wpcqi-optiga-trust-charge/optiga/externals/mbedtls/library\bignum.c ****     MPI_VALIDATE_RET( X != NULL );
 124:C:/Users/Yushev/git/wpcqi-optiga-trust-charge/optiga/externals/mbedtls/library\bignum.c **** 
 125:C:/Users/Yushev/git/wpcqi-optiga-trust-charge/optiga/externals/mbedtls/library\bignum.c ****     if( nblimbs > MBEDTLS_MPI_MAX_LIMBS )
 214              	 .loc 1 125 0
 215 000a 3B68     	 ldr r3,[r7]
 216 000c 42F21072 	 movw r2,#10000
 217 0010 9342     	 cmp r3,r2
 218 0012 02D9     	 bls .L8
 126:C:/Users/Yushev/git/wpcqi-optiga-trust-charge/optiga/externals/mbedtls/library\bignum.c ****         return( MBEDTLS_ERR_MPI_ALLOC_FAILED );
 219              	 .loc 1 126 0
 220 0014 6FF00F03 	 mvn r3,#15
 221 0018 32E0     	 b .L9
 222              	.L8:
 127:C:/Users/Yushev/git/wpcqi-optiga-trust-charge/optiga/externals/mbedtls/library\bignum.c **** 
 128:C:/Users/Yushev/git/wpcqi-optiga-trust-charge/optiga/externals/mbedtls/library\bignum.c ****     if( X->n < nblimbs )
 223              	 .loc 1 128 0
 224 001a 7B68     	 ldr r3,[r7,#4]
 225 001c 5A68     	 ldr r2,[r3,#4]
 226 001e 3B68     	 ldr r3,[r7]
 227 0020 9A42     	 cmp r2,r3
 228 0022 2CD2     	 bcs .L10
 129:C:/Users/Yushev/git/wpcqi-optiga-trust-charge/optiga/externals/mbedtls/library\bignum.c ****     {
 130:C:/Users/Yushev/git/wpcqi-optiga-trust-charge/optiga/externals/mbedtls/library\bignum.c ****         if( ( p = (mbedtls_mpi_uint*)mbedtls_calloc( nblimbs, ciL ) ) == NULL )
 229              	 .loc 1 130 0
 230 0024 3868     	 ldr r0,[r7]
 231 0026 0421     	 movs r1,#4
 232 0028 FFF7FEFF 	 bl calloc
 233 002c 0346     	 mov r3,r0
 234 002e FB60     	 str r3,[r7,#12]
 235 0030 FB68     	 ldr r3,[r7,#12]
 236 0032 002B     	 cmp r3,#0
 237 0034 02D1     	 bne .L11
 131:C:/Users/Yushev/git/wpcqi-optiga-trust-charge/optiga/externals/mbedtls/library\bignum.c ****             return( MBEDTLS_ERR_MPI_ALLOC_FAILED );
 238              	 .loc 1 131 0
 239 0036 6FF00F03 	 mvn r3,#15
 240 003a 21E0     	 b .L9
 241              	.L11:
 132:C:/Users/Yushev/git/wpcqi-optiga-trust-charge/optiga/externals/mbedtls/library\bignum.c **** 
 133:C:/Users/Yushev/git/wpcqi-optiga-trust-charge/optiga/externals/mbedtls/library\bignum.c ****         if( X->p != NULL )
 242              	 .loc 1 133 0
 243 003c 7B68     	 ldr r3,[r7,#4]
 244 003e 9B68     	 ldr r3,[r3,#8]
 245 0040 002B     	 cmp r3,#0
 246 0042 16D0     	 beq .L12
 134:C:/Users/Yushev/git/wpcqi-optiga-trust-charge/optiga/externals/mbedtls/library\bignum.c ****         {
 135:C:/Users/Yushev/git/wpcqi-optiga-trust-charge/optiga/externals/mbedtls/library\bignum.c ****             memcpy( p, X->p, X->n * ciL );
 247              	 .loc 1 135 0
 248 0044 7B68     	 ldr r3,[r7,#4]
 249 0046 9A68     	 ldr r2,[r3,#8]
 250 0048 7B68     	 ldr r3,[r7,#4]
 251 004a 5B68     	 ldr r3,[r3,#4]
 252 004c 9B00     	 lsls r3,r3,#2
 253 004e F868     	 ldr r0,[r7,#12]
 254 0050 1146     	 mov r1,r2
 255 0052 1A46     	 mov r2,r3
 256 0054 FFF7FEFF 	 bl memcpy
 136:C:/Users/Yushev/git/wpcqi-optiga-trust-charge/optiga/externals/mbedtls/library\bignum.c ****             mbedtls_mpi_zeroize( X->p, X->n );
 257              	 .loc 1 136 0
 258 0058 7B68     	 ldr r3,[r7,#4]
 259 005a 9A68     	 ldr r2,[r3,#8]
 260 005c 7B68     	 ldr r3,[r7,#4]
 261 005e 5B68     	 ldr r3,[r3,#4]
 262 0060 1046     	 mov r0,r2
 263 0062 1946     	 mov r1,r3
 264 0064 FFF7FEFF 	 bl mbedtls_mpi_zeroize
 137:C:/Users/Yushev/git/wpcqi-optiga-trust-charge/optiga/externals/mbedtls/library\bignum.c ****             mbedtls_free( X->p );
 265              	 .loc 1 137 0
 266 0068 7B68     	 ldr r3,[r7,#4]
 267 006a 9B68     	 ldr r3,[r3,#8]
 268 006c 1846     	 mov r0,r3
 269 006e FFF7FEFF 	 bl free
 270              	.L12:
 138:C:/Users/Yushev/git/wpcqi-optiga-trust-charge/optiga/externals/mbedtls/library\bignum.c ****         }
 139:C:/Users/Yushev/git/wpcqi-optiga-trust-charge/optiga/externals/mbedtls/library\bignum.c **** 
 140:C:/Users/Yushev/git/wpcqi-optiga-trust-charge/optiga/externals/mbedtls/library\bignum.c ****         X->n = nblimbs;
 271              	 .loc 1 140 0
 272 0072 7B68     	 ldr r3,[r7,#4]
 273 0074 3A68     	 ldr r2,[r7]
 274 0076 5A60     	 str r2,[r3,#4]
 141:C:/Users/Yushev/git/wpcqi-optiga-trust-charge/optiga/externals/mbedtls/library\bignum.c ****         X->p = p;
 275              	 .loc 1 141 0
 276 0078 7B68     	 ldr r3,[r7,#4]
 277 007a FA68     	 ldr r2,[r7,#12]
 278 007c 9A60     	 str r2,[r3,#8]
 279              	.L10:
 142:C:/Users/Yushev/git/wpcqi-optiga-trust-charge/optiga/externals/mbedtls/library\bignum.c ****     }
 143:C:/Users/Yushev/git/wpcqi-optiga-trust-charge/optiga/externals/mbedtls/library\bignum.c **** 
 144:C:/Users/Yushev/git/wpcqi-optiga-trust-charge/optiga/externals/mbedtls/library\bignum.c ****     return( 0 );
 280              	 .loc 1 144 0
 281 007e 0023     	 movs r3,#0
 282              	.L9:
 145:C:/Users/Yushev/git/wpcqi-optiga-trust-charge/optiga/externals/mbedtls/library\bignum.c **** }
 283              	 .loc 1 145 0
 284 0080 1846     	 mov r0,r3
 285 0082 1037     	 adds r7,r7,#16
 286              	.LCFI19:
 287              	 .cfi_def_cfa_offset 8
 288 0084 BD46     	 mov sp,r7
 289              	.LCFI20:
 290              	 .cfi_def_cfa_register 13
 291              	 
 292 0086 80BD     	 pop {r7,pc}
 293              	 .cfi_endproc
 294              	.LFE3:
 296              	 .section .text.mbedtls_mpi_shrink,"ax",%progbits
 297              	 .align 2
 298              	 .global mbedtls_mpi_shrink
 299              	 .thumb
 300              	 .thumb_func
 302              	mbedtls_mpi_shrink:
 303              	.LFB4:
 146:C:/Users/Yushev/git/wpcqi-optiga-trust-charge/optiga/externals/mbedtls/library\bignum.c **** 
 147:C:/Users/Yushev/git/wpcqi-optiga-trust-charge/optiga/externals/mbedtls/library\bignum.c **** /*
 148:C:/Users/Yushev/git/wpcqi-optiga-trust-charge/optiga/externals/mbedtls/library\bignum.c ****  * Resize down as much as possible,
 149:C:/Users/Yushev/git/wpcqi-optiga-trust-charge/optiga/externals/mbedtls/library\bignum.c ****  * while keeping at least the specified number of limbs
 150:C:/Users/Yushev/git/wpcqi-optiga-trust-charge/optiga/externals/mbedtls/library\bignum.c ****  */
 151:C:/Users/Yushev/git/wpcqi-optiga-trust-charge/optiga/externals/mbedtls/library\bignum.c **** int mbedtls_mpi_shrink( mbedtls_mpi *X, size_t nblimbs )
 152:C:/Users/Yushev/git/wpcqi-optiga-trust-charge/optiga/externals/mbedtls/library\bignum.c **** {
 304              	 .loc 1 152 0
 305              	 .cfi_startproc
 306              	 
 307              	 
 308 0000 80B5     	 push {r7,lr}
 309              	.LCFI21:
 310              	 .cfi_def_cfa_offset 8
 311              	 .cfi_offset 7,-8
 312              	 .cfi_offset 14,-4
 313 0002 84B0     	 sub sp,sp,#16
 314              	.LCFI22:
 315              	 .cfi_def_cfa_offset 24
 316 0004 00AF     	 add r7,sp,#0
 317              	.LCFI23:
 318              	 .cfi_def_cfa_register 7
 319 0006 7860     	 str r0,[r7,#4]
 320 0008 3960     	 str r1,[r7]
 153:C:/Users/Yushev/git/wpcqi-optiga-trust-charge/optiga/externals/mbedtls/library\bignum.c ****     mbedtls_mpi_uint *p;
 154:C:/Users/Yushev/git/wpcqi-optiga-trust-charge/optiga/externals/mbedtls/library\bignum.c ****     size_t i;
 155:C:/Users/Yushev/git/wpcqi-optiga-trust-charge/optiga/externals/mbedtls/library\bignum.c ****     MPI_VALIDATE_RET( X != NULL );
 156:C:/Users/Yushev/git/wpcqi-optiga-trust-charge/optiga/externals/mbedtls/library\bignum.c **** 
 157:C:/Users/Yushev/git/wpcqi-optiga-trust-charge/optiga/externals/mbedtls/library\bignum.c ****     if( nblimbs > MBEDTLS_MPI_MAX_LIMBS )
 321              	 .loc 1 157 0
 322 000a 3B68     	 ldr r3,[r7]
 323 000c 42F21072 	 movw r2,#10000
 324 0010 9342     	 cmp r3,r2
 325 0012 02D9     	 bls .L14
 158:C:/Users/Yushev/git/wpcqi-optiga-trust-charge/optiga/externals/mbedtls/library\bignum.c ****         return( MBEDTLS_ERR_MPI_ALLOC_FAILED );
 326              	 .loc 1 158 0
 327 0014 6FF00F03 	 mvn r3,#15
 328 0018 54E0     	 b .L15
 329              	.L14:
 159:C:/Users/Yushev/git/wpcqi-optiga-trust-charge/optiga/externals/mbedtls/library\bignum.c **** 
 160:C:/Users/Yushev/git/wpcqi-optiga-trust-charge/optiga/externals/mbedtls/library\bignum.c ****     /* Actually resize up in this case */
 161:C:/Users/Yushev/git/wpcqi-optiga-trust-charge/optiga/externals/mbedtls/library\bignum.c ****     if( X->n <= nblimbs )
 330              	 .loc 1 161 0
 331 001a 7B68     	 ldr r3,[r7,#4]
 332 001c 5A68     	 ldr r2,[r3,#4]
 333 001e 3B68     	 ldr r3,[r7]
 334 0020 9A42     	 cmp r2,r3
 335 0022 05D8     	 bhi .L16
 162:C:/Users/Yushev/git/wpcqi-optiga-trust-charge/optiga/externals/mbedtls/library\bignum.c ****         return( mbedtls_mpi_grow( X, nblimbs ) );
 336              	 .loc 1 162 0
 337 0024 7868     	 ldr r0,[r7,#4]
 338 0026 3968     	 ldr r1,[r7]
 339 0028 FFF7FEFF 	 bl mbedtls_mpi_grow
 340 002c 0346     	 mov r3,r0
 341 002e 49E0     	 b .L15
 342              	.L16:
 163:C:/Users/Yushev/git/wpcqi-optiga-trust-charge/optiga/externals/mbedtls/library\bignum.c **** 
 164:C:/Users/Yushev/git/wpcqi-optiga-trust-charge/optiga/externals/mbedtls/library\bignum.c ****     for( i = X->n - 1; i > 0; i-- )
 343              	 .loc 1 164 0
 344 0030 7B68     	 ldr r3,[r7,#4]
 345 0032 5B68     	 ldr r3,[r3,#4]
 346 0034 013B     	 subs r3,r3,#1
 347 0036 FB60     	 str r3,[r7,#12]
 348 0038 0BE0     	 b .L17
 349              	.L20:
 165:C:/Users/Yushev/git/wpcqi-optiga-trust-charge/optiga/externals/mbedtls/library\bignum.c ****         if( X->p[i] != 0 )
 350              	 .loc 1 165 0
 351 003a 7B68     	 ldr r3,[r7,#4]
 352 003c 9A68     	 ldr r2,[r3,#8]
 353 003e FB68     	 ldr r3,[r7,#12]
 354 0040 9B00     	 lsls r3,r3,#2
 355 0042 1344     	 add r3,r3,r2
 356 0044 1B68     	 ldr r3,[r3]
 357 0046 002B     	 cmp r3,#0
 358 0048 00D0     	 beq .L18
 166:C:/Users/Yushev/git/wpcqi-optiga-trust-charge/optiga/externals/mbedtls/library\bignum.c ****             break;
 359              	 .loc 1 166 0
 360 004a 05E0     	 b .L19
 361              	.L18:
 164:C:/Users/Yushev/git/wpcqi-optiga-trust-charge/optiga/externals/mbedtls/library\bignum.c ****         if( X->p[i] != 0 )
 362              	 .loc 1 164 0 discriminator 2
 363 004c FB68     	 ldr r3,[r7,#12]
 364 004e 013B     	 subs r3,r3,#1
 365 0050 FB60     	 str r3,[r7,#12]
 366              	.L17:
 164:C:/Users/Yushev/git/wpcqi-optiga-trust-charge/optiga/externals/mbedtls/library\bignum.c ****         if( X->p[i] != 0 )
 367              	 .loc 1 164 0 is_stmt 0 discriminator 1
 368 0052 FB68     	 ldr r3,[r7,#12]
 369 0054 002B     	 cmp r3,#0
 370 0056 F0D1     	 bne .L20
 371              	.L19:
 167:C:/Users/Yushev/git/wpcqi-optiga-trust-charge/optiga/externals/mbedtls/library\bignum.c ****     i++;
 372              	 .loc 1 167 0 is_stmt 1
 373 0058 FB68     	 ldr r3,[r7,#12]
 374 005a 0133     	 adds r3,r3,#1
 375 005c FB60     	 str r3,[r7,#12]
 168:C:/Users/Yushev/git/wpcqi-optiga-trust-charge/optiga/externals/mbedtls/library\bignum.c **** 
 169:C:/Users/Yushev/git/wpcqi-optiga-trust-charge/optiga/externals/mbedtls/library\bignum.c ****     if( i < nblimbs )
 376              	 .loc 1 169 0
 377 005e FA68     	 ldr r2,[r7,#12]
 378 0060 3B68     	 ldr r3,[r7]
 379 0062 9A42     	 cmp r2,r3
 380 0064 01D2     	 bcs .L21
 170:C:/Users/Yushev/git/wpcqi-optiga-trust-charge/optiga/externals/mbedtls/library\bignum.c ****         i = nblimbs;
 381              	 .loc 1 170 0
 382 0066 3B68     	 ldr r3,[r7]
 383 0068 FB60     	 str r3,[r7,#12]
 384              	.L21:
 171:C:/Users/Yushev/git/wpcqi-optiga-trust-charge/optiga/externals/mbedtls/library\bignum.c **** 
 172:C:/Users/Yushev/git/wpcqi-optiga-trust-charge/optiga/externals/mbedtls/library\bignum.c ****     if( ( p = (mbedtls_mpi_uint*)mbedtls_calloc( i, ciL ) ) == NULL )
 385              	 .loc 1 172 0
 386 006a F868     	 ldr r0,[r7,#12]
 387 006c 0421     	 movs r1,#4
 388 006e FFF7FEFF 	 bl calloc
 389 0072 0346     	 mov r3,r0
 390 0074 BB60     	 str r3,[r7,#8]
 391 0076 BB68     	 ldr r3,[r7,#8]
 392 0078 002B     	 cmp r3,#0
 393 007a 02D1     	 bne .L22
 173:C:/Users/Yushev/git/wpcqi-optiga-trust-charge/optiga/externals/mbedtls/library\bignum.c ****         return( MBEDTLS_ERR_MPI_ALLOC_FAILED );
 394              	 .loc 1 173 0
 395 007c 6FF00F03 	 mvn r3,#15
 396 0080 20E0     	 b .L15
 397              	.L22:
 174:C:/Users/Yushev/git/wpcqi-optiga-trust-charge/optiga/externals/mbedtls/library\bignum.c **** 
 175:C:/Users/Yushev/git/wpcqi-optiga-trust-charge/optiga/externals/mbedtls/library\bignum.c ****     if( X->p != NULL )
 398              	 .loc 1 175 0
 399 0082 7B68     	 ldr r3,[r7,#4]
 400 0084 9B68     	 ldr r3,[r3,#8]
 401 0086 002B     	 cmp r3,#0
 402 0088 15D0     	 beq .L23
 176:C:/Users/Yushev/git/wpcqi-optiga-trust-charge/optiga/externals/mbedtls/library\bignum.c ****     {
 177:C:/Users/Yushev/git/wpcqi-optiga-trust-charge/optiga/externals/mbedtls/library\bignum.c ****         memcpy( p, X->p, i * ciL );
 403              	 .loc 1 177 0
 404 008a 7B68     	 ldr r3,[r7,#4]
 405 008c 9A68     	 ldr r2,[r3,#8]
 406 008e FB68     	 ldr r3,[r7,#12]
 407 0090 9B00     	 lsls r3,r3,#2
 408 0092 B868     	 ldr r0,[r7,#8]
 409 0094 1146     	 mov r1,r2
 410 0096 1A46     	 mov r2,r3
 411 0098 FFF7FEFF 	 bl memcpy
 178:C:/Users/Yushev/git/wpcqi-optiga-trust-charge/optiga/externals/mbedtls/library\bignum.c ****         mbedtls_mpi_zeroize( X->p, X->n );
 412              	 .loc 1 178 0
 413 009c 7B68     	 ldr r3,[r7,#4]
 414 009e 9A68     	 ldr r2,[r3,#8]
 415 00a0 7B68     	 ldr r3,[r7,#4]
 416 00a2 5B68     	 ldr r3,[r3,#4]
 417 00a4 1046     	 mov r0,r2
 418 00a6 1946     	 mov r1,r3
 419 00a8 FFF7FEFF 	 bl mbedtls_mpi_zeroize
 179:C:/Users/Yushev/git/wpcqi-optiga-trust-charge/optiga/externals/mbedtls/library\bignum.c ****         mbedtls_free( X->p );
 420              	 .loc 1 179 0
 421 00ac 7B68     	 ldr r3,[r7,#4]
 422 00ae 9B68     	 ldr r3,[r3,#8]
 423 00b0 1846     	 mov r0,r3
 424 00b2 FFF7FEFF 	 bl free
 425              	.L23:
 180:C:/Users/Yushev/git/wpcqi-optiga-trust-charge/optiga/externals/mbedtls/library\bignum.c ****     }
 181:C:/Users/Yushev/git/wpcqi-optiga-trust-charge/optiga/externals/mbedtls/library\bignum.c **** 
 182:C:/Users/Yushev/git/wpcqi-optiga-trust-charge/optiga/externals/mbedtls/library\bignum.c ****     X->n = i;
 426              	 .loc 1 182 0
 427 00b6 7B68     	 ldr r3,[r7,#4]
 428 00b8 FA68     	 ldr r2,[r7,#12]
 429 00ba 5A60     	 str r2,[r3,#4]
 183:C:/Users/Yushev/git/wpcqi-optiga-trust-charge/optiga/externals/mbedtls/library\bignum.c ****     X->p = p;
 430              	 .loc 1 183 0
 431 00bc 7B68     	 ldr r3,[r7,#4]
 432 00be BA68     	 ldr r2,[r7,#8]
 433 00c0 9A60     	 str r2,[r3,#8]
 184:C:/Users/Yushev/git/wpcqi-optiga-trust-charge/optiga/externals/mbedtls/library\bignum.c **** 
 185:C:/Users/Yushev/git/wpcqi-optiga-trust-charge/optiga/externals/mbedtls/library\bignum.c ****     return( 0 );
 434              	 .loc 1 185 0
 435 00c2 0023     	 movs r3,#0
 436              	.L15:
 186:C:/Users/Yushev/git/wpcqi-optiga-trust-charge/optiga/externals/mbedtls/library\bignum.c **** }
 437              	 .loc 1 186 0
 438 00c4 1846     	 mov r0,r3
 439 00c6 1037     	 adds r7,r7,#16
 440              	.LCFI24:
 441              	 .cfi_def_cfa_offset 8
 442 00c8 BD46     	 mov sp,r7
 443              	.LCFI25:
 444              	 .cfi_def_cfa_register 13
 445              	 
 446 00ca 80BD     	 pop {r7,pc}
 447              	 .cfi_endproc
 448              	.LFE4:
 450              	 .section .text.mbedtls_mpi_copy,"ax",%progbits
 451              	 .align 2
 452              	 .global mbedtls_mpi_copy
 453              	 .thumb
 454              	 .thumb_func
 456              	mbedtls_mpi_copy:
 457              	.LFB5:
 187:C:/Users/Yushev/git/wpcqi-optiga-trust-charge/optiga/externals/mbedtls/library\bignum.c **** 
 188:C:/Users/Yushev/git/wpcqi-optiga-trust-charge/optiga/externals/mbedtls/library\bignum.c **** /*
 189:C:/Users/Yushev/git/wpcqi-optiga-trust-charge/optiga/externals/mbedtls/library\bignum.c ****  * Copy the contents of Y into X
 190:C:/Users/Yushev/git/wpcqi-optiga-trust-charge/optiga/externals/mbedtls/library\bignum.c ****  */
 191:C:/Users/Yushev/git/wpcqi-optiga-trust-charge/optiga/externals/mbedtls/library\bignum.c **** int mbedtls_mpi_copy( mbedtls_mpi *X, const mbedtls_mpi *Y )
 192:C:/Users/Yushev/git/wpcqi-optiga-trust-charge/optiga/externals/mbedtls/library\bignum.c **** {
 458              	 .loc 1 192 0
 459              	 .cfi_startproc
 460              	 
 461              	 
 462 0000 80B5     	 push {r7,lr}
 463              	.LCFI26:
 464              	 .cfi_def_cfa_offset 8
 465              	 .cfi_offset 7,-8
 466              	 .cfi_offset 14,-4
 467 0002 84B0     	 sub sp,sp,#16
 468              	.LCFI27:
 469              	 .cfi_def_cfa_offset 24
 470 0004 00AF     	 add r7,sp,#0
 471              	.LCFI28:
 472              	 .cfi_def_cfa_register 7
 473 0006 7860     	 str r0,[r7,#4]
 474 0008 3960     	 str r1,[r7]
 193:C:/Users/Yushev/git/wpcqi-optiga-trust-charge/optiga/externals/mbedtls/library\bignum.c ****     int ret = 0;
 475              	 .loc 1 193 0
 476 000a 0023     	 movs r3,#0
 477 000c FB60     	 str r3,[r7,#12]
 194:C:/Users/Yushev/git/wpcqi-optiga-trust-charge/optiga/externals/mbedtls/library\bignum.c ****     size_t i;
 195:C:/Users/Yushev/git/wpcqi-optiga-trust-charge/optiga/externals/mbedtls/library\bignum.c ****     MPI_VALIDATE_RET( X != NULL );
 196:C:/Users/Yushev/git/wpcqi-optiga-trust-charge/optiga/externals/mbedtls/library\bignum.c ****     MPI_VALIDATE_RET( Y != NULL );
 197:C:/Users/Yushev/git/wpcqi-optiga-trust-charge/optiga/externals/mbedtls/library\bignum.c **** 
 198:C:/Users/Yushev/git/wpcqi-optiga-trust-charge/optiga/externals/mbedtls/library\bignum.c ****     if( X == Y )
 478              	 .loc 1 198 0
 479 000e 7A68     	 ldr r2,[r7,#4]
 480 0010 3B68     	 ldr r3,[r7]
 481 0012 9A42     	 cmp r2,r3
 482 0014 01D1     	 bne .L25
 199:C:/Users/Yushev/git/wpcqi-optiga-trust-charge/optiga/externals/mbedtls/library\bignum.c ****         return( 0 );
 483              	 .loc 1 199 0
 484 0016 0023     	 movs r3,#0
 485 0018 4CE0     	 b .L26
 486              	.L25:
 200:C:/Users/Yushev/git/wpcqi-optiga-trust-charge/optiga/externals/mbedtls/library\bignum.c **** 
 201:C:/Users/Yushev/git/wpcqi-optiga-trust-charge/optiga/externals/mbedtls/library\bignum.c ****     if( Y->p == NULL )
 487              	 .loc 1 201 0
 488 001a 3B68     	 ldr r3,[r7]
 489 001c 9B68     	 ldr r3,[r3,#8]
 490 001e 002B     	 cmp r3,#0
 491 0020 04D1     	 bne .L27
 202:C:/Users/Yushev/git/wpcqi-optiga-trust-charge/optiga/externals/mbedtls/library\bignum.c ****     {
 203:C:/Users/Yushev/git/wpcqi-optiga-trust-charge/optiga/externals/mbedtls/library\bignum.c ****         mbedtls_mpi_free( X );
 492              	 .loc 1 203 0
 493 0022 7868     	 ldr r0,[r7,#4]
 494 0024 FFF7FEFF 	 bl mbedtls_mpi_free
 204:C:/Users/Yushev/git/wpcqi-optiga-trust-charge/optiga/externals/mbedtls/library\bignum.c ****         return( 0 );
 495              	 .loc 1 204 0
 496 0028 0023     	 movs r3,#0
 497 002a 43E0     	 b .L26
 498              	.L27:
 205:C:/Users/Yushev/git/wpcqi-optiga-trust-charge/optiga/externals/mbedtls/library\bignum.c ****     }
 206:C:/Users/Yushev/git/wpcqi-optiga-trust-charge/optiga/externals/mbedtls/library\bignum.c **** 
 207:C:/Users/Yushev/git/wpcqi-optiga-trust-charge/optiga/externals/mbedtls/library\bignum.c ****     for( i = Y->n - 1; i > 0; i-- )
 499              	 .loc 1 207 0
 500 002c 3B68     	 ldr r3,[r7]
 501 002e 5B68     	 ldr r3,[r3,#4]
 502 0030 013B     	 subs r3,r3,#1
 503 0032 BB60     	 str r3,[r7,#8]
 504 0034 0BE0     	 b .L28
 505              	.L31:
 208:C:/Users/Yushev/git/wpcqi-optiga-trust-charge/optiga/externals/mbedtls/library\bignum.c ****         if( Y->p[i] != 0 )
 506              	 .loc 1 208 0
 507 0036 3B68     	 ldr r3,[r7]
 508 0038 9A68     	 ldr r2,[r3,#8]
 509 003a BB68     	 ldr r3,[r7,#8]
 510 003c 9B00     	 lsls r3,r3,#2
 511 003e 1344     	 add r3,r3,r2
 512 0040 1B68     	 ldr r3,[r3]
 513 0042 002B     	 cmp r3,#0
 514 0044 00D0     	 beq .L29
 209:C:/Users/Yushev/git/wpcqi-optiga-trust-charge/optiga/externals/mbedtls/library\bignum.c ****             break;
 515              	 .loc 1 209 0
 516 0046 05E0     	 b .L30
 517              	.L29:
 207:C:/Users/Yushev/git/wpcqi-optiga-trust-charge/optiga/externals/mbedtls/library\bignum.c ****         if( Y->p[i] != 0 )
 518              	 .loc 1 207 0 discriminator 2
 519 0048 BB68     	 ldr r3,[r7,#8]
 520 004a 013B     	 subs r3,r3,#1
 521 004c BB60     	 str r3,[r7,#8]
 522              	.L28:
 207:C:/Users/Yushev/git/wpcqi-optiga-trust-charge/optiga/externals/mbedtls/library\bignum.c ****         if( Y->p[i] != 0 )
 523              	 .loc 1 207 0 is_stmt 0 discriminator 1
 524 004e BB68     	 ldr r3,[r7,#8]
 525 0050 002B     	 cmp r3,#0
 526 0052 F0D1     	 bne .L31
 527              	.L30:
 210:C:/Users/Yushev/git/wpcqi-optiga-trust-charge/optiga/externals/mbedtls/library\bignum.c ****     i++;
 528              	 .loc 1 210 0 is_stmt 1
 529 0054 BB68     	 ldr r3,[r7,#8]
 530 0056 0133     	 adds r3,r3,#1
 531 0058 BB60     	 str r3,[r7,#8]
 211:C:/Users/Yushev/git/wpcqi-optiga-trust-charge/optiga/externals/mbedtls/library\bignum.c **** 
 212:C:/Users/Yushev/git/wpcqi-optiga-trust-charge/optiga/externals/mbedtls/library\bignum.c ****     X->s = Y->s;
 532              	 .loc 1 212 0
 533 005a 3B68     	 ldr r3,[r7]
 534 005c 1A68     	 ldr r2,[r3]
 535 005e 7B68     	 ldr r3,[r7,#4]
 536 0060 1A60     	 str r2,[r3]
 213:C:/Users/Yushev/git/wpcqi-optiga-trust-charge/optiga/externals/mbedtls/library\bignum.c **** 
 214:C:/Users/Yushev/git/wpcqi-optiga-trust-charge/optiga/externals/mbedtls/library\bignum.c ****     if( X->n < i )
 537              	 .loc 1 214 0
 538 0062 7B68     	 ldr r3,[r7,#4]
 539 0064 5A68     	 ldr r2,[r3,#4]
 540 0066 BB68     	 ldr r3,[r7,#8]
 541 0068 9A42     	 cmp r2,r3
 542 006a 08D2     	 bcs .L32
 215:C:/Users/Yushev/git/wpcqi-optiga-trust-charge/optiga/externals/mbedtls/library\bignum.c ****     {
 216:C:/Users/Yushev/git/wpcqi-optiga-trust-charge/optiga/externals/mbedtls/library\bignum.c ****         MBEDTLS_MPI_CHK( mbedtls_mpi_grow( X, i ) );
 543              	 .loc 1 216 0
 544 006c 7868     	 ldr r0,[r7,#4]
 545 006e B968     	 ldr r1,[r7,#8]
 546 0070 FFF7FEFF 	 bl mbedtls_mpi_grow
 547 0074 F860     	 str r0,[r7,#12]
 548 0076 FB68     	 ldr r3,[r7,#12]
 549 0078 002B     	 cmp r3,#0
 550 007a 0FD0     	 beq .L33
 551 007c 19E0     	 b .L34
 552              	.L32:
 217:C:/Users/Yushev/git/wpcqi-optiga-trust-charge/optiga/externals/mbedtls/library\bignum.c ****     }
 218:C:/Users/Yushev/git/wpcqi-optiga-trust-charge/optiga/externals/mbedtls/library\bignum.c ****     else
 219:C:/Users/Yushev/git/wpcqi-optiga-trust-charge/optiga/externals/mbedtls/library\bignum.c ****     {
 220:C:/Users/Yushev/git/wpcqi-optiga-trust-charge/optiga/externals/mbedtls/library\bignum.c ****         memset( X->p + i, 0, ( X->n - i ) * ciL );
 553              	 .loc 1 220 0
 554 007e 7B68     	 ldr r3,[r7,#4]
 555 0080 9A68     	 ldr r2,[r3,#8]
 556 0082 BB68     	 ldr r3,[r7,#8]
 557 0084 9B00     	 lsls r3,r3,#2
 558 0086 D118     	 adds r1,r2,r3
 559 0088 7B68     	 ldr r3,[r7,#4]
 560 008a 5A68     	 ldr r2,[r3,#4]
 561 008c BB68     	 ldr r3,[r7,#8]
 562 008e D31A     	 subs r3,r2,r3
 563 0090 9B00     	 lsls r3,r3,#2
 564 0092 0846     	 mov r0,r1
 565 0094 0021     	 movs r1,#0
 566 0096 1A46     	 mov r2,r3
 567 0098 FFF7FEFF 	 bl memset
 568              	.L33:
 221:C:/Users/Yushev/git/wpcqi-optiga-trust-charge/optiga/externals/mbedtls/library\bignum.c ****     }
 222:C:/Users/Yushev/git/wpcqi-optiga-trust-charge/optiga/externals/mbedtls/library\bignum.c **** 
 223:C:/Users/Yushev/git/wpcqi-optiga-trust-charge/optiga/externals/mbedtls/library\bignum.c ****     memcpy( X->p, Y->p, i * ciL );
 569              	 .loc 1 223 0
 570 009c 7B68     	 ldr r3,[r7,#4]
 571 009e 9968     	 ldr r1,[r3,#8]
 572 00a0 3B68     	 ldr r3,[r7]
 573 00a2 9A68     	 ldr r2,[r3,#8]
 574 00a4 BB68     	 ldr r3,[r7,#8]
 575 00a6 9B00     	 lsls r3,r3,#2
 576 00a8 0846     	 mov r0,r1
 577 00aa 1146     	 mov r1,r2
 578 00ac 1A46     	 mov r2,r3
 579 00ae FFF7FEFF 	 bl memcpy
 580              	.L34:
 224:C:/Users/Yushev/git/wpcqi-optiga-trust-charge/optiga/externals/mbedtls/library\bignum.c **** 
 225:C:/Users/Yushev/git/wpcqi-optiga-trust-charge/optiga/externals/mbedtls/library\bignum.c **** cleanup:
 226:C:/Users/Yushev/git/wpcqi-optiga-trust-charge/optiga/externals/mbedtls/library\bignum.c **** 
 227:C:/Users/Yushev/git/wpcqi-optiga-trust-charge/optiga/externals/mbedtls/library\bignum.c ****     return( ret );
 581              	 .loc 1 227 0
 582 00b2 FB68     	 ldr r3,[r7,#12]
 583              	.L26:
 228:C:/Users/Yushev/git/wpcqi-optiga-trust-charge/optiga/externals/mbedtls/library\bignum.c **** }
 584              	 .loc 1 228 0
 585 00b4 1846     	 mov r0,r3
 586 00b6 1037     	 adds r7,r7,#16
 587              	.LCFI29:
 588              	 .cfi_def_cfa_offset 8
 589 00b8 BD46     	 mov sp,r7
 590              	.LCFI30:
 591              	 .cfi_def_cfa_register 13
 592              	 
 593 00ba 80BD     	 pop {r7,pc}
 594              	 .cfi_endproc
 595              	.LFE5:
 597              	 .section .text.mbedtls_mpi_swap,"ax",%progbits
 598              	 .align 2
 599              	 .global mbedtls_mpi_swap
 600              	 .thumb
 601              	 .thumb_func
 603              	mbedtls_mpi_swap:
 604              	.LFB6:
 229:C:/Users/Yushev/git/wpcqi-optiga-trust-charge/optiga/externals/mbedtls/library\bignum.c **** 
 230:C:/Users/Yushev/git/wpcqi-optiga-trust-charge/optiga/externals/mbedtls/library\bignum.c **** /*
 231:C:/Users/Yushev/git/wpcqi-optiga-trust-charge/optiga/externals/mbedtls/library\bignum.c ****  * Swap the contents of X and Y
 232:C:/Users/Yushev/git/wpcqi-optiga-trust-charge/optiga/externals/mbedtls/library\bignum.c ****  */
 233:C:/Users/Yushev/git/wpcqi-optiga-trust-charge/optiga/externals/mbedtls/library\bignum.c **** void mbedtls_mpi_swap( mbedtls_mpi *X, mbedtls_mpi *Y )
 234:C:/Users/Yushev/git/wpcqi-optiga-trust-charge/optiga/externals/mbedtls/library\bignum.c **** {
 605              	 .loc 1 234 0
 606              	 .cfi_startproc
 607              	 
 608              	 
 609 0000 80B5     	 push {r7,lr}
 610              	.LCFI31:
 611              	 .cfi_def_cfa_offset 8
 612              	 .cfi_offset 7,-8
 613              	 .cfi_offset 14,-4
 614 0002 86B0     	 sub sp,sp,#24
 615              	.LCFI32:
 616              	 .cfi_def_cfa_offset 32
 617 0004 00AF     	 add r7,sp,#0
 618              	.LCFI33:
 619              	 .cfi_def_cfa_register 7
 620 0006 7860     	 str r0,[r7,#4]
 621 0008 3960     	 str r1,[r7]
 235:C:/Users/Yushev/git/wpcqi-optiga-trust-charge/optiga/externals/mbedtls/library\bignum.c ****     mbedtls_mpi T;
 236:C:/Users/Yushev/git/wpcqi-optiga-trust-charge/optiga/externals/mbedtls/library\bignum.c ****     MPI_VALIDATE( X != NULL );
 237:C:/Users/Yushev/git/wpcqi-optiga-trust-charge/optiga/externals/mbedtls/library\bignum.c ****     MPI_VALIDATE( Y != NULL );
 238:C:/Users/Yushev/git/wpcqi-optiga-trust-charge/optiga/externals/mbedtls/library\bignum.c **** 
 239:C:/Users/Yushev/git/wpcqi-optiga-trust-charge/optiga/externals/mbedtls/library\bignum.c ****     memcpy( &T,  X, sizeof( mbedtls_mpi ) );
 622              	 .loc 1 239 0
 623 000a 07F10C03 	 add r3,r7,#12
 624 000e 1846     	 mov r0,r3
 625 0010 7968     	 ldr r1,[r7,#4]
 626 0012 0C22     	 movs r2,#12
 627 0014 FFF7FEFF 	 bl memcpy
 240:C:/Users/Yushev/git/wpcqi-optiga-trust-charge/optiga/externals/mbedtls/library\bignum.c ****     memcpy(  X,  Y, sizeof( mbedtls_mpi ) );
 628              	 .loc 1 240 0
 629 0018 7868     	 ldr r0,[r7,#4]
 630 001a 3968     	 ldr r1,[r7]
 631 001c 0C22     	 movs r2,#12
 632 001e FFF7FEFF 	 bl memcpy
 241:C:/Users/Yushev/git/wpcqi-optiga-trust-charge/optiga/externals/mbedtls/library\bignum.c ****     memcpy(  Y, &T, sizeof( mbedtls_mpi ) );
 633              	 .loc 1 241 0
 634 0022 07F10C03 	 add r3,r7,#12
 635 0026 3868     	 ldr r0,[r7]
 636 0028 1946     	 mov r1,r3
 637 002a 0C22     	 movs r2,#12
 638 002c FFF7FEFF 	 bl memcpy
 242:C:/Users/Yushev/git/wpcqi-optiga-trust-charge/optiga/externals/mbedtls/library\bignum.c **** }
 639              	 .loc 1 242 0
 640 0030 1837     	 adds r7,r7,#24
 641              	.LCFI34:
 642              	 .cfi_def_cfa_offset 8
 643 0032 BD46     	 mov sp,r7
 644              	.LCFI35:
 645              	 .cfi_def_cfa_register 13
 646              	 
 647 0034 80BD     	 pop {r7,pc}
 648              	 .cfi_endproc
 649              	.LFE6:
 651 0036 00BF     	 .section .text.mbedtls_mpi_safe_cond_assign,"ax",%progbits
 652              	 .align 2
 653              	 .global mbedtls_mpi_safe_cond_assign
 654              	 .thumb
 655              	 .thumb_func
 657              	mbedtls_mpi_safe_cond_assign:
 658              	.LFB7:
 243:C:/Users/Yushev/git/wpcqi-optiga-trust-charge/optiga/externals/mbedtls/library\bignum.c **** 
 244:C:/Users/Yushev/git/wpcqi-optiga-trust-charge/optiga/externals/mbedtls/library\bignum.c **** /*
 245:C:/Users/Yushev/git/wpcqi-optiga-trust-charge/optiga/externals/mbedtls/library\bignum.c ****  * Conditionally assign X = Y, without leaking information
 246:C:/Users/Yushev/git/wpcqi-optiga-trust-charge/optiga/externals/mbedtls/library\bignum.c ****  * about whether the assignment was made or not.
 247:C:/Users/Yushev/git/wpcqi-optiga-trust-charge/optiga/externals/mbedtls/library\bignum.c ****  * (Leaking information about the respective sizes of X and Y is ok however.)
 248:C:/Users/Yushev/git/wpcqi-optiga-trust-charge/optiga/externals/mbedtls/library\bignum.c ****  */
 249:C:/Users/Yushev/git/wpcqi-optiga-trust-charge/optiga/externals/mbedtls/library\bignum.c **** int mbedtls_mpi_safe_cond_assign( mbedtls_mpi *X, const mbedtls_mpi *Y, unsigned char assign )
 250:C:/Users/Yushev/git/wpcqi-optiga-trust-charge/optiga/externals/mbedtls/library\bignum.c **** {
 659              	 .loc 1 250 0
 660              	 .cfi_startproc
 661              	 
 662              	 
 663 0000 80B5     	 push {r7,lr}
 664              	.LCFI36:
 665              	 .cfi_def_cfa_offset 8
 666              	 .cfi_offset 7,-8
 667              	 .cfi_offset 14,-4
 668 0002 86B0     	 sub sp,sp,#24
 669              	.LCFI37:
 670              	 .cfi_def_cfa_offset 32
 671 0004 00AF     	 add r7,sp,#0
 672              	.LCFI38:
 673              	 .cfi_def_cfa_register 7
 674 0006 F860     	 str r0,[r7,#12]
 675 0008 B960     	 str r1,[r7,#8]
 676 000a 1346     	 mov r3,r2
 677 000c FB71     	 strb r3,[r7,#7]
 251:C:/Users/Yushev/git/wpcqi-optiga-trust-charge/optiga/externals/mbedtls/library\bignum.c ****     int ret = 0;
 678              	 .loc 1 251 0
 679 000e 0023     	 movs r3,#0
 680 0010 3B61     	 str r3,[r7,#16]
 252:C:/Users/Yushev/git/wpcqi-optiga-trust-charge/optiga/externals/mbedtls/library\bignum.c ****     size_t i;
 253:C:/Users/Yushev/git/wpcqi-optiga-trust-charge/optiga/externals/mbedtls/library\bignum.c ****     MPI_VALIDATE_RET( X != NULL );
 254:C:/Users/Yushev/git/wpcqi-optiga-trust-charge/optiga/externals/mbedtls/library\bignum.c ****     MPI_VALIDATE_RET( Y != NULL );
 255:C:/Users/Yushev/git/wpcqi-optiga-trust-charge/optiga/externals/mbedtls/library\bignum.c **** 
 256:C:/Users/Yushev/git/wpcqi-optiga-trust-charge/optiga/externals/mbedtls/library\bignum.c ****     /* make sure assign is 0 or 1 in a time-constant manner */
 257:C:/Users/Yushev/git/wpcqi-optiga-trust-charge/optiga/externals/mbedtls/library\bignum.c ****     assign = (assign | (unsigned char)-assign) >> 7;
 681              	 .loc 1 257 0
 682 0012 FB79     	 ldrb r3,[r7,#7]
 683 0014 5B42     	 negs r3,r3
 684 0016 DAB2     	 uxtb r2,r3
 685 0018 FB79     	 ldrb r3,[r7,#7]
 686 001a 1343     	 orrs r3,r3,r2
 687 001c DBB2     	 uxtb r3,r3
 688 001e DB09     	 lsrs r3,r3,#7
 689 0020 FB71     	 strb r3,[r7,#7]
 258:C:/Users/Yushev/git/wpcqi-optiga-trust-charge/optiga/externals/mbedtls/library\bignum.c **** 
 259:C:/Users/Yushev/git/wpcqi-optiga-trust-charge/optiga/externals/mbedtls/library\bignum.c ****     MBEDTLS_MPI_CHK( mbedtls_mpi_grow( X, Y->n ) );
 690              	 .loc 1 259 0
 691 0022 BB68     	 ldr r3,[r7,#8]
 692 0024 5B68     	 ldr r3,[r3,#4]
 693 0026 F868     	 ldr r0,[r7,#12]
 694 0028 1946     	 mov r1,r3
 695 002a FFF7FEFF 	 bl mbedtls_mpi_grow
 696 002e 3861     	 str r0,[r7,#16]
 697 0030 3B69     	 ldr r3,[r7,#16]
 698 0032 002B     	 cmp r3,#0
 699 0034 00D0     	 beq .L37
 700 0036 4EE0     	 b .L38
 701              	.L37:
 260:C:/Users/Yushev/git/wpcqi-optiga-trust-charge/optiga/externals/mbedtls/library\bignum.c **** 
 261:C:/Users/Yushev/git/wpcqi-optiga-trust-charge/optiga/externals/mbedtls/library\bignum.c ****     X->s = X->s * ( 1 - assign ) + Y->s * assign;
 702              	 .loc 1 261 0
 703 0038 FB68     	 ldr r3,[r7,#12]
 704 003a 1B68     	 ldr r3,[r3]
 705 003c FA79     	 ldrb r2,[r7,#7]
 706 003e C2F10102 	 rsb r2,r2,#1
 707 0042 02FB03F2 	 mul r2,r2,r3
 708 0046 BB68     	 ldr r3,[r7,#8]
 709 0048 1B68     	 ldr r3,[r3]
 710 004a F979     	 ldrb r1,[r7,#7]
 711 004c 01FB03F3 	 mul r3,r1,r3
 712 0050 1A44     	 add r2,r2,r3
 713 0052 FB68     	 ldr r3,[r7,#12]
 714 0054 1A60     	 str r2,[r3]
 262:C:/Users/Yushev/git/wpcqi-optiga-trust-charge/optiga/externals/mbedtls/library\bignum.c **** 
 263:C:/Users/Yushev/git/wpcqi-optiga-trust-charge/optiga/externals/mbedtls/library\bignum.c ****     for( i = 0; i < Y->n; i++ )
 715              	 .loc 1 263 0
 716 0056 0023     	 movs r3,#0
 717 0058 7B61     	 str r3,[r7,#20]
 718 005a 1DE0     	 b .L39
 719              	.L40:
 264:C:/Users/Yushev/git/wpcqi-optiga-trust-charge/optiga/externals/mbedtls/library\bignum.c ****         X->p[i] = X->p[i] * ( 1 - assign ) + Y->p[i] * assign;
 720              	 .loc 1 264 0 discriminator 3
 721 005c FB68     	 ldr r3,[r7,#12]
 722 005e 9A68     	 ldr r2,[r3,#8]
 723 0060 7B69     	 ldr r3,[r7,#20]
 724 0062 9B00     	 lsls r3,r3,#2
 725 0064 1344     	 add r3,r3,r2
 726 0066 FA68     	 ldr r2,[r7,#12]
 727 0068 9168     	 ldr r1,[r2,#8]
 728 006a 7A69     	 ldr r2,[r7,#20]
 729 006c 9200     	 lsls r2,r2,#2
 730 006e 0A44     	 add r2,r2,r1
 731 0070 1268     	 ldr r2,[r2]
 732 0072 F979     	 ldrb r1,[r7,#7]
 733 0074 C1F10101 	 rsb r1,r1,#1
 734 0078 01FB02F1 	 mul r1,r1,r2
 735 007c BA68     	 ldr r2,[r7,#8]
 736 007e 9068     	 ldr r0,[r2,#8]
 737 0080 7A69     	 ldr r2,[r7,#20]
 738 0082 9200     	 lsls r2,r2,#2
 739 0084 0244     	 add r2,r2,r0
 740 0086 1268     	 ldr r2,[r2]
 741 0088 F879     	 ldrb r0,[r7,#7]
 742 008a 00FB02F2 	 mul r2,r0,r2
 743 008e 0A44     	 add r2,r2,r1
 744 0090 1A60     	 str r2,[r3]
 263:C:/Users/Yushev/git/wpcqi-optiga-trust-charge/optiga/externals/mbedtls/library\bignum.c ****         X->p[i] = X->p[i] * ( 1 - assign ) + Y->p[i] * assign;
 745              	 .loc 1 263 0 discriminator 3
 746 0092 7B69     	 ldr r3,[r7,#20]
 747 0094 0133     	 adds r3,r3,#1
 748 0096 7B61     	 str r3,[r7,#20]
 749              	.L39:
 263:C:/Users/Yushev/git/wpcqi-optiga-trust-charge/optiga/externals/mbedtls/library\bignum.c ****         X->p[i] = X->p[i] * ( 1 - assign ) + Y->p[i] * assign;
 750              	 .loc 1 263 0 is_stmt 0 discriminator 1
 751 0098 BB68     	 ldr r3,[r7,#8]
 752 009a 5A68     	 ldr r2,[r3,#4]
 753 009c 7B69     	 ldr r3,[r7,#20]
 754 009e 9A42     	 cmp r2,r3
 755 00a0 DCD8     	 bhi .L40
 265:C:/Users/Yushev/git/wpcqi-optiga-trust-charge/optiga/externals/mbedtls/library\bignum.c **** 
 266:C:/Users/Yushev/git/wpcqi-optiga-trust-charge/optiga/externals/mbedtls/library\bignum.c ****     for( ; i < X->n; i++ )
 756              	 .loc 1 266 0 is_stmt 1
 757 00a2 13E0     	 b .L41
 758              	.L42:
 267:C:/Users/Yushev/git/wpcqi-optiga-trust-charge/optiga/externals/mbedtls/library\bignum.c ****         X->p[i] *= ( 1 - assign );
 759              	 .loc 1 267 0 discriminator 2
 760 00a4 FB68     	 ldr r3,[r7,#12]
 761 00a6 9A68     	 ldr r2,[r3,#8]
 762 00a8 7B69     	 ldr r3,[r7,#20]
 763 00aa 9B00     	 lsls r3,r3,#2
 764 00ac 1344     	 add r3,r3,r2
 765 00ae FA68     	 ldr r2,[r7,#12]
 766 00b0 9168     	 ldr r1,[r2,#8]
 767 00b2 7A69     	 ldr r2,[r7,#20]
 768 00b4 9200     	 lsls r2,r2,#2
 769 00b6 0A44     	 add r2,r2,r1
 770 00b8 1268     	 ldr r2,[r2]
 771 00ba F979     	 ldrb r1,[r7,#7]
 772 00bc C1F10101 	 rsb r1,r1,#1
 773 00c0 01FB02F2 	 mul r2,r1,r2
 774 00c4 1A60     	 str r2,[r3]
 266:C:/Users/Yushev/git/wpcqi-optiga-trust-charge/optiga/externals/mbedtls/library\bignum.c ****         X->p[i] *= ( 1 - assign );
 775              	 .loc 1 266 0 discriminator 2
 776 00c6 7B69     	 ldr r3,[r7,#20]
 777 00c8 0133     	 adds r3,r3,#1
 778 00ca 7B61     	 str r3,[r7,#20]
 779              	.L41:
 266:C:/Users/Yushev/git/wpcqi-optiga-trust-charge/optiga/externals/mbedtls/library\bignum.c ****         X->p[i] *= ( 1 - assign );
 780              	 .loc 1 266 0 is_stmt 0 discriminator 1
 781 00cc FB68     	 ldr r3,[r7,#12]
 782 00ce 5A68     	 ldr r2,[r3,#4]
 783 00d0 7B69     	 ldr r3,[r7,#20]
 784 00d2 9A42     	 cmp r2,r3
 785 00d4 E6D8     	 bhi .L42
 786              	.L38:
 268:C:/Users/Yushev/git/wpcqi-optiga-trust-charge/optiga/externals/mbedtls/library\bignum.c **** 
 269:C:/Users/Yushev/git/wpcqi-optiga-trust-charge/optiga/externals/mbedtls/library\bignum.c **** cleanup:
 270:C:/Users/Yushev/git/wpcqi-optiga-trust-charge/optiga/externals/mbedtls/library\bignum.c ****     return( ret );
 787              	 .loc 1 270 0 is_stmt 1
 788 00d6 3B69     	 ldr r3,[r7,#16]
 271:C:/Users/Yushev/git/wpcqi-optiga-trust-charge/optiga/externals/mbedtls/library\bignum.c **** }
 789              	 .loc 1 271 0
 790 00d8 1846     	 mov r0,r3
 791 00da 1837     	 adds r7,r7,#24
 792              	.LCFI39:
 793              	 .cfi_def_cfa_offset 8
 794 00dc BD46     	 mov sp,r7
 795              	.LCFI40:
 796              	 .cfi_def_cfa_register 13
 797              	 
 798 00de 80BD     	 pop {r7,pc}
 799              	 .cfi_endproc
 800              	.LFE7:
 802              	 .section .text.mbedtls_mpi_safe_cond_swap,"ax",%progbits
 803              	 .align 2
 804              	 .global mbedtls_mpi_safe_cond_swap
 805              	 .thumb
 806              	 .thumb_func
 808              	mbedtls_mpi_safe_cond_swap:
 809              	.LFB8:
 272:C:/Users/Yushev/git/wpcqi-optiga-trust-charge/optiga/externals/mbedtls/library\bignum.c **** 
 273:C:/Users/Yushev/git/wpcqi-optiga-trust-charge/optiga/externals/mbedtls/library\bignum.c **** /*
 274:C:/Users/Yushev/git/wpcqi-optiga-trust-charge/optiga/externals/mbedtls/library\bignum.c ****  * Conditionally swap X and Y, without leaking information
 275:C:/Users/Yushev/git/wpcqi-optiga-trust-charge/optiga/externals/mbedtls/library\bignum.c ****  * about whether the swap was made or not.
 276:C:/Users/Yushev/git/wpcqi-optiga-trust-charge/optiga/externals/mbedtls/library\bignum.c ****  * Here it is not ok to simply swap the pointers, which whould lead to
 277:C:/Users/Yushev/git/wpcqi-optiga-trust-charge/optiga/externals/mbedtls/library\bignum.c ****  * different memory access patterns when X and Y are used afterwards.
 278:C:/Users/Yushev/git/wpcqi-optiga-trust-charge/optiga/externals/mbedtls/library\bignum.c ****  */
 279:C:/Users/Yushev/git/wpcqi-optiga-trust-charge/optiga/externals/mbedtls/library\bignum.c **** int mbedtls_mpi_safe_cond_swap( mbedtls_mpi *X, mbedtls_mpi *Y, unsigned char swap )
 280:C:/Users/Yushev/git/wpcqi-optiga-trust-charge/optiga/externals/mbedtls/library\bignum.c **** {
 810              	 .loc 1 280 0
 811              	 .cfi_startproc
 812              	 
 813              	 
 814 0000 80B5     	 push {r7,lr}
 815              	.LCFI41:
 816              	 .cfi_def_cfa_offset 8
 817              	 .cfi_offset 7,-8
 818              	 .cfi_offset 14,-4
 819 0002 88B0     	 sub sp,sp,#32
 820              	.LCFI42:
 821              	 .cfi_def_cfa_offset 40
 822 0004 00AF     	 add r7,sp,#0
 823              	.LCFI43:
 824              	 .cfi_def_cfa_register 7
 825 0006 F860     	 str r0,[r7,#12]
 826 0008 B960     	 str r1,[r7,#8]
 827 000a 1346     	 mov r3,r2
 828 000c FB71     	 strb r3,[r7,#7]
 281:C:/Users/Yushev/git/wpcqi-optiga-trust-charge/optiga/externals/mbedtls/library\bignum.c ****     int ret, s;
 282:C:/Users/Yushev/git/wpcqi-optiga-trust-charge/optiga/externals/mbedtls/library\bignum.c ****     size_t i;
 283:C:/Users/Yushev/git/wpcqi-optiga-trust-charge/optiga/externals/mbedtls/library\bignum.c ****     mbedtls_mpi_uint tmp;
 284:C:/Users/Yushev/git/wpcqi-optiga-trust-charge/optiga/externals/mbedtls/library\bignum.c ****     MPI_VALIDATE_RET( X != NULL );
 285:C:/Users/Yushev/git/wpcqi-optiga-trust-charge/optiga/externals/mbedtls/library\bignum.c ****     MPI_VALIDATE_RET( Y != NULL );
 286:C:/Users/Yushev/git/wpcqi-optiga-trust-charge/optiga/externals/mbedtls/library\bignum.c **** 
 287:C:/Users/Yushev/git/wpcqi-optiga-trust-charge/optiga/externals/mbedtls/library\bignum.c ****     if( X == Y )
 829              	 .loc 1 287 0
 830 000e FA68     	 ldr r2,[r7,#12]
 831 0010 BB68     	 ldr r3,[r7,#8]
 832 0012 9A42     	 cmp r2,r3
 833 0014 01D1     	 bne .L45
 288:C:/Users/Yushev/git/wpcqi-optiga-trust-charge/optiga/externals/mbedtls/library\bignum.c ****         return( 0 );
 834              	 .loc 1 288 0
 835 0016 0023     	 movs r3,#0
 836 0018 81E0     	 b .L46
 837              	.L45:
 289:C:/Users/Yushev/git/wpcqi-optiga-trust-charge/optiga/externals/mbedtls/library\bignum.c **** 
 290:C:/Users/Yushev/git/wpcqi-optiga-trust-charge/optiga/externals/mbedtls/library\bignum.c ****     /* make sure swap is 0 or 1 in a time-constant manner */
 291:C:/Users/Yushev/git/wpcqi-optiga-trust-charge/optiga/externals/mbedtls/library\bignum.c ****     swap = (swap | (unsigned char)-swap) >> 7;
 838              	 .loc 1 291 0
 839 001a FB79     	 ldrb r3,[r7,#7]
 840 001c 5B42     	 negs r3,r3
 841 001e DAB2     	 uxtb r2,r3
 842 0020 FB79     	 ldrb r3,[r7,#7]
 843 0022 1343     	 orrs r3,r3,r2
 844 0024 DBB2     	 uxtb r3,r3
 845 0026 DB09     	 lsrs r3,r3,#7
 846 0028 FB71     	 strb r3,[r7,#7]
 292:C:/Users/Yushev/git/wpcqi-optiga-trust-charge/optiga/externals/mbedtls/library\bignum.c **** 
 293:C:/Users/Yushev/git/wpcqi-optiga-trust-charge/optiga/externals/mbedtls/library\bignum.c ****     MBEDTLS_MPI_CHK( mbedtls_mpi_grow( X, Y->n ) );
 847              	 .loc 1 293 0
 848 002a BB68     	 ldr r3,[r7,#8]
 849 002c 5B68     	 ldr r3,[r3,#4]
 850 002e F868     	 ldr r0,[r7,#12]
 851 0030 1946     	 mov r1,r3
 852 0032 FFF7FEFF 	 bl mbedtls_mpi_grow
 853 0036 F861     	 str r0,[r7,#28]
 854 0038 FB69     	 ldr r3,[r7,#28]
 855 003a 002B     	 cmp r3,#0
 856 003c 00D0     	 beq .L47
 857 003e 6DE0     	 b .L48
 858              	.L47:
 294:C:/Users/Yushev/git/wpcqi-optiga-trust-charge/optiga/externals/mbedtls/library\bignum.c ****     MBEDTLS_MPI_CHK( mbedtls_mpi_grow( Y, X->n ) );
 859              	 .loc 1 294 0
 860 0040 FB68     	 ldr r3,[r7,#12]
 861 0042 5B68     	 ldr r3,[r3,#4]
 862 0044 B868     	 ldr r0,[r7,#8]
 863 0046 1946     	 mov r1,r3
 864 0048 FFF7FEFF 	 bl mbedtls_mpi_grow
 865 004c F861     	 str r0,[r7,#28]
 866 004e FB69     	 ldr r3,[r7,#28]
 867 0050 002B     	 cmp r3,#0
 868 0052 00D0     	 beq .L49
 869 0054 62E0     	 b .L48
 870              	.L49:
 295:C:/Users/Yushev/git/wpcqi-optiga-trust-charge/optiga/externals/mbedtls/library\bignum.c **** 
 296:C:/Users/Yushev/git/wpcqi-optiga-trust-charge/optiga/externals/mbedtls/library\bignum.c ****     s = X->s;
 871              	 .loc 1 296 0
 872 0056 FB68     	 ldr r3,[r7,#12]
 873 0058 1B68     	 ldr r3,[r3]
 874 005a 7B61     	 str r3,[r7,#20]
 297:C:/Users/Yushev/git/wpcqi-optiga-trust-charge/optiga/externals/mbedtls/library\bignum.c ****     X->s = X->s * ( 1 - swap ) + Y->s * swap;
 875              	 .loc 1 297 0
 876 005c FB68     	 ldr r3,[r7,#12]
 877 005e 1B68     	 ldr r3,[r3]
 878 0060 FA79     	 ldrb r2,[r7,#7]
 879 0062 C2F10102 	 rsb r2,r2,#1
 880 0066 02FB03F2 	 mul r2,r2,r3
 881 006a BB68     	 ldr r3,[r7,#8]
 882 006c 1B68     	 ldr r3,[r3]
 883 006e F979     	 ldrb r1,[r7,#7]
 884 0070 01FB03F3 	 mul r3,r1,r3
 885 0074 1A44     	 add r2,r2,r3
 886 0076 FB68     	 ldr r3,[r7,#12]
 887 0078 1A60     	 str r2,[r3]
 298:C:/Users/Yushev/git/wpcqi-optiga-trust-charge/optiga/externals/mbedtls/library\bignum.c ****     Y->s = Y->s * ( 1 - swap ) +    s * swap;
 888              	 .loc 1 298 0
 889 007a BB68     	 ldr r3,[r7,#8]
 890 007c 1B68     	 ldr r3,[r3]
 891 007e FA79     	 ldrb r2,[r7,#7]
 892 0080 C2F10102 	 rsb r2,r2,#1
 893 0084 02FB03F2 	 mul r2,r2,r3
 894 0088 FB79     	 ldrb r3,[r7,#7]
 895 008a 7969     	 ldr r1,[r7,#20]
 896 008c 01FB03F3 	 mul r3,r1,r3
 897 0090 1A44     	 add r2,r2,r3
 898 0092 BB68     	 ldr r3,[r7,#8]
 899 0094 1A60     	 str r2,[r3]
 299:C:/Users/Yushev/git/wpcqi-optiga-trust-charge/optiga/externals/mbedtls/library\bignum.c **** 
 300:C:/Users/Yushev/git/wpcqi-optiga-trust-charge/optiga/externals/mbedtls/library\bignum.c **** 
 301:C:/Users/Yushev/git/wpcqi-optiga-trust-charge/optiga/externals/mbedtls/library\bignum.c ****     for( i = 0; i < X->n; i++ )
 900              	 .loc 1 301 0
 901 0096 0023     	 movs r3,#0
 902 0098 BB61     	 str r3,[r7,#24]
 903 009a 3AE0     	 b .L50
 904              	.L51:
 302:C:/Users/Yushev/git/wpcqi-optiga-trust-charge/optiga/externals/mbedtls/library\bignum.c ****     {
 303:C:/Users/Yushev/git/wpcqi-optiga-trust-charge/optiga/externals/mbedtls/library\bignum.c ****         tmp = X->p[i];
 905              	 .loc 1 303 0 discriminator 3
 906 009c FB68     	 ldr r3,[r7,#12]
 907 009e 9A68     	 ldr r2,[r3,#8]
 908 00a0 BB69     	 ldr r3,[r7,#24]
 909 00a2 9B00     	 lsls r3,r3,#2
 910 00a4 1344     	 add r3,r3,r2
 911 00a6 1B68     	 ldr r3,[r3]
 912 00a8 3B61     	 str r3,[r7,#16]
 304:C:/Users/Yushev/git/wpcqi-optiga-trust-charge/optiga/externals/mbedtls/library\bignum.c ****         X->p[i] = X->p[i] * ( 1 - swap ) + Y->p[i] * swap;
 913              	 .loc 1 304 0 discriminator 3
 914 00aa FB68     	 ldr r3,[r7,#12]
 915 00ac 9A68     	 ldr r2,[r3,#8]
 916 00ae BB69     	 ldr r3,[r7,#24]
 917 00b0 9B00     	 lsls r3,r3,#2
 918 00b2 1344     	 add r3,r3,r2
 919 00b4 FA68     	 ldr r2,[r7,#12]
 920 00b6 9168     	 ldr r1,[r2,#8]
 921 00b8 BA69     	 ldr r2,[r7,#24]
 922 00ba 9200     	 lsls r2,r2,#2
 923 00bc 0A44     	 add r2,r2,r1
 924 00be 1268     	 ldr r2,[r2]
 925 00c0 F979     	 ldrb r1,[r7,#7]
 926 00c2 C1F10101 	 rsb r1,r1,#1
 927 00c6 01FB02F1 	 mul r1,r1,r2
 928 00ca BA68     	 ldr r2,[r7,#8]
 929 00cc 9068     	 ldr r0,[r2,#8]
 930 00ce BA69     	 ldr r2,[r7,#24]
 931 00d0 9200     	 lsls r2,r2,#2
 932 00d2 0244     	 add r2,r2,r0
 933 00d4 1268     	 ldr r2,[r2]
 934 00d6 F879     	 ldrb r0,[r7,#7]
 935 00d8 00FB02F2 	 mul r2,r0,r2
 936 00dc 0A44     	 add r2,r2,r1
 937 00de 1A60     	 str r2,[r3]
 305:C:/Users/Yushev/git/wpcqi-optiga-trust-charge/optiga/externals/mbedtls/library\bignum.c ****         Y->p[i] = Y->p[i] * ( 1 - swap ) +     tmp * swap;
 938              	 .loc 1 305 0 discriminator 3
 939 00e0 BB68     	 ldr r3,[r7,#8]
 940 00e2 9A68     	 ldr r2,[r3,#8]
 941 00e4 BB69     	 ldr r3,[r7,#24]
 942 00e6 9B00     	 lsls r3,r3,#2
 943 00e8 1344     	 add r3,r3,r2
 944 00ea BA68     	 ldr r2,[r7,#8]
 945 00ec 9168     	 ldr r1,[r2,#8]
 946 00ee BA69     	 ldr r2,[r7,#24]
 947 00f0 9200     	 lsls r2,r2,#2
 948 00f2 0A44     	 add r2,r2,r1
 949 00f4 1268     	 ldr r2,[r2]
 950 00f6 F979     	 ldrb r1,[r7,#7]
 951 00f8 C1F10101 	 rsb r1,r1,#1
 952 00fc 01FB02F1 	 mul r1,r1,r2
 953 0100 FA79     	 ldrb r2,[r7,#7]
 954 0102 3869     	 ldr r0,[r7,#16]
 955 0104 00FB02F2 	 mul r2,r0,r2
 956 0108 0A44     	 add r2,r2,r1
 957 010a 1A60     	 str r2,[r3]
 301:C:/Users/Yushev/git/wpcqi-optiga-trust-charge/optiga/externals/mbedtls/library\bignum.c ****     {
 958              	 .loc 1 301 0 discriminator 3
 959 010c BB69     	 ldr r3,[r7,#24]
 960 010e 0133     	 adds r3,r3,#1
 961 0110 BB61     	 str r3,[r7,#24]
 962              	.L50:
 301:C:/Users/Yushev/git/wpcqi-optiga-trust-charge/optiga/externals/mbedtls/library\bignum.c ****     {
 963              	 .loc 1 301 0 is_stmt 0 discriminator 1
 964 0112 FB68     	 ldr r3,[r7,#12]
 965 0114 5A68     	 ldr r2,[r3,#4]
 966 0116 BB69     	 ldr r3,[r7,#24]
 967 0118 9A42     	 cmp r2,r3
 968 011a BFD8     	 bhi .L51
 969              	.L48:
 306:C:/Users/Yushev/git/wpcqi-optiga-trust-charge/optiga/externals/mbedtls/library\bignum.c ****     }
 307:C:/Users/Yushev/git/wpcqi-optiga-trust-charge/optiga/externals/mbedtls/library\bignum.c **** 
 308:C:/Users/Yushev/git/wpcqi-optiga-trust-charge/optiga/externals/mbedtls/library\bignum.c **** cleanup:
 309:C:/Users/Yushev/git/wpcqi-optiga-trust-charge/optiga/externals/mbedtls/library\bignum.c ****     return( ret );
 970              	 .loc 1 309 0 is_stmt 1
 971 011c FB69     	 ldr r3,[r7,#28]
 972              	.L46:
 310:C:/Users/Yushev/git/wpcqi-optiga-trust-charge/optiga/externals/mbedtls/library\bignum.c **** }
 973              	 .loc 1 310 0
 974 011e 1846     	 mov r0,r3
 975 0120 2037     	 adds r7,r7,#32
 976              	.LCFI44:
 977              	 .cfi_def_cfa_offset 8
 978 0122 BD46     	 mov sp,r7
 979              	.LCFI45:
 980              	 .cfi_def_cfa_register 13
 981              	 
 982 0124 80BD     	 pop {r7,pc}
 983              	 .cfi_endproc
 984              	.LFE8:
 986 0126 00BF     	 .section .text.mbedtls_mpi_lset,"ax",%progbits
 987              	 .align 2
 988              	 .global mbedtls_mpi_lset
 989              	 .thumb
 990              	 .thumb_func
 992              	mbedtls_mpi_lset:
 993              	.LFB9:
 311:C:/Users/Yushev/git/wpcqi-optiga-trust-charge/optiga/externals/mbedtls/library\bignum.c **** 
 312:C:/Users/Yushev/git/wpcqi-optiga-trust-charge/optiga/externals/mbedtls/library\bignum.c **** /*
 313:C:/Users/Yushev/git/wpcqi-optiga-trust-charge/optiga/externals/mbedtls/library\bignum.c ****  * Set value from integer
 314:C:/Users/Yushev/git/wpcqi-optiga-trust-charge/optiga/externals/mbedtls/library\bignum.c ****  */
 315:C:/Users/Yushev/git/wpcqi-optiga-trust-charge/optiga/externals/mbedtls/library\bignum.c **** int mbedtls_mpi_lset( mbedtls_mpi *X, mbedtls_mpi_sint z )
 316:C:/Users/Yushev/git/wpcqi-optiga-trust-charge/optiga/externals/mbedtls/library\bignum.c **** {
 994              	 .loc 1 316 0
 995              	 .cfi_startproc
 996              	 
 997              	 
 998 0000 80B5     	 push {r7,lr}
 999              	.LCFI46:
 1000              	 .cfi_def_cfa_offset 8
 1001              	 .cfi_offset 7,-8
 1002              	 .cfi_offset 14,-4
 1003 0002 84B0     	 sub sp,sp,#16
 1004              	.LCFI47:
 1005              	 .cfi_def_cfa_offset 24
 1006 0004 00AF     	 add r7,sp,#0
 1007              	.LCFI48:
 1008              	 .cfi_def_cfa_register 7
 1009 0006 7860     	 str r0,[r7,#4]
 1010 0008 3960     	 str r1,[r7]
 317:C:/Users/Yushev/git/wpcqi-optiga-trust-charge/optiga/externals/mbedtls/library\bignum.c ****     int ret;
 318:C:/Users/Yushev/git/wpcqi-optiga-trust-charge/optiga/externals/mbedtls/library\bignum.c ****     MPI_VALIDATE_RET( X != NULL );
 319:C:/Users/Yushev/git/wpcqi-optiga-trust-charge/optiga/externals/mbedtls/library\bignum.c **** 
 320:C:/Users/Yushev/git/wpcqi-optiga-trust-charge/optiga/externals/mbedtls/library\bignum.c ****     MBEDTLS_MPI_CHK( mbedtls_mpi_grow( X, 1 ) );
 1011              	 .loc 1 320 0
 1012 000a 7868     	 ldr r0,[r7,#4]
 1013 000c 0121     	 movs r1,#1
 1014 000e FFF7FEFF 	 bl mbedtls_mpi_grow
 1015 0012 F860     	 str r0,[r7,#12]
 1016 0014 FB68     	 ldr r3,[r7,#12]
 1017 0016 002B     	 cmp r3,#0
 1018 0018 00D0     	 beq .L53
 1019 001a 19E0     	 b .L54
 1020              	.L53:
 321:C:/Users/Yushev/git/wpcqi-optiga-trust-charge/optiga/externals/mbedtls/library\bignum.c ****     memset( X->p, 0, X->n * ciL );
 1021              	 .loc 1 321 0
 1022 001c 7B68     	 ldr r3,[r7,#4]
 1023 001e 9A68     	 ldr r2,[r3,#8]
 1024 0020 7B68     	 ldr r3,[r7,#4]
 1025 0022 5B68     	 ldr r3,[r3,#4]
 1026 0024 9B00     	 lsls r3,r3,#2
 1027 0026 1046     	 mov r0,r2
 1028 0028 0021     	 movs r1,#0
 1029 002a 1A46     	 mov r2,r3
 1030 002c FFF7FEFF 	 bl memset
 322:C:/Users/Yushev/git/wpcqi-optiga-trust-charge/optiga/externals/mbedtls/library\bignum.c **** 
 323:C:/Users/Yushev/git/wpcqi-optiga-trust-charge/optiga/externals/mbedtls/library\bignum.c ****     X->p[0] = ( z < 0 ) ? -z : z;
 1031              	 .loc 1 323 0
 1032 0030 7B68     	 ldr r3,[r7,#4]
 1033 0032 9B68     	 ldr r3,[r3,#8]
 1034 0034 3A68     	 ldr r2,[r7]
 1035 0036 002A     	 cmp r2,#0
 1036 0038 B8BF     	 it lt
 1037 003a 5242     	 rsblt r2,r2,#0
 1038 003c 1A60     	 str r2,[r3]
 324:C:/Users/Yushev/git/wpcqi-optiga-trust-charge/optiga/externals/mbedtls/library\bignum.c ****     X->s    = ( z < 0 ) ? -1 : 1;
 1039              	 .loc 1 324 0
 1040 003e 3B68     	 ldr r3,[r7]
 1041 0040 002B     	 cmp r3,#0
 1042 0042 02DA     	 bge .L55
 1043              	 .loc 1 324 0 is_stmt 0 discriminator 1
 1044 0044 4FF0FF32 	 mov r2,#-1
 1045 0048 00E0     	 b .L56
 1046              	.L55:
 1047              	 .loc 1 324 0 discriminator 2
 1048 004a 0122     	 movs r2,#1
 1049              	.L56:
 1050              	 .loc 1 324 0 discriminator 4
 1051 004c 7B68     	 ldr r3,[r7,#4]
 1052 004e 1A60     	 str r2,[r3]
 1053              	.L54:
 325:C:/Users/Yushev/git/wpcqi-optiga-trust-charge/optiga/externals/mbedtls/library\bignum.c **** 
 326:C:/Users/Yushev/git/wpcqi-optiga-trust-charge/optiga/externals/mbedtls/library\bignum.c **** cleanup:
 327:C:/Users/Yushev/git/wpcqi-optiga-trust-charge/optiga/externals/mbedtls/library\bignum.c **** 
 328:C:/Users/Yushev/git/wpcqi-optiga-trust-charge/optiga/externals/mbedtls/library\bignum.c ****     return( ret );
 1054              	 .loc 1 328 0 is_stmt 1
 1055 0050 FB68     	 ldr r3,[r7,#12]
 329:C:/Users/Yushev/git/wpcqi-optiga-trust-charge/optiga/externals/mbedtls/library\bignum.c **** }
 1056              	 .loc 1 329 0
 1057 0052 1846     	 mov r0,r3
 1058 0054 1037     	 adds r7,r7,#16
 1059              	.LCFI49:
 1060              	 .cfi_def_cfa_offset 8
 1061 0056 BD46     	 mov sp,r7
 1062              	.LCFI50:
 1063              	 .cfi_def_cfa_register 13
 1064              	 
 1065 0058 80BD     	 pop {r7,pc}
 1066              	 .cfi_endproc
 1067              	.LFE9:
 1069 005a 00BF     	 .section .text.mbedtls_mpi_get_bit,"ax",%progbits
 1070              	 .align 2
 1071              	 .global mbedtls_mpi_get_bit
 1072              	 .thumb
 1073              	 .thumb_func
 1075              	mbedtls_mpi_get_bit:
 1076              	.LFB10:
 330:C:/Users/Yushev/git/wpcqi-optiga-trust-charge/optiga/externals/mbedtls/library\bignum.c **** 
 331:C:/Users/Yushev/git/wpcqi-optiga-trust-charge/optiga/externals/mbedtls/library\bignum.c **** /*
 332:C:/Users/Yushev/git/wpcqi-optiga-trust-charge/optiga/externals/mbedtls/library\bignum.c ****  * Get a specific bit
 333:C:/Users/Yushev/git/wpcqi-optiga-trust-charge/optiga/externals/mbedtls/library\bignum.c ****  */
 334:C:/Users/Yushev/git/wpcqi-optiga-trust-charge/optiga/externals/mbedtls/library\bignum.c **** int mbedtls_mpi_get_bit( const mbedtls_mpi *X, size_t pos )
 335:C:/Users/Yushev/git/wpcqi-optiga-trust-charge/optiga/externals/mbedtls/library\bignum.c **** {
 1077              	 .loc 1 335 0
 1078              	 .cfi_startproc
 1079              	 
 1080              	 
 1081              	 
 1082 0000 80B4     	 push {r7}
 1083              	.LCFI51:
 1084              	 .cfi_def_cfa_offset 4
 1085              	 .cfi_offset 7,-4
 1086 0002 83B0     	 sub sp,sp,#12
 1087              	.LCFI52:
 1088              	 .cfi_def_cfa_offset 16
 1089 0004 00AF     	 add r7,sp,#0
 1090              	.LCFI53:
 1091              	 .cfi_def_cfa_register 7
 1092 0006 7860     	 str r0,[r7,#4]
 1093 0008 3960     	 str r1,[r7]
 336:C:/Users/Yushev/git/wpcqi-optiga-trust-charge/optiga/externals/mbedtls/library\bignum.c ****     MPI_VALIDATE_RET( X != NULL );
 337:C:/Users/Yushev/git/wpcqi-optiga-trust-charge/optiga/externals/mbedtls/library\bignum.c **** 
 338:C:/Users/Yushev/git/wpcqi-optiga-trust-charge/optiga/externals/mbedtls/library\bignum.c ****     if( X->n * biL <= pos )
 1094              	 .loc 1 338 0
 1095 000a 7B68     	 ldr r3,[r7,#4]
 1096 000c 5B68     	 ldr r3,[r3,#4]
 1097 000e 5A01     	 lsls r2,r3,#5
 1098 0010 3B68     	 ldr r3,[r7]
 1099 0012 9A42     	 cmp r2,r3
 1100 0014 01D8     	 bhi .L59
 339:C:/Users/Yushev/git/wpcqi-optiga-trust-charge/optiga/externals/mbedtls/library\bignum.c ****         return( 0 );
 1101              	 .loc 1 339 0
 1102 0016 0023     	 movs r3,#0
 1103 0018 0DE0     	 b .L60
 1104              	.L59:
 340:C:/Users/Yushev/git/wpcqi-optiga-trust-charge/optiga/externals/mbedtls/library\bignum.c **** 
 341:C:/Users/Yushev/git/wpcqi-optiga-trust-charge/optiga/externals/mbedtls/library\bignum.c ****     return( ( X->p[pos / biL] >> ( pos % biL ) ) & 0x01 );
 1105              	 .loc 1 341 0
 1106 001a 7B68     	 ldr r3,[r7,#4]
 1107 001c 9A68     	 ldr r2,[r3,#8]
 1108 001e 3B68     	 ldr r3,[r7]
 1109 0020 5B09     	 lsrs r3,r3,#5
 1110 0022 9B00     	 lsls r3,r3,#2
 1111 0024 1344     	 add r3,r3,r2
 1112 0026 1A68     	 ldr r2,[r3]
 1113 0028 3B68     	 ldr r3,[r7]
 1114 002a 03F01F03 	 and r3,r3,#31
 1115 002e 22FA03F3 	 lsr r3,r2,r3
 1116 0032 03F00103 	 and r3,r3,#1
 1117              	.L60:
 342:C:/Users/Yushev/git/wpcqi-optiga-trust-charge/optiga/externals/mbedtls/library\bignum.c **** }
 1118              	 .loc 1 342 0
 1119 0036 1846     	 mov r0,r3
 1120 0038 0C37     	 adds r7,r7,#12
 1121              	.LCFI54:
 1122              	 .cfi_def_cfa_offset 4
 1123 003a BD46     	 mov sp,r7
 1124              	.LCFI55:
 1125              	 .cfi_def_cfa_register 13
 1126              	 
 1127 003c 5DF8047B 	 ldr r7,[sp],#4
 1128              	.LCFI56:
 1129              	 .cfi_restore 7
 1130              	 .cfi_def_cfa_offset 0
 1131 0040 7047     	 bx lr
 1132              	 .cfi_endproc
 1133              	.LFE10:
 1135 0042 00BF     	 .section .text.mbedtls_mpi_set_bit,"ax",%progbits
 1136              	 .align 2
 1137              	 .global mbedtls_mpi_set_bit
 1138              	 .thumb
 1139              	 .thumb_func
 1141              	mbedtls_mpi_set_bit:
 1142              	.LFB11:
 343:C:/Users/Yushev/git/wpcqi-optiga-trust-charge/optiga/externals/mbedtls/library\bignum.c **** 
 344:C:/Users/Yushev/git/wpcqi-optiga-trust-charge/optiga/externals/mbedtls/library\bignum.c **** /* Get a specific byte, without range checks. */
 345:C:/Users/Yushev/git/wpcqi-optiga-trust-charge/optiga/externals/mbedtls/library\bignum.c **** #define GET_BYTE( X, i )                                \
 346:C:/Users/Yushev/git/wpcqi-optiga-trust-charge/optiga/externals/mbedtls/library\bignum.c ****     ( ( ( X )->p[( i ) / ciL] >> ( ( ( i ) % ciL ) * 8 ) ) & 0xff )
 347:C:/Users/Yushev/git/wpcqi-optiga-trust-charge/optiga/externals/mbedtls/library\bignum.c **** 
 348:C:/Users/Yushev/git/wpcqi-optiga-trust-charge/optiga/externals/mbedtls/library\bignum.c **** /*
 349:C:/Users/Yushev/git/wpcqi-optiga-trust-charge/optiga/externals/mbedtls/library\bignum.c ****  * Set a bit to a specific value of 0 or 1
 350:C:/Users/Yushev/git/wpcqi-optiga-trust-charge/optiga/externals/mbedtls/library\bignum.c ****  */
 351:C:/Users/Yushev/git/wpcqi-optiga-trust-charge/optiga/externals/mbedtls/library\bignum.c **** int mbedtls_mpi_set_bit( mbedtls_mpi *X, size_t pos, unsigned char val )
 352:C:/Users/Yushev/git/wpcqi-optiga-trust-charge/optiga/externals/mbedtls/library\bignum.c **** {
 1143              	 .loc 1 352 0
 1144              	 .cfi_startproc
 1145              	 
 1146              	 
 1147 0000 80B5     	 push {r7,lr}
 1148              	.LCFI57:
 1149              	 .cfi_def_cfa_offset 8
 1150              	 .cfi_offset 7,-8
 1151              	 .cfi_offset 14,-4
 1152 0002 88B0     	 sub sp,sp,#32
 1153              	.LCFI58:
 1154              	 .cfi_def_cfa_offset 40
 1155 0004 00AF     	 add r7,sp,#0
 1156              	.LCFI59:
 1157              	 .cfi_def_cfa_register 7
 1158 0006 F860     	 str r0,[r7,#12]
 1159 0008 B960     	 str r1,[r7,#8]
 1160 000a 1346     	 mov r3,r2
 1161 000c FB71     	 strb r3,[r7,#7]
 353:C:/Users/Yushev/git/wpcqi-optiga-trust-charge/optiga/externals/mbedtls/library\bignum.c ****     int ret = 0;
 1162              	 .loc 1 353 0
 1163 000e 0023     	 movs r3,#0
 1164 0010 FB61     	 str r3,[r7,#28]
 354:C:/Users/Yushev/git/wpcqi-optiga-trust-charge/optiga/externals/mbedtls/library\bignum.c ****     size_t off = pos / biL;
 1165              	 .loc 1 354 0
 1166 0012 BB68     	 ldr r3,[r7,#8]
 1167 0014 5B09     	 lsrs r3,r3,#5
 1168 0016 BB61     	 str r3,[r7,#24]
 355:C:/Users/Yushev/git/wpcqi-optiga-trust-charge/optiga/externals/mbedtls/library\bignum.c ****     size_t idx = pos % biL;
 1169              	 .loc 1 355 0
 1170 0018 BB68     	 ldr r3,[r7,#8]
 1171 001a 03F01F03 	 and r3,r3,#31
 1172 001e 7B61     	 str r3,[r7,#20]
 356:C:/Users/Yushev/git/wpcqi-optiga-trust-charge/optiga/externals/mbedtls/library\bignum.c ****     MPI_VALIDATE_RET( X != NULL );
 357:C:/Users/Yushev/git/wpcqi-optiga-trust-charge/optiga/externals/mbedtls/library\bignum.c **** 
 358:C:/Users/Yushev/git/wpcqi-optiga-trust-charge/optiga/externals/mbedtls/library\bignum.c ****     if( val != 0 && val != 1 )
 1173              	 .loc 1 358 0
 1174 0020 FB79     	 ldrb r3,[r7,#7]
 1175 0022 002B     	 cmp r3,#0
 1176 0024 05D0     	 beq .L62
 1177              	 .loc 1 358 0 is_stmt 0 discriminator 1
 1178 0026 FB79     	 ldrb r3,[r7,#7]
 1179 0028 012B     	 cmp r3,#1
 1180 002a 02D0     	 beq .L62
 359:C:/Users/Yushev/git/wpcqi-optiga-trust-charge/optiga/externals/mbedtls/library\bignum.c ****         return( MBEDTLS_ERR_MPI_BAD_INPUT_DATA );
 1181              	 .loc 1 359 0 is_stmt 1
 1182 002c 6FF00303 	 mvn r3,#3
 1183 0030 39E0     	 b .L63
 1184              	.L62:
 360:C:/Users/Yushev/git/wpcqi-optiga-trust-charge/optiga/externals/mbedtls/library\bignum.c **** 
 361:C:/Users/Yushev/git/wpcqi-optiga-trust-charge/optiga/externals/mbedtls/library\bignum.c ****     if( X->n * biL <= pos )
 1185              	 .loc 1 361 0
 1186 0032 FB68     	 ldr r3,[r7,#12]
 1187 0034 5B68     	 ldr r3,[r3,#4]
 1188 0036 5A01     	 lsls r2,r3,#5
 1189 0038 BB68     	 ldr r3,[r7,#8]
 1190 003a 9A42     	 cmp r2,r3
 1191 003c 0FD8     	 bhi .L64
 362:C:/Users/Yushev/git/wpcqi-optiga-trust-charge/optiga/externals/mbedtls/library\bignum.c ****     {
 363:C:/Users/Yushev/git/wpcqi-optiga-trust-charge/optiga/externals/mbedtls/library\bignum.c ****         if( val == 0 )
 1192              	 .loc 1 363 0
 1193 003e FB79     	 ldrb r3,[r7,#7]
 1194 0040 002B     	 cmp r3,#0
 1195 0042 01D1     	 bne .L65
 364:C:/Users/Yushev/git/wpcqi-optiga-trust-charge/optiga/externals/mbedtls/library\bignum.c ****             return( 0 );
 1196              	 .loc 1 364 0
 1197 0044 0023     	 movs r3,#0
 1198 0046 2EE0     	 b .L63
 1199              	.L65:
 365:C:/Users/Yushev/git/wpcqi-optiga-trust-charge/optiga/externals/mbedtls/library\bignum.c **** 
 366:C:/Users/Yushev/git/wpcqi-optiga-trust-charge/optiga/externals/mbedtls/library\bignum.c ****         MBEDTLS_MPI_CHK( mbedtls_mpi_grow( X, off + 1 ) );
 1200              	 .loc 1 366 0
 1201 0048 BB69     	 ldr r3,[r7,#24]
 1202 004a 0133     	 adds r3,r3,#1
 1203 004c F868     	 ldr r0,[r7,#12]
 1204 004e 1946     	 mov r1,r3
 1205 0050 FFF7FEFF 	 bl mbedtls_mpi_grow
 1206 0054 F861     	 str r0,[r7,#28]
 1207 0056 FB69     	 ldr r3,[r7,#28]
 1208 0058 002B     	 cmp r3,#0
 1209 005a 00D0     	 beq .L64
 1210 005c 22E0     	 b .L66
 1211              	.L64:
 367:C:/Users/Yushev/git/wpcqi-optiga-trust-charge/optiga/externals/mbedtls/library\bignum.c ****     }
 368:C:/Users/Yushev/git/wpcqi-optiga-trust-charge/optiga/externals/mbedtls/library\bignum.c **** 
 369:C:/Users/Yushev/git/wpcqi-optiga-trust-charge/optiga/externals/mbedtls/library\bignum.c ****     X->p[off] &= ~( (mbedtls_mpi_uint) 0x01 << idx );
 1212              	 .loc 1 369 0
 1213 005e FB68     	 ldr r3,[r7,#12]
 1214 0060 9A68     	 ldr r2,[r3,#8]
 1215 0062 BB69     	 ldr r3,[r7,#24]
 1216 0064 9B00     	 lsls r3,r3,#2
 1217 0066 1344     	 add r3,r3,r2
 1218 0068 FA68     	 ldr r2,[r7,#12]
 1219 006a 9168     	 ldr r1,[r2,#8]
 1220 006c BA69     	 ldr r2,[r7,#24]
 1221 006e 9200     	 lsls r2,r2,#2
 1222 0070 0A44     	 add r2,r2,r1
 1223 0072 1168     	 ldr r1,[r2]
 1224 0074 7A69     	 ldr r2,[r7,#20]
 1225 0076 0120     	 movs r0,#1
 1226 0078 00FA02F2 	 lsl r2,r0,r2
 1227 007c D243     	 mvns r2,r2
 1228 007e 0A40     	 ands r2,r2,r1
 1229 0080 1A60     	 str r2,[r3]
 370:C:/Users/Yushev/git/wpcqi-optiga-trust-charge/optiga/externals/mbedtls/library\bignum.c ****     X->p[off] |= (mbedtls_mpi_uint) val << idx;
 1230              	 .loc 1 370 0
 1231 0082 FB68     	 ldr r3,[r7,#12]
 1232 0084 9A68     	 ldr r2,[r3,#8]
 1233 0086 BB69     	 ldr r3,[r7,#24]
 1234 0088 9B00     	 lsls r3,r3,#2
 1235 008a 1344     	 add r3,r3,r2
 1236 008c FA68     	 ldr r2,[r7,#12]
 1237 008e 9168     	 ldr r1,[r2,#8]
 1238 0090 BA69     	 ldr r2,[r7,#24]
 1239 0092 9200     	 lsls r2,r2,#2
 1240 0094 0A44     	 add r2,r2,r1
 1241 0096 1168     	 ldr r1,[r2]
 1242 0098 F879     	 ldrb r0,[r7,#7]
 1243 009a 7A69     	 ldr r2,[r7,#20]
 1244 009c 00FA02F2 	 lsl r2,r0,r2
 1245 00a0 0A43     	 orrs r2,r2,r1
 1246 00a2 1A60     	 str r2,[r3]
 1247              	.L66:
 371:C:/Users/Yushev/git/wpcqi-optiga-trust-charge/optiga/externals/mbedtls/library\bignum.c **** 
 372:C:/Users/Yushev/git/wpcqi-optiga-trust-charge/optiga/externals/mbedtls/library\bignum.c **** cleanup:
 373:C:/Users/Yushev/git/wpcqi-optiga-trust-charge/optiga/externals/mbedtls/library\bignum.c **** 
 374:C:/Users/Yushev/git/wpcqi-optiga-trust-charge/optiga/externals/mbedtls/library\bignum.c ****     return( ret );
 1248              	 .loc 1 374 0
 1249 00a4 FB69     	 ldr r3,[r7,#28]
 1250              	.L63:
 375:C:/Users/Yushev/git/wpcqi-optiga-trust-charge/optiga/externals/mbedtls/library\bignum.c **** }
 1251              	 .loc 1 375 0
 1252 00a6 1846     	 mov r0,r3
 1253 00a8 2037     	 adds r7,r7,#32
 1254              	.LCFI60:
 1255              	 .cfi_def_cfa_offset 8
 1256 00aa BD46     	 mov sp,r7
 1257              	.LCFI61:
 1258              	 .cfi_def_cfa_register 13
 1259              	 
 1260 00ac 80BD     	 pop {r7,pc}
 1261              	 .cfi_endproc
 1262              	.LFE11:
 1264 00ae 00BF     	 .section .text.mbedtls_mpi_lsb,"ax",%progbits
 1265              	 .align 2
 1266              	 .global mbedtls_mpi_lsb
 1267              	 .thumb
 1268              	 .thumb_func
 1270              	mbedtls_mpi_lsb:
 1271              	.LFB12:
 376:C:/Users/Yushev/git/wpcqi-optiga-trust-charge/optiga/externals/mbedtls/library\bignum.c **** 
 377:C:/Users/Yushev/git/wpcqi-optiga-trust-charge/optiga/externals/mbedtls/library\bignum.c **** /*
 378:C:/Users/Yushev/git/wpcqi-optiga-trust-charge/optiga/externals/mbedtls/library\bignum.c ****  * Return the number of less significant zero-bits
 379:C:/Users/Yushev/git/wpcqi-optiga-trust-charge/optiga/externals/mbedtls/library\bignum.c ****  */
 380:C:/Users/Yushev/git/wpcqi-optiga-trust-charge/optiga/externals/mbedtls/library\bignum.c **** size_t mbedtls_mpi_lsb( const mbedtls_mpi *X )
 381:C:/Users/Yushev/git/wpcqi-optiga-trust-charge/optiga/externals/mbedtls/library\bignum.c **** {
 1272              	 .loc 1 381 0
 1273              	 .cfi_startproc
 1274              	 
 1275              	 
 1276              	 
 1277 0000 80B4     	 push {r7}
 1278              	.LCFI62:
 1279              	 .cfi_def_cfa_offset 4
 1280              	 .cfi_offset 7,-4
 1281 0002 87B0     	 sub sp,sp,#28
 1282              	.LCFI63:
 1283              	 .cfi_def_cfa_offset 32
 1284 0004 00AF     	 add r7,sp,#0
 1285              	.LCFI64:
 1286              	 .cfi_def_cfa_register 7
 1287 0006 7860     	 str r0,[r7,#4]
 382:C:/Users/Yushev/git/wpcqi-optiga-trust-charge/optiga/externals/mbedtls/library\bignum.c ****     size_t i, j, count = 0;
 1288              	 .loc 1 382 0
 1289 0008 0023     	 movs r3,#0
 1290 000a FB60     	 str r3,[r7,#12]
 383:C:/Users/Yushev/git/wpcqi-optiga-trust-charge/optiga/externals/mbedtls/library\bignum.c ****     MBEDTLS_INTERNAL_VALIDATE_RET( X != NULL, 0 );
 384:C:/Users/Yushev/git/wpcqi-optiga-trust-charge/optiga/externals/mbedtls/library\bignum.c **** 
 385:C:/Users/Yushev/git/wpcqi-optiga-trust-charge/optiga/externals/mbedtls/library\bignum.c ****     for( i = 0; i < X->n; i++ )
 1291              	 .loc 1 385 0
 1292 000c 0023     	 movs r3,#0
 1293 000e 7B61     	 str r3,[r7,#20]
 1294 0010 1DE0     	 b .L68
 1295              	.L73:
 386:C:/Users/Yushev/git/wpcqi-optiga-trust-charge/optiga/externals/mbedtls/library\bignum.c ****         for( j = 0; j < biL; j++, count++ )
 1296              	 .loc 1 386 0
 1297 0012 0023     	 movs r3,#0
 1298 0014 3B61     	 str r3,[r7,#16]
 1299 0016 14E0     	 b .L69
 1300              	.L72:
 387:C:/Users/Yushev/git/wpcqi-optiga-trust-charge/optiga/externals/mbedtls/library\bignum.c ****             if( ( ( X->p[i] >> j ) & 1 ) != 0 )
 1301              	 .loc 1 387 0
 1302 0018 7B68     	 ldr r3,[r7,#4]
 1303 001a 9A68     	 ldr r2,[r3,#8]
 1304 001c 7B69     	 ldr r3,[r7,#20]
 1305 001e 9B00     	 lsls r3,r3,#2
 1306 0020 1344     	 add r3,r3,r2
 1307 0022 1A68     	 ldr r2,[r3]
 1308 0024 3B69     	 ldr r3,[r7,#16]
 1309 0026 22FA03F3 	 lsr r3,r2,r3
 1310 002a 03F00103 	 and r3,r3,#1
 1311 002e 002B     	 cmp r3,#0
 1312 0030 01D0     	 beq .L70
 388:C:/Users/Yushev/git/wpcqi-optiga-trust-charge/optiga/externals/mbedtls/library\bignum.c ****                 return( count );
 1313              	 .loc 1 388 0
 1314 0032 FB68     	 ldr r3,[r7,#12]
 1315 0034 11E0     	 b .L71
 1316              	.L70:
 386:C:/Users/Yushev/git/wpcqi-optiga-trust-charge/optiga/externals/mbedtls/library\bignum.c ****         for( j = 0; j < biL; j++, count++ )
 1317              	 .loc 1 386 0 discriminator 2
 1318 0036 3B69     	 ldr r3,[r7,#16]
 1319 0038 0133     	 adds r3,r3,#1
 1320 003a 3B61     	 str r3,[r7,#16]
 1321 003c FB68     	 ldr r3,[r7,#12]
 1322 003e 0133     	 adds r3,r3,#1
 1323 0040 FB60     	 str r3,[r7,#12]
 1324              	.L69:
 386:C:/Users/Yushev/git/wpcqi-optiga-trust-charge/optiga/externals/mbedtls/library\bignum.c ****         for( j = 0; j < biL; j++, count++ )
 1325              	 .loc 1 386 0 is_stmt 0 discriminator 1
 1326 0042 3B69     	 ldr r3,[r7,#16]
 1327 0044 1F2B     	 cmp r3,#31
 1328 0046 E7D9     	 bls .L72
 385:C:/Users/Yushev/git/wpcqi-optiga-trust-charge/optiga/externals/mbedtls/library\bignum.c ****         for( j = 0; j < biL; j++, count++ )
 1329              	 .loc 1 385 0 is_stmt 1 discriminator 2
 1330 0048 7B69     	 ldr r3,[r7,#20]
 1331 004a 0133     	 adds r3,r3,#1
 1332 004c 7B61     	 str r3,[r7,#20]
 1333              	.L68:
 385:C:/Users/Yushev/git/wpcqi-optiga-trust-charge/optiga/externals/mbedtls/library\bignum.c ****         for( j = 0; j < biL; j++, count++ )
 1334              	 .loc 1 385 0 is_stmt 0 discriminator 1
 1335 004e 7B68     	 ldr r3,[r7,#4]
 1336 0050 5A68     	 ldr r2,[r3,#4]
 1337 0052 7B69     	 ldr r3,[r7,#20]
 1338 0054 9A42     	 cmp r2,r3
 1339 0056 DCD8     	 bhi .L73
 389:C:/Users/Yushev/git/wpcqi-optiga-trust-charge/optiga/externals/mbedtls/library\bignum.c **** 
 390:C:/Users/Yushev/git/wpcqi-optiga-trust-charge/optiga/externals/mbedtls/library\bignum.c ****     return( 0 );
 1340              	 .loc 1 390 0 is_stmt 1
 1341 0058 0023     	 movs r3,#0
 1342              	.L71:
 391:C:/Users/Yushev/git/wpcqi-optiga-trust-charge/optiga/externals/mbedtls/library\bignum.c **** }
 1343              	 .loc 1 391 0
 1344 005a 1846     	 mov r0,r3
 1345 005c 1C37     	 adds r7,r7,#28
 1346              	.LCFI65:
 1347              	 .cfi_def_cfa_offset 4
 1348 005e BD46     	 mov sp,r7
 1349              	.LCFI66:
 1350              	 .cfi_def_cfa_register 13
 1351              	 
 1352 0060 5DF8047B 	 ldr r7,[sp],#4
 1353              	.LCFI67:
 1354              	 .cfi_restore 7
 1355              	 .cfi_def_cfa_offset 0
 1356 0064 7047     	 bx lr
 1357              	 .cfi_endproc
 1358              	.LFE12:
 1360 0066 00BF     	 .section .text.mbedtls_clz,"ax",%progbits
 1361              	 .align 2
 1362              	 .thumb
 1363              	 .thumb_func
 1365              	mbedtls_clz:
 1366              	.LFB13:
 392:C:/Users/Yushev/git/wpcqi-optiga-trust-charge/optiga/externals/mbedtls/library\bignum.c **** 
 393:C:/Users/Yushev/git/wpcqi-optiga-trust-charge/optiga/externals/mbedtls/library\bignum.c **** /*
 394:C:/Users/Yushev/git/wpcqi-optiga-trust-charge/optiga/externals/mbedtls/library\bignum.c ****  * Count leading zero bits in a given integer
 395:C:/Users/Yushev/git/wpcqi-optiga-trust-charge/optiga/externals/mbedtls/library\bignum.c ****  */
 396:C:/Users/Yushev/git/wpcqi-optiga-trust-charge/optiga/externals/mbedtls/library\bignum.c **** static size_t mbedtls_clz( const mbedtls_mpi_uint x )
 397:C:/Users/Yushev/git/wpcqi-optiga-trust-charge/optiga/externals/mbedtls/library\bignum.c **** {
 1367              	 .loc 1 397 0
 1368              	 .cfi_startproc
 1369              	 
 1370              	 
 1371              	 
 1372 0000 80B4     	 push {r7}
 1373              	.LCFI68:
 1374              	 .cfi_def_cfa_offset 4
 1375              	 .cfi_offset 7,-4
 1376 0002 85B0     	 sub sp,sp,#20
 1377              	.LCFI69:
 1378              	 .cfi_def_cfa_offset 24
 1379 0004 00AF     	 add r7,sp,#0
 1380              	.LCFI70:
 1381              	 .cfi_def_cfa_register 7
 1382 0006 7860     	 str r0,[r7,#4]
 398:C:/Users/Yushev/git/wpcqi-optiga-trust-charge/optiga/externals/mbedtls/library\bignum.c ****     size_t j;
 399:C:/Users/Yushev/git/wpcqi-optiga-trust-charge/optiga/externals/mbedtls/library\bignum.c ****     mbedtls_mpi_uint mask = (mbedtls_mpi_uint) 1 << (biL - 1);
 1383              	 .loc 1 399 0
 1384 0008 4FF00043 	 mov r3,#-2147483648
 1385 000c BB60     	 str r3,[r7,#8]
 400:C:/Users/Yushev/git/wpcqi-optiga-trust-charge/optiga/externals/mbedtls/library\bignum.c **** 
 401:C:/Users/Yushev/git/wpcqi-optiga-trust-charge/optiga/externals/mbedtls/library\bignum.c ****     for( j = 0; j < biL; j++ )
 1386              	 .loc 1 401 0
 1387 000e 0023     	 movs r3,#0
 1388 0010 FB60     	 str r3,[r7,#12]
 1389 0012 0BE0     	 b .L75
 1390              	.L78:
 402:C:/Users/Yushev/git/wpcqi-optiga-trust-charge/optiga/externals/mbedtls/library\bignum.c ****     {
 403:C:/Users/Yushev/git/wpcqi-optiga-trust-charge/optiga/externals/mbedtls/library\bignum.c ****         if( x & mask ) break;
 1391              	 .loc 1 403 0
 1392 0014 7A68     	 ldr r2,[r7,#4]
 1393 0016 BB68     	 ldr r3,[r7,#8]
 1394 0018 1340     	 ands r3,r3,r2
 1395 001a 002B     	 cmp r3,#0
 1396 001c 00D0     	 beq .L76
 1397 001e 08E0     	 b .L77
 1398              	.L76:
 404:C:/Users/Yushev/git/wpcqi-optiga-trust-charge/optiga/externals/mbedtls/library\bignum.c **** 
 405:C:/Users/Yushev/git/wpcqi-optiga-trust-charge/optiga/externals/mbedtls/library\bignum.c ****         mask >>= 1;
 1399              	 .loc 1 405 0 discriminator 2
 1400 0020 BB68     	 ldr r3,[r7,#8]
 1401 0022 5B08     	 lsrs r3,r3,#1
 1402 0024 BB60     	 str r3,[r7,#8]
 401:C:/Users/Yushev/git/wpcqi-optiga-trust-charge/optiga/externals/mbedtls/library\bignum.c ****     {
 1403              	 .loc 1 401 0 discriminator 2
 1404 0026 FB68     	 ldr r3,[r7,#12]
 1405 0028 0133     	 adds r3,r3,#1
 1406 002a FB60     	 str r3,[r7,#12]
 1407              	.L75:
 401:C:/Users/Yushev/git/wpcqi-optiga-trust-charge/optiga/externals/mbedtls/library\bignum.c ****     {
 1408              	 .loc 1 401 0 is_stmt 0 discriminator 1
 1409 002c FB68     	 ldr r3,[r7,#12]
 1410 002e 1F2B     	 cmp r3,#31
 1411 0030 F0D9     	 bls .L78
 1412              	.L77:
 406:C:/Users/Yushev/git/wpcqi-optiga-trust-charge/optiga/externals/mbedtls/library\bignum.c ****     }
 407:C:/Users/Yushev/git/wpcqi-optiga-trust-charge/optiga/externals/mbedtls/library\bignum.c **** 
 408:C:/Users/Yushev/git/wpcqi-optiga-trust-charge/optiga/externals/mbedtls/library\bignum.c ****     return j;
 1413              	 .loc 1 408 0 is_stmt 1
 1414 0032 FB68     	 ldr r3,[r7,#12]
 409:C:/Users/Yushev/git/wpcqi-optiga-trust-charge/optiga/externals/mbedtls/library\bignum.c **** }
 1415              	 .loc 1 409 0
 1416 0034 1846     	 mov r0,r3
 1417 0036 1437     	 adds r7,r7,#20
 1418              	.LCFI71:
 1419              	 .cfi_def_cfa_offset 4
 1420 0038 BD46     	 mov sp,r7
 1421              	.LCFI72:
 1422              	 .cfi_def_cfa_register 13
 1423              	 
 1424 003a 5DF8047B 	 ldr r7,[sp],#4
 1425              	.LCFI73:
 1426              	 .cfi_restore 7
 1427              	 .cfi_def_cfa_offset 0
 1428 003e 7047     	 bx lr
 1429              	 .cfi_endproc
 1430              	.LFE13:
 1432              	 .section .text.mbedtls_mpi_bitlen,"ax",%progbits
 1433              	 .align 2
 1434              	 .global mbedtls_mpi_bitlen
 1435              	 .thumb
 1436              	 .thumb_func
 1438              	mbedtls_mpi_bitlen:
 1439              	.LFB14:
 410:C:/Users/Yushev/git/wpcqi-optiga-trust-charge/optiga/externals/mbedtls/library\bignum.c **** 
 411:C:/Users/Yushev/git/wpcqi-optiga-trust-charge/optiga/externals/mbedtls/library\bignum.c **** /*
 412:C:/Users/Yushev/git/wpcqi-optiga-trust-charge/optiga/externals/mbedtls/library\bignum.c ****  * Return the number of bits
 413:C:/Users/Yushev/git/wpcqi-optiga-trust-charge/optiga/externals/mbedtls/library\bignum.c ****  */
 414:C:/Users/Yushev/git/wpcqi-optiga-trust-charge/optiga/externals/mbedtls/library\bignum.c **** size_t mbedtls_mpi_bitlen( const mbedtls_mpi *X )
 415:C:/Users/Yushev/git/wpcqi-optiga-trust-charge/optiga/externals/mbedtls/library\bignum.c **** {
 1440              	 .loc 1 415 0
 1441              	 .cfi_startproc
 1442              	 
 1443              	 
 1444 0000 80B5     	 push {r7,lr}
 1445              	.LCFI74:
 1446              	 .cfi_def_cfa_offset 8
 1447              	 .cfi_offset 7,-8
 1448              	 .cfi_offset 14,-4
 1449 0002 84B0     	 sub sp,sp,#16
 1450              	.LCFI75:
 1451              	 .cfi_def_cfa_offset 24
 1452 0004 00AF     	 add r7,sp,#0
 1453              	.LCFI76:
 1454              	 .cfi_def_cfa_register 7
 1455 0006 7860     	 str r0,[r7,#4]
 416:C:/Users/Yushev/git/wpcqi-optiga-trust-charge/optiga/externals/mbedtls/library\bignum.c ****     size_t i, j;
 417:C:/Users/Yushev/git/wpcqi-optiga-trust-charge/optiga/externals/mbedtls/library\bignum.c **** 
 418:C:/Users/Yushev/git/wpcqi-optiga-trust-charge/optiga/externals/mbedtls/library\bignum.c ****     if( X->n == 0 )
 1456              	 .loc 1 418 0
 1457 0008 7B68     	 ldr r3,[r7,#4]
 1458 000a 5B68     	 ldr r3,[r3,#4]
 1459 000c 002B     	 cmp r3,#0
 1460 000e 01D1     	 bne .L81
 419:C:/Users/Yushev/git/wpcqi-optiga-trust-charge/optiga/externals/mbedtls/library\bignum.c ****         return( 0 );
 1461              	 .loc 1 419 0
 1462 0010 0023     	 movs r3,#0
 1463 0012 24E0     	 b .L82
 1464              	.L81:
 420:C:/Users/Yushev/git/wpcqi-optiga-trust-charge/optiga/externals/mbedtls/library\bignum.c **** 
 421:C:/Users/Yushev/git/wpcqi-optiga-trust-charge/optiga/externals/mbedtls/library\bignum.c ****     for( i = X->n - 1; i > 0; i-- )
 1465              	 .loc 1 421 0
 1466 0014 7B68     	 ldr r3,[r7,#4]
 1467 0016 5B68     	 ldr r3,[r3,#4]
 1468 0018 013B     	 subs r3,r3,#1
 1469 001a FB60     	 str r3,[r7,#12]
 1470 001c 0BE0     	 b .L83
 1471              	.L86:
 422:C:/Users/Yushev/git/wpcqi-optiga-trust-charge/optiga/externals/mbedtls/library\bignum.c ****         if( X->p[i] != 0 )
 1472              	 .loc 1 422 0
 1473 001e 7B68     	 ldr r3,[r7,#4]
 1474 0020 9A68     	 ldr r2,[r3,#8]
 1475 0022 FB68     	 ldr r3,[r7,#12]
 1476 0024 9B00     	 lsls r3,r3,#2
 1477 0026 1344     	 add r3,r3,r2
 1478 0028 1B68     	 ldr r3,[r3]
 1479 002a 002B     	 cmp r3,#0
 1480 002c 00D0     	 beq .L84
 423:C:/Users/Yushev/git/wpcqi-optiga-trust-charge/optiga/externals/mbedtls/library\bignum.c ****             break;
 1481              	 .loc 1 423 0
 1482 002e 05E0     	 b .L85
 1483              	.L84:
 421:C:/Users/Yushev/git/wpcqi-optiga-trust-charge/optiga/externals/mbedtls/library\bignum.c ****         if( X->p[i] != 0 )
 1484              	 .loc 1 421 0 discriminator 2
 1485 0030 FB68     	 ldr r3,[r7,#12]
 1486 0032 013B     	 subs r3,r3,#1
 1487 0034 FB60     	 str r3,[r7,#12]
 1488              	.L83:
 421:C:/Users/Yushev/git/wpcqi-optiga-trust-charge/optiga/externals/mbedtls/library\bignum.c ****         if( X->p[i] != 0 )
 1489              	 .loc 1 421 0 is_stmt 0 discriminator 1
 1490 0036 FB68     	 ldr r3,[r7,#12]
 1491 0038 002B     	 cmp r3,#0
 1492 003a F0D1     	 bne .L86
 1493              	.L85:
 424:C:/Users/Yushev/git/wpcqi-optiga-trust-charge/optiga/externals/mbedtls/library\bignum.c **** 
 425:C:/Users/Yushev/git/wpcqi-optiga-trust-charge/optiga/externals/mbedtls/library\bignum.c ****     j = biL - mbedtls_clz( X->p[i] );
 1494              	 .loc 1 425 0 is_stmt 1
 1495 003c 7B68     	 ldr r3,[r7,#4]
 1496 003e 9A68     	 ldr r2,[r3,#8]
 1497 0040 FB68     	 ldr r3,[r7,#12]
 1498 0042 9B00     	 lsls r3,r3,#2
 1499 0044 1344     	 add r3,r3,r2
 1500 0046 1B68     	 ldr r3,[r3]
 1501 0048 1846     	 mov r0,r3
 1502 004a FFF7FEFF 	 bl mbedtls_clz
 1503 004e 0346     	 mov r3,r0
 1504 0050 C3F12003 	 rsb r3,r3,#32
 1505 0054 BB60     	 str r3,[r7,#8]
 426:C:/Users/Yushev/git/wpcqi-optiga-trust-charge/optiga/externals/mbedtls/library\bignum.c **** 
 427:C:/Users/Yushev/git/wpcqi-optiga-trust-charge/optiga/externals/mbedtls/library\bignum.c ****     return( ( i * biL ) + j );
 1506              	 .loc 1 427 0
 1507 0056 FB68     	 ldr r3,[r7,#12]
 1508 0058 5A01     	 lsls r2,r3,#5
 1509 005a BB68     	 ldr r3,[r7,#8]
 1510 005c 1344     	 add r3,r3,r2
 1511              	.L82:
 428:C:/Users/Yushev/git/wpcqi-optiga-trust-charge/optiga/externals/mbedtls/library\bignum.c **** }
 1512              	 .loc 1 428 0
 1513 005e 1846     	 mov r0,r3
 1514 0060 1037     	 adds r7,r7,#16
 1515              	.LCFI77:
 1516              	 .cfi_def_cfa_offset 8
 1517 0062 BD46     	 mov sp,r7
 1518              	.LCFI78:
 1519              	 .cfi_def_cfa_register 13
 1520              	 
 1521 0064 80BD     	 pop {r7,pc}
 1522              	 .cfi_endproc
 1523              	.LFE14:
 1525 0066 00BF     	 .section .text.mbedtls_mpi_size,"ax",%progbits
 1526              	 .align 2
 1527              	 .global mbedtls_mpi_size
 1528              	 .thumb
 1529              	 .thumb_func
 1531              	mbedtls_mpi_size:
 1532              	.LFB15:
 429:C:/Users/Yushev/git/wpcqi-optiga-trust-charge/optiga/externals/mbedtls/library\bignum.c **** 
 430:C:/Users/Yushev/git/wpcqi-optiga-trust-charge/optiga/externals/mbedtls/library\bignum.c **** /*
 431:C:/Users/Yushev/git/wpcqi-optiga-trust-charge/optiga/externals/mbedtls/library\bignum.c ****  * Return the total size in bytes
 432:C:/Users/Yushev/git/wpcqi-optiga-trust-charge/optiga/externals/mbedtls/library\bignum.c ****  */
 433:C:/Users/Yushev/git/wpcqi-optiga-trust-charge/optiga/externals/mbedtls/library\bignum.c **** size_t mbedtls_mpi_size( const mbedtls_mpi *X )
 434:C:/Users/Yushev/git/wpcqi-optiga-trust-charge/optiga/externals/mbedtls/library\bignum.c **** {
 1533              	 .loc 1 434 0
 1534              	 .cfi_startproc
 1535              	 
 1536              	 
 1537 0000 80B5     	 push {r7,lr}
 1538              	.LCFI79:
 1539              	 .cfi_def_cfa_offset 8
 1540              	 .cfi_offset 7,-8
 1541              	 .cfi_offset 14,-4
 1542 0002 82B0     	 sub sp,sp,#8
 1543              	.LCFI80:
 1544              	 .cfi_def_cfa_offset 16
 1545 0004 00AF     	 add r7,sp,#0
 1546              	.LCFI81:
 1547              	 .cfi_def_cfa_register 7
 1548 0006 7860     	 str r0,[r7,#4]
 435:C:/Users/Yushev/git/wpcqi-optiga-trust-charge/optiga/externals/mbedtls/library\bignum.c ****     return( ( mbedtls_mpi_bitlen( X ) + 7 ) >> 3 );
 1549              	 .loc 1 435 0
 1550 0008 7868     	 ldr r0,[r7,#4]
 1551 000a FFF7FEFF 	 bl mbedtls_mpi_bitlen
 1552 000e 0346     	 mov r3,r0
 1553 0010 0733     	 adds r3,r3,#7
 1554 0012 DB08     	 lsrs r3,r3,#3
 436:C:/Users/Yushev/git/wpcqi-optiga-trust-charge/optiga/externals/mbedtls/library\bignum.c **** }
 1555              	 .loc 1 436 0
 1556 0014 1846     	 mov r0,r3
 1557 0016 0837     	 adds r7,r7,#8
 1558              	.LCFI82:
 1559              	 .cfi_def_cfa_offset 8
 1560 0018 BD46     	 mov sp,r7
 1561              	.LCFI83:
 1562              	 .cfi_def_cfa_register 13
 1563              	 
 1564 001a 80BD     	 pop {r7,pc}
 1565              	 .cfi_endproc
 1566              	.LFE15:
 1568              	 .section .text.mpi_get_digit,"ax",%progbits
 1569              	 .align 2
 1570              	 .thumb
 1571              	 .thumb_func
 1573              	mpi_get_digit:
 1574              	.LFB16:
 437:C:/Users/Yushev/git/wpcqi-optiga-trust-charge/optiga/externals/mbedtls/library\bignum.c **** 
 438:C:/Users/Yushev/git/wpcqi-optiga-trust-charge/optiga/externals/mbedtls/library\bignum.c **** /*
 439:C:/Users/Yushev/git/wpcqi-optiga-trust-charge/optiga/externals/mbedtls/library\bignum.c ****  * Convert an ASCII character to digit value
 440:C:/Users/Yushev/git/wpcqi-optiga-trust-charge/optiga/externals/mbedtls/library\bignum.c ****  */
 441:C:/Users/Yushev/git/wpcqi-optiga-trust-charge/optiga/externals/mbedtls/library\bignum.c **** static int mpi_get_digit( mbedtls_mpi_uint *d, int radix, char c )
 442:C:/Users/Yushev/git/wpcqi-optiga-trust-charge/optiga/externals/mbedtls/library\bignum.c **** {
 1575              	 .loc 1 442 0
 1576              	 .cfi_startproc
 1577              	 
 1578              	 
 1579              	 
 1580 0000 80B4     	 push {r7}
 1581              	.LCFI84:
 1582              	 .cfi_def_cfa_offset 4
 1583              	 .cfi_offset 7,-4
 1584 0002 85B0     	 sub sp,sp,#20
 1585              	.LCFI85:
 1586              	 .cfi_def_cfa_offset 24
 1587 0004 00AF     	 add r7,sp,#0
 1588              	.LCFI86:
 1589              	 .cfi_def_cfa_register 7
 1590 0006 F860     	 str r0,[r7,#12]
 1591 0008 B960     	 str r1,[r7,#8]
 1592 000a 1346     	 mov r3,r2
 1593 000c FB71     	 strb r3,[r7,#7]
 443:C:/Users/Yushev/git/wpcqi-optiga-trust-charge/optiga/externals/mbedtls/library\bignum.c ****     *d = 255;
 1594              	 .loc 1 443 0
 1595 000e FB68     	 ldr r3,[r7,#12]
 1596 0010 FF22     	 movs r2,#255
 1597 0012 1A60     	 str r2,[r3]
 444:C:/Users/Yushev/git/wpcqi-optiga-trust-charge/optiga/externals/mbedtls/library\bignum.c **** 
 445:C:/Users/Yushev/git/wpcqi-optiga-trust-charge/optiga/externals/mbedtls/library\bignum.c ****     if( c >= 0x30 && c <= 0x39 ) *d = c - 0x30;
 1598              	 .loc 1 445 0
 1599 0014 FB79     	 ldrb r3,[r7,#7]
 1600 0016 2F2B     	 cmp r3,#47
 1601 0018 07D9     	 bls .L90
 1602              	 .loc 1 445 0 is_stmt 0 discriminator 1
 1603 001a FB79     	 ldrb r3,[r7,#7]
 1604 001c 392B     	 cmp r3,#57
 1605 001e 04D8     	 bhi .L90
 1606              	 .loc 1 445 0 discriminator 2
 1607 0020 FB79     	 ldrb r3,[r7,#7]
 1608 0022 303B     	 subs r3,r3,#48
 1609 0024 1A46     	 mov r2,r3
 1610 0026 FB68     	 ldr r3,[r7,#12]
 1611 0028 1A60     	 str r2,[r3]
 1612              	.L90:
 446:C:/Users/Yushev/git/wpcqi-optiga-trust-charge/optiga/externals/mbedtls/library\bignum.c ****     if( c >= 0x41 && c <= 0x46 ) *d = c - 0x37;
 1613              	 .loc 1 446 0 is_stmt 1
 1614 002a FB79     	 ldrb r3,[r7,#7]
 1615 002c 402B     	 cmp r3,#64
 1616 002e 07D9     	 bls .L91
 1617              	 .loc 1 446 0 is_stmt 0 discriminator 1
 1618 0030 FB79     	 ldrb r3,[r7,#7]
 1619 0032 462B     	 cmp r3,#70
 1620 0034 04D8     	 bhi .L91
 1621              	 .loc 1 446 0 discriminator 2
 1622 0036 FB79     	 ldrb r3,[r7,#7]
 1623 0038 373B     	 subs r3,r3,#55
 1624 003a 1A46     	 mov r2,r3
 1625 003c FB68     	 ldr r3,[r7,#12]
 1626 003e 1A60     	 str r2,[r3]
 1627              	.L91:
 447:C:/Users/Yushev/git/wpcqi-optiga-trust-charge/optiga/externals/mbedtls/library\bignum.c ****     if( c >= 0x61 && c <= 0x66 ) *d = c - 0x57;
 1628              	 .loc 1 447 0 is_stmt 1
 1629 0040 FB79     	 ldrb r3,[r7,#7]
 1630 0042 602B     	 cmp r3,#96
 1631 0044 07D9     	 bls .L92
 1632              	 .loc 1 447 0 is_stmt 0 discriminator 1
 1633 0046 FB79     	 ldrb r3,[r7,#7]
 1634 0048 662B     	 cmp r3,#102
 1635 004a 04D8     	 bhi .L92
 1636              	 .loc 1 447 0 discriminator 2
 1637 004c FB79     	 ldrb r3,[r7,#7]
 1638 004e 573B     	 subs r3,r3,#87
 1639 0050 1A46     	 mov r2,r3
 1640 0052 FB68     	 ldr r3,[r7,#12]
 1641 0054 1A60     	 str r2,[r3]
 1642              	.L92:
 448:C:/Users/Yushev/git/wpcqi-optiga-trust-charge/optiga/externals/mbedtls/library\bignum.c **** 
 449:C:/Users/Yushev/git/wpcqi-optiga-trust-charge/optiga/externals/mbedtls/library\bignum.c ****     if( *d >= (mbedtls_mpi_uint) radix )
 1643              	 .loc 1 449 0 is_stmt 1
 1644 0056 FB68     	 ldr r3,[r7,#12]
 1645 0058 1A68     	 ldr r2,[r3]
 1646 005a BB68     	 ldr r3,[r7,#8]
 1647 005c 9A42     	 cmp r2,r3
 1648 005e 02D3     	 bcc .L93
 450:C:/Users/Yushev/git/wpcqi-optiga-trust-charge/optiga/externals/mbedtls/library\bignum.c ****         return( MBEDTLS_ERR_MPI_INVALID_CHARACTER );
 1649              	 .loc 1 450 0
 1650 0060 6FF00503 	 mvn r3,#5
 1651 0064 00E0     	 b .L94
 1652              	.L93:
 451:C:/Users/Yushev/git/wpcqi-optiga-trust-charge/optiga/externals/mbedtls/library\bignum.c **** 
 452:C:/Users/Yushev/git/wpcqi-optiga-trust-charge/optiga/externals/mbedtls/library\bignum.c ****     return( 0 );
 1653              	 .loc 1 452 0
 1654 0066 0023     	 movs r3,#0
 1655              	.L94:
 453:C:/Users/Yushev/git/wpcqi-optiga-trust-charge/optiga/externals/mbedtls/library\bignum.c **** }
 1656              	 .loc 1 453 0
 1657 0068 1846     	 mov r0,r3
 1658 006a 1437     	 adds r7,r7,#20
 1659              	.LCFI87:
 1660              	 .cfi_def_cfa_offset 4
 1661 006c BD46     	 mov sp,r7
 1662              	.LCFI88:
 1663              	 .cfi_def_cfa_register 13
 1664              	 
 1665 006e 5DF8047B 	 ldr r7,[sp],#4
 1666              	.LCFI89:
 1667              	 .cfi_restore 7
 1668              	 .cfi_def_cfa_offset 0
 1669 0072 7047     	 bx lr
 1670              	 .cfi_endproc
 1671              	.LFE16:
 1673              	 .section .text.mbedtls_mpi_read_string,"ax",%progbits
 1674              	 .align 2
 1675              	 .global mbedtls_mpi_read_string
 1676              	 .thumb
 1677              	 .thumb_func
 1679              	mbedtls_mpi_read_string:
 1680              	.LFB17:
 454:C:/Users/Yushev/git/wpcqi-optiga-trust-charge/optiga/externals/mbedtls/library\bignum.c **** 
 455:C:/Users/Yushev/git/wpcqi-optiga-trust-charge/optiga/externals/mbedtls/library\bignum.c **** /*
 456:C:/Users/Yushev/git/wpcqi-optiga-trust-charge/optiga/externals/mbedtls/library\bignum.c ****  * Import from an ASCII string
 457:C:/Users/Yushev/git/wpcqi-optiga-trust-charge/optiga/externals/mbedtls/library\bignum.c ****  */
 458:C:/Users/Yushev/git/wpcqi-optiga-trust-charge/optiga/externals/mbedtls/library\bignum.c **** int mbedtls_mpi_read_string( mbedtls_mpi *X, int radix, const char *s )
 459:C:/Users/Yushev/git/wpcqi-optiga-trust-charge/optiga/externals/mbedtls/library\bignum.c **** {
 1681              	 .loc 1 459 0
 1682              	 .cfi_startproc
 1683              	 
 1684              	 
 1685 0000 80B5     	 push {r7,lr}
 1686              	.LCFI90:
 1687              	 .cfi_def_cfa_offset 8
 1688              	 .cfi_offset 7,-8
 1689              	 .cfi_offset 14,-4
 1690 0002 8EB0     	 sub sp,sp,#56
 1691              	.LCFI91:
 1692              	 .cfi_def_cfa_offset 64
 1693 0004 00AF     	 add r7,sp,#0
 1694              	.LCFI92:
 1695              	 .cfi_def_cfa_register 7
 1696 0006 F860     	 str r0,[r7,#12]
 1697 0008 B960     	 str r1,[r7,#8]
 1698 000a 7A60     	 str r2,[r7,#4]
 460:C:/Users/Yushev/git/wpcqi-optiga-trust-charge/optiga/externals/mbedtls/library\bignum.c ****     int ret;
 461:C:/Users/Yushev/git/wpcqi-optiga-trust-charge/optiga/externals/mbedtls/library\bignum.c ****     size_t i, j, slen, n;
 462:C:/Users/Yushev/git/wpcqi-optiga-trust-charge/optiga/externals/mbedtls/library\bignum.c ****     mbedtls_mpi_uint d;
 463:C:/Users/Yushev/git/wpcqi-optiga-trust-charge/optiga/externals/mbedtls/library\bignum.c ****     mbedtls_mpi T;
 464:C:/Users/Yushev/git/wpcqi-optiga-trust-charge/optiga/externals/mbedtls/library\bignum.c ****     MPI_VALIDATE_RET( X != NULL );
 465:C:/Users/Yushev/git/wpcqi-optiga-trust-charge/optiga/externals/mbedtls/library\bignum.c ****     MPI_VALIDATE_RET( s != NULL );
 466:C:/Users/Yushev/git/wpcqi-optiga-trust-charge/optiga/externals/mbedtls/library\bignum.c **** 
 467:C:/Users/Yushev/git/wpcqi-optiga-trust-charge/optiga/externals/mbedtls/library\bignum.c ****     if( radix < 2 || radix > 16 )
 1699              	 .loc 1 467 0
 1700 000c BB68     	 ldr r3,[r7,#8]
 1701 000e 012B     	 cmp r3,#1
 1702 0010 02DD     	 ble .L96
 1703              	 .loc 1 467 0 is_stmt 0 discriminator 1
 1704 0012 BB68     	 ldr r3,[r7,#8]
 1705 0014 102B     	 cmp r3,#16
 1706 0016 02DD     	 ble .L97
 1707              	.L96:
 468:C:/Users/Yushev/git/wpcqi-optiga-trust-charge/optiga/externals/mbedtls/library\bignum.c ****         return( MBEDTLS_ERR_MPI_BAD_INPUT_DATA );
 1708              	 .loc 1 468 0 is_stmt 1
 1709 0018 6FF00303 	 mvn r3,#3
 1710 001c D7E0     	 b .L117
 1711              	.L97:
 469:C:/Users/Yushev/git/wpcqi-optiga-trust-charge/optiga/externals/mbedtls/library\bignum.c **** 
 470:C:/Users/Yushev/git/wpcqi-optiga-trust-charge/optiga/externals/mbedtls/library\bignum.c ****     mbedtls_mpi_init( &T );
 1712              	 .loc 1 470 0
 1713 001e 07F11403 	 add r3,r7,#20
 1714 0022 1846     	 mov r0,r3
 1715 0024 FFF7FEFF 	 bl mbedtls_mpi_init
 471:C:/Users/Yushev/git/wpcqi-optiga-trust-charge/optiga/externals/mbedtls/library\bignum.c **** 
 472:C:/Users/Yushev/git/wpcqi-optiga-trust-charge/optiga/externals/mbedtls/library\bignum.c ****     slen = strlen( s );
 1716              	 .loc 1 472 0
 1717 0028 7868     	 ldr r0,[r7,#4]
 1718 002a FFF7FEFF 	 bl strlen
 1719 002e B862     	 str r0,[r7,#40]
 473:C:/Users/Yushev/git/wpcqi-optiga-trust-charge/optiga/externals/mbedtls/library\bignum.c **** 
 474:C:/Users/Yushev/git/wpcqi-optiga-trust-charge/optiga/externals/mbedtls/library\bignum.c ****     if( radix == 16 )
 1720              	 .loc 1 474 0
 1721 0030 BB68     	 ldr r3,[r7,#8]
 1722 0032 102B     	 cmp r3,#16
 1723 0034 69D1     	 bne .L99
 475:C:/Users/Yushev/git/wpcqi-optiga-trust-charge/optiga/externals/mbedtls/library\bignum.c ****     {
 476:C:/Users/Yushev/git/wpcqi-optiga-trust-charge/optiga/externals/mbedtls/library\bignum.c ****         if( slen > MPI_SIZE_T_MAX >> 2 )
 1724              	 .loc 1 476 0
 1725 0036 BB6A     	 ldr r3,[r7,#40]
 1726 0038 B3F1804F 	 cmp r3,#1073741824
 1727 003c 02D3     	 bcc .L100
 477:C:/Users/Yushev/git/wpcqi-optiga-trust-charge/optiga/externals/mbedtls/library\bignum.c ****             return( MBEDTLS_ERR_MPI_BAD_INPUT_DATA );
 1728              	 .loc 1 477 0
 1729 003e 6FF00303 	 mvn r3,#3
 1730 0042 C4E0     	 b .L117
 1731              	.L100:
 478:C:/Users/Yushev/git/wpcqi-optiga-trust-charge/optiga/externals/mbedtls/library\bignum.c **** 
 479:C:/Users/Yushev/git/wpcqi-optiga-trust-charge/optiga/externals/mbedtls/library\bignum.c ****         n = BITS_TO_LIMBS( slen << 2 );
 1732              	 .loc 1 479 0
 1733 0044 BB6A     	 ldr r3,[r7,#40]
 1734 0046 9B00     	 lsls r3,r3,#2
 1735 0048 5B09     	 lsrs r3,r3,#5
 1736 004a BA6A     	 ldr r2,[r7,#40]
 1737 004c 9200     	 lsls r2,r2,#2
 1738 004e 02F01F02 	 and r2,r2,#31
 1739 0052 002A     	 cmp r2,#0
 1740 0054 14BF     	 ite ne
 1741 0056 0122     	 movne r2,#1
 1742 0058 0022     	 moveq r2,#0
 1743 005a D2B2     	 uxtb r2,r2
 1744 005c 1344     	 add r3,r3,r2
 1745 005e 7B62     	 str r3,[r7,#36]
 480:C:/Users/Yushev/git/wpcqi-optiga-trust-charge/optiga/externals/mbedtls/library\bignum.c **** 
 481:C:/Users/Yushev/git/wpcqi-optiga-trust-charge/optiga/externals/mbedtls/library\bignum.c ****         MBEDTLS_MPI_CHK( mbedtls_mpi_grow( X, n ) );
 1746              	 .loc 1 481 0
 1747 0060 F868     	 ldr r0,[r7,#12]
 1748 0062 796A     	 ldr r1,[r7,#36]
 1749 0064 FFF7FEFF 	 bl mbedtls_mpi_grow
 1750 0068 7863     	 str r0,[r7,#52]
 1751 006a 7B6B     	 ldr r3,[r7,#52]
 1752 006c 002B     	 cmp r3,#0
 1753 006e 00D0     	 beq .L101
 1754 0070 A7E0     	 b .L102
 1755              	.L101:
 482:C:/Users/Yushev/git/wpcqi-optiga-trust-charge/optiga/externals/mbedtls/library\bignum.c ****         MBEDTLS_MPI_CHK( mbedtls_mpi_lset( X, 0 ) );
 1756              	 .loc 1 482 0
 1757 0072 F868     	 ldr r0,[r7,#12]
 1758 0074 0021     	 movs r1,#0
 1759 0076 FFF7FEFF 	 bl mbedtls_mpi_lset
 1760 007a 7863     	 str r0,[r7,#52]
 1761 007c 7B6B     	 ldr r3,[r7,#52]
 1762 007e 002B     	 cmp r3,#0
 1763 0080 00D0     	 beq .L103
 1764 0082 9EE0     	 b .L102
 1765              	.L103:
 483:C:/Users/Yushev/git/wpcqi-optiga-trust-charge/optiga/externals/mbedtls/library\bignum.c **** 
 484:C:/Users/Yushev/git/wpcqi-optiga-trust-charge/optiga/externals/mbedtls/library\bignum.c ****         for( i = slen, j = 0; i > 0; i--, j++ )
 1766              	 .loc 1 484 0
 1767 0084 BB6A     	 ldr r3,[r7,#40]
 1768 0086 3B63     	 str r3,[r7,#48]
 1769 0088 0023     	 movs r3,#0
 1770 008a FB62     	 str r3,[r7,#44]
 1771 008c 39E0     	 b .L104
 1772              	.L108:
 485:C:/Users/Yushev/git/wpcqi-optiga-trust-charge/optiga/externals/mbedtls/library\bignum.c ****         {
 486:C:/Users/Yushev/git/wpcqi-optiga-trust-charge/optiga/externals/mbedtls/library\bignum.c ****             if( i == 1 && s[i - 1] == '-' )
 1773              	 .loc 1 486 0
 1774 008e 3B6B     	 ldr r3,[r7,#48]
 1775 0090 012B     	 cmp r3,#1
 1776 0092 0CD1     	 bne .L105
 1777              	 .loc 1 486 0 is_stmt 0 discriminator 1
 1778 0094 3B6B     	 ldr r3,[r7,#48]
 1779 0096 013B     	 subs r3,r3,#1
 1780 0098 7A68     	 ldr r2,[r7,#4]
 1781 009a 1344     	 add r3,r3,r2
 1782 009c 1B78     	 ldrb r3,[r3]
 1783 009e 2D2B     	 cmp r3,#45
 1784 00a0 05D1     	 bne .L105
 487:C:/Users/Yushev/git/wpcqi-optiga-trust-charge/optiga/externals/mbedtls/library\bignum.c ****             {
 488:C:/Users/Yushev/git/wpcqi-optiga-trust-charge/optiga/externals/mbedtls/library\bignum.c ****                 X->s = -1;
 1785              	 .loc 1 488 0 is_stmt 1
 1786 00a2 FB68     	 ldr r3,[r7,#12]
 1787 00a4 4FF0FF32 	 mov r2,#-1
 1788 00a8 1A60     	 str r2,[r3]
 489:C:/Users/Yushev/git/wpcqi-optiga-trust-charge/optiga/externals/mbedtls/library\bignum.c ****                 break;
 1789              	 .loc 1 489 0
 1790 00aa 00BF     	 nop
 1791 00ac 89E0     	 b .L102
 1792              	.L105:
 490:C:/Users/Yushev/git/wpcqi-optiga-trust-charge/optiga/externals/mbedtls/library\bignum.c ****             }
 491:C:/Users/Yushev/git/wpcqi-optiga-trust-charge/optiga/externals/mbedtls/library\bignum.c **** 
 492:C:/Users/Yushev/git/wpcqi-optiga-trust-charge/optiga/externals/mbedtls/library\bignum.c ****             MBEDTLS_MPI_CHK( mpi_get_digit( &d, radix, s[i - 1] ) );
 1793              	 .loc 1 492 0
 1794 00ae 3B6B     	 ldr r3,[r7,#48]
 1795 00b0 013B     	 subs r3,r3,#1
 1796 00b2 7A68     	 ldr r2,[r7,#4]
 1797 00b4 1344     	 add r3,r3,r2
 1798 00b6 1B78     	 ldrb r3,[r3]
 1799 00b8 07F12002 	 add r2,r7,#32
 1800 00bc 1046     	 mov r0,r2
 1801 00be B968     	 ldr r1,[r7,#8]
 1802 00c0 1A46     	 mov r2,r3
 1803 00c2 FFF7FEFF 	 bl mpi_get_digit
 1804 00c6 7863     	 str r0,[r7,#52]
 1805 00c8 7B6B     	 ldr r3,[r7,#52]
 1806 00ca 002B     	 cmp r3,#0
 1807 00cc 00D0     	 beq .L107
 1808 00ce 78E0     	 b .L102
 1809              	.L107:
 493:C:/Users/Yushev/git/wpcqi-optiga-trust-charge/optiga/externals/mbedtls/library\bignum.c ****             X->p[j / ( 2 * ciL )] |= d << ( ( j % ( 2 * ciL ) ) << 2 );
 1810              	 .loc 1 493 0 discriminator 2
 1811 00d0 FB68     	 ldr r3,[r7,#12]
 1812 00d2 9968     	 ldr r1,[r3,#8]
 1813 00d4 FB6A     	 ldr r3,[r7,#44]
 1814 00d6 DB08     	 lsrs r3,r3,#3
 1815 00d8 9A00     	 lsls r2,r3,#2
 1816 00da 0A44     	 add r2,r2,r1
 1817 00dc F968     	 ldr r1,[r7,#12]
 1818 00de 8968     	 ldr r1,[r1,#8]
 1819 00e0 9B00     	 lsls r3,r3,#2
 1820 00e2 0B44     	 add r3,r3,r1
 1821 00e4 1968     	 ldr r1,[r3]
 1822 00e6 3B6A     	 ldr r3,[r7,#32]
 1823 00e8 F86A     	 ldr r0,[r7,#44]
 1824 00ea 00F00700 	 and r0,r0,#7
 1825 00ee 8000     	 lsls r0,r0,#2
 1826 00f0 8340     	 lsls r3,r3,r0
 1827 00f2 0B43     	 orrs r3,r3,r1
 1828 00f4 1360     	 str r3,[r2]
 484:C:/Users/Yushev/git/wpcqi-optiga-trust-charge/optiga/externals/mbedtls/library\bignum.c ****         {
 1829              	 .loc 1 484 0 discriminator 2
 1830 00f6 3B6B     	 ldr r3,[r7,#48]
 1831 00f8 013B     	 subs r3,r3,#1
 1832 00fa 3B63     	 str r3,[r7,#48]
 1833 00fc FB6A     	 ldr r3,[r7,#44]
 1834 00fe 0133     	 adds r3,r3,#1
 1835 0100 FB62     	 str r3,[r7,#44]
 1836              	.L104:
 484:C:/Users/Yushev/git/wpcqi-optiga-trust-charge/optiga/externals/mbedtls/library\bignum.c ****         {
 1837              	 .loc 1 484 0 is_stmt 0 discriminator 1
 1838 0102 3B6B     	 ldr r3,[r7,#48]
 1839 0104 002B     	 cmp r3,#0
 1840 0106 C2D1     	 bne .L108
 1841 0108 5BE0     	 b .L102
 1842              	.L99:
 494:C:/Users/Yushev/git/wpcqi-optiga-trust-charge/optiga/externals/mbedtls/library\bignum.c ****         }
 495:C:/Users/Yushev/git/wpcqi-optiga-trust-charge/optiga/externals/mbedtls/library\bignum.c ****     }
 496:C:/Users/Yushev/git/wpcqi-optiga-trust-charge/optiga/externals/mbedtls/library\bignum.c ****     else
 497:C:/Users/Yushev/git/wpcqi-optiga-trust-charge/optiga/externals/mbedtls/library\bignum.c ****     {
 498:C:/Users/Yushev/git/wpcqi-optiga-trust-charge/optiga/externals/mbedtls/library\bignum.c ****         MBEDTLS_MPI_CHK( mbedtls_mpi_lset( X, 0 ) );
 1843              	 .loc 1 498 0 is_stmt 1
 1844 010a F868     	 ldr r0,[r7,#12]
 1845 010c 0021     	 movs r1,#0
 1846 010e FFF7FEFF 	 bl mbedtls_mpi_lset
 1847 0112 7863     	 str r0,[r7,#52]
 1848 0114 7B6B     	 ldr r3,[r7,#52]
 1849 0116 002B     	 cmp r3,#0
 1850 0118 00D0     	 beq .L109
 1851 011a 52E0     	 b .L102
 1852              	.L109:
 499:C:/Users/Yushev/git/wpcqi-optiga-trust-charge/optiga/externals/mbedtls/library\bignum.c **** 
 500:C:/Users/Yushev/git/wpcqi-optiga-trust-charge/optiga/externals/mbedtls/library\bignum.c ****         for( i = 0; i < slen; i++ )
 1853              	 .loc 1 500 0
 1854 011c 0023     	 movs r3,#0
 1855 011e 3B63     	 str r3,[r7,#48]
 1856 0120 4BE0     	 b .L110
 1857              	.L116:
 501:C:/Users/Yushev/git/wpcqi-optiga-trust-charge/optiga/externals/mbedtls/library\bignum.c ****         {
 502:C:/Users/Yushev/git/wpcqi-optiga-trust-charge/optiga/externals/mbedtls/library\bignum.c ****             if( i == 0 && s[i] == '-' )
 1858              	 .loc 1 502 0
 1859 0122 3B6B     	 ldr r3,[r7,#48]
 1860 0124 002B     	 cmp r3,#0
 1861 0126 0AD1     	 bne .L111
 1862              	 .loc 1 502 0 is_stmt 0 discriminator 1
 1863 0128 7A68     	 ldr r2,[r7,#4]
 1864 012a 3B6B     	 ldr r3,[r7,#48]
 1865 012c 1344     	 add r3,r3,r2
 1866 012e 1B78     	 ldrb r3,[r3]
 1867 0130 2D2B     	 cmp r3,#45
 1868 0132 04D1     	 bne .L111
 503:C:/Users/Yushev/git/wpcqi-optiga-trust-charge/optiga/externals/mbedtls/library\bignum.c ****             {
 504:C:/Users/Yushev/git/wpcqi-optiga-trust-charge/optiga/externals/mbedtls/library\bignum.c ****                 X->s = -1;
 1869              	 .loc 1 504 0 is_stmt 1
 1870 0134 FB68     	 ldr r3,[r7,#12]
 1871 0136 4FF0FF32 	 mov r2,#-1
 1872 013a 1A60     	 str r2,[r3]
 505:C:/Users/Yushev/git/wpcqi-optiga-trust-charge/optiga/externals/mbedtls/library\bignum.c ****                 continue;
 1873              	 .loc 1 505 0
 1874 013c 3AE0     	 b .L112
 1875              	.L111:
 506:C:/Users/Yushev/git/wpcqi-optiga-trust-charge/optiga/externals/mbedtls/library\bignum.c ****             }
 507:C:/Users/Yushev/git/wpcqi-optiga-trust-charge/optiga/externals/mbedtls/library\bignum.c **** 
 508:C:/Users/Yushev/git/wpcqi-optiga-trust-charge/optiga/externals/mbedtls/library\bignum.c ****             MBEDTLS_MPI_CHK( mpi_get_digit( &d, radix, s[i] ) );
 1876              	 .loc 1 508 0
 1877 013e 7A68     	 ldr r2,[r7,#4]
 1878 0140 3B6B     	 ldr r3,[r7,#48]
 1879 0142 1344     	 add r3,r3,r2
 1880 0144 1B78     	 ldrb r3,[r3]
 1881 0146 07F12002 	 add r2,r7,#32
 1882 014a 1046     	 mov r0,r2
 1883 014c B968     	 ldr r1,[r7,#8]
 1884 014e 1A46     	 mov r2,r3
 1885 0150 FFF7FEFF 	 bl mpi_get_digit
 1886 0154 7863     	 str r0,[r7,#52]
 1887 0156 7B6B     	 ldr r3,[r7,#52]
 1888 0158 002B     	 cmp r3,#0
 1889 015a 00D0     	 beq .L113
 1890 015c 31E0     	 b .L102
 1891              	.L113:
 509:C:/Users/Yushev/git/wpcqi-optiga-trust-charge/optiga/externals/mbedtls/library\bignum.c ****             MBEDTLS_MPI_CHK( mbedtls_mpi_mul_int( &T, X, radix ) );
 1892              	 .loc 1 509 0
 1893 015e BB68     	 ldr r3,[r7,#8]
 1894 0160 07F11402 	 add r2,r7,#20
 1895 0164 1046     	 mov r0,r2
 1896 0166 F968     	 ldr r1,[r7,#12]
 1897 0168 1A46     	 mov r2,r3
 1898 016a FFF7FEFF 	 bl mbedtls_mpi_mul_int
 1899 016e 7863     	 str r0,[r7,#52]
 1900 0170 7B6B     	 ldr r3,[r7,#52]
 1901 0172 002B     	 cmp r3,#0
 1902 0174 00D0     	 beq .L114
 1903 0176 24E0     	 b .L102
 1904              	.L114:
 510:C:/Users/Yushev/git/wpcqi-optiga-trust-charge/optiga/externals/mbedtls/library\bignum.c **** 
 511:C:/Users/Yushev/git/wpcqi-optiga-trust-charge/optiga/externals/mbedtls/library\bignum.c ****             if( X->s == 1 )
 1905              	 .loc 1 511 0
 1906 0178 FB68     	 ldr r3,[r7,#12]
 1907 017a 1B68     	 ldr r3,[r3]
 1908 017c 012B     	 cmp r3,#1
 1909 017e 0CD1     	 bne .L115
 512:C:/Users/Yushev/git/wpcqi-optiga-trust-charge/optiga/externals/mbedtls/library\bignum.c ****             {
 513:C:/Users/Yushev/git/wpcqi-optiga-trust-charge/optiga/externals/mbedtls/library\bignum.c ****                 MBEDTLS_MPI_CHK( mbedtls_mpi_add_int( X, &T, d ) );
 1910              	 .loc 1 513 0
 1911 0180 3B6A     	 ldr r3,[r7,#32]
 1912 0182 1A46     	 mov r2,r3
 1913 0184 07F11403 	 add r3,r7,#20
 1914 0188 F868     	 ldr r0,[r7,#12]
 1915 018a 1946     	 mov r1,r3
 1916 018c FFF7FEFF 	 bl mbedtls_mpi_add_int
 1917 0190 7863     	 str r0,[r7,#52]
 1918 0192 7B6B     	 ldr r3,[r7,#52]
 1919 0194 002B     	 cmp r3,#0
 1920 0196 0DD0     	 beq .L112
 1921 0198 13E0     	 b .L102
 1922              	.L115:
 514:C:/Users/Yushev/git/wpcqi-optiga-trust-charge/optiga/externals/mbedtls/library\bignum.c ****             }
 515:C:/Users/Yushev/git/wpcqi-optiga-trust-charge/optiga/externals/mbedtls/library\bignum.c ****             else
 516:C:/Users/Yushev/git/wpcqi-optiga-trust-charge/optiga/externals/mbedtls/library\bignum.c ****             {
 517:C:/Users/Yushev/git/wpcqi-optiga-trust-charge/optiga/externals/mbedtls/library\bignum.c ****                 MBEDTLS_MPI_CHK( mbedtls_mpi_sub_int( X, &T, d ) );
 1923              	 .loc 1 517 0
 1924 019a 3B6A     	 ldr r3,[r7,#32]
 1925 019c 1A46     	 mov r2,r3
 1926 019e 07F11403 	 add r3,r7,#20
 1927 01a2 F868     	 ldr r0,[r7,#12]
 1928 01a4 1946     	 mov r1,r3
 1929 01a6 FFF7FEFF 	 bl mbedtls_mpi_sub_int
 1930 01aa 7863     	 str r0,[r7,#52]
 1931 01ac 7B6B     	 ldr r3,[r7,#52]
 1932 01ae 002B     	 cmp r3,#0
 1933 01b0 00D0     	 beq .L112
 1934 01b2 06E0     	 b .L102
 1935              	.L112:
 500:C:/Users/Yushev/git/wpcqi-optiga-trust-charge/optiga/externals/mbedtls/library\bignum.c ****         {
 1936              	 .loc 1 500 0 discriminator 2
 1937 01b4 3B6B     	 ldr r3,[r7,#48]
 1938 01b6 0133     	 adds r3,r3,#1
 1939 01b8 3B63     	 str r3,[r7,#48]
 1940              	.L110:
 500:C:/Users/Yushev/git/wpcqi-optiga-trust-charge/optiga/externals/mbedtls/library\bignum.c ****         {
 1941              	 .loc 1 500 0 is_stmt 0 discriminator 1
 1942 01ba 3A6B     	 ldr r2,[r7,#48]
 1943 01bc BB6A     	 ldr r3,[r7,#40]
 1944 01be 9A42     	 cmp r2,r3
 1945 01c0 AFD3     	 bcc .L116
 1946              	.L102:
 518:C:/Users/Yushev/git/wpcqi-optiga-trust-charge/optiga/externals/mbedtls/library\bignum.c ****             }
 519:C:/Users/Yushev/git/wpcqi-optiga-trust-charge/optiga/externals/mbedtls/library\bignum.c ****         }
 520:C:/Users/Yushev/git/wpcqi-optiga-trust-charge/optiga/externals/mbedtls/library\bignum.c ****     }
 521:C:/Users/Yushev/git/wpcqi-optiga-trust-charge/optiga/externals/mbedtls/library\bignum.c **** 
 522:C:/Users/Yushev/git/wpcqi-optiga-trust-charge/optiga/externals/mbedtls/library\bignum.c **** cleanup:
 523:C:/Users/Yushev/git/wpcqi-optiga-trust-charge/optiga/externals/mbedtls/library\bignum.c **** 
 524:C:/Users/Yushev/git/wpcqi-optiga-trust-charge/optiga/externals/mbedtls/library\bignum.c ****     mbedtls_mpi_free( &T );
 1947              	 .loc 1 524 0 is_stmt 1
 1948 01c2 07F11403 	 add r3,r7,#20
 1949 01c6 1846     	 mov r0,r3
 1950 01c8 FFF7FEFF 	 bl mbedtls_mpi_free
 525:C:/Users/Yushev/git/wpcqi-optiga-trust-charge/optiga/externals/mbedtls/library\bignum.c **** 
 526:C:/Users/Yushev/git/wpcqi-optiga-trust-charge/optiga/externals/mbedtls/library\bignum.c ****     return( ret );
 1951              	 .loc 1 526 0
 1952 01cc 7B6B     	 ldr r3,[r7,#52]
 1953              	.L117:
 527:C:/Users/Yushev/git/wpcqi-optiga-trust-charge/optiga/externals/mbedtls/library\bignum.c **** }
 1954              	 .loc 1 527 0 discriminator 1
 1955 01ce 1846     	 mov r0,r3
 1956 01d0 3837     	 adds r7,r7,#56
 1957              	.LCFI93:
 1958              	 .cfi_def_cfa_offset 8
 1959 01d2 BD46     	 mov sp,r7
 1960              	.LCFI94:
 1961              	 .cfi_def_cfa_register 13
 1962              	 
 1963 01d4 80BD     	 pop {r7,pc}
 1964              	 .cfi_endproc
 1965              	.LFE17:
 1967              	 .section .text.mpi_write_hlp,"ax",%progbits
 1968              	 .align 2
 1969              	 .thumb
 1970              	 .thumb_func
 1972              	mpi_write_hlp:
 1973              	.LFB18:
 528:C:/Users/Yushev/git/wpcqi-optiga-trust-charge/optiga/externals/mbedtls/library\bignum.c **** 
 529:C:/Users/Yushev/git/wpcqi-optiga-trust-charge/optiga/externals/mbedtls/library\bignum.c **** /*
 530:C:/Users/Yushev/git/wpcqi-optiga-trust-charge/optiga/externals/mbedtls/library\bignum.c ****  * Helper to write the digits high-order first
 531:C:/Users/Yushev/git/wpcqi-optiga-trust-charge/optiga/externals/mbedtls/library\bignum.c ****  */
 532:C:/Users/Yushev/git/wpcqi-optiga-trust-charge/optiga/externals/mbedtls/library\bignum.c **** static int mpi_write_hlp( mbedtls_mpi *X, int radix, char **p )
 533:C:/Users/Yushev/git/wpcqi-optiga-trust-charge/optiga/externals/mbedtls/library\bignum.c **** {
 1974              	 .loc 1 533 0
 1975              	 .cfi_startproc
 1976              	 
 1977              	 
 1978 0000 80B5     	 push {r7,lr}
 1979              	.LCFI95:
 1980              	 .cfi_def_cfa_offset 8
 1981              	 .cfi_offset 7,-8
 1982              	 .cfi_offset 14,-4
 1983 0002 86B0     	 sub sp,sp,#24
 1984              	.LCFI96:
 1985              	 .cfi_def_cfa_offset 32
 1986 0004 00AF     	 add r7,sp,#0
 1987              	.LCFI97:
 1988              	 .cfi_def_cfa_register 7
 1989 0006 F860     	 str r0,[r7,#12]
 1990 0008 B960     	 str r1,[r7,#8]
 1991 000a 7A60     	 str r2,[r7,#4]
 534:C:/Users/Yushev/git/wpcqi-optiga-trust-charge/optiga/externals/mbedtls/library\bignum.c ****     int ret;
 535:C:/Users/Yushev/git/wpcqi-optiga-trust-charge/optiga/externals/mbedtls/library\bignum.c ****     mbedtls_mpi_uint r;
 536:C:/Users/Yushev/git/wpcqi-optiga-trust-charge/optiga/externals/mbedtls/library\bignum.c **** 
 537:C:/Users/Yushev/git/wpcqi-optiga-trust-charge/optiga/externals/mbedtls/library\bignum.c ****     if( radix < 2 || radix > 16 )
 1992              	 .loc 1 537 0
 1993 000c BB68     	 ldr r3,[r7,#8]
 1994 000e 012B     	 cmp r3,#1
 1995 0010 02DD     	 ble .L119
 1996              	 .loc 1 537 0 is_stmt 0 discriminator 1
 1997 0012 BB68     	 ldr r3,[r7,#8]
 1998 0014 102B     	 cmp r3,#16
 1999 0016 02DD     	 ble .L120
 2000              	.L119:
 538:C:/Users/Yushev/git/wpcqi-optiga-trust-charge/optiga/externals/mbedtls/library\bignum.c ****         return( MBEDTLS_ERR_MPI_BAD_INPUT_DATA );
 2001              	 .loc 1 538 0 is_stmt 1
 2002 0018 6FF00303 	 mvn r3,#3
 2003 001c 40E0     	 b .L127
 2004              	.L120:
 539:C:/Users/Yushev/git/wpcqi-optiga-trust-charge/optiga/externals/mbedtls/library\bignum.c **** 
 540:C:/Users/Yushev/git/wpcqi-optiga-trust-charge/optiga/externals/mbedtls/library\bignum.c ****     MBEDTLS_MPI_CHK( mbedtls_mpi_mod_int( &r, X, radix ) );
 2005              	 .loc 1 540 0
 2006 001e 07F11003 	 add r3,r7,#16
 2007 0022 1846     	 mov r0,r3
 2008 0024 F968     	 ldr r1,[r7,#12]
 2009 0026 BA68     	 ldr r2,[r7,#8]
 2010 0028 FFF7FEFF 	 bl mbedtls_mpi_mod_int
 2011 002c 7861     	 str r0,[r7,#20]
 2012 002e 7B69     	 ldr r3,[r7,#20]
 2013 0030 002B     	 cmp r3,#0
 2014 0032 00D0     	 beq .L122
 2015 0034 33E0     	 b .L123
 2016              	.L122:
 541:C:/Users/Yushev/git/wpcqi-optiga-trust-charge/optiga/externals/mbedtls/library\bignum.c ****     MBEDTLS_MPI_CHK( mbedtls_mpi_div_int( X, NULL, X, radix ) );
 2017              	 .loc 1 541 0
 2018 0036 F868     	 ldr r0,[r7,#12]
 2019 0038 0021     	 movs r1,#0
 2020 003a FA68     	 ldr r2,[r7,#12]
 2021 003c BB68     	 ldr r3,[r7,#8]
 2022 003e FFF7FEFF 	 bl mbedtls_mpi_div_int
 2023 0042 7861     	 str r0,[r7,#20]
 2024 0044 7B69     	 ldr r3,[r7,#20]
 2025 0046 002B     	 cmp r3,#0
 2026 0048 00D0     	 beq .L124
 2027 004a 28E0     	 b .L123
 2028              	.L124:
 542:C:/Users/Yushev/git/wpcqi-optiga-trust-charge/optiga/externals/mbedtls/library\bignum.c **** 
 543:C:/Users/Yushev/git/wpcqi-optiga-trust-charge/optiga/externals/mbedtls/library\bignum.c ****     if( mbedtls_mpi_cmp_int( X, 0 ) != 0 )
 2029              	 .loc 1 543 0
 2030 004c F868     	 ldr r0,[r7,#12]
 2031 004e 0021     	 movs r1,#0
 2032 0050 FFF7FEFF 	 bl mbedtls_mpi_cmp_int
 2033 0054 0346     	 mov r3,r0
 2034 0056 002B     	 cmp r3,#0
 2035 0058 09D0     	 beq .L125
 544:C:/Users/Yushev/git/wpcqi-optiga-trust-charge/optiga/externals/mbedtls/library\bignum.c ****         MBEDTLS_MPI_CHK( mpi_write_hlp( X, radix, p ) );
 2036              	 .loc 1 544 0
 2037 005a F868     	 ldr r0,[r7,#12]
 2038 005c B968     	 ldr r1,[r7,#8]
 2039 005e 7A68     	 ldr r2,[r7,#4]
 2040 0060 FFF7CEFF 	 bl mpi_write_hlp
 2041 0064 7861     	 str r0,[r7,#20]
 2042 0066 7B69     	 ldr r3,[r7,#20]
 2043 0068 002B     	 cmp r3,#0
 2044 006a 00D0     	 beq .L125
 2045 006c 17E0     	 b .L123
 2046              	.L125:
 545:C:/Users/Yushev/git/wpcqi-optiga-trust-charge/optiga/externals/mbedtls/library\bignum.c **** 
 546:C:/Users/Yushev/git/wpcqi-optiga-trust-charge/optiga/externals/mbedtls/library\bignum.c ****     if( r < 10 )
 2047              	 .loc 1 546 0
 2048 006e 3B69     	 ldr r3,[r7,#16]
 2049 0070 092B     	 cmp r3,#9
 2050 0072 0AD8     	 bhi .L126
 547:C:/Users/Yushev/git/wpcqi-optiga-trust-charge/optiga/externals/mbedtls/library\bignum.c ****         *(*p)++ = (char)( r + 0x30 );
 2051              	 .loc 1 547 0
 2052 0074 7B68     	 ldr r3,[r7,#4]
 2053 0076 1B68     	 ldr r3,[r3]
 2054 0078 591C     	 adds r1,r3,#1
 2055 007a 7A68     	 ldr r2,[r7,#4]
 2056 007c 1160     	 str r1,[r2]
 2057 007e 3A69     	 ldr r2,[r7,#16]
 2058 0080 D2B2     	 uxtb r2,r2
 2059 0082 3032     	 adds r2,r2,#48
 2060 0084 D2B2     	 uxtb r2,r2
 2061 0086 1A70     	 strb r2,[r3]
 2062 0088 09E0     	 b .L123
 2063              	.L126:
 548:C:/Users/Yushev/git/wpcqi-optiga-trust-charge/optiga/externals/mbedtls/library\bignum.c ****     else
 549:C:/Users/Yushev/git/wpcqi-optiga-trust-charge/optiga/externals/mbedtls/library\bignum.c ****         *(*p)++ = (char)( r + 0x37 );
 2064              	 .loc 1 549 0
 2065 008a 7B68     	 ldr r3,[r7,#4]
 2066 008c 1B68     	 ldr r3,[r3]
 2067 008e 591C     	 adds r1,r3,#1
 2068 0090 7A68     	 ldr r2,[r7,#4]
 2069 0092 1160     	 str r1,[r2]
 2070 0094 3A69     	 ldr r2,[r7,#16]
 2071 0096 D2B2     	 uxtb r2,r2
 2072 0098 3732     	 adds r2,r2,#55
 2073 009a D2B2     	 uxtb r2,r2
 2074 009c 1A70     	 strb r2,[r3]
 2075              	.L123:
 550:C:/Users/Yushev/git/wpcqi-optiga-trust-charge/optiga/externals/mbedtls/library\bignum.c **** 
 551:C:/Users/Yushev/git/wpcqi-optiga-trust-charge/optiga/externals/mbedtls/library\bignum.c **** cleanup:
 552:C:/Users/Yushev/git/wpcqi-optiga-trust-charge/optiga/externals/mbedtls/library\bignum.c **** 
 553:C:/Users/Yushev/git/wpcqi-optiga-trust-charge/optiga/externals/mbedtls/library\bignum.c ****     return( ret );
 2076              	 .loc 1 553 0
 2077 009e 7B69     	 ldr r3,[r7,#20]
 2078              	.L127:
 554:C:/Users/Yushev/git/wpcqi-optiga-trust-charge/optiga/externals/mbedtls/library\bignum.c **** }
 2079              	 .loc 1 554 0 discriminator 1
 2080 00a0 1846     	 mov r0,r3
 2081 00a2 1837     	 adds r7,r7,#24
 2082              	.LCFI98:
 2083              	 .cfi_def_cfa_offset 8
 2084 00a4 BD46     	 mov sp,r7
 2085              	.LCFI99:
 2086              	 .cfi_def_cfa_register 13
 2087              	 
 2088 00a6 80BD     	 pop {r7,pc}
 2089              	 .cfi_endproc
 2090              	.LFE18:
 2092              	 .section .rodata
 2093              	 .align 2
 2094              	.LC0:
 2095 0000 30313233 	 .ascii "0123456789ABCDEF\000"
 2095      34353637 
 2095      38394142 
 2095      43444546 
 2095      00
 2096 0011 000000   	 .section .text.mbedtls_mpi_write_string,"ax",%progbits
 2097              	 .align 2
 2098              	 .global mbedtls_mpi_write_string
 2099              	 .thumb
 2100              	 .thumb_func
 2102              	mbedtls_mpi_write_string:
 2103              	.LFB19:
 555:C:/Users/Yushev/git/wpcqi-optiga-trust-charge/optiga/externals/mbedtls/library\bignum.c **** 
 556:C:/Users/Yushev/git/wpcqi-optiga-trust-charge/optiga/externals/mbedtls/library\bignum.c **** /*
 557:C:/Users/Yushev/git/wpcqi-optiga-trust-charge/optiga/externals/mbedtls/library\bignum.c ****  * Export into an ASCII string
 558:C:/Users/Yushev/git/wpcqi-optiga-trust-charge/optiga/externals/mbedtls/library\bignum.c ****  */
 559:C:/Users/Yushev/git/wpcqi-optiga-trust-charge/optiga/externals/mbedtls/library\bignum.c **** int mbedtls_mpi_write_string( const mbedtls_mpi *X, int radix,
 560:C:/Users/Yushev/git/wpcqi-optiga-trust-charge/optiga/externals/mbedtls/library\bignum.c ****                               char *buf, size_t buflen, size_t *olen )
 561:C:/Users/Yushev/git/wpcqi-optiga-trust-charge/optiga/externals/mbedtls/library\bignum.c **** {
 2104              	 .loc 1 561 0
 2105              	 .cfi_startproc
 2106              	 
 2107              	 
 2108 0000 80B5     	 push {r7,lr}
 2109              	.LCFI100:
 2110              	 .cfi_def_cfa_offset 8
 2111              	 .cfi_offset 7,-8
 2112              	 .cfi_offset 14,-4
 2113 0002 8EB0     	 sub sp,sp,#56
 2114              	.LCFI101:
 2115              	 .cfi_def_cfa_offset 64
 2116 0004 00AF     	 add r7,sp,#0
 2117              	.LCFI102:
 2118              	 .cfi_def_cfa_register 7
 2119 0006 F860     	 str r0,[r7,#12]
 2120 0008 B960     	 str r1,[r7,#8]
 2121 000a 7A60     	 str r2,[r7,#4]
 2122 000c 3B60     	 str r3,[r7]
 562:C:/Users/Yushev/git/wpcqi-optiga-trust-charge/optiga/externals/mbedtls/library\bignum.c ****     int ret = 0;
 2123              	 .loc 1 562 0
 2124 000e 0023     	 movs r3,#0
 2125 0010 7B63     	 str r3,[r7,#52]
 563:C:/Users/Yushev/git/wpcqi-optiga-trust-charge/optiga/externals/mbedtls/library\bignum.c ****     size_t n;
 564:C:/Users/Yushev/git/wpcqi-optiga-trust-charge/optiga/externals/mbedtls/library\bignum.c ****     char *p;
 565:C:/Users/Yushev/git/wpcqi-optiga-trust-charge/optiga/externals/mbedtls/library\bignum.c ****     mbedtls_mpi T;
 566:C:/Users/Yushev/git/wpcqi-optiga-trust-charge/optiga/externals/mbedtls/library\bignum.c ****     MPI_VALIDATE_RET( X    != NULL );
 567:C:/Users/Yushev/git/wpcqi-optiga-trust-charge/optiga/externals/mbedtls/library\bignum.c ****     MPI_VALIDATE_RET( olen != NULL );
 568:C:/Users/Yushev/git/wpcqi-optiga-trust-charge/optiga/externals/mbedtls/library\bignum.c ****     MPI_VALIDATE_RET( buflen == 0 || buf != NULL );
 569:C:/Users/Yushev/git/wpcqi-optiga-trust-charge/optiga/externals/mbedtls/library\bignum.c **** 
 570:C:/Users/Yushev/git/wpcqi-optiga-trust-charge/optiga/externals/mbedtls/library\bignum.c ****     if( radix < 2 || radix > 16 )
 2126              	 .loc 1 570 0
 2127 0012 BB68     	 ldr r3,[r7,#8]
 2128 0014 012B     	 cmp r3,#1
 2129 0016 02DD     	 ble .L129
 2130              	 .loc 1 570 0 is_stmt 0 discriminator 1
 2131 0018 BB68     	 ldr r3,[r7,#8]
 2132 001a 102B     	 cmp r3,#16
 2133 001c 02DD     	 ble .L130
 2134              	.L129:
 571:C:/Users/Yushev/git/wpcqi-optiga-trust-charge/optiga/externals/mbedtls/library\bignum.c ****         return( MBEDTLS_ERR_MPI_BAD_INPUT_DATA );
 2135              	 .loc 1 571 0 is_stmt 1
 2136 001e 6FF00303 	 mvn r3,#3
 2137 0022 B5E0     	 b .L149
 2138              	.L130:
 572:C:/Users/Yushev/git/wpcqi-optiga-trust-charge/optiga/externals/mbedtls/library\bignum.c **** 
 573:C:/Users/Yushev/git/wpcqi-optiga-trust-charge/optiga/externals/mbedtls/library\bignum.c ****     n = mbedtls_mpi_bitlen( X );
 2139              	 .loc 1 573 0
 2140 0024 F868     	 ldr r0,[r7,#12]
 2141 0026 FFF7FEFF 	 bl mbedtls_mpi_bitlen
 2142 002a 3863     	 str r0,[r7,#48]
 574:C:/Users/Yushev/git/wpcqi-optiga-trust-charge/optiga/externals/mbedtls/library\bignum.c ****     if( radix >=  4 ) n >>= 1;
 2143              	 .loc 1 574 0
 2144 002c BB68     	 ldr r3,[r7,#8]
 2145 002e 032B     	 cmp r3,#3
 2146 0030 02DD     	 ble .L132
 2147              	 .loc 1 574 0 is_stmt 0 discriminator 1
 2148 0032 3B6B     	 ldr r3,[r7,#48]
 2149 0034 5B08     	 lsrs r3,r3,#1
 2150 0036 3B63     	 str r3,[r7,#48]
 2151              	.L132:
 575:C:/Users/Yushev/git/wpcqi-optiga-trust-charge/optiga/externals/mbedtls/library\bignum.c ****     if( radix >= 16 ) n >>= 1;
 2152              	 .loc 1 575 0 is_stmt 1
 2153 0038 BB68     	 ldr r3,[r7,#8]
 2154 003a 0F2B     	 cmp r3,#15
 2155 003c 02DD     	 ble .L133
 2156              	 .loc 1 575 0 is_stmt 0 discriminator 1
 2157 003e 3B6B     	 ldr r3,[r7,#48]
 2158 0040 5B08     	 lsrs r3,r3,#1
 2159 0042 3B63     	 str r3,[r7,#48]
 2160              	.L133:
 576:C:/Users/Yushev/git/wpcqi-optiga-trust-charge/optiga/externals/mbedtls/library\bignum.c ****     /*
 577:C:/Users/Yushev/git/wpcqi-optiga-trust-charge/optiga/externals/mbedtls/library\bignum.c ****      * Round up the buffer length to an even value to ensure that there is
 578:C:/Users/Yushev/git/wpcqi-optiga-trust-charge/optiga/externals/mbedtls/library\bignum.c ****      * enough room for hexadecimal values that can be represented in an odd
 579:C:/Users/Yushev/git/wpcqi-optiga-trust-charge/optiga/externals/mbedtls/library\bignum.c ****      * number of digits.
 580:C:/Users/Yushev/git/wpcqi-optiga-trust-charge/optiga/externals/mbedtls/library\bignum.c ****      */
 581:C:/Users/Yushev/git/wpcqi-optiga-trust-charge/optiga/externals/mbedtls/library\bignum.c ****     n += 3 + ( ( n + 1 ) & 1 );
 2161              	 .loc 1 581 0 is_stmt 1
 2162 0044 3B6B     	 ldr r3,[r7,#48]
 2163 0046 0133     	 adds r3,r3,#1
 2164 0048 03F00102 	 and r2,r3,#1
 2165 004c 3B6B     	 ldr r3,[r7,#48]
 2166 004e 1344     	 add r3,r3,r2
 2167 0050 0333     	 adds r3,r3,#3
 2168 0052 3B63     	 str r3,[r7,#48]
 582:C:/Users/Yushev/git/wpcqi-optiga-trust-charge/optiga/externals/mbedtls/library\bignum.c **** 
 583:C:/Users/Yushev/git/wpcqi-optiga-trust-charge/optiga/externals/mbedtls/library\bignum.c ****     if( buflen < n )
 2169              	 .loc 1 583 0
 2170 0054 3A68     	 ldr r2,[r7]
 2171 0056 3B6B     	 ldr r3,[r7,#48]
 2172 0058 9A42     	 cmp r2,r3
 2173 005a 05D2     	 bcs .L134
 584:C:/Users/Yushev/git/wpcqi-optiga-trust-charge/optiga/externals/mbedtls/library\bignum.c ****     {
 585:C:/Users/Yushev/git/wpcqi-optiga-trust-charge/optiga/externals/mbedtls/library\bignum.c ****         *olen = n;
 2174              	 .loc 1 585 0
 2175 005c 3B6C     	 ldr r3,[r7,#64]
 2176 005e 3A6B     	 ldr r2,[r7,#48]
 2177 0060 1A60     	 str r2,[r3]
 586:C:/Users/Yushev/git/wpcqi-optiga-trust-charge/optiga/externals/mbedtls/library\bignum.c ****         return( MBEDTLS_ERR_MPI_BUFFER_TOO_SMALL );
 2178              	 .loc 1 586 0
 2179 0062 6FF00703 	 mvn r3,#7
 2180 0066 93E0     	 b .L149
 2181              	.L134:
 587:C:/Users/Yushev/git/wpcqi-optiga-trust-charge/optiga/externals/mbedtls/library\bignum.c ****     }
 588:C:/Users/Yushev/git/wpcqi-optiga-trust-charge/optiga/externals/mbedtls/library\bignum.c **** 
 589:C:/Users/Yushev/git/wpcqi-optiga-trust-charge/optiga/externals/mbedtls/library\bignum.c ****     p = buf;
 2182              	 .loc 1 589 0
 2183 0068 7B68     	 ldr r3,[r7,#4]
 2184 006a FB61     	 str r3,[r7,#28]
 590:C:/Users/Yushev/git/wpcqi-optiga-trust-charge/optiga/externals/mbedtls/library\bignum.c ****     mbedtls_mpi_init( &T );
 2185              	 .loc 1 590 0
 2186 006c 07F11003 	 add r3,r7,#16
 2187 0070 1846     	 mov r0,r3
 2188 0072 FFF7FEFF 	 bl mbedtls_mpi_init
 591:C:/Users/Yushev/git/wpcqi-optiga-trust-charge/optiga/externals/mbedtls/library\bignum.c **** 
 592:C:/Users/Yushev/git/wpcqi-optiga-trust-charge/optiga/externals/mbedtls/library\bignum.c ****     if( X->s == -1 )
 2189              	 .loc 1 592 0
 2190 0076 FB68     	 ldr r3,[r7,#12]
 2191 0078 1B68     	 ldr r3,[r3]
 2192 007a B3F1FF3F 	 cmp r3,#-1
 2193 007e 04D1     	 bne .L135
 593:C:/Users/Yushev/git/wpcqi-optiga-trust-charge/optiga/externals/mbedtls/library\bignum.c ****         *p++ = '-';
 2194              	 .loc 1 593 0
 2195 0080 FB69     	 ldr r3,[r7,#28]
 2196 0082 5A1C     	 adds r2,r3,#1
 2197 0084 FA61     	 str r2,[r7,#28]
 2198 0086 2D22     	 movs r2,#45
 2199 0088 1A70     	 strb r2,[r3]
 2200              	.L135:
 594:C:/Users/Yushev/git/wpcqi-optiga-trust-charge/optiga/externals/mbedtls/library\bignum.c **** 
 595:C:/Users/Yushev/git/wpcqi-optiga-trust-charge/optiga/externals/mbedtls/library\bignum.c ****     if( radix == 16 )
 2201              	 .loc 1 595 0
 2202 008a BB68     	 ldr r3,[r7,#8]
 2203 008c 102B     	 cmp r3,#16
 2204 008e 4ED1     	 bne .L136
 2205              	.LBB2:
 596:C:/Users/Yushev/git/wpcqi-optiga-trust-charge/optiga/externals/mbedtls/library\bignum.c ****     {
 597:C:/Users/Yushev/git/wpcqi-optiga-trust-charge/optiga/externals/mbedtls/library\bignum.c ****         int c;
 598:C:/Users/Yushev/git/wpcqi-optiga-trust-charge/optiga/externals/mbedtls/library\bignum.c ****         size_t i, j, k;
 599:C:/Users/Yushev/git/wpcqi-optiga-trust-charge/optiga/externals/mbedtls/library\bignum.c **** 
 600:C:/Users/Yushev/git/wpcqi-optiga-trust-charge/optiga/externals/mbedtls/library\bignum.c ****         for( i = X->n, k = 0; i > 0; i-- )
 2206              	 .loc 1 600 0
 2207 0090 FB68     	 ldr r3,[r7,#12]
 2208 0092 5B68     	 ldr r3,[r3,#4]
 2209 0094 FB62     	 str r3,[r7,#44]
 2210 0096 0023     	 movs r3,#0
 2211 0098 7B62     	 str r3,[r7,#36]
 2212 009a 44E0     	 b .L137
 2213              	.L144:
 601:C:/Users/Yushev/git/wpcqi-optiga-trust-charge/optiga/externals/mbedtls/library\bignum.c ****         {
 602:C:/Users/Yushev/git/wpcqi-optiga-trust-charge/optiga/externals/mbedtls/library\bignum.c ****             for( j = ciL; j > 0; j-- )
 2214              	 .loc 1 602 0
 2215 009c 0423     	 movs r3,#4
 2216 009e BB62     	 str r3,[r7,#40]
 2217 00a0 3BE0     	 b .L138
 2218              	.L143:
 603:C:/Users/Yushev/git/wpcqi-optiga-trust-charge/optiga/externals/mbedtls/library\bignum.c ****             {
 604:C:/Users/Yushev/git/wpcqi-optiga-trust-charge/optiga/externals/mbedtls/library\bignum.c ****                 c = ( X->p[i - 1] >> ( ( j - 1 ) << 3) ) & 0xFF;
 2219              	 .loc 1 604 0
 2220 00a2 FB68     	 ldr r3,[r7,#12]
 2221 00a4 9A68     	 ldr r2,[r3,#8]
 2222 00a6 FB6A     	 ldr r3,[r7,#44]
 2223 00a8 03F18043 	 add r3,r3,#1073741824
 2224 00ac 013B     	 subs r3,r3,#1
 2225 00ae 9B00     	 lsls r3,r3,#2
 2226 00b0 1344     	 add r3,r3,r2
 2227 00b2 1B68     	 ldr r3,[r3]
 2228 00b4 BA6A     	 ldr r2,[r7,#40]
 2229 00b6 013A     	 subs r2,r2,#1
 2230 00b8 D200     	 lsls r2,r2,#3
 2231 00ba D340     	 lsrs r3,r3,r2
 2232 00bc DBB2     	 uxtb r3,r3
 2233 00be 3B62     	 str r3,[r7,#32]
 605:C:/Users/Yushev/git/wpcqi-optiga-trust-charge/optiga/externals/mbedtls/library\bignum.c **** 
 606:C:/Users/Yushev/git/wpcqi-optiga-trust-charge/optiga/externals/mbedtls/library\bignum.c ****                 if( c == 0 && k == 0 && ( i + j ) != 2 )
 2234              	 .loc 1 606 0
 2235 00c0 3B6A     	 ldr r3,[r7,#32]
 2236 00c2 002B     	 cmp r3,#0
 2237 00c4 08D1     	 bne .L139
 2238              	 .loc 1 606 0 is_stmt 0 discriminator 1
 2239 00c6 7B6A     	 ldr r3,[r7,#36]
 2240 00c8 002B     	 cmp r3,#0
 2241 00ca 05D1     	 bne .L139
 2242              	 .loc 1 606 0 discriminator 2
 2243 00cc FA6A     	 ldr r2,[r7,#44]
 2244 00ce BB6A     	 ldr r3,[r7,#40]
 2245 00d0 1344     	 add r3,r3,r2
 2246 00d2 022B     	 cmp r3,#2
 2247 00d4 00D0     	 beq .L139
 607:C:/Users/Yushev/git/wpcqi-optiga-trust-charge/optiga/externals/mbedtls/library\bignum.c ****                     continue;
 2248              	 .loc 1 607 0 is_stmt 1
 2249 00d6 1DE0     	 b .L140
 2250              	.L139:
 608:C:/Users/Yushev/git/wpcqi-optiga-trust-charge/optiga/externals/mbedtls/library\bignum.c **** 
 609:C:/Users/Yushev/git/wpcqi-optiga-trust-charge/optiga/externals/mbedtls/library\bignum.c ****                 *(p++) = "0123456789ABCDEF" [c / 16];
 2251              	 .loc 1 609 0
 2252 00d8 FA69     	 ldr r2,[r7,#28]
 2253 00da 531C     	 adds r3,r2,#1
 2254 00dc FB61     	 str r3,[r7,#28]
 2255 00de 3B6A     	 ldr r3,[r7,#32]
 2256 00e0 002B     	 cmp r3,#0
 2257 00e2 00DA     	 bge .L141
 2258 00e4 0F33     	 adds r3,r3,#15
 2259              	.L141:
 2260 00e6 1B11     	 asrs r3,r3,#4
 2261 00e8 1946     	 mov r1,r3
 2262 00ea 2B4B     	 ldr r3,.L150
 2263 00ec 5B5C     	 ldrb r3,[r3,r1]
 2264 00ee 1370     	 strb r3,[r2]
 610:C:/Users/Yushev/git/wpcqi-optiga-trust-charge/optiga/externals/mbedtls/library\bignum.c ****                 *(p++) = "0123456789ABCDEF" [c % 16];
 2265              	 .loc 1 610 0
 2266 00f0 FA69     	 ldr r2,[r7,#28]
 2267 00f2 531C     	 adds r3,r2,#1
 2268 00f4 FB61     	 str r3,[r7,#28]
 2269 00f6 396A     	 ldr r1,[r7,#32]
 2270 00f8 284B     	 ldr r3,.L150+4
 2271 00fa 0B40     	 ands r3,r3,r1
 2272 00fc 002B     	 cmp r3,#0
 2273 00fe 03DA     	 bge .L142
 2274 0100 013B     	 subs r3,r3,#1
 2275 0102 63F00F03 	 orn r3,r3,#15
 2276 0106 0133     	 adds r3,r3,#1
 2277              	.L142:
 2278 0108 1946     	 mov r1,r3
 2279 010a 234B     	 ldr r3,.L150
 2280 010c 5B5C     	 ldrb r3,[r3,r1]
 2281 010e 1370     	 strb r3,[r2]
 611:C:/Users/Yushev/git/wpcqi-optiga-trust-charge/optiga/externals/mbedtls/library\bignum.c ****                 k = 1;
 2282              	 .loc 1 611 0
 2283 0110 0123     	 movs r3,#1
 2284 0112 7B62     	 str r3,[r7,#36]
 2285              	.L140:
 602:C:/Users/Yushev/git/wpcqi-optiga-trust-charge/optiga/externals/mbedtls/library\bignum.c ****             {
 2286              	 .loc 1 602 0 discriminator 2
 2287 0114 BB6A     	 ldr r3,[r7,#40]
 2288 0116 013B     	 subs r3,r3,#1
 2289 0118 BB62     	 str r3,[r7,#40]
 2290              	.L138:
 602:C:/Users/Yushev/git/wpcqi-optiga-trust-charge/optiga/externals/mbedtls/library\bignum.c ****             {
 2291              	 .loc 1 602 0 is_stmt 0 discriminator 1
 2292 011a BB6A     	 ldr r3,[r7,#40]
 2293 011c 002B     	 cmp r3,#0
 2294 011e C0D1     	 bne .L143
 600:C:/Users/Yushev/git/wpcqi-optiga-trust-charge/optiga/externals/mbedtls/library\bignum.c ****         {
 2295              	 .loc 1 600 0 is_stmt 1 discriminator 2
 2296 0120 FB6A     	 ldr r3,[r7,#44]
 2297 0122 013B     	 subs r3,r3,#1
 2298 0124 FB62     	 str r3,[r7,#44]
 2299              	.L137:
 600:C:/Users/Yushev/git/wpcqi-optiga-trust-charge/optiga/externals/mbedtls/library\bignum.c ****         {
 2300              	 .loc 1 600 0 is_stmt 0 discriminator 1
 2301 0126 FB6A     	 ldr r3,[r7,#44]
 2302 0128 002B     	 cmp r3,#0
 2303 012a B7D1     	 bne .L144
 2304              	.LBE2:
 2305 012c 1EE0     	 b .L145
 2306              	.L136:
 612:C:/Users/Yushev/git/wpcqi-optiga-trust-charge/optiga/externals/mbedtls/library\bignum.c ****             }
 613:C:/Users/Yushev/git/wpcqi-optiga-trust-charge/optiga/externals/mbedtls/library\bignum.c ****         }
 614:C:/Users/Yushev/git/wpcqi-optiga-trust-charge/optiga/externals/mbedtls/library\bignum.c ****     }
 615:C:/Users/Yushev/git/wpcqi-optiga-trust-charge/optiga/externals/mbedtls/library\bignum.c ****     else
 616:C:/Users/Yushev/git/wpcqi-optiga-trust-charge/optiga/externals/mbedtls/library\bignum.c ****     {
 617:C:/Users/Yushev/git/wpcqi-optiga-trust-charge/optiga/externals/mbedtls/library\bignum.c ****         MBEDTLS_MPI_CHK( mbedtls_mpi_copy( &T, X ) );
 2307              	 .loc 1 617 0 is_stmt 1
 2308 012e 07F11003 	 add r3,r7,#16
 2309 0132 1846     	 mov r0,r3
 2310 0134 F968     	 ldr r1,[r7,#12]
 2311 0136 FFF7FEFF 	 bl mbedtls_mpi_copy
 2312 013a 7863     	 str r0,[r7,#52]
 2313 013c 7B6B     	 ldr r3,[r7,#52]
 2314 013e 002B     	 cmp r3,#0
 2315 0140 00D0     	 beq .L146
 2316 0142 1FE0     	 b .L147
 2317              	.L146:
 618:C:/Users/Yushev/git/wpcqi-optiga-trust-charge/optiga/externals/mbedtls/library\bignum.c **** 
 619:C:/Users/Yushev/git/wpcqi-optiga-trust-charge/optiga/externals/mbedtls/library\bignum.c ****         if( T.s == -1 )
 2318              	 .loc 1 619 0
 2319 0144 3B69     	 ldr r3,[r7,#16]
 2320 0146 B3F1FF3F 	 cmp r3,#-1
 2321 014a 01D1     	 bne .L148
 620:C:/Users/Yushev/git/wpcqi-optiga-trust-charge/optiga/externals/mbedtls/library\bignum.c ****             T.s = 1;
 2322              	 .loc 1 620 0
 2323 014c 0123     	 movs r3,#1
 2324 014e 3B61     	 str r3,[r7,#16]
 2325              	.L148:
 621:C:/Users/Yushev/git/wpcqi-optiga-trust-charge/optiga/externals/mbedtls/library\bignum.c **** 
 622:C:/Users/Yushev/git/wpcqi-optiga-trust-charge/optiga/externals/mbedtls/library\bignum.c ****         MBEDTLS_MPI_CHK( mpi_write_hlp( &T, radix, &p ) );
 2326              	 .loc 1 622 0
 2327 0150 07F11002 	 add r2,r7,#16
 2328 0154 07F11C03 	 add r3,r7,#28
 2329 0158 1046     	 mov r0,r2
 2330 015a B968     	 ldr r1,[r7,#8]
 2331 015c 1A46     	 mov r2,r3
 2332 015e FFF7FEFF 	 bl mpi_write_hlp
 2333 0162 7863     	 str r0,[r7,#52]
 2334 0164 7B6B     	 ldr r3,[r7,#52]
 2335 0166 002B     	 cmp r3,#0
 2336 0168 00D0     	 beq .L145
 2337 016a 0BE0     	 b .L147
 2338              	.L145:
 623:C:/Users/Yushev/git/wpcqi-optiga-trust-charge/optiga/externals/mbedtls/library\bignum.c ****     }
 624:C:/Users/Yushev/git/wpcqi-optiga-trust-charge/optiga/externals/mbedtls/library\bignum.c **** 
 625:C:/Users/Yushev/git/wpcqi-optiga-trust-charge/optiga/externals/mbedtls/library\bignum.c ****     *p++ = '\0';
 2339              	 .loc 1 625 0
 2340 016c FB69     	 ldr r3,[r7,#28]
 2341 016e 5A1C     	 adds r2,r3,#1
 2342 0170 FA61     	 str r2,[r7,#28]
 2343 0172 0022     	 movs r2,#0
 2344 0174 1A70     	 strb r2,[r3]
 626:C:/Users/Yushev/git/wpcqi-optiga-trust-charge/optiga/externals/mbedtls/library\bignum.c ****     *olen = p - buf;
 2345              	 .loc 1 626 0
 2346 0176 FB69     	 ldr r3,[r7,#28]
 2347 0178 1A46     	 mov r2,r3
 2348 017a 7B68     	 ldr r3,[r7,#4]
 2349 017c D31A     	 subs r3,r2,r3
 2350 017e 1A46     	 mov r2,r3
 2351 0180 3B6C     	 ldr r3,[r7,#64]
 2352 0182 1A60     	 str r2,[r3]
 2353              	.L147:
 627:C:/Users/Yushev/git/wpcqi-optiga-trust-charge/optiga/externals/mbedtls/library\bignum.c **** 
 628:C:/Users/Yushev/git/wpcqi-optiga-trust-charge/optiga/externals/mbedtls/library\bignum.c **** cleanup:
 629:C:/Users/Yushev/git/wpcqi-optiga-trust-charge/optiga/externals/mbedtls/library\bignum.c **** 
 630:C:/Users/Yushev/git/wpcqi-optiga-trust-charge/optiga/externals/mbedtls/library\bignum.c ****     mbedtls_mpi_free( &T );
 2354              	 .loc 1 630 0
 2355 0184 07F11003 	 add r3,r7,#16
 2356 0188 1846     	 mov r0,r3
 2357 018a FFF7FEFF 	 bl mbedtls_mpi_free
 631:C:/Users/Yushev/git/wpcqi-optiga-trust-charge/optiga/externals/mbedtls/library\bignum.c **** 
 632:C:/Users/Yushev/git/wpcqi-optiga-trust-charge/optiga/externals/mbedtls/library\bignum.c ****     return( ret );
 2358              	 .loc 1 632 0
 2359 018e 7B6B     	 ldr r3,[r7,#52]
 2360              	.L149:
 633:C:/Users/Yushev/git/wpcqi-optiga-trust-charge/optiga/externals/mbedtls/library\bignum.c **** }
 2361              	 .loc 1 633 0 discriminator 1
 2362 0190 1846     	 mov r0,r3
 2363 0192 3837     	 adds r7,r7,#56
 2364              	.LCFI103:
 2365              	 .cfi_def_cfa_offset 8
 2366 0194 BD46     	 mov sp,r7
 2367              	.LCFI104:
 2368              	 .cfi_def_cfa_register 13
 2369              	 
 2370 0196 80BD     	 pop {r7,pc}
 2371              	.L151:
 2372              	 .align 2
 2373              	.L150:
 2374 0198 00000000 	 .word .LC0
 2375 019c 0F000080 	 .word -2147483633
 2376              	 .cfi_endproc
 2377              	.LFE19:
 2379              	 .section .text.mbedtls_mpi_read_binary,"ax",%progbits
 2380              	 .align 2
 2381              	 .global mbedtls_mpi_read_binary
 2382              	 .thumb
 2383              	 .thumb_func
 2385              	mbedtls_mpi_read_binary:
 2386              	.LFB20:
 634:C:/Users/Yushev/git/wpcqi-optiga-trust-charge/optiga/externals/mbedtls/library\bignum.c **** 
 635:C:/Users/Yushev/git/wpcqi-optiga-trust-charge/optiga/externals/mbedtls/library\bignum.c **** #if defined(MBEDTLS_FS_IO)
 636:C:/Users/Yushev/git/wpcqi-optiga-trust-charge/optiga/externals/mbedtls/library\bignum.c **** /*
 637:C:/Users/Yushev/git/wpcqi-optiga-trust-charge/optiga/externals/mbedtls/library\bignum.c ****  * Read X from an opened file
 638:C:/Users/Yushev/git/wpcqi-optiga-trust-charge/optiga/externals/mbedtls/library\bignum.c ****  */
 639:C:/Users/Yushev/git/wpcqi-optiga-trust-charge/optiga/externals/mbedtls/library\bignum.c **** int mbedtls_mpi_read_file( mbedtls_mpi *X, int radix, FILE *fin )
 640:C:/Users/Yushev/git/wpcqi-optiga-trust-charge/optiga/externals/mbedtls/library\bignum.c **** {
 641:C:/Users/Yushev/git/wpcqi-optiga-trust-charge/optiga/externals/mbedtls/library\bignum.c ****     mbedtls_mpi_uint d;
 642:C:/Users/Yushev/git/wpcqi-optiga-trust-charge/optiga/externals/mbedtls/library\bignum.c ****     size_t slen;
 643:C:/Users/Yushev/git/wpcqi-optiga-trust-charge/optiga/externals/mbedtls/library\bignum.c ****     char *p;
 644:C:/Users/Yushev/git/wpcqi-optiga-trust-charge/optiga/externals/mbedtls/library\bignum.c ****     /*
 645:C:/Users/Yushev/git/wpcqi-optiga-trust-charge/optiga/externals/mbedtls/library\bignum.c ****      * Buffer should have space for (short) label and decimal formatted MPI,
 646:C:/Users/Yushev/git/wpcqi-optiga-trust-charge/optiga/externals/mbedtls/library\bignum.c ****      * newline characters and '\0'
 647:C:/Users/Yushev/git/wpcqi-optiga-trust-charge/optiga/externals/mbedtls/library\bignum.c ****      */
 648:C:/Users/Yushev/git/wpcqi-optiga-trust-charge/optiga/externals/mbedtls/library\bignum.c ****     char s[ MBEDTLS_MPI_RW_BUFFER_SIZE ];
 649:C:/Users/Yushev/git/wpcqi-optiga-trust-charge/optiga/externals/mbedtls/library\bignum.c **** 
 650:C:/Users/Yushev/git/wpcqi-optiga-trust-charge/optiga/externals/mbedtls/library\bignum.c ****     MPI_VALIDATE_RET( X   != NULL );
 651:C:/Users/Yushev/git/wpcqi-optiga-trust-charge/optiga/externals/mbedtls/library\bignum.c ****     MPI_VALIDATE_RET( fin != NULL );
 652:C:/Users/Yushev/git/wpcqi-optiga-trust-charge/optiga/externals/mbedtls/library\bignum.c **** 
 653:C:/Users/Yushev/git/wpcqi-optiga-trust-charge/optiga/externals/mbedtls/library\bignum.c ****     if( radix < 2 || radix > 16 )
 654:C:/Users/Yushev/git/wpcqi-optiga-trust-charge/optiga/externals/mbedtls/library\bignum.c ****         return( MBEDTLS_ERR_MPI_BAD_INPUT_DATA );
 655:C:/Users/Yushev/git/wpcqi-optiga-trust-charge/optiga/externals/mbedtls/library\bignum.c **** 
 656:C:/Users/Yushev/git/wpcqi-optiga-trust-charge/optiga/externals/mbedtls/library\bignum.c ****     memset( s, 0, sizeof( s ) );
 657:C:/Users/Yushev/git/wpcqi-optiga-trust-charge/optiga/externals/mbedtls/library\bignum.c ****     if( fgets( s, sizeof( s ) - 1, fin ) == NULL )
 658:C:/Users/Yushev/git/wpcqi-optiga-trust-charge/optiga/externals/mbedtls/library\bignum.c ****         return( MBEDTLS_ERR_MPI_FILE_IO_ERROR );
 659:C:/Users/Yushev/git/wpcqi-optiga-trust-charge/optiga/externals/mbedtls/library\bignum.c **** 
 660:C:/Users/Yushev/git/wpcqi-optiga-trust-charge/optiga/externals/mbedtls/library\bignum.c ****     slen = strlen( s );
 661:C:/Users/Yushev/git/wpcqi-optiga-trust-charge/optiga/externals/mbedtls/library\bignum.c ****     if( slen == sizeof( s ) - 2 )
 662:C:/Users/Yushev/git/wpcqi-optiga-trust-charge/optiga/externals/mbedtls/library\bignum.c ****         return( MBEDTLS_ERR_MPI_BUFFER_TOO_SMALL );
 663:C:/Users/Yushev/git/wpcqi-optiga-trust-charge/optiga/externals/mbedtls/library\bignum.c **** 
 664:C:/Users/Yushev/git/wpcqi-optiga-trust-charge/optiga/externals/mbedtls/library\bignum.c ****     if( slen > 0 && s[slen - 1] == '\n' ) { slen--; s[slen] = '\0'; }
 665:C:/Users/Yushev/git/wpcqi-optiga-trust-charge/optiga/externals/mbedtls/library\bignum.c ****     if( slen > 0 && s[slen - 1] == '\r' ) { slen--; s[slen] = '\0'; }
 666:C:/Users/Yushev/git/wpcqi-optiga-trust-charge/optiga/externals/mbedtls/library\bignum.c **** 
 667:C:/Users/Yushev/git/wpcqi-optiga-trust-charge/optiga/externals/mbedtls/library\bignum.c ****     p = s + slen;
 668:C:/Users/Yushev/git/wpcqi-optiga-trust-charge/optiga/externals/mbedtls/library\bignum.c ****     while( p-- > s )
 669:C:/Users/Yushev/git/wpcqi-optiga-trust-charge/optiga/externals/mbedtls/library\bignum.c ****         if( mpi_get_digit( &d, radix, *p ) != 0 )
 670:C:/Users/Yushev/git/wpcqi-optiga-trust-charge/optiga/externals/mbedtls/library\bignum.c ****             break;
 671:C:/Users/Yushev/git/wpcqi-optiga-trust-charge/optiga/externals/mbedtls/library\bignum.c **** 
 672:C:/Users/Yushev/git/wpcqi-optiga-trust-charge/optiga/externals/mbedtls/library\bignum.c ****     return( mbedtls_mpi_read_string( X, radix, p + 1 ) );
 673:C:/Users/Yushev/git/wpcqi-optiga-trust-charge/optiga/externals/mbedtls/library\bignum.c **** }
 674:C:/Users/Yushev/git/wpcqi-optiga-trust-charge/optiga/externals/mbedtls/library\bignum.c **** 
 675:C:/Users/Yushev/git/wpcqi-optiga-trust-charge/optiga/externals/mbedtls/library\bignum.c **** /*
 676:C:/Users/Yushev/git/wpcqi-optiga-trust-charge/optiga/externals/mbedtls/library\bignum.c ****  * Write X into an opened file (or stdout if fout == NULL)
 677:C:/Users/Yushev/git/wpcqi-optiga-trust-charge/optiga/externals/mbedtls/library\bignum.c ****  */
 678:C:/Users/Yushev/git/wpcqi-optiga-trust-charge/optiga/externals/mbedtls/library\bignum.c **** int mbedtls_mpi_write_file( const char *p, const mbedtls_mpi *X, int radix, FILE *fout )
 679:C:/Users/Yushev/git/wpcqi-optiga-trust-charge/optiga/externals/mbedtls/library\bignum.c **** {
 680:C:/Users/Yushev/git/wpcqi-optiga-trust-charge/optiga/externals/mbedtls/library\bignum.c ****     int ret;
 681:C:/Users/Yushev/git/wpcqi-optiga-trust-charge/optiga/externals/mbedtls/library\bignum.c ****     size_t n, slen, plen;
 682:C:/Users/Yushev/git/wpcqi-optiga-trust-charge/optiga/externals/mbedtls/library\bignum.c ****     /*
 683:C:/Users/Yushev/git/wpcqi-optiga-trust-charge/optiga/externals/mbedtls/library\bignum.c ****      * Buffer should have space for (short) label and decimal formatted MPI,
 684:C:/Users/Yushev/git/wpcqi-optiga-trust-charge/optiga/externals/mbedtls/library\bignum.c ****      * newline characters and '\0'
 685:C:/Users/Yushev/git/wpcqi-optiga-trust-charge/optiga/externals/mbedtls/library\bignum.c ****      */
 686:C:/Users/Yushev/git/wpcqi-optiga-trust-charge/optiga/externals/mbedtls/library\bignum.c ****     char s[ MBEDTLS_MPI_RW_BUFFER_SIZE ];
 687:C:/Users/Yushev/git/wpcqi-optiga-trust-charge/optiga/externals/mbedtls/library\bignum.c ****     MPI_VALIDATE_RET( X != NULL );
 688:C:/Users/Yushev/git/wpcqi-optiga-trust-charge/optiga/externals/mbedtls/library\bignum.c **** 
 689:C:/Users/Yushev/git/wpcqi-optiga-trust-charge/optiga/externals/mbedtls/library\bignum.c ****     if( radix < 2 || radix > 16 )
 690:C:/Users/Yushev/git/wpcqi-optiga-trust-charge/optiga/externals/mbedtls/library\bignum.c ****         return( MBEDTLS_ERR_MPI_BAD_INPUT_DATA );
 691:C:/Users/Yushev/git/wpcqi-optiga-trust-charge/optiga/externals/mbedtls/library\bignum.c **** 
 692:C:/Users/Yushev/git/wpcqi-optiga-trust-charge/optiga/externals/mbedtls/library\bignum.c ****     memset( s, 0, sizeof( s ) );
 693:C:/Users/Yushev/git/wpcqi-optiga-trust-charge/optiga/externals/mbedtls/library\bignum.c **** 
 694:C:/Users/Yushev/git/wpcqi-optiga-trust-charge/optiga/externals/mbedtls/library\bignum.c ****     MBEDTLS_MPI_CHK( mbedtls_mpi_write_string( X, radix, s, sizeof( s ) - 2, &n ) );
 695:C:/Users/Yushev/git/wpcqi-optiga-trust-charge/optiga/externals/mbedtls/library\bignum.c **** 
 696:C:/Users/Yushev/git/wpcqi-optiga-trust-charge/optiga/externals/mbedtls/library\bignum.c ****     if( p == NULL ) p = "";
 697:C:/Users/Yushev/git/wpcqi-optiga-trust-charge/optiga/externals/mbedtls/library\bignum.c **** 
 698:C:/Users/Yushev/git/wpcqi-optiga-trust-charge/optiga/externals/mbedtls/library\bignum.c ****     plen = strlen( p );
 699:C:/Users/Yushev/git/wpcqi-optiga-trust-charge/optiga/externals/mbedtls/library\bignum.c ****     slen = strlen( s );
 700:C:/Users/Yushev/git/wpcqi-optiga-trust-charge/optiga/externals/mbedtls/library\bignum.c ****     s[slen++] = '\r';
 701:C:/Users/Yushev/git/wpcqi-optiga-trust-charge/optiga/externals/mbedtls/library\bignum.c ****     s[slen++] = '\n';
 702:C:/Users/Yushev/git/wpcqi-optiga-trust-charge/optiga/externals/mbedtls/library\bignum.c **** 
 703:C:/Users/Yushev/git/wpcqi-optiga-trust-charge/optiga/externals/mbedtls/library\bignum.c ****     if( fout != NULL )
 704:C:/Users/Yushev/git/wpcqi-optiga-trust-charge/optiga/externals/mbedtls/library\bignum.c ****     {
 705:C:/Users/Yushev/git/wpcqi-optiga-trust-charge/optiga/externals/mbedtls/library\bignum.c ****         if( fwrite( p, 1, plen, fout ) != plen ||
 706:C:/Users/Yushev/git/wpcqi-optiga-trust-charge/optiga/externals/mbedtls/library\bignum.c ****             fwrite( s, 1, slen, fout ) != slen )
 707:C:/Users/Yushev/git/wpcqi-optiga-trust-charge/optiga/externals/mbedtls/library\bignum.c ****             return( MBEDTLS_ERR_MPI_FILE_IO_ERROR );
 708:C:/Users/Yushev/git/wpcqi-optiga-trust-charge/optiga/externals/mbedtls/library\bignum.c ****     }
 709:C:/Users/Yushev/git/wpcqi-optiga-trust-charge/optiga/externals/mbedtls/library\bignum.c ****     else
 710:C:/Users/Yushev/git/wpcqi-optiga-trust-charge/optiga/externals/mbedtls/library\bignum.c ****         mbedtls_printf( "%s%s", p, s );
 711:C:/Users/Yushev/git/wpcqi-optiga-trust-charge/optiga/externals/mbedtls/library\bignum.c **** 
 712:C:/Users/Yushev/git/wpcqi-optiga-trust-charge/optiga/externals/mbedtls/library\bignum.c **** cleanup:
 713:C:/Users/Yushev/git/wpcqi-optiga-trust-charge/optiga/externals/mbedtls/library\bignum.c **** 
 714:C:/Users/Yushev/git/wpcqi-optiga-trust-charge/optiga/externals/mbedtls/library\bignum.c ****     return( ret );
 715:C:/Users/Yushev/git/wpcqi-optiga-trust-charge/optiga/externals/mbedtls/library\bignum.c **** }
 716:C:/Users/Yushev/git/wpcqi-optiga-trust-charge/optiga/externals/mbedtls/library\bignum.c **** #endif /* MBEDTLS_FS_IO */
 717:C:/Users/Yushev/git/wpcqi-optiga-trust-charge/optiga/externals/mbedtls/library\bignum.c **** 
 718:C:/Users/Yushev/git/wpcqi-optiga-trust-charge/optiga/externals/mbedtls/library\bignum.c **** /*
 719:C:/Users/Yushev/git/wpcqi-optiga-trust-charge/optiga/externals/mbedtls/library\bignum.c ****  * Import X from unsigned binary data, big endian
 720:C:/Users/Yushev/git/wpcqi-optiga-trust-charge/optiga/externals/mbedtls/library\bignum.c ****  */
 721:C:/Users/Yushev/git/wpcqi-optiga-trust-charge/optiga/externals/mbedtls/library\bignum.c **** int mbedtls_mpi_read_binary( mbedtls_mpi *X, const unsigned char *buf, size_t buflen )
 722:C:/Users/Yushev/git/wpcqi-optiga-trust-charge/optiga/externals/mbedtls/library\bignum.c **** {
 2387              	 .loc 1 722 0
 2388              	 .cfi_startproc
 2389              	 
 2390              	 
 2391 0000 80B5     	 push {r7,lr}
 2392              	.LCFI105:
 2393              	 .cfi_def_cfa_offset 8
 2394              	 .cfi_offset 7,-8
 2395              	 .cfi_offset 14,-4
 2396 0002 88B0     	 sub sp,sp,#32
 2397              	.LCFI106:
 2398              	 .cfi_def_cfa_offset 40
 2399 0004 00AF     	 add r7,sp,#0
 2400              	.LCFI107:
 2401              	 .cfi_def_cfa_register 7
 2402 0006 F860     	 str r0,[r7,#12]
 2403 0008 B960     	 str r1,[r7,#8]
 2404 000a 7A60     	 str r2,[r7,#4]
 723:C:/Users/Yushev/git/wpcqi-optiga-trust-charge/optiga/externals/mbedtls/library\bignum.c ****     int ret;
 724:C:/Users/Yushev/git/wpcqi-optiga-trust-charge/optiga/externals/mbedtls/library\bignum.c ****     size_t i, j;
 725:C:/Users/Yushev/git/wpcqi-optiga-trust-charge/optiga/externals/mbedtls/library\bignum.c ****     size_t const limbs = CHARS_TO_LIMBS( buflen );
 2405              	 .loc 1 725 0
 2406 000c 7B68     	 ldr r3,[r7,#4]
 2407 000e 9B08     	 lsrs r3,r3,#2
 2408 0010 7A68     	 ldr r2,[r7,#4]
 2409 0012 02F00302 	 and r2,r2,#3
 2410 0016 002A     	 cmp r2,#0
 2411 0018 14BF     	 ite ne
 2412 001a 0122     	 movne r2,#1
 2413 001c 0022     	 moveq r2,#0
 2414 001e D2B2     	 uxtb r2,r2
 2415 0020 1344     	 add r3,r3,r2
 2416 0022 3B61     	 str r3,[r7,#16]
 726:C:/Users/Yushev/git/wpcqi-optiga-trust-charge/optiga/externals/mbedtls/library\bignum.c **** 
 727:C:/Users/Yushev/git/wpcqi-optiga-trust-charge/optiga/externals/mbedtls/library\bignum.c ****     MPI_VALIDATE_RET( X != NULL );
 728:C:/Users/Yushev/git/wpcqi-optiga-trust-charge/optiga/externals/mbedtls/library\bignum.c ****     MPI_VALIDATE_RET( buflen == 0 || buf != NULL );
 729:C:/Users/Yushev/git/wpcqi-optiga-trust-charge/optiga/externals/mbedtls/library\bignum.c **** 
 730:C:/Users/Yushev/git/wpcqi-optiga-trust-charge/optiga/externals/mbedtls/library\bignum.c ****     /* Ensure that target MPI has exactly the necessary number of limbs */
 731:C:/Users/Yushev/git/wpcqi-optiga-trust-charge/optiga/externals/mbedtls/library\bignum.c ****     if( X->n != limbs )
 2417              	 .loc 1 731 0
 2418 0024 FB68     	 ldr r3,[r7,#12]
 2419 0026 5A68     	 ldr r2,[r3,#4]
 2420 0028 3B69     	 ldr r3,[r7,#16]
 2421 002a 9A42     	 cmp r2,r3
 2422 002c 0ED0     	 beq .L153
 732:C:/Users/Yushev/git/wpcqi-optiga-trust-charge/optiga/externals/mbedtls/library\bignum.c ****     {
 733:C:/Users/Yushev/git/wpcqi-optiga-trust-charge/optiga/externals/mbedtls/library\bignum.c ****         mbedtls_mpi_free( X );
 2423              	 .loc 1 733 0
 2424 002e F868     	 ldr r0,[r7,#12]
 2425 0030 FFF7FEFF 	 bl mbedtls_mpi_free
 734:C:/Users/Yushev/git/wpcqi-optiga-trust-charge/optiga/externals/mbedtls/library\bignum.c ****         mbedtls_mpi_init( X );
 2426              	 .loc 1 734 0
 2427 0034 F868     	 ldr r0,[r7,#12]
 2428 0036 FFF7FEFF 	 bl mbedtls_mpi_init
 735:C:/Users/Yushev/git/wpcqi-optiga-trust-charge/optiga/externals/mbedtls/library\bignum.c ****         MBEDTLS_MPI_CHK( mbedtls_mpi_grow( X, limbs ) );
 2429              	 .loc 1 735 0
 2430 003a F868     	 ldr r0,[r7,#12]
 2431 003c 3969     	 ldr r1,[r7,#16]
 2432 003e FFF7FEFF 	 bl mbedtls_mpi_grow
 2433 0042 F861     	 str r0,[r7,#28]
 2434 0044 FB69     	 ldr r3,[r7,#28]
 2435 0046 002B     	 cmp r3,#0
 2436 0048 00D0     	 beq .L153
 2437 004a 2FE0     	 b .L154
 2438              	.L153:
 736:C:/Users/Yushev/git/wpcqi-optiga-trust-charge/optiga/externals/mbedtls/library\bignum.c ****     }
 737:C:/Users/Yushev/git/wpcqi-optiga-trust-charge/optiga/externals/mbedtls/library\bignum.c **** 
 738:C:/Users/Yushev/git/wpcqi-optiga-trust-charge/optiga/externals/mbedtls/library\bignum.c ****     MBEDTLS_MPI_CHK( mbedtls_mpi_lset( X, 0 ) );
 2439              	 .loc 1 738 0
 2440 004c F868     	 ldr r0,[r7,#12]
 2441 004e 0021     	 movs r1,#0
 2442 0050 FFF7FEFF 	 bl mbedtls_mpi_lset
 2443 0054 F861     	 str r0,[r7,#28]
 2444 0056 FB69     	 ldr r3,[r7,#28]
 2445 0058 002B     	 cmp r3,#0
 2446 005a 00D0     	 beq .L155
 2447 005c 26E0     	 b .L154
 2448              	.L155:
 739:C:/Users/Yushev/git/wpcqi-optiga-trust-charge/optiga/externals/mbedtls/library\bignum.c **** 
 740:C:/Users/Yushev/git/wpcqi-optiga-trust-charge/optiga/externals/mbedtls/library\bignum.c ****     for( i = buflen, j = 0; i > 0; i--, j++ )
 2449              	 .loc 1 740 0
 2450 005e 7B68     	 ldr r3,[r7,#4]
 2451 0060 BB61     	 str r3,[r7,#24]
 2452 0062 0023     	 movs r3,#0
 2453 0064 7B61     	 str r3,[r7,#20]
 2454 0066 1EE0     	 b .L156
 2455              	.L157:
 741:C:/Users/Yushev/git/wpcqi-optiga-trust-charge/optiga/externals/mbedtls/library\bignum.c ****         X->p[j / ciL] |= ((mbedtls_mpi_uint) buf[i - 1]) << ((j % ciL) << 3);
 2456              	 .loc 1 741 0 discriminator 3
 2457 0068 FB68     	 ldr r3,[r7,#12]
 2458 006a 9968     	 ldr r1,[r3,#8]
 2459 006c 7B69     	 ldr r3,[r7,#20]
 2460 006e 9B08     	 lsrs r3,r3,#2
 2461 0070 9A00     	 lsls r2,r3,#2
 2462 0072 0A44     	 add r2,r2,r1
 2463 0074 F968     	 ldr r1,[r7,#12]
 2464 0076 8968     	 ldr r1,[r1,#8]
 2465 0078 9B00     	 lsls r3,r3,#2
 2466 007a 0B44     	 add r3,r3,r1
 2467 007c 1968     	 ldr r1,[r3]
 2468 007e BB69     	 ldr r3,[r7,#24]
 2469 0080 013B     	 subs r3,r3,#1
 2470 0082 B868     	 ldr r0,[r7,#8]
 2471 0084 0344     	 add r3,r3,r0
 2472 0086 1B78     	 ldrb r3,[r3]
 2473 0088 1846     	 mov r0,r3
 2474 008a 7B69     	 ldr r3,[r7,#20]
 2475 008c 03F00303 	 and r3,r3,#3
 2476 0090 DB00     	 lsls r3,r3,#3
 2477 0092 00FA03F3 	 lsl r3,r0,r3
 2478 0096 0B43     	 orrs r3,r3,r1
 2479 0098 1360     	 str r3,[r2]
 740:C:/Users/Yushev/git/wpcqi-optiga-trust-charge/optiga/externals/mbedtls/library\bignum.c ****         X->p[j / ciL] |= ((mbedtls_mpi_uint) buf[i - 1]) << ((j % ciL) << 3);
 2480              	 .loc 1 740 0 discriminator 3
 2481 009a BB69     	 ldr r3,[r7,#24]
 2482 009c 013B     	 subs r3,r3,#1
 2483 009e BB61     	 str r3,[r7,#24]
 2484 00a0 7B69     	 ldr r3,[r7,#20]
 2485 00a2 0133     	 adds r3,r3,#1
 2486 00a4 7B61     	 str r3,[r7,#20]
 2487              	.L156:
 740:C:/Users/Yushev/git/wpcqi-optiga-trust-charge/optiga/externals/mbedtls/library\bignum.c ****         X->p[j / ciL] |= ((mbedtls_mpi_uint) buf[i - 1]) << ((j % ciL) << 3);
 2488              	 .loc 1 740 0 is_stmt 0 discriminator 1
 2489 00a6 BB69     	 ldr r3,[r7,#24]
 2490 00a8 002B     	 cmp r3,#0
 2491 00aa DDD1     	 bne .L157
 2492              	.L154:
 742:C:/Users/Yushev/git/wpcqi-optiga-trust-charge/optiga/externals/mbedtls/library\bignum.c **** 
 743:C:/Users/Yushev/git/wpcqi-optiga-trust-charge/optiga/externals/mbedtls/library\bignum.c **** cleanup:
 744:C:/Users/Yushev/git/wpcqi-optiga-trust-charge/optiga/externals/mbedtls/library\bignum.c **** 
 745:C:/Users/Yushev/git/wpcqi-optiga-trust-charge/optiga/externals/mbedtls/library\bignum.c ****     return( ret );
 2493              	 .loc 1 745 0 is_stmt 1
 2494 00ac FB69     	 ldr r3,[r7,#28]
 746:C:/Users/Yushev/git/wpcqi-optiga-trust-charge/optiga/externals/mbedtls/library\bignum.c **** }
 2495              	 .loc 1 746 0
 2496 00ae 1846     	 mov r0,r3
 2497 00b0 2037     	 adds r7,r7,#32
 2498              	.LCFI108:
 2499              	 .cfi_def_cfa_offset 8
 2500 00b2 BD46     	 mov sp,r7
 2501              	.LCFI109:
 2502              	 .cfi_def_cfa_register 13
 2503              	 
 2504 00b4 80BD     	 pop {r7,pc}
 2505              	 .cfi_endproc
 2506              	.LFE20:
 2508 00b6 00BF     	 .section .text.mbedtls_mpi_write_binary,"ax",%progbits
 2509              	 .align 2
 2510              	 .global mbedtls_mpi_write_binary
 2511              	 .thumb
 2512              	 .thumb_func
 2514              	mbedtls_mpi_write_binary:
 2515              	.LFB21:
 747:C:/Users/Yushev/git/wpcqi-optiga-trust-charge/optiga/externals/mbedtls/library\bignum.c **** 
 748:C:/Users/Yushev/git/wpcqi-optiga-trust-charge/optiga/externals/mbedtls/library\bignum.c **** /*
 749:C:/Users/Yushev/git/wpcqi-optiga-trust-charge/optiga/externals/mbedtls/library\bignum.c ****  * Export X into unsigned binary data, big endian
 750:C:/Users/Yushev/git/wpcqi-optiga-trust-charge/optiga/externals/mbedtls/library\bignum.c ****  */
 751:C:/Users/Yushev/git/wpcqi-optiga-trust-charge/optiga/externals/mbedtls/library\bignum.c **** int mbedtls_mpi_write_binary( const mbedtls_mpi *X,
 752:C:/Users/Yushev/git/wpcqi-optiga-trust-charge/optiga/externals/mbedtls/library\bignum.c ****                               unsigned char *buf, size_t buflen )
 753:C:/Users/Yushev/git/wpcqi-optiga-trust-charge/optiga/externals/mbedtls/library\bignum.c **** {
 2516              	 .loc 1 753 0
 2517              	 .cfi_startproc
 2518              	 
 2519              	 
 2520 0000 80B5     	 push {r7,lr}
 2521              	.LCFI110:
 2522              	 .cfi_def_cfa_offset 8
 2523              	 .cfi_offset 7,-8
 2524              	 .cfi_offset 14,-4
 2525 0002 88B0     	 sub sp,sp,#32
 2526              	.LCFI111:
 2527              	 .cfi_def_cfa_offset 40
 2528 0004 00AF     	 add r7,sp,#0
 2529              	.LCFI112:
 2530              	 .cfi_def_cfa_register 7
 2531 0006 F860     	 str r0,[r7,#12]
 2532 0008 B960     	 str r1,[r7,#8]
 2533 000a 7A60     	 str r2,[r7,#4]
 754:C:/Users/Yushev/git/wpcqi-optiga-trust-charge/optiga/externals/mbedtls/library\bignum.c ****     size_t stored_bytes;
 755:C:/Users/Yushev/git/wpcqi-optiga-trust-charge/optiga/externals/mbedtls/library\bignum.c ****     size_t bytes_to_copy;
 756:C:/Users/Yushev/git/wpcqi-optiga-trust-charge/optiga/externals/mbedtls/library\bignum.c ****     unsigned char *p;
 757:C:/Users/Yushev/git/wpcqi-optiga-trust-charge/optiga/externals/mbedtls/library\bignum.c ****     size_t i;
 758:C:/Users/Yushev/git/wpcqi-optiga-trust-charge/optiga/externals/mbedtls/library\bignum.c **** 
 759:C:/Users/Yushev/git/wpcqi-optiga-trust-charge/optiga/externals/mbedtls/library\bignum.c ****     MPI_VALIDATE_RET( X != NULL );
 760:C:/Users/Yushev/git/wpcqi-optiga-trust-charge/optiga/externals/mbedtls/library\bignum.c ****     MPI_VALIDATE_RET( buflen == 0 || buf != NULL );
 761:C:/Users/Yushev/git/wpcqi-optiga-trust-charge/optiga/externals/mbedtls/library\bignum.c **** 
 762:C:/Users/Yushev/git/wpcqi-optiga-trust-charge/optiga/externals/mbedtls/library\bignum.c ****     stored_bytes = X->n * ciL;
 2534              	 .loc 1 762 0
 2535 000c FB68     	 ldr r3,[r7,#12]
 2536 000e 5B68     	 ldr r3,[r3,#4]
 2537 0010 9B00     	 lsls r3,r3,#2
 2538 0012 3B61     	 str r3,[r7,#16]
 763:C:/Users/Yushev/git/wpcqi-optiga-trust-charge/optiga/externals/mbedtls/library\bignum.c **** 
 764:C:/Users/Yushev/git/wpcqi-optiga-trust-charge/optiga/externals/mbedtls/library\bignum.c ****     if( stored_bytes < buflen )
 2539              	 .loc 1 764 0
 2540 0014 3A69     	 ldr r2,[r7,#16]
 2541 0016 7B68     	 ldr r3,[r7,#4]
 2542 0018 9A42     	 cmp r2,r3
 2543 001a 10D2     	 bcs .L160
 765:C:/Users/Yushev/git/wpcqi-optiga-trust-charge/optiga/externals/mbedtls/library\bignum.c ****     {
 766:C:/Users/Yushev/git/wpcqi-optiga-trust-charge/optiga/externals/mbedtls/library\bignum.c ****         /* There is enough space in the output buffer. Write initial
 767:C:/Users/Yushev/git/wpcqi-optiga-trust-charge/optiga/externals/mbedtls/library\bignum.c ****          * null bytes and record the position at which to start
 768:C:/Users/Yushev/git/wpcqi-optiga-trust-charge/optiga/externals/mbedtls/library\bignum.c ****          * writing the significant bytes. In this case, the execution
 769:C:/Users/Yushev/git/wpcqi-optiga-trust-charge/optiga/externals/mbedtls/library\bignum.c ****          * trace of this function does not depend on the value of the
 770:C:/Users/Yushev/git/wpcqi-optiga-trust-charge/optiga/externals/mbedtls/library\bignum.c ****          * number. */
 771:C:/Users/Yushev/git/wpcqi-optiga-trust-charge/optiga/externals/mbedtls/library\bignum.c ****         bytes_to_copy = stored_bytes;
 2544              	 .loc 1 771 0
 2545 001c 3B69     	 ldr r3,[r7,#16]
 2546 001e FB61     	 str r3,[r7,#28]
 772:C:/Users/Yushev/git/wpcqi-optiga-trust-charge/optiga/externals/mbedtls/library\bignum.c ****         p = buf + buflen - stored_bytes;
 2547              	 .loc 1 772 0
 2548 0020 7A68     	 ldr r2,[r7,#4]
 2549 0022 3B69     	 ldr r3,[r7,#16]
 2550 0024 D31A     	 subs r3,r2,r3
 2551 0026 BA68     	 ldr r2,[r7,#8]
 2552 0028 1344     	 add r3,r3,r2
 2553 002a BB61     	 str r3,[r7,#24]
 773:C:/Users/Yushev/git/wpcqi-optiga-trust-charge/optiga/externals/mbedtls/library\bignum.c ****         memset( buf, 0, buflen - stored_bytes );
 2554              	 .loc 1 773 0
 2555 002c 7A68     	 ldr r2,[r7,#4]
 2556 002e 3B69     	 ldr r3,[r7,#16]
 2557 0030 D31A     	 subs r3,r2,r3
 2558 0032 B868     	 ldr r0,[r7,#8]
 2559 0034 0021     	 movs r1,#0
 2560 0036 1A46     	 mov r2,r3
 2561 0038 FFF7FEFF 	 bl memset
 2562 003c 1FE0     	 b .L161
 2563              	.L160:
 774:C:/Users/Yushev/git/wpcqi-optiga-trust-charge/optiga/externals/mbedtls/library\bignum.c ****     }
 775:C:/Users/Yushev/git/wpcqi-optiga-trust-charge/optiga/externals/mbedtls/library\bignum.c ****     else
 776:C:/Users/Yushev/git/wpcqi-optiga-trust-charge/optiga/externals/mbedtls/library\bignum.c ****     {
 777:C:/Users/Yushev/git/wpcqi-optiga-trust-charge/optiga/externals/mbedtls/library\bignum.c ****         /* The output buffer is smaller than the allocated size of X.
 778:C:/Users/Yushev/git/wpcqi-optiga-trust-charge/optiga/externals/mbedtls/library\bignum.c ****          * However X may fit if its leading bytes are zero. */
 779:C:/Users/Yushev/git/wpcqi-optiga-trust-charge/optiga/externals/mbedtls/library\bignum.c ****         bytes_to_copy = buflen;
 2564              	 .loc 1 779 0
 2565 003e 7B68     	 ldr r3,[r7,#4]
 2566 0040 FB61     	 str r3,[r7,#28]
 780:C:/Users/Yushev/git/wpcqi-optiga-trust-charge/optiga/externals/mbedtls/library\bignum.c ****         p = buf;
 2567              	 .loc 1 780 0
 2568 0042 BB68     	 ldr r3,[r7,#8]
 2569 0044 BB61     	 str r3,[r7,#24]
 781:C:/Users/Yushev/git/wpcqi-optiga-trust-charge/optiga/externals/mbedtls/library\bignum.c ****         for( i = bytes_to_copy; i < stored_bytes; i++ )
 2570              	 .loc 1 781 0
 2571 0046 FB69     	 ldr r3,[r7,#28]
 2572 0048 7B61     	 str r3,[r7,#20]
 2573 004a 14E0     	 b .L162
 2574              	.L165:
 782:C:/Users/Yushev/git/wpcqi-optiga-trust-charge/optiga/externals/mbedtls/library\bignum.c ****         {
 783:C:/Users/Yushev/git/wpcqi-optiga-trust-charge/optiga/externals/mbedtls/library\bignum.c ****             if( GET_BYTE( X, i ) != 0 )
 2575              	 .loc 1 783 0
 2576 004c FB68     	 ldr r3,[r7,#12]
 2577 004e 9A68     	 ldr r2,[r3,#8]
 2578 0050 7B69     	 ldr r3,[r7,#20]
 2579 0052 9B08     	 lsrs r3,r3,#2
 2580 0054 9B00     	 lsls r3,r3,#2
 2581 0056 1344     	 add r3,r3,r2
 2582 0058 1B68     	 ldr r3,[r3]
 2583 005a 7A69     	 ldr r2,[r7,#20]
 2584 005c 02F00302 	 and r2,r2,#3
 2585 0060 D200     	 lsls r2,r2,#3
 2586 0062 D340     	 lsrs r3,r3,r2
 2587 0064 DBB2     	 uxtb r3,r3
 2588 0066 002B     	 cmp r3,#0
 2589 0068 02D0     	 beq .L163
 784:C:/Users/Yushev/git/wpcqi-optiga-trust-charge/optiga/externals/mbedtls/library\bignum.c ****                 return( MBEDTLS_ERR_MPI_BUFFER_TOO_SMALL );
 2590              	 .loc 1 784 0
 2591 006a 6FF00703 	 mvn r3,#7
 2592 006e 25E0     	 b .L164
 2593              	.L163:
 781:C:/Users/Yushev/git/wpcqi-optiga-trust-charge/optiga/externals/mbedtls/library\bignum.c ****         for( i = bytes_to_copy; i < stored_bytes; i++ )
 2594              	 .loc 1 781 0 discriminator 2
 2595 0070 7B69     	 ldr r3,[r7,#20]
 2596 0072 0133     	 adds r3,r3,#1
 2597 0074 7B61     	 str r3,[r7,#20]
 2598              	.L162:
 781:C:/Users/Yushev/git/wpcqi-optiga-trust-charge/optiga/externals/mbedtls/library\bignum.c ****         for( i = bytes_to_copy; i < stored_bytes; i++ )
 2599              	 .loc 1 781 0 is_stmt 0 discriminator 1
 2600 0076 7A69     	 ldr r2,[r7,#20]
 2601 0078 3B69     	 ldr r3,[r7,#16]
 2602 007a 9A42     	 cmp r2,r3
 2603 007c E6D3     	 bcc .L165
 2604              	.L161:
 785:C:/Users/Yushev/git/wpcqi-optiga-trust-charge/optiga/externals/mbedtls/library\bignum.c ****         }
 786:C:/Users/Yushev/git/wpcqi-optiga-trust-charge/optiga/externals/mbedtls/library\bignum.c ****     }
 787:C:/Users/Yushev/git/wpcqi-optiga-trust-charge/optiga/externals/mbedtls/library\bignum.c **** 
 788:C:/Users/Yushev/git/wpcqi-optiga-trust-charge/optiga/externals/mbedtls/library\bignum.c ****     for( i = 0; i < bytes_to_copy; i++ )
 2605              	 .loc 1 788 0 is_stmt 1
 2606 007e 0023     	 movs r3,#0
 2607 0080 7B61     	 str r3,[r7,#20]
 2608 0082 16E0     	 b .L166
 2609              	.L167:
 789:C:/Users/Yushev/git/wpcqi-optiga-trust-charge/optiga/externals/mbedtls/library\bignum.c ****         p[bytes_to_copy - i - 1] = GET_BYTE( X, i );
 2610              	 .loc 1 789 0 discriminator 3
 2611 0084 FA69     	 ldr r2,[r7,#28]
 2612 0086 7B69     	 ldr r3,[r7,#20]
 2613 0088 D31A     	 subs r3,r2,r3
 2614 008a 013B     	 subs r3,r3,#1
 2615 008c BA69     	 ldr r2,[r7,#24]
 2616 008e 1344     	 add r3,r3,r2
 2617 0090 FA68     	 ldr r2,[r7,#12]
 2618 0092 9168     	 ldr r1,[r2,#8]
 2619 0094 7A69     	 ldr r2,[r7,#20]
 2620 0096 9208     	 lsrs r2,r2,#2
 2621 0098 9200     	 lsls r2,r2,#2
 2622 009a 0A44     	 add r2,r2,r1
 2623 009c 1268     	 ldr r2,[r2]
 2624 009e 7969     	 ldr r1,[r7,#20]
 2625 00a0 01F00301 	 and r1,r1,#3
 2626 00a4 C900     	 lsls r1,r1,#3
 2627 00a6 CA40     	 lsrs r2,r2,r1
 2628 00a8 D2B2     	 uxtb r2,r2
 2629 00aa 1A70     	 strb r2,[r3]
 788:C:/Users/Yushev/git/wpcqi-optiga-trust-charge/optiga/externals/mbedtls/library\bignum.c ****         p[bytes_to_copy - i - 1] = GET_BYTE( X, i );
 2630              	 .loc 1 788 0 discriminator 3
 2631 00ac 7B69     	 ldr r3,[r7,#20]
 2632 00ae 0133     	 adds r3,r3,#1
 2633 00b0 7B61     	 str r3,[r7,#20]
 2634              	.L166:
 788:C:/Users/Yushev/git/wpcqi-optiga-trust-charge/optiga/externals/mbedtls/library\bignum.c ****         p[bytes_to_copy - i - 1] = GET_BYTE( X, i );
 2635              	 .loc 1 788 0 is_stmt 0 discriminator 1
 2636 00b2 7A69     	 ldr r2,[r7,#20]
 2637 00b4 FB69     	 ldr r3,[r7,#28]
 2638 00b6 9A42     	 cmp r2,r3
 2639 00b8 E4D3     	 bcc .L167
 790:C:/Users/Yushev/git/wpcqi-optiga-trust-charge/optiga/externals/mbedtls/library\bignum.c **** 
 791:C:/Users/Yushev/git/wpcqi-optiga-trust-charge/optiga/externals/mbedtls/library\bignum.c ****     return( 0 );
 2640              	 .loc 1 791 0 is_stmt 1
 2641 00ba 0023     	 movs r3,#0
 2642              	.L164:
 792:C:/Users/Yushev/git/wpcqi-optiga-trust-charge/optiga/externals/mbedtls/library\bignum.c **** }
 2643              	 .loc 1 792 0
 2644 00bc 1846     	 mov r0,r3
 2645 00be 2037     	 adds r7,r7,#32
 2646              	.LCFI113:
 2647              	 .cfi_def_cfa_offset 8
 2648 00c0 BD46     	 mov sp,r7
 2649              	.LCFI114:
 2650              	 .cfi_def_cfa_register 13
 2651              	 
 2652 00c2 80BD     	 pop {r7,pc}
 2653              	 .cfi_endproc
 2654              	.LFE21:
 2656              	 .section .text.mbedtls_mpi_shift_l,"ax",%progbits
 2657              	 .align 2
 2658              	 .global mbedtls_mpi_shift_l
 2659              	 .thumb
 2660              	 .thumb_func
 2662              	mbedtls_mpi_shift_l:
 2663              	.LFB22:
 793:C:/Users/Yushev/git/wpcqi-optiga-trust-charge/optiga/externals/mbedtls/library\bignum.c **** 
 794:C:/Users/Yushev/git/wpcqi-optiga-trust-charge/optiga/externals/mbedtls/library\bignum.c **** /*
 795:C:/Users/Yushev/git/wpcqi-optiga-trust-charge/optiga/externals/mbedtls/library\bignum.c ****  * Left-shift: X <<= count
 796:C:/Users/Yushev/git/wpcqi-optiga-trust-charge/optiga/externals/mbedtls/library\bignum.c ****  */
 797:C:/Users/Yushev/git/wpcqi-optiga-trust-charge/optiga/externals/mbedtls/library\bignum.c **** int mbedtls_mpi_shift_l( mbedtls_mpi *X, size_t count )
 798:C:/Users/Yushev/git/wpcqi-optiga-trust-charge/optiga/externals/mbedtls/library\bignum.c **** {
 2664              	 .loc 1 798 0
 2665              	 .cfi_startproc
 2666              	 
 2667              	 
 2668 0000 80B5     	 push {r7,lr}
 2669              	.LCFI115:
 2670              	 .cfi_def_cfa_offset 8
 2671              	 .cfi_offset 7,-8
 2672              	 .cfi_offset 14,-4
 2673 0002 88B0     	 sub sp,sp,#32
 2674              	.LCFI116:
 2675              	 .cfi_def_cfa_offset 40
 2676 0004 00AF     	 add r7,sp,#0
 2677              	.LCFI117:
 2678              	 .cfi_def_cfa_register 7
 2679 0006 7860     	 str r0,[r7,#4]
 2680 0008 3960     	 str r1,[r7]
 799:C:/Users/Yushev/git/wpcqi-optiga-trust-charge/optiga/externals/mbedtls/library\bignum.c ****     int ret;
 800:C:/Users/Yushev/git/wpcqi-optiga-trust-charge/optiga/externals/mbedtls/library\bignum.c ****     size_t i, v0, t1;
 801:C:/Users/Yushev/git/wpcqi-optiga-trust-charge/optiga/externals/mbedtls/library\bignum.c ****     mbedtls_mpi_uint r0 = 0, r1;
 2681              	 .loc 1 801 0
 2682 000a 0023     	 movs r3,#0
 2683 000c 7B61     	 str r3,[r7,#20]
 802:C:/Users/Yushev/git/wpcqi-optiga-trust-charge/optiga/externals/mbedtls/library\bignum.c ****     MPI_VALIDATE_RET( X != NULL );
 803:C:/Users/Yushev/git/wpcqi-optiga-trust-charge/optiga/externals/mbedtls/library\bignum.c **** 
 804:C:/Users/Yushev/git/wpcqi-optiga-trust-charge/optiga/externals/mbedtls/library\bignum.c ****     v0 = count / (biL    );
 2684              	 .loc 1 804 0
 2685 000e 3B68     	 ldr r3,[r7]
 2686 0010 5B09     	 lsrs r3,r3,#5
 2687 0012 3B61     	 str r3,[r7,#16]
 805:C:/Users/Yushev/git/wpcqi-optiga-trust-charge/optiga/externals/mbedtls/library\bignum.c ****     t1 = count & (biL - 1);
 2688              	 .loc 1 805 0
 2689 0014 3B68     	 ldr r3,[r7]
 2690 0016 03F01F03 	 and r3,r3,#31
 2691 001a FB60     	 str r3,[r7,#12]
 806:C:/Users/Yushev/git/wpcqi-optiga-trust-charge/optiga/externals/mbedtls/library\bignum.c **** 
 807:C:/Users/Yushev/git/wpcqi-optiga-trust-charge/optiga/externals/mbedtls/library\bignum.c ****     i = mbedtls_mpi_bitlen( X ) + count;
 2692              	 .loc 1 807 0
 2693 001c 7868     	 ldr r0,[r7,#4]
 2694 001e FFF7FEFF 	 bl mbedtls_mpi_bitlen
 2695 0022 0246     	 mov r2,r0
 2696 0024 3B68     	 ldr r3,[r7]
 2697 0026 1344     	 add r3,r3,r2
 2698 0028 BB61     	 str r3,[r7,#24]
 808:C:/Users/Yushev/git/wpcqi-optiga-trust-charge/optiga/externals/mbedtls/library\bignum.c **** 
 809:C:/Users/Yushev/git/wpcqi-optiga-trust-charge/optiga/externals/mbedtls/library\bignum.c ****     if( X->n * biL < i )
 2699              	 .loc 1 809 0
 2700 002a 7B68     	 ldr r3,[r7,#4]
 2701 002c 5B68     	 ldr r3,[r3,#4]
 2702 002e 5A01     	 lsls r2,r3,#5
 2703 0030 BB69     	 ldr r3,[r7,#24]
 2704 0032 9A42     	 cmp r2,r3
 2705 0034 13D2     	 bcs .L169
 810:C:/Users/Yushev/git/wpcqi-optiga-trust-charge/optiga/externals/mbedtls/library\bignum.c ****         MBEDTLS_MPI_CHK( mbedtls_mpi_grow( X, BITS_TO_LIMBS( i ) ) );
 2706              	 .loc 1 810 0
 2707 0036 BB69     	 ldr r3,[r7,#24]
 2708 0038 5B09     	 lsrs r3,r3,#5
 2709 003a BA69     	 ldr r2,[r7,#24]
 2710 003c 02F01F02 	 and r2,r2,#31
 2711 0040 002A     	 cmp r2,#0
 2712 0042 14BF     	 ite ne
 2713 0044 0122     	 movne r2,#1
 2714 0046 0022     	 moveq r2,#0
 2715 0048 D2B2     	 uxtb r2,r2
 2716 004a 1344     	 add r3,r3,r2
 2717 004c 7868     	 ldr r0,[r7,#4]
 2718 004e 1946     	 mov r1,r3
 2719 0050 FFF7FEFF 	 bl mbedtls_mpi_grow
 2720 0054 F861     	 str r0,[r7,#28]
 2721 0056 FB69     	 ldr r3,[r7,#28]
 2722 0058 002B     	 cmp r3,#0
 2723 005a 00D0     	 beq .L169
 2724 005c 6CE0     	 b .L170
 2725              	.L169:
 811:C:/Users/Yushev/git/wpcqi-optiga-trust-charge/optiga/externals/mbedtls/library\bignum.c **** 
 812:C:/Users/Yushev/git/wpcqi-optiga-trust-charge/optiga/externals/mbedtls/library\bignum.c ****     ret = 0;
 2726              	 .loc 1 812 0
 2727 005e 0023     	 movs r3,#0
 2728 0060 FB61     	 str r3,[r7,#28]
 813:C:/Users/Yushev/git/wpcqi-optiga-trust-charge/optiga/externals/mbedtls/library\bignum.c **** 
 814:C:/Users/Yushev/git/wpcqi-optiga-trust-charge/optiga/externals/mbedtls/library\bignum.c ****     /*
 815:C:/Users/Yushev/git/wpcqi-optiga-trust-charge/optiga/externals/mbedtls/library\bignum.c ****      * shift by count / limb_size
 816:C:/Users/Yushev/git/wpcqi-optiga-trust-charge/optiga/externals/mbedtls/library\bignum.c ****      */
 817:C:/Users/Yushev/git/wpcqi-optiga-trust-charge/optiga/externals/mbedtls/library\bignum.c ****     if( v0 > 0 )
 2729              	 .loc 1 817 0
 2730 0062 3B69     	 ldr r3,[r7,#16]
 2731 0064 002B     	 cmp r3,#0
 2732 0066 2FD0     	 beq .L171
 818:C:/Users/Yushev/git/wpcqi-optiga-trust-charge/optiga/externals/mbedtls/library\bignum.c ****     {
 819:C:/Users/Yushev/git/wpcqi-optiga-trust-charge/optiga/externals/mbedtls/library\bignum.c ****         for( i = X->n; i > v0; i-- )
 2733              	 .loc 1 819 0
 2734 0068 7B68     	 ldr r3,[r7,#4]
 2735 006a 5B68     	 ldr r3,[r3,#4]
 2736 006c BB61     	 str r3,[r7,#24]
 2737 006e 16E0     	 b .L172
 2738              	.L173:
 820:C:/Users/Yushev/git/wpcqi-optiga-trust-charge/optiga/externals/mbedtls/library\bignum.c ****             X->p[i - 1] = X->p[i - v0 - 1];
 2739              	 .loc 1 820 0 discriminator 3
 2740 0070 7B68     	 ldr r3,[r7,#4]
 2741 0072 9A68     	 ldr r2,[r3,#8]
 2742 0074 BB69     	 ldr r3,[r7,#24]
 2743 0076 03F18043 	 add r3,r3,#1073741824
 2744 007a 013B     	 subs r3,r3,#1
 2745 007c 9B00     	 lsls r3,r3,#2
 2746 007e 1A44     	 add r2,r2,r3
 2747 0080 7B68     	 ldr r3,[r7,#4]
 2748 0082 9968     	 ldr r1,[r3,#8]
 2749 0084 B869     	 ldr r0,[r7,#24]
 2750 0086 3B69     	 ldr r3,[r7,#16]
 2751 0088 C31A     	 subs r3,r0,r3
 2752 008a 03F18043 	 add r3,r3,#1073741824
 2753 008e 013B     	 subs r3,r3,#1
 2754 0090 9B00     	 lsls r3,r3,#2
 2755 0092 0B44     	 add r3,r3,r1
 2756 0094 1B68     	 ldr r3,[r3]
 2757 0096 1360     	 str r3,[r2]
 819:C:/Users/Yushev/git/wpcqi-optiga-trust-charge/optiga/externals/mbedtls/library\bignum.c ****             X->p[i - 1] = X->p[i - v0 - 1];
 2758              	 .loc 1 819 0 discriminator 3
 2759 0098 BB69     	 ldr r3,[r7,#24]
 2760 009a 013B     	 subs r3,r3,#1
 2761 009c BB61     	 str r3,[r7,#24]
 2762              	.L172:
 819:C:/Users/Yushev/git/wpcqi-optiga-trust-charge/optiga/externals/mbedtls/library\bignum.c ****             X->p[i - 1] = X->p[i - v0 - 1];
 2763              	 .loc 1 819 0 is_stmt 0 discriminator 1
 2764 009e BA69     	 ldr r2,[r7,#24]
 2765 00a0 3B69     	 ldr r3,[r7,#16]
 2766 00a2 9A42     	 cmp r2,r3
 2767 00a4 E4D8     	 bhi .L173
 821:C:/Users/Yushev/git/wpcqi-optiga-trust-charge/optiga/externals/mbedtls/library\bignum.c **** 
 822:C:/Users/Yushev/git/wpcqi-optiga-trust-charge/optiga/externals/mbedtls/library\bignum.c ****         for( ; i > 0; i-- )
 2768              	 .loc 1 822 0 is_stmt 1
 2769 00a6 0CE0     	 b .L174
 2770              	.L175:
 823:C:/Users/Yushev/git/wpcqi-optiga-trust-charge/optiga/externals/mbedtls/library\bignum.c ****             X->p[i - 1] = 0;
 2771              	 .loc 1 823 0 discriminator 2
 2772 00a8 7B68     	 ldr r3,[r7,#4]
 2773 00aa 9A68     	 ldr r2,[r3,#8]
 2774 00ac BB69     	 ldr r3,[r7,#24]
 2775 00ae 03F18043 	 add r3,r3,#1073741824
 2776 00b2 013B     	 subs r3,r3,#1
 2777 00b4 9B00     	 lsls r3,r3,#2
 2778 00b6 1344     	 add r3,r3,r2
 2779 00b8 0022     	 movs r2,#0
 2780 00ba 1A60     	 str r2,[r3]
 822:C:/Users/Yushev/git/wpcqi-optiga-trust-charge/optiga/externals/mbedtls/library\bignum.c ****             X->p[i - 1] = 0;
 2781              	 .loc 1 822 0 discriminator 2
 2782 00bc BB69     	 ldr r3,[r7,#24]
 2783 00be 013B     	 subs r3,r3,#1
 2784 00c0 BB61     	 str r3,[r7,#24]
 2785              	.L174:
 822:C:/Users/Yushev/git/wpcqi-optiga-trust-charge/optiga/externals/mbedtls/library\bignum.c ****             X->p[i - 1] = 0;
 2786              	 .loc 1 822 0 is_stmt 0 discriminator 1
 2787 00c2 BB69     	 ldr r3,[r7,#24]
 2788 00c4 002B     	 cmp r3,#0
 2789 00c6 EFD1     	 bne .L175
 2790              	.L171:
 824:C:/Users/Yushev/git/wpcqi-optiga-trust-charge/optiga/externals/mbedtls/library\bignum.c ****     }
 825:C:/Users/Yushev/git/wpcqi-optiga-trust-charge/optiga/externals/mbedtls/library\bignum.c **** 
 826:C:/Users/Yushev/git/wpcqi-optiga-trust-charge/optiga/externals/mbedtls/library\bignum.c ****     /*
 827:C:/Users/Yushev/git/wpcqi-optiga-trust-charge/optiga/externals/mbedtls/library\bignum.c ****      * shift by count % limb_size
 828:C:/Users/Yushev/git/wpcqi-optiga-trust-charge/optiga/externals/mbedtls/library\bignum.c ****      */
 829:C:/Users/Yushev/git/wpcqi-optiga-trust-charge/optiga/externals/mbedtls/library\bignum.c ****     if( t1 > 0 )
 2791              	 .loc 1 829 0 is_stmt 1
 2792 00c8 FB68     	 ldr r3,[r7,#12]
 2793 00ca 002B     	 cmp r3,#0
 2794 00cc 34D0     	 beq .L170
 830:C:/Users/Yushev/git/wpcqi-optiga-trust-charge/optiga/externals/mbedtls/library\bignum.c ****     {
 831:C:/Users/Yushev/git/wpcqi-optiga-trust-charge/optiga/externals/mbedtls/library\bignum.c ****         for( i = v0; i < X->n; i++ )
 2795              	 .loc 1 831 0
 2796 00ce 3B69     	 ldr r3,[r7,#16]
 2797 00d0 BB61     	 str r3,[r7,#24]
 2798 00d2 2CE0     	 b .L176
 2799              	.L177:
 832:C:/Users/Yushev/git/wpcqi-optiga-trust-charge/optiga/externals/mbedtls/library\bignum.c ****         {
 833:C:/Users/Yushev/git/wpcqi-optiga-trust-charge/optiga/externals/mbedtls/library\bignum.c ****             r1 = X->p[i] >> (biL - t1);
 2800              	 .loc 1 833 0 discriminator 3
 2801 00d4 7B68     	 ldr r3,[r7,#4]
 2802 00d6 9A68     	 ldr r2,[r3,#8]
 2803 00d8 BB69     	 ldr r3,[r7,#24]
 2804 00da 9B00     	 lsls r3,r3,#2
 2805 00dc 1344     	 add r3,r3,r2
 2806 00de 1B68     	 ldr r3,[r3]
 2807 00e0 FA68     	 ldr r2,[r7,#12]
 2808 00e2 C2F12002 	 rsb r2,r2,#32
 2809 00e6 D340     	 lsrs r3,r3,r2
 2810 00e8 BB60     	 str r3,[r7,#8]
 834:C:/Users/Yushev/git/wpcqi-optiga-trust-charge/optiga/externals/mbedtls/library\bignum.c ****             X->p[i] <<= t1;
 2811              	 .loc 1 834 0 discriminator 3
 2812 00ea 7B68     	 ldr r3,[r7,#4]
 2813 00ec 9A68     	 ldr r2,[r3,#8]
 2814 00ee BB69     	 ldr r3,[r7,#24]
 2815 00f0 9B00     	 lsls r3,r3,#2
 2816 00f2 1344     	 add r3,r3,r2
 2817 00f4 7A68     	 ldr r2,[r7,#4]
 2818 00f6 9168     	 ldr r1,[r2,#8]
 2819 00f8 BA69     	 ldr r2,[r7,#24]
 2820 00fa 9200     	 lsls r2,r2,#2
 2821 00fc 0A44     	 add r2,r2,r1
 2822 00fe 1168     	 ldr r1,[r2]
 2823 0100 FA68     	 ldr r2,[r7,#12]
 2824 0102 01FA02F2 	 lsl r2,r1,r2
 2825 0106 1A60     	 str r2,[r3]
 835:C:/Users/Yushev/git/wpcqi-optiga-trust-charge/optiga/externals/mbedtls/library\bignum.c ****             X->p[i] |= r0;
 2826              	 .loc 1 835 0 discriminator 3
 2827 0108 7B68     	 ldr r3,[r7,#4]
 2828 010a 9A68     	 ldr r2,[r3,#8]
 2829 010c BB69     	 ldr r3,[r7,#24]
 2830 010e 9B00     	 lsls r3,r3,#2
 2831 0110 1344     	 add r3,r3,r2
 2832 0112 7A68     	 ldr r2,[r7,#4]
 2833 0114 9168     	 ldr r1,[r2,#8]
 2834 0116 BA69     	 ldr r2,[r7,#24]
 2835 0118 9200     	 lsls r2,r2,#2
 2836 011a 0A44     	 add r2,r2,r1
 2837 011c 1168     	 ldr r1,[r2]
 2838 011e 7A69     	 ldr r2,[r7,#20]
 2839 0120 0A43     	 orrs r2,r2,r1
 2840 0122 1A60     	 str r2,[r3]
 836:C:/Users/Yushev/git/wpcqi-optiga-trust-charge/optiga/externals/mbedtls/library\bignum.c ****             r0 = r1;
 2841              	 .loc 1 836 0 discriminator 3
 2842 0124 BB68     	 ldr r3,[r7,#8]
 2843 0126 7B61     	 str r3,[r7,#20]
 831:C:/Users/Yushev/git/wpcqi-optiga-trust-charge/optiga/externals/mbedtls/library\bignum.c ****         {
 2844              	 .loc 1 831 0 discriminator 3
 2845 0128 BB69     	 ldr r3,[r7,#24]
 2846 012a 0133     	 adds r3,r3,#1
 2847 012c BB61     	 str r3,[r7,#24]
 2848              	.L176:
 831:C:/Users/Yushev/git/wpcqi-optiga-trust-charge/optiga/externals/mbedtls/library\bignum.c ****         {
 2849              	 .loc 1 831 0 is_stmt 0 discriminator 1
 2850 012e 7B68     	 ldr r3,[r7,#4]
 2851 0130 5A68     	 ldr r2,[r3,#4]
 2852 0132 BB69     	 ldr r3,[r7,#24]
 2853 0134 9A42     	 cmp r2,r3
 2854 0136 CDD8     	 bhi .L177
 2855              	.L170:
 837:C:/Users/Yushev/git/wpcqi-optiga-trust-charge/optiga/externals/mbedtls/library\bignum.c ****         }
 838:C:/Users/Yushev/git/wpcqi-optiga-trust-charge/optiga/externals/mbedtls/library\bignum.c ****     }
 839:C:/Users/Yushev/git/wpcqi-optiga-trust-charge/optiga/externals/mbedtls/library\bignum.c **** 
 840:C:/Users/Yushev/git/wpcqi-optiga-trust-charge/optiga/externals/mbedtls/library\bignum.c **** cleanup:
 841:C:/Users/Yushev/git/wpcqi-optiga-trust-charge/optiga/externals/mbedtls/library\bignum.c **** 
 842:C:/Users/Yushev/git/wpcqi-optiga-trust-charge/optiga/externals/mbedtls/library\bignum.c ****     return( ret );
 2856              	 .loc 1 842 0 is_stmt 1
 2857 0138 FB69     	 ldr r3,[r7,#28]
 843:C:/Users/Yushev/git/wpcqi-optiga-trust-charge/optiga/externals/mbedtls/library\bignum.c **** }
 2858              	 .loc 1 843 0
 2859 013a 1846     	 mov r0,r3
 2860 013c 2037     	 adds r7,r7,#32
 2861              	.LCFI118:
 2862              	 .cfi_def_cfa_offset 8
 2863 013e BD46     	 mov sp,r7
 2864              	.LCFI119:
 2865              	 .cfi_def_cfa_register 13
 2866              	 
 2867 0140 80BD     	 pop {r7,pc}
 2868              	 .cfi_endproc
 2869              	.LFE22:
 2871 0142 00BF     	 .section .text.mbedtls_mpi_shift_r,"ax",%progbits
 2872              	 .align 2
 2873              	 .global mbedtls_mpi_shift_r
 2874              	 .thumb
 2875              	 .thumb_func
 2877              	mbedtls_mpi_shift_r:
 2878              	.LFB23:
 844:C:/Users/Yushev/git/wpcqi-optiga-trust-charge/optiga/externals/mbedtls/library\bignum.c **** 
 845:C:/Users/Yushev/git/wpcqi-optiga-trust-charge/optiga/externals/mbedtls/library\bignum.c **** /*
 846:C:/Users/Yushev/git/wpcqi-optiga-trust-charge/optiga/externals/mbedtls/library\bignum.c ****  * Right-shift: X >>= count
 847:C:/Users/Yushev/git/wpcqi-optiga-trust-charge/optiga/externals/mbedtls/library\bignum.c ****  */
 848:C:/Users/Yushev/git/wpcqi-optiga-trust-charge/optiga/externals/mbedtls/library\bignum.c **** int mbedtls_mpi_shift_r( mbedtls_mpi *X, size_t count )
 849:C:/Users/Yushev/git/wpcqi-optiga-trust-charge/optiga/externals/mbedtls/library\bignum.c **** {
 2879              	 .loc 1 849 0
 2880              	 .cfi_startproc
 2881              	 
 2882              	 
 2883 0000 80B5     	 push {r7,lr}
 2884              	.LCFI120:
 2885              	 .cfi_def_cfa_offset 8
 2886              	 .cfi_offset 7,-8
 2887              	 .cfi_offset 14,-4
 2888 0002 88B0     	 sub sp,sp,#32
 2889              	.LCFI121:
 2890              	 .cfi_def_cfa_offset 40
 2891 0004 00AF     	 add r7,sp,#0
 2892              	.LCFI122:
 2893              	 .cfi_def_cfa_register 7
 2894 0006 7860     	 str r0,[r7,#4]
 2895 0008 3960     	 str r1,[r7]
 850:C:/Users/Yushev/git/wpcqi-optiga-trust-charge/optiga/externals/mbedtls/library\bignum.c ****     size_t i, v0, v1;
 851:C:/Users/Yushev/git/wpcqi-optiga-trust-charge/optiga/externals/mbedtls/library\bignum.c ****     mbedtls_mpi_uint r0 = 0, r1;
 2896              	 .loc 1 851 0
 2897 000a 0023     	 movs r3,#0
 2898 000c BB61     	 str r3,[r7,#24]
 852:C:/Users/Yushev/git/wpcqi-optiga-trust-charge/optiga/externals/mbedtls/library\bignum.c ****     MPI_VALIDATE_RET( X != NULL );
 853:C:/Users/Yushev/git/wpcqi-optiga-trust-charge/optiga/externals/mbedtls/library\bignum.c **** 
 854:C:/Users/Yushev/git/wpcqi-optiga-trust-charge/optiga/externals/mbedtls/library\bignum.c ****     v0 = count /  biL;
 2899              	 .loc 1 854 0
 2900 000e 3B68     	 ldr r3,[r7]
 2901 0010 5B09     	 lsrs r3,r3,#5
 2902 0012 7B61     	 str r3,[r7,#20]
 855:C:/Users/Yushev/git/wpcqi-optiga-trust-charge/optiga/externals/mbedtls/library\bignum.c ****     v1 = count & (biL - 1);
 2903              	 .loc 1 855 0
 2904 0014 3B68     	 ldr r3,[r7]
 2905 0016 03F01F03 	 and r3,r3,#31
 2906 001a 3B61     	 str r3,[r7,#16]
 856:C:/Users/Yushev/git/wpcqi-optiga-trust-charge/optiga/externals/mbedtls/library\bignum.c **** 
 857:C:/Users/Yushev/git/wpcqi-optiga-trust-charge/optiga/externals/mbedtls/library\bignum.c ****     if( v0 > X->n || ( v0 == X->n && v1 > 0 ) )
 2907              	 .loc 1 857 0
 2908 001c 7B68     	 ldr r3,[r7,#4]
 2909 001e 5A68     	 ldr r2,[r3,#4]
 2910 0020 7B69     	 ldr r3,[r7,#20]
 2911 0022 9A42     	 cmp r2,r3
 2912 0024 07D3     	 bcc .L180
 2913              	 .loc 1 857 0 is_stmt 0 discriminator 1
 2914 0026 7B68     	 ldr r3,[r7,#4]
 2915 0028 5A68     	 ldr r2,[r3,#4]
 2916 002a 7B69     	 ldr r3,[r7,#20]
 2917 002c 9A42     	 cmp r2,r3
 2918 002e 08D1     	 bne .L181
 2919              	 .loc 1 857 0 discriminator 2
 2920 0030 3B69     	 ldr r3,[r7,#16]
 2921 0032 002B     	 cmp r3,#0
 2922 0034 05D0     	 beq .L181
 2923              	.L180:
 858:C:/Users/Yushev/git/wpcqi-optiga-trust-charge/optiga/externals/mbedtls/library\bignum.c ****         return mbedtls_mpi_lset( X, 0 );
 2924              	 .loc 1 858 0 is_stmt 1
 2925 0036 7868     	 ldr r0,[r7,#4]
 2926 0038 0021     	 movs r1,#0
 2927 003a FFF7FEFF 	 bl mbedtls_mpi_lset
 2928 003e 0346     	 mov r3,r0
 2929 0040 74E0     	 b .L182
 2930              	.L181:
 859:C:/Users/Yushev/git/wpcqi-optiga-trust-charge/optiga/externals/mbedtls/library\bignum.c **** 
 860:C:/Users/Yushev/git/wpcqi-optiga-trust-charge/optiga/externals/mbedtls/library\bignum.c ****     /*
 861:C:/Users/Yushev/git/wpcqi-optiga-trust-charge/optiga/externals/mbedtls/library\bignum.c ****      * shift by count / limb_size
 862:C:/Users/Yushev/git/wpcqi-optiga-trust-charge/optiga/externals/mbedtls/library\bignum.c ****      */
 863:C:/Users/Yushev/git/wpcqi-optiga-trust-charge/optiga/externals/mbedtls/library\bignum.c ****     if( v0 > 0 )
 2931              	 .loc 1 863 0
 2932 0042 7B69     	 ldr r3,[r7,#20]
 2933 0044 002B     	 cmp r3,#0
 2934 0046 2AD0     	 beq .L183
 864:C:/Users/Yushev/git/wpcqi-optiga-trust-charge/optiga/externals/mbedtls/library\bignum.c ****     {
 865:C:/Users/Yushev/git/wpcqi-optiga-trust-charge/optiga/externals/mbedtls/library\bignum.c ****         for( i = 0; i < X->n - v0; i++ )
 2935              	 .loc 1 865 0
 2936 0048 0023     	 movs r3,#0
 2937 004a FB61     	 str r3,[r7,#28]
 2938 004c 10E0     	 b .L184
 2939              	.L185:
 866:C:/Users/Yushev/git/wpcqi-optiga-trust-charge/optiga/externals/mbedtls/library\bignum.c ****             X->p[i] = X->p[i + v0];
 2940              	 .loc 1 866 0 discriminator 3
 2941 004e 7B68     	 ldr r3,[r7,#4]
 2942 0050 9A68     	 ldr r2,[r3,#8]
 2943 0052 FB69     	 ldr r3,[r7,#28]
 2944 0054 9B00     	 lsls r3,r3,#2
 2945 0056 1344     	 add r3,r3,r2
 2946 0058 7A68     	 ldr r2,[r7,#4]
 2947 005a 9168     	 ldr r1,[r2,#8]
 2948 005c F869     	 ldr r0,[r7,#28]
 2949 005e 7A69     	 ldr r2,[r7,#20]
 2950 0060 0244     	 add r2,r2,r0
 2951 0062 9200     	 lsls r2,r2,#2
 2952 0064 0A44     	 add r2,r2,r1
 2953 0066 1268     	 ldr r2,[r2]
 2954 0068 1A60     	 str r2,[r3]
 865:C:/Users/Yushev/git/wpcqi-optiga-trust-charge/optiga/externals/mbedtls/library\bignum.c ****             X->p[i] = X->p[i + v0];
 2955              	 .loc 1 865 0 discriminator 3
 2956 006a FB69     	 ldr r3,[r7,#28]
 2957 006c 0133     	 adds r3,r3,#1
 2958 006e FB61     	 str r3,[r7,#28]
 2959              	.L184:
 865:C:/Users/Yushev/git/wpcqi-optiga-trust-charge/optiga/externals/mbedtls/library\bignum.c ****             X->p[i] = X->p[i + v0];
 2960              	 .loc 1 865 0 is_stmt 0 discriminator 1
 2961 0070 7B68     	 ldr r3,[r7,#4]
 2962 0072 5A68     	 ldr r2,[r3,#4]
 2963 0074 7B69     	 ldr r3,[r7,#20]
 2964 0076 D21A     	 subs r2,r2,r3
 2965 0078 FB69     	 ldr r3,[r7,#28]
 2966 007a 9A42     	 cmp r2,r3
 2967 007c E7D8     	 bhi .L185
 867:C:/Users/Yushev/git/wpcqi-optiga-trust-charge/optiga/externals/mbedtls/library\bignum.c **** 
 868:C:/Users/Yushev/git/wpcqi-optiga-trust-charge/optiga/externals/mbedtls/library\bignum.c ****         for( ; i < X->n; i++ )
 2968              	 .loc 1 868 0 is_stmt 1
 2969 007e 09E0     	 b .L186
 2970              	.L187:
 869:C:/Users/Yushev/git/wpcqi-optiga-trust-charge/optiga/externals/mbedtls/library\bignum.c ****             X->p[i] = 0;
 2971              	 .loc 1 869 0 discriminator 2
 2972 0080 7B68     	 ldr r3,[r7,#4]
 2973 0082 9A68     	 ldr r2,[r3,#8]
 2974 0084 FB69     	 ldr r3,[r7,#28]
 2975 0086 9B00     	 lsls r3,r3,#2
 2976 0088 1344     	 add r3,r3,r2
 2977 008a 0022     	 movs r2,#0
 2978 008c 1A60     	 str r2,[r3]
 868:C:/Users/Yushev/git/wpcqi-optiga-trust-charge/optiga/externals/mbedtls/library\bignum.c ****             X->p[i] = 0;
 2979              	 .loc 1 868 0 discriminator 2
 2980 008e FB69     	 ldr r3,[r7,#28]
 2981 0090 0133     	 adds r3,r3,#1
 2982 0092 FB61     	 str r3,[r7,#28]
 2983              	.L186:
 868:C:/Users/Yushev/git/wpcqi-optiga-trust-charge/optiga/externals/mbedtls/library\bignum.c ****             X->p[i] = 0;
 2984              	 .loc 1 868 0 is_stmt 0 discriminator 1
 2985 0094 7B68     	 ldr r3,[r7,#4]
 2986 0096 5A68     	 ldr r2,[r3,#4]
 2987 0098 FB69     	 ldr r3,[r7,#28]
 2988 009a 9A42     	 cmp r2,r3
 2989 009c F0D8     	 bhi .L187
 2990              	.L183:
 870:C:/Users/Yushev/git/wpcqi-optiga-trust-charge/optiga/externals/mbedtls/library\bignum.c ****     }
 871:C:/Users/Yushev/git/wpcqi-optiga-trust-charge/optiga/externals/mbedtls/library\bignum.c **** 
 872:C:/Users/Yushev/git/wpcqi-optiga-trust-charge/optiga/externals/mbedtls/library\bignum.c ****     /*
 873:C:/Users/Yushev/git/wpcqi-optiga-trust-charge/optiga/externals/mbedtls/library\bignum.c ****      * shift by count % limb_size
 874:C:/Users/Yushev/git/wpcqi-optiga-trust-charge/optiga/externals/mbedtls/library\bignum.c ****      */
 875:C:/Users/Yushev/git/wpcqi-optiga-trust-charge/optiga/externals/mbedtls/library\bignum.c ****     if( v1 > 0 )
 2991              	 .loc 1 875 0 is_stmt 1
 2992 009e 3B69     	 ldr r3,[r7,#16]
 2993 00a0 002B     	 cmp r3,#0
 2994 00a2 42D0     	 beq .L188
 876:C:/Users/Yushev/git/wpcqi-optiga-trust-charge/optiga/externals/mbedtls/library\bignum.c ****     {
 877:C:/Users/Yushev/git/wpcqi-optiga-trust-charge/optiga/externals/mbedtls/library\bignum.c ****         for( i = X->n; i > 0; i-- )
 2995              	 .loc 1 877 0
 2996 00a4 7B68     	 ldr r3,[r7,#4]
 2997 00a6 5B68     	 ldr r3,[r3,#4]
 2998 00a8 FB61     	 str r3,[r7,#28]
 2999 00aa 3BE0     	 b .L189
 3000              	.L190:
 878:C:/Users/Yushev/git/wpcqi-optiga-trust-charge/optiga/externals/mbedtls/library\bignum.c ****         {
 879:C:/Users/Yushev/git/wpcqi-optiga-trust-charge/optiga/externals/mbedtls/library\bignum.c ****             r1 = X->p[i - 1] << (biL - v1);
 3001              	 .loc 1 879 0 discriminator 3
 3002 00ac 7B68     	 ldr r3,[r7,#4]
 3003 00ae 9A68     	 ldr r2,[r3,#8]
 3004 00b0 FB69     	 ldr r3,[r7,#28]
 3005 00b2 03F18043 	 add r3,r3,#1073741824
 3006 00b6 013B     	 subs r3,r3,#1
 3007 00b8 9B00     	 lsls r3,r3,#2
 3008 00ba 1344     	 add r3,r3,r2
 3009 00bc 1B68     	 ldr r3,[r3]
 3010 00be 3A69     	 ldr r2,[r7,#16]
 3011 00c0 C2F12002 	 rsb r2,r2,#32
 3012 00c4 9340     	 lsls r3,r3,r2
 3013 00c6 FB60     	 str r3,[r7,#12]
 880:C:/Users/Yushev/git/wpcqi-optiga-trust-charge/optiga/externals/mbedtls/library\bignum.c ****             X->p[i - 1] >>= v1;
 3014              	 .loc 1 880 0 discriminator 3
 3015 00c8 7B68     	 ldr r3,[r7,#4]
 3016 00ca 9A68     	 ldr r2,[r3,#8]
 3017 00cc FB69     	 ldr r3,[r7,#28]
 3018 00ce 03F18043 	 add r3,r3,#1073741824
 3019 00d2 013B     	 subs r3,r3,#1
 3020 00d4 9B00     	 lsls r3,r3,#2
 3021 00d6 1A44     	 add r2,r2,r3
 3022 00d8 7B68     	 ldr r3,[r7,#4]
 3023 00da 9968     	 ldr r1,[r3,#8]
 3024 00dc FB69     	 ldr r3,[r7,#28]
 3025 00de 03F18043 	 add r3,r3,#1073741824
 3026 00e2 013B     	 subs r3,r3,#1
 3027 00e4 9B00     	 lsls r3,r3,#2
 3028 00e6 0B44     	 add r3,r3,r1
 3029 00e8 1968     	 ldr r1,[r3]
 3030 00ea 3B69     	 ldr r3,[r7,#16]
 3031 00ec 21FA03F3 	 lsr r3,r1,r3
 3032 00f0 1360     	 str r3,[r2]
 881:C:/Users/Yushev/git/wpcqi-optiga-trust-charge/optiga/externals/mbedtls/library\bignum.c ****             X->p[i - 1] |= r0;
 3033              	 .loc 1 881 0 discriminator 3
 3034 00f2 7B68     	 ldr r3,[r7,#4]
 3035 00f4 9A68     	 ldr r2,[r3,#8]
 3036 00f6 FB69     	 ldr r3,[r7,#28]
 3037 00f8 03F18043 	 add r3,r3,#1073741824
 3038 00fc 013B     	 subs r3,r3,#1
 3039 00fe 9B00     	 lsls r3,r3,#2
 3040 0100 1A44     	 add r2,r2,r3
 3041 0102 7B68     	 ldr r3,[r7,#4]
 3042 0104 9968     	 ldr r1,[r3,#8]
 3043 0106 FB69     	 ldr r3,[r7,#28]
 3044 0108 03F18043 	 add r3,r3,#1073741824
 3045 010c 013B     	 subs r3,r3,#1
 3046 010e 9B00     	 lsls r3,r3,#2
 3047 0110 0B44     	 add r3,r3,r1
 3048 0112 1968     	 ldr r1,[r3]
 3049 0114 BB69     	 ldr r3,[r7,#24]
 3050 0116 0B43     	 orrs r3,r3,r1
 3051 0118 1360     	 str r3,[r2]
 882:C:/Users/Yushev/git/wpcqi-optiga-trust-charge/optiga/externals/mbedtls/library\bignum.c ****             r0 = r1;
 3052              	 .loc 1 882 0 discriminator 3
 3053 011a FB68     	 ldr r3,[r7,#12]
 3054 011c BB61     	 str r3,[r7,#24]
 877:C:/Users/Yushev/git/wpcqi-optiga-trust-charge/optiga/externals/mbedtls/library\bignum.c ****         {
 3055              	 .loc 1 877 0 discriminator 3
 3056 011e FB69     	 ldr r3,[r7,#28]
 3057 0120 013B     	 subs r3,r3,#1
 3058 0122 FB61     	 str r3,[r7,#28]
 3059              	.L189:
 877:C:/Users/Yushev/git/wpcqi-optiga-trust-charge/optiga/externals/mbedtls/library\bignum.c ****         {
 3060              	 .loc 1 877 0 is_stmt 0 discriminator 1
 3061 0124 FB69     	 ldr r3,[r7,#28]
 3062 0126 002B     	 cmp r3,#0
 3063 0128 C0D1     	 bne .L190
 3064              	.L188:
 883:C:/Users/Yushev/git/wpcqi-optiga-trust-charge/optiga/externals/mbedtls/library\bignum.c ****         }
 884:C:/Users/Yushev/git/wpcqi-optiga-trust-charge/optiga/externals/mbedtls/library\bignum.c ****     }
 885:C:/Users/Yushev/git/wpcqi-optiga-trust-charge/optiga/externals/mbedtls/library\bignum.c **** 
 886:C:/Users/Yushev/git/wpcqi-optiga-trust-charge/optiga/externals/mbedtls/library\bignum.c ****     return( 0 );
 3065              	 .loc 1 886 0 is_stmt 1
 3066 012a 0023     	 movs r3,#0
 3067              	.L182:
 887:C:/Users/Yushev/git/wpcqi-optiga-trust-charge/optiga/externals/mbedtls/library\bignum.c **** }
 3068              	 .loc 1 887 0
 3069 012c 1846     	 mov r0,r3
 3070 012e 2037     	 adds r7,r7,#32
 3071              	.LCFI123:
 3072              	 .cfi_def_cfa_offset 8
 3073 0130 BD46     	 mov sp,r7
 3074              	.LCFI124:
 3075              	 .cfi_def_cfa_register 13
 3076              	 
 3077 0132 80BD     	 pop {r7,pc}
 3078              	 .cfi_endproc
 3079              	.LFE23:
 3081              	 .section .text.mbedtls_mpi_cmp_abs,"ax",%progbits
 3082              	 .align 2
 3083              	 .global mbedtls_mpi_cmp_abs
 3084              	 .thumb
 3085              	 .thumb_func
 3087              	mbedtls_mpi_cmp_abs:
 3088              	.LFB24:
 888:C:/Users/Yushev/git/wpcqi-optiga-trust-charge/optiga/externals/mbedtls/library\bignum.c **** 
 889:C:/Users/Yushev/git/wpcqi-optiga-trust-charge/optiga/externals/mbedtls/library\bignum.c **** /*
 890:C:/Users/Yushev/git/wpcqi-optiga-trust-charge/optiga/externals/mbedtls/library\bignum.c ****  * Compare unsigned values
 891:C:/Users/Yushev/git/wpcqi-optiga-trust-charge/optiga/externals/mbedtls/library\bignum.c ****  */
 892:C:/Users/Yushev/git/wpcqi-optiga-trust-charge/optiga/externals/mbedtls/library\bignum.c **** int mbedtls_mpi_cmp_abs( const mbedtls_mpi *X, const mbedtls_mpi *Y )
 893:C:/Users/Yushev/git/wpcqi-optiga-trust-charge/optiga/externals/mbedtls/library\bignum.c **** {
 3089              	 .loc 1 893 0
 3090              	 .cfi_startproc
 3091              	 
 3092              	 
 3093              	 
 3094 0000 80B4     	 push {r7}
 3095              	.LCFI125:
 3096              	 .cfi_def_cfa_offset 4
 3097              	 .cfi_offset 7,-4
 3098 0002 85B0     	 sub sp,sp,#20
 3099              	.LCFI126:
 3100              	 .cfi_def_cfa_offset 24
 3101 0004 00AF     	 add r7,sp,#0
 3102              	.LCFI127:
 3103              	 .cfi_def_cfa_register 7
 3104 0006 7860     	 str r0,[r7,#4]
 3105 0008 3960     	 str r1,[r7]
 894:C:/Users/Yushev/git/wpcqi-optiga-trust-charge/optiga/externals/mbedtls/library\bignum.c ****     size_t i, j;
 895:C:/Users/Yushev/git/wpcqi-optiga-trust-charge/optiga/externals/mbedtls/library\bignum.c ****     MPI_VALIDATE_RET( X != NULL );
 896:C:/Users/Yushev/git/wpcqi-optiga-trust-charge/optiga/externals/mbedtls/library\bignum.c ****     MPI_VALIDATE_RET( Y != NULL );
 897:C:/Users/Yushev/git/wpcqi-optiga-trust-charge/optiga/externals/mbedtls/library\bignum.c **** 
 898:C:/Users/Yushev/git/wpcqi-optiga-trust-charge/optiga/externals/mbedtls/library\bignum.c ****     for( i = X->n; i > 0; i-- )
 3106              	 .loc 1 898 0
 3107 000a 7B68     	 ldr r3,[r7,#4]
 3108 000c 5B68     	 ldr r3,[r3,#4]
 3109 000e FB60     	 str r3,[r7,#12]
 3110 0010 0EE0     	 b .L192
 3111              	.L195:
 899:C:/Users/Yushev/git/wpcqi-optiga-trust-charge/optiga/externals/mbedtls/library\bignum.c ****         if( X->p[i - 1] != 0 )
 3112              	 .loc 1 899 0
 3113 0012 7B68     	 ldr r3,[r7,#4]
 3114 0014 9A68     	 ldr r2,[r3,#8]
 3115 0016 FB68     	 ldr r3,[r7,#12]
 3116 0018 03F18043 	 add r3,r3,#1073741824
 3117 001c 013B     	 subs r3,r3,#1
 3118 001e 9B00     	 lsls r3,r3,#2
 3119 0020 1344     	 add r3,r3,r2
 3120 0022 1B68     	 ldr r3,[r3]
 3121 0024 002B     	 cmp r3,#0
 3122 0026 00D0     	 beq .L193
 900:C:/Users/Yushev/git/wpcqi-optiga-trust-charge/optiga/externals/mbedtls/library\bignum.c ****             break;
 3123              	 .loc 1 900 0
 3124 0028 05E0     	 b .L194
 3125              	.L193:
 898:C:/Users/Yushev/git/wpcqi-optiga-trust-charge/optiga/externals/mbedtls/library\bignum.c ****         if( X->p[i - 1] != 0 )
 3126              	 .loc 1 898 0 discriminator 2
 3127 002a FB68     	 ldr r3,[r7,#12]
 3128 002c 013B     	 subs r3,r3,#1
 3129 002e FB60     	 str r3,[r7,#12]
 3130              	.L192:
 898:C:/Users/Yushev/git/wpcqi-optiga-trust-charge/optiga/externals/mbedtls/library\bignum.c ****         if( X->p[i - 1] != 0 )
 3131              	 .loc 1 898 0 is_stmt 0 discriminator 1
 3132 0030 FB68     	 ldr r3,[r7,#12]
 3133 0032 002B     	 cmp r3,#0
 3134 0034 EDD1     	 bne .L195
 3135              	.L194:
 901:C:/Users/Yushev/git/wpcqi-optiga-trust-charge/optiga/externals/mbedtls/library\bignum.c **** 
 902:C:/Users/Yushev/git/wpcqi-optiga-trust-charge/optiga/externals/mbedtls/library\bignum.c ****     for( j = Y->n; j > 0; j-- )
 3136              	 .loc 1 902 0 is_stmt 1
 3137 0036 3B68     	 ldr r3,[r7]
 3138 0038 5B68     	 ldr r3,[r3,#4]
 3139 003a BB60     	 str r3,[r7,#8]
 3140 003c 0EE0     	 b .L196
 3141              	.L199:
 903:C:/Users/Yushev/git/wpcqi-optiga-trust-charge/optiga/externals/mbedtls/library\bignum.c ****         if( Y->p[j - 1] != 0 )
 3142              	 .loc 1 903 0
 3143 003e 3B68     	 ldr r3,[r7]
 3144 0040 9A68     	 ldr r2,[r3,#8]
 3145 0042 BB68     	 ldr r3,[r7,#8]
 3146 0044 03F18043 	 add r3,r3,#1073741824
 3147 0048 013B     	 subs r3,r3,#1
 3148 004a 9B00     	 lsls r3,r3,#2
 3149 004c 1344     	 add r3,r3,r2
 3150 004e 1B68     	 ldr r3,[r3]
 3151 0050 002B     	 cmp r3,#0
 3152 0052 00D0     	 beq .L197
 904:C:/Users/Yushev/git/wpcqi-optiga-trust-charge/optiga/externals/mbedtls/library\bignum.c ****             break;
 3153              	 .loc 1 904 0
 3154 0054 05E0     	 b .L198
 3155              	.L197:
 902:C:/Users/Yushev/git/wpcqi-optiga-trust-charge/optiga/externals/mbedtls/library\bignum.c ****         if( Y->p[j - 1] != 0 )
 3156              	 .loc 1 902 0 discriminator 2
 3157 0056 BB68     	 ldr r3,[r7,#8]
 3158 0058 013B     	 subs r3,r3,#1
 3159 005a BB60     	 str r3,[r7,#8]
 3160              	.L196:
 902:C:/Users/Yushev/git/wpcqi-optiga-trust-charge/optiga/externals/mbedtls/library\bignum.c ****         if( Y->p[j - 1] != 0 )
 3161              	 .loc 1 902 0 is_stmt 0 discriminator 1
 3162 005c BB68     	 ldr r3,[r7,#8]
 3163 005e 002B     	 cmp r3,#0
 3164 0060 EDD1     	 bne .L199
 3165              	.L198:
 905:C:/Users/Yushev/git/wpcqi-optiga-trust-charge/optiga/externals/mbedtls/library\bignum.c **** 
 906:C:/Users/Yushev/git/wpcqi-optiga-trust-charge/optiga/externals/mbedtls/library\bignum.c ****     if( i == 0 && j == 0 )
 3166              	 .loc 1 906 0 is_stmt 1
 3167 0062 FB68     	 ldr r3,[r7,#12]
 3168 0064 002B     	 cmp r3,#0
 3169 0066 04D1     	 bne .L200
 3170              	 .loc 1 906 0 is_stmt 0 discriminator 1
 3171 0068 BB68     	 ldr r3,[r7,#8]
 3172 006a 002B     	 cmp r3,#0
 3173 006c 01D1     	 bne .L200
 907:C:/Users/Yushev/git/wpcqi-optiga-trust-charge/optiga/externals/mbedtls/library\bignum.c ****         return( 0 );
 3174              	 .loc 1 907 0 is_stmt 1
 3175 006e 0023     	 movs r3,#0
 3176 0070 41E0     	 b .L201
 3177              	.L200:
 908:C:/Users/Yushev/git/wpcqi-optiga-trust-charge/optiga/externals/mbedtls/library\bignum.c **** 
 909:C:/Users/Yushev/git/wpcqi-optiga-trust-charge/optiga/externals/mbedtls/library\bignum.c ****     if( i > j ) return(  1 );
 3178              	 .loc 1 909 0
 3179 0072 FA68     	 ldr r2,[r7,#12]
 3180 0074 BB68     	 ldr r3,[r7,#8]
 3181 0076 9A42     	 cmp r2,r3
 3182 0078 01D9     	 bls .L202
 3183              	 .loc 1 909 0 is_stmt 0 discriminator 1
 3184 007a 0123     	 movs r3,#1
 3185 007c 3BE0     	 b .L201
 3186              	.L202:
 910:C:/Users/Yushev/git/wpcqi-optiga-trust-charge/optiga/externals/mbedtls/library\bignum.c ****     if( j > i ) return( -1 );
 3187              	 .loc 1 910 0 is_stmt 1
 3188 007e BA68     	 ldr r2,[r7,#8]
 3189 0080 FB68     	 ldr r3,[r7,#12]
 3190 0082 9A42     	 cmp r2,r3
 3191 0084 02D9     	 bls .L203
 3192              	 .loc 1 910 0 is_stmt 0 discriminator 1
 3193 0086 4FF0FF33 	 mov r3,#-1
 3194 008a 34E0     	 b .L201
 3195              	.L203:
 911:C:/Users/Yushev/git/wpcqi-optiga-trust-charge/optiga/externals/mbedtls/library\bignum.c **** 
 912:C:/Users/Yushev/git/wpcqi-optiga-trust-charge/optiga/externals/mbedtls/library\bignum.c ****     for( ; i > 0; i-- )
 3196              	 .loc 1 912 0 is_stmt 1
 3197 008c 2FE0     	 b .L204
 3198              	.L207:
 913:C:/Users/Yushev/git/wpcqi-optiga-trust-charge/optiga/externals/mbedtls/library\bignum.c ****     {
 914:C:/Users/Yushev/git/wpcqi-optiga-trust-charge/optiga/externals/mbedtls/library\bignum.c ****         if( X->p[i - 1] > Y->p[i - 1] ) return(  1 );
 3199              	 .loc 1 914 0
 3200 008e 7B68     	 ldr r3,[r7,#4]
 3201 0090 9A68     	 ldr r2,[r3,#8]
 3202 0092 FB68     	 ldr r3,[r7,#12]
 3203 0094 03F18043 	 add r3,r3,#1073741824
 3204 0098 013B     	 subs r3,r3,#1
 3205 009a 9B00     	 lsls r3,r3,#2
 3206 009c 1344     	 add r3,r3,r2
 3207 009e 1A68     	 ldr r2,[r3]
 3208 00a0 3B68     	 ldr r3,[r7]
 3209 00a2 9968     	 ldr r1,[r3,#8]
 3210 00a4 FB68     	 ldr r3,[r7,#12]
 3211 00a6 03F18043 	 add r3,r3,#1073741824
 3212 00aa 013B     	 subs r3,r3,#1
 3213 00ac 9B00     	 lsls r3,r3,#2
 3214 00ae 0B44     	 add r3,r3,r1
 3215 00b0 1B68     	 ldr r3,[r3]
 3216 00b2 9A42     	 cmp r2,r3
 3217 00b4 01D9     	 bls .L205
 3218              	 .loc 1 914 0 is_stmt 0 discriminator 1
 3219 00b6 0123     	 movs r3,#1
 3220 00b8 1DE0     	 b .L201
 3221              	.L205:
 915:C:/Users/Yushev/git/wpcqi-optiga-trust-charge/optiga/externals/mbedtls/library\bignum.c ****         if( X->p[i - 1] < Y->p[i - 1] ) return( -1 );
 3222              	 .loc 1 915 0 is_stmt 1
 3223 00ba 7B68     	 ldr r3,[r7,#4]
 3224 00bc 9A68     	 ldr r2,[r3,#8]
 3225 00be FB68     	 ldr r3,[r7,#12]
 3226 00c0 03F18043 	 add r3,r3,#1073741824
 3227 00c4 013B     	 subs r3,r3,#1
 3228 00c6 9B00     	 lsls r3,r3,#2
 3229 00c8 1344     	 add r3,r3,r2
 3230 00ca 1A68     	 ldr r2,[r3]
 3231 00cc 3B68     	 ldr r3,[r7]
 3232 00ce 9968     	 ldr r1,[r3,#8]
 3233 00d0 FB68     	 ldr r3,[r7,#12]
 3234 00d2 03F18043 	 add r3,r3,#1073741824
 3235 00d6 013B     	 subs r3,r3,#1
 3236 00d8 9B00     	 lsls r3,r3,#2
 3237 00da 0B44     	 add r3,r3,r1
 3238 00dc 1B68     	 ldr r3,[r3]
 3239 00de 9A42     	 cmp r2,r3
 3240 00e0 02D2     	 bcs .L206
 3241              	 .loc 1 915 0 is_stmt 0 discriminator 1
 3242 00e2 4FF0FF33 	 mov r3,#-1
 3243 00e6 06E0     	 b .L201
 3244              	.L206:
 912:C:/Users/Yushev/git/wpcqi-optiga-trust-charge/optiga/externals/mbedtls/library\bignum.c ****     {
 3245              	 .loc 1 912 0 is_stmt 1
 3246 00e8 FB68     	 ldr r3,[r7,#12]
 3247 00ea 013B     	 subs r3,r3,#1
 3248 00ec FB60     	 str r3,[r7,#12]
 3249              	.L204:
 912:C:/Users/Yushev/git/wpcqi-optiga-trust-charge/optiga/externals/mbedtls/library\bignum.c ****     {
 3250              	 .loc 1 912 0 is_stmt 0 discriminator 1
 3251 00ee FB68     	 ldr r3,[r7,#12]
 3252 00f0 002B     	 cmp r3,#0
 3253 00f2 CCD1     	 bne .L207
 916:C:/Users/Yushev/git/wpcqi-optiga-trust-charge/optiga/externals/mbedtls/library\bignum.c ****     }
 917:C:/Users/Yushev/git/wpcqi-optiga-trust-charge/optiga/externals/mbedtls/library\bignum.c **** 
 918:C:/Users/Yushev/git/wpcqi-optiga-trust-charge/optiga/externals/mbedtls/library\bignum.c ****     return( 0 );
 3254              	 .loc 1 918 0 is_stmt 1
 3255 00f4 0023     	 movs r3,#0
 3256              	.L201:
 919:C:/Users/Yushev/git/wpcqi-optiga-trust-charge/optiga/externals/mbedtls/library\bignum.c **** }
 3257              	 .loc 1 919 0
 3258 00f6 1846     	 mov r0,r3
 3259 00f8 1437     	 adds r7,r7,#20
 3260              	.LCFI128:
 3261              	 .cfi_def_cfa_offset 4
 3262 00fa BD46     	 mov sp,r7
 3263              	.LCFI129:
 3264              	 .cfi_def_cfa_register 13
 3265              	 
 3266 00fc 5DF8047B 	 ldr r7,[sp],#4
 3267              	.LCFI130:
 3268              	 .cfi_restore 7
 3269              	 .cfi_def_cfa_offset 0
 3270 0100 7047     	 bx lr
 3271              	 .cfi_endproc
 3272              	.LFE24:
 3274 0102 00BF     	 .section .text.mbedtls_mpi_cmp_mpi,"ax",%progbits
 3275              	 .align 2
 3276              	 .global mbedtls_mpi_cmp_mpi
 3277              	 .thumb
 3278              	 .thumb_func
 3280              	mbedtls_mpi_cmp_mpi:
 3281              	.LFB25:
 920:C:/Users/Yushev/git/wpcqi-optiga-trust-charge/optiga/externals/mbedtls/library\bignum.c **** 
 921:C:/Users/Yushev/git/wpcqi-optiga-trust-charge/optiga/externals/mbedtls/library\bignum.c **** /*
 922:C:/Users/Yushev/git/wpcqi-optiga-trust-charge/optiga/externals/mbedtls/library\bignum.c ****  * Compare signed values
 923:C:/Users/Yushev/git/wpcqi-optiga-trust-charge/optiga/externals/mbedtls/library\bignum.c ****  */
 924:C:/Users/Yushev/git/wpcqi-optiga-trust-charge/optiga/externals/mbedtls/library\bignum.c **** int mbedtls_mpi_cmp_mpi( const mbedtls_mpi *X, const mbedtls_mpi *Y )
 925:C:/Users/Yushev/git/wpcqi-optiga-trust-charge/optiga/externals/mbedtls/library\bignum.c **** {
 3282              	 .loc 1 925 0
 3283              	 .cfi_startproc
 3284              	 
 3285              	 
 3286              	 
 3287 0000 80B4     	 push {r7}
 3288              	.LCFI131:
 3289              	 .cfi_def_cfa_offset 4
 3290              	 .cfi_offset 7,-4
 3291 0002 85B0     	 sub sp,sp,#20
 3292              	.LCFI132:
 3293              	 .cfi_def_cfa_offset 24
 3294 0004 00AF     	 add r7,sp,#0
 3295              	.LCFI133:
 3296              	 .cfi_def_cfa_register 7
 3297 0006 7860     	 str r0,[r7,#4]
 3298 0008 3960     	 str r1,[r7]
 926:C:/Users/Yushev/git/wpcqi-optiga-trust-charge/optiga/externals/mbedtls/library\bignum.c ****     size_t i, j;
 927:C:/Users/Yushev/git/wpcqi-optiga-trust-charge/optiga/externals/mbedtls/library\bignum.c ****     MPI_VALIDATE_RET( X != NULL );
 928:C:/Users/Yushev/git/wpcqi-optiga-trust-charge/optiga/externals/mbedtls/library\bignum.c ****     MPI_VALIDATE_RET( Y != NULL );
 929:C:/Users/Yushev/git/wpcqi-optiga-trust-charge/optiga/externals/mbedtls/library\bignum.c **** 
 930:C:/Users/Yushev/git/wpcqi-optiga-trust-charge/optiga/externals/mbedtls/library\bignum.c ****     for( i = X->n; i > 0; i-- )
 3299              	 .loc 1 930 0
 3300 000a 7B68     	 ldr r3,[r7,#4]
 3301 000c 5B68     	 ldr r3,[r3,#4]
 3302 000e FB60     	 str r3,[r7,#12]
 3303 0010 0EE0     	 b .L209
 3304              	.L212:
 931:C:/Users/Yushev/git/wpcqi-optiga-trust-charge/optiga/externals/mbedtls/library\bignum.c ****         if( X->p[i - 1] != 0 )
 3305              	 .loc 1 931 0
 3306 0012 7B68     	 ldr r3,[r7,#4]
 3307 0014 9A68     	 ldr r2,[r3,#8]
 3308 0016 FB68     	 ldr r3,[r7,#12]
 3309 0018 03F18043 	 add r3,r3,#1073741824
 3310 001c 013B     	 subs r3,r3,#1
 3311 001e 9B00     	 lsls r3,r3,#2
 3312 0020 1344     	 add r3,r3,r2
 3313 0022 1B68     	 ldr r3,[r3]
 3314 0024 002B     	 cmp r3,#0
 3315 0026 00D0     	 beq .L210
 932:C:/Users/Yushev/git/wpcqi-optiga-trust-charge/optiga/externals/mbedtls/library\bignum.c ****             break;
 3316              	 .loc 1 932 0
 3317 0028 05E0     	 b .L211
 3318              	.L210:
 930:C:/Users/Yushev/git/wpcqi-optiga-trust-charge/optiga/externals/mbedtls/library\bignum.c ****         if( X->p[i - 1] != 0 )
 3319              	 .loc 1 930 0 discriminator 2
 3320 002a FB68     	 ldr r3,[r7,#12]
 3321 002c 013B     	 subs r3,r3,#1
 3322 002e FB60     	 str r3,[r7,#12]
 3323              	.L209:
 930:C:/Users/Yushev/git/wpcqi-optiga-trust-charge/optiga/externals/mbedtls/library\bignum.c ****         if( X->p[i - 1] != 0 )
 3324              	 .loc 1 930 0 is_stmt 0 discriminator 1
 3325 0030 FB68     	 ldr r3,[r7,#12]
 3326 0032 002B     	 cmp r3,#0
 3327 0034 EDD1     	 bne .L212
 3328              	.L211:
 933:C:/Users/Yushev/git/wpcqi-optiga-trust-charge/optiga/externals/mbedtls/library\bignum.c **** 
 934:C:/Users/Yushev/git/wpcqi-optiga-trust-charge/optiga/externals/mbedtls/library\bignum.c ****     for( j = Y->n; j > 0; j-- )
 3329              	 .loc 1 934 0 is_stmt 1
 3330 0036 3B68     	 ldr r3,[r7]
 3331 0038 5B68     	 ldr r3,[r3,#4]
 3332 003a BB60     	 str r3,[r7,#8]
 3333 003c 0EE0     	 b .L213
 3334              	.L216:
 935:C:/Users/Yushev/git/wpcqi-optiga-trust-charge/optiga/externals/mbedtls/library\bignum.c ****         if( Y->p[j - 1] != 0 )
 3335              	 .loc 1 935 0
 3336 003e 3B68     	 ldr r3,[r7]
 3337 0040 9A68     	 ldr r2,[r3,#8]
 3338 0042 BB68     	 ldr r3,[r7,#8]
 3339 0044 03F18043 	 add r3,r3,#1073741824
 3340 0048 013B     	 subs r3,r3,#1
 3341 004a 9B00     	 lsls r3,r3,#2
 3342 004c 1344     	 add r3,r3,r2
 3343 004e 1B68     	 ldr r3,[r3]
 3344 0050 002B     	 cmp r3,#0
 3345 0052 00D0     	 beq .L214
 936:C:/Users/Yushev/git/wpcqi-optiga-trust-charge/optiga/externals/mbedtls/library\bignum.c ****             break;
 3346              	 .loc 1 936 0
 3347 0054 05E0     	 b .L215
 3348              	.L214:
 934:C:/Users/Yushev/git/wpcqi-optiga-trust-charge/optiga/externals/mbedtls/library\bignum.c ****         if( Y->p[j - 1] != 0 )
 3349              	 .loc 1 934 0 discriminator 2
 3350 0056 BB68     	 ldr r3,[r7,#8]
 3351 0058 013B     	 subs r3,r3,#1
 3352 005a BB60     	 str r3,[r7,#8]
 3353              	.L213:
 934:C:/Users/Yushev/git/wpcqi-optiga-trust-charge/optiga/externals/mbedtls/library\bignum.c ****         if( Y->p[j - 1] != 0 )
 3354              	 .loc 1 934 0 is_stmt 0 discriminator 1
 3355 005c BB68     	 ldr r3,[r7,#8]
 3356 005e 002B     	 cmp r3,#0
 3357 0060 EDD1     	 bne .L216
 3358              	.L215:
 937:C:/Users/Yushev/git/wpcqi-optiga-trust-charge/optiga/externals/mbedtls/library\bignum.c **** 
 938:C:/Users/Yushev/git/wpcqi-optiga-trust-charge/optiga/externals/mbedtls/library\bignum.c ****     if( i == 0 && j == 0 )
 3359              	 .loc 1 938 0 is_stmt 1
 3360 0062 FB68     	 ldr r3,[r7,#12]
 3361 0064 002B     	 cmp r3,#0
 3362 0066 04D1     	 bne .L217
 3363              	 .loc 1 938 0 is_stmt 0 discriminator 1
 3364 0068 BB68     	 ldr r3,[r7,#8]
 3365 006a 002B     	 cmp r3,#0
 3366 006c 01D1     	 bne .L217
 939:C:/Users/Yushev/git/wpcqi-optiga-trust-charge/optiga/externals/mbedtls/library\bignum.c ****         return( 0 );
 3367              	 .loc 1 939 0 is_stmt 1
 3368 006e 0023     	 movs r3,#0
 3369 0070 5AE0     	 b .L218
 3370              	.L217:
 940:C:/Users/Yushev/git/wpcqi-optiga-trust-charge/optiga/externals/mbedtls/library\bignum.c **** 
 941:C:/Users/Yushev/git/wpcqi-optiga-trust-charge/optiga/externals/mbedtls/library\bignum.c ****     if( i > j ) return(  X->s );
 3371              	 .loc 1 941 0
 3372 0072 FA68     	 ldr r2,[r7,#12]
 3373 0074 BB68     	 ldr r3,[r7,#8]
 3374 0076 9A42     	 cmp r2,r3
 3375 0078 02D9     	 bls .L219
 3376              	 .loc 1 941 0 is_stmt 0 discriminator 1
 3377 007a 7B68     	 ldr r3,[r7,#4]
 3378 007c 1B68     	 ldr r3,[r3]
 3379 007e 53E0     	 b .L218
 3380              	.L219:
 942:C:/Users/Yushev/git/wpcqi-optiga-trust-charge/optiga/externals/mbedtls/library\bignum.c ****     if( j > i ) return( -Y->s );
 3381              	 .loc 1 942 0 is_stmt 1
 3382 0080 BA68     	 ldr r2,[r7,#8]
 3383 0082 FB68     	 ldr r3,[r7,#12]
 3384 0084 9A42     	 cmp r2,r3
 3385 0086 03D9     	 bls .L220
 3386              	 .loc 1 942 0 is_stmt 0 discriminator 1
 3387 0088 3B68     	 ldr r3,[r7]
 3388 008a 1B68     	 ldr r3,[r3]
 3389 008c 5B42     	 negs r3,r3
 3390 008e 4BE0     	 b .L218
 3391              	.L220:
 943:C:/Users/Yushev/git/wpcqi-optiga-trust-charge/optiga/externals/mbedtls/library\bignum.c **** 
 944:C:/Users/Yushev/git/wpcqi-optiga-trust-charge/optiga/externals/mbedtls/library\bignum.c ****     if( X->s > 0 && Y->s < 0 ) return(  1 );
 3392              	 .loc 1 944 0 is_stmt 1
 3393 0090 7B68     	 ldr r3,[r7,#4]
 3394 0092 1B68     	 ldr r3,[r3]
 3395 0094 002B     	 cmp r3,#0
 3396 0096 05DD     	 ble .L221
 3397              	 .loc 1 944 0 is_stmt 0 discriminator 1
 3398 0098 3B68     	 ldr r3,[r7]
 3399 009a 1B68     	 ldr r3,[r3]
 3400 009c 002B     	 cmp r3,#0
 3401 009e 01DA     	 bge .L221
 3402              	 .loc 1 944 0 discriminator 2
 3403 00a0 0123     	 movs r3,#1
 3404 00a2 41E0     	 b .L218
 3405              	.L221:
 945:C:/Users/Yushev/git/wpcqi-optiga-trust-charge/optiga/externals/mbedtls/library\bignum.c ****     if( Y->s > 0 && X->s < 0 ) return( -1 );
 3406              	 .loc 1 945 0 is_stmt 1
 3407 00a4 3B68     	 ldr r3,[r7]
 3408 00a6 1B68     	 ldr r3,[r3]
 3409 00a8 002B     	 cmp r3,#0
 3410 00aa 06DD     	 ble .L222
 3411              	 .loc 1 945 0 is_stmt 0 discriminator 1
 3412 00ac 7B68     	 ldr r3,[r7,#4]
 3413 00ae 1B68     	 ldr r3,[r3]
 3414 00b0 002B     	 cmp r3,#0
 3415 00b2 02DA     	 bge .L222
 3416              	 .loc 1 945 0 discriminator 2
 3417 00b4 4FF0FF33 	 mov r3,#-1
 3418 00b8 36E0     	 b .L218
 3419              	.L222:
 946:C:/Users/Yushev/git/wpcqi-optiga-trust-charge/optiga/externals/mbedtls/library\bignum.c **** 
 947:C:/Users/Yushev/git/wpcqi-optiga-trust-charge/optiga/externals/mbedtls/library\bignum.c ****     for( ; i > 0; i-- )
 3420              	 .loc 1 947 0 is_stmt 1
 3421 00ba 31E0     	 b .L223
 3422              	.L226:
 948:C:/Users/Yushev/git/wpcqi-optiga-trust-charge/optiga/externals/mbedtls/library\bignum.c ****     {
 949:C:/Users/Yushev/git/wpcqi-optiga-trust-charge/optiga/externals/mbedtls/library\bignum.c ****         if( X->p[i - 1] > Y->p[i - 1] ) return(  X->s );
 3423              	 .loc 1 949 0
 3424 00bc 7B68     	 ldr r3,[r7,#4]
 3425 00be 9A68     	 ldr r2,[r3,#8]
 3426 00c0 FB68     	 ldr r3,[r7,#12]
 3427 00c2 03F18043 	 add r3,r3,#1073741824
 3428 00c6 013B     	 subs r3,r3,#1
 3429 00c8 9B00     	 lsls r3,r3,#2
 3430 00ca 1344     	 add r3,r3,r2
 3431 00cc 1A68     	 ldr r2,[r3]
 3432 00ce 3B68     	 ldr r3,[r7]
 3433 00d0 9968     	 ldr r1,[r3,#8]
 3434 00d2 FB68     	 ldr r3,[r7,#12]
 3435 00d4 03F18043 	 add r3,r3,#1073741824
 3436 00d8 013B     	 subs r3,r3,#1
 3437 00da 9B00     	 lsls r3,r3,#2
 3438 00dc 0B44     	 add r3,r3,r1
 3439 00de 1B68     	 ldr r3,[r3]
 3440 00e0 9A42     	 cmp r2,r3
 3441 00e2 02D9     	 bls .L224
 3442              	 .loc 1 949 0 is_stmt 0 discriminator 1
 3443 00e4 7B68     	 ldr r3,[r7,#4]
 3444 00e6 1B68     	 ldr r3,[r3]
 3445 00e8 1EE0     	 b .L218
 3446              	.L224:
 950:C:/Users/Yushev/git/wpcqi-optiga-trust-charge/optiga/externals/mbedtls/library\bignum.c ****         if( X->p[i - 1] < Y->p[i - 1] ) return( -X->s );
 3447              	 .loc 1 950 0 is_stmt 1
 3448 00ea 7B68     	 ldr r3,[r7,#4]
 3449 00ec 9A68     	 ldr r2,[r3,#8]
 3450 00ee FB68     	 ldr r3,[r7,#12]
 3451 00f0 03F18043 	 add r3,r3,#1073741824
 3452 00f4 013B     	 subs r3,r3,#1
 3453 00f6 9B00     	 lsls r3,r3,#2
 3454 00f8 1344     	 add r3,r3,r2
 3455 00fa 1A68     	 ldr r2,[r3]
 3456 00fc 3B68     	 ldr r3,[r7]
 3457 00fe 9968     	 ldr r1,[r3,#8]
 3458 0100 FB68     	 ldr r3,[r7,#12]
 3459 0102 03F18043 	 add r3,r3,#1073741824
 3460 0106 013B     	 subs r3,r3,#1
 3461 0108 9B00     	 lsls r3,r3,#2
 3462 010a 0B44     	 add r3,r3,r1
 3463 010c 1B68     	 ldr r3,[r3]
 3464 010e 9A42     	 cmp r2,r3
 3465 0110 03D2     	 bcs .L225
 3466              	 .loc 1 950 0 is_stmt 0 discriminator 1
 3467 0112 7B68     	 ldr r3,[r7,#4]
 3468 0114 1B68     	 ldr r3,[r3]
 3469 0116 5B42     	 negs r3,r3
 3470 0118 06E0     	 b .L218
 3471              	.L225:
 947:C:/Users/Yushev/git/wpcqi-optiga-trust-charge/optiga/externals/mbedtls/library\bignum.c ****     {
 3472              	 .loc 1 947 0 is_stmt 1
 3473 011a FB68     	 ldr r3,[r7,#12]
 3474 011c 013B     	 subs r3,r3,#1
 3475 011e FB60     	 str r3,[r7,#12]
 3476              	.L223:
 947:C:/Users/Yushev/git/wpcqi-optiga-trust-charge/optiga/externals/mbedtls/library\bignum.c ****     {
 3477              	 .loc 1 947 0 is_stmt 0 discriminator 1
 3478 0120 FB68     	 ldr r3,[r7,#12]
 3479 0122 002B     	 cmp r3,#0
 3480 0124 CAD1     	 bne .L226
 951:C:/Users/Yushev/git/wpcqi-optiga-trust-charge/optiga/externals/mbedtls/library\bignum.c ****     }
 952:C:/Users/Yushev/git/wpcqi-optiga-trust-charge/optiga/externals/mbedtls/library\bignum.c **** 
 953:C:/Users/Yushev/git/wpcqi-optiga-trust-charge/optiga/externals/mbedtls/library\bignum.c ****     return( 0 );
 3481              	 .loc 1 953 0 is_stmt 1
 3482 0126 0023     	 movs r3,#0
 3483              	.L218:
 954:C:/Users/Yushev/git/wpcqi-optiga-trust-charge/optiga/externals/mbedtls/library\bignum.c **** }
 3484              	 .loc 1 954 0
 3485 0128 1846     	 mov r0,r3
 3486 012a 1437     	 adds r7,r7,#20
 3487              	.LCFI134:
 3488              	 .cfi_def_cfa_offset 4
 3489 012c BD46     	 mov sp,r7
 3490              	.LCFI135:
 3491              	 .cfi_def_cfa_register 13
 3492              	 
 3493 012e 5DF8047B 	 ldr r7,[sp],#4
 3494              	.LCFI136:
 3495              	 .cfi_restore 7
 3496              	 .cfi_def_cfa_offset 0
 3497 0132 7047     	 bx lr
 3498              	 .cfi_endproc
 3499              	.LFE25:
 3501              	 .section .text.mbedtls_mpi_cmp_int,"ax",%progbits
 3502              	 .align 2
 3503              	 .global mbedtls_mpi_cmp_int
 3504              	 .thumb
 3505              	 .thumb_func
 3507              	mbedtls_mpi_cmp_int:
 3508              	.LFB26:
 955:C:/Users/Yushev/git/wpcqi-optiga-trust-charge/optiga/externals/mbedtls/library\bignum.c **** 
 956:C:/Users/Yushev/git/wpcqi-optiga-trust-charge/optiga/externals/mbedtls/library\bignum.c **** /*
 957:C:/Users/Yushev/git/wpcqi-optiga-trust-charge/optiga/externals/mbedtls/library\bignum.c ****  * Compare signed values
 958:C:/Users/Yushev/git/wpcqi-optiga-trust-charge/optiga/externals/mbedtls/library\bignum.c ****  */
 959:C:/Users/Yushev/git/wpcqi-optiga-trust-charge/optiga/externals/mbedtls/library\bignum.c **** int mbedtls_mpi_cmp_int( const mbedtls_mpi *X, mbedtls_mpi_sint z )
 960:C:/Users/Yushev/git/wpcqi-optiga-trust-charge/optiga/externals/mbedtls/library\bignum.c **** {
 3509              	 .loc 1 960 0
 3510              	 .cfi_startproc
 3511              	 
 3512              	 
 3513 0000 80B5     	 push {r7,lr}
 3514              	.LCFI137:
 3515              	 .cfi_def_cfa_offset 8
 3516              	 .cfi_offset 7,-8
 3517              	 .cfi_offset 14,-4
 3518 0002 86B0     	 sub sp,sp,#24
 3519              	.LCFI138:
 3520              	 .cfi_def_cfa_offset 32
 3521 0004 00AF     	 add r7,sp,#0
 3522              	.LCFI139:
 3523              	 .cfi_def_cfa_register 7
 3524 0006 7860     	 str r0,[r7,#4]
 3525 0008 3960     	 str r1,[r7]
 961:C:/Users/Yushev/git/wpcqi-optiga-trust-charge/optiga/externals/mbedtls/library\bignum.c ****     mbedtls_mpi Y;
 962:C:/Users/Yushev/git/wpcqi-optiga-trust-charge/optiga/externals/mbedtls/library\bignum.c ****     mbedtls_mpi_uint p[1];
