   1              	 .syntax unified
   2              	 .cpu cortex-m4
   3              	 .eabi_attribute 27,3
   4              	 .fpu fpv4-sp-d16
   5              	 .eabi_attribute 20,1
   6              	 .eabi_attribute 21,1
   7              	 .eabi_attribute 23,3
   8              	 .eabi_attribute 24,1
   9              	 .eabi_attribute 25,1
  10              	 .eabi_attribute 26,1
  11              	 .eabi_attribute 30,6
  12              	 .eabi_attribute 34,1
  13              	 .eabi_attribute 18,4
  14              	 .thumb
  15              	 .file "bignum.c"
  16              	 .text
  17              	.Ltext0:
  18              	 .cfi_sections .debug_frame
  19              	 .section .text.mbedtls_mpi_zeroize,"ax",%progbits
  20              	 .align 2
  21              	 .thumb
  22              	 .thumb_func
  24              	mbedtls_mpi_zeroize:
  25              	.LFB0:
  26              	 .file 1 "C:/Users/Yushev/git/wpcqi-optiga-trust-charge/optiga/externals/mbedtls/library/bignum.c"
   1:C:/Users/Yushev/git/wpcqi-optiga-trust-charge/optiga/externals/mbedtls/library\bignum.c **** /*
   2:C:/Users/Yushev/git/wpcqi-optiga-trust-charge/optiga/externals/mbedtls/library\bignum.c ****  *  Multi-precision integer library
   3:C:/Users/Yushev/git/wpcqi-optiga-trust-charge/optiga/externals/mbedtls/library\bignum.c ****  *
   4:C:/Users/Yushev/git/wpcqi-optiga-trust-charge/optiga/externals/mbedtls/library\bignum.c ****  *  Copyright (C) 2006-2015, ARM Limited, All Rights Reserved
   5:C:/Users/Yushev/git/wpcqi-optiga-trust-charge/optiga/externals/mbedtls/library\bignum.c ****  *  SPDX-License-Identifier: Apache-2.0
   6:C:/Users/Yushev/git/wpcqi-optiga-trust-charge/optiga/externals/mbedtls/library\bignum.c ****  *
   7:C:/Users/Yushev/git/wpcqi-optiga-trust-charge/optiga/externals/mbedtls/library\bignum.c ****  *  Licensed under the Apache License, Version 2.0 (the "License"); you may
   8:C:/Users/Yushev/git/wpcqi-optiga-trust-charge/optiga/externals/mbedtls/library\bignum.c ****  *  not use this file except in compliance with the License.
   9:C:/Users/Yushev/git/wpcqi-optiga-trust-charge/optiga/externals/mbedtls/library\bignum.c ****  *  You may obtain a copy of the License at
  10:C:/Users/Yushev/git/wpcqi-optiga-trust-charge/optiga/externals/mbedtls/library\bignum.c ****  *
  11:C:/Users/Yushev/git/wpcqi-optiga-trust-charge/optiga/externals/mbedtls/library\bignum.c ****  *  http://www.apache.org/licenses/LICENSE-2.0
  12:C:/Users/Yushev/git/wpcqi-optiga-trust-charge/optiga/externals/mbedtls/library\bignum.c ****  *
  13:C:/Users/Yushev/git/wpcqi-optiga-trust-charge/optiga/externals/mbedtls/library\bignum.c ****  *  Unless required by applicable law or agreed to in writing, software
  14:C:/Users/Yushev/git/wpcqi-optiga-trust-charge/optiga/externals/mbedtls/library\bignum.c ****  *  distributed under the License is distributed on an "AS IS" BASIS, WITHOUT
  15:C:/Users/Yushev/git/wpcqi-optiga-trust-charge/optiga/externals/mbedtls/library\bignum.c ****  *  WARRANTIES OR CONDITIONS OF ANY KIND, either express or implied.
  16:C:/Users/Yushev/git/wpcqi-optiga-trust-charge/optiga/externals/mbedtls/library\bignum.c ****  *  See the License for the specific language governing permissions and
  17:C:/Users/Yushev/git/wpcqi-optiga-trust-charge/optiga/externals/mbedtls/library\bignum.c ****  *  limitations under the License.
  18:C:/Users/Yushev/git/wpcqi-optiga-trust-charge/optiga/externals/mbedtls/library\bignum.c ****  *
  19:C:/Users/Yushev/git/wpcqi-optiga-trust-charge/optiga/externals/mbedtls/library\bignum.c ****  *  This file is part of mbed TLS (https://tls.mbed.org)
  20:C:/Users/Yushev/git/wpcqi-optiga-trust-charge/optiga/externals/mbedtls/library\bignum.c ****  */
  21:C:/Users/Yushev/git/wpcqi-optiga-trust-charge/optiga/externals/mbedtls/library\bignum.c **** 
  22:C:/Users/Yushev/git/wpcqi-optiga-trust-charge/optiga/externals/mbedtls/library\bignum.c **** /*
  23:C:/Users/Yushev/git/wpcqi-optiga-trust-charge/optiga/externals/mbedtls/library\bignum.c ****  *  The following sources were referenced in the design of this Multi-precision
  24:C:/Users/Yushev/git/wpcqi-optiga-trust-charge/optiga/externals/mbedtls/library\bignum.c ****  *  Integer library:
  25:C:/Users/Yushev/git/wpcqi-optiga-trust-charge/optiga/externals/mbedtls/library\bignum.c ****  *
  26:C:/Users/Yushev/git/wpcqi-optiga-trust-charge/optiga/externals/mbedtls/library\bignum.c ****  *  [1] Handbook of Applied Cryptography - 1997
  27:C:/Users/Yushev/git/wpcqi-optiga-trust-charge/optiga/externals/mbedtls/library\bignum.c ****  *      Menezes, van Oorschot and Vanstone
  28:C:/Users/Yushev/git/wpcqi-optiga-trust-charge/optiga/externals/mbedtls/library\bignum.c ****  *
  29:C:/Users/Yushev/git/wpcqi-optiga-trust-charge/optiga/externals/mbedtls/library\bignum.c ****  *  [2] Multi-Precision Math
  30:C:/Users/Yushev/git/wpcqi-optiga-trust-charge/optiga/externals/mbedtls/library\bignum.c ****  *      Tom St Denis
  31:C:/Users/Yushev/git/wpcqi-optiga-trust-charge/optiga/externals/mbedtls/library\bignum.c ****  *      https://github.com/libtom/libtommath/blob/develop/tommath.pdf
  32:C:/Users/Yushev/git/wpcqi-optiga-trust-charge/optiga/externals/mbedtls/library\bignum.c ****  *
  33:C:/Users/Yushev/git/wpcqi-optiga-trust-charge/optiga/externals/mbedtls/library\bignum.c ****  *  [3] GNU Multi-Precision Arithmetic Library
  34:C:/Users/Yushev/git/wpcqi-optiga-trust-charge/optiga/externals/mbedtls/library\bignum.c ****  *      https://gmplib.org/manual/index.html
  35:C:/Users/Yushev/git/wpcqi-optiga-trust-charge/optiga/externals/mbedtls/library\bignum.c ****  *
  36:C:/Users/Yushev/git/wpcqi-optiga-trust-charge/optiga/externals/mbedtls/library\bignum.c ****  */
  37:C:/Users/Yushev/git/wpcqi-optiga-trust-charge/optiga/externals/mbedtls/library\bignum.c **** 
  38:C:/Users/Yushev/git/wpcqi-optiga-trust-charge/optiga/externals/mbedtls/library\bignum.c **** #if !defined(MBEDTLS_CONFIG_FILE)
  39:C:/Users/Yushev/git/wpcqi-optiga-trust-charge/optiga/externals/mbedtls/library\bignum.c **** #include "mbedtls/config.h"
  40:C:/Users/Yushev/git/wpcqi-optiga-trust-charge/optiga/externals/mbedtls/library\bignum.c **** #else
  41:C:/Users/Yushev/git/wpcqi-optiga-trust-charge/optiga/externals/mbedtls/library\bignum.c **** #include MBEDTLS_CONFIG_FILE
  42:C:/Users/Yushev/git/wpcqi-optiga-trust-charge/optiga/externals/mbedtls/library\bignum.c **** #endif
  43:C:/Users/Yushev/git/wpcqi-optiga-trust-charge/optiga/externals/mbedtls/library\bignum.c **** 
  44:C:/Users/Yushev/git/wpcqi-optiga-trust-charge/optiga/externals/mbedtls/library\bignum.c **** #if defined(MBEDTLS_BIGNUM_C)
  45:C:/Users/Yushev/git/wpcqi-optiga-trust-charge/optiga/externals/mbedtls/library\bignum.c **** 
  46:C:/Users/Yushev/git/wpcqi-optiga-trust-charge/optiga/externals/mbedtls/library\bignum.c **** #include "mbedtls/bignum.h"
  47:C:/Users/Yushev/git/wpcqi-optiga-trust-charge/optiga/externals/mbedtls/library\bignum.c **** #include "mbedtls/bn_mul.h"
  48:C:/Users/Yushev/git/wpcqi-optiga-trust-charge/optiga/externals/mbedtls/library\bignum.c **** #include "mbedtls/platform_util.h"
  49:C:/Users/Yushev/git/wpcqi-optiga-trust-charge/optiga/externals/mbedtls/library\bignum.c **** 
  50:C:/Users/Yushev/git/wpcqi-optiga-trust-charge/optiga/externals/mbedtls/library\bignum.c **** #include <string.h>
  51:C:/Users/Yushev/git/wpcqi-optiga-trust-charge/optiga/externals/mbedtls/library\bignum.c **** 
  52:C:/Users/Yushev/git/wpcqi-optiga-trust-charge/optiga/externals/mbedtls/library\bignum.c **** #if defined(MBEDTLS_PLATFORM_C)
  53:C:/Users/Yushev/git/wpcqi-optiga-trust-charge/optiga/externals/mbedtls/library\bignum.c **** #include "mbedtls/platform.h"
  54:C:/Users/Yushev/git/wpcqi-optiga-trust-charge/optiga/externals/mbedtls/library\bignum.c **** #else
  55:C:/Users/Yushev/git/wpcqi-optiga-trust-charge/optiga/externals/mbedtls/library\bignum.c **** #include <stdio.h>
  56:C:/Users/Yushev/git/wpcqi-optiga-trust-charge/optiga/externals/mbedtls/library\bignum.c **** #include <stdlib.h>
  57:C:/Users/Yushev/git/wpcqi-optiga-trust-charge/optiga/externals/mbedtls/library\bignum.c **** #define mbedtls_printf     printf
  58:C:/Users/Yushev/git/wpcqi-optiga-trust-charge/optiga/externals/mbedtls/library\bignum.c **** #define mbedtls_calloc    calloc
  59:C:/Users/Yushev/git/wpcqi-optiga-trust-charge/optiga/externals/mbedtls/library\bignum.c **** #define mbedtls_free       free
  60:C:/Users/Yushev/git/wpcqi-optiga-trust-charge/optiga/externals/mbedtls/library\bignum.c **** #endif
  61:C:/Users/Yushev/git/wpcqi-optiga-trust-charge/optiga/externals/mbedtls/library\bignum.c **** 
  62:C:/Users/Yushev/git/wpcqi-optiga-trust-charge/optiga/externals/mbedtls/library\bignum.c **** #define MPI_VALIDATE_RET( cond )                                       \
  63:C:/Users/Yushev/git/wpcqi-optiga-trust-charge/optiga/externals/mbedtls/library\bignum.c ****     MBEDTLS_INTERNAL_VALIDATE_RET( cond, MBEDTLS_ERR_MPI_BAD_INPUT_DATA )
  64:C:/Users/Yushev/git/wpcqi-optiga-trust-charge/optiga/externals/mbedtls/library\bignum.c **** #define MPI_VALIDATE( cond )                                           \
  65:C:/Users/Yushev/git/wpcqi-optiga-trust-charge/optiga/externals/mbedtls/library\bignum.c ****     MBEDTLS_INTERNAL_VALIDATE( cond )
  66:C:/Users/Yushev/git/wpcqi-optiga-trust-charge/optiga/externals/mbedtls/library\bignum.c **** 
  67:C:/Users/Yushev/git/wpcqi-optiga-trust-charge/optiga/externals/mbedtls/library\bignum.c **** #define ciL    (sizeof(mbedtls_mpi_uint))         /* chars in limb  */
  68:C:/Users/Yushev/git/wpcqi-optiga-trust-charge/optiga/externals/mbedtls/library\bignum.c **** #define biL    (ciL << 3)               /* bits  in limb  */
  69:C:/Users/Yushev/git/wpcqi-optiga-trust-charge/optiga/externals/mbedtls/library\bignum.c **** #define biH    (ciL << 2)               /* half limb size */
  70:C:/Users/Yushev/git/wpcqi-optiga-trust-charge/optiga/externals/mbedtls/library\bignum.c **** 
  71:C:/Users/Yushev/git/wpcqi-optiga-trust-charge/optiga/externals/mbedtls/library\bignum.c **** #define MPI_SIZE_T_MAX  ( (size_t) -1 ) /* SIZE_T_MAX is not standard */
  72:C:/Users/Yushev/git/wpcqi-optiga-trust-charge/optiga/externals/mbedtls/library\bignum.c **** 
  73:C:/Users/Yushev/git/wpcqi-optiga-trust-charge/optiga/externals/mbedtls/library\bignum.c **** /*
  74:C:/Users/Yushev/git/wpcqi-optiga-trust-charge/optiga/externals/mbedtls/library\bignum.c ****  * Convert between bits/chars and number of limbs
  75:C:/Users/Yushev/git/wpcqi-optiga-trust-charge/optiga/externals/mbedtls/library\bignum.c ****  * Divide first in order to avoid potential overflows
  76:C:/Users/Yushev/git/wpcqi-optiga-trust-charge/optiga/externals/mbedtls/library\bignum.c ****  */
  77:C:/Users/Yushev/git/wpcqi-optiga-trust-charge/optiga/externals/mbedtls/library\bignum.c **** #define BITS_TO_LIMBS(i)  ( (i) / biL + ( (i) % biL != 0 ) )
  78:C:/Users/Yushev/git/wpcqi-optiga-trust-charge/optiga/externals/mbedtls/library\bignum.c **** #define CHARS_TO_LIMBS(i) ( (i) / ciL + ( (i) % ciL != 0 ) )
  79:C:/Users/Yushev/git/wpcqi-optiga-trust-charge/optiga/externals/mbedtls/library\bignum.c **** 
  80:C:/Users/Yushev/git/wpcqi-optiga-trust-charge/optiga/externals/mbedtls/library\bignum.c **** /* Implementation that should never be optimized out by the compiler */
  81:C:/Users/Yushev/git/wpcqi-optiga-trust-charge/optiga/externals/mbedtls/library\bignum.c **** static void mbedtls_mpi_zeroize( mbedtls_mpi_uint *v, size_t n )
  82:C:/Users/Yushev/git/wpcqi-optiga-trust-charge/optiga/externals/mbedtls/library\bignum.c **** {
  27              	 .loc 1 82 0
  28              	 .cfi_startproc
  29              	 
  30              	 
  31 0000 80B5     	 push {r7,lr}
  32              	.LCFI0:
  33              	 .cfi_def_cfa_offset 8
  34              	 .cfi_offset 7,-8
  35              	 .cfi_offset 14,-4
  36 0002 82B0     	 sub sp,sp,#8
  37              	.LCFI1:
  38              	 .cfi_def_cfa_offset 16
  39 0004 00AF     	 add r7,sp,#0
  40              	.LCFI2:
  41              	 .cfi_def_cfa_register 7
  42 0006 7860     	 str r0,[r7,#4]
  43 0008 3960     	 str r1,[r7]
  83:C:/Users/Yushev/git/wpcqi-optiga-trust-charge/optiga/externals/mbedtls/library\bignum.c ****     mbedtls_platform_zeroize( v, ciL * n );
  44              	 .loc 1 83 0
  45 000a 3B68     	 ldr r3,[r7]
  46 000c 9B00     	 lsls r3,r3,#2
  47 000e 7868     	 ldr r0,[r7,#4]
  48 0010 1946     	 mov r1,r3
  49 0012 FFF7FEFF 	 bl mbedtls_platform_zeroize
  84:C:/Users/Yushev/git/wpcqi-optiga-trust-charge/optiga/externals/mbedtls/library\bignum.c **** }
  50              	 .loc 1 84 0
  51 0016 0837     	 adds r7,r7,#8
  52              	.LCFI3:
  53              	 .cfi_def_cfa_offset 8
  54 0018 BD46     	 mov sp,r7
  55              	.LCFI4:
  56              	 .cfi_def_cfa_register 13
  57              	 
  58 001a 80BD     	 pop {r7,pc}
  59              	 .cfi_endproc
  60              	.LFE0:
  62              	 .section .text.mbedtls_mpi_init,"ax",%progbits
  63              	 .align 2
  64              	 .global mbedtls_mpi_init
  65              	 .thumb
  66              	 .thumb_func
  68              	mbedtls_mpi_init:
  69              	.LFB1:
  85:C:/Users/Yushev/git/wpcqi-optiga-trust-charge/optiga/externals/mbedtls/library\bignum.c **** 
  86:C:/Users/Yushev/git/wpcqi-optiga-trust-charge/optiga/externals/mbedtls/library\bignum.c **** /*
  87:C:/Users/Yushev/git/wpcqi-optiga-trust-charge/optiga/externals/mbedtls/library\bignum.c ****  * Initialize one MPI
  88:C:/Users/Yushev/git/wpcqi-optiga-trust-charge/optiga/externals/mbedtls/library\bignum.c ****  */
  89:C:/Users/Yushev/git/wpcqi-optiga-trust-charge/optiga/externals/mbedtls/library\bignum.c **** void mbedtls_mpi_init( mbedtls_mpi *X )
  90:C:/Users/Yushev/git/wpcqi-optiga-trust-charge/optiga/externals/mbedtls/library\bignum.c **** {
  70              	 .loc 1 90 0
  71              	 .cfi_startproc
  72              	 
  73              	 
  74              	 
  75 0000 80B4     	 push {r7}
  76              	.LCFI5:
  77              	 .cfi_def_cfa_offset 4
  78              	 .cfi_offset 7,-4
  79 0002 83B0     	 sub sp,sp,#12
  80              	.LCFI6:
  81              	 .cfi_def_cfa_offset 16
  82 0004 00AF     	 add r7,sp,#0
  83              	.LCFI7:
  84              	 .cfi_def_cfa_register 7
  85 0006 7860     	 str r0,[r7,#4]
  91:C:/Users/Yushev/git/wpcqi-optiga-trust-charge/optiga/externals/mbedtls/library\bignum.c ****     MPI_VALIDATE( X != NULL );
  92:C:/Users/Yushev/git/wpcqi-optiga-trust-charge/optiga/externals/mbedtls/library\bignum.c **** 
  93:C:/Users/Yushev/git/wpcqi-optiga-trust-charge/optiga/externals/mbedtls/library\bignum.c ****     X->s = 1;
  86              	 .loc 1 93 0
  87 0008 7B68     	 ldr r3,[r7,#4]
  88 000a 0122     	 movs r2,#1
  89 000c 1A60     	 str r2,[r3]
  94:C:/Users/Yushev/git/wpcqi-optiga-trust-charge/optiga/externals/mbedtls/library\bignum.c ****     X->n = 0;
  90              	 .loc 1 94 0
  91 000e 7B68     	 ldr r3,[r7,#4]
  92 0010 0022     	 movs r2,#0
  93 0012 5A60     	 str r2,[r3,#4]
  95:C:/Users/Yushev/git/wpcqi-optiga-trust-charge/optiga/externals/mbedtls/library\bignum.c ****     X->p = NULL;
  94              	 .loc 1 95 0
  95 0014 7B68     	 ldr r3,[r7,#4]
  96 0016 0022     	 movs r2,#0
  97 0018 9A60     	 str r2,[r3,#8]
  96:C:/Users/Yushev/git/wpcqi-optiga-trust-charge/optiga/externals/mbedtls/library\bignum.c **** }
  98              	 .loc 1 96 0
  99 001a 0C37     	 adds r7,r7,#12
 100              	.LCFI8:
 101              	 .cfi_def_cfa_offset 4
 102 001c BD46     	 mov sp,r7
 103              	.LCFI9:
 104              	 .cfi_def_cfa_register 13
 105              	 
 106 001e 5DF8047B 	 ldr r7,[sp],#4
 107              	.LCFI10:
 108              	 .cfi_restore 7
 109              	 .cfi_def_cfa_offset 0
 110 0022 7047     	 bx lr
 111              	 .cfi_endproc
 112              	.LFE1:
 114              	 .section .text.mbedtls_mpi_free,"ax",%progbits
 115              	 .align 2
 116              	 .global mbedtls_mpi_free
 117              	 .thumb
 118              	 .thumb_func
 120              	mbedtls_mpi_free:
 121              	.LFB2:
  97:C:/Users/Yushev/git/wpcqi-optiga-trust-charge/optiga/externals/mbedtls/library\bignum.c **** 
  98:C:/Users/Yushev/git/wpcqi-optiga-trust-charge/optiga/externals/mbedtls/library\bignum.c **** /*
  99:C:/Users/Yushev/git/wpcqi-optiga-trust-charge/optiga/externals/mbedtls/library\bignum.c ****  * Unallocate one MPI
 100:C:/Users/Yushev/git/wpcqi-optiga-trust-charge/optiga/externals/mbedtls/library\bignum.c ****  */
 101:C:/Users/Yushev/git/wpcqi-optiga-trust-charge/optiga/externals/mbedtls/library\bignum.c **** void mbedtls_mpi_free( mbedtls_mpi *X )
 102:C:/Users/Yushev/git/wpcqi-optiga-trust-charge/optiga/externals/mbedtls/library\bignum.c **** {
 122              	 .loc 1 102 0
 123              	 .cfi_startproc
 124              	 
 125              	 
 126 0000 80B5     	 push {r7,lr}
 127              	.LCFI11:
 128              	 .cfi_def_cfa_offset 8
 129              	 .cfi_offset 7,-8
 130              	 .cfi_offset 14,-4
 131 0002 82B0     	 sub sp,sp,#8
 132              	.LCFI12:
 133              	 .cfi_def_cfa_offset 16
 134 0004 00AF     	 add r7,sp,#0
 135              	.LCFI13:
 136              	 .cfi_def_cfa_register 7
 137 0006 7860     	 str r0,[r7,#4]
 103:C:/Users/Yushev/git/wpcqi-optiga-trust-charge/optiga/externals/mbedtls/library\bignum.c ****     if( X == NULL )
 138              	 .loc 1 103 0
 139 0008 7B68     	 ldr r3,[r7,#4]
 140 000a 002B     	 cmp r3,#0
 141 000c 00D1     	 bne .L4
 104:C:/Users/Yushev/git/wpcqi-optiga-trust-charge/optiga/externals/mbedtls/library\bignum.c ****         return;
 142              	 .loc 1 104 0
 143 000e 19E0     	 b .L3
 144              	.L4:
 105:C:/Users/Yushev/git/wpcqi-optiga-trust-charge/optiga/externals/mbedtls/library\bignum.c **** 
 106:C:/Users/Yushev/git/wpcqi-optiga-trust-charge/optiga/externals/mbedtls/library\bignum.c ****     if( X->p != NULL )
 145              	 .loc 1 106 0
 146 0010 7B68     	 ldr r3,[r7,#4]
 147 0012 9B68     	 ldr r3,[r3,#8]
 148 0014 002B     	 cmp r3,#0
 149 0016 0CD0     	 beq .L6
 107:C:/Users/Yushev/git/wpcqi-optiga-trust-charge/optiga/externals/mbedtls/library\bignum.c ****     {
 108:C:/Users/Yushev/git/wpcqi-optiga-trust-charge/optiga/externals/mbedtls/library\bignum.c ****         mbedtls_mpi_zeroize( X->p, X->n );
 150              	 .loc 1 108 0
 151 0018 7B68     	 ldr r3,[r7,#4]
 152 001a 9A68     	 ldr r2,[r3,#8]
 153 001c 7B68     	 ldr r3,[r7,#4]
 154 001e 5B68     	 ldr r3,[r3,#4]
 155 0020 1046     	 mov r0,r2
 156 0022 1946     	 mov r1,r3
 157 0024 FFF7FEFF 	 bl mbedtls_mpi_zeroize
 109:C:/Users/Yushev/git/wpcqi-optiga-trust-charge/optiga/externals/mbedtls/library\bignum.c ****         mbedtls_free( X->p );
 158              	 .loc 1 109 0
 159 0028 7B68     	 ldr r3,[r7,#4]
 160 002a 9B68     	 ldr r3,[r3,#8]
 161 002c 1846     	 mov r0,r3
 162 002e FFF7FEFF 	 bl free
 163              	.L6:
 110:C:/Users/Yushev/git/wpcqi-optiga-trust-charge/optiga/externals/mbedtls/library\bignum.c ****     }
 111:C:/Users/Yushev/git/wpcqi-optiga-trust-charge/optiga/externals/mbedtls/library\bignum.c **** 
 112:C:/Users/Yushev/git/wpcqi-optiga-trust-charge/optiga/externals/mbedtls/library\bignum.c ****     X->s = 1;
 164              	 .loc 1 112 0
 165 0032 7B68     	 ldr r3,[r7,#4]
 166 0034 0122     	 movs r2,#1
 167 0036 1A60     	 str r2,[r3]
 113:C:/Users/Yushev/git/wpcqi-optiga-trust-charge/optiga/externals/mbedtls/library\bignum.c ****     X->n = 0;
 168              	 .loc 1 113 0
 169 0038 7B68     	 ldr r3,[r7,#4]
 170 003a 0022     	 movs r2,#0
 171 003c 5A60     	 str r2,[r3,#4]
 114:C:/Users/Yushev/git/wpcqi-optiga-trust-charge/optiga/externals/mbedtls/library\bignum.c ****     X->p = NULL;
 172              	 .loc 1 114 0
 173 003e 7B68     	 ldr r3,[r7,#4]
 174 0040 0022     	 movs r2,#0
 175 0042 9A60     	 str r2,[r3,#8]
 176              	.L3:
 115:C:/Users/Yushev/git/wpcqi-optiga-trust-charge/optiga/externals/mbedtls/library\bignum.c **** }
 177              	 .loc 1 115 0
 178 0044 0837     	 adds r7,r7,#8
 179              	.LCFI14:
 180              	 .cfi_def_cfa_offset 8
 181 0046 BD46     	 mov sp,r7
 182              	.LCFI15:
 183              	 .cfi_def_cfa_register 13
 184              	 
 185 0048 80BD     	 pop {r7,pc}
 186              	 .cfi_endproc
 187              	.LFE2:
 189 004a 00BF     	 .section .text.mbedtls_mpi_grow,"ax",%progbits
 190              	 .align 2
 191              	 .global mbedtls_mpi_grow
 192              	 .thumb
 193              	 .thumb_func
 195              	mbedtls_mpi_grow:
 196              	.LFB3:
 116:C:/Users/Yushev/git/wpcqi-optiga-trust-charge/optiga/externals/mbedtls/library\bignum.c **** 
 117:C:/Users/Yushev/git/wpcqi-optiga-trust-charge/optiga/externals/mbedtls/library\bignum.c **** /*
 118:C:/Users/Yushev/git/wpcqi-optiga-trust-charge/optiga/externals/mbedtls/library\bignum.c ****  * Enlarge to the specified number of limbs
 119:C:/Users/Yushev/git/wpcqi-optiga-trust-charge/optiga/externals/mbedtls/library\bignum.c ****  */
 120:C:/Users/Yushev/git/wpcqi-optiga-trust-charge/optiga/externals/mbedtls/library\bignum.c **** int mbedtls_mpi_grow( mbedtls_mpi *X, size_t nblimbs )
 121:C:/Users/Yushev/git/wpcqi-optiga-trust-charge/optiga/externals/mbedtls/library\bignum.c **** {
 197              	 .loc 1 121 0
 198              	 .cfi_startproc
 199              	 
 200              	 
 201 0000 80B5     	 push {r7,lr}
 202              	.LCFI16:
 203              	 .cfi_def_cfa_offset 8
 204              	 .cfi_offset 7,-8
 205              	 .cfi_offset 14,-4
 206 0002 84B0     	 sub sp,sp,#16
 207              	.LCFI17:
 208              	 .cfi_def_cfa_offset 24
 209 0004 00AF     	 add r7,sp,#0
 210              	.LCFI18:
 211              	 .cfi_def_cfa_register 7
 212 0006 7860     	 str r0,[r7,#4]
 213 0008 3960     	 str r1,[r7]
 122:C:/Users/Yushev/git/wpcqi-optiga-trust-charge/optiga/externals/mbedtls/library\bignum.c ****     mbedtls_mpi_uint *p;
 123:C:/Users/Yushev/git/wpcqi-optiga-trust-charge/optiga/externals/mbedtls/library\bignum.c ****     MPI_VALIDATE_RET( X != NULL );
 124:C:/Users/Yushev/git/wpcqi-optiga-trust-charge/optiga/externals/mbedtls/library\bignum.c **** 
 125:C:/Users/Yushev/git/wpcqi-optiga-trust-charge/optiga/externals/mbedtls/library\bignum.c ****     if( nblimbs > MBEDTLS_MPI_MAX_LIMBS )
 214              	 .loc 1 125 0
 215 000a 3B68     	 ldr r3,[r7]
 216 000c 42F21072 	 movw r2,#10000
 217 0010 9342     	 cmp r3,r2
 218 0012 02D9     	 bls .L8
 126:C:/Users/Yushev/git/wpcqi-optiga-trust-charge/optiga/externals/mbedtls/library\bignum.c ****         return( MBEDTLS_ERR_MPI_ALLOC_FAILED );
 219              	 .loc 1 126 0
 220 0014 6FF00F03 	 mvn r3,#15
 221 0018 32E0     	 b .L9
 222              	.L8:
 127:C:/Users/Yushev/git/wpcqi-optiga-trust-charge/optiga/externals/mbedtls/library\bignum.c **** 
 128:C:/Users/Yushev/git/wpcqi-optiga-trust-charge/optiga/externals/mbedtls/library\bignum.c ****     if( X->n < nblimbs )
 223              	 .loc 1 128 0
 224 001a 7B68     	 ldr r3,[r7,#4]
 225 001c 5A68     	 ldr r2,[r3,#4]
 226 001e 3B68     	 ldr r3,[r7]
 227 0020 9A42     	 cmp r2,r3
 228 0022 2CD2     	 bcs .L10
 129:C:/Users/Yushev/git/wpcqi-optiga-trust-charge/optiga/externals/mbedtls/library\bignum.c ****     {
 130:C:/Users/Yushev/git/wpcqi-optiga-trust-charge/optiga/externals/mbedtls/library\bignum.c ****         if( ( p = (mbedtls_mpi_uint*)mbedtls_calloc( nblimbs, ciL ) ) == NULL )
 229              	 .loc 1 130 0
 230 0024 3868     	 ldr r0,[r7]
 231 0026 0421     	 movs r1,#4
 232 0028 FFF7FEFF 	 bl calloc
 233 002c 0346     	 mov r3,r0
 234 002e FB60     	 str r3,[r7,#12]
 235 0030 FB68     	 ldr r3,[r7,#12]
 236 0032 002B     	 cmp r3,#0
 237 0034 02D1     	 bne .L11
 131:C:/Users/Yushev/git/wpcqi-optiga-trust-charge/optiga/externals/mbedtls/library\bignum.c ****             return( MBEDTLS_ERR_MPI_ALLOC_FAILED );
 238              	 .loc 1 131 0
 239 0036 6FF00F03 	 mvn r3,#15
 240 003a 21E0     	 b .L9
 241              	.L11:
 132:C:/Users/Yushev/git/wpcqi-optiga-trust-charge/optiga/externals/mbedtls/library\bignum.c **** 
 133:C:/Users/Yushev/git/wpcqi-optiga-trust-charge/optiga/externals/mbedtls/library\bignum.c ****         if( X->p != NULL )
 242              	 .loc 1 133 0
 243 003c 7B68     	 ldr r3,[r7,#4]
 244 003e 9B68     	 ldr r3,[r3,#8]
 245 0040 002B     	 cmp r3,#0
 246 0042 16D0     	 beq .L12
 134:C:/Users/Yushev/git/wpcqi-optiga-trust-charge/optiga/externals/mbedtls/library\bignum.c ****         {
 135:C:/Users/Yushev/git/wpcqi-optiga-trust-charge/optiga/externals/mbedtls/library\bignum.c ****             memcpy( p, X->p, X->n * ciL );
 247              	 .loc 1 135 0
 248 0044 7B68     	 ldr r3,[r7,#4]
 249 0046 9A68     	 ldr r2,[r3,#8]
 250 0048 7B68     	 ldr r3,[r7,#4]
 251 004a 5B68     	 ldr r3,[r3,#4]
 252 004c 9B00     	 lsls r3,r3,#2
 253 004e F868     	 ldr r0,[r7,#12]
 254 0050 1146     	 mov r1,r2
 255 0052 1A46     	 mov r2,r3
 256 0054 FFF7FEFF 	 bl memcpy
 136:C:/Users/Yushev/git/wpcqi-optiga-trust-charge/optiga/externals/mbedtls/library\bignum.c ****             mbedtls_mpi_zeroize( X->p, X->n );
 257              	 .loc 1 136 0
 258 0058 7B68     	 ldr r3,[r7,#4]
 259 005a 9A68     	 ldr r2,[r3,#8]
 260 005c 7B68     	 ldr r3,[r7,#4]
 261 005e 5B68     	 ldr r3,[r3,#4]
 262 0060 1046     	 mov r0,r2
 263 0062 1946     	 mov r1,r3
 264 0064 FFF7FEFF 	 bl mbedtls_mpi_zeroize
 137:C:/Users/Yushev/git/wpcqi-optiga-trust-charge/optiga/externals/mbedtls/library\bignum.c ****             mbedtls_free( X->p );
 265              	 .loc 1 137 0
 266 0068 7B68     	 ldr r3,[r7,#4]
 267 006a 9B68     	 ldr r3,[r3,#8]
 268 006c 1846     	 mov r0,r3
 269 006e FFF7FEFF 	 bl free
 270              	.L12:
 138:C:/Users/Yushev/git/wpcqi-optiga-trust-charge/optiga/externals/mbedtls/library\bignum.c ****         }
 139:C:/Users/Yushev/git/wpcqi-optiga-trust-charge/optiga/externals/mbedtls/library\bignum.c **** 
 140:C:/Users/Yushev/git/wpcqi-optiga-trust-charge/optiga/externals/mbedtls/library\bignum.c ****         X->n = nblimbs;
 271              	 .loc 1 140 0
 272 0072 7B68     	 ldr r3,[r7,#4]
 273 0074 3A68     	 ldr r2,[r7]
 274 0076 5A60     	 str r2,[r3,#4]
 141:C:/Users/Yushev/git/wpcqi-optiga-trust-charge/optiga/externals/mbedtls/library\bignum.c ****         X->p = p;
 275              	 .loc 1 141 0
 276 0078 7B68     	 ldr r3,[r7,#4]
 277 007a FA68     	 ldr r2,[r7,#12]
 278 007c 9A60     	 str r2,[r3,#8]
 279              	.L10:
 142:C:/Users/Yushev/git/wpcqi-optiga-trust-charge/optiga/externals/mbedtls/library\bignum.c ****     }
 143:C:/Users/Yushev/git/wpcqi-optiga-trust-charge/optiga/externals/mbedtls/library\bignum.c **** 
 144:C:/Users/Yushev/git/wpcqi-optiga-trust-charge/optiga/externals/mbedtls/library\bignum.c ****     return( 0 );
 280              	 .loc 1 144 0
 281 007e 0023     	 movs r3,#0
 282              	.L9:
 145:C:/Users/Yushev/git/wpcqi-optiga-trust-charge/optiga/externals/mbedtls/library\bignum.c **** }
 283              	 .loc 1 145 0
 284 0080 1846     	 mov r0,r3
 285 0082 1037     	 adds r7,r7,#16
 286              	.LCFI19:
 287              	 .cfi_def_cfa_offset 8
 288 0084 BD46     	 mov sp,r7
 289              	.LCFI20:
 290              	 .cfi_def_cfa_register 13
 291              	 
 292 0086 80BD     	 pop {r7,pc}
 293              	 .cfi_endproc
 294              	.LFE3:
 296              	 .section .text.mbedtls_mpi_shrink,"ax",%progbits
 297              	 .align 2
 298              	 .global mbedtls_mpi_shrink
 299              	 .thumb
 300              	 .thumb_func
 302              	mbedtls_mpi_shrink:
 303              	.LFB4:
 146:C:/Users/Yushev/git/wpcqi-optiga-trust-charge/optiga/externals/mbedtls/library\bignum.c **** 
 147:C:/Users/Yushev/git/wpcqi-optiga-trust-charge/optiga/externals/mbedtls/library\bignum.c **** /*
 148:C:/Users/Yushev/git/wpcqi-optiga-trust-charge/optiga/externals/mbedtls/library\bignum.c ****  * Resize down as much as possible,
 149:C:/Users/Yushev/git/wpcqi-optiga-trust-charge/optiga/externals/mbedtls/library\bignum.c ****  * while keeping at least the specified number of limbs
 150:C:/Users/Yushev/git/wpcqi-optiga-trust-charge/optiga/externals/mbedtls/library\bignum.c ****  */
 151:C:/Users/Yushev/git/wpcqi-optiga-trust-charge/optiga/externals/mbedtls/library\bignum.c **** int mbedtls_mpi_shrink( mbedtls_mpi *X, size_t nblimbs )
 152:C:/Users/Yushev/git/wpcqi-optiga-trust-charge/optiga/externals/mbedtls/library\bignum.c **** {
 304              	 .loc 1 152 0
 305              	 .cfi_startproc
 306              	 
 307              	 
 308 0000 80B5     	 push {r7,lr}
 309              	.LCFI21:
 310              	 .cfi_def_cfa_offset 8
 311              	 .cfi_offset 7,-8
 312              	 .cfi_offset 14,-4
 313 0002 84B0     	 sub sp,sp,#16
 314              	.LCFI22:
 315              	 .cfi_def_cfa_offset 24
 316 0004 00AF     	 add r7,sp,#0
 317              	.LCFI23:
 318              	 .cfi_def_cfa_register 7
 319 0006 7860     	 str r0,[r7,#4]
 320 0008 3960     	 str r1,[r7]
 153:C:/Users/Yushev/git/wpcqi-optiga-trust-charge/optiga/externals/mbedtls/library\bignum.c ****     mbedtls_mpi_uint *p;
 154:C:/Users/Yushev/git/wpcqi-optiga-trust-charge/optiga/externals/mbedtls/library\bignum.c ****     size_t i;
 155:C:/Users/Yushev/git/wpcqi-optiga-trust-charge/optiga/externals/mbedtls/library\bignum.c ****     MPI_VALIDATE_RET( X != NULL );
 156:C:/Users/Yushev/git/wpcqi-optiga-trust-charge/optiga/externals/mbedtls/library\bignum.c **** 
 157:C:/Users/Yushev/git/wpcqi-optiga-trust-charge/optiga/externals/mbedtls/library\bignum.c ****     if( nblimbs > MBEDTLS_MPI_MAX_LIMBS )
 321              	 .loc 1 157 0
 322 000a 3B68     	 ldr r3,[r7]
 323 000c 42F21072 	 movw r2,#10000
 324 0010 9342     	 cmp r3,r2
 325 0012 02D9     	 bls .L14
 158:C:/Users/Yushev/git/wpcqi-optiga-trust-charge/optiga/externals/mbedtls/library\bignum.c ****         return( MBEDTLS_ERR_MPI_ALLOC_FAILED );
 326              	 .loc 1 158 0
 327 0014 6FF00F03 	 mvn r3,#15
 328 0018 54E0     	 b .L15
 329              	.L14:
 159:C:/Users/Yushev/git/wpcqi-optiga-trust-charge/optiga/externals/mbedtls/library\bignum.c **** 
 160:C:/Users/Yushev/git/wpcqi-optiga-trust-charge/optiga/externals/mbedtls/library\bignum.c ****     /* Actually resize up in this case */
 161:C:/Users/Yushev/git/wpcqi-optiga-trust-charge/optiga/externals/mbedtls/library\bignum.c ****     if( X->n <= nblimbs )
 330              	 .loc 1 161 0
 331 001a 7B68     	 ldr r3,[r7,#4]
 332 001c 5A68     	 ldr r2,[r3,#4]
 333 001e 3B68     	 ldr r3,[r7]
 334 0020 9A42     	 cmp r2,r3
 335 0022 05D8     	 bhi .L16
 162:C:/Users/Yushev/git/wpcqi-optiga-trust-charge/optiga/externals/mbedtls/library\bignum.c ****         return( mbedtls_mpi_grow( X, nblimbs ) );
 336              	 .loc 1 162 0
 337 0024 7868     	 ldr r0,[r7,#4]
 338 0026 3968     	 ldr r1,[r7]
 339 0028 FFF7FEFF 	 bl mbedtls_mpi_grow
 340 002c 0346     	 mov r3,r0
 341 002e 49E0     	 b .L15
 342              	.L16:
 163:C:/Users/Yushev/git/wpcqi-optiga-trust-charge/optiga/externals/mbedtls/library\bignum.c **** 
 164:C:/Users/Yushev/git/wpcqi-optiga-trust-charge/optiga/externals/mbedtls/library\bignum.c ****     for( i = X->n - 1; i > 0; i-- )
 343              	 .loc 1 164 0
 344 0030 7B68     	 ldr r3,[r7,#4]
 345 0032 5B68     	 ldr r3,[r3,#4]
 346 0034 013B     	 subs r3,r3,#1
 347 0036 FB60     	 str r3,[r7,#12]
 348 0038 0BE0     	 b .L17
 349              	.L20:
 165:C:/Users/Yushev/git/wpcqi-optiga-trust-charge/optiga/externals/mbedtls/library\bignum.c ****         if( X->p[i] != 0 )
 350              	 .loc 1 165 0
 351 003a 7B68     	 ldr r3,[r7,#4]
 352 003c 9A68     	 ldr r2,[r3,#8]
 353 003e FB68     	 ldr r3,[r7,#12]
 354 0040 9B00     	 lsls r3,r3,#2
 355 0042 1344     	 add r3,r3,r2
 356 0044 1B68     	 ldr r3,[r3]
 357 0046 002B     	 cmp r3,#0
 358 0048 00D0     	 beq .L18
 166:C:/Users/Yushev/git/wpcqi-optiga-trust-charge/optiga/externals/mbedtls/library\bignum.c ****             break;
 359              	 .loc 1 166 0
 360 004a 05E0     	 b .L19
 361              	.L18:
 164:C:/Users/Yushev/git/wpcqi-optiga-trust-charge/optiga/externals/mbedtls/library\bignum.c ****         if( X->p[i] != 0 )
 362              	 .loc 1 164 0 discriminator 2
 363 004c FB68     	 ldr r3,[r7,#12]
 364 004e 013B     	 subs r3,r3,#1
 365 0050 FB60     	 str r3,[r7,#12]
 366              	.L17:
 164:C:/Users/Yushev/git/wpcqi-optiga-trust-charge/optiga/externals/mbedtls/library\bignum.c ****         if( X->p[i] != 0 )
 367              	 .loc 1 164 0 is_stmt 0 discriminator 1
 368 0052 FB68     	 ldr r3,[r7,#12]
 369 0054 002B     	 cmp r3,#0
 370 0056 F0D1     	 bne .L20
 371              	.L19:
 167:C:/Users/Yushev/git/wpcqi-optiga-trust-charge/optiga/externals/mbedtls/library\bignum.c ****     i++;
 372              	 .loc 1 167 0 is_stmt 1
 373 0058 FB68     	 ldr r3,[r7,#12]
 374 005a 0133     	 adds r3,r3,#1
 375 005c FB60     	 str r3,[r7,#12]
 168:C:/Users/Yushev/git/wpcqi-optiga-trust-charge/optiga/externals/mbedtls/library\bignum.c **** 
 169:C:/Users/Yushev/git/wpcqi-optiga-trust-charge/optiga/externals/mbedtls/library\bignum.c ****     if( i < nblimbs )
 376              	 .loc 1 169 0
 377 005e FA68     	 ldr r2,[r7,#12]
 378 0060 3B68     	 ldr r3,[r7]
 379 0062 9A42     	 cmp r2,r3
 380 0064 01D2     	 bcs .L21
 170:C:/Users/Yushev/git/wpcqi-optiga-trust-charge/optiga/externals/mbedtls/library\bignum.c ****         i = nblimbs;
 381              	 .loc 1 170 0
 382 0066 3B68     	 ldr r3,[r7]
 383 0068 FB60     	 str r3,[r7,#12]
 384              	.L21:
 171:C:/Users/Yushev/git/wpcqi-optiga-trust-charge/optiga/externals/mbedtls/library\bignum.c **** 
 172:C:/Users/Yushev/git/wpcqi-optiga-trust-charge/optiga/externals/mbedtls/library\bignum.c ****     if( ( p = (mbedtls_mpi_uint*)mbedtls_calloc( i, ciL ) ) == NULL )
 385              	 .loc 1 172 0
 386 006a F868     	 ldr r0,[r7,#12]
 387 006c 0421     	 movs r1,#4
 388 006e FFF7FEFF 	 bl calloc
 389 0072 0346     	 mov r3,r0
 390 0074 BB60     	 str r3,[r7,#8]
 391 0076 BB68     	 ldr r3,[r7,#8]
 392 0078 002B     	 cmp r3,#0
 393 007a 02D1     	 bne .L22
 173:C:/Users/Yushev/git/wpcqi-optiga-trust-charge/optiga/externals/mbedtls/library\bignum.c ****         return( MBEDTLS_ERR_MPI_ALLOC_FAILED );
 394              	 .loc 1 173 0
 395 007c 6FF00F03 	 mvn r3,#15
 396 0080 20E0     	 b .L15
 397              	.L22:
 174:C:/Users/Yushev/git/wpcqi-optiga-trust-charge/optiga/externals/mbedtls/library\bignum.c **** 
 175:C:/Users/Yushev/git/wpcqi-optiga-trust-charge/optiga/externals/mbedtls/library\bignum.c ****     if( X->p != NULL )
 398              	 .loc 1 175 0
 399 0082 7B68     	 ldr r3,[r7,#4]
 400 0084 9B68     	 ldr r3,[r3,#8]
 401 0086 002B     	 cmp r3,#0
 402 0088 15D0     	 beq .L23
 176:C:/Users/Yushev/git/wpcqi-optiga-trust-charge/optiga/externals/mbedtls/library\bignum.c ****     {
 177:C:/Users/Yushev/git/wpcqi-optiga-trust-charge/optiga/externals/mbedtls/library\bignum.c ****         memcpy( p, X->p, i * ciL );
 403              	 .loc 1 177 0
 404 008a 7B68     	 ldr r3,[r7,#4]
 405 008c 9A68     	 ldr r2,[r3,#8]
 406 008e FB68     	 ldr r3,[r7,#12]
 407 0090 9B00     	 lsls r3,r3,#2
 408 0092 B868     	 ldr r0,[r7,#8]
 409 0094 1146     	 mov r1,r2
 410 0096 1A46     	 mov r2,r3
 411 0098 FFF7FEFF 	 bl memcpy
 178:C:/Users/Yushev/git/wpcqi-optiga-trust-charge/optiga/externals/mbedtls/library\bignum.c ****         mbedtls_mpi_zeroize( X->p, X->n );
 412              	 .loc 1 178 0
 413 009c 7B68     	 ldr r3,[r7,#4]
 414 009e 9A68     	 ldr r2,[r3,#8]
 415 00a0 7B68     	 ldr r3,[r7,#4]
 416 00a2 5B68     	 ldr r3,[r3,#4]
 417 00a4 1046     	 mov r0,r2
 418 00a6 1946     	 mov r1,r3
 419 00a8 FFF7FEFF 	 bl mbedtls_mpi_zeroize
 179:C:/Users/Yushev/git/wpcqi-optiga-trust-charge/optiga/externals/mbedtls/library\bignum.c ****         mbedtls_free( X->p );
 420              	 .loc 1 179 0
 421 00ac 7B68     	 ldr r3,[r7,#4]
 422 00ae 9B68     	 ldr r3,[r3,#8]
 423 00b0 1846     	 mov r0,r3
 424 00b2 FFF7FEFF 	 bl free
 425              	.L23:
 180:C:/Users/Yushev/git/wpcqi-optiga-trust-charge/optiga/externals/mbedtls/library\bignum.c ****     }
 181:C:/Users/Yushev/git/wpcqi-optiga-trust-charge/optiga/externals/mbedtls/library\bignum.c **** 
 182:C:/Users/Yushev/git/wpcqi-optiga-trust-charge/optiga/externals/mbedtls/library\bignum.c ****     X->n = i;
 426              	 .loc 1 182 0
 427 00b6 7B68     	 ldr r3,[r7,#4]
 428 00b8 FA68     	 ldr r2,[r7,#12]
 429 00ba 5A60     	 str r2,[r3,#4]
 183:C:/Users/Yushev/git/wpcqi-optiga-trust-charge/optiga/externals/mbedtls/library\bignum.c ****     X->p = p;
 430              	 .loc 1 183 0
 431 00bc 7B68     	 ldr r3,[r7,#4]
 432 00be BA68     	 ldr r2,[r7,#8]
 433 00c0 9A60     	 str r2,[r3,#8]
 184:C:/Users/Yushev/git/wpcqi-optiga-trust-charge/optiga/externals/mbedtls/library\bignum.c **** 
 185:C:/Users/Yushev/git/wpcqi-optiga-trust-charge/optiga/externals/mbedtls/library\bignum.c ****     return( 0 );
 434              	 .loc 1 185 0
 435 00c2 0023     	 movs r3,#0
 436              	.L15:
 186:C:/Users/Yushev/git/wpcqi-optiga-trust-charge/optiga/externals/mbedtls/library\bignum.c **** }
 437              	 .loc 1 186 0
 438 00c4 1846     	 mov r0,r3
 439 00c6 1037     	 adds r7,r7,#16
 440              	.LCFI24:
 441              	 .cfi_def_cfa_offset 8
 442 00c8 BD46     	 mov sp,r7
 443              	.LCFI25:
 444              	 .cfi_def_cfa_register 13
 445              	 
 446 00ca 80BD     	 pop {r7,pc}
 447              	 .cfi_endproc
 448              	.LFE4:
 450              	 .section .text.mbedtls_mpi_copy,"ax",%progbits
 451              	 .align 2
 452              	 .global mbedtls_mpi_copy
 453              	 .thumb
 454              	 .thumb_func
 456              	mbedtls_mpi_copy:
 457              	.LFB5:
 187:C:/Users/Yushev/git/wpcqi-optiga-trust-charge/optiga/externals/mbedtls/library\bignum.c **** 
 188:C:/Users/Yushev/git/wpcqi-optiga-trust-charge/optiga/externals/mbedtls/library\bignum.c **** /*
 189:C:/Users/Yushev/git/wpcqi-optiga-trust-charge/optiga/externals/mbedtls/library\bignum.c ****  * Copy the contents of Y into X
 190:C:/Users/Yushev/git/wpcqi-optiga-trust-charge/optiga/externals/mbedtls/library\bignum.c ****  */
 191:C:/Users/Yushev/git/wpcqi-optiga-trust-charge/optiga/externals/mbedtls/library\bignum.c **** int mbedtls_mpi_copy( mbedtls_mpi *X, const mbedtls_mpi *Y )
 192:C:/Users/Yushev/git/wpcqi-optiga-trust-charge/optiga/externals/mbedtls/library\bignum.c **** {
 458              	 .loc 1 192 0
 459              	 .cfi_startproc
 460              	 
 461              	 
 462 0000 80B5     	 push {r7,lr}
 463              	.LCFI26:
 464              	 .cfi_def_cfa_offset 8
 465              	 .cfi_offset 7,-8
 466              	 .cfi_offset 14,-4
 467 0002 84B0     	 sub sp,sp,#16
 468              	.LCFI27:
 469              	 .cfi_def_cfa_offset 24
 470 0004 00AF     	 add r7,sp,#0
 471              	.LCFI28:
 472              	 .cfi_def_cfa_register 7
 473 0006 7860     	 str r0,[r7,#4]
 474 0008 3960     	 str r1,[r7]
 193:C:/Users/Yushev/git/wpcqi-optiga-trust-charge/optiga/externals/mbedtls/library\bignum.c ****     int ret = 0;
 475              	 .loc 1 193 0
 476 000a 0023     	 movs r3,#0
 477 000c FB60     	 str r3,[r7,#12]
 194:C:/Users/Yushev/git/wpcqi-optiga-trust-charge/optiga/externals/mbedtls/library\bignum.c ****     size_t i;
 195:C:/Users/Yushev/git/wpcqi-optiga-trust-charge/optiga/externals/mbedtls/library\bignum.c ****     MPI_VALIDATE_RET( X != NULL );
 196:C:/Users/Yushev/git/wpcqi-optiga-trust-charge/optiga/externals/mbedtls/library\bignum.c ****     MPI_VALIDATE_RET( Y != NULL );
 197:C:/Users/Yushev/git/wpcqi-optiga-trust-charge/optiga/externals/mbedtls/library\bignum.c **** 
 198:C:/Users/Yushev/git/wpcqi-optiga-trust-charge/optiga/externals/mbedtls/library\bignum.c ****     if( X == Y )
 478              	 .loc 1 198 0
 479 000e 7A68     	 ldr r2,[r7,#4]
 480 0010 3B68     	 ldr r3,[r7]
 481 0012 9A42     	 cmp r2,r3
 482 0014 01D1     	 bne .L25
 199:C:/Users/Yushev/git/wpcqi-optiga-trust-charge/optiga/externals/mbedtls/library\bignum.c ****         return( 0 );
 483              	 .loc 1 199 0
 484 0016 0023     	 movs r3,#0
 485 0018 4CE0     	 b .L26
 486              	.L25:
 200:C:/Users/Yushev/git/wpcqi-optiga-trust-charge/optiga/externals/mbedtls/library\bignum.c **** 
 201:C:/Users/Yushev/git/wpcqi-optiga-trust-charge/optiga/externals/mbedtls/library\bignum.c ****     if( Y->p == NULL )
 487              	 .loc 1 201 0
 488 001a 3B68     	 ldr r3,[r7]
 489 001c 9B68     	 ldr r3,[r3,#8]
 490 001e 002B     	 cmp r3,#0
 491 0020 04D1     	 bne .L27
 202:C:/Users/Yushev/git/wpcqi-optiga-trust-charge/optiga/externals/mbedtls/library\bignum.c ****     {
 203:C:/Users/Yushev/git/wpcqi-optiga-trust-charge/optiga/externals/mbedtls/library\bignum.c ****         mbedtls_mpi_free( X );
 492              	 .loc 1 203 0
 493 0022 7868     	 ldr r0,[r7,#4]
 494 0024 FFF7FEFF 	 bl mbedtls_mpi_free
 204:C:/Users/Yushev/git/wpcqi-optiga-trust-charge/optiga/externals/mbedtls/library\bignum.c ****         return( 0 );
 495              	 .loc 1 204 0
 496 0028 0023     	 movs r3,#0
 497 002a 43E0     	 b .L26
 498              	.L27:
 205:C:/Users/Yushev/git/wpcqi-optiga-trust-charge/optiga/externals/mbedtls/library\bignum.c ****     }
 206:C:/Users/Yushev/git/wpcqi-optiga-trust-charge/optiga/externals/mbedtls/library\bignum.c **** 
 207:C:/Users/Yushev/git/wpcqi-optiga-trust-charge/optiga/externals/mbedtls/library\bignum.c ****     for( i = Y->n - 1; i > 0; i-- )
 499              	 .loc 1 207 0
 500 002c 3B68     	 ldr r3,[r7]
 501 002e 5B68     	 ldr r3,[r3,#4]
 502 0030 013B     	 subs r3,r3,#1
 503 0032 BB60     	 str r3,[r7,#8]
 504 0034 0BE0     	 b .L28
 505              	.L31:
 208:C:/Users/Yushev/git/wpcqi-optiga-trust-charge/optiga/externals/mbedtls/library\bignum.c ****         if( Y->p[i] != 0 )
 506              	 .loc 1 208 0
 507 0036 3B68     	 ldr r3,[r7]
 508 0038 9A68     	 ldr r2,[r3,#8]
 509 003a BB68     	 ldr r3,[r7,#8]
 510 003c 9B00     	 lsls r3,r3,#2
 511 003e 1344     	 add r3,r3,r2
 512 0040 1B68     	 ldr r3,[r3]
 513 0042 002B     	 cmp r3,#0
 514 0044 00D0     	 beq .L29
 209:C:/Users/Yushev/git/wpcqi-optiga-trust-charge/optiga/externals/mbedtls/library\bignum.c ****             break;
 515              	 .loc 1 209 0
 516 0046 05E0     	 b .L30
 517              	.L29:
 207:C:/Users/Yushev/git/wpcqi-optiga-trust-charge/optiga/externals/mbedtls/library\bignum.c ****         if( Y->p[i] != 0 )
 518              	 .loc 1 207 0 discriminator 2
 519 0048 BB68     	 ldr r3,[r7,#8]
 520 004a 013B     	 subs r3,r3,#1
 521 004c BB60     	 str r3,[r7,#8]
 522              	.L28:
 207:C:/Users/Yushev/git/wpcqi-optiga-trust-charge/optiga/externals/mbedtls/library\bignum.c ****         if( Y->p[i] != 0 )
 523              	 .loc 1 207 0 is_stmt 0 discriminator 1
 524 004e BB68     	 ldr r3,[r7,#8]
 525 0050 002B     	 cmp r3,#0
 526 0052 F0D1     	 bne .L31
 527              	.L30:
 210:C:/Users/Yushev/git/wpcqi-optiga-trust-charge/optiga/externals/mbedtls/library\bignum.c ****     i++;
 528              	 .loc 1 210 0 is_stmt 1
 529 0054 BB68     	 ldr r3,[r7,#8]
 530 0056 0133     	 adds r3,r3,#1
 531 0058 BB60     	 str r3,[r7,#8]
 211:C:/Users/Yushev/git/wpcqi-optiga-trust-charge/optiga/externals/mbedtls/library\bignum.c **** 
 212:C:/Users/Yushev/git/wpcqi-optiga-trust-charge/optiga/externals/mbedtls/library\bignum.c ****     X->s = Y->s;
 532              	 .loc 1 212 0
 533 005a 3B68     	 ldr r3,[r7]
 534 005c 1A68     	 ldr r2,[r3]
 535 005e 7B68     	 ldr r3,[r7,#4]
 536 0060 1A60     	 str r2,[r3]
 213:C:/Users/Yushev/git/wpcqi-optiga-trust-charge/optiga/externals/mbedtls/library\bignum.c **** 
 214:C:/Users/Yushev/git/wpcqi-optiga-trust-charge/optiga/externals/mbedtls/library\bignum.c ****     if( X->n < i )
 537              	 .loc 1 214 0
 538 0062 7B68     	 ldr r3,[r7,#4]
 539 0064 5A68     	 ldr r2,[r3,#4]
 540 0066 BB68     	 ldr r3,[r7,#8]
 541 0068 9A42     	 cmp r2,r3
 542 006a 08D2     	 bcs .L32
 215:C:/Users/Yushev/git/wpcqi-optiga-trust-charge/optiga/externals/mbedtls/library\bignum.c ****     {
 216:C:/Users/Yushev/git/wpcqi-optiga-trust-charge/optiga/externals/mbedtls/library\bignum.c ****         MBEDTLS_MPI_CHK( mbedtls_mpi_grow( X, i ) );
 543              	 .loc 1 216 0
 544 006c 7868     	 ldr r0,[r7,#4]
 545 006e B968     	 ldr r1,[r7,#8]
 546 0070 FFF7FEFF 	 bl mbedtls_mpi_grow
 547 0074 F860     	 str r0,[r7,#12]
 548 0076 FB68     	 ldr r3,[r7,#12]
 549 0078 002B     	 cmp r3,#0
 550 007a 0FD0     	 beq .L33
 551 007c 19E0     	 b .L34
 552              	.L32:
 217:C:/Users/Yushev/git/wpcqi-optiga-trust-charge/optiga/externals/mbedtls/library\bignum.c ****     }
 218:C:/Users/Yushev/git/wpcqi-optiga-trust-charge/optiga/externals/mbedtls/library\bignum.c ****     else
 219:C:/Users/Yushev/git/wpcqi-optiga-trust-charge/optiga/externals/mbedtls/library\bignum.c ****     {
 220:C:/Users/Yushev/git/wpcqi-optiga-trust-charge/optiga/externals/mbedtls/library\bignum.c ****         memset( X->p + i, 0, ( X->n - i ) * ciL );
 553              	 .loc 1 220 0
 554 007e 7B68     	 ldr r3,[r7,#4]
 555 0080 9A68     	 ldr r2,[r3,#8]
 556 0082 BB68     	 ldr r3,[r7,#8]
 557 0084 9B00     	 lsls r3,r3,#2
 558 0086 D118     	 adds r1,r2,r3
 559 0088 7B68     	 ldr r3,[r7,#4]
 560 008a 5A68     	 ldr r2,[r3,#4]
 561 008c BB68     	 ldr r3,[r7,#8]
 562 008e D31A     	 subs r3,r2,r3
 563 0090 9B00     	 lsls r3,r3,#2
 564 0092 0846     	 mov r0,r1
 565 0094 0021     	 movs r1,#0
 566 0096 1A46     	 mov r2,r3
 567 0098 FFF7FEFF 	 bl memset
 568              	.L33:
 221:C:/Users/Yushev/git/wpcqi-optiga-trust-charge/optiga/externals/mbedtls/library\bignum.c ****     }
 222:C:/Users/Yushev/git/wpcqi-optiga-trust-charge/optiga/externals/mbedtls/library\bignum.c **** 
 223:C:/Users/Yushev/git/wpcqi-optiga-trust-charge/optiga/externals/mbedtls/library\bignum.c ****     memcpy( X->p, Y->p, i * ciL );
 569              	 .loc 1 223 0
 570 009c 7B68     	 ldr r3,[r7,#4]
 571 009e 9968     	 ldr r1,[r3,#8]
 572 00a0 3B68     	 ldr r3,[r7]
 573 00a2 9A68     	 ldr r2,[r3,#8]
 574 00a4 BB68     	 ldr r3,[r7,#8]
 575 00a6 9B00     	 lsls r3,r3,#2
 576 00a8 0846     	 mov r0,r1
 577 00aa 1146     	 mov r1,r2
 578 00ac 1A46     	 mov r2,r3
 579 00ae FFF7FEFF 	 bl memcpy
 580              	.L34:
 224:C:/Users/Yushev/git/wpcqi-optiga-trust-charge/optiga/externals/mbedtls/library\bignum.c **** 
 225:C:/Users/Yushev/git/wpcqi-optiga-trust-charge/optiga/externals/mbedtls/library\bignum.c **** cleanup:
 226:C:/Users/Yushev/git/wpcqi-optiga-trust-charge/optiga/externals/mbedtls/library\bignum.c **** 
 227:C:/Users/Yushev/git/wpcqi-optiga-trust-charge/optiga/externals/mbedtls/library\bignum.c ****     return( ret );
 581              	 .loc 1 227 0
 582 00b2 FB68     	 ldr r3,[r7,#12]
 583              	.L26:
 228:C:/Users/Yushev/git/wpcqi-optiga-trust-charge/optiga/externals/mbedtls/library\bignum.c **** }
 584              	 .loc 1 228 0
 585 00b4 1846     	 mov r0,r3
 586 00b6 1037     	 adds r7,r7,#16
 587              	.LCFI29:
 588              	 .cfi_def_cfa_offset 8
 589 00b8 BD46     	 mov sp,r7
 590              	.LCFI30:
 591              	 .cfi_def_cfa_register 13
 592              	 
 593 00ba 80BD     	 pop {r7,pc}
 594              	 .cfi_endproc
 595              	.LFE5:
 597              	 .section .text.mbedtls_mpi_swap,"ax",%progbits
 598              	 .align 2
 599              	 .global mbedtls_mpi_swap
 600              	 .thumb
 601              	 .thumb_func
 603              	mbedtls_mpi_swap:
 604              	.LFB6:
 229:C:/Users/Yushev/git/wpcqi-optiga-trust-charge/optiga/externals/mbedtls/library\bignum.c **** 
 230:C:/Users/Yushev/git/wpcqi-optiga-trust-charge/optiga/externals/mbedtls/library\bignum.c **** /*
 231:C:/Users/Yushev/git/wpcqi-optiga-trust-charge/optiga/externals/mbedtls/library\bignum.c ****  * Swap the contents of X and Y
 232:C:/Users/Yushev/git/wpcqi-optiga-trust-charge/optiga/externals/mbedtls/library\bignum.c ****  */
 233:C:/Users/Yushev/git/wpcqi-optiga-trust-charge/optiga/externals/mbedtls/library\bignum.c **** void mbedtls_mpi_swap( mbedtls_mpi *X, mbedtls_mpi *Y )
 234:C:/Users/Yushev/git/wpcqi-optiga-trust-charge/optiga/externals/mbedtls/library\bignum.c **** {
 605              	 .loc 1 234 0
 606              	 .cfi_startproc
 607              	 
 608              	 
 609 0000 80B5     	 push {r7,lr}
 610              	.LCFI31:
 611              	 .cfi_def_cfa_offset 8
 612              	 .cfi_offset 7,-8
 613              	 .cfi_offset 14,-4
 614 0002 86B0     	 sub sp,sp,#24
 615              	.LCFI32:
 616              	 .cfi_def_cfa_offset 32
 617 0004 00AF     	 add r7,sp,#0
 618              	.LCFI33:
 619              	 .cfi_def_cfa_register 7
 620 0006 7860     	 str r0,[r7,#4]
 621 0008 3960     	 str r1,[r7]
 235:C:/Users/Yushev/git/wpcqi-optiga-trust-charge/optiga/externals/mbedtls/library\bignum.c ****     mbedtls_mpi T;
 236:C:/Users/Yushev/git/wpcqi-optiga-trust-charge/optiga/externals/mbedtls/library\bignum.c ****     MPI_VALIDATE( X != NULL );
 237:C:/Users/Yushev/git/wpcqi-optiga-trust-charge/optiga/externals/mbedtls/library\bignum.c ****     MPI_VALIDATE( Y != NULL );
 238:C:/Users/Yushev/git/wpcqi-optiga-trust-charge/optiga/externals/mbedtls/library\bignum.c **** 
 239:C:/Users/Yushev/git/wpcqi-optiga-trust-charge/optiga/externals/mbedtls/library\bignum.c ****     memcpy( &T,  X, sizeof( mbedtls_mpi ) );
 622              	 .loc 1 239 0
 623 000a 07F10C03 	 add r3,r7,#12
 624 000e 1846     	 mov r0,r3
 625 0010 7968     	 ldr r1,[r7,#4]
 626 0012 0C22     	 movs r2,#12
 627 0014 FFF7FEFF 	 bl memcpy
 240:C:/Users/Yushev/git/wpcqi-optiga-trust-charge/optiga/externals/mbedtls/library\bignum.c ****     memcpy(  X,  Y, sizeof( mbedtls_mpi ) );
 628              	 .loc 1 240 0
 629 0018 7868     	 ldr r0,[r7,#4]
 630 001a 3968     	 ldr r1,[r7]
 631 001c 0C22     	 movs r2,#12
 632 001e FFF7FEFF 	 bl memcpy
 241:C:/Users/Yushev/git/wpcqi-optiga-trust-charge/optiga/externals/mbedtls/library\bignum.c ****     memcpy(  Y, &T, sizeof( mbedtls_mpi ) );
 633              	 .loc 1 241 0
 634 0022 07F10C03 	 add r3,r7,#12
 635 0026 3868     	 ldr r0,[r7]
 636 0028 1946     	 mov r1,r3
 637 002a 0C22     	 movs r2,#12
 638 002c FFF7FEFF 	 bl memcpy
 242:C:/Users/Yushev/git/wpcqi-optiga-trust-charge/optiga/externals/mbedtls/library\bignum.c **** }
 639              	 .loc 1 242 0
 640 0030 1837     	 adds r7,r7,#24
 641              	.LCFI34:
 642              	 .cfi_def_cfa_offset 8
 643 0032 BD46     	 mov sp,r7
 644              	.LCFI35:
 645              	 .cfi_def_cfa_register 13
 646              	 
 647 0034 80BD     	 pop {r7,pc}
 648              	 .cfi_endproc
 649              	.LFE6:
 651 0036 00BF     	 .section .text.mbedtls_mpi_safe_cond_assign,"ax",%progbits
 652              	 .align 2
 653              	 .global mbedtls_mpi_safe_cond_assign
 654              	 .thumb
 655              	 .thumb_func
 657              	mbedtls_mpi_safe_cond_assign:
 658              	.LFB7:
 243:C:/Users/Yushev/git/wpcqi-optiga-trust-charge/optiga/externals/mbedtls/library\bignum.c **** 
 244:C:/Users/Yushev/git/wpcqi-optiga-trust-charge/optiga/externals/mbedtls/library\bignum.c **** /*
 245:C:/Users/Yushev/git/wpcqi-optiga-trust-charge/optiga/externals/mbedtls/library\bignum.c ****  * Conditionally assign X = Y, without leaking information
 246:C:/Users/Yushev/git/wpcqi-optiga-trust-charge/optiga/externals/mbedtls/library\bignum.c ****  * about whether the assignment was made or not.
 247:C:/Users/Yushev/git/wpcqi-optiga-trust-charge/optiga/externals/mbedtls/library\bignum.c ****  * (Leaking information about the respective sizes of X and Y is ok however.)
 248:C:/Users/Yushev/git/wpcqi-optiga-trust-charge/optiga/externals/mbedtls/library\bignum.c ****  */
 249:C:/Users/Yushev/git/wpcqi-optiga-trust-charge/optiga/externals/mbedtls/library\bignum.c **** int mbedtls_mpi_safe_cond_assign( mbedtls_mpi *X, const mbedtls_mpi *Y, unsigned char assign )
 250:C:/Users/Yushev/git/wpcqi-optiga-trust-charge/optiga/externals/mbedtls/library\bignum.c **** {
 659              	 .loc 1 250 0
 660              	 .cfi_startproc
 661              	 
 662              	 
 663 0000 80B5     	 push {r7,lr}
 664              	.LCFI36:
 665              	 .cfi_def_cfa_offset 8
 666              	 .cfi_offset 7,-8
 667              	 .cfi_offset 14,-4
 668 0002 86B0     	 sub sp,sp,#24
 669              	.LCFI37:
 670              	 .cfi_def_cfa_offset 32
 671 0004 00AF     	 add r7,sp,#0
 672              	.LCFI38:
 673              	 .cfi_def_cfa_register 7
 674 0006 F860     	 str r0,[r7,#12]
 675 0008 B960     	 str r1,[r7,#8]
 676 000a 1346     	 mov r3,r2
 677 000c FB71     	 strb r3,[r7,#7]
 251:C:/Users/Yushev/git/wpcqi-optiga-trust-charge/optiga/externals/mbedtls/library\bignum.c ****     int ret = 0;
 678              	 .loc 1 251 0
 679 000e 0023     	 movs r3,#0
 680 0010 3B61     	 str r3,[r7,#16]
 252:C:/Users/Yushev/git/wpcqi-optiga-trust-charge/optiga/externals/mbedtls/library\bignum.c ****     size_t i;
 253:C:/Users/Yushev/git/wpcqi-optiga-trust-charge/optiga/externals/mbedtls/library\bignum.c ****     MPI_VALIDATE_RET( X != NULL );
 254:C:/Users/Yushev/git/wpcqi-optiga-trust-charge/optiga/externals/mbedtls/library\bignum.c ****     MPI_VALIDATE_RET( Y != NULL );
 255:C:/Users/Yushev/git/wpcqi-optiga-trust-charge/optiga/externals/mbedtls/library\bignum.c **** 
 256:C:/Users/Yushev/git/wpcqi-optiga-trust-charge/optiga/externals/mbedtls/library\bignum.c ****     /* make sure assign is 0 or 1 in a time-constant manner */
 257:C:/Users/Yushev/git/wpcqi-optiga-trust-charge/optiga/externals/mbedtls/library\bignum.c ****     assign = (assign | (unsigned char)-assign) >> 7;
 681              	 .loc 1 257 0
 682 0012 FB79     	 ldrb r3,[r7,#7]
 683 0014 5B42     	 negs r3,r3
 684 0016 DAB2     	 uxtb r2,r3
 685 0018 FB79     	 ldrb r3,[r7,#7]
 686 001a 1343     	 orrs r3,r3,r2
 687 001c DBB2     	 uxtb r3,r3
 688 001e DB09     	 lsrs r3,r3,#7
 689 0020 FB71     	 strb r3,[r7,#7]
 258:C:/Users/Yushev/git/wpcqi-optiga-trust-charge/optiga/externals/mbedtls/library\bignum.c **** 
 259:C:/Users/Yushev/git/wpcqi-optiga-trust-charge/optiga/externals/mbedtls/library\bignum.c ****     MBEDTLS_MPI_CHK( mbedtls_mpi_grow( X, Y->n ) );
 690              	 .loc 1 259 0
 691 0022 BB68     	 ldr r3,[r7,#8]
 692 0024 5B68     	 ldr r3,[r3,#4]
 693 0026 F868     	 ldr r0,[r7,#12]
 694 0028 1946     	 mov r1,r3
 695 002a FFF7FEFF 	 bl mbedtls_mpi_grow
 696 002e 3861     	 str r0,[r7,#16]
 697 0030 3B69     	 ldr r3,[r7,#16]
 698 0032 002B     	 cmp r3,#0
 699 0034 00D0     	 beq .L37
 700 0036 4EE0     	 b .L38
 701              	.L37:
 260:C:/Users/Yushev/git/wpcqi-optiga-trust-charge/optiga/externals/mbedtls/library\bignum.c **** 
 261:C:/Users/Yushev/git/wpcqi-optiga-trust-charge/optiga/externals/mbedtls/library\bignum.c ****     X->s = X->s * ( 1 - assign ) + Y->s * assign;
 702              	 .loc 1 261 0
 703 0038 FB68     	 ldr r3,[r7,#12]
 704 003a 1B68     	 ldr r3,[r3]
 705 003c FA79     	 ldrb r2,[r7,#7]
 706 003e C2F10102 	 rsb r2,r2,#1
 707 0042 02FB03F2 	 mul r2,r2,r3
 708 0046 BB68     	 ldr r3,[r7,#8]
 709 0048 1B68     	 ldr r3,[r3]
 710 004a F979     	 ldrb r1,[r7,#7]
 711 004c 01FB03F3 	 mul r3,r1,r3
 712 0050 1A44     	 add r2,r2,r3
 713 0052 FB68     	 ldr r3,[r7,#12]
 714 0054 1A60     	 str r2,[r3]
 262:C:/Users/Yushev/git/wpcqi-optiga-trust-charge/optiga/externals/mbedtls/library\bignum.c **** 
 263:C:/Users/Yushev/git/wpcqi-optiga-trust-charge/optiga/externals/mbedtls/library\bignum.c ****     for( i = 0; i < Y->n; i++ )
 715              	 .loc 1 263 0
 716 0056 0023     	 movs r3,#0
 717 0058 7B61     	 str r3,[r7,#20]
 718 005a 1DE0     	 b .L39
 719              	.L40:
 264:C:/Users/Yushev/git/wpcqi-optiga-trust-charge/optiga/externals/mbedtls/library\bignum.c ****         X->p[i] = X->p[i] * ( 1 - assign ) + Y->p[i] * assign;
 720              	 .loc 1 264 0 discriminator 3
 721 005c FB68     	 ldr r3,[r7,#12]
 722 005e 9A68     	 ldr r2,[r3,#8]
 723 0060 7B69     	 ldr r3,[r7,#20]
 724 0062 9B00     	 lsls r3,r3,#2
 725 0064 1344     	 add r3,r3,r2
 726 0066 FA68     	 ldr r2,[r7,#12]
 727 0068 9168     	 ldr r1,[r2,#8]
 728 006a 7A69     	 ldr r2,[r7,#20]
 729 006c 9200     	 lsls r2,r2,#2
 730 006e 0A44     	 add r2,r2,r1
 731 0070 1268     	 ldr r2,[r2]
 732 0072 F979     	 ldrb r1,[r7,#7]
 733 0074 C1F10101 	 rsb r1,r1,#1
 734 0078 01FB02F1 	 mul r1,r1,r2
 735 007c BA68     	 ldr r2,[r7,#8]
 736 007e 9068     	 ldr r0,[r2,#8]
 737 0080 7A69     	 ldr r2,[r7,#20]
 738 0082 9200     	 lsls r2,r2,#2
 739 0084 0244     	 add r2,r2,r0
 740 0086 1268     	 ldr r2,[r2]
 741 0088 F879     	 ldrb r0,[r7,#7]
 742 008a 00FB02F2 	 mul r2,r0,r2
 743 008e 0A44     	 add r2,r2,r1
 744 0090 1A60     	 str r2,[r3]
 263:C:/Users/Yushev/git/wpcqi-optiga-trust-charge/optiga/externals/mbedtls/library\bignum.c ****         X->p[i] = X->p[i] * ( 1 - assign ) + Y->p[i] * assign;
 745              	 .loc 1 263 0 discriminator 3
 746 0092 7B69     	 ldr r3,[r7,#20]
 747 0094 0133     	 adds r3,r3,#1
 748 0096 7B61     	 str r3,[r7,#20]
 749              	.L39:
 263:C:/Users/Yushev/git/wpcqi-optiga-trust-charge/optiga/externals/mbedtls/library\bignum.c ****         X->p[i] = X->p[i] * ( 1 - assign ) + Y->p[i] * assign;
 750              	 .loc 1 263 0 is_stmt 0 discriminator 1
 751 0098 BB68     	 ldr r3,[r7,#8]
 752 009a 5A68     	 ldr r2,[r3,#4]
 753 009c 7B69     	 ldr r3,[r7,#20]
 754 009e 9A42     	 cmp r2,r3
 755 00a0 DCD8     	 bhi .L40
 265:C:/Users/Yushev/git/wpcqi-optiga-trust-charge/optiga/externals/mbedtls/library\bignum.c **** 
 266:C:/Users/Yushev/git/wpcqi-optiga-trust-charge/optiga/externals/mbedtls/library\bignum.c ****     for( ; i < X->n; i++ )
 756              	 .loc 1 266 0 is_stmt 1
 757 00a2 13E0     	 b .L41
 758              	.L42:
 267:C:/Users/Yushev/git/wpcqi-optiga-trust-charge/optiga/externals/mbedtls/library\bignum.c ****         X->p[i] *= ( 1 - assign );
 759              	 .loc 1 267 0 discriminator 2
 760 00a4 FB68     	 ldr r3,[r7,#12]
 761 00a6 9A68     	 ldr r2,[r3,#8]
 762 00a8 7B69     	 ldr r3,[r7,#20]
 763 00aa 9B00     	 lsls r3,r3,#2
 764 00ac 1344     	 add r3,r3,r2
 765 00ae FA68     	 ldr r2,[r7,#12]
 766 00b0 9168     	 ldr r1,[r2,#8]
 767 00b2 7A69     	 ldr r2,[r7,#20]
 768 00b4 9200     	 lsls r2,r2,#2
 769 00b6 0A44     	 add r2,r2,r1
 770 00b8 1268     	 ldr r2,[r2]
 771 00ba F979     	 ldrb r1,[r7,#7]
 772 00bc C1F10101 	 rsb r1,r1,#1
 773 00c0 01FB02F2 	 mul r2,r1,r2
 774 00c4 1A60     	 str r2,[r3]
 266:C:/Users/Yushev/git/wpcqi-optiga-trust-charge/optiga/externals/mbedtls/library\bignum.c ****         X->p[i] *= ( 1 - assign );
 775              	 .loc 1 266 0 discriminator 2
 776 00c6 7B69     	 ldr r3,[r7,#20]
 777 00c8 0133     	 adds r3,r3,#1
 778 00ca 7B61     	 str r3,[r7,#20]
 779              	.L41:
 266:C:/Users/Yushev/git/wpcqi-optiga-trust-charge/optiga/externals/mbedtls/library\bignum.c ****         X->p[i] *= ( 1 - assign );
 780              	 .loc 1 266 0 is_stmt 0 discriminator 1
 781 00cc FB68     	 ldr r3,[r7,#12]
 782 00ce 5A68     	 ldr r2,[r3,#4]
 783 00d0 7B69     	 ldr r3,[r7,#20]
 784 00d2 9A42     	 cmp r2,r3
 785 00d4 E6D8     	 bhi .L42
 786              	.L38:
 268:C:/Users/Yushev/git/wpcqi-optiga-trust-charge/optiga/externals/mbedtls/library\bignum.c **** 
 269:C:/Users/Yushev/git/wpcqi-optiga-trust-charge/optiga/externals/mbedtls/library\bignum.c **** cleanup:
 270:C:/Users/Yushev/git/wpcqi-optiga-trust-charge/optiga/externals/mbedtls/library\bignum.c ****     return( ret );
 787              	 .loc 1 270 0 is_stmt 1
 788 00d6 3B69     	 ldr r3,[r7,#16]
 271:C:/Users/Yushev/git/wpcqi-optiga-trust-charge/optiga/externals/mbedtls/library\bignum.c **** }
 789              	 .loc 1 271 0
 790 00d8 1846     	 mov r0,r3
 791 00da 1837     	 adds r7,r7,#24
 792              	.LCFI39:
 793              	 .cfi_def_cfa_offset 8
 794 00dc BD46     	 mov sp,r7
 795              	.LCFI40:
 796              	 .cfi_def_cfa_register 13
 797              	 
 798 00de 80BD     	 pop {r7,pc}
 799              	 .cfi_endproc
 800              	.LFE7:
 802              	 .section .text.mbedtls_mpi_safe_cond_swap,"ax",%progbits
 803              	 .align 2
 804              	 .global mbedtls_mpi_safe_cond_swap
 805              	 .thumb
 806              	 .thumb_func
 808              	mbedtls_mpi_safe_cond_swap:
 809              	.LFB8:
 272:C:/Users/Yushev/git/wpcqi-optiga-trust-charge/optiga/externals/mbedtls/library\bignum.c **** 
 273:C:/Users/Yushev/git/wpcqi-optiga-trust-charge/optiga/externals/mbedtls/library\bignum.c **** /*
 274:C:/Users/Yushev/git/wpcqi-optiga-trust-charge/optiga/externals/mbedtls/library\bignum.c ****  * Conditionally swap X and Y, without leaking information
 275:C:/Users/Yushev/git/wpcqi-optiga-trust-charge/optiga/externals/mbedtls/library\bignum.c ****  * about whether the swap was made or not.
 276:C:/Users/Yushev/git/wpcqi-optiga-trust-charge/optiga/externals/mbedtls/library\bignum.c ****  * Here it is not ok to simply swap the pointers, which whould lead to
 277:C:/Users/Yushev/git/wpcqi-optiga-trust-charge/optiga/externals/mbedtls/library\bignum.c ****  * different memory access patterns when X and Y are used afterwards.
 278:C:/Users/Yushev/git/wpcqi-optiga-trust-charge/optiga/externals/mbedtls/library\bignum.c ****  */
 279:C:/Users/Yushev/git/wpcqi-optiga-trust-charge/optiga/externals/mbedtls/library\bignum.c **** int mbedtls_mpi_safe_cond_swap( mbedtls_mpi *X, mbedtls_mpi *Y, unsigned char swap )
 280:C:/Users/Yushev/git/wpcqi-optiga-trust-charge/optiga/externals/mbedtls/library\bignum.c **** {
 810              	 .loc 1 280 0
 811              	 .cfi_startproc
 812              	 
 813              	 
 814 0000 80B5     	 push {r7,lr}
 815              	.LCFI41:
 816              	 .cfi_def_cfa_offset 8
 817              	 .cfi_offset 7,-8
 818              	 .cfi_offset 14,-4
 819 0002 88B0     	 sub sp,sp,#32
 820              	.LCFI42:
 821              	 .cfi_def_cfa_offset 40
 822 0004 00AF     	 add r7,sp,#0
 823              	.LCFI43:
 824              	 .cfi_def_cfa_register 7
 825 0006 F860     	 str r0,[r7,#12]
 826 0008 B960     	 str r1,[r7,#8]
 827 000a 1346     	 mov r3,r2
 828 000c FB71     	 strb r3,[r7,#7]
 281:C:/Users/Yushev/git/wpcqi-optiga-trust-charge/optiga/externals/mbedtls/library\bignum.c ****     int ret, s;
 282:C:/Users/Yushev/git/wpcqi-optiga-trust-charge/optiga/externals/mbedtls/library\bignum.c ****     size_t i;
 283:C:/Users/Yushev/git/wpcqi-optiga-trust-charge/optiga/externals/mbedtls/library\bignum.c ****     mbedtls_mpi_uint tmp;
 284:C:/Users/Yushev/git/wpcqi-optiga-trust-charge/optiga/externals/mbedtls/library\bignum.c ****     MPI_VALIDATE_RET( X != NULL );
 285:C:/Users/Yushev/git/wpcqi-optiga-trust-charge/optiga/externals/mbedtls/library\bignum.c ****     MPI_VALIDATE_RET( Y != NULL );
 286:C:/Users/Yushev/git/wpcqi-optiga-trust-charge/optiga/externals/mbedtls/library\bignum.c **** 
 287:C:/Users/Yushev/git/wpcqi-optiga-trust-charge/optiga/externals/mbedtls/library\bignum.c ****     if( X == Y )
 829              	 .loc 1 287 0
 830 000e FA68     	 ldr r2,[r7,#12]
 831 0010 BB68     	 ldr r3,[r7,#8]
 832 0012 9A42     	 cmp r2,r3
 833 0014 01D1     	 bne .L45
 288:C:/Users/Yushev/git/wpcqi-optiga-trust-charge/optiga/externals/mbedtls/library\bignum.c ****         return( 0 );
 834              	 .loc 1 288 0
 835 0016 0023     	 movs r3,#0
 836 0018 81E0     	 b .L46
 837              	.L45:
 289:C:/Users/Yushev/git/wpcqi-optiga-trust-charge/optiga/externals/mbedtls/library\bignum.c **** 
 290:C:/Users/Yushev/git/wpcqi-optiga-trust-charge/optiga/externals/mbedtls/library\bignum.c ****     /* make sure swap is 0 or 1 in a time-constant manner */
 291:C:/Users/Yushev/git/wpcqi-optiga-trust-charge/optiga/externals/mbedtls/library\bignum.c ****     swap = (swap | (unsigned char)-swap) >> 7;
 838              	 .loc 1 291 0
 839 001a FB79     	 ldrb r3,[r7,#7]
 840 001c 5B42     	 negs r3,r3
 841 001e DAB2     	 uxtb r2,r3
 842 0020 FB79     	 ldrb r3,[r7,#7]
 843 0022 1343     	 orrs r3,r3,r2
 844 0024 DBB2     	 uxtb r3,r3
 845 0026 DB09     	 lsrs r3,r3,#7
 846 0028 FB71     	 strb r3,[r7,#7]
 292:C:/Users/Yushev/git/wpcqi-optiga-trust-charge/optiga/externals/mbedtls/library\bignum.c **** 
 293:C:/Users/Yushev/git/wpcqi-optiga-trust-charge/optiga/externals/mbedtls/library\bignum.c ****     MBEDTLS_MPI_CHK( mbedtls_mpi_grow( X, Y->n ) );
 847              	 .loc 1 293 0
 848 002a BB68     	 ldr r3,[r7,#8]
 849 002c 5B68     	 ldr r3,[r3,#4]
 850 002e F868     	 ldr r0,[r7,#12]
 851 0030 1946     	 mov r1,r3
 852 0032 FFF7FEFF 	 bl mbedtls_mpi_grow
 853 0036 F861     	 str r0,[r7,#28]
 854 0038 FB69     	 ldr r3,[r7,#28]
 855 003a 002B     	 cmp r3,#0
 856 003c 00D0     	 beq .L47
 857 003e 6DE0     	 b .L48
 858              	.L47:
 294:C:/Users/Yushev/git/wpcqi-optiga-trust-charge/optiga/externals/mbedtls/library\bignum.c ****     MBEDTLS_MPI_CHK( mbedtls_mpi_grow( Y, X->n ) );
 859              	 .loc 1 294 0
 860 0040 FB68     	 ldr r3,[r7,#12]
 861 0042 5B68     	 ldr r3,[r3,#4]
 862 0044 B868     	 ldr r0,[r7,#8]
 863 0046 1946     	 mov r1,r3
 864 0048 FFF7FEFF 	 bl mbedtls_mpi_grow
 865 004c F861     	 str r0,[r7,#28]
 866 004e FB69     	 ldr r3,[r7,#28]
 867 0050 002B     	 cmp r3,#0
 868 0052 00D0     	 beq .L49
 869 0054 62E0     	 b .L48
 870              	.L49:
 295:C:/Users/Yushev/git/wpcqi-optiga-trust-charge/optiga/externals/mbedtls/library\bignum.c **** 
 296:C:/Users/Yushev/git/wpcqi-optiga-trust-charge/optiga/externals/mbedtls/library\bignum.c ****     s = X->s;
 871              	 .loc 1 296 0
 872 0056 FB68     	 ldr r3,[r7,#12]
 873 0058 1B68     	 ldr r3,[r3]
 874 005a 7B61     	 str r3,[r7,#20]
 297:C:/Users/Yushev/git/wpcqi-optiga-trust-charge/optiga/externals/mbedtls/library\bignum.c ****     X->s = X->s * ( 1 - swap ) + Y->s * swap;
 875              	 .loc 1 297 0
 876 005c FB68     	 ldr r3,[r7,#12]
 877 005e 1B68     	 ldr r3,[r3]
 878 0060 FA79     	 ldrb r2,[r7,#7]
 879 0062 C2F10102 	 rsb r2,r2,#1
 880 0066 02FB03F2 	 mul r2,r2,r3
 881 006a BB68     	 ldr r3,[r7,#8]
 882 006c 1B68     	 ldr r3,[r3]
 883 006e F979     	 ldrb r1,[r7,#7]
 884 0070 01FB03F3 	 mul r3,r1,r3
 885 0074 1A44     	 add r2,r2,r3
 886 0076 FB68     	 ldr r3,[r7,#12]
 887 0078 1A60     	 str r2,[r3]
 298:C:/Users/Yushev/git/wpcqi-optiga-trust-charge/optiga/externals/mbedtls/library\bignum.c ****     Y->s = Y->s * ( 1 - swap ) +    s * swap;
 888              	 .loc 1 298 0
 889 007a BB68     	 ldr r3,[r7,#8]
 890 007c 1B68     	 ldr r3,[r3]
 891 007e FA79     	 ldrb r2,[r7,#7]
 892 0080 C2F10102 	 rsb r2,r2,#1
 893 0084 02FB03F2 	 mul r2,r2,r3
 894 0088 FB79     	 ldrb r3,[r7,#7]
 895 008a 7969     	 ldr r1,[r7,#20]
 896 008c 01FB03F3 	 mul r3,r1,r3
 897 0090 1A44     	 add r2,r2,r3
 898 0092 BB68     	 ldr r3,[r7,#8]
 899 0094 1A60     	 str r2,[r3]
 299:C:/Users/Yushev/git/wpcqi-optiga-trust-charge/optiga/externals/mbedtls/library\bignum.c **** 
 300:C:/Users/Yushev/git/wpcqi-optiga-trust-charge/optiga/externals/mbedtls/library\bignum.c **** 
 301:C:/Users/Yushev/git/wpcqi-optiga-trust-charge/optiga/externals/mbedtls/library\bignum.c ****     for( i = 0; i < X->n; i++ )
 900              	 .loc 1 301 0
 901 0096 0023     	 movs r3,#0
 902 0098 BB61     	 str r3,[r7,#24]
 903 009a 3AE0     	 b .L50
 904              	.L51:
 302:C:/Users/Yushev/git/wpcqi-optiga-trust-charge/optiga/externals/mbedtls/library\bignum.c ****     {
 303:C:/Users/Yushev/git/wpcqi-optiga-trust-charge/optiga/externals/mbedtls/library\bignum.c ****         tmp = X->p[i];
 905              	 .loc 1 303 0 discriminator 3
 906 009c FB68     	 ldr r3,[r7,#12]
 907 009e 9A68     	 ldr r2,[r3,#8]
 908 00a0 BB69     	 ldr r3,[r7,#24]
 909 00a2 9B00     	 lsls r3,r3,#2
 910 00a4 1344     	 add r3,r3,r2
 911 00a6 1B68     	 ldr r3,[r3]
 912 00a8 3B61     	 str r3,[r7,#16]
 304:C:/Users/Yushev/git/wpcqi-optiga-trust-charge/optiga/externals/mbedtls/library\bignum.c ****         X->p[i] = X->p[i] * ( 1 - swap ) + Y->p[i] * swap;
 913              	 .loc 1 304 0 discriminator 3
 914 00aa FB68     	 ldr r3,[r7,#12]
 915 00ac 9A68     	 ldr r2,[r3,#8]
 916 00ae BB69     	 ldr r3,[r7,#24]
 917 00b0 9B00     	 lsls r3,r3,#2
 918 00b2 1344     	 add r3,r3,r2
 919 00b4 FA68     	 ldr r2,[r7,#12]
 920 00b6 9168     	 ldr r1,[r2,#8]
 921 00b8 BA69     	 ldr r2,[r7,#24]
 922 00ba 9200     	 lsls r2,r2,#2
 923 00bc 0A44     	 add r2,r2,r1
 924 00be 1268     	 ldr r2,[r2]
 925 00c0 F979     	 ldrb r1,[r7,#7]
 926 00c2 C1F10101 	 rsb r1,r1,#1
 927 00c6 01FB02F1 	 mul r1,r1,r2
 928 00ca BA68     	 ldr r2,[r7,#8]
 929 00cc 9068     	 ldr r0,[r2,#8]
 930 00ce BA69     	 ldr r2,[r7,#24]
 931 00d0 9200     	 lsls r2,r2,#2
 932 00d2 0244     	 add r2,r2,r0
 933 00d4 1268     	 ldr r2,[r2]
 934 00d6 F879     	 ldrb r0,[r7,#7]
 935 00d8 00FB02F2 	 mul r2,r0,r2
 936 00dc 0A44     	 add r2,r2,r1
 937 00de 1A60     	 str r2,[r3]
 305:C:/Users/Yushev/git/wpcqi-optiga-trust-charge/optiga/externals/mbedtls/library\bignum.c ****         Y->p[i] = Y->p[i] * ( 1 - swap ) +     tmp * swap;
 938              	 .loc 1 305 0 discriminator 3
 939 00e0 BB68     	 ldr r3,[r7,#8]
 940 00e2 9A68     	 ldr r2,[r3,#8]
 941 00e4 BB69     	 ldr r3,[r7,#24]
 942 00e6 9B00     	 lsls r3,r3,#2
 943 00e8 1344     	 add r3,r3,r2
 944 00ea BA68     	 ldr r2,[r7,#8]
 945 00ec 9168     	 ldr r1,[r2,#8]
 946 00ee BA69     	 ldr r2,[r7,#24]
 947 00f0 9200     	 lsls r2,r2,#2
 948 00f2 0A44     	 add r2,r2,r1
 949 00f4 1268     	 ldr r2,[r2]
 950 00f6 F979     	 ldrb r1,[r7,#7]
 951 00f8 C1F10101 	 rsb r1,r1,#1
 952 00fc 01FB02F1 	 mul r1,r1,r2
 953 0100 FA79     	 ldrb r2,[r7,#7]
 954 0102 3869     	 ldr r0,[r7,#16]
 955 0104 00FB02F2 	 mul r2,r0,r2
 956 0108 0A44     	 add r2,r2,r1
 957 010a 1A60     	 str r2,[r3]
 301:C:/Users/Yushev/git/wpcqi-optiga-trust-charge/optiga/externals/mbedtls/library\bignum.c ****     {
 958              	 .loc 1 301 0 discriminator 3
 959 010c BB69     	 ldr r3,[r7,#24]
 960 010e 0133     	 adds r3,r3,#1
 961 0110 BB61     	 str r3,[r7,#24]
 962              	.L50:
 301:C:/Users/Yushev/git/wpcqi-optiga-trust-charge/optiga/externals/mbedtls/library\bignum.c ****     {
 963              	 .loc 1 301 0 is_stmt 0 discriminator 1
 964 0112 FB68     	 ldr r3,[r7,#12]
 965 0114 5A68     	 ldr r2,[r3,#4]
 966 0116 BB69     	 ldr r3,[r7,#24]
 967 0118 9A42     	 cmp r2,r3
 968 011a BFD8     	 bhi .L51
 969              	.L48:
 306:C:/Users/Yushev/git/wpcqi-optiga-trust-charge/optiga/externals/mbedtls/library\bignum.c ****     }
 307:C:/Users/Yushev/git/wpcqi-optiga-trust-charge/optiga/externals/mbedtls/library\bignum.c **** 
 308:C:/Users/Yushev/git/wpcqi-optiga-trust-charge/optiga/externals/mbedtls/library\bignum.c **** cleanup:
 309:C:/Users/Yushev/git/wpcqi-optiga-trust-charge/optiga/externals/mbedtls/library\bignum.c ****     return( ret );
 970              	 .loc 1 309 0 is_stmt 1
 971 011c FB69     	 ldr r3,[r7,#28]
 972              	.L46:
 310:C:/Users/Yushev/git/wpcqi-optiga-trust-charge/optiga/externals/mbedtls/library\bignum.c **** }
 973              	 .loc 1 310 0
 974 011e 1846     	 mov r0,r3
 975 0120 2037     	 adds r7,r7,#32
 976              	.LCFI44:
 977              	 .cfi_def_cfa_offset 8
 978 0122 BD46     	 mov sp,r7
 979              	.LCFI45:
 980              	 .cfi_def_cfa_register 13
 981              	 
 982 0124 80BD     	 pop {r7,pc}
 983              	 .cfi_endproc
 984              	.LFE8:
 986 0126 00BF     	 .section .text.mbedtls_mpi_lset,"ax",%progbits
 987              	 .align 2
 988              	 .global mbedtls_mpi_lset
 989              	 .thumb
 990              	 .thumb_func
 992              	mbedtls_mpi_lset:
 993              	.LFB9:
 311:C:/Users/Yushev/git/wpcqi-optiga-trust-charge/optiga/externals/mbedtls/library\bignum.c **** 
 312:C:/Users/Yushev/git/wpcqi-optiga-trust-charge/optiga/externals/mbedtls/library\bignum.c **** /*
 313:C:/Users/Yushev/git/wpcqi-optiga-trust-charge/optiga/externals/mbedtls/library\bignum.c ****  * Set value from integer
 314:C:/Users/Yushev/git/wpcqi-optiga-trust-charge/optiga/externals/mbedtls/library\bignum.c ****  */
 315:C:/Users/Yushev/git/wpcqi-optiga-trust-charge/optiga/externals/mbedtls/library\bignum.c **** int mbedtls_mpi_lset( mbedtls_mpi *X, mbedtls_mpi_sint z )
 316:C:/Users/Yushev/git/wpcqi-optiga-trust-charge/optiga/externals/mbedtls/library\bignum.c **** {
 994              	 .loc 1 316 0
 995              	 .cfi_startproc
 996              	 
 997              	 
 998 0000 80B5     	 push {r7,lr}
 999              	.LCFI46:
 1000              	 .cfi_def_cfa_offset 8
 1001              	 .cfi_offset 7,-8
 1002              	 .cfi_offset 14,-4
 1003 0002 84B0     	 sub sp,sp,#16
 1004              	.LCFI47:
 1005              	 .cfi_def_cfa_offset 24
 1006 0004 00AF     	 add r7,sp,#0
 1007              	.LCFI48:
 1008              	 .cfi_def_cfa_register 7
 1009 0006 7860     	 str r0,[r7,#4]
 1010 0008 3960     	 str r1,[r7]
 317:C:/Users/Yushev/git/wpcqi-optiga-trust-charge/optiga/externals/mbedtls/library\bignum.c ****     int ret;
 318:C:/Users/Yushev/git/wpcqi-optiga-trust-charge/optiga/externals/mbedtls/library\bignum.c ****     MPI_VALIDATE_RET( X != NULL );
 319:C:/Users/Yushev/git/wpcqi-optiga-trust-charge/optiga/externals/mbedtls/library\bignum.c **** 
 320:C:/Users/Yushev/git/wpcqi-optiga-trust-charge/optiga/externals/mbedtls/library\bignum.c ****     MBEDTLS_MPI_CHK( mbedtls_mpi_grow( X, 1 ) );
 1011              	 .loc 1 320 0
 1012 000a 7868     	 ldr r0,[r7,#4]
 1013 000c 0121     	 movs r1,#1
 1014 000e FFF7FEFF 	 bl mbedtls_mpi_grow
 1015 0012 F860     	 str r0,[r7,#12]
 1016 0014 FB68     	 ldr r3,[r7,#12]
 1017 0016 002B     	 cmp r3,#0
 1018 0018 00D0     	 beq .L53
 1019 001a 19E0     	 b .L54
 1020              	.L53:
 321:C:/Users/Yushev/git/wpcqi-optiga-trust-charge/optiga/externals/mbedtls/library\bignum.c ****     memset( X->p, 0, X->n * ciL );
 1021              	 .loc 1 321 0
 1022 001c 7B68     	 ldr r3,[r7,#4]
 1023 001e 9A68     	 ldr r2,[r3,#8]
 1024 0020 7B68     	 ldr r3,[r7,#4]
 1025 0022 5B68     	 ldr r3,[r3,#4]
 1026 0024 9B00     	 lsls r3,r3,#2
 1027 0026 1046     	 mov r0,r2
 1028 0028 0021     	 movs r1,#0
 1029 002a 1A46     	 mov r2,r3
 1030 002c FFF7FEFF 	 bl memset
 322:C:/Users/Yushev/git/wpcqi-optiga-trust-charge/optiga/externals/mbedtls/library\bignum.c **** 
 323:C:/Users/Yushev/git/wpcqi-optiga-trust-charge/optiga/externals/mbedtls/library\bignum.c ****     X->p[0] = ( z < 0 ) ? -z : z;
 1031              	 .loc 1 323 0
 1032 0030 7B68     	 ldr r3,[r7,#4]
 1033 0032 9B68     	 ldr r3,[r3,#8]
 1034 0034 3A68     	 ldr r2,[r7]
 1035 0036 002A     	 cmp r2,#0
 1036 0038 B8BF     	 it lt
 1037 003a 5242     	 rsblt r2,r2,#0
 1038 003c 1A60     	 str r2,[r3]
 324:C:/Users/Yushev/git/wpcqi-optiga-trust-charge/optiga/externals/mbedtls/library\bignum.c ****     X->s    = ( z < 0 ) ? -1 : 1;
 1039              	 .loc 1 324 0
 1040 003e 3B68     	 ldr r3,[r7]
 1041 0040 002B     	 cmp r3,#0
 1042 0042 02DA     	 bge .L55
 1043              	 .loc 1 324 0 is_stmt 0 discriminator 1
 1044 0044 4FF0FF32 	 mov r2,#-1
 1045 0048 00E0     	 b .L56
 1046              	.L55:
 1047              	 .loc 1 324 0 discriminator 2
 1048 004a 0122     	 movs r2,#1
 1049              	.L56:
 1050              	 .loc 1 324 0 discriminator 4
 1051 004c 7B68     	 ldr r3,[r7,#4]
 1052 004e 1A60     	 str r2,[r3]
 1053              	.L54:
 325:C:/Users/Yushev/git/wpcqi-optiga-trust-charge/optiga/externals/mbedtls/library\bignum.c **** 
 326:C:/Users/Yushev/git/wpcqi-optiga-trust-charge/optiga/externals/mbedtls/library\bignum.c **** cleanup:
 327:C:/Users/Yushev/git/wpcqi-optiga-trust-charge/optiga/externals/mbedtls/library\bignum.c **** 
 328:C:/Users/Yushev/git/wpcqi-optiga-trust-charge/optiga/externals/mbedtls/library\bignum.c ****     return( ret );
 1054              	 .loc 1 328 0 is_stmt 1
 1055 0050 FB68     	 ldr r3,[r7,#12]
 329:C:/Users/Yushev/git/wpcqi-optiga-trust-charge/optiga/externals/mbedtls/library\bignum.c **** }
 1056              	 .loc 1 329 0
 1057 0052 1846     	 mov r0,r3
 1058 0054 1037     	 adds r7,r7,#16
 1059              	.LCFI49:
 1060              	 .cfi_def_cfa_offset 8
 1061 0056 BD46     	 mov sp,r7
 1062              	.LCFI50:
 1063              	 .cfi_def_cfa_register 13
 1064              	 
 1065 0058 80BD     	 pop {r7,pc}
 1066              	 .cfi_endproc
 1067              	.LFE9:
 1069 005a 00BF     	 .section .text.mbedtls_mpi_get_bit,"ax",%progbits
 1070              	 .align 2
 1071              	 .global mbedtls_mpi_get_bit
 1072              	 .thumb
 1073              	 .thumb_func
 1075              	mbedtls_mpi_get_bit:
 1076              	.LFB10:
 330:C:/Users/Yushev/git/wpcqi-optiga-trust-charge/optiga/externals/mbedtls/library\bignum.c **** 
 331:C:/Users/Yushev/git/wpcqi-optiga-trust-charge/optiga/externals/mbedtls/library\bignum.c **** /*
 332:C:/Users/Yushev/git/wpcqi-optiga-trust-charge/optiga/externals/mbedtls/library\bignum.c ****  * Get a specific bit
 333:C:/Users/Yushev/git/wpcqi-optiga-trust-charge/optiga/externals/mbedtls/library\bignum.c ****  */
 334:C:/Users/Yushev/git/wpcqi-optiga-trust-charge/optiga/externals/mbedtls/library\bignum.c **** int mbedtls_mpi_get_bit( const mbedtls_mpi *X, size_t pos )
 335:C:/Users/Yushev/git/wpcqi-optiga-trust-charge/optiga/externals/mbedtls/library\bignum.c **** {
 1077              	 .loc 1 335 0
 1078              	 .cfi_startproc
 1079              	 
 1080              	 
 1081              	 
 1082 0000 80B4     	 push {r7}
 1083              	.LCFI51:
 1084              	 .cfi_def_cfa_offset 4
 1085              	 .cfi_offset 7,-4
 1086 0002 83B0     	 sub sp,sp,#12
 1087              	.LCFI52:
 1088              	 .cfi_def_cfa_offset 16
 1089 0004 00AF     	 add r7,sp,#0
 1090              	.LCFI53:
 1091              	 .cfi_def_cfa_register 7
 1092 0006 7860     	 str r0,[r7,#4]
 1093 0008 3960     	 str r1,[r7]
 336:C:/Users/Yushev/git/wpcqi-optiga-trust-charge/optiga/externals/mbedtls/library\bignum.c ****     MPI_VALIDATE_RET( X != NULL );
 337:C:/Users/Yushev/git/wpcqi-optiga-trust-charge/optiga/externals/mbedtls/library\bignum.c **** 
 338:C:/Users/Yushev/git/wpcqi-optiga-trust-charge/optiga/externals/mbedtls/library\bignum.c ****     if( X->n * biL <= pos )
 1094              	 .loc 1 338 0
 1095 000a 7B68     	 ldr r3,[r7,#4]
 1096 000c 5B68     	 ldr r3,[r3,#4]
 1097 000e 5A01     	 lsls r2,r3,#5
 1098 0010 3B68     	 ldr r3,[r7]
 1099 0012 9A42     	 cmp r2,r3
 1100 0014 01D8     	 bhi .L59
 339:C:/Users/Yushev/git/wpcqi-optiga-trust-charge/optiga/externals/mbedtls/library\bignum.c ****         return( 0 );
 1101              	 .loc 1 339 0
 1102 0016 0023     	 movs r3,#0
 1103 0018 0DE0     	 b .L60
 1104              	.L59:
 340:C:/Users/Yushev/git/wpcqi-optiga-trust-charge/optiga/externals/mbedtls/library\bignum.c **** 
 341:C:/Users/Yushev/git/wpcqi-optiga-trust-charge/optiga/externals/mbedtls/library\bignum.c ****     return( ( X->p[pos / biL] >> ( pos % biL ) ) & 0x01 );
 1105              	 .loc 1 341 0
 1106 001a 7B68     	 ldr r3,[r7,#4]
 1107 001c 9A68     	 ldr r2,[r3,#8]
 1108 001e 3B68     	 ldr r3,[r7]
 1109 0020 5B09     	 lsrs r3,r3,#5
 1110 0022 9B00     	 lsls r3,r3,#2
 1111 0024 1344     	 add r3,r3,r2
 1112 0026 1A68     	 ldr r2,[r3]
 1113 0028 3B68     	 ldr r3,[r7]
 1114 002a 03F01F03 	 and r3,r3,#31
 1115 002e 22FA03F3 	 lsr r3,r2,r3
 1116 0032 03F00103 	 and r3,r3,#1
 1117              	.L60:
 342:C:/Users/Yushev/git/wpcqi-optiga-trust-charge/optiga/externals/mbedtls/library\bignum.c **** }
 1118              	 .loc 1 342 0
 1119 0036 1846     	 mov r0,r3
 1120 0038 0C37     	 adds r7,r7,#12
 1121              	.LCFI54:
 1122              	 .cfi_def_cfa_offset 4
 1123 003a BD46     	 mov sp,r7
 1124              	.LCFI55:
 1125              	 .cfi_def_cfa_register 13
 1126              	 
 1127 003c 5DF8047B 	 ldr r7,[sp],#4
 1128              	.LCFI56:
 1129              	 .cfi_restore 7
 1130              	 .cfi_def_cfa_offset 0
 1131 0040 7047     	 bx lr
 1132              	 .cfi_endproc
 1133              	.LFE10:
 1135 0042 00BF     	 .section .text.mbedtls_mpi_set_bit,"ax",%progbits
 1136              	 .align 2
 1137              	 .global mbedtls_mpi_set_bit
 1138              	 .thumb
 1139              	 .thumb_func
 1141              	mbedtls_mpi_set_bit:
 1142              	.LFB11:
 343:C:/Users/Yushev/git/wpcqi-optiga-trust-charge/optiga/externals/mbedtls/library\bignum.c **** 
 344:C:/Users/Yushev/git/wpcqi-optiga-trust-charge/optiga/externals/mbedtls/library\bignum.c **** /* Get a specific byte, without range checks. */
 345:C:/Users/Yushev/git/wpcqi-optiga-trust-charge/optiga/externals/mbedtls/library\bignum.c **** #define GET_BYTE( X, i )                                \
 346:C:/Users/Yushev/git/wpcqi-optiga-trust-charge/optiga/externals/mbedtls/library\bignum.c ****     ( ( ( X )->p[( i ) / ciL] >> ( ( ( i ) % ciL ) * 8 ) ) & 0xff )
 347:C:/Users/Yushev/git/wpcqi-optiga-trust-charge/optiga/externals/mbedtls/library\bignum.c **** 
 348:C:/Users/Yushev/git/wpcqi-optiga-trust-charge/optiga/externals/mbedtls/library\bignum.c **** /*
 349:C:/Users/Yushev/git/wpcqi-optiga-trust-charge/optiga/externals/mbedtls/library\bignum.c ****  * Set a bit to a specific value of 0 or 1
 350:C:/Users/Yushev/git/wpcqi-optiga-trust-charge/optiga/externals/mbedtls/library\bignum.c ****  */
 351:C:/Users/Yushev/git/wpcqi-optiga-trust-charge/optiga/externals/mbedtls/library\bignum.c **** int mbedtls_mpi_set_bit( mbedtls_mpi *X, size_t pos, unsigned char val )
 352:C:/Users/Yushev/git/wpcqi-optiga-trust-charge/optiga/externals/mbedtls/library\bignum.c **** {
 1143              	 .loc 1 352 0
 1144              	 .cfi_startproc
 1145              	 
 1146              	 
 1147 0000 80B5     	 push {r7,lr}
 1148              	.LCFI57:
 1149              	 .cfi_def_cfa_offset 8
 1150              	 .cfi_offset 7,-8
 1151              	 .cfi_offset 14,-4
 1152 0002 88B0     	 sub sp,sp,#32
 1153              	.LCFI58:
 1154              	 .cfi_def_cfa_offset 40
 1155 0004 00AF     	 add r7,sp,#0
 1156              	.LCFI59:
 1157              	 .cfi_def_cfa_register 7
 1158 0006 F860     	 str r0,[r7,#12]
 1159 0008 B960     	 str r1,[r7,#8]
 1160 000a 1346     	 mov r3,r2
 1161 000c FB71     	 strb r3,[r7,#7]
 353:C:/Users/Yushev/git/wpcqi-optiga-trust-charge/optiga/externals/mbedtls/library\bignum.c ****     int ret = 0;
 1162              	 .loc 1 353 0
 1163 000e 0023     	 movs r3,#0
 1164 0010 FB61     	 str r3,[r7,#28]
 354:C:/Users/Yushev/git/wpcqi-optiga-trust-charge/optiga/externals/mbedtls/library\bignum.c ****     size_t off = pos / biL;
 1165              	 .loc 1 354 0
 1166 0012 BB68     	 ldr r3,[r7,#8]
 1167 0014 5B09     	 lsrs r3,r3,#5
 1168 0016 BB61     	 str r3,[r7,#24]
 355:C:/Users/Yushev/git/wpcqi-optiga-trust-charge/optiga/externals/mbedtls/library\bignum.c ****     size_t idx = pos % biL;
 1169              	 .loc 1 355 0
 1170 0018 BB68     	 ldr r3,[r7,#8]
 1171 001a 03F01F03 	 and r3,r3,#31
 1172 001e 7B61     	 str r3,[r7,#20]
 356:C:/Users/Yushev/git/wpcqi-optiga-trust-charge/optiga/externals/mbedtls/library\bignum.c ****     MPI_VALIDATE_RET( X != NULL );
 357:C:/Users/Yushev/git/wpcqi-optiga-trust-charge/optiga/externals/mbedtls/library\bignum.c **** 
 358:C:/Users/Yushev/git/wpcqi-optiga-trust-charge/optiga/externals/mbedtls/library\bignum.c ****     if( val != 0 && val != 1 )
 1173              	 .loc 1 358 0
 1174 0020 FB79     	 ldrb r3,[r7,#7]
 1175 0022 002B     	 cmp r3,#0
 1176 0024 05D0     	 beq .L62
 1177              	 .loc 1 358 0 is_stmt 0 discriminator 1
 1178 0026 FB79     	 ldrb r3,[r7,#7]
 1179 0028 012B     	 cmp r3,#1
 1180 002a 02D0     	 beq .L62
 359:C:/Users/Yushev/git/wpcqi-optiga-trust-charge/optiga/externals/mbedtls/library\bignum.c ****         return( MBEDTLS_ERR_MPI_BAD_INPUT_DATA );
 1181              	 .loc 1 359 0 is_stmt 1
 1182 002c 6FF00303 	 mvn r3,#3
 1183 0030 39E0     	 b .L63
 1184              	.L62:
 360:C:/Users/Yushev/git/wpcqi-optiga-trust-charge/optiga/externals/mbedtls/library\bignum.c **** 
 361:C:/Users/Yushev/git/wpcqi-optiga-trust-charge/optiga/externals/mbedtls/library\bignum.c ****     if( X->n * biL <= pos )
 1185              	 .loc 1 361 0
 1186 0032 FB68     	 ldr r3,[r7,#12]
 1187 0034 5B68     	 ldr r3,[r3,#4]
 1188 0036 5A01     	 lsls r2,r3,#5
 1189 0038 BB68     	 ldr r3,[r7,#8]
 1190 003a 9A42     	 cmp r2,r3
 1191 003c 0FD8     	 bhi .L64
 362:C:/Users/Yushev/git/wpcqi-optiga-trust-charge/optiga/externals/mbedtls/library\bignum.c ****     {
 363:C:/Users/Yushev/git/wpcqi-optiga-trust-charge/optiga/externals/mbedtls/library\bignum.c ****         if( val == 0 )
 1192              	 .loc 1 363 0
 1193 003e FB79     	 ldrb r3,[r7,#7]
 1194 0040 002B     	 cmp r3,#0
 1195 0042 01D1     	 bne .L65
 364:C:/Users/Yushev/git/wpcqi-optiga-trust-charge/optiga/externals/mbedtls/library\bignum.c ****             return( 0 );
 1196              	 .loc 1 364 0
 1197 0044 0023     	 movs r3,#0
 1198 0046 2EE0     	 b .L63
 1199              	.L65:
 365:C:/Users/Yushev/git/wpcqi-optiga-trust-charge/optiga/externals/mbedtls/library\bignum.c **** 
 366:C:/Users/Yushev/git/wpcqi-optiga-trust-charge/optiga/externals/mbedtls/library\bignum.c ****         MBEDTLS_MPI_CHK( mbedtls_mpi_grow( X, off + 1 ) );
 1200              	 .loc 1 366 0
 1201 0048 BB69     	 ldr r3,[r7,#24]
 1202 004a 0133     	 adds r3,r3,#1
 1203 004c F868     	 ldr r0,[r7,#12]
 1204 004e 1946     	 mov r1,r3
 1205 0050 FFF7FEFF 	 bl mbedtls_mpi_grow
 1206 0054 F861     	 str r0,[r7,#28]
 1207 0056 FB69     	 ldr r3,[r7,#28]
 1208 0058 002B     	 cmp r3,#0
 1209 005a 00D0     	 beq .L64
 1210 005c 22E0     	 b .L66
 1211              	.L64:
 367:C:/Users/Yushev/git/wpcqi-optiga-trust-charge/optiga/externals/mbedtls/library\bignum.c ****     }
 368:C:/Users/Yushev/git/wpcqi-optiga-trust-charge/optiga/externals/mbedtls/library\bignum.c **** 
 369:C:/Users/Yushev/git/wpcqi-optiga-trust-charge/optiga/externals/mbedtls/library\bignum.c ****     X->p[off] &= ~( (mbedtls_mpi_uint) 0x01 << idx );
 1212              	 .loc 1 369 0
 1213 005e FB68     	 ldr r3,[r7,#12]
 1214 0060 9A68     	 ldr r2,[r3,#8]
 1215 0062 BB69     	 ldr r3,[r7,#24]
 1216 0064 9B00     	 lsls r3,r3,#2
 1217 0066 1344     	 add r3,r3,r2
 1218 0068 FA68     	 ldr r2,[r7,#12]
 1219 006a 9168     	 ldr r1,[r2,#8]
 1220 006c BA69     	 ldr r2,[r7,#24]
 1221 006e 9200     	 lsls r2,r2,#2
 1222 0070 0A44     	 add r2,r2,r1
 1223 0072 1168     	 ldr r1,[r2]
 1224 0074 7A69     	 ldr r2,[r7,#20]
 1225 0076 0120     	 movs r0,#1
 1226 0078 00FA02F2 	 lsl r2,r0,r2
 1227 007c D243     	 mvns r2,r2
 1228 007e 0A40     	 ands r2,r2,r1
 1229 0080 1A60     	 str r2,[r3]
 370:C:/Users/Yushev/git/wpcqi-optiga-trust-charge/optiga/externals/mbedtls/library\bignum.c ****     X->p[off] |= (mbedtls_mpi_uint) val << idx;
 1230              	 .loc 1 370 0
 1231 0082 FB68     	 ldr r3,[r7,#12]
 1232 0084 9A68     	 ldr r2,[r3,#8]
 1233 0086 BB69     	 ldr r3,[r7,#24]
 1234 0088 9B00     	 lsls r3,r3,#2
 1235 008a 1344     	 add r3,r3,r2
 1236 008c FA68     	 ldr r2,[r7,#12]
 1237 008e 9168     	 ldr r1,[r2,#8]
 1238 0090 BA69     	 ldr r2,[r7,#24]
 1239 0092 9200     	 lsls r2,r2,#2
 1240 0094 0A44     	 add r2,r2,r1
 1241 0096 1168     	 ldr r1,[r2]
 1242 0098 F879     	 ldrb r0,[r7,#7]
 1243 009a 7A69     	 ldr r2,[r7,#20]
 1244 009c 00FA02F2 	 lsl r2,r0,r2
 1245 00a0 0A43     	 orrs r2,r2,r1
 1246 00a2 1A60     	 str r2,[r3]
 1247              	.L66:
 371:C:/Users/Yushev/git/wpcqi-optiga-trust-charge/optiga/externals/mbedtls/library\bignum.c **** 
 372:C:/Users/Yushev/git/wpcqi-optiga-trust-charge/optiga/externals/mbedtls/library\bignum.c **** cleanup:
 373:C:/Users/Yushev/git/wpcqi-optiga-trust-charge/optiga/externals/mbedtls/library\bignum.c **** 
 374:C:/Users/Yushev/git/wpcqi-optiga-trust-charge/optiga/externals/mbedtls/library\bignum.c ****     return( ret );
 1248              	 .loc 1 374 0
 1249 00a4 FB69     	 ldr r3,[r7,#28]
 1250              	.L63:
 375:C:/Users/Yushev/git/wpcqi-optiga-trust-charge/optiga/externals/mbedtls/library\bignum.c **** }
 1251              	 .loc 1 375 0
 1252 00a6 1846     	 mov r0,r3
 1253 00a8 2037     	 adds r7,r7,#32
 1254              	.LCFI60:
 1255              	 .cfi_def_cfa_offset 8
 1256 00aa BD46     	 mov sp,r7
 1257              	.LCFI61:
 1258              	 .cfi_def_cfa_register 13
 1259              	 
 1260 00ac 80BD     	 pop {r7,pc}
 1261              	 .cfi_endproc
 1262              	.LFE11:
 1264 00ae 00BF     	 .section .text.mbedtls_mpi_lsb,"ax",%progbits
 1265              	 .align 2
 1266              	 .global mbedtls_mpi_lsb
 1267              	 .thumb
 1268              	 .thumb_func
 1270              	mbedtls_mpi_lsb:
 1271              	.LFB12:
 376:C:/Users/Yushev/git/wpcqi-optiga-trust-charge/optiga/externals/mbedtls/library\bignum.c **** 
 377:C:/Users/Yushev/git/wpcqi-optiga-trust-charge/optiga/externals/mbedtls/library\bignum.c **** /*
 378:C:/Users/Yushev/git/wpcqi-optiga-trust-charge/optiga/externals/mbedtls/library\bignum.c ****  * Return the number of less significant zero-bits
 379:C:/Users/Yushev/git/wpcqi-optiga-trust-charge/optiga/externals/mbedtls/library\bignum.c ****  */
 380:C:/Users/Yushev/git/wpcqi-optiga-trust-charge/optiga/externals/mbedtls/library\bignum.c **** size_t mbedtls_mpi_lsb( const mbedtls_mpi *X )
 381:C:/Users/Yushev/git/wpcqi-optiga-trust-charge/optiga/externals/mbedtls/library\bignum.c **** {
 1272              	 .loc 1 381 0
 1273              	 .cfi_startproc
 1274              	 
 1275              	 
 1276              	 
 1277 0000 80B4     	 push {r7}
 1278              	.LCFI62:
 1279              	 .cfi_def_cfa_offset 4
 1280              	 .cfi_offset 7,-4
 1281 0002 87B0     	 sub sp,sp,#28
 1282              	.LCFI63:
 1283              	 .cfi_def_cfa_offset 32
 1284 0004 00AF     	 add r7,sp,#0
 1285              	.LCFI64:
 1286              	 .cfi_def_cfa_register 7
 1287 0006 7860     	 str r0,[r7,#4]
 382:C:/Users/Yushev/git/wpcqi-optiga-trust-charge/optiga/externals/mbedtls/library\bignum.c ****     size_t i, j, count = 0;
 1288              	 .loc 1 382 0
 1289 0008 0023     	 movs r3,#0
 1290 000a FB60     	 str r3,[r7,#12]
 383:C:/Users/Yushev/git/wpcqi-optiga-trust-charge/optiga/externals/mbedtls/library\bignum.c ****     MBEDTLS_INTERNAL_VALIDATE_RET( X != NULL, 0 );
 384:C:/Users/Yushev/git/wpcqi-optiga-trust-charge/optiga/externals/mbedtls/library\bignum.c **** 
 385:C:/Users/Yushev/git/wpcqi-optiga-trust-charge/optiga/externals/mbedtls/library\bignum.c ****     for( i = 0; i < X->n; i++ )
 1291              	 .loc 1 385 0
 1292 000c 0023     	 movs r3,#0
 1293 000e 7B61     	 str r3,[r7,#20]
 1294 0010 1DE0     	 b .L68
 1295              	.L73:
 386:C:/Users/Yushev/git/wpcqi-optiga-trust-charge/optiga/externals/mbedtls/library\bignum.c ****         for( j = 0; j < biL; j++, count++ )
 1296              	 .loc 1 386 0
 1297 0012 0023     	 movs r3,#0
 1298 0014 3B61     	 str r3,[r7,#16]
 1299 0016 14E0     	 b .L69
 1300              	.L72:
 387:C:/Users/Yushev/git/wpcqi-optiga-trust-charge/optiga/externals/mbedtls/library\bignum.c ****             if( ( ( X->p[i] >> j ) & 1 ) != 0 )
 1301              	 .loc 1 387 0
 1302 0018 7B68     	 ldr r3,[r7,#4]
 1303 001a 9A68     	 ldr r2,[r3,#8]
 1304 001c 7B69     	 ldr r3,[r7,#20]
 1305 001e 9B00     	 lsls r3,r3,#2
 1306 0020 1344     	 add r3,r3,r2
 1307 0022 1A68     	 ldr r2,[r3]
 1308 0024 3B69     	 ldr r3,[r7,#16]
 1309 0026 22FA03F3 	 lsr r3,r2,r3
 1310 002a 03F00103 	 and r3,r3,#1
 1311 002e 002B     	 cmp r3,#0
 1312 0030 01D0     	 beq .L70
 388:C:/Users/Yushev/git/wpcqi-optiga-trust-charge/optiga/externals/mbedtls/library\bignum.c ****                 return( count );
 1313              	 .loc 1 388 0
 1314 0032 FB68     	 ldr r3,[r7,#12]
 1315 0034 11E0     	 b .L71
 1316              	.L70:
 386:C:/Users/Yushev/git/wpcqi-optiga-trust-charge/optiga/externals/mbedtls/library\bignum.c ****         for( j = 0; j < biL; j++, count++ )
 1317              	 .loc 1 386 0 discriminator 2
 1318 0036 3B69     	 ldr r3,[r7,#16]
 1319 0038 0133     	 adds r3,r3,#1
 1320 003a 3B61     	 str r3,[r7,#16]
 1321 003c FB68     	 ldr r3,[r7,#12]
 1322 003e 0133     	 adds r3,r3,#1
 1323 0040 FB60     	 str r3,[r7,#12]
 1324              	.L69:
 386:C:/Users/Yushev/git/wpcqi-optiga-trust-charge/optiga/externals/mbedtls/library\bignum.c ****         for( j = 0; j < biL; j++, count++ )
 1325              	 .loc 1 386 0 is_stmt 0 discriminator 1
 1326 0042 3B69     	 ldr r3,[r7,#16]
 1327 0044 1F2B     	 cmp r3,#31
 1328 0046 E7D9     	 bls .L72
 385:C:/Users/Yushev/git/wpcqi-optiga-trust-charge/optiga/externals/mbedtls/library\bignum.c ****         for( j = 0; j < biL; j++, count++ )
 1329              	 .loc 1 385 0 is_stmt 1 discriminator 2
 1330 0048 7B69     	 ldr r3,[r7,#20]
 1331 004a 0133     	 adds r3,r3,#1
 1332 004c 7B61     	 str r3,[r7,#20]
 1333              	.L68:
 385:C:/Users/Yushev/git/wpcqi-optiga-trust-charge/optiga/externals/mbedtls/library\bignum.c ****         for( j = 0; j < biL; j++, count++ )
 1334              	 .loc 1 385 0 is_stmt 0 discriminator 1
 1335 004e 7B68     	 ldr r3,[r7,#4]
 1336 0050 5A68     	 ldr r2,[r3,#4]
 1337 0052 7B69     	 ldr r3,[r7,#20]
 1338 0054 9A42     	 cmp r2,r3
 1339 0056 DCD8     	 bhi .L73
 389:C:/Users/Yushev/git/wpcqi-optiga-trust-charge/optiga/externals/mbedtls/library\bignum.c **** 
 390:C:/Users/Yushev/git/wpcqi-optiga-trust-charge/optiga/externals/mbedtls/library\bignum.c ****     return( 0 );
 1340              	 .loc 1 390 0 is_stmt 1
 1341 0058 0023     	 movs r3,#0
 1342              	.L71:
 391:C:/Users/Yushev/git/wpcqi-optiga-trust-charge/optiga/externals/mbedtls/library\bignum.c **** }
 1343              	 .loc 1 391 0
 1344 005a 1846     	 mov r0,r3
 1345 005c 1C37     	 adds r7,r7,#28
 1346              	.LCFI65:
 1347              	 .cfi_def_cfa_offset 4
 1348 005e BD46     	 mov sp,r7
 1349              	.LCFI66:
 1350              	 .cfi_def_cfa_register 13
 1351              	 
 1352 0060 5DF8047B 	 ldr r7,[sp],#4
 1353              	.LCFI67:
 1354              	 .cfi_restore 7
 1355              	 .cfi_def_cfa_offset 0
 1356 0064 7047     	 bx lr
 1357              	 .cfi_endproc
 1358              	.LFE12:
 1360 0066 00BF     	 .section .text.mbedtls_clz,"ax",%progbits
 1361              	 .align 2
 1362              	 .thumb
 1363              	 .thumb_func
 1365              	mbedtls_clz:
 1366              	.LFB13:
 392:C:/Users/Yushev/git/wpcqi-optiga-trust-charge/optiga/externals/mbedtls/library\bignum.c **** 
 393:C:/Users/Yushev/git/wpcqi-optiga-trust-charge/optiga/externals/mbedtls/library\bignum.c **** /*
 394:C:/Users/Yushev/git/wpcqi-optiga-trust-charge/optiga/externals/mbedtls/library\bignum.c ****  * Count leading zero bits in a given integer
 395:C:/Users/Yushev/git/wpcqi-optiga-trust-charge/optiga/externals/mbedtls/library\bignum.c ****  */
 396:C:/Users/Yushev/git/wpcqi-optiga-trust-charge/optiga/externals/mbedtls/library\bignum.c **** static size_t mbedtls_clz( const mbedtls_mpi_uint x )
 397:C:/Users/Yushev/git/wpcqi-optiga-trust-charge/optiga/externals/mbedtls/library\bignum.c **** {
 1367              	 .loc 1 397 0
 1368              	 .cfi_startproc
 1369              	 
 1370              	 
 1371              	 
 1372 0000 80B4     	 push {r7}
 1373              	.LCFI68:
 1374              	 .cfi_def_cfa_offset 4
 1375              	 .cfi_offset 7,-4
 1376 0002 85B0     	 sub sp,sp,#20
 1377              	.LCFI69:
 1378              	 .cfi_def_cfa_offset 24
 1379 0004 00AF     	 add r7,sp,#0
 1380              	.LCFI70:
 1381              	 .cfi_def_cfa_register 7
 1382 0006 7860     	 str r0,[r7,#4]
 398:C:/Users/Yushev/git/wpcqi-optiga-trust-charge/optiga/externals/mbedtls/library\bignum.c ****     size_t j;
 399:C:/Users/Yushev/git/wpcqi-optiga-trust-charge/optiga/externals/mbedtls/library\bignum.c ****     mbedtls_mpi_uint mask = (mbedtls_mpi_uint) 1 << (biL - 1);
 1383              	 .loc 1 399 0
 1384 0008 4FF00043 	 mov r3,#-2147483648
 1385 000c BB60     	 str r3,[r7,#8]
 400:C:/Users/Yushev/git/wpcqi-optiga-trust-charge/optiga/externals/mbedtls/library\bignum.c **** 
 401:C:/Users/Yushev/git/wpcqi-optiga-trust-charge/optiga/externals/mbedtls/library\bignum.c ****     for( j = 0; j < biL; j++ )
 1386              	 .loc 1 401 0
 1387 000e 0023     	 movs r3,#0
 1388 0010 FB60     	 str r3,[r7,#12]
 1389 0012 0BE0     	 b .L75
 1390              	.L78:
 402:C:/Users/Yushev/git/wpcqi-optiga-trust-charge/optiga/externals/mbedtls/library\bignum.c ****     {
 403:C:/Users/Yushev/git/wpcqi-optiga-trust-charge/optiga/externals/mbedtls/library\bignum.c ****         if( x & mask ) break;
 1391              	 .loc 1 403 0
 1392 0014 7A68     	 ldr r2,[r7,#4]
 1393 0016 BB68     	 ldr r3,[r7,#8]
 1394 0018 1340     	 ands r3,r3,r2
 1395 001a 002B     	 cmp r3,#0
 1396 001c 00D0     	 beq .L76
 1397 001e 08E0     	 b .L77
 1398              	.L76:
 404:C:/Users/Yushev/git/wpcqi-optiga-trust-charge/optiga/externals/mbedtls/library\bignum.c **** 
 405:C:/Users/Yushev/git/wpcqi-optiga-trust-charge/optiga/externals/mbedtls/library\bignum.c ****         mask >>= 1;
 1399              	 .loc 1 405 0 discriminator 2
 1400 0020 BB68     	 ldr r3,[r7,#8]
 1401 0022 5B08     	 lsrs r3,r3,#1
 1402 0024 BB60     	 str r3,[r7,#8]
 401:C:/Users/Yushev/git/wpcqi-optiga-trust-charge/optiga/externals/mbedtls/library\bignum.c ****     {
 1403              	 .loc 1 401 0 discriminator 2
 1404 0026 FB68     	 ldr r3,[r7,#12]
 1405 0028 0133     	 adds r3,r3,#1
 1406 002a FB60     	 str r3,[r7,#12]
 1407              	.L75:
 401:C:/Users/Yushev/git/wpcqi-optiga-trust-charge/optiga/externals/mbedtls/library\bignum.c ****     {
 1408              	 .loc 1 401 0 is_stmt 0 discriminator 1
 1409 002c FB68     	 ldr r3,[r7,#12]
 1410 002e 1F2B     	 cmp r3,#31
 1411 0030 F0D9     	 bls .L78
 1412              	.L77:
 406:C:/Users/Yushev/git/wpcqi-optiga-trust-charge/optiga/externals/mbedtls/library\bignum.c ****     }
 407:C:/Users/Yushev/git/wpcqi-optiga-trust-charge/optiga/externals/mbedtls/library\bignum.c **** 
 408:C:/Users/Yushev/git/wpcqi-optiga-trust-charge/optiga/externals/mbedtls/library\bignum.c ****     return j;
 1413              	 .loc 1 408 0 is_stmt 1
 1414 0032 FB68     	 ldr r3,[r7,#12]
 409:C:/Users/Yushev/git/wpcqi-optiga-trust-charge/optiga/externals/mbedtls/library\bignum.c **** }
 1415              	 .loc 1 409 0
 1416 0034 1846     	 mov r0,r3
 1417 0036 1437     	 adds r7,r7,#20
 1418              	.LCFI71:
 1419              	 .cfi_def_cfa_offset 4
 1420 0038 BD46     	 mov sp,r7
 1421              	.LCFI72:
 1422              	 .cfi_def_cfa_register 13
 1423              	 
 1424 003a 5DF8047B 	 ldr r7,[sp],#4
 1425              	.LCFI73:
 1426              	 .cfi_restore 7
 1427              	 .cfi_def_cfa_offset 0
 1428 003e 7047     	 bx lr
 1429              	 .cfi_endproc
 1430              	.LFE13:
 1432              	 .section .text.mbedtls_mpi_bitlen,"ax",%progbits
 1433              	 .align 2
 1434              	 .global mbedtls_mpi_bitlen
 1435              	 .thumb
 1436              	 .thumb_func
 1438              	mbedtls_mpi_bitlen:
 1439              	.LFB14:
 410:C:/Users/Yushev/git/wpcqi-optiga-trust-charge/optiga/externals/mbedtls/library\bignum.c **** 
 411:C:/Users/Yushev/git/wpcqi-optiga-trust-charge/optiga/externals/mbedtls/library\bignum.c **** /*
 412:C:/Users/Yushev/git/wpcqi-optiga-trust-charge/optiga/externals/mbedtls/library\bignum.c ****  * Return the number of bits
 413:C:/Users/Yushev/git/wpcqi-optiga-trust-charge/optiga/externals/mbedtls/library\bignum.c ****  */
 414:C:/Users/Yushev/git/wpcqi-optiga-trust-charge/optiga/externals/mbedtls/library\bignum.c **** size_t mbedtls_mpi_bitlen( const mbedtls_mpi *X )
 415:C:/Users/Yushev/git/wpcqi-optiga-trust-charge/optiga/externals/mbedtls/library\bignum.c **** {
 1440              	 .loc 1 415 0
 1441              	 .cfi_startproc
 1442              	 
 1443              	 
 1444 0000 80B5     	 push {r7,lr}
 1445              	.LCFI74:
 1446              	 .cfi_def_cfa_offset 8
 1447              	 .cfi_offset 7,-8
 1448              	 .cfi_offset 14,-4
 1449 0002 84B0     	 sub sp,sp,#16
 1450              	.LCFI75:
 1451              	 .cfi_def_cfa_offset 24
 1452 0004 00AF     	 add r7,sp,#0
 1453              	.LCFI76:
 1454              	 .cfi_def_cfa_register 7
 1455 0006 7860     	 str r0,[r7,#4]
 416:C:/Users/Yushev/git/wpcqi-optiga-trust-charge/optiga/externals/mbedtls/library\bignum.c ****     size_t i, j;
 417:C:/Users/Yushev/git/wpcqi-optiga-trust-charge/optiga/externals/mbedtls/library\bignum.c **** 
 418:C:/Users/Yushev/git/wpcqi-optiga-trust-charge/optiga/externals/mbedtls/library\bignum.c ****     if( X->n == 0 )
 1456              	 .loc 1 418 0
 1457 0008 7B68     	 ldr r3,[r7,#4]
 1458 000a 5B68     	 ldr r3,[r3,#4]
 1459 000c 002B     	 cmp r3,#0
 1460 000e 01D1     	 bne .L81
 419:C:/Users/Yushev/git/wpcqi-optiga-trust-charge/optiga/externals/mbedtls/library\bignum.c ****         return( 0 );
 1461              	 .loc 1 419 0
 1462 0010 0023     	 movs r3,#0
 1463 0012 24E0     	 b .L82
 1464              	.L81:
 420:C:/Users/Yushev/git/wpcqi-optiga-trust-charge/optiga/externals/mbedtls/library\bignum.c **** 
 421:C:/Users/Yushev/git/wpcqi-optiga-trust-charge/optiga/externals/mbedtls/library\bignum.c ****     for( i = X->n - 1; i > 0; i-- )
 1465              	 .loc 1 421 0
 1466 0014 7B68     	 ldr r3,[r7,#4]
 1467 0016 5B68     	 ldr r3,[r3,#4]
 1468 0018 013B     	 subs r3,r3,#1
 1469 001a FB60     	 str r3,[r7,#12]
 1470 001c 0BE0     	 b .L83
 1471              	.L86:
 422:C:/Users/Yushev/git/wpcqi-optiga-trust-charge/optiga/externals/mbedtls/library\bignum.c ****         if( X->p[i] != 0 )
 1472              	 .loc 1 422 0
 1473 001e 7B68     	 ldr r3,[r7,#4]
 1474 0020 9A68     	 ldr r2,[r3,#8]
 1475 0022 FB68     	 ldr r3,[r7,#12]
 1476 0024 9B00     	 lsls r3,r3,#2
 1477 0026 1344     	 add r3,r3,r2
 1478 0028 1B68     	 ldr r3,[r3]
 1479 002a 002B     	 cmp r3,#0
 1480 002c 00D0     	 beq .L84
 423:C:/Users/Yushev/git/wpcqi-optiga-trust-charge/optiga/externals/mbedtls/library\bignum.c ****             break;
 1481              	 .loc 1 423 0
 1482 002e 05E0     	 b .L85
 1483              	.L84:
 421:C:/Users/Yushev/git/wpcqi-optiga-trust-charge/optiga/externals/mbedtls/library\bignum.c ****         if( X->p[i] != 0 )
 1484              	 .loc 1 421 0 discriminator 2
 1485 0030 FB68     	 ldr r3,[r7,#12]
 1486 0032 013B     	 subs r3,r3,#1
 1487 0034 FB60     	 str r3,[r7,#12]
 1488              	.L83:
 421:C:/Users/Yushev/git/wpcqi-optiga-trust-charge/optiga/externals/mbedtls/library\bignum.c ****         if( X->p[i] != 0 )
 1489              	 .loc 1 421 0 is_stmt 0 discriminator 1
 1490 0036 FB68     	 ldr r3,[r7,#12]
 1491 0038 002B     	 cmp r3,#0
 1492 003a F0D1     	 bne .L86
 1493              	.L85:
 424:C:/Users/Yushev/git/wpcqi-optiga-trust-charge/optiga/externals/mbedtls/library\bignum.c **** 
 425:C:/Users/Yushev/git/wpcqi-optiga-trust-charge/optiga/externals/mbedtls/library\bignum.c ****     j = biL - mbedtls_clz( X->p[i] );
 1494              	 .loc 1 425 0 is_stmt 1
 1495 003c 7B68     	 ldr r3,[r7,#4]
 1496 003e 9A68     	 ldr r2,[r3,#8]
 1497 0040 FB68     	 ldr r3,[r7,#12]
 1498 0042 9B00     	 lsls r3,r3,#2
 1499 0044 1344     	 add r3,r3,r2
 1500 0046 1B68     	 ldr r3,[r3]
 1501 0048 1846     	 mov r0,r3
 1502 004a FFF7FEFF 	 bl mbedtls_clz
 1503 004e 0346     	 mov r3,r0
 1504 0050 C3F12003 	 rsb r3,r3,#32
 1505 0054 BB60     	 str r3,[r7,#8]
 426:C:/Users/Yushev/git/wpcqi-optiga-trust-charge/optiga/externals/mbedtls/library\bignum.c **** 
 427:C:/Users/Yushev/git/wpcqi-optiga-trust-charge/optiga/externals/mbedtls/library\bignum.c ****     return( ( i * biL ) + j );
 1506              	 .loc 1 427 0
 1507 0056 FB68     	 ldr r3,[r7,#12]
 1508 0058 5A01     	 lsls r2,r3,#5
 1509 005a BB68     	 ldr r3,[r7,#8]
 1510 005c 1344     	 add r3,r3,r2
 1511              	.L82:
 428:C:/Users/Yushev/git/wpcqi-optiga-trust-charge/optiga/externals/mbedtls/library\bignum.c **** }
 1512              	 .loc 1 428 0
 1513 005e 1846     	 mov r0,r3
 1514 0060 1037     	 adds r7,r7,#16
 1515              	.LCFI77:
 1516              	 .cfi_def_cfa_offset 8
 1517 0062 BD46     	 mov sp,r7
 1518              	.LCFI78:
 1519              	 .cfi_def_cfa_register 13
 1520              	 
 1521 0064 80BD     	 pop {r7,pc}
 1522              	 .cfi_endproc
 1523              	.LFE14:
 1525 0066 00BF     	 .section .text.mbedtls_mpi_size,"ax",%progbits
 1526              	 .align 2
 1527              	 .global mbedtls_mpi_size
 1528              	 .thumb
 1529              	 .thumb_func
 1531              	mbedtls_mpi_size:
 1532              	.LFB15:
 429:C:/Users/Yushev/git/wpcqi-optiga-trust-charge/optiga/externals/mbedtls/library\bignum.c **** 
 430:C:/Users/Yushev/git/wpcqi-optiga-trust-charge/optiga/externals/mbedtls/library\bignum.c **** /*
 431:C:/Users/Yushev/git/wpcqi-optiga-trust-charge/optiga/externals/mbedtls/library\bignum.c ****  * Return the total size in bytes
 432:C:/Users/Yushev/git/wpcqi-optiga-trust-charge/optiga/externals/mbedtls/library\bignum.c ****  */
 433:C:/Users/Yushev/git/wpcqi-optiga-trust-charge/optiga/externals/mbedtls/library\bignum.c **** size_t mbedtls_mpi_size( const mbedtls_mpi *X )
 434:C:/Users/Yushev/git/wpcqi-optiga-trust-charge/optiga/externals/mbedtls/library\bignum.c **** {
 1533              	 .loc 1 434 0
 1534              	 .cfi_startproc
 1535              	 
 1536              	 
 1537 0000 80B5     	 push {r7,lr}
 1538              	.LCFI79:
 1539              	 .cfi_def_cfa_offset 8
 1540              	 .cfi_offset 7,-8
 1541              	 .cfi_offset 14,-4
 1542 0002 82B0     	 sub sp,sp,#8
 1543              	.LCFI80:
 1544              	 .cfi_def_cfa_offset 16
 1545 0004 00AF     	 add r7,sp,#0
 1546              	.LCFI81:
 1547              	 .cfi_def_cfa_register 7
 1548 0006 7860     	 str r0,[r7,#4]
 435:C:/Users/Yushev/git/wpcqi-optiga-trust-charge/optiga/externals/mbedtls/library\bignum.c ****     return( ( mbedtls_mpi_bitlen( X ) + 7 ) >> 3 );
 1549              	 .loc 1 435 0
 1550 0008 7868     	 ldr r0,[r7,#4]
 1551 000a FFF7FEFF 	 bl mbedtls_mpi_bitlen
 1552 000e 0346     	 mov r3,r0
 1553 0010 0733     	 adds r3,r3,#7
 1554 0012 DB08     	 lsrs r3,r3,#3
 436:C:/Users/Yushev/git/wpcqi-optiga-trust-charge/optiga/externals/mbedtls/library\bignum.c **** }
 1555              	 .loc 1 436 0
 1556 0014 1846     	 mov r0,r3
 1557 0016 0837     	 adds r7,r7,#8
 1558              	.LCFI82:
 1559              	 .cfi_def_cfa_offset 8
 1560 0018 BD46     	 mov sp,r7
 1561              	.LCFI83:
 1562              	 .cfi_def_cfa_register 13
 1563              	 
 1564 001a 80BD     	 pop {r7,pc}
 1565              	 .cfi_endproc
 1566              	.LFE15:
 1568              	 .section .text.mpi_get_digit,"ax",%progbits
 1569              	 .align 2
 1570              	 .thumb
 1571              	 .thumb_func
 1573              	mpi_get_digit:
 1574              	.LFB16:
 437:C:/Users/Yushev/git/wpcqi-optiga-trust-charge/optiga/externals/mbedtls/library\bignum.c **** 
 438:C:/Users/Yushev/git/wpcqi-optiga-trust-charge/optiga/externals/mbedtls/library\bignum.c **** /*
 439:C:/Users/Yushev/git/wpcqi-optiga-trust-charge/optiga/externals/mbedtls/library\bignum.c ****  * Convert an ASCII character to digit value
 440:C:/Users/Yushev/git/wpcqi-optiga-trust-charge/optiga/externals/mbedtls/library\bignum.c ****  */
 441:C:/Users/Yushev/git/wpcqi-optiga-trust-charge/optiga/externals/mbedtls/library\bignum.c **** static int mpi_get_digit( mbedtls_mpi_uint *d, int radix, char c )
 442:C:/Users/Yushev/git/wpcqi-optiga-trust-charge/optiga/externals/mbedtls/library\bignum.c **** {
 1575              	 .loc 1 442 0
 1576              	 .cfi_startproc
 1577              	 
 1578              	 
 1579              	 
 1580 0000 80B4     	 push {r7}
 1581              	.LCFI84:
 1582              	 .cfi_def_cfa_offset 4
 1583              	 .cfi_offset 7,-4
 1584 0002 85B0     	 sub sp,sp,#20
 1585              	.LCFI85:
 1586              	 .cfi_def_cfa_offset 24
 1587 0004 00AF     	 add r7,sp,#0
 1588              	.LCFI86:
 1589              	 .cfi_def_cfa_register 7
 1590 0006 F860     	 str r0,[r7,#12]
 1591 0008 B960     	 str r1,[r7,#8]
 1592 000a 1346     	 mov r3,r2
 1593 000c FB71     	 strb r3,[r7,#7]
 443:C:/Users/Yushev/git/wpcqi-optiga-trust-charge/optiga/externals/mbedtls/library\bignum.c ****     *d = 255;
 1594              	 .loc 1 443 0
 1595 000e FB68     	 ldr r3,[r7,#12]
 1596 0010 FF22     	 movs r2,#255
 1597 0012 1A60     	 str r2,[r3]
 444:C:/Users/Yushev/git/wpcqi-optiga-trust-charge/optiga/externals/mbedtls/library\bignum.c **** 
 445:C:/Users/Yushev/git/wpcqi-optiga-trust-charge/optiga/externals/mbedtls/library\bignum.c ****     if( c >= 0x30 && c <= 0x39 ) *d = c - 0x30;
 1598              	 .loc 1 445 0
 1599 0014 FB79     	 ldrb r3,[r7,#7]
 1600 0016 2F2B     	 cmp r3,#47
 1601 0018 07D9     	 bls .L90
 1602              	 .loc 1 445 0 is_stmt 0 discriminator 1
 1603 001a FB79     	 ldrb r3,[r7,#7]
 1604 001c 392B     	 cmp r3,#57
 1605 001e 04D8     	 bhi .L90
 1606              	 .loc 1 445 0 discriminator 2
 1607 0020 FB79     	 ldrb r3,[r7,#7]
 1608 0022 303B     	 subs r3,r3,#48
 1609 0024 1A46     	 mov r2,r3
 1610 0026 FB68     	 ldr r3,[r7,#12]
 1611 0028 1A60     	 str r2,[r3]
 1612              	.L90:
 446:C:/Users/Yushev/git/wpcqi-optiga-trust-charge/optiga/externals/mbedtls/library\bignum.c ****     if( c >= 0x41 && c <= 0x46 ) *d = c - 0x37;
 1613              	 .loc 1 446 0 is_stmt 1
 1614 002a FB79     	 ldrb r3,[r7,#7]
 1615 002c 402B     	 cmp r3,#64
 1616 002e 07D9     	 bls .L91
 1617              	 .loc 1 446 0 is_stmt 0 discriminator 1
 1618 0030 FB79     	 ldrb r3,[r7,#7]
 1619 0032 462B     	 cmp r3,#70
 1620 0034 04D8     	 bhi .L91
 1621              	 .loc 1 446 0 discriminator 2
 1622 0036 FB79     	 ldrb r3,[r7,#7]
 1623 0038 373B     	 subs r3,r3,#55
 1624 003a 1A46     	 mov r2,r3
 1625 003c FB68     	 ldr r3,[r7,#12]
 1626 003e 1A60     	 str r2,[r3]
 1627              	.L91:
 447:C:/Users/Yushev/git/wpcqi-optiga-trust-charge/optiga/externals/mbedtls/library\bignum.c ****     if( c >= 0x61 && c <= 0x66 ) *d = c - 0x57;
 1628              	 .loc 1 447 0 is_stmt 1
 1629 0040 FB79     	 ldrb r3,[r7,#7]
 1630 0042 602B     	 cmp r3,#96
 1631 0044 07D9     	 bls .L92
 1632              	 .loc 1 447 0 is_stmt 0 discriminator 1
 1633 0046 FB79     	 ldrb r3,[r7,#7]
 1634 0048 662B     	 cmp r3,#102
 1635 004a 04D8     	 bhi .L92
 1636              	 .loc 1 447 0 discriminator 2
 1637 004c FB79     	 ldrb r3,[r7,#7]
 1638 004e 573B     	 subs r3,r3,#87
 1639 0050 1A46     	 mov r2,r3
 1640 0052 FB68     	 ldr r3,[r7,#12]
 1641 0054 1A60     	 str r2,[r3]
 1642              	.L92:
 448:C:/Users/Yushev/git/wpcqi-optiga-trust-charge/optiga/externals/mbedtls/library\bignum.c **** 
 449:C:/Users/Yushev/git/wpcqi-optiga-trust-charge/optiga/externals/mbedtls/library\bignum.c ****     if( *d >= (mbedtls_mpi_uint) radix )
 1643              	 .loc 1 449 0 is_stmt 1
 1644 0056 FB68     	 ldr r3,[r7,#12]
 1645 0058 1A68     	 ldr r2,[r3]
 1646 005a BB68     	 ldr r3,[r7,#8]
 1647 005c 9A42     	 cmp r2,r3
 1648 005e 02D3     	 bcc .L93
 450:C:/Users/Yushev/git/wpcqi-optiga-trust-charge/optiga/externals/mbedtls/library\bignum.c ****         return( MBEDTLS_ERR_MPI_INVALID_CHARACTER );
 1649              	 .loc 1 450 0
 1650 0060 6FF00503 	 mvn r3,#5
 1651 0064 00E0     	 b .L94
 1652              	.L93:
 451:C:/Users/Yushev/git/wpcqi-optiga-trust-charge/optiga/externals/mbedtls/library\bignum.c **** 
 452:C:/Users/Yushev/git/wpcqi-optiga-trust-charge/optiga/externals/mbedtls/library\bignum.c ****     return( 0 );
 1653              	 .loc 1 452 0
 1654 0066 0023     	 movs r3,#0
 1655              	.L94:
 453:C:/Users/Yushev/git/wpcqi-optiga-trust-charge/optiga/externals/mbedtls/library\bignum.c **** }
 1656              	 .loc 1 453 0
 1657 0068 1846     	 mov r0,r3
 1658 006a 1437     	 adds r7,r7,#20
 1659              	.LCFI87:
 1660              	 .cfi_def_cfa_offset 4
 1661 006c BD46     	 mov sp,r7
 1662              	.LCFI88:
 1663              	 .cfi_def_cfa_register 13
 1664              	 
 1665 006e 5DF8047B 	 ldr r7,[sp],#4
 1666              	.LCFI89:
 1667              	 .cfi_restore 7
 1668              	 .cfi_def_cfa_offset 0
 1669 0072 7047     	 bx lr
 1670              	 .cfi_endproc
 1671              	.LFE16:
 1673              	 .section .text.mbedtls_mpi_read_string,"ax",%progbits
 1674              	 .align 2
 1675              	 .global mbedtls_mpi_read_string
 1676              	 .thumb
 1677              	 .thumb_func
 1679              	mbedtls_mpi_read_string:
 1680              	.LFB17:
 454:C:/Users/Yushev/git/wpcqi-optiga-trust-charge/optiga/externals/mbedtls/library\bignum.c **** 
 455:C:/Users/Yushev/git/wpcqi-optiga-trust-charge/optiga/externals/mbedtls/library\bignum.c **** /*
 456:C:/Users/Yushev/git/wpcqi-optiga-trust-charge/optiga/externals/mbedtls/library\bignum.c ****  * Import from an ASCII string
 457:C:/Users/Yushev/git/wpcqi-optiga-trust-charge/optiga/externals/mbedtls/library\bignum.c ****  */
 458:C:/Users/Yushev/git/wpcqi-optiga-trust-charge/optiga/externals/mbedtls/library\bignum.c **** int mbedtls_mpi_read_string( mbedtls_mpi *X, int radix, const char *s )
 459:C:/Users/Yushev/git/wpcqi-optiga-trust-charge/optiga/externals/mbedtls/library\bignum.c **** {
 1681              	 .loc 1 459 0
 1682              	 .cfi_startproc
 1683              	 
 1684              	 
 1685 0000 80B5     	 push {r7,lr}
 1686              	.LCFI90:
 1687              	 .cfi_def_cfa_offset 8
 1688              	 .cfi_offset 7,-8
 1689              	 .cfi_offset 14,-4
 1690 0002 8EB0     	 sub sp,sp,#56
 1691              	.LCFI91:
 1692              	 .cfi_def_cfa_offset 64
 1693 0004 00AF     	 add r7,sp,#0
 1694              	.LCFI92:
 1695              	 .cfi_def_cfa_register 7
 1696 0006 F860     	 str r0,[r7,#12]
 1697 0008 B960     	 str r1,[r7,#8]
 1698 000a 7A60     	 str r2,[r7,#4]
 460:C:/Users/Yushev/git/wpcqi-optiga-trust-charge/optiga/externals/mbedtls/library\bignum.c ****     int ret;
 461:C:/Users/Yushev/git/wpcqi-optiga-trust-charge/optiga/externals/mbedtls/library\bignum.c ****     size_t i, j, slen, n;
 462:C:/Users/Yushev/git/wpcqi-optiga-trust-charge/optiga/externals/mbedtls/library\bignum.c ****     mbedtls_mpi_uint d;
 463:C:/Users/Yushev/git/wpcqi-optiga-trust-charge/optiga/externals/mbedtls/library\bignum.c ****     mbedtls_mpi T;
 464:C:/Users/Yushev/git/wpcqi-optiga-trust-charge/optiga/externals/mbedtls/library\bignum.c ****     MPI_VALIDATE_RET( X != NULL );
 465:C:/Users/Yushev/git/wpcqi-optiga-trust-charge/optiga/externals/mbedtls/library\bignum.c ****     MPI_VALIDATE_RET( s != NULL );
 466:C:/Users/Yushev/git/wpcqi-optiga-trust-charge/optiga/externals/mbedtls/library\bignum.c **** 
 467:C:/Users/Yushev/git/wpcqi-optiga-trust-charge/optiga/externals/mbedtls/library\bignum.c ****     if( radix < 2 || radix > 16 )
 1699              	 .loc 1 467 0
 1700 000c BB68     	 ldr r3,[r7,#8]
 1701 000e 012B     	 cmp r3,#1
 1702 0010 02DD     	 ble .L96
 1703              	 .loc 1 467 0 is_stmt 0 discriminator 1
 1704 0012 BB68     	 ldr r3,[r7,#8]
 1705 0014 102B     	 cmp r3,#16
 1706 0016 02DD     	 ble .L97
 1707              	.L96:
 468:C:/Users/Yushev/git/wpcqi-optiga-trust-charge/optiga/externals/mbedtls/library\bignum.c ****         return( MBEDTLS_ERR_MPI_BAD_INPUT_DATA );
 1708              	 .loc 1 468 0 is_stmt 1
 1709 0018 6FF00303 	 mvn r3,#3
 1710 001c D7E0     	 b .L117
 1711              	.L97:
 469:C:/Users/Yushev/git/wpcqi-optiga-trust-charge/optiga/externals/mbedtls/library\bignum.c **** 
 470:C:/Users/Yushev/git/wpcqi-optiga-trust-charge/optiga/externals/mbedtls/library\bignum.c ****     mbedtls_mpi_init( &T );
 1712              	 .loc 1 470 0
 1713 001e 07F11403 	 add r3,r7,#20
 1714 0022 1846     	 mov r0,r3
 1715 0024 FFF7FEFF 	 bl mbedtls_mpi_init
 471:C:/Users/Yushev/git/wpcqi-optiga-trust-charge/optiga/externals/mbedtls/library\bignum.c **** 
 472:C:/Users/Yushev/git/wpcqi-optiga-trust-charge/optiga/externals/mbedtls/library\bignum.c ****     slen = strlen( s );
 1716              	 .loc 1 472 0
 1717 0028 7868     	 ldr r0,[r7,#4]
 1718 002a FFF7FEFF 	 bl strlen
 1719 002e B862     	 str r0,[r7,#40]
 473:C:/Users/Yushev/git/wpcqi-optiga-trust-charge/optiga/externals/mbedtls/library\bignum.c **** 
 474:C:/Users/Yushev/git/wpcqi-optiga-trust-charge/optiga/externals/mbedtls/library\bignum.c ****     if( radix == 16 )
 1720              	 .loc 1 474 0
 1721 0030 BB68     	 ldr r3,[r7,#8]
 1722 0032 102B     	 cmp r3,#16
 1723 0034 69D1     	 bne .L99
 475:C:/Users/Yushev/git/wpcqi-optiga-trust-charge/optiga/externals/mbedtls/library\bignum.c ****     {
 476:C:/Users/Yushev/git/wpcqi-optiga-trust-charge/optiga/externals/mbedtls/library\bignum.c ****         if( slen > MPI_SIZE_T_MAX >> 2 )
 1724              	 .loc 1 476 0
 1725 0036 BB6A     	 ldr r3,[r7,#40]
 1726 0038 B3F1804F 	 cmp r3,#1073741824
 1727 003c 02D3     	 bcc .L100
 477:C:/Users/Yushev/git/wpcqi-optiga-trust-charge/optiga/externals/mbedtls/library\bignum.c ****             return( MBEDTLS_ERR_MPI_BAD_INPUT_DATA );
 1728              	 .loc 1 477 0
 1729 003e 6FF00303 	 mvn r3,#3
 1730 0042 C4E0     	 b .L117
 1731              	.L100:
 478:C:/Users/Yushev/git/wpcqi-optiga-trust-charge/optiga/externals/mbedtls/library\bignum.c **** 
 479:C:/Users/Yushev/git/wpcqi-optiga-trust-charge/optiga/externals/mbedtls/library\bignum.c ****         n = BITS_TO_LIMBS( slen << 2 );
 1732              	 .loc 1 479 0
 1733 0044 BB6A     	 ldr r3,[r7,#40]
 1734 0046 9B00     	 lsls r3,r3,#2
 1735 0048 5B09     	 lsrs r3,r3,#5
 1736 004a BA6A     	 ldr r2,[r7,#40]
 1737 004c 9200     	 lsls r2,r2,#2
 1738 004e 02F01F02 	 and r2,r2,#31
 1739 0052 002A     	 cmp r2,#0
 1740 0054 14BF     	 ite ne
 1741 0056 0122     	 movne r2,#1
 1742 0058 0022     	 moveq r2,#0
 1743 005a D2B2     	 uxtb r2,r2
 1744 005c 1344     	 add r3,r3,r2
 1745 005e 7B62     	 str r3,[r7,#36]
 480:C:/Users/Yushev/git/wpcqi-optiga-trust-charge/optiga/externals/mbedtls/library\bignum.c **** 
 481:C:/Users/Yushev/git/wpcqi-optiga-trust-charge/optiga/externals/mbedtls/library\bignum.c ****         MBEDTLS_MPI_CHK( mbedtls_mpi_grow( X, n ) );
 1746              	 .loc 1 481 0
 1747 0060 F868     	 ldr r0,[r7,#12]
 1748 0062 796A     	 ldr r1,[r7,#36]
 1749 0064 FFF7FEFF 	 bl mbedtls_mpi_grow
 1750 0068 7863     	 str r0,[r7,#52]
 1751 006a 7B6B     	 ldr r3,[r7,#52]
 1752 006c 002B     	 cmp r3,#0
 1753 006e 00D0     	 beq .L101
 1754 0070 A7E0     	 b .L102
 1755              	.L101:
 482:C:/Users/Yushev/git/wpcqi-optiga-trust-charge/optiga/externals/mbedtls/library\bignum.c ****         MBEDTLS_MPI_CHK( mbedtls_mpi_lset( X, 0 ) );
 1756              	 .loc 1 482 0
 1757 0072 F868     	 ldr r0,[r7,#12]
 1758 0074 0021     	 movs r1,#0
 1759 0076 FFF7FEFF 	 bl mbedtls_mpi_lset
 1760 007a 7863     	 str r0,[r7,#52]
 1761 007c 7B6B     	 ldr r3,[r7,#52]
 1762 007e 002B     	 cmp r3,#0
 1763 0080 00D0     	 beq .L103
 1764 0082 9EE0     	 b .L102
 1765              	.L103:
 483:C:/Users/Yushev/git/wpcqi-optiga-trust-charge/optiga/externals/mbedtls/library\bignum.c **** 
 484:C:/Users/Yushev/git/wpcqi-optiga-trust-charge/optiga/externals/mbedtls/library\bignum.c ****         for( i = slen, j = 0; i > 0; i--, j++ )
 1766              	 .loc 1 484 0
 1767 0084 BB6A     	 ldr r3,[r7,#40]
 1768 0086 3B63     	 str r3,[r7,#48]
 1769 0088 0023     	 movs r3,#0
 1770 008a FB62     	 str r3,[r7,#44]
 1771 008c 39E0     	 b .L104
 1772              	.L108:
 485:C:/Users/Yushev/git/wpcqi-optiga-trust-charge/optiga/externals/mbedtls/library\bignum.c ****         {
 486:C:/Users/Yushev/git/wpcqi-optiga-trust-charge/optiga/externals/mbedtls/library\bignum.c ****             if( i == 1 && s[i - 1] == '-' )
 1773              	 .loc 1 486 0
 1774 008e 3B6B     	 ldr r3,[r7,#48]
 1775 0090 012B     	 cmp r3,#1
 1776 0092 0CD1     	 bne .L105
 1777              	 .loc 1 486 0 is_stmt 0 discriminator 1
 1778 0094 3B6B     	 ldr r3,[r7,#48]
 1779 0096 013B     	 subs r3,r3,#1
 1780 0098 7A68     	 ldr r2,[r7,#4]
 1781 009a 1344     	 add r3,r3,r2
 1782 009c 1B78     	 ldrb r3,[r3]
 1783 009e 2D2B     	 cmp r3,#45
 1784 00a0 05D1     	 bne .L105
 487:C:/Users/Yushev/git/wpcqi-optiga-trust-charge/optiga/externals/mbedtls/library\bignum.c ****             {
 488:C:/Users/Yushev/git/wpcqi-optiga-trust-charge/optiga/externals/mbedtls/library\bignum.c ****                 X->s = -1;
 1785              	 .loc 1 488 0 is_stmt 1
 1786 00a2 FB68     	 ldr r3,[r7,#12]
 1787 00a4 4FF0FF32 	 mov r2,#-1
 1788 00a8 1A60     	 str r2,[r3]
 489:C:/Users/Yushev/git/wpcqi-optiga-trust-charge/optiga/externals/mbedtls/library\bignum.c ****                 break;
 1789              	 .loc 1 489 0
 1790 00aa 00BF     	 nop
 1791 00ac 89E0     	 b .L102
 1792              	.L105:
 490:C:/Users/Yushev/git/wpcqi-optiga-trust-charge/optiga/externals/mbedtls/library\bignum.c ****             }
 491:C:/Users/Yushev/git/wpcqi-optiga-trust-charge/optiga/externals/mbedtls/library\bignum.c **** 
 492:C:/Users/Yushev/git/wpcqi-optiga-trust-charge/optiga/externals/mbedtls/library\bignum.c ****             MBEDTLS_MPI_CHK( mpi_get_digit( &d, radix, s[i - 1] ) );
 1793              	 .loc 1 492 0
 1794 00ae 3B6B     	 ldr r3,[r7,#48]
 1795 00b0 013B     	 subs r3,r3,#1
 1796 00b2 7A68     	 ldr r2,[r7,#4]
 1797 00b4 1344     	 add r3,r3,r2
 1798 00b6 1B78     	 ldrb r3,[r3]
 1799 00b8 07F12002 	 add r2,r7,#32
 1800 00bc 1046     	 mov r0,r2
 1801 00be B968     	 ldr r1,[r7,#8]
 1802 00c0 1A46     	 mov r2,r3
 1803 00c2 FFF7FEFF 	 bl mpi_get_digit
 1804 00c6 7863     	 str r0,[r7,#52]
 1805 00c8 7B6B     	 ldr r3,[r7,#52]
 1806 00ca 002B     	 cmp r3,#0
 1807 00cc 00D0     	 beq .L107
 1808 00ce 78E0     	 b .L102
 1809              	.L107:
 493:C:/Users/Yushev/git/wpcqi-optiga-trust-charge/optiga/externals/mbedtls/library\bignum.c ****             X->p[j / ( 2 * ciL )] |= d << ( ( j % ( 2 * ciL ) ) << 2 );
 1810              	 .loc 1 493 0 discriminator 2
 1811 00d0 FB68     	 ldr r3,[r7,#12]
 1812 00d2 9968     	 ldr r1,[r3,#8]
 1813 00d4 FB6A     	 ldr r3,[r7,#44]
 1814 00d6 DB08     	 lsrs r3,r3,#3
 1815 00d8 9A00     	 lsls r2,r3,#2
 1816 00da 0A44     	 add r2,r2,r1
 1817 00dc F968     	 ldr r1,[r7,#12]
 1818 00de 8968     	 ldr r1,[r1,#8]
 1819 00e0 9B00     	 lsls r3,r3,#2
 1820 00e2 0B44     	 add r3,r3,r1
 1821 00e4 1968     	 ldr r1,[r3]
 1822 00e6 3B6A     	 ldr r3,[r7,#32]
 1823 00e8 F86A     	 ldr r0,[r7,#44]
 1824 00ea 00F00700 	 and r0,r0,#7
 1825 00ee 8000     	 lsls r0,r0,#2
 1826 00f0 8340     	 lsls r3,r3,r0
 1827 00f2 0B43     	 orrs r3,r3,r1
 1828 00f4 1360     	 str r3,[r2]
 484:C:/Users/Yushev/git/wpcqi-optiga-trust-charge/optiga/externals/mbedtls/library\bignum.c ****         {
 1829              	 .loc 1 484 0 discriminator 2
 1830 00f6 3B6B     	 ldr r3,[r7,#48]
 1831 00f8 013B     	 subs r3,r3,#1
 1832 00fa 3B63     	 str r3,[r7,#48]
 1833 00fc FB6A     	 ldr r3,[r7,#44]
 1834 00fe 0133     	 adds r3,r3,#1
 1835 0100 FB62     	 str r3,[r7,#44]
 1836              	.L104:
 484:C:/Users/Yushev/git/wpcqi-optiga-trust-charge/optiga/externals/mbedtls/library\bignum.c ****         {
 1837              	 .loc 1 484 0 is_stmt 0 discriminator 1
 1838 0102 3B6B     	 ldr r3,[r7,#48]
 1839 0104 002B     	 cmp r3,#0
 1840 0106 C2D1     	 bne .L108
 1841 0108 5BE0     	 b .L102
 1842              	.L99:
 494:C:/Users/Yushev/git/wpcqi-optiga-trust-charge/optiga/externals/mbedtls/library\bignum.c ****         }
 495:C:/Users/Yushev/git/wpcqi-optiga-trust-charge/optiga/externals/mbedtls/library\bignum.c ****     }
 496:C:/Users/Yushev/git/wpcqi-optiga-trust-charge/optiga/externals/mbedtls/library\bignum.c ****     else
 497:C:/Users/Yushev/git/wpcqi-optiga-trust-charge/optiga/externals/mbedtls/library\bignum.c ****     {
 498:C:/Users/Yushev/git/wpcqi-optiga-trust-charge/optiga/externals/mbedtls/library\bignum.c ****         MBEDTLS_MPI_CHK( mbedtls_mpi_lset( X, 0 ) );
 1843              	 .loc 1 498 0 is_stmt 1
 1844 010a F868     	 ldr r0,[r7,#12]
 1845 010c 0021     	 movs r1,#0
 1846 010e FFF7FEFF 	 bl mbedtls_mpi_lset
 1847 0112 7863     	 str r0,[r7,#52]
 1848 0114 7B6B     	 ldr r3,[r7,#52]
 1849 0116 002B     	 cmp r3,#0
 1850 0118 00D0     	 beq .L109
 1851 011a 52E0     	 b .L102
 1852              	.L109:
 499:C:/Users/Yushev/git/wpcqi-optiga-trust-charge/optiga/externals/mbedtls/library\bignum.c **** 
 500:C:/Users/Yushev/git/wpcqi-optiga-trust-charge/optiga/externals/mbedtls/library\bignum.c ****         for( i = 0; i < slen; i++ )
 1853              	 .loc 1 500 0
 1854 011c 0023     	 movs r3,#0
 1855 011e 3B63     	 str r3,[r7,#48]
 1856 0120 4BE0     	 b .L110
 1857              	.L116:
 501:C:/Users/Yushev/git/wpcqi-optiga-trust-charge/optiga/externals/mbedtls/library\bignum.c ****         {
 502:C:/Users/Yushev/git/wpcqi-optiga-trust-charge/optiga/externals/mbedtls/library\bignum.c ****             if( i == 0 && s[i] == '-' )
 1858              	 .loc 1 502 0
 1859 0122 3B6B     	 ldr r3,[r7,#48]
 1860 0124 002B     	 cmp r3,#0
 1861 0126 0AD1     	 bne .L111
 1862              	 .loc 1 502 0 is_stmt 0 discriminator 1
 1863 0128 7A68     	 ldr r2,[r7,#4]
 1864 012a 3B6B     	 ldr r3,[r7,#48]
 1865 012c 1344     	 add r3,r3,r2
 1866 012e 1B78     	 ldrb r3,[r3]
 1867 0130 2D2B     	 cmp r3,#45
 1868 0132 04D1     	 bne .L111
 503:C:/Users/Yushev/git/wpcqi-optiga-trust-charge/optiga/externals/mbedtls/library\bignum.c ****             {
 504:C:/Users/Yushev/git/wpcqi-optiga-trust-charge/optiga/externals/mbedtls/library\bignum.c ****                 X->s = -1;
 1869              	 .loc 1 504 0 is_stmt 1
 1870 0134 FB68     	 ldr r3,[r7,#12]
 1871 0136 4FF0FF32 	 mov r2,#-1
 1872 013a 1A60     	 str r2,[r3]
 505:C:/Users/Yushev/git/wpcqi-optiga-trust-charge/optiga/externals/mbedtls/library\bignum.c ****                 continue;
 1873              	 .loc 1 505 0
 1874 013c 3AE0     	 b .L112
 1875              	.L111:
 506:C:/Users/Yushev/git/wpcqi-optiga-trust-charge/optiga/externals/mbedtls/library\bignum.c ****             }
 507:C:/Users/Yushev/git/wpcqi-optiga-trust-charge/optiga/externals/mbedtls/library\bignum.c **** 
 508:C:/Users/Yushev/git/wpcqi-optiga-trust-charge/optiga/externals/mbedtls/library\bignum.c ****             MBEDTLS_MPI_CHK( mpi_get_digit( &d, radix, s[i] ) );
 1876              	 .loc 1 508 0
 1877 013e 7A68     	 ldr r2,[r7,#4]
 1878 0140 3B6B     	 ldr r3,[r7,#48]
 1879 0142 1344     	 add r3,r3,r2
 1880 0144 1B78     	 ldrb r3,[r3]
 1881 0146 07F12002 	 add r2,r7,#32
 1882 014a 1046     	 mov r0,r2
 1883 014c B968     	 ldr r1,[r7,#8]
 1884 014e 1A46     	 mov r2,r3
 1885 0150 FFF7FEFF 	 bl mpi_get_digit
 1886 0154 7863     	 str r0,[r7,#52]
 1887 0156 7B6B     	 ldr r3,[r7,#52]
 1888 0158 002B     	 cmp r3,#0
 1889 015a 00D0     	 beq .L113
 1890 015c 31E0     	 b .L102
 1891              	.L113:
 509:C:/Users/Yushev/git/wpcqi-optiga-trust-charge/optiga/externals/mbedtls/library\bignum.c ****             MBEDTLS_MPI_CHK( mbedtls_mpi_mul_int( &T, X, radix ) );
 1892              	 .loc 1 509 0
 1893 015e BB68     	 ldr r3,[r7,#8]
 1894 0160 07F11402 	 add r2,r7,#20
 1895 0164 1046     	 mov r0,r2
 1896 0166 F968     	 ldr r1,[r7,#12]
 1897 0168 1A46     	 mov r2,r3
 1898 016a FFF7FEFF 	 bl mbedtls_mpi_mul_int
 1899 016e 7863     	 str r0,[r7,#52]
 1900 0170 7B6B     	 ldr r3,[r7,#52]
 1901 0172 002B     	 cmp r3,#0
 1902 0174 00D0     	 beq .L114
 1903 0176 24E0     	 b .L102
 1904              	.L114:
 510:C:/Users/Yushev/git/wpcqi-optiga-trust-charge/optiga/externals/mbedtls/library\bignum.c **** 
 511:C:/Users/Yushev/git/wpcqi-optiga-trust-charge/optiga/externals/mbedtls/library\bignum.c ****             if( X->s == 1 )
 1905              	 .loc 1 511 0
 1906 0178 FB68     	 ldr r3,[r7,#12]
 1907 017a 1B68     	 ldr r3,[r3]
 1908 017c 012B     	 cmp r3,#1
 1909 017e 0CD1     	 bne .L115
 512:C:/Users/Yushev/git/wpcqi-optiga-trust-charge/optiga/externals/mbedtls/library\bignum.c ****             {
 513:C:/Users/Yushev/git/wpcqi-optiga-trust-charge/optiga/externals/mbedtls/library\bignum.c ****                 MBEDTLS_MPI_CHK( mbedtls_mpi_add_int( X, &T, d ) );
 1910              	 .loc 1 513 0
 1911 0180 3B6A     	 ldr r3,[r7,#32]
 1912 0182 1A46     	 mov r2,r3
 1913 0184 07F11403 	 add r3,r7,#20
 1914 0188 F868     	 ldr r0,[r7,#12]
 1915 018a 1946     	 mov r1,r3
 1916 018c FFF7FEFF 	 bl mbedtls_mpi_add_int
 1917 0190 7863     	 str r0,[r7,#52]
 1918 0192 7B6B     	 ldr r3,[r7,#52]
 1919 0194 002B     	 cmp r3,#0
 1920 0196 0DD0     	 beq .L112
 1921 0198 13E0     	 b .L102
 1922              	.L115:
 514:C:/Users/Yushev/git/wpcqi-optiga-trust-charge/optiga/externals/mbedtls/library\bignum.c ****             }
 515:C:/Users/Yushev/git/wpcqi-optiga-trust-charge/optiga/externals/mbedtls/library\bignum.c ****             else
 516:C:/Users/Yushev/git/wpcqi-optiga-trust-charge/optiga/externals/mbedtls/library\bignum.c ****             {
 517:C:/Users/Yushev/git/wpcqi-optiga-trust-charge/optiga/externals/mbedtls/library\bignum.c ****                 MBEDTLS_MPI_CHK( mbedtls_mpi_sub_int( X, &T, d ) );
 1923              	 .loc 1 517 0
 1924 019a 3B6A     	 ldr r3,[r7,#32]
 1925 019c 1A46     	 mov r2,r3
 1926 019e 07F11403 	 add r3,r7,#20
 1927 01a2 F868     	 ldr r0,[r7,#12]
 1928 01a4 1946     	 mov r1,r3
 1929 01a6 FFF7FEFF 	 bl mbedtls_mpi_sub_int
 1930 01aa 7863     	 str r0,[r7,#52]
 1931 01ac 7B6B     	 ldr r3,[r7,#52]
 1932 01ae 002B     	 cmp r3,#0
 1933 01b0 00D0     	 beq .L112
 1934 01b2 06E0     	 b .L102
 1935              	.L112:
 500:C:/Users/Yushev/git/wpcqi-optiga-trust-charge/optiga/externals/mbedtls/library\bignum.c ****         {
 1936              	 .loc 1 500 0 discriminator 2
 1937 01b4 3B6B     	 ldr r3,[r7,#48]
 1938 01b6 0133     	 adds r3,r3,#1
 1939 01b8 3B63     	 str r3,[r7,#48]
 1940              	.L110:
 500:C:/Users/Yushev/git/wpcqi-optiga-trust-charge/optiga/externals/mbedtls/library\bignum.c ****         {
 1941              	 .loc 1 500 0 is_stmt 0 discriminator 1
 1942 01ba 3A6B     	 ldr r2,[r7,#48]
 1943 01bc BB6A     	 ldr r3,[r7,#40]
 1944 01be 9A42     	 cmp r2,r3
 1945 01c0 AFD3     	 bcc .L116
 1946              	.L102:
 518:C:/Users/Yushev/git/wpcqi-optiga-trust-charge/optiga/externals/mbedtls/library\bignum.c ****             }
 519:C:/Users/Yushev/git/wpcqi-optiga-trust-charge/optiga/externals/mbedtls/library\bignum.c ****         }
 520:C:/Users/Yushev/git/wpcqi-optiga-trust-charge/optiga/externals/mbedtls/library\bignum.c ****     }
 521:C:/Users/Yushev/git/wpcqi-optiga-trust-charge/optiga/externals/mbedtls/library\bignum.c **** 
 522:C:/Users/Yushev/git/wpcqi-optiga-trust-charge/optiga/externals/mbedtls/library\bignum.c **** cleanup:
 523:C:/Users/Yushev/git/wpcqi-optiga-trust-charge/optiga/externals/mbedtls/library\bignum.c **** 
 524:C:/Users/Yushev/git/wpcqi-optiga-trust-charge/optiga/externals/mbedtls/library\bignum.c ****     mbedtls_mpi_free( &T );
 1947              	 .loc 1 524 0 is_stmt 1
 1948 01c2 07F11403 	 add r3,r7,#20
 1949 01c6 1846     	 mov r0,r3
 1950 01c8 FFF7FEFF 	 bl mbedtls_mpi_free
 525:C:/Users/Yushev/git/wpcqi-optiga-trust-charge/optiga/externals/mbedtls/library\bignum.c **** 
 526:C:/Users/Yushev/git/wpcqi-optiga-trust-charge/optiga/externals/mbedtls/library\bignum.c ****     return( ret );
 1951              	 .loc 1 526 0
 1952 01cc 7B6B     	 ldr r3,[r7,#52]
 1953              	.L117:
 527:C:/Users/Yushev/git/wpcqi-optiga-trust-charge/optiga/externals/mbedtls/library\bignum.c **** }
 1954              	 .loc 1 527 0 discriminator 1
 1955 01ce 1846     	 mov r0,r3
 1956 01d0 3837     	 adds r7,r7,#56
 1957              	.LCFI93:
 1958              	 .cfi_def_cfa_offset 8
 1959 01d2 BD46     	 mov sp,r7
 1960              	.LCFI94:
 1961              	 .cfi_def_cfa_register 13
 1962              	 
 1963 01d4 80BD     	 pop {r7,pc}
 1964              	 .cfi_endproc
 1965              	.LFE17:
 1967              	 .section .text.mpi_write_hlp,"ax",%progbits
 1968              	 .align 2
 1969              	 .thumb
 1970              	 .thumb_func
 1972              	mpi_write_hlp:
 1973              	.LFB18:
 528:C:/Users/Yushev/git/wpcqi-optiga-trust-charge/optiga/externals/mbedtls/library\bignum.c **** 
 529:C:/Users/Yushev/git/wpcqi-optiga-trust-charge/optiga/externals/mbedtls/library\bignum.c **** /*
 530:C:/Users/Yushev/git/wpcqi-optiga-trust-charge/optiga/externals/mbedtls/library\bignum.c ****  * Helper to write the digits high-order first
 531:C:/Users/Yushev/git/wpcqi-optiga-trust-charge/optiga/externals/mbedtls/library\bignum.c ****  */
 532:C:/Users/Yushev/git/wpcqi-optiga-trust-charge/optiga/externals/mbedtls/library\bignum.c **** static int mpi_write_hlp( mbedtls_mpi *X, int radix, char **p )
 533:C:/Users/Yushev/git/wpcqi-optiga-trust-charge/optiga/externals/mbedtls/library\bignum.c **** {
 1974              	 .loc 1 533 0
 1975              	 .cfi_startproc
 1976              	 
 1977              	 
 1978 0000 80B5     	 push {r7,lr}
 1979              	.LCFI95:
 1980              	 .cfi_def_cfa_offset 8
 1981              	 .cfi_offset 7,-8
 1982              	 .cfi_offset 14,-4
 1983 0002 86B0     	 sub sp,sp,#24
 1984              	.LCFI96:
 1985              	 .cfi_def_cfa_offset 32
 1986 0004 00AF     	 add r7,sp,#0
 1987              	.LCFI97:
 1988              	 .cfi_def_cfa_register 7
 1989 0006 F860     	 str r0,[r7,#12]
 1990 0008 B960     	 str r1,[r7,#8]
 1991 000a 7A60     	 str r2,[r7,#4]
 534:C:/Users/Yushev/git/wpcqi-optiga-trust-charge/optiga/externals/mbedtls/library\bignum.c ****     int ret;
 535:C:/Users/Yushev/git/wpcqi-optiga-trust-charge/optiga/externals/mbedtls/library\bignum.c ****     mbedtls_mpi_uint r;
 536:C:/Users/Yushev/git/wpcqi-optiga-trust-charge/optiga/externals/mbedtls/library\bignum.c **** 
 537:C:/Users/Yushev/git/wpcqi-optiga-trust-charge/optiga/externals/mbedtls/library\bignum.c ****     if( radix < 2 || radix > 16 )
 1992              	 .loc 1 537 0
 1993 000c BB68     	 ldr r3,[r7,#8]
 1994 000e 012B     	 cmp r3,#1
 1995 0010 02DD     	 ble .L119
 1996              	 .loc 1 537 0 is_stmt 0 discriminator 1
 1997 0012 BB68     	 ldr r3,[r7,#8]
 1998 0014 102B     	 cmp r3,#16
 1999 0016 02DD     	 ble .L120
 2000              	.L119:
 538:C:/Users/Yushev/git/wpcqi-optiga-trust-charge/optiga/externals/mbedtls/library\bignum.c ****         return( MBEDTLS_ERR_MPI_BAD_INPUT_DATA );
 2001              	 .loc 1 538 0 is_stmt 1
 2002 0018 6FF00303 	 mvn r3,#3
 2003 001c 40E0     	 b .L127
 2004              	.L120:
 539:C:/Users/Yushev/git/wpcqi-optiga-trust-charge/optiga/externals/mbedtls/library\bignum.c **** 
 540:C:/Users/Yushev/git/wpcqi-optiga-trust-charge/optiga/externals/mbedtls/library\bignum.c ****     MBEDTLS_MPI_CHK( mbedtls_mpi_mod_int( &r, X, radix ) );
 2005              	 .loc 1 540 0
 2006 001e 07F11003 	 add r3,r7,#16
 2007 0022 1846     	 mov r0,r3
 2008 0024 F968     	 ldr r1,[r7,#12]
 2009 0026 BA68     	 ldr r2,[r7,#8]
 2010 0028 FFF7FEFF 	 bl mbedtls_mpi_mod_int
 2011 002c 7861     	 str r0,[r7,#20]
 2012 002e 7B69     	 ldr r3,[r7,#20]
 2013 0030 002B     	 cmp r3,#0
 2014 0032 00D0     	 beq .L122
 2015 0034 33E0     	 b .L123
 2016              	.L122:
 541:C:/Users/Yushev/git/wpcqi-optiga-trust-charge/optiga/externals/mbedtls/library\bignum.c ****     MBEDTLS_MPI_CHK( mbedtls_mpi_div_int( X, NULL, X, radix ) );
 2017              	 .loc 1 541 0
 2018 0036 F868     	 ldr r0,[r7,#12]
 2019 0038 0021     	 movs r1,#0
 2020 003a FA68     	 ldr r2,[r7,#12]
 2021 003c BB68     	 ldr r3,[r7,#8]
 2022 003e FFF7FEFF 	 bl mbedtls_mpi_div_int
 2023 0042 7861     	 str r0,[r7,#20]
 2024 0044 7B69     	 ldr r3,[r7,#20]
 2025 0046 002B     	 cmp r3,#0
 2026 0048 00D0     	 beq .L124
 2027 004a 28E0     	 b .L123
 2028              	.L124:
 542:C:/Users/Yushev/git/wpcqi-optiga-trust-charge/optiga/externals/mbedtls/library\bignum.c **** 
 543:C:/Users/Yushev/git/wpcqi-optiga-trust-charge/optiga/externals/mbedtls/library\bignum.c ****     if( mbedtls_mpi_cmp_int( X, 0 ) != 0 )
 2029              	 .loc 1 543 0
 2030 004c F868     	 ldr r0,[r7,#12]
 2031 004e 0021     	 movs r1,#0
 2032 0050 FFF7FEFF 	 bl mbedtls_mpi_cmp_int
 2033 0054 0346     	 mov r3,r0
 2034 0056 002B     	 cmp r3,#0
 2035 0058 09D0     	 beq .L125
 544:C:/Users/Yushev/git/wpcqi-optiga-trust-charge/optiga/externals/mbedtls/library\bignum.c ****         MBEDTLS_MPI_CHK( mpi_write_hlp( X, radix, p ) );
 2036              	 .loc 1 544 0
 2037 005a F868     	 ldr r0,[r7,#12]
 2038 005c B968     	 ldr r1,[r7,#8]
 2039 005e 7A68     	 ldr r2,[r7,#4]
 2040 0060 FFF7CEFF 	 bl mpi_write_hlp
 2041 0064 7861     	 str r0,[r7,#20]
 2042 0066 7B69     	 ldr r3,[r7,#20]
 2043 0068 002B     	 cmp r3,#0
 2044 006a 00D0     	 beq .L125
 2045 006c 17E0     	 b .L123
 2046              	.L125:
 545:C:/Users/Yushev/git/wpcqi-optiga-trust-charge/optiga/externals/mbedtls/library\bignum.c **** 
 546:C:/Users/Yushev/git/wpcqi-optiga-trust-charge/optiga/externals/mbedtls/library\bignum.c ****     if( r < 10 )
 2047              	 .loc 1 546 0
 2048 006e 3B69     	 ldr r3,[r7,#16]
 2049 0070 092B     	 cmp r3,#9
 2050 0072 0AD8     	 bhi .L126
 547:C:/Users/Yushev/git/wpcqi-optiga-trust-charge/optiga/externals/mbedtls/library\bignum.c ****         *(*p)++ = (char)( r + 0x30 );
 2051              	 .loc 1 547 0
 2052 0074 7B68     	 ldr r3,[r7,#4]
 2053 0076 1B68     	 ldr r3,[r3]
 2054 0078 591C     	 adds r1,r3,#1
 2055 007a 7A68     	 ldr r2,[r7,#4]
 2056 007c 1160     	 str r1,[r2]
 2057 007e 3A69     	 ldr r2,[r7,#16]
 2058 0080 D2B2     	 uxtb r2,r2
 2059 0082 3032     	 adds r2,r2,#48
 2060 0084 D2B2     	 uxtb r2,r2
 2061 0086 1A70     	 strb r2,[r3]
 2062 0088 09E0     	 b .L123
 2063              	.L126:
 548:C:/Users/Yushev/git/wpcqi-optiga-trust-charge/optiga/externals/mbedtls/library\bignum.c ****     else
 549:C:/Users/Yushev/git/wpcqi-optiga-trust-charge/optiga/externals/mbedtls/library\bignum.c ****         *(*p)++ = (char)( r + 0x37 );
 2064              	 .loc 1 549 0
 2065 008a 7B68     	 ldr r3,[r7,#4]
 2066 008c 1B68     	 ldr r3,[r3]
 2067 008e 591C     	 adds r1,r3,#1
 2068 0090 7A68     	 ldr r2,[r7,#4]
 2069 0092 1160     	 str r1,[r2]
 2070 0094 3A69     	 ldr r2,[r7,#16]
 2071 0096 D2B2     	 uxtb r2,r2
 2072 0098 3732     	 adds r2,r2,#55
 2073 009a D2B2     	 uxtb r2,r2
 2074 009c 1A70     	 strb r2,[r3]
 2075              	.L123:
 550:C:/Users/Yushev/git/wpcqi-optiga-trust-charge/optiga/externals/mbedtls/library\bignum.c **** 
 551:C:/Users/Yushev/git/wpcqi-optiga-trust-charge/optiga/externals/mbedtls/library\bignum.c **** cleanup:
 552:C:/Users/Yushev/git/wpcqi-optiga-trust-charge/optiga/externals/mbedtls/library\bignum.c **** 
 553:C:/Users/Yushev/git/wpcqi-optiga-trust-charge/optiga/externals/mbedtls/library\bignum.c ****     return( ret );
 2076              	 .loc 1 553 0
 2077 009e 7B69     	 ldr r3,[r7,#20]
 2078              	.L127:
 554:C:/Users/Yushev/git/wpcqi-optiga-trust-charge/optiga/externals/mbedtls/library\bignum.c **** }
 2079              	 .loc 1 554 0 discriminator 1
 2080 00a0 1846     	 mov r0,r3
 2081 00a2 1837     	 adds r7,r7,#24
 2082              	.LCFI98:
 2083              	 .cfi_def_cfa_offset 8
 2084 00a4 BD46     	 mov sp,r7
 2085              	.LCFI99:
 2086              	 .cfi_def_cfa_register 13
 2087              	 
 2088 00a6 80BD     	 pop {r7,pc}
 2089              	 .cfi_endproc
 2090              	.LFE18:
 2092              	 .section .rodata
 2093              	 .align 2
 2094              	.LC0:
 2095 0000 30313233 	 .ascii "0123456789ABCDEF\000"
 2095      34353637 
 2095      38394142 
 2095      43444546 
 2095      00
 2096 0011 000000   	 .section .text.mbedtls_mpi_write_string,"ax",%progbits
 2097              	 .align 2
 2098              	 .global mbedtls_mpi_write_string
 2099              	 .thumb
 2100              	 .thumb_func
 2102              	mbedtls_mpi_write_string:
 2103              	.LFB19:
 555:C:/Users/Yushev/git/wpcqi-optiga-trust-charge/optiga/externals/mbedtls/library\bignum.c **** 
 556:C:/Users/Yushev/git/wpcqi-optiga-trust-charge/optiga/externals/mbedtls/library\bignum.c **** /*
 557:C:/Users/Yushev/git/wpcqi-optiga-trust-charge/optiga/externals/mbedtls/library\bignum.c ****  * Export into an ASCII string
 558:C:/Users/Yushev/git/wpcqi-optiga-trust-charge/optiga/externals/mbedtls/library\bignum.c ****  */
 559:C:/Users/Yushev/git/wpcqi-optiga-trust-charge/optiga/externals/mbedtls/library\bignum.c **** int mbedtls_mpi_write_string( const mbedtls_mpi *X, int radix,
 560:C:/Users/Yushev/git/wpcqi-optiga-trust-charge/optiga/externals/mbedtls/library\bignum.c ****                               char *buf, size_t buflen, size_t *olen )
 561:C:/Users/Yushev/git/wpcqi-optiga-trust-charge/optiga/externals/mbedtls/library\bignum.c **** {
 2104              	 .loc 1 561 0
 2105              	 .cfi_startproc
 2106              	 
 2107              	 
 2108 0000 80B5     	 push {r7,lr}
 2109              	.LCFI100:
 2110              	 .cfi_def_cfa_offset 8
 2111              	 .cfi_offset 7,-8
 2112              	 .cfi_offset 14,-4
 2113 0002 8EB0     	 sub sp,sp,#56
 2114              	.LCFI101:
 2115              	 .cfi_def_cfa_offset 64
 2116 0004 00AF     	 add r7,sp,#0
 2117              	.LCFI102:
 2118              	 .cfi_def_cfa_register 7
 2119 0006 F860     	 str r0,[r7,#12]
 2120 0008 B960     	 str r1,[r7,#8]
 2121 000a 7A60     	 str r2,[r7,#4]
 2122 000c 3B60     	 str r3,[r7]
 562:C:/Users/Yushev/git/wpcqi-optiga-trust-charge/optiga/externals/mbedtls/library\bignum.c ****     int ret = 0;
 2123              	 .loc 1 562 0
 2124 000e 0023     	 movs r3,#0
 2125 0010 7B63     	 str r3,[r7,#52]
 563:C:/Users/Yushev/git/wpcqi-optiga-trust-charge/optiga/externals/mbedtls/library\bignum.c ****     size_t n;
 564:C:/Users/Yushev/git/wpcqi-optiga-trust-charge/optiga/externals/mbedtls/library\bignum.c ****     char *p;
 565:C:/Users/Yushev/git/wpcqi-optiga-trust-charge/optiga/externals/mbedtls/library\bignum.c ****     mbedtls_mpi T;
 566:C:/Users/Yushev/git/wpcqi-optiga-trust-charge/optiga/externals/mbedtls/library\bignum.c ****     MPI_VALIDATE_RET( X    != NULL );
 567:C:/Users/Yushev/git/wpcqi-optiga-trust-charge/optiga/externals/mbedtls/library\bignum.c ****     MPI_VALIDATE_RET( olen != NULL );
 568:C:/Users/Yushev/git/wpcqi-optiga-trust-charge/optiga/externals/mbedtls/library\bignum.c ****     MPI_VALIDATE_RET( buflen == 0 || buf != NULL );
 569:C:/Users/Yushev/git/wpcqi-optiga-trust-charge/optiga/externals/mbedtls/library\bignum.c **** 
 570:C:/Users/Yushev/git/wpcqi-optiga-trust-charge/optiga/externals/mbedtls/library\bignum.c ****     if( radix < 2 || radix > 16 )
 2126              	 .loc 1 570 0
 2127 0012 BB68     	 ldr r3,[r7,#8]
 2128 0014 012B     	 cmp r3,#1
 2129 0016 02DD     	 ble .L129
 2130              	 .loc 1 570 0 is_stmt 0 discriminator 1
 2131 0018 BB68     	 ldr r3,[r7,#8]
 2132 001a 102B     	 cmp r3,#16
 2133 001c 02DD     	 ble .L130
 2134              	.L129:
 571:C:/Users/Yushev/git/wpcqi-optiga-trust-charge/optiga/externals/mbedtls/library\bignum.c ****         return( MBEDTLS_ERR_MPI_BAD_INPUT_DATA );
 2135              	 .loc 1 571 0 is_stmt 1
 2136 001e 6FF00303 	 mvn r3,#3
 2137 0022 B5E0     	 b .L149
 2138              	.L130:
 572:C:/Users/Yushev/git/wpcqi-optiga-trust-charge/optiga/externals/mbedtls/library\bignum.c **** 
 573:C:/Users/Yushev/git/wpcqi-optiga-trust-charge/optiga/externals/mbedtls/library\bignum.c ****     n = mbedtls_mpi_bitlen( X );
 2139              	 .loc 1 573 0
 2140 0024 F868     	 ldr r0,[r7,#12]
 2141 0026 FFF7FEFF 	 bl mbedtls_mpi_bitlen
 2142 002a 3863     	 str r0,[r7,#48]
 574:C:/Users/Yushev/git/wpcqi-optiga-trust-charge/optiga/externals/mbedtls/library\bignum.c ****     if( radix >=  4 ) n >>= 1;
 2143              	 .loc 1 574 0
 2144 002c BB68     	 ldr r3,[r7,#8]
 2145 002e 032B     	 cmp r3,#3
 2146 0030 02DD     	 ble .L132
 2147              	 .loc 1 574 0 is_stmt 0 discriminator 1
 2148 0032 3B6B     	 ldr r3,[r7,#48]
 2149 0034 5B08     	 lsrs r3,r3,#1
 2150 0036 3B63     	 str r3,[r7,#48]
 2151              	.L132:
 575:C:/Users/Yushev/git/wpcqi-optiga-trust-charge/optiga/externals/mbedtls/library\bignum.c ****     if( radix >= 16 ) n >>= 1;
 2152              	 .loc 1 575 0 is_stmt 1
 2153 0038 BB68     	 ldr r3,[r7,#8]
 2154 003a 0F2B     	 cmp r3,#15
 2155 003c 02DD     	 ble .L133
 2156              	 .loc 1 575 0 is_stmt 0 discriminator 1
 2157 003e 3B6B     	 ldr r3,[r7,#48]
 2158 0040 5B08     	 lsrs r3,r3,#1
 2159 0042 3B63     	 str r3,[r7,#48]
 2160              	.L133:
 576:C:/Users/Yushev/git/wpcqi-optiga-trust-charge/optiga/externals/mbedtls/library\bignum.c ****     /*
 577:C:/Users/Yushev/git/wpcqi-optiga-trust-charge/optiga/externals/mbedtls/library\bignum.c ****      * Round up the buffer length to an even value to ensure that there is
 578:C:/Users/Yushev/git/wpcqi-optiga-trust-charge/optiga/externals/mbedtls/library\bignum.c ****      * enough room for hexadecimal values that can be represented in an odd
 579:C:/Users/Yushev/git/wpcqi-optiga-trust-charge/optiga/externals/mbedtls/library\bignum.c ****      * number of digits.
 580:C:/Users/Yushev/git/wpcqi-optiga-trust-charge/optiga/externals/mbedtls/library\bignum.c ****      */
 581:C:/Users/Yushev/git/wpcqi-optiga-trust-charge/optiga/externals/mbedtls/library\bignum.c ****     n += 3 + ( ( n + 1 ) & 1 );
 2161              	 .loc 1 581 0 is_stmt 1
 2162 0044 3B6B     	 ldr r3,[r7,#48]
 2163 0046 0133     	 adds r3,r3,#1
 2164 0048 03F00102 	 and r2,r3,#1
 2165 004c 3B6B     	 ldr r3,[r7,#48]
 2166 004e 1344     	 add r3,r3,r2
 2167 0050 0333     	 adds r3,r3,#3
 2168 0052 3B63     	 str r3,[r7,#48]
 582:C:/Users/Yushev/git/wpcqi-optiga-trust-charge/optiga/externals/mbedtls/library\bignum.c **** 
 583:C:/Users/Yushev/git/wpcqi-optiga-trust-charge/optiga/externals/mbedtls/library\bignum.c ****     if( buflen < n )
 2169              	 .loc 1 583 0
 2170 0054 3A68     	 ldr r2,[r7]
 2171 0056 3B6B     	 ldr r3,[r7,#48]
 2172 0058 9A42     	 cmp r2,r3
 2173 005a 05D2     	 bcs .L134
 584:C:/Users/Yushev/git/wpcqi-optiga-trust-charge/optiga/externals/mbedtls/library\bignum.c ****     {
 585:C:/Users/Yushev/git/wpcqi-optiga-trust-charge/optiga/externals/mbedtls/library\bignum.c ****         *olen = n;
 2174              	 .loc 1 585 0
 2175 005c 3B6C     	 ldr r3,[r7,#64]
 2176 005e 3A6B     	 ldr r2,[r7,#48]
 2177 0060 1A60     	 str r2,[r3]
 586:C:/Users/Yushev/git/wpcqi-optiga-trust-charge/optiga/externals/mbedtls/library\bignum.c ****         return( MBEDTLS_ERR_MPI_BUFFER_TOO_SMALL );
 2178              	 .loc 1 586 0
 2179 0062 6FF00703 	 mvn r3,#7
 2180 0066 93E0     	 b .L149
 2181              	.L134:
 587:C:/Users/Yushev/git/wpcqi-optiga-trust-charge/optiga/externals/mbedtls/library\bignum.c ****     }
 588:C:/Users/Yushev/git/wpcqi-optiga-trust-charge/optiga/externals/mbedtls/library\bignum.c **** 
 589:C:/Users/Yushev/git/wpcqi-optiga-trust-charge/optiga/externals/mbedtls/library\bignum.c ****     p = buf;
 2182              	 .loc 1 589 0
 2183 0068 7B68     	 ldr r3,[r7,#4]
 2184 006a FB61     	 str r3,[r7,#28]
 590:C:/Users/Yushev/git/wpcqi-optiga-trust-charge/optiga/externals/mbedtls/library\bignum.c ****     mbedtls_mpi_init( &T );
 2185              	 .loc 1 590 0
 2186 006c 07F11003 	 add r3,r7,#16
 2187 0070 1846     	 mov r0,r3
 2188 0072 FFF7FEFF 	 bl mbedtls_mpi_init
 591:C:/Users/Yushev/git/wpcqi-optiga-trust-charge/optiga/externals/mbedtls/library\bignum.c **** 
 592:C:/Users/Yushev/git/wpcqi-optiga-trust-charge/optiga/externals/mbedtls/library\bignum.c ****     if( X->s == -1 )
 2189              	 .loc 1 592 0
 2190 0076 FB68     	 ldr r3,[r7,#12]
 2191 0078 1B68     	 ldr r3,[r3]
 2192 007a B3F1FF3F 	 cmp r3,#-1
 2193 007e 04D1     	 bne .L135
 593:C:/Users/Yushev/git/wpcqi-optiga-trust-charge/optiga/externals/mbedtls/library\bignum.c ****         *p++ = '-';
 2194              	 .loc 1 593 0
 2195 0080 FB69     	 ldr r3,[r7,#28]
 2196 0082 5A1C     	 adds r2,r3,#1
 2197 0084 FA61     	 str r2,[r7,#28]
 2198 0086 2D22     	 movs r2,#45
 2199 0088 1A70     	 strb r2,[r3]
 2200              	.L135:
 594:C:/Users/Yushev/git/wpcqi-optiga-trust-charge/optiga/externals/mbedtls/library\bignum.c **** 
 595:C:/Users/Yushev/git/wpcqi-optiga-trust-charge/optiga/externals/mbedtls/library\bignum.c ****     if( radix == 16 )
 2201              	 .loc 1 595 0
 2202 008a BB68     	 ldr r3,[r7,#8]
 2203 008c 102B     	 cmp r3,#16
 2204 008e 4ED1     	 bne .L136
 2205              	.LBB2:
 596:C:/Users/Yushev/git/wpcqi-optiga-trust-charge/optiga/externals/mbedtls/library\bignum.c ****     {
 597:C:/Users/Yushev/git/wpcqi-optiga-trust-charge/optiga/externals/mbedtls/library\bignum.c ****         int c;
 598:C:/Users/Yushev/git/wpcqi-optiga-trust-charge/optiga/externals/mbedtls/library\bignum.c ****         size_t i, j, k;
 599:C:/Users/Yushev/git/wpcqi-optiga-trust-charge/optiga/externals/mbedtls/library\bignum.c **** 
 600:C:/Users/Yushev/git/wpcqi-optiga-trust-charge/optiga/externals/mbedtls/library\bignum.c ****         for( i = X->n, k = 0; i > 0; i-- )
 2206              	 .loc 1 600 0
 2207 0090 FB68     	 ldr r3,[r7,#12]
 2208 0092 5B68     	 ldr r3,[r3,#4]
 2209 0094 FB62     	 str r3,[r7,#44]
 2210 0096 0023     	 movs r3,#0
 2211 0098 7B62     	 str r3,[r7,#36]
 2212 009a 44E0     	 b .L137
 2213              	.L144:
 601:C:/Users/Yushev/git/wpcqi-optiga-trust-charge/optiga/externals/mbedtls/library\bignum.c ****         {
 602:C:/Users/Yushev/git/wpcqi-optiga-trust-charge/optiga/externals/mbedtls/library\bignum.c ****             for( j = ciL; j > 0; j-- )
 2214              	 .loc 1 602 0
 2215 009c 0423     	 movs r3,#4
 2216 009e BB62     	 str r3,[r7,#40]
 2217 00a0 3BE0     	 b .L138
 2218              	.L143:
 603:C:/Users/Yushev/git/wpcqi-optiga-trust-charge/optiga/externals/mbedtls/library\bignum.c ****             {
 604:C:/Users/Yushev/git/wpcqi-optiga-trust-charge/optiga/externals/mbedtls/library\bignum.c ****                 c = ( X->p[i - 1] >> ( ( j - 1 ) << 3) ) & 0xFF;
 2219              	 .loc 1 604 0
 2220 00a2 FB68     	 ldr r3,[r7,#12]
 2221 00a4 9A68     	 ldr r2,[r3,#8]
 2222 00a6 FB6A     	 ldr r3,[r7,#44]
 2223 00a8 03F18043 	 add r3,r3,#1073741824
 2224 00ac 013B     	 subs r3,r3,#1
 2225 00ae 9B00     	 lsls r3,r3,#2
 2226 00b0 1344     	 add r3,r3,r2
 2227 00b2 1B68     	 ldr r3,[r3]
 2228 00b4 BA6A     	 ldr r2,[r7,#40]
 2229 00b6 013A     	 subs r2,r2,#1
 2230 00b8 D200     	 lsls r2,r2,#3
 2231 00ba D340     	 lsrs r3,r3,r2
 2232 00bc DBB2     	 uxtb r3,r3
 2233 00be 3B62     	 str r3,[r7,#32]
 605:C:/Users/Yushev/git/wpcqi-optiga-trust-charge/optiga/externals/mbedtls/library\bignum.c **** 
 606:C:/Users/Yushev/git/wpcqi-optiga-trust-charge/optiga/externals/mbedtls/library\bignum.c ****                 if( c == 0 && k == 0 && ( i + j ) != 2 )
 2234              	 .loc 1 606 0
 2235 00c0 3B6A     	 ldr r3,[r7,#32]
 2236 00c2 002B     	 cmp r3,#0
 2237 00c4 08D1     	 bne .L139
 2238              	 .loc 1 606 0 is_stmt 0 discriminator 1
 2239 00c6 7B6A     	 ldr r3,[r7,#36]
 2240 00c8 002B     	 cmp r3,#0
 2241 00ca 05D1     	 bne .L139
 2242              	 .loc 1 606 0 discriminator 2
 2243 00cc FA6A     	 ldr r2,[r7,#44]
 2244 00ce BB6A     	 ldr r3,[r7,#40]
 2245 00d0 1344     	 add r3,r3,r2
 2246 00d2 022B     	 cmp r3,#2
 2247 00d4 00D0     	 beq .L139
 607:C:/Users/Yushev/git/wpcqi-optiga-trust-charge/optiga/externals/mbedtls/library\bignum.c ****                     continue;
 2248              	 .loc 1 607 0 is_stmt 1
 2249 00d6 1DE0     	 b .L140
 2250              	.L139:
 608:C:/Users/Yushev/git/wpcqi-optiga-trust-charge/optiga/externals/mbedtls/library\bignum.c **** 
 609:C:/Users/Yushev/git/wpcqi-optiga-trust-charge/optiga/externals/mbedtls/library\bignum.c ****                 *(p++) = "0123456789ABCDEF" [c / 16];
 2251              	 .loc 1 609 0
 2252 00d8 FA69     	 ldr r2,[r7,#28]
 2253 00da 531C     	 adds r3,r2,#1
 2254 00dc FB61     	 str r3,[r7,#28]
 2255 00de 3B6A     	 ldr r3,[r7,#32]
 2256 00e0 002B     	 cmp r3,#0
 2257 00e2 00DA     	 bge .L141
 2258 00e4 0F33     	 adds r3,r3,#15
 2259              	.L141:
 2260 00e6 1B11     	 asrs r3,r3,#4
 2261 00e8 1946     	 mov r1,r3
 2262 00ea 2B4B     	 ldr r3,.L150
 2263 00ec 5B5C     	 ldrb r3,[r3,r1]
 2264 00ee 1370     	 strb r3,[r2]
 610:C:/Users/Yushev/git/wpcqi-optiga-trust-charge/optiga/externals/mbedtls/library\bignum.c ****                 *(p++) = "0123456789ABCDEF" [c % 16];
 2265              	 .loc 1 610 0
 2266 00f0 FA69     	 ldr r2,[r7,#28]
 2267 00f2 531C     	 adds r3,r2,#1
 2268 00f4 FB61     	 str r3,[r7,#28]
 2269 00f6 396A     	 ldr r1,[r7,#32]
 2270 00f8 284B     	 ldr r3,.L150+4
 2271 00fa 0B40     	 ands r3,r3,r1
 2272 00fc 002B     	 cmp r3,#0
 2273 00fe 03DA     	 bge .L142
 2274 0100 013B     	 subs r3,r3,#1
 2275 0102 63F00F03 	 orn r3,r3,#15
 2276 0106 0133     	 adds r3,r3,#1
 2277              	.L142:
 2278 0108 1946     	 mov r1,r3
 2279 010a 234B     	 ldr r3,.L150
 2280 010c 5B5C     	 ldrb r3,[r3,r1]
 2281 010e 1370     	 strb r3,[r2]
 611:C:/Users/Yushev/git/wpcqi-optiga-trust-charge/optiga/externals/mbedtls/library\bignum.c ****                 k = 1;
 2282              	 .loc 1 611 0
 2283 0110 0123     	 movs r3,#1
 2284 0112 7B62     	 str r3,[r7,#36]
 2285              	.L140:
 602:C:/Users/Yushev/git/wpcqi-optiga-trust-charge/optiga/externals/mbedtls/library\bignum.c ****             {
 2286              	 .loc 1 602 0 discriminator 2
 2287 0114 BB6A     	 ldr r3,[r7,#40]
 2288 0116 013B     	 subs r3,r3,#1
 2289 0118 BB62     	 str r3,[r7,#40]
 2290              	.L138:
 602:C:/Users/Yushev/git/wpcqi-optiga-trust-charge/optiga/externals/mbedtls/library\bignum.c ****             {
 2291              	 .loc 1 602 0 is_stmt 0 discriminator 1
 2292 011a BB6A     	 ldr r3,[r7,#40]
 2293 011c 002B     	 cmp r3,#0
 2294 011e C0D1     	 bne .L143
 600:C:/Users/Yushev/git/wpcqi-optiga-trust-charge/optiga/externals/mbedtls/library\bignum.c ****         {
 2295              	 .loc 1 600 0 is_stmt 1 discriminator 2
 2296 0120 FB6A     	 ldr r3,[r7,#44]
 2297 0122 013B     	 subs r3,r3,#1
 2298 0124 FB62     	 str r3,[r7,#44]
 2299              	.L137:
 600:C:/Users/Yushev/git/wpcqi-optiga-trust-charge/optiga/externals/mbedtls/library\bignum.c ****         {
 2300              	 .loc 1 600 0 is_stmt 0 discriminator 1
 2301 0126 FB6A     	 ldr r3,[r7,#44]
 2302 0128 002B     	 cmp r3,#0
 2303 012a B7D1     	 bne .L144
 2304              	.LBE2:
 2305 012c 1EE0     	 b .L145
 2306              	.L136:
 612:C:/Users/Yushev/git/wpcqi-optiga-trust-charge/optiga/externals/mbedtls/library\bignum.c ****             }
 613:C:/Users/Yushev/git/wpcqi-optiga-trust-charge/optiga/externals/mbedtls/library\bignum.c ****         }
 614:C:/Users/Yushev/git/wpcqi-optiga-trust-charge/optiga/externals/mbedtls/library\bignum.c ****     }
 615:C:/Users/Yushev/git/wpcqi-optiga-trust-charge/optiga/externals/mbedtls/library\bignum.c ****     else
 616:C:/Users/Yushev/git/wpcqi-optiga-trust-charge/optiga/externals/mbedtls/library\bignum.c ****     {
 617:C:/Users/Yushev/git/wpcqi-optiga-trust-charge/optiga/externals/mbedtls/library\bignum.c ****         MBEDTLS_MPI_CHK( mbedtls_mpi_copy( &T, X ) );
 2307              	 .loc 1 617 0 is_stmt 1
 2308 012e 07F11003 	 add r3,r7,#16
 2309 0132 1846     	 mov r0,r3
 2310 0134 F968     	 ldr r1,[r7,#12]
 2311 0136 FFF7FEFF 	 bl mbedtls_mpi_copy
 2312 013a 7863     	 str r0,[r7,#52]
 2313 013c 7B6B     	 ldr r3,[r7,#52]
 2314 013e 002B     	 cmp r3,#0
 2315 0140 00D0     	 beq .L146
 2316 0142 1FE0     	 b .L147
 2317              	.L146:
 618:C:/Users/Yushev/git/wpcqi-optiga-trust-charge/optiga/externals/mbedtls/library\bignum.c **** 
 619:C:/Users/Yushev/git/wpcqi-optiga-trust-charge/optiga/externals/mbedtls/library\bignum.c ****         if( T.s == -1 )
 2318              	 .loc 1 619 0
 2319 0144 3B69     	 ldr r3,[r7,#16]
 2320 0146 B3F1FF3F 	 cmp r3,#-1
 2321 014a 01D1     	 bne .L148
 620:C:/Users/Yushev/git/wpcqi-optiga-trust-charge/optiga/externals/mbedtls/library\bignum.c ****             T.s = 1;
 2322              	 .loc 1 620 0
 2323 014c 0123     	 movs r3,#1
 2324 014e 3B61     	 str r3,[r7,#16]
 2325              	.L148:
 621:C:/Users/Yushev/git/wpcqi-optiga-trust-charge/optiga/externals/mbedtls/library\bignum.c **** 
 622:C:/Users/Yushev/git/wpcqi-optiga-trust-charge/optiga/externals/mbedtls/library\bignum.c ****         MBEDTLS_MPI_CHK( mpi_write_hlp( &T, radix, &p ) );
 2326              	 .loc 1 622 0
 2327 0150 07F11002 	 add r2,r7,#16
 2328 0154 07F11C03 	 add r3,r7,#28
 2329 0158 1046     	 mov r0,r2
 2330 015a B968     	 ldr r1,[r7,#8]
 2331 015c 1A46     	 mov r2,r3
 2332 015e FFF7FEFF 	 bl mpi_write_hlp
 2333 0162 7863     	 str r0,[r7,#52]
 2334 0164 7B6B     	 ldr r3,[r7,#52]
 2335 0166 002B     	 cmp r3,#0
 2336 0168 00D0     	 beq .L145
 2337 016a 0BE0     	 b .L147
 2338              	.L145:
 623:C:/Users/Yushev/git/wpcqi-optiga-trust-charge/optiga/externals/mbedtls/library\bignum.c ****     }
 624:C:/Users/Yushev/git/wpcqi-optiga-trust-charge/optiga/externals/mbedtls/library\bignum.c **** 
 625:C:/Users/Yushev/git/wpcqi-optiga-trust-charge/optiga/externals/mbedtls/library\bignum.c ****     *p++ = '\0';
 2339              	 .loc 1 625 0
 2340 016c FB69     	 ldr r3,[r7,#28]
 2341 016e 5A1C     	 adds r2,r3,#1
 2342 0170 FA61     	 str r2,[r7,#28]
 2343 0172 0022     	 movs r2,#0
 2344 0174 1A70     	 strb r2,[r3]
 626:C:/Users/Yushev/git/wpcqi-optiga-trust-charge/optiga/externals/mbedtls/library\bignum.c ****     *olen = p - buf;
 2345              	 .loc 1 626 0
 2346 0176 FB69     	 ldr r3,[r7,#28]
 2347 0178 1A46     	 mov r2,r3
 2348 017a 7B68     	 ldr r3,[r7,#4]
 2349 017c D31A     	 subs r3,r2,r3
 2350 017e 1A46     	 mov r2,r3
 2351 0180 3B6C     	 ldr r3,[r7,#64]
 2352 0182 1A60     	 str r2,[r3]
 2353              	.L147:
 627:C:/Users/Yushev/git/wpcqi-optiga-trust-charge/optiga/externals/mbedtls/library\bignum.c **** 
 628:C:/Users/Yushev/git/wpcqi-optiga-trust-charge/optiga/externals/mbedtls/library\bignum.c **** cleanup:
 629:C:/Users/Yushev/git/wpcqi-optiga-trust-charge/optiga/externals/mbedtls/library\bignum.c **** 
 630:C:/Users/Yushev/git/wpcqi-optiga-trust-charge/optiga/externals/mbedtls/library\bignum.c ****     mbedtls_mpi_free( &T );
 2354              	 .loc 1 630 0
 2355 0184 07F11003 	 add r3,r7,#16
 2356 0188 1846     	 mov r0,r3
 2357 018a FFF7FEFF 	 bl mbedtls_mpi_free
 631:C:/Users/Yushev/git/wpcqi-optiga-trust-charge/optiga/externals/mbedtls/library\bignum.c **** 
 632:C:/Users/Yushev/git/wpcqi-optiga-trust-charge/optiga/externals/mbedtls/library\bignum.c ****     return( ret );
 2358              	 .loc 1 632 0
 2359 018e 7B6B     	 ldr r3,[r7,#52]
 2360              	.L149:
 633:C:/Users/Yushev/git/wpcqi-optiga-trust-charge/optiga/externals/mbedtls/library\bignum.c **** }
 2361              	 .loc 1 633 0 discriminator 1
 2362 0190 1846     	 mov r0,r3
 2363 0192 3837     	 adds r7,r7,#56
 2364              	.LCFI103:
 2365              	 .cfi_def_cfa_offset 8
 2366 0194 BD46     	 mov sp,r7
 2367              	.LCFI104:
 2368              	 .cfi_def_cfa_register 13
 2369              	 
 2370 0196 80BD     	 pop {r7,pc}
 2371              	.L151:
 2372              	 .align 2
 2373              	.L150:
 2374 0198 00000000 	 .word .LC0
 2375 019c 0F000080 	 .word -2147483633
 2376              	 .cfi_endproc
 2377              	.LFE19:
 2379              	 .section .text.mbedtls_mpi_read_binary,"ax",%progbits
 2380              	 .align 2
 2381              	 .global mbedtls_mpi_read_binary
 2382              	 .thumb
 2383              	 .thumb_func
 2385              	mbedtls_mpi_read_binary:
 2386              	.LFB20:
 634:C:/Users/Yushev/git/wpcqi-optiga-trust-charge/optiga/externals/mbedtls/library\bignum.c **** 
 635:C:/Users/Yushev/git/wpcqi-optiga-trust-charge/optiga/externals/mbedtls/library\bignum.c **** #if defined(MBEDTLS_FS_IO)
 636:C:/Users/Yushev/git/wpcqi-optiga-trust-charge/optiga/externals/mbedtls/library\bignum.c **** /*
 637:C:/Users/Yushev/git/wpcqi-optiga-trust-charge/optiga/externals/mbedtls/library\bignum.c ****  * Read X from an opened file
 638:C:/Users/Yushev/git/wpcqi-optiga-trust-charge/optiga/externals/mbedtls/library\bignum.c ****  */
 639:C:/Users/Yushev/git/wpcqi-optiga-trust-charge/optiga/externals/mbedtls/library\bignum.c **** int mbedtls_mpi_read_file( mbedtls_mpi *X, int radix, FILE *fin )
 640:C:/Users/Yushev/git/wpcqi-optiga-trust-charge/optiga/externals/mbedtls/library\bignum.c **** {
 641:C:/Users/Yushev/git/wpcqi-optiga-trust-charge/optiga/externals/mbedtls/library\bignum.c ****     mbedtls_mpi_uint d;
 642:C:/Users/Yushev/git/wpcqi-optiga-trust-charge/optiga/externals/mbedtls/library\bignum.c ****     size_t slen;
 643:C:/Users/Yushev/git/wpcqi-optiga-trust-charge/optiga/externals/mbedtls/library\bignum.c ****     char *p;
 644:C:/Users/Yushev/git/wpcqi-optiga-trust-charge/optiga/externals/mbedtls/library\bignum.c ****     /*
 645:C:/Users/Yushev/git/wpcqi-optiga-trust-charge/optiga/externals/mbedtls/library\bignum.c ****      * Buffer should have space for (short) label and decimal formatted MPI,
 646:C:/Users/Yushev/git/wpcqi-optiga-trust-charge/optiga/externals/mbedtls/library\bignum.c ****      * newline characters and '\0'
 647:C:/Users/Yushev/git/wpcqi-optiga-trust-charge/optiga/externals/mbedtls/library\bignum.c ****      */
 648:C:/Users/Yushev/git/wpcqi-optiga-trust-charge/optiga/externals/mbedtls/library\bignum.c ****     char s[ MBEDTLS_MPI_RW_BUFFER_SIZE ];
 649:C:/Users/Yushev/git/wpcqi-optiga-trust-charge/optiga/externals/mbedtls/library\bignum.c **** 
 650:C:/Users/Yushev/git/wpcqi-optiga-trust-charge/optiga/externals/mbedtls/library\bignum.c ****     MPI_VALIDATE_RET( X   != NULL );
 651:C:/Users/Yushev/git/wpcqi-optiga-trust-charge/optiga/externals/mbedtls/library\bignum.c ****     MPI_VALIDATE_RET( fin != NULL );
 652:C:/Users/Yushev/git/wpcqi-optiga-trust-charge/optiga/externals/mbedtls/library\bignum.c **** 
 653:C:/Users/Yushev/git/wpcqi-optiga-trust-charge/optiga/externals/mbedtls/library\bignum.c ****     if( radix < 2 || radix > 16 )
 654:C:/Users/Yushev/git/wpcqi-optiga-trust-charge/optiga/externals/mbedtls/library\bignum.c ****         return( MBEDTLS_ERR_MPI_BAD_INPUT_DATA );
 655:C:/Users/Yushev/git/wpcqi-optiga-trust-charge/optiga/externals/mbedtls/library\bignum.c **** 
 656:C:/Users/Yushev/git/wpcqi-optiga-trust-charge/optiga/externals/mbedtls/library\bignum.c ****     memset( s, 0, sizeof( s ) );
 657:C:/Users/Yushev/git/wpcqi-optiga-trust-charge/optiga/externals/mbedtls/library\bignum.c ****     if( fgets( s, sizeof( s ) - 1, fin ) == NULL )
 658:C:/Users/Yushev/git/wpcqi-optiga-trust-charge/optiga/externals/mbedtls/library\bignum.c ****         return( MBEDTLS_ERR_MPI_FILE_IO_ERROR );
 659:C:/Users/Yushev/git/wpcqi-optiga-trust-charge/optiga/externals/mbedtls/library\bignum.c **** 
 660:C:/Users/Yushev/git/wpcqi-optiga-trust-charge/optiga/externals/mbedtls/library\bignum.c ****     slen = strlen( s );
 661:C:/Users/Yushev/git/wpcqi-optiga-trust-charge/optiga/externals/mbedtls/library\bignum.c ****     if( slen == sizeof( s ) - 2 )
 662:C:/Users/Yushev/git/wpcqi-optiga-trust-charge/optiga/externals/mbedtls/library\bignum.c ****         return( MBEDTLS_ERR_MPI_BUFFER_TOO_SMALL );
 663:C:/Users/Yushev/git/wpcqi-optiga-trust-charge/optiga/externals/mbedtls/library\bignum.c **** 
 664:C:/Users/Yushev/git/wpcqi-optiga-trust-charge/optiga/externals/mbedtls/library\bignum.c ****     if( slen > 0 && s[slen - 1] == '\n' ) { slen--; s[slen] = '\0'; }
 665:C:/Users/Yushev/git/wpcqi-optiga-trust-charge/optiga/externals/mbedtls/library\bignum.c ****     if( slen > 0 && s[slen - 1] == '\r' ) { slen--; s[slen] = '\0'; }
 666:C:/Users/Yushev/git/wpcqi-optiga-trust-charge/optiga/externals/mbedtls/library\bignum.c **** 
 667:C:/Users/Yushev/git/wpcqi-optiga-trust-charge/optiga/externals/mbedtls/library\bignum.c ****     p = s + slen;
 668:C:/Users/Yushev/git/wpcqi-optiga-trust-charge/optiga/externals/mbedtls/library\bignum.c ****     while( p-- > s )
 669:C:/Users/Yushev/git/wpcqi-optiga-trust-charge/optiga/externals/mbedtls/library\bignum.c ****         if( mpi_get_digit( &d, radix, *p ) != 0 )
 670:C:/Users/Yushev/git/wpcqi-optiga-trust-charge/optiga/externals/mbedtls/library\bignum.c ****             break;
 671:C:/Users/Yushev/git/wpcqi-optiga-trust-charge/optiga/externals/mbedtls/library\bignum.c **** 
 672:C:/Users/Yushev/git/wpcqi-optiga-trust-charge/optiga/externals/mbedtls/library\bignum.c ****     return( mbedtls_mpi_read_string( X, radix, p + 1 ) );
 673:C:/Users/Yushev/git/wpcqi-optiga-trust-charge/optiga/externals/mbedtls/library\bignum.c **** }
 674:C:/Users/Yushev/git/wpcqi-optiga-trust-charge/optiga/externals/mbedtls/library\bignum.c **** 
 675:C:/Users/Yushev/git/wpcqi-optiga-trust-charge/optiga/externals/mbedtls/library\bignum.c **** /*
 676:C:/Users/Yushev/git/wpcqi-optiga-trust-charge/optiga/externals/mbedtls/library\bignum.c ****  * Write X into an opened file (or stdout if fout == NULL)
 677:C:/Users/Yushev/git/wpcqi-optiga-trust-charge/optiga/externals/mbedtls/library\bignum.c ****  */
 678:C:/Users/Yushev/git/wpcqi-optiga-trust-charge/optiga/externals/mbedtls/library\bignum.c **** int mbedtls_mpi_write_file( const char *p, const mbedtls_mpi *X, int radix, FILE *fout )
 679:C:/Users/Yushev/git/wpcqi-optiga-trust-charge/optiga/externals/mbedtls/library\bignum.c **** {
 680:C:/Users/Yushev/git/wpcqi-optiga-trust-charge/optiga/externals/mbedtls/library\bignum.c ****     int ret;
 681:C:/Users/Yushev/git/wpcqi-optiga-trust-charge/optiga/externals/mbedtls/library\bignum.c ****     size_t n, slen, plen;
 682:C:/Users/Yushev/git/wpcqi-optiga-trust-charge/optiga/externals/mbedtls/library\bignum.c ****     /*
 683:C:/Users/Yushev/git/wpcqi-optiga-trust-charge/optiga/externals/mbedtls/library\bignum.c ****      * Buffer should have space for (short) label and decimal formatted MPI,
 684:C:/Users/Yushev/git/wpcqi-optiga-trust-charge/optiga/externals/mbedtls/library\bignum.c ****      * newline characters and '\0'
 685:C:/Users/Yushev/git/wpcqi-optiga-trust-charge/optiga/externals/mbedtls/library\bignum.c ****      */
 686:C:/Users/Yushev/git/wpcqi-optiga-trust-charge/optiga/externals/mbedtls/library\bignum.c ****     char s[ MBEDTLS_MPI_RW_BUFFER_SIZE ];
 687:C:/Users/Yushev/git/wpcqi-optiga-trust-charge/optiga/externals/mbedtls/library\bignum.c ****     MPI_VALIDATE_RET( X != NULL );
 688:C:/Users/Yushev/git/wpcqi-optiga-trust-charge/optiga/externals/mbedtls/library\bignum.c **** 
 689:C:/Users/Yushev/git/wpcqi-optiga-trust-charge/optiga/externals/mbedtls/library\bignum.c ****     if( radix < 2 || radix > 16 )
 690:C:/Users/Yushev/git/wpcqi-optiga-trust-charge/optiga/externals/mbedtls/library\bignum.c ****         return( MBEDTLS_ERR_MPI_BAD_INPUT_DATA );
 691:C:/Users/Yushev/git/wpcqi-optiga-trust-charge/optiga/externals/mbedtls/library\bignum.c **** 
 692:C:/Users/Yushev/git/wpcqi-optiga-trust-charge/optiga/externals/mbedtls/library\bignum.c ****     memset( s, 0, sizeof( s ) );
 693:C:/Users/Yushev/git/wpcqi-optiga-trust-charge/optiga/externals/mbedtls/library\bignum.c **** 
 694:C:/Users/Yushev/git/wpcqi-optiga-trust-charge/optiga/externals/mbedtls/library\bignum.c ****     MBEDTLS_MPI_CHK( mbedtls_mpi_write_string( X, radix, s, sizeof( s ) - 2, &n ) );
 695:C:/Users/Yushev/git/wpcqi-optiga-trust-charge/optiga/externals/mbedtls/library\bignum.c **** 
 696:C:/Users/Yushev/git/wpcqi-optiga-trust-charge/optiga/externals/mbedtls/library\bignum.c ****     if( p == NULL ) p = "";
 697:C:/Users/Yushev/git/wpcqi-optiga-trust-charge/optiga/externals/mbedtls/library\bignum.c **** 
 698:C:/Users/Yushev/git/wpcqi-optiga-trust-charge/optiga/externals/mbedtls/library\bignum.c ****     plen = strlen( p );
 699:C:/Users/Yushev/git/wpcqi-optiga-trust-charge/optiga/externals/mbedtls/library\bignum.c ****     slen = strlen( s );
 700:C:/Users/Yushev/git/wpcqi-optiga-trust-charge/optiga/externals/mbedtls/library\bignum.c ****     s[slen++] = '\r';
 701:C:/Users/Yushev/git/wpcqi-optiga-trust-charge/optiga/externals/mbedtls/library\bignum.c ****     s[slen++] = '\n';
 702:C:/Users/Yushev/git/wpcqi-optiga-trust-charge/optiga/externals/mbedtls/library\bignum.c **** 
 703:C:/Users/Yushev/git/wpcqi-optiga-trust-charge/optiga/externals/mbedtls/library\bignum.c ****     if( fout != NULL )
 704:C:/Users/Yushev/git/wpcqi-optiga-trust-charge/optiga/externals/mbedtls/library\bignum.c ****     {
 705:C:/Users/Yushev/git/wpcqi-optiga-trust-charge/optiga/externals/mbedtls/library\bignum.c ****         if( fwrite( p, 1, plen, fout ) != plen ||
 706:C:/Users/Yushev/git/wpcqi-optiga-trust-charge/optiga/externals/mbedtls/library\bignum.c ****             fwrite( s, 1, slen, fout ) != slen )
 707:C:/Users/Yushev/git/wpcqi-optiga-trust-charge/optiga/externals/mbedtls/library\bignum.c ****             return( MBEDTLS_ERR_MPI_FILE_IO_ERROR );
 708:C:/Users/Yushev/git/wpcqi-optiga-trust-charge/optiga/externals/mbedtls/library\bignum.c ****     }
 709:C:/Users/Yushev/git/wpcqi-optiga-trust-charge/optiga/externals/mbedtls/library\bignum.c ****     else
 710:C:/Users/Yushev/git/wpcqi-optiga-trust-charge/optiga/externals/mbedtls/library\bignum.c ****         mbedtls_printf( "%s%s", p, s );
 711:C:/Users/Yushev/git/wpcqi-optiga-trust-charge/optiga/externals/mbedtls/library\bignum.c **** 
 712:C:/Users/Yushev/git/wpcqi-optiga-trust-charge/optiga/externals/mbedtls/library\bignum.c **** cleanup:
 713:C:/Users/Yushev/git/wpcqi-optiga-trust-charge/optiga/externals/mbedtls/library\bignum.c **** 
 714:C:/Users/Yushev/git/wpcqi-optiga-trust-charge/optiga/externals/mbedtls/library\bignum.c ****     return( ret );
 715:C:/Users/Yushev/git/wpcqi-optiga-trust-charge/optiga/externals/mbedtls/library\bignum.c **** }
 716:C:/Users/Yushev/git/wpcqi-optiga-trust-charge/optiga/externals/mbedtls/library\bignum.c **** #endif /* MBEDTLS_FS_IO */
 717:C:/Users/Yushev/git/wpcqi-optiga-trust-charge/optiga/externals/mbedtls/library\bignum.c **** 
 718:C:/Users/Yushev/git/wpcqi-optiga-trust-charge/optiga/externals/mbedtls/library\bignum.c **** /*
 719:C:/Users/Yushev/git/wpcqi-optiga-trust-charge/optiga/externals/mbedtls/library\bignum.c ****  * Import X from unsigned binary data, big endian
 720:C:/Users/Yushev/git/wpcqi-optiga-trust-charge/optiga/externals/mbedtls/library\bignum.c ****  */
 721:C:/Users/Yushev/git/wpcqi-optiga-trust-charge/optiga/externals/mbedtls/library\bignum.c **** int mbedtls_mpi_read_binary( mbedtls_mpi *X, const unsigned char *buf, size_t buflen )
 722:C:/Users/Yushev/git/wpcqi-optiga-trust-charge/optiga/externals/mbedtls/library\bignum.c **** {
 2387              	 .loc 1 722 0
 2388              	 .cfi_startproc
 2389              	 
 2390              	 
 2391 0000 80B5     	 push {r7,lr}
 2392              	.LCFI105:
 2393              	 .cfi_def_cfa_offset 8
 2394              	 .cfi_offset 7,-8
 2395              	 .cfi_offset 14,-4
 2396 0002 88B0     	 sub sp,sp,#32
 2397              	.LCFI106:
 2398              	 .cfi_def_cfa_offset 40
 2399 0004 00AF     	 add r7,sp,#0
 2400              	.LCFI107:
 2401              	 .cfi_def_cfa_register 7
 2402 0006 F860     	 str r0,[r7,#12]
 2403 0008 B960     	 str r1,[r7,#8]
 2404 000a 7A60     	 str r2,[r7,#4]
 723:C:/Users/Yushev/git/wpcqi-optiga-trust-charge/optiga/externals/mbedtls/library\bignum.c ****     int ret;
 724:C:/Users/Yushev/git/wpcqi-optiga-trust-charge/optiga/externals/mbedtls/library\bignum.c ****     size_t i, j;
 725:C:/Users/Yushev/git/wpcqi-optiga-trust-charge/optiga/externals/mbedtls/library\bignum.c ****     size_t const limbs = CHARS_TO_LIMBS( buflen );
 2405              	 .loc 1 725 0
 2406 000c 7B68     	 ldr r3,[r7,#4]
 2407 000e 9B08     	 lsrs r3,r3,#2
 2408 0010 7A68     	 ldr r2,[r7,#4]
 2409 0012 02F00302 	 and r2,r2,#3
 2410 0016 002A     	 cmp r2,#0
 2411 0018 14BF     	 ite ne
 2412 001a 0122     	 movne r2,#1
 2413 001c 0022     	 moveq r2,#0
 2414 001e D2B2     	 uxtb r2,r2
 2415 0020 1344     	 add r3,r3,r2
 2416 0022 3B61     	 str r3,[r7,#16]
 726:C:/Users/Yushev/git/wpcqi-optiga-trust-charge/optiga/externals/mbedtls/library\bignum.c **** 
 727:C:/Users/Yushev/git/wpcqi-optiga-trust-charge/optiga/externals/mbedtls/library\bignum.c ****     MPI_VALIDATE_RET( X != NULL );
 728:C:/Users/Yushev/git/wpcqi-optiga-trust-charge/optiga/externals/mbedtls/library\bignum.c ****     MPI_VALIDATE_RET( buflen == 0 || buf != NULL );
 729:C:/Users/Yushev/git/wpcqi-optiga-trust-charge/optiga/externals/mbedtls/library\bignum.c **** 
 730:C:/Users/Yushev/git/wpcqi-optiga-trust-charge/optiga/externals/mbedtls/library\bignum.c ****     /* Ensure that target MPI has exactly the necessary number of limbs */
 731:C:/Users/Yushev/git/wpcqi-optiga-trust-charge/optiga/externals/mbedtls/library\bignum.c ****     if( X->n != limbs )
 2417              	 .loc 1 731 0
 2418 0024 FB68     	 ldr r3,[r7,#12]
 2419 0026 5A68     	 ldr r2,[r3,#4]
 2420 0028 3B69     	 ldr r3,[r7,#16]
 2421 002a 9A42     	 cmp r2,r3
 2422 002c 0ED0     	 beq .L153
 732:C:/Users/Yushev/git/wpcqi-optiga-trust-charge/optiga/externals/mbedtls/library\bignum.c ****     {
 733:C:/Users/Yushev/git/wpcqi-optiga-trust-charge/optiga/externals/mbedtls/library\bignum.c ****         mbedtls_mpi_free( X );
 2423              	 .loc 1 733 0
 2424 002e F868     	 ldr r0,[r7,#12]
 2425 0030 FFF7FEFF 	 bl mbedtls_mpi_free
 734:C:/Users/Yushev/git/wpcqi-optiga-trust-charge/optiga/externals/mbedtls/library\bignum.c ****         mbedtls_mpi_init( X );
 2426              	 .loc 1 734 0
 2427 0034 F868     	 ldr r0,[r7,#12]
 2428 0036 FFF7FEFF 	 bl mbedtls_mpi_init
 735:C:/Users/Yushev/git/wpcqi-optiga-trust-charge/optiga/externals/mbedtls/library\bignum.c ****         MBEDTLS_MPI_CHK( mbedtls_mpi_grow( X, limbs ) );
 2429              	 .loc 1 735 0
 2430 003a F868     	 ldr r0,[r7,#12]
 2431 003c 3969     	 ldr r1,[r7,#16]
 2432 003e FFF7FEFF 	 bl mbedtls_mpi_grow
 2433 0042 F861     	 str r0,[r7,#28]
 2434 0044 FB69     	 ldr r3,[r7,#28]
 2435 0046 002B     	 cmp r3,#0
 2436 0048 00D0     	 beq .L153
 2437 004a 2FE0     	 b .L154
 2438              	.L153:
 736:C:/Users/Yushev/git/wpcqi-optiga-trust-charge/optiga/externals/mbedtls/library\bignum.c ****     }
 737:C:/Users/Yushev/git/wpcqi-optiga-trust-charge/optiga/externals/mbedtls/library\bignum.c **** 
 738:C:/Users/Yushev/git/wpcqi-optiga-trust-charge/optiga/externals/mbedtls/library\bignum.c ****     MBEDTLS_MPI_CHK( mbedtls_mpi_lset( X, 0 ) );
 2439              	 .loc 1 738 0
 2440 004c F868     	 ldr r0,[r7,#12]
 2441 004e 0021     	 movs r1,#0
 2442 0050 FFF7FEFF 	 bl mbedtls_mpi_lset
 2443 0054 F861     	 str r0,[r7,#28]
 2444 0056 FB69     	 ldr r3,[r7,#28]
 2445 0058 002B     	 cmp r3,#0
 2446 005a 00D0     	 beq .L155
 2447 005c 26E0     	 b .L154
 2448              	.L155:
 739:C:/Users/Yushev/git/wpcqi-optiga-trust-charge/optiga/externals/mbedtls/library\bignum.c **** 
 740:C:/Users/Yushev/git/wpcqi-optiga-trust-charge/optiga/externals/mbedtls/library\bignum.c ****     for( i = buflen, j = 0; i > 0; i--, j++ )
 2449              	 .loc 1 740 0
 2450 005e 7B68     	 ldr r3,[r7,#4]
 2451 0060 BB61     	 str r3,[r7,#24]
 2452 0062 0023     	 movs r3,#0
 2453 0064 7B61     	 str r3,[r7,#20]
 2454 0066 1EE0     	 b .L156
 2455              	.L157:
 741:C:/Users/Yushev/git/wpcqi-optiga-trust-charge/optiga/externals/mbedtls/library\bignum.c ****         X->p[j / ciL] |= ((mbedtls_mpi_uint) buf[i - 1]) << ((j % ciL) << 3);
 2456              	 .loc 1 741 0 discriminator 3
 2457 0068 FB68     	 ldr r3,[r7,#12]
 2458 006a 9968     	 ldr r1,[r3,#8]
 2459 006c 7B69     	 ldr r3,[r7,#20]
 2460 006e 9B08     	 lsrs r3,r3,#2
 2461 0070 9A00     	 lsls r2,r3,#2
 2462 0072 0A44     	 add r2,r2,r1
 2463 0074 F968     	 ldr r1,[r7,#12]
 2464 0076 8968     	 ldr r1,[r1,#8]
 2465 0078 9B00     	 lsls r3,r3,#2
 2466 007a 0B44     	 add r3,r3,r1
 2467 007c 1968     	 ldr r1,[r3]
 2468 007e BB69     	 ldr r3,[r7,#24]
 2469 0080 013B     	 subs r3,r3,#1
 2470 0082 B868     	 ldr r0,[r7,#8]
 2471 0084 0344     	 add r3,r3,r0
 2472 0086 1B78     	 ldrb r3,[r3]
 2473 0088 1846     	 mov r0,r3
 2474 008a 7B69     	 ldr r3,[r7,#20]
 2475 008c 03F00303 	 and r3,r3,#3
 2476 0090 DB00     	 lsls r3,r3,#3
 2477 0092 00FA03F3 	 lsl r3,r0,r3
 2478 0096 0B43     	 orrs r3,r3,r1
 2479 0098 1360     	 str r3,[r2]
 740:C:/Users/Yushev/git/wpcqi-optiga-trust-charge/optiga/externals/mbedtls/library\bignum.c ****         X->p[j / ciL] |= ((mbedtls_mpi_uint) buf[i - 1]) << ((j % ciL) << 3);
 2480              	 .loc 1 740 0 discriminator 3
 2481 009a BB69     	 ldr r3,[r7,#24]
 2482 009c 013B     	 subs r3,r3,#1
 2483 009e BB61     	 str r3,[r7,#24]
 2484 00a0 7B69     	 ldr r3,[r7,#20]
 2485 00a2 0133     	 adds r3,r3,#1
 2486 00a4 7B61     	 str r3,[r7,#20]
 2487              	.L156:
 740:C:/Users/Yushev/git/wpcqi-optiga-trust-charge/optiga/externals/mbedtls/library\bignum.c ****         X->p[j / ciL] |= ((mbedtls_mpi_uint) buf[i - 1]) << ((j % ciL) << 3);
 2488              	 .loc 1 740 0 is_stmt 0 discriminator 1
 2489 00a6 BB69     	 ldr r3,[r7,#24]
 2490 00a8 002B     	 cmp r3,#0
 2491 00aa DDD1     	 bne .L157
 2492              	.L154:
 742:C:/Users/Yushev/git/wpcqi-optiga-trust-charge/optiga/externals/mbedtls/library\bignum.c **** 
 743:C:/Users/Yushev/git/wpcqi-optiga-trust-charge/optiga/externals/mbedtls/library\bignum.c **** cleanup:
 744:C:/Users/Yushev/git/wpcqi-optiga-trust-charge/optiga/externals/mbedtls/library\bignum.c **** 
 745:C:/Users/Yushev/git/wpcqi-optiga-trust-charge/optiga/externals/mbedtls/library\bignum.c ****     return( ret );
 2493              	 .loc 1 745 0 is_stmt 1
 2494 00ac FB69     	 ldr r3,[r7,#28]
 746:C:/Users/Yushev/git/wpcqi-optiga-trust-charge/optiga/externals/mbedtls/library\bignum.c **** }
 2495              	 .loc 1 746 0
 2496 00ae 1846     	 mov r0,r3
 2497 00b0 2037     	 adds r7,r7,#32
 2498              	.LCFI108:
 2499              	 .cfi_def_cfa_offset 8
 2500 00b2 BD46     	 mov sp,r7
 2501              	.LCFI109:
 2502              	 .cfi_def_cfa_register 13
 2503              	 
 2504 00b4 80BD     	 pop {r7,pc}
 2505              	 .cfi_endproc
 2506              	.LFE20:
 2508 00b6 00BF     	 .section .text.mbedtls_mpi_write_binary,"ax",%progbits
 2509              	 .align 2
 2510              	 .global mbedtls_mpi_write_binary
 2511              	 .thumb
 2512              	 .thumb_func
 2514              	mbedtls_mpi_write_binary:
 2515              	.LFB21:
 747:C:/Users/Yushev/git/wpcqi-optiga-trust-charge/optiga/externals/mbedtls/library\bignum.c **** 
 748:C:/Users/Yushev/git/wpcqi-optiga-trust-charge/optiga/externals/mbedtls/library\bignum.c **** /*
 749:C:/Users/Yushev/git/wpcqi-optiga-trust-charge/optiga/externals/mbedtls/library\bignum.c ****  * Export X into unsigned binary data, big endian
 750:C:/Users/Yushev/git/wpcqi-optiga-trust-charge/optiga/externals/mbedtls/library\bignum.c ****  */
 751:C:/Users/Yushev/git/wpcqi-optiga-trust-charge/optiga/externals/mbedtls/library\bignum.c **** int mbedtls_mpi_write_binary( const mbedtls_mpi *X,
 752:C:/Users/Yushev/git/wpcqi-optiga-trust-charge/optiga/externals/mbedtls/library\bignum.c ****                               unsigned char *buf, size_t buflen )
 753:C:/Users/Yushev/git/wpcqi-optiga-trust-charge/optiga/externals/mbedtls/library\bignum.c **** {
 2516              	 .loc 1 753 0
 2517              	 .cfi_startproc
 2518              	 
 2519              	 
 2520 0000 80B5     	 push {r7,lr}
 2521              	.LCFI110:
 2522              	 .cfi_def_cfa_offset 8
 2523              	 .cfi_offset 7,-8
 2524              	 .cfi_offset 14,-4
 2525 0002 88B0     	 sub sp,sp,#32
 2526              	.LCFI111:
 2527              	 .cfi_def_cfa_offset 40
 2528 0004 00AF     	 add r7,sp,#0
 2529              	.LCFI112:
 2530              	 .cfi_def_cfa_register 7
 2531 0006 F860     	 str r0,[r7,#12]
 2532 0008 B960     	 str r1,[r7,#8]
 2533 000a 7A60     	 str r2,[r7,#4]
 754:C:/Users/Yushev/git/wpcqi-optiga-trust-charge/optiga/externals/mbedtls/library\bignum.c ****     size_t stored_bytes;
 755:C:/Users/Yushev/git/wpcqi-optiga-trust-charge/optiga/externals/mbedtls/library\bignum.c ****     size_t bytes_to_copy;
 756:C:/Users/Yushev/git/wpcqi-optiga-trust-charge/optiga/externals/mbedtls/library\bignum.c ****     unsigned char *p;
 757:C:/Users/Yushev/git/wpcqi-optiga-trust-charge/optiga/externals/mbedtls/library\bignum.c ****     size_t i;
 758:C:/Users/Yushev/git/wpcqi-optiga-trust-charge/optiga/externals/mbedtls/library\bignum.c **** 
 759:C:/Users/Yushev/git/wpcqi-optiga-trust-charge/optiga/externals/mbedtls/library\bignum.c ****     MPI_VALIDATE_RET( X != NULL );
 760:C:/Users/Yushev/git/wpcqi-optiga-trust-charge/optiga/externals/mbedtls/library\bignum.c ****     MPI_VALIDATE_RET( buflen == 0 || buf != NULL );
 761:C:/Users/Yushev/git/wpcqi-optiga-trust-charge/optiga/externals/mbedtls/library\bignum.c **** 
 762:C:/Users/Yushev/git/wpcqi-optiga-trust-charge/optiga/externals/mbedtls/library\bignum.c ****     stored_bytes = X->n * ciL;
 2534              	 .loc 1 762 0
 2535 000c FB68     	 ldr r3,[r7,#12]
 2536 000e 5B68     	 ldr r3,[r3,#4]
 2537 0010 9B00     	 lsls r3,r3,#2
 2538 0012 3B61     	 str r3,[r7,#16]
 763:C:/Users/Yushev/git/wpcqi-optiga-trust-charge/optiga/externals/mbedtls/library\bignum.c **** 
 764:C:/Users/Yushev/git/wpcqi-optiga-trust-charge/optiga/externals/mbedtls/library\bignum.c ****     if( stored_bytes < buflen )
 2539              	 .loc 1 764 0
 2540 0014 3A69     	 ldr r2,[r7,#16]
 2541 0016 7B68     	 ldr r3,[r7,#4]
 2542 0018 9A42     	 cmp r2,r3
 2543 001a 10D2     	 bcs .L160
 765:C:/Users/Yushev/git/wpcqi-optiga-trust-charge/optiga/externals/mbedtls/library\bignum.c ****     {
 766:C:/Users/Yushev/git/wpcqi-optiga-trust-charge/optiga/externals/mbedtls/library\bignum.c ****         /* There is enough space in the output buffer. Write initial
 767:C:/Users/Yushev/git/wpcqi-optiga-trust-charge/optiga/externals/mbedtls/library\bignum.c ****          * null bytes and record the position at which to start
 768:C:/Users/Yushev/git/wpcqi-optiga-trust-charge/optiga/externals/mbedtls/library\bignum.c ****          * writing the significant bytes. In this case, the execution
 769:C:/Users/Yushev/git/wpcqi-optiga-trust-charge/optiga/externals/mbedtls/library\bignum.c ****          * trace of this function does not depend on the value of the
 770:C:/Users/Yushev/git/wpcqi-optiga-trust-charge/optiga/externals/mbedtls/library\bignum.c ****          * number. */
 771:C:/Users/Yushev/git/wpcqi-optiga-trust-charge/optiga/externals/mbedtls/library\bignum.c ****         bytes_to_copy = stored_bytes;
 2544              	 .loc 1 771 0
 2545 001c 3B69     	 ldr r3,[r7,#16]
 2546 001e FB61     	 str r3,[r7,#28]
 772:C:/Users/Yushev/git/wpcqi-optiga-trust-charge/optiga/externals/mbedtls/library\bignum.c ****         p = buf + buflen - stored_bytes;
 2547              	 .loc 1 772 0
 2548 0020 7A68     	 ldr r2,[r7,#4]
 2549 0022 3B69     	 ldr r3,[r7,#16]
 2550 0024 D31A     	 subs r3,r2,r3
 2551 0026 BA68     	 ldr r2,[r7,#8]
 2552 0028 1344     	 add r3,r3,r2
 2553 002a BB61     	 str r3,[r7,#24]
 773:C:/Users/Yushev/git/wpcqi-optiga-trust-charge/optiga/externals/mbedtls/library\bignum.c ****         memset( buf, 0, buflen - stored_bytes );
 2554              	 .loc 1 773 0
 2555 002c 7A68     	 ldr r2,[r7,#4]
 2556 002e 3B69     	 ldr r3,[r7,#16]
 2557 0030 D31A     	 subs r3,r2,r3
 2558 0032 B868     	 ldr r0,[r7,#8]
 2559 0034 0021     	 movs r1,#0
 2560 0036 1A46     	 mov r2,r3
 2561 0038 FFF7FEFF 	 bl memset
 2562 003c 1FE0     	 b .L161
 2563              	.L160:
 774:C:/Users/Yushev/git/wpcqi-optiga-trust-charge/optiga/externals/mbedtls/library\bignum.c ****     }
 775:C:/Users/Yushev/git/wpcqi-optiga-trust-charge/optiga/externals/mbedtls/library\bignum.c ****     else
 776:C:/Users/Yushev/git/wpcqi-optiga-trust-charge/optiga/externals/mbedtls/library\bignum.c ****     {
 777:C:/Users/Yushev/git/wpcqi-optiga-trust-charge/optiga/externals/mbedtls/library\bignum.c ****         /* The output buffer is smaller than the allocated size of X.
 778:C:/Users/Yushev/git/wpcqi-optiga-trust-charge/optiga/externals/mbedtls/library\bignum.c ****          * However X may fit if its leading bytes are zero. */
 779:C:/Users/Yushev/git/wpcqi-optiga-trust-charge/optiga/externals/mbedtls/library\bignum.c ****         bytes_to_copy = buflen;
 2564              	 .loc 1 779 0
 2565 003e 7B68     	 ldr r3,[r7,#4]
 2566 0040 FB61     	 str r3,[r7,#28]
 780:C:/Users/Yushev/git/wpcqi-optiga-trust-charge/optiga/externals/mbedtls/library\bignum.c ****         p = buf;
 2567              	 .loc 1 780 0
 2568 0042 BB68     	 ldr r3,[r7,#8]
 2569 0044 BB61     	 str r3,[r7,#24]
 781:C:/Users/Yushev/git/wpcqi-optiga-trust-charge/optiga/externals/mbedtls/library\bignum.c ****         for( i = bytes_to_copy; i < stored_bytes; i++ )
 2570              	 .loc 1 781 0
 2571 0046 FB69     	 ldr r3,[r7,#28]
 2572 0048 7B61     	 str r3,[r7,#20]
 2573 004a 14E0     	 b .L162
 2574              	.L165:
 782:C:/Users/Yushev/git/wpcqi-optiga-trust-charge/optiga/externals/mbedtls/library\bignum.c ****         {
 783:C:/Users/Yushev/git/wpcqi-optiga-trust-charge/optiga/externals/mbedtls/library\bignum.c ****             if( GET_BYTE( X, i ) != 0 )
 2575              	 .loc 1 783 0
 2576 004c FB68     	 ldr r3,[r7,#12]
 2577 004e 9A68     	 ldr r2,[r3,#8]
 2578 0050 7B69     	 ldr r3,[r7,#20]
 2579 0052 9B08     	 lsrs r3,r3,#2
 2580 0054 9B00     	 lsls r3,r3,#2
 2581 0056 1344     	 add r3,r3,r2
 2582 0058 1B68     	 ldr r3,[r3]
 2583 005a 7A69     	 ldr r2,[r7,#20]
 2584 005c 02F00302 	 and r2,r2,#3
 2585 0060 D200     	 lsls r2,r2,#3
 2586 0062 D340     	 lsrs r3,r3,r2
 2587 0064 DBB2     	 uxtb r3,r3
 2588 0066 002B     	 cmp r3,#0
 2589 0068 02D0     	 beq .L163
 784:C:/Users/Yushev/git/wpcqi-optiga-trust-charge/optiga/externals/mbedtls/library\bignum.c ****                 return( MBEDTLS_ERR_MPI_BUFFER_TOO_SMALL );
 2590              	 .loc 1 784 0
 2591 006a 6FF00703 	 mvn r3,#7
 2592 006e 25E0     	 b .L164
 2593              	.L163:
 781:C:/Users/Yushev/git/wpcqi-optiga-trust-charge/optiga/externals/mbedtls/library\bignum.c ****         for( i = bytes_to_copy; i < stored_bytes; i++ )
 2594              	 .loc 1 781 0 discriminator 2
 2595 0070 7B69     	 ldr r3,[r7,#20]
 2596 0072 0133     	 adds r3,r3,#1
 2597 0074 7B61     	 str r3,[r7,#20]
 2598              	.L162:
 781:C:/Users/Yushev/git/wpcqi-optiga-trust-charge/optiga/externals/mbedtls/library\bignum.c ****         for( i = bytes_to_copy; i < stored_bytes; i++ )
 2599              	 .loc 1 781 0 is_stmt 0 discriminator 1
 2600 0076 7A69     	 ldr r2,[r7,#20]
 2601 0078 3B69     	 ldr r3,[r7,#16]
 2602 007a 9A42     	 cmp r2,r3
 2603 007c E6D3     	 bcc .L165
 2604              	.L161:
 785:C:/Users/Yushev/git/wpcqi-optiga-trust-charge/optiga/externals/mbedtls/library\bignum.c ****         }
 786:C:/Users/Yushev/git/wpcqi-optiga-trust-charge/optiga/externals/mbedtls/library\bignum.c ****     }
 787:C:/Users/Yushev/git/wpcqi-optiga-trust-charge/optiga/externals/mbedtls/library\bignum.c **** 
 788:C:/Users/Yushev/git/wpcqi-optiga-trust-charge/optiga/externals/mbedtls/library\bignum.c ****     for( i = 0; i < bytes_to_copy; i++ )
 2605              	 .loc 1 788 0 is_stmt 1
 2606 007e 0023     	 movs r3,#0
 2607 0080 7B61     	 str r3,[r7,#20]
 2608 0082 16E0     	 b .L166
 2609              	.L167:
 789:C:/Users/Yushev/git/wpcqi-optiga-trust-charge/optiga/externals/mbedtls/library\bignum.c ****         p[bytes_to_copy - i - 1] = GET_BYTE( X, i );
 2610              	 .loc 1 789 0 discriminator 3
 2611 0084 FA69     	 ldr r2,[r7,#28]
 2612 0086 7B69     	 ldr r3,[r7,#20]
 2613 0088 D31A     	 subs r3,r2,r3
 2614 008a 013B     	 subs r3,r3,#1
 2615 008c BA69     	 ldr r2,[r7,#24]
 2616 008e 1344     	 add r3,r3,r2
 2617 0090 FA68     	 ldr r2,[r7,#12]
 2618 0092 9168     	 ldr r1,[r2,#8]
 2619 0094 7A69     	 ldr r2,[r7,#20]
 2620 0096 9208     	 lsrs r2,r2,#2
 2621 0098 9200     	 lsls r2,r2,#2
 2622 009a 0A44     	 add r2,r2,r1
 2623 009c 1268     	 ldr r2,[r2]
 2624 009e 7969     	 ldr r1,[r7,#20]
 2625 00a0 01F00301 	 and r1,r1,#3
 2626 00a4 C900     	 lsls r1,r1,#3
 2627 00a6 CA40     	 lsrs r2,r2,r1
 2628 00a8 D2B2     	 uxtb r2,r2
 2629 00aa 1A70     	 strb r2,[r3]
 788:C:/Users/Yushev/git/wpcqi-optiga-trust-charge/optiga/externals/mbedtls/library\bignum.c ****         p[bytes_to_copy - i - 1] = GET_BYTE( X, i );
 2630              	 .loc 1 788 0 discriminator 3
 2631 00ac 7B69     	 ldr r3,[r7,#20]
 2632 00ae 0133     	 adds r3,r3,#1
 2633 00b0 7B61     	 str r3,[r7,#20]
 2634              	.L166:
 788:C:/Users/Yushev/git/wpcqi-optiga-trust-charge/optiga/externals/mbedtls/library\bignum.c ****         p[bytes_to_copy - i - 1] = GET_BYTE( X, i );
 2635              	 .loc 1 788 0 is_stmt 0 discriminator 1
 2636 00b2 7A69     	 ldr r2,[r7,#20]
 2637 00b4 FB69     	 ldr r3,[r7,#28]
 2638 00b6 9A42     	 cmp r2,r3
 2639 00b8 E4D3     	 bcc .L167
 790:C:/Users/Yushev/git/wpcqi-optiga-trust-charge/optiga/externals/mbedtls/library\bignum.c **** 
 791:C:/Users/Yushev/git/wpcqi-optiga-trust-charge/optiga/externals/mbedtls/library\bignum.c ****     return( 0 );
 2640              	 .loc 1 791 0 is_stmt 1
 2641 00ba 0023     	 movs r3,#0
 2642              	.L164:
 792:C:/Users/Yushev/git/wpcqi-optiga-trust-charge/optiga/externals/mbedtls/library\bignum.c **** }
 2643              	 .loc 1 792 0
 2644 00bc 1846     	 mov r0,r3
 2645 00be 2037     	 adds r7,r7,#32
 2646              	.LCFI113:
 2647              	 .cfi_def_cfa_offset 8
 2648 00c0 BD46     	 mov sp,r7
 2649              	.LCFI114:
 2650              	 .cfi_def_cfa_register 13
 2651              	 
 2652 00c2 80BD     	 pop {r7,pc}
 2653              	 .cfi_endproc
 2654              	.LFE21:
 2656              	 .section .text.mbedtls_mpi_shift_l,"ax",%progbits
 2657              	 .align 2
 2658              	 .global mbedtls_mpi_shift_l
 2659              	 .thumb
 2660              	 .thumb_func
 2662              	mbedtls_mpi_shift_l:
 2663              	.LFB22:
 793:C:/Users/Yushev/git/wpcqi-optiga-trust-charge/optiga/externals/mbedtls/library\bignum.c **** 
 794:C:/Users/Yushev/git/wpcqi-optiga-trust-charge/optiga/externals/mbedtls/library\bignum.c **** /*
 795:C:/Users/Yushev/git/wpcqi-optiga-trust-charge/optiga/externals/mbedtls/library\bignum.c ****  * Left-shift: X <<= count
 796:C:/Users/Yushev/git/wpcqi-optiga-trust-charge/optiga/externals/mbedtls/library\bignum.c ****  */
 797:C:/Users/Yushev/git/wpcqi-optiga-trust-charge/optiga/externals/mbedtls/library\bignum.c **** int mbedtls_mpi_shift_l( mbedtls_mpi *X, size_t count )
 798:C:/Users/Yushev/git/wpcqi-optiga-trust-charge/optiga/externals/mbedtls/library\bignum.c **** {
 2664              	 .loc 1 798 0
 2665              	 .cfi_startproc
 2666              	 
 2667              	 
 2668 0000 80B5     	 push {r7,lr}
 2669              	.LCFI115:
 2670              	 .cfi_def_cfa_offset 8
 2671              	 .cfi_offset 7,-8
 2672              	 .cfi_offset 14,-4
 2673 0002 88B0     	 sub sp,sp,#32
 2674              	.LCFI116:
 2675              	 .cfi_def_cfa_offset 40
 2676 0004 00AF     	 add r7,sp,#0
 2677              	.LCFI117:
 2678              	 .cfi_def_cfa_register 7
 2679 0006 7860     	 str r0,[r7,#4]
 2680 0008 3960     	 str r1,[r7]
 799:C:/Users/Yushev/git/wpcqi-optiga-trust-charge/optiga/externals/mbedtls/library\bignum.c ****     int ret;
 800:C:/Users/Yushev/git/wpcqi-optiga-trust-charge/optiga/externals/mbedtls/library\bignum.c ****     size_t i, v0, t1;
 801:C:/Users/Yushev/git/wpcqi-optiga-trust-charge/optiga/externals/mbedtls/library\bignum.c ****     mbedtls_mpi_uint r0 = 0, r1;
 2681              	 .loc 1 801 0
 2682 000a 0023     	 movs r3,#0
 2683 000c 7B61     	 str r3,[r7,#20]
 802:C:/Users/Yushev/git/wpcqi-optiga-trust-charge/optiga/externals/mbedtls/library\bignum.c ****     MPI_VALIDATE_RET( X != NULL );
 803:C:/Users/Yushev/git/wpcqi-optiga-trust-charge/optiga/externals/mbedtls/library\bignum.c **** 
 804:C:/Users/Yushev/git/wpcqi-optiga-trust-charge/optiga/externals/mbedtls/library\bignum.c ****     v0 = count / (biL    );
 2684              	 .loc 1 804 0
 2685 000e 3B68     	 ldr r3,[r7]
 2686 0010 5B09     	 lsrs r3,r3,#5
 2687 0012 3B61     	 str r3,[r7,#16]
 805:C:/Users/Yushev/git/wpcqi-optiga-trust-charge/optiga/externals/mbedtls/library\bignum.c ****     t1 = count & (biL - 1);
 2688              	 .loc 1 805 0
 2689 0014 3B68     	 ldr r3,[r7]
 2690 0016 03F01F03 	 and r3,r3,#31
 2691 001a FB60     	 str r3,[r7,#12]
 806:C:/Users/Yushev/git/wpcqi-optiga-trust-charge/optiga/externals/mbedtls/library\bignum.c **** 
 807:C:/Users/Yushev/git/wpcqi-optiga-trust-charge/optiga/externals/mbedtls/library\bignum.c ****     i = mbedtls_mpi_bitlen( X ) + count;
 2692              	 .loc 1 807 0
 2693 001c 7868     	 ldr r0,[r7,#4]
 2694 001e FFF7FEFF 	 bl mbedtls_mpi_bitlen
 2695 0022 0246     	 mov r2,r0
 2696 0024 3B68     	 ldr r3,[r7]
 2697 0026 1344     	 add r3,r3,r2
 2698 0028 BB61     	 str r3,[r7,#24]
 808:C:/Users/Yushev/git/wpcqi-optiga-trust-charge/optiga/externals/mbedtls/library\bignum.c **** 
 809:C:/Users/Yushev/git/wpcqi-optiga-trust-charge/optiga/externals/mbedtls/library\bignum.c ****     if( X->n * biL < i )
 2699              	 .loc 1 809 0
 2700 002a 7B68     	 ldr r3,[r7,#4]
 2701 002c 5B68     	 ldr r3,[r3,#4]
 2702 002e 5A01     	 lsls r2,r3,#5
 2703 0030 BB69     	 ldr r3,[r7,#24]
 2704 0032 9A42     	 cmp r2,r3
 2705 0034 13D2     	 bcs .L169
 810:C:/Users/Yushev/git/wpcqi-optiga-trust-charge/optiga/externals/mbedtls/library\bignum.c ****         MBEDTLS_MPI_CHK( mbedtls_mpi_grow( X, BITS_TO_LIMBS( i ) ) );
 2706              	 .loc 1 810 0
 2707 0036 BB69     	 ldr r3,[r7,#24]
 2708 0038 5B09     	 lsrs r3,r3,#5
 2709 003a BA69     	 ldr r2,[r7,#24]
 2710 003c 02F01F02 	 and r2,r2,#31
 2711 0040 002A     	 cmp r2,#0
 2712 0042 14BF     	 ite ne
 2713 0044 0122     	 movne r2,#1
 2714 0046 0022     	 moveq r2,#0
 2715 0048 D2B2     	 uxtb r2,r2
 2716 004a 1344     	 add r3,r3,r2
 2717 004c 7868     	 ldr r0,[r7,#4]
 2718 004e 1946     	 mov r1,r3
 2719 0050 FFF7FEFF 	 bl mbedtls_mpi_grow
 2720 0054 F861     	 str r0,[r7,#28]
 2721 0056 FB69     	 ldr r3,[r7,#28]
 2722 0058 002B     	 cmp r3,#0
 2723 005a 00D0     	 beq .L169
 2724 005c 6CE0     	 b .L170
 2725              	.L169:
 811:C:/Users/Yushev/git/wpcqi-optiga-trust-charge/optiga/externals/mbedtls/library\bignum.c **** 
 812:C:/Users/Yushev/git/wpcqi-optiga-trust-charge/optiga/externals/mbedtls/library\bignum.c ****     ret = 0;
 2726              	 .loc 1 812 0
 2727 005e 0023     	 movs r3,#0
 2728 0060 FB61     	 str r3,[r7,#28]
 813:C:/Users/Yushev/git/wpcqi-optiga-trust-charge/optiga/externals/mbedtls/library\bignum.c **** 
 814:C:/Users/Yushev/git/wpcqi-optiga-trust-charge/optiga/externals/mbedtls/library\bignum.c ****     /*
 815:C:/Users/Yushev/git/wpcqi-optiga-trust-charge/optiga/externals/mbedtls/library\bignum.c ****      * shift by count / limb_size
 816:C:/Users/Yushev/git/wpcqi-optiga-trust-charge/optiga/externals/mbedtls/library\bignum.c ****      */
 817:C:/Users/Yushev/git/wpcqi-optiga-trust-charge/optiga/externals/mbedtls/library\bignum.c ****     if( v0 > 0 )
 2729              	 .loc 1 817 0
 2730 0062 3B69     	 ldr r3,[r7,#16]
 2731 0064 002B     	 cmp r3,#0
 2732 0066 2FD0     	 beq .L171
 818:C:/Users/Yushev/git/wpcqi-optiga-trust-charge/optiga/externals/mbedtls/library\bignum.c ****     {
 819:C:/Users/Yushev/git/wpcqi-optiga-trust-charge/optiga/externals/mbedtls/library\bignum.c ****         for( i = X->n; i > v0; i-- )
 2733              	 .loc 1 819 0
 2734 0068 7B68     	 ldr r3,[r7,#4]
 2735 006a 5B68     	 ldr r3,[r3,#4]
 2736 006c BB61     	 str r3,[r7,#24]
 2737 006e 16E0     	 b .L172
 2738              	.L173:
 820:C:/Users/Yushev/git/wpcqi-optiga-trust-charge/optiga/externals/mbedtls/library\bignum.c ****             X->p[i - 1] = X->p[i - v0 - 1];
 2739              	 .loc 1 820 0 discriminator 3
 2740 0070 7B68     	 ldr r3,[r7,#4]
 2741 0072 9A68     	 ldr r2,[r3,#8]
 2742 0074 BB69     	 ldr r3,[r7,#24]
 2743 0076 03F18043 	 add r3,r3,#1073741824
 2744 007a 013B     	 subs r3,r3,#1
 2745 007c 9B00     	 lsls r3,r3,#2
 2746 007e 1A44     	 add r2,r2,r3
 2747 0080 7B68     	 ldr r3,[r7,#4]
 2748 0082 9968     	 ldr r1,[r3,#8]
 2749 0084 B869     	 ldr r0,[r7,#24]
 2750 0086 3B69     	 ldr r3,[r7,#16]
 2751 0088 C31A     	 subs r3,r0,r3
 2752 008a 03F18043 	 add r3,r3,#1073741824
 2753 008e 013B     	 subs r3,r3,#1
 2754 0090 9B00     	 lsls r3,r3,#2
 2755 0092 0B44     	 add r3,r3,r1
 2756 0094 1B68     	 ldr r3,[r3]
 2757 0096 1360     	 str r3,[r2]
 819:C:/Users/Yushev/git/wpcqi-optiga-trust-charge/optiga/externals/mbedtls/library\bignum.c ****             X->p[i - 1] = X->p[i - v0 - 1];
 2758              	 .loc 1 819 0 discriminator 3
 2759 0098 BB69     	 ldr r3,[r7,#24]
 2760 009a 013B     	 subs r3,r3,#1
 2761 009c BB61     	 str r3,[r7,#24]
 2762              	.L172:
 819:C:/Users/Yushev/git/wpcqi-optiga-trust-charge/optiga/externals/mbedtls/library\bignum.c ****             X->p[i - 1] = X->p[i - v0 - 1];
 2763              	 .loc 1 819 0 is_stmt 0 discriminator 1
 2764 009e BA69     	 ldr r2,[r7,#24]
 2765 00a0 3B69     	 ldr r3,[r7,#16]
 2766 00a2 9A42     	 cmp r2,r3
 2767 00a4 E4D8     	 bhi .L173
 821:C:/Users/Yushev/git/wpcqi-optiga-trust-charge/optiga/externals/mbedtls/library\bignum.c **** 
 822:C:/Users/Yushev/git/wpcqi-optiga-trust-charge/optiga/externals/mbedtls/library\bignum.c ****         for( ; i > 0; i-- )
 2768              	 .loc 1 822 0 is_stmt 1
 2769 00a6 0CE0     	 b .L174
 2770              	.L175:
 823:C:/Users/Yushev/git/wpcqi-optiga-trust-charge/optiga/externals/mbedtls/library\bignum.c ****             X->p[i - 1] = 0;
 2771              	 .loc 1 823 0 discriminator 2
 2772 00a8 7B68     	 ldr r3,[r7,#4]
 2773 00aa 9A68     	 ldr r2,[r3,#8]
 2774 00ac BB69     	 ldr r3,[r7,#24]
 2775 00ae 03F18043 	 add r3,r3,#1073741824
 2776 00b2 013B     	 subs r3,r3,#1
 2777 00b4 9B00     	 lsls r3,r3,#2
 2778 00b6 1344     	 add r3,r3,r2
 2779 00b8 0022     	 movs r2,#0
 2780 00ba 1A60     	 str r2,[r3]
 822:C:/Users/Yushev/git/wpcqi-optiga-trust-charge/optiga/externals/mbedtls/library\bignum.c ****             X->p[i - 1] = 0;
 2781              	 .loc 1 822 0 discriminator 2
 2782 00bc BB69     	 ldr r3,[r7,#24]
 2783 00be 013B     	 subs r3,r3,#1
 2784 00c0 BB61     	 str r3,[r7,#24]
 2785              	.L174:
 822:C:/Users/Yushev/git/wpcqi-optiga-trust-charge/optiga/externals/mbedtls/library\bignum.c ****             X->p[i - 1] = 0;
 2786              	 .loc 1 822 0 is_stmt 0 discriminator 1
 2787 00c2 BB69     	 ldr r3,[r7,#24]
 2788 00c4 002B     	 cmp r3,#0
 2789 00c6 EFD1     	 bne .L175
 2790              	.L171:
 824:C:/Users/Yushev/git/wpcqi-optiga-trust-charge/optiga/externals/mbedtls/library\bignum.c ****     }
 825:C:/Users/Yushev/git/wpcqi-optiga-trust-charge/optiga/externals/mbedtls/library\bignum.c **** 
 826:C:/Users/Yushev/git/wpcqi-optiga-trust-charge/optiga/externals/mbedtls/library\bignum.c ****     /*
 827:C:/Users/Yushev/git/wpcqi-optiga-trust-charge/optiga/externals/mbedtls/library\bignum.c ****      * shift by count % limb_size
 828:C:/Users/Yushev/git/wpcqi-optiga-trust-charge/optiga/externals/mbedtls/library\bignum.c ****      */
 829:C:/Users/Yushev/git/wpcqi-optiga-trust-charge/optiga/externals/mbedtls/library\bignum.c ****     if( t1 > 0 )
 2791              	 .loc 1 829 0 is_stmt 1
 2792 00c8 FB68     	 ldr r3,[r7,#12]
 2793 00ca 002B     	 cmp r3,#0
 2794 00cc 34D0     	 beq .L170
 830:C:/Users/Yushev/git/wpcqi-optiga-trust-charge/optiga/externals/mbedtls/library\bignum.c ****     {
 831:C:/Users/Yushev/git/wpcqi-optiga-trust-charge/optiga/externals/mbedtls/library\bignum.c ****         for( i = v0; i < X->n; i++ )
 2795              	 .loc 1 831 0
 2796 00ce 3B69     	 ldr r3,[r7,#16]
 2797 00d0 BB61     	 str r3,[r7,#24]
 2798 00d2 2CE0     	 b .L176
 2799              	.L177:
 832:C:/Users/Yushev/git/wpcqi-optiga-trust-charge/optiga/externals/mbedtls/library\bignum.c ****         {
 833:C:/Users/Yushev/git/wpcqi-optiga-trust-charge/optiga/externals/mbedtls/library\bignum.c ****             r1 = X->p[i] >> (biL - t1);
 2800              	 .loc 1 833 0 discriminator 3
 2801 00d4 7B68     	 ldr r3,[r7,#4]
 2802 00d6 9A68     	 ldr r2,[r3,#8]
 2803 00d8 BB69     	 ldr r3,[r7,#24]
 2804 00da 9B00     	 lsls r3,r3,#2
 2805 00dc 1344     	 add r3,r3,r2
 2806 00de 1B68     	 ldr r3,[r3]
 2807 00e0 FA68     	 ldr r2,[r7,#12]
 2808 00e2 C2F12002 	 rsb r2,r2,#32
 2809 00e6 D340     	 lsrs r3,r3,r2
 2810 00e8 BB60     	 str r3,[r7,#8]
 834:C:/Users/Yushev/git/wpcqi-optiga-trust-charge/optiga/externals/mbedtls/library\bignum.c ****             X->p[i] <<= t1;
 2811              	 .loc 1 834 0 discriminator 3
 2812 00ea 7B68     	 ldr r3,[r7,#4]
 2813 00ec 9A68     	 ldr r2,[r3,#8]
 2814 00ee BB69     	 ldr r3,[r7,#24]
 2815 00f0 9B00     	 lsls r3,r3,#2
 2816 00f2 1344     	 add r3,r3,r2
 2817 00f4 7A68     	 ldr r2,[r7,#4]
 2818 00f6 9168     	 ldr r1,[r2,#8]
 2819 00f8 BA69     	 ldr r2,[r7,#24]
 2820 00fa 9200     	 lsls r2,r2,#2
 2821 00fc 0A44     	 add r2,r2,r1
 2822 00fe 1168     	 ldr r1,[r2]
 2823 0100 FA68     	 ldr r2,[r7,#12]
 2824 0102 01FA02F2 	 lsl r2,r1,r2
 2825 0106 1A60     	 str r2,[r3]
 835:C:/Users/Yushev/git/wpcqi-optiga-trust-charge/optiga/externals/mbedtls/library\bignum.c ****             X->p[i] |= r0;
 2826              	 .loc 1 835 0 discriminator 3
 2827 0108 7B68     	 ldr r3,[r7,#4]
 2828 010a 9A68     	 ldr r2,[r3,#8]
 2829 010c BB69     	 ldr r3,[r7,#24]
 2830 010e 9B00     	 lsls r3,r3,#2
 2831 0110 1344     	 add r3,r3,r2
 2832 0112 7A68     	 ldr r2,[r7,#4]
 2833 0114 9168     	 ldr r1,[r2,#8]
 2834 0116 BA69     	 ldr r2,[r7,#24]
 2835 0118 9200     	 lsls r2,r2,#2
 2836 011a 0A44     	 add r2,r2,r1
 2837 011c 1168     	 ldr r1,[r2]
 2838 011e 7A69     	 ldr r2,[r7,#20]
 2839 0120 0A43     	 orrs r2,r2,r1
 2840 0122 1A60     	 str r2,[r3]
 836:C:/Users/Yushev/git/wpcqi-optiga-trust-charge/optiga/externals/mbedtls/library\bignum.c ****             r0 = r1;
 2841              	 .loc 1 836 0 discriminator 3
 2842 0124 BB68     	 ldr r3,[r7,#8]
 2843 0126 7B61     	 str r3,[r7,#20]
 831:C:/Users/Yushev/git/wpcqi-optiga-trust-charge/optiga/externals/mbedtls/library\bignum.c ****         {
 2844              	 .loc 1 831 0 discriminator 3
 2845 0128 BB69     	 ldr r3,[r7,#24]
 2846 012a 0133     	 adds r3,r3,#1
 2847 012c BB61     	 str r3,[r7,#24]
 2848              	.L176:
 831:C:/Users/Yushev/git/wpcqi-optiga-trust-charge/optiga/externals/mbedtls/library\bignum.c ****         {
 2849              	 .loc 1 831 0 is_stmt 0 discriminator 1
 2850 012e 7B68     	 ldr r3,[r7,#4]
 2851 0130 5A68     	 ldr r2,[r3,#4]
 2852 0132 BB69     	 ldr r3,[r7,#24]
 2853 0134 9A42     	 cmp r2,r3
 2854 0136 CDD8     	 bhi .L177
 2855              	.L170:
 837:C:/Users/Yushev/git/wpcqi-optiga-trust-charge/optiga/externals/mbedtls/library\bignum.c ****         }
 838:C:/Users/Yushev/git/wpcqi-optiga-trust-charge/optiga/externals/mbedtls/library\bignum.c ****     }
 839:C:/Users/Yushev/git/wpcqi-optiga-trust-charge/optiga/externals/mbedtls/library\bignum.c **** 
 840:C:/Users/Yushev/git/wpcqi-optiga-trust-charge/optiga/externals/mbedtls/library\bignum.c **** cleanup:
 841:C:/Users/Yushev/git/wpcqi-optiga-trust-charge/optiga/externals/mbedtls/library\bignum.c **** 
 842:C:/Users/Yushev/git/wpcqi-optiga-trust-charge/optiga/externals/mbedtls/library\bignum.c ****     return( ret );
 2856              	 .loc 1 842 0 is_stmt 1
 2857 0138 FB69     	 ldr r3,[r7,#28]
 843:C:/Users/Yushev/git/wpcqi-optiga-trust-charge/optiga/externals/mbedtls/library\bignum.c **** }
 2858              	 .loc 1 843 0
 2859 013a 1846     	 mov r0,r3
 2860 013c 2037     	 adds r7,r7,#32
 2861              	.LCFI118:
 2862              	 .cfi_def_cfa_offset 8
 2863 013e BD46     	 mov sp,r7
 2864              	.LCFI119:
 2865              	 .cfi_def_cfa_register 13
 2866              	 
 2867 0140 80BD     	 pop {r7,pc}
 2868              	 .cfi_endproc
 2869              	.LFE22:
 2871 0142 00BF     	 .section .text.mbedtls_mpi_shift_r,"ax",%progbits
 2872              	 .align 2
 2873              	 .global mbedtls_mpi_shift_r
 2874              	 .thumb
 2875              	 .thumb_func
 2877              	mbedtls_mpi_shift_r:
 2878              	.LFB23:
 844:C:/Users/Yushev/git/wpcqi-optiga-trust-charge/optiga/externals/mbedtls/library\bignum.c **** 
 845:C:/Users/Yushev/git/wpcqi-optiga-trust-charge/optiga/externals/mbedtls/library\bignum.c **** /*
 846:C:/Users/Yushev/git/wpcqi-optiga-trust-charge/optiga/externals/mbedtls/library\bignum.c ****  * Right-shift: X >>= count
 847:C:/Users/Yushev/git/wpcqi-optiga-trust-charge/optiga/externals/mbedtls/library\bignum.c ****  */
 848:C:/Users/Yushev/git/wpcqi-optiga-trust-charge/optiga/externals/mbedtls/library\bignum.c **** int mbedtls_mpi_shift_r( mbedtls_mpi *X, size_t count )
 849:C:/Users/Yushev/git/wpcqi-optiga-trust-charge/optiga/externals/mbedtls/library\bignum.c **** {
 2879              	 .loc 1 849 0
 2880              	 .cfi_startproc
 2881              	 
 2882              	 
 2883 0000 80B5     	 push {r7,lr}
 2884              	.LCFI120:
 2885              	 .cfi_def_cfa_offset 8
 2886              	 .cfi_offset 7,-8
 2887              	 .cfi_offset 14,-4
 2888 0002 88B0     	 sub sp,sp,#32
 2889              	.LCFI121:
 2890              	 .cfi_def_cfa_offset 40
 2891 0004 00AF     	 add r7,sp,#0
 2892              	.LCFI122:
 2893              	 .cfi_def_cfa_register 7
 2894 0006 7860     	 str r0,[r7,#4]
 2895 0008 3960     	 str r1,[r7]
 850:C:/Users/Yushev/git/wpcqi-optiga-trust-charge/optiga/externals/mbedtls/library\bignum.c ****     size_t i, v0, v1;
 851:C:/Users/Yushev/git/wpcqi-optiga-trust-charge/optiga/externals/mbedtls/library\bignum.c ****     mbedtls_mpi_uint r0 = 0, r1;
 2896              	 .loc 1 851 0
 2897 000a 0023     	 movs r3,#0
 2898 000c BB61     	 str r3,[r7,#24]
 852:C:/Users/Yushev/git/wpcqi-optiga-trust-charge/optiga/externals/mbedtls/library\bignum.c ****     MPI_VALIDATE_RET( X != NULL );
 853:C:/Users/Yushev/git/wpcqi-optiga-trust-charge/optiga/externals/mbedtls/library\bignum.c **** 
 854:C:/Users/Yushev/git/wpcqi-optiga-trust-charge/optiga/externals/mbedtls/library\bignum.c ****     v0 = count /  biL;
 2899              	 .loc 1 854 0
 2900 000e 3B68     	 ldr r3,[r7]
 2901 0010 5B09     	 lsrs r3,r3,#5
 2902 0012 7B61     	 str r3,[r7,#20]
 855:C:/Users/Yushev/git/wpcqi-optiga-trust-charge/optiga/externals/mbedtls/library\bignum.c ****     v1 = count & (biL - 1);
 2903              	 .loc 1 855 0
 2904 0014 3B68     	 ldr r3,[r7]
 2905 0016 03F01F03 	 and r3,r3,#31
 2906 001a 3B61     	 str r3,[r7,#16]
 856:C:/Users/Yushev/git/wpcqi-optiga-trust-charge/optiga/externals/mbedtls/library\bignum.c **** 
 857:C:/Users/Yushev/git/wpcqi-optiga-trust-charge/optiga/externals/mbedtls/library\bignum.c ****     if( v0 > X->n || ( v0 == X->n && v1 > 0 ) )
 2907              	 .loc 1 857 0
 2908 001c 7B68     	 ldr r3,[r7,#4]
 2909 001e 5A68     	 ldr r2,[r3,#4]
 2910 0020 7B69     	 ldr r3,[r7,#20]
 2911 0022 9A42     	 cmp r2,r3
 2912 0024 07D3     	 bcc .L180
 2913              	 .loc 1 857 0 is_stmt 0 discriminator 1
 2914 0026 7B68     	 ldr r3,[r7,#4]
 2915 0028 5A68     	 ldr r2,[r3,#4]
 2916 002a 7B69     	 ldr r3,[r7,#20]
 2917 002c 9A42     	 cmp r2,r3
 2918 002e 08D1     	 bne .L181
 2919              	 .loc 1 857 0 discriminator 2
 2920 0030 3B69     	 ldr r3,[r7,#16]
 2921 0032 002B     	 cmp r3,#0
 2922 0034 05D0     	 beq .L181
 2923              	.L180:
 858:C:/Users/Yushev/git/wpcqi-optiga-trust-charge/optiga/externals/mbedtls/library\bignum.c ****         return mbedtls_mpi_lset( X, 0 );
 2924              	 .loc 1 858 0 is_stmt 1
 2925 0036 7868     	 ldr r0,[r7,#4]
 2926 0038 0021     	 movs r1,#0
 2927 003a FFF7FEFF 	 bl mbedtls_mpi_lset
 2928 003e 0346     	 mov r3,r0
 2929 0040 74E0     	 b .L182
 2930              	.L181:
 859:C:/Users/Yushev/git/wpcqi-optiga-trust-charge/optiga/externals/mbedtls/library\bignum.c **** 
 860:C:/Users/Yushev/git/wpcqi-optiga-trust-charge/optiga/externals/mbedtls/library\bignum.c ****     /*
 861:C:/Users/Yushev/git/wpcqi-optiga-trust-charge/optiga/externals/mbedtls/library\bignum.c ****      * shift by count / limb_size
 862:C:/Users/Yushev/git/wpcqi-optiga-trust-charge/optiga/externals/mbedtls/library\bignum.c ****      */
 863:C:/Users/Yushev/git/wpcqi-optiga-trust-charge/optiga/externals/mbedtls/library\bignum.c ****     if( v0 > 0 )
 2931              	 .loc 1 863 0
 2932 0042 7B69     	 ldr r3,[r7,#20]
 2933 0044 002B     	 cmp r3,#0
 2934 0046 2AD0     	 beq .L183
 864:C:/Users/Yushev/git/wpcqi-optiga-trust-charge/optiga/externals/mbedtls/library\bignum.c ****     {
 865:C:/Users/Yushev/git/wpcqi-optiga-trust-charge/optiga/externals/mbedtls/library\bignum.c ****         for( i = 0; i < X->n - v0; i++ )
 2935              	 .loc 1 865 0
 2936 0048 0023     	 movs r3,#0
 2937 004a FB61     	 str r3,[r7,#28]
 2938 004c 10E0     	 b .L184
 2939              	.L185:
 866:C:/Users/Yushev/git/wpcqi-optiga-trust-charge/optiga/externals/mbedtls/library\bignum.c ****             X->p[i] = X->p[i + v0];
 2940              	 .loc 1 866 0 discriminator 3
 2941 004e 7B68     	 ldr r3,[r7,#4]
 2942 0050 9A68     	 ldr r2,[r3,#8]
 2943 0052 FB69     	 ldr r3,[r7,#28]
 2944 0054 9B00     	 lsls r3,r3,#2
 2945 0056 1344     	 add r3,r3,r2
 2946 0058 7A68     	 ldr r2,[r7,#4]
 2947 005a 9168     	 ldr r1,[r2,#8]
 2948 005c F869     	 ldr r0,[r7,#28]
 2949 005e 7A69     	 ldr r2,[r7,#20]
 2950 0060 0244     	 add r2,r2,r0
 2951 0062 9200     	 lsls r2,r2,#2
 2952 0064 0A44     	 add r2,r2,r1
 2953 0066 1268     	 ldr r2,[r2]
 2954 0068 1A60     	 str r2,[r3]
 865:C:/Users/Yushev/git/wpcqi-optiga-trust-charge/optiga/externals/mbedtls/library\bignum.c ****             X->p[i] = X->p[i + v0];
 2955              	 .loc 1 865 0 discriminator 3
 2956 006a FB69     	 ldr r3,[r7,#28]
 2957 006c 0133     	 adds r3,r3,#1
 2958 006e FB61     	 str r3,[r7,#28]
 2959              	.L184:
 865:C:/Users/Yushev/git/wpcqi-optiga-trust-charge/optiga/externals/mbedtls/library\bignum.c ****             X->p[i] = X->p[i + v0];
 2960              	 .loc 1 865 0 is_stmt 0 discriminator 1
 2961 0070 7B68     	 ldr r3,[r7,#4]
 2962 0072 5A68     	 ldr r2,[r3,#4]
 2963 0074 7B69     	 ldr r3,[r7,#20]
 2964 0076 D21A     	 subs r2,r2,r3
 2965 0078 FB69     	 ldr r3,[r7,#28]
 2966 007a 9A42     	 cmp r2,r3
 2967 007c E7D8     	 bhi .L185
 867:C:/Users/Yushev/git/wpcqi-optiga-trust-charge/optiga/externals/mbedtls/library\bignum.c **** 
 868:C:/Users/Yushev/git/wpcqi-optiga-trust-charge/optiga/externals/mbedtls/library\bignum.c ****         for( ; i < X->n; i++ )
 2968              	 .loc 1 868 0 is_stmt 1
 2969 007e 09E0     	 b .L186
 2970              	.L187:
 869:C:/Users/Yushev/git/wpcqi-optiga-trust-charge/optiga/externals/mbedtls/library\bignum.c ****             X->p[i] = 0;
 2971              	 .loc 1 869 0 discriminator 2
 2972 0080 7B68     	 ldr r3,[r7,#4]
 2973 0082 9A68     	 ldr r2,[r3,#8]
 2974 0084 FB69     	 ldr r3,[r7,#28]
 2975 0086 9B00     	 lsls r3,r3,#2
 2976 0088 1344     	 add r3,r3,r2
 2977 008a 0022     	 movs r2,#0
 2978 008c 1A60     	 str r2,[r3]
 868:C:/Users/Yushev/git/wpcqi-optiga-trust-charge/optiga/externals/mbedtls/library\bignum.c ****             X->p[i] = 0;
 2979              	 .loc 1 868 0 discriminator 2
 2980 008e FB69     	 ldr r3,[r7,#28]
 2981 0090 0133     	 adds r3,r3,#1
 2982 0092 FB61     	 str r3,[r7,#28]
 2983              	.L186:
 868:C:/Users/Yushev/git/wpcqi-optiga-trust-charge/optiga/externals/mbedtls/library\bignum.c ****             X->p[i] = 0;
 2984              	 .loc 1 868 0 is_stmt 0 discriminator 1
 2985 0094 7B68     	 ldr r3,[r7,#4]
 2986 0096 5A68     	 ldr r2,[r3,#4]
 2987 0098 FB69     	 ldr r3,[r7,#28]
 2988 009a 9A42     	 cmp r2,r3
 2989 009c F0D8     	 bhi .L187
 2990              	.L183:
 870:C:/Users/Yushev/git/wpcqi-optiga-trust-charge/optiga/externals/mbedtls/library\bignum.c ****     }
 871:C:/Users/Yushev/git/wpcqi-optiga-trust-charge/optiga/externals/mbedtls/library\bignum.c **** 
 872:C:/Users/Yushev/git/wpcqi-optiga-trust-charge/optiga/externals/mbedtls/library\bignum.c ****     /*
 873:C:/Users/Yushev/git/wpcqi-optiga-trust-charge/optiga/externals/mbedtls/library\bignum.c ****      * shift by count % limb_size
 874:C:/Users/Yushev/git/wpcqi-optiga-trust-charge/optiga/externals/mbedtls/library\bignum.c ****      */
 875:C:/Users/Yushev/git/wpcqi-optiga-trust-charge/optiga/externals/mbedtls/library\bignum.c ****     if( v1 > 0 )
 2991              	 .loc 1 875 0 is_stmt 1
 2992 009e 3B69     	 ldr r3,[r7,#16]
 2993 00a0 002B     	 cmp r3,#0
 2994 00a2 42D0     	 beq .L188
 876:C:/Users/Yushev/git/wpcqi-optiga-trust-charge/optiga/externals/mbedtls/library\bignum.c ****     {
 877:C:/Users/Yushev/git/wpcqi-optiga-trust-charge/optiga/externals/mbedtls/library\bignum.c ****         for( i = X->n; i > 0; i-- )
 2995              	 .loc 1 877 0
 2996 00a4 7B68     	 ldr r3,[r7,#4]
 2997 00a6 5B68     	 ldr r3,[r3,#4]
 2998 00a8 FB61     	 str r3,[r7,#28]
 2999 00aa 3BE0     	 b .L189
 3000              	.L190:
 878:C:/Users/Yushev/git/wpcqi-optiga-trust-charge/optiga/externals/mbedtls/library\bignum.c ****         {
 879:C:/Users/Yushev/git/wpcqi-optiga-trust-charge/optiga/externals/mbedtls/library\bignum.c ****             r1 = X->p[i - 1] << (biL - v1);
 3001              	 .loc 1 879 0 discriminator 3
 3002 00ac 7B68     	 ldr r3,[r7,#4]
 3003 00ae 9A68     	 ldr r2,[r3,#8]
 3004 00b0 FB69     	 ldr r3,[r7,#28]
 3005 00b2 03F18043 	 add r3,r3,#1073741824
 3006 00b6 013B     	 subs r3,r3,#1
 3007 00b8 9B00     	 lsls r3,r3,#2
 3008 00ba 1344     	 add r3,r3,r2
 3009 00bc 1B68     	 ldr r3,[r3]
 3010 00be 3A69     	 ldr r2,[r7,#16]
 3011 00c0 C2F12002 	 rsb r2,r2,#32
 3012 00c4 9340     	 lsls r3,r3,r2
 3013 00c6 FB60     	 str r3,[r7,#12]
 880:C:/Users/Yushev/git/wpcqi-optiga-trust-charge/optiga/externals/mbedtls/library\bignum.c ****             X->p[i - 1] >>= v1;
 3014              	 .loc 1 880 0 discriminator 3
 3015 00c8 7B68     	 ldr r3,[r7,#4]
 3016 00ca 9A68     	 ldr r2,[r3,#8]
 3017 00cc FB69     	 ldr r3,[r7,#28]
 3018 00ce 03F18043 	 add r3,r3,#1073741824
 3019 00d2 013B     	 subs r3,r3,#1
 3020 00d4 9B00     	 lsls r3,r3,#2
 3021 00d6 1A44     	 add r2,r2,r3
 3022 00d8 7B68     	 ldr r3,[r7,#4]
 3023 00da 9968     	 ldr r1,[r3,#8]
 3024 00dc FB69     	 ldr r3,[r7,#28]
 3025 00de 03F18043 	 add r3,r3,#1073741824
 3026 00e2 013B     	 subs r3,r3,#1
 3027 00e4 9B00     	 lsls r3,r3,#2
 3028 00e6 0B44     	 add r3,r3,r1
 3029 00e8 1968     	 ldr r1,[r3]
 3030 00ea 3B69     	 ldr r3,[r7,#16]
 3031 00ec 21FA03F3 	 lsr r3,r1,r3
 3032 00f0 1360     	 str r3,[r2]
 881:C:/Users/Yushev/git/wpcqi-optiga-trust-charge/optiga/externals/mbedtls/library\bignum.c ****             X->p[i - 1] |= r0;
 3033              	 .loc 1 881 0 discriminator 3
 3034 00f2 7B68     	 ldr r3,[r7,#4]
 3035 00f4 9A68     	 ldr r2,[r3,#8]
 3036 00f6 FB69     	 ldr r3,[r7,#28]
 3037 00f8 03F18043 	 add r3,r3,#1073741824
 3038 00fc 013B     	 subs r3,r3,#1
 3039 00fe 9B00     	 lsls r3,r3,#2
 3040 0100 1A44     	 add r2,r2,r3
 3041 0102 7B68     	 ldr r3,[r7,#4]
 3042 0104 9968     	 ldr r1,[r3,#8]
 3043 0106 FB69     	 ldr r3,[r7,#28]
 3044 0108 03F18043 	 add r3,r3,#1073741824
 3045 010c 013B     	 subs r3,r3,#1
 3046 010e 9B00     	 lsls r3,r3,#2
 3047 0110 0B44     	 add r3,r3,r1
 3048 0112 1968     	 ldr r1,[r3]
 3049 0114 BB69     	 ldr r3,[r7,#24]
 3050 0116 0B43     	 orrs r3,r3,r1
 3051 0118 1360     	 str r3,[r2]
 882:C:/Users/Yushev/git/wpcqi-optiga-trust-charge/optiga/externals/mbedtls/library\bignum.c ****             r0 = r1;
 3052              	 .loc 1 882 0 discriminator 3
 3053 011a FB68     	 ldr r3,[r7,#12]
 3054 011c BB61     	 str r3,[r7,#24]
 877:C:/Users/Yushev/git/wpcqi-optiga-trust-charge/optiga/externals/mbedtls/library\bignum.c ****         {
 3055              	 .loc 1 877 0 discriminator 3
 3056 011e FB69     	 ldr r3,[r7,#28]
 3057 0120 013B     	 subs r3,r3,#1
 3058 0122 FB61     	 str r3,[r7,#28]
 3059              	.L189:
 877:C:/Users/Yushev/git/wpcqi-optiga-trust-charge/optiga/externals/mbedtls/library\bignum.c ****         {
 3060              	 .loc 1 877 0 is_stmt 0 discriminator 1
 3061 0124 FB69     	 ldr r3,[r7,#28]
 3062 0126 002B     	 cmp r3,#0
 3063 0128 C0D1     	 bne .L190
 3064              	.L188:
 883:C:/Users/Yushev/git/wpcqi-optiga-trust-charge/optiga/externals/mbedtls/library\bignum.c ****         }
 884:C:/Users/Yushev/git/wpcqi-optiga-trust-charge/optiga/externals/mbedtls/library\bignum.c ****     }
 885:C:/Users/Yushev/git/wpcqi-optiga-trust-charge/optiga/externals/mbedtls/library\bignum.c **** 
 886:C:/Users/Yushev/git/wpcqi-optiga-trust-charge/optiga/externals/mbedtls/library\bignum.c ****     return( 0 );
 3065              	 .loc 1 886 0 is_stmt 1
 3066 012a 0023     	 movs r3,#0
 3067              	.L182:
 887:C:/Users/Yushev/git/wpcqi-optiga-trust-charge/optiga/externals/mbedtls/library\bignum.c **** }
 3068              	 .loc 1 887 0
 3069 012c 1846     	 mov r0,r3
 3070 012e 2037     	 adds r7,r7,#32
 3071              	.LCFI123:
 3072              	 .cfi_def_cfa_offset 8
 3073 0130 BD46     	 mov sp,r7
 3074              	.LCFI124:
 3075              	 .cfi_def_cfa_register 13
 3076              	 
 3077 0132 80BD     	 pop {r7,pc}
 3078              	 .cfi_endproc
 3079              	.LFE23:
 3081              	 .section .text.mbedtls_mpi_cmp_abs,"ax",%progbits
 3082              	 .align 2
 3083              	 .global mbedtls_mpi_cmp_abs
 3084              	 .thumb
 3085              	 .thumb_func
 3087              	mbedtls_mpi_cmp_abs:
 3088              	.LFB24:
 888:C:/Users/Yushev/git/wpcqi-optiga-trust-charge/optiga/externals/mbedtls/library\bignum.c **** 
 889:C:/Users/Yushev/git/wpcqi-optiga-trust-charge/optiga/externals/mbedtls/library\bignum.c **** /*
 890:C:/Users/Yushev/git/wpcqi-optiga-trust-charge/optiga/externals/mbedtls/library\bignum.c ****  * Compare unsigned values
 891:C:/Users/Yushev/git/wpcqi-optiga-trust-charge/optiga/externals/mbedtls/library\bignum.c ****  */
 892:C:/Users/Yushev/git/wpcqi-optiga-trust-charge/optiga/externals/mbedtls/library\bignum.c **** int mbedtls_mpi_cmp_abs( const mbedtls_mpi *X, const mbedtls_mpi *Y )
 893:C:/Users/Yushev/git/wpcqi-optiga-trust-charge/optiga/externals/mbedtls/library\bignum.c **** {
 3089              	 .loc 1 893 0
 3090              	 .cfi_startproc
 3091              	 
 3092              	 
 3093              	 
 3094 0000 80B4     	 push {r7}
 3095              	.LCFI125:
 3096              	 .cfi_def_cfa_offset 4
 3097              	 .cfi_offset 7,-4
 3098 0002 85B0     	 sub sp,sp,#20
 3099              	.LCFI126:
 3100              	 .cfi_def_cfa_offset 24
 3101 0004 00AF     	 add r7,sp,#0
 3102              	.LCFI127:
 3103              	 .cfi_def_cfa_register 7
 3104 0006 7860     	 str r0,[r7,#4]
 3105 0008 3960     	 str r1,[r7]
 894:C:/Users/Yushev/git/wpcqi-optiga-trust-charge/optiga/externals/mbedtls/library\bignum.c ****     size_t i, j;
 895:C:/Users/Yushev/git/wpcqi-optiga-trust-charge/optiga/externals/mbedtls/library\bignum.c ****     MPI_VALIDATE_RET( X != NULL );
 896:C:/Users/Yushev/git/wpcqi-optiga-trust-charge/optiga/externals/mbedtls/library\bignum.c ****     MPI_VALIDATE_RET( Y != NULL );
 897:C:/Users/Yushev/git/wpcqi-optiga-trust-charge/optiga/externals/mbedtls/library\bignum.c **** 
 898:C:/Users/Yushev/git/wpcqi-optiga-trust-charge/optiga/externals/mbedtls/library\bignum.c ****     for( i = X->n; i > 0; i-- )
 3106              	 .loc 1 898 0
 3107 000a 7B68     	 ldr r3,[r7,#4]
 3108 000c 5B68     	 ldr r3,[r3,#4]
 3109 000e FB60     	 str r3,[r7,#12]
 3110 0010 0EE0     	 b .L192
 3111              	.L195:
 899:C:/Users/Yushev/git/wpcqi-optiga-trust-charge/optiga/externals/mbedtls/library\bignum.c ****         if( X->p[i - 1] != 0 )
 3112              	 .loc 1 899 0
 3113 0012 7B68     	 ldr r3,[r7,#4]
 3114 0014 9A68     	 ldr r2,[r3,#8]
 3115 0016 FB68     	 ldr r3,[r7,#12]
 3116 0018 03F18043 	 add r3,r3,#1073741824
 3117 001c 013B     	 subs r3,r3,#1
 3118 001e 9B00     	 lsls r3,r3,#2
 3119 0020 1344     	 add r3,r3,r2
 3120 0022 1B68     	 ldr r3,[r3]
 3121 0024 002B     	 cmp r3,#0
 3122 0026 00D0     	 beq .L193
 900:C:/Users/Yushev/git/wpcqi-optiga-trust-charge/optiga/externals/mbedtls/library\bignum.c ****             break;
 3123              	 .loc 1 900 0
 3124 0028 05E0     	 b .L194
 3125              	.L193:
 898:C:/Users/Yushev/git/wpcqi-optiga-trust-charge/optiga/externals/mbedtls/library\bignum.c ****         if( X->p[i - 1] != 0 )
 3126              	 .loc 1 898 0 discriminator 2
 3127 002a FB68     	 ldr r3,[r7,#12]
 3128 002c 013B     	 subs r3,r3,#1
 3129 002e FB60     	 str r3,[r7,#12]
 3130              	.L192:
 898:C:/Users/Yushev/git/wpcqi-optiga-trust-charge/optiga/externals/mbedtls/library\bignum.c ****         if( X->p[i - 1] != 0 )
 3131              	 .loc 1 898 0 is_stmt 0 discriminator 1
 3132 0030 FB68     	 ldr r3,[r7,#12]
 3133 0032 002B     	 cmp r3,#0
 3134 0034 EDD1     	 bne .L195
 3135              	.L194:
 901:C:/Users/Yushev/git/wpcqi-optiga-trust-charge/optiga/externals/mbedtls/library\bignum.c **** 
 902:C:/Users/Yushev/git/wpcqi-optiga-trust-charge/optiga/externals/mbedtls/library\bignum.c ****     for( j = Y->n; j > 0; j-- )
 3136              	 .loc 1 902 0 is_stmt 1
 3137 0036 3B68     	 ldr r3,[r7]
 3138 0038 5B68     	 ldr r3,[r3,#4]
 3139 003a BB60     	 str r3,[r7,#8]
 3140 003c 0EE0     	 b .L196
 3141              	.L199:
 903:C:/Users/Yushev/git/wpcqi-optiga-trust-charge/optiga/externals/mbedtls/library\bignum.c ****         if( Y->p[j - 1] != 0 )
 3142              	 .loc 1 903 0
 3143 003e 3B68     	 ldr r3,[r7]
 3144 0040 9A68     	 ldr r2,[r3,#8]
 3145 0042 BB68     	 ldr r3,[r7,#8]
 3146 0044 03F18043 	 add r3,r3,#1073741824
 3147 0048 013B     	 subs r3,r3,#1
 3148 004a 9B00     	 lsls r3,r3,#2
 3149 004c 1344     	 add r3,r3,r2
 3150 004e 1B68     	 ldr r3,[r3]
 3151 0050 002B     	 cmp r3,#0
 3152 0052 00D0     	 beq .L197
 904:C:/Users/Yushev/git/wpcqi-optiga-trust-charge/optiga/externals/mbedtls/library\bignum.c ****             break;
 3153              	 .loc 1 904 0
 3154 0054 05E0     	 b .L198
 3155              	.L197:
 902:C:/Users/Yushev/git/wpcqi-optiga-trust-charge/optiga/externals/mbedtls/library\bignum.c ****         if( Y->p[j - 1] != 0 )
 3156              	 .loc 1 902 0 discriminator 2
 3157 0056 BB68     	 ldr r3,[r7,#8]
 3158 0058 013B     	 subs r3,r3,#1
 3159 005a BB60     	 str r3,[r7,#8]
 3160              	.L196:
 902:C:/Users/Yushev/git/wpcqi-optiga-trust-charge/optiga/externals/mbedtls/library\bignum.c ****         if( Y->p[j - 1] != 0 )
 3161              	 .loc 1 902 0 is_stmt 0 discriminator 1
 3162 005c BB68     	 ldr r3,[r7,#8]
 3163 005e 002B     	 cmp r3,#0
 3164 0060 EDD1     	 bne .L199
 3165              	.L198:
 905:C:/Users/Yushev/git/wpcqi-optiga-trust-charge/optiga/externals/mbedtls/library\bignum.c **** 
 906:C:/Users/Yushev/git/wpcqi-optiga-trust-charge/optiga/externals/mbedtls/library\bignum.c ****     if( i == 0 && j == 0 )
 3166              	 .loc 1 906 0 is_stmt 1
 3167 0062 FB68     	 ldr r3,[r7,#12]
 3168 0064 002B     	 cmp r3,#0
 3169 0066 04D1     	 bne .L200
 3170              	 .loc 1 906 0 is_stmt 0 discriminator 1
 3171 0068 BB68     	 ldr r3,[r7,#8]
 3172 006a 002B     	 cmp r3,#0
 3173 006c 01D1     	 bne .L200
 907:C:/Users/Yushev/git/wpcqi-optiga-trust-charge/optiga/externals/mbedtls/library\bignum.c ****         return( 0 );
 3174              	 .loc 1 907 0 is_stmt 1
 3175 006e 0023     	 movs r3,#0
 3176 0070 41E0     	 b .L201
 3177              	.L200:
 908:C:/Users/Yushev/git/wpcqi-optiga-trust-charge/optiga/externals/mbedtls/library\bignum.c **** 
 909:C:/Users/Yushev/git/wpcqi-optiga-trust-charge/optiga/externals/mbedtls/library\bignum.c ****     if( i > j ) return(  1 );
 3178              	 .loc 1 909 0
 3179 0072 FA68     	 ldr r2,[r7,#12]
 3180 0074 BB68     	 ldr r3,[r7,#8]
 3181 0076 9A42     	 cmp r2,r3
 3182 0078 01D9     	 bls .L202
 3183              	 .loc 1 909 0 is_stmt 0 discriminator 1
 3184 007a 0123     	 movs r3,#1
 3185 007c 3BE0     	 b .L201
 3186              	.L202:
 910:C:/Users/Yushev/git/wpcqi-optiga-trust-charge/optiga/externals/mbedtls/library\bignum.c ****     if( j > i ) return( -1 );
 3187              	 .loc 1 910 0 is_stmt 1
 3188 007e BA68     	 ldr r2,[r7,#8]
 3189 0080 FB68     	 ldr r3,[r7,#12]
 3190 0082 9A42     	 cmp r2,r3
 3191 0084 02D9     	 bls .L203
 3192              	 .loc 1 910 0 is_stmt 0 discriminator 1
 3193 0086 4FF0FF33 	 mov r3,#-1
 3194 008a 34E0     	 b .L201
 3195              	.L203:
 911:C:/Users/Yushev/git/wpcqi-optiga-trust-charge/optiga/externals/mbedtls/library\bignum.c **** 
 912:C:/Users/Yushev/git/wpcqi-optiga-trust-charge/optiga/externals/mbedtls/library\bignum.c ****     for( ; i > 0; i-- )
 3196              	 .loc 1 912 0 is_stmt 1
 3197 008c 2FE0     	 b .L204
 3198              	.L207:
 913:C:/Users/Yushev/git/wpcqi-optiga-trust-charge/optiga/externals/mbedtls/library\bignum.c ****     {
 914:C:/Users/Yushev/git/wpcqi-optiga-trust-charge/optiga/externals/mbedtls/library\bignum.c ****         if( X->p[i - 1] > Y->p[i - 1] ) return(  1 );
 3199              	 .loc 1 914 0
 3200 008e 7B68     	 ldr r3,[r7,#4]
 3201 0090 9A68     	 ldr r2,[r3,#8]
 3202 0092 FB68     	 ldr r3,[r7,#12]
 3203 0094 03F18043 	 add r3,r3,#1073741824
 3204 0098 013B     	 subs r3,r3,#1
 3205 009a 9B00     	 lsls r3,r3,#2
 3206 009c 1344     	 add r3,r3,r2
 3207 009e 1A68     	 ldr r2,[r3]
 3208 00a0 3B68     	 ldr r3,[r7]
 3209 00a2 9968     	 ldr r1,[r3,#8]
 3210 00a4 FB68     	 ldr r3,[r7,#12]
 3211 00a6 03F18043 	 add r3,r3,#1073741824
 3212 00aa 013B     	 subs r3,r3,#1
 3213 00ac 9B00     	 lsls r3,r3,#2
 3214 00ae 0B44     	 add r3,r3,r1
 3215 00b0 1B68     	 ldr r3,[r3]
 3216 00b2 9A42     	 cmp r2,r3
 3217 00b4 01D9     	 bls .L205
 3218              	 .loc 1 914 0 is_stmt 0 discriminator 1
 3219 00b6 0123     	 movs r3,#1
 3220 00b8 1DE0     	 b .L201
 3221              	.L205:
 915:C:/Users/Yushev/git/wpcqi-optiga-trust-charge/optiga/externals/mbedtls/library\bignum.c ****         if( X->p[i - 1] < Y->p[i - 1] ) return( -1 );
 3222              	 .loc 1 915 0 is_stmt 1
 3223 00ba 7B68     	 ldr r3,[r7,#4]
 3224 00bc 9A68     	 ldr r2,[r3,#8]
 3225 00be FB68     	 ldr r3,[r7,#12]
 3226 00c0 03F18043 	 add r3,r3,#1073741824
 3227 00c4 013B     	 subs r3,r3,#1
 3228 00c6 9B00     	 lsls r3,r3,#2
 3229 00c8 1344     	 add r3,r3,r2
 3230 00ca 1A68     	 ldr r2,[r3]
 3231 00cc 3B68     	 ldr r3,[r7]
 3232 00ce 9968     	 ldr r1,[r3,#8]
 3233 00d0 FB68     	 ldr r3,[r7,#12]
 3234 00d2 03F18043 	 add r3,r3,#1073741824
 3235 00d6 013B     	 subs r3,r3,#1
 3236 00d8 9B00     	 lsls r3,r3,#2
 3237 00da 0B44     	 add r3,r3,r1
 3238 00dc 1B68     	 ldr r3,[r3]
 3239 00de 9A42     	 cmp r2,r3
 3240 00e0 02D2     	 bcs .L206
 3241              	 .loc 1 915 0 is_stmt 0 discriminator 1
 3242 00e2 4FF0FF33 	 mov r3,#-1
 3243 00e6 06E0     	 b .L201
 3244              	.L206:
 912:C:/Users/Yushev/git/wpcqi-optiga-trust-charge/optiga/externals/mbedtls/library\bignum.c ****     {
 3245              	 .loc 1 912 0 is_stmt 1
 3246 00e8 FB68     	 ldr r3,[r7,#12]
 3247 00ea 013B     	 subs r3,r3,#1
 3248 00ec FB60     	 str r3,[r7,#12]
 3249              	.L204:
 912:C:/Users/Yushev/git/wpcqi-optiga-trust-charge/optiga/externals/mbedtls/library\bignum.c ****     {
 3250              	 .loc 1 912 0 is_stmt 0 discriminator 1
 3251 00ee FB68     	 ldr r3,[r7,#12]
 3252 00f0 002B     	 cmp r3,#0
 3253 00f2 CCD1     	 bne .L207
 916:C:/Users/Yushev/git/wpcqi-optiga-trust-charge/optiga/externals/mbedtls/library\bignum.c ****     }
 917:C:/Users/Yushev/git/wpcqi-optiga-trust-charge/optiga/externals/mbedtls/library\bignum.c **** 
 918:C:/Users/Yushev/git/wpcqi-optiga-trust-charge/optiga/externals/mbedtls/library\bignum.c ****     return( 0 );
 3254              	 .loc 1 918 0 is_stmt 1
 3255 00f4 0023     	 movs r3,#0
 3256              	.L201:
 919:C:/Users/Yushev/git/wpcqi-optiga-trust-charge/optiga/externals/mbedtls/library\bignum.c **** }
 3257              	 .loc 1 919 0
 3258 00f6 1846     	 mov r0,r3
 3259 00f8 1437     	 adds r7,r7,#20
 3260              	.LCFI128:
 3261              	 .cfi_def_cfa_offset 4
 3262 00fa BD46     	 mov sp,r7
 3263              	.LCFI129:
 3264              	 .cfi_def_cfa_register 13
 3265              	 
 3266 00fc 5DF8047B 	 ldr r7,[sp],#4
 3267              	.LCFI130:
 3268              	 .cfi_restore 7
 3269              	 .cfi_def_cfa_offset 0
 3270 0100 7047     	 bx lr
 3271              	 .cfi_endproc
 3272              	.LFE24:
 3274 0102 00BF     	 .section .text.mbedtls_mpi_cmp_mpi,"ax",%progbits
 3275              	 .align 2
 3276              	 .global mbedtls_mpi_cmp_mpi
 3277              	 .thumb
 3278              	 .thumb_func
 3280              	mbedtls_mpi_cmp_mpi:
 3281              	.LFB25:
 920:C:/Users/Yushev/git/wpcqi-optiga-trust-charge/optiga/externals/mbedtls/library\bignum.c **** 
 921:C:/Users/Yushev/git/wpcqi-optiga-trust-charge/optiga/externals/mbedtls/library\bignum.c **** /*
 922:C:/Users/Yushev/git/wpcqi-optiga-trust-charge/optiga/externals/mbedtls/library\bignum.c ****  * Compare signed values
 923:C:/Users/Yushev/git/wpcqi-optiga-trust-charge/optiga/externals/mbedtls/library\bignum.c ****  */
 924:C:/Users/Yushev/git/wpcqi-optiga-trust-charge/optiga/externals/mbedtls/library\bignum.c **** int mbedtls_mpi_cmp_mpi( const mbedtls_mpi *X, const mbedtls_mpi *Y )
 925:C:/Users/Yushev/git/wpcqi-optiga-trust-charge/optiga/externals/mbedtls/library\bignum.c **** {
 3282              	 .loc 1 925 0
 3283              	 .cfi_startproc
 3284              	 
 3285              	 
 3286              	 
 3287 0000 80B4     	 push {r7}
 3288              	.LCFI131:
 3289              	 .cfi_def_cfa_offset 4
 3290              	 .cfi_offset 7,-4
 3291 0002 85B0     	 sub sp,sp,#20
 3292              	.LCFI132:
 3293              	 .cfi_def_cfa_offset 24
 3294 0004 00AF     	 add r7,sp,#0
 3295              	.LCFI133:
 3296              	 .cfi_def_cfa_register 7
 3297 0006 7860     	 str r0,[r7,#4]
 3298 0008 3960     	 str r1,[r7]
 926:C:/Users/Yushev/git/wpcqi-optiga-trust-charge/optiga/externals/mbedtls/library\bignum.c ****     size_t i, j;
 927:C:/Users/Yushev/git/wpcqi-optiga-trust-charge/optiga/externals/mbedtls/library\bignum.c ****     MPI_VALIDATE_RET( X != NULL );
 928:C:/Users/Yushev/git/wpcqi-optiga-trust-charge/optiga/externals/mbedtls/library\bignum.c ****     MPI_VALIDATE_RET( Y != NULL );
 929:C:/Users/Yushev/git/wpcqi-optiga-trust-charge/optiga/externals/mbedtls/library\bignum.c **** 
 930:C:/Users/Yushev/git/wpcqi-optiga-trust-charge/optiga/externals/mbedtls/library\bignum.c ****     for( i = X->n; i > 0; i-- )
 3299              	 .loc 1 930 0
 3300 000a 7B68     	 ldr r3,[r7,#4]
 3301 000c 5B68     	 ldr r3,[r3,#4]
 3302 000e FB60     	 str r3,[r7,#12]
 3303 0010 0EE0     	 b .L209
 3304              	.L212:
 931:C:/Users/Yushev/git/wpcqi-optiga-trust-charge/optiga/externals/mbedtls/library\bignum.c ****         if( X->p[i - 1] != 0 )
 3305              	 .loc 1 931 0
 3306 0012 7B68     	 ldr r3,[r7,#4]
 3307 0014 9A68     	 ldr r2,[r3,#8]
 3308 0016 FB68     	 ldr r3,[r7,#12]
 3309 0018 03F18043 	 add r3,r3,#1073741824
 3310 001c 013B     	 subs r3,r3,#1
 3311 001e 9B00     	 lsls r3,r3,#2
 3312 0020 1344     	 add r3,r3,r2
 3313 0022 1B68     	 ldr r3,[r3]
 3314 0024 002B     	 cmp r3,#0
 3315 0026 00D0     	 beq .L210
 932:C:/Users/Yushev/git/wpcqi-optiga-trust-charge/optiga/externals/mbedtls/library\bignum.c ****             break;
 3316              	 .loc 1 932 0
 3317 0028 05E0     	 b .L211
 3318              	.L210:
 930:C:/Users/Yushev/git/wpcqi-optiga-trust-charge/optiga/externals/mbedtls/library\bignum.c ****         if( X->p[i - 1] != 0 )
 3319              	 .loc 1 930 0 discriminator 2
 3320 002a FB68     	 ldr r3,[r7,#12]
 3321 002c 013B     	 subs r3,r3,#1
 3322 002e FB60     	 str r3,[r7,#12]
 3323              	.L209:
 930:C:/Users/Yushev/git/wpcqi-optiga-trust-charge/optiga/externals/mbedtls/library\bignum.c ****         if( X->p[i - 1] != 0 )
 3324              	 .loc 1 930 0 is_stmt 0 discriminator 1
 3325 0030 FB68     	 ldr r3,[r7,#12]
 3326 0032 002B     	 cmp r3,#0
 3327 0034 EDD1     	 bne .L212
 3328              	.L211:
 933:C:/Users/Yushev/git/wpcqi-optiga-trust-charge/optiga/externals/mbedtls/library\bignum.c **** 
 934:C:/Users/Yushev/git/wpcqi-optiga-trust-charge/optiga/externals/mbedtls/library\bignum.c ****     for( j = Y->n; j > 0; j-- )
 3329              	 .loc 1 934 0 is_stmt 1
 3330 0036 3B68     	 ldr r3,[r7]
 3331 0038 5B68     	 ldr r3,[r3,#4]
 3332 003a BB60     	 str r3,[r7,#8]
 3333 003c 0EE0     	 b .L213
 3334              	.L216:
 935:C:/Users/Yushev/git/wpcqi-optiga-trust-charge/optiga/externals/mbedtls/library\bignum.c ****         if( Y->p[j - 1] != 0 )
 3335              	 .loc 1 935 0
 3336 003e 3B68     	 ldr r3,[r7]
 3337 0040 9A68     	 ldr r2,[r3,#8]
 3338 0042 BB68     	 ldr r3,[r7,#8]
 3339 0044 03F18043 	 add r3,r3,#1073741824
 3340 0048 013B     	 subs r3,r3,#1
 3341 004a 9B00     	 lsls r3,r3,#2
 3342 004c 1344     	 add r3,r3,r2
 3343 004e 1B68     	 ldr r3,[r3]
 3344 0050 002B     	 cmp r3,#0
 3345 0052 00D0     	 beq .L214
 936:C:/Users/Yushev/git/wpcqi-optiga-trust-charge/optiga/externals/mbedtls/library\bignum.c ****             break;
 3346              	 .loc 1 936 0
 3347 0054 05E0     	 b .L215
 3348              	.L214:
 934:C:/Users/Yushev/git/wpcqi-optiga-trust-charge/optiga/externals/mbedtls/library\bignum.c ****         if( Y->p[j - 1] != 0 )
 3349              	 .loc 1 934 0 discriminator 2
 3350 0056 BB68     	 ldr r3,[r7,#8]
 3351 0058 013B     	 subs r3,r3,#1
 3352 005a BB60     	 str r3,[r7,#8]
 3353              	.L213:
 934:C:/Users/Yushev/git/wpcqi-optiga-trust-charge/optiga/externals/mbedtls/library\bignum.c ****         if( Y->p[j - 1] != 0 )
 3354              	 .loc 1 934 0 is_stmt 0 discriminator 1
 3355 005c BB68     	 ldr r3,[r7,#8]
 3356 005e 002B     	 cmp r3,#0
 3357 0060 EDD1     	 bne .L216
 3358              	.L215:
 937:C:/Users/Yushev/git/wpcqi-optiga-trust-charge/optiga/externals/mbedtls/library\bignum.c **** 
 938:C:/Users/Yushev/git/wpcqi-optiga-trust-charge/optiga/externals/mbedtls/library\bignum.c ****     if( i == 0 && j == 0 )
 3359              	 .loc 1 938 0 is_stmt 1
 3360 0062 FB68     	 ldr r3,[r7,#12]
 3361 0064 002B     	 cmp r3,#0
 3362 0066 04D1     	 bne .L217
 3363              	 .loc 1 938 0 is_stmt 0 discriminator 1
 3364 0068 BB68     	 ldr r3,[r7,#8]
 3365 006a 002B     	 cmp r3,#0
 3366 006c 01D1     	 bne .L217
 939:C:/Users/Yushev/git/wpcqi-optiga-trust-charge/optiga/externals/mbedtls/library\bignum.c ****         return( 0 );
 3367              	 .loc 1 939 0 is_stmt 1
 3368 006e 0023     	 movs r3,#0
 3369 0070 5AE0     	 b .L218
 3370              	.L217:
 940:C:/Users/Yushev/git/wpcqi-optiga-trust-charge/optiga/externals/mbedtls/library\bignum.c **** 
 941:C:/Users/Yushev/git/wpcqi-optiga-trust-charge/optiga/externals/mbedtls/library\bignum.c ****     if( i > j ) return(  X->s );
 3371              	 .loc 1 941 0
 3372 0072 FA68     	 ldr r2,[r7,#12]
 3373 0074 BB68     	 ldr r3,[r7,#8]
 3374 0076 9A42     	 cmp r2,r3
 3375 0078 02D9     	 bls .L219
 3376              	 .loc 1 941 0 is_stmt 0 discriminator 1
 3377 007a 7B68     	 ldr r3,[r7,#4]
 3378 007c 1B68     	 ldr r3,[r3]
 3379 007e 53E0     	 b .L218
 3380              	.L219:
 942:C:/Users/Yushev/git/wpcqi-optiga-trust-charge/optiga/externals/mbedtls/library\bignum.c ****     if( j > i ) return( -Y->s );
 3381              	 .loc 1 942 0 is_stmt 1
 3382 0080 BA68     	 ldr r2,[r7,#8]
 3383 0082 FB68     	 ldr r3,[r7,#12]
 3384 0084 9A42     	 cmp r2,r3
 3385 0086 03D9     	 bls .L220
 3386              	 .loc 1 942 0 is_stmt 0 discriminator 1
 3387 0088 3B68     	 ldr r3,[r7]
 3388 008a 1B68     	 ldr r3,[r3]
 3389 008c 5B42     	 negs r3,r3
 3390 008e 4BE0     	 b .L218
 3391              	.L220:
 943:C:/Users/Yushev/git/wpcqi-optiga-trust-charge/optiga/externals/mbedtls/library\bignum.c **** 
 944:C:/Users/Yushev/git/wpcqi-optiga-trust-charge/optiga/externals/mbedtls/library\bignum.c ****     if( X->s > 0 && Y->s < 0 ) return(  1 );
 3392              	 .loc 1 944 0 is_stmt 1
 3393 0090 7B68     	 ldr r3,[r7,#4]
 3394 0092 1B68     	 ldr r3,[r3]
 3395 0094 002B     	 cmp r3,#0
 3396 0096 05DD     	 ble .L221
 3397              	 .loc 1 944 0 is_stmt 0 discriminator 1
 3398 0098 3B68     	 ldr r3,[r7]
 3399 009a 1B68     	 ldr r3,[r3]
 3400 009c 002B     	 cmp r3,#0
 3401 009e 01DA     	 bge .L221
 3402              	 .loc 1 944 0 discriminator 2
 3403 00a0 0123     	 movs r3,#1
 3404 00a2 41E0     	 b .L218
 3405              	.L221:
 945:C:/Users/Yushev/git/wpcqi-optiga-trust-charge/optiga/externals/mbedtls/library\bignum.c ****     if( Y->s > 0 && X->s < 0 ) return( -1 );
 3406              	 .loc 1 945 0 is_stmt 1
 3407 00a4 3B68     	 ldr r3,[r7]
 3408 00a6 1B68     	 ldr r3,[r3]
 3409 00a8 002B     	 cmp r3,#0
 3410 00aa 06DD     	 ble .L222
 3411              	 .loc 1 945 0 is_stmt 0 discriminator 1
 3412 00ac 7B68     	 ldr r3,[r7,#4]
 3413 00ae 1B68     	 ldr r3,[r3]
 3414 00b0 002B     	 cmp r3,#0
 3415 00b2 02DA     	 bge .L222
 3416              	 .loc 1 945 0 discriminator 2
 3417 00b4 4FF0FF33 	 mov r3,#-1
 3418 00b8 36E0     	 b .L218
 3419              	.L222:
 946:C:/Users/Yushev/git/wpcqi-optiga-trust-charge/optiga/externals/mbedtls/library\bignum.c **** 
 947:C:/Users/Yushev/git/wpcqi-optiga-trust-charge/optiga/externals/mbedtls/library\bignum.c ****     for( ; i > 0; i-- )
 3420              	 .loc 1 947 0 is_stmt 1
 3421 00ba 31E0     	 b .L223
 3422              	.L226:
 948:C:/Users/Yushev/git/wpcqi-optiga-trust-charge/optiga/externals/mbedtls/library\bignum.c ****     {
 949:C:/Users/Yushev/git/wpcqi-optiga-trust-charge/optiga/externals/mbedtls/library\bignum.c ****         if( X->p[i - 1] > Y->p[i - 1] ) return(  X->s );
 3423              	 .loc 1 949 0
 3424 00bc 7B68     	 ldr r3,[r7,#4]
 3425 00be 9A68     	 ldr r2,[r3,#8]
 3426 00c0 FB68     	 ldr r3,[r7,#12]
 3427 00c2 03F18043 	 add r3,r3,#1073741824
 3428 00c6 013B     	 subs r3,r3,#1
 3429 00c8 9B00     	 lsls r3,r3,#2
 3430 00ca 1344     	 add r3,r3,r2
 3431 00cc 1A68     	 ldr r2,[r3]
 3432 00ce 3B68     	 ldr r3,[r7]
 3433 00d0 9968     	 ldr r1,[r3,#8]
 3434 00d2 FB68     	 ldr r3,[r7,#12]
 3435 00d4 03F18043 	 add r3,r3,#1073741824
 3436 00d8 013B     	 subs r3,r3,#1
 3437 00da 9B00     	 lsls r3,r3,#2
 3438 00dc 0B44     	 add r3,r3,r1
 3439 00de 1B68     	 ldr r3,[r3]
 3440 00e0 9A42     	 cmp r2,r3
 3441 00e2 02D9     	 bls .L224
 3442              	 .loc 1 949 0 is_stmt 0 discriminator 1
 3443 00e4 7B68     	 ldr r3,[r7,#4]
 3444 00e6 1B68     	 ldr r3,[r3]
 3445 00e8 1EE0     	 b .L218
 3446              	.L224:
 950:C:/Users/Yushev/git/wpcqi-optiga-trust-charge/optiga/externals/mbedtls/library\bignum.c ****         if( X->p[i - 1] < Y->p[i - 1] ) return( -X->s );
 3447              	 .loc 1 950 0 is_stmt 1
 3448 00ea 7B68     	 ldr r3,[r7,#4]
 3449 00ec 9A68     	 ldr r2,[r3,#8]
 3450 00ee FB68     	 ldr r3,[r7,#12]
 3451 00f0 03F18043 	 add r3,r3,#1073741824
 3452 00f4 013B     	 subs r3,r3,#1
 3453 00f6 9B00     	 lsls r3,r3,#2
 3454 00f8 1344     	 add r3,r3,r2
 3455 00fa 1A68     	 ldr r2,[r3]
 3456 00fc 3B68     	 ldr r3,[r7]
 3457 00fe 9968     	 ldr r1,[r3,#8]
 3458 0100 FB68     	 ldr r3,[r7,#12]
 3459 0102 03F18043 	 add r3,r3,#1073741824
 3460 0106 013B     	 subs r3,r3,#1
 3461 0108 9B00     	 lsls r3,r3,#2
 3462 010a 0B44     	 add r3,r3,r1
 3463 010c 1B68     	 ldr r3,[r3]
 3464 010e 9A42     	 cmp r2,r3
 3465 0110 03D2     	 bcs .L225
 3466              	 .loc 1 950 0 is_stmt 0 discriminator 1
 3467 0112 7B68     	 ldr r3,[r7,#4]
 3468 0114 1B68     	 ldr r3,[r3]
 3469 0116 5B42     	 negs r3,r3
 3470 0118 06E0     	 b .L218
 3471              	.L225:
 947:C:/Users/Yushev/git/wpcqi-optiga-trust-charge/optiga/externals/mbedtls/library\bignum.c ****     {
 3472              	 .loc 1 947 0 is_stmt 1
 3473 011a FB68     	 ldr r3,[r7,#12]
 3474 011c 013B     	 subs r3,r3,#1
 3475 011e FB60     	 str r3,[r7,#12]
 3476              	.L223:
 947:C:/Users/Yushev/git/wpcqi-optiga-trust-charge/optiga/externals/mbedtls/library\bignum.c ****     {
 3477              	 .loc 1 947 0 is_stmt 0 discriminator 1
 3478 0120 FB68     	 ldr r3,[r7,#12]
 3479 0122 002B     	 cmp r3,#0
 3480 0124 CAD1     	 bne .L226
 951:C:/Users/Yushev/git/wpcqi-optiga-trust-charge/optiga/externals/mbedtls/library\bignum.c ****     }
 952:C:/Users/Yushev/git/wpcqi-optiga-trust-charge/optiga/externals/mbedtls/library\bignum.c **** 
 953:C:/Users/Yushev/git/wpcqi-optiga-trust-charge/optiga/externals/mbedtls/library\bignum.c ****     return( 0 );
 3481              	 .loc 1 953 0 is_stmt 1
 3482 0126 0023     	 movs r3,#0
 3483              	.L218:
 954:C:/Users/Yushev/git/wpcqi-optiga-trust-charge/optiga/externals/mbedtls/library\bignum.c **** }
 3484              	 .loc 1 954 0
 3485 0128 1846     	 mov r0,r3
 3486 012a 1437     	 adds r7,r7,#20
 3487              	.LCFI134:
 3488              	 .cfi_def_cfa_offset 4
 3489 012c BD46     	 mov sp,r7
 3490              	.LCFI135:
 3491              	 .cfi_def_cfa_register 13
 3492              	 
 3493 012e 5DF8047B 	 ldr r7,[sp],#4
 3494              	.LCFI136:
 3495              	 .cfi_restore 7
 3496              	 .cfi_def_cfa_offset 0
 3497 0132 7047     	 bx lr
 3498              	 .cfi_endproc
 3499              	.LFE25:
 3501              	 .section .text.mbedtls_mpi_cmp_int,"ax",%progbits
 3502              	 .align 2
 3503              	 .global mbedtls_mpi_cmp_int
 3504              	 .thumb
 3505              	 .thumb_func
 3507              	mbedtls_mpi_cmp_int:
 3508              	.LFB26:
 955:C:/Users/Yushev/git/wpcqi-optiga-trust-charge/optiga/externals/mbedtls/library\bignum.c **** 
 956:C:/Users/Yushev/git/wpcqi-optiga-trust-charge/optiga/externals/mbedtls/library\bignum.c **** /*
 957:C:/Users/Yushev/git/wpcqi-optiga-trust-charge/optiga/externals/mbedtls/library\bignum.c ****  * Compare signed values
 958:C:/Users/Yushev/git/wpcqi-optiga-trust-charge/optiga/externals/mbedtls/library\bignum.c ****  */
 959:C:/Users/Yushev/git/wpcqi-optiga-trust-charge/optiga/externals/mbedtls/library\bignum.c **** int mbedtls_mpi_cmp_int( const mbedtls_mpi *X, mbedtls_mpi_sint z )
 960:C:/Users/Yushev/git/wpcqi-optiga-trust-charge/optiga/externals/mbedtls/library\bignum.c **** {
 3509              	 .loc 1 960 0
 3510              	 .cfi_startproc
 3511              	 
 3512              	 
 3513 0000 80B5     	 push {r7,lr}
 3514              	.LCFI137:
 3515              	 .cfi_def_cfa_offset 8
 3516              	 .cfi_offset 7,-8
 3517              	 .cfi_offset 14,-4
 3518 0002 86B0     	 sub sp,sp,#24
 3519              	.LCFI138:
 3520              	 .cfi_def_cfa_offset 32
 3521 0004 00AF     	 add r7,sp,#0
 3522              	.LCFI139:
 3523              	 .cfi_def_cfa_register 7
 3524 0006 7860     	 str r0,[r7,#4]
 3525 0008 3960     	 str r1,[r7]
 961:C:/Users/Yushev/git/wpcqi-optiga-trust-charge/optiga/externals/mbedtls/library\bignum.c ****     mbedtls_mpi Y;
 962:C:/Users/Yushev/git/wpcqi-optiga-trust-charge/optiga/externals/mbedtls/library\bignum.c ****     mbedtls_mpi_uint p[1];
 963:C:/Users/Yushev/git/wpcqi-optiga-trust-charge/optiga/externals/mbedtls/library\bignum.c ****     MPI_VALIDATE_RET( X != NULL );
 964:C:/Users/Yushev/git/wpcqi-optiga-trust-charge/optiga/externals/mbedtls/library\bignum.c **** 
 965:C:/Users/Yushev/git/wpcqi-optiga-trust-charge/optiga/externals/mbedtls/library\bignum.c ****     *p  = ( z < 0 ) ? -z : z;
 3526              	 .loc 1 965 0
 3527 000a 3B68     	 ldr r3,[r7]
 3528 000c 002B     	 cmp r3,#0
 3529 000e B8BF     	 it lt
 3530 0010 5B42     	 rsblt r3,r3,#0
 3531 0012 BB60     	 str r3,[r7,#8]
 966:C:/Users/Yushev/git/wpcqi-optiga-trust-charge/optiga/externals/mbedtls/library\bignum.c ****     Y.s = ( z < 0 ) ? -1 : 1;
 3532              	 .loc 1 966 0
 3533 0014 3B68     	 ldr r3,[r7]
 3534 0016 002B     	 cmp r3,#0
 3535 0018 02DA     	 bge .L228
 3536              	 .loc 1 966 0 is_stmt 0 discriminator 1
 3537 001a 4FF0FF33 	 mov r3,#-1
 3538 001e 00E0     	 b .L229
 3539              	.L228:
 3540              	 .loc 1 966 0 discriminator 2
 3541 0020 0123     	 movs r3,#1
 3542              	.L229:
 3543              	 .loc 1 966 0 discriminator 4
 3544 0022 FB60     	 str r3,[r7,#12]
 967:C:/Users/Yushev/git/wpcqi-optiga-trust-charge/optiga/externals/mbedtls/library\bignum.c ****     Y.n = 1;
 3545              	 .loc 1 967 0 is_stmt 1 discriminator 4
 3546 0024 0123     	 movs r3,#1
 3547 0026 3B61     	 str r3,[r7,#16]
 968:C:/Users/Yushev/git/wpcqi-optiga-trust-charge/optiga/externals/mbedtls/library\bignum.c ****     Y.p = p;
 3548              	 .loc 1 968 0 discriminator 4
 3549 0028 07F10803 	 add r3,r7,#8
 3550 002c 7B61     	 str r3,[r7,#20]
 969:C:/Users/Yushev/git/wpcqi-optiga-trust-charge/optiga/externals/mbedtls/library\bignum.c **** 
 970:C:/Users/Yushev/git/wpcqi-optiga-trust-charge/optiga/externals/mbedtls/library\bignum.c ****     return( mbedtls_mpi_cmp_mpi( X, &Y ) );
 3551              	 .loc 1 970 0 discriminator 4
 3552 002e 07F10C03 	 add r3,r7,#12
 3553 0032 7868     	 ldr r0,[r7,#4]
 3554 0034 1946     	 mov r1,r3
 3555 0036 FFF7FEFF 	 bl mbedtls_mpi_cmp_mpi
 3556 003a 0346     	 mov r3,r0
 971:C:/Users/Yushev/git/wpcqi-optiga-trust-charge/optiga/externals/mbedtls/library\bignum.c **** }
 3557              	 .loc 1 971 0 discriminator 4
 3558 003c 1846     	 mov r0,r3
 3559 003e 1837     	 adds r7,r7,#24
 3560              	.LCFI140:
 3561              	 .cfi_def_cfa_offset 8
 3562 0040 BD46     	 mov sp,r7
 3563              	.LCFI141:
 3564              	 .cfi_def_cfa_register 13
 3565              	 
 3566 0042 80BD     	 pop {r7,pc}
 3567              	 .cfi_endproc
 3568              	.LFE26:
 3570              	 .section .text.mbedtls_mpi_add_abs,"ax",%progbits
 3571              	 .align 2
 3572              	 .global mbedtls_mpi_add_abs
 3573              	 .thumb
 3574              	 .thumb_func
 3576              	mbedtls_mpi_add_abs:
 3577              	.LFB27:
 972:C:/Users/Yushev/git/wpcqi-optiga-trust-charge/optiga/externals/mbedtls/library\bignum.c **** 
 973:C:/Users/Yushev/git/wpcqi-optiga-trust-charge/optiga/externals/mbedtls/library\bignum.c **** /*
 974:C:/Users/Yushev/git/wpcqi-optiga-trust-charge/optiga/externals/mbedtls/library\bignum.c ****  * Unsigned addition: X = |A| + |B|  (HAC 14.7)
 975:C:/Users/Yushev/git/wpcqi-optiga-trust-charge/optiga/externals/mbedtls/library\bignum.c ****  */
 976:C:/Users/Yushev/git/wpcqi-optiga-trust-charge/optiga/externals/mbedtls/library\bignum.c **** int mbedtls_mpi_add_abs( mbedtls_mpi *X, const mbedtls_mpi *A, const mbedtls_mpi *B )
 977:C:/Users/Yushev/git/wpcqi-optiga-trust-charge/optiga/externals/mbedtls/library\bignum.c **** {
 3578              	 .loc 1 977 0
 3579              	 .cfi_startproc
 3580              	 
 3581              	 
 3582 0000 80B5     	 push {r7,lr}
 3583              	.LCFI142:
 3584              	 .cfi_def_cfa_offset 8
 3585              	 .cfi_offset 7,-8
 3586              	 .cfi_offset 14,-4
 3587 0002 8CB0     	 sub sp,sp,#48
 3588              	.LCFI143:
 3589              	 .cfi_def_cfa_offset 56
 3590 0004 00AF     	 add r7,sp,#0
 3591              	.LCFI144:
 3592              	 .cfi_def_cfa_register 7
 3593 0006 F860     	 str r0,[r7,#12]
 3594 0008 B960     	 str r1,[r7,#8]
 3595 000a 7A60     	 str r2,[r7,#4]
 978:C:/Users/Yushev/git/wpcqi-optiga-trust-charge/optiga/externals/mbedtls/library\bignum.c ****     int ret;
 979:C:/Users/Yushev/git/wpcqi-optiga-trust-charge/optiga/externals/mbedtls/library\bignum.c ****     size_t i, j;
 980:C:/Users/Yushev/git/wpcqi-optiga-trust-charge/optiga/externals/mbedtls/library\bignum.c ****     mbedtls_mpi_uint *o, *p, c, tmp;
 981:C:/Users/Yushev/git/wpcqi-optiga-trust-charge/optiga/externals/mbedtls/library\bignum.c ****     MPI_VALIDATE_RET( X != NULL );
 982:C:/Users/Yushev/git/wpcqi-optiga-trust-charge/optiga/externals/mbedtls/library\bignum.c ****     MPI_VALIDATE_RET( A != NULL );
 983:C:/Users/Yushev/git/wpcqi-optiga-trust-charge/optiga/externals/mbedtls/library\bignum.c ****     MPI_VALIDATE_RET( B != NULL );
 984:C:/Users/Yushev/git/wpcqi-optiga-trust-charge/optiga/externals/mbedtls/library\bignum.c **** 
 985:C:/Users/Yushev/git/wpcqi-optiga-trust-charge/optiga/externals/mbedtls/library\bignum.c ****     if( X == B )
 3596              	 .loc 1 985 0
 3597 000c FA68     	 ldr r2,[r7,#12]
 3598 000e 7B68     	 ldr r3,[r7,#4]
 3599 0010 9A42     	 cmp r2,r3
 3600 0012 05D1     	 bne .L232
 3601              	.LBB3:
 986:C:/Users/Yushev/git/wpcqi-optiga-trust-charge/optiga/externals/mbedtls/library\bignum.c ****     {
 987:C:/Users/Yushev/git/wpcqi-optiga-trust-charge/optiga/externals/mbedtls/library\bignum.c ****         const mbedtls_mpi *T = A; A = X; B = T;
 3602              	 .loc 1 987 0
 3603 0014 BB68     	 ldr r3,[r7,#8]
 3604 0016 7B61     	 str r3,[r7,#20]
 3605 0018 FB68     	 ldr r3,[r7,#12]
 3606 001a BB60     	 str r3,[r7,#8]
 3607 001c 7B69     	 ldr r3,[r7,#20]
 3608 001e 7B60     	 str r3,[r7,#4]
 3609              	.L232:
 3610              	.LBE3:
 988:C:/Users/Yushev/git/wpcqi-optiga-trust-charge/optiga/externals/mbedtls/library\bignum.c ****     }
 989:C:/Users/Yushev/git/wpcqi-optiga-trust-charge/optiga/externals/mbedtls/library\bignum.c **** 
 990:C:/Users/Yushev/git/wpcqi-optiga-trust-charge/optiga/externals/mbedtls/library\bignum.c ****     if( X != A )
 3611              	 .loc 1 990 0
 3612 0020 FA68     	 ldr r2,[r7,#12]
 3613 0022 BB68     	 ldr r3,[r7,#8]
 3614 0024 9A42     	 cmp r2,r3
 3615 0026 08D0     	 beq .L233
 991:C:/Users/Yushev/git/wpcqi-optiga-trust-charge/optiga/externals/mbedtls/library\bignum.c ****         MBEDTLS_MPI_CHK( mbedtls_mpi_copy( X, A ) );
 3616              	 .loc 1 991 0
 3617 0028 F868     	 ldr r0,[r7,#12]
 3618 002a B968     	 ldr r1,[r7,#8]
 3619 002c FFF7FEFF 	 bl mbedtls_mpi_copy
 3620 0030 F862     	 str r0,[r7,#44]
 3621 0032 FB6A     	 ldr r3,[r7,#44]
 3622 0034 002B     	 cmp r3,#0
 3623 0036 00D0     	 beq .L233
 3624 0038 8CE0     	 b .L234
 3625              	.L233:
 992:C:/Users/Yushev/git/wpcqi-optiga-trust-charge/optiga/externals/mbedtls/library\bignum.c **** 
 993:C:/Users/Yushev/git/wpcqi-optiga-trust-charge/optiga/externals/mbedtls/library\bignum.c ****     /*
 994:C:/Users/Yushev/git/wpcqi-optiga-trust-charge/optiga/externals/mbedtls/library\bignum.c ****      * X should always be positive as a result of unsigned additions.
 995:C:/Users/Yushev/git/wpcqi-optiga-trust-charge/optiga/externals/mbedtls/library\bignum.c ****      */
 996:C:/Users/Yushev/git/wpcqi-optiga-trust-charge/optiga/externals/mbedtls/library\bignum.c ****     X->s = 1;
 3626              	 .loc 1 996 0
 3627 003a FB68     	 ldr r3,[r7,#12]
 3628 003c 0122     	 movs r2,#1
 3629 003e 1A60     	 str r2,[r3]
 997:C:/Users/Yushev/git/wpcqi-optiga-trust-charge/optiga/externals/mbedtls/library\bignum.c **** 
 998:C:/Users/Yushev/git/wpcqi-optiga-trust-charge/optiga/externals/mbedtls/library\bignum.c ****     for( j = B->n; j > 0; j-- )
 3630              	 .loc 1 998 0
 3631 0040 7B68     	 ldr r3,[r7,#4]
 3632 0042 5B68     	 ldr r3,[r3,#4]
 3633 0044 7B62     	 str r3,[r7,#36]
 3634 0046 0EE0     	 b .L235
 3635              	.L238:
 999:C:/Users/Yushev/git/wpcqi-optiga-trust-charge/optiga/externals/mbedtls/library\bignum.c ****         if( B->p[j - 1] != 0 )
 3636              	 .loc 1 999 0
 3637 0048 7B68     	 ldr r3,[r7,#4]
 3638 004a 9A68     	 ldr r2,[r3,#8]
 3639 004c 7B6A     	 ldr r3,[r7,#36]
 3640 004e 03F18043 	 add r3,r3,#1073741824
 3641 0052 013B     	 subs r3,r3,#1
 3642 0054 9B00     	 lsls r3,r3,#2
 3643 0056 1344     	 add r3,r3,r2
 3644 0058 1B68     	 ldr r3,[r3]
 3645 005a 002B     	 cmp r3,#0
 3646 005c 00D0     	 beq .L236
1000:C:/Users/Yushev/git/wpcqi-optiga-trust-charge/optiga/externals/mbedtls/library\bignum.c ****             break;
 3647              	 .loc 1 1000 0
 3648 005e 05E0     	 b .L237
 3649              	.L236:
 998:C:/Users/Yushev/git/wpcqi-optiga-trust-charge/optiga/externals/mbedtls/library\bignum.c ****         if( B->p[j - 1] != 0 )
 3650              	 .loc 1 998 0 discriminator 2
 3651 0060 7B6A     	 ldr r3,[r7,#36]
 3652 0062 013B     	 subs r3,r3,#1
 3653 0064 7B62     	 str r3,[r7,#36]
 3654              	.L235:
 998:C:/Users/Yushev/git/wpcqi-optiga-trust-charge/optiga/externals/mbedtls/library\bignum.c ****         if( B->p[j - 1] != 0 )
 3655              	 .loc 1 998 0 is_stmt 0 discriminator 1
 3656 0066 7B6A     	 ldr r3,[r7,#36]
 3657 0068 002B     	 cmp r3,#0
 3658 006a EDD1     	 bne .L238
 3659              	.L237:
1001:C:/Users/Yushev/git/wpcqi-optiga-trust-charge/optiga/externals/mbedtls/library\bignum.c **** 
1002:C:/Users/Yushev/git/wpcqi-optiga-trust-charge/optiga/externals/mbedtls/library\bignum.c ****     MBEDTLS_MPI_CHK( mbedtls_mpi_grow( X, j ) );
 3660              	 .loc 1 1002 0 is_stmt 1
 3661 006c F868     	 ldr r0,[r7,#12]
 3662 006e 796A     	 ldr r1,[r7,#36]
 3663 0070 FFF7FEFF 	 bl mbedtls_mpi_grow
 3664 0074 F862     	 str r0,[r7,#44]
 3665 0076 FB6A     	 ldr r3,[r7,#44]
 3666 0078 002B     	 cmp r3,#0
 3667 007a 00D0     	 beq .L239
 3668 007c 6AE0     	 b .L234
 3669              	.L239:
1003:C:/Users/Yushev/git/wpcqi-optiga-trust-charge/optiga/externals/mbedtls/library\bignum.c **** 
1004:C:/Users/Yushev/git/wpcqi-optiga-trust-charge/optiga/externals/mbedtls/library\bignum.c ****     o = B->p; p = X->p; c = 0;
 3670              	 .loc 1 1004 0
 3671 007e 7B68     	 ldr r3,[r7,#4]
 3672 0080 9B68     	 ldr r3,[r3,#8]
 3673 0082 3B62     	 str r3,[r7,#32]
 3674 0084 FB68     	 ldr r3,[r7,#12]
 3675 0086 9B68     	 ldr r3,[r3,#8]
 3676 0088 FB61     	 str r3,[r7,#28]
 3677 008a 0023     	 movs r3,#0
 3678 008c BB61     	 str r3,[r7,#24]
1005:C:/Users/Yushev/git/wpcqi-optiga-trust-charge/optiga/externals/mbedtls/library\bignum.c **** 
1006:C:/Users/Yushev/git/wpcqi-optiga-trust-charge/optiga/externals/mbedtls/library\bignum.c ****     /*
1007:C:/Users/Yushev/git/wpcqi-optiga-trust-charge/optiga/externals/mbedtls/library\bignum.c ****      * tmp is used because it might happen that p == o
1008:C:/Users/Yushev/git/wpcqi-optiga-trust-charge/optiga/externals/mbedtls/library\bignum.c ****      */
1009:C:/Users/Yushev/git/wpcqi-optiga-trust-charge/optiga/externals/mbedtls/library\bignum.c ****     for( i = 0; i < j; i++, o++, p++ )
 3679              	 .loc 1 1009 0
 3680 008e 0023     	 movs r3,#0
 3681 0090 BB62     	 str r3,[r7,#40]
 3682 0092 2CE0     	 b .L240
 3683              	.L241:
1010:C:/Users/Yushev/git/wpcqi-optiga-trust-charge/optiga/externals/mbedtls/library\bignum.c ****     {
1011:C:/Users/Yushev/git/wpcqi-optiga-trust-charge/optiga/externals/mbedtls/library\bignum.c ****         tmp= *o;
 3684              	 .loc 1 1011 0 discriminator 3
 3685 0094 3B6A     	 ldr r3,[r7,#32]
 3686 0096 1B68     	 ldr r3,[r3]
 3687 0098 3B61     	 str r3,[r7,#16]
1012:C:/Users/Yushev/git/wpcqi-optiga-trust-charge/optiga/externals/mbedtls/library\bignum.c ****         *p +=  c; c  = ( *p <  c );
 3688              	 .loc 1 1012 0 discriminator 3
 3689 009a FB69     	 ldr r3,[r7,#28]
 3690 009c 1A68     	 ldr r2,[r3]
 3691 009e BB69     	 ldr r3,[r7,#24]
 3692 00a0 1A44     	 add r2,r2,r3
 3693 00a2 FB69     	 ldr r3,[r7,#28]
 3694 00a4 1A60     	 str r2,[r3]
 3695 00a6 FB69     	 ldr r3,[r7,#28]
 3696 00a8 1A68     	 ldr r2,[r3]
 3697 00aa BB69     	 ldr r3,[r7,#24]
 3698 00ac 9A42     	 cmp r2,r3
 3699 00ae 34BF     	 ite cc
 3700 00b0 0123     	 movcc r3,#1
 3701 00b2 0023     	 movcs r3,#0
 3702 00b4 DBB2     	 uxtb r3,r3
 3703 00b6 BB61     	 str r3,[r7,#24]
1013:C:/Users/Yushev/git/wpcqi-optiga-trust-charge/optiga/externals/mbedtls/library\bignum.c ****         *p += tmp; c += ( *p < tmp );
 3704              	 .loc 1 1013 0 discriminator 3
 3705 00b8 FB69     	 ldr r3,[r7,#28]
 3706 00ba 1A68     	 ldr r2,[r3]
 3707 00bc 3B69     	 ldr r3,[r7,#16]
 3708 00be 1A44     	 add r2,r2,r3
 3709 00c0 FB69     	 ldr r3,[r7,#28]
 3710 00c2 1A60     	 str r2,[r3]
 3711 00c4 FB69     	 ldr r3,[r7,#28]
 3712 00c6 1A68     	 ldr r2,[r3]
 3713 00c8 3B69     	 ldr r3,[r7,#16]
 3714 00ca 9A42     	 cmp r2,r3
 3715 00cc 34BF     	 ite cc
 3716 00ce 0123     	 movcc r3,#1
 3717 00d0 0023     	 movcs r3,#0
 3718 00d2 DBB2     	 uxtb r3,r3
 3719 00d4 1A46     	 mov r2,r3
 3720 00d6 BB69     	 ldr r3,[r7,#24]
 3721 00d8 1344     	 add r3,r3,r2
 3722 00da BB61     	 str r3,[r7,#24]
1009:C:/Users/Yushev/git/wpcqi-optiga-trust-charge/optiga/externals/mbedtls/library\bignum.c ****     {
 3723              	 .loc 1 1009 0 discriminator 3
 3724 00dc BB6A     	 ldr r3,[r7,#40]
 3725 00de 0133     	 adds r3,r3,#1
 3726 00e0 BB62     	 str r3,[r7,#40]
 3727 00e2 3B6A     	 ldr r3,[r7,#32]
 3728 00e4 0433     	 adds r3,r3,#4
 3729 00e6 3B62     	 str r3,[r7,#32]
 3730 00e8 FB69     	 ldr r3,[r7,#28]
 3731 00ea 0433     	 adds r3,r3,#4
 3732 00ec FB61     	 str r3,[r7,#28]
 3733              	.L240:
1009:C:/Users/Yushev/git/wpcqi-optiga-trust-charge/optiga/externals/mbedtls/library\bignum.c ****     {
 3734              	 .loc 1 1009 0 is_stmt 0 discriminator 1
 3735 00ee BA6A     	 ldr r2,[r7,#40]
 3736 00f0 7B6A     	 ldr r3,[r7,#36]
 3737 00f2 9A42     	 cmp r2,r3
 3738 00f4 CED3     	 bcc .L241
1014:C:/Users/Yushev/git/wpcqi-optiga-trust-charge/optiga/externals/mbedtls/library\bignum.c ****     }
1015:C:/Users/Yushev/git/wpcqi-optiga-trust-charge/optiga/externals/mbedtls/library\bignum.c **** 
1016:C:/Users/Yushev/git/wpcqi-optiga-trust-charge/optiga/externals/mbedtls/library\bignum.c ****     while( c != 0 )
 3739              	 .loc 1 1016 0 is_stmt 1
 3740 00f6 2AE0     	 b .L242
 3741              	.L245:
1017:C:/Users/Yushev/git/wpcqi-optiga-trust-charge/optiga/externals/mbedtls/library\bignum.c ****     {
1018:C:/Users/Yushev/git/wpcqi-optiga-trust-charge/optiga/externals/mbedtls/library\bignum.c ****         if( i >= X->n )
 3742              	 .loc 1 1018 0
 3743 00f8 FB68     	 ldr r3,[r7,#12]
 3744 00fa 5A68     	 ldr r2,[r3,#4]
 3745 00fc BB6A     	 ldr r3,[r7,#40]
 3746 00fe 9A42     	 cmp r2,r3
 3747 0100 10D8     	 bhi .L243
1019:C:/Users/Yushev/git/wpcqi-optiga-trust-charge/optiga/externals/mbedtls/library\bignum.c ****         {
1020:C:/Users/Yushev/git/wpcqi-optiga-trust-charge/optiga/externals/mbedtls/library\bignum.c ****             MBEDTLS_MPI_CHK( mbedtls_mpi_grow( X, i + 1 ) );
 3748              	 .loc 1 1020 0
 3749 0102 BB6A     	 ldr r3,[r7,#40]
 3750 0104 0133     	 adds r3,r3,#1
 3751 0106 F868     	 ldr r0,[r7,#12]
 3752 0108 1946     	 mov r1,r3
 3753 010a FFF7FEFF 	 bl mbedtls_mpi_grow
 3754 010e F862     	 str r0,[r7,#44]
 3755 0110 FB6A     	 ldr r3,[r7,#44]
 3756 0112 002B     	 cmp r3,#0
 3757 0114 00D0     	 beq .L244
 3758 0116 1DE0     	 b .L234
 3759              	.L244:
1021:C:/Users/Yushev/git/wpcqi-optiga-trust-charge/optiga/externals/mbedtls/library\bignum.c ****             p = X->p + i;
 3760              	 .loc 1 1021 0
 3761 0118 FB68     	 ldr r3,[r7,#12]
 3762 011a 9A68     	 ldr r2,[r3,#8]
 3763 011c BB6A     	 ldr r3,[r7,#40]
 3764 011e 9B00     	 lsls r3,r3,#2
 3765 0120 1344     	 add r3,r3,r2
 3766 0122 FB61     	 str r3,[r7,#28]
 3767              	.L243:
1022:C:/Users/Yushev/git/wpcqi-optiga-trust-charge/optiga/externals/mbedtls/library\bignum.c ****         }
1023:C:/Users/Yushev/git/wpcqi-optiga-trust-charge/optiga/externals/mbedtls/library\bignum.c **** 
1024:C:/Users/Yushev/git/wpcqi-optiga-trust-charge/optiga/externals/mbedtls/library\bignum.c ****         *p += c; c = ( *p < c ); i++; p++;
 3768              	 .loc 1 1024 0
 3769 0124 FB69     	 ldr r3,[r7,#28]
 3770 0126 1A68     	 ldr r2,[r3]
 3771 0128 BB69     	 ldr r3,[r7,#24]
 3772 012a 1A44     	 add r2,r2,r3
 3773 012c FB69     	 ldr r3,[r7,#28]
 3774 012e 1A60     	 str r2,[r3]
 3775 0130 FB69     	 ldr r3,[r7,#28]
 3776 0132 1A68     	 ldr r2,[r3]
 3777 0134 BB69     	 ldr r3,[r7,#24]
 3778 0136 9A42     	 cmp r2,r3
 3779 0138 34BF     	 ite cc
 3780 013a 0123     	 movcc r3,#1
 3781 013c 0023     	 movcs r3,#0
 3782 013e DBB2     	 uxtb r3,r3
 3783 0140 BB61     	 str r3,[r7,#24]
 3784 0142 BB6A     	 ldr r3,[r7,#40]
 3785 0144 0133     	 adds r3,r3,#1
 3786 0146 BB62     	 str r3,[r7,#40]
 3787 0148 FB69     	 ldr r3,[r7,#28]
 3788 014a 0433     	 adds r3,r3,#4
 3789 014c FB61     	 str r3,[r7,#28]
 3790              	.L242:
1016:C:/Users/Yushev/git/wpcqi-optiga-trust-charge/optiga/externals/mbedtls/library\bignum.c ****     {
 3791              	 .loc 1 1016 0
 3792 014e BB69     	 ldr r3,[r7,#24]
 3793 0150 002B     	 cmp r3,#0
 3794 0152 D1D1     	 bne .L245
 3795              	.L234:
1025:C:/Users/Yushev/git/wpcqi-optiga-trust-charge/optiga/externals/mbedtls/library\bignum.c ****     }
1026:C:/Users/Yushev/git/wpcqi-optiga-trust-charge/optiga/externals/mbedtls/library\bignum.c **** 
1027:C:/Users/Yushev/git/wpcqi-optiga-trust-charge/optiga/externals/mbedtls/library\bignum.c **** cleanup:
1028:C:/Users/Yushev/git/wpcqi-optiga-trust-charge/optiga/externals/mbedtls/library\bignum.c **** 
1029:C:/Users/Yushev/git/wpcqi-optiga-trust-charge/optiga/externals/mbedtls/library\bignum.c ****     return( ret );
 3796              	 .loc 1 1029 0
 3797 0154 FB6A     	 ldr r3,[r7,#44]
1030:C:/Users/Yushev/git/wpcqi-optiga-trust-charge/optiga/externals/mbedtls/library\bignum.c **** }
 3798              	 .loc 1 1030 0
 3799 0156 1846     	 mov r0,r3
 3800 0158 3037     	 adds r7,r7,#48
 3801              	.LCFI145:
 3802              	 .cfi_def_cfa_offset 8
 3803 015a BD46     	 mov sp,r7
 3804              	.LCFI146:
 3805              	 .cfi_def_cfa_register 13
 3806              	 
 3807 015c 80BD     	 pop {r7,pc}
 3808              	 .cfi_endproc
 3809              	.LFE27:
 3811 015e 00BF     	 .section .text.mpi_sub_hlp,"ax",%progbits
 3812              	 .align 2
 3813              	 .thumb
 3814              	 .thumb_func
 3816              	mpi_sub_hlp:
 3817              	.LFB28:
1031:C:/Users/Yushev/git/wpcqi-optiga-trust-charge/optiga/externals/mbedtls/library\bignum.c **** 
1032:C:/Users/Yushev/git/wpcqi-optiga-trust-charge/optiga/externals/mbedtls/library\bignum.c **** /*
1033:C:/Users/Yushev/git/wpcqi-optiga-trust-charge/optiga/externals/mbedtls/library\bignum.c ****  * Helper for mbedtls_mpi subtraction
1034:C:/Users/Yushev/git/wpcqi-optiga-trust-charge/optiga/externals/mbedtls/library\bignum.c ****  */
1035:C:/Users/Yushev/git/wpcqi-optiga-trust-charge/optiga/externals/mbedtls/library\bignum.c **** static void mpi_sub_hlp( size_t n, mbedtls_mpi_uint *s, mbedtls_mpi_uint *d )
1036:C:/Users/Yushev/git/wpcqi-optiga-trust-charge/optiga/externals/mbedtls/library\bignum.c **** {
 3818              	 .loc 1 1036 0
 3819              	 .cfi_startproc
 3820              	 
 3821              	 
 3822              	 
 3823 0000 80B4     	 push {r7}
 3824              	.LCFI147:
 3825              	 .cfi_def_cfa_offset 4
 3826              	 .cfi_offset 7,-4
 3827 0002 89B0     	 sub sp,sp,#36
 3828              	.LCFI148:
 3829              	 .cfi_def_cfa_offset 40
 3830 0004 00AF     	 add r7,sp,#0
 3831              	.LCFI149:
 3832              	 .cfi_def_cfa_register 7
 3833 0006 F860     	 str r0,[r7,#12]
 3834 0008 B960     	 str r1,[r7,#8]
 3835 000a 7A60     	 str r2,[r7,#4]
1037:C:/Users/Yushev/git/wpcqi-optiga-trust-charge/optiga/externals/mbedtls/library\bignum.c ****     size_t i;
1038:C:/Users/Yushev/git/wpcqi-optiga-trust-charge/optiga/externals/mbedtls/library\bignum.c ****     mbedtls_mpi_uint c, z;
1039:C:/Users/Yushev/git/wpcqi-optiga-trust-charge/optiga/externals/mbedtls/library\bignum.c **** 
1040:C:/Users/Yushev/git/wpcqi-optiga-trust-charge/optiga/externals/mbedtls/library\bignum.c ****     for( i = c = 0; i < n; i++, s++, d++ )
 3836              	 .loc 1 1040 0
 3837 000c 0023     	 movs r3,#0
 3838 000e BB61     	 str r3,[r7,#24]
 3839 0010 0023     	 movs r3,#0
 3840 0012 FB61     	 str r3,[r7,#28]
 3841 0014 2BE0     	 b .L248
 3842              	.L249:
1041:C:/Users/Yushev/git/wpcqi-optiga-trust-charge/optiga/externals/mbedtls/library\bignum.c ****     {
1042:C:/Users/Yushev/git/wpcqi-optiga-trust-charge/optiga/externals/mbedtls/library\bignum.c ****         z = ( *d <  c );     *d -=  c;
 3843              	 .loc 1 1042 0 discriminator 3
 3844 0016 7B68     	 ldr r3,[r7,#4]
 3845 0018 1A68     	 ldr r2,[r3]
 3846 001a BB69     	 ldr r3,[r7,#24]
 3847 001c 9A42     	 cmp r2,r3
 3848 001e 34BF     	 ite cc
 3849 0020 0123     	 movcc r3,#1
 3850 0022 0023     	 movcs r3,#0
 3851 0024 DBB2     	 uxtb r3,r3
 3852 0026 7B61     	 str r3,[r7,#20]
 3853 0028 7B68     	 ldr r3,[r7,#4]
 3854 002a 1A68     	 ldr r2,[r3]
 3855 002c BB69     	 ldr r3,[r7,#24]
 3856 002e D21A     	 subs r2,r2,r3
 3857 0030 7B68     	 ldr r3,[r7,#4]
 3858 0032 1A60     	 str r2,[r3]
1043:C:/Users/Yushev/git/wpcqi-optiga-trust-charge/optiga/externals/mbedtls/library\bignum.c ****         c = ( *d < *s ) + z; *d -= *s;
 3859              	 .loc 1 1043 0 discriminator 3
 3860 0034 7B68     	 ldr r3,[r7,#4]
 3861 0036 1A68     	 ldr r2,[r3]
 3862 0038 BB68     	 ldr r3,[r7,#8]
 3863 003a 1B68     	 ldr r3,[r3]
 3864 003c 9A42     	 cmp r2,r3
 3865 003e 34BF     	 ite cc
 3866 0040 0123     	 movcc r3,#1
 3867 0042 0023     	 movcs r3,#0
 3868 0044 DBB2     	 uxtb r3,r3
 3869 0046 1A46     	 mov r2,r3
 3870 0048 7B69     	 ldr r3,[r7,#20]
 3871 004a 1344     	 add r3,r3,r2
 3872 004c BB61     	 str r3,[r7,#24]
 3873 004e 7B68     	 ldr r3,[r7,#4]
 3874 0050 1A68     	 ldr r2,[r3]
 3875 0052 BB68     	 ldr r3,[r7,#8]
 3876 0054 1B68     	 ldr r3,[r3]
 3877 0056 D21A     	 subs r2,r2,r3
 3878 0058 7B68     	 ldr r3,[r7,#4]
 3879 005a 1A60     	 str r2,[r3]
1040:C:/Users/Yushev/git/wpcqi-optiga-trust-charge/optiga/externals/mbedtls/library\bignum.c ****     {
 3880              	 .loc 1 1040 0 discriminator 3
 3881 005c FB69     	 ldr r3,[r7,#28]
 3882 005e 0133     	 adds r3,r3,#1
 3883 0060 FB61     	 str r3,[r7,#28]
 3884 0062 BB68     	 ldr r3,[r7,#8]
 3885 0064 0433     	 adds r3,r3,#4
 3886 0066 BB60     	 str r3,[r7,#8]
 3887 0068 7B68     	 ldr r3,[r7,#4]
 3888 006a 0433     	 adds r3,r3,#4
 3889 006c 7B60     	 str r3,[r7,#4]
 3890              	.L248:
1040:C:/Users/Yushev/git/wpcqi-optiga-trust-charge/optiga/externals/mbedtls/library\bignum.c ****     {
 3891              	 .loc 1 1040 0 is_stmt 0 discriminator 1
 3892 006e FA69     	 ldr r2,[r7,#28]
 3893 0070 FB68     	 ldr r3,[r7,#12]
 3894 0072 9A42     	 cmp r2,r3
 3895 0074 CFD3     	 bcc .L249
1044:C:/Users/Yushev/git/wpcqi-optiga-trust-charge/optiga/externals/mbedtls/library\bignum.c ****     }
1045:C:/Users/Yushev/git/wpcqi-optiga-trust-charge/optiga/externals/mbedtls/library\bignum.c **** 
1046:C:/Users/Yushev/git/wpcqi-optiga-trust-charge/optiga/externals/mbedtls/library\bignum.c ****     while( c != 0 )
 3896              	 .loc 1 1046 0 is_stmt 1
 3897 0076 13E0     	 b .L250
 3898              	.L251:
1047:C:/Users/Yushev/git/wpcqi-optiga-trust-charge/optiga/externals/mbedtls/library\bignum.c ****     {
1048:C:/Users/Yushev/git/wpcqi-optiga-trust-charge/optiga/externals/mbedtls/library\bignum.c ****         z = ( *d < c ); *d -= c;
 3899              	 .loc 1 1048 0
 3900 0078 7B68     	 ldr r3,[r7,#4]
 3901 007a 1A68     	 ldr r2,[r3]
 3902 007c BB69     	 ldr r3,[r7,#24]
 3903 007e 9A42     	 cmp r2,r3
 3904 0080 34BF     	 ite cc
 3905 0082 0123     	 movcc r3,#1
 3906 0084 0023     	 movcs r3,#0
 3907 0086 DBB2     	 uxtb r3,r3
 3908 0088 7B61     	 str r3,[r7,#20]
 3909 008a 7B68     	 ldr r3,[r7,#4]
 3910 008c 1A68     	 ldr r2,[r3]
 3911 008e BB69     	 ldr r3,[r7,#24]
 3912 0090 D21A     	 subs r2,r2,r3
 3913 0092 7B68     	 ldr r3,[r7,#4]
 3914 0094 1A60     	 str r2,[r3]
1049:C:/Users/Yushev/git/wpcqi-optiga-trust-charge/optiga/externals/mbedtls/library\bignum.c ****         c = z; d++;
 3915              	 .loc 1 1049 0
 3916 0096 7B69     	 ldr r3,[r7,#20]
 3917 0098 BB61     	 str r3,[r7,#24]
 3918 009a 7B68     	 ldr r3,[r7,#4]
 3919 009c 0433     	 adds r3,r3,#4
 3920 009e 7B60     	 str r3,[r7,#4]
 3921              	.L250:
1046:C:/Users/Yushev/git/wpcqi-optiga-trust-charge/optiga/externals/mbedtls/library\bignum.c ****     {
 3922              	 .loc 1 1046 0
 3923 00a0 BB69     	 ldr r3,[r7,#24]
 3924 00a2 002B     	 cmp r3,#0
 3925 00a4 E8D1     	 bne .L251
1050:C:/Users/Yushev/git/wpcqi-optiga-trust-charge/optiga/externals/mbedtls/library\bignum.c ****     }
1051:C:/Users/Yushev/git/wpcqi-optiga-trust-charge/optiga/externals/mbedtls/library\bignum.c **** }
 3926              	 .loc 1 1051 0
 3927 00a6 2437     	 adds r7,r7,#36
 3928              	.LCFI150:
 3929              	 .cfi_def_cfa_offset 4
 3930 00a8 BD46     	 mov sp,r7
 3931              	.LCFI151:
 3932              	 .cfi_def_cfa_register 13
 3933              	 
 3934 00aa 5DF8047B 	 ldr r7,[sp],#4
 3935              	.LCFI152:
 3936              	 .cfi_restore 7
 3937              	 .cfi_def_cfa_offset 0
 3938 00ae 7047     	 bx lr
 3939              	 .cfi_endproc
 3940              	.LFE28:
 3942              	 .section .text.mbedtls_mpi_sub_abs,"ax",%progbits
 3943              	 .align 2
 3944              	 .global mbedtls_mpi_sub_abs
 3945              	 .thumb
 3946              	 .thumb_func
 3948              	mbedtls_mpi_sub_abs:
 3949              	.LFB29:
1052:C:/Users/Yushev/git/wpcqi-optiga-trust-charge/optiga/externals/mbedtls/library\bignum.c **** 
1053:C:/Users/Yushev/git/wpcqi-optiga-trust-charge/optiga/externals/mbedtls/library\bignum.c **** /*
1054:C:/Users/Yushev/git/wpcqi-optiga-trust-charge/optiga/externals/mbedtls/library\bignum.c ****  * Unsigned subtraction: X = |A| - |B|  (HAC 14.9)
1055:C:/Users/Yushev/git/wpcqi-optiga-trust-charge/optiga/externals/mbedtls/library\bignum.c ****  */
1056:C:/Users/Yushev/git/wpcqi-optiga-trust-charge/optiga/externals/mbedtls/library\bignum.c **** int mbedtls_mpi_sub_abs( mbedtls_mpi *X, const mbedtls_mpi *A, const mbedtls_mpi *B )
1057:C:/Users/Yushev/git/wpcqi-optiga-trust-charge/optiga/externals/mbedtls/library\bignum.c **** {
 3950              	 .loc 1 1057 0
 3951              	 .cfi_startproc
 3952              	 
 3953              	 
 3954 0000 80B5     	 push {r7,lr}
 3955              	.LCFI153:
 3956              	 .cfi_def_cfa_offset 8
 3957              	 .cfi_offset 7,-8
 3958              	 .cfi_offset 14,-4
 3959 0002 8AB0     	 sub sp,sp,#40
 3960              	.LCFI154:
 3961              	 .cfi_def_cfa_offset 48
 3962 0004 00AF     	 add r7,sp,#0
 3963              	.LCFI155:
 3964              	 .cfi_def_cfa_register 7
 3965 0006 F860     	 str r0,[r7,#12]
 3966 0008 B960     	 str r1,[r7,#8]
 3967 000a 7A60     	 str r2,[r7,#4]
1058:C:/Users/Yushev/git/wpcqi-optiga-trust-charge/optiga/externals/mbedtls/library\bignum.c ****     mbedtls_mpi TB;
1059:C:/Users/Yushev/git/wpcqi-optiga-trust-charge/optiga/externals/mbedtls/library\bignum.c ****     int ret;
1060:C:/Users/Yushev/git/wpcqi-optiga-trust-charge/optiga/externals/mbedtls/library\bignum.c ****     size_t n;
1061:C:/Users/Yushev/git/wpcqi-optiga-trust-charge/optiga/externals/mbedtls/library\bignum.c ****     MPI_VALIDATE_RET( X != NULL );
1062:C:/Users/Yushev/git/wpcqi-optiga-trust-charge/optiga/externals/mbedtls/library\bignum.c ****     MPI_VALIDATE_RET( A != NULL );
1063:C:/Users/Yushev/git/wpcqi-optiga-trust-charge/optiga/externals/mbedtls/library\bignum.c ****     MPI_VALIDATE_RET( B != NULL );
1064:C:/Users/Yushev/git/wpcqi-optiga-trust-charge/optiga/externals/mbedtls/library\bignum.c **** 
1065:C:/Users/Yushev/git/wpcqi-optiga-trust-charge/optiga/externals/mbedtls/library\bignum.c ****     if( mbedtls_mpi_cmp_abs( A, B ) < 0 )
 3968              	 .loc 1 1065 0
 3969 000c B868     	 ldr r0,[r7,#8]
 3970 000e 7968     	 ldr r1,[r7,#4]
 3971 0010 FFF7FEFF 	 bl mbedtls_mpi_cmp_abs
 3972 0014 0346     	 mov r3,r0
 3973 0016 002B     	 cmp r3,#0
 3974 0018 02DA     	 bge .L253
1066:C:/Users/Yushev/git/wpcqi-optiga-trust-charge/optiga/externals/mbedtls/library\bignum.c ****         return( MBEDTLS_ERR_MPI_NEGATIVE_VALUE );
 3975              	 .loc 1 1066 0
 3976 001a 6FF00903 	 mvn r3,#9
 3977 001e 4DE0     	 b .L263
 3978              	.L253:
1067:C:/Users/Yushev/git/wpcqi-optiga-trust-charge/optiga/externals/mbedtls/library\bignum.c **** 
1068:C:/Users/Yushev/git/wpcqi-optiga-trust-charge/optiga/externals/mbedtls/library\bignum.c ****     mbedtls_mpi_init( &TB );
 3979              	 .loc 1 1068 0
 3980 0020 07F11403 	 add r3,r7,#20
 3981 0024 1846     	 mov r0,r3
 3982 0026 FFF7FEFF 	 bl mbedtls_mpi_init
1069:C:/Users/Yushev/git/wpcqi-optiga-trust-charge/optiga/externals/mbedtls/library\bignum.c **** 
1070:C:/Users/Yushev/git/wpcqi-optiga-trust-charge/optiga/externals/mbedtls/library\bignum.c ****     if( X == B )
 3983              	 .loc 1 1070 0
 3984 002a FA68     	 ldr r2,[r7,#12]
 3985 002c 7B68     	 ldr r3,[r7,#4]
 3986 002e 9A42     	 cmp r2,r3
 3987 0030 0DD1     	 bne .L255
1071:C:/Users/Yushev/git/wpcqi-optiga-trust-charge/optiga/externals/mbedtls/library\bignum.c ****     {
1072:C:/Users/Yushev/git/wpcqi-optiga-trust-charge/optiga/externals/mbedtls/library\bignum.c ****         MBEDTLS_MPI_CHK( mbedtls_mpi_copy( &TB, B ) );
 3988              	 .loc 1 1072 0
 3989 0032 07F11403 	 add r3,r7,#20
 3990 0036 1846     	 mov r0,r3
 3991 0038 7968     	 ldr r1,[r7,#4]
 3992 003a FFF7FEFF 	 bl mbedtls_mpi_copy
 3993 003e 7862     	 str r0,[r7,#36]
 3994 0040 7B6A     	 ldr r3,[r7,#36]
 3995 0042 002B     	 cmp r3,#0
 3996 0044 00D0     	 beq .L256
 3997 0046 33E0     	 b .L257
 3998              	.L256:
1073:C:/Users/Yushev/git/wpcqi-optiga-trust-charge/optiga/externals/mbedtls/library\bignum.c ****         B = &TB;
 3999              	 .loc 1 1073 0
 4000 0048 07F11403 	 add r3,r7,#20
 4001 004c 7B60     	 str r3,[r7,#4]
 4002              	.L255:
1074:C:/Users/Yushev/git/wpcqi-optiga-trust-charge/optiga/externals/mbedtls/library\bignum.c ****     }
1075:C:/Users/Yushev/git/wpcqi-optiga-trust-charge/optiga/externals/mbedtls/library\bignum.c **** 
1076:C:/Users/Yushev/git/wpcqi-optiga-trust-charge/optiga/externals/mbedtls/library\bignum.c ****     if( X != A )
 4003              	 .loc 1 1076 0
 4004 004e FA68     	 ldr r2,[r7,#12]
 4005 0050 BB68     	 ldr r3,[r7,#8]
 4006 0052 9A42     	 cmp r2,r3
 4007 0054 08D0     	 beq .L258
1077:C:/Users/Yushev/git/wpcqi-optiga-trust-charge/optiga/externals/mbedtls/library\bignum.c ****         MBEDTLS_MPI_CHK( mbedtls_mpi_copy( X, A ) );
 4008              	 .loc 1 1077 0
 4009 0056 F868     	 ldr r0,[r7,#12]
 4010 0058 B968     	 ldr r1,[r7,#8]
 4011 005a FFF7FEFF 	 bl mbedtls_mpi_copy
 4012 005e 7862     	 str r0,[r7,#36]
 4013 0060 7B6A     	 ldr r3,[r7,#36]
 4014 0062 002B     	 cmp r3,#0
 4015 0064 00D0     	 beq .L258
 4016 0066 23E0     	 b .L257
 4017              	.L258:
1078:C:/Users/Yushev/git/wpcqi-optiga-trust-charge/optiga/externals/mbedtls/library\bignum.c **** 
1079:C:/Users/Yushev/git/wpcqi-optiga-trust-charge/optiga/externals/mbedtls/library\bignum.c ****     /*
1080:C:/Users/Yushev/git/wpcqi-optiga-trust-charge/optiga/externals/mbedtls/library\bignum.c ****      * X should always be positive as a result of unsigned subtractions.
1081:C:/Users/Yushev/git/wpcqi-optiga-trust-charge/optiga/externals/mbedtls/library\bignum.c ****      */
1082:C:/Users/Yushev/git/wpcqi-optiga-trust-charge/optiga/externals/mbedtls/library\bignum.c ****     X->s = 1;
 4018              	 .loc 1 1082 0
 4019 0068 FB68     	 ldr r3,[r7,#12]
 4020 006a 0122     	 movs r2,#1
 4021 006c 1A60     	 str r2,[r3]
1083:C:/Users/Yushev/git/wpcqi-optiga-trust-charge/optiga/externals/mbedtls/library\bignum.c **** 
1084:C:/Users/Yushev/git/wpcqi-optiga-trust-charge/optiga/externals/mbedtls/library\bignum.c ****     ret = 0;
 4022              	 .loc 1 1084 0
 4023 006e 0023     	 movs r3,#0
 4024 0070 7B62     	 str r3,[r7,#36]
1085:C:/Users/Yushev/git/wpcqi-optiga-trust-charge/optiga/externals/mbedtls/library\bignum.c **** 
1086:C:/Users/Yushev/git/wpcqi-optiga-trust-charge/optiga/externals/mbedtls/library\bignum.c ****     for( n = B->n; n > 0; n-- )
 4025              	 .loc 1 1086 0
 4026 0072 7B68     	 ldr r3,[r7,#4]
 4027 0074 5B68     	 ldr r3,[r3,#4]
 4028 0076 3B62     	 str r3,[r7,#32]
 4029 0078 0EE0     	 b .L259
 4030              	.L262:
1087:C:/Users/Yushev/git/wpcqi-optiga-trust-charge/optiga/externals/mbedtls/library\bignum.c ****         if( B->p[n - 1] != 0 )
 4031              	 .loc 1 1087 0
 4032 007a 7B68     	 ldr r3,[r7,#4]
 4033 007c 9A68     	 ldr r2,[r3,#8]
 4034 007e 3B6A     	 ldr r3,[r7,#32]
 4035 0080 03F18043 	 add r3,r3,#1073741824
 4036 0084 013B     	 subs r3,r3,#1
 4037 0086 9B00     	 lsls r3,r3,#2
 4038 0088 1344     	 add r3,r3,r2
 4039 008a 1B68     	 ldr r3,[r3]
 4040 008c 002B     	 cmp r3,#0
 4041 008e 00D0     	 beq .L260
1088:C:/Users/Yushev/git/wpcqi-optiga-trust-charge/optiga/externals/mbedtls/library\bignum.c ****             break;
 4042              	 .loc 1 1088 0
 4043 0090 05E0     	 b .L261
 4044              	.L260:
1086:C:/Users/Yushev/git/wpcqi-optiga-trust-charge/optiga/externals/mbedtls/library\bignum.c ****         if( B->p[n - 1] != 0 )
 4045              	 .loc 1 1086 0 discriminator 2
 4046 0092 3B6A     	 ldr r3,[r7,#32]
 4047 0094 013B     	 subs r3,r3,#1
 4048 0096 3B62     	 str r3,[r7,#32]
 4049              	.L259:
1086:C:/Users/Yushev/git/wpcqi-optiga-trust-charge/optiga/externals/mbedtls/library\bignum.c ****         if( B->p[n - 1] != 0 )
 4050              	 .loc 1 1086 0 is_stmt 0 discriminator 1
 4051 0098 3B6A     	 ldr r3,[r7,#32]
 4052 009a 002B     	 cmp r3,#0
 4053 009c EDD1     	 bne .L262
 4054              	.L261:
1089:C:/Users/Yushev/git/wpcqi-optiga-trust-charge/optiga/externals/mbedtls/library\bignum.c **** 
1090:C:/Users/Yushev/git/wpcqi-optiga-trust-charge/optiga/externals/mbedtls/library\bignum.c ****     mpi_sub_hlp( n, B->p, X->p );
 4055              	 .loc 1 1090 0 is_stmt 1
 4056 009e 7B68     	 ldr r3,[r7,#4]
 4057 00a0 9A68     	 ldr r2,[r3,#8]
 4058 00a2 FB68     	 ldr r3,[r7,#12]
 4059 00a4 9B68     	 ldr r3,[r3,#8]
 4060 00a6 386A     	 ldr r0,[r7,#32]
 4061 00a8 1146     	 mov r1,r2
 4062 00aa 1A46     	 mov r2,r3
 4063 00ac FFF7FEFF 	 bl mpi_sub_hlp
 4064              	.L257:
1091:C:/Users/Yushev/git/wpcqi-optiga-trust-charge/optiga/externals/mbedtls/library\bignum.c **** 
1092:C:/Users/Yushev/git/wpcqi-optiga-trust-charge/optiga/externals/mbedtls/library\bignum.c **** cleanup:
1093:C:/Users/Yushev/git/wpcqi-optiga-trust-charge/optiga/externals/mbedtls/library\bignum.c **** 
1094:C:/Users/Yushev/git/wpcqi-optiga-trust-charge/optiga/externals/mbedtls/library\bignum.c ****     mbedtls_mpi_free( &TB );
 4065              	 .loc 1 1094 0
 4066 00b0 07F11403 	 add r3,r7,#20
 4067 00b4 1846     	 mov r0,r3
 4068 00b6 FFF7FEFF 	 bl mbedtls_mpi_free
1095:C:/Users/Yushev/git/wpcqi-optiga-trust-charge/optiga/externals/mbedtls/library\bignum.c **** 
1096:C:/Users/Yushev/git/wpcqi-optiga-trust-charge/optiga/externals/mbedtls/library\bignum.c ****     return( ret );
 4069              	 .loc 1 1096 0
 4070 00ba 7B6A     	 ldr r3,[r7,#36]
 4071              	.L263:
1097:C:/Users/Yushev/git/wpcqi-optiga-trust-charge/optiga/externals/mbedtls/library\bignum.c **** }
 4072              	 .loc 1 1097 0 discriminator 1
 4073 00bc 1846     	 mov r0,r3
 4074 00be 2837     	 adds r7,r7,#40
 4075              	.LCFI156:
 4076              	 .cfi_def_cfa_offset 8
 4077 00c0 BD46     	 mov sp,r7
 4078              	.LCFI157:
 4079              	 .cfi_def_cfa_register 13
 4080              	 
 4081 00c2 80BD     	 pop {r7,pc}
 4082              	 .cfi_endproc
 4083              	.LFE29:
 4085              	 .section .text.mbedtls_mpi_add_mpi,"ax",%progbits
 4086              	 .align 2
 4087              	 .global mbedtls_mpi_add_mpi
 4088              	 .thumb
 4089              	 .thumb_func
 4091              	mbedtls_mpi_add_mpi:
 4092              	.LFB30:
1098:C:/Users/Yushev/git/wpcqi-optiga-trust-charge/optiga/externals/mbedtls/library\bignum.c **** 
1099:C:/Users/Yushev/git/wpcqi-optiga-trust-charge/optiga/externals/mbedtls/library\bignum.c **** /*
1100:C:/Users/Yushev/git/wpcqi-optiga-trust-charge/optiga/externals/mbedtls/library\bignum.c ****  * Signed addition: X = A + B
1101:C:/Users/Yushev/git/wpcqi-optiga-trust-charge/optiga/externals/mbedtls/library\bignum.c ****  */
1102:C:/Users/Yushev/git/wpcqi-optiga-trust-charge/optiga/externals/mbedtls/library\bignum.c **** int mbedtls_mpi_add_mpi( mbedtls_mpi *X, const mbedtls_mpi *A, const mbedtls_mpi *B )
1103:C:/Users/Yushev/git/wpcqi-optiga-trust-charge/optiga/externals/mbedtls/library\bignum.c **** {
 4093              	 .loc 1 1103 0
 4094              	 .cfi_startproc
 4095              	 
 4096              	 
 4097 0000 80B5     	 push {r7,lr}
 4098              	.LCFI158:
 4099              	 .cfi_def_cfa_offset 8
 4100              	 .cfi_offset 7,-8
 4101              	 .cfi_offset 14,-4
 4102 0002 86B0     	 sub sp,sp,#24
 4103              	.LCFI159:
 4104              	 .cfi_def_cfa_offset 32
 4105 0004 00AF     	 add r7,sp,#0
 4106              	.LCFI160:
 4107              	 .cfi_def_cfa_register 7
 4108 0006 F860     	 str r0,[r7,#12]
 4109 0008 B960     	 str r1,[r7,#8]
 4110 000a 7A60     	 str r2,[r7,#4]
1104:C:/Users/Yushev/git/wpcqi-optiga-trust-charge/optiga/externals/mbedtls/library\bignum.c ****     int ret, s;
1105:C:/Users/Yushev/git/wpcqi-optiga-trust-charge/optiga/externals/mbedtls/library\bignum.c ****     MPI_VALIDATE_RET( X != NULL );
1106:C:/Users/Yushev/git/wpcqi-optiga-trust-charge/optiga/externals/mbedtls/library\bignum.c ****     MPI_VALIDATE_RET( A != NULL );
1107:C:/Users/Yushev/git/wpcqi-optiga-trust-charge/optiga/externals/mbedtls/library\bignum.c ****     MPI_VALIDATE_RET( B != NULL );
1108:C:/Users/Yushev/git/wpcqi-optiga-trust-charge/optiga/externals/mbedtls/library\bignum.c **** 
1109:C:/Users/Yushev/git/wpcqi-optiga-trust-charge/optiga/externals/mbedtls/library\bignum.c ****     s = A->s;
 4111              	 .loc 1 1109 0
 4112 000c BB68     	 ldr r3,[r7,#8]
 4113 000e 1B68     	 ldr r3,[r3]
 4114 0010 3B61     	 str r3,[r7,#16]
1110:C:/Users/Yushev/git/wpcqi-optiga-trust-charge/optiga/externals/mbedtls/library\bignum.c ****     if( A->s * B->s < 0 )
 4115              	 .loc 1 1110 0
 4116 0012 BB68     	 ldr r3,[r7,#8]
 4117 0014 1B68     	 ldr r3,[r3]
 4118 0016 7A68     	 ldr r2,[r7,#4]
 4119 0018 1268     	 ldr r2,[r2]
 4120 001a 02FB03F3 	 mul r3,r2,r3
 4121 001e 002B     	 cmp r3,#0
 4122 0020 23DA     	 bge .L265
1111:C:/Users/Yushev/git/wpcqi-optiga-trust-charge/optiga/externals/mbedtls/library\bignum.c ****     {
1112:C:/Users/Yushev/git/wpcqi-optiga-trust-charge/optiga/externals/mbedtls/library\bignum.c ****         if( mbedtls_mpi_cmp_abs( A, B ) >= 0 )
 4123              	 .loc 1 1112 0
 4124 0022 B868     	 ldr r0,[r7,#8]
 4125 0024 7968     	 ldr r1,[r7,#4]
 4126 0026 FFF7FEFF 	 bl mbedtls_mpi_cmp_abs
 4127 002a 0346     	 mov r3,r0
 4128 002c 002B     	 cmp r3,#0
 4129 002e 0DDB     	 blt .L266
1113:C:/Users/Yushev/git/wpcqi-optiga-trust-charge/optiga/externals/mbedtls/library\bignum.c ****         {
1114:C:/Users/Yushev/git/wpcqi-optiga-trust-charge/optiga/externals/mbedtls/library\bignum.c ****             MBEDTLS_MPI_CHK( mbedtls_mpi_sub_abs( X, A, B ) );
 4130              	 .loc 1 1114 0
 4131 0030 F868     	 ldr r0,[r7,#12]
 4132 0032 B968     	 ldr r1,[r7,#8]
 4133 0034 7A68     	 ldr r2,[r7,#4]
 4134 0036 FFF7FEFF 	 bl mbedtls_mpi_sub_abs
 4135 003a 7861     	 str r0,[r7,#20]
 4136 003c 7B69     	 ldr r3,[r7,#20]
 4137 003e 002B     	 cmp r3,#0
 4138 0040 00D0     	 beq .L267
 4139 0042 1FE0     	 b .L268
 4140              	.L267:
1115:C:/Users/Yushev/git/wpcqi-optiga-trust-charge/optiga/externals/mbedtls/library\bignum.c ****             X->s =  s;
 4141              	 .loc 1 1115 0
 4142 0044 FB68     	 ldr r3,[r7,#12]
 4143 0046 3A69     	 ldr r2,[r7,#16]
 4144 0048 1A60     	 str r2,[r3]
 4145 004a 1BE0     	 b .L268
 4146              	.L266:
1116:C:/Users/Yushev/git/wpcqi-optiga-trust-charge/optiga/externals/mbedtls/library\bignum.c ****         }
1117:C:/Users/Yushev/git/wpcqi-optiga-trust-charge/optiga/externals/mbedtls/library\bignum.c ****         else
1118:C:/Users/Yushev/git/wpcqi-optiga-trust-charge/optiga/externals/mbedtls/library\bignum.c ****         {
1119:C:/Users/Yushev/git/wpcqi-optiga-trust-charge/optiga/externals/mbedtls/library\bignum.c ****             MBEDTLS_MPI_CHK( mbedtls_mpi_sub_abs( X, B, A ) );
 4147              	 .loc 1 1119 0
 4148 004c F868     	 ldr r0,[r7,#12]
 4149 004e 7968     	 ldr r1,[r7,#4]
 4150 0050 BA68     	 ldr r2,[r7,#8]
 4151 0052 FFF7FEFF 	 bl mbedtls_mpi_sub_abs
 4152 0056 7861     	 str r0,[r7,#20]
 4153 0058 7B69     	 ldr r3,[r7,#20]
 4154 005a 002B     	 cmp r3,#0
 4155 005c 00D0     	 beq .L270
 4156 005e 11E0     	 b .L268
 4157              	.L270:
1120:C:/Users/Yushev/git/wpcqi-optiga-trust-charge/optiga/externals/mbedtls/library\bignum.c ****             X->s = -s;
 4158              	 .loc 1 1120 0
 4159 0060 3B69     	 ldr r3,[r7,#16]
 4160 0062 5A42     	 negs r2,r3
 4161 0064 FB68     	 ldr r3,[r7,#12]
 4162 0066 1A60     	 str r2,[r3]
 4163 0068 0CE0     	 b .L268
 4164              	.L265:
1121:C:/Users/Yushev/git/wpcqi-optiga-trust-charge/optiga/externals/mbedtls/library\bignum.c ****         }
1122:C:/Users/Yushev/git/wpcqi-optiga-trust-charge/optiga/externals/mbedtls/library\bignum.c ****     }
1123:C:/Users/Yushev/git/wpcqi-optiga-trust-charge/optiga/externals/mbedtls/library\bignum.c ****     else
1124:C:/Users/Yushev/git/wpcqi-optiga-trust-charge/optiga/externals/mbedtls/library\bignum.c ****     {
1125:C:/Users/Yushev/git/wpcqi-optiga-trust-charge/optiga/externals/mbedtls/library\bignum.c ****         MBEDTLS_MPI_CHK( mbedtls_mpi_add_abs( X, A, B ) );
 4165              	 .loc 1 1125 0
 4166 006a F868     	 ldr r0,[r7,#12]
 4167 006c B968     	 ldr r1,[r7,#8]
 4168 006e 7A68     	 ldr r2,[r7,#4]
 4169 0070 FFF7FEFF 	 bl mbedtls_mpi_add_abs
 4170 0074 7861     	 str r0,[r7,#20]
 4171 0076 7B69     	 ldr r3,[r7,#20]
 4172 0078 002B     	 cmp r3,#0
 4173 007a 00D0     	 beq .L271
 4174 007c 02E0     	 b .L268
 4175              	.L271:
1126:C:/Users/Yushev/git/wpcqi-optiga-trust-charge/optiga/externals/mbedtls/library\bignum.c ****         X->s = s;
 4176              	 .loc 1 1126 0
 4177 007e FB68     	 ldr r3,[r7,#12]
 4178 0080 3A69     	 ldr r2,[r7,#16]
 4179 0082 1A60     	 str r2,[r3]
 4180              	.L268:
1127:C:/Users/Yushev/git/wpcqi-optiga-trust-charge/optiga/externals/mbedtls/library\bignum.c ****     }
1128:C:/Users/Yushev/git/wpcqi-optiga-trust-charge/optiga/externals/mbedtls/library\bignum.c **** 
1129:C:/Users/Yushev/git/wpcqi-optiga-trust-charge/optiga/externals/mbedtls/library\bignum.c **** cleanup:
1130:C:/Users/Yushev/git/wpcqi-optiga-trust-charge/optiga/externals/mbedtls/library\bignum.c **** 
1131:C:/Users/Yushev/git/wpcqi-optiga-trust-charge/optiga/externals/mbedtls/library\bignum.c ****     return( ret );
 4181              	 .loc 1 1131 0
 4182 0084 7B69     	 ldr r3,[r7,#20]
1132:C:/Users/Yushev/git/wpcqi-optiga-trust-charge/optiga/externals/mbedtls/library\bignum.c **** }
 4183              	 .loc 1 1132 0
 4184 0086 1846     	 mov r0,r3
 4185 0088 1837     	 adds r7,r7,#24
 4186              	.LCFI161:
 4187              	 .cfi_def_cfa_offset 8
 4188 008a BD46     	 mov sp,r7
 4189              	.LCFI162:
 4190              	 .cfi_def_cfa_register 13
 4191              	 
 4192 008c 80BD     	 pop {r7,pc}
 4193              	 .cfi_endproc
 4194              	.LFE30:
 4196 008e 00BF     	 .section .text.mbedtls_mpi_sub_mpi,"ax",%progbits
 4197              	 .align 2
 4198              	 .global mbedtls_mpi_sub_mpi
 4199              	 .thumb
 4200              	 .thumb_func
 4202              	mbedtls_mpi_sub_mpi:
 4203              	.LFB31:
1133:C:/Users/Yushev/git/wpcqi-optiga-trust-charge/optiga/externals/mbedtls/library\bignum.c **** 
1134:C:/Users/Yushev/git/wpcqi-optiga-trust-charge/optiga/externals/mbedtls/library\bignum.c **** /*
1135:C:/Users/Yushev/git/wpcqi-optiga-trust-charge/optiga/externals/mbedtls/library\bignum.c ****  * Signed subtraction: X = A - B
1136:C:/Users/Yushev/git/wpcqi-optiga-trust-charge/optiga/externals/mbedtls/library\bignum.c ****  */
1137:C:/Users/Yushev/git/wpcqi-optiga-trust-charge/optiga/externals/mbedtls/library\bignum.c **** int mbedtls_mpi_sub_mpi( mbedtls_mpi *X, const mbedtls_mpi *A, const mbedtls_mpi *B )
1138:C:/Users/Yushev/git/wpcqi-optiga-trust-charge/optiga/externals/mbedtls/library\bignum.c **** {
 4204              	 .loc 1 1138 0
 4205              	 .cfi_startproc
 4206              	 
 4207              	 
 4208 0000 80B5     	 push {r7,lr}
 4209              	.LCFI163:
 4210              	 .cfi_def_cfa_offset 8
 4211              	 .cfi_offset 7,-8
 4212              	 .cfi_offset 14,-4
 4213 0002 86B0     	 sub sp,sp,#24
 4214              	.LCFI164:
 4215              	 .cfi_def_cfa_offset 32
 4216 0004 00AF     	 add r7,sp,#0
 4217              	.LCFI165:
 4218              	 .cfi_def_cfa_register 7
 4219 0006 F860     	 str r0,[r7,#12]
 4220 0008 B960     	 str r1,[r7,#8]
 4221 000a 7A60     	 str r2,[r7,#4]
1139:C:/Users/Yushev/git/wpcqi-optiga-trust-charge/optiga/externals/mbedtls/library\bignum.c ****     int ret, s;
1140:C:/Users/Yushev/git/wpcqi-optiga-trust-charge/optiga/externals/mbedtls/library\bignum.c ****     MPI_VALIDATE_RET( X != NULL );
1141:C:/Users/Yushev/git/wpcqi-optiga-trust-charge/optiga/externals/mbedtls/library\bignum.c ****     MPI_VALIDATE_RET( A != NULL );
1142:C:/Users/Yushev/git/wpcqi-optiga-trust-charge/optiga/externals/mbedtls/library\bignum.c ****     MPI_VALIDATE_RET( B != NULL );
1143:C:/Users/Yushev/git/wpcqi-optiga-trust-charge/optiga/externals/mbedtls/library\bignum.c **** 
1144:C:/Users/Yushev/git/wpcqi-optiga-trust-charge/optiga/externals/mbedtls/library\bignum.c ****     s = A->s;
 4222              	 .loc 1 1144 0
 4223 000c BB68     	 ldr r3,[r7,#8]
 4224 000e 1B68     	 ldr r3,[r3]
 4225 0010 3B61     	 str r3,[r7,#16]
1145:C:/Users/Yushev/git/wpcqi-optiga-trust-charge/optiga/externals/mbedtls/library\bignum.c ****     if( A->s * B->s > 0 )
 4226              	 .loc 1 1145 0
 4227 0012 BB68     	 ldr r3,[r7,#8]
 4228 0014 1B68     	 ldr r3,[r3]
 4229 0016 7A68     	 ldr r2,[r7,#4]
 4230 0018 1268     	 ldr r2,[r2]
 4231 001a 02FB03F3 	 mul r3,r2,r3
 4232 001e 002B     	 cmp r3,#0
 4233 0020 23DD     	 ble .L274
1146:C:/Users/Yushev/git/wpcqi-optiga-trust-charge/optiga/externals/mbedtls/library\bignum.c ****     {
1147:C:/Users/Yushev/git/wpcqi-optiga-trust-charge/optiga/externals/mbedtls/library\bignum.c ****         if( mbedtls_mpi_cmp_abs( A, B ) >= 0 )
 4234              	 .loc 1 1147 0
 4235 0022 B868     	 ldr r0,[r7,#8]
 4236 0024 7968     	 ldr r1,[r7,#4]
 4237 0026 FFF7FEFF 	 bl mbedtls_mpi_cmp_abs
 4238 002a 0346     	 mov r3,r0
 4239 002c 002B     	 cmp r3,#0
 4240 002e 0DDB     	 blt .L275
1148:C:/Users/Yushev/git/wpcqi-optiga-trust-charge/optiga/externals/mbedtls/library\bignum.c ****         {
1149:C:/Users/Yushev/git/wpcqi-optiga-trust-charge/optiga/externals/mbedtls/library\bignum.c ****             MBEDTLS_MPI_CHK( mbedtls_mpi_sub_abs( X, A, B ) );
 4241              	 .loc 1 1149 0
 4242 0030 F868     	 ldr r0,[r7,#12]
 4243 0032 B968     	 ldr r1,[r7,#8]
 4244 0034 7A68     	 ldr r2,[r7,#4]
 4245 0036 FFF7FEFF 	 bl mbedtls_mpi_sub_abs
 4246 003a 7861     	 str r0,[r7,#20]
 4247 003c 7B69     	 ldr r3,[r7,#20]
 4248 003e 002B     	 cmp r3,#0
 4249 0040 00D0     	 beq .L276
 4250 0042 1FE0     	 b .L277
 4251              	.L276:
1150:C:/Users/Yushev/git/wpcqi-optiga-trust-charge/optiga/externals/mbedtls/library\bignum.c ****             X->s =  s;
 4252              	 .loc 1 1150 0
 4253 0044 FB68     	 ldr r3,[r7,#12]
 4254 0046 3A69     	 ldr r2,[r7,#16]
 4255 0048 1A60     	 str r2,[r3]
 4256 004a 1BE0     	 b .L277
 4257              	.L275:
1151:C:/Users/Yushev/git/wpcqi-optiga-trust-charge/optiga/externals/mbedtls/library\bignum.c ****         }
1152:C:/Users/Yushev/git/wpcqi-optiga-trust-charge/optiga/externals/mbedtls/library\bignum.c ****         else
1153:C:/Users/Yushev/git/wpcqi-optiga-trust-charge/optiga/externals/mbedtls/library\bignum.c ****         {
1154:C:/Users/Yushev/git/wpcqi-optiga-trust-charge/optiga/externals/mbedtls/library\bignum.c ****             MBEDTLS_MPI_CHK( mbedtls_mpi_sub_abs( X, B, A ) );
 4258              	 .loc 1 1154 0
 4259 004c F868     	 ldr r0,[r7,#12]
 4260 004e 7968     	 ldr r1,[r7,#4]
 4261 0050 BA68     	 ldr r2,[r7,#8]
 4262 0052 FFF7FEFF 	 bl mbedtls_mpi_sub_abs
 4263 0056 7861     	 str r0,[r7,#20]
 4264 0058 7B69     	 ldr r3,[r7,#20]
 4265 005a 002B     	 cmp r3,#0
 4266 005c 00D0     	 beq .L279
 4267 005e 11E0     	 b .L277
 4268              	.L279:
1155:C:/Users/Yushev/git/wpcqi-optiga-trust-charge/optiga/externals/mbedtls/library\bignum.c ****             X->s = -s;
 4269              	 .loc 1 1155 0
 4270 0060 3B69     	 ldr r3,[r7,#16]
 4271 0062 5A42     	 negs r2,r3
 4272 0064 FB68     	 ldr r3,[r7,#12]
 4273 0066 1A60     	 str r2,[r3]
 4274 0068 0CE0     	 b .L277
 4275              	.L274:
1156:C:/Users/Yushev/git/wpcqi-optiga-trust-charge/optiga/externals/mbedtls/library\bignum.c ****         }
1157:C:/Users/Yushev/git/wpcqi-optiga-trust-charge/optiga/externals/mbedtls/library\bignum.c ****     }
1158:C:/Users/Yushev/git/wpcqi-optiga-trust-charge/optiga/externals/mbedtls/library\bignum.c ****     else
1159:C:/Users/Yushev/git/wpcqi-optiga-trust-charge/optiga/externals/mbedtls/library\bignum.c ****     {
1160:C:/Users/Yushev/git/wpcqi-optiga-trust-charge/optiga/externals/mbedtls/library\bignum.c ****         MBEDTLS_MPI_CHK( mbedtls_mpi_add_abs( X, A, B ) );
 4276              	 .loc 1 1160 0
 4277 006a F868     	 ldr r0,[r7,#12]
 4278 006c B968     	 ldr r1,[r7,#8]
 4279 006e 7A68     	 ldr r2,[r7,#4]
 4280 0070 FFF7FEFF 	 bl mbedtls_mpi_add_abs
 4281 0074 7861     	 str r0,[r7,#20]
 4282 0076 7B69     	 ldr r3,[r7,#20]
 4283 0078 002B     	 cmp r3,#0
 4284 007a 00D0     	 beq .L280
 4285 007c 02E0     	 b .L277
 4286              	.L280:
1161:C:/Users/Yushev/git/wpcqi-optiga-trust-charge/optiga/externals/mbedtls/library\bignum.c ****         X->s = s;
 4287              	 .loc 1 1161 0
 4288 007e FB68     	 ldr r3,[r7,#12]
 4289 0080 3A69     	 ldr r2,[r7,#16]
 4290 0082 1A60     	 str r2,[r3]
 4291              	.L277:
1162:C:/Users/Yushev/git/wpcqi-optiga-trust-charge/optiga/externals/mbedtls/library\bignum.c ****     }
1163:C:/Users/Yushev/git/wpcqi-optiga-trust-charge/optiga/externals/mbedtls/library\bignum.c **** 
1164:C:/Users/Yushev/git/wpcqi-optiga-trust-charge/optiga/externals/mbedtls/library\bignum.c **** cleanup:
1165:C:/Users/Yushev/git/wpcqi-optiga-trust-charge/optiga/externals/mbedtls/library\bignum.c **** 
1166:C:/Users/Yushev/git/wpcqi-optiga-trust-charge/optiga/externals/mbedtls/library\bignum.c ****     return( ret );
 4292              	 .loc 1 1166 0
 4293 0084 7B69     	 ldr r3,[r7,#20]
1167:C:/Users/Yushev/git/wpcqi-optiga-trust-charge/optiga/externals/mbedtls/library\bignum.c **** }
 4294              	 .loc 1 1167 0
 4295 0086 1846     	 mov r0,r3
 4296 0088 1837     	 adds r7,r7,#24
 4297              	.LCFI166:
 4298              	 .cfi_def_cfa_offset 8
 4299 008a BD46     	 mov sp,r7
 4300              	.LCFI167:
 4301              	 .cfi_def_cfa_register 13
 4302              	 
 4303 008c 80BD     	 pop {r7,pc}
 4304              	 .cfi_endproc
 4305              	.LFE31:
 4307 008e 00BF     	 .section .text.mbedtls_mpi_add_int,"ax",%progbits
 4308              	 .align 2
 4309              	 .global mbedtls_mpi_add_int
 4310              	 .thumb
 4311              	 .thumb_func
 4313              	mbedtls_mpi_add_int:
 4314              	.LFB32:
1168:C:/Users/Yushev/git/wpcqi-optiga-trust-charge/optiga/externals/mbedtls/library\bignum.c **** 
1169:C:/Users/Yushev/git/wpcqi-optiga-trust-charge/optiga/externals/mbedtls/library\bignum.c **** /*
1170:C:/Users/Yushev/git/wpcqi-optiga-trust-charge/optiga/externals/mbedtls/library\bignum.c ****  * Signed addition: X = A + b
1171:C:/Users/Yushev/git/wpcqi-optiga-trust-charge/optiga/externals/mbedtls/library\bignum.c ****  */
1172:C:/Users/Yushev/git/wpcqi-optiga-trust-charge/optiga/externals/mbedtls/library\bignum.c **** int mbedtls_mpi_add_int( mbedtls_mpi *X, const mbedtls_mpi *A, mbedtls_mpi_sint b )
1173:C:/Users/Yushev/git/wpcqi-optiga-trust-charge/optiga/externals/mbedtls/library\bignum.c **** {
 4315              	 .loc 1 1173 0
 4316              	 .cfi_startproc
 4317              	 
 4318              	 
 4319 0000 80B5     	 push {r7,lr}
 4320              	.LCFI168:
 4321              	 .cfi_def_cfa_offset 8
 4322              	 .cfi_offset 7,-8
 4323              	 .cfi_offset 14,-4
 4324 0002 88B0     	 sub sp,sp,#32
 4325              	.LCFI169:
 4326              	 .cfi_def_cfa_offset 40
 4327 0004 00AF     	 add r7,sp,#0
 4328              	.LCFI170:
 4329              	 .cfi_def_cfa_register 7
 4330 0006 F860     	 str r0,[r7,#12]
 4331 0008 B960     	 str r1,[r7,#8]
 4332 000a 7A60     	 str r2,[r7,#4]
1174:C:/Users/Yushev/git/wpcqi-optiga-trust-charge/optiga/externals/mbedtls/library\bignum.c ****     mbedtls_mpi _B;
1175:C:/Users/Yushev/git/wpcqi-optiga-trust-charge/optiga/externals/mbedtls/library\bignum.c ****     mbedtls_mpi_uint p[1];
1176:C:/Users/Yushev/git/wpcqi-optiga-trust-charge/optiga/externals/mbedtls/library\bignum.c ****     MPI_VALIDATE_RET( X != NULL );
1177:C:/Users/Yushev/git/wpcqi-optiga-trust-charge/optiga/externals/mbedtls/library\bignum.c ****     MPI_VALIDATE_RET( A != NULL );
1178:C:/Users/Yushev/git/wpcqi-optiga-trust-charge/optiga/externals/mbedtls/library\bignum.c **** 
1179:C:/Users/Yushev/git/wpcqi-optiga-trust-charge/optiga/externals/mbedtls/library\bignum.c ****     p[0] = ( b < 0 ) ? -b : b;
 4333              	 .loc 1 1179 0
 4334 000c 7B68     	 ldr r3,[r7,#4]
 4335 000e 002B     	 cmp r3,#0
 4336 0010 B8BF     	 it lt
 4337 0012 5B42     	 rsblt r3,r3,#0
 4338 0014 3B61     	 str r3,[r7,#16]
1180:C:/Users/Yushev/git/wpcqi-optiga-trust-charge/optiga/externals/mbedtls/library\bignum.c ****     _B.s = ( b < 0 ) ? -1 : 1;
 4339              	 .loc 1 1180 0
 4340 0016 7B68     	 ldr r3,[r7,#4]
 4341 0018 002B     	 cmp r3,#0
 4342 001a 02DA     	 bge .L283
 4343              	 .loc 1 1180 0 is_stmt 0 discriminator 1
 4344 001c 4FF0FF33 	 mov r3,#-1
 4345 0020 00E0     	 b .L284
 4346              	.L283:
 4347              	 .loc 1 1180 0 discriminator 2
 4348 0022 0123     	 movs r3,#1
 4349              	.L284:
 4350              	 .loc 1 1180 0 discriminator 4
 4351 0024 7B61     	 str r3,[r7,#20]
1181:C:/Users/Yushev/git/wpcqi-optiga-trust-charge/optiga/externals/mbedtls/library\bignum.c ****     _B.n = 1;
 4352              	 .loc 1 1181 0 is_stmt 1 discriminator 4
 4353 0026 0123     	 movs r3,#1
 4354 0028 BB61     	 str r3,[r7,#24]
1182:C:/Users/Yushev/git/wpcqi-optiga-trust-charge/optiga/externals/mbedtls/library\bignum.c ****     _B.p = p;
 4355              	 .loc 1 1182 0 discriminator 4
 4356 002a 07F11003 	 add r3,r7,#16
 4357 002e FB61     	 str r3,[r7,#28]
1183:C:/Users/Yushev/git/wpcqi-optiga-trust-charge/optiga/externals/mbedtls/library\bignum.c **** 
1184:C:/Users/Yushev/git/wpcqi-optiga-trust-charge/optiga/externals/mbedtls/library\bignum.c ****     return( mbedtls_mpi_add_mpi( X, A, &_B ) );
 4358              	 .loc 1 1184 0 discriminator 4
 4359 0030 07F11403 	 add r3,r7,#20
 4360 0034 F868     	 ldr r0,[r7,#12]
 4361 0036 B968     	 ldr r1,[r7,#8]
 4362 0038 1A46     	 mov r2,r3
 4363 003a FFF7FEFF 	 bl mbedtls_mpi_add_mpi
 4364 003e 0346     	 mov r3,r0
1185:C:/Users/Yushev/git/wpcqi-optiga-trust-charge/optiga/externals/mbedtls/library\bignum.c **** }
 4365              	 .loc 1 1185 0 discriminator 4
 4366 0040 1846     	 mov r0,r3
 4367 0042 2037     	 adds r7,r7,#32
 4368              	.LCFI171:
 4369              	 .cfi_def_cfa_offset 8
 4370 0044 BD46     	 mov sp,r7
 4371              	.LCFI172:
 4372              	 .cfi_def_cfa_register 13
 4373              	 
 4374 0046 80BD     	 pop {r7,pc}
 4375              	 .cfi_endproc
 4376              	.LFE32:
 4378              	 .section .text.mbedtls_mpi_sub_int,"ax",%progbits
 4379              	 .align 2
 4380              	 .global mbedtls_mpi_sub_int
 4381              	 .thumb
 4382              	 .thumb_func
 4384              	mbedtls_mpi_sub_int:
 4385              	.LFB33:
1186:C:/Users/Yushev/git/wpcqi-optiga-trust-charge/optiga/externals/mbedtls/library\bignum.c **** 
1187:C:/Users/Yushev/git/wpcqi-optiga-trust-charge/optiga/externals/mbedtls/library\bignum.c **** /*
1188:C:/Users/Yushev/git/wpcqi-optiga-trust-charge/optiga/externals/mbedtls/library\bignum.c ****  * Signed subtraction: X = A - b
1189:C:/Users/Yushev/git/wpcqi-optiga-trust-charge/optiga/externals/mbedtls/library\bignum.c ****  */
1190:C:/Users/Yushev/git/wpcqi-optiga-trust-charge/optiga/externals/mbedtls/library\bignum.c **** int mbedtls_mpi_sub_int( mbedtls_mpi *X, const mbedtls_mpi *A, mbedtls_mpi_sint b )
1191:C:/Users/Yushev/git/wpcqi-optiga-trust-charge/optiga/externals/mbedtls/library\bignum.c **** {
 4386              	 .loc 1 1191 0
 4387              	 .cfi_startproc
 4388              	 
 4389              	 
 4390 0000 80B5     	 push {r7,lr}
 4391              	.LCFI173:
 4392              	 .cfi_def_cfa_offset 8
 4393              	 .cfi_offset 7,-8
 4394              	 .cfi_offset 14,-4
 4395 0002 88B0     	 sub sp,sp,#32
 4396              	.LCFI174:
 4397              	 .cfi_def_cfa_offset 40
 4398 0004 00AF     	 add r7,sp,#0
 4399              	.LCFI175:
 4400              	 .cfi_def_cfa_register 7
 4401 0006 F860     	 str r0,[r7,#12]
 4402 0008 B960     	 str r1,[r7,#8]
 4403 000a 7A60     	 str r2,[r7,#4]
1192:C:/Users/Yushev/git/wpcqi-optiga-trust-charge/optiga/externals/mbedtls/library\bignum.c ****     mbedtls_mpi _B;
1193:C:/Users/Yushev/git/wpcqi-optiga-trust-charge/optiga/externals/mbedtls/library\bignum.c ****     mbedtls_mpi_uint p[1];
1194:C:/Users/Yushev/git/wpcqi-optiga-trust-charge/optiga/externals/mbedtls/library\bignum.c ****     MPI_VALIDATE_RET( X != NULL );
1195:C:/Users/Yushev/git/wpcqi-optiga-trust-charge/optiga/externals/mbedtls/library\bignum.c ****     MPI_VALIDATE_RET( A != NULL );
1196:C:/Users/Yushev/git/wpcqi-optiga-trust-charge/optiga/externals/mbedtls/library\bignum.c **** 
1197:C:/Users/Yushev/git/wpcqi-optiga-trust-charge/optiga/externals/mbedtls/library\bignum.c ****     p[0] = ( b < 0 ) ? -b : b;
 4404              	 .loc 1 1197 0
 4405 000c 7B68     	 ldr r3,[r7,#4]
 4406 000e 002B     	 cmp r3,#0
 4407 0010 B8BF     	 it lt
 4408 0012 5B42     	 rsblt r3,r3,#0
 4409 0014 3B61     	 str r3,[r7,#16]
1198:C:/Users/Yushev/git/wpcqi-optiga-trust-charge/optiga/externals/mbedtls/library\bignum.c ****     _B.s = ( b < 0 ) ? -1 : 1;
 4410              	 .loc 1 1198 0
 4411 0016 7B68     	 ldr r3,[r7,#4]
 4412 0018 002B     	 cmp r3,#0
 4413 001a 02DA     	 bge .L287
 4414              	 .loc 1 1198 0 is_stmt 0 discriminator 1
 4415 001c 4FF0FF33 	 mov r3,#-1
 4416 0020 00E0     	 b .L288
 4417              	.L287:
 4418              	 .loc 1 1198 0 discriminator 2
 4419 0022 0123     	 movs r3,#1
 4420              	.L288:
 4421              	 .loc 1 1198 0 discriminator 4
 4422 0024 7B61     	 str r3,[r7,#20]
1199:C:/Users/Yushev/git/wpcqi-optiga-trust-charge/optiga/externals/mbedtls/library\bignum.c ****     _B.n = 1;
 4423              	 .loc 1 1199 0 is_stmt 1 discriminator 4
 4424 0026 0123     	 movs r3,#1
 4425 0028 BB61     	 str r3,[r7,#24]
1200:C:/Users/Yushev/git/wpcqi-optiga-trust-charge/optiga/externals/mbedtls/library\bignum.c ****     _B.p = p;
 4426              	 .loc 1 1200 0 discriminator 4
 4427 002a 07F11003 	 add r3,r7,#16
 4428 002e FB61     	 str r3,[r7,#28]
1201:C:/Users/Yushev/git/wpcqi-optiga-trust-charge/optiga/externals/mbedtls/library\bignum.c **** 
1202:C:/Users/Yushev/git/wpcqi-optiga-trust-charge/optiga/externals/mbedtls/library\bignum.c ****     return( mbedtls_mpi_sub_mpi( X, A, &_B ) );
 4429              	 .loc 1 1202 0 discriminator 4
 4430 0030 07F11403 	 add r3,r7,#20
 4431 0034 F868     	 ldr r0,[r7,#12]
 4432 0036 B968     	 ldr r1,[r7,#8]
 4433 0038 1A46     	 mov r2,r3
 4434 003a FFF7FEFF 	 bl mbedtls_mpi_sub_mpi
 4435 003e 0346     	 mov r3,r0
1203:C:/Users/Yushev/git/wpcqi-optiga-trust-charge/optiga/externals/mbedtls/library\bignum.c **** }
 4436              	 .loc 1 1203 0 discriminator 4
 4437 0040 1846     	 mov r0,r3
 4438 0042 2037     	 adds r7,r7,#32
 4439              	.LCFI176:
 4440              	 .cfi_def_cfa_offset 8
 4441 0044 BD46     	 mov sp,r7
 4442              	.LCFI177:
 4443              	 .cfi_def_cfa_register 13
 4444              	 
 4445 0046 80BD     	 pop {r7,pc}
 4446              	 .cfi_endproc
 4447              	.LFE33:
 4449              	 .section .text.mpi_mul_hlp,"ax",%progbits
 4450              	 .align 2
 4451              	 .thumb
 4452              	 .thumb_func
 4454              	mpi_mul_hlp:
 4455              	.LFB34:
1204:C:/Users/Yushev/git/wpcqi-optiga-trust-charge/optiga/externals/mbedtls/library\bignum.c **** 
1205:C:/Users/Yushev/git/wpcqi-optiga-trust-charge/optiga/externals/mbedtls/library\bignum.c **** /*
1206:C:/Users/Yushev/git/wpcqi-optiga-trust-charge/optiga/externals/mbedtls/library\bignum.c ****  * Helper for mbedtls_mpi multiplication
1207:C:/Users/Yushev/git/wpcqi-optiga-trust-charge/optiga/externals/mbedtls/library\bignum.c ****  */
1208:C:/Users/Yushev/git/wpcqi-optiga-trust-charge/optiga/externals/mbedtls/library\bignum.c **** static
1209:C:/Users/Yushev/git/wpcqi-optiga-trust-charge/optiga/externals/mbedtls/library\bignum.c **** #if defined(__APPLE__) && defined(__arm__)
1210:C:/Users/Yushev/git/wpcqi-optiga-trust-charge/optiga/externals/mbedtls/library\bignum.c **** /*
1211:C:/Users/Yushev/git/wpcqi-optiga-trust-charge/optiga/externals/mbedtls/library\bignum.c ****  * Apple LLVM version 4.2 (clang-425.0.24) (based on LLVM 3.2svn)
1212:C:/Users/Yushev/git/wpcqi-optiga-trust-charge/optiga/externals/mbedtls/library\bignum.c ****  * appears to need this to prevent bad ARM code generation at -O3.
1213:C:/Users/Yushev/git/wpcqi-optiga-trust-charge/optiga/externals/mbedtls/library\bignum.c ****  */
1214:C:/Users/Yushev/git/wpcqi-optiga-trust-charge/optiga/externals/mbedtls/library\bignum.c **** __attribute__ ((noinline))
1215:C:/Users/Yushev/git/wpcqi-optiga-trust-charge/optiga/externals/mbedtls/library\bignum.c **** #endif
1216:C:/Users/Yushev/git/wpcqi-optiga-trust-charge/optiga/externals/mbedtls/library\bignum.c **** void mpi_mul_hlp( size_t i, mbedtls_mpi_uint *s, mbedtls_mpi_uint *d, mbedtls_mpi_uint b )
1217:C:/Users/Yushev/git/wpcqi-optiga-trust-charge/optiga/externals/mbedtls/library\bignum.c **** {
 4456              	 .loc 1 1217 0
 4457              	 .cfi_startproc
 4458              	 
 4459              	 
 4460              	 
 4461 0000 2DE9B00F 	 push {r4,r5,r7,r8,r9,r10,fp}
 4462              	.LCFI178:
 4463              	 .cfi_def_cfa_offset 28
 4464              	 .cfi_offset 4,-28
 4465              	 .cfi_offset 5,-24
 4466              	 .cfi_offset 7,-20
 4467              	 .cfi_offset 8,-16
 4468              	 .cfi_offset 9,-12
 4469              	 .cfi_offset 10,-8
 4470              	 .cfi_offset 11,-4
 4471 0004 C1B0     	 sub sp,sp,#260
 4472              	.LCFI179:
 4473              	 .cfi_def_cfa_offset 288
 4474 0006 00AF     	 add r7,sp,#0
 4475              	.LCFI180:
 4476              	 .cfi_def_cfa_register 7
 4477 0008 C7F8C400 	 str r0,[r7,#196]
 4478 000c C7F8C010 	 str r1,[r7,#192]
 4479 0010 C7F8BC20 	 str r2,[r7,#188]
 4480 0014 C7F8B830 	 str r3,[r7,#184]
1218:C:/Users/Yushev/git/wpcqi-optiga-trust-charge/optiga/externals/mbedtls/library\bignum.c ****     mbedtls_mpi_uint c = 0, t = 0;
 4481              	 .loc 1 1218 0
 4482 0018 0023     	 movs r3,#0
 4483 001a C7F8FC30 	 str r3,[r7,#252]
 4484 001e 0023     	 movs r3,#0
 4485 0020 C7F8F830 	 str r3,[r7,#248]
1219:C:/Users/Yushev/git/wpcqi-optiga-trust-charge/optiga/externals/mbedtls/library\bignum.c **** 
1220:C:/Users/Yushev/git/wpcqi-optiga-trust-charge/optiga/externals/mbedtls/library\bignum.c **** #if defined(MULADDC_HUIT)
1221:C:/Users/Yushev/git/wpcqi-optiga-trust-charge/optiga/externals/mbedtls/library\bignum.c ****     for( ; i >= 8; i -= 8 )
1222:C:/Users/Yushev/git/wpcqi-optiga-trust-charge/optiga/externals/mbedtls/library\bignum.c ****     {
1223:C:/Users/Yushev/git/wpcqi-optiga-trust-charge/optiga/externals/mbedtls/library\bignum.c ****         MULADDC_INIT
1224:C:/Users/Yushev/git/wpcqi-optiga-trust-charge/optiga/externals/mbedtls/library\bignum.c ****         MULADDC_HUIT
1225:C:/Users/Yushev/git/wpcqi-optiga-trust-charge/optiga/externals/mbedtls/library\bignum.c ****         MULADDC_STOP
1226:C:/Users/Yushev/git/wpcqi-optiga-trust-charge/optiga/externals/mbedtls/library\bignum.c ****     }
1227:C:/Users/Yushev/git/wpcqi-optiga-trust-charge/optiga/externals/mbedtls/library\bignum.c **** 
1228:C:/Users/Yushev/git/wpcqi-optiga-trust-charge/optiga/externals/mbedtls/library\bignum.c ****     for( ; i > 0; i-- )
1229:C:/Users/Yushev/git/wpcqi-optiga-trust-charge/optiga/externals/mbedtls/library\bignum.c ****     {
1230:C:/Users/Yushev/git/wpcqi-optiga-trust-charge/optiga/externals/mbedtls/library\bignum.c ****         MULADDC_INIT
1231:C:/Users/Yushev/git/wpcqi-optiga-trust-charge/optiga/externals/mbedtls/library\bignum.c ****         MULADDC_CORE
1232:C:/Users/Yushev/git/wpcqi-optiga-trust-charge/optiga/externals/mbedtls/library\bignum.c ****         MULADDC_STOP
1233:C:/Users/Yushev/git/wpcqi-optiga-trust-charge/optiga/externals/mbedtls/library\bignum.c ****     }
1234:C:/Users/Yushev/git/wpcqi-optiga-trust-charge/optiga/externals/mbedtls/library\bignum.c **** #else /* MULADDC_HUIT */
1235:C:/Users/Yushev/git/wpcqi-optiga-trust-charge/optiga/externals/mbedtls/library\bignum.c ****     for( ; i >= 16; i -= 16 )
 4486              	 .loc 1 1235 0
 4487 0024 00F038BE 	 b .L291
 4488              	.L292:
 4489              	.LBB4:
1236:C:/Users/Yushev/git/wpcqi-optiga-trust-charge/optiga/externals/mbedtls/library\bignum.c ****     {
1237:C:/Users/Yushev/git/wpcqi-optiga-trust-charge/optiga/externals/mbedtls/library\bignum.c ****         MULADDC_INIT
1238:C:/Users/Yushev/git/wpcqi-optiga-trust-charge/optiga/externals/mbedtls/library\bignum.c ****         MULADDC_CORE   MULADDC_CORE
 4490              	 .loc 1 1238 0 discriminator 2
 4491 0028 D7F8C020 	 ldr r2,[r7,#192]
 4492 002c 131D     	 adds r3,r2,#4
 4493 002e C7F8C030 	 str r3,[r7,#192]
 4494 0032 1368     	 ldr r3,[r2]
 4495 0034 1846     	 mov r0,r3
 4496 0036 4FF00001 	 mov r1,#0
 4497 003a D7F8B830 	 ldr r3,[r7,#184]
 4498 003e 1A46     	 mov r2,r3
 4499 0040 4FF00003 	 mov r3,#0
 4500 0044 02FB01F5 	 mul r5,r2,r1
 4501 0048 00FB03F4 	 mul r4,r0,r3
 4502 004c 2C44     	 add r4,r4,r5
 4503 004e A0FB0223 	 umull r2,r3,r0,r2
 4504 0052 E118     	 adds r1,r4,r3
 4505 0054 0B46     	 mov r3,r1
 4506 0056 C7E93C23 	 strd r2,[r7,#240]
 4507 005a C7E93C23 	 strd r2,[r7,#240]
 4508 005e D7F8F030 	 ldr r3,[r7,#240]
 4509 0062 C7F8EC30 	 str r3,[r7,#236]
 4510 0066 D7E93C23 	 ldrd r2,[r7,#240]
 4511 006a 1B00     	 movs r3,r3
 4512 006c C7F8B030 	 str r3,[r7,#176]
 4513 0070 0023     	 movs r3,#0
 4514 0072 C7F8B430 	 str r3,[r7,#180]
 4515 0076 D7F8B030 	 ldr r3,[r7,#176]
 4516 007a C7F8E830 	 str r3,[r7,#232]
 4517 007e D7F8EC20 	 ldr r2,[r7,#236]
 4518 0082 D7F8FC30 	 ldr r3,[r7,#252]
 4519 0086 1344     	 add r3,r3,r2
 4520 0088 C7F8EC30 	 str r3,[r7,#236]
 4521 008c D7F8EC20 	 ldr r2,[r7,#236]
 4522 0090 D7F8FC30 	 ldr r3,[r7,#252]
 4523 0094 9A42     	 cmp r2,r3
 4524 0096 34BF     	 ite cc
 4525 0098 0123     	 movcc r3,#1
 4526 009a 0023     	 movcs r3,#0
 4527 009c DBB2     	 uxtb r3,r3
 4528 009e 1A46     	 mov r2,r3
 4529 00a0 D7F8E830 	 ldr r3,[r7,#232]
 4530 00a4 1344     	 add r3,r3,r2
 4531 00a6 C7F8E830 	 str r3,[r7,#232]
 4532 00aa D7F8BC30 	 ldr r3,[r7,#188]
 4533 00ae 1A68     	 ldr r2,[r3]
 4534 00b0 D7F8EC30 	 ldr r3,[r7,#236]
 4535 00b4 1344     	 add r3,r3,r2
 4536 00b6 C7F8EC30 	 str r3,[r7,#236]
 4537 00ba D7F8BC30 	 ldr r3,[r7,#188]
 4538 00be 1A68     	 ldr r2,[r3]
 4539 00c0 D7F8EC30 	 ldr r3,[r7,#236]
 4540 00c4 9A42     	 cmp r2,r3
 4541 00c6 8CBF     	 ite hi
 4542 00c8 0123     	 movhi r3,#1
 4543 00ca 0023     	 movls r3,#0
 4544 00cc DBB2     	 uxtb r3,r3
 4545 00ce 1A46     	 mov r2,r3
 4546 00d0 D7F8E830 	 ldr r3,[r7,#232]
 4547 00d4 1344     	 add r3,r3,r2
 4548 00d6 C7F8E830 	 str r3,[r7,#232]
 4549 00da D7F8E830 	 ldr r3,[r7,#232]
 4550 00de C7F8FC30 	 str r3,[r7,#252]
 4551 00e2 D7F8BC20 	 ldr r2,[r7,#188]
 4552 00e6 131D     	 adds r3,r2,#4
 4553 00e8 C7F8BC30 	 str r3,[r7,#188]
 4554 00ec D7F8EC30 	 ldr r3,[r7,#236]
 4555 00f0 1360     	 str r3,[r2]
 4556 00f2 D7F8C020 	 ldr r2,[r7,#192]
 4557 00f6 131D     	 adds r3,r2,#4
 4558 00f8 C7F8C030 	 str r3,[r7,#192]
 4559 00fc 1368     	 ldr r3,[r2]
 4560 00fe 1846     	 mov r0,r3
 4561 0100 4FF00001 	 mov r1,#0
 4562 0104 D7F8B830 	 ldr r3,[r7,#184]
 4563 0108 1A46     	 mov r2,r3
 4564 010a 4FF00003 	 mov r3,#0
 4565 010e 02FB01F5 	 mul r5,r2,r1
 4566 0112 00FB03F4 	 mul r4,r0,r3
 4567 0116 2C44     	 add r4,r4,r5
 4568 0118 A0FB0223 	 umull r2,r3,r0,r2
 4569 011c E118     	 adds r1,r4,r3
 4570 011e 0B46     	 mov r3,r1
 4571 0120 C7E93C23 	 strd r2,[r7,#240]
 4572 0124 C7E93C23 	 strd r2,[r7,#240]
 4573 0128 D7F8F030 	 ldr r3,[r7,#240]
 4574 012c C7F8EC30 	 str r3,[r7,#236]
 4575 0130 D7E93C23 	 ldrd r2,[r7,#240]
 4576 0134 1B00     	 movs r3,r3
 4577 0136 C7F8A830 	 str r3,[r7,#168]
 4578 013a 0023     	 movs r3,#0
 4579 013c C7F8AC30 	 str r3,[r7,#172]
 4580 0140 D7F8A830 	 ldr r3,[r7,#168]
 4581 0144 C7F8E830 	 str r3,[r7,#232]
 4582 0148 D7F8EC20 	 ldr r2,[r7,#236]
 4583 014c D7F8FC30 	 ldr r3,[r7,#252]
 4584 0150 1344     	 add r3,r3,r2
 4585 0152 C7F8EC30 	 str r3,[r7,#236]
 4586 0156 D7F8EC20 	 ldr r2,[r7,#236]
 4587 015a D7F8FC30 	 ldr r3,[r7,#252]
 4588 015e 9A42     	 cmp r2,r3
 4589 0160 34BF     	 ite cc
 4590 0162 0123     	 movcc r3,#1
 4591 0164 0023     	 movcs r3,#0
 4592 0166 DBB2     	 uxtb r3,r3
 4593 0168 1A46     	 mov r2,r3
 4594 016a D7F8E830 	 ldr r3,[r7,#232]
 4595 016e 1344     	 add r3,r3,r2
 4596 0170 C7F8E830 	 str r3,[r7,#232]
 4597 0174 D7F8BC30 	 ldr r3,[r7,#188]
 4598 0178 1A68     	 ldr r2,[r3]
 4599 017a D7F8EC30 	 ldr r3,[r7,#236]
 4600 017e 1344     	 add r3,r3,r2
 4601 0180 C7F8EC30 	 str r3,[r7,#236]
 4602 0184 D7F8BC30 	 ldr r3,[r7,#188]
 4603 0188 1A68     	 ldr r2,[r3]
 4604 018a D7F8EC30 	 ldr r3,[r7,#236]
 4605 018e 9A42     	 cmp r2,r3
 4606 0190 8CBF     	 ite hi
 4607 0192 0123     	 movhi r3,#1
 4608 0194 0023     	 movls r3,#0
 4609 0196 DBB2     	 uxtb r3,r3
 4610 0198 1A46     	 mov r2,r3
 4611 019a D7F8E830 	 ldr r3,[r7,#232]
 4612 019e 1344     	 add r3,r3,r2
 4613 01a0 C7F8E830 	 str r3,[r7,#232]
 4614 01a4 D7F8E830 	 ldr r3,[r7,#232]
 4615 01a8 C7F8FC30 	 str r3,[r7,#252]
 4616 01ac D7F8BC20 	 ldr r2,[r7,#188]
 4617 01b0 131D     	 adds r3,r2,#4
 4618 01b2 C7F8BC30 	 str r3,[r7,#188]
 4619 01b6 D7F8EC30 	 ldr r3,[r7,#236]
 4620 01ba 1360     	 str r3,[r2]
1239:C:/Users/Yushev/git/wpcqi-optiga-trust-charge/optiga/externals/mbedtls/library\bignum.c ****         MULADDC_CORE   MULADDC_CORE
 4621              	 .loc 1 1239 0 discriminator 2
 4622 01bc D7F8C020 	 ldr r2,[r7,#192]
 4623 01c0 131D     	 adds r3,r2,#4
 4624 01c2 C7F8C030 	 str r3,[r7,#192]
 4625 01c6 1368     	 ldr r3,[r2]
 4626 01c8 1846     	 mov r0,r3
 4627 01ca 4FF00001 	 mov r1,#0
 4628 01ce D7F8B830 	 ldr r3,[r7,#184]
 4629 01d2 1A46     	 mov r2,r3
 4630 01d4 4FF00003 	 mov r3,#0
 4631 01d8 02FB01F5 	 mul r5,r2,r1
 4632 01dc 00FB03F4 	 mul r4,r0,r3
 4633 01e0 2C44     	 add r4,r4,r5
 4634 01e2 A0FB0223 	 umull r2,r3,r0,r2
 4635 01e6 E118     	 adds r1,r4,r3
 4636 01e8 0B46     	 mov r3,r1
 4637 01ea C7E93C23 	 strd r2,[r7,#240]
 4638 01ee C7E93C23 	 strd r2,[r7,#240]
 4639 01f2 D7F8F030 	 ldr r3,[r7,#240]
 4640 01f6 C7F8EC30 	 str r3,[r7,#236]
 4641 01fa D7E93C23 	 ldrd r2,[r7,#240]
 4642 01fe 1B00     	 movs r3,r3
 4643 0200 C7F8A030 	 str r3,[r7,#160]
 4644 0204 0023     	 movs r3,#0
 4645 0206 C7F8A430 	 str r3,[r7,#164]
 4646 020a D7F8A030 	 ldr r3,[r7,#160]
 4647 020e C7F8E830 	 str r3,[r7,#232]
 4648 0212 D7F8EC20 	 ldr r2,[r7,#236]
 4649 0216 D7F8FC30 	 ldr r3,[r7,#252]
 4650 021a 1344     	 add r3,r3,r2
 4651 021c C7F8EC30 	 str r3,[r7,#236]
 4652 0220 D7F8EC20 	 ldr r2,[r7,#236]
 4653 0224 D7F8FC30 	 ldr r3,[r7,#252]
 4654 0228 9A42     	 cmp r2,r3
 4655 022a 34BF     	 ite cc
 4656 022c 0123     	 movcc r3,#1
 4657 022e 0023     	 movcs r3,#0
 4658 0230 DBB2     	 uxtb r3,r3
 4659 0232 1A46     	 mov r2,r3
 4660 0234 D7F8E830 	 ldr r3,[r7,#232]
 4661 0238 1344     	 add r3,r3,r2
 4662 023a C7F8E830 	 str r3,[r7,#232]
 4663 023e D7F8BC30 	 ldr r3,[r7,#188]
 4664 0242 1A68     	 ldr r2,[r3]
 4665 0244 D7F8EC30 	 ldr r3,[r7,#236]
 4666 0248 1344     	 add r3,r3,r2
 4667 024a C7F8EC30 	 str r3,[r7,#236]
 4668 024e D7F8BC30 	 ldr r3,[r7,#188]
 4669 0252 1A68     	 ldr r2,[r3]
 4670 0254 D7F8EC30 	 ldr r3,[r7,#236]
 4671 0258 9A42     	 cmp r2,r3
 4672 025a 8CBF     	 ite hi
 4673 025c 0123     	 movhi r3,#1
 4674 025e 0023     	 movls r3,#0
 4675 0260 DBB2     	 uxtb r3,r3
 4676 0262 1A46     	 mov r2,r3
 4677 0264 D7F8E830 	 ldr r3,[r7,#232]
 4678 0268 1344     	 add r3,r3,r2
 4679 026a C7F8E830 	 str r3,[r7,#232]
 4680 026e D7F8E830 	 ldr r3,[r7,#232]
 4681 0272 C7F8FC30 	 str r3,[r7,#252]
 4682 0276 D7F8BC20 	 ldr r2,[r7,#188]
 4683 027a 131D     	 adds r3,r2,#4
 4684 027c C7F8BC30 	 str r3,[r7,#188]
 4685 0280 D7F8EC30 	 ldr r3,[r7,#236]
 4686 0284 1360     	 str r3,[r2]
 4687 0286 D7F8C020 	 ldr r2,[r7,#192]
 4688 028a 131D     	 adds r3,r2,#4
 4689 028c C7F8C030 	 str r3,[r7,#192]
 4690 0290 1368     	 ldr r3,[r2]
 4691 0292 1846     	 mov r0,r3
 4692 0294 4FF00001 	 mov r1,#0
 4693 0298 D7F8B830 	 ldr r3,[r7,#184]
 4694 029c 1A46     	 mov r2,r3
 4695 029e 4FF00003 	 mov r3,#0
 4696 02a2 02FB01F5 	 mul r5,r2,r1
 4697 02a6 00FB03F4 	 mul r4,r0,r3
 4698 02aa 2C44     	 add r4,r4,r5
 4699 02ac A0FB0223 	 umull r2,r3,r0,r2
 4700 02b0 E118     	 adds r1,r4,r3
 4701 02b2 0B46     	 mov r3,r1
 4702 02b4 C7E93C23 	 strd r2,[r7,#240]
 4703 02b8 C7E93C23 	 strd r2,[r7,#240]
 4704 02bc D7F8F030 	 ldr r3,[r7,#240]
 4705 02c0 C7F8EC30 	 str r3,[r7,#236]
 4706 02c4 D7E93C23 	 ldrd r2,[r7,#240]
 4707 02c8 1B00     	 movs r3,r3
 4708 02ca C7F89830 	 str r3,[r7,#152]
 4709 02ce 0023     	 movs r3,#0
 4710 02d0 C7F89C30 	 str r3,[r7,#156]
 4711 02d4 D7F89830 	 ldr r3,[r7,#152]
 4712 02d8 C7F8E830 	 str r3,[r7,#232]
 4713 02dc D7F8EC20 	 ldr r2,[r7,#236]
 4714 02e0 D7F8FC30 	 ldr r3,[r7,#252]
 4715 02e4 1344     	 add r3,r3,r2
 4716 02e6 C7F8EC30 	 str r3,[r7,#236]
 4717 02ea D7F8EC20 	 ldr r2,[r7,#236]
 4718 02ee D7F8FC30 	 ldr r3,[r7,#252]
 4719 02f2 9A42     	 cmp r2,r3
 4720 02f4 34BF     	 ite cc
 4721 02f6 0123     	 movcc r3,#1
 4722 02f8 0023     	 movcs r3,#0
 4723 02fa DBB2     	 uxtb r3,r3
 4724 02fc 1A46     	 mov r2,r3
 4725 02fe D7F8E830 	 ldr r3,[r7,#232]
 4726 0302 1344     	 add r3,r3,r2
 4727 0304 C7F8E830 	 str r3,[r7,#232]
 4728 0308 D7F8BC30 	 ldr r3,[r7,#188]
 4729 030c 1A68     	 ldr r2,[r3]
 4730 030e D7F8EC30 	 ldr r3,[r7,#236]
 4731 0312 1344     	 add r3,r3,r2
 4732 0314 C7F8EC30 	 str r3,[r7,#236]
 4733 0318 D7F8BC30 	 ldr r3,[r7,#188]
 4734 031c 1A68     	 ldr r2,[r3]
 4735 031e D7F8EC30 	 ldr r3,[r7,#236]
 4736 0322 9A42     	 cmp r2,r3
 4737 0324 8CBF     	 ite hi
 4738 0326 0123     	 movhi r3,#1
 4739 0328 0023     	 movls r3,#0
 4740 032a DBB2     	 uxtb r3,r3
 4741 032c 1A46     	 mov r2,r3
 4742 032e D7F8E830 	 ldr r3,[r7,#232]
 4743 0332 1344     	 add r3,r3,r2
 4744 0334 C7F8E830 	 str r3,[r7,#232]
 4745 0338 D7F8E830 	 ldr r3,[r7,#232]
 4746 033c C7F8FC30 	 str r3,[r7,#252]
 4747 0340 D7F8BC20 	 ldr r2,[r7,#188]
 4748 0344 131D     	 adds r3,r2,#4
 4749 0346 C7F8BC30 	 str r3,[r7,#188]
 4750 034a D7F8EC30 	 ldr r3,[r7,#236]
 4751 034e 1360     	 str r3,[r2]
1240:C:/Users/Yushev/git/wpcqi-optiga-trust-charge/optiga/externals/mbedtls/library\bignum.c ****         MULADDC_CORE   MULADDC_CORE
 4752              	 .loc 1 1240 0 discriminator 2
 4753 0350 D7F8C020 	 ldr r2,[r7,#192]
 4754 0354 131D     	 adds r3,r2,#4
 4755 0356 C7F8C030 	 str r3,[r7,#192]
 4756 035a 1368     	 ldr r3,[r2]
 4757 035c 1846     	 mov r0,r3
 4758 035e 4FF00001 	 mov r1,#0
 4759 0362 D7F8B830 	 ldr r3,[r7,#184]
 4760 0366 1A46     	 mov r2,r3
 4761 0368 4FF00003 	 mov r3,#0
 4762 036c 02FB01F5 	 mul r5,r2,r1
 4763 0370 00FB03F4 	 mul r4,r0,r3
 4764 0374 2C44     	 add r4,r4,r5
 4765 0376 A0FB0223 	 umull r2,r3,r0,r2
 4766 037a E118     	 adds r1,r4,r3
 4767 037c 0B46     	 mov r3,r1
 4768 037e C7E93C23 	 strd r2,[r7,#240]
 4769 0382 C7E93C23 	 strd r2,[r7,#240]
 4770 0386 D7F8F030 	 ldr r3,[r7,#240]
 4771 038a C7F8EC30 	 str r3,[r7,#236]
 4772 038e D7E93C23 	 ldrd r2,[r7,#240]
 4773 0392 1B00     	 movs r3,r3
 4774 0394 C7F89030 	 str r3,[r7,#144]
 4775 0398 0023     	 movs r3,#0
 4776 039a C7F89430 	 str r3,[r7,#148]
 4777 039e D7F89030 	 ldr r3,[r7,#144]
 4778 03a2 C7F8E830 	 str r3,[r7,#232]
 4779 03a6 D7F8EC20 	 ldr r2,[r7,#236]
 4780 03aa D7F8FC30 	 ldr r3,[r7,#252]
 4781 03ae 1344     	 add r3,r3,r2
 4782 03b0 C7F8EC30 	 str r3,[r7,#236]
 4783 03b4 D7F8EC20 	 ldr r2,[r7,#236]
 4784 03b8 D7F8FC30 	 ldr r3,[r7,#252]
 4785 03bc 9A42     	 cmp r2,r3
 4786 03be 34BF     	 ite cc
 4787 03c0 0123     	 movcc r3,#1
 4788 03c2 0023     	 movcs r3,#0
 4789 03c4 DBB2     	 uxtb r3,r3
 4790 03c6 1A46     	 mov r2,r3
 4791 03c8 D7F8E830 	 ldr r3,[r7,#232]
 4792 03cc 1344     	 add r3,r3,r2
 4793 03ce C7F8E830 	 str r3,[r7,#232]
 4794 03d2 D7F8BC30 	 ldr r3,[r7,#188]
 4795 03d6 1A68     	 ldr r2,[r3]
 4796 03d8 D7F8EC30 	 ldr r3,[r7,#236]
 4797 03dc 1344     	 add r3,r3,r2
 4798 03de C7F8EC30 	 str r3,[r7,#236]
 4799 03e2 D7F8BC30 	 ldr r3,[r7,#188]
 4800 03e6 1A68     	 ldr r2,[r3]
 4801 03e8 D7F8EC30 	 ldr r3,[r7,#236]
 4802 03ec 9A42     	 cmp r2,r3
 4803 03ee 8CBF     	 ite hi
 4804 03f0 0123     	 movhi r3,#1
 4805 03f2 0023     	 movls r3,#0
 4806 03f4 DBB2     	 uxtb r3,r3
 4807 03f6 1A46     	 mov r2,r3
 4808 03f8 D7F8E830 	 ldr r3,[r7,#232]
 4809 03fc 1344     	 add r3,r3,r2
 4810 03fe C7F8E830 	 str r3,[r7,#232]
 4811 0402 D7F8E830 	 ldr r3,[r7,#232]
 4812 0406 C7F8FC30 	 str r3,[r7,#252]
 4813 040a D7F8BC20 	 ldr r2,[r7,#188]
 4814 040e 131D     	 adds r3,r2,#4
 4815 0410 C7F8BC30 	 str r3,[r7,#188]
 4816 0414 D7F8EC30 	 ldr r3,[r7,#236]
 4817 0418 1360     	 str r3,[r2]
 4818 041a D7F8C020 	 ldr r2,[r7,#192]
 4819 041e 131D     	 adds r3,r2,#4
 4820 0420 C7F8C030 	 str r3,[r7,#192]
 4821 0424 1368     	 ldr r3,[r2]
 4822 0426 1846     	 mov r0,r3
 4823 0428 4FF00001 	 mov r1,#0
 4824 042c D7F8B830 	 ldr r3,[r7,#184]
 4825 0430 1A46     	 mov r2,r3
 4826 0432 4FF00003 	 mov r3,#0
 4827 0436 02FB01F5 	 mul r5,r2,r1
 4828 043a 00FB03F4 	 mul r4,r0,r3
 4829 043e 2C44     	 add r4,r4,r5
 4830 0440 A0FB0223 	 umull r2,r3,r0,r2
 4831 0444 E118     	 adds r1,r4,r3
 4832 0446 0B46     	 mov r3,r1
 4833 0448 C7E93C23 	 strd r2,[r7,#240]
 4834 044c C7E93C23 	 strd r2,[r7,#240]
 4835 0450 D7F8F030 	 ldr r3,[r7,#240]
 4836 0454 C7F8EC30 	 str r3,[r7,#236]
 4837 0458 D7E93C23 	 ldrd r2,[r7,#240]
 4838 045c 1B00     	 movs r3,r3
 4839 045e C7F88830 	 str r3,[r7,#136]
 4840 0462 0023     	 movs r3,#0
 4841 0464 C7F88C30 	 str r3,[r7,#140]
 4842 0468 D7F88830 	 ldr r3,[r7,#136]
 4843 046c C7F8E830 	 str r3,[r7,#232]
 4844 0470 D7F8EC20 	 ldr r2,[r7,#236]
 4845 0474 D7F8FC30 	 ldr r3,[r7,#252]
 4846 0478 1344     	 add r3,r3,r2
 4847 047a C7F8EC30 	 str r3,[r7,#236]
 4848 047e D7F8EC20 	 ldr r2,[r7,#236]
 4849 0482 D7F8FC30 	 ldr r3,[r7,#252]
 4850 0486 9A42     	 cmp r2,r3
 4851 0488 34BF     	 ite cc
 4852 048a 0123     	 movcc r3,#1
 4853 048c 0023     	 movcs r3,#0
 4854 048e DBB2     	 uxtb r3,r3
 4855 0490 1A46     	 mov r2,r3
 4856 0492 D7F8E830 	 ldr r3,[r7,#232]
 4857 0496 1344     	 add r3,r3,r2
 4858 0498 C7F8E830 	 str r3,[r7,#232]
 4859 049c D7F8BC30 	 ldr r3,[r7,#188]
 4860 04a0 1A68     	 ldr r2,[r3]
 4861 04a2 D7F8EC30 	 ldr r3,[r7,#236]
 4862 04a6 1344     	 add r3,r3,r2
 4863 04a8 C7F8EC30 	 str r3,[r7,#236]
 4864 04ac D7F8BC30 	 ldr r3,[r7,#188]
 4865 04b0 1A68     	 ldr r2,[r3]
 4866 04b2 D7F8EC30 	 ldr r3,[r7,#236]
 4867 04b6 9A42     	 cmp r2,r3
 4868 04b8 8CBF     	 ite hi
 4869 04ba 0123     	 movhi r3,#1
 4870 04bc 0023     	 movls r3,#0
 4871 04be DBB2     	 uxtb r3,r3
 4872 04c0 1A46     	 mov r2,r3
 4873 04c2 D7F8E830 	 ldr r3,[r7,#232]
 4874 04c6 1344     	 add r3,r3,r2
 4875 04c8 C7F8E830 	 str r3,[r7,#232]
 4876 04cc D7F8E830 	 ldr r3,[r7,#232]
 4877 04d0 C7F8FC30 	 str r3,[r7,#252]
 4878 04d4 D7F8BC20 	 ldr r2,[r7,#188]
 4879 04d8 131D     	 adds r3,r2,#4
 4880 04da C7F8BC30 	 str r3,[r7,#188]
 4881 04de D7F8EC30 	 ldr r3,[r7,#236]
 4882 04e2 1360     	 str r3,[r2]
1241:C:/Users/Yushev/git/wpcqi-optiga-trust-charge/optiga/externals/mbedtls/library\bignum.c ****         MULADDC_CORE   MULADDC_CORE
 4883              	 .loc 1 1241 0 discriminator 2
 4884 04e4 D7F8C020 	 ldr r2,[r7,#192]
 4885 04e8 131D     	 adds r3,r2,#4
 4886 04ea C7F8C030 	 str r3,[r7,#192]
 4887 04ee 1368     	 ldr r3,[r2]
 4888 04f0 1846     	 mov r0,r3
 4889 04f2 4FF00001 	 mov r1,#0
 4890 04f6 D7F8B830 	 ldr r3,[r7,#184]
 4891 04fa 1A46     	 mov r2,r3
 4892 04fc 4FF00003 	 mov r3,#0
 4893 0500 02FB01F5 	 mul r5,r2,r1
 4894 0504 00FB03F4 	 mul r4,r0,r3
 4895 0508 2C44     	 add r4,r4,r5
 4896 050a A0FB0223 	 umull r2,r3,r0,r2
 4897 050e E118     	 adds r1,r4,r3
 4898 0510 0B46     	 mov r3,r1
 4899 0512 C7E93C23 	 strd r2,[r7,#240]
 4900 0516 C7E93C23 	 strd r2,[r7,#240]
 4901 051a D7F8F030 	 ldr r3,[r7,#240]
 4902 051e C7F8EC30 	 str r3,[r7,#236]
 4903 0522 D7E93C23 	 ldrd r2,[r7,#240]
 4904 0526 1B00     	 movs r3,r3
 4905 0528 C7F88030 	 str r3,[r7,#128]
 4906 052c 0023     	 movs r3,#0
 4907 052e C7F88430 	 str r3,[r7,#132]
 4908 0532 D7F88030 	 ldr r3,[r7,#128]
 4909 0536 C7F8E830 	 str r3,[r7,#232]
 4910 053a D7F8EC20 	 ldr r2,[r7,#236]
 4911 053e D7F8FC30 	 ldr r3,[r7,#252]
 4912 0542 1344     	 add r3,r3,r2
 4913 0544 C7F8EC30 	 str r3,[r7,#236]
 4914 0548 D7F8EC20 	 ldr r2,[r7,#236]
 4915 054c D7F8FC30 	 ldr r3,[r7,#252]
 4916 0550 9A42     	 cmp r2,r3
 4917 0552 34BF     	 ite cc
 4918 0554 0123     	 movcc r3,#1
 4919 0556 0023     	 movcs r3,#0
 4920 0558 DBB2     	 uxtb r3,r3
 4921 055a 1A46     	 mov r2,r3
 4922 055c D7F8E830 	 ldr r3,[r7,#232]
 4923 0560 1344     	 add r3,r3,r2
 4924 0562 C7F8E830 	 str r3,[r7,#232]
 4925 0566 D7F8BC30 	 ldr r3,[r7,#188]
 4926 056a 1A68     	 ldr r2,[r3]
 4927 056c D7F8EC30 	 ldr r3,[r7,#236]
 4928 0570 1344     	 add r3,r3,r2
 4929 0572 C7F8EC30 	 str r3,[r7,#236]
 4930 0576 D7F8BC30 	 ldr r3,[r7,#188]
 4931 057a 1A68     	 ldr r2,[r3]
 4932 057c D7F8EC30 	 ldr r3,[r7,#236]
 4933 0580 9A42     	 cmp r2,r3
 4934 0582 8CBF     	 ite hi
 4935 0584 0123     	 movhi r3,#1
 4936 0586 0023     	 movls r3,#0
 4937 0588 DBB2     	 uxtb r3,r3
 4938 058a 1A46     	 mov r2,r3
 4939 058c D7F8E830 	 ldr r3,[r7,#232]
 4940 0590 1344     	 add r3,r3,r2
 4941 0592 C7F8E830 	 str r3,[r7,#232]
 4942 0596 D7F8E830 	 ldr r3,[r7,#232]
 4943 059a C7F8FC30 	 str r3,[r7,#252]
 4944 059e D7F8BC20 	 ldr r2,[r7,#188]
 4945 05a2 131D     	 adds r3,r2,#4
 4946 05a4 C7F8BC30 	 str r3,[r7,#188]
 4947 05a8 D7F8EC30 	 ldr r3,[r7,#236]
 4948 05ac 1360     	 str r3,[r2]
 4949 05ae D7F8C020 	 ldr r2,[r7,#192]
 4950 05b2 131D     	 adds r3,r2,#4
 4951 05b4 C7F8C030 	 str r3,[r7,#192]
 4952 05b8 1368     	 ldr r3,[r2]
 4953 05ba 1846     	 mov r0,r3
 4954 05bc 4FF00001 	 mov r1,#0
 4955 05c0 D7F8B830 	 ldr r3,[r7,#184]
 4956 05c4 1A46     	 mov r2,r3
 4957 05c6 4FF00003 	 mov r3,#0
 4958 05ca 02FB01F5 	 mul r5,r2,r1
 4959 05ce 00FB03F4 	 mul r4,r0,r3
 4960 05d2 2C44     	 add r4,r4,r5
 4961 05d4 A0FB0223 	 umull r2,r3,r0,r2
 4962 05d8 E118     	 adds r1,r4,r3
 4963 05da 0B46     	 mov r3,r1
 4964 05dc C7E93C23 	 strd r2,[r7,#240]
 4965 05e0 C7E93C23 	 strd r2,[r7,#240]
 4966 05e4 D7F8F030 	 ldr r3,[r7,#240]
 4967 05e8 C7F8EC30 	 str r3,[r7,#236]
 4968 05ec D7E93C23 	 ldrd r2,[r7,#240]
 4969 05f0 1B00     	 movs r3,r3
 4970 05f2 BB67     	 str r3,[r7,#120]
 4971 05f4 0023     	 movs r3,#0
 4972 05f6 FB67     	 str r3,[r7,#124]
 4973 05f8 BB6F     	 ldr r3,[r7,#120]
 4974 05fa C7F8E830 	 str r3,[r7,#232]
 4975 05fe D7F8EC20 	 ldr r2,[r7,#236]
 4976 0602 D7F8FC30 	 ldr r3,[r7,#252]
 4977 0606 1344     	 add r3,r3,r2
 4978 0608 C7F8EC30 	 str r3,[r7,#236]
 4979 060c D7F8EC20 	 ldr r2,[r7,#236]
 4980 0610 D7F8FC30 	 ldr r3,[r7,#252]
 4981 0614 9A42     	 cmp r2,r3
 4982 0616 34BF     	 ite cc
 4983 0618 0123     	 movcc r3,#1
 4984 061a 0023     	 movcs r3,#0
 4985 061c DBB2     	 uxtb r3,r3
 4986 061e 1A46     	 mov r2,r3
 4987 0620 D7F8E830 	 ldr r3,[r7,#232]
 4988 0624 1344     	 add r3,r3,r2
 4989 0626 C7F8E830 	 str r3,[r7,#232]
 4990 062a D7F8BC30 	 ldr r3,[r7,#188]
 4991 062e 1A68     	 ldr r2,[r3]
 4992 0630 D7F8EC30 	 ldr r3,[r7,#236]
 4993 0634 1344     	 add r3,r3,r2
 4994 0636 C7F8EC30 	 str r3,[r7,#236]
 4995 063a D7F8BC30 	 ldr r3,[r7,#188]
 4996 063e 1A68     	 ldr r2,[r3]
 4997 0640 D7F8EC30 	 ldr r3,[r7,#236]
 4998 0644 9A42     	 cmp r2,r3
 4999 0646 8CBF     	 ite hi
 5000 0648 0123     	 movhi r3,#1
 5001 064a 0023     	 movls r3,#0
 5002 064c DBB2     	 uxtb r3,r3
 5003 064e 1A46     	 mov r2,r3
 5004 0650 D7F8E830 	 ldr r3,[r7,#232]
 5005 0654 1344     	 add r3,r3,r2
 5006 0656 C7F8E830 	 str r3,[r7,#232]
 5007 065a D7F8E830 	 ldr r3,[r7,#232]
 5008 065e C7F8FC30 	 str r3,[r7,#252]
 5009 0662 D7F8BC20 	 ldr r2,[r7,#188]
 5010 0666 131D     	 adds r3,r2,#4
 5011 0668 C7F8BC30 	 str r3,[r7,#188]
 5012 066c D7F8EC30 	 ldr r3,[r7,#236]
 5013 0670 1360     	 str r3,[r2]
1242:C:/Users/Yushev/git/wpcqi-optiga-trust-charge/optiga/externals/mbedtls/library\bignum.c **** 
1243:C:/Users/Yushev/git/wpcqi-optiga-trust-charge/optiga/externals/mbedtls/library\bignum.c ****         MULADDC_CORE   MULADDC_CORE
 5014              	 .loc 1 1243 0 discriminator 2
 5015 0672 D7F8C020 	 ldr r2,[r7,#192]
 5016 0676 131D     	 adds r3,r2,#4
 5017 0678 C7F8C030 	 str r3,[r7,#192]
 5018 067c 1368     	 ldr r3,[r2]
 5019 067e 1846     	 mov r0,r3
 5020 0680 4FF00001 	 mov r1,#0
 5021 0684 D7F8B830 	 ldr r3,[r7,#184]
 5022 0688 1A46     	 mov r2,r3
 5023 068a 4FF00003 	 mov r3,#0
 5024 068e 02FB01F5 	 mul r5,r2,r1
 5025 0692 00FB03F4 	 mul r4,r0,r3
 5026 0696 2C44     	 add r4,r4,r5
 5027 0698 A0FB0223 	 umull r2,r3,r0,r2
 5028 069c E118     	 adds r1,r4,r3
 5029 069e 0B46     	 mov r3,r1
 5030 06a0 C7E93C23 	 strd r2,[r7,#240]
 5031 06a4 C7E93C23 	 strd r2,[r7,#240]
 5032 06a8 D7F8F030 	 ldr r3,[r7,#240]
 5033 06ac C7F8EC30 	 str r3,[r7,#236]
 5034 06b0 D7E93C23 	 ldrd r2,[r7,#240]
 5035 06b4 1B00     	 movs r3,r3
 5036 06b6 3B67     	 str r3,[r7,#112]
 5037 06b8 0023     	 movs r3,#0
 5038 06ba 7B67     	 str r3,[r7,#116]
 5039 06bc 3B6F     	 ldr r3,[r7,#112]
 5040 06be C7F8E830 	 str r3,[r7,#232]
 5041 06c2 D7F8EC20 	 ldr r2,[r7,#236]
 5042 06c6 D7F8FC30 	 ldr r3,[r7,#252]
 5043 06ca 1344     	 add r3,r3,r2
 5044 06cc C7F8EC30 	 str r3,[r7,#236]
 5045 06d0 D7F8EC20 	 ldr r2,[r7,#236]
 5046 06d4 D7F8FC30 	 ldr r3,[r7,#252]
 5047 06d8 9A42     	 cmp r2,r3
 5048 06da 34BF     	 ite cc
 5049 06dc 0123     	 movcc r3,#1
 5050 06de 0023     	 movcs r3,#0
 5051 06e0 DBB2     	 uxtb r3,r3
 5052 06e2 1A46     	 mov r2,r3
 5053 06e4 D7F8E830 	 ldr r3,[r7,#232]
 5054 06e8 1344     	 add r3,r3,r2
 5055 06ea C7F8E830 	 str r3,[r7,#232]
 5056 06ee D7F8BC30 	 ldr r3,[r7,#188]
 5057 06f2 1A68     	 ldr r2,[r3]
 5058 06f4 D7F8EC30 	 ldr r3,[r7,#236]
 5059 06f8 1344     	 add r3,r3,r2
 5060 06fa C7F8EC30 	 str r3,[r7,#236]
 5061 06fe D7F8BC30 	 ldr r3,[r7,#188]
 5062 0702 1A68     	 ldr r2,[r3]
 5063 0704 D7F8EC30 	 ldr r3,[r7,#236]
 5064 0708 9A42     	 cmp r2,r3
 5065 070a 8CBF     	 ite hi
 5066 070c 0123     	 movhi r3,#1
 5067 070e 0023     	 movls r3,#0
 5068 0710 DBB2     	 uxtb r3,r3
 5069 0712 1A46     	 mov r2,r3
 5070 0714 D7F8E830 	 ldr r3,[r7,#232]
 5071 0718 1344     	 add r3,r3,r2
 5072 071a C7F8E830 	 str r3,[r7,#232]
 5073 071e D7F8E830 	 ldr r3,[r7,#232]
 5074 0722 C7F8FC30 	 str r3,[r7,#252]
 5075 0726 D7F8BC20 	 ldr r2,[r7,#188]
 5076 072a 131D     	 adds r3,r2,#4
 5077 072c C7F8BC30 	 str r3,[r7,#188]
 5078 0730 D7F8EC30 	 ldr r3,[r7,#236]
 5079 0734 1360     	 str r3,[r2]
 5080 0736 D7F8C020 	 ldr r2,[r7,#192]
 5081 073a 131D     	 adds r3,r2,#4
 5082 073c C7F8C030 	 str r3,[r7,#192]
 5083 0740 1368     	 ldr r3,[r2]
 5084 0742 1846     	 mov r0,r3
 5085 0744 4FF00001 	 mov r1,#0
 5086 0748 D7F8B830 	 ldr r3,[r7,#184]
 5087 074c 1A46     	 mov r2,r3
 5088 074e 4FF00003 	 mov r3,#0
 5089 0752 02FB01F5 	 mul r5,r2,r1
 5090 0756 00FB03F4 	 mul r4,r0,r3
 5091 075a 2C44     	 add r4,r4,r5
 5092 075c A0FB0223 	 umull r2,r3,r0,r2
 5093 0760 E118     	 adds r1,r4,r3
 5094 0762 0B46     	 mov r3,r1
 5095 0764 C7E93C23 	 strd r2,[r7,#240]
 5096 0768 C7E93C23 	 strd r2,[r7,#240]
 5097 076c D7F8F030 	 ldr r3,[r7,#240]
 5098 0770 C7F8EC30 	 str r3,[r7,#236]
 5099 0774 D7E93C23 	 ldrd r2,[r7,#240]
 5100 0778 1B00     	 movs r3,r3
 5101 077a BB66     	 str r3,[r7,#104]
 5102 077c 0023     	 movs r3,#0
 5103 077e FB66     	 str r3,[r7,#108]
 5104 0780 BB6E     	 ldr r3,[r7,#104]
 5105 0782 C7F8E830 	 str r3,[r7,#232]
 5106 0786 D7F8EC20 	 ldr r2,[r7,#236]
 5107 078a D7F8FC30 	 ldr r3,[r7,#252]
 5108 078e 1344     	 add r3,r3,r2
 5109 0790 C7F8EC30 	 str r3,[r7,#236]
 5110 0794 D7F8EC20 	 ldr r2,[r7,#236]
 5111 0798 D7F8FC30 	 ldr r3,[r7,#252]
 5112 079c 9A42     	 cmp r2,r3
 5113 079e 34BF     	 ite cc
 5114 07a0 0123     	 movcc r3,#1
 5115 07a2 0023     	 movcs r3,#0
 5116 07a4 DBB2     	 uxtb r3,r3
 5117 07a6 1A46     	 mov r2,r3
 5118 07a8 D7F8E830 	 ldr r3,[r7,#232]
 5119 07ac 1344     	 add r3,r3,r2
 5120 07ae C7F8E830 	 str r3,[r7,#232]
 5121 07b2 D7F8BC30 	 ldr r3,[r7,#188]
 5122 07b6 1A68     	 ldr r2,[r3]
 5123 07b8 D7F8EC30 	 ldr r3,[r7,#236]
 5124 07bc 1344     	 add r3,r3,r2
 5125 07be C7F8EC30 	 str r3,[r7,#236]
 5126 07c2 D7F8BC30 	 ldr r3,[r7,#188]
 5127 07c6 1A68     	 ldr r2,[r3]
 5128 07c8 D7F8EC30 	 ldr r3,[r7,#236]
 5129 07cc 9A42     	 cmp r2,r3
 5130 07ce 8CBF     	 ite hi
 5131 07d0 0123     	 movhi r3,#1
 5132 07d2 0023     	 movls r3,#0
 5133 07d4 DBB2     	 uxtb r3,r3
 5134 07d6 1A46     	 mov r2,r3
 5135 07d8 D7F8E830 	 ldr r3,[r7,#232]
 5136 07dc 1344     	 add r3,r3,r2
 5137 07de C7F8E830 	 str r3,[r7,#232]
 5138 07e2 D7F8E830 	 ldr r3,[r7,#232]
 5139 07e6 C7F8FC30 	 str r3,[r7,#252]
 5140 07ea D7F8BC20 	 ldr r2,[r7,#188]
 5141 07ee 131D     	 adds r3,r2,#4
 5142 07f0 C7F8BC30 	 str r3,[r7,#188]
 5143 07f4 D7F8EC30 	 ldr r3,[r7,#236]
 5144 07f8 1360     	 str r3,[r2]
1244:C:/Users/Yushev/git/wpcqi-optiga-trust-charge/optiga/externals/mbedtls/library\bignum.c ****         MULADDC_CORE   MULADDC_CORE
 5145              	 .loc 1 1244 0 discriminator 2
 5146 07fa D7F8C020 	 ldr r2,[r7,#192]
 5147 07fe 131D     	 adds r3,r2,#4
 5148 0800 C7F8C030 	 str r3,[r7,#192]
 5149 0804 1368     	 ldr r3,[r2]
 5150 0806 1846     	 mov r0,r3
 5151 0808 4FF00001 	 mov r1,#0
 5152 080c D7F8B830 	 ldr r3,[r7,#184]
 5153 0810 1A46     	 mov r2,r3
 5154 0812 4FF00003 	 mov r3,#0
 5155 0816 02FB01F5 	 mul r5,r2,r1
 5156 081a 00FB03F4 	 mul r4,r0,r3
 5157 081e 2C44     	 add r4,r4,r5
 5158 0820 A0FB0223 	 umull r2,r3,r0,r2
 5159 0824 E118     	 adds r1,r4,r3
 5160 0826 0B46     	 mov r3,r1
 5161 0828 C7E93C23 	 strd r2,[r7,#240]
 5162 082c C7E93C23 	 strd r2,[r7,#240]
 5163 0830 D7F8F030 	 ldr r3,[r7,#240]
 5164 0834 C7F8EC30 	 str r3,[r7,#236]
 5165 0838 D7E93C23 	 ldrd r2,[r7,#240]
 5166 083c 1B00     	 movs r3,r3
 5167 083e 3B66     	 str r3,[r7,#96]
 5168 0840 0023     	 movs r3,#0
 5169 0842 7B66     	 str r3,[r7,#100]
 5170 0844 3B6E     	 ldr r3,[r7,#96]
 5171 0846 C7F8E830 	 str r3,[r7,#232]
 5172 084a D7F8EC20 	 ldr r2,[r7,#236]
 5173 084e D7F8FC30 	 ldr r3,[r7,#252]
 5174 0852 1344     	 add r3,r3,r2
 5175 0854 C7F8EC30 	 str r3,[r7,#236]
 5176 0858 D7F8EC20 	 ldr r2,[r7,#236]
 5177 085c D7F8FC30 	 ldr r3,[r7,#252]
 5178 0860 9A42     	 cmp r2,r3
 5179 0862 34BF     	 ite cc
 5180 0864 0123     	 movcc r3,#1
 5181 0866 0023     	 movcs r3,#0
 5182 0868 DBB2     	 uxtb r3,r3
 5183 086a 1A46     	 mov r2,r3
 5184 086c D7F8E830 	 ldr r3,[r7,#232]
 5185 0870 1344     	 add r3,r3,r2
 5186 0872 C7F8E830 	 str r3,[r7,#232]
 5187 0876 D7F8BC30 	 ldr r3,[r7,#188]
 5188 087a 1A68     	 ldr r2,[r3]
 5189 087c D7F8EC30 	 ldr r3,[r7,#236]
 5190 0880 1344     	 add r3,r3,r2
 5191 0882 C7F8EC30 	 str r3,[r7,#236]
 5192 0886 D7F8BC30 	 ldr r3,[r7,#188]
 5193 088a 1A68     	 ldr r2,[r3]
 5194 088c D7F8EC30 	 ldr r3,[r7,#236]
 5195 0890 9A42     	 cmp r2,r3
 5196 0892 8CBF     	 ite hi
 5197 0894 0123     	 movhi r3,#1
 5198 0896 0023     	 movls r3,#0
 5199 0898 DBB2     	 uxtb r3,r3
 5200 089a 1A46     	 mov r2,r3
 5201 089c D7F8E830 	 ldr r3,[r7,#232]
 5202 08a0 1344     	 add r3,r3,r2
 5203 08a2 C7F8E830 	 str r3,[r7,#232]
 5204 08a6 D7F8E830 	 ldr r3,[r7,#232]
 5205 08aa C7F8FC30 	 str r3,[r7,#252]
 5206 08ae D7F8BC20 	 ldr r2,[r7,#188]
 5207 08b2 131D     	 adds r3,r2,#4
 5208 08b4 C7F8BC30 	 str r3,[r7,#188]
 5209 08b8 D7F8EC30 	 ldr r3,[r7,#236]
 5210 08bc 1360     	 str r3,[r2]
 5211 08be D7F8C020 	 ldr r2,[r7,#192]
 5212 08c2 131D     	 adds r3,r2,#4
 5213 08c4 C7F8C030 	 str r3,[r7,#192]
 5214 08c8 1368     	 ldr r3,[r2]
 5215 08ca 1846     	 mov r0,r3
 5216 08cc 4FF00001 	 mov r1,#0
 5217 08d0 D7F8B830 	 ldr r3,[r7,#184]
 5218 08d4 1A46     	 mov r2,r3
 5219 08d6 4FF00003 	 mov r3,#0
 5220 08da 02FB01F5 	 mul r5,r2,r1
 5221 08de 00FB03F4 	 mul r4,r0,r3
 5222 08e2 2C44     	 add r4,r4,r5
 5223 08e4 A0FB0223 	 umull r2,r3,r0,r2
 5224 08e8 E118     	 adds r1,r4,r3
 5225 08ea 0B46     	 mov r3,r1
 5226 08ec C7E93C23 	 strd r2,[r7,#240]
 5227 08f0 C7E93C23 	 strd r2,[r7,#240]
 5228 08f4 D7F8F030 	 ldr r3,[r7,#240]
 5229 08f8 C7F8EC30 	 str r3,[r7,#236]
 5230 08fc D7E93C23 	 ldrd r2,[r7,#240]
 5231 0900 1B00     	 movs r3,r3
 5232 0902 BB65     	 str r3,[r7,#88]
 5233 0904 0023     	 movs r3,#0
 5234 0906 FB65     	 str r3,[r7,#92]
 5235 0908 BB6D     	 ldr r3,[r7,#88]
 5236 090a C7F8E830 	 str r3,[r7,#232]
 5237 090e D7F8EC20 	 ldr r2,[r7,#236]
 5238 0912 D7F8FC30 	 ldr r3,[r7,#252]
 5239 0916 1344     	 add r3,r3,r2
 5240 0918 C7F8EC30 	 str r3,[r7,#236]
 5241 091c D7F8EC20 	 ldr r2,[r7,#236]
 5242 0920 D7F8FC30 	 ldr r3,[r7,#252]
 5243 0924 9A42     	 cmp r2,r3
 5244 0926 34BF     	 ite cc
 5245 0928 0123     	 movcc r3,#1
 5246 092a 0023     	 movcs r3,#0
 5247 092c DBB2     	 uxtb r3,r3
 5248 092e 1A46     	 mov r2,r3
 5249 0930 D7F8E830 	 ldr r3,[r7,#232]
 5250 0934 1344     	 add r3,r3,r2
 5251 0936 C7F8E830 	 str r3,[r7,#232]
 5252 093a D7F8BC30 	 ldr r3,[r7,#188]
 5253 093e 1A68     	 ldr r2,[r3]
 5254 0940 D7F8EC30 	 ldr r3,[r7,#236]
 5255 0944 1344     	 add r3,r3,r2
 5256 0946 C7F8EC30 	 str r3,[r7,#236]
 5257 094a D7F8BC30 	 ldr r3,[r7,#188]
 5258 094e 1A68     	 ldr r2,[r3]
 5259 0950 D7F8EC30 	 ldr r3,[r7,#236]
 5260 0954 9A42     	 cmp r2,r3
 5261 0956 8CBF     	 ite hi
 5262 0958 0123     	 movhi r3,#1
 5263 095a 0023     	 movls r3,#0
 5264 095c DBB2     	 uxtb r3,r3
 5265 095e 1A46     	 mov r2,r3
 5266 0960 D7F8E830 	 ldr r3,[r7,#232]
 5267 0964 1344     	 add r3,r3,r2
 5268 0966 C7F8E830 	 str r3,[r7,#232]
 5269 096a D7F8E830 	 ldr r3,[r7,#232]
 5270 096e C7F8FC30 	 str r3,[r7,#252]
 5271 0972 D7F8BC20 	 ldr r2,[r7,#188]
 5272 0976 131D     	 adds r3,r2,#4
 5273 0978 C7F8BC30 	 str r3,[r7,#188]
 5274 097c D7F8EC30 	 ldr r3,[r7,#236]
 5275 0980 1360     	 str r3,[r2]
1245:C:/Users/Yushev/git/wpcqi-optiga-trust-charge/optiga/externals/mbedtls/library\bignum.c ****         MULADDC_CORE   MULADDC_CORE
 5276              	 .loc 1 1245 0 discriminator 2
 5277 0982 D7F8C020 	 ldr r2,[r7,#192]
 5278 0986 131D     	 adds r3,r2,#4
 5279 0988 C7F8C030 	 str r3,[r7,#192]
 5280 098c 1368     	 ldr r3,[r2]
 5281 098e 1846     	 mov r0,r3
 5282 0990 4FF00001 	 mov r1,#0
 5283 0994 D7F8B830 	 ldr r3,[r7,#184]
 5284 0998 1A46     	 mov r2,r3
 5285 099a 4FF00003 	 mov r3,#0
 5286 099e 02FB01F5 	 mul r5,r2,r1
 5287 09a2 00FB03F4 	 mul r4,r0,r3
 5288 09a6 2C44     	 add r4,r4,r5
 5289 09a8 A0FB0223 	 umull r2,r3,r0,r2
 5290 09ac E118     	 adds r1,r4,r3
 5291 09ae 0B46     	 mov r3,r1
 5292 09b0 C7E93C23 	 strd r2,[r7,#240]
 5293 09b4 C7E93C23 	 strd r2,[r7,#240]
 5294 09b8 D7F8F030 	 ldr r3,[r7,#240]
 5295 09bc C7F8EC30 	 str r3,[r7,#236]
 5296 09c0 D7E93C23 	 ldrd r2,[r7,#240]
 5297 09c4 1B00     	 movs r3,r3
 5298 09c6 3B65     	 str r3,[r7,#80]
 5299 09c8 0023     	 movs r3,#0
 5300 09ca 7B65     	 str r3,[r7,#84]
 5301 09cc 3B6D     	 ldr r3,[r7,#80]
 5302 09ce C7F8E830 	 str r3,[r7,#232]
 5303 09d2 D7F8EC20 	 ldr r2,[r7,#236]
 5304 09d6 D7F8FC30 	 ldr r3,[r7,#252]
 5305 09da 1344     	 add r3,r3,r2
 5306 09dc C7F8EC30 	 str r3,[r7,#236]
 5307 09e0 D7F8EC20 	 ldr r2,[r7,#236]
 5308 09e4 D7F8FC30 	 ldr r3,[r7,#252]
 5309 09e8 9A42     	 cmp r2,r3
 5310 09ea 34BF     	 ite cc
 5311 09ec 0123     	 movcc r3,#1
 5312 09ee 0023     	 movcs r3,#0
 5313 09f0 DBB2     	 uxtb r3,r3
 5314 09f2 1A46     	 mov r2,r3
 5315 09f4 D7F8E830 	 ldr r3,[r7,#232]
 5316 09f8 1344     	 add r3,r3,r2
 5317 09fa C7F8E830 	 str r3,[r7,#232]
 5318 09fe D7F8BC30 	 ldr r3,[r7,#188]
 5319 0a02 1A68     	 ldr r2,[r3]
 5320 0a04 D7F8EC30 	 ldr r3,[r7,#236]
 5321 0a08 1344     	 add r3,r3,r2
 5322 0a0a C7F8EC30 	 str r3,[r7,#236]
 5323 0a0e D7F8BC30 	 ldr r3,[r7,#188]
 5324 0a12 1A68     	 ldr r2,[r3]
 5325 0a14 D7F8EC30 	 ldr r3,[r7,#236]
 5326 0a18 9A42     	 cmp r2,r3
 5327 0a1a 8CBF     	 ite hi
 5328 0a1c 0123     	 movhi r3,#1
 5329 0a1e 0023     	 movls r3,#0
 5330 0a20 DBB2     	 uxtb r3,r3
 5331 0a22 1A46     	 mov r2,r3
 5332 0a24 D7F8E830 	 ldr r3,[r7,#232]
 5333 0a28 1344     	 add r3,r3,r2
 5334 0a2a C7F8E830 	 str r3,[r7,#232]
 5335 0a2e D7F8E830 	 ldr r3,[r7,#232]
 5336 0a32 C7F8FC30 	 str r3,[r7,#252]
 5337 0a36 D7F8BC20 	 ldr r2,[r7,#188]
 5338 0a3a 131D     	 adds r3,r2,#4
 5339 0a3c C7F8BC30 	 str r3,[r7,#188]
 5340 0a40 D7F8EC30 	 ldr r3,[r7,#236]
 5341 0a44 1360     	 str r3,[r2]
 5342 0a46 D7F8C020 	 ldr r2,[r7,#192]
 5343 0a4a 131D     	 adds r3,r2,#4
 5344 0a4c C7F8C030 	 str r3,[r7,#192]
 5345 0a50 1368     	 ldr r3,[r2]
 5346 0a52 1846     	 mov r0,r3
 5347 0a54 4FF00001 	 mov r1,#0
 5348 0a58 D7F8B830 	 ldr r3,[r7,#184]
 5349 0a5c 1A46     	 mov r2,r3
 5350 0a5e 4FF00003 	 mov r3,#0
 5351 0a62 02FB01F5 	 mul r5,r2,r1
 5352 0a66 00FB03F4 	 mul r4,r0,r3
 5353 0a6a 2C44     	 add r4,r4,r5
 5354 0a6c A0FB0223 	 umull r2,r3,r0,r2
 5355 0a70 E118     	 adds r1,r4,r3
 5356 0a72 0B46     	 mov r3,r1
 5357 0a74 C7E93C23 	 strd r2,[r7,#240]
 5358 0a78 C7E93C23 	 strd r2,[r7,#240]
 5359 0a7c D7F8F030 	 ldr r3,[r7,#240]
 5360 0a80 C7F8EC30 	 str r3,[r7,#236]
 5361 0a84 D7E93C23 	 ldrd r2,[r7,#240]
 5362 0a88 1B00     	 movs r3,r3
 5363 0a8a BB64     	 str r3,[r7,#72]
 5364 0a8c 0023     	 movs r3,#0
 5365 0a8e FB64     	 str r3,[r7,#76]
 5366 0a90 BB6C     	 ldr r3,[r7,#72]
 5367 0a92 C7F8E830 	 str r3,[r7,#232]
 5368 0a96 D7F8EC20 	 ldr r2,[r7,#236]
 5369 0a9a D7F8FC30 	 ldr r3,[r7,#252]
 5370 0a9e 1344     	 add r3,r3,r2
 5371 0aa0 C7F8EC30 	 str r3,[r7,#236]
 5372 0aa4 D7F8EC20 	 ldr r2,[r7,#236]
 5373 0aa8 D7F8FC30 	 ldr r3,[r7,#252]
 5374 0aac 9A42     	 cmp r2,r3
 5375 0aae 34BF     	 ite cc
 5376 0ab0 0123     	 movcc r3,#1
 5377 0ab2 0023     	 movcs r3,#0
 5378 0ab4 DBB2     	 uxtb r3,r3
 5379 0ab6 1A46     	 mov r2,r3
 5380 0ab8 D7F8E830 	 ldr r3,[r7,#232]
 5381 0abc 1344     	 add r3,r3,r2
 5382 0abe C7F8E830 	 str r3,[r7,#232]
 5383 0ac2 D7F8BC30 	 ldr r3,[r7,#188]
 5384 0ac6 1A68     	 ldr r2,[r3]
 5385 0ac8 D7F8EC30 	 ldr r3,[r7,#236]
 5386 0acc 1344     	 add r3,r3,r2
 5387 0ace C7F8EC30 	 str r3,[r7,#236]
 5388 0ad2 D7F8BC30 	 ldr r3,[r7,#188]
 5389 0ad6 1A68     	 ldr r2,[r3]
 5390 0ad8 D7F8EC30 	 ldr r3,[r7,#236]
 5391 0adc 9A42     	 cmp r2,r3
 5392 0ade 8CBF     	 ite hi
 5393 0ae0 0123     	 movhi r3,#1
 5394 0ae2 0023     	 movls r3,#0
 5395 0ae4 DBB2     	 uxtb r3,r3
 5396 0ae6 1A46     	 mov r2,r3
 5397 0ae8 D7F8E830 	 ldr r3,[r7,#232]
 5398 0aec 1344     	 add r3,r3,r2
 5399 0aee C7F8E830 	 str r3,[r7,#232]
 5400 0af2 D7F8E830 	 ldr r3,[r7,#232]
 5401 0af6 C7F8FC30 	 str r3,[r7,#252]
 5402 0afa D7F8BC20 	 ldr r2,[r7,#188]
 5403 0afe 131D     	 adds r3,r2,#4
 5404 0b00 C7F8BC30 	 str r3,[r7,#188]
 5405 0b04 D7F8EC30 	 ldr r3,[r7,#236]
 5406 0b08 1360     	 str r3,[r2]
1246:C:/Users/Yushev/git/wpcqi-optiga-trust-charge/optiga/externals/mbedtls/library\bignum.c ****         MULADDC_CORE   MULADDC_CORE
 5407              	 .loc 1 1246 0 discriminator 2
 5408 0b0a D7F8C020 	 ldr r2,[r7,#192]
 5409 0b0e 131D     	 adds r3,r2,#4
 5410 0b10 C7F8C030 	 str r3,[r7,#192]
 5411 0b14 1368     	 ldr r3,[r2]
 5412 0b16 1846     	 mov r0,r3
 5413 0b18 4FF00001 	 mov r1,#0
 5414 0b1c D7F8B830 	 ldr r3,[r7,#184]
 5415 0b20 1A46     	 mov r2,r3
 5416 0b22 4FF00003 	 mov r3,#0
 5417 0b26 02FB01F5 	 mul r5,r2,r1
 5418 0b2a 00FB03F4 	 mul r4,r0,r3
 5419 0b2e 2C44     	 add r4,r4,r5
 5420 0b30 A0FB0223 	 umull r2,r3,r0,r2
 5421 0b34 E118     	 adds r1,r4,r3
 5422 0b36 0B46     	 mov r3,r1
 5423 0b38 C7E93C23 	 strd r2,[r7,#240]
 5424 0b3c C7E93C23 	 strd r2,[r7,#240]
 5425 0b40 D7F8F030 	 ldr r3,[r7,#240]
 5426 0b44 C7F8EC30 	 str r3,[r7,#236]
 5427 0b48 D7E93C23 	 ldrd r2,[r7,#240]
 5428 0b4c 9A46     	 mov r10,r3
 5429 0b4e 4FF0000B 	 mov fp,#0
 5430 0b52 5346     	 mov r3,r10
 5431 0b54 C7F8E830 	 str r3,[r7,#232]
 5432 0b58 D7F8EC20 	 ldr r2,[r7,#236]
 5433 0b5c D7F8FC30 	 ldr r3,[r7,#252]
 5434 0b60 1344     	 add r3,r3,r2
 5435 0b62 C7F8EC30 	 str r3,[r7,#236]
 5436 0b66 D7F8EC20 	 ldr r2,[r7,#236]
 5437 0b6a D7F8FC30 	 ldr r3,[r7,#252]
 5438 0b6e 9A42     	 cmp r2,r3
 5439 0b70 34BF     	 ite cc
 5440 0b72 0123     	 movcc r3,#1
 5441 0b74 0023     	 movcs r3,#0
 5442 0b76 DBB2     	 uxtb r3,r3
 5443 0b78 1A46     	 mov r2,r3
 5444 0b7a D7F8E830 	 ldr r3,[r7,#232]
 5445 0b7e 1344     	 add r3,r3,r2
 5446 0b80 C7F8E830 	 str r3,[r7,#232]
 5447 0b84 D7F8BC30 	 ldr r3,[r7,#188]
 5448 0b88 1A68     	 ldr r2,[r3]
 5449 0b8a D7F8EC30 	 ldr r3,[r7,#236]
 5450 0b8e 1344     	 add r3,r3,r2
 5451 0b90 C7F8EC30 	 str r3,[r7,#236]
 5452 0b94 D7F8BC30 	 ldr r3,[r7,#188]
 5453 0b98 1A68     	 ldr r2,[r3]
 5454 0b9a D7F8EC30 	 ldr r3,[r7,#236]
 5455 0b9e 9A42     	 cmp r2,r3
 5456 0ba0 8CBF     	 ite hi
 5457 0ba2 0123     	 movhi r3,#1
 5458 0ba4 0023     	 movls r3,#0
 5459 0ba6 DBB2     	 uxtb r3,r3
 5460 0ba8 1A46     	 mov r2,r3
 5461 0baa D7F8E830 	 ldr r3,[r7,#232]
 5462 0bae 1344     	 add r3,r3,r2
 5463 0bb0 C7F8E830 	 str r3,[r7,#232]
 5464 0bb4 D7F8E830 	 ldr r3,[r7,#232]
 5465 0bb8 C7F8FC30 	 str r3,[r7,#252]
 5466 0bbc D7F8BC20 	 ldr r2,[r7,#188]
 5467 0bc0 131D     	 adds r3,r2,#4
 5468 0bc2 C7F8BC30 	 str r3,[r7,#188]
 5469 0bc6 D7F8EC30 	 ldr r3,[r7,#236]
 5470 0bca 1360     	 str r3,[r2]
 5471 0bcc D7F8C020 	 ldr r2,[r7,#192]
 5472 0bd0 131D     	 adds r3,r2,#4
 5473 0bd2 C7F8C030 	 str r3,[r7,#192]
 5474 0bd6 1368     	 ldr r3,[r2]
 5475 0bd8 1846     	 mov r0,r3
 5476 0bda 4FF00001 	 mov r1,#0
 5477 0bde D7F8B830 	 ldr r3,[r7,#184]
 5478 0be2 1A46     	 mov r2,r3
 5479 0be4 4FF00003 	 mov r3,#0
 5480 0be8 02FB01F5 	 mul r5,r2,r1
 5481 0bec 00FB03F4 	 mul r4,r0,r3
 5482 0bf0 2C44     	 add r4,r4,r5
 5483 0bf2 A0FB0223 	 umull r2,r3,r0,r2
 5484 0bf6 E118     	 adds r1,r4,r3
 5485 0bf8 0B46     	 mov r3,r1
 5486 0bfa C7E93C23 	 strd r2,[r7,#240]
 5487 0bfe C7E93C23 	 strd r2,[r7,#240]
 5488 0c02 D7F8F030 	 ldr r3,[r7,#240]
 5489 0c06 C7F8EC30 	 str r3,[r7,#236]
 5490 0c0a D7E93C23 	 ldrd r2,[r7,#240]
 5491 0c0e 9846     	 mov r8,r3
 5492 0c10 4FF00009 	 mov r9,#0
 5493 0c14 4346     	 mov r3,r8
 5494 0c16 C7F8E830 	 str r3,[r7,#232]
 5495 0c1a D7F8EC20 	 ldr r2,[r7,#236]
 5496 0c1e D7F8FC30 	 ldr r3,[r7,#252]
 5497 0c22 1344     	 add r3,r3,r2
 5498 0c24 C7F8EC30 	 str r3,[r7,#236]
 5499 0c28 D7F8EC20 	 ldr r2,[r7,#236]
 5500 0c2c D7F8FC30 	 ldr r3,[r7,#252]
 5501 0c30 9A42     	 cmp r2,r3
 5502 0c32 34BF     	 ite cc
 5503 0c34 0123     	 movcc r3,#1
 5504 0c36 0023     	 movcs r3,#0
 5505 0c38 DBB2     	 uxtb r3,r3
 5506 0c3a 1A46     	 mov r2,r3
 5507 0c3c D7F8E830 	 ldr r3,[r7,#232]
 5508 0c40 1344     	 add r3,r3,r2
 5509 0c42 C7F8E830 	 str r3,[r7,#232]
 5510 0c46 D7F8BC30 	 ldr r3,[r7,#188]
 5511 0c4a 1A68     	 ldr r2,[r3]
 5512 0c4c D7F8EC30 	 ldr r3,[r7,#236]
 5513 0c50 1344     	 add r3,r3,r2
 5514 0c52 C7F8EC30 	 str r3,[r7,#236]
 5515 0c56 D7F8BC30 	 ldr r3,[r7,#188]
 5516 0c5a 1A68     	 ldr r2,[r3]
 5517 0c5c D7F8EC30 	 ldr r3,[r7,#236]
 5518 0c60 9A42     	 cmp r2,r3
 5519 0c62 8CBF     	 ite hi
 5520 0c64 0123     	 movhi r3,#1
 5521 0c66 0023     	 movls r3,#0
 5522 0c68 DBB2     	 uxtb r3,r3
 5523 0c6a 1A46     	 mov r2,r3
 5524 0c6c D7F8E830 	 ldr r3,[r7,#232]
 5525 0c70 1344     	 add r3,r3,r2
 5526 0c72 C7F8E830 	 str r3,[r7,#232]
 5527 0c76 D7F8E830 	 ldr r3,[r7,#232]
 5528 0c7a C7F8FC30 	 str r3,[r7,#252]
 5529 0c7e D7F8BC20 	 ldr r2,[r7,#188]
 5530 0c82 131D     	 adds r3,r2,#4
 5531 0c84 C7F8BC30 	 str r3,[r7,#188]
 5532 0c88 D7F8EC30 	 ldr r3,[r7,#236]
 5533 0c8c 1360     	 str r3,[r2]
 5534              	.LBE4:
1235:C:/Users/Yushev/git/wpcqi-optiga-trust-charge/optiga/externals/mbedtls/library\bignum.c ****     {
 5535              	 .loc 1 1235 0 discriminator 2
 5536 0c8e D7F8C430 	 ldr r3,[r7,#196]
 5537 0c92 103B     	 subs r3,r3,#16
 5538 0c94 C7F8C430 	 str r3,[r7,#196]
 5539              	.L291:
1235:C:/Users/Yushev/git/wpcqi-optiga-trust-charge/optiga/externals/mbedtls/library\bignum.c ****     {
 5540              	 .loc 1 1235 0 is_stmt 0 discriminator 1
 5541 0c98 D7F8C430 	 ldr r3,[r7,#196]
 5542 0c9c 0F2B     	 cmp r3,#15
 5543 0c9e 3FF6C3A9 	 bhi .L292
1247:C:/Users/Yushev/git/wpcqi-optiga-trust-charge/optiga/externals/mbedtls/library\bignum.c ****         MULADDC_STOP
1248:C:/Users/Yushev/git/wpcqi-optiga-trust-charge/optiga/externals/mbedtls/library\bignum.c ****     }
1249:C:/Users/Yushev/git/wpcqi-optiga-trust-charge/optiga/externals/mbedtls/library\bignum.c **** 
1250:C:/Users/Yushev/git/wpcqi-optiga-trust-charge/optiga/externals/mbedtls/library\bignum.c ****     for( ; i >= 8; i -= 8 )
 5544              	 .loc 1 1250 0 is_stmt 1
 5545 0ca2 14E3     	 b .L293
 5546              	.L294:
 5547              	.LBB5:
1251:C:/Users/Yushev/git/wpcqi-optiga-trust-charge/optiga/externals/mbedtls/library\bignum.c ****     {
1252:C:/Users/Yushev/git/wpcqi-optiga-trust-charge/optiga/externals/mbedtls/library\bignum.c ****         MULADDC_INIT
1253:C:/Users/Yushev/git/wpcqi-optiga-trust-charge/optiga/externals/mbedtls/library\bignum.c ****         MULADDC_CORE   MULADDC_CORE
 5548              	 .loc 1 1253 0 discriminator 2
 5549 0ca4 D7F8C020 	 ldr r2,[r7,#192]
 5550 0ca8 131D     	 adds r3,r2,#4
 5551 0caa C7F8C030 	 str r3,[r7,#192]
 5552 0cae 1368     	 ldr r3,[r2]
 5553 0cb0 1846     	 mov r0,r3
 5554 0cb2 4FF00001 	 mov r1,#0
 5555 0cb6 D7F8B830 	 ldr r3,[r7,#184]
 5556 0cba 1A46     	 mov r2,r3
 5557 0cbc 4FF00003 	 mov r3,#0
 5558 0cc0 02FB01F5 	 mul r5,r2,r1
 5559 0cc4 00FB03F4 	 mul r4,r0,r3
 5560 0cc8 2C44     	 add r4,r4,r5
 5561 0cca A0FB0223 	 umull r2,r3,r0,r2
 5562 0cce E118     	 adds r1,r4,r3
 5563 0cd0 0B46     	 mov r3,r1
 5564 0cd2 C7E93823 	 strd r2,[r7,#224]
 5565 0cd6 C7E93823 	 strd r2,[r7,#224]
 5566 0cda D7F8E030 	 ldr r3,[r7,#224]
 5567 0cde C7F8DC30 	 str r3,[r7,#220]
 5568 0ce2 D7E93823 	 ldrd r2,[r7,#224]
 5569 0ce6 1B00     	 movs r3,r3
 5570 0ce8 3B64     	 str r3,[r7,#64]
 5571 0cea 0023     	 movs r3,#0
 5572 0cec 7B64     	 str r3,[r7,#68]
 5573 0cee 3B6C     	 ldr r3,[r7,#64]
 5574 0cf0 C7F8D830 	 str r3,[r7,#216]
 5575 0cf4 D7F8DC20 	 ldr r2,[r7,#220]
 5576 0cf8 D7F8FC30 	 ldr r3,[r7,#252]
 5577 0cfc 1344     	 add r3,r3,r2
 5578 0cfe C7F8DC30 	 str r3,[r7,#220]
 5579 0d02 D7F8DC20 	 ldr r2,[r7,#220]
 5580 0d06 D7F8FC30 	 ldr r3,[r7,#252]
 5581 0d0a 9A42     	 cmp r2,r3
 5582 0d0c 34BF     	 ite cc
 5583 0d0e 0123     	 movcc r3,#1
 5584 0d10 0023     	 movcs r3,#0
 5585 0d12 DBB2     	 uxtb r3,r3
 5586 0d14 1A46     	 mov r2,r3
 5587 0d16 D7F8D830 	 ldr r3,[r7,#216]
 5588 0d1a 1344     	 add r3,r3,r2
 5589 0d1c C7F8D830 	 str r3,[r7,#216]
 5590 0d20 D7F8BC30 	 ldr r3,[r7,#188]
 5591 0d24 1A68     	 ldr r2,[r3]
 5592 0d26 D7F8DC30 	 ldr r3,[r7,#220]
 5593 0d2a 1344     	 add r3,r3,r2
 5594 0d2c C7F8DC30 	 str r3,[r7,#220]
 5595 0d30 D7F8BC30 	 ldr r3,[r7,#188]
 5596 0d34 1A68     	 ldr r2,[r3]
 5597 0d36 D7F8DC30 	 ldr r3,[r7,#220]
 5598 0d3a 9A42     	 cmp r2,r3
 5599 0d3c 8CBF     	 ite hi
 5600 0d3e 0123     	 movhi r3,#1
 5601 0d40 0023     	 movls r3,#0
 5602 0d42 DBB2     	 uxtb r3,r3
 5603 0d44 1A46     	 mov r2,r3
 5604 0d46 D7F8D830 	 ldr r3,[r7,#216]
 5605 0d4a 1344     	 add r3,r3,r2
 5606 0d4c C7F8D830 	 str r3,[r7,#216]
 5607 0d50 D7F8D830 	 ldr r3,[r7,#216]
 5608 0d54 C7F8FC30 	 str r3,[r7,#252]
 5609 0d58 D7F8BC20 	 ldr r2,[r7,#188]
 5610 0d5c 131D     	 adds r3,r2,#4
 5611 0d5e C7F8BC30 	 str r3,[r7,#188]
 5612 0d62 D7F8DC30 	 ldr r3,[r7,#220]
 5613 0d66 1360     	 str r3,[r2]
 5614 0d68 D7F8C020 	 ldr r2,[r7,#192]
 5615 0d6c 131D     	 adds r3,r2,#4
 5616 0d6e C7F8C030 	 str r3,[r7,#192]
 5617 0d72 1368     	 ldr r3,[r2]
 5618 0d74 1846     	 mov r0,r3
 5619 0d76 4FF00001 	 mov r1,#0
 5620 0d7a D7F8B830 	 ldr r3,[r7,#184]
 5621 0d7e 1A46     	 mov r2,r3
 5622 0d80 4FF00003 	 mov r3,#0
 5623 0d84 02FB01F5 	 mul r5,r2,r1
 5624 0d88 00FB03F4 	 mul r4,r0,r3
 5625 0d8c 2C44     	 add r4,r4,r5
 5626 0d8e A0FB0223 	 umull r2,r3,r0,r2
 5627 0d92 E118     	 adds r1,r4,r3
 5628 0d94 0B46     	 mov r3,r1
 5629 0d96 C7E93823 	 strd r2,[r7,#224]
 5630 0d9a C7E93823 	 strd r2,[r7,#224]
 5631 0d9e D7F8E030 	 ldr r3,[r7,#224]
 5632 0da2 C7F8DC30 	 str r3,[r7,#220]
 5633 0da6 D7E93823 	 ldrd r2,[r7,#224]
 5634 0daa 1B00     	 movs r3,r3
 5635 0dac BB63     	 str r3,[r7,#56]
 5636 0dae 0023     	 movs r3,#0
 5637 0db0 FB63     	 str r3,[r7,#60]
 5638 0db2 BB6B     	 ldr r3,[r7,#56]
 5639 0db4 C7F8D830 	 str r3,[r7,#216]
 5640 0db8 D7F8DC20 	 ldr r2,[r7,#220]
 5641 0dbc D7F8FC30 	 ldr r3,[r7,#252]
 5642 0dc0 1344     	 add r3,r3,r2
 5643 0dc2 C7F8DC30 	 str r3,[r7,#220]
 5644 0dc6 D7F8DC20 	 ldr r2,[r7,#220]
 5645 0dca D7F8FC30 	 ldr r3,[r7,#252]
 5646 0dce 9A42     	 cmp r2,r3
 5647 0dd0 34BF     	 ite cc
 5648 0dd2 0123     	 movcc r3,#1
 5649 0dd4 0023     	 movcs r3,#0
 5650 0dd6 DBB2     	 uxtb r3,r3
 5651 0dd8 1A46     	 mov r2,r3
 5652 0dda D7F8D830 	 ldr r3,[r7,#216]
 5653 0dde 1344     	 add r3,r3,r2
 5654 0de0 C7F8D830 	 str r3,[r7,#216]
 5655 0de4 D7F8BC30 	 ldr r3,[r7,#188]
 5656 0de8 1A68     	 ldr r2,[r3]
 5657 0dea D7F8DC30 	 ldr r3,[r7,#220]
 5658 0dee 1344     	 add r3,r3,r2
 5659 0df0 C7F8DC30 	 str r3,[r7,#220]
 5660 0df4 D7F8BC30 	 ldr r3,[r7,#188]
 5661 0df8 1A68     	 ldr r2,[r3]
 5662 0dfa D7F8DC30 	 ldr r3,[r7,#220]
 5663 0dfe 9A42     	 cmp r2,r3
 5664 0e00 8CBF     	 ite hi
 5665 0e02 0123     	 movhi r3,#1
 5666 0e04 0023     	 movls r3,#0
 5667 0e06 DBB2     	 uxtb r3,r3
 5668 0e08 1A46     	 mov r2,r3
 5669 0e0a D7F8D830 	 ldr r3,[r7,#216]
 5670 0e0e 1344     	 add r3,r3,r2
 5671 0e10 C7F8D830 	 str r3,[r7,#216]
 5672 0e14 D7F8D830 	 ldr r3,[r7,#216]
 5673 0e18 C7F8FC30 	 str r3,[r7,#252]
 5674 0e1c D7F8BC20 	 ldr r2,[r7,#188]
 5675 0e20 131D     	 adds r3,r2,#4
 5676 0e22 C7F8BC30 	 str r3,[r7,#188]
 5677 0e26 D7F8DC30 	 ldr r3,[r7,#220]
 5678 0e2a 1360     	 str r3,[r2]
1254:C:/Users/Yushev/git/wpcqi-optiga-trust-charge/optiga/externals/mbedtls/library\bignum.c ****         MULADDC_CORE   MULADDC_CORE
 5679              	 .loc 1 1254 0 discriminator 2
 5680 0e2c D7F8C020 	 ldr r2,[r7,#192]
 5681 0e30 131D     	 adds r3,r2,#4
 5682 0e32 C7F8C030 	 str r3,[r7,#192]
 5683 0e36 1368     	 ldr r3,[r2]
 5684 0e38 1846     	 mov r0,r3
 5685 0e3a 4FF00001 	 mov r1,#0
 5686 0e3e D7F8B830 	 ldr r3,[r7,#184]
 5687 0e42 1A46     	 mov r2,r3
 5688 0e44 4FF00003 	 mov r3,#0
 5689 0e48 02FB01F5 	 mul r5,r2,r1
 5690 0e4c 00FB03F4 	 mul r4,r0,r3
 5691 0e50 2C44     	 add r4,r4,r5
 5692 0e52 A0FB0223 	 umull r2,r3,r0,r2
 5693 0e56 E118     	 adds r1,r4,r3
 5694 0e58 0B46     	 mov r3,r1
 5695 0e5a C7E93823 	 strd r2,[r7,#224]
 5696 0e5e C7E93823 	 strd r2,[r7,#224]
 5697 0e62 D7F8E030 	 ldr r3,[r7,#224]
 5698 0e66 C7F8DC30 	 str r3,[r7,#220]
 5699 0e6a D7E93823 	 ldrd r2,[r7,#224]
 5700 0e6e 1B00     	 movs r3,r3
 5701 0e70 3B63     	 str r3,[r7,#48]
 5702 0e72 0023     	 movs r3,#0
 5703 0e74 7B63     	 str r3,[r7,#52]
 5704 0e76 3B6B     	 ldr r3,[r7,#48]
 5705 0e78 C7F8D830 	 str r3,[r7,#216]
 5706 0e7c D7F8DC20 	 ldr r2,[r7,#220]
 5707 0e80 D7F8FC30 	 ldr r3,[r7,#252]
 5708 0e84 1344     	 add r3,r3,r2
 5709 0e86 C7F8DC30 	 str r3,[r7,#220]
 5710 0e8a D7F8DC20 	 ldr r2,[r7,#220]
 5711 0e8e D7F8FC30 	 ldr r3,[r7,#252]
 5712 0e92 9A42     	 cmp r2,r3
 5713 0e94 34BF     	 ite cc
 5714 0e96 0123     	 movcc r3,#1
 5715 0e98 0023     	 movcs r3,#0
 5716 0e9a DBB2     	 uxtb r3,r3
 5717 0e9c 1A46     	 mov r2,r3
 5718 0e9e D7F8D830 	 ldr r3,[r7,#216]
 5719 0ea2 1344     	 add r3,r3,r2
 5720 0ea4 C7F8D830 	 str r3,[r7,#216]
 5721 0ea8 D7F8BC30 	 ldr r3,[r7,#188]
 5722 0eac 1A68     	 ldr r2,[r3]
 5723 0eae D7F8DC30 	 ldr r3,[r7,#220]
 5724 0eb2 1344     	 add r3,r3,r2
 5725 0eb4 C7F8DC30 	 str r3,[r7,#220]
 5726 0eb8 D7F8BC30 	 ldr r3,[r7,#188]
 5727 0ebc 1A68     	 ldr r2,[r3]
 5728 0ebe D7F8DC30 	 ldr r3,[r7,#220]
 5729 0ec2 9A42     	 cmp r2,r3
 5730 0ec4 8CBF     	 ite hi
 5731 0ec6 0123     	 movhi r3,#1
 5732 0ec8 0023     	 movls r3,#0
 5733 0eca DBB2     	 uxtb r3,r3
 5734 0ecc 1A46     	 mov r2,r3
 5735 0ece D7F8D830 	 ldr r3,[r7,#216]
 5736 0ed2 1344     	 add r3,r3,r2
 5737 0ed4 C7F8D830 	 str r3,[r7,#216]
 5738 0ed8 D7F8D830 	 ldr r3,[r7,#216]
 5739 0edc C7F8FC30 	 str r3,[r7,#252]
 5740 0ee0 D7F8BC20 	 ldr r2,[r7,#188]
 5741 0ee4 131D     	 adds r3,r2,#4
 5742 0ee6 C7F8BC30 	 str r3,[r7,#188]
 5743 0eea D7F8DC30 	 ldr r3,[r7,#220]
 5744 0eee 1360     	 str r3,[r2]
 5745 0ef0 D7F8C020 	 ldr r2,[r7,#192]
 5746 0ef4 131D     	 adds r3,r2,#4
 5747 0ef6 C7F8C030 	 str r3,[r7,#192]
 5748 0efa 1368     	 ldr r3,[r2]
 5749 0efc 1846     	 mov r0,r3
 5750 0efe 4FF00001 	 mov r1,#0
 5751 0f02 D7F8B830 	 ldr r3,[r7,#184]
 5752 0f06 1A46     	 mov r2,r3
 5753 0f08 4FF00003 	 mov r3,#0
 5754 0f0c 02FB01F5 	 mul r5,r2,r1
 5755 0f10 00FB03F4 	 mul r4,r0,r3
 5756 0f14 2C44     	 add r4,r4,r5
 5757 0f16 A0FB0223 	 umull r2,r3,r0,r2
 5758 0f1a E118     	 adds r1,r4,r3
 5759 0f1c 0B46     	 mov r3,r1
 5760 0f1e C7E93823 	 strd r2,[r7,#224]
 5761 0f22 C7E93823 	 strd r2,[r7,#224]
 5762 0f26 D7F8E030 	 ldr r3,[r7,#224]
 5763 0f2a C7F8DC30 	 str r3,[r7,#220]
 5764 0f2e D7E93823 	 ldrd r2,[r7,#224]
 5765 0f32 1B00     	 movs r3,r3
 5766 0f34 BB62     	 str r3,[r7,#40]
 5767 0f36 0023     	 movs r3,#0
 5768 0f38 FB62     	 str r3,[r7,#44]
 5769 0f3a BB6A     	 ldr r3,[r7,#40]
 5770 0f3c C7F8D830 	 str r3,[r7,#216]
 5771 0f40 D7F8DC20 	 ldr r2,[r7,#220]
 5772 0f44 D7F8FC30 	 ldr r3,[r7,#252]
 5773 0f48 1344     	 add r3,r3,r2
 5774 0f4a C7F8DC30 	 str r3,[r7,#220]
 5775 0f4e D7F8DC20 	 ldr r2,[r7,#220]
 5776 0f52 D7F8FC30 	 ldr r3,[r7,#252]
 5777 0f56 9A42     	 cmp r2,r3
 5778 0f58 34BF     	 ite cc
 5779 0f5a 0123     	 movcc r3,#1
 5780 0f5c 0023     	 movcs r3,#0
 5781 0f5e DBB2     	 uxtb r3,r3
 5782 0f60 1A46     	 mov r2,r3
 5783 0f62 D7F8D830 	 ldr r3,[r7,#216]
 5784 0f66 1344     	 add r3,r3,r2
 5785 0f68 C7F8D830 	 str r3,[r7,#216]
 5786 0f6c D7F8BC30 	 ldr r3,[r7,#188]
 5787 0f70 1A68     	 ldr r2,[r3]
 5788 0f72 D7F8DC30 	 ldr r3,[r7,#220]
 5789 0f76 1344     	 add r3,r3,r2
 5790 0f78 C7F8DC30 	 str r3,[r7,#220]
 5791 0f7c D7F8BC30 	 ldr r3,[r7,#188]
 5792 0f80 1A68     	 ldr r2,[r3]
 5793 0f82 D7F8DC30 	 ldr r3,[r7,#220]
 5794 0f86 9A42     	 cmp r2,r3
 5795 0f88 8CBF     	 ite hi
 5796 0f8a 0123     	 movhi r3,#1
 5797 0f8c 0023     	 movls r3,#0
 5798 0f8e DBB2     	 uxtb r3,r3
 5799 0f90 1A46     	 mov r2,r3
 5800 0f92 D7F8D830 	 ldr r3,[r7,#216]
 5801 0f96 1344     	 add r3,r3,r2
 5802 0f98 C7F8D830 	 str r3,[r7,#216]
 5803 0f9c D7F8D830 	 ldr r3,[r7,#216]
 5804 0fa0 C7F8FC30 	 str r3,[r7,#252]
 5805 0fa4 D7F8BC20 	 ldr r2,[r7,#188]
 5806 0fa8 131D     	 adds r3,r2,#4
 5807 0faa C7F8BC30 	 str r3,[r7,#188]
 5808 0fae D7F8DC30 	 ldr r3,[r7,#220]
 5809 0fb2 1360     	 str r3,[r2]
1255:C:/Users/Yushev/git/wpcqi-optiga-trust-charge/optiga/externals/mbedtls/library\bignum.c **** 
1256:C:/Users/Yushev/git/wpcqi-optiga-trust-charge/optiga/externals/mbedtls/library\bignum.c ****         MULADDC_CORE   MULADDC_CORE
 5810              	 .loc 1 1256 0 discriminator 2
 5811 0fb4 D7F8C020 	 ldr r2,[r7,#192]
 5812 0fb8 131D     	 adds r3,r2,#4
 5813 0fba C7F8C030 	 str r3,[r7,#192]
 5814 0fbe 1368     	 ldr r3,[r2]
 5815 0fc0 1846     	 mov r0,r3
 5816 0fc2 4FF00001 	 mov r1,#0
 5817 0fc6 D7F8B830 	 ldr r3,[r7,#184]
 5818 0fca 1A46     	 mov r2,r3
 5819 0fcc 4FF00003 	 mov r3,#0
 5820 0fd0 02FB01F5 	 mul r5,r2,r1
 5821 0fd4 00FB03F4 	 mul r4,r0,r3
 5822 0fd8 2C44     	 add r4,r4,r5
 5823 0fda A0FB0223 	 umull r2,r3,r0,r2
 5824 0fde E118     	 adds r1,r4,r3
 5825 0fe0 0B46     	 mov r3,r1
 5826 0fe2 C7E93823 	 strd r2,[r7,#224]
 5827 0fe6 C7E93823 	 strd r2,[r7,#224]
 5828 0fea D7F8E030 	 ldr r3,[r7,#224]
 5829 0fee C7F8DC30 	 str r3,[r7,#220]
 5830 0ff2 D7E93823 	 ldrd r2,[r7,#224]
 5831 0ff6 1B00     	 movs r3,r3
 5832 0ff8 3B62     	 str r3,[r7,#32]
 5833 0ffa 0023     	 movs r3,#0
 5834 0ffc 7B62     	 str r3,[r7,#36]
 5835 0ffe 3B6A     	 ldr r3,[r7,#32]
 5836 1000 C7F8D830 	 str r3,[r7,#216]
 5837 1004 D7F8DC20 	 ldr r2,[r7,#220]
 5838 1008 D7F8FC30 	 ldr r3,[r7,#252]
 5839 100c 1344     	 add r3,r3,r2
 5840 100e C7F8DC30 	 str r3,[r7,#220]
 5841 1012 D7F8DC20 	 ldr r2,[r7,#220]
 5842 1016 D7F8FC30 	 ldr r3,[r7,#252]
 5843 101a 9A42     	 cmp r2,r3
 5844 101c 34BF     	 ite cc
 5845 101e 0123     	 movcc r3,#1
 5846 1020 0023     	 movcs r3,#0
 5847 1022 DBB2     	 uxtb r3,r3
 5848 1024 1A46     	 mov r2,r3
 5849 1026 D7F8D830 	 ldr r3,[r7,#216]
 5850 102a 1344     	 add r3,r3,r2
 5851 102c C7F8D830 	 str r3,[r7,#216]
 5852 1030 D7F8BC30 	 ldr r3,[r7,#188]
 5853 1034 1A68     	 ldr r2,[r3]
 5854 1036 D7F8DC30 	 ldr r3,[r7,#220]
 5855 103a 1344     	 add r3,r3,r2
 5856 103c C7F8DC30 	 str r3,[r7,#220]
 5857 1040 D7F8BC30 	 ldr r3,[r7,#188]
 5858 1044 1A68     	 ldr r2,[r3]
 5859 1046 D7F8DC30 	 ldr r3,[r7,#220]
 5860 104a 9A42     	 cmp r2,r3
 5861 104c 8CBF     	 ite hi
 5862 104e 0123     	 movhi r3,#1
 5863 1050 0023     	 movls r3,#0
 5864 1052 DBB2     	 uxtb r3,r3
 5865 1054 1A46     	 mov r2,r3
 5866 1056 D7F8D830 	 ldr r3,[r7,#216]
 5867 105a 1344     	 add r3,r3,r2
 5868 105c C7F8D830 	 str r3,[r7,#216]
 5869 1060 D7F8D830 	 ldr r3,[r7,#216]
 5870 1064 C7F8FC30 	 str r3,[r7,#252]
 5871 1068 D7F8BC20 	 ldr r2,[r7,#188]
 5872 106c 131D     	 adds r3,r2,#4
 5873 106e C7F8BC30 	 str r3,[r7,#188]
 5874 1072 D7F8DC30 	 ldr r3,[r7,#220]
 5875 1076 1360     	 str r3,[r2]
 5876 1078 D7F8C020 	 ldr r2,[r7,#192]
 5877 107c 131D     	 adds r3,r2,#4
 5878 107e C7F8C030 	 str r3,[r7,#192]
 5879 1082 1368     	 ldr r3,[r2]
 5880 1084 1846     	 mov r0,r3
 5881 1086 4FF00001 	 mov r1,#0
 5882 108a D7F8B830 	 ldr r3,[r7,#184]
 5883 108e 1A46     	 mov r2,r3
 5884 1090 4FF00003 	 mov r3,#0
 5885 1094 02FB01F5 	 mul r5,r2,r1
 5886 1098 00FB03F4 	 mul r4,r0,r3
 5887 109c 2C44     	 add r4,r4,r5
 5888 109e A0FB0223 	 umull r2,r3,r0,r2
 5889 10a2 E118     	 adds r1,r4,r3
 5890 10a4 0B46     	 mov r3,r1
 5891 10a6 C7E93823 	 strd r2,[r7,#224]
 5892 10aa C7E93823 	 strd r2,[r7,#224]
 5893 10ae D7F8E030 	 ldr r3,[r7,#224]
 5894 10b2 C7F8DC30 	 str r3,[r7,#220]
 5895 10b6 D7E93823 	 ldrd r2,[r7,#224]
 5896 10ba 1B00     	 movs r3,r3
 5897 10bc BB61     	 str r3,[r7,#24]
 5898 10be 0023     	 movs r3,#0
 5899 10c0 FB61     	 str r3,[r7,#28]
 5900 10c2 BB69     	 ldr r3,[r7,#24]
 5901 10c4 C7F8D830 	 str r3,[r7,#216]
 5902 10c8 D7F8DC20 	 ldr r2,[r7,#220]
 5903 10cc D7F8FC30 	 ldr r3,[r7,#252]
 5904 10d0 1344     	 add r3,r3,r2
 5905 10d2 C7F8DC30 	 str r3,[r7,#220]
 5906 10d6 D7F8DC20 	 ldr r2,[r7,#220]
 5907 10da D7F8FC30 	 ldr r3,[r7,#252]
 5908 10de 9A42     	 cmp r2,r3
 5909 10e0 34BF     	 ite cc
 5910 10e2 0123     	 movcc r3,#1
 5911 10e4 0023     	 movcs r3,#0
 5912 10e6 DBB2     	 uxtb r3,r3
 5913 10e8 1A46     	 mov r2,r3
 5914 10ea D7F8D830 	 ldr r3,[r7,#216]
 5915 10ee 1344     	 add r3,r3,r2
 5916 10f0 C7F8D830 	 str r3,[r7,#216]
 5917 10f4 D7F8BC30 	 ldr r3,[r7,#188]
 5918 10f8 1A68     	 ldr r2,[r3]
 5919 10fa D7F8DC30 	 ldr r3,[r7,#220]
 5920 10fe 1344     	 add r3,r3,r2
 5921 1100 C7F8DC30 	 str r3,[r7,#220]
 5922 1104 D7F8BC30 	 ldr r3,[r7,#188]
 5923 1108 1A68     	 ldr r2,[r3]
 5924 110a D7F8DC30 	 ldr r3,[r7,#220]
 5925 110e 9A42     	 cmp r2,r3
 5926 1110 8CBF     	 ite hi
 5927 1112 0123     	 movhi r3,#1
 5928 1114 0023     	 movls r3,#0
 5929 1116 DBB2     	 uxtb r3,r3
 5930 1118 1A46     	 mov r2,r3
 5931 111a D7F8D830 	 ldr r3,[r7,#216]
 5932 111e 1344     	 add r3,r3,r2
 5933 1120 C7F8D830 	 str r3,[r7,#216]
 5934 1124 D7F8D830 	 ldr r3,[r7,#216]
 5935 1128 C7F8FC30 	 str r3,[r7,#252]
 5936 112c D7F8BC20 	 ldr r2,[r7,#188]
 5937 1130 131D     	 adds r3,r2,#4
 5938 1132 C7F8BC30 	 str r3,[r7,#188]
 5939 1136 D7F8DC30 	 ldr r3,[r7,#220]
 5940 113a 1360     	 str r3,[r2]
1257:C:/Users/Yushev/git/wpcqi-optiga-trust-charge/optiga/externals/mbedtls/library\bignum.c ****         MULADDC_CORE   MULADDC_CORE
 5941              	 .loc 1 1257 0 discriminator 2
 5942 113c D7F8C020 	 ldr r2,[r7,#192]
 5943 1140 131D     	 adds r3,r2,#4
 5944 1142 C7F8C030 	 str r3,[r7,#192]
 5945 1146 1368     	 ldr r3,[r2]
 5946 1148 1846     	 mov r0,r3
 5947 114a 4FF00001 	 mov r1,#0
 5948 114e D7F8B830 	 ldr r3,[r7,#184]
 5949 1152 1A46     	 mov r2,r3
 5950 1154 4FF00003 	 mov r3,#0
 5951 1158 02FB01F5 	 mul r5,r2,r1
 5952 115c 00FB03F4 	 mul r4,r0,r3
 5953 1160 2C44     	 add r4,r4,r5
 5954 1162 A0FB0223 	 umull r2,r3,r0,r2
 5955 1166 E118     	 adds r1,r4,r3
 5956 1168 0B46     	 mov r3,r1
 5957 116a C7E93823 	 strd r2,[r7,#224]
 5958 116e C7E93823 	 strd r2,[r7,#224]
 5959 1172 D7F8E030 	 ldr r3,[r7,#224]
 5960 1176 C7F8DC30 	 str r3,[r7,#220]
 5961 117a D7E93823 	 ldrd r2,[r7,#224]
 5962 117e 1B00     	 movs r3,r3
 5963 1180 3B61     	 str r3,[r7,#16]
 5964 1182 0023     	 movs r3,#0
 5965 1184 7B61     	 str r3,[r7,#20]
 5966 1186 3B69     	 ldr r3,[r7,#16]
 5967 1188 C7F8D830 	 str r3,[r7,#216]
 5968 118c D7F8DC20 	 ldr r2,[r7,#220]
 5969 1190 D7F8FC30 	 ldr r3,[r7,#252]
 5970 1194 1344     	 add r3,r3,r2
 5971 1196 C7F8DC30 	 str r3,[r7,#220]
 5972 119a D7F8DC20 	 ldr r2,[r7,#220]
 5973 119e D7F8FC30 	 ldr r3,[r7,#252]
 5974 11a2 9A42     	 cmp r2,r3
 5975 11a4 34BF     	 ite cc
 5976 11a6 0123     	 movcc r3,#1
 5977 11a8 0023     	 movcs r3,#0
 5978 11aa DBB2     	 uxtb r3,r3
 5979 11ac 1A46     	 mov r2,r3
 5980 11ae D7F8D830 	 ldr r3,[r7,#216]
 5981 11b2 1344     	 add r3,r3,r2
 5982 11b4 C7F8D830 	 str r3,[r7,#216]
 5983 11b8 D7F8BC30 	 ldr r3,[r7,#188]
 5984 11bc 1A68     	 ldr r2,[r3]
 5985 11be D7F8DC30 	 ldr r3,[r7,#220]
 5986 11c2 1344     	 add r3,r3,r2
 5987 11c4 C7F8DC30 	 str r3,[r7,#220]
 5988 11c8 D7F8BC30 	 ldr r3,[r7,#188]
 5989 11cc 1A68     	 ldr r2,[r3]
 5990 11ce D7F8DC30 	 ldr r3,[r7,#220]
 5991 11d2 9A42     	 cmp r2,r3
 5992 11d4 8CBF     	 ite hi
 5993 11d6 0123     	 movhi r3,#1
 5994 11d8 0023     	 movls r3,#0
 5995 11da DBB2     	 uxtb r3,r3
 5996 11dc 1A46     	 mov r2,r3
 5997 11de D7F8D830 	 ldr r3,[r7,#216]
 5998 11e2 1344     	 add r3,r3,r2
 5999 11e4 C7F8D830 	 str r3,[r7,#216]
 6000 11e8 D7F8D830 	 ldr r3,[r7,#216]
 6001 11ec C7F8FC30 	 str r3,[r7,#252]
 6002 11f0 D7F8BC20 	 ldr r2,[r7,#188]
 6003 11f4 131D     	 adds r3,r2,#4
 6004 11f6 C7F8BC30 	 str r3,[r7,#188]
 6005 11fa D7F8DC30 	 ldr r3,[r7,#220]
 6006 11fe 1360     	 str r3,[r2]
 6007 1200 D7F8C020 	 ldr r2,[r7,#192]
 6008 1204 131D     	 adds r3,r2,#4
 6009 1206 C7F8C030 	 str r3,[r7,#192]
 6010 120a 1368     	 ldr r3,[r2]
 6011 120c 1846     	 mov r0,r3
 6012 120e 4FF00001 	 mov r1,#0
 6013 1212 D7F8B830 	 ldr r3,[r7,#184]
 6014 1216 1A46     	 mov r2,r3
 6015 1218 4FF00003 	 mov r3,#0
 6016 121c 02FB01F5 	 mul r5,r2,r1
 6017 1220 00FB03F4 	 mul r4,r0,r3
 6018 1224 2C44     	 add r4,r4,r5
 6019 1226 A0FB0223 	 umull r2,r3,r0,r2
 6020 122a E118     	 adds r1,r4,r3
 6021 122c 0B46     	 mov r3,r1
 6022 122e C7E93823 	 strd r2,[r7,#224]
 6023 1232 C7E93823 	 strd r2,[r7,#224]
 6024 1236 D7F8E030 	 ldr r3,[r7,#224]
 6025 123a C7F8DC30 	 str r3,[r7,#220]
 6026 123e D7E93823 	 ldrd r2,[r7,#224]
 6027 1242 1B00     	 movs r3,r3
 6028 1244 BB60     	 str r3,[r7,#8]
 6029 1246 0023     	 movs r3,#0
 6030 1248 FB60     	 str r3,[r7,#12]
 6031 124a BB68     	 ldr r3,[r7,#8]
 6032 124c C7F8D830 	 str r3,[r7,#216]
 6033 1250 D7F8DC20 	 ldr r2,[r7,#220]
 6034 1254 D7F8FC30 	 ldr r3,[r7,#252]
 6035 1258 1344     	 add r3,r3,r2
 6036 125a C7F8DC30 	 str r3,[r7,#220]
 6037 125e D7F8DC20 	 ldr r2,[r7,#220]
 6038 1262 D7F8FC30 	 ldr r3,[r7,#252]
 6039 1266 9A42     	 cmp r2,r3
 6040 1268 34BF     	 ite cc
 6041 126a 0123     	 movcc r3,#1
 6042 126c 0023     	 movcs r3,#0
 6043 126e DBB2     	 uxtb r3,r3
 6044 1270 1A46     	 mov r2,r3
 6045 1272 D7F8D830 	 ldr r3,[r7,#216]
 6046 1276 1344     	 add r3,r3,r2
 6047 1278 C7F8D830 	 str r3,[r7,#216]
 6048 127c D7F8BC30 	 ldr r3,[r7,#188]
 6049 1280 1A68     	 ldr r2,[r3]
 6050 1282 D7F8DC30 	 ldr r3,[r7,#220]
 6051 1286 1344     	 add r3,r3,r2
 6052 1288 C7F8DC30 	 str r3,[r7,#220]
 6053 128c D7F8BC30 	 ldr r3,[r7,#188]
 6054 1290 1A68     	 ldr r2,[r3]
 6055 1292 D7F8DC30 	 ldr r3,[r7,#220]
 6056 1296 9A42     	 cmp r2,r3
 6057 1298 8CBF     	 ite hi
 6058 129a 0123     	 movhi r3,#1
 6059 129c 0023     	 movls r3,#0
 6060 129e DBB2     	 uxtb r3,r3
 6061 12a0 1A46     	 mov r2,r3
 6062 12a2 D7F8D830 	 ldr r3,[r7,#216]
 6063 12a6 1344     	 add r3,r3,r2
 6064 12a8 C7F8D830 	 str r3,[r7,#216]
 6065 12ac D7F8D830 	 ldr r3,[r7,#216]
 6066 12b0 C7F8FC30 	 str r3,[r7,#252]
 6067 12b4 D7F8BC20 	 ldr r2,[r7,#188]
 6068 12b8 131D     	 adds r3,r2,#4
 6069 12ba C7F8BC30 	 str r3,[r7,#188]
 6070 12be D7F8DC30 	 ldr r3,[r7,#220]
 6071 12c2 1360     	 str r3,[r2]
 6072              	.LBE5:
1250:C:/Users/Yushev/git/wpcqi-optiga-trust-charge/optiga/externals/mbedtls/library\bignum.c ****     {
 6073              	 .loc 1 1250 0 discriminator 2
 6074 12c4 D7F8C430 	 ldr r3,[r7,#196]
 6075 12c8 083B     	 subs r3,r3,#8
 6076 12ca C7F8C430 	 str r3,[r7,#196]
 6077              	.L293:
1250:C:/Users/Yushev/git/wpcqi-optiga-trust-charge/optiga/externals/mbedtls/library\bignum.c ****     {
 6078              	 .loc 1 1250 0 is_stmt 0 discriminator 1
 6079 12ce D7F8C430 	 ldr r3,[r7,#196]
 6080 12d2 072B     	 cmp r3,#7
 6081 12d4 3FF6E6AC 	 bhi .L294
1258:C:/Users/Yushev/git/wpcqi-optiga-trust-charge/optiga/externals/mbedtls/library\bignum.c ****         MULADDC_STOP
1259:C:/Users/Yushev/git/wpcqi-optiga-trust-charge/optiga/externals/mbedtls/library\bignum.c ****     }
1260:C:/Users/Yushev/git/wpcqi-optiga-trust-charge/optiga/externals/mbedtls/library\bignum.c **** 
1261:C:/Users/Yushev/git/wpcqi-optiga-trust-charge/optiga/externals/mbedtls/library\bignum.c ****     for( ; i > 0; i-- )
 6082              	 .loc 1 1261 0 is_stmt 1
 6083 12d8 66E0     	 b .L295
 6084              	.L296:
 6085              	.LBB6:
1262:C:/Users/Yushev/git/wpcqi-optiga-trust-charge/optiga/externals/mbedtls/library\bignum.c ****     {
1263:C:/Users/Yushev/git/wpcqi-optiga-trust-charge/optiga/externals/mbedtls/library\bignum.c ****         MULADDC_INIT
1264:C:/Users/Yushev/git/wpcqi-optiga-trust-charge/optiga/externals/mbedtls/library\bignum.c ****         MULADDC_CORE
 6086              	 .loc 1 1264 0 discriminator 2
 6087 12da D7F8C030 	 ldr r3,[r7,#192]
 6088 12de 1A1D     	 adds r2,r3,#4
 6089 12e0 C7F8C020 	 str r2,[r7,#192]
 6090 12e4 1B68     	 ldr r3,[r3]
 6091 12e6 1846     	 mov r0,r3
 6092 12e8 4FF00001 	 mov r1,#0
 6093 12ec D7F8B830 	 ldr r3,[r7,#184]
 6094 12f0 1A46     	 mov r2,r3
 6095 12f2 4FF00003 	 mov r3,#0
 6096 12f6 02FB01F5 	 mul r5,r2,r1
 6097 12fa 00FB03F4 	 mul r4,r0,r3
 6098 12fe 2C44     	 add r4,r4,r5
 6099 1300 A0FB0223 	 umull r2,r3,r0,r2
 6100 1304 E118     	 adds r1,r4,r3
 6101 1306 0B46     	 mov r3,r1
 6102 1308 C7E93423 	 strd r2,[r7,#208]
 6103 130c C7E93423 	 strd r2,[r7,#208]
 6104 1310 D7F8D030 	 ldr r3,[r7,#208]
 6105 1314 C7F8CC30 	 str r3,[r7,#204]
 6106 1318 D7E93423 	 ldrd r2,[r7,#208]
 6107 131c 1B00     	 movs r3,r3
 6108 131e 3B60     	 str r3,[r7]
 6109 1320 0023     	 movs r3,#0
 6110 1322 7B60     	 str r3,[r7,#4]
 6111 1324 3B68     	 ldr r3,[r7]
 6112 1326 C7F8C830 	 str r3,[r7,#200]
 6113 132a D7F8CC20 	 ldr r2,[r7,#204]
 6114 132e D7F8FC30 	 ldr r3,[r7,#252]
 6115 1332 1344     	 add r3,r3,r2
 6116 1334 C7F8CC30 	 str r3,[r7,#204]
 6117 1338 D7F8CC20 	 ldr r2,[r7,#204]
 6118 133c D7F8FC30 	 ldr r3,[r7,#252]
 6119 1340 9A42     	 cmp r2,r3
 6120 1342 34BF     	 ite cc
 6121 1344 0123     	 movcc r3,#1
 6122 1346 0023     	 movcs r3,#0
 6123 1348 DBB2     	 uxtb r3,r3
 6124 134a 1A46     	 mov r2,r3
 6125 134c D7F8C830 	 ldr r3,[r7,#200]
 6126 1350 1344     	 add r3,r3,r2
 6127 1352 C7F8C830 	 str r3,[r7,#200]
 6128 1356 D7F8BC30 	 ldr r3,[r7,#188]
 6129 135a 1B68     	 ldr r3,[r3]
 6130 135c D7F8CC20 	 ldr r2,[r7,#204]
 6131 1360 1344     	 add r3,r3,r2
 6132 1362 C7F8CC30 	 str r3,[r7,#204]
 6133 1366 D7F8BC30 	 ldr r3,[r7,#188]
 6134 136a 1A68     	 ldr r2,[r3]
 6135 136c D7F8CC30 	 ldr r3,[r7,#204]
 6136 1370 9A42     	 cmp r2,r3
 6137 1372 8CBF     	 ite hi
 6138 1374 0123     	 movhi r3,#1
 6139 1376 0023     	 movls r3,#0
 6140 1378 DBB2     	 uxtb r3,r3
 6141 137a 1A46     	 mov r2,r3
 6142 137c D7F8C830 	 ldr r3,[r7,#200]
 6143 1380 1344     	 add r3,r3,r2
 6144 1382 C7F8C830 	 str r3,[r7,#200]
 6145 1386 D7F8C830 	 ldr r3,[r7,#200]
 6146 138a C7F8FC30 	 str r3,[r7,#252]
 6147 138e D7F8BC30 	 ldr r3,[r7,#188]
 6148 1392 1A1D     	 adds r2,r3,#4
 6149 1394 C7F8BC20 	 str r2,[r7,#188]
 6150 1398 D7F8CC20 	 ldr r2,[r7,#204]
 6151 139c 1A60     	 str r2,[r3]
 6152              	.LBE6:
1261:C:/Users/Yushev/git/wpcqi-optiga-trust-charge/optiga/externals/mbedtls/library\bignum.c ****     {
 6153              	 .loc 1 1261 0 discriminator 2
 6154 139e D7F8C430 	 ldr r3,[r7,#196]
 6155 13a2 013B     	 subs r3,r3,#1
 6156 13a4 C7F8C430 	 str r3,[r7,#196]
 6157              	.L295:
1261:C:/Users/Yushev/git/wpcqi-optiga-trust-charge/optiga/externals/mbedtls/library\bignum.c ****     {
 6158              	 .loc 1 1261 0 is_stmt 0 discriminator 1
 6159 13a8 D7F8C430 	 ldr r3,[r7,#196]
 6160 13ac 002B     	 cmp r3,#0
 6161 13ae 94D1     	 bne .L296
1265:C:/Users/Yushev/git/wpcqi-optiga-trust-charge/optiga/externals/mbedtls/library\bignum.c ****         MULADDC_STOP
1266:C:/Users/Yushev/git/wpcqi-optiga-trust-charge/optiga/externals/mbedtls/library\bignum.c ****     }
1267:C:/Users/Yushev/git/wpcqi-optiga-trust-charge/optiga/externals/mbedtls/library\bignum.c **** #endif /* MULADDC_HUIT */
1268:C:/Users/Yushev/git/wpcqi-optiga-trust-charge/optiga/externals/mbedtls/library\bignum.c **** 
1269:C:/Users/Yushev/git/wpcqi-optiga-trust-charge/optiga/externals/mbedtls/library\bignum.c ****     t++;
 6162              	 .loc 1 1269 0 is_stmt 1
 6163 13b0 D7F8F830 	 ldr r3,[r7,#248]
 6164 13b4 0133     	 adds r3,r3,#1
 6165 13b6 C7F8F830 	 str r3,[r7,#248]
 6166              	.L297:
1270:C:/Users/Yushev/git/wpcqi-optiga-trust-charge/optiga/externals/mbedtls/library\bignum.c **** 
1271:C:/Users/Yushev/git/wpcqi-optiga-trust-charge/optiga/externals/mbedtls/library\bignum.c ****     do {
1272:C:/Users/Yushev/git/wpcqi-optiga-trust-charge/optiga/externals/mbedtls/library\bignum.c ****         *d += c; c = ( *d < c ); d++;
 6167              	 .loc 1 1272 0 discriminator 1
 6168 13ba D7F8BC30 	 ldr r3,[r7,#188]
 6169 13be 1A68     	 ldr r2,[r3]
 6170 13c0 D7F8FC30 	 ldr r3,[r7,#252]
 6171 13c4 1A44     	 add r2,r2,r3
 6172 13c6 D7F8BC30 	 ldr r3,[r7,#188]
 6173 13ca 1A60     	 str r2,[r3]
 6174 13cc D7F8BC30 	 ldr r3,[r7,#188]
 6175 13d0 1A68     	 ldr r2,[r3]
 6176 13d2 D7F8FC30 	 ldr r3,[r7,#252]
 6177 13d6 9A42     	 cmp r2,r3
 6178 13d8 34BF     	 ite cc
 6179 13da 0123     	 movcc r3,#1
 6180 13dc 0023     	 movcs r3,#0
 6181 13de DBB2     	 uxtb r3,r3
 6182 13e0 C7F8FC30 	 str r3,[r7,#252]
 6183 13e4 D7F8BC30 	 ldr r3,[r7,#188]
 6184 13e8 0433     	 adds r3,r3,#4
 6185 13ea C7F8BC30 	 str r3,[r7,#188]
1273:C:/Users/Yushev/git/wpcqi-optiga-trust-charge/optiga/externals/mbedtls/library\bignum.c ****     }
1274:C:/Users/Yushev/git/wpcqi-optiga-trust-charge/optiga/externals/mbedtls/library\bignum.c ****     while( c != 0 );
 6186              	 .loc 1 1274 0 discriminator 1
 6187 13ee D7F8FC30 	 ldr r3,[r7,#252]
 6188 13f2 002B     	 cmp r3,#0
 6189 13f4 E1D1     	 bne .L297
1275:C:/Users/Yushev/git/wpcqi-optiga-trust-charge/optiga/externals/mbedtls/library\bignum.c **** }
 6190              	 .loc 1 1275 0
 6191 13f6 07F58277 	 add r7,r7,#260
 6192              	.LCFI181:
 6193              	 .cfi_def_cfa_offset 28
 6194 13fa BD46     	 mov sp,r7
 6195              	.LCFI182:
 6196              	 .cfi_def_cfa_register 13
 6197              	 
 6198 13fc BDE8B00F 	 pop {r4,r5,r7,r8,r9,r10,fp}
 6199              	.LCFI183:
 6200              	 .cfi_restore 11
 6201              	 .cfi_restore 10
 6202              	 .cfi_restore 9
 6203              	 .cfi_restore 8
 6204              	 .cfi_restore 7
 6205              	 .cfi_restore 5
 6206              	 .cfi_restore 4
 6207              	 .cfi_def_cfa_offset 0
 6208 1400 7047     	 bx lr
 6209              	 .cfi_endproc
 6210              	.LFE34:
 6212 1402 00BF     	 .section .text.mbedtls_mpi_mul_mpi,"ax",%progbits
 6213              	 .align 2
 6214              	 .global mbedtls_mpi_mul_mpi
 6215              	 .thumb
 6216              	 .thumb_func
 6218              	mbedtls_mpi_mul_mpi:
 6219              	.LFB35:
1276:C:/Users/Yushev/git/wpcqi-optiga-trust-charge/optiga/externals/mbedtls/library\bignum.c **** 
1277:C:/Users/Yushev/git/wpcqi-optiga-trust-charge/optiga/externals/mbedtls/library\bignum.c **** /*
1278:C:/Users/Yushev/git/wpcqi-optiga-trust-charge/optiga/externals/mbedtls/library\bignum.c ****  * Baseline multiplication: X = A * B  (HAC 14.12)
1279:C:/Users/Yushev/git/wpcqi-optiga-trust-charge/optiga/externals/mbedtls/library\bignum.c ****  */
1280:C:/Users/Yushev/git/wpcqi-optiga-trust-charge/optiga/externals/mbedtls/library\bignum.c **** int mbedtls_mpi_mul_mpi( mbedtls_mpi *X, const mbedtls_mpi *A, const mbedtls_mpi *B )
1281:C:/Users/Yushev/git/wpcqi-optiga-trust-charge/optiga/externals/mbedtls/library\bignum.c **** {
 6220              	 .loc 1 1281 0
 6221              	 .cfi_startproc
 6222              	 
 6223              	 
 6224 0000 90B5     	 push {r4,r7,lr}
 6225              	.LCFI184:
 6226              	 .cfi_def_cfa_offset 12
 6227              	 .cfi_offset 4,-12
 6228              	 .cfi_offset 7,-8
 6229              	 .cfi_offset 14,-4
 6230 0002 8FB0     	 sub sp,sp,#60
 6231              	.LCFI185:
 6232              	 .cfi_def_cfa_offset 72
 6233 0004 00AF     	 add r7,sp,#0
 6234              	.LCFI186:
 6235              	 .cfi_def_cfa_register 7
 6236 0006 F860     	 str r0,[r7,#12]
 6237 0008 B960     	 str r1,[r7,#8]
 6238 000a 7A60     	 str r2,[r7,#4]
1282:C:/Users/Yushev/git/wpcqi-optiga-trust-charge/optiga/externals/mbedtls/library\bignum.c ****     int ret;
1283:C:/Users/Yushev/git/wpcqi-optiga-trust-charge/optiga/externals/mbedtls/library\bignum.c ****     size_t i, j;
1284:C:/Users/Yushev/git/wpcqi-optiga-trust-charge/optiga/externals/mbedtls/library\bignum.c ****     mbedtls_mpi TA, TB;
1285:C:/Users/Yushev/git/wpcqi-optiga-trust-charge/optiga/externals/mbedtls/library\bignum.c ****     MPI_VALIDATE_RET( X != NULL );
1286:C:/Users/Yushev/git/wpcqi-optiga-trust-charge/optiga/externals/mbedtls/library\bignum.c ****     MPI_VALIDATE_RET( A != NULL );
1287:C:/Users/Yushev/git/wpcqi-optiga-trust-charge/optiga/externals/mbedtls/library\bignum.c ****     MPI_VALIDATE_RET( B != NULL );
1288:C:/Users/Yushev/git/wpcqi-optiga-trust-charge/optiga/externals/mbedtls/library\bignum.c **** 
1289:C:/Users/Yushev/git/wpcqi-optiga-trust-charge/optiga/externals/mbedtls/library\bignum.c ****     mbedtls_mpi_init( &TA ); mbedtls_mpi_init( &TB );
 6239              	 .loc 1 1289 0
 6240 000c 07F12003 	 add r3,r7,#32
 6241 0010 1846     	 mov r0,r3
 6242 0012 FFF7FEFF 	 bl mbedtls_mpi_init
 6243 0016 07F11403 	 add r3,r7,#20
 6244 001a 1846     	 mov r0,r3
 6245 001c FFF7FEFF 	 bl mbedtls_mpi_init
1290:C:/Users/Yushev/git/wpcqi-optiga-trust-charge/optiga/externals/mbedtls/library\bignum.c **** 
1291:C:/Users/Yushev/git/wpcqi-optiga-trust-charge/optiga/externals/mbedtls/library\bignum.c ****     if( X == A ) { MBEDTLS_MPI_CHK( mbedtls_mpi_copy( &TA, A ) ); A = &TA; }
 6246              	 .loc 1 1291 0
 6247 0020 FA68     	 ldr r2,[r7,#12]
 6248 0022 BB68     	 ldr r3,[r7,#8]
 6249 0024 9A42     	 cmp r2,r3
 6250 0026 0DD1     	 bne .L299
 6251              	 .loc 1 1291 0 is_stmt 0 discriminator 1
 6252 0028 07F12003 	 add r3,r7,#32
 6253 002c 1846     	 mov r0,r3
 6254 002e B968     	 ldr r1,[r7,#8]
 6255 0030 FFF7FEFF 	 bl mbedtls_mpi_copy
 6256 0034 7863     	 str r0,[r7,#52]
 6257 0036 7B6B     	 ldr r3,[r7,#52]
 6258 0038 002B     	 cmp r3,#0
 6259 003a 00D0     	 beq .L300
 6260              	 .loc 1 1291 0
 6261 003c 7BE0     	 b .L301
 6262              	.L300:
 6263              	 .loc 1 1291 0 discriminator 2
 6264 003e 07F12003 	 add r3,r7,#32
 6265 0042 BB60     	 str r3,[r7,#8]
 6266              	.L299:
1292:C:/Users/Yushev/git/wpcqi-optiga-trust-charge/optiga/externals/mbedtls/library\bignum.c ****     if( X == B ) { MBEDTLS_MPI_CHK( mbedtls_mpi_copy( &TB, B ) ); B = &TB; }
 6267              	 .loc 1 1292 0 is_stmt 1
 6268 0044 FA68     	 ldr r2,[r7,#12]
 6269 0046 7B68     	 ldr r3,[r7,#4]
 6270 0048 9A42     	 cmp r2,r3
 6271 004a 0DD1     	 bne .L302
 6272              	 .loc 1 1292 0 is_stmt 0 discriminator 1
 6273 004c 07F11403 	 add r3,r7,#20
 6274 0050 1846     	 mov r0,r3
 6275 0052 7968     	 ldr r1,[r7,#4]
 6276 0054 FFF7FEFF 	 bl mbedtls_mpi_copy
 6277 0058 7863     	 str r0,[r7,#52]
 6278 005a 7B6B     	 ldr r3,[r7,#52]
 6279 005c 002B     	 cmp r3,#0
 6280 005e 00D0     	 beq .L303
 6281              	 .loc 1 1292 0
 6282 0060 69E0     	 b .L301
 6283              	.L303:
 6284              	 .loc 1 1292 0 discriminator 2
 6285 0062 07F11403 	 add r3,r7,#20
 6286 0066 7B60     	 str r3,[r7,#4]
 6287              	.L302:
1293:C:/Users/Yushev/git/wpcqi-optiga-trust-charge/optiga/externals/mbedtls/library\bignum.c **** 
1294:C:/Users/Yushev/git/wpcqi-optiga-trust-charge/optiga/externals/mbedtls/library\bignum.c ****     for( i = A->n; i > 0; i-- )
 6288              	 .loc 1 1294 0 is_stmt 1
 6289 0068 BB68     	 ldr r3,[r7,#8]
 6290 006a 5B68     	 ldr r3,[r3,#4]
 6291 006c 3B63     	 str r3,[r7,#48]
 6292 006e 0EE0     	 b .L304
 6293              	.L307:
1295:C:/Users/Yushev/git/wpcqi-optiga-trust-charge/optiga/externals/mbedtls/library\bignum.c ****         if( A->p[i - 1] != 0 )
 6294              	 .loc 1 1295 0
 6295 0070 BB68     	 ldr r3,[r7,#8]
 6296 0072 9A68     	 ldr r2,[r3,#8]
 6297 0074 3B6B     	 ldr r3,[r7,#48]
 6298 0076 03F18043 	 add r3,r3,#1073741824
 6299 007a 013B     	 subs r3,r3,#1
 6300 007c 9B00     	 lsls r3,r3,#2
 6301 007e 1344     	 add r3,r3,r2
 6302 0080 1B68     	 ldr r3,[r3]
 6303 0082 002B     	 cmp r3,#0
 6304 0084 00D0     	 beq .L305
1296:C:/Users/Yushev/git/wpcqi-optiga-trust-charge/optiga/externals/mbedtls/library\bignum.c ****             break;
 6305              	 .loc 1 1296 0
 6306 0086 05E0     	 b .L306
 6307              	.L305:
1294:C:/Users/Yushev/git/wpcqi-optiga-trust-charge/optiga/externals/mbedtls/library\bignum.c ****         if( A->p[i - 1] != 0 )
 6308              	 .loc 1 1294 0 discriminator 2
 6309 0088 3B6B     	 ldr r3,[r7,#48]
 6310 008a 013B     	 subs r3,r3,#1
 6311 008c 3B63     	 str r3,[r7,#48]
 6312              	.L304:
1294:C:/Users/Yushev/git/wpcqi-optiga-trust-charge/optiga/externals/mbedtls/library\bignum.c ****         if( A->p[i - 1] != 0 )
 6313              	 .loc 1 1294 0 is_stmt 0 discriminator 1
 6314 008e 3B6B     	 ldr r3,[r7,#48]
 6315 0090 002B     	 cmp r3,#0
 6316 0092 EDD1     	 bne .L307
 6317              	.L306:
1297:C:/Users/Yushev/git/wpcqi-optiga-trust-charge/optiga/externals/mbedtls/library\bignum.c **** 
1298:C:/Users/Yushev/git/wpcqi-optiga-trust-charge/optiga/externals/mbedtls/library\bignum.c ****     for( j = B->n; j > 0; j-- )
 6318              	 .loc 1 1298 0 is_stmt 1
 6319 0094 7B68     	 ldr r3,[r7,#4]
 6320 0096 5B68     	 ldr r3,[r3,#4]
 6321 0098 FB62     	 str r3,[r7,#44]
 6322 009a 0EE0     	 b .L308
 6323              	.L311:
1299:C:/Users/Yushev/git/wpcqi-optiga-trust-charge/optiga/externals/mbedtls/library\bignum.c ****         if( B->p[j - 1] != 0 )
 6324              	 .loc 1 1299 0
 6325 009c 7B68     	 ldr r3,[r7,#4]
 6326 009e 9A68     	 ldr r2,[r3,#8]
 6327 00a0 FB6A     	 ldr r3,[r7,#44]
 6328 00a2 03F18043 	 add r3,r3,#1073741824
 6329 00a6 013B     	 subs r3,r3,#1
 6330 00a8 9B00     	 lsls r3,r3,#2
 6331 00aa 1344     	 add r3,r3,r2
 6332 00ac 1B68     	 ldr r3,[r3]
 6333 00ae 002B     	 cmp r3,#0
 6334 00b0 00D0     	 beq .L309
1300:C:/Users/Yushev/git/wpcqi-optiga-trust-charge/optiga/externals/mbedtls/library\bignum.c ****             break;
 6335              	 .loc 1 1300 0
 6336 00b2 05E0     	 b .L310
 6337              	.L309:
1298:C:/Users/Yushev/git/wpcqi-optiga-trust-charge/optiga/externals/mbedtls/library\bignum.c ****         if( B->p[j - 1] != 0 )
 6338              	 .loc 1 1298 0 discriminator 2
 6339 00b4 FB6A     	 ldr r3,[r7,#44]
 6340 00b6 013B     	 subs r3,r3,#1
 6341 00b8 FB62     	 str r3,[r7,#44]
 6342              	.L308:
1298:C:/Users/Yushev/git/wpcqi-optiga-trust-charge/optiga/externals/mbedtls/library\bignum.c ****         if( B->p[j - 1] != 0 )
 6343              	 .loc 1 1298 0 is_stmt 0 discriminator 1
 6344 00ba FB6A     	 ldr r3,[r7,#44]
 6345 00bc 002B     	 cmp r3,#0
 6346 00be EDD1     	 bne .L311
 6347              	.L310:
1301:C:/Users/Yushev/git/wpcqi-optiga-trust-charge/optiga/externals/mbedtls/library\bignum.c **** 
1302:C:/Users/Yushev/git/wpcqi-optiga-trust-charge/optiga/externals/mbedtls/library\bignum.c ****     MBEDTLS_MPI_CHK( mbedtls_mpi_grow( X, i + j ) );
 6348              	 .loc 1 1302 0 is_stmt 1
 6349 00c0 3A6B     	 ldr r2,[r7,#48]
 6350 00c2 FB6A     	 ldr r3,[r7,#44]
 6351 00c4 1344     	 add r3,r3,r2
 6352 00c6 F868     	 ldr r0,[r7,#12]
 6353 00c8 1946     	 mov r1,r3
 6354 00ca FFF7FEFF 	 bl mbedtls_mpi_grow
 6355 00ce 7863     	 str r0,[r7,#52]
 6356 00d0 7B6B     	 ldr r3,[r7,#52]
 6357 00d2 002B     	 cmp r3,#0
 6358 00d4 00D0     	 beq .L312
 6359 00d6 2EE0     	 b .L301
 6360              	.L312:
1303:C:/Users/Yushev/git/wpcqi-optiga-trust-charge/optiga/externals/mbedtls/library\bignum.c ****     MBEDTLS_MPI_CHK( mbedtls_mpi_lset( X, 0 ) );
 6361              	 .loc 1 1303 0
 6362 00d8 F868     	 ldr r0,[r7,#12]
 6363 00da 0021     	 movs r1,#0
 6364 00dc FFF7FEFF 	 bl mbedtls_mpi_lset
 6365 00e0 7863     	 str r0,[r7,#52]
 6366 00e2 7B6B     	 ldr r3,[r7,#52]
 6367 00e4 002B     	 cmp r3,#0
 6368 00e6 00D0     	 beq .L313
 6369 00e8 25E0     	 b .L301
 6370              	.L313:
1304:C:/Users/Yushev/git/wpcqi-optiga-trust-charge/optiga/externals/mbedtls/library\bignum.c **** 
1305:C:/Users/Yushev/git/wpcqi-optiga-trust-charge/optiga/externals/mbedtls/library\bignum.c ****     for( ; j > 0; j-- )
 6371              	 .loc 1 1305 0
 6372 00ea 19E0     	 b .L314
 6373              	.L315:
1306:C:/Users/Yushev/git/wpcqi-optiga-trust-charge/optiga/externals/mbedtls/library\bignum.c ****         mpi_mul_hlp( i, A->p, X->p + j - 1, B->p[j - 1] );
 6374              	 .loc 1 1306 0 discriminator 2
 6375 00ec BB68     	 ldr r3,[r7,#8]
 6376 00ee 9968     	 ldr r1,[r3,#8]
 6377 00f0 FB68     	 ldr r3,[r7,#12]
 6378 00f2 9A68     	 ldr r2,[r3,#8]
 6379 00f4 FB6A     	 ldr r3,[r7,#44]
 6380 00f6 03F18043 	 add r3,r3,#1073741824
 6381 00fa 013B     	 subs r3,r3,#1
 6382 00fc 9B00     	 lsls r3,r3,#2
 6383 00fe D418     	 adds r4,r2,r3
 6384 0100 7B68     	 ldr r3,[r7,#4]
 6385 0102 9A68     	 ldr r2,[r3,#8]
 6386 0104 FB6A     	 ldr r3,[r7,#44]
 6387 0106 03F18043 	 add r3,r3,#1073741824
 6388 010a 013B     	 subs r3,r3,#1
 6389 010c 9B00     	 lsls r3,r3,#2
 6390 010e 1344     	 add r3,r3,r2
 6391 0110 1B68     	 ldr r3,[r3]
 6392 0112 386B     	 ldr r0,[r7,#48]
 6393 0114 2246     	 mov r2,r4
 6394 0116 FFF7FEFF 	 bl mpi_mul_hlp
1305:C:/Users/Yushev/git/wpcqi-optiga-trust-charge/optiga/externals/mbedtls/library\bignum.c ****         mpi_mul_hlp( i, A->p, X->p + j - 1, B->p[j - 1] );
 6395              	 .loc 1 1305 0 discriminator 2
 6396 011a FB6A     	 ldr r3,[r7,#44]
 6397 011c 013B     	 subs r3,r3,#1
 6398 011e FB62     	 str r3,[r7,#44]
 6399              	.L314:
1305:C:/Users/Yushev/git/wpcqi-optiga-trust-charge/optiga/externals/mbedtls/library\bignum.c ****         mpi_mul_hlp( i, A->p, X->p + j - 1, B->p[j - 1] );
 6400              	 .loc 1 1305 0 is_stmt 0 discriminator 1
 6401 0120 FB6A     	 ldr r3,[r7,#44]
 6402 0122 002B     	 cmp r3,#0
 6403 0124 E2D1     	 bne .L315
1307:C:/Users/Yushev/git/wpcqi-optiga-trust-charge/optiga/externals/mbedtls/library\bignum.c **** 
1308:C:/Users/Yushev/git/wpcqi-optiga-trust-charge/optiga/externals/mbedtls/library\bignum.c ****     X->s = A->s * B->s;
 6404              	 .loc 1 1308 0 is_stmt 1
 6405 0126 BB68     	 ldr r3,[r7,#8]
 6406 0128 1B68     	 ldr r3,[r3]
 6407 012a 7A68     	 ldr r2,[r7,#4]
 6408 012c 1268     	 ldr r2,[r2]
 6409 012e 02FB03F2 	 mul r2,r2,r3
 6410 0132 FB68     	 ldr r3,[r7,#12]
 6411 0134 1A60     	 str r2,[r3]
 6412              	.L301:
1309:C:/Users/Yushev/git/wpcqi-optiga-trust-charge/optiga/externals/mbedtls/library\bignum.c **** 
1310:C:/Users/Yushev/git/wpcqi-optiga-trust-charge/optiga/externals/mbedtls/library\bignum.c **** cleanup:
1311:C:/Users/Yushev/git/wpcqi-optiga-trust-charge/optiga/externals/mbedtls/library\bignum.c **** 
1312:C:/Users/Yushev/git/wpcqi-optiga-trust-charge/optiga/externals/mbedtls/library\bignum.c ****     mbedtls_mpi_free( &TB ); mbedtls_mpi_free( &TA );
 6413              	 .loc 1 1312 0
 6414 0136 07F11403 	 add r3,r7,#20
 6415 013a 1846     	 mov r0,r3
 6416 013c FFF7FEFF 	 bl mbedtls_mpi_free
 6417 0140 07F12003 	 add r3,r7,#32
 6418 0144 1846     	 mov r0,r3
 6419 0146 FFF7FEFF 	 bl mbedtls_mpi_free
1313:C:/Users/Yushev/git/wpcqi-optiga-trust-charge/optiga/externals/mbedtls/library\bignum.c **** 
1314:C:/Users/Yushev/git/wpcqi-optiga-trust-charge/optiga/externals/mbedtls/library\bignum.c ****     return( ret );
 6420              	 .loc 1 1314 0
 6421 014a 7B6B     	 ldr r3,[r7,#52]
1315:C:/Users/Yushev/git/wpcqi-optiga-trust-charge/optiga/externals/mbedtls/library\bignum.c **** }
 6422              	 .loc 1 1315 0
 6423 014c 1846     	 mov r0,r3
 6424 014e 3C37     	 adds r7,r7,#60
 6425              	.LCFI187:
 6426              	 .cfi_def_cfa_offset 12
 6427 0150 BD46     	 mov sp,r7
 6428              	.LCFI188:
 6429              	 .cfi_def_cfa_register 13
 6430              	 
 6431 0152 90BD     	 pop {r4,r7,pc}
 6432              	 .cfi_endproc
 6433              	.LFE35:
 6435              	 .section .text.mbedtls_mpi_mul_int,"ax",%progbits
 6436              	 .align 2
 6437              	 .global mbedtls_mpi_mul_int
 6438              	 .thumb
 6439              	 .thumb_func
 6441              	mbedtls_mpi_mul_int:
 6442              	.LFB36:
1316:C:/Users/Yushev/git/wpcqi-optiga-trust-charge/optiga/externals/mbedtls/library\bignum.c **** 
1317:C:/Users/Yushev/git/wpcqi-optiga-trust-charge/optiga/externals/mbedtls/library\bignum.c **** /*
1318:C:/Users/Yushev/git/wpcqi-optiga-trust-charge/optiga/externals/mbedtls/library\bignum.c ****  * Baseline multiplication: X = A * b
1319:C:/Users/Yushev/git/wpcqi-optiga-trust-charge/optiga/externals/mbedtls/library\bignum.c ****  */
1320:C:/Users/Yushev/git/wpcqi-optiga-trust-charge/optiga/externals/mbedtls/library\bignum.c **** int mbedtls_mpi_mul_int( mbedtls_mpi *X, const mbedtls_mpi *A, mbedtls_mpi_uint b )
1321:C:/Users/Yushev/git/wpcqi-optiga-trust-charge/optiga/externals/mbedtls/library\bignum.c **** {
 6443              	 .loc 1 1321 0
 6444              	 .cfi_startproc
 6445              	 
 6446              	 
 6447 0000 80B5     	 push {r7,lr}
 6448              	.LCFI189:
 6449              	 .cfi_def_cfa_offset 8
 6450              	 .cfi_offset 7,-8
 6451              	 .cfi_offset 14,-4
 6452 0002 88B0     	 sub sp,sp,#32
 6453              	.LCFI190:
 6454              	 .cfi_def_cfa_offset 40
 6455 0004 00AF     	 add r7,sp,#0
 6456              	.LCFI191:
 6457              	 .cfi_def_cfa_register 7
 6458 0006 F860     	 str r0,[r7,#12]
 6459 0008 B960     	 str r1,[r7,#8]
 6460 000a 7A60     	 str r2,[r7,#4]
1322:C:/Users/Yushev/git/wpcqi-optiga-trust-charge/optiga/externals/mbedtls/library\bignum.c ****     mbedtls_mpi _B;
1323:C:/Users/Yushev/git/wpcqi-optiga-trust-charge/optiga/externals/mbedtls/library\bignum.c ****     mbedtls_mpi_uint p[1];
1324:C:/Users/Yushev/git/wpcqi-optiga-trust-charge/optiga/externals/mbedtls/library\bignum.c ****     MPI_VALIDATE_RET( X != NULL );
1325:C:/Users/Yushev/git/wpcqi-optiga-trust-charge/optiga/externals/mbedtls/library\bignum.c ****     MPI_VALIDATE_RET( A != NULL );
1326:C:/Users/Yushev/git/wpcqi-optiga-trust-charge/optiga/externals/mbedtls/library\bignum.c **** 
1327:C:/Users/Yushev/git/wpcqi-optiga-trust-charge/optiga/externals/mbedtls/library\bignum.c ****     _B.s = 1;
 6461              	 .loc 1 1327 0
 6462 000c 0123     	 movs r3,#1
 6463 000e 7B61     	 str r3,[r7,#20]
1328:C:/Users/Yushev/git/wpcqi-optiga-trust-charge/optiga/externals/mbedtls/library\bignum.c ****     _B.n = 1;
 6464              	 .loc 1 1328 0
 6465 0010 0123     	 movs r3,#1
 6466 0012 BB61     	 str r3,[r7,#24]
1329:C:/Users/Yushev/git/wpcqi-optiga-trust-charge/optiga/externals/mbedtls/library\bignum.c ****     _B.p = p;
 6467              	 .loc 1 1329 0
 6468 0014 07F11003 	 add r3,r7,#16
 6469 0018 FB61     	 str r3,[r7,#28]
1330:C:/Users/Yushev/git/wpcqi-optiga-trust-charge/optiga/externals/mbedtls/library\bignum.c ****     p[0] = b;
 6470              	 .loc 1 1330 0
 6471 001a 7B68     	 ldr r3,[r7,#4]
 6472 001c 3B61     	 str r3,[r7,#16]
1331:C:/Users/Yushev/git/wpcqi-optiga-trust-charge/optiga/externals/mbedtls/library\bignum.c **** 
1332:C:/Users/Yushev/git/wpcqi-optiga-trust-charge/optiga/externals/mbedtls/library\bignum.c ****     return( mbedtls_mpi_mul_mpi( X, A, &_B ) );
 6473              	 .loc 1 1332 0
 6474 001e 07F11403 	 add r3,r7,#20
 6475 0022 F868     	 ldr r0,[r7,#12]
 6476 0024 B968     	 ldr r1,[r7,#8]
 6477 0026 1A46     	 mov r2,r3
 6478 0028 FFF7FEFF 	 bl mbedtls_mpi_mul_mpi
 6479 002c 0346     	 mov r3,r0
1333:C:/Users/Yushev/git/wpcqi-optiga-trust-charge/optiga/externals/mbedtls/library\bignum.c **** }
 6480              	 .loc 1 1333 0
 6481 002e 1846     	 mov r0,r3
 6482 0030 2037     	 adds r7,r7,#32
 6483              	.LCFI192:
 6484              	 .cfi_def_cfa_offset 8
 6485 0032 BD46     	 mov sp,r7
 6486              	.LCFI193:
 6487              	 .cfi_def_cfa_register 13
 6488              	 
 6489 0034 80BD     	 pop {r7,pc}
 6490              	 .cfi_endproc
 6491              	.LFE36:
 6493              	 .global __aeabi_uldivmod
 6494 0036 00BF     	 .section .text.mbedtls_int_div_int,"ax",%progbits
 6495              	 .align 2
 6496              	 .thumb
 6497              	 .thumb_func
 6499              	mbedtls_int_div_int:
 6500              	.LFB37:
1334:C:/Users/Yushev/git/wpcqi-optiga-trust-charge/optiga/externals/mbedtls/library\bignum.c **** 
1335:C:/Users/Yushev/git/wpcqi-optiga-trust-charge/optiga/externals/mbedtls/library\bignum.c **** /*
1336:C:/Users/Yushev/git/wpcqi-optiga-trust-charge/optiga/externals/mbedtls/library\bignum.c ****  * Unsigned integer divide - double mbedtls_mpi_uint dividend, u1/u0, and
1337:C:/Users/Yushev/git/wpcqi-optiga-trust-charge/optiga/externals/mbedtls/library\bignum.c ****  * mbedtls_mpi_uint divisor, d
1338:C:/Users/Yushev/git/wpcqi-optiga-trust-charge/optiga/externals/mbedtls/library\bignum.c ****  */
1339:C:/Users/Yushev/git/wpcqi-optiga-trust-charge/optiga/externals/mbedtls/library\bignum.c **** static mbedtls_mpi_uint mbedtls_int_div_int( mbedtls_mpi_uint u1,
1340:C:/Users/Yushev/git/wpcqi-optiga-trust-charge/optiga/externals/mbedtls/library\bignum.c ****             mbedtls_mpi_uint u0, mbedtls_mpi_uint d, mbedtls_mpi_uint *r )
1341:C:/Users/Yushev/git/wpcqi-optiga-trust-charge/optiga/externals/mbedtls/library\bignum.c **** {
 6501              	 .loc 1 1341 0
 6502              	 .cfi_startproc
 6503              	 
 6504              	 
 6505 0000 B0B5     	 push {r4,r5,r7,lr}
 6506              	.LCFI194:
 6507              	 .cfi_def_cfa_offset 16
 6508              	 .cfi_offset 4,-16
 6509              	 .cfi_offset 5,-12
 6510              	 .cfi_offset 7,-8
 6511              	 .cfi_offset 14,-4
 6512 0002 88B0     	 sub sp,sp,#32
 6513              	.LCFI195:
 6514              	 .cfi_def_cfa_offset 48
 6515 0004 00AF     	 add r7,sp,#0
 6516              	.LCFI196:
 6517              	 .cfi_def_cfa_register 7
 6518 0006 F860     	 str r0,[r7,#12]
 6519 0008 B960     	 str r1,[r7,#8]
 6520 000a 7A60     	 str r2,[r7,#4]
 6521 000c 3B60     	 str r3,[r7]
1342:C:/Users/Yushev/git/wpcqi-optiga-trust-charge/optiga/externals/mbedtls/library\bignum.c **** #if defined(MBEDTLS_HAVE_UDBL)
1343:C:/Users/Yushev/git/wpcqi-optiga-trust-charge/optiga/externals/mbedtls/library\bignum.c ****     mbedtls_t_udbl dividend, quotient;
1344:C:/Users/Yushev/git/wpcqi-optiga-trust-charge/optiga/externals/mbedtls/library\bignum.c **** #else
1345:C:/Users/Yushev/git/wpcqi-optiga-trust-charge/optiga/externals/mbedtls/library\bignum.c ****     const mbedtls_mpi_uint radix = (mbedtls_mpi_uint) 1 << biH;
1346:C:/Users/Yushev/git/wpcqi-optiga-trust-charge/optiga/externals/mbedtls/library\bignum.c ****     const mbedtls_mpi_uint uint_halfword_mask = ( (mbedtls_mpi_uint) 1 << biH ) - 1;
1347:C:/Users/Yushev/git/wpcqi-optiga-trust-charge/optiga/externals/mbedtls/library\bignum.c ****     mbedtls_mpi_uint d0, d1, q0, q1, rAX, r0, quotient;
1348:C:/Users/Yushev/git/wpcqi-optiga-trust-charge/optiga/externals/mbedtls/library\bignum.c ****     mbedtls_mpi_uint u0_msw, u0_lsw;
1349:C:/Users/Yushev/git/wpcqi-optiga-trust-charge/optiga/externals/mbedtls/library\bignum.c ****     size_t s;
1350:C:/Users/Yushev/git/wpcqi-optiga-trust-charge/optiga/externals/mbedtls/library\bignum.c **** #endif
1351:C:/Users/Yushev/git/wpcqi-optiga-trust-charge/optiga/externals/mbedtls/library\bignum.c **** 
1352:C:/Users/Yushev/git/wpcqi-optiga-trust-charge/optiga/externals/mbedtls/library\bignum.c ****     /*
1353:C:/Users/Yushev/git/wpcqi-optiga-trust-charge/optiga/externals/mbedtls/library\bignum.c ****      * Check for overflow
1354:C:/Users/Yushev/git/wpcqi-optiga-trust-charge/optiga/externals/mbedtls/library\bignum.c ****      */
1355:C:/Users/Yushev/git/wpcqi-optiga-trust-charge/optiga/externals/mbedtls/library\bignum.c ****     if( 0 == d || u1 >= d )
 6522              	 .loc 1 1355 0
 6523 000e 7B68     	 ldr r3,[r7,#4]
 6524 0010 002B     	 cmp r3,#0
 6525 0012 03D0     	 beq .L320
 6526              	 .loc 1 1355 0 is_stmt 0 discriminator 1
 6527 0014 FA68     	 ldr r2,[r7,#12]
 6528 0016 7B68     	 ldr r3,[r7,#4]
 6529 0018 9A42     	 cmp r2,r3
 6530 001a 09D3     	 bcc .L321
 6531              	.L320:
1356:C:/Users/Yushev/git/wpcqi-optiga-trust-charge/optiga/externals/mbedtls/library\bignum.c ****     {
1357:C:/Users/Yushev/git/wpcqi-optiga-trust-charge/optiga/externals/mbedtls/library\bignum.c ****         if (r != NULL) *r = ~0;
 6532              	 .loc 1 1357 0 is_stmt 1
 6533 001c 3B68     	 ldr r3,[r7]
 6534 001e 002B     	 cmp r3,#0
 6535 0020 03D0     	 beq .L322
 6536              	 .loc 1 1357 0 is_stmt 0 discriminator 1
 6537 0022 3B68     	 ldr r3,[r7]
 6538 0024 4FF0FF32 	 mov r2,#-1
 6539 0028 1A60     	 str r2,[r3]
 6540              	.L322:
1358:C:/Users/Yushev/git/wpcqi-optiga-trust-charge/optiga/externals/mbedtls/library\bignum.c **** 
1359:C:/Users/Yushev/git/wpcqi-optiga-trust-charge/optiga/externals/mbedtls/library\bignum.c ****         return ( ~0 );
 6541              	 .loc 1 1359 0 is_stmt 1
 6542 002a 4FF0FF33 	 mov r3,#-1
 6543 002e 37E0     	 b .L323
 6544              	.L321:
1360:C:/Users/Yushev/git/wpcqi-optiga-trust-charge/optiga/externals/mbedtls/library\bignum.c ****     }
1361:C:/Users/Yushev/git/wpcqi-optiga-trust-charge/optiga/externals/mbedtls/library\bignum.c **** 
1362:C:/Users/Yushev/git/wpcqi-optiga-trust-charge/optiga/externals/mbedtls/library\bignum.c **** #if defined(MBEDTLS_HAVE_UDBL)
1363:C:/Users/Yushev/git/wpcqi-optiga-trust-charge/optiga/externals/mbedtls/library\bignum.c ****     dividend  = (mbedtls_t_udbl) u1 << biL;
 6545              	 .loc 1 1363 0
 6546 0030 FB68     	 ldr r3,[r7,#12]
 6547 0032 1A46     	 mov r2,r3
 6548 0034 4FF00003 	 mov r3,#0
 6549 0038 1500     	 movs r5,r2
 6550 003a 0024     	 movs r4,#0
 6551 003c C7E90445 	 strd r4,[r7,#16]
1364:C:/Users/Yushev/git/wpcqi-optiga-trust-charge/optiga/externals/mbedtls/library\bignum.c ****     dividend |= (mbedtls_t_udbl) u0;
 6552              	 .loc 1 1364 0
 6553 0040 BB68     	 ldr r3,[r7,#8]
 6554 0042 1A46     	 mov r2,r3
 6555 0044 4FF00003 	 mov r3,#0
 6556 0048 D7E90401 	 ldrd r0,[r7,#16]
 6557 004c 42EA0002 	 orr r2,r2,r0
 6558 0050 43EA0103 	 orr r3,r3,r1
 6559 0054 C7E90423 	 strd r2,[r7,#16]
1365:C:/Users/Yushev/git/wpcqi-optiga-trust-charge/optiga/externals/mbedtls/library\bignum.c ****     quotient = dividend / d;
 6560              	 .loc 1 1365 0
 6561 0058 7B68     	 ldr r3,[r7,#4]
 6562 005a 1A46     	 mov r2,r3
 6563 005c 4FF00003 	 mov r3,#0
 6564 0060 D7E90401 	 ldrd r0,[r7,#16]
 6565 0064 FFF7FEFF 	 bl __aeabi_uldivmod
 6566 0068 0246     	 mov r2,r0
 6567 006a 0B46     	 mov r3,r1
 6568 006c C7E90623 	 strd r2,[r7,#24]
1366:C:/Users/Yushev/git/wpcqi-optiga-trust-charge/optiga/externals/mbedtls/library\bignum.c ****     if( quotient > ( (mbedtls_t_udbl) 1 << biL ) - 1 )
 6569              	 .loc 1 1366 0
 6570 0070 D7E90623 	 ldrd r2,[r7,#24]
 6571 0074 012B     	 cmp r3,#1
 6572 0076 08BF     	 it eq
 6573 0078 002A     	 cmpeq r2,#0
 6574 007a 05D3     	 bcc .L324
1367:C:/Users/Yushev/git/wpcqi-optiga-trust-charge/optiga/externals/mbedtls/library\bignum.c ****         quotient = ( (mbedtls_t_udbl) 1 << biL ) - 1;
 6575              	 .loc 1 1367 0
 6576 007c 4FF0FF32 	 mov r2,#-1
 6577 0080 4FF00003 	 mov r3,#0
 6578 0084 C7E90623 	 strd r2,[r7,#24]
 6579              	.L324:
1368:C:/Users/Yushev/git/wpcqi-optiga-trust-charge/optiga/externals/mbedtls/library\bignum.c **** 
1369:C:/Users/Yushev/git/wpcqi-optiga-trust-charge/optiga/externals/mbedtls/library\bignum.c ****     if( r != NULL )
 6580              	 .loc 1 1369 0
 6581 0088 3B68     	 ldr r3,[r7]
 6582 008a 002B     	 cmp r3,#0
 6583 008c 07D0     	 beq .L325
1370:C:/Users/Yushev/git/wpcqi-optiga-trust-charge/optiga/externals/mbedtls/library\bignum.c ****         *r = (mbedtls_mpi_uint)( dividend - (quotient * d ) );
 6584              	 .loc 1 1370 0
 6585 008e 3A69     	 ldr r2,[r7,#16]
 6586 0090 BB69     	 ldr r3,[r7,#24]
 6587 0092 7968     	 ldr r1,[r7,#4]
 6588 0094 01FB03F3 	 mul r3,r1,r3
 6589 0098 D21A     	 subs r2,r2,r3
 6590 009a 3B68     	 ldr r3,[r7]
 6591 009c 1A60     	 str r2,[r3]
 6592              	.L325:
1371:C:/Users/Yushev/git/wpcqi-optiga-trust-charge/optiga/externals/mbedtls/library\bignum.c **** 
1372:C:/Users/Yushev/git/wpcqi-optiga-trust-charge/optiga/externals/mbedtls/library\bignum.c ****     return (mbedtls_mpi_uint) quotient;
 6593              	 .loc 1 1372 0
 6594 009e BB69     	 ldr r3,[r7,#24]
 6595              	.L323:
1373:C:/Users/Yushev/git/wpcqi-optiga-trust-charge/optiga/externals/mbedtls/library\bignum.c **** #else
1374:C:/Users/Yushev/git/wpcqi-optiga-trust-charge/optiga/externals/mbedtls/library\bignum.c **** 
1375:C:/Users/Yushev/git/wpcqi-optiga-trust-charge/optiga/externals/mbedtls/library\bignum.c ****     /*
1376:C:/Users/Yushev/git/wpcqi-optiga-trust-charge/optiga/externals/mbedtls/library\bignum.c ****      * Algorithm D, Section 4.3.1 - The Art of Computer Programming
1377:C:/Users/Yushev/git/wpcqi-optiga-trust-charge/optiga/externals/mbedtls/library\bignum.c ****      *   Vol. 2 - Seminumerical Algorithms, Knuth
1378:C:/Users/Yushev/git/wpcqi-optiga-trust-charge/optiga/externals/mbedtls/library\bignum.c ****      */
1379:C:/Users/Yushev/git/wpcqi-optiga-trust-charge/optiga/externals/mbedtls/library\bignum.c **** 
1380:C:/Users/Yushev/git/wpcqi-optiga-trust-charge/optiga/externals/mbedtls/library\bignum.c ****     /*
1381:C:/Users/Yushev/git/wpcqi-optiga-trust-charge/optiga/externals/mbedtls/library\bignum.c ****      * Normalize the divisor, d, and dividend, u0, u1
1382:C:/Users/Yushev/git/wpcqi-optiga-trust-charge/optiga/externals/mbedtls/library\bignum.c ****      */
1383:C:/Users/Yushev/git/wpcqi-optiga-trust-charge/optiga/externals/mbedtls/library\bignum.c ****     s = mbedtls_clz( d );
1384:C:/Users/Yushev/git/wpcqi-optiga-trust-charge/optiga/externals/mbedtls/library\bignum.c ****     d = d << s;
1385:C:/Users/Yushev/git/wpcqi-optiga-trust-charge/optiga/externals/mbedtls/library\bignum.c **** 
1386:C:/Users/Yushev/git/wpcqi-optiga-trust-charge/optiga/externals/mbedtls/library\bignum.c ****     u1 = u1 << s;
1387:C:/Users/Yushev/git/wpcqi-optiga-trust-charge/optiga/externals/mbedtls/library\bignum.c ****     u1 |= ( u0 >> ( biL - s ) ) & ( -(mbedtls_mpi_sint)s >> ( biL - 1 ) );
1388:C:/Users/Yushev/git/wpcqi-optiga-trust-charge/optiga/externals/mbedtls/library\bignum.c ****     u0 =  u0 << s;
1389:C:/Users/Yushev/git/wpcqi-optiga-trust-charge/optiga/externals/mbedtls/library\bignum.c **** 
1390:C:/Users/Yushev/git/wpcqi-optiga-trust-charge/optiga/externals/mbedtls/library\bignum.c ****     d1 = d >> biH;
1391:C:/Users/Yushev/git/wpcqi-optiga-trust-charge/optiga/externals/mbedtls/library\bignum.c ****     d0 = d & uint_halfword_mask;
1392:C:/Users/Yushev/git/wpcqi-optiga-trust-charge/optiga/externals/mbedtls/library\bignum.c **** 
1393:C:/Users/Yushev/git/wpcqi-optiga-trust-charge/optiga/externals/mbedtls/library\bignum.c ****     u0_msw = u0 >> biH;
1394:C:/Users/Yushev/git/wpcqi-optiga-trust-charge/optiga/externals/mbedtls/library\bignum.c ****     u0_lsw = u0 & uint_halfword_mask;
1395:C:/Users/Yushev/git/wpcqi-optiga-trust-charge/optiga/externals/mbedtls/library\bignum.c **** 
1396:C:/Users/Yushev/git/wpcqi-optiga-trust-charge/optiga/externals/mbedtls/library\bignum.c ****     /*
1397:C:/Users/Yushev/git/wpcqi-optiga-trust-charge/optiga/externals/mbedtls/library\bignum.c ****      * Find the first quotient and remainder
1398:C:/Users/Yushev/git/wpcqi-optiga-trust-charge/optiga/externals/mbedtls/library\bignum.c ****      */
1399:C:/Users/Yushev/git/wpcqi-optiga-trust-charge/optiga/externals/mbedtls/library\bignum.c ****     q1 = u1 / d1;
1400:C:/Users/Yushev/git/wpcqi-optiga-trust-charge/optiga/externals/mbedtls/library\bignum.c ****     r0 = u1 - d1 * q1;
1401:C:/Users/Yushev/git/wpcqi-optiga-trust-charge/optiga/externals/mbedtls/library\bignum.c **** 
1402:C:/Users/Yushev/git/wpcqi-optiga-trust-charge/optiga/externals/mbedtls/library\bignum.c ****     while( q1 >= radix || ( q1 * d0 > radix * r0 + u0_msw ) )
1403:C:/Users/Yushev/git/wpcqi-optiga-trust-charge/optiga/externals/mbedtls/library\bignum.c ****     {
1404:C:/Users/Yushev/git/wpcqi-optiga-trust-charge/optiga/externals/mbedtls/library\bignum.c ****         q1 -= 1;
1405:C:/Users/Yushev/git/wpcqi-optiga-trust-charge/optiga/externals/mbedtls/library\bignum.c ****         r0 += d1;
1406:C:/Users/Yushev/git/wpcqi-optiga-trust-charge/optiga/externals/mbedtls/library\bignum.c **** 
1407:C:/Users/Yushev/git/wpcqi-optiga-trust-charge/optiga/externals/mbedtls/library\bignum.c ****         if ( r0 >= radix ) break;
1408:C:/Users/Yushev/git/wpcqi-optiga-trust-charge/optiga/externals/mbedtls/library\bignum.c ****     }
1409:C:/Users/Yushev/git/wpcqi-optiga-trust-charge/optiga/externals/mbedtls/library\bignum.c **** 
1410:C:/Users/Yushev/git/wpcqi-optiga-trust-charge/optiga/externals/mbedtls/library\bignum.c ****     rAX = ( u1 * radix ) + ( u0_msw - q1 * d );
1411:C:/Users/Yushev/git/wpcqi-optiga-trust-charge/optiga/externals/mbedtls/library\bignum.c ****     q0 = rAX / d1;
1412:C:/Users/Yushev/git/wpcqi-optiga-trust-charge/optiga/externals/mbedtls/library\bignum.c ****     r0 = rAX - q0 * d1;
1413:C:/Users/Yushev/git/wpcqi-optiga-trust-charge/optiga/externals/mbedtls/library\bignum.c **** 
1414:C:/Users/Yushev/git/wpcqi-optiga-trust-charge/optiga/externals/mbedtls/library\bignum.c ****     while( q0 >= radix || ( q0 * d0 > radix * r0 + u0_lsw ) )
1415:C:/Users/Yushev/git/wpcqi-optiga-trust-charge/optiga/externals/mbedtls/library\bignum.c ****     {
1416:C:/Users/Yushev/git/wpcqi-optiga-trust-charge/optiga/externals/mbedtls/library\bignum.c ****         q0 -= 1;
1417:C:/Users/Yushev/git/wpcqi-optiga-trust-charge/optiga/externals/mbedtls/library\bignum.c ****         r0 += d1;
1418:C:/Users/Yushev/git/wpcqi-optiga-trust-charge/optiga/externals/mbedtls/library\bignum.c **** 
1419:C:/Users/Yushev/git/wpcqi-optiga-trust-charge/optiga/externals/mbedtls/library\bignum.c ****         if ( r0 >= radix ) break;
1420:C:/Users/Yushev/git/wpcqi-optiga-trust-charge/optiga/externals/mbedtls/library\bignum.c ****     }
1421:C:/Users/Yushev/git/wpcqi-optiga-trust-charge/optiga/externals/mbedtls/library\bignum.c **** 
1422:C:/Users/Yushev/git/wpcqi-optiga-trust-charge/optiga/externals/mbedtls/library\bignum.c ****     if (r != NULL)
1423:C:/Users/Yushev/git/wpcqi-optiga-trust-charge/optiga/externals/mbedtls/library\bignum.c ****         *r = ( rAX * radix + u0_lsw - q0 * d ) >> s;
1424:C:/Users/Yushev/git/wpcqi-optiga-trust-charge/optiga/externals/mbedtls/library\bignum.c **** 
1425:C:/Users/Yushev/git/wpcqi-optiga-trust-charge/optiga/externals/mbedtls/library\bignum.c ****     quotient = q1 * radix + q0;
1426:C:/Users/Yushev/git/wpcqi-optiga-trust-charge/optiga/externals/mbedtls/library\bignum.c **** 
1427:C:/Users/Yushev/git/wpcqi-optiga-trust-charge/optiga/externals/mbedtls/library\bignum.c ****     return quotient;
1428:C:/Users/Yushev/git/wpcqi-optiga-trust-charge/optiga/externals/mbedtls/library\bignum.c **** #endif
1429:C:/Users/Yushev/git/wpcqi-optiga-trust-charge/optiga/externals/mbedtls/library\bignum.c **** }
 6596              	 .loc 1 1429 0
 6597 00a0 1846     	 mov r0,r3
 6598 00a2 2037     	 adds r7,r7,#32
 6599              	.LCFI197:
 6600              	 .cfi_def_cfa_offset 16
 6601 00a4 BD46     	 mov sp,r7
 6602              	.LCFI198:
 6603              	 .cfi_def_cfa_register 13
 6604              	 
 6605 00a6 B0BD     	 pop {r4,r5,r7,pc}
 6606              	 .cfi_endproc
 6607              	.LFE37:
 6609              	 .section .text.mbedtls_mpi_div_mpi,"ax",%progbits
 6610              	 .align 2
 6611              	 .global mbedtls_mpi_div_mpi
 6612              	 .thumb
 6613              	 .thumb_func
 6615              	mbedtls_mpi_div_mpi:
 6616              	.LFB38:
1430:C:/Users/Yushev/git/wpcqi-optiga-trust-charge/optiga/externals/mbedtls/library\bignum.c **** 
1431:C:/Users/Yushev/git/wpcqi-optiga-trust-charge/optiga/externals/mbedtls/library\bignum.c **** /*
1432:C:/Users/Yushev/git/wpcqi-optiga-trust-charge/optiga/externals/mbedtls/library\bignum.c ****  * Division by mbedtls_mpi: A = Q * B + R  (HAC 14.20)
1433:C:/Users/Yushev/git/wpcqi-optiga-trust-charge/optiga/externals/mbedtls/library\bignum.c ****  */
1434:C:/Users/Yushev/git/wpcqi-optiga-trust-charge/optiga/externals/mbedtls/library\bignum.c **** int mbedtls_mpi_div_mpi( mbedtls_mpi *Q, mbedtls_mpi *R, const mbedtls_mpi *A,
1435:C:/Users/Yushev/git/wpcqi-optiga-trust-charge/optiga/externals/mbedtls/library\bignum.c ****                          const mbedtls_mpi *B )
1436:C:/Users/Yushev/git/wpcqi-optiga-trust-charge/optiga/externals/mbedtls/library\bignum.c **** {
 6617              	 .loc 1 1436 0
 6618              	 .cfi_startproc
 6619              	 
 6620              	 
 6621 0000 90B5     	 push {r4,r7,lr}
 6622              	.LCFI199:
 6623              	 .cfi_def_cfa_offset 12
 6624              	 .cfi_offset 4,-12
 6625              	 .cfi_offset 7,-8
 6626              	 .cfi_offset 14,-4
 6627 0002 99B0     	 sub sp,sp,#100
 6628              	.LCFI200:
 6629              	 .cfi_def_cfa_offset 112
 6630 0004 00AF     	 add r7,sp,#0
 6631              	.LCFI201:
 6632              	 .cfi_def_cfa_register 7
 6633 0006 F860     	 str r0,[r7,#12]
 6634 0008 B960     	 str r1,[r7,#8]
 6635 000a 7A60     	 str r2,[r7,#4]
 6636 000c 3B60     	 str r3,[r7]
1437:C:/Users/Yushev/git/wpcqi-optiga-trust-charge/optiga/externals/mbedtls/library\bignum.c ****     int ret;
1438:C:/Users/Yushev/git/wpcqi-optiga-trust-charge/optiga/externals/mbedtls/library\bignum.c ****     size_t i, n, t, k;
1439:C:/Users/Yushev/git/wpcqi-optiga-trust-charge/optiga/externals/mbedtls/library\bignum.c ****     mbedtls_mpi X, Y, Z, T1, T2;
1440:C:/Users/Yushev/git/wpcqi-optiga-trust-charge/optiga/externals/mbedtls/library\bignum.c ****     MPI_VALIDATE_RET( A != NULL );
1441:C:/Users/Yushev/git/wpcqi-optiga-trust-charge/optiga/externals/mbedtls/library\bignum.c ****     MPI_VALIDATE_RET( B != NULL );
1442:C:/Users/Yushev/git/wpcqi-optiga-trust-charge/optiga/externals/mbedtls/library\bignum.c **** 
1443:C:/Users/Yushev/git/wpcqi-optiga-trust-charge/optiga/externals/mbedtls/library\bignum.c ****     if( mbedtls_mpi_cmp_int( B, 0 ) == 0 )
 6637              	 .loc 1 1443 0
 6638 000e 3868     	 ldr r0,[r7]
 6639 0010 0021     	 movs r1,#0
 6640 0012 FFF7FEFF 	 bl mbedtls_mpi_cmp_int
 6641 0016 0346     	 mov r3,r0
 6642 0018 002B     	 cmp r3,#0
 6643 001a 02D1     	 bne .L327
1444:C:/Users/Yushev/git/wpcqi-optiga-trust-charge/optiga/externals/mbedtls/library\bignum.c ****         return( MBEDTLS_ERR_MPI_DIVISION_BY_ZERO );
 6644              	 .loc 1 1444 0
 6645 001c 6FF00B03 	 mvn r3,#11
 6646 0020 9CE2     	 b .L371
 6647              	.L327:
1445:C:/Users/Yushev/git/wpcqi-optiga-trust-charge/optiga/externals/mbedtls/library\bignum.c **** 
1446:C:/Users/Yushev/git/wpcqi-optiga-trust-charge/optiga/externals/mbedtls/library\bignum.c ****     mbedtls_mpi_init( &X ); mbedtls_mpi_init( &Y ); mbedtls_mpi_init( &Z );
 6648              	 .loc 1 1446 0
 6649 0022 07F14003 	 add r3,r7,#64
 6650 0026 1846     	 mov r0,r3
 6651 0028 FFF7FEFF 	 bl mbedtls_mpi_init
 6652 002c 07F13403 	 add r3,r7,#52
 6653 0030 1846     	 mov r0,r3
 6654 0032 FFF7FEFF 	 bl mbedtls_mpi_init
 6655 0036 07F12803 	 add r3,r7,#40
 6656 003a 1846     	 mov r0,r3
 6657 003c FFF7FEFF 	 bl mbedtls_mpi_init
1447:C:/Users/Yushev/git/wpcqi-optiga-trust-charge/optiga/externals/mbedtls/library\bignum.c ****     mbedtls_mpi_init( &T1 ); mbedtls_mpi_init( &T2 );
 6658              	 .loc 1 1447 0
 6659 0040 07F11C03 	 add r3,r7,#28
 6660 0044 1846     	 mov r0,r3
 6661 0046 FFF7FEFF 	 bl mbedtls_mpi_init
 6662 004a 07F11003 	 add r3,r7,#16
 6663 004e 1846     	 mov r0,r3
 6664 0050 FFF7FEFF 	 bl mbedtls_mpi_init
1448:C:/Users/Yushev/git/wpcqi-optiga-trust-charge/optiga/externals/mbedtls/library\bignum.c **** 
1449:C:/Users/Yushev/git/wpcqi-optiga-trust-charge/optiga/externals/mbedtls/library\bignum.c ****     if( mbedtls_mpi_cmp_abs( A, B ) < 0 )
 6665              	 .loc 1 1449 0
 6666 0054 7868     	 ldr r0,[r7,#4]
 6667 0056 3968     	 ldr r1,[r7]
 6668 0058 FFF7FEFF 	 bl mbedtls_mpi_cmp_abs
 6669 005c 0346     	 mov r3,r0
 6670 005e 002B     	 cmp r3,#0
 6671 0060 19DA     	 bge .L329
1450:C:/Users/Yushev/git/wpcqi-optiga-trust-charge/optiga/externals/mbedtls/library\bignum.c ****     {
1451:C:/Users/Yushev/git/wpcqi-optiga-trust-charge/optiga/externals/mbedtls/library\bignum.c ****         if( Q != NULL ) MBEDTLS_MPI_CHK( mbedtls_mpi_lset( Q, 0 ) );
 6672              	 .loc 1 1451 0
 6673 0062 FB68     	 ldr r3,[r7,#12]
 6674 0064 002B     	 cmp r3,#0
 6675 0066 08D0     	 beq .L330
 6676              	 .loc 1 1451 0 is_stmt 0 discriminator 1
 6677 0068 F868     	 ldr r0,[r7,#12]
 6678 006a 0021     	 movs r1,#0
 6679 006c FFF7FEFF 	 bl mbedtls_mpi_lset
 6680 0070 F865     	 str r0,[r7,#92]
 6681 0072 FB6D     	 ldr r3,[r7,#92]
 6682 0074 002B     	 cmp r3,#0
 6683 0076 00D0     	 beq .L330
 6684              	 .loc 1 1451 0
 6685 0078 56E2     	 b .L331
 6686              	.L330:
1452:C:/Users/Yushev/git/wpcqi-optiga-trust-charge/optiga/externals/mbedtls/library\bignum.c ****         if( R != NULL ) MBEDTLS_MPI_CHK( mbedtls_mpi_copy( R, A ) );
 6687              	 .loc 1 1452 0 is_stmt 1
 6688 007a BB68     	 ldr r3,[r7,#8]
 6689 007c 002B     	 cmp r3,#0
 6690 007e 08D0     	 beq .L332
 6691              	 .loc 1 1452 0 is_stmt 0 discriminator 1
 6692 0080 B868     	 ldr r0,[r7,#8]
 6693 0082 7968     	 ldr r1,[r7,#4]
 6694 0084 FFF7FEFF 	 bl mbedtls_mpi_copy
 6695 0088 F865     	 str r0,[r7,#92]
 6696 008a FB6D     	 ldr r3,[r7,#92]
 6697 008c 002B     	 cmp r3,#0
 6698 008e 00D0     	 beq .L332
 6699              	 .loc 1 1452 0
 6700 0090 4AE2     	 b .L331
 6701              	.L332:
1453:C:/Users/Yushev/git/wpcqi-optiga-trust-charge/optiga/externals/mbedtls/library\bignum.c ****         return( 0 );
 6702              	 .loc 1 1453 0 is_stmt 1
 6703 0092 0023     	 movs r3,#0
 6704 0094 62E2     	 b .L371
 6705              	.L329:
1454:C:/Users/Yushev/git/wpcqi-optiga-trust-charge/optiga/externals/mbedtls/library\bignum.c ****     }
1455:C:/Users/Yushev/git/wpcqi-optiga-trust-charge/optiga/externals/mbedtls/library\bignum.c **** 
1456:C:/Users/Yushev/git/wpcqi-optiga-trust-charge/optiga/externals/mbedtls/library\bignum.c ****     MBEDTLS_MPI_CHK( mbedtls_mpi_copy( &X, A ) );
 6706              	 .loc 1 1456 0
 6707 0096 07F14003 	 add r3,r7,#64
 6708 009a 1846     	 mov r0,r3
 6709 009c 7968     	 ldr r1,[r7,#4]
 6710 009e FFF7FEFF 	 bl mbedtls_mpi_copy
 6711 00a2 F865     	 str r0,[r7,#92]
 6712 00a4 FB6D     	 ldr r3,[r7,#92]
 6713 00a6 002B     	 cmp r3,#0
 6714 00a8 00D0     	 beq .L333
 6715 00aa 3DE2     	 b .L331
 6716              	.L333:
1457:C:/Users/Yushev/git/wpcqi-optiga-trust-charge/optiga/externals/mbedtls/library\bignum.c ****     MBEDTLS_MPI_CHK( mbedtls_mpi_copy( &Y, B ) );
 6717              	 .loc 1 1457 0
 6718 00ac 07F13403 	 add r3,r7,#52
 6719 00b0 1846     	 mov r0,r3
 6720 00b2 3968     	 ldr r1,[r7]
 6721 00b4 FFF7FEFF 	 bl mbedtls_mpi_copy
 6722 00b8 F865     	 str r0,[r7,#92]
 6723 00ba FB6D     	 ldr r3,[r7,#92]
 6724 00bc 002B     	 cmp r3,#0
 6725 00be 00D0     	 beq .L334
 6726 00c0 32E2     	 b .L331
 6727              	.L334:
1458:C:/Users/Yushev/git/wpcqi-optiga-trust-charge/optiga/externals/mbedtls/library\bignum.c ****     X.s = Y.s = 1;
 6728              	 .loc 1 1458 0
 6729 00c2 0123     	 movs r3,#1
 6730 00c4 7B63     	 str r3,[r7,#52]
 6731 00c6 7B6B     	 ldr r3,[r7,#52]
 6732 00c8 3B64     	 str r3,[r7,#64]
1459:C:/Users/Yushev/git/wpcqi-optiga-trust-charge/optiga/externals/mbedtls/library\bignum.c **** 
1460:C:/Users/Yushev/git/wpcqi-optiga-trust-charge/optiga/externals/mbedtls/library\bignum.c ****     MBEDTLS_MPI_CHK( mbedtls_mpi_grow( &Z, A->n + 2 ) );
 6733              	 .loc 1 1460 0
 6734 00ca 7B68     	 ldr r3,[r7,#4]
 6735 00cc 5B68     	 ldr r3,[r3,#4]
 6736 00ce 0233     	 adds r3,r3,#2
 6737 00d0 07F12802 	 add r2,r7,#40
 6738 00d4 1046     	 mov r0,r2
 6739 00d6 1946     	 mov r1,r3
 6740 00d8 FFF7FEFF 	 bl mbedtls_mpi_grow
 6741 00dc F865     	 str r0,[r7,#92]
 6742 00de FB6D     	 ldr r3,[r7,#92]
 6743 00e0 002B     	 cmp r3,#0
 6744 00e2 00D0     	 beq .L335
 6745 00e4 20E2     	 b .L331
 6746              	.L335:
1461:C:/Users/Yushev/git/wpcqi-optiga-trust-charge/optiga/externals/mbedtls/library\bignum.c ****     MBEDTLS_MPI_CHK( mbedtls_mpi_lset( &Z,  0 ) );
 6747              	 .loc 1 1461 0
 6748 00e6 07F12803 	 add r3,r7,#40
 6749 00ea 1846     	 mov r0,r3
 6750 00ec 0021     	 movs r1,#0
 6751 00ee FFF7FEFF 	 bl mbedtls_mpi_lset
 6752 00f2 F865     	 str r0,[r7,#92]
 6753 00f4 FB6D     	 ldr r3,[r7,#92]
 6754 00f6 002B     	 cmp r3,#0
 6755 00f8 00D0     	 beq .L336
 6756 00fa 15E2     	 b .L331
 6757              	.L336:
1462:C:/Users/Yushev/git/wpcqi-optiga-trust-charge/optiga/externals/mbedtls/library\bignum.c ****     MBEDTLS_MPI_CHK( mbedtls_mpi_grow( &T1, 2 ) );
 6758              	 .loc 1 1462 0
 6759 00fc 07F11C03 	 add r3,r7,#28
 6760 0100 1846     	 mov r0,r3
 6761 0102 0221     	 movs r1,#2
 6762 0104 FFF7FEFF 	 bl mbedtls_mpi_grow
 6763 0108 F865     	 str r0,[r7,#92]
 6764 010a FB6D     	 ldr r3,[r7,#92]
 6765 010c 002B     	 cmp r3,#0
 6766 010e 00D0     	 beq .L337
 6767 0110 0AE2     	 b .L331
 6768              	.L337:
1463:C:/Users/Yushev/git/wpcqi-optiga-trust-charge/optiga/externals/mbedtls/library\bignum.c ****     MBEDTLS_MPI_CHK( mbedtls_mpi_grow( &T2, 3 ) );
 6769              	 .loc 1 1463 0
 6770 0112 07F11003 	 add r3,r7,#16
 6771 0116 1846     	 mov r0,r3
 6772 0118 0321     	 movs r1,#3
 6773 011a FFF7FEFF 	 bl mbedtls_mpi_grow
 6774 011e F865     	 str r0,[r7,#92]
 6775 0120 FB6D     	 ldr r3,[r7,#92]
 6776 0122 002B     	 cmp r3,#0
 6777 0124 00D0     	 beq .L338
 6778 0126 FFE1     	 b .L331
 6779              	.L338:
1464:C:/Users/Yushev/git/wpcqi-optiga-trust-charge/optiga/externals/mbedtls/library\bignum.c **** 
1465:C:/Users/Yushev/git/wpcqi-optiga-trust-charge/optiga/externals/mbedtls/library\bignum.c ****     k = mbedtls_mpi_bitlen( &Y ) % biL;
 6780              	 .loc 1 1465 0
 6781 0128 07F13403 	 add r3,r7,#52
 6782 012c 1846     	 mov r0,r3
 6783 012e FFF7FEFF 	 bl mbedtls_mpi_bitlen
 6784 0132 0346     	 mov r3,r0
 6785 0134 03F01F03 	 and r3,r3,#31
 6786 0138 7B65     	 str r3,[r7,#84]
1466:C:/Users/Yushev/git/wpcqi-optiga-trust-charge/optiga/externals/mbedtls/library\bignum.c ****     if( k < biL - 1 )
 6787              	 .loc 1 1466 0
 6788 013a 7B6D     	 ldr r3,[r7,#84]
 6789 013c 1E2B     	 cmp r3,#30
 6790 013e 19D8     	 bhi .L339
1467:C:/Users/Yushev/git/wpcqi-optiga-trust-charge/optiga/externals/mbedtls/library\bignum.c ****     {
1468:C:/Users/Yushev/git/wpcqi-optiga-trust-charge/optiga/externals/mbedtls/library\bignum.c ****         k = biL - 1 - k;
 6791              	 .loc 1 1468 0
 6792 0140 7B6D     	 ldr r3,[r7,#84]
 6793 0142 C3F11F03 	 rsb r3,r3,#31
 6794 0146 7B65     	 str r3,[r7,#84]
1469:C:/Users/Yushev/git/wpcqi-optiga-trust-charge/optiga/externals/mbedtls/library\bignum.c ****         MBEDTLS_MPI_CHK( mbedtls_mpi_shift_l( &X, k ) );
 6795              	 .loc 1 1469 0
 6796 0148 07F14003 	 add r3,r7,#64
 6797 014c 1846     	 mov r0,r3
 6798 014e 796D     	 ldr r1,[r7,#84]
 6799 0150 FFF7FEFF 	 bl mbedtls_mpi_shift_l
 6800 0154 F865     	 str r0,[r7,#92]
 6801 0156 FB6D     	 ldr r3,[r7,#92]
 6802 0158 002B     	 cmp r3,#0
 6803 015a 00D0     	 beq .L340
 6804 015c E4E1     	 b .L331
 6805              	.L340:
1470:C:/Users/Yushev/git/wpcqi-optiga-trust-charge/optiga/externals/mbedtls/library\bignum.c ****         MBEDTLS_MPI_CHK( mbedtls_mpi_shift_l( &Y, k ) );
 6806              	 .loc 1 1470 0
 6807 015e 07F13403 	 add r3,r7,#52
 6808 0162 1846     	 mov r0,r3
 6809 0164 796D     	 ldr r1,[r7,#84]
 6810 0166 FFF7FEFF 	 bl mbedtls_mpi_shift_l
 6811 016a F865     	 str r0,[r7,#92]
 6812 016c FB6D     	 ldr r3,[r7,#92]
 6813 016e 002B     	 cmp r3,#0
 6814 0170 02D0     	 beq .L341
 6815 0172 D9E1     	 b .L331
 6816              	.L339:
1471:C:/Users/Yushev/git/wpcqi-optiga-trust-charge/optiga/externals/mbedtls/library\bignum.c ****     }
1472:C:/Users/Yushev/git/wpcqi-optiga-trust-charge/optiga/externals/mbedtls/library\bignum.c ****     else k = 0;
 6817              	 .loc 1 1472 0
 6818 0174 0023     	 movs r3,#0
 6819 0176 7B65     	 str r3,[r7,#84]
 6820              	.L341:
1473:C:/Users/Yushev/git/wpcqi-optiga-trust-charge/optiga/externals/mbedtls/library\bignum.c **** 
1474:C:/Users/Yushev/git/wpcqi-optiga-trust-charge/optiga/externals/mbedtls/library\bignum.c ****     n = X.n - 1;
 6821              	 .loc 1 1474 0
 6822 0178 7B6C     	 ldr r3,[r7,#68]
 6823 017a 013B     	 subs r3,r3,#1
 6824 017c 3B65     	 str r3,[r7,#80]
1475:C:/Users/Yushev/git/wpcqi-optiga-trust-charge/optiga/externals/mbedtls/library\bignum.c ****     t = Y.n - 1;
 6825              	 .loc 1 1475 0
 6826 017e BB6B     	 ldr r3,[r7,#56]
 6827 0180 013B     	 subs r3,r3,#1
 6828 0182 FB64     	 str r3,[r7,#76]
1476:C:/Users/Yushev/git/wpcqi-optiga-trust-charge/optiga/externals/mbedtls/library\bignum.c ****     MBEDTLS_MPI_CHK( mbedtls_mpi_shift_l( &Y, biL * ( n - t ) ) );
 6829              	 .loc 1 1476 0
 6830 0184 3A6D     	 ldr r2,[r7,#80]
 6831 0186 FB6C     	 ldr r3,[r7,#76]
 6832 0188 D31A     	 subs r3,r2,r3
 6833 018a 5B01     	 lsls r3,r3,#5
 6834 018c 07F13402 	 add r2,r7,#52
 6835 0190 1046     	 mov r0,r2
 6836 0192 1946     	 mov r1,r3
 6837 0194 FFF7FEFF 	 bl mbedtls_mpi_shift_l
 6838 0198 F865     	 str r0,[r7,#92]
 6839 019a FB6D     	 ldr r3,[r7,#92]
 6840 019c 002B     	 cmp r3,#0
 6841 019e 00D0     	 beq .L342
 6842 01a0 C2E1     	 b .L331
 6843              	.L342:
1477:C:/Users/Yushev/git/wpcqi-optiga-trust-charge/optiga/externals/mbedtls/library\bignum.c **** 
1478:C:/Users/Yushev/git/wpcqi-optiga-trust-charge/optiga/externals/mbedtls/library\bignum.c ****     while( mbedtls_mpi_cmp_mpi( &X, &Y ) >= 0 )
 6844              	 .loc 1 1478 0
 6845 01a2 18E0     	 b .L343
 6846              	.L344:
1479:C:/Users/Yushev/git/wpcqi-optiga-trust-charge/optiga/externals/mbedtls/library\bignum.c ****     {
1480:C:/Users/Yushev/git/wpcqi-optiga-trust-charge/optiga/externals/mbedtls/library\bignum.c ****         Z.p[n - t]++;
 6847              	 .loc 1 1480 0
 6848 01a4 3A6B     	 ldr r2,[r7,#48]
 6849 01a6 396D     	 ldr r1,[r7,#80]
 6850 01a8 FB6C     	 ldr r3,[r7,#76]
 6851 01aa CB1A     	 subs r3,r1,r3
 6852 01ac 9B00     	 lsls r3,r3,#2
 6853 01ae 1344     	 add r3,r3,r2
 6854 01b0 1A68     	 ldr r2,[r3]
 6855 01b2 0132     	 adds r2,r2,#1
 6856 01b4 1A60     	 str r2,[r3]
1481:C:/Users/Yushev/git/wpcqi-optiga-trust-charge/optiga/externals/mbedtls/library\bignum.c ****         MBEDTLS_MPI_CHK( mbedtls_mpi_sub_mpi( &X, &X, &Y ) );
 6857              	 .loc 1 1481 0
 6858 01b6 07F14001 	 add r1,r7,#64
 6859 01ba 07F14002 	 add r2,r7,#64
 6860 01be 07F13403 	 add r3,r7,#52
 6861 01c2 0846     	 mov r0,r1
 6862 01c4 1146     	 mov r1,r2
 6863 01c6 1A46     	 mov r2,r3
 6864 01c8 FFF7FEFF 	 bl mbedtls_mpi_sub_mpi
 6865 01cc F865     	 str r0,[r7,#92]
 6866 01ce FB6D     	 ldr r3,[r7,#92]
 6867 01d0 002B     	 cmp r3,#0
 6868 01d2 00D0     	 beq .L343
 6869 01d4 A8E1     	 b .L331
 6870              	.L343:
1478:C:/Users/Yushev/git/wpcqi-optiga-trust-charge/optiga/externals/mbedtls/library\bignum.c ****     {
 6871              	 .loc 1 1478 0
 6872 01d6 07F14002 	 add r2,r7,#64
 6873 01da 07F13403 	 add r3,r7,#52
 6874 01de 1046     	 mov r0,r2
 6875 01e0 1946     	 mov r1,r3
 6876 01e2 FFF7FEFF 	 bl mbedtls_mpi_cmp_mpi
 6877 01e6 0346     	 mov r3,r0
 6878 01e8 002B     	 cmp r3,#0
 6879 01ea DBDA     	 bge .L344
1482:C:/Users/Yushev/git/wpcqi-optiga-trust-charge/optiga/externals/mbedtls/library\bignum.c ****     }
1483:C:/Users/Yushev/git/wpcqi-optiga-trust-charge/optiga/externals/mbedtls/library\bignum.c ****     MBEDTLS_MPI_CHK( mbedtls_mpi_shift_r( &Y, biL * ( n - t ) ) );
 6880              	 .loc 1 1483 0
 6881 01ec 3A6D     	 ldr r2,[r7,#80]
 6882 01ee FB6C     	 ldr r3,[r7,#76]
 6883 01f0 D31A     	 subs r3,r2,r3
 6884 01f2 5B01     	 lsls r3,r3,#5
 6885 01f4 07F13402 	 add r2,r7,#52
 6886 01f8 1046     	 mov r0,r2
 6887 01fa 1946     	 mov r1,r3
 6888 01fc FFF7FEFF 	 bl mbedtls_mpi_shift_r
 6889 0200 F865     	 str r0,[r7,#92]
 6890 0202 FB6D     	 ldr r3,[r7,#92]
 6891 0204 002B     	 cmp r3,#0
 6892 0206 00D0     	 beq .L345
 6893 0208 8EE1     	 b .L331
 6894              	.L345:
1484:C:/Users/Yushev/git/wpcqi-optiga-trust-charge/optiga/externals/mbedtls/library\bignum.c **** 
1485:C:/Users/Yushev/git/wpcqi-optiga-trust-charge/optiga/externals/mbedtls/library\bignum.c ****     for( i = n; i > t ; i-- )
 6895              	 .loc 1 1485 0
 6896 020a 3B6D     	 ldr r3,[r7,#80]
 6897 020c BB65     	 str r3,[r7,#88]
 6898 020e 4AE1     	 b .L346
 6899              	.L366:
1486:C:/Users/Yushev/git/wpcqi-optiga-trust-charge/optiga/externals/mbedtls/library\bignum.c ****     {
1487:C:/Users/Yushev/git/wpcqi-optiga-trust-charge/optiga/externals/mbedtls/library\bignum.c ****         if( X.p[i] >= Y.p[t] )
 6900              	 .loc 1 1487 0
 6901 0210 BA6C     	 ldr r2,[r7,#72]
 6902 0212 BB6D     	 ldr r3,[r7,#88]
 6903 0214 9B00     	 lsls r3,r3,#2
 6904 0216 1344     	 add r3,r3,r2
 6905 0218 1A68     	 ldr r2,[r3]
 6906 021a F96B     	 ldr r1,[r7,#60]
 6907 021c FB6C     	 ldr r3,[r7,#76]
 6908 021e 9B00     	 lsls r3,r3,#2
 6909 0220 0B44     	 add r3,r3,r1
 6910 0222 1B68     	 ldr r3,[r3]
 6911 0224 9A42     	 cmp r2,r3
 6912 0226 0CD3     	 bcc .L347
1488:C:/Users/Yushev/git/wpcqi-optiga-trust-charge/optiga/externals/mbedtls/library\bignum.c ****             Z.p[i - t - 1] = ~0;
 6913              	 .loc 1 1488 0
 6914 0228 3A6B     	 ldr r2,[r7,#48]
 6915 022a B96D     	 ldr r1,[r7,#88]
 6916 022c FB6C     	 ldr r3,[r7,#76]
 6917 022e CB1A     	 subs r3,r1,r3
 6918 0230 03F18043 	 add r3,r3,#1073741824
 6919 0234 013B     	 subs r3,r3,#1
 6920 0236 9B00     	 lsls r3,r3,#2
 6921 0238 1344     	 add r3,r3,r2
 6922 023a 4FF0FF32 	 mov r2,#-1
 6923 023e 1A60     	 str r2,[r3]
 6924 0240 20E0     	 b .L348
 6925              	.L347:
1489:C:/Users/Yushev/git/wpcqi-optiga-trust-charge/optiga/externals/mbedtls/library\bignum.c ****         else
1490:C:/Users/Yushev/git/wpcqi-optiga-trust-charge/optiga/externals/mbedtls/library\bignum.c ****         {
1491:C:/Users/Yushev/git/wpcqi-optiga-trust-charge/optiga/externals/mbedtls/library\bignum.c ****             Z.p[i - t - 1] = mbedtls_int_div_int( X.p[i], X.p[i - 1],
 6926              	 .loc 1 1491 0
 6927 0242 3A6B     	 ldr r2,[r7,#48]
 6928 0244 B96D     	 ldr r1,[r7,#88]
 6929 0246 FB6C     	 ldr r3,[r7,#76]
 6930 0248 CB1A     	 subs r3,r1,r3
 6931 024a 03F18043 	 add r3,r3,#1073741824
 6932 024e 013B     	 subs r3,r3,#1
 6933 0250 9B00     	 lsls r3,r3,#2
 6934 0252 D418     	 adds r4,r2,r3
 6935 0254 BA6C     	 ldr r2,[r7,#72]
 6936 0256 BB6D     	 ldr r3,[r7,#88]
 6937 0258 9B00     	 lsls r3,r3,#2
 6938 025a 1344     	 add r3,r3,r2
 6939 025c 1868     	 ldr r0,[r3]
 6940 025e BA6C     	 ldr r2,[r7,#72]
 6941 0260 BB6D     	 ldr r3,[r7,#88]
 6942 0262 03F18043 	 add r3,r3,#1073741824
 6943 0266 013B     	 subs r3,r3,#1
 6944 0268 9B00     	 lsls r3,r3,#2
 6945 026a 1344     	 add r3,r3,r2
 6946 026c 1968     	 ldr r1,[r3]
1492:C:/Users/Yushev/git/wpcqi-optiga-trust-charge/optiga/externals/mbedtls/library\bignum.c ****                                                             Y.p[t], NULL);
 6947              	 .loc 1 1492 0
 6948 026e FA6B     	 ldr r2,[r7,#60]
 6949 0270 FB6C     	 ldr r3,[r7,#76]
 6950 0272 9B00     	 lsls r3,r3,#2
 6951 0274 1344     	 add r3,r3,r2
1491:C:/Users/Yushev/git/wpcqi-optiga-trust-charge/optiga/externals/mbedtls/library\bignum.c ****                                                             Y.p[t], NULL);
 6952              	 .loc 1 1491 0
 6953 0276 1B68     	 ldr r3,[r3]
 6954 0278 1A46     	 mov r2,r3
 6955 027a 0023     	 movs r3,#0
 6956 027c FFF7FEFF 	 bl mbedtls_int_div_int
 6957 0280 0346     	 mov r3,r0
 6958 0282 2360     	 str r3,[r4]
 6959              	.L348:
1493:C:/Users/Yushev/git/wpcqi-optiga-trust-charge/optiga/externals/mbedtls/library\bignum.c ****         }
1494:C:/Users/Yushev/git/wpcqi-optiga-trust-charge/optiga/externals/mbedtls/library\bignum.c **** 
1495:C:/Users/Yushev/git/wpcqi-optiga-trust-charge/optiga/externals/mbedtls/library\bignum.c ****         Z.p[i - t - 1]++;
 6960              	 .loc 1 1495 0
 6961 0284 3A6B     	 ldr r2,[r7,#48]
 6962 0286 B96D     	 ldr r1,[r7,#88]
 6963 0288 FB6C     	 ldr r3,[r7,#76]
 6964 028a CB1A     	 subs r3,r1,r3
 6965 028c 03F18043 	 add r3,r3,#1073741824
 6966 0290 013B     	 subs r3,r3,#1
 6967 0292 9B00     	 lsls r3,r3,#2
 6968 0294 1344     	 add r3,r3,r2
 6969 0296 1A68     	 ldr r2,[r3]
 6970 0298 0132     	 adds r2,r2,#1
 6971 029a 1A60     	 str r2,[r3]
 6972              	.L358:
1496:C:/Users/Yushev/git/wpcqi-optiga-trust-charge/optiga/externals/mbedtls/library\bignum.c ****         do
1497:C:/Users/Yushev/git/wpcqi-optiga-trust-charge/optiga/externals/mbedtls/library\bignum.c ****         {
1498:C:/Users/Yushev/git/wpcqi-optiga-trust-charge/optiga/externals/mbedtls/library\bignum.c ****             Z.p[i - t - 1]--;
 6973              	 .loc 1 1498 0
 6974 029c 3A6B     	 ldr r2,[r7,#48]
 6975 029e B96D     	 ldr r1,[r7,#88]
 6976 02a0 FB6C     	 ldr r3,[r7,#76]
 6977 02a2 CB1A     	 subs r3,r1,r3
 6978 02a4 03F18043 	 add r3,r3,#1073741824
 6979 02a8 013B     	 subs r3,r3,#1
 6980 02aa 9B00     	 lsls r3,r3,#2
 6981 02ac 1344     	 add r3,r3,r2
 6982 02ae 1A68     	 ldr r2,[r3]
 6983 02b0 013A     	 subs r2,r2,#1
 6984 02b2 1A60     	 str r2,[r3]
1499:C:/Users/Yushev/git/wpcqi-optiga-trust-charge/optiga/externals/mbedtls/library\bignum.c **** 
1500:C:/Users/Yushev/git/wpcqi-optiga-trust-charge/optiga/externals/mbedtls/library\bignum.c ****             MBEDTLS_MPI_CHK( mbedtls_mpi_lset( &T1, 0 ) );
 6985              	 .loc 1 1500 0
 6986 02b4 07F11C03 	 add r3,r7,#28
 6987 02b8 1846     	 mov r0,r3
 6988 02ba 0021     	 movs r1,#0
 6989 02bc FFF7FEFF 	 bl mbedtls_mpi_lset
 6990 02c0 F865     	 str r0,[r7,#92]
 6991 02c2 FB6D     	 ldr r3,[r7,#92]
 6992 02c4 002B     	 cmp r3,#0
 6993 02c6 00D0     	 beq .L349
 6994 02c8 2EE1     	 b .L331
 6995              	.L349:
1501:C:/Users/Yushev/git/wpcqi-optiga-trust-charge/optiga/externals/mbedtls/library\bignum.c ****             T1.p[0] = ( t < 1 ) ? 0 : Y.p[t - 1];
 6996              	 .loc 1 1501 0
 6997 02ca 7A6A     	 ldr r2,[r7,#36]
 6998 02cc FB6C     	 ldr r3,[r7,#76]
 6999 02ce 002B     	 cmp r3,#0
 7000 02d0 08D0     	 beq .L350
 7001              	 .loc 1 1501 0 is_stmt 0 discriminator 1
 7002 02d2 F96B     	 ldr r1,[r7,#60]
 7003 02d4 FB6C     	 ldr r3,[r7,#76]
 7004 02d6 03F18043 	 add r3,r3,#1073741824
 7005 02da 013B     	 subs r3,r3,#1
 7006 02dc 9B00     	 lsls r3,r3,#2
 7007 02de 0B44     	 add r3,r3,r1
 7008 02e0 1B68     	 ldr r3,[r3]
 7009 02e2 00E0     	 b .L351
 7010              	.L350:
 7011              	 .loc 1 1501 0 discriminator 2
 7012 02e4 0023     	 movs r3,#0
 7013              	.L351:
 7014              	 .loc 1 1501 0 discriminator 4
 7015 02e6 1360     	 str r3,[r2]
1502:C:/Users/Yushev/git/wpcqi-optiga-trust-charge/optiga/externals/mbedtls/library\bignum.c ****             T1.p[1] = Y.p[t];
 7016              	 .loc 1 1502 0 is_stmt 1 discriminator 4
 7017 02e8 7B6A     	 ldr r3,[r7,#36]
 7018 02ea 0433     	 adds r3,r3,#4
 7019 02ec F96B     	 ldr r1,[r7,#60]
 7020 02ee FA6C     	 ldr r2,[r7,#76]
 7021 02f0 9200     	 lsls r2,r2,#2
 7022 02f2 0A44     	 add r2,r2,r1
 7023 02f4 1268     	 ldr r2,[r2]
 7024 02f6 1A60     	 str r2,[r3]
1503:C:/Users/Yushev/git/wpcqi-optiga-trust-charge/optiga/externals/mbedtls/library\bignum.c ****             MBEDTLS_MPI_CHK( mbedtls_mpi_mul_int( &T1, &T1, Z.p[i - t - 1] ) );
 7025              	 .loc 1 1503 0 discriminator 4
 7026 02f8 3A6B     	 ldr r2,[r7,#48]
 7027 02fa B96D     	 ldr r1,[r7,#88]
 7028 02fc FB6C     	 ldr r3,[r7,#76]
 7029 02fe CB1A     	 subs r3,r1,r3
 7030 0300 03F18043 	 add r3,r3,#1073741824
 7031 0304 013B     	 subs r3,r3,#1
 7032 0306 9B00     	 lsls r3,r3,#2
 7033 0308 1344     	 add r3,r3,r2
 7034 030a 1B68     	 ldr r3,[r3]
 7035 030c 07F11C01 	 add r1,r7,#28
 7036 0310 07F11C02 	 add r2,r7,#28
 7037 0314 0846     	 mov r0,r1
 7038 0316 1146     	 mov r1,r2
 7039 0318 1A46     	 mov r2,r3
 7040 031a FFF7FEFF 	 bl mbedtls_mpi_mul_int
 7041 031e F865     	 str r0,[r7,#92]
 7042 0320 FB6D     	 ldr r3,[r7,#92]
 7043 0322 002B     	 cmp r3,#0
 7044 0324 00D0     	 beq .L352
 7045              	 .loc 1 1503 0 is_stmt 0
 7046 0326 FFE0     	 b .L331
 7047              	.L352:
1504:C:/Users/Yushev/git/wpcqi-optiga-trust-charge/optiga/externals/mbedtls/library\bignum.c **** 
1505:C:/Users/Yushev/git/wpcqi-optiga-trust-charge/optiga/externals/mbedtls/library\bignum.c ****             MBEDTLS_MPI_CHK( mbedtls_mpi_lset( &T2, 0 ) );
 7048              	 .loc 1 1505 0 is_stmt 1
 7049 0328 07F11003 	 add r3,r7,#16
 7050 032c 1846     	 mov r0,r3
 7051 032e 0021     	 movs r1,#0
 7052 0330 FFF7FEFF 	 bl mbedtls_mpi_lset
 7053 0334 F865     	 str r0,[r7,#92]
 7054 0336 FB6D     	 ldr r3,[r7,#92]
 7055 0338 002B     	 cmp r3,#0
 7056 033a 00D0     	 beq .L353
 7057 033c F4E0     	 b .L331
 7058              	.L353:
1506:C:/Users/Yushev/git/wpcqi-optiga-trust-charge/optiga/externals/mbedtls/library\bignum.c ****             T2.p[0] = ( i < 2 ) ? 0 : X.p[i - 2];
 7059              	 .loc 1 1506 0
 7060 033e BA69     	 ldr r2,[r7,#24]
 7061 0340 BB6D     	 ldr r3,[r7,#88]
 7062 0342 012B     	 cmp r3,#1
 7063 0344 08D9     	 bls .L354
 7064              	 .loc 1 1506 0 is_stmt 0 discriminator 1
 7065 0346 B96C     	 ldr r1,[r7,#72]
 7066 0348 BB6D     	 ldr r3,[r7,#88]
 7067 034a 03F18043 	 add r3,r3,#1073741824
 7068 034e 023B     	 subs r3,r3,#2
 7069 0350 9B00     	 lsls r3,r3,#2
 7070 0352 0B44     	 add r3,r3,r1
 7071 0354 1B68     	 ldr r3,[r3]
 7072 0356 00E0     	 b .L355
 7073              	.L354:
 7074              	 .loc 1 1506 0 discriminator 2
 7075 0358 0023     	 movs r3,#0
 7076              	.L355:
 7077              	 .loc 1 1506 0 discriminator 4
 7078 035a 1360     	 str r3,[r2]
1507:C:/Users/Yushev/git/wpcqi-optiga-trust-charge/optiga/externals/mbedtls/library\bignum.c ****             T2.p[1] = ( i < 1 ) ? 0 : X.p[i - 1];
 7079              	 .loc 1 1507 0 is_stmt 1 discriminator 4
 7080 035c BB69     	 ldr r3,[r7,#24]
 7081 035e 1A1D     	 adds r2,r3,#4
 7082 0360 BB6D     	 ldr r3,[r7,#88]
 7083 0362 002B     	 cmp r3,#0
 7084 0364 08D0     	 beq .L356
 7085              	 .loc 1 1507 0 is_stmt 0 discriminator 1
 7086 0366 B96C     	 ldr r1,[r7,#72]
 7087 0368 BB6D     	 ldr r3,[r7,#88]
 7088 036a 03F18043 	 add r3,r3,#1073741824
 7089 036e 013B     	 subs r3,r3,#1
 7090 0370 9B00     	 lsls r3,r3,#2
 7091 0372 0B44     	 add r3,r3,r1
 7092 0374 1B68     	 ldr r3,[r3]
 7093 0376 00E0     	 b .L357
 7094              	.L356:
 7095              	 .loc 1 1507 0 discriminator 2
 7096 0378 0023     	 movs r3,#0
 7097              	.L357:
 7098              	 .loc 1 1507 0 discriminator 4
 7099 037a 1360     	 str r3,[r2]
1508:C:/Users/Yushev/git/wpcqi-optiga-trust-charge/optiga/externals/mbedtls/library\bignum.c ****             T2.p[2] = X.p[i];
 7100              	 .loc 1 1508 0 is_stmt 1 discriminator 4
 7101 037c BB69     	 ldr r3,[r7,#24]
 7102 037e 0833     	 adds r3,r3,#8
 7103 0380 B96C     	 ldr r1,[r7,#72]
 7104 0382 BA6D     	 ldr r2,[r7,#88]
 7105 0384 9200     	 lsls r2,r2,#2
 7106 0386 0A44     	 add r2,r2,r1
 7107 0388 1268     	 ldr r2,[r2]
 7108 038a 1A60     	 str r2,[r3]
1509:C:/Users/Yushev/git/wpcqi-optiga-trust-charge/optiga/externals/mbedtls/library\bignum.c ****         }
1510:C:/Users/Yushev/git/wpcqi-optiga-trust-charge/optiga/externals/mbedtls/library\bignum.c ****         while( mbedtls_mpi_cmp_mpi( &T1, &T2 ) > 0 );
 7109              	 .loc 1 1510 0 discriminator 4
 7110 038c 07F11C02 	 add r2,r7,#28
 7111 0390 07F11003 	 add r3,r7,#16
 7112 0394 1046     	 mov r0,r2
 7113 0396 1946     	 mov r1,r3
 7114 0398 FFF7FEFF 	 bl mbedtls_mpi_cmp_mpi
 7115 039c 0346     	 mov r3,r0
 7116 039e 002B     	 cmp r3,#0
 7117 03a0 3FF77CAF 	 bgt .L358
1511:C:/Users/Yushev/git/wpcqi-optiga-trust-charge/optiga/externals/mbedtls/library\bignum.c **** 
1512:C:/Users/Yushev/git/wpcqi-optiga-trust-charge/optiga/externals/mbedtls/library\bignum.c ****         MBEDTLS_MPI_CHK( mbedtls_mpi_mul_int( &T1, &Y, Z.p[i - t - 1] ) );
 7118              	 .loc 1 1512 0
 7119 03a4 3A6B     	 ldr r2,[r7,#48]
 7120 03a6 B96D     	 ldr r1,[r7,#88]
 7121 03a8 FB6C     	 ldr r3,[r7,#76]
 7122 03aa CB1A     	 subs r3,r1,r3
 7123 03ac 03F18043 	 add r3,r3,#1073741824
 7124 03b0 013B     	 subs r3,r3,#1
 7125 03b2 9B00     	 lsls r3,r3,#2
 7126 03b4 1344     	 add r3,r3,r2
 7127 03b6 1B68     	 ldr r3,[r3]
 7128 03b8 07F11C01 	 add r1,r7,#28
 7129 03bc 07F13402 	 add r2,r7,#52
 7130 03c0 0846     	 mov r0,r1
 7131 03c2 1146     	 mov r1,r2
 7132 03c4 1A46     	 mov r2,r3
 7133 03c6 FFF7FEFF 	 bl mbedtls_mpi_mul_int
 7134 03ca F865     	 str r0,[r7,#92]
 7135 03cc FB6D     	 ldr r3,[r7,#92]
 7136 03ce 002B     	 cmp r3,#0
 7137 03d0 00D0     	 beq .L359
 7138 03d2 A9E0     	 b .L331
 7139              	.L359:
1513:C:/Users/Yushev/git/wpcqi-optiga-trust-charge/optiga/externals/mbedtls/library\bignum.c ****         MBEDTLS_MPI_CHK( mbedtls_mpi_shift_l( &T1,  biL * ( i - t - 1 ) ) );
 7140              	 .loc 1 1513 0
 7141 03d4 BA6D     	 ldr r2,[r7,#88]
 7142 03d6 FB6C     	 ldr r3,[r7,#76]
 7143 03d8 D31A     	 subs r3,r2,r3
 7144 03da 03F10063 	 add r3,r3,#134217728
 7145 03de 013B     	 subs r3,r3,#1
 7146 03e0 5B01     	 lsls r3,r3,#5
 7147 03e2 07F11C02 	 add r2,r7,#28
 7148 03e6 1046     	 mov r0,r2
 7149 03e8 1946     	 mov r1,r3
 7150 03ea FFF7FEFF 	 bl mbedtls_mpi_shift_l
 7151 03ee F865     	 str r0,[r7,#92]
 7152 03f0 FB6D     	 ldr r3,[r7,#92]
 7153 03f2 002B     	 cmp r3,#0
 7154 03f4 00D0     	 beq .L360
 7155 03f6 97E0     	 b .L331
 7156              	.L360:
1514:C:/Users/Yushev/git/wpcqi-optiga-trust-charge/optiga/externals/mbedtls/library\bignum.c ****         MBEDTLS_MPI_CHK( mbedtls_mpi_sub_mpi( &X, &X, &T1 ) );
 7157              	 .loc 1 1514 0
 7158 03f8 07F14001 	 add r1,r7,#64
 7159 03fc 07F14002 	 add r2,r7,#64
 7160 0400 07F11C03 	 add r3,r7,#28
 7161 0404 0846     	 mov r0,r1
 7162 0406 1146     	 mov r1,r2
 7163 0408 1A46     	 mov r2,r3
 7164 040a FFF7FEFF 	 bl mbedtls_mpi_sub_mpi
 7165 040e F865     	 str r0,[r7,#92]
 7166 0410 FB6D     	 ldr r3,[r7,#92]
 7167 0412 002B     	 cmp r3,#0
 7168 0414 00D0     	 beq .L361
 7169 0416 87E0     	 b .L331
 7170              	.L361:
1515:C:/Users/Yushev/git/wpcqi-optiga-trust-charge/optiga/externals/mbedtls/library\bignum.c **** 
1516:C:/Users/Yushev/git/wpcqi-optiga-trust-charge/optiga/externals/mbedtls/library\bignum.c ****         if( mbedtls_mpi_cmp_int( &X, 0 ) < 0 )
 7171              	 .loc 1 1516 0
 7172 0418 07F14003 	 add r3,r7,#64
 7173 041c 1846     	 mov r0,r3
 7174 041e 0021     	 movs r1,#0
 7175 0420 FFF7FEFF 	 bl mbedtls_mpi_cmp_int
 7176 0424 0346     	 mov r3,r0
 7177 0426 002B     	 cmp r3,#0
 7178 0428 3ADA     	 bge .L362
1517:C:/Users/Yushev/git/wpcqi-optiga-trust-charge/optiga/externals/mbedtls/library\bignum.c ****         {
1518:C:/Users/Yushev/git/wpcqi-optiga-trust-charge/optiga/externals/mbedtls/library\bignum.c ****             MBEDTLS_MPI_CHK( mbedtls_mpi_copy( &T1, &Y ) );
 7179              	 .loc 1 1518 0
 7180 042a 07F11C02 	 add r2,r7,#28
 7181 042e 07F13403 	 add r3,r7,#52
 7182 0432 1046     	 mov r0,r2
 7183 0434 1946     	 mov r1,r3
 7184 0436 FFF7FEFF 	 bl mbedtls_mpi_copy
 7185 043a F865     	 str r0,[r7,#92]
 7186 043c FB6D     	 ldr r3,[r7,#92]
 7187 043e 002B     	 cmp r3,#0
 7188 0440 00D0     	 beq .L363
 7189 0442 71E0     	 b .L331
 7190              	.L363:
1519:C:/Users/Yushev/git/wpcqi-optiga-trust-charge/optiga/externals/mbedtls/library\bignum.c ****             MBEDTLS_MPI_CHK( mbedtls_mpi_shift_l( &T1, biL * ( i - t - 1 ) ) );
 7191              	 .loc 1 1519 0
 7192 0444 BA6D     	 ldr r2,[r7,#88]
 7193 0446 FB6C     	 ldr r3,[r7,#76]
 7194 0448 D31A     	 subs r3,r2,r3
 7195 044a 03F10063 	 add r3,r3,#134217728
 7196 044e 013B     	 subs r3,r3,#1
 7197 0450 5B01     	 lsls r3,r3,#5
 7198 0452 07F11C02 	 add r2,r7,#28
 7199 0456 1046     	 mov r0,r2
 7200 0458 1946     	 mov r1,r3
 7201 045a FFF7FEFF 	 bl mbedtls_mpi_shift_l
 7202 045e F865     	 str r0,[r7,#92]
 7203 0460 FB6D     	 ldr r3,[r7,#92]
 7204 0462 002B     	 cmp r3,#0
 7205 0464 00D0     	 beq .L364
 7206 0466 5FE0     	 b .L331
 7207              	.L364:
1520:C:/Users/Yushev/git/wpcqi-optiga-trust-charge/optiga/externals/mbedtls/library\bignum.c ****             MBEDTLS_MPI_CHK( mbedtls_mpi_add_mpi( &X, &X, &T1 ) );
 7208              	 .loc 1 1520 0
 7209 0468 07F14001 	 add r1,r7,#64
 7210 046c 07F14002 	 add r2,r7,#64
 7211 0470 07F11C03 	 add r3,r7,#28
 7212 0474 0846     	 mov r0,r1
 7213 0476 1146     	 mov r1,r2
 7214 0478 1A46     	 mov r2,r3
 7215 047a FFF7FEFF 	 bl mbedtls_mpi_add_mpi
 7216 047e F865     	 str r0,[r7,#92]
 7217 0480 FB6D     	 ldr r3,[r7,#92]
 7218 0482 002B     	 cmp r3,#0
 7219 0484 00D0     	 beq .L365
 7220 0486 4FE0     	 b .L331
 7221              	.L365:
1521:C:/Users/Yushev/git/wpcqi-optiga-trust-charge/optiga/externals/mbedtls/library\bignum.c ****             Z.p[i - t - 1]--;
 7222              	 .loc 1 1521 0
 7223 0488 3A6B     	 ldr r2,[r7,#48]
 7224 048a B96D     	 ldr r1,[r7,#88]
 7225 048c FB6C     	 ldr r3,[r7,#76]
 7226 048e CB1A     	 subs r3,r1,r3
 7227 0490 03F18043 	 add r3,r3,#1073741824
 7228 0494 013B     	 subs r3,r3,#1
 7229 0496 9B00     	 lsls r3,r3,#2
 7230 0498 1344     	 add r3,r3,r2
 7231 049a 1A68     	 ldr r2,[r3]
 7232 049c 013A     	 subs r2,r2,#1
 7233 049e 1A60     	 str r2,[r3]
 7234              	.L362:
1485:C:/Users/Yushev/git/wpcqi-optiga-trust-charge/optiga/externals/mbedtls/library\bignum.c ****     {
 7235              	 .loc 1 1485 0 discriminator 2
 7236 04a0 BB6D     	 ldr r3,[r7,#88]
 7237 04a2 013B     	 subs r3,r3,#1
 7238 04a4 BB65     	 str r3,[r7,#88]
 7239              	.L346:
1485:C:/Users/Yushev/git/wpcqi-optiga-trust-charge/optiga/externals/mbedtls/library\bignum.c ****     {
 7240              	 .loc 1 1485 0 is_stmt 0 discriminator 1
 7241 04a6 BA6D     	 ldr r2,[r7,#88]
 7242 04a8 FB6C     	 ldr r3,[r7,#76]
 7243 04aa 9A42     	 cmp r2,r3
 7244 04ac 3FF6B0AE 	 bhi .L366
1522:C:/Users/Yushev/git/wpcqi-optiga-trust-charge/optiga/externals/mbedtls/library\bignum.c ****         }
1523:C:/Users/Yushev/git/wpcqi-optiga-trust-charge/optiga/externals/mbedtls/library\bignum.c ****     }
1524:C:/Users/Yushev/git/wpcqi-optiga-trust-charge/optiga/externals/mbedtls/library\bignum.c **** 
1525:C:/Users/Yushev/git/wpcqi-optiga-trust-charge/optiga/externals/mbedtls/library\bignum.c ****     if( Q != NULL )
 7245              	 .loc 1 1525 0 is_stmt 1
 7246 04b0 FB68     	 ldr r3,[r7,#12]
 7247 04b2 002B     	 cmp r3,#0
 7248 04b4 12D0     	 beq .L367
1526:C:/Users/Yushev/git/wpcqi-optiga-trust-charge/optiga/externals/mbedtls/library\bignum.c ****     {
1527:C:/Users/Yushev/git/wpcqi-optiga-trust-charge/optiga/externals/mbedtls/library\bignum.c ****         MBEDTLS_MPI_CHK( mbedtls_mpi_copy( Q, &Z ) );
 7249              	 .loc 1 1527 0
 7250 04b6 07F12803 	 add r3,r7,#40
 7251 04ba F868     	 ldr r0,[r7,#12]
 7252 04bc 1946     	 mov r1,r3
 7253 04be FFF7FEFF 	 bl mbedtls_mpi_copy
 7254 04c2 F865     	 str r0,[r7,#92]
 7255 04c4 FB6D     	 ldr r3,[r7,#92]
 7256 04c6 002B     	 cmp r3,#0
 7257 04c8 00D0     	 beq .L368
 7258 04ca 2DE0     	 b .L331
 7259              	.L368:
1528:C:/Users/Yushev/git/wpcqi-optiga-trust-charge/optiga/externals/mbedtls/library\bignum.c ****         Q->s = A->s * B->s;
 7260              	 .loc 1 1528 0
 7261 04cc 7B68     	 ldr r3,[r7,#4]
 7262 04ce 1B68     	 ldr r3,[r3]
 7263 04d0 3A68     	 ldr r2,[r7]
 7264 04d2 1268     	 ldr r2,[r2]
 7265 04d4 02FB03F2 	 mul r2,r2,r3
 7266 04d8 FB68     	 ldr r3,[r7,#12]
 7267 04da 1A60     	 str r2,[r3]
 7268              	.L367:
1529:C:/Users/Yushev/git/wpcqi-optiga-trust-charge/optiga/externals/mbedtls/library\bignum.c ****     }
1530:C:/Users/Yushev/git/wpcqi-optiga-trust-charge/optiga/externals/mbedtls/library\bignum.c **** 
1531:C:/Users/Yushev/git/wpcqi-optiga-trust-charge/optiga/externals/mbedtls/library\bignum.c ****     if( R != NULL )
 7269              	 .loc 1 1531 0
 7270 04dc BB68     	 ldr r3,[r7,#8]
 7271 04de 002B     	 cmp r3,#0
 7272 04e0 22D0     	 beq .L331
1532:C:/Users/Yushev/git/wpcqi-optiga-trust-charge/optiga/externals/mbedtls/library\bignum.c ****     {
1533:C:/Users/Yushev/git/wpcqi-optiga-trust-charge/optiga/externals/mbedtls/library\bignum.c ****         MBEDTLS_MPI_CHK( mbedtls_mpi_shift_r( &X, k ) );
 7273              	 .loc 1 1533 0
 7274 04e2 07F14003 	 add r3,r7,#64
 7275 04e6 1846     	 mov r0,r3
 7276 04e8 796D     	 ldr r1,[r7,#84]
 7277 04ea FFF7FEFF 	 bl mbedtls_mpi_shift_r
 7278 04ee F865     	 str r0,[r7,#92]
 7279 04f0 FB6D     	 ldr r3,[r7,#92]
 7280 04f2 002B     	 cmp r3,#0
 7281 04f4 00D0     	 beq .L369
 7282 04f6 17E0     	 b .L331
 7283              	.L369:
1534:C:/Users/Yushev/git/wpcqi-optiga-trust-charge/optiga/externals/mbedtls/library\bignum.c ****         X.s = A->s;
 7284              	 .loc 1 1534 0
 7285 04f8 7B68     	 ldr r3,[r7,#4]
 7286 04fa 1B68     	 ldr r3,[r3]
 7287 04fc 3B64     	 str r3,[r7,#64]
1535:C:/Users/Yushev/git/wpcqi-optiga-trust-charge/optiga/externals/mbedtls/library\bignum.c ****         MBEDTLS_MPI_CHK( mbedtls_mpi_copy( R, &X ) );
 7288              	 .loc 1 1535 0
 7289 04fe 07F14003 	 add r3,r7,#64
 7290 0502 B868     	 ldr r0,[r7,#8]
 7291 0504 1946     	 mov r1,r3
 7292 0506 FFF7FEFF 	 bl mbedtls_mpi_copy
 7293 050a F865     	 str r0,[r7,#92]
 7294 050c FB6D     	 ldr r3,[r7,#92]
 7295 050e 002B     	 cmp r3,#0
 7296 0510 00D0     	 beq .L370
 7297 0512 09E0     	 b .L331
 7298              	.L370:
1536:C:/Users/Yushev/git/wpcqi-optiga-trust-charge/optiga/externals/mbedtls/library\bignum.c **** 
1537:C:/Users/Yushev/git/wpcqi-optiga-trust-charge/optiga/externals/mbedtls/library\bignum.c ****         if( mbedtls_mpi_cmp_int( R, 0 ) == 0 )
 7299              	 .loc 1 1537 0
 7300 0514 B868     	 ldr r0,[r7,#8]
 7301 0516 0021     	 movs r1,#0
 7302 0518 FFF7FEFF 	 bl mbedtls_mpi_cmp_int
 7303 051c 0346     	 mov r3,r0
 7304 051e 002B     	 cmp r3,#0
 7305 0520 02D1     	 bne .L331
1538:C:/Users/Yushev/git/wpcqi-optiga-trust-charge/optiga/externals/mbedtls/library\bignum.c ****             R->s = 1;
 7306              	 .loc 1 1538 0
 7307 0522 BB68     	 ldr r3,[r7,#8]
 7308 0524 0122     	 movs r2,#1
 7309 0526 1A60     	 str r2,[r3]
 7310              	.L331:
1539:C:/Users/Yushev/git/wpcqi-optiga-trust-charge/optiga/externals/mbedtls/library\bignum.c ****     }
1540:C:/Users/Yushev/git/wpcqi-optiga-trust-charge/optiga/externals/mbedtls/library\bignum.c **** 
1541:C:/Users/Yushev/git/wpcqi-optiga-trust-charge/optiga/externals/mbedtls/library\bignum.c **** cleanup:
1542:C:/Users/Yushev/git/wpcqi-optiga-trust-charge/optiga/externals/mbedtls/library\bignum.c **** 
1543:C:/Users/Yushev/git/wpcqi-optiga-trust-charge/optiga/externals/mbedtls/library\bignum.c ****     mbedtls_mpi_free( &X ); mbedtls_mpi_free( &Y ); mbedtls_mpi_free( &Z );
 7311              	 .loc 1 1543 0
 7312 0528 07F14003 	 add r3,r7,#64
 7313 052c 1846     	 mov r0,r3
 7314 052e FFF7FEFF 	 bl mbedtls_mpi_free
 7315 0532 07F13403 	 add r3,r7,#52
 7316 0536 1846     	 mov r0,r3
 7317 0538 FFF7FEFF 	 bl mbedtls_mpi_free
 7318 053c 07F12803 	 add r3,r7,#40
 7319 0540 1846     	 mov r0,r3
 7320 0542 FFF7FEFF 	 bl mbedtls_mpi_free
1544:C:/Users/Yushev/git/wpcqi-optiga-trust-charge/optiga/externals/mbedtls/library\bignum.c ****     mbedtls_mpi_free( &T1 ); mbedtls_mpi_free( &T2 );
 7321              	 .loc 1 1544 0
 7322 0546 07F11C03 	 add r3,r7,#28
 7323 054a 1846     	 mov r0,r3
 7324 054c FFF7FEFF 	 bl mbedtls_mpi_free
 7325 0550 07F11003 	 add r3,r7,#16
 7326 0554 1846     	 mov r0,r3
 7327 0556 FFF7FEFF 	 bl mbedtls_mpi_free
1545:C:/Users/Yushev/git/wpcqi-optiga-trust-charge/optiga/externals/mbedtls/library\bignum.c **** 
1546:C:/Users/Yushev/git/wpcqi-optiga-trust-charge/optiga/externals/mbedtls/library\bignum.c ****     return( ret );
 7328              	 .loc 1 1546 0
 7329 055a FB6D     	 ldr r3,[r7,#92]
 7330              	.L371:
1547:C:/Users/Yushev/git/wpcqi-optiga-trust-charge/optiga/externals/mbedtls/library\bignum.c **** }
 7331              	 .loc 1 1547 0 discriminator 1
 7332 055c 1846     	 mov r0,r3
 7333 055e 6437     	 adds r7,r7,#100
 7334              	.LCFI202:
 7335              	 .cfi_def_cfa_offset 12
 7336 0560 BD46     	 mov sp,r7
 7337              	.LCFI203:
 7338              	 .cfi_def_cfa_register 13
 7339              	 
 7340 0562 90BD     	 pop {r4,r7,pc}
 7341              	 .cfi_endproc
 7342              	.LFE38:
 7344              	 .section .text.mbedtls_mpi_div_int,"ax",%progbits
 7345              	 .align 2
 7346              	 .global mbedtls_mpi_div_int
 7347              	 .thumb
 7348              	 .thumb_func
 7350              	mbedtls_mpi_div_int:
 7351              	.LFB39:
1548:C:/Users/Yushev/git/wpcqi-optiga-trust-charge/optiga/externals/mbedtls/library\bignum.c **** 
1549:C:/Users/Yushev/git/wpcqi-optiga-trust-charge/optiga/externals/mbedtls/library\bignum.c **** /*
1550:C:/Users/Yushev/git/wpcqi-optiga-trust-charge/optiga/externals/mbedtls/library\bignum.c ****  * Division by int: A = Q * b + R
1551:C:/Users/Yushev/git/wpcqi-optiga-trust-charge/optiga/externals/mbedtls/library\bignum.c ****  */
1552:C:/Users/Yushev/git/wpcqi-optiga-trust-charge/optiga/externals/mbedtls/library\bignum.c **** int mbedtls_mpi_div_int( mbedtls_mpi *Q, mbedtls_mpi *R,
1553:C:/Users/Yushev/git/wpcqi-optiga-trust-charge/optiga/externals/mbedtls/library\bignum.c ****                          const mbedtls_mpi *A,
1554:C:/Users/Yushev/git/wpcqi-optiga-trust-charge/optiga/externals/mbedtls/library\bignum.c ****                          mbedtls_mpi_sint b )
1555:C:/Users/Yushev/git/wpcqi-optiga-trust-charge/optiga/externals/mbedtls/library\bignum.c **** {
 7352              	 .loc 1 1555 0
 7353              	 .cfi_startproc
 7354              	 
 7355              	 
 7356 0000 80B5     	 push {r7,lr}
 7357              	.LCFI204:
 7358              	 .cfi_def_cfa_offset 8
 7359              	 .cfi_offset 7,-8
 7360              	 .cfi_offset 14,-4
 7361 0002 88B0     	 sub sp,sp,#32
 7362              	.LCFI205:
 7363              	 .cfi_def_cfa_offset 40
 7364 0004 00AF     	 add r7,sp,#0
 7365              	.LCFI206:
 7366              	 .cfi_def_cfa_register 7
 7367 0006 F860     	 str r0,[r7,#12]
 7368 0008 B960     	 str r1,[r7,#8]
 7369 000a 7A60     	 str r2,[r7,#4]
 7370 000c 3B60     	 str r3,[r7]
1556:C:/Users/Yushev/git/wpcqi-optiga-trust-charge/optiga/externals/mbedtls/library\bignum.c ****     mbedtls_mpi _B;
1557:C:/Users/Yushev/git/wpcqi-optiga-trust-charge/optiga/externals/mbedtls/library\bignum.c ****     mbedtls_mpi_uint p[1];
1558:C:/Users/Yushev/git/wpcqi-optiga-trust-charge/optiga/externals/mbedtls/library\bignum.c ****     MPI_VALIDATE_RET( A != NULL );
1559:C:/Users/Yushev/git/wpcqi-optiga-trust-charge/optiga/externals/mbedtls/library\bignum.c **** 
1560:C:/Users/Yushev/git/wpcqi-optiga-trust-charge/optiga/externals/mbedtls/library\bignum.c ****     p[0] = ( b < 0 ) ? -b : b;
 7371              	 .loc 1 1560 0
 7372 000e 3B68     	 ldr r3,[r7]
 7373 0010 002B     	 cmp r3,#0
 7374 0012 B8BF     	 it lt
 7375 0014 5B42     	 rsblt r3,r3,#0
 7376 0016 3B61     	 str r3,[r7,#16]
1561:C:/Users/Yushev/git/wpcqi-optiga-trust-charge/optiga/externals/mbedtls/library\bignum.c ****     _B.s = ( b < 0 ) ? -1 : 1;
 7377              	 .loc 1 1561 0
 7378 0018 3B68     	 ldr r3,[r7]
 7379 001a 002B     	 cmp r3,#0
 7380 001c 02DA     	 bge .L373
 7381              	 .loc 1 1561 0 is_stmt 0 discriminator 1
 7382 001e 4FF0FF33 	 mov r3,#-1
 7383 0022 00E0     	 b .L374
 7384              	.L373:
 7385              	 .loc 1 1561 0 discriminator 2
 7386 0024 0123     	 movs r3,#1
 7387              	.L374:
 7388              	 .loc 1 1561 0 discriminator 4
 7389 0026 7B61     	 str r3,[r7,#20]
1562:C:/Users/Yushev/git/wpcqi-optiga-trust-charge/optiga/externals/mbedtls/library\bignum.c ****     _B.n = 1;
 7390              	 .loc 1 1562 0 is_stmt 1 discriminator 4
 7391 0028 0123     	 movs r3,#1
 7392 002a BB61     	 str r3,[r7,#24]
1563:C:/Users/Yushev/git/wpcqi-optiga-trust-charge/optiga/externals/mbedtls/library\bignum.c ****     _B.p = p;
 7393              	 .loc 1 1563 0 discriminator 4
 7394 002c 07F11003 	 add r3,r7,#16
 7395 0030 FB61     	 str r3,[r7,#28]
1564:C:/Users/Yushev/git/wpcqi-optiga-trust-charge/optiga/externals/mbedtls/library\bignum.c **** 
1565:C:/Users/Yushev/git/wpcqi-optiga-trust-charge/optiga/externals/mbedtls/library\bignum.c ****     return( mbedtls_mpi_div_mpi( Q, R, A, &_B ) );
 7396              	 .loc 1 1565 0 discriminator 4
 7397 0032 07F11403 	 add r3,r7,#20
 7398 0036 F868     	 ldr r0,[r7,#12]
 7399 0038 B968     	 ldr r1,[r7,#8]
 7400 003a 7A68     	 ldr r2,[r7,#4]
 7401 003c FFF7FEFF 	 bl mbedtls_mpi_div_mpi
 7402 0040 0346     	 mov r3,r0
1566:C:/Users/Yushev/git/wpcqi-optiga-trust-charge/optiga/externals/mbedtls/library\bignum.c **** }
 7403              	 .loc 1 1566 0 discriminator 4
 7404 0042 1846     	 mov r0,r3
 7405 0044 2037     	 adds r7,r7,#32
 7406              	.LCFI207:
 7407              	 .cfi_def_cfa_offset 8
 7408 0046 BD46     	 mov sp,r7
 7409              	.LCFI208:
 7410              	 .cfi_def_cfa_register 13
 7411              	 
 7412 0048 80BD     	 pop {r7,pc}
 7413              	 .cfi_endproc
 7414              	.LFE39:
 7416 004a 00BF     	 .section .text.mbedtls_mpi_mod_mpi,"ax",%progbits
 7417              	 .align 2
 7418              	 .global mbedtls_mpi_mod_mpi
 7419              	 .thumb
 7420              	 .thumb_func
 7422              	mbedtls_mpi_mod_mpi:
 7423              	.LFB40:
1567:C:/Users/Yushev/git/wpcqi-optiga-trust-charge/optiga/externals/mbedtls/library\bignum.c **** 
1568:C:/Users/Yushev/git/wpcqi-optiga-trust-charge/optiga/externals/mbedtls/library\bignum.c **** /*
1569:C:/Users/Yushev/git/wpcqi-optiga-trust-charge/optiga/externals/mbedtls/library\bignum.c ****  * Modulo: R = A mod B
1570:C:/Users/Yushev/git/wpcqi-optiga-trust-charge/optiga/externals/mbedtls/library\bignum.c ****  */
1571:C:/Users/Yushev/git/wpcqi-optiga-trust-charge/optiga/externals/mbedtls/library\bignum.c **** int mbedtls_mpi_mod_mpi( mbedtls_mpi *R, const mbedtls_mpi *A, const mbedtls_mpi *B )
1572:C:/Users/Yushev/git/wpcqi-optiga-trust-charge/optiga/externals/mbedtls/library\bignum.c **** {
 7424              	 .loc 1 1572 0
 7425              	 .cfi_startproc
 7426              	 
 7427              	 
 7428 0000 80B5     	 push {r7,lr}
 7429              	.LCFI209:
 7430              	 .cfi_def_cfa_offset 8
 7431              	 .cfi_offset 7,-8
 7432              	 .cfi_offset 14,-4
 7433 0002 86B0     	 sub sp,sp,#24
 7434              	.LCFI210:
 7435              	 .cfi_def_cfa_offset 32
 7436 0004 00AF     	 add r7,sp,#0
 7437              	.LCFI211:
 7438              	 .cfi_def_cfa_register 7
 7439 0006 F860     	 str r0,[r7,#12]
 7440 0008 B960     	 str r1,[r7,#8]
 7441 000a 7A60     	 str r2,[r7,#4]
1573:C:/Users/Yushev/git/wpcqi-optiga-trust-charge/optiga/externals/mbedtls/library\bignum.c ****     int ret;
1574:C:/Users/Yushev/git/wpcqi-optiga-trust-charge/optiga/externals/mbedtls/library\bignum.c ****     MPI_VALIDATE_RET( R != NULL );
1575:C:/Users/Yushev/git/wpcqi-optiga-trust-charge/optiga/externals/mbedtls/library\bignum.c ****     MPI_VALIDATE_RET( A != NULL );
1576:C:/Users/Yushev/git/wpcqi-optiga-trust-charge/optiga/externals/mbedtls/library\bignum.c ****     MPI_VALIDATE_RET( B != NULL );
1577:C:/Users/Yushev/git/wpcqi-optiga-trust-charge/optiga/externals/mbedtls/library\bignum.c **** 
1578:C:/Users/Yushev/git/wpcqi-optiga-trust-charge/optiga/externals/mbedtls/library\bignum.c ****     if( mbedtls_mpi_cmp_int( B, 0 ) < 0 )
 7442              	 .loc 1 1578 0
 7443 000c 7868     	 ldr r0,[r7,#4]
 7444 000e 0021     	 movs r1,#0
 7445 0010 FFF7FEFF 	 bl mbedtls_mpi_cmp_int
 7446 0014 0346     	 mov r3,r0
 7447 0016 002B     	 cmp r3,#0
 7448 0018 02DA     	 bge .L377
1579:C:/Users/Yushev/git/wpcqi-optiga-trust-charge/optiga/externals/mbedtls/library\bignum.c ****         return( MBEDTLS_ERR_MPI_NEGATIVE_VALUE );
 7449              	 .loc 1 1579 0
 7450 001a 6FF00903 	 mvn r3,#9
 7451 001e 2FE0     	 b .L378
 7452              	.L377:
1580:C:/Users/Yushev/git/wpcqi-optiga-trust-charge/optiga/externals/mbedtls/library\bignum.c **** 
1581:C:/Users/Yushev/git/wpcqi-optiga-trust-charge/optiga/externals/mbedtls/library\bignum.c ****     MBEDTLS_MPI_CHK( mbedtls_mpi_div_mpi( NULL, R, A, B ) );
 7453              	 .loc 1 1581 0
 7454 0020 0020     	 movs r0,#0
 7455 0022 F968     	 ldr r1,[r7,#12]
 7456 0024 BA68     	 ldr r2,[r7,#8]
 7457 0026 7B68     	 ldr r3,[r7,#4]
 7458 0028 FFF7FEFF 	 bl mbedtls_mpi_div_mpi
 7459 002c 7861     	 str r0,[r7,#20]
 7460 002e 7B69     	 ldr r3,[r7,#20]
 7461 0030 002B     	 cmp r3,#0
 7462 0032 00D0     	 beq .L379
 7463 0034 23E0     	 b .L380
 7464              	.L379:
1582:C:/Users/Yushev/git/wpcqi-optiga-trust-charge/optiga/externals/mbedtls/library\bignum.c **** 
1583:C:/Users/Yushev/git/wpcqi-optiga-trust-charge/optiga/externals/mbedtls/library\bignum.c ****     while( mbedtls_mpi_cmp_int( R, 0 ) < 0 )
 7465              	 .loc 1 1583 0
 7466 0036 09E0     	 b .L381
 7467              	.L382:
1584:C:/Users/Yushev/git/wpcqi-optiga-trust-charge/optiga/externals/mbedtls/library\bignum.c ****       MBEDTLS_MPI_CHK( mbedtls_mpi_add_mpi( R, R, B ) );
 7468              	 .loc 1 1584 0
 7469 0038 F868     	 ldr r0,[r7,#12]
 7470 003a F968     	 ldr r1,[r7,#12]
 7471 003c 7A68     	 ldr r2,[r7,#4]
 7472 003e FFF7FEFF 	 bl mbedtls_mpi_add_mpi
 7473 0042 7861     	 str r0,[r7,#20]
 7474 0044 7B69     	 ldr r3,[r7,#20]
 7475 0046 002B     	 cmp r3,#0
 7476 0048 00D0     	 beq .L381
 7477 004a 18E0     	 b .L380
 7478              	.L381:
1583:C:/Users/Yushev/git/wpcqi-optiga-trust-charge/optiga/externals/mbedtls/library\bignum.c ****       MBEDTLS_MPI_CHK( mbedtls_mpi_add_mpi( R, R, B ) );
 7479              	 .loc 1 1583 0
 7480 004c F868     	 ldr r0,[r7,#12]
 7481 004e 0021     	 movs r1,#0
 7482 0050 FFF7FEFF 	 bl mbedtls_mpi_cmp_int
 7483 0054 0346     	 mov r3,r0
 7484 0056 002B     	 cmp r3,#0
 7485 0058 EEDB     	 blt .L382
1585:C:/Users/Yushev/git/wpcqi-optiga-trust-charge/optiga/externals/mbedtls/library\bignum.c **** 
1586:C:/Users/Yushev/git/wpcqi-optiga-trust-charge/optiga/externals/mbedtls/library\bignum.c ****     while( mbedtls_mpi_cmp_mpi( R, B ) >= 0 )
 7486              	 .loc 1 1586 0
 7487 005a 09E0     	 b .L383
 7488              	.L384:
1587:C:/Users/Yushev/git/wpcqi-optiga-trust-charge/optiga/externals/mbedtls/library\bignum.c ****       MBEDTLS_MPI_CHK( mbedtls_mpi_sub_mpi( R, R, B ) );
 7489              	 .loc 1 1587 0
 7490 005c F868     	 ldr r0,[r7,#12]
 7491 005e F968     	 ldr r1,[r7,#12]
 7492 0060 7A68     	 ldr r2,[r7,#4]
 7493 0062 FFF7FEFF 	 bl mbedtls_mpi_sub_mpi
 7494 0066 7861     	 str r0,[r7,#20]
 7495 0068 7B69     	 ldr r3,[r7,#20]
 7496 006a 002B     	 cmp r3,#0
 7497 006c 00D0     	 beq .L383
 7498 006e 06E0     	 b .L380
 7499              	.L383:
1586:C:/Users/Yushev/git/wpcqi-optiga-trust-charge/optiga/externals/mbedtls/library\bignum.c ****       MBEDTLS_MPI_CHK( mbedtls_mpi_sub_mpi( R, R, B ) );
 7500              	 .loc 1 1586 0
 7501 0070 F868     	 ldr r0,[r7,#12]
 7502 0072 7968     	 ldr r1,[r7,#4]
 7503 0074 FFF7FEFF 	 bl mbedtls_mpi_cmp_mpi
 7504 0078 0346     	 mov r3,r0
 7505 007a 002B     	 cmp r3,#0
 7506 007c EEDA     	 bge .L384
 7507              	.L380:
1588:C:/Users/Yushev/git/wpcqi-optiga-trust-charge/optiga/externals/mbedtls/library\bignum.c **** 
1589:C:/Users/Yushev/git/wpcqi-optiga-trust-charge/optiga/externals/mbedtls/library\bignum.c **** cleanup:
1590:C:/Users/Yushev/git/wpcqi-optiga-trust-charge/optiga/externals/mbedtls/library\bignum.c **** 
1591:C:/Users/Yushev/git/wpcqi-optiga-trust-charge/optiga/externals/mbedtls/library\bignum.c ****     return( ret );
 7508              	 .loc 1 1591 0
 7509 007e 7B69     	 ldr r3,[r7,#20]
 7510              	.L378:
1592:C:/Users/Yushev/git/wpcqi-optiga-trust-charge/optiga/externals/mbedtls/library\bignum.c **** }
 7511              	 .loc 1 1592 0
 7512 0080 1846     	 mov r0,r3
 7513 0082 1837     	 adds r7,r7,#24
 7514              	.LCFI212:
 7515              	 .cfi_def_cfa_offset 8
 7516 0084 BD46     	 mov sp,r7
 7517              	.LCFI213:
 7518              	 .cfi_def_cfa_register 13
 7519              	 
 7520 0086 80BD     	 pop {r7,pc}
 7521              	 .cfi_endproc
 7522              	.LFE40:
 7524              	 .section .text.mbedtls_mpi_mod_int,"ax",%progbits
 7525              	 .align 2
 7526              	 .global mbedtls_mpi_mod_int
 7527              	 .thumb
 7528              	 .thumb_func
 7530              	mbedtls_mpi_mod_int:
 7531              	.LFB41:
1593:C:/Users/Yushev/git/wpcqi-optiga-trust-charge/optiga/externals/mbedtls/library\bignum.c **** 
1594:C:/Users/Yushev/git/wpcqi-optiga-trust-charge/optiga/externals/mbedtls/library\bignum.c **** /*
1595:C:/Users/Yushev/git/wpcqi-optiga-trust-charge/optiga/externals/mbedtls/library\bignum.c ****  * Modulo: r = A mod b
1596:C:/Users/Yushev/git/wpcqi-optiga-trust-charge/optiga/externals/mbedtls/library\bignum.c ****  */
1597:C:/Users/Yushev/git/wpcqi-optiga-trust-charge/optiga/externals/mbedtls/library\bignum.c **** int mbedtls_mpi_mod_int( mbedtls_mpi_uint *r, const mbedtls_mpi *A, mbedtls_mpi_sint b )
1598:C:/Users/Yushev/git/wpcqi-optiga-trust-charge/optiga/externals/mbedtls/library\bignum.c **** {
 7532              	 .loc 1 1598 0
 7533              	 .cfi_startproc
 7534              	 
 7535              	 
 7536              	 
 7537 0000 80B4     	 push {r7}
 7538              	.LCFI214:
 7539              	 .cfi_def_cfa_offset 4
 7540              	 .cfi_offset 7,-4
 7541 0002 89B0     	 sub sp,sp,#36
 7542              	.LCFI215:
 7543              	 .cfi_def_cfa_offset 40
 7544 0004 00AF     	 add r7,sp,#0
 7545              	.LCFI216:
 7546              	 .cfi_def_cfa_register 7
 7547 0006 F860     	 str r0,[r7,#12]
 7548 0008 B960     	 str r1,[r7,#8]
 7549 000a 7A60     	 str r2,[r7,#4]
1599:C:/Users/Yushev/git/wpcqi-optiga-trust-charge/optiga/externals/mbedtls/library\bignum.c ****     size_t i;
1600:C:/Users/Yushev/git/wpcqi-optiga-trust-charge/optiga/externals/mbedtls/library\bignum.c ****     mbedtls_mpi_uint x, y, z;
1601:C:/Users/Yushev/git/wpcqi-optiga-trust-charge/optiga/externals/mbedtls/library\bignum.c ****     MPI_VALIDATE_RET( r != NULL );
1602:C:/Users/Yushev/git/wpcqi-optiga-trust-charge/optiga/externals/mbedtls/library\bignum.c ****     MPI_VALIDATE_RET( A != NULL );
1603:C:/Users/Yushev/git/wpcqi-optiga-trust-charge/optiga/externals/mbedtls/library\bignum.c **** 
1604:C:/Users/Yushev/git/wpcqi-optiga-trust-charge/optiga/externals/mbedtls/library\bignum.c ****     if( b == 0 )
 7550              	 .loc 1 1604 0
 7551 000c 7B68     	 ldr r3,[r7,#4]
 7552 000e 002B     	 cmp r3,#0
 7553 0010 02D1     	 bne .L386
1605:C:/Users/Yushev/git/wpcqi-optiga-trust-charge/optiga/externals/mbedtls/library\bignum.c ****         return( MBEDTLS_ERR_MPI_DIVISION_BY_ZERO );
 7554              	 .loc 1 1605 0
 7555 0012 6FF00B03 	 mvn r3,#11
 7556 0016 65E0     	 b .L387
 7557              	.L386:
1606:C:/Users/Yushev/git/wpcqi-optiga-trust-charge/optiga/externals/mbedtls/library\bignum.c **** 
1607:C:/Users/Yushev/git/wpcqi-optiga-trust-charge/optiga/externals/mbedtls/library\bignum.c ****     if( b < 0 )
 7558              	 .loc 1 1607 0
 7559 0018 7B68     	 ldr r3,[r7,#4]
 7560 001a 002B     	 cmp r3,#0
 7561 001c 02DA     	 bge .L388
1608:C:/Users/Yushev/git/wpcqi-optiga-trust-charge/optiga/externals/mbedtls/library\bignum.c ****         return( MBEDTLS_ERR_MPI_NEGATIVE_VALUE );
 7562              	 .loc 1 1608 0
 7563 001e 6FF00903 	 mvn r3,#9
 7564 0022 5FE0     	 b .L387
 7565              	.L388:
1609:C:/Users/Yushev/git/wpcqi-optiga-trust-charge/optiga/externals/mbedtls/library\bignum.c **** 
1610:C:/Users/Yushev/git/wpcqi-optiga-trust-charge/optiga/externals/mbedtls/library\bignum.c ****     /*
1611:C:/Users/Yushev/git/wpcqi-optiga-trust-charge/optiga/externals/mbedtls/library\bignum.c ****      * handle trivial cases
1612:C:/Users/Yushev/git/wpcqi-optiga-trust-charge/optiga/externals/mbedtls/library\bignum.c ****      */
1613:C:/Users/Yushev/git/wpcqi-optiga-trust-charge/optiga/externals/mbedtls/library\bignum.c ****     if( b == 1 )
 7566              	 .loc 1 1613 0
 7567 0024 7B68     	 ldr r3,[r7,#4]
 7568 0026 012B     	 cmp r3,#1
 7569 0028 04D1     	 bne .L389
1614:C:/Users/Yushev/git/wpcqi-optiga-trust-charge/optiga/externals/mbedtls/library\bignum.c ****     {
1615:C:/Users/Yushev/git/wpcqi-optiga-trust-charge/optiga/externals/mbedtls/library\bignum.c ****         *r = 0;
 7570              	 .loc 1 1615 0
 7571 002a FB68     	 ldr r3,[r7,#12]
 7572 002c 0022     	 movs r2,#0
 7573 002e 1A60     	 str r2,[r3]
1616:C:/Users/Yushev/git/wpcqi-optiga-trust-charge/optiga/externals/mbedtls/library\bignum.c ****         return( 0 );
 7574              	 .loc 1 1616 0
 7575 0030 0023     	 movs r3,#0
 7576 0032 57E0     	 b .L387
 7577              	.L389:
1617:C:/Users/Yushev/git/wpcqi-optiga-trust-charge/optiga/externals/mbedtls/library\bignum.c ****     }
1618:C:/Users/Yushev/git/wpcqi-optiga-trust-charge/optiga/externals/mbedtls/library\bignum.c **** 
1619:C:/Users/Yushev/git/wpcqi-optiga-trust-charge/optiga/externals/mbedtls/library\bignum.c ****     if( b == 2 )
 7578              	 .loc 1 1619 0
 7579 0034 7B68     	 ldr r3,[r7,#4]
 7580 0036 022B     	 cmp r3,#2
 7581 0038 08D1     	 bne .L390
1620:C:/Users/Yushev/git/wpcqi-optiga-trust-charge/optiga/externals/mbedtls/library\bignum.c ****     {
1621:C:/Users/Yushev/git/wpcqi-optiga-trust-charge/optiga/externals/mbedtls/library\bignum.c ****         *r = A->p[0] & 1;
 7582              	 .loc 1 1621 0
 7583 003a BB68     	 ldr r3,[r7,#8]
 7584 003c 9B68     	 ldr r3,[r3,#8]
 7585 003e 1B68     	 ldr r3,[r3]
 7586 0040 03F00102 	 and r2,r3,#1
 7587 0044 FB68     	 ldr r3,[r7,#12]
 7588 0046 1A60     	 str r2,[r3]
1622:C:/Users/Yushev/git/wpcqi-optiga-trust-charge/optiga/externals/mbedtls/library\bignum.c ****         return( 0 );
 7589              	 .loc 1 1622 0
 7590 0048 0023     	 movs r3,#0
 7591 004a 4BE0     	 b .L387
 7592              	.L390:
1623:C:/Users/Yushev/git/wpcqi-optiga-trust-charge/optiga/externals/mbedtls/library\bignum.c ****     }
1624:C:/Users/Yushev/git/wpcqi-optiga-trust-charge/optiga/externals/mbedtls/library\bignum.c **** 
1625:C:/Users/Yushev/git/wpcqi-optiga-trust-charge/optiga/externals/mbedtls/library\bignum.c ****     /*
1626:C:/Users/Yushev/git/wpcqi-optiga-trust-charge/optiga/externals/mbedtls/library\bignum.c ****      * general case
1627:C:/Users/Yushev/git/wpcqi-optiga-trust-charge/optiga/externals/mbedtls/library\bignum.c ****      */
1628:C:/Users/Yushev/git/wpcqi-optiga-trust-charge/optiga/externals/mbedtls/library\bignum.c ****     for( i = A->n, y = 0; i > 0; i-- )
 7593              	 .loc 1 1628 0
 7594 004c BB68     	 ldr r3,[r7,#8]
 7595 004e 5B68     	 ldr r3,[r3,#4]
 7596 0050 FB61     	 str r3,[r7,#28]
 7597 0052 0023     	 movs r3,#0
 7598 0054 BB61     	 str r3,[r7,#24]
 7599 0056 33E0     	 b .L391
 7600              	.L392:
1629:C:/Users/Yushev/git/wpcqi-optiga-trust-charge/optiga/externals/mbedtls/library\bignum.c ****     {
1630:C:/Users/Yushev/git/wpcqi-optiga-trust-charge/optiga/externals/mbedtls/library\bignum.c ****         x  = A->p[i - 1];
 7601              	 .loc 1 1630 0 discriminator 3
 7602 0058 BB68     	 ldr r3,[r7,#8]
 7603 005a 9A68     	 ldr r2,[r3,#8]
 7604 005c FB69     	 ldr r3,[r7,#28]
 7605 005e 03F18043 	 add r3,r3,#1073741824
 7606 0062 013B     	 subs r3,r3,#1
 7607 0064 9B00     	 lsls r3,r3,#2
 7608 0066 1344     	 add r3,r3,r2
 7609 0068 1B68     	 ldr r3,[r3]
 7610 006a 7B61     	 str r3,[r7,#20]
1631:C:/Users/Yushev/git/wpcqi-optiga-trust-charge/optiga/externals/mbedtls/library\bignum.c ****         y  = ( y << biH ) | ( x >> biH );
 7611              	 .loc 1 1631 0 discriminator 3
 7612 006c BB69     	 ldr r3,[r7,#24]
 7613 006e 1A04     	 lsls r2,r3,#16
 7614 0070 7B69     	 ldr r3,[r7,#20]
 7615 0072 1B0C     	 lsrs r3,r3,#16
 7616 0074 1343     	 orrs r3,r3,r2
 7617 0076 BB61     	 str r3,[r7,#24]
1632:C:/Users/Yushev/git/wpcqi-optiga-trust-charge/optiga/externals/mbedtls/library\bignum.c ****         z  = y / b;
 7618              	 .loc 1 1632 0 discriminator 3
 7619 0078 7B68     	 ldr r3,[r7,#4]
 7620 007a BA69     	 ldr r2,[r7,#24]
 7621 007c B2FBF3F3 	 udiv r3,r2,r3
 7622 0080 3B61     	 str r3,[r7,#16]
1633:C:/Users/Yushev/git/wpcqi-optiga-trust-charge/optiga/externals/mbedtls/library\bignum.c ****         y -= z * b;
 7623              	 .loc 1 1633 0 discriminator 3
 7624 0082 7B68     	 ldr r3,[r7,#4]
 7625 0084 3A69     	 ldr r2,[r7,#16]
 7626 0086 02FB03F3 	 mul r3,r2,r3
 7627 008a BA69     	 ldr r2,[r7,#24]
 7628 008c D31A     	 subs r3,r2,r3
 7629 008e BB61     	 str r3,[r7,#24]
1634:C:/Users/Yushev/git/wpcqi-optiga-trust-charge/optiga/externals/mbedtls/library\bignum.c **** 
1635:C:/Users/Yushev/git/wpcqi-optiga-trust-charge/optiga/externals/mbedtls/library\bignum.c ****         x <<= biH;
 7630              	 .loc 1 1635 0 discriminator 3
 7631 0090 7B69     	 ldr r3,[r7,#20]
 7632 0092 1B04     	 lsls r3,r3,#16
 7633 0094 7B61     	 str r3,[r7,#20]
1636:C:/Users/Yushev/git/wpcqi-optiga-trust-charge/optiga/externals/mbedtls/library\bignum.c ****         y  = ( y << biH ) | ( x >> biH );
 7634              	 .loc 1 1636 0 discriminator 3
 7635 0096 BB69     	 ldr r3,[r7,#24]
 7636 0098 1A04     	 lsls r2,r3,#16
 7637 009a 7B69     	 ldr r3,[r7,#20]
 7638 009c 1B0C     	 lsrs r3,r3,#16
 7639 009e 1343     	 orrs r3,r3,r2
 7640 00a0 BB61     	 str r3,[r7,#24]
1637:C:/Users/Yushev/git/wpcqi-optiga-trust-charge/optiga/externals/mbedtls/library\bignum.c ****         z  = y / b;
 7641              	 .loc 1 1637 0 discriminator 3
 7642 00a2 7B68     	 ldr r3,[r7,#4]
 7643 00a4 BA69     	 ldr r2,[r7,#24]
 7644 00a6 B2FBF3F3 	 udiv r3,r2,r3
 7645 00aa 3B61     	 str r3,[r7,#16]
1638:C:/Users/Yushev/git/wpcqi-optiga-trust-charge/optiga/externals/mbedtls/library\bignum.c ****         y -= z * b;
 7646              	 .loc 1 1638 0 discriminator 3
 7647 00ac 7B68     	 ldr r3,[r7,#4]
 7648 00ae 3A69     	 ldr r2,[r7,#16]
 7649 00b0 02FB03F3 	 mul r3,r2,r3
 7650 00b4 BA69     	 ldr r2,[r7,#24]
 7651 00b6 D31A     	 subs r3,r2,r3
 7652 00b8 BB61     	 str r3,[r7,#24]
1628:C:/Users/Yushev/git/wpcqi-optiga-trust-charge/optiga/externals/mbedtls/library\bignum.c ****     {
 7653              	 .loc 1 1628 0 discriminator 3
 7654 00ba FB69     	 ldr r3,[r7,#28]
 7655 00bc 013B     	 subs r3,r3,#1
 7656 00be FB61     	 str r3,[r7,#28]
 7657              	.L391:
1628:C:/Users/Yushev/git/wpcqi-optiga-trust-charge/optiga/externals/mbedtls/library\bignum.c ****     {
 7658              	 .loc 1 1628 0 is_stmt 0 discriminator 1
 7659 00c0 FB69     	 ldr r3,[r7,#28]
 7660 00c2 002B     	 cmp r3,#0
 7661 00c4 C8D1     	 bne .L392
1639:C:/Users/Yushev/git/wpcqi-optiga-trust-charge/optiga/externals/mbedtls/library\bignum.c ****     }
1640:C:/Users/Yushev/git/wpcqi-optiga-trust-charge/optiga/externals/mbedtls/library\bignum.c **** 
1641:C:/Users/Yushev/git/wpcqi-optiga-trust-charge/optiga/externals/mbedtls/library\bignum.c ****     /*
1642:C:/Users/Yushev/git/wpcqi-optiga-trust-charge/optiga/externals/mbedtls/library\bignum.c ****      * If A is negative, then the current y represents a negative value.
1643:C:/Users/Yushev/git/wpcqi-optiga-trust-charge/optiga/externals/mbedtls/library\bignum.c ****      * Flipping it to the positive side.
1644:C:/Users/Yushev/git/wpcqi-optiga-trust-charge/optiga/externals/mbedtls/library\bignum.c ****      */
1645:C:/Users/Yushev/git/wpcqi-optiga-trust-charge/optiga/externals/mbedtls/library\bignum.c ****     if( A->s < 0 && y != 0 )
 7662              	 .loc 1 1645 0 is_stmt 1
 7663 00c6 BB68     	 ldr r3,[r7,#8]
 7664 00c8 1B68     	 ldr r3,[r3]
 7665 00ca 002B     	 cmp r3,#0
 7666 00cc 06DA     	 bge .L393
 7667              	 .loc 1 1645 0 is_stmt 0 discriminator 1
 7668 00ce BB69     	 ldr r3,[r7,#24]
 7669 00d0 002B     	 cmp r3,#0
 7670 00d2 03D0     	 beq .L393
1646:C:/Users/Yushev/git/wpcqi-optiga-trust-charge/optiga/externals/mbedtls/library\bignum.c ****         y = b - y;
 7671              	 .loc 1 1646 0 is_stmt 1
 7672 00d4 7A68     	 ldr r2,[r7,#4]
 7673 00d6 BB69     	 ldr r3,[r7,#24]
 7674 00d8 D31A     	 subs r3,r2,r3
 7675 00da BB61     	 str r3,[r7,#24]
 7676              	.L393:
1647:C:/Users/Yushev/git/wpcqi-optiga-trust-charge/optiga/externals/mbedtls/library\bignum.c **** 
1648:C:/Users/Yushev/git/wpcqi-optiga-trust-charge/optiga/externals/mbedtls/library\bignum.c ****     *r = y;
 7677              	 .loc 1 1648 0
 7678 00dc FB68     	 ldr r3,[r7,#12]
 7679 00de BA69     	 ldr r2,[r7,#24]
 7680 00e0 1A60     	 str r2,[r3]
1649:C:/Users/Yushev/git/wpcqi-optiga-trust-charge/optiga/externals/mbedtls/library\bignum.c **** 
1650:C:/Users/Yushev/git/wpcqi-optiga-trust-charge/optiga/externals/mbedtls/library\bignum.c ****     return( 0 );
 7681              	 .loc 1 1650 0
 7682 00e2 0023     	 movs r3,#0
 7683              	.L387:
1651:C:/Users/Yushev/git/wpcqi-optiga-trust-charge/optiga/externals/mbedtls/library\bignum.c **** }
 7684              	 .loc 1 1651 0
 7685 00e4 1846     	 mov r0,r3
 7686 00e6 2437     	 adds r7,r7,#36
 7687              	.LCFI217:
 7688              	 .cfi_def_cfa_offset 4
 7689 00e8 BD46     	 mov sp,r7
 7690              	.LCFI218:
 7691              	 .cfi_def_cfa_register 13
 7692              	 
 7693 00ea 5DF8047B 	 ldr r7,[sp],#4
 7694              	.LCFI219:
 7695              	 .cfi_restore 7
 7696              	 .cfi_def_cfa_offset 0
 7697 00ee 7047     	 bx lr
 7698              	 .cfi_endproc
 7699              	.LFE41:
 7701              	 .section .text.mpi_montg_init,"ax",%progbits
 7702              	 .align 2
 7703              	 .thumb
 7704              	 .thumb_func
 7706              	mpi_montg_init:
 7707              	.LFB42:
1652:C:/Users/Yushev/git/wpcqi-optiga-trust-charge/optiga/externals/mbedtls/library\bignum.c **** 
1653:C:/Users/Yushev/git/wpcqi-optiga-trust-charge/optiga/externals/mbedtls/library\bignum.c **** /*
1654:C:/Users/Yushev/git/wpcqi-optiga-trust-charge/optiga/externals/mbedtls/library\bignum.c ****  * Fast Montgomery initialization (thanks to Tom St Denis)
1655:C:/Users/Yushev/git/wpcqi-optiga-trust-charge/optiga/externals/mbedtls/library\bignum.c ****  */
1656:C:/Users/Yushev/git/wpcqi-optiga-trust-charge/optiga/externals/mbedtls/library\bignum.c **** static void mpi_montg_init( mbedtls_mpi_uint *mm, const mbedtls_mpi *N )
1657:C:/Users/Yushev/git/wpcqi-optiga-trust-charge/optiga/externals/mbedtls/library\bignum.c **** {
 7708              	 .loc 1 1657 0
 7709              	 .cfi_startproc
 7710              	 
 7711              	 
 7712              	 
 7713 0000 80B4     	 push {r7}
 7714              	.LCFI220:
 7715              	 .cfi_def_cfa_offset 4
 7716              	 .cfi_offset 7,-4
 7717 0002 87B0     	 sub sp,sp,#28
 7718              	.LCFI221:
 7719              	 .cfi_def_cfa_offset 32
 7720 0004 00AF     	 add r7,sp,#0
 7721              	.LCFI222:
 7722              	 .cfi_def_cfa_register 7
 7723 0006 7860     	 str r0,[r7,#4]
 7724 0008 3960     	 str r1,[r7]
1658:C:/Users/Yushev/git/wpcqi-optiga-trust-charge/optiga/externals/mbedtls/library\bignum.c ****     mbedtls_mpi_uint x, m0 = N->p[0];
 7725              	 .loc 1 1658 0
 7726 000a 3B68     	 ldr r3,[r7]
 7727 000c 9B68     	 ldr r3,[r3,#8]
 7728 000e 1B68     	 ldr r3,[r3]
 7729 0010 FB60     	 str r3,[r7,#12]
1659:C:/Users/Yushev/git/wpcqi-optiga-trust-charge/optiga/externals/mbedtls/library\bignum.c ****     unsigned int i;
1660:C:/Users/Yushev/git/wpcqi-optiga-trust-charge/optiga/externals/mbedtls/library\bignum.c **** 
1661:C:/Users/Yushev/git/wpcqi-optiga-trust-charge/optiga/externals/mbedtls/library\bignum.c ****     x  = m0;
 7730              	 .loc 1 1661 0
 7731 0012 FB68     	 ldr r3,[r7,#12]
 7732 0014 7B61     	 str r3,[r7,#20]
1662:C:/Users/Yushev/git/wpcqi-optiga-trust-charge/optiga/externals/mbedtls/library\bignum.c ****     x += ( ( m0 + 2 ) & 4 ) << 1;
 7733              	 .loc 1 1662 0
 7734 0016 FB68     	 ldr r3,[r7,#12]
 7735 0018 0233     	 adds r3,r3,#2
 7736 001a 03F00403 	 and r3,r3,#4
 7737 001e 5B00     	 lsls r3,r3,#1
 7738 0020 7A69     	 ldr r2,[r7,#20]
 7739 0022 1344     	 add r3,r3,r2
 7740 0024 7B61     	 str r3,[r7,#20]
1663:C:/Users/Yushev/git/wpcqi-optiga-trust-charge/optiga/externals/mbedtls/library\bignum.c **** 
1664:C:/Users/Yushev/git/wpcqi-optiga-trust-charge/optiga/externals/mbedtls/library\bignum.c ****     for( i = biL; i >= 8; i /= 2 )
 7741              	 .loc 1 1664 0
 7742 0026 2023     	 movs r3,#32
 7743 0028 3B61     	 str r3,[r7,#16]
 7744 002a 0CE0     	 b .L395
 7745              	.L396:
1665:C:/Users/Yushev/git/wpcqi-optiga-trust-charge/optiga/externals/mbedtls/library\bignum.c ****         x *= ( 2 - ( m0 * x ) );
 7746              	 .loc 1 1665 0 discriminator 3
 7747 002c FB68     	 ldr r3,[r7,#12]
 7748 002e 7A69     	 ldr r2,[r7,#20]
 7749 0030 02FB03F3 	 mul r3,r2,r3
 7750 0034 C3F10202 	 rsb r2,r3,#2
 7751 0038 7B69     	 ldr r3,[r7,#20]
 7752 003a 02FB03F3 	 mul r3,r2,r3
 7753 003e 7B61     	 str r3,[r7,#20]
1664:C:/Users/Yushev/git/wpcqi-optiga-trust-charge/optiga/externals/mbedtls/library\bignum.c ****         x *= ( 2 - ( m0 * x ) );
 7754              	 .loc 1 1664 0 discriminator 3
 7755 0040 3B69     	 ldr r3,[r7,#16]
 7756 0042 5B08     	 lsrs r3,r3,#1
 7757 0044 3B61     	 str r3,[r7,#16]
 7758              	.L395:
1664:C:/Users/Yushev/git/wpcqi-optiga-trust-charge/optiga/externals/mbedtls/library\bignum.c ****         x *= ( 2 - ( m0 * x ) );
 7759              	 .loc 1 1664 0 is_stmt 0 discriminator 1
 7760 0046 3B69     	 ldr r3,[r7,#16]
 7761 0048 072B     	 cmp r3,#7
 7762 004a EFD8     	 bhi .L396
1666:C:/Users/Yushev/git/wpcqi-optiga-trust-charge/optiga/externals/mbedtls/library\bignum.c **** 
1667:C:/Users/Yushev/git/wpcqi-optiga-trust-charge/optiga/externals/mbedtls/library\bignum.c ****     *mm = ~x + 1;
 7763              	 .loc 1 1667 0 is_stmt 1
 7764 004c 7B69     	 ldr r3,[r7,#20]
 7765 004e 5A42     	 negs r2,r3
 7766 0050 7B68     	 ldr r3,[r7,#4]
 7767 0052 1A60     	 str r2,[r3]
1668:C:/Users/Yushev/git/wpcqi-optiga-trust-charge/optiga/externals/mbedtls/library\bignum.c **** }
 7768              	 .loc 1 1668 0
 7769 0054 1C37     	 adds r7,r7,#28
 7770              	.LCFI223:
 7771              	 .cfi_def_cfa_offset 4
 7772 0056 BD46     	 mov sp,r7
 7773              	.LCFI224:
 7774              	 .cfi_def_cfa_register 13
 7775              	 
 7776 0058 5DF8047B 	 ldr r7,[sp],#4
 7777              	.LCFI225:
 7778              	 .cfi_restore 7
 7779              	 .cfi_def_cfa_offset 0
 7780 005c 7047     	 bx lr
 7781              	 .cfi_endproc
 7782              	.LFE42:
 7784 005e 00BF     	 .section .text.mpi_montmul,"ax",%progbits
 7785              	 .align 2
 7786              	 .thumb
 7787              	 .thumb_func
 7789              	mpi_montmul:
 7790              	.LFB43:
1669:C:/Users/Yushev/git/wpcqi-optiga-trust-charge/optiga/externals/mbedtls/library\bignum.c **** 
1670:C:/Users/Yushev/git/wpcqi-optiga-trust-charge/optiga/externals/mbedtls/library\bignum.c **** /*
1671:C:/Users/Yushev/git/wpcqi-optiga-trust-charge/optiga/externals/mbedtls/library\bignum.c ****  * Montgomery multiplication: A = A * B * R^-1 mod N  (HAC 14.36)
1672:C:/Users/Yushev/git/wpcqi-optiga-trust-charge/optiga/externals/mbedtls/library\bignum.c ****  */
1673:C:/Users/Yushev/git/wpcqi-optiga-trust-charge/optiga/externals/mbedtls/library\bignum.c **** static int mpi_montmul( mbedtls_mpi *A, const mbedtls_mpi *B, const mbedtls_mpi *N, mbedtls_mpi_uin
1674:C:/Users/Yushev/git/wpcqi-optiga-trust-charge/optiga/externals/mbedtls/library\bignum.c ****                          const mbedtls_mpi *T )
1675:C:/Users/Yushev/git/wpcqi-optiga-trust-charge/optiga/externals/mbedtls/library\bignum.c **** {
 7791              	 .loc 1 1675 0
 7792              	 .cfi_startproc
 7793              	 
 7794              	 
 7795 0000 80B5     	 push {r7,lr}
 7796              	.LCFI226:
 7797              	 .cfi_def_cfa_offset 8
 7798              	 .cfi_offset 7,-8
 7799              	 .cfi_offset 14,-4
 7800 0002 8AB0     	 sub sp,sp,#40
 7801              	.LCFI227:
 7802              	 .cfi_def_cfa_offset 48
 7803 0004 00AF     	 add r7,sp,#0
 7804              	.LCFI228:
 7805              	 .cfi_def_cfa_register 7
 7806 0006 F860     	 str r0,[r7,#12]
 7807 0008 B960     	 str r1,[r7,#8]
 7808 000a 7A60     	 str r2,[r7,#4]
 7809 000c 3B60     	 str r3,[r7]
1676:C:/Users/Yushev/git/wpcqi-optiga-trust-charge/optiga/externals/mbedtls/library\bignum.c ****     size_t i, n, m;
1677:C:/Users/Yushev/git/wpcqi-optiga-trust-charge/optiga/externals/mbedtls/library\bignum.c ****     mbedtls_mpi_uint u0, u1, *d;
1678:C:/Users/Yushev/git/wpcqi-optiga-trust-charge/optiga/externals/mbedtls/library\bignum.c **** 
1679:C:/Users/Yushev/git/wpcqi-optiga-trust-charge/optiga/externals/mbedtls/library\bignum.c ****     if( T->n < N->n + 1 || T->p == NULL )
 7810              	 .loc 1 1679 0
 7811 000e 3B6B     	 ldr r3,[r7,#48]
 7812 0010 5A68     	 ldr r2,[r3,#4]
 7813 0012 7B68     	 ldr r3,[r7,#4]
 7814 0014 5B68     	 ldr r3,[r3,#4]
 7815 0016 0133     	 adds r3,r3,#1
 7816 0018 9A42     	 cmp r2,r3
 7817 001a 03D3     	 bcc .L398
 7818              	 .loc 1 1679 0 is_stmt 0 discriminator 1
 7819 001c 3B6B     	 ldr r3,[r7,#48]
 7820 001e 9B68     	 ldr r3,[r3,#8]
 7821 0020 002B     	 cmp r3,#0
 7822 0022 02D1     	 bne .L399
 7823              	.L398:
1680:C:/Users/Yushev/git/wpcqi-optiga-trust-charge/optiga/externals/mbedtls/library\bignum.c ****         return( MBEDTLS_ERR_MPI_BAD_INPUT_DATA );
 7824              	 .loc 1 1680 0 is_stmt 1
 7825 0024 6FF00303 	 mvn r3,#3
 7826 0028 75E0     	 b .L400
 7827              	.L399:
1681:C:/Users/Yushev/git/wpcqi-optiga-trust-charge/optiga/externals/mbedtls/library\bignum.c **** 
1682:C:/Users/Yushev/git/wpcqi-optiga-trust-charge/optiga/externals/mbedtls/library\bignum.c ****     memset( T->p, 0, T->n * ciL );
 7828              	 .loc 1 1682 0
 7829 002a 3B6B     	 ldr r3,[r7,#48]
 7830 002c 9A68     	 ldr r2,[r3,#8]
 7831 002e 3B6B     	 ldr r3,[r7,#48]
 7832 0030 5B68     	 ldr r3,[r3,#4]
 7833 0032 9B00     	 lsls r3,r3,#2
 7834 0034 1046     	 mov r0,r2
 7835 0036 0021     	 movs r1,#0
 7836 0038 1A46     	 mov r2,r3
 7837 003a FFF7FEFF 	 bl memset
1683:C:/Users/Yushev/git/wpcqi-optiga-trust-charge/optiga/externals/mbedtls/library\bignum.c **** 
1684:C:/Users/Yushev/git/wpcqi-optiga-trust-charge/optiga/externals/mbedtls/library\bignum.c ****     d = T->p;
 7838              	 .loc 1 1684 0
 7839 003e 3B6B     	 ldr r3,[r7,#48]
 7840 0040 9B68     	 ldr r3,[r3,#8]
 7841 0042 3B62     	 str r3,[r7,#32]
1685:C:/Users/Yushev/git/wpcqi-optiga-trust-charge/optiga/externals/mbedtls/library\bignum.c ****     n = N->n;
 7842              	 .loc 1 1685 0
 7843 0044 7B68     	 ldr r3,[r7,#4]
 7844 0046 5B68     	 ldr r3,[r3,#4]
 7845 0048 FB61     	 str r3,[r7,#28]
1686:C:/Users/Yushev/git/wpcqi-optiga-trust-charge/optiga/externals/mbedtls/library\bignum.c ****     m = ( B->n < n ) ? B->n : n;
 7846              	 .loc 1 1686 0
 7847 004a BB68     	 ldr r3,[r7,#8]
 7848 004c 5A68     	 ldr r2,[r3,#4]
 7849 004e FB69     	 ldr r3,[r7,#28]
 7850 0050 9342     	 cmp r3,r2
 7851 0052 28BF     	 it cs
 7852 0054 1346     	 movcs r3,r2
 7853 0056 BB61     	 str r3,[r7,#24]
1687:C:/Users/Yushev/git/wpcqi-optiga-trust-charge/optiga/externals/mbedtls/library\bignum.c **** 
1688:C:/Users/Yushev/git/wpcqi-optiga-trust-charge/optiga/externals/mbedtls/library\bignum.c ****     for( i = 0; i < n; i++ )
 7854              	 .loc 1 1688 0
 7855 0058 0023     	 movs r3,#0
 7856 005a 7B62     	 str r3,[r7,#36]
 7857 005c 32E0     	 b .L401
 7858              	.L402:
1689:C:/Users/Yushev/git/wpcqi-optiga-trust-charge/optiga/externals/mbedtls/library\bignum.c ****     {
1690:C:/Users/Yushev/git/wpcqi-optiga-trust-charge/optiga/externals/mbedtls/library\bignum.c ****         /*
1691:C:/Users/Yushev/git/wpcqi-optiga-trust-charge/optiga/externals/mbedtls/library\bignum.c ****          * T = (T + u0*B + u1*N) / 2^biL
1692:C:/Users/Yushev/git/wpcqi-optiga-trust-charge/optiga/externals/mbedtls/library\bignum.c ****          */
1693:C:/Users/Yushev/git/wpcqi-optiga-trust-charge/optiga/externals/mbedtls/library\bignum.c ****         u0 = A->p[i];
 7859              	 .loc 1 1693 0 discriminator 3
 7860 005e FB68     	 ldr r3,[r7,#12]
 7861 0060 9A68     	 ldr r2,[r3,#8]
 7862 0062 7B6A     	 ldr r3,[r7,#36]
 7863 0064 9B00     	 lsls r3,r3,#2
 7864 0066 1344     	 add r3,r3,r2
 7865 0068 1B68     	 ldr r3,[r3]
 7866 006a 7B61     	 str r3,[r7,#20]
1694:C:/Users/Yushev/git/wpcqi-optiga-trust-charge/optiga/externals/mbedtls/library\bignum.c ****         u1 = ( d[0] + u0 * B->p[0] ) * mm;
 7867              	 .loc 1 1694 0 discriminator 3
 7868 006c 3B6A     	 ldr r3,[r7,#32]
 7869 006e 1A68     	 ldr r2,[r3]
 7870 0070 BB68     	 ldr r3,[r7,#8]
 7871 0072 9B68     	 ldr r3,[r3,#8]
 7872 0074 1B68     	 ldr r3,[r3]
 7873 0076 7969     	 ldr r1,[r7,#20]
 7874 0078 01FB03F3 	 mul r3,r1,r3
 7875 007c 1344     	 add r3,r3,r2
 7876 007e 3A68     	 ldr r2,[r7]
 7877 0080 02FB03F3 	 mul r3,r2,r3
 7878 0084 3B61     	 str r3,[r7,#16]
1695:C:/Users/Yushev/git/wpcqi-optiga-trust-charge/optiga/externals/mbedtls/library\bignum.c **** 
1696:C:/Users/Yushev/git/wpcqi-optiga-trust-charge/optiga/externals/mbedtls/library\bignum.c ****         mpi_mul_hlp( m, B->p, d, u0 );
 7879              	 .loc 1 1696 0 discriminator 3
 7880 0086 BB68     	 ldr r3,[r7,#8]
 7881 0088 9B68     	 ldr r3,[r3,#8]
 7882 008a B869     	 ldr r0,[r7,#24]
 7883 008c 1946     	 mov r1,r3
 7884 008e 3A6A     	 ldr r2,[r7,#32]
 7885 0090 7B69     	 ldr r3,[r7,#20]
 7886 0092 FFF7FEFF 	 bl mpi_mul_hlp
1697:C:/Users/Yushev/git/wpcqi-optiga-trust-charge/optiga/externals/mbedtls/library\bignum.c ****         mpi_mul_hlp( n, N->p, d, u1 );
 7887              	 .loc 1 1697 0 discriminator 3
 7888 0096 7B68     	 ldr r3,[r7,#4]
 7889 0098 9B68     	 ldr r3,[r3,#8]
 7890 009a F869     	 ldr r0,[r7,#28]
 7891 009c 1946     	 mov r1,r3
 7892 009e 3A6A     	 ldr r2,[r7,#32]
 7893 00a0 3B69     	 ldr r3,[r7,#16]
 7894 00a2 FFF7FEFF 	 bl mpi_mul_hlp
1698:C:/Users/Yushev/git/wpcqi-optiga-trust-charge/optiga/externals/mbedtls/library\bignum.c **** 
1699:C:/Users/Yushev/git/wpcqi-optiga-trust-charge/optiga/externals/mbedtls/library\bignum.c ****         *d++ = u0; d[n + 1] = 0;
 7895              	 .loc 1 1699 0 discriminator 3
 7896 00a6 3B6A     	 ldr r3,[r7,#32]
 7897 00a8 1A1D     	 adds r2,r3,#4
 7898 00aa 3A62     	 str r2,[r7,#32]
 7899 00ac 7A69     	 ldr r2,[r7,#20]
 7900 00ae 1A60     	 str r2,[r3]
 7901 00b0 FB69     	 ldr r3,[r7,#28]
 7902 00b2 0133     	 adds r3,r3,#1
 7903 00b4 9B00     	 lsls r3,r3,#2
 7904 00b6 3A6A     	 ldr r2,[r7,#32]
 7905 00b8 1344     	 add r3,r3,r2
 7906 00ba 0022     	 movs r2,#0
 7907 00bc 1A60     	 str r2,[r3]
1688:C:/Users/Yushev/git/wpcqi-optiga-trust-charge/optiga/externals/mbedtls/library\bignum.c ****     {
 7908              	 .loc 1 1688 0 discriminator 3
 7909 00be 7B6A     	 ldr r3,[r7,#36]
 7910 00c0 0133     	 adds r3,r3,#1
 7911 00c2 7B62     	 str r3,[r7,#36]
 7912              	.L401:
1688:C:/Users/Yushev/git/wpcqi-optiga-trust-charge/optiga/externals/mbedtls/library\bignum.c ****     {
 7913              	 .loc 1 1688 0 is_stmt 0 discriminator 1
 7914 00c4 7A6A     	 ldr r2,[r7,#36]
 7915 00c6 FB69     	 ldr r3,[r7,#28]
 7916 00c8 9A42     	 cmp r2,r3
 7917 00ca C8D3     	 bcc .L402
1700:C:/Users/Yushev/git/wpcqi-optiga-trust-charge/optiga/externals/mbedtls/library\bignum.c ****     }
1701:C:/Users/Yushev/git/wpcqi-optiga-trust-charge/optiga/externals/mbedtls/library\bignum.c **** 
1702:C:/Users/Yushev/git/wpcqi-optiga-trust-charge/optiga/externals/mbedtls/library\bignum.c ****     memcpy( A->p, d, ( n + 1 ) * ciL );
 7918              	 .loc 1 1702 0 is_stmt 1
 7919 00cc FB68     	 ldr r3,[r7,#12]
 7920 00ce 9A68     	 ldr r2,[r3,#8]
 7921 00d0 FB69     	 ldr r3,[r7,#28]
 7922 00d2 0133     	 adds r3,r3,#1
 7923 00d4 9B00     	 lsls r3,r3,#2
 7924 00d6 1046     	 mov r0,r2
 7925 00d8 396A     	 ldr r1,[r7,#32]
 7926 00da 1A46     	 mov r2,r3
 7927 00dc FFF7FEFF 	 bl memcpy
1703:C:/Users/Yushev/git/wpcqi-optiga-trust-charge/optiga/externals/mbedtls/library\bignum.c **** 
1704:C:/Users/Yushev/git/wpcqi-optiga-trust-charge/optiga/externals/mbedtls/library\bignum.c ****     if( mbedtls_mpi_cmp_abs( A, N ) >= 0 )
 7928              	 .loc 1 1704 0
 7929 00e0 F868     	 ldr r0,[r7,#12]
 7930 00e2 7968     	 ldr r1,[r7,#4]
 7931 00e4 FFF7FEFF 	 bl mbedtls_mpi_cmp_abs
 7932 00e8 0346     	 mov r3,r0
 7933 00ea 002B     	 cmp r3,#0
 7934 00ec 09DB     	 blt .L403
1705:C:/Users/Yushev/git/wpcqi-optiga-trust-charge/optiga/externals/mbedtls/library\bignum.c ****         mpi_sub_hlp( n, N->p, A->p );
 7935              	 .loc 1 1705 0
 7936 00ee 7B68     	 ldr r3,[r7,#4]
 7937 00f0 9A68     	 ldr r2,[r3,#8]
 7938 00f2 FB68     	 ldr r3,[r7,#12]
 7939 00f4 9B68     	 ldr r3,[r3,#8]
 7940 00f6 F869     	 ldr r0,[r7,#28]
 7941 00f8 1146     	 mov r1,r2
 7942 00fa 1A46     	 mov r2,r3
 7943 00fc FFF7FEFF 	 bl mpi_sub_hlp
 7944 0100 08E0     	 b .L404
 7945              	.L403:
1706:C:/Users/Yushev/git/wpcqi-optiga-trust-charge/optiga/externals/mbedtls/library\bignum.c ****     else
1707:C:/Users/Yushev/git/wpcqi-optiga-trust-charge/optiga/externals/mbedtls/library\bignum.c ****         /* prevent timing attacks */
1708:C:/Users/Yushev/git/wpcqi-optiga-trust-charge/optiga/externals/mbedtls/library\bignum.c ****         mpi_sub_hlp( n, A->p, T->p );
 7946              	 .loc 1 1708 0
 7947 0102 FB68     	 ldr r3,[r7,#12]
 7948 0104 9A68     	 ldr r2,[r3,#8]
 7949 0106 3B6B     	 ldr r3,[r7,#48]
 7950 0108 9B68     	 ldr r3,[r3,#8]
 7951 010a F869     	 ldr r0,[r7,#28]
 7952 010c 1146     	 mov r1,r2
 7953 010e 1A46     	 mov r2,r3
 7954 0110 FFF7FEFF 	 bl mpi_sub_hlp
 7955              	.L404:
1709:C:/Users/Yushev/git/wpcqi-optiga-trust-charge/optiga/externals/mbedtls/library\bignum.c **** 
1710:C:/Users/Yushev/git/wpcqi-optiga-trust-charge/optiga/externals/mbedtls/library\bignum.c ****     return( 0 );
 7956              	 .loc 1 1710 0
 7957 0114 0023     	 movs r3,#0
 7958              	.L400:
1711:C:/Users/Yushev/git/wpcqi-optiga-trust-charge/optiga/externals/mbedtls/library\bignum.c **** }
 7959              	 .loc 1 1711 0
 7960 0116 1846     	 mov r0,r3
 7961 0118 2837     	 adds r7,r7,#40
 7962              	.LCFI229:
 7963              	 .cfi_def_cfa_offset 8
 7964 011a BD46     	 mov sp,r7
 7965              	.LCFI230:
 7966              	 .cfi_def_cfa_register 13
 7967              	 
 7968 011c 80BD     	 pop {r7,pc}
 7969              	 .cfi_endproc
 7970              	.LFE43:
 7972 011e 00BF     	 .section .text.mpi_montred,"ax",%progbits
 7973              	 .align 2
 7974              	 .thumb
 7975              	 .thumb_func
 7977              	mpi_montred:
 7978              	.LFB44:
1712:C:/Users/Yushev/git/wpcqi-optiga-trust-charge/optiga/externals/mbedtls/library\bignum.c **** 
1713:C:/Users/Yushev/git/wpcqi-optiga-trust-charge/optiga/externals/mbedtls/library\bignum.c **** /*
1714:C:/Users/Yushev/git/wpcqi-optiga-trust-charge/optiga/externals/mbedtls/library\bignum.c ****  * Montgomery reduction: A = A * R^-1 mod N
1715:C:/Users/Yushev/git/wpcqi-optiga-trust-charge/optiga/externals/mbedtls/library\bignum.c ****  */
1716:C:/Users/Yushev/git/wpcqi-optiga-trust-charge/optiga/externals/mbedtls/library\bignum.c **** static int mpi_montred( mbedtls_mpi *A, const mbedtls_mpi *N,
1717:C:/Users/Yushev/git/wpcqi-optiga-trust-charge/optiga/externals/mbedtls/library\bignum.c ****                         mbedtls_mpi_uint mm, const mbedtls_mpi *T )
1718:C:/Users/Yushev/git/wpcqi-optiga-trust-charge/optiga/externals/mbedtls/library\bignum.c **** {
 7979              	 .loc 1 1718 0
 7980              	 .cfi_startproc
 7981              	 
 7982              	 
 7983 0000 80B5     	 push {r7,lr}
 7984              	.LCFI231:
 7985              	 .cfi_def_cfa_offset 8
 7986              	 .cfi_offset 7,-8
 7987              	 .cfi_offset 14,-4
 7988 0002 8AB0     	 sub sp,sp,#40
 7989              	.LCFI232:
 7990              	 .cfi_def_cfa_offset 48
 7991 0004 02AF     	 add r7,sp,#8
 7992              	.LCFI233:
 7993              	 .cfi_def_cfa 7,40
 7994 0006 F860     	 str r0,[r7,#12]
 7995 0008 B960     	 str r1,[r7,#8]
 7996 000a 7A60     	 str r2,[r7,#4]
 7997 000c 3B60     	 str r3,[r7]
1719:C:/Users/Yushev/git/wpcqi-optiga-trust-charge/optiga/externals/mbedtls/library\bignum.c ****     mbedtls_mpi_uint z = 1;
 7998              	 .loc 1 1719 0
 7999 000e 0123     	 movs r3,#1
 8000 0010 FB61     	 str r3,[r7,#28]
1720:C:/Users/Yushev/git/wpcqi-optiga-trust-charge/optiga/externals/mbedtls/library\bignum.c ****     mbedtls_mpi U;
1721:C:/Users/Yushev/git/wpcqi-optiga-trust-charge/optiga/externals/mbedtls/library\bignum.c **** 
1722:C:/Users/Yushev/git/wpcqi-optiga-trust-charge/optiga/externals/mbedtls/library\bignum.c ****     U.n = U.s = (int) z;
 8001              	 .loc 1 1722 0
 8002 0012 FB69     	 ldr r3,[r7,#28]
 8003 0014 3B61     	 str r3,[r7,#16]
 8004 0016 3B69     	 ldr r3,[r7,#16]
 8005 0018 7B61     	 str r3,[r7,#20]
1723:C:/Users/Yushev/git/wpcqi-optiga-trust-charge/optiga/externals/mbedtls/library\bignum.c ****     U.p = &z;
 8006              	 .loc 1 1723 0
 8007 001a 07F11C03 	 add r3,r7,#28
 8008 001e BB61     	 str r3,[r7,#24]
1724:C:/Users/Yushev/git/wpcqi-optiga-trust-charge/optiga/externals/mbedtls/library\bignum.c **** 
1725:C:/Users/Yushev/git/wpcqi-optiga-trust-charge/optiga/externals/mbedtls/library\bignum.c ****     return( mpi_montmul( A, &U, N, mm, T ) );
 8009              	 .loc 1 1725 0
 8010 0020 07F11002 	 add r2,r7,#16
 8011 0024 3B68     	 ldr r3,[r7]
 8012 0026 0093     	 str r3,[sp]
 8013 0028 F868     	 ldr r0,[r7,#12]
 8014 002a 1146     	 mov r1,r2
 8015 002c BA68     	 ldr r2,[r7,#8]
 8016 002e 7B68     	 ldr r3,[r7,#4]
 8017 0030 FFF7FEFF 	 bl mpi_montmul
 8018 0034 0346     	 mov r3,r0
1726:C:/Users/Yushev/git/wpcqi-optiga-trust-charge/optiga/externals/mbedtls/library\bignum.c **** }
 8019              	 .loc 1 1726 0
 8020 0036 1846     	 mov r0,r3
 8021 0038 2037     	 adds r7,r7,#32
 8022              	.LCFI234:
 8023              	 .cfi_def_cfa_offset 8
 8024 003a BD46     	 mov sp,r7
 8025              	.LCFI235:
 8026              	 .cfi_def_cfa_register 13
 8027              	 
 8028 003c 80BD     	 pop {r7,pc}
 8029              	 .cfi_endproc
 8030              	.LFE44:
 8032 003e 00BF     	 .section .text.mbedtls_mpi_exp_mod,"ax",%progbits
 8033              	 .align 2
 8034              	 .global mbedtls_mpi_exp_mod
 8035              	 .thumb
 8036              	 .thumb_func
 8038              	mbedtls_mpi_exp_mod:
 8039              	.LFB45:
1727:C:/Users/Yushev/git/wpcqi-optiga-trust-charge/optiga/externals/mbedtls/library\bignum.c **** 
1728:C:/Users/Yushev/git/wpcqi-optiga-trust-charge/optiga/externals/mbedtls/library\bignum.c **** /*
1729:C:/Users/Yushev/git/wpcqi-optiga-trust-charge/optiga/externals/mbedtls/library\bignum.c ****  * Sliding-window exponentiation: X = A^E mod N  (HAC 14.85)
1730:C:/Users/Yushev/git/wpcqi-optiga-trust-charge/optiga/externals/mbedtls/library\bignum.c ****  */
1731:C:/Users/Yushev/git/wpcqi-optiga-trust-charge/optiga/externals/mbedtls/library\bignum.c **** int mbedtls_mpi_exp_mod( mbedtls_mpi *X, const mbedtls_mpi *A,
1732:C:/Users/Yushev/git/wpcqi-optiga-trust-charge/optiga/externals/mbedtls/library\bignum.c ****                          const mbedtls_mpi *E, const mbedtls_mpi *N,
1733:C:/Users/Yushev/git/wpcqi-optiga-trust-charge/optiga/externals/mbedtls/library\bignum.c ****                          mbedtls_mpi *_RR )
1734:C:/Users/Yushev/git/wpcqi-optiga-trust-charge/optiga/externals/mbedtls/library\bignum.c **** {
 8040              	 .loc 1 1734 0
 8041              	 .cfi_startproc
 8042              	 
 8043              	 
 8044 0000 B0B5     	 push {r4,r5,r7,lr}
 8045              	.LCFI236:
 8046              	 .cfi_def_cfa_offset 16
 8047              	 .cfi_offset 4,-16
 8048              	 .cfi_offset 5,-12
 8049              	 .cfi_offset 7,-8
 8050              	 .cfi_offset 14,-4
 8051 0002 ADF5CE6D 	 sub sp,sp,#1648
 8052              	.LCFI237:
 8053              	 .cfi_def_cfa_offset 1664
 8054 0006 02AF     	 add r7,sp,#8
 8055              	.LCFI238:
 8056              	 .cfi_def_cfa 7,1656
 8057 0008 07F10C04 	 add r4,r7,#12
 8058 000c 2060     	 str r0,[r4]
 8059 000e 07F10800 	 add r0,r7,#8
 8060 0012 0160     	 str r1,[r0]
 8061 0014 391D     	 adds r1,r7,#4
 8062 0016 0A60     	 str r2,[r1]
 8063 0018 3A46     	 mov r2,r7
 8064 001a 1360     	 str r3,[r2]
1735:C:/Users/Yushev/git/wpcqi-optiga-trust-charge/optiga/externals/mbedtls/library\bignum.c ****     int ret;
1736:C:/Users/Yushev/git/wpcqi-optiga-trust-charge/optiga/externals/mbedtls/library\bignum.c ****     size_t wbits, wsize, one = 1;
 8065              	 .loc 1 1736 0
 8066 001c 0123     	 movs r3,#1
 8067 001e C7F84436 	 str r3,[r7,#1604]
1737:C:/Users/Yushev/git/wpcqi-optiga-trust-charge/optiga/externals/mbedtls/library\bignum.c ****     size_t i, j, nblimbs;
1738:C:/Users/Yushev/git/wpcqi-optiga-trust-charge/optiga/externals/mbedtls/library\bignum.c ****     size_t bufsize, nbits;
1739:C:/Users/Yushev/git/wpcqi-optiga-trust-charge/optiga/externals/mbedtls/library\bignum.c ****     mbedtls_mpi_uint ei, mm, state;
1740:C:/Users/Yushev/git/wpcqi-optiga-trust-charge/optiga/externals/mbedtls/library\bignum.c ****     mbedtls_mpi RR, T, W[ 2 << MBEDTLS_MPI_WINDOW_SIZE ], Apos;
1741:C:/Users/Yushev/git/wpcqi-optiga-trust-charge/optiga/externals/mbedtls/library\bignum.c ****     int neg;
1742:C:/Users/Yushev/git/wpcqi-optiga-trust-charge/optiga/externals/mbedtls/library\bignum.c **** 
1743:C:/Users/Yushev/git/wpcqi-optiga-trust-charge/optiga/externals/mbedtls/library\bignum.c ****     MPI_VALIDATE_RET( X != NULL );
1744:C:/Users/Yushev/git/wpcqi-optiga-trust-charge/optiga/externals/mbedtls/library\bignum.c ****     MPI_VALIDATE_RET( A != NULL );
1745:C:/Users/Yushev/git/wpcqi-optiga-trust-charge/optiga/externals/mbedtls/library\bignum.c ****     MPI_VALIDATE_RET( E != NULL );
1746:C:/Users/Yushev/git/wpcqi-optiga-trust-charge/optiga/externals/mbedtls/library\bignum.c ****     MPI_VALIDATE_RET( N != NULL );
1747:C:/Users/Yushev/git/wpcqi-optiga-trust-charge/optiga/externals/mbedtls/library\bignum.c **** 
1748:C:/Users/Yushev/git/wpcqi-optiga-trust-charge/optiga/externals/mbedtls/library\bignum.c ****     if( mbedtls_mpi_cmp_int( N, 0 ) <= 0 || ( N->p[0] & 1 ) == 0 )
 8068              	 .loc 1 1748 0
 8069 0022 3B46     	 mov r3,r7
 8070 0024 1868     	 ldr r0,[r3]
 8071 0026 0021     	 movs r1,#0
 8072 0028 FFF7FEFF 	 bl mbedtls_mpi_cmp_int
 8073 002c 0346     	 mov r3,r0
 8074 002e 002B     	 cmp r3,#0
 8075 0030 07DD     	 ble .L408
 8076              	 .loc 1 1748 0 is_stmt 0 discriminator 1
 8077 0032 3B46     	 mov r3,r7
 8078 0034 1B68     	 ldr r3,[r3]
 8079 0036 9B68     	 ldr r3,[r3,#8]
 8080 0038 1B68     	 ldr r3,[r3]
 8081 003a 03F00103 	 and r3,r3,#1
 8082 003e 002B     	 cmp r3,#0
 8083 0040 02D1     	 bne .L409
 8084              	.L408:
1749:C:/Users/Yushev/git/wpcqi-optiga-trust-charge/optiga/externals/mbedtls/library\bignum.c ****         return( MBEDTLS_ERR_MPI_BAD_INPUT_DATA );
 8085              	 .loc 1 1749 0 is_stmt 1
 8086 0042 6FF00303 	 mvn r3,#3
 8087 0046 D3E3     	 b .L471
 8088              	.L409:
1750:C:/Users/Yushev/git/wpcqi-optiga-trust-charge/optiga/externals/mbedtls/library\bignum.c **** 
1751:C:/Users/Yushev/git/wpcqi-optiga-trust-charge/optiga/externals/mbedtls/library\bignum.c ****     if( mbedtls_mpi_cmp_int( E, 0 ) < 0 )
 8089              	 .loc 1 1751 0
 8090 0048 3B1D     	 adds r3,r7,#4
 8091 004a 1868     	 ldr r0,[r3]
 8092 004c 0021     	 movs r1,#0
 8093 004e FFF7FEFF 	 bl mbedtls_mpi_cmp_int
 8094 0052 0346     	 mov r3,r0
 8095 0054 002B     	 cmp r3,#0
 8096 0056 02DA     	 bge .L411
1752:C:/Users/Yushev/git/wpcqi-optiga-trust-charge/optiga/externals/mbedtls/library\bignum.c ****         return( MBEDTLS_ERR_MPI_BAD_INPUT_DATA );
 8097              	 .loc 1 1752 0
 8098 0058 6FF00303 	 mvn r3,#3
 8099 005c C8E3     	 b .L471
 8100              	.L411:
1753:C:/Users/Yushev/git/wpcqi-optiga-trust-charge/optiga/externals/mbedtls/library\bignum.c **** 
1754:C:/Users/Yushev/git/wpcqi-optiga-trust-charge/optiga/externals/mbedtls/library\bignum.c ****     /*
1755:C:/Users/Yushev/git/wpcqi-optiga-trust-charge/optiga/externals/mbedtls/library\bignum.c ****      * Init temps and window size
1756:C:/Users/Yushev/git/wpcqi-optiga-trust-charge/optiga/externals/mbedtls/library\bignum.c ****      */
1757:C:/Users/Yushev/git/wpcqi-optiga-trust-charge/optiga/externals/mbedtls/library\bignum.c ****     mpi_montg_init( &mm, N );
 8101              	 .loc 1 1757 0
 8102 005e 07F23462 	 addw r2,r7,#1588
 8103 0062 3B46     	 mov r3,r7
 8104 0064 1046     	 mov r0,r2
 8105 0066 1968     	 ldr r1,[r3]
 8106 0068 FFF7FEFF 	 bl mpi_montg_init
1758:C:/Users/Yushev/git/wpcqi-optiga-trust-charge/optiga/externals/mbedtls/library\bignum.c ****     mbedtls_mpi_init( &RR ); mbedtls_mpi_init( &T );
 8107              	 .loc 1 1758 0
 8108 006c 07F5C563 	 add r3,r7,#1576
 8109 0070 1846     	 mov r0,r3
 8110 0072 FFF7FEFF 	 bl mbedtls_mpi_init
 8111 0076 07F21C63 	 addw r3,r7,#1564
 8112 007a 1846     	 mov r0,r3
 8113 007c FFF7FEFF 	 bl mbedtls_mpi_init
1759:C:/Users/Yushev/git/wpcqi-optiga-trust-charge/optiga/externals/mbedtls/library\bignum.c ****     mbedtls_mpi_init( &Apos );
 8114              	 .loc 1 1759 0
 8115 0080 07F11003 	 add r3,r7,#16
 8116 0084 1846     	 mov r0,r3
 8117 0086 FFF7FEFF 	 bl mbedtls_mpi_init
1760:C:/Users/Yushev/git/wpcqi-optiga-trust-charge/optiga/externals/mbedtls/library\bignum.c ****     memset( W, 0, sizeof( W ) );
 8118              	 .loc 1 1760 0
 8119 008a 07F11C03 	 add r3,r7,#28
 8120 008e 1846     	 mov r0,r3
 8121 0090 0021     	 movs r1,#0
 8122 0092 4FF4C062 	 mov r2,#1536
 8123 0096 FFF7FEFF 	 bl memset
1761:C:/Users/Yushev/git/wpcqi-optiga-trust-charge/optiga/externals/mbedtls/library\bignum.c **** 
1762:C:/Users/Yushev/git/wpcqi-optiga-trust-charge/optiga/externals/mbedtls/library\bignum.c ****     i = mbedtls_mpi_bitlen( E );
 8124              	 .loc 1 1762 0
 8125 009a 3B1D     	 adds r3,r7,#4
 8126 009c 1868     	 ldr r0,[r3]
 8127 009e FFF7FEFF 	 bl mbedtls_mpi_bitlen
 8128 00a2 C7F85806 	 str r0,[r7,#1624]
1763:C:/Users/Yushev/git/wpcqi-optiga-trust-charge/optiga/externals/mbedtls/library\bignum.c **** 
1764:C:/Users/Yushev/git/wpcqi-optiga-trust-charge/optiga/externals/mbedtls/library\bignum.c ****     wsize = ( i > 671 ) ? 6 : ( i > 239 ) ? 5 :
 8129              	 .loc 1 1764 0
 8130 00a6 D7F85836 	 ldr r3,[r7,#1624]
 8131 00aa B3F5287F 	 cmp r3,#672
 8132 00ae 13D2     	 bcs .L412
 8133              	 .loc 1 1764 0 is_stmt 0 discriminator 1
 8134 00b0 D7F85836 	 ldr r3,[r7,#1624]
 8135 00b4 EF2B     	 cmp r3,#239
 8136 00b6 0DD8     	 bhi .L413
 8137              	 .loc 1 1764 0 discriminator 3
 8138 00b8 D7F85836 	 ldr r3,[r7,#1624]
 8139 00bc 4F2B     	 cmp r3,#79
 8140 00be 07D8     	 bhi .L414
 8141              	 .loc 1 1764 0 discriminator 5
 8142 00c0 D7F85836 	 ldr r3,[r7,#1624]
 8143 00c4 172B     	 cmp r3,#23
 8144 00c6 01D9     	 bls .L415
 8145              	 .loc 1 1764 0 discriminator 7
 8146 00c8 0323     	 movs r3,#3
 8147 00ca 06E0     	 b .L419
 8148              	.L415:
 8149              	 .loc 1 1764 0 discriminator 8
 8150 00cc 0123     	 movs r3,#1
 8151 00ce 04E0     	 b .L419
 8152              	.L414:
 8153              	 .loc 1 1764 0 discriminator 6
 8154 00d0 0423     	 movs r3,#4
 8155 00d2 02E0     	 b .L419
 8156              	.L413:
 8157              	 .loc 1 1764 0 discriminator 4
 8158 00d4 0523     	 movs r3,#5
 8159 00d6 00E0     	 b .L419
 8160              	.L412:
 8161              	 .loc 1 1764 0 discriminator 2
 8162 00d8 0623     	 movs r3,#6
 8163              	.L419:
 8164              	 .loc 1 1764 0 discriminator 16
 8165 00da C7F85C36 	 str r3,[r7,#1628]
1765:C:/Users/Yushev/git/wpcqi-optiga-trust-charge/optiga/externals/mbedtls/library\bignum.c ****             ( i >  79 ) ? 4 : ( i >  23 ) ? 3 : 1;
1766:C:/Users/Yushev/git/wpcqi-optiga-trust-charge/optiga/externals/mbedtls/library\bignum.c **** 
1767:C:/Users/Yushev/git/wpcqi-optiga-trust-charge/optiga/externals/mbedtls/library\bignum.c ****     if( wsize > MBEDTLS_MPI_WINDOW_SIZE )
 8166              	 .loc 1 1767 0 is_stmt 1 discriminator 16
 8167 00de D7F85C36 	 ldr r3,[r7,#1628]
 8168 00e2 062B     	 cmp r3,#6
 8169 00e4 02D9     	 bls .L420
1768:C:/Users/Yushev/git/wpcqi-optiga-trust-charge/optiga/externals/mbedtls/library\bignum.c ****         wsize = MBEDTLS_MPI_WINDOW_SIZE;
 8170              	 .loc 1 1768 0
 8171 00e6 0623     	 movs r3,#6
 8172 00e8 C7F85C36 	 str r3,[r7,#1628]
 8173              	.L420:
1769:C:/Users/Yushev/git/wpcqi-optiga-trust-charge/optiga/externals/mbedtls/library\bignum.c **** 
1770:C:/Users/Yushev/git/wpcqi-optiga-trust-charge/optiga/externals/mbedtls/library\bignum.c ****     j = N->n + 1;
 8174              	 .loc 1 1770 0
 8175 00ec 3B46     	 mov r3,r7
 8176 00ee 1B68     	 ldr r3,[r3]
 8177 00f0 5B68     	 ldr r3,[r3,#4]
 8178 00f2 0133     	 adds r3,r3,#1
 8179 00f4 C7F84036 	 str r3,[r7,#1600]
1771:C:/Users/Yushev/git/wpcqi-optiga-trust-charge/optiga/externals/mbedtls/library\bignum.c ****     MBEDTLS_MPI_CHK( mbedtls_mpi_grow( X, j ) );
 8180              	 .loc 1 1771 0
 8181 00f8 07F10C03 	 add r3,r7,#12
 8182 00fc 1868     	 ldr r0,[r3]
 8183 00fe D7F84016 	 ldr r1,[r7,#1600]
 8184 0102 FFF7FEFF 	 bl mbedtls_mpi_grow
 8185 0106 C7F86406 	 str r0,[r7,#1636]
 8186 010a D7F86436 	 ldr r3,[r7,#1636]
 8187 010e 002B     	 cmp r3,#0
 8188 0110 00D0     	 beq .L421
 8189 0112 29E3     	 b .L422
 8190              	.L421:
1772:C:/Users/Yushev/git/wpcqi-optiga-trust-charge/optiga/externals/mbedtls/library\bignum.c ****     MBEDTLS_MPI_CHK( mbedtls_mpi_grow( &W[1],  j ) );
 8191              	 .loc 1 1772 0
 8192 0114 07F11C03 	 add r3,r7,#28
 8193 0118 0C33     	 adds r3,r3,#12
 8194 011a 1846     	 mov r0,r3
 8195 011c D7F84016 	 ldr r1,[r7,#1600]
 8196 0120 FFF7FEFF 	 bl mbedtls_mpi_grow
 8197 0124 C7F86406 	 str r0,[r7,#1636]
 8198 0128 D7F86436 	 ldr r3,[r7,#1636]
 8199 012c 002B     	 cmp r3,#0
 8200 012e 00D0     	 beq .L423
 8201 0130 1AE3     	 b .L422
 8202              	.L423:
1773:C:/Users/Yushev/git/wpcqi-optiga-trust-charge/optiga/externals/mbedtls/library\bignum.c ****     MBEDTLS_MPI_CHK( mbedtls_mpi_grow( &T, j * 2 ) );
 8203              	 .loc 1 1773 0
 8204 0132 D7F84036 	 ldr r3,[r7,#1600]
 8205 0136 5B00     	 lsls r3,r3,#1
 8206 0138 07F21C62 	 addw r2,r7,#1564
 8207 013c 1046     	 mov r0,r2
 8208 013e 1946     	 mov r1,r3
 8209 0140 FFF7FEFF 	 bl mbedtls_mpi_grow
 8210 0144 C7F86406 	 str r0,[r7,#1636]
 8211 0148 D7F86436 	 ldr r3,[r7,#1636]
 8212 014c 002B     	 cmp r3,#0
 8213 014e 00D0     	 beq .L424
 8214 0150 0AE3     	 b .L422
 8215              	.L424:
1774:C:/Users/Yushev/git/wpcqi-optiga-trust-charge/optiga/externals/mbedtls/library\bignum.c **** 
1775:C:/Users/Yushev/git/wpcqi-optiga-trust-charge/optiga/externals/mbedtls/library\bignum.c ****     /*
1776:C:/Users/Yushev/git/wpcqi-optiga-trust-charge/optiga/externals/mbedtls/library\bignum.c ****      * Compensate for negative A (and correct at the end)
1777:C:/Users/Yushev/git/wpcqi-optiga-trust-charge/optiga/externals/mbedtls/library\bignum.c ****      */
1778:C:/Users/Yushev/git/wpcqi-optiga-trust-charge/optiga/externals/mbedtls/library\bignum.c ****     neg = ( A->s == -1 );
 8216              	 .loc 1 1778 0
 8217 0152 07F10803 	 add r3,r7,#8
 8218 0156 1B68     	 ldr r3,[r3]
 8219 0158 1B68     	 ldr r3,[r3]
 8220 015a B3F1FF3F 	 cmp r3,#-1
 8221 015e 0CBF     	 ite eq
 8222 0160 0123     	 moveq r3,#1
 8223 0162 0023     	 movne r3,#0
 8224 0164 DBB2     	 uxtb r3,r3
 8225 0166 C7F83C36 	 str r3,[r7,#1596]
1779:C:/Users/Yushev/git/wpcqi-optiga-trust-charge/optiga/externals/mbedtls/library\bignum.c ****     if( neg )
 8226              	 .loc 1 1779 0
 8227 016a D7F83C36 	 ldr r3,[r7,#1596]
 8228 016e 002B     	 cmp r3,#0
 8229 0170 17D0     	 beq .L425
1780:C:/Users/Yushev/git/wpcqi-optiga-trust-charge/optiga/externals/mbedtls/library\bignum.c ****     {
1781:C:/Users/Yushev/git/wpcqi-optiga-trust-charge/optiga/externals/mbedtls/library\bignum.c ****         MBEDTLS_MPI_CHK( mbedtls_mpi_copy( &Apos, A ) );
 8230              	 .loc 1 1781 0
 8231 0172 07F11002 	 add r2,r7,#16
 8232 0176 07F10803 	 add r3,r7,#8
 8233 017a 1046     	 mov r0,r2
 8234 017c 1968     	 ldr r1,[r3]
 8235 017e FFF7FEFF 	 bl mbedtls_mpi_copy
 8236 0182 C7F86406 	 str r0,[r7,#1636]
 8237 0186 D7F86436 	 ldr r3,[r7,#1636]
 8238 018a 002B     	 cmp r3,#0
 8239 018c 00D0     	 beq .L426
 8240 018e EBE2     	 b .L422
 8241              	.L426:
1782:C:/Users/Yushev/git/wpcqi-optiga-trust-charge/optiga/externals/mbedtls/library\bignum.c ****         Apos.s = 1;
 8242              	 .loc 1 1782 0
 8243 0190 07F11003 	 add r3,r7,#16
 8244 0194 0122     	 movs r2,#1
 8245 0196 1A60     	 str r2,[r3]
1783:C:/Users/Yushev/git/wpcqi-optiga-trust-charge/optiga/externals/mbedtls/library\bignum.c ****         A = &Apos;
 8246              	 .loc 1 1783 0
 8247 0198 07F10803 	 add r3,r7,#8
 8248 019c 07F11002 	 add r2,r7,#16
 8249 01a0 1A60     	 str r2,[r3]
 8250              	.L425:
1784:C:/Users/Yushev/git/wpcqi-optiga-trust-charge/optiga/externals/mbedtls/library\bignum.c ****     }
1785:C:/Users/Yushev/git/wpcqi-optiga-trust-charge/optiga/externals/mbedtls/library\bignum.c **** 
1786:C:/Users/Yushev/git/wpcqi-optiga-trust-charge/optiga/externals/mbedtls/library\bignum.c ****     /*
1787:C:/Users/Yushev/git/wpcqi-optiga-trust-charge/optiga/externals/mbedtls/library\bignum.c ****      * If 1st call, pre-compute R^2 mod N
1788:C:/Users/Yushev/git/wpcqi-optiga-trust-charge/optiga/externals/mbedtls/library\bignum.c ****      */
1789:C:/Users/Yushev/git/wpcqi-optiga-trust-charge/optiga/externals/mbedtls/library\bignum.c ****     if( _RR == NULL || _RR->p == NULL )
 8251              	 .loc 1 1789 0
 8252 01a2 D7F87836 	 ldr r3,[r7,#1656]
 8253 01a6 002B     	 cmp r3,#0
 8254 01a8 04D0     	 beq .L427
 8255              	 .loc 1 1789 0 is_stmt 0 discriminator 1
 8256 01aa D7F87836 	 ldr r3,[r7,#1656]
 8257 01ae 9B68     	 ldr r3,[r3,#8]
 8258 01b0 002B     	 cmp r3,#0
 8259 01b2 3CD1     	 bne .L428
 8260              	.L427:
1790:C:/Users/Yushev/git/wpcqi-optiga-trust-charge/optiga/externals/mbedtls/library\bignum.c ****     {
1791:C:/Users/Yushev/git/wpcqi-optiga-trust-charge/optiga/externals/mbedtls/library\bignum.c ****         MBEDTLS_MPI_CHK( mbedtls_mpi_lset( &RR, 1 ) );
 8261              	 .loc 1 1791 0 is_stmt 1
 8262 01b4 07F5C563 	 add r3,r7,#1576
 8263 01b8 1846     	 mov r0,r3
 8264 01ba 0121     	 movs r1,#1
 8265 01bc FFF7FEFF 	 bl mbedtls_mpi_lset
 8266 01c0 C7F86406 	 str r0,[r7,#1636]
 8267 01c4 D7F86436 	 ldr r3,[r7,#1636]
 8268 01c8 002B     	 cmp r3,#0
 8269 01ca 00D0     	 beq .L429
 8270 01cc CCE2     	 b .L422
 8271              	.L429:
1792:C:/Users/Yushev/git/wpcqi-optiga-trust-charge/optiga/externals/mbedtls/library\bignum.c ****         MBEDTLS_MPI_CHK( mbedtls_mpi_shift_l( &RR, N->n * 2 * biL ) );
 8272              	 .loc 1 1792 0
 8273 01ce 3B46     	 mov r3,r7
 8274 01d0 1B68     	 ldr r3,[r3]
 8275 01d2 5B68     	 ldr r3,[r3,#4]
 8276 01d4 9B01     	 lsls r3,r3,#6
 8277 01d6 07F5C562 	 add r2,r7,#1576
 8278 01da 1046     	 mov r0,r2
 8279 01dc 1946     	 mov r1,r3
 8280 01de FFF7FEFF 	 bl mbedtls_mpi_shift_l
 8281 01e2 C7F86406 	 str r0,[r7,#1636]
 8282 01e6 D7F86436 	 ldr r3,[r7,#1636]
 8283 01ea 002B     	 cmp r3,#0
 8284 01ec 00D0     	 beq .L430
 8285 01ee BBE2     	 b .L422
 8286              	.L430:
1793:C:/Users/Yushev/git/wpcqi-optiga-trust-charge/optiga/externals/mbedtls/library\bignum.c ****         MBEDTLS_MPI_CHK( mbedtls_mpi_mod_mpi( &RR, &RR, N ) );
 8287              	 .loc 1 1793 0
 8288 01f0 07F5C561 	 add r1,r7,#1576
 8289 01f4 07F5C562 	 add r2,r7,#1576
 8290 01f8 3B46     	 mov r3,r7
 8291 01fa 0846     	 mov r0,r1
 8292 01fc 1146     	 mov r1,r2
 8293 01fe 1A68     	 ldr r2,[r3]
 8294 0200 FFF7FEFF 	 bl mbedtls_mpi_mod_mpi
 8295 0204 C7F86406 	 str r0,[r7,#1636]
 8296 0208 D7F86436 	 ldr r3,[r7,#1636]
 8297 020c 002B     	 cmp r3,#0
 8298 020e 00D0     	 beq .L431
 8299 0210 AAE2     	 b .L422
 8300              	.L431:
1794:C:/Users/Yushev/git/wpcqi-optiga-trust-charge/optiga/externals/mbedtls/library\bignum.c **** 
1795:C:/Users/Yushev/git/wpcqi-optiga-trust-charge/optiga/externals/mbedtls/library\bignum.c ****         if( _RR != NULL )
 8301              	 .loc 1 1795 0
 8302 0212 D7F87836 	 ldr r3,[r7,#1656]
 8303 0216 002B     	 cmp r3,#0
 8304 0218 08D0     	 beq .L432
1796:C:/Users/Yushev/git/wpcqi-optiga-trust-charge/optiga/externals/mbedtls/library\bignum.c ****             memcpy( _RR, &RR, sizeof( mbedtls_mpi ) );
 8305              	 .loc 1 1796 0
 8306 021a 07F5C563 	 add r3,r7,#1576
 8307 021e D7F87806 	 ldr r0,[r7,#1656]
 8308 0222 1946     	 mov r1,r3
 8309 0224 0C22     	 movs r2,#12
 8310 0226 FFF7FEFF 	 bl memcpy
1795:C:/Users/Yushev/git/wpcqi-optiga-trust-charge/optiga/externals/mbedtls/library\bignum.c ****             memcpy( _RR, &RR, sizeof( mbedtls_mpi ) );
 8311              	 .loc 1 1795 0
 8312 022a 08E0     	 b .L433
 8313              	.L432:
 8314 022c 07E0     	 b .L433
 8315              	.L428:
1797:C:/Users/Yushev/git/wpcqi-optiga-trust-charge/optiga/externals/mbedtls/library\bignum.c ****     }
1798:C:/Users/Yushev/git/wpcqi-optiga-trust-charge/optiga/externals/mbedtls/library\bignum.c ****     else
1799:C:/Users/Yushev/git/wpcqi-optiga-trust-charge/optiga/externals/mbedtls/library\bignum.c ****         memcpy( &RR, _RR, sizeof( mbedtls_mpi ) );
 8316              	 .loc 1 1799 0
 8317 022e 07F5C563 	 add r3,r7,#1576
 8318 0232 1846     	 mov r0,r3
 8319 0234 D7F87816 	 ldr r1,[r7,#1656]
 8320 0238 0C22     	 movs r2,#12
 8321 023a FFF7FEFF 	 bl memcpy
 8322              	.L433:
1800:C:/Users/Yushev/git/wpcqi-optiga-trust-charge/optiga/externals/mbedtls/library\bignum.c **** 
1801:C:/Users/Yushev/git/wpcqi-optiga-trust-charge/optiga/externals/mbedtls/library\bignum.c ****     /*
1802:C:/Users/Yushev/git/wpcqi-optiga-trust-charge/optiga/externals/mbedtls/library\bignum.c ****      * W[1] = A * R^2 * R^-1 mod N = A * R mod N
1803:C:/Users/Yushev/git/wpcqi-optiga-trust-charge/optiga/externals/mbedtls/library\bignum.c ****      */
1804:C:/Users/Yushev/git/wpcqi-optiga-trust-charge/optiga/externals/mbedtls/library\bignum.c ****     if( mbedtls_mpi_cmp_mpi( A, N ) >= 0 )
 8323              	 .loc 1 1804 0
 8324 023e 07F10802 	 add r2,r7,#8
 8325 0242 3B46     	 mov r3,r7
 8326 0244 1068     	 ldr r0,[r2]
 8327 0246 1968     	 ldr r1,[r3]
 8328 0248 FFF7FEFF 	 bl mbedtls_mpi_cmp_mpi
 8329 024c 0346     	 mov r3,r0
 8330 024e 002B     	 cmp r3,#0
 8331 0250 12DB     	 blt .L434
1805:C:/Users/Yushev/git/wpcqi-optiga-trust-charge/optiga/externals/mbedtls/library\bignum.c ****         MBEDTLS_MPI_CHK( mbedtls_mpi_mod_mpi( &W[1], A, N ) );
 8332              	 .loc 1 1805 0
 8333 0252 07F11C03 	 add r3,r7,#28
 8334 0256 03F10C01 	 add r1,r3,#12
 8335 025a 07F10802 	 add r2,r7,#8
 8336 025e 3B46     	 mov r3,r7
 8337 0260 0846     	 mov r0,r1
 8338 0262 1168     	 ldr r1,[r2]
 8339 0264 1A68     	 ldr r2,[r3]
 8340 0266 FFF7FEFF 	 bl mbedtls_mpi_mod_mpi
 8341 026a C7F86406 	 str r0,[r7,#1636]
 8342 026e D7F86436 	 ldr r3,[r7,#1636]
 8343 0272 002B     	 cmp r3,#0
 8344 0274 11D0     	 beq .L435
 8345 0276 77E2     	 b .L422
 8346              	.L434:
1806:C:/Users/Yushev/git/wpcqi-optiga-trust-charge/optiga/externals/mbedtls/library\bignum.c ****     else
1807:C:/Users/Yushev/git/wpcqi-optiga-trust-charge/optiga/externals/mbedtls/library\bignum.c ****         MBEDTLS_MPI_CHK( mbedtls_mpi_copy( &W[1], A ) );
 8347              	 .loc 1 1807 0
 8348 0278 07F11C03 	 add r3,r7,#28
 8349 027c 03F10C02 	 add r2,r3,#12
 8350 0280 07F10803 	 add r3,r7,#8
 8351 0284 1046     	 mov r0,r2
 8352 0286 1968     	 ldr r1,[r3]
 8353 0288 FFF7FEFF 	 bl mbedtls_mpi_copy
 8354 028c C7F86406 	 str r0,[r7,#1636]
 8355 0290 D7F86436 	 ldr r3,[r7,#1636]
 8356 0294 002B     	 cmp r3,#0
 8357 0296 00D0     	 beq .L435
 8358 0298 66E2     	 b .L422
 8359              	.L435:
1808:C:/Users/Yushev/git/wpcqi-optiga-trust-charge/optiga/externals/mbedtls/library\bignum.c **** 
1809:C:/Users/Yushev/git/wpcqi-optiga-trust-charge/optiga/externals/mbedtls/library\bignum.c ****     MBEDTLS_MPI_CHK( mpi_montmul( &W[1], &RR, N, mm, &T ) );
 8360              	 .loc 1 1809 0
 8361 029a D7F83446 	 ldr r4,[r7,#1588]
 8362 029e 07F11C03 	 add r3,r7,#28
 8363 02a2 03F10C00 	 add r0,r3,#12
 8364 02a6 07F5C561 	 add r1,r7,#1576
 8365 02aa 3B46     	 mov r3,r7
 8366 02ac 07F21C62 	 addw r2,r7,#1564
 8367 02b0 0092     	 str r2,[sp]
 8368 02b2 1A68     	 ldr r2,[r3]
 8369 02b4 2346     	 mov r3,r4
 8370 02b6 FFF7FEFF 	 bl mpi_montmul
 8371 02ba C7F86406 	 str r0,[r7,#1636]
 8372 02be D7F86436 	 ldr r3,[r7,#1636]
 8373 02c2 002B     	 cmp r3,#0
 8374 02c4 00D0     	 beq .L436
 8375 02c6 4FE2     	 b .L422
 8376              	.L436:
1810:C:/Users/Yushev/git/wpcqi-optiga-trust-charge/optiga/externals/mbedtls/library\bignum.c **** 
1811:C:/Users/Yushev/git/wpcqi-optiga-trust-charge/optiga/externals/mbedtls/library\bignum.c ****     /*
1812:C:/Users/Yushev/git/wpcqi-optiga-trust-charge/optiga/externals/mbedtls/library\bignum.c ****      * X = R^2 * R^-1 mod N = R mod N
1813:C:/Users/Yushev/git/wpcqi-optiga-trust-charge/optiga/externals/mbedtls/library\bignum.c ****      */
1814:C:/Users/Yushev/git/wpcqi-optiga-trust-charge/optiga/externals/mbedtls/library\bignum.c ****     MBEDTLS_MPI_CHK( mbedtls_mpi_copy( X, &RR ) );
 8377              	 .loc 1 1814 0
 8378 02c8 07F10C03 	 add r3,r7,#12
 8379 02cc 07F5C562 	 add r2,r7,#1576
 8380 02d0 1868     	 ldr r0,[r3]
 8381 02d2 1146     	 mov r1,r2
 8382 02d4 FFF7FEFF 	 bl mbedtls_mpi_copy
 8383 02d8 C7F86406 	 str r0,[r7,#1636]
 8384 02dc D7F86436 	 ldr r3,[r7,#1636]
 8385 02e0 002B     	 cmp r3,#0
 8386 02e2 00D0     	 beq .L437
 8387 02e4 40E2     	 b .L422
 8388              	.L437:
1815:C:/Users/Yushev/git/wpcqi-optiga-trust-charge/optiga/externals/mbedtls/library\bignum.c ****     MBEDTLS_MPI_CHK( mpi_montred( X, N, mm, &T ) );
 8389              	 .loc 1 1815 0
 8390 02e6 D7F83456 	 ldr r5,[r7,#1588]
 8391 02ea 07F10C02 	 add r2,r7,#12
 8392 02ee 3B46     	 mov r3,r7
 8393 02f0 07F21C64 	 addw r4,r7,#1564
 8394 02f4 1068     	 ldr r0,[r2]
 8395 02f6 1968     	 ldr r1,[r3]
 8396 02f8 2A46     	 mov r2,r5
 8397 02fa 2346     	 mov r3,r4
 8398 02fc FFF7FEFF 	 bl mpi_montred
 8399 0300 C7F86406 	 str r0,[r7,#1636]
 8400 0304 D7F86436 	 ldr r3,[r7,#1636]
 8401 0308 002B     	 cmp r3,#0
 8402 030a 00D0     	 beq .L438
 8403 030c 2CE2     	 b .L422
 8404              	.L438:
1816:C:/Users/Yushev/git/wpcqi-optiga-trust-charge/optiga/externals/mbedtls/library\bignum.c **** 
1817:C:/Users/Yushev/git/wpcqi-optiga-trust-charge/optiga/externals/mbedtls/library\bignum.c ****     if( wsize > 1 )
 8405              	 .loc 1 1817 0
 8406 030e D7F85C36 	 ldr r3,[r7,#1628]
 8407 0312 012B     	 cmp r3,#1
 8408 0314 40F2D280 	 bls .L439
1818:C:/Users/Yushev/git/wpcqi-optiga-trust-charge/optiga/externals/mbedtls/library\bignum.c ****     {
1819:C:/Users/Yushev/git/wpcqi-optiga-trust-charge/optiga/externals/mbedtls/library\bignum.c ****         /*
1820:C:/Users/Yushev/git/wpcqi-optiga-trust-charge/optiga/externals/mbedtls/library\bignum.c ****          * W[1 << (wsize - 1)] = W[1] ^ (wsize - 1)
1821:C:/Users/Yushev/git/wpcqi-optiga-trust-charge/optiga/externals/mbedtls/library\bignum.c ****          */
1822:C:/Users/Yushev/git/wpcqi-optiga-trust-charge/optiga/externals/mbedtls/library\bignum.c ****         j =  one << ( wsize - 1 );
 8409              	 .loc 1 1822 0
 8410 0318 D7F85C36 	 ldr r3,[r7,#1628]
 8411 031c 013B     	 subs r3,r3,#1
 8412 031e 1A46     	 mov r2,r3
 8413 0320 D7F84436 	 ldr r3,[r7,#1604]
 8414 0324 9340     	 lsls r3,r3,r2
 8415 0326 C7F84036 	 str r3,[r7,#1600]
1823:C:/Users/Yushev/git/wpcqi-optiga-trust-charge/optiga/externals/mbedtls/library\bignum.c **** 
1824:C:/Users/Yushev/git/wpcqi-optiga-trust-charge/optiga/externals/mbedtls/library\bignum.c ****         MBEDTLS_MPI_CHK( mbedtls_mpi_grow( &W[j], N->n + 1 ) );
 8416              	 .loc 1 1824 0
 8417 032a 07F11C01 	 add r1,r7,#28
 8418 032e D7F84026 	 ldr r2,[r7,#1600]
 8419 0332 1346     	 mov r3,r2
 8420 0334 5B00     	 lsls r3,r3,#1
 8421 0336 1344     	 add r3,r3,r2
 8422 0338 9B00     	 lsls r3,r3,#2
 8423 033a CA18     	 adds r2,r1,r3
 8424 033c 3B46     	 mov r3,r7
 8425 033e 1B68     	 ldr r3,[r3]
 8426 0340 5B68     	 ldr r3,[r3,#4]
 8427 0342 0133     	 adds r3,r3,#1
 8428 0344 1046     	 mov r0,r2
 8429 0346 1946     	 mov r1,r3
 8430 0348 FFF7FEFF 	 bl mbedtls_mpi_grow
 8431 034c C7F86406 	 str r0,[r7,#1636]
 8432 0350 D7F86436 	 ldr r3,[r7,#1636]
 8433 0354 002B     	 cmp r3,#0
 8434 0356 00D0     	 beq .L440
 8435 0358 06E2     	 b .L422
 8436              	.L440:
1825:C:/Users/Yushev/git/wpcqi-optiga-trust-charge/optiga/externals/mbedtls/library\bignum.c ****         MBEDTLS_MPI_CHK( mbedtls_mpi_copy( &W[j], &W[1]    ) );
 8437              	 .loc 1 1825 0
 8438 035a 07F11C01 	 add r1,r7,#28
 8439 035e D7F84026 	 ldr r2,[r7,#1600]
 8440 0362 1346     	 mov r3,r2
 8441 0364 5B00     	 lsls r3,r3,#1
 8442 0366 1344     	 add r3,r3,r2
 8443 0368 9B00     	 lsls r3,r3,#2
 8444 036a CA18     	 adds r2,r1,r3
 8445 036c 07F11C03 	 add r3,r7,#28
 8446 0370 0C33     	 adds r3,r3,#12
 8447 0372 1046     	 mov r0,r2
 8448 0374 1946     	 mov r1,r3
 8449 0376 FFF7FEFF 	 bl mbedtls_mpi_copy
 8450 037a C7F86406 	 str r0,[r7,#1636]
 8451 037e D7F86436 	 ldr r3,[r7,#1636]
 8452 0382 002B     	 cmp r3,#0
 8453 0384 00D0     	 beq .L441
 8454 0386 EFE1     	 b .L422
 8455              	.L441:
1826:C:/Users/Yushev/git/wpcqi-optiga-trust-charge/optiga/externals/mbedtls/library\bignum.c **** 
1827:C:/Users/Yushev/git/wpcqi-optiga-trust-charge/optiga/externals/mbedtls/library\bignum.c ****         for( i = 0; i < wsize - 1; i++ )
 8456              	 .loc 1 1827 0
 8457 0388 0023     	 movs r3,#0
 8458 038a C7F85836 	 str r3,[r7,#1624]
 8459 038e 27E0     	 b .L442
 8460              	.L444:
1828:C:/Users/Yushev/git/wpcqi-optiga-trust-charge/optiga/externals/mbedtls/library\bignum.c ****             MBEDTLS_MPI_CHK( mpi_montmul( &W[j], &W[j], N, mm, &T ) );
 8461              	 .loc 1 1828 0
 8462 0390 07F11C01 	 add r1,r7,#28
 8463 0394 D7F84026 	 ldr r2,[r7,#1600]
 8464 0398 1346     	 mov r3,r2
 8465 039a 5B00     	 lsls r3,r3,#1
 8466 039c 1344     	 add r3,r3,r2
 8467 039e 9B00     	 lsls r3,r3,#2
 8468 03a0 C818     	 adds r0,r1,r3
 8469 03a2 07F11C01 	 add r1,r7,#28
 8470 03a6 D7F84026 	 ldr r2,[r7,#1600]
 8471 03aa 1346     	 mov r3,r2
 8472 03ac 5B00     	 lsls r3,r3,#1
 8473 03ae 1344     	 add r3,r3,r2
 8474 03b0 9B00     	 lsls r3,r3,#2
 8475 03b2 1944     	 add r1,r1,r3
 8476 03b4 D7F83446 	 ldr r4,[r7,#1588]
 8477 03b8 3B46     	 mov r3,r7
 8478 03ba 07F21C62 	 addw r2,r7,#1564
 8479 03be 0092     	 str r2,[sp]
 8480 03c0 1A68     	 ldr r2,[r3]
 8481 03c2 2346     	 mov r3,r4
 8482 03c4 FFF7FEFF 	 bl mpi_montmul
 8483 03c8 C7F86406 	 str r0,[r7,#1636]
 8484 03cc D7F86436 	 ldr r3,[r7,#1636]
 8485 03d0 002B     	 cmp r3,#0
 8486 03d2 00D0     	 beq .L443
 8487 03d4 C8E1     	 b .L422
 8488              	.L443:
1827:C:/Users/Yushev/git/wpcqi-optiga-trust-charge/optiga/externals/mbedtls/library\bignum.c ****             MBEDTLS_MPI_CHK( mpi_montmul( &W[j], &W[j], N, mm, &T ) );
 8489              	 .loc 1 1827 0 discriminator 2
 8490 03d6 D7F85836 	 ldr r3,[r7,#1624]
 8491 03da 0133     	 adds r3,r3,#1
 8492 03dc C7F85836 	 str r3,[r7,#1624]
 8493              	.L442:
1827:C:/Users/Yushev/git/wpcqi-optiga-trust-charge/optiga/externals/mbedtls/library\bignum.c ****             MBEDTLS_MPI_CHK( mpi_montmul( &W[j], &W[j], N, mm, &T ) );
 8494              	 .loc 1 1827 0 is_stmt 0 discriminator 1
 8495 03e0 D7F85C36 	 ldr r3,[r7,#1628]
 8496 03e4 5A1E     	 subs r2,r3,#1
 8497 03e6 D7F85836 	 ldr r3,[r7,#1624]
 8498 03ea 9A42     	 cmp r2,r3
 8499 03ec D0D8     	 bhi .L444
1829:C:/Users/Yushev/git/wpcqi-optiga-trust-charge/optiga/externals/mbedtls/library\bignum.c **** 
1830:C:/Users/Yushev/git/wpcqi-optiga-trust-charge/optiga/externals/mbedtls/library\bignum.c ****         /*
1831:C:/Users/Yushev/git/wpcqi-optiga-trust-charge/optiga/externals/mbedtls/library\bignum.c ****          * W[i] = W[i - 1] * W[1]
1832:C:/Users/Yushev/git/wpcqi-optiga-trust-charge/optiga/externals/mbedtls/library\bignum.c ****          */
1833:C:/Users/Yushev/git/wpcqi-optiga-trust-charge/optiga/externals/mbedtls/library\bignum.c ****         for( i = j + 1; i < ( one << wsize ); i++ )
 8500              	 .loc 1 1833 0 is_stmt 1
 8501 03ee D7F84036 	 ldr r3,[r7,#1600]
 8502 03f2 0133     	 adds r3,r3,#1
 8503 03f4 C7F85836 	 str r3,[r7,#1624]
 8504 03f8 57E0     	 b .L445
 8505              	.L449:
1834:C:/Users/Yushev/git/wpcqi-optiga-trust-charge/optiga/externals/mbedtls/library\bignum.c ****         {
1835:C:/Users/Yushev/git/wpcqi-optiga-trust-charge/optiga/externals/mbedtls/library\bignum.c ****             MBEDTLS_MPI_CHK( mbedtls_mpi_grow( &W[i], N->n + 1 ) );
 8506              	 .loc 1 1835 0
 8507 03fa 07F11C01 	 add r1,r7,#28
 8508 03fe D7F85826 	 ldr r2,[r7,#1624]
 8509 0402 1346     	 mov r3,r2
 8510 0404 5B00     	 lsls r3,r3,#1
 8511 0406 1344     	 add r3,r3,r2
 8512 0408 9B00     	 lsls r3,r3,#2
 8513 040a CA18     	 adds r2,r1,r3
 8514 040c 3B46     	 mov r3,r7
 8515 040e 1B68     	 ldr r3,[r3]
 8516 0410 5B68     	 ldr r3,[r3,#4]
 8517 0412 0133     	 adds r3,r3,#1
 8518 0414 1046     	 mov r0,r2
 8519 0416 1946     	 mov r1,r3
 8520 0418 FFF7FEFF 	 bl mbedtls_mpi_grow
 8521 041c C7F86406 	 str r0,[r7,#1636]
 8522 0420 D7F86436 	 ldr r3,[r7,#1636]
 8523 0424 002B     	 cmp r3,#0
 8524 0426 00D0     	 beq .L446
 8525 0428 9EE1     	 b .L422
 8526              	.L446:
1836:C:/Users/Yushev/git/wpcqi-optiga-trust-charge/optiga/externals/mbedtls/library\bignum.c ****             MBEDTLS_MPI_CHK( mbedtls_mpi_copy( &W[i], &W[i - 1] ) );
 8527              	 .loc 1 1836 0
 8528 042a 07F11C01 	 add r1,r7,#28
 8529 042e D7F85826 	 ldr r2,[r7,#1624]
 8530 0432 1346     	 mov r3,r2
 8531 0434 5B00     	 lsls r3,r3,#1
 8532 0436 1344     	 add r3,r3,r2
 8533 0438 9B00     	 lsls r3,r3,#2
 8534 043a C818     	 adds r0,r1,r3
 8535 043c D7F85836 	 ldr r3,[r7,#1624]
 8536 0440 5A1E     	 subs r2,r3,#1
 8537 0442 07F11C01 	 add r1,r7,#28
 8538 0446 1346     	 mov r3,r2
 8539 0448 5B00     	 lsls r3,r3,#1
 8540 044a 1344     	 add r3,r3,r2
 8541 044c 9B00     	 lsls r3,r3,#2
 8542 044e 0B44     	 add r3,r3,r1
 8543 0450 1946     	 mov r1,r3
 8544 0452 FFF7FEFF 	 bl mbedtls_mpi_copy
 8545 0456 C7F86406 	 str r0,[r7,#1636]
 8546 045a D7F86436 	 ldr r3,[r7,#1636]
 8547 045e 002B     	 cmp r3,#0
 8548 0460 00D0     	 beq .L447
 8549 0462 81E1     	 b .L422
 8550              	.L447:
1837:C:/Users/Yushev/git/wpcqi-optiga-trust-charge/optiga/externals/mbedtls/library\bignum.c **** 
1838:C:/Users/Yushev/git/wpcqi-optiga-trust-charge/optiga/externals/mbedtls/library\bignum.c ****             MBEDTLS_MPI_CHK( mpi_montmul( &W[i], &W[1], N, mm, &T ) );
 8551              	 .loc 1 1838 0
 8552 0464 07F11C01 	 add r1,r7,#28
 8553 0468 D7F85826 	 ldr r2,[r7,#1624]
 8554 046c 1346     	 mov r3,r2
 8555 046e 5B00     	 lsls r3,r3,#1
 8556 0470 1344     	 add r3,r3,r2
 8557 0472 9B00     	 lsls r3,r3,#2
 8558 0474 C818     	 adds r0,r1,r3
 8559 0476 D7F83446 	 ldr r4,[r7,#1588]
 8560 047a 07F11C03 	 add r3,r7,#28
 8561 047e 03F10C01 	 add r1,r3,#12
 8562 0482 3B46     	 mov r3,r7
 8563 0484 07F21C62 	 addw r2,r7,#1564
 8564 0488 0092     	 str r2,[sp]
 8565 048a 1A68     	 ldr r2,[r3]
 8566 048c 2346     	 mov r3,r4
 8567 048e FFF7FEFF 	 bl mpi_montmul
 8568 0492 C7F86406 	 str r0,[r7,#1636]
 8569 0496 D7F86436 	 ldr r3,[r7,#1636]
 8570 049a 002B     	 cmp r3,#0
 8571 049c 00D0     	 beq .L448
 8572 049e 63E1     	 b .L422
 8573              	.L448:
1833:C:/Users/Yushev/git/wpcqi-optiga-trust-charge/optiga/externals/mbedtls/library\bignum.c ****         {
 8574              	 .loc 1 1833 0 discriminator 2
 8575 04a0 D7F85836 	 ldr r3,[r7,#1624]
 8576 04a4 0133     	 adds r3,r3,#1
 8577 04a6 C7F85836 	 str r3,[r7,#1624]
 8578              	.L445:
1833:C:/Users/Yushev/git/wpcqi-optiga-trust-charge/optiga/externals/mbedtls/library\bignum.c ****         {
 8579              	 .loc 1 1833 0 is_stmt 0 discriminator 1
 8580 04aa D7F85C36 	 ldr r3,[r7,#1628]
 8581 04ae D7F84426 	 ldr r2,[r7,#1604]
 8582 04b2 9A40     	 lsls r2,r2,r3
 8583 04b4 D7F85836 	 ldr r3,[r7,#1624]
 8584 04b8 9A42     	 cmp r2,r3
 8585 04ba 9ED8     	 bhi .L449
 8586              	.L439:
1839:C:/Users/Yushev/git/wpcqi-optiga-trust-charge/optiga/externals/mbedtls/library\bignum.c ****         }
1840:C:/Users/Yushev/git/wpcqi-optiga-trust-charge/optiga/externals/mbedtls/library\bignum.c ****     }
1841:C:/Users/Yushev/git/wpcqi-optiga-trust-charge/optiga/externals/mbedtls/library\bignum.c **** 
1842:C:/Users/Yushev/git/wpcqi-optiga-trust-charge/optiga/externals/mbedtls/library\bignum.c ****     nblimbs = E->n;
 8587              	 .loc 1 1842 0 is_stmt 1
 8588 04bc 3B1D     	 adds r3,r7,#4
 8589 04be 1B68     	 ldr r3,[r3]
 8590 04c0 5B68     	 ldr r3,[r3,#4]
 8591 04c2 C7F85436 	 str r3,[r7,#1620]
1843:C:/Users/Yushev/git/wpcqi-optiga-trust-charge/optiga/externals/mbedtls/library\bignum.c ****     bufsize = 0;
 8592              	 .loc 1 1843 0
 8593 04c6 0023     	 movs r3,#0
 8594 04c8 C7F85036 	 str r3,[r7,#1616]
1844:C:/Users/Yushev/git/wpcqi-optiga-trust-charge/optiga/externals/mbedtls/library\bignum.c ****     nbits   = 0;
 8595              	 .loc 1 1844 0
 8596 04cc 0023     	 movs r3,#0
 8597 04ce C7F84C36 	 str r3,[r7,#1612]
1845:C:/Users/Yushev/git/wpcqi-optiga-trust-charge/optiga/externals/mbedtls/library\bignum.c ****     wbits   = 0;
 8598              	 .loc 1 1845 0
 8599 04d2 0023     	 movs r3,#0
 8600 04d4 C7F86036 	 str r3,[r7,#1632]
1846:C:/Users/Yushev/git/wpcqi-optiga-trust-charge/optiga/externals/mbedtls/library\bignum.c ****     state   = 0;
 8601              	 .loc 1 1846 0
 8602 04d8 0023     	 movs r3,#0
 8603 04da C7F84836 	 str r3,[r7,#1608]
 8604              	.L461:
1847:C:/Users/Yushev/git/wpcqi-optiga-trust-charge/optiga/externals/mbedtls/library\bignum.c **** 
1848:C:/Users/Yushev/git/wpcqi-optiga-trust-charge/optiga/externals/mbedtls/library\bignum.c ****     while( 1 )
1849:C:/Users/Yushev/git/wpcqi-optiga-trust-charge/optiga/externals/mbedtls/library\bignum.c ****     {
1850:C:/Users/Yushev/git/wpcqi-optiga-trust-charge/optiga/externals/mbedtls/library\bignum.c ****         if( bufsize == 0 )
 8605              	 .loc 1 1850 0
 8606 04de D7F85036 	 ldr r3,[r7,#1616]
 8607 04e2 002B     	 cmp r3,#0
 8608 04e4 10D1     	 bne .L450
1851:C:/Users/Yushev/git/wpcqi-optiga-trust-charge/optiga/externals/mbedtls/library\bignum.c ****         {
1852:C:/Users/Yushev/git/wpcqi-optiga-trust-charge/optiga/externals/mbedtls/library\bignum.c ****             if( nblimbs == 0 )
 8609              	 .loc 1 1852 0
 8610 04e6 D7F85436 	 ldr r3,[r7,#1620]
 8611 04ea 002B     	 cmp r3,#0
 8612 04ec 04D1     	 bne .L451
1853:C:/Users/Yushev/git/wpcqi-optiga-trust-charge/optiga/externals/mbedtls/library\bignum.c ****                 break;
 8613              	 .loc 1 1853 0
 8614 04ee 00BF     	 nop
1854:C:/Users/Yushev/git/wpcqi-optiga-trust-charge/optiga/externals/mbedtls/library\bignum.c **** 
1855:C:/Users/Yushev/git/wpcqi-optiga-trust-charge/optiga/externals/mbedtls/library\bignum.c ****             nblimbs--;
1856:C:/Users/Yushev/git/wpcqi-optiga-trust-charge/optiga/externals/mbedtls/library\bignum.c **** 
1857:C:/Users/Yushev/git/wpcqi-optiga-trust-charge/optiga/externals/mbedtls/library\bignum.c ****             bufsize = sizeof( mbedtls_mpi_uint ) << 3;
1858:C:/Users/Yushev/git/wpcqi-optiga-trust-charge/optiga/externals/mbedtls/library\bignum.c ****         }
1859:C:/Users/Yushev/git/wpcqi-optiga-trust-charge/optiga/externals/mbedtls/library\bignum.c **** 
1860:C:/Users/Yushev/git/wpcqi-optiga-trust-charge/optiga/externals/mbedtls/library\bignum.c ****         bufsize--;
1861:C:/Users/Yushev/git/wpcqi-optiga-trust-charge/optiga/externals/mbedtls/library\bignum.c **** 
1862:C:/Users/Yushev/git/wpcqi-optiga-trust-charge/optiga/externals/mbedtls/library\bignum.c ****         ei = (E->p[nblimbs] >> bufsize) & 1;
1863:C:/Users/Yushev/git/wpcqi-optiga-trust-charge/optiga/externals/mbedtls/library\bignum.c **** 
1864:C:/Users/Yushev/git/wpcqi-optiga-trust-charge/optiga/externals/mbedtls/library\bignum.c ****         /*
1865:C:/Users/Yushev/git/wpcqi-optiga-trust-charge/optiga/externals/mbedtls/library\bignum.c ****          * skip leading 0s
1866:C:/Users/Yushev/git/wpcqi-optiga-trust-charge/optiga/externals/mbedtls/library\bignum.c ****          */
1867:C:/Users/Yushev/git/wpcqi-optiga-trust-charge/optiga/externals/mbedtls/library\bignum.c ****         if( ei == 0 && state == 0 )
1868:C:/Users/Yushev/git/wpcqi-optiga-trust-charge/optiga/externals/mbedtls/library\bignum.c ****             continue;
1869:C:/Users/Yushev/git/wpcqi-optiga-trust-charge/optiga/externals/mbedtls/library\bignum.c **** 
1870:C:/Users/Yushev/git/wpcqi-optiga-trust-charge/optiga/externals/mbedtls/library\bignum.c ****         if( ei == 0 && state == 1 )
1871:C:/Users/Yushev/git/wpcqi-optiga-trust-charge/optiga/externals/mbedtls/library\bignum.c ****         {
1872:C:/Users/Yushev/git/wpcqi-optiga-trust-charge/optiga/externals/mbedtls/library\bignum.c ****             /*
1873:C:/Users/Yushev/git/wpcqi-optiga-trust-charge/optiga/externals/mbedtls/library\bignum.c ****              * out of window, square X
1874:C:/Users/Yushev/git/wpcqi-optiga-trust-charge/optiga/externals/mbedtls/library\bignum.c ****              */
1875:C:/Users/Yushev/git/wpcqi-optiga-trust-charge/optiga/externals/mbedtls/library\bignum.c ****             MBEDTLS_MPI_CHK( mpi_montmul( X, X, N, mm, &T ) );
1876:C:/Users/Yushev/git/wpcqi-optiga-trust-charge/optiga/externals/mbedtls/library\bignum.c ****             continue;
1877:C:/Users/Yushev/git/wpcqi-optiga-trust-charge/optiga/externals/mbedtls/library\bignum.c ****         }
1878:C:/Users/Yushev/git/wpcqi-optiga-trust-charge/optiga/externals/mbedtls/library\bignum.c **** 
1879:C:/Users/Yushev/git/wpcqi-optiga-trust-charge/optiga/externals/mbedtls/library\bignum.c ****         /*
1880:C:/Users/Yushev/git/wpcqi-optiga-trust-charge/optiga/externals/mbedtls/library\bignum.c ****          * add ei to current window
1881:C:/Users/Yushev/git/wpcqi-optiga-trust-charge/optiga/externals/mbedtls/library\bignum.c ****          */
1882:C:/Users/Yushev/git/wpcqi-optiga-trust-charge/optiga/externals/mbedtls/library\bignum.c ****         state = 2;
1883:C:/Users/Yushev/git/wpcqi-optiga-trust-charge/optiga/externals/mbedtls/library\bignum.c **** 
1884:C:/Users/Yushev/git/wpcqi-optiga-trust-charge/optiga/externals/mbedtls/library\bignum.c ****         nbits++;
1885:C:/Users/Yushev/git/wpcqi-optiga-trust-charge/optiga/externals/mbedtls/library\bignum.c ****         wbits |= ( ei << ( wsize - nbits ) );
1886:C:/Users/Yushev/git/wpcqi-optiga-trust-charge/optiga/externals/mbedtls/library\bignum.c **** 
1887:C:/Users/Yushev/git/wpcqi-optiga-trust-charge/optiga/externals/mbedtls/library\bignum.c ****         if( nbits == wsize )
1888:C:/Users/Yushev/git/wpcqi-optiga-trust-charge/optiga/externals/mbedtls/library\bignum.c ****         {
1889:C:/Users/Yushev/git/wpcqi-optiga-trust-charge/optiga/externals/mbedtls/library\bignum.c ****             /*
1890:C:/Users/Yushev/git/wpcqi-optiga-trust-charge/optiga/externals/mbedtls/library\bignum.c ****              * X = X^wsize R^-1 mod N
1891:C:/Users/Yushev/git/wpcqi-optiga-trust-charge/optiga/externals/mbedtls/library\bignum.c ****              */
1892:C:/Users/Yushev/git/wpcqi-optiga-trust-charge/optiga/externals/mbedtls/library\bignum.c ****             for( i = 0; i < wsize; i++ )
1893:C:/Users/Yushev/git/wpcqi-optiga-trust-charge/optiga/externals/mbedtls/library\bignum.c ****                 MBEDTLS_MPI_CHK( mpi_montmul( X, X, N, mm, &T ) );
1894:C:/Users/Yushev/git/wpcqi-optiga-trust-charge/optiga/externals/mbedtls/library\bignum.c **** 
1895:C:/Users/Yushev/git/wpcqi-optiga-trust-charge/optiga/externals/mbedtls/library\bignum.c ****             /*
1896:C:/Users/Yushev/git/wpcqi-optiga-trust-charge/optiga/externals/mbedtls/library\bignum.c ****              * X = X * W[wbits] R^-1 mod N
1897:C:/Users/Yushev/git/wpcqi-optiga-trust-charge/optiga/externals/mbedtls/library\bignum.c ****              */
1898:C:/Users/Yushev/git/wpcqi-optiga-trust-charge/optiga/externals/mbedtls/library\bignum.c ****             MBEDTLS_MPI_CHK( mpi_montmul( X, &W[wbits], N, mm, &T ) );
1899:C:/Users/Yushev/git/wpcqi-optiga-trust-charge/optiga/externals/mbedtls/library\bignum.c **** 
1900:C:/Users/Yushev/git/wpcqi-optiga-trust-charge/optiga/externals/mbedtls/library\bignum.c ****             state--;
1901:C:/Users/Yushev/git/wpcqi-optiga-trust-charge/optiga/externals/mbedtls/library\bignum.c ****             nbits = 0;
1902:C:/Users/Yushev/git/wpcqi-optiga-trust-charge/optiga/externals/mbedtls/library\bignum.c ****             wbits = 0;
1903:C:/Users/Yushev/git/wpcqi-optiga-trust-charge/optiga/externals/mbedtls/library\bignum.c ****         }
1904:C:/Users/Yushev/git/wpcqi-optiga-trust-charge/optiga/externals/mbedtls/library\bignum.c ****     }
1905:C:/Users/Yushev/git/wpcqi-optiga-trust-charge/optiga/externals/mbedtls/library\bignum.c **** 
1906:C:/Users/Yushev/git/wpcqi-optiga-trust-charge/optiga/externals/mbedtls/library\bignum.c ****     /*
1907:C:/Users/Yushev/git/wpcqi-optiga-trust-charge/optiga/externals/mbedtls/library\bignum.c ****      * process the remaining bits
1908:C:/Users/Yushev/git/wpcqi-optiga-trust-charge/optiga/externals/mbedtls/library\bignum.c ****      */
1909:C:/Users/Yushev/git/wpcqi-optiga-trust-charge/optiga/externals/mbedtls/library\bignum.c ****     for( i = 0; i < nbits; i++ )
 8615              	 .loc 1 1909 0
 8616 04f0 0023     	 movs r3,#0
 8617 04f2 C7F85836 	 str r3,[r7,#1624]
 8618 04f6 F5E0     	 b .L462
 8619              	.L451:
1855:C:/Users/Yushev/git/wpcqi-optiga-trust-charge/optiga/externals/mbedtls/library\bignum.c **** 
 8620              	 .loc 1 1855 0
 8621 04f8 D7F85436 	 ldr r3,[r7,#1620]
 8622 04fc 013B     	 subs r3,r3,#1
 8623 04fe C7F85436 	 str r3,[r7,#1620]
1857:C:/Users/Yushev/git/wpcqi-optiga-trust-charge/optiga/externals/mbedtls/library\bignum.c ****         }
 8624              	 .loc 1 1857 0
 8625 0502 2023     	 movs r3,#32
 8626 0504 C7F85036 	 str r3,[r7,#1616]
 8627              	.L450:
1860:C:/Users/Yushev/git/wpcqi-optiga-trust-charge/optiga/externals/mbedtls/library\bignum.c **** 
 8628              	 .loc 1 1860 0
 8629 0508 D7F85036 	 ldr r3,[r7,#1616]
 8630 050c 013B     	 subs r3,r3,#1
 8631 050e C7F85036 	 str r3,[r7,#1616]
1862:C:/Users/Yushev/git/wpcqi-optiga-trust-charge/optiga/externals/mbedtls/library\bignum.c **** 
 8632              	 .loc 1 1862 0
 8633 0512 3B1D     	 adds r3,r7,#4
 8634 0514 1B68     	 ldr r3,[r3]
 8635 0516 9A68     	 ldr r2,[r3,#8]
 8636 0518 D7F85436 	 ldr r3,[r7,#1620]
 8637 051c 9B00     	 lsls r3,r3,#2
 8638 051e 1344     	 add r3,r3,r2
 8639 0520 1A68     	 ldr r2,[r3]
 8640 0522 D7F85036 	 ldr r3,[r7,#1616]
 8641 0526 22FA03F3 	 lsr r3,r2,r3
 8642 052a 03F00103 	 and r3,r3,#1
 8643 052e C7F83836 	 str r3,[r7,#1592]
1867:C:/Users/Yushev/git/wpcqi-optiga-trust-charge/optiga/externals/mbedtls/library\bignum.c ****             continue;
 8644              	 .loc 1 1867 0
 8645 0532 D7F83836 	 ldr r3,[r7,#1592]
 8646 0536 002B     	 cmp r3,#0
 8647 0538 04D1     	 bne .L453
1867:C:/Users/Yushev/git/wpcqi-optiga-trust-charge/optiga/externals/mbedtls/library\bignum.c ****             continue;
 8648              	 .loc 1 1867 0 is_stmt 0 discriminator 1
 8649 053a D7F84836 	 ldr r3,[r7,#1608]
 8650 053e 002B     	 cmp r3,#0
 8651 0540 00D1     	 bne .L453
1868:C:/Users/Yushev/git/wpcqi-optiga-trust-charge/optiga/externals/mbedtls/library\bignum.c **** 
 8652              	 .loc 1 1868 0 is_stmt 1
 8653 0542 8AE0     	 b .L454
 8654              	.L453:
1870:C:/Users/Yushev/git/wpcqi-optiga-trust-charge/optiga/externals/mbedtls/library\bignum.c ****         {
 8655              	 .loc 1 1870 0
 8656 0544 D7F83836 	 ldr r3,[r7,#1592]
 8657 0548 002B     	 cmp r3,#0
 8658 054a 1BD1     	 bne .L455
1870:C:/Users/Yushev/git/wpcqi-optiga-trust-charge/optiga/externals/mbedtls/library\bignum.c ****         {
 8659              	 .loc 1 1870 0 is_stmt 0 discriminator 1
 8660 054c D7F84836 	 ldr r3,[r7,#1608]
 8661 0550 012B     	 cmp r3,#1
 8662 0552 17D1     	 bne .L455
1875:C:/Users/Yushev/git/wpcqi-optiga-trust-charge/optiga/externals/mbedtls/library\bignum.c ****             continue;
 8663              	 .loc 1 1875 0 is_stmt 1
 8664 0554 D7F83446 	 ldr r4,[r7,#1588]
 8665 0558 07F10C01 	 add r1,r7,#12
 8666 055c 07F10C02 	 add r2,r7,#12
 8667 0560 3B46     	 mov r3,r7
 8668 0562 07F21C60 	 addw r0,r7,#1564
 8669 0566 0090     	 str r0,[sp]
 8670 0568 0868     	 ldr r0,[r1]
 8671 056a 1168     	 ldr r1,[r2]
 8672 056c 1A68     	 ldr r2,[r3]
 8673 056e 2346     	 mov r3,r4
 8674 0570 FFF7FEFF 	 bl mpi_montmul
 8675 0574 C7F86406 	 str r0,[r7,#1636]
 8676 0578 D7F86436 	 ldr r3,[r7,#1636]
 8677 057c 002B     	 cmp r3,#0
 8678 057e 00D0     	 beq .L456
 8679 0580 F2E0     	 b .L422
 8680              	.L456:
1876:C:/Users/Yushev/git/wpcqi-optiga-trust-charge/optiga/externals/mbedtls/library\bignum.c ****         }
 8681              	 .loc 1 1876 0
 8682 0582 6AE0     	 b .L454
 8683              	.L455:
1882:C:/Users/Yushev/git/wpcqi-optiga-trust-charge/optiga/externals/mbedtls/library\bignum.c **** 
 8684              	 .loc 1 1882 0
 8685 0584 0223     	 movs r3,#2
 8686 0586 C7F84836 	 str r3,[r7,#1608]
1884:C:/Users/Yushev/git/wpcqi-optiga-trust-charge/optiga/externals/mbedtls/library\bignum.c ****         wbits |= ( ei << ( wsize - nbits ) );
 8687              	 .loc 1 1884 0
 8688 058a D7F84C36 	 ldr r3,[r7,#1612]
 8689 058e 0133     	 adds r3,r3,#1
 8690 0590 C7F84C36 	 str r3,[r7,#1612]
1885:C:/Users/Yushev/git/wpcqi-optiga-trust-charge/optiga/externals/mbedtls/library\bignum.c **** 
 8691              	 .loc 1 1885 0
 8692 0594 D7F85C26 	 ldr r2,[r7,#1628]
 8693 0598 D7F84C36 	 ldr r3,[r7,#1612]
 8694 059c D31A     	 subs r3,r2,r3
 8695 059e 1A46     	 mov r2,r3
 8696 05a0 D7F83836 	 ldr r3,[r7,#1592]
 8697 05a4 9340     	 lsls r3,r3,r2
 8698 05a6 D7F86026 	 ldr r2,[r7,#1632]
 8699 05aa 1343     	 orrs r3,r3,r2
 8700 05ac C7F86036 	 str r3,[r7,#1632]
1887:C:/Users/Yushev/git/wpcqi-optiga-trust-charge/optiga/externals/mbedtls/library\bignum.c ****         {
 8701              	 .loc 1 1887 0
 8702 05b0 D7F84C26 	 ldr r2,[r7,#1612]
 8703 05b4 D7F85C36 	 ldr r3,[r7,#1628]
 8704 05b8 9A42     	 cmp r2,r3
 8705 05ba 4ED1     	 bne .L454
1892:C:/Users/Yushev/git/wpcqi-optiga-trust-charge/optiga/externals/mbedtls/library\bignum.c ****                 MBEDTLS_MPI_CHK( mpi_montmul( X, X, N, mm, &T ) );
 8706              	 .loc 1 1892 0
 8707 05bc 0023     	 movs r3,#0
 8708 05be C7F85836 	 str r3,[r7,#1624]
 8709 05c2 1BE0     	 b .L457
 8710              	.L459:
1893:C:/Users/Yushev/git/wpcqi-optiga-trust-charge/optiga/externals/mbedtls/library\bignum.c **** 
 8711              	 .loc 1 1893 0
 8712 05c4 D7F83446 	 ldr r4,[r7,#1588]
 8713 05c8 07F10C01 	 add r1,r7,#12
 8714 05cc 07F10C02 	 add r2,r7,#12
 8715 05d0 3B46     	 mov r3,r7
 8716 05d2 07F21C60 	 addw r0,r7,#1564
 8717 05d6 0090     	 str r0,[sp]
 8718 05d8 0868     	 ldr r0,[r1]
 8719 05da 1168     	 ldr r1,[r2]
 8720 05dc 1A68     	 ldr r2,[r3]
 8721 05de 2346     	 mov r3,r4
 8722 05e0 FFF7FEFF 	 bl mpi_montmul
 8723 05e4 C7F86406 	 str r0,[r7,#1636]
 8724 05e8 D7F86436 	 ldr r3,[r7,#1636]
 8725 05ec 002B     	 cmp r3,#0
 8726 05ee 00D0     	 beq .L458
 8727 05f0 BAE0     	 b .L422
 8728              	.L458:
1892:C:/Users/Yushev/git/wpcqi-optiga-trust-charge/optiga/externals/mbedtls/library\bignum.c ****                 MBEDTLS_MPI_CHK( mpi_montmul( X, X, N, mm, &T ) );
 8729              	 .loc 1 1892 0 discriminator 2
 8730 05f2 D7F85836 	 ldr r3,[r7,#1624]
 8731 05f6 0133     	 adds r3,r3,#1
 8732 05f8 C7F85836 	 str r3,[r7,#1624]
 8733              	.L457:
1892:C:/Users/Yushev/git/wpcqi-optiga-trust-charge/optiga/externals/mbedtls/library\bignum.c ****                 MBEDTLS_MPI_CHK( mpi_montmul( X, X, N, mm, &T ) );
 8734              	 .loc 1 1892 0 is_stmt 0 discriminator 1
 8735 05fc D7F85826 	 ldr r2,[r7,#1624]
 8736 0600 D7F85C36 	 ldr r3,[r7,#1628]
 8737 0604 9A42     	 cmp r2,r3
 8738 0606 DDD3     	 bcc .L459
1898:C:/Users/Yushev/git/wpcqi-optiga-trust-charge/optiga/externals/mbedtls/library\bignum.c **** 
 8739              	 .loc 1 1898 0 is_stmt 1
 8740 0608 07F11C01 	 add r1,r7,#28
 8741 060c D7F86026 	 ldr r2,[r7,#1632]
 8742 0610 1346     	 mov r3,r2
 8743 0612 5B00     	 lsls r3,r3,#1
 8744 0614 1344     	 add r3,r3,r2
 8745 0616 9B00     	 lsls r3,r3,#2
 8746 0618 CD18     	 adds r5,r1,r3
 8747 061a D7F83446 	 ldr r4,[r7,#1588]
 8748 061e 07F10C02 	 add r2,r7,#12
 8749 0622 3B46     	 mov r3,r7
 8750 0624 07F21C61 	 addw r1,r7,#1564
 8751 0628 0091     	 str r1,[sp]
 8752 062a 1068     	 ldr r0,[r2]
 8753 062c 2946     	 mov r1,r5
 8754 062e 1A68     	 ldr r2,[r3]
 8755 0630 2346     	 mov r3,r4
 8756 0632 FFF7FEFF 	 bl mpi_montmul
 8757 0636 C7F86406 	 str r0,[r7,#1636]
 8758 063a D7F86436 	 ldr r3,[r7,#1636]
 8759 063e 002B     	 cmp r3,#0
 8760 0640 00D0     	 beq .L460
 8761 0642 91E0     	 b .L422
 8762              	.L460:
1900:C:/Users/Yushev/git/wpcqi-optiga-trust-charge/optiga/externals/mbedtls/library\bignum.c ****             nbits = 0;
 8763              	 .loc 1 1900 0
 8764 0644 D7F84836 	 ldr r3,[r7,#1608]
 8765 0648 013B     	 subs r3,r3,#1
 8766 064a C7F84836 	 str r3,[r7,#1608]
1901:C:/Users/Yushev/git/wpcqi-optiga-trust-charge/optiga/externals/mbedtls/library\bignum.c ****             wbits = 0;
 8767              	 .loc 1 1901 0
 8768 064e 0023     	 movs r3,#0
 8769 0650 C7F84C36 	 str r3,[r7,#1612]
1902:C:/Users/Yushev/git/wpcqi-optiga-trust-charge/optiga/externals/mbedtls/library\bignum.c ****         }
 8770              	 .loc 1 1902 0
 8771 0654 0023     	 movs r3,#0
 8772 0656 C7F86036 	 str r3,[r7,#1632]
 8773              	.L454:
1904:C:/Users/Yushev/git/wpcqi-optiga-trust-charge/optiga/externals/mbedtls/library\bignum.c **** 
 8774              	 .loc 1 1904 0
 8775 065a 40E7     	 b .L461
 8776              	.L465:
1910:C:/Users/Yushev/git/wpcqi-optiga-trust-charge/optiga/externals/mbedtls/library\bignum.c ****     {
1911:C:/Users/Yushev/git/wpcqi-optiga-trust-charge/optiga/externals/mbedtls/library\bignum.c ****         MBEDTLS_MPI_CHK( mpi_montmul( X, X, N, mm, &T ) );
 8777              	 .loc 1 1911 0
 8778 065c D7F83446 	 ldr r4,[r7,#1588]
 8779 0660 07F10C01 	 add r1,r7,#12
 8780 0664 07F10C02 	 add r2,r7,#12
 8781 0668 3B46     	 mov r3,r7
 8782 066a 07F21C60 	 addw r0,r7,#1564
 8783 066e 0090     	 str r0,[sp]
 8784 0670 0868     	 ldr r0,[r1]
 8785 0672 1168     	 ldr r1,[r2]
 8786 0674 1A68     	 ldr r2,[r3]
 8787 0676 2346     	 mov r3,r4
 8788 0678 FFF7FEFF 	 bl mpi_montmul
 8789 067c C7F86406 	 str r0,[r7,#1636]
 8790 0680 D7F86436 	 ldr r3,[r7,#1636]
 8791 0684 002B     	 cmp r3,#0
 8792 0686 00D0     	 beq .L463
 8793 0688 6EE0     	 b .L422
 8794              	.L463:
1912:C:/Users/Yushev/git/wpcqi-optiga-trust-charge/optiga/externals/mbedtls/library\bignum.c **** 
1913:C:/Users/Yushev/git/wpcqi-optiga-trust-charge/optiga/externals/mbedtls/library\bignum.c ****         wbits <<= 1;
 8795              	 .loc 1 1913 0
 8796 068a D7F86036 	 ldr r3,[r7,#1632]
 8797 068e 5B00     	 lsls r3,r3,#1
 8798 0690 C7F86036 	 str r3,[r7,#1632]
1914:C:/Users/Yushev/git/wpcqi-optiga-trust-charge/optiga/externals/mbedtls/library\bignum.c **** 
1915:C:/Users/Yushev/git/wpcqi-optiga-trust-charge/optiga/externals/mbedtls/library\bignum.c ****         if( ( wbits & ( one << wsize ) ) != 0 )
 8799              	 .loc 1 1915 0
 8800 0694 D7F85C36 	 ldr r3,[r7,#1628]
 8801 0698 D7F84426 	 ldr r2,[r7,#1604]
 8802 069c 9A40     	 lsls r2,r2,r3
 8803 069e D7F86036 	 ldr r3,[r7,#1632]
 8804 06a2 1340     	 ands r3,r3,r2
 8805 06a4 002B     	 cmp r3,#0
 8806 06a6 18D0     	 beq .L464
1916:C:/Users/Yushev/git/wpcqi-optiga-trust-charge/optiga/externals/mbedtls/library\bignum.c ****             MBEDTLS_MPI_CHK( mpi_montmul( X, &W[1], N, mm, &T ) );
 8807              	 .loc 1 1916 0
 8808 06a8 D7F83446 	 ldr r4,[r7,#1588]
 8809 06ac 07F10C02 	 add r2,r7,#12
 8810 06b0 07F11C03 	 add r3,r7,#28
 8811 06b4 03F10C05 	 add r5,r3,#12
 8812 06b8 3B46     	 mov r3,r7
 8813 06ba 07F21C61 	 addw r1,r7,#1564
 8814 06be 0091     	 str r1,[sp]
 8815 06c0 1068     	 ldr r0,[r2]
 8816 06c2 2946     	 mov r1,r5
 8817 06c4 1A68     	 ldr r2,[r3]
 8818 06c6 2346     	 mov r3,r4
 8819 06c8 FFF7FEFF 	 bl mpi_montmul
 8820 06cc C7F86406 	 str r0,[r7,#1636]
 8821 06d0 D7F86436 	 ldr r3,[r7,#1636]
 8822 06d4 002B     	 cmp r3,#0
 8823 06d6 00D0     	 beq .L464
 8824 06d8 46E0     	 b .L422
 8825              	.L464:
1909:C:/Users/Yushev/git/wpcqi-optiga-trust-charge/optiga/externals/mbedtls/library\bignum.c ****     {
 8826              	 .loc 1 1909 0 discriminator 2
 8827 06da D7F85836 	 ldr r3,[r7,#1624]
 8828 06de 0133     	 adds r3,r3,#1
 8829 06e0 C7F85836 	 str r3,[r7,#1624]
 8830              	.L462:
1909:C:/Users/Yushev/git/wpcqi-optiga-trust-charge/optiga/externals/mbedtls/library\bignum.c ****     {
 8831              	 .loc 1 1909 0 is_stmt 0 discriminator 1
 8832 06e4 D7F85826 	 ldr r2,[r7,#1624]
 8833 06e8 D7F84C36 	 ldr r3,[r7,#1612]
 8834 06ec 9A42     	 cmp r2,r3
 8835 06ee B5D3     	 bcc .L465
1917:C:/Users/Yushev/git/wpcqi-optiga-trust-charge/optiga/externals/mbedtls/library\bignum.c ****     }
1918:C:/Users/Yushev/git/wpcqi-optiga-trust-charge/optiga/externals/mbedtls/library\bignum.c **** 
1919:C:/Users/Yushev/git/wpcqi-optiga-trust-charge/optiga/externals/mbedtls/library\bignum.c ****     /*
1920:C:/Users/Yushev/git/wpcqi-optiga-trust-charge/optiga/externals/mbedtls/library\bignum.c ****      * X = A^E * R * R^-1 mod N = A^E mod N
1921:C:/Users/Yushev/git/wpcqi-optiga-trust-charge/optiga/externals/mbedtls/library\bignum.c ****      */
1922:C:/Users/Yushev/git/wpcqi-optiga-trust-charge/optiga/externals/mbedtls/library\bignum.c ****     MBEDTLS_MPI_CHK( mpi_montred( X, N, mm, &T ) );
 8836              	 .loc 1 1922 0 is_stmt 1
 8837 06f0 D7F83456 	 ldr r5,[r7,#1588]
 8838 06f4 07F10C02 	 add r2,r7,#12
 8839 06f8 3B46     	 mov r3,r7
 8840 06fa 07F21C64 	 addw r4,r7,#1564
 8841 06fe 1068     	 ldr r0,[r2]
 8842 0700 1968     	 ldr r1,[r3]
 8843 0702 2A46     	 mov r2,r5
 8844 0704 2346     	 mov r3,r4
 8845 0706 FFF7FEFF 	 bl mpi_montred
 8846 070a C7F86406 	 str r0,[r7,#1636]
 8847 070e D7F86436 	 ldr r3,[r7,#1636]
 8848 0712 002B     	 cmp r3,#0
 8849 0714 00D0     	 beq .L466
 8850 0716 27E0     	 b .L422
 8851              	.L466:
1923:C:/Users/Yushev/git/wpcqi-optiga-trust-charge/optiga/externals/mbedtls/library\bignum.c **** 
1924:C:/Users/Yushev/git/wpcqi-optiga-trust-charge/optiga/externals/mbedtls/library\bignum.c ****     if( neg && E->n != 0 && ( E->p[0] & 1 ) != 0 )
 8852              	 .loc 1 1924 0
 8853 0718 D7F83C36 	 ldr r3,[r7,#1596]
 8854 071c 002B     	 cmp r3,#0
 8855 071e 23D0     	 beq .L422
 8856              	 .loc 1 1924 0 is_stmt 0 discriminator 1
 8857 0720 3B1D     	 adds r3,r7,#4
 8858 0722 1B68     	 ldr r3,[r3]
 8859 0724 5B68     	 ldr r3,[r3,#4]
 8860 0726 002B     	 cmp r3,#0
 8861 0728 1ED0     	 beq .L422
 8862              	 .loc 1 1924 0 discriminator 2
 8863 072a 3B1D     	 adds r3,r7,#4
 8864 072c 1B68     	 ldr r3,[r3]
 8865 072e 9B68     	 ldr r3,[r3,#8]
 8866 0730 1B68     	 ldr r3,[r3]
 8867 0732 03F00103 	 and r3,r3,#1
 8868 0736 002B     	 cmp r3,#0
 8869 0738 16D0     	 beq .L422
1925:C:/Users/Yushev/git/wpcqi-optiga-trust-charge/optiga/externals/mbedtls/library\bignum.c ****     {
1926:C:/Users/Yushev/git/wpcqi-optiga-trust-charge/optiga/externals/mbedtls/library\bignum.c ****         X->s = -1;
 8870              	 .loc 1 1926 0 is_stmt 1
 8871 073a 07F10C03 	 add r3,r7,#12
 8872 073e 1B68     	 ldr r3,[r3]
 8873 0740 4FF0FF32 	 mov r2,#-1
 8874 0744 1A60     	 str r2,[r3]
1927:C:/Users/Yushev/git/wpcqi-optiga-trust-charge/optiga/externals/mbedtls/library\bignum.c ****         MBEDTLS_MPI_CHK( mbedtls_mpi_add_mpi( X, N, X ) );
 8875              	 .loc 1 1927 0
 8876 0746 07F10C01 	 add r1,r7,#12
 8877 074a 3A46     	 mov r2,r7
 8878 074c 07F10C03 	 add r3,r7,#12
 8879 0750 0868     	 ldr r0,[r1]
 8880 0752 1168     	 ldr r1,[r2]
 8881 0754 1A68     	 ldr r2,[r3]
 8882 0756 FFF7FEFF 	 bl mbedtls_mpi_add_mpi
 8883 075a C7F86406 	 str r0,[r7,#1636]
 8884 075e D7F86436 	 ldr r3,[r7,#1636]
 8885 0762 002B     	 cmp r3,#0
 8886 0764 00D0     	 beq .L422
 8887 0766 00BF     	 nop
 8888              	.L422:
1928:C:/Users/Yushev/git/wpcqi-optiga-trust-charge/optiga/externals/mbedtls/library\bignum.c ****     }
1929:C:/Users/Yushev/git/wpcqi-optiga-trust-charge/optiga/externals/mbedtls/library\bignum.c **** 
1930:C:/Users/Yushev/git/wpcqi-optiga-trust-charge/optiga/externals/mbedtls/library\bignum.c **** cleanup:
1931:C:/Users/Yushev/git/wpcqi-optiga-trust-charge/optiga/externals/mbedtls/library\bignum.c **** 
1932:C:/Users/Yushev/git/wpcqi-optiga-trust-charge/optiga/externals/mbedtls/library\bignum.c ****     for( i = ( one << ( wsize - 1 ) ); i < ( one << wsize ); i++ )
 8889              	 .loc 1 1932 0
 8890 0768 D7F85C36 	 ldr r3,[r7,#1628]
 8891 076c 013B     	 subs r3,r3,#1
 8892 076e 1A46     	 mov r2,r3
 8893 0770 D7F84436 	 ldr r3,[r7,#1604]
 8894 0774 9340     	 lsls r3,r3,r2
 8895 0776 C7F85836 	 str r3,[r7,#1624]
 8896 077a 10E0     	 b .L467
 8897              	.L468:
1933:C:/Users/Yushev/git/wpcqi-optiga-trust-charge/optiga/externals/mbedtls/library\bignum.c ****         mbedtls_mpi_free( &W[i] );
 8898              	 .loc 1 1933 0 discriminator 3
 8899 077c 07F11C01 	 add r1,r7,#28
 8900 0780 D7F85826 	 ldr r2,[r7,#1624]
 8901 0784 1346     	 mov r3,r2
 8902 0786 5B00     	 lsls r3,r3,#1
 8903 0788 1344     	 add r3,r3,r2
 8904 078a 9B00     	 lsls r3,r3,#2
 8905 078c 0B44     	 add r3,r3,r1
 8906 078e 1846     	 mov r0,r3
 8907 0790 FFF7FEFF 	 bl mbedtls_mpi_free
1932:C:/Users/Yushev/git/wpcqi-optiga-trust-charge/optiga/externals/mbedtls/library\bignum.c ****         mbedtls_mpi_free( &W[i] );
 8908              	 .loc 1 1932 0 discriminator 3
 8909 0794 D7F85836 	 ldr r3,[r7,#1624]
 8910 0798 0133     	 adds r3,r3,#1
 8911 079a C7F85836 	 str r3,[r7,#1624]
 8912              	.L467:
1932:C:/Users/Yushev/git/wpcqi-optiga-trust-charge/optiga/externals/mbedtls/library\bignum.c ****         mbedtls_mpi_free( &W[i] );
 8913              	 .loc 1 1932 0 is_stmt 0 discriminator 1
 8914 079e D7F85C36 	 ldr r3,[r7,#1628]
 8915 07a2 D7F84426 	 ldr r2,[r7,#1604]
 8916 07a6 9A40     	 lsls r2,r2,r3
 8917 07a8 D7F85836 	 ldr r3,[r7,#1624]
 8918 07ac 9A42     	 cmp r2,r3
 8919 07ae E5D8     	 bhi .L468
1934:C:/Users/Yushev/git/wpcqi-optiga-trust-charge/optiga/externals/mbedtls/library\bignum.c **** 
1935:C:/Users/Yushev/git/wpcqi-optiga-trust-charge/optiga/externals/mbedtls/library\bignum.c ****     mbedtls_mpi_free( &W[1] ); mbedtls_mpi_free( &T ); mbedtls_mpi_free( &Apos );
 8920              	 .loc 1 1935 0 is_stmt 1
 8921 07b0 07F11C03 	 add r3,r7,#28
 8922 07b4 0C33     	 adds r3,r3,#12
 8923 07b6 1846     	 mov r0,r3
 8924 07b8 FFF7FEFF 	 bl mbedtls_mpi_free
 8925 07bc 07F21C63 	 addw r3,r7,#1564
 8926 07c0 1846     	 mov r0,r3
 8927 07c2 FFF7FEFF 	 bl mbedtls_mpi_free
 8928 07c6 07F11003 	 add r3,r7,#16
 8929 07ca 1846     	 mov r0,r3
 8930 07cc FFF7FEFF 	 bl mbedtls_mpi_free
1936:C:/Users/Yushev/git/wpcqi-optiga-trust-charge/optiga/externals/mbedtls/library\bignum.c **** 
1937:C:/Users/Yushev/git/wpcqi-optiga-trust-charge/optiga/externals/mbedtls/library\bignum.c ****     if( _RR == NULL || _RR->p == NULL )
 8931              	 .loc 1 1937 0
 8932 07d0 D7F87836 	 ldr r3,[r7,#1656]
 8933 07d4 002B     	 cmp r3,#0
 8934 07d6 04D0     	 beq .L469
 8935              	 .loc 1 1937 0 is_stmt 0 discriminator 1
 8936 07d8 D7F87836 	 ldr r3,[r7,#1656]
 8937 07dc 9B68     	 ldr r3,[r3,#8]
 8938 07de 002B     	 cmp r3,#0
 8939 07e0 04D1     	 bne .L470
 8940              	.L469:
1938:C:/Users/Yushev/git/wpcqi-optiga-trust-charge/optiga/externals/mbedtls/library\bignum.c ****         mbedtls_mpi_free( &RR );
 8941              	 .loc 1 1938 0 is_stmt 1
 8942 07e2 07F5C563 	 add r3,r7,#1576
 8943 07e6 1846     	 mov r0,r3
 8944 07e8 FFF7FEFF 	 bl mbedtls_mpi_free
 8945              	.L470:
1939:C:/Users/Yushev/git/wpcqi-optiga-trust-charge/optiga/externals/mbedtls/library\bignum.c **** 
1940:C:/Users/Yushev/git/wpcqi-optiga-trust-charge/optiga/externals/mbedtls/library\bignum.c ****     return( ret );
 8946              	 .loc 1 1940 0
 8947 07ec D7F86436 	 ldr r3,[r7,#1636]
 8948              	.L471:
1941:C:/Users/Yushev/git/wpcqi-optiga-trust-charge/optiga/externals/mbedtls/library\bignum.c **** }
 8949              	 .loc 1 1941 0 discriminator 1
 8950 07f0 1846     	 mov r0,r3
 8951 07f2 07F5CD67 	 add r7,r7,#1640
 8952              	.LCFI239:
 8953              	 .cfi_def_cfa_offset 16
 8954 07f6 BD46     	 mov sp,r7
 8955              	.LCFI240:
 8956              	 .cfi_def_cfa_register 13
 8957              	 
 8958 07f8 B0BD     	 pop {r4,r5,r7,pc}
 8959              	 .cfi_endproc
 8960              	.LFE45:
 8962 07fa 00BF     	 .section .text.mbedtls_mpi_gcd,"ax",%progbits
 8963              	 .align 2
 8964              	 .global mbedtls_mpi_gcd
 8965              	 .thumb
 8966              	 .thumb_func
 8968              	mbedtls_mpi_gcd:
 8969              	.LFB46:
1942:C:/Users/Yushev/git/wpcqi-optiga-trust-charge/optiga/externals/mbedtls/library\bignum.c **** 
1943:C:/Users/Yushev/git/wpcqi-optiga-trust-charge/optiga/externals/mbedtls/library\bignum.c **** /*
1944:C:/Users/Yushev/git/wpcqi-optiga-trust-charge/optiga/externals/mbedtls/library\bignum.c ****  * Greatest common divisor: G = gcd(A, B)  (HAC 14.54)
1945:C:/Users/Yushev/git/wpcqi-optiga-trust-charge/optiga/externals/mbedtls/library\bignum.c ****  */
1946:C:/Users/Yushev/git/wpcqi-optiga-trust-charge/optiga/externals/mbedtls/library\bignum.c **** int mbedtls_mpi_gcd( mbedtls_mpi *G, const mbedtls_mpi *A, const mbedtls_mpi *B )
1947:C:/Users/Yushev/git/wpcqi-optiga-trust-charge/optiga/externals/mbedtls/library\bignum.c **** {
 8970              	 .loc 1 1947 0
 8971              	 .cfi_startproc
 8972              	 
 8973              	 
 8974 0000 80B5     	 push {r7,lr}
 8975              	.LCFI241:
 8976              	 .cfi_def_cfa_offset 8
 8977              	 .cfi_offset 7,-8
 8978              	 .cfi_offset 14,-4
 8979 0002 90B0     	 sub sp,sp,#64
 8980              	.LCFI242:
 8981              	 .cfi_def_cfa_offset 72
 8982 0004 00AF     	 add r7,sp,#0
 8983              	.LCFI243:
 8984              	 .cfi_def_cfa_register 7
 8985 0006 F860     	 str r0,[r7,#12]
 8986 0008 B960     	 str r1,[r7,#8]
 8987 000a 7A60     	 str r2,[r7,#4]
1948:C:/Users/Yushev/git/wpcqi-optiga-trust-charge/optiga/externals/mbedtls/library\bignum.c ****     int ret;
1949:C:/Users/Yushev/git/wpcqi-optiga-trust-charge/optiga/externals/mbedtls/library\bignum.c ****     size_t lz, lzt;
1950:C:/Users/Yushev/git/wpcqi-optiga-trust-charge/optiga/externals/mbedtls/library\bignum.c ****     mbedtls_mpi TG, TA, TB;
1951:C:/Users/Yushev/git/wpcqi-optiga-trust-charge/optiga/externals/mbedtls/library\bignum.c **** 
1952:C:/Users/Yushev/git/wpcqi-optiga-trust-charge/optiga/externals/mbedtls/library\bignum.c ****     MPI_VALIDATE_RET( G != NULL );
1953:C:/Users/Yushev/git/wpcqi-optiga-trust-charge/optiga/externals/mbedtls/library\bignum.c ****     MPI_VALIDATE_RET( A != NULL );
1954:C:/Users/Yushev/git/wpcqi-optiga-trust-charge/optiga/externals/mbedtls/library\bignum.c ****     MPI_VALIDATE_RET( B != NULL );
1955:C:/Users/Yushev/git/wpcqi-optiga-trust-charge/optiga/externals/mbedtls/library\bignum.c **** 
1956:C:/Users/Yushev/git/wpcqi-optiga-trust-charge/optiga/externals/mbedtls/library\bignum.c ****     mbedtls_mpi_init( &TG ); mbedtls_mpi_init( &TA ); mbedtls_mpi_init( &TB );
 8988              	 .loc 1 1956 0
 8989 000c 07F12803 	 add r3,r7,#40
 8990 0010 1846     	 mov r0,r3
 8991 0012 FFF7FEFF 	 bl mbedtls_mpi_init
 8992 0016 07F11C03 	 add r3,r7,#28
 8993 001a 1846     	 mov r0,r3
 8994 001c FFF7FEFF 	 bl mbedtls_mpi_init
 8995 0020 07F11003 	 add r3,r7,#16
 8996 0024 1846     	 mov r0,r3
 8997 0026 FFF7FEFF 	 bl mbedtls_mpi_init
1957:C:/Users/Yushev/git/wpcqi-optiga-trust-charge/optiga/externals/mbedtls/library\bignum.c **** 
1958:C:/Users/Yushev/git/wpcqi-optiga-trust-charge/optiga/externals/mbedtls/library\bignum.c ****     MBEDTLS_MPI_CHK( mbedtls_mpi_copy( &TA, A ) );
 8998              	 .loc 1 1958 0
 8999 002a 07F11C03 	 add r3,r7,#28
 9000 002e 1846     	 mov r0,r3
 9001 0030 B968     	 ldr r1,[r7,#8]
 9002 0032 FFF7FEFF 	 bl mbedtls_mpi_copy
 9003 0036 F863     	 str r0,[r7,#60]
 9004 0038 FB6B     	 ldr r3,[r7,#60]
 9005 003a 002B     	 cmp r3,#0
 9006 003c 00D0     	 beq .L473
 9007 003e B9E0     	 b .L474
 9008              	.L473:
1959:C:/Users/Yushev/git/wpcqi-optiga-trust-charge/optiga/externals/mbedtls/library\bignum.c ****     MBEDTLS_MPI_CHK( mbedtls_mpi_copy( &TB, B ) );
 9009              	 .loc 1 1959 0
 9010 0040 07F11003 	 add r3,r7,#16
 9011 0044 1846     	 mov r0,r3
 9012 0046 7968     	 ldr r1,[r7,#4]
 9013 0048 FFF7FEFF 	 bl mbedtls_mpi_copy
 9014 004c F863     	 str r0,[r7,#60]
 9015 004e FB6B     	 ldr r3,[r7,#60]
 9016 0050 002B     	 cmp r3,#0
 9017 0052 00D0     	 beq .L475
 9018 0054 AEE0     	 b .L474
 9019              	.L475:
1960:C:/Users/Yushev/git/wpcqi-optiga-trust-charge/optiga/externals/mbedtls/library\bignum.c **** 
1961:C:/Users/Yushev/git/wpcqi-optiga-trust-charge/optiga/externals/mbedtls/library\bignum.c ****     lz = mbedtls_mpi_lsb( &TA );
 9020              	 .loc 1 1961 0
 9021 0056 07F11C03 	 add r3,r7,#28
 9022 005a 1846     	 mov r0,r3
 9023 005c FFF7FEFF 	 bl mbedtls_mpi_lsb
 9024 0060 B863     	 str r0,[r7,#56]
1962:C:/Users/Yushev/git/wpcqi-optiga-trust-charge/optiga/externals/mbedtls/library\bignum.c ****     lzt = mbedtls_mpi_lsb( &TB );
 9025              	 .loc 1 1962 0
 9026 0062 07F11003 	 add r3,r7,#16
 9027 0066 1846     	 mov r0,r3
 9028 0068 FFF7FEFF 	 bl mbedtls_mpi_lsb
 9029 006c 7863     	 str r0,[r7,#52]
1963:C:/Users/Yushev/git/wpcqi-optiga-trust-charge/optiga/externals/mbedtls/library\bignum.c **** 
1964:C:/Users/Yushev/git/wpcqi-optiga-trust-charge/optiga/externals/mbedtls/library\bignum.c ****     if( lzt < lz )
 9030              	 .loc 1 1964 0
 9031 006e 7A6B     	 ldr r2,[r7,#52]
 9032 0070 BB6B     	 ldr r3,[r7,#56]
 9033 0072 9A42     	 cmp r2,r3
 9034 0074 01D2     	 bcs .L476
1965:C:/Users/Yushev/git/wpcqi-optiga-trust-charge/optiga/externals/mbedtls/library\bignum.c ****         lz = lzt;
 9035              	 .loc 1 1965 0
 9036 0076 7B6B     	 ldr r3,[r7,#52]
 9037 0078 BB63     	 str r3,[r7,#56]
 9038              	.L476:
1966:C:/Users/Yushev/git/wpcqi-optiga-trust-charge/optiga/externals/mbedtls/library\bignum.c **** 
1967:C:/Users/Yushev/git/wpcqi-optiga-trust-charge/optiga/externals/mbedtls/library\bignum.c ****     MBEDTLS_MPI_CHK( mbedtls_mpi_shift_r( &TA, lz ) );
 9039              	 .loc 1 1967 0
 9040 007a 07F11C03 	 add r3,r7,#28
 9041 007e 1846     	 mov r0,r3
 9042 0080 B96B     	 ldr r1,[r7,#56]
 9043 0082 FFF7FEFF 	 bl mbedtls_mpi_shift_r
 9044 0086 F863     	 str r0,[r7,#60]
 9045 0088 FB6B     	 ldr r3,[r7,#60]
 9046 008a 002B     	 cmp r3,#0
 9047 008c 00D0     	 beq .L477
 9048 008e 91E0     	 b .L474
 9049              	.L477:
1968:C:/Users/Yushev/git/wpcqi-optiga-trust-charge/optiga/externals/mbedtls/library\bignum.c ****     MBEDTLS_MPI_CHK( mbedtls_mpi_shift_r( &TB, lz ) );
 9050              	 .loc 1 1968 0
 9051 0090 07F11003 	 add r3,r7,#16
 9052 0094 1846     	 mov r0,r3
 9053 0096 B96B     	 ldr r1,[r7,#56]
 9054 0098 FFF7FEFF 	 bl mbedtls_mpi_shift_r
 9055 009c F863     	 str r0,[r7,#60]
 9056 009e FB6B     	 ldr r3,[r7,#60]
 9057 00a0 002B     	 cmp r3,#0
 9058 00a2 00D0     	 beq .L478
 9059 00a4 86E0     	 b .L474
 9060              	.L478:
1969:C:/Users/Yushev/git/wpcqi-optiga-trust-charge/optiga/externals/mbedtls/library\bignum.c **** 
1970:C:/Users/Yushev/git/wpcqi-optiga-trust-charge/optiga/externals/mbedtls/library\bignum.c ****     TA.s = TB.s = 1;
 9061              	 .loc 1 1970 0
 9062 00a6 0123     	 movs r3,#1
 9063 00a8 3B61     	 str r3,[r7,#16]
 9064 00aa 3B69     	 ldr r3,[r7,#16]
 9065 00ac FB61     	 str r3,[r7,#28]
1971:C:/Users/Yushev/git/wpcqi-optiga-trust-charge/optiga/externals/mbedtls/library\bignum.c **** 
1972:C:/Users/Yushev/git/wpcqi-optiga-trust-charge/optiga/externals/mbedtls/library\bignum.c ****     while( mbedtls_mpi_cmp_int( &TA, 0 ) != 0 )
 9066              	 .loc 1 1972 0
 9067 00ae 62E0     	 b .L479
 9068              	.L485:
1973:C:/Users/Yushev/git/wpcqi-optiga-trust-charge/optiga/externals/mbedtls/library\bignum.c ****     {
1974:C:/Users/Yushev/git/wpcqi-optiga-trust-charge/optiga/externals/mbedtls/library\bignum.c ****         MBEDTLS_MPI_CHK( mbedtls_mpi_shift_r( &TA, mbedtls_mpi_lsb( &TA ) ) );
 9069              	 .loc 1 1974 0
 9070 00b0 07F11C03 	 add r3,r7,#28
 9071 00b4 1846     	 mov r0,r3
 9072 00b6 FFF7FEFF 	 bl mbedtls_mpi_lsb
 9073 00ba 0246     	 mov r2,r0
 9074 00bc 07F11C03 	 add r3,r7,#28
 9075 00c0 1846     	 mov r0,r3
 9076 00c2 1146     	 mov r1,r2
 9077 00c4 FFF7FEFF 	 bl mbedtls_mpi_shift_r
 9078 00c8 F863     	 str r0,[r7,#60]
 9079 00ca FB6B     	 ldr r3,[r7,#60]
 9080 00cc 002B     	 cmp r3,#0
 9081 00ce 00D0     	 beq .L480
 9082 00d0 70E0     	 b .L474
 9083              	.L480:
1975:C:/Users/Yushev/git/wpcqi-optiga-trust-charge/optiga/externals/mbedtls/library\bignum.c ****         MBEDTLS_MPI_CHK( mbedtls_mpi_shift_r( &TB, mbedtls_mpi_lsb( &TB ) ) );
 9084              	 .loc 1 1975 0
 9085 00d2 07F11003 	 add r3,r7,#16
 9086 00d6 1846     	 mov r0,r3
 9087 00d8 FFF7FEFF 	 bl mbedtls_mpi_lsb
 9088 00dc 0246     	 mov r2,r0
 9089 00de 07F11003 	 add r3,r7,#16
 9090 00e2 1846     	 mov r0,r3
 9091 00e4 1146     	 mov r1,r2
 9092 00e6 FFF7FEFF 	 bl mbedtls_mpi_shift_r
 9093 00ea F863     	 str r0,[r7,#60]
 9094 00ec FB6B     	 ldr r3,[r7,#60]
 9095 00ee 002B     	 cmp r3,#0
 9096 00f0 00D0     	 beq .L481
 9097 00f2 5FE0     	 b .L474
 9098              	.L481:
1976:C:/Users/Yushev/git/wpcqi-optiga-trust-charge/optiga/externals/mbedtls/library\bignum.c **** 
1977:C:/Users/Yushev/git/wpcqi-optiga-trust-charge/optiga/externals/mbedtls/library\bignum.c ****         if( mbedtls_mpi_cmp_mpi( &TA, &TB ) >= 0 )
 9099              	 .loc 1 1977 0
 9100 00f4 07F11C02 	 add r2,r7,#28
 9101 00f8 07F11003 	 add r3,r7,#16
 9102 00fc 1046     	 mov r0,r2
 9103 00fe 1946     	 mov r1,r3
 9104 0100 FFF7FEFF 	 bl mbedtls_mpi_cmp_mpi
 9105 0104 0346     	 mov r3,r0
 9106 0106 002B     	 cmp r3,#0
 9107 0108 1ADB     	 blt .L482
1978:C:/Users/Yushev/git/wpcqi-optiga-trust-charge/optiga/externals/mbedtls/library\bignum.c ****         {
1979:C:/Users/Yushev/git/wpcqi-optiga-trust-charge/optiga/externals/mbedtls/library\bignum.c ****             MBEDTLS_MPI_CHK( mbedtls_mpi_sub_abs( &TA, &TA, &TB ) );
 9108              	 .loc 1 1979 0
 9109 010a 07F11C01 	 add r1,r7,#28
 9110 010e 07F11C02 	 add r2,r7,#28
 9111 0112 07F11003 	 add r3,r7,#16
 9112 0116 0846     	 mov r0,r1
 9113 0118 1146     	 mov r1,r2
 9114 011a 1A46     	 mov r2,r3
 9115 011c FFF7FEFF 	 bl mbedtls_mpi_sub_abs
 9116 0120 F863     	 str r0,[r7,#60]
 9117 0122 FB6B     	 ldr r3,[r7,#60]
 9118 0124 002B     	 cmp r3,#0
 9119 0126 00D0     	 beq .L483
 9120 0128 44E0     	 b .L474
 9121              	.L483:
1980:C:/Users/Yushev/git/wpcqi-optiga-trust-charge/optiga/externals/mbedtls/library\bignum.c ****             MBEDTLS_MPI_CHK( mbedtls_mpi_shift_r( &TA, 1 ) );
 9122              	 .loc 1 1980 0
 9123 012a 07F11C03 	 add r3,r7,#28
 9124 012e 1846     	 mov r0,r3
 9125 0130 0121     	 movs r1,#1
 9126 0132 FFF7FEFF 	 bl mbedtls_mpi_shift_r
 9127 0136 F863     	 str r0,[r7,#60]
 9128 0138 FB6B     	 ldr r3,[r7,#60]
 9129 013a 002B     	 cmp r3,#0
 9130 013c 1BD0     	 beq .L479
 9131 013e 39E0     	 b .L474
 9132              	.L482:
1981:C:/Users/Yushev/git/wpcqi-optiga-trust-charge/optiga/externals/mbedtls/library\bignum.c ****         }
1982:C:/Users/Yushev/git/wpcqi-optiga-trust-charge/optiga/externals/mbedtls/library\bignum.c ****         else
1983:C:/Users/Yushev/git/wpcqi-optiga-trust-charge/optiga/externals/mbedtls/library\bignum.c ****         {
1984:C:/Users/Yushev/git/wpcqi-optiga-trust-charge/optiga/externals/mbedtls/library\bignum.c ****             MBEDTLS_MPI_CHK( mbedtls_mpi_sub_abs( &TB, &TB, &TA ) );
 9133              	 .loc 1 1984 0
 9134 0140 07F11001 	 add r1,r7,#16
 9135 0144 07F11002 	 add r2,r7,#16
 9136 0148 07F11C03 	 add r3,r7,#28
 9137 014c 0846     	 mov r0,r1
 9138 014e 1146     	 mov r1,r2
 9139 0150 1A46     	 mov r2,r3
 9140 0152 FFF7FEFF 	 bl mbedtls_mpi_sub_abs
 9141 0156 F863     	 str r0,[r7,#60]
 9142 0158 FB6B     	 ldr r3,[r7,#60]
 9143 015a 002B     	 cmp r3,#0
 9144 015c 00D0     	 beq .L484
 9145 015e 29E0     	 b .L474
 9146              	.L484:
1985:C:/Users/Yushev/git/wpcqi-optiga-trust-charge/optiga/externals/mbedtls/library\bignum.c ****             MBEDTLS_MPI_CHK( mbedtls_mpi_shift_r( &TB, 1 ) );
 9147              	 .loc 1 1985 0
 9148 0160 07F11003 	 add r3,r7,#16
 9149 0164 1846     	 mov r0,r3
 9150 0166 0121     	 movs r1,#1
 9151 0168 FFF7FEFF 	 bl mbedtls_mpi_shift_r
 9152 016c F863     	 str r0,[r7,#60]
 9153 016e FB6B     	 ldr r3,[r7,#60]
 9154 0170 002B     	 cmp r3,#0
 9155 0172 00D0     	 beq .L479
 9156 0174 1EE0     	 b .L474
 9157              	.L479:
1972:C:/Users/Yushev/git/wpcqi-optiga-trust-charge/optiga/externals/mbedtls/library\bignum.c ****     {
 9158              	 .loc 1 1972 0
 9159 0176 07F11C03 	 add r3,r7,#28
 9160 017a 1846     	 mov r0,r3
 9161 017c 0021     	 movs r1,#0
 9162 017e FFF7FEFF 	 bl mbedtls_mpi_cmp_int
 9163 0182 0346     	 mov r3,r0
 9164 0184 002B     	 cmp r3,#0
 9165 0186 93D1     	 bne .L485
1986:C:/Users/Yushev/git/wpcqi-optiga-trust-charge/optiga/externals/mbedtls/library\bignum.c ****         }
1987:C:/Users/Yushev/git/wpcqi-optiga-trust-charge/optiga/externals/mbedtls/library\bignum.c ****     }
1988:C:/Users/Yushev/git/wpcqi-optiga-trust-charge/optiga/externals/mbedtls/library\bignum.c **** 
1989:C:/Users/Yushev/git/wpcqi-optiga-trust-charge/optiga/externals/mbedtls/library\bignum.c ****     MBEDTLS_MPI_CHK( mbedtls_mpi_shift_l( &TB, lz ) );
 9166              	 .loc 1 1989 0
 9167 0188 07F11003 	 add r3,r7,#16
 9168 018c 1846     	 mov r0,r3
 9169 018e B96B     	 ldr r1,[r7,#56]
 9170 0190 FFF7FEFF 	 bl mbedtls_mpi_shift_l
 9171 0194 F863     	 str r0,[r7,#60]
 9172 0196 FB6B     	 ldr r3,[r7,#60]
 9173 0198 002B     	 cmp r3,#0
 9174 019a 00D0     	 beq .L486
 9175 019c 0AE0     	 b .L474
 9176              	.L486:
1990:C:/Users/Yushev/git/wpcqi-optiga-trust-charge/optiga/externals/mbedtls/library\bignum.c ****     MBEDTLS_MPI_CHK( mbedtls_mpi_copy( G, &TB ) );
 9177              	 .loc 1 1990 0
 9178 019e 07F11003 	 add r3,r7,#16
 9179 01a2 F868     	 ldr r0,[r7,#12]
 9180 01a4 1946     	 mov r1,r3
 9181 01a6 FFF7FEFF 	 bl mbedtls_mpi_copy
 9182 01aa F863     	 str r0,[r7,#60]
 9183 01ac FB6B     	 ldr r3,[r7,#60]
 9184 01ae 002B     	 cmp r3,#0
 9185 01b0 00D0     	 beq .L474
 9186 01b2 00BF     	 nop
 9187              	.L474:
1991:C:/Users/Yushev/git/wpcqi-optiga-trust-charge/optiga/externals/mbedtls/library\bignum.c **** 
1992:C:/Users/Yushev/git/wpcqi-optiga-trust-charge/optiga/externals/mbedtls/library\bignum.c **** cleanup:
1993:C:/Users/Yushev/git/wpcqi-optiga-trust-charge/optiga/externals/mbedtls/library\bignum.c **** 
1994:C:/Users/Yushev/git/wpcqi-optiga-trust-charge/optiga/externals/mbedtls/library\bignum.c ****     mbedtls_mpi_free( &TG ); mbedtls_mpi_free( &TA ); mbedtls_mpi_free( &TB );
 9188              	 .loc 1 1994 0
 9189 01b4 07F12803 	 add r3,r7,#40
 9190 01b8 1846     	 mov r0,r3
 9191 01ba FFF7FEFF 	 bl mbedtls_mpi_free
 9192 01be 07F11C03 	 add r3,r7,#28
 9193 01c2 1846     	 mov r0,r3
 9194 01c4 FFF7FEFF 	 bl mbedtls_mpi_free
 9195 01c8 07F11003 	 add r3,r7,#16
 9196 01cc 1846     	 mov r0,r3
 9197 01ce FFF7FEFF 	 bl mbedtls_mpi_free
1995:C:/Users/Yushev/git/wpcqi-optiga-trust-charge/optiga/externals/mbedtls/library\bignum.c **** 
1996:C:/Users/Yushev/git/wpcqi-optiga-trust-charge/optiga/externals/mbedtls/library\bignum.c ****     return( ret );
 9198              	 .loc 1 1996 0
 9199 01d2 FB6B     	 ldr r3,[r7,#60]
1997:C:/Users/Yushev/git/wpcqi-optiga-trust-charge/optiga/externals/mbedtls/library\bignum.c **** }
 9200              	 .loc 1 1997 0
 9201 01d4 1846     	 mov r0,r3
 9202 01d6 4037     	 adds r7,r7,#64
 9203              	.LCFI244:
 9204              	 .cfi_def_cfa_offset 8
 9205 01d8 BD46     	 mov sp,r7
 9206              	.LCFI245:
 9207              	 .cfi_def_cfa_register 13
 9208              	 
 9209 01da 80BD     	 pop {r7,pc}
 9210              	 .cfi_endproc
 9211              	.LFE46:
 9213              	 .section .text.mbedtls_mpi_fill_random,"ax",%progbits
 9214              	 .align 2
 9215              	 .global mbedtls_mpi_fill_random
 9216              	 .thumb
 9217              	 .thumb_func
 9219              	mbedtls_mpi_fill_random:
 9220              	.LFB47:
1998:C:/Users/Yushev/git/wpcqi-optiga-trust-charge/optiga/externals/mbedtls/library\bignum.c **** 
1999:C:/Users/Yushev/git/wpcqi-optiga-trust-charge/optiga/externals/mbedtls/library\bignum.c **** /*
2000:C:/Users/Yushev/git/wpcqi-optiga-trust-charge/optiga/externals/mbedtls/library\bignum.c ****  * Fill X with size bytes of random.
2001:C:/Users/Yushev/git/wpcqi-optiga-trust-charge/optiga/externals/mbedtls/library\bignum.c ****  *
2002:C:/Users/Yushev/git/wpcqi-optiga-trust-charge/optiga/externals/mbedtls/library\bignum.c ****  * Use a temporary bytes representation to make sure the result is the same
2003:C:/Users/Yushev/git/wpcqi-optiga-trust-charge/optiga/externals/mbedtls/library\bignum.c ****  * regardless of the platform endianness (useful when f_rng is actually
2004:C:/Users/Yushev/git/wpcqi-optiga-trust-charge/optiga/externals/mbedtls/library\bignum.c ****  * deterministic, eg for tests).
2005:C:/Users/Yushev/git/wpcqi-optiga-trust-charge/optiga/externals/mbedtls/library\bignum.c ****  */
2006:C:/Users/Yushev/git/wpcqi-optiga-trust-charge/optiga/externals/mbedtls/library\bignum.c **** int mbedtls_mpi_fill_random( mbedtls_mpi *X, size_t size,
2007:C:/Users/Yushev/git/wpcqi-optiga-trust-charge/optiga/externals/mbedtls/library\bignum.c ****                      int (*f_rng)(void *, unsigned char *, size_t),
2008:C:/Users/Yushev/git/wpcqi-optiga-trust-charge/optiga/externals/mbedtls/library\bignum.c ****                      void *p_rng )
2009:C:/Users/Yushev/git/wpcqi-optiga-trust-charge/optiga/externals/mbedtls/library\bignum.c **** {
 9221              	 .loc 1 2009 0
 9222              	 .cfi_startproc
 9223              	 
 9224              	 
 9225 0000 90B5     	 push {r4,r7,lr}
 9226              	.LCFI246:
 9227              	 .cfi_def_cfa_offset 12
 9228              	 .cfi_offset 4,-12
 9229              	 .cfi_offset 7,-8
 9230              	 .cfi_offset 14,-4
 9231 0002 ADF21C4D 	 subw sp,sp,#1052
 9232              	.LCFI247:
 9233              	 .cfi_def_cfa_offset 1064
 9234 0006 00AF     	 add r7,sp,#0
 9235              	.LCFI248:
 9236              	 .cfi_def_cfa_register 7
 9237 0008 07F10C04 	 add r4,r7,#12
 9238 000c 2060     	 str r0,[r4]
 9239 000e 07F10800 	 add r0,r7,#8
 9240 0012 0160     	 str r1,[r0]
 9241 0014 391D     	 adds r1,r7,#4
 9242 0016 0A60     	 str r2,[r1]
 9243 0018 3A46     	 mov r2,r7
 9244 001a 1360     	 str r3,[r2]
2010:C:/Users/Yushev/git/wpcqi-optiga-trust-charge/optiga/externals/mbedtls/library\bignum.c ****     int ret;
2011:C:/Users/Yushev/git/wpcqi-optiga-trust-charge/optiga/externals/mbedtls/library\bignum.c ****     unsigned char buf[MBEDTLS_MPI_MAX_SIZE];
2012:C:/Users/Yushev/git/wpcqi-optiga-trust-charge/optiga/externals/mbedtls/library\bignum.c ****     MPI_VALIDATE_RET( X     != NULL );
2013:C:/Users/Yushev/git/wpcqi-optiga-trust-charge/optiga/externals/mbedtls/library\bignum.c ****     MPI_VALIDATE_RET( f_rng != NULL );
2014:C:/Users/Yushev/git/wpcqi-optiga-trust-charge/optiga/externals/mbedtls/library\bignum.c **** 
2015:C:/Users/Yushev/git/wpcqi-optiga-trust-charge/optiga/externals/mbedtls/library\bignum.c ****     if( size > MBEDTLS_MPI_MAX_SIZE )
 9245              	 .loc 1 2015 0
 9246 001c 07F10803 	 add r3,r7,#8
 9247 0020 1B68     	 ldr r3,[r3]
 9248 0022 B3F5806F 	 cmp r3,#1024
 9249 0026 02D9     	 bls .L489
2016:C:/Users/Yushev/git/wpcqi-optiga-trust-charge/optiga/externals/mbedtls/library\bignum.c ****         return( MBEDTLS_ERR_MPI_BAD_INPUT_DATA );
 9250              	 .loc 1 2016 0
 9251 0028 6FF00303 	 mvn r3,#3
 9252 002c 2BE0     	 b .L493
 9253              	.L489:
2017:C:/Users/Yushev/git/wpcqi-optiga-trust-charge/optiga/externals/mbedtls/library\bignum.c **** 
2018:C:/Users/Yushev/git/wpcqi-optiga-trust-charge/optiga/externals/mbedtls/library\bignum.c ****     MBEDTLS_MPI_CHK( f_rng( p_rng, buf, size ) );
 9254              	 .loc 1 2018 0
 9255 002e 3B1D     	 adds r3,r7,#4
 9256 0030 3946     	 mov r1,r7
 9257 0032 07F11404 	 add r4,r7,#20
 9258 0036 07F10802 	 add r2,r7,#8
 9259 003a 1B68     	 ldr r3,[r3]
 9260 003c 0868     	 ldr r0,[r1]
 9261 003e 2146     	 mov r1,r4
 9262 0040 1268     	 ldr r2,[r2]
 9263 0042 9847     	 blx r3
 9264 0044 C7F81404 	 str r0,[r7,#1044]
 9265 0048 D7F81434 	 ldr r3,[r7,#1044]
 9266 004c 002B     	 cmp r3,#0
 9267 004e 00D0     	 beq .L491
 9268 0050 10E0     	 b .L492
 9269              	.L491:
2019:C:/Users/Yushev/git/wpcqi-optiga-trust-charge/optiga/externals/mbedtls/library\bignum.c ****     MBEDTLS_MPI_CHK( mbedtls_mpi_read_binary( X, buf, size ) );
 9270              	 .loc 1 2019 0
 9271 0052 07F10C02 	 add r2,r7,#12
 9272 0056 07F11401 	 add r1,r7,#20
 9273 005a 07F10803 	 add r3,r7,#8
 9274 005e 1068     	 ldr r0,[r2]
 9275 0060 1A68     	 ldr r2,[r3]
 9276 0062 FFF7FEFF 	 bl mbedtls_mpi_read_binary
 9277 0066 C7F81404 	 str r0,[r7,#1044]
 9278 006a D7F81434 	 ldr r3,[r7,#1044]
 9279 006e 002B     	 cmp r3,#0
 9280 0070 00D0     	 beq .L492
 9281 0072 00BF     	 nop
 9282              	.L492:
2020:C:/Users/Yushev/git/wpcqi-optiga-trust-charge/optiga/externals/mbedtls/library\bignum.c **** 
2021:C:/Users/Yushev/git/wpcqi-optiga-trust-charge/optiga/externals/mbedtls/library\bignum.c **** cleanup:
2022:C:/Users/Yushev/git/wpcqi-optiga-trust-charge/optiga/externals/mbedtls/library\bignum.c ****     mbedtls_platform_zeroize( buf, sizeof( buf ) );
 9283              	 .loc 1 2022 0
 9284 0074 07F11403 	 add r3,r7,#20
 9285 0078 1846     	 mov r0,r3
 9286 007a 4FF48061 	 mov r1,#1024
 9287 007e FFF7FEFF 	 bl mbedtls_platform_zeroize
2023:C:/Users/Yushev/git/wpcqi-optiga-trust-charge/optiga/externals/mbedtls/library\bignum.c ****     return( ret );
 9288              	 .loc 1 2023 0
 9289 0082 D7F81434 	 ldr r3,[r7,#1044]
 9290              	.L493:
2024:C:/Users/Yushev/git/wpcqi-optiga-trust-charge/optiga/externals/mbedtls/library\bignum.c **** }
 9291              	 .loc 1 2024 0 discriminator 1
 9292 0086 1846     	 mov r0,r3
 9293 0088 07F21C47 	 addw r7,r7,#1052
 9294              	.LCFI249:
 9295              	 .cfi_def_cfa_offset 12
 9296 008c BD46     	 mov sp,r7
 9297              	.LCFI250:
 9298              	 .cfi_def_cfa_register 13
 9299              	 
 9300 008e 90BD     	 pop {r4,r7,pc}
 9301              	 .cfi_endproc
 9302              	.LFE47:
 9304              	 .section .text.mbedtls_mpi_inv_mod,"ax",%progbits
 9305              	 .align 2
 9306              	 .global mbedtls_mpi_inv_mod
 9307              	 .thumb
 9308              	 .thumb_func
 9310              	mbedtls_mpi_inv_mod:
 9311              	.LFB48:
2025:C:/Users/Yushev/git/wpcqi-optiga-trust-charge/optiga/externals/mbedtls/library\bignum.c **** 
2026:C:/Users/Yushev/git/wpcqi-optiga-trust-charge/optiga/externals/mbedtls/library\bignum.c **** /*
2027:C:/Users/Yushev/git/wpcqi-optiga-trust-charge/optiga/externals/mbedtls/library\bignum.c ****  * Modular inverse: X = A^-1 mod N  (HAC 14.61 / 14.64)
2028:C:/Users/Yushev/git/wpcqi-optiga-trust-charge/optiga/externals/mbedtls/library\bignum.c ****  */
2029:C:/Users/Yushev/git/wpcqi-optiga-trust-charge/optiga/externals/mbedtls/library\bignum.c **** int mbedtls_mpi_inv_mod( mbedtls_mpi *X, const mbedtls_mpi *A, const mbedtls_mpi *N )
2030:C:/Users/Yushev/git/wpcqi-optiga-trust-charge/optiga/externals/mbedtls/library\bignum.c **** {
 9312              	 .loc 1 2030 0
 9313              	 .cfi_startproc
 9314              	 
 9315              	 
 9316 0000 80B5     	 push {r7,lr}
 9317              	.LCFI251:
 9318              	 .cfi_def_cfa_offset 8
 9319              	 .cfi_offset 7,-8
 9320              	 .cfi_offset 14,-4
 9321 0002 A0B0     	 sub sp,sp,#128
 9322              	.LCFI252:
 9323              	 .cfi_def_cfa_offset 136
 9324 0004 00AF     	 add r7,sp,#0
 9325              	.LCFI253:
 9326              	 .cfi_def_cfa_register 7
 9327 0006 F860     	 str r0,[r7,#12]
 9328 0008 B960     	 str r1,[r7,#8]
 9329 000a 7A60     	 str r2,[r7,#4]
2031:C:/Users/Yushev/git/wpcqi-optiga-trust-charge/optiga/externals/mbedtls/library\bignum.c ****     int ret;
2032:C:/Users/Yushev/git/wpcqi-optiga-trust-charge/optiga/externals/mbedtls/library\bignum.c ****     mbedtls_mpi G, TA, TU, U1, U2, TB, TV, V1, V2;
2033:C:/Users/Yushev/git/wpcqi-optiga-trust-charge/optiga/externals/mbedtls/library\bignum.c ****     MPI_VALIDATE_RET( X != NULL );
2034:C:/Users/Yushev/git/wpcqi-optiga-trust-charge/optiga/externals/mbedtls/library\bignum.c ****     MPI_VALIDATE_RET( A != NULL );
2035:C:/Users/Yushev/git/wpcqi-optiga-trust-charge/optiga/externals/mbedtls/library\bignum.c ****     MPI_VALIDATE_RET( N != NULL );
2036:C:/Users/Yushev/git/wpcqi-optiga-trust-charge/optiga/externals/mbedtls/library\bignum.c **** 
2037:C:/Users/Yushev/git/wpcqi-optiga-trust-charge/optiga/externals/mbedtls/library\bignum.c ****     if( mbedtls_mpi_cmp_int( N, 1 ) <= 0 )
 9330              	 .loc 1 2037 0
 9331 000c 7868     	 ldr r0,[r7,#4]
 9332 000e 0121     	 movs r1,#1
 9333 0010 FFF7FEFF 	 bl mbedtls_mpi_cmp_int
 9334 0014 0346     	 mov r3,r0
 9335 0016 002B     	 cmp r3,#0
 9336 0018 02DC     	 bgt .L495
2038:C:/Users/Yushev/git/wpcqi-optiga-trust-charge/optiga/externals/mbedtls/library\bignum.c ****         return( MBEDTLS_ERR_MPI_BAD_INPUT_DATA );
 9337              	 .loc 1 2038 0
 9338 001a 6FF00303 	 mvn r3,#3
 9339 001e 26E2     	 b .L532
 9340              	.L495:
2039:C:/Users/Yushev/git/wpcqi-optiga-trust-charge/optiga/externals/mbedtls/library\bignum.c **** 
2040:C:/Users/Yushev/git/wpcqi-optiga-trust-charge/optiga/externals/mbedtls/library\bignum.c ****     mbedtls_mpi_init( &TA ); mbedtls_mpi_init( &TU ); mbedtls_mpi_init( &U1 ); mbedtls_mpi_init( &U
 9341              	 .loc 1 2040 0
 9342 0020 07F16403 	 add r3,r7,#100
 9343 0024 1846     	 mov r0,r3
 9344 0026 FFF7FEFF 	 bl mbedtls_mpi_init
 9345 002a 07F15803 	 add r3,r7,#88
 9346 002e 1846     	 mov r0,r3
 9347 0030 FFF7FEFF 	 bl mbedtls_mpi_init
 9348 0034 07F14C03 	 add r3,r7,#76
 9349 0038 1846     	 mov r0,r3
 9350 003a FFF7FEFF 	 bl mbedtls_mpi_init
 9351 003e 07F14003 	 add r3,r7,#64
 9352 0042 1846     	 mov r0,r3
 9353 0044 FFF7FEFF 	 bl mbedtls_mpi_init
2041:C:/Users/Yushev/git/wpcqi-optiga-trust-charge/optiga/externals/mbedtls/library\bignum.c ****     mbedtls_mpi_init( &G ); mbedtls_mpi_init( &TB ); mbedtls_mpi_init( &TV );
 9354              	 .loc 1 2041 0
 9355 0048 07F17003 	 add r3,r7,#112
 9356 004c 1846     	 mov r0,r3
 9357 004e FFF7FEFF 	 bl mbedtls_mpi_init
 9358 0052 07F13403 	 add r3,r7,#52
 9359 0056 1846     	 mov r0,r3
 9360 0058 FFF7FEFF 	 bl mbedtls_mpi_init
 9361 005c 07F12803 	 add r3,r7,#40
 9362 0060 1846     	 mov r0,r3
 9363 0062 FFF7FEFF 	 bl mbedtls_mpi_init
2042:C:/Users/Yushev/git/wpcqi-optiga-trust-charge/optiga/externals/mbedtls/library\bignum.c ****     mbedtls_mpi_init( &V1 ); mbedtls_mpi_init( &V2 );
 9364              	 .loc 1 2042 0
 9365 0066 07F11C03 	 add r3,r7,#28
 9366 006a 1846     	 mov r0,r3
 9367 006c FFF7FEFF 	 bl mbedtls_mpi_init
 9368 0070 07F11003 	 add r3,r7,#16
 9369 0074 1846     	 mov r0,r3
 9370 0076 FFF7FEFF 	 bl mbedtls_mpi_init
2043:C:/Users/Yushev/git/wpcqi-optiga-trust-charge/optiga/externals/mbedtls/library\bignum.c **** 
2044:C:/Users/Yushev/git/wpcqi-optiga-trust-charge/optiga/externals/mbedtls/library\bignum.c ****     MBEDTLS_MPI_CHK( mbedtls_mpi_gcd( &G, A, N ) );
 9371              	 .loc 1 2044 0
 9372 007a 07F17003 	 add r3,r7,#112
 9373 007e 1846     	 mov r0,r3
 9374 0080 B968     	 ldr r1,[r7,#8]
 9375 0082 7A68     	 ldr r2,[r7,#4]
 9376 0084 FFF7FEFF 	 bl mbedtls_mpi_gcd
 9377 0088 F867     	 str r0,[r7,#124]
 9378 008a FB6F     	 ldr r3,[r7,#124]
 9379 008c 002B     	 cmp r3,#0
 9380 008e 00D0     	 beq .L497
 9381 0090 BFE1     	 b .L498
 9382              	.L497:
2045:C:/Users/Yushev/git/wpcqi-optiga-trust-charge/optiga/externals/mbedtls/library\bignum.c **** 
2046:C:/Users/Yushev/git/wpcqi-optiga-trust-charge/optiga/externals/mbedtls/library\bignum.c ****     if( mbedtls_mpi_cmp_int( &G, 1 ) != 0 )
 9383              	 .loc 1 2046 0
 9384 0092 07F17003 	 add r3,r7,#112
 9385 0096 1846     	 mov r0,r3
 9386 0098 0121     	 movs r1,#1
 9387 009a FFF7FEFF 	 bl mbedtls_mpi_cmp_int
 9388 009e 0346     	 mov r3,r0
 9389 00a0 002B     	 cmp r3,#0
 9390 00a2 03D0     	 beq .L499
2047:C:/Users/Yushev/git/wpcqi-optiga-trust-charge/optiga/externals/mbedtls/library\bignum.c ****     {
2048:C:/Users/Yushev/git/wpcqi-optiga-trust-charge/optiga/externals/mbedtls/library\bignum.c ****         ret = MBEDTLS_ERR_MPI_NOT_ACCEPTABLE;
 9391              	 .loc 1 2048 0
 9392 00a4 6FF00D03 	 mvn r3,#13
 9393 00a8 FB67     	 str r3,[r7,#124]
2049:C:/Users/Yushev/git/wpcqi-optiga-trust-charge/optiga/externals/mbedtls/library\bignum.c ****         goto cleanup;
 9394              	 .loc 1 2049 0
 9395 00aa B2E1     	 b .L498
 9396              	.L499:
2050:C:/Users/Yushev/git/wpcqi-optiga-trust-charge/optiga/externals/mbedtls/library\bignum.c ****     }
2051:C:/Users/Yushev/git/wpcqi-optiga-trust-charge/optiga/externals/mbedtls/library\bignum.c **** 
2052:C:/Users/Yushev/git/wpcqi-optiga-trust-charge/optiga/externals/mbedtls/library\bignum.c ****     MBEDTLS_MPI_CHK( mbedtls_mpi_mod_mpi( &TA, A, N ) );
 9397              	 .loc 1 2052 0
 9398 00ac 07F16403 	 add r3,r7,#100
 9399 00b0 1846     	 mov r0,r3
 9400 00b2 B968     	 ldr r1,[r7,#8]
 9401 00b4 7A68     	 ldr r2,[r7,#4]
 9402 00b6 FFF7FEFF 	 bl mbedtls_mpi_mod_mpi
 9403 00ba F867     	 str r0,[r7,#124]
 9404 00bc FB6F     	 ldr r3,[r7,#124]
 9405 00be 002B     	 cmp r3,#0
 9406 00c0 00D0     	 beq .L500
 9407 00c2 A6E1     	 b .L498
 9408              	.L500:
2053:C:/Users/Yushev/git/wpcqi-optiga-trust-charge/optiga/externals/mbedtls/library\bignum.c ****     MBEDTLS_MPI_CHK( mbedtls_mpi_copy( &TU, &TA ) );
 9409              	 .loc 1 2053 0
 9410 00c4 07F15802 	 add r2,r7,#88
 9411 00c8 07F16403 	 add r3,r7,#100
 9412 00cc 1046     	 mov r0,r2
 9413 00ce 1946     	 mov r1,r3
 9414 00d0 FFF7FEFF 	 bl mbedtls_mpi_copy
 9415 00d4 F867     	 str r0,[r7,#124]
 9416 00d6 FB6F     	 ldr r3,[r7,#124]
 9417 00d8 002B     	 cmp r3,#0
 9418 00da 00D0     	 beq .L501
 9419 00dc 99E1     	 b .L498
 9420              	.L501:
2054:C:/Users/Yushev/git/wpcqi-optiga-trust-charge/optiga/externals/mbedtls/library\bignum.c ****     MBEDTLS_MPI_CHK( mbedtls_mpi_copy( &TB, N ) );
 9421              	 .loc 1 2054 0
 9422 00de 07F13403 	 add r3,r7,#52
 9423 00e2 1846     	 mov r0,r3
 9424 00e4 7968     	 ldr r1,[r7,#4]
 9425 00e6 FFF7FEFF 	 bl mbedtls_mpi_copy
 9426 00ea F867     	 str r0,[r7,#124]
 9427 00ec FB6F     	 ldr r3,[r7,#124]
 9428 00ee 002B     	 cmp r3,#0
 9429 00f0 00D0     	 beq .L502
 9430 00f2 8EE1     	 b .L498
 9431              	.L502:
2055:C:/Users/Yushev/git/wpcqi-optiga-trust-charge/optiga/externals/mbedtls/library\bignum.c ****     MBEDTLS_MPI_CHK( mbedtls_mpi_copy( &TV, N ) );
 9432              	 .loc 1 2055 0
 9433 00f4 07F12803 	 add r3,r7,#40
 9434 00f8 1846     	 mov r0,r3
 9435 00fa 7968     	 ldr r1,[r7,#4]
 9436 00fc FFF7FEFF 	 bl mbedtls_mpi_copy
 9437 0100 F867     	 str r0,[r7,#124]
 9438 0102 FB6F     	 ldr r3,[r7,#124]
 9439 0104 002B     	 cmp r3,#0
 9440 0106 00D0     	 beq .L503
 9441 0108 83E1     	 b .L498
 9442              	.L503:
2056:C:/Users/Yushev/git/wpcqi-optiga-trust-charge/optiga/externals/mbedtls/library\bignum.c **** 
2057:C:/Users/Yushev/git/wpcqi-optiga-trust-charge/optiga/externals/mbedtls/library\bignum.c ****     MBEDTLS_MPI_CHK( mbedtls_mpi_lset( &U1, 1 ) );
 9443              	 .loc 1 2057 0
 9444 010a 07F14C03 	 add r3,r7,#76
 9445 010e 1846     	 mov r0,r3
 9446 0110 0121     	 movs r1,#1
 9447 0112 FFF7FEFF 	 bl mbedtls_mpi_lset
 9448 0116 F867     	 str r0,[r7,#124]
 9449 0118 FB6F     	 ldr r3,[r7,#124]
 9450 011a 002B     	 cmp r3,#0
 9451 011c 00D0     	 beq .L504
 9452 011e 78E1     	 b .L498
 9453              	.L504:
2058:C:/Users/Yushev/git/wpcqi-optiga-trust-charge/optiga/externals/mbedtls/library\bignum.c ****     MBEDTLS_MPI_CHK( mbedtls_mpi_lset( &U2, 0 ) );
 9454              	 .loc 1 2058 0
 9455 0120 07F14003 	 add r3,r7,#64
 9456 0124 1846     	 mov r0,r3
 9457 0126 0021     	 movs r1,#0
 9458 0128 FFF7FEFF 	 bl mbedtls_mpi_lset
 9459 012c F867     	 str r0,[r7,#124]
 9460 012e FB6F     	 ldr r3,[r7,#124]
 9461 0130 002B     	 cmp r3,#0
 9462 0132 00D0     	 beq .L505
 9463 0134 6DE1     	 b .L498
 9464              	.L505:
2059:C:/Users/Yushev/git/wpcqi-optiga-trust-charge/optiga/externals/mbedtls/library\bignum.c ****     MBEDTLS_MPI_CHK( mbedtls_mpi_lset( &V1, 0 ) );
 9465              	 .loc 1 2059 0
 9466 0136 07F11C03 	 add r3,r7,#28
 9467 013a 1846     	 mov r0,r3
 9468 013c 0021     	 movs r1,#0
 9469 013e FFF7FEFF 	 bl mbedtls_mpi_lset
 9470 0142 F867     	 str r0,[r7,#124]
 9471 0144 FB6F     	 ldr r3,[r7,#124]
 9472 0146 002B     	 cmp r3,#0
 9473 0148 00D0     	 beq .L506
 9474 014a 62E1     	 b .L498
 9475              	.L506:
2060:C:/Users/Yushev/git/wpcqi-optiga-trust-charge/optiga/externals/mbedtls/library\bignum.c ****     MBEDTLS_MPI_CHK( mbedtls_mpi_lset( &V2, 1 ) );
 9476              	 .loc 1 2060 0
 9477 014c 07F11003 	 add r3,r7,#16
 9478 0150 1846     	 mov r0,r3
 9479 0152 0121     	 movs r1,#1
 9480 0154 FFF7FEFF 	 bl mbedtls_mpi_lset
 9481 0158 F867     	 str r0,[r7,#124]
 9482 015a FB6F     	 ldr r3,[r7,#124]
 9483 015c 002B     	 cmp r3,#0
 9484 015e 00D0     	 beq .L507
 9485 0160 57E1     	 b .L498
 9486              	.L507:
2061:C:/Users/Yushev/git/wpcqi-optiga-trust-charge/optiga/externals/mbedtls/library\bignum.c **** 
2062:C:/Users/Yushev/git/wpcqi-optiga-trust-charge/optiga/externals/mbedtls/library\bignum.c ****     do
2063:C:/Users/Yushev/git/wpcqi-optiga-trust-charge/optiga/externals/mbedtls/library\bignum.c ****     {
2064:C:/Users/Yushev/git/wpcqi-optiga-trust-charge/optiga/externals/mbedtls/library\bignum.c ****         while( ( TU.p[0] & 1 ) == 0 )
 9487              	 .loc 1 2064 0
 9488 0162 4CE0     	 b .L508
 9489              	.L514:
2065:C:/Users/Yushev/git/wpcqi-optiga-trust-charge/optiga/externals/mbedtls/library\bignum.c ****         {
2066:C:/Users/Yushev/git/wpcqi-optiga-trust-charge/optiga/externals/mbedtls/library\bignum.c ****             MBEDTLS_MPI_CHK( mbedtls_mpi_shift_r( &TU, 1 ) );
 9490              	 .loc 1 2066 0
 9491 0164 07F15803 	 add r3,r7,#88
 9492 0168 1846     	 mov r0,r3
 9493 016a 0121     	 movs r1,#1
 9494 016c FFF7FEFF 	 bl mbedtls_mpi_shift_r
 9495 0170 F867     	 str r0,[r7,#124]
 9496 0172 FB6F     	 ldr r3,[r7,#124]
 9497 0174 002B     	 cmp r3,#0
 9498 0176 00D0     	 beq .L509
 9499 0178 4BE1     	 b .L498
 9500              	.L509:
2067:C:/Users/Yushev/git/wpcqi-optiga-trust-charge/optiga/externals/mbedtls/library\bignum.c **** 
2068:C:/Users/Yushev/git/wpcqi-optiga-trust-charge/optiga/externals/mbedtls/library\bignum.c ****             if( ( U1.p[0] & 1 ) != 0 || ( U2.p[0] & 1 ) != 0 )
 9501              	 .loc 1 2068 0
 9502 017a 7B6D     	 ldr r3,[r7,#84]
 9503 017c 1B68     	 ldr r3,[r3]
 9504 017e 03F00103 	 and r3,r3,#1
 9505 0182 002B     	 cmp r3,#0
 9506 0184 05D1     	 bne .L510
 9507              	 .loc 1 2068 0 is_stmt 0 discriminator 1
 9508 0186 BB6C     	 ldr r3,[r7,#72]
 9509 0188 1B68     	 ldr r3,[r3]
 9510 018a 03F00103 	 and r3,r3,#1
 9511 018e 002B     	 cmp r3,#0
 9512 0190 1FD0     	 beq .L511
 9513              	.L510:
2069:C:/Users/Yushev/git/wpcqi-optiga-trust-charge/optiga/externals/mbedtls/library\bignum.c ****             {
2070:C:/Users/Yushev/git/wpcqi-optiga-trust-charge/optiga/externals/mbedtls/library\bignum.c ****                 MBEDTLS_MPI_CHK( mbedtls_mpi_add_mpi( &U1, &U1, &TB ) );
 9514              	 .loc 1 2070 0 is_stmt 1
 9515 0192 07F14C01 	 add r1,r7,#76
 9516 0196 07F14C02 	 add r2,r7,#76
 9517 019a 07F13403 	 add r3,r7,#52
 9518 019e 0846     	 mov r0,r1
 9519 01a0 1146     	 mov r1,r2
 9520 01a2 1A46     	 mov r2,r3
 9521 01a4 FFF7FEFF 	 bl mbedtls_mpi_add_mpi
 9522 01a8 F867     	 str r0,[r7,#124]
 9523 01aa FB6F     	 ldr r3,[r7,#124]
 9524 01ac 002B     	 cmp r3,#0
 9525 01ae 00D0     	 beq .L512
 9526 01b0 2FE1     	 b .L498
 9527              	.L512:
2071:C:/Users/Yushev/git/wpcqi-optiga-trust-charge/optiga/externals/mbedtls/library\bignum.c ****                 MBEDTLS_MPI_CHK( mbedtls_mpi_sub_mpi( &U2, &U2, &TA ) );
 9528              	 .loc 1 2071 0
 9529 01b2 07F14001 	 add r1,r7,#64
 9530 01b6 07F14002 	 add r2,r7,#64
 9531 01ba 07F16403 	 add r3,r7,#100
 9532 01be 0846     	 mov r0,r1
 9533 01c0 1146     	 mov r1,r2
 9534 01c2 1A46     	 mov r2,r3
 9535 01c4 FFF7FEFF 	 bl mbedtls_mpi_sub_mpi
 9536 01c8 F867     	 str r0,[r7,#124]
 9537 01ca FB6F     	 ldr r3,[r7,#124]
 9538 01cc 002B     	 cmp r3,#0
 9539 01ce 00D0     	 beq .L511
 9540 01d0 1FE1     	 b .L498
 9541              	.L511:
2072:C:/Users/Yushev/git/wpcqi-optiga-trust-charge/optiga/externals/mbedtls/library\bignum.c ****             }
2073:C:/Users/Yushev/git/wpcqi-optiga-trust-charge/optiga/externals/mbedtls/library\bignum.c **** 
2074:C:/Users/Yushev/git/wpcqi-optiga-trust-charge/optiga/externals/mbedtls/library\bignum.c ****             MBEDTLS_MPI_CHK( mbedtls_mpi_shift_r( &U1, 1 ) );
 9542              	 .loc 1 2074 0
 9543 01d2 07F14C03 	 add r3,r7,#76
 9544 01d6 1846     	 mov r0,r3
 9545 01d8 0121     	 movs r1,#1
 9546 01da FFF7FEFF 	 bl mbedtls_mpi_shift_r
 9547 01de F867     	 str r0,[r7,#124]
 9548 01e0 FB6F     	 ldr r3,[r7,#124]
 9549 01e2 002B     	 cmp r3,#0
 9550 01e4 00D0     	 beq .L513
 9551 01e6 14E1     	 b .L498
 9552              	.L513:
2075:C:/Users/Yushev/git/wpcqi-optiga-trust-charge/optiga/externals/mbedtls/library\bignum.c ****             MBEDTLS_MPI_CHK( mbedtls_mpi_shift_r( &U2, 1 ) );
 9553              	 .loc 1 2075 0
 9554 01e8 07F14003 	 add r3,r7,#64
 9555 01ec 1846     	 mov r0,r3
 9556 01ee 0121     	 movs r1,#1
 9557 01f0 FFF7FEFF 	 bl mbedtls_mpi_shift_r
 9558 01f4 F867     	 str r0,[r7,#124]
 9559 01f6 FB6F     	 ldr r3,[r7,#124]
 9560 01f8 002B     	 cmp r3,#0
 9561 01fa 00D0     	 beq .L508
 9562 01fc 09E1     	 b .L498
 9563              	.L508:
2064:C:/Users/Yushev/git/wpcqi-optiga-trust-charge/optiga/externals/mbedtls/library\bignum.c ****         {
 9564              	 .loc 1 2064 0
 9565 01fe 3B6E     	 ldr r3,[r7,#96]
 9566 0200 1B68     	 ldr r3,[r3]
 9567 0202 03F00103 	 and r3,r3,#1
 9568 0206 002B     	 cmp r3,#0
 9569 0208 ACD0     	 beq .L514
2076:C:/Users/Yushev/git/wpcqi-optiga-trust-charge/optiga/externals/mbedtls/library\bignum.c ****         }
2077:C:/Users/Yushev/git/wpcqi-optiga-trust-charge/optiga/externals/mbedtls/library\bignum.c **** 
2078:C:/Users/Yushev/git/wpcqi-optiga-trust-charge/optiga/externals/mbedtls/library\bignum.c ****         while( ( TV.p[0] & 1 ) == 0 )
 9570              	 .loc 1 2078 0
 9571 020a 4CE0     	 b .L515
 9572              	.L521:
2079:C:/Users/Yushev/git/wpcqi-optiga-trust-charge/optiga/externals/mbedtls/library\bignum.c ****         {
2080:C:/Users/Yushev/git/wpcqi-optiga-trust-charge/optiga/externals/mbedtls/library\bignum.c ****             MBEDTLS_MPI_CHK( mbedtls_mpi_shift_r( &TV, 1 ) );
 9573              	 .loc 1 2080 0
 9574 020c 07F12803 	 add r3,r7,#40
 9575 0210 1846     	 mov r0,r3
 9576 0212 0121     	 movs r1,#1
 9577 0214 FFF7FEFF 	 bl mbedtls_mpi_shift_r
 9578 0218 F867     	 str r0,[r7,#124]
 9579 021a FB6F     	 ldr r3,[r7,#124]
 9580 021c 002B     	 cmp r3,#0
 9581 021e 00D0     	 beq .L516
 9582 0220 F7E0     	 b .L498
 9583              	.L516:
2081:C:/Users/Yushev/git/wpcqi-optiga-trust-charge/optiga/externals/mbedtls/library\bignum.c **** 
2082:C:/Users/Yushev/git/wpcqi-optiga-trust-charge/optiga/externals/mbedtls/library\bignum.c ****             if( ( V1.p[0] & 1 ) != 0 || ( V2.p[0] & 1 ) != 0 )
 9584              	 .loc 1 2082 0
 9585 0222 7B6A     	 ldr r3,[r7,#36]
 9586 0224 1B68     	 ldr r3,[r3]
 9587 0226 03F00103 	 and r3,r3,#1
 9588 022a 002B     	 cmp r3,#0
 9589 022c 05D1     	 bne .L517
 9590              	 .loc 1 2082 0 is_stmt 0 discriminator 1
 9591 022e BB69     	 ldr r3,[r7,#24]
 9592 0230 1B68     	 ldr r3,[r3]
 9593 0232 03F00103 	 and r3,r3,#1
 9594 0236 002B     	 cmp r3,#0
 9595 0238 1FD0     	 beq .L518
 9596              	.L517:
2083:C:/Users/Yushev/git/wpcqi-optiga-trust-charge/optiga/externals/mbedtls/library\bignum.c ****             {
2084:C:/Users/Yushev/git/wpcqi-optiga-trust-charge/optiga/externals/mbedtls/library\bignum.c ****                 MBEDTLS_MPI_CHK( mbedtls_mpi_add_mpi( &V1, &V1, &TB ) );
 9597              	 .loc 1 2084 0 is_stmt 1
 9598 023a 07F11C01 	 add r1,r7,#28
 9599 023e 07F11C02 	 add r2,r7,#28
 9600 0242 07F13403 	 add r3,r7,#52
 9601 0246 0846     	 mov r0,r1
 9602 0248 1146     	 mov r1,r2
 9603 024a 1A46     	 mov r2,r3
 9604 024c FFF7FEFF 	 bl mbedtls_mpi_add_mpi
 9605 0250 F867     	 str r0,[r7,#124]
 9606 0252 FB6F     	 ldr r3,[r7,#124]
 9607 0254 002B     	 cmp r3,#0
 9608 0256 00D0     	 beq .L519
 9609 0258 DBE0     	 b .L498
 9610              	.L519:
2085:C:/Users/Yushev/git/wpcqi-optiga-trust-charge/optiga/externals/mbedtls/library\bignum.c ****                 MBEDTLS_MPI_CHK( mbedtls_mpi_sub_mpi( &V2, &V2, &TA ) );
 9611              	 .loc 1 2085 0
 9612 025a 07F11001 	 add r1,r7,#16
 9613 025e 07F11002 	 add r2,r7,#16
 9614 0262 07F16403 	 add r3,r7,#100
 9615 0266 0846     	 mov r0,r1
 9616 0268 1146     	 mov r1,r2
 9617 026a 1A46     	 mov r2,r3
 9618 026c FFF7FEFF 	 bl mbedtls_mpi_sub_mpi
 9619 0270 F867     	 str r0,[r7,#124]
 9620 0272 FB6F     	 ldr r3,[r7,#124]
 9621 0274 002B     	 cmp r3,#0
 9622 0276 00D0     	 beq .L518
 9623 0278 CBE0     	 b .L498
 9624              	.L518:
2086:C:/Users/Yushev/git/wpcqi-optiga-trust-charge/optiga/externals/mbedtls/library\bignum.c ****             }
2087:C:/Users/Yushev/git/wpcqi-optiga-trust-charge/optiga/externals/mbedtls/library\bignum.c **** 
2088:C:/Users/Yushev/git/wpcqi-optiga-trust-charge/optiga/externals/mbedtls/library\bignum.c ****             MBEDTLS_MPI_CHK( mbedtls_mpi_shift_r( &V1, 1 ) );
 9625              	 .loc 1 2088 0
 9626 027a 07F11C03 	 add r3,r7,#28
 9627 027e 1846     	 mov r0,r3
 9628 0280 0121     	 movs r1,#1
 9629 0282 FFF7FEFF 	 bl mbedtls_mpi_shift_r
 9630 0286 F867     	 str r0,[r7,#124]
 9631 0288 FB6F     	 ldr r3,[r7,#124]
 9632 028a 002B     	 cmp r3,#0
 9633 028c 00D0     	 beq .L520
 9634 028e C0E0     	 b .L498
 9635              	.L520:
2089:C:/Users/Yushev/git/wpcqi-optiga-trust-charge/optiga/externals/mbedtls/library\bignum.c ****             MBEDTLS_MPI_CHK( mbedtls_mpi_shift_r( &V2, 1 ) );
 9636              	 .loc 1 2089 0
 9637 0290 07F11003 	 add r3,r7,#16
 9638 0294 1846     	 mov r0,r3
 9639 0296 0121     	 movs r1,#1
 9640 0298 FFF7FEFF 	 bl mbedtls_mpi_shift_r
 9641 029c F867     	 str r0,[r7,#124]
 9642 029e FB6F     	 ldr r3,[r7,#124]
 9643 02a0 002B     	 cmp r3,#0
 9644 02a2 00D0     	 beq .L515
 9645 02a4 B5E0     	 b .L498
 9646              	.L515:
2078:C:/Users/Yushev/git/wpcqi-optiga-trust-charge/optiga/externals/mbedtls/library\bignum.c ****         {
 9647              	 .loc 1 2078 0
 9648 02a6 3B6B     	 ldr r3,[r7,#48]
 9649 02a8 1B68     	 ldr r3,[r3]
 9650 02aa 03F00103 	 and r3,r3,#1
 9651 02ae 002B     	 cmp r3,#0
 9652 02b0 ACD0     	 beq .L521
2090:C:/Users/Yushev/git/wpcqi-optiga-trust-charge/optiga/externals/mbedtls/library\bignum.c ****         }
2091:C:/Users/Yushev/git/wpcqi-optiga-trust-charge/optiga/externals/mbedtls/library\bignum.c **** 
2092:C:/Users/Yushev/git/wpcqi-optiga-trust-charge/optiga/externals/mbedtls/library\bignum.c ****         if( mbedtls_mpi_cmp_mpi( &TU, &TV ) >= 0 )
 9653              	 .loc 1 2092 0
 9654 02b2 07F15802 	 add r2,r7,#88
 9655 02b6 07F12803 	 add r3,r7,#40
 9656 02ba 1046     	 mov r0,r2
 9657 02bc 1946     	 mov r1,r3
 9658 02be FFF7FEFF 	 bl mbedtls_mpi_cmp_mpi
 9659 02c2 0346     	 mov r3,r0
 9660 02c4 002B     	 cmp r3,#0
 9661 02c6 2FDB     	 blt .L522
2093:C:/Users/Yushev/git/wpcqi-optiga-trust-charge/optiga/externals/mbedtls/library\bignum.c ****         {
2094:C:/Users/Yushev/git/wpcqi-optiga-trust-charge/optiga/externals/mbedtls/library\bignum.c ****             MBEDTLS_MPI_CHK( mbedtls_mpi_sub_mpi( &TU, &TU, &TV ) );
 9662              	 .loc 1 2094 0
 9663 02c8 07F15801 	 add r1,r7,#88
 9664 02cc 07F15802 	 add r2,r7,#88
 9665 02d0 07F12803 	 add r3,r7,#40
 9666 02d4 0846     	 mov r0,r1
 9667 02d6 1146     	 mov r1,r2
 9668 02d8 1A46     	 mov r2,r3
 9669 02da FFF7FEFF 	 bl mbedtls_mpi_sub_mpi
 9670 02de F867     	 str r0,[r7,#124]
 9671 02e0 FB6F     	 ldr r3,[r7,#124]
 9672 02e2 002B     	 cmp r3,#0
 9673 02e4 00D0     	 beq .L523
 9674 02e6 94E0     	 b .L498
 9675              	.L523:
2095:C:/Users/Yushev/git/wpcqi-optiga-trust-charge/optiga/externals/mbedtls/library\bignum.c ****             MBEDTLS_MPI_CHK( mbedtls_mpi_sub_mpi( &U1, &U1, &V1 ) );
 9676              	 .loc 1 2095 0
 9677 02e8 07F14C01 	 add r1,r7,#76
 9678 02ec 07F14C02 	 add r2,r7,#76
 9679 02f0 07F11C03 	 add r3,r7,#28
 9680 02f4 0846     	 mov r0,r1
 9681 02f6 1146     	 mov r1,r2
 9682 02f8 1A46     	 mov r2,r3
 9683 02fa FFF7FEFF 	 bl mbedtls_mpi_sub_mpi
 9684 02fe F867     	 str r0,[r7,#124]
 9685 0300 FB6F     	 ldr r3,[r7,#124]
 9686 0302 002B     	 cmp r3,#0
 9687 0304 00D0     	 beq .L524
 9688 0306 84E0     	 b .L498
 9689              	.L524:
2096:C:/Users/Yushev/git/wpcqi-optiga-trust-charge/optiga/externals/mbedtls/library\bignum.c ****             MBEDTLS_MPI_CHK( mbedtls_mpi_sub_mpi( &U2, &U2, &V2 ) );
 9690              	 .loc 1 2096 0
 9691 0308 07F14001 	 add r1,r7,#64
 9692 030c 07F14002 	 add r2,r7,#64
 9693 0310 07F11003 	 add r3,r7,#16
 9694 0314 0846     	 mov r0,r1
 9695 0316 1146     	 mov r1,r2
 9696 0318 1A46     	 mov r2,r3
 9697 031a FFF7FEFF 	 bl mbedtls_mpi_sub_mpi
 9698 031e F867     	 str r0,[r7,#124]
 9699 0320 FB6F     	 ldr r3,[r7,#124]
 9700 0322 002B     	 cmp r3,#0
 9701 0324 30D0     	 beq .L525
 9702 0326 74E0     	 b .L498
 9703              	.L522:
2097:C:/Users/Yushev/git/wpcqi-optiga-trust-charge/optiga/externals/mbedtls/library\bignum.c ****         }
2098:C:/Users/Yushev/git/wpcqi-optiga-trust-charge/optiga/externals/mbedtls/library\bignum.c ****         else
2099:C:/Users/Yushev/git/wpcqi-optiga-trust-charge/optiga/externals/mbedtls/library\bignum.c ****         {
2100:C:/Users/Yushev/git/wpcqi-optiga-trust-charge/optiga/externals/mbedtls/library\bignum.c ****             MBEDTLS_MPI_CHK( mbedtls_mpi_sub_mpi( &TV, &TV, &TU ) );
 9704              	 .loc 1 2100 0
 9705 0328 07F12801 	 add r1,r7,#40
 9706 032c 07F12802 	 add r2,r7,#40
 9707 0330 07F15803 	 add r3,r7,#88
 9708 0334 0846     	 mov r0,r1
 9709 0336 1146     	 mov r1,r2
 9710 0338 1A46     	 mov r2,r3
 9711 033a FFF7FEFF 	 bl mbedtls_mpi_sub_mpi
 9712 033e F867     	 str r0,[r7,#124]
 9713 0340 FB6F     	 ldr r3,[r7,#124]
 9714 0342 002B     	 cmp r3,#0
 9715 0344 00D0     	 beq .L526
 9716 0346 64E0     	 b .L498
 9717              	.L526:
2101:C:/Users/Yushev/git/wpcqi-optiga-trust-charge/optiga/externals/mbedtls/library\bignum.c ****             MBEDTLS_MPI_CHK( mbedtls_mpi_sub_mpi( &V1, &V1, &U1 ) );
 9718              	 .loc 1 2101 0
 9719 0348 07F11C01 	 add r1,r7,#28
 9720 034c 07F11C02 	 add r2,r7,#28
 9721 0350 07F14C03 	 add r3,r7,#76
 9722 0354 0846     	 mov r0,r1
 9723 0356 1146     	 mov r1,r2
 9724 0358 1A46     	 mov r2,r3
 9725 035a FFF7FEFF 	 bl mbedtls_mpi_sub_mpi
 9726 035e F867     	 str r0,[r7,#124]
 9727 0360 FB6F     	 ldr r3,[r7,#124]
 9728 0362 002B     	 cmp r3,#0
 9729 0364 00D0     	 beq .L527
 9730 0366 54E0     	 b .L498
 9731              	.L527:
2102:C:/Users/Yushev/git/wpcqi-optiga-trust-charge/optiga/externals/mbedtls/library\bignum.c ****             MBEDTLS_MPI_CHK( mbedtls_mpi_sub_mpi( &V2, &V2, &U2 ) );
 9732              	 .loc 1 2102 0
 9733 0368 07F11001 	 add r1,r7,#16
 9734 036c 07F11002 	 add r2,r7,#16
 9735 0370 07F14003 	 add r3,r7,#64
 9736 0374 0846     	 mov r0,r1
 9737 0376 1146     	 mov r1,r2
 9738 0378 1A46     	 mov r2,r3
 9739 037a FFF7FEFF 	 bl mbedtls_mpi_sub_mpi
 9740 037e F867     	 str r0,[r7,#124]
 9741 0380 FB6F     	 ldr r3,[r7,#124]
 9742 0382 002B     	 cmp r3,#0
 9743 0384 00D0     	 beq .L525
 9744 0386 44E0     	 b .L498
 9745              	.L525:
2103:C:/Users/Yushev/git/wpcqi-optiga-trust-charge/optiga/externals/mbedtls/library\bignum.c ****         }
2104:C:/Users/Yushev/git/wpcqi-optiga-trust-charge/optiga/externals/mbedtls/library\bignum.c ****     }
2105:C:/Users/Yushev/git/wpcqi-optiga-trust-charge/optiga/externals/mbedtls/library\bignum.c ****     while( mbedtls_mpi_cmp_int( &TU, 0 ) != 0 );
 9746              	 .loc 1 2105 0
 9747 0388 07F15803 	 add r3,r7,#88
 9748 038c 1846     	 mov r0,r3
 9749 038e 0021     	 movs r1,#0
 9750 0390 FFF7FEFF 	 bl mbedtls_mpi_cmp_int
 9751 0394 0346     	 mov r3,r0
 9752 0396 002B     	 cmp r3,#0
 9753 0398 7FF4E3AE 	 bne .L507
2106:C:/Users/Yushev/git/wpcqi-optiga-trust-charge/optiga/externals/mbedtls/library\bignum.c **** 
2107:C:/Users/Yushev/git/wpcqi-optiga-trust-charge/optiga/externals/mbedtls/library\bignum.c ****     while( mbedtls_mpi_cmp_int( &V1, 0 ) < 0 )
 9754              	 .loc 1 2107 0
 9755 039c 0DE0     	 b .L528
 9756              	.L529:
2108:C:/Users/Yushev/git/wpcqi-optiga-trust-charge/optiga/externals/mbedtls/library\bignum.c ****         MBEDTLS_MPI_CHK( mbedtls_mpi_add_mpi( &V1, &V1, N ) );
 9757              	 .loc 1 2108 0
 9758 039e 07F11C02 	 add r2,r7,#28
 9759 03a2 07F11C03 	 add r3,r7,#28
 9760 03a6 1046     	 mov r0,r2
 9761 03a8 1946     	 mov r1,r3
 9762 03aa 7A68     	 ldr r2,[r7,#4]
 9763 03ac FFF7FEFF 	 bl mbedtls_mpi_add_mpi
 9764 03b0 F867     	 str r0,[r7,#124]
 9765 03b2 FB6F     	 ldr r3,[r7,#124]
 9766 03b4 002B     	 cmp r3,#0
 9767 03b6 00D0     	 beq .L528
 9768 03b8 2BE0     	 b .L498
 9769              	.L528:
2107:C:/Users/Yushev/git/wpcqi-optiga-trust-charge/optiga/externals/mbedtls/library\bignum.c ****         MBEDTLS_MPI_CHK( mbedtls_mpi_add_mpi( &V1, &V1, N ) );
 9770              	 .loc 1 2107 0
 9771 03ba 07F11C03 	 add r3,r7,#28
 9772 03be 1846     	 mov r0,r3
 9773 03c0 0021     	 movs r1,#0
 9774 03c2 FFF7FEFF 	 bl mbedtls_mpi_cmp_int
 9775 03c6 0346     	 mov r3,r0
 9776 03c8 002B     	 cmp r3,#0
 9777 03ca E8DB     	 blt .L529
2109:C:/Users/Yushev/git/wpcqi-optiga-trust-charge/optiga/externals/mbedtls/library\bignum.c **** 
2110:C:/Users/Yushev/git/wpcqi-optiga-trust-charge/optiga/externals/mbedtls/library\bignum.c ****     while( mbedtls_mpi_cmp_mpi( &V1, N ) >= 0 )
 9778              	 .loc 1 2110 0
 9779 03cc 0DE0     	 b .L530
 9780              	.L531:
2111:C:/Users/Yushev/git/wpcqi-optiga-trust-charge/optiga/externals/mbedtls/library\bignum.c ****         MBEDTLS_MPI_CHK( mbedtls_mpi_sub_mpi( &V1, &V1, N ) );
 9781              	 .loc 1 2111 0
 9782 03ce 07F11C02 	 add r2,r7,#28
 9783 03d2 07F11C03 	 add r3,r7,#28
 9784 03d6 1046     	 mov r0,r2
 9785 03d8 1946     	 mov r1,r3
 9786 03da 7A68     	 ldr r2,[r7,#4]
 9787 03dc FFF7FEFF 	 bl mbedtls_mpi_sub_mpi
 9788 03e0 F867     	 str r0,[r7,#124]
 9789 03e2 FB6F     	 ldr r3,[r7,#124]
 9790 03e4 002B     	 cmp r3,#0
 9791 03e6 00D0     	 beq .L530
 9792 03e8 13E0     	 b .L498
 9793              	.L530:
2110:C:/Users/Yushev/git/wpcqi-optiga-trust-charge/optiga/externals/mbedtls/library\bignum.c ****         MBEDTLS_MPI_CHK( mbedtls_mpi_sub_mpi( &V1, &V1, N ) );
 9794              	 .loc 1 2110 0
 9795 03ea 07F11C03 	 add r3,r7,#28
 9796 03ee 1846     	 mov r0,r3
 9797 03f0 7968     	 ldr r1,[r7,#4]
 9798 03f2 FFF7FEFF 	 bl mbedtls_mpi_cmp_mpi
 9799 03f6 0346     	 mov r3,r0
 9800 03f8 002B     	 cmp r3,#0
 9801 03fa E8DA     	 bge .L531
2112:C:/Users/Yushev/git/wpcqi-optiga-trust-charge/optiga/externals/mbedtls/library\bignum.c **** 
2113:C:/Users/Yushev/git/wpcqi-optiga-trust-charge/optiga/externals/mbedtls/library\bignum.c ****     MBEDTLS_MPI_CHK( mbedtls_mpi_copy( X, &V1 ) );
 9802              	 .loc 1 2113 0
 9803 03fc 07F11C03 	 add r3,r7,#28
 9804 0400 F868     	 ldr r0,[r7,#12]
 9805 0402 1946     	 mov r1,r3
 9806 0404 FFF7FEFF 	 bl mbedtls_mpi_copy
 9807 0408 F867     	 str r0,[r7,#124]
 9808 040a FB6F     	 ldr r3,[r7,#124]
 9809 040c 002B     	 cmp r3,#0
 9810 040e 00D0     	 beq .L498
 9811 0410 00BF     	 nop
 9812              	.L498:
2114:C:/Users/Yushev/git/wpcqi-optiga-trust-charge/optiga/externals/mbedtls/library\bignum.c **** 
2115:C:/Users/Yushev/git/wpcqi-optiga-trust-charge/optiga/externals/mbedtls/library\bignum.c **** cleanup:
2116:C:/Users/Yushev/git/wpcqi-optiga-trust-charge/optiga/externals/mbedtls/library\bignum.c **** 
2117:C:/Users/Yushev/git/wpcqi-optiga-trust-charge/optiga/externals/mbedtls/library\bignum.c ****     mbedtls_mpi_free( &TA ); mbedtls_mpi_free( &TU ); mbedtls_mpi_free( &U1 ); mbedtls_mpi_free( &U
 9813              	 .loc 1 2117 0
 9814 0412 07F16403 	 add r3,r7,#100
 9815 0416 1846     	 mov r0,r3
 9816 0418 FFF7FEFF 	 bl mbedtls_mpi_free
 9817 041c 07F15803 	 add r3,r7,#88
 9818 0420 1846     	 mov r0,r3
 9819 0422 FFF7FEFF 	 bl mbedtls_mpi_free
 9820 0426 07F14C03 	 add r3,r7,#76
 9821 042a 1846     	 mov r0,r3
 9822 042c FFF7FEFF 	 bl mbedtls_mpi_free
 9823 0430 07F14003 	 add r3,r7,#64
 9824 0434 1846     	 mov r0,r3
 9825 0436 FFF7FEFF 	 bl mbedtls_mpi_free
2118:C:/Users/Yushev/git/wpcqi-optiga-trust-charge/optiga/externals/mbedtls/library\bignum.c ****     mbedtls_mpi_free( &G ); mbedtls_mpi_free( &TB ); mbedtls_mpi_free( &TV );
 9826              	 .loc 1 2118 0
 9827 043a 07F17003 	 add r3,r7,#112
 9828 043e 1846     	 mov r0,r3
 9829 0440 FFF7FEFF 	 bl mbedtls_mpi_free
 9830 0444 07F13403 	 add r3,r7,#52
 9831 0448 1846     	 mov r0,r3
 9832 044a FFF7FEFF 	 bl mbedtls_mpi_free
 9833 044e 07F12803 	 add r3,r7,#40
 9834 0452 1846     	 mov r0,r3
 9835 0454 FFF7FEFF 	 bl mbedtls_mpi_free
2119:C:/Users/Yushev/git/wpcqi-optiga-trust-charge/optiga/externals/mbedtls/library\bignum.c ****     mbedtls_mpi_free( &V1 ); mbedtls_mpi_free( &V2 );
 9836              	 .loc 1 2119 0
 9837 0458 07F11C03 	 add r3,r7,#28
 9838 045c 1846     	 mov r0,r3
 9839 045e FFF7FEFF 	 bl mbedtls_mpi_free
 9840 0462 07F11003 	 add r3,r7,#16
 9841 0466 1846     	 mov r0,r3
 9842 0468 FFF7FEFF 	 bl mbedtls_mpi_free
2120:C:/Users/Yushev/git/wpcqi-optiga-trust-charge/optiga/externals/mbedtls/library\bignum.c **** 
2121:C:/Users/Yushev/git/wpcqi-optiga-trust-charge/optiga/externals/mbedtls/library\bignum.c ****     return( ret );
 9843              	 .loc 1 2121 0
 9844 046c FB6F     	 ldr r3,[r7,#124]
 9845              	.L532:
2122:C:/Users/Yushev/git/wpcqi-optiga-trust-charge/optiga/externals/mbedtls/library\bignum.c **** }
 9846              	 .loc 1 2122 0 discriminator 1
 9847 046e 1846     	 mov r0,r3
 9848 0470 8037     	 adds r7,r7,#128
 9849              	.LCFI254:
 9850              	 .cfi_def_cfa_offset 8
 9851 0472 BD46     	 mov sp,r7
 9852              	.LCFI255:
 9853              	 .cfi_def_cfa_register 13
 9854              	 
 9855 0474 80BD     	 pop {r7,pc}
 9856              	 .cfi_endproc
 9857              	.LFE48:
 9859 0476 00BF     	 .text
 9860              	.Letext0:
 9861              	 .file 2 "c:\\users\\yushev\\dave_4-4-2_32bit_2018-02-23\\dave-ide-4.4.2-32bit\\eclipse\\arm-gcc-49\\lib\\gcc\\arm-none-eabi\\4.9.3\\include\\stddef.h"
 9862              	 .file 3 "c:\\users\\yushev\\dave_4-4-2_32bit_2018-02-23\\dave-ide-4.4.2-32bit\\eclipse\\arm-gcc-49\\arm-none-eabi\\include\\machine\\_default_types.h"
 9863              	 .file 4 "c:\\users\\yushev\\dave_4-4-2_32bit_2018-02-23\\dave-ide-4.4.2-32bit\\eclipse\\arm-gcc-49\\arm-none-eabi\\include\\stdint.h"
 9864              	 .file 5 "C:/Users/Yushev/git/wpcqi-optiga-trust-charge/optiga/externals/mbedtls/include/mbedtls/bignum.h"
DEFINED SYMBOLS
                            *ABS*:00000000 bignum.c
    {standard input}:20     .text.mbedtls_mpi_zeroize:00000000 $t
    {standard input}:24     .text.mbedtls_mpi_zeroize:00000000 mbedtls_mpi_zeroize
    {standard input}:63     .text.mbedtls_mpi_init:00000000 $t
    {standard input}:68     .text.mbedtls_mpi_init:00000000 mbedtls_mpi_init
    {standard input}:115    .text.mbedtls_mpi_free:00000000 $t
    {standard input}:120    .text.mbedtls_mpi_free:00000000 mbedtls_mpi_free
    {standard input}:190    .text.mbedtls_mpi_grow:00000000 $t
    {standard input}:195    .text.mbedtls_mpi_grow:00000000 mbedtls_mpi_grow
    {standard input}:297    .text.mbedtls_mpi_shrink:00000000 $t
    {standard input}:302    .text.mbedtls_mpi_shrink:00000000 mbedtls_mpi_shrink
    {standard input}:451    .text.mbedtls_mpi_copy:00000000 $t
    {standard input}:456    .text.mbedtls_mpi_copy:00000000 mbedtls_mpi_copy
    {standard input}:598    .text.mbedtls_mpi_swap:00000000 $t
    {standard input}:603    .text.mbedtls_mpi_swap:00000000 mbedtls_mpi_swap
    {standard input}:652    .text.mbedtls_mpi_safe_cond_assign:00000000 $t
    {standard input}:657    .text.mbedtls_mpi_safe_cond_assign:00000000 mbedtls_mpi_safe_cond_assign
    {standard input}:803    .text.mbedtls_mpi_safe_cond_swap:00000000 $t
    {standard input}:808    .text.mbedtls_mpi_safe_cond_swap:00000000 mbedtls_mpi_safe_cond_swap
    {standard input}:987    .text.mbedtls_mpi_lset:00000000 $t
    {standard input}:992    .text.mbedtls_mpi_lset:00000000 mbedtls_mpi_lset
    {standard input}:1070   .text.mbedtls_mpi_get_bit:00000000 $t
    {standard input}:1075   .text.mbedtls_mpi_get_bit:00000000 mbedtls_mpi_get_bit
    {standard input}:1136   .text.mbedtls_mpi_set_bit:00000000 $t
    {standard input}:1141   .text.mbedtls_mpi_set_bit:00000000 mbedtls_mpi_set_bit
    {standard input}:1265   .text.mbedtls_mpi_lsb:00000000 $t
    {standard input}:1270   .text.mbedtls_mpi_lsb:00000000 mbedtls_mpi_lsb
    {standard input}:1361   .text.mbedtls_clz:00000000 $t
    {standard input}:1365   .text.mbedtls_clz:00000000 mbedtls_clz
    {standard input}:1433   .text.mbedtls_mpi_bitlen:00000000 $t
    {standard input}:1438   .text.mbedtls_mpi_bitlen:00000000 mbedtls_mpi_bitlen
    {standard input}:1526   .text.mbedtls_mpi_size:00000000 $t
    {standard input}:1531   .text.mbedtls_mpi_size:00000000 mbedtls_mpi_size
    {standard input}:1569   .text.mpi_get_digit:00000000 $t
    {standard input}:1573   .text.mpi_get_digit:00000000 mpi_get_digit
    {standard input}:1674   .text.mbedtls_mpi_read_string:00000000 $t
    {standard input}:1679   .text.mbedtls_mpi_read_string:00000000 mbedtls_mpi_read_string
    {standard input}:6441   .text.mbedtls_mpi_mul_int:00000000 mbedtls_mpi_mul_int
    {standard input}:4313   .text.mbedtls_mpi_add_int:00000000 mbedtls_mpi_add_int
    {standard input}:4384   .text.mbedtls_mpi_sub_int:00000000 mbedtls_mpi_sub_int
    {standard input}:1968   .text.mpi_write_hlp:00000000 $t
    {standard input}:1972   .text.mpi_write_hlp:00000000 mpi_write_hlp
    {standard input}:7530   .text.mbedtls_mpi_mod_int:00000000 mbedtls_mpi_mod_int
    {standard input}:7350   .text.mbedtls_mpi_div_int:00000000 mbedtls_mpi_div_int
    {standard input}:3507   .text.mbedtls_mpi_cmp_int:00000000 mbedtls_mpi_cmp_int
    {standard input}:2093   .rodata:00000000 $d
    {standard input}:2097   .text.mbedtls_mpi_write_string:00000000 $t
    {standard input}:2102   .text.mbedtls_mpi_write_string:00000000 mbedtls_mpi_write_string
    {standard input}:2374   .text.mbedtls_mpi_write_string:00000198 $d
    {standard input}:2380   .text.mbedtls_mpi_read_binary:00000000 $t
    {standard input}:2385   .text.mbedtls_mpi_read_binary:00000000 mbedtls_mpi_read_binary
    {standard input}:2509   .text.mbedtls_mpi_write_binary:00000000 $t
    {standard input}:2514   .text.mbedtls_mpi_write_binary:00000000 mbedtls_mpi_write_binary
    {standard input}:2657   .text.mbedtls_mpi_shift_l:00000000 $t
    {standard input}:2662   .text.mbedtls_mpi_shift_l:00000000 mbedtls_mpi_shift_l
    {standard input}:2872   .text.mbedtls_mpi_shift_r:00000000 $t
    {standard input}:2877   .text.mbedtls_mpi_shift_r:00000000 mbedtls_mpi_shift_r
    {standard input}:3082   .text.mbedtls_mpi_cmp_abs:00000000 $t
    {standard input}:3087   .text.mbedtls_mpi_cmp_abs:00000000 mbedtls_mpi_cmp_abs
    {standard input}:3275   .text.mbedtls_mpi_cmp_mpi:00000000 $t
    {standard input}:3280   .text.mbedtls_mpi_cmp_mpi:00000000 mbedtls_mpi_cmp_mpi
    {standard input}:3502   .text.mbedtls_mpi_cmp_int:00000000 $t
    {standard input}:3571   .text.mbedtls_mpi_add_abs:00000000 $t
    {standard input}:3576   .text.mbedtls_mpi_add_abs:00000000 mbedtls_mpi_add_abs
    {standard input}:3812   .text.mpi_sub_hlp:00000000 $t
    {standard input}:3816   .text.mpi_sub_hlp:00000000 mpi_sub_hlp
    {standard input}:3943   .text.mbedtls_mpi_sub_abs:00000000 $t
    {standard input}:3948   .text.mbedtls_mpi_sub_abs:00000000 mbedtls_mpi_sub_abs
    {standard input}:4086   .text.mbedtls_mpi_add_mpi:00000000 $t
    {standard input}:4091   .text.mbedtls_mpi_add_mpi:00000000 mbedtls_mpi_add_mpi
    {standard input}:4197   .text.mbedtls_mpi_sub_mpi:00000000 $t
    {standard input}:4202   .text.mbedtls_mpi_sub_mpi:00000000 mbedtls_mpi_sub_mpi
    {standard input}:4308   .text.mbedtls_mpi_add_int:00000000 $t
    {standard input}:4379   .text.mbedtls_mpi_sub_int:00000000 $t
    {standard input}:4450   .text.mpi_mul_hlp:00000000 $t
    {standard input}:4454   .text.mpi_mul_hlp:00000000 mpi_mul_hlp
    {standard input}:6213   .text.mbedtls_mpi_mul_mpi:00000000 $t
    {standard input}:6218   .text.mbedtls_mpi_mul_mpi:00000000 mbedtls_mpi_mul_mpi
    {standard input}:6436   .text.mbedtls_mpi_mul_int:00000000 $t
    {standard input}:6495   .text.mbedtls_int_div_int:00000000 $t
    {standard input}:6499   .text.mbedtls_int_div_int:00000000 mbedtls_int_div_int
    {standard input}:6610   .text.mbedtls_mpi_div_mpi:00000000 $t
    {standard input}:6615   .text.mbedtls_mpi_div_mpi:00000000 mbedtls_mpi_div_mpi
    {standard input}:7345   .text.mbedtls_mpi_div_int:00000000 $t
    {standard input}:7417   .text.mbedtls_mpi_mod_mpi:00000000 $t
    {standard input}:7422   .text.mbedtls_mpi_mod_mpi:00000000 mbedtls_mpi_mod_mpi
    {standard input}:7525   .text.mbedtls_mpi_mod_int:00000000 $t
    {standard input}:7702   .text.mpi_montg_init:00000000 $t
    {standard input}:7706   .text.mpi_montg_init:00000000 mpi_montg_init
    {standard input}:7785   .text.mpi_montmul:00000000 $t
    {standard input}:7789   .text.mpi_montmul:00000000 mpi_montmul
    {standard input}:7973   .text.mpi_montred:00000000 $t
    {standard input}:7977   .text.mpi_montred:00000000 mpi_montred
    {standard input}:8033   .text.mbedtls_mpi_exp_mod:00000000 $t
    {standard input}:8038   .text.mbedtls_mpi_exp_mod:00000000 mbedtls_mpi_exp_mod
    {standard input}:8963   .text.mbedtls_mpi_gcd:00000000 $t
    {standard input}:8968   .text.mbedtls_mpi_gcd:00000000 mbedtls_mpi_gcd
    {standard input}:9214   .text.mbedtls_mpi_fill_random:00000000 $t
    {standard input}:9219   .text.mbedtls_mpi_fill_random:00000000 mbedtls_mpi_fill_random
    {standard input}:9305   .text.mbedtls_mpi_inv_mod:00000000 $t
    {standard input}:9310   .text.mbedtls_mpi_inv_mod:00000000 mbedtls_mpi_inv_mod
                     .debug_frame:00000010 $d

UNDEFINED SYMBOLS
mbedtls_platform_zeroize
free
calloc
memcpy
memset
strlen
__aeabi_uldivmod
