   1              	 .syntax unified
   2              	 .cpu cortex-m4
   3              	 .eabi_attribute 27,3
   4              	 .fpu fpv4-sp-d16
   5              	 .eabi_attribute 20,1
   6              	 .eabi_attribute 21,1
   7              	 .eabi_attribute 23,3
   8              	 .eabi_attribute 24,1
   9              	 .eabi_attribute 25,1
  10              	 .eabi_attribute 26,1
  11              	 .eabi_attribute 30,6
  12              	 .eabi_attribute 34,1
  13              	 .eabi_attribute 18,4
  14              	 .thumb
  15              	 .file "cipher.c"
  16              	 .text
  17              	.Ltext0:
  18              	 .cfi_sections .debug_frame
  19              	 .section .text.mbedtls_cipher_get_block_size,"ax",%progbits
  20              	 .align 2
  21              	 .thumb
  22              	 .thumb_func
  24              	mbedtls_cipher_get_block_size:
  25              	.LFB0:
  26              	 .file 1 "C:/Users/Yushev/git/wpcqi-optiga-trust-charge/optiga/externals/mbedtls/include/mbedtls/cipher.h"
   1:C:/Users/Yushev/git/wpcqi-optiga-trust-charge/optiga/externals/mbedtls/include/mbedtls\cipher.h **** /**
   2:C:/Users/Yushev/git/wpcqi-optiga-trust-charge/optiga/externals/mbedtls/include/mbedtls\cipher.h ****  * \file cipher.h
   3:C:/Users/Yushev/git/wpcqi-optiga-trust-charge/optiga/externals/mbedtls/include/mbedtls\cipher.h ****  *
   4:C:/Users/Yushev/git/wpcqi-optiga-trust-charge/optiga/externals/mbedtls/include/mbedtls\cipher.h ****  * \brief This file contains an abstraction interface for use with the cipher
   5:C:/Users/Yushev/git/wpcqi-optiga-trust-charge/optiga/externals/mbedtls/include/mbedtls\cipher.h ****  * primitives provided by the library. It provides a common interface to all of
   6:C:/Users/Yushev/git/wpcqi-optiga-trust-charge/optiga/externals/mbedtls/include/mbedtls\cipher.h ****  * the available cipher operations.
   7:C:/Users/Yushev/git/wpcqi-optiga-trust-charge/optiga/externals/mbedtls/include/mbedtls\cipher.h ****  *
   8:C:/Users/Yushev/git/wpcqi-optiga-trust-charge/optiga/externals/mbedtls/include/mbedtls\cipher.h ****  * \author Adriaan de Jong <dejong@fox-it.com>
   9:C:/Users/Yushev/git/wpcqi-optiga-trust-charge/optiga/externals/mbedtls/include/mbedtls\cipher.h ****  */
  10:C:/Users/Yushev/git/wpcqi-optiga-trust-charge/optiga/externals/mbedtls/include/mbedtls\cipher.h **** /*
  11:C:/Users/Yushev/git/wpcqi-optiga-trust-charge/optiga/externals/mbedtls/include/mbedtls\cipher.h ****  *  Copyright (C) 2006-2018, Arm Limited (or its affiliates), All Rights Reserved
  12:C:/Users/Yushev/git/wpcqi-optiga-trust-charge/optiga/externals/mbedtls/include/mbedtls\cipher.h ****  *  SPDX-License-Identifier: Apache-2.0
  13:C:/Users/Yushev/git/wpcqi-optiga-trust-charge/optiga/externals/mbedtls/include/mbedtls\cipher.h ****  *
  14:C:/Users/Yushev/git/wpcqi-optiga-trust-charge/optiga/externals/mbedtls/include/mbedtls\cipher.h ****  *  Licensed under the Apache License, Version 2.0 (the "License"); you may
  15:C:/Users/Yushev/git/wpcqi-optiga-trust-charge/optiga/externals/mbedtls/include/mbedtls\cipher.h ****  *  not use this file except in compliance with the License.
  16:C:/Users/Yushev/git/wpcqi-optiga-trust-charge/optiga/externals/mbedtls/include/mbedtls\cipher.h ****  *  You may obtain a copy of the License at
  17:C:/Users/Yushev/git/wpcqi-optiga-trust-charge/optiga/externals/mbedtls/include/mbedtls\cipher.h ****  *
  18:C:/Users/Yushev/git/wpcqi-optiga-trust-charge/optiga/externals/mbedtls/include/mbedtls\cipher.h ****  *  http://www.apache.org/licenses/LICENSE-2.0
  19:C:/Users/Yushev/git/wpcqi-optiga-trust-charge/optiga/externals/mbedtls/include/mbedtls\cipher.h ****  *
  20:C:/Users/Yushev/git/wpcqi-optiga-trust-charge/optiga/externals/mbedtls/include/mbedtls\cipher.h ****  *  Unless required by applicable law or agreed to in writing, software
  21:C:/Users/Yushev/git/wpcqi-optiga-trust-charge/optiga/externals/mbedtls/include/mbedtls\cipher.h ****  *  distributed under the License is distributed on an "AS IS" BASIS, WITHOUT
  22:C:/Users/Yushev/git/wpcqi-optiga-trust-charge/optiga/externals/mbedtls/include/mbedtls\cipher.h ****  *  WARRANTIES OR CONDITIONS OF ANY KIND, either express or implied.
  23:C:/Users/Yushev/git/wpcqi-optiga-trust-charge/optiga/externals/mbedtls/include/mbedtls\cipher.h ****  *  See the License for the specific language governing permissions and
  24:C:/Users/Yushev/git/wpcqi-optiga-trust-charge/optiga/externals/mbedtls/include/mbedtls\cipher.h ****  *  limitations under the License.
  25:C:/Users/Yushev/git/wpcqi-optiga-trust-charge/optiga/externals/mbedtls/include/mbedtls\cipher.h ****  *
  26:C:/Users/Yushev/git/wpcqi-optiga-trust-charge/optiga/externals/mbedtls/include/mbedtls\cipher.h ****  *  This file is part of Mbed TLS (https://tls.mbed.org)
  27:C:/Users/Yushev/git/wpcqi-optiga-trust-charge/optiga/externals/mbedtls/include/mbedtls\cipher.h ****  */
  28:C:/Users/Yushev/git/wpcqi-optiga-trust-charge/optiga/externals/mbedtls/include/mbedtls\cipher.h **** 
  29:C:/Users/Yushev/git/wpcqi-optiga-trust-charge/optiga/externals/mbedtls/include/mbedtls\cipher.h **** #ifndef MBEDTLS_CIPHER_H
  30:C:/Users/Yushev/git/wpcqi-optiga-trust-charge/optiga/externals/mbedtls/include/mbedtls\cipher.h **** #define MBEDTLS_CIPHER_H
  31:C:/Users/Yushev/git/wpcqi-optiga-trust-charge/optiga/externals/mbedtls/include/mbedtls\cipher.h **** 
  32:C:/Users/Yushev/git/wpcqi-optiga-trust-charge/optiga/externals/mbedtls/include/mbedtls\cipher.h **** #if !defined(MBEDTLS_CONFIG_FILE)
  33:C:/Users/Yushev/git/wpcqi-optiga-trust-charge/optiga/externals/mbedtls/include/mbedtls\cipher.h **** #include "config.h"
  34:C:/Users/Yushev/git/wpcqi-optiga-trust-charge/optiga/externals/mbedtls/include/mbedtls\cipher.h **** #else
  35:C:/Users/Yushev/git/wpcqi-optiga-trust-charge/optiga/externals/mbedtls/include/mbedtls\cipher.h **** #include MBEDTLS_CONFIG_FILE
  36:C:/Users/Yushev/git/wpcqi-optiga-trust-charge/optiga/externals/mbedtls/include/mbedtls\cipher.h **** #endif
  37:C:/Users/Yushev/git/wpcqi-optiga-trust-charge/optiga/externals/mbedtls/include/mbedtls\cipher.h **** 
  38:C:/Users/Yushev/git/wpcqi-optiga-trust-charge/optiga/externals/mbedtls/include/mbedtls\cipher.h **** #include <stddef.h>
  39:C:/Users/Yushev/git/wpcqi-optiga-trust-charge/optiga/externals/mbedtls/include/mbedtls\cipher.h **** #include "mbedtls/platform_util.h"
  40:C:/Users/Yushev/git/wpcqi-optiga-trust-charge/optiga/externals/mbedtls/include/mbedtls\cipher.h **** 
  41:C:/Users/Yushev/git/wpcqi-optiga-trust-charge/optiga/externals/mbedtls/include/mbedtls\cipher.h **** #if defined(MBEDTLS_GCM_C) || defined(MBEDTLS_CCM_C) || defined(MBEDTLS_CHACHAPOLY_C)
  42:C:/Users/Yushev/git/wpcqi-optiga-trust-charge/optiga/externals/mbedtls/include/mbedtls\cipher.h **** #define MBEDTLS_CIPHER_MODE_AEAD
  43:C:/Users/Yushev/git/wpcqi-optiga-trust-charge/optiga/externals/mbedtls/include/mbedtls\cipher.h **** #endif
  44:C:/Users/Yushev/git/wpcqi-optiga-trust-charge/optiga/externals/mbedtls/include/mbedtls\cipher.h **** 
  45:C:/Users/Yushev/git/wpcqi-optiga-trust-charge/optiga/externals/mbedtls/include/mbedtls\cipher.h **** #if defined(MBEDTLS_CIPHER_MODE_CBC)
  46:C:/Users/Yushev/git/wpcqi-optiga-trust-charge/optiga/externals/mbedtls/include/mbedtls\cipher.h **** #define MBEDTLS_CIPHER_MODE_WITH_PADDING
  47:C:/Users/Yushev/git/wpcqi-optiga-trust-charge/optiga/externals/mbedtls/include/mbedtls\cipher.h **** #endif
  48:C:/Users/Yushev/git/wpcqi-optiga-trust-charge/optiga/externals/mbedtls/include/mbedtls\cipher.h **** 
  49:C:/Users/Yushev/git/wpcqi-optiga-trust-charge/optiga/externals/mbedtls/include/mbedtls\cipher.h **** #if defined(MBEDTLS_ARC4_C) || defined(MBEDTLS_CIPHER_NULL_CIPHER) || \
  50:C:/Users/Yushev/git/wpcqi-optiga-trust-charge/optiga/externals/mbedtls/include/mbedtls\cipher.h ****     defined(MBEDTLS_CHACHA20_C)
  51:C:/Users/Yushev/git/wpcqi-optiga-trust-charge/optiga/externals/mbedtls/include/mbedtls\cipher.h **** #define MBEDTLS_CIPHER_MODE_STREAM
  52:C:/Users/Yushev/git/wpcqi-optiga-trust-charge/optiga/externals/mbedtls/include/mbedtls\cipher.h **** #endif
  53:C:/Users/Yushev/git/wpcqi-optiga-trust-charge/optiga/externals/mbedtls/include/mbedtls\cipher.h **** 
  54:C:/Users/Yushev/git/wpcqi-optiga-trust-charge/optiga/externals/mbedtls/include/mbedtls\cipher.h **** #if ( defined(__ARMCC_VERSION) || defined(_MSC_VER) ) && \
  55:C:/Users/Yushev/git/wpcqi-optiga-trust-charge/optiga/externals/mbedtls/include/mbedtls\cipher.h ****     !defined(inline) && !defined(__cplusplus)
  56:C:/Users/Yushev/git/wpcqi-optiga-trust-charge/optiga/externals/mbedtls/include/mbedtls\cipher.h **** #define inline __inline
  57:C:/Users/Yushev/git/wpcqi-optiga-trust-charge/optiga/externals/mbedtls/include/mbedtls\cipher.h **** #endif
  58:C:/Users/Yushev/git/wpcqi-optiga-trust-charge/optiga/externals/mbedtls/include/mbedtls\cipher.h **** 
  59:C:/Users/Yushev/git/wpcqi-optiga-trust-charge/optiga/externals/mbedtls/include/mbedtls\cipher.h **** #define MBEDTLS_ERR_CIPHER_FEATURE_UNAVAILABLE  -0x6080  /**< The selected feature is not available
  60:C:/Users/Yushev/git/wpcqi-optiga-trust-charge/optiga/externals/mbedtls/include/mbedtls\cipher.h **** #define MBEDTLS_ERR_CIPHER_BAD_INPUT_DATA       -0x6100  /**< Bad input parameters. */
  61:C:/Users/Yushev/git/wpcqi-optiga-trust-charge/optiga/externals/mbedtls/include/mbedtls\cipher.h **** #define MBEDTLS_ERR_CIPHER_ALLOC_FAILED         -0x6180  /**< Failed to allocate memory. */
  62:C:/Users/Yushev/git/wpcqi-optiga-trust-charge/optiga/externals/mbedtls/include/mbedtls\cipher.h **** #define MBEDTLS_ERR_CIPHER_INVALID_PADDING      -0x6200  /**< Input data contains invalid padding a
  63:C:/Users/Yushev/git/wpcqi-optiga-trust-charge/optiga/externals/mbedtls/include/mbedtls\cipher.h **** #define MBEDTLS_ERR_CIPHER_FULL_BLOCK_EXPECTED  -0x6280  /**< Decryption of block requires a full b
  64:C:/Users/Yushev/git/wpcqi-optiga-trust-charge/optiga/externals/mbedtls/include/mbedtls\cipher.h **** #define MBEDTLS_ERR_CIPHER_AUTH_FAILED          -0x6300  /**< Authentication failed (for AEAD modes
  65:C:/Users/Yushev/git/wpcqi-optiga-trust-charge/optiga/externals/mbedtls/include/mbedtls\cipher.h **** #define MBEDTLS_ERR_CIPHER_INVALID_CONTEXT      -0x6380  /**< The context is invalid. For example, 
  66:C:/Users/Yushev/git/wpcqi-optiga-trust-charge/optiga/externals/mbedtls/include/mbedtls\cipher.h **** 
  67:C:/Users/Yushev/git/wpcqi-optiga-trust-charge/optiga/externals/mbedtls/include/mbedtls\cipher.h **** /* MBEDTLS_ERR_CIPHER_HW_ACCEL_FAILED is deprecated and should not be used. */
  68:C:/Users/Yushev/git/wpcqi-optiga-trust-charge/optiga/externals/mbedtls/include/mbedtls\cipher.h **** #define MBEDTLS_ERR_CIPHER_HW_ACCEL_FAILED      -0x6400  /**< Cipher hardware accelerator failed. *
  69:C:/Users/Yushev/git/wpcqi-optiga-trust-charge/optiga/externals/mbedtls/include/mbedtls\cipher.h **** 
  70:C:/Users/Yushev/git/wpcqi-optiga-trust-charge/optiga/externals/mbedtls/include/mbedtls\cipher.h **** #define MBEDTLS_CIPHER_VARIABLE_IV_LEN     0x01    /**< Cipher accepts IVs of variable length. */
  71:C:/Users/Yushev/git/wpcqi-optiga-trust-charge/optiga/externals/mbedtls/include/mbedtls\cipher.h **** #define MBEDTLS_CIPHER_VARIABLE_KEY_LEN    0x02    /**< Cipher accepts keys of variable length. */
  72:C:/Users/Yushev/git/wpcqi-optiga-trust-charge/optiga/externals/mbedtls/include/mbedtls\cipher.h **** 
  73:C:/Users/Yushev/git/wpcqi-optiga-trust-charge/optiga/externals/mbedtls/include/mbedtls\cipher.h **** #ifdef __cplusplus
  74:C:/Users/Yushev/git/wpcqi-optiga-trust-charge/optiga/externals/mbedtls/include/mbedtls\cipher.h **** extern "C" {
  75:C:/Users/Yushev/git/wpcqi-optiga-trust-charge/optiga/externals/mbedtls/include/mbedtls\cipher.h **** #endif
  76:C:/Users/Yushev/git/wpcqi-optiga-trust-charge/optiga/externals/mbedtls/include/mbedtls\cipher.h **** 
  77:C:/Users/Yushev/git/wpcqi-optiga-trust-charge/optiga/externals/mbedtls/include/mbedtls\cipher.h **** /**
  78:C:/Users/Yushev/git/wpcqi-optiga-trust-charge/optiga/externals/mbedtls/include/mbedtls\cipher.h ****  * \brief     Supported cipher types.
  79:C:/Users/Yushev/git/wpcqi-optiga-trust-charge/optiga/externals/mbedtls/include/mbedtls\cipher.h ****  *
  80:C:/Users/Yushev/git/wpcqi-optiga-trust-charge/optiga/externals/mbedtls/include/mbedtls\cipher.h ****  * \warning   RC4 and DES are considered weak ciphers and their use
  81:C:/Users/Yushev/git/wpcqi-optiga-trust-charge/optiga/externals/mbedtls/include/mbedtls\cipher.h ****  *            constitutes a security risk. Arm recommends considering stronger
  82:C:/Users/Yushev/git/wpcqi-optiga-trust-charge/optiga/externals/mbedtls/include/mbedtls\cipher.h ****  *            ciphers instead.
  83:C:/Users/Yushev/git/wpcqi-optiga-trust-charge/optiga/externals/mbedtls/include/mbedtls\cipher.h ****  */
  84:C:/Users/Yushev/git/wpcqi-optiga-trust-charge/optiga/externals/mbedtls/include/mbedtls\cipher.h **** typedef enum {
  85:C:/Users/Yushev/git/wpcqi-optiga-trust-charge/optiga/externals/mbedtls/include/mbedtls\cipher.h ****     MBEDTLS_CIPHER_ID_NONE = 0,  /**< Placeholder to mark the end of cipher ID lists. */
  86:C:/Users/Yushev/git/wpcqi-optiga-trust-charge/optiga/externals/mbedtls/include/mbedtls\cipher.h ****     MBEDTLS_CIPHER_ID_NULL,      /**< The identity cipher, treated as a stream cipher. */
  87:C:/Users/Yushev/git/wpcqi-optiga-trust-charge/optiga/externals/mbedtls/include/mbedtls\cipher.h ****     MBEDTLS_CIPHER_ID_AES,       /**< The AES cipher. */
  88:C:/Users/Yushev/git/wpcqi-optiga-trust-charge/optiga/externals/mbedtls/include/mbedtls\cipher.h ****     MBEDTLS_CIPHER_ID_DES,       /**< The DES cipher. */
  89:C:/Users/Yushev/git/wpcqi-optiga-trust-charge/optiga/externals/mbedtls/include/mbedtls\cipher.h ****     MBEDTLS_CIPHER_ID_3DES,      /**< The Triple DES cipher. */
  90:C:/Users/Yushev/git/wpcqi-optiga-trust-charge/optiga/externals/mbedtls/include/mbedtls\cipher.h ****     MBEDTLS_CIPHER_ID_CAMELLIA,  /**< The Camellia cipher. */
  91:C:/Users/Yushev/git/wpcqi-optiga-trust-charge/optiga/externals/mbedtls/include/mbedtls\cipher.h ****     MBEDTLS_CIPHER_ID_BLOWFISH,  /**< The Blowfish cipher. */
  92:C:/Users/Yushev/git/wpcqi-optiga-trust-charge/optiga/externals/mbedtls/include/mbedtls\cipher.h ****     MBEDTLS_CIPHER_ID_ARC4,      /**< The RC4 cipher. */
  93:C:/Users/Yushev/git/wpcqi-optiga-trust-charge/optiga/externals/mbedtls/include/mbedtls\cipher.h ****     MBEDTLS_CIPHER_ID_ARIA,      /**< The Aria cipher. */
  94:C:/Users/Yushev/git/wpcqi-optiga-trust-charge/optiga/externals/mbedtls/include/mbedtls\cipher.h ****     MBEDTLS_CIPHER_ID_CHACHA20,  /**< The ChaCha20 cipher. */
  95:C:/Users/Yushev/git/wpcqi-optiga-trust-charge/optiga/externals/mbedtls/include/mbedtls\cipher.h **** } mbedtls_cipher_id_t;
  96:C:/Users/Yushev/git/wpcqi-optiga-trust-charge/optiga/externals/mbedtls/include/mbedtls\cipher.h **** 
  97:C:/Users/Yushev/git/wpcqi-optiga-trust-charge/optiga/externals/mbedtls/include/mbedtls\cipher.h **** /**
  98:C:/Users/Yushev/git/wpcqi-optiga-trust-charge/optiga/externals/mbedtls/include/mbedtls\cipher.h ****  * \brief     Supported {cipher type, cipher mode} pairs.
  99:C:/Users/Yushev/git/wpcqi-optiga-trust-charge/optiga/externals/mbedtls/include/mbedtls\cipher.h ****  *
 100:C:/Users/Yushev/git/wpcqi-optiga-trust-charge/optiga/externals/mbedtls/include/mbedtls\cipher.h ****  * \warning   RC4 and DES are considered weak ciphers and their use
 101:C:/Users/Yushev/git/wpcqi-optiga-trust-charge/optiga/externals/mbedtls/include/mbedtls\cipher.h ****  *            constitutes a security risk. Arm recommends considering stronger
 102:C:/Users/Yushev/git/wpcqi-optiga-trust-charge/optiga/externals/mbedtls/include/mbedtls\cipher.h ****  *            ciphers instead.
 103:C:/Users/Yushev/git/wpcqi-optiga-trust-charge/optiga/externals/mbedtls/include/mbedtls\cipher.h ****  */
 104:C:/Users/Yushev/git/wpcqi-optiga-trust-charge/optiga/externals/mbedtls/include/mbedtls\cipher.h **** typedef enum {
 105:C:/Users/Yushev/git/wpcqi-optiga-trust-charge/optiga/externals/mbedtls/include/mbedtls\cipher.h ****     MBEDTLS_CIPHER_NONE = 0,             /**< Placeholder to mark the end of cipher-pair lists. */
 106:C:/Users/Yushev/git/wpcqi-optiga-trust-charge/optiga/externals/mbedtls/include/mbedtls\cipher.h ****     MBEDTLS_CIPHER_NULL,                 /**< The identity stream cipher. */
 107:C:/Users/Yushev/git/wpcqi-optiga-trust-charge/optiga/externals/mbedtls/include/mbedtls\cipher.h ****     MBEDTLS_CIPHER_AES_128_ECB,          /**< AES cipher with 128-bit ECB mode. */
 108:C:/Users/Yushev/git/wpcqi-optiga-trust-charge/optiga/externals/mbedtls/include/mbedtls\cipher.h ****     MBEDTLS_CIPHER_AES_192_ECB,          /**< AES cipher with 192-bit ECB mode. */
 109:C:/Users/Yushev/git/wpcqi-optiga-trust-charge/optiga/externals/mbedtls/include/mbedtls\cipher.h ****     MBEDTLS_CIPHER_AES_256_ECB,          /**< AES cipher with 256-bit ECB mode. */
 110:C:/Users/Yushev/git/wpcqi-optiga-trust-charge/optiga/externals/mbedtls/include/mbedtls\cipher.h ****     MBEDTLS_CIPHER_AES_128_CBC,          /**< AES cipher with 128-bit CBC mode. */
 111:C:/Users/Yushev/git/wpcqi-optiga-trust-charge/optiga/externals/mbedtls/include/mbedtls\cipher.h ****     MBEDTLS_CIPHER_AES_192_CBC,          /**< AES cipher with 192-bit CBC mode. */
 112:C:/Users/Yushev/git/wpcqi-optiga-trust-charge/optiga/externals/mbedtls/include/mbedtls\cipher.h ****     MBEDTLS_CIPHER_AES_256_CBC,          /**< AES cipher with 256-bit CBC mode. */
 113:C:/Users/Yushev/git/wpcqi-optiga-trust-charge/optiga/externals/mbedtls/include/mbedtls\cipher.h ****     MBEDTLS_CIPHER_AES_128_CFB128,       /**< AES cipher with 128-bit CFB128 mode. */
 114:C:/Users/Yushev/git/wpcqi-optiga-trust-charge/optiga/externals/mbedtls/include/mbedtls\cipher.h ****     MBEDTLS_CIPHER_AES_192_CFB128,       /**< AES cipher with 192-bit CFB128 mode. */
 115:C:/Users/Yushev/git/wpcqi-optiga-trust-charge/optiga/externals/mbedtls/include/mbedtls\cipher.h ****     MBEDTLS_CIPHER_AES_256_CFB128,       /**< AES cipher with 256-bit CFB128 mode. */
 116:C:/Users/Yushev/git/wpcqi-optiga-trust-charge/optiga/externals/mbedtls/include/mbedtls\cipher.h ****     MBEDTLS_CIPHER_AES_128_CTR,          /**< AES cipher with 128-bit CTR mode. */
 117:C:/Users/Yushev/git/wpcqi-optiga-trust-charge/optiga/externals/mbedtls/include/mbedtls\cipher.h ****     MBEDTLS_CIPHER_AES_192_CTR,          /**< AES cipher with 192-bit CTR mode. */
 118:C:/Users/Yushev/git/wpcqi-optiga-trust-charge/optiga/externals/mbedtls/include/mbedtls\cipher.h ****     MBEDTLS_CIPHER_AES_256_CTR,          /**< AES cipher with 256-bit CTR mode. */
 119:C:/Users/Yushev/git/wpcqi-optiga-trust-charge/optiga/externals/mbedtls/include/mbedtls\cipher.h ****     MBEDTLS_CIPHER_AES_128_GCM,          /**< AES cipher with 128-bit GCM mode. */
 120:C:/Users/Yushev/git/wpcqi-optiga-trust-charge/optiga/externals/mbedtls/include/mbedtls\cipher.h ****     MBEDTLS_CIPHER_AES_192_GCM,          /**< AES cipher with 192-bit GCM mode. */
 121:C:/Users/Yushev/git/wpcqi-optiga-trust-charge/optiga/externals/mbedtls/include/mbedtls\cipher.h ****     MBEDTLS_CIPHER_AES_256_GCM,          /**< AES cipher with 256-bit GCM mode. */
 122:C:/Users/Yushev/git/wpcqi-optiga-trust-charge/optiga/externals/mbedtls/include/mbedtls\cipher.h ****     MBEDTLS_CIPHER_CAMELLIA_128_ECB,     /**< Camellia cipher with 128-bit ECB mode. */
 123:C:/Users/Yushev/git/wpcqi-optiga-trust-charge/optiga/externals/mbedtls/include/mbedtls\cipher.h ****     MBEDTLS_CIPHER_CAMELLIA_192_ECB,     /**< Camellia cipher with 192-bit ECB mode. */
 124:C:/Users/Yushev/git/wpcqi-optiga-trust-charge/optiga/externals/mbedtls/include/mbedtls\cipher.h ****     MBEDTLS_CIPHER_CAMELLIA_256_ECB,     /**< Camellia cipher with 256-bit ECB mode. */
 125:C:/Users/Yushev/git/wpcqi-optiga-trust-charge/optiga/externals/mbedtls/include/mbedtls\cipher.h ****     MBEDTLS_CIPHER_CAMELLIA_128_CBC,     /**< Camellia cipher with 128-bit CBC mode. */
 126:C:/Users/Yushev/git/wpcqi-optiga-trust-charge/optiga/externals/mbedtls/include/mbedtls\cipher.h ****     MBEDTLS_CIPHER_CAMELLIA_192_CBC,     /**< Camellia cipher with 192-bit CBC mode. */
 127:C:/Users/Yushev/git/wpcqi-optiga-trust-charge/optiga/externals/mbedtls/include/mbedtls\cipher.h ****     MBEDTLS_CIPHER_CAMELLIA_256_CBC,     /**< Camellia cipher with 256-bit CBC mode. */
 128:C:/Users/Yushev/git/wpcqi-optiga-trust-charge/optiga/externals/mbedtls/include/mbedtls\cipher.h ****     MBEDTLS_CIPHER_CAMELLIA_128_CFB128,  /**< Camellia cipher with 128-bit CFB128 mode. */
 129:C:/Users/Yushev/git/wpcqi-optiga-trust-charge/optiga/externals/mbedtls/include/mbedtls\cipher.h ****     MBEDTLS_CIPHER_CAMELLIA_192_CFB128,  /**< Camellia cipher with 192-bit CFB128 mode. */
 130:C:/Users/Yushev/git/wpcqi-optiga-trust-charge/optiga/externals/mbedtls/include/mbedtls\cipher.h ****     MBEDTLS_CIPHER_CAMELLIA_256_CFB128,  /**< Camellia cipher with 256-bit CFB128 mode. */
 131:C:/Users/Yushev/git/wpcqi-optiga-trust-charge/optiga/externals/mbedtls/include/mbedtls\cipher.h ****     MBEDTLS_CIPHER_CAMELLIA_128_CTR,     /**< Camellia cipher with 128-bit CTR mode. */
 132:C:/Users/Yushev/git/wpcqi-optiga-trust-charge/optiga/externals/mbedtls/include/mbedtls\cipher.h ****     MBEDTLS_CIPHER_CAMELLIA_192_CTR,     /**< Camellia cipher with 192-bit CTR mode. */
 133:C:/Users/Yushev/git/wpcqi-optiga-trust-charge/optiga/externals/mbedtls/include/mbedtls\cipher.h ****     MBEDTLS_CIPHER_CAMELLIA_256_CTR,     /**< Camellia cipher with 256-bit CTR mode. */
 134:C:/Users/Yushev/git/wpcqi-optiga-trust-charge/optiga/externals/mbedtls/include/mbedtls\cipher.h ****     MBEDTLS_CIPHER_CAMELLIA_128_GCM,     /**< Camellia cipher with 128-bit GCM mode. */
 135:C:/Users/Yushev/git/wpcqi-optiga-trust-charge/optiga/externals/mbedtls/include/mbedtls\cipher.h ****     MBEDTLS_CIPHER_CAMELLIA_192_GCM,     /**< Camellia cipher with 192-bit GCM mode. */
 136:C:/Users/Yushev/git/wpcqi-optiga-trust-charge/optiga/externals/mbedtls/include/mbedtls\cipher.h ****     MBEDTLS_CIPHER_CAMELLIA_256_GCM,     /**< Camellia cipher with 256-bit GCM mode. */
 137:C:/Users/Yushev/git/wpcqi-optiga-trust-charge/optiga/externals/mbedtls/include/mbedtls\cipher.h ****     MBEDTLS_CIPHER_DES_ECB,              /**< DES cipher with ECB mode. */
 138:C:/Users/Yushev/git/wpcqi-optiga-trust-charge/optiga/externals/mbedtls/include/mbedtls\cipher.h ****     MBEDTLS_CIPHER_DES_CBC,              /**< DES cipher with CBC mode. */
 139:C:/Users/Yushev/git/wpcqi-optiga-trust-charge/optiga/externals/mbedtls/include/mbedtls\cipher.h ****     MBEDTLS_CIPHER_DES_EDE_ECB,          /**< DES cipher with EDE ECB mode. */
 140:C:/Users/Yushev/git/wpcqi-optiga-trust-charge/optiga/externals/mbedtls/include/mbedtls\cipher.h ****     MBEDTLS_CIPHER_DES_EDE_CBC,          /**< DES cipher with EDE CBC mode. */
 141:C:/Users/Yushev/git/wpcqi-optiga-trust-charge/optiga/externals/mbedtls/include/mbedtls\cipher.h ****     MBEDTLS_CIPHER_DES_EDE3_ECB,         /**< DES cipher with EDE3 ECB mode. */
 142:C:/Users/Yushev/git/wpcqi-optiga-trust-charge/optiga/externals/mbedtls/include/mbedtls\cipher.h ****     MBEDTLS_CIPHER_DES_EDE3_CBC,         /**< DES cipher with EDE3 CBC mode. */
 143:C:/Users/Yushev/git/wpcqi-optiga-trust-charge/optiga/externals/mbedtls/include/mbedtls\cipher.h ****     MBEDTLS_CIPHER_BLOWFISH_ECB,         /**< Blowfish cipher with ECB mode. */
 144:C:/Users/Yushev/git/wpcqi-optiga-trust-charge/optiga/externals/mbedtls/include/mbedtls\cipher.h ****     MBEDTLS_CIPHER_BLOWFISH_CBC,         /**< Blowfish cipher with CBC mode. */
 145:C:/Users/Yushev/git/wpcqi-optiga-trust-charge/optiga/externals/mbedtls/include/mbedtls\cipher.h ****     MBEDTLS_CIPHER_BLOWFISH_CFB64,       /**< Blowfish cipher with CFB64 mode. */
 146:C:/Users/Yushev/git/wpcqi-optiga-trust-charge/optiga/externals/mbedtls/include/mbedtls\cipher.h ****     MBEDTLS_CIPHER_BLOWFISH_CTR,         /**< Blowfish cipher with CTR mode. */
 147:C:/Users/Yushev/git/wpcqi-optiga-trust-charge/optiga/externals/mbedtls/include/mbedtls\cipher.h ****     MBEDTLS_CIPHER_ARC4_128,             /**< RC4 cipher with 128-bit mode. */
 148:C:/Users/Yushev/git/wpcqi-optiga-trust-charge/optiga/externals/mbedtls/include/mbedtls\cipher.h ****     MBEDTLS_CIPHER_AES_128_CCM,          /**< AES cipher with 128-bit CCM mode. */
 149:C:/Users/Yushev/git/wpcqi-optiga-trust-charge/optiga/externals/mbedtls/include/mbedtls\cipher.h ****     MBEDTLS_CIPHER_AES_192_CCM,          /**< AES cipher with 192-bit CCM mode. */
 150:C:/Users/Yushev/git/wpcqi-optiga-trust-charge/optiga/externals/mbedtls/include/mbedtls\cipher.h ****     MBEDTLS_CIPHER_AES_256_CCM,          /**< AES cipher with 256-bit CCM mode. */
 151:C:/Users/Yushev/git/wpcqi-optiga-trust-charge/optiga/externals/mbedtls/include/mbedtls\cipher.h ****     MBEDTLS_CIPHER_CAMELLIA_128_CCM,     /**< Camellia cipher with 128-bit CCM mode. */
 152:C:/Users/Yushev/git/wpcqi-optiga-trust-charge/optiga/externals/mbedtls/include/mbedtls\cipher.h ****     MBEDTLS_CIPHER_CAMELLIA_192_CCM,     /**< Camellia cipher with 192-bit CCM mode. */
 153:C:/Users/Yushev/git/wpcqi-optiga-trust-charge/optiga/externals/mbedtls/include/mbedtls\cipher.h ****     MBEDTLS_CIPHER_CAMELLIA_256_CCM,     /**< Camellia cipher with 256-bit CCM mode. */
 154:C:/Users/Yushev/git/wpcqi-optiga-trust-charge/optiga/externals/mbedtls/include/mbedtls\cipher.h ****     MBEDTLS_CIPHER_ARIA_128_ECB,         /**< Aria cipher with 128-bit key and ECB mode. */
 155:C:/Users/Yushev/git/wpcqi-optiga-trust-charge/optiga/externals/mbedtls/include/mbedtls\cipher.h ****     MBEDTLS_CIPHER_ARIA_192_ECB,         /**< Aria cipher with 192-bit key and ECB mode. */
 156:C:/Users/Yushev/git/wpcqi-optiga-trust-charge/optiga/externals/mbedtls/include/mbedtls\cipher.h ****     MBEDTLS_CIPHER_ARIA_256_ECB,         /**< Aria cipher with 256-bit key and ECB mode. */
 157:C:/Users/Yushev/git/wpcqi-optiga-trust-charge/optiga/externals/mbedtls/include/mbedtls\cipher.h ****     MBEDTLS_CIPHER_ARIA_128_CBC,         /**< Aria cipher with 128-bit key and CBC mode. */
 158:C:/Users/Yushev/git/wpcqi-optiga-trust-charge/optiga/externals/mbedtls/include/mbedtls\cipher.h ****     MBEDTLS_CIPHER_ARIA_192_CBC,         /**< Aria cipher with 192-bit key and CBC mode. */
 159:C:/Users/Yushev/git/wpcqi-optiga-trust-charge/optiga/externals/mbedtls/include/mbedtls\cipher.h ****     MBEDTLS_CIPHER_ARIA_256_CBC,         /**< Aria cipher with 256-bit key and CBC mode. */
 160:C:/Users/Yushev/git/wpcqi-optiga-trust-charge/optiga/externals/mbedtls/include/mbedtls\cipher.h ****     MBEDTLS_CIPHER_ARIA_128_CFB128,      /**< Aria cipher with 128-bit key and CFB-128 mode. */
 161:C:/Users/Yushev/git/wpcqi-optiga-trust-charge/optiga/externals/mbedtls/include/mbedtls\cipher.h ****     MBEDTLS_CIPHER_ARIA_192_CFB128,      /**< Aria cipher with 192-bit key and CFB-128 mode. */
 162:C:/Users/Yushev/git/wpcqi-optiga-trust-charge/optiga/externals/mbedtls/include/mbedtls\cipher.h ****     MBEDTLS_CIPHER_ARIA_256_CFB128,      /**< Aria cipher with 256-bit key and CFB-128 mode. */
 163:C:/Users/Yushev/git/wpcqi-optiga-trust-charge/optiga/externals/mbedtls/include/mbedtls\cipher.h ****     MBEDTLS_CIPHER_ARIA_128_CTR,         /**< Aria cipher with 128-bit key and CTR mode. */
 164:C:/Users/Yushev/git/wpcqi-optiga-trust-charge/optiga/externals/mbedtls/include/mbedtls\cipher.h ****     MBEDTLS_CIPHER_ARIA_192_CTR,         /**< Aria cipher with 192-bit key and CTR mode. */
 165:C:/Users/Yushev/git/wpcqi-optiga-trust-charge/optiga/externals/mbedtls/include/mbedtls\cipher.h ****     MBEDTLS_CIPHER_ARIA_256_CTR,         /**< Aria cipher with 256-bit key and CTR mode. */
 166:C:/Users/Yushev/git/wpcqi-optiga-trust-charge/optiga/externals/mbedtls/include/mbedtls\cipher.h ****     MBEDTLS_CIPHER_ARIA_128_GCM,         /**< Aria cipher with 128-bit key and GCM mode. */
 167:C:/Users/Yushev/git/wpcqi-optiga-trust-charge/optiga/externals/mbedtls/include/mbedtls\cipher.h ****     MBEDTLS_CIPHER_ARIA_192_GCM,         /**< Aria cipher with 192-bit key and GCM mode. */
 168:C:/Users/Yushev/git/wpcqi-optiga-trust-charge/optiga/externals/mbedtls/include/mbedtls\cipher.h ****     MBEDTLS_CIPHER_ARIA_256_GCM,         /**< Aria cipher with 256-bit key and GCM mode. */
 169:C:/Users/Yushev/git/wpcqi-optiga-trust-charge/optiga/externals/mbedtls/include/mbedtls\cipher.h ****     MBEDTLS_CIPHER_ARIA_128_CCM,         /**< Aria cipher with 128-bit key and CCM mode. */
 170:C:/Users/Yushev/git/wpcqi-optiga-trust-charge/optiga/externals/mbedtls/include/mbedtls\cipher.h ****     MBEDTLS_CIPHER_ARIA_192_CCM,         /**< Aria cipher with 192-bit key and CCM mode. */
 171:C:/Users/Yushev/git/wpcqi-optiga-trust-charge/optiga/externals/mbedtls/include/mbedtls\cipher.h ****     MBEDTLS_CIPHER_ARIA_256_CCM,         /**< Aria cipher with 256-bit key and CCM mode. */
 172:C:/Users/Yushev/git/wpcqi-optiga-trust-charge/optiga/externals/mbedtls/include/mbedtls\cipher.h ****     MBEDTLS_CIPHER_AES_128_OFB,          /**< AES 128-bit cipher in OFB mode. */
 173:C:/Users/Yushev/git/wpcqi-optiga-trust-charge/optiga/externals/mbedtls/include/mbedtls\cipher.h ****     MBEDTLS_CIPHER_AES_192_OFB,          /**< AES 192-bit cipher in OFB mode. */
 174:C:/Users/Yushev/git/wpcqi-optiga-trust-charge/optiga/externals/mbedtls/include/mbedtls\cipher.h ****     MBEDTLS_CIPHER_AES_256_OFB,          /**< AES 256-bit cipher in OFB mode. */
 175:C:/Users/Yushev/git/wpcqi-optiga-trust-charge/optiga/externals/mbedtls/include/mbedtls\cipher.h ****     MBEDTLS_CIPHER_AES_128_XTS,          /**< AES 128-bit cipher in XTS block mode. */
 176:C:/Users/Yushev/git/wpcqi-optiga-trust-charge/optiga/externals/mbedtls/include/mbedtls\cipher.h ****     MBEDTLS_CIPHER_AES_256_XTS,          /**< AES 256-bit cipher in XTS block mode. */
 177:C:/Users/Yushev/git/wpcqi-optiga-trust-charge/optiga/externals/mbedtls/include/mbedtls\cipher.h ****     MBEDTLS_CIPHER_CHACHA20,             /**< ChaCha20 stream cipher. */
 178:C:/Users/Yushev/git/wpcqi-optiga-trust-charge/optiga/externals/mbedtls/include/mbedtls\cipher.h ****     MBEDTLS_CIPHER_CHACHA20_POLY1305,    /**< ChaCha20-Poly1305 AEAD cipher. */
 179:C:/Users/Yushev/git/wpcqi-optiga-trust-charge/optiga/externals/mbedtls/include/mbedtls\cipher.h **** } mbedtls_cipher_type_t;
 180:C:/Users/Yushev/git/wpcqi-optiga-trust-charge/optiga/externals/mbedtls/include/mbedtls\cipher.h **** 
 181:C:/Users/Yushev/git/wpcqi-optiga-trust-charge/optiga/externals/mbedtls/include/mbedtls\cipher.h **** /** Supported cipher modes. */
 182:C:/Users/Yushev/git/wpcqi-optiga-trust-charge/optiga/externals/mbedtls/include/mbedtls\cipher.h **** typedef enum {
 183:C:/Users/Yushev/git/wpcqi-optiga-trust-charge/optiga/externals/mbedtls/include/mbedtls\cipher.h ****     MBEDTLS_MODE_NONE = 0,               /**< None. */
 184:C:/Users/Yushev/git/wpcqi-optiga-trust-charge/optiga/externals/mbedtls/include/mbedtls\cipher.h ****     MBEDTLS_MODE_ECB,                    /**< The ECB cipher mode. */
 185:C:/Users/Yushev/git/wpcqi-optiga-trust-charge/optiga/externals/mbedtls/include/mbedtls\cipher.h ****     MBEDTLS_MODE_CBC,                    /**< The CBC cipher mode. */
 186:C:/Users/Yushev/git/wpcqi-optiga-trust-charge/optiga/externals/mbedtls/include/mbedtls\cipher.h ****     MBEDTLS_MODE_CFB,                    /**< The CFB cipher mode. */
 187:C:/Users/Yushev/git/wpcqi-optiga-trust-charge/optiga/externals/mbedtls/include/mbedtls\cipher.h ****     MBEDTLS_MODE_OFB,                    /**< The OFB cipher mode. */
 188:C:/Users/Yushev/git/wpcqi-optiga-trust-charge/optiga/externals/mbedtls/include/mbedtls\cipher.h ****     MBEDTLS_MODE_CTR,                    /**< The CTR cipher mode. */
 189:C:/Users/Yushev/git/wpcqi-optiga-trust-charge/optiga/externals/mbedtls/include/mbedtls\cipher.h ****     MBEDTLS_MODE_GCM,                    /**< The GCM cipher mode. */
 190:C:/Users/Yushev/git/wpcqi-optiga-trust-charge/optiga/externals/mbedtls/include/mbedtls\cipher.h ****     MBEDTLS_MODE_STREAM,                 /**< The stream cipher mode. */
 191:C:/Users/Yushev/git/wpcqi-optiga-trust-charge/optiga/externals/mbedtls/include/mbedtls\cipher.h ****     MBEDTLS_MODE_CCM,                    /**< The CCM cipher mode. */
 192:C:/Users/Yushev/git/wpcqi-optiga-trust-charge/optiga/externals/mbedtls/include/mbedtls\cipher.h ****     MBEDTLS_MODE_XTS,                    /**< The XTS cipher mode. */
 193:C:/Users/Yushev/git/wpcqi-optiga-trust-charge/optiga/externals/mbedtls/include/mbedtls\cipher.h ****     MBEDTLS_MODE_CHACHAPOLY,             /**< The ChaCha-Poly cipher mode. */
 194:C:/Users/Yushev/git/wpcqi-optiga-trust-charge/optiga/externals/mbedtls/include/mbedtls\cipher.h **** } mbedtls_cipher_mode_t;
 195:C:/Users/Yushev/git/wpcqi-optiga-trust-charge/optiga/externals/mbedtls/include/mbedtls\cipher.h **** 
 196:C:/Users/Yushev/git/wpcqi-optiga-trust-charge/optiga/externals/mbedtls/include/mbedtls\cipher.h **** /** Supported cipher padding types. */
 197:C:/Users/Yushev/git/wpcqi-optiga-trust-charge/optiga/externals/mbedtls/include/mbedtls\cipher.h **** typedef enum {
 198:C:/Users/Yushev/git/wpcqi-optiga-trust-charge/optiga/externals/mbedtls/include/mbedtls\cipher.h ****     MBEDTLS_PADDING_PKCS7 = 0,     /**< PKCS7 padding (default).        */
 199:C:/Users/Yushev/git/wpcqi-optiga-trust-charge/optiga/externals/mbedtls/include/mbedtls\cipher.h ****     MBEDTLS_PADDING_ONE_AND_ZEROS, /**< ISO/IEC 7816-4 padding.         */
 200:C:/Users/Yushev/git/wpcqi-optiga-trust-charge/optiga/externals/mbedtls/include/mbedtls\cipher.h ****     MBEDTLS_PADDING_ZEROS_AND_LEN, /**< ANSI X.923 padding.             */
 201:C:/Users/Yushev/git/wpcqi-optiga-trust-charge/optiga/externals/mbedtls/include/mbedtls\cipher.h ****     MBEDTLS_PADDING_ZEROS,         /**< Zero padding (not reversible). */
 202:C:/Users/Yushev/git/wpcqi-optiga-trust-charge/optiga/externals/mbedtls/include/mbedtls\cipher.h ****     MBEDTLS_PADDING_NONE,          /**< Never pad (full blocks only).   */
 203:C:/Users/Yushev/git/wpcqi-optiga-trust-charge/optiga/externals/mbedtls/include/mbedtls\cipher.h **** } mbedtls_cipher_padding_t;
 204:C:/Users/Yushev/git/wpcqi-optiga-trust-charge/optiga/externals/mbedtls/include/mbedtls\cipher.h **** 
 205:C:/Users/Yushev/git/wpcqi-optiga-trust-charge/optiga/externals/mbedtls/include/mbedtls\cipher.h **** /** Type of operation. */
 206:C:/Users/Yushev/git/wpcqi-optiga-trust-charge/optiga/externals/mbedtls/include/mbedtls\cipher.h **** typedef enum {
 207:C:/Users/Yushev/git/wpcqi-optiga-trust-charge/optiga/externals/mbedtls/include/mbedtls\cipher.h ****     MBEDTLS_OPERATION_NONE = -1,
 208:C:/Users/Yushev/git/wpcqi-optiga-trust-charge/optiga/externals/mbedtls/include/mbedtls\cipher.h ****     MBEDTLS_DECRYPT = 0,
 209:C:/Users/Yushev/git/wpcqi-optiga-trust-charge/optiga/externals/mbedtls/include/mbedtls\cipher.h ****     MBEDTLS_ENCRYPT,
 210:C:/Users/Yushev/git/wpcqi-optiga-trust-charge/optiga/externals/mbedtls/include/mbedtls\cipher.h **** } mbedtls_operation_t;
 211:C:/Users/Yushev/git/wpcqi-optiga-trust-charge/optiga/externals/mbedtls/include/mbedtls\cipher.h **** 
 212:C:/Users/Yushev/git/wpcqi-optiga-trust-charge/optiga/externals/mbedtls/include/mbedtls\cipher.h **** enum {
 213:C:/Users/Yushev/git/wpcqi-optiga-trust-charge/optiga/externals/mbedtls/include/mbedtls\cipher.h ****     /** Undefined key length. */
 214:C:/Users/Yushev/git/wpcqi-optiga-trust-charge/optiga/externals/mbedtls/include/mbedtls\cipher.h ****     MBEDTLS_KEY_LENGTH_NONE = 0,
 215:C:/Users/Yushev/git/wpcqi-optiga-trust-charge/optiga/externals/mbedtls/include/mbedtls\cipher.h ****     /** Key length, in bits (including parity), for DES keys. */
 216:C:/Users/Yushev/git/wpcqi-optiga-trust-charge/optiga/externals/mbedtls/include/mbedtls\cipher.h ****     MBEDTLS_KEY_LENGTH_DES  = 64,
 217:C:/Users/Yushev/git/wpcqi-optiga-trust-charge/optiga/externals/mbedtls/include/mbedtls\cipher.h ****     /** Key length in bits, including parity, for DES in two-key EDE. */
 218:C:/Users/Yushev/git/wpcqi-optiga-trust-charge/optiga/externals/mbedtls/include/mbedtls\cipher.h ****     MBEDTLS_KEY_LENGTH_DES_EDE = 128,
 219:C:/Users/Yushev/git/wpcqi-optiga-trust-charge/optiga/externals/mbedtls/include/mbedtls\cipher.h ****     /** Key length in bits, including parity, for DES in three-key EDE. */
 220:C:/Users/Yushev/git/wpcqi-optiga-trust-charge/optiga/externals/mbedtls/include/mbedtls\cipher.h ****     MBEDTLS_KEY_LENGTH_DES_EDE3 = 192,
 221:C:/Users/Yushev/git/wpcqi-optiga-trust-charge/optiga/externals/mbedtls/include/mbedtls\cipher.h **** };
 222:C:/Users/Yushev/git/wpcqi-optiga-trust-charge/optiga/externals/mbedtls/include/mbedtls\cipher.h **** 
 223:C:/Users/Yushev/git/wpcqi-optiga-trust-charge/optiga/externals/mbedtls/include/mbedtls\cipher.h **** /** Maximum length of any IV, in Bytes. */
 224:C:/Users/Yushev/git/wpcqi-optiga-trust-charge/optiga/externals/mbedtls/include/mbedtls\cipher.h **** #define MBEDTLS_MAX_IV_LENGTH      16
 225:C:/Users/Yushev/git/wpcqi-optiga-trust-charge/optiga/externals/mbedtls/include/mbedtls\cipher.h **** /** Maximum block size of any cipher, in Bytes. */
 226:C:/Users/Yushev/git/wpcqi-optiga-trust-charge/optiga/externals/mbedtls/include/mbedtls\cipher.h **** #define MBEDTLS_MAX_BLOCK_LENGTH   16
 227:C:/Users/Yushev/git/wpcqi-optiga-trust-charge/optiga/externals/mbedtls/include/mbedtls\cipher.h **** 
 228:C:/Users/Yushev/git/wpcqi-optiga-trust-charge/optiga/externals/mbedtls/include/mbedtls\cipher.h **** /**
 229:C:/Users/Yushev/git/wpcqi-optiga-trust-charge/optiga/externals/mbedtls/include/mbedtls\cipher.h ****  * Base cipher information (opaque struct).
 230:C:/Users/Yushev/git/wpcqi-optiga-trust-charge/optiga/externals/mbedtls/include/mbedtls\cipher.h ****  */
 231:C:/Users/Yushev/git/wpcqi-optiga-trust-charge/optiga/externals/mbedtls/include/mbedtls\cipher.h **** typedef struct mbedtls_cipher_base_t mbedtls_cipher_base_t;
 232:C:/Users/Yushev/git/wpcqi-optiga-trust-charge/optiga/externals/mbedtls/include/mbedtls\cipher.h **** 
 233:C:/Users/Yushev/git/wpcqi-optiga-trust-charge/optiga/externals/mbedtls/include/mbedtls\cipher.h **** /**
 234:C:/Users/Yushev/git/wpcqi-optiga-trust-charge/optiga/externals/mbedtls/include/mbedtls\cipher.h ****  * CMAC context (opaque struct).
 235:C:/Users/Yushev/git/wpcqi-optiga-trust-charge/optiga/externals/mbedtls/include/mbedtls\cipher.h ****  */
 236:C:/Users/Yushev/git/wpcqi-optiga-trust-charge/optiga/externals/mbedtls/include/mbedtls\cipher.h **** typedef struct mbedtls_cmac_context_t mbedtls_cmac_context_t;
 237:C:/Users/Yushev/git/wpcqi-optiga-trust-charge/optiga/externals/mbedtls/include/mbedtls\cipher.h **** 
 238:C:/Users/Yushev/git/wpcqi-optiga-trust-charge/optiga/externals/mbedtls/include/mbedtls\cipher.h **** /**
 239:C:/Users/Yushev/git/wpcqi-optiga-trust-charge/optiga/externals/mbedtls/include/mbedtls\cipher.h ****  * Cipher information. Allows calling cipher functions
 240:C:/Users/Yushev/git/wpcqi-optiga-trust-charge/optiga/externals/mbedtls/include/mbedtls\cipher.h ****  * in a generic way.
 241:C:/Users/Yushev/git/wpcqi-optiga-trust-charge/optiga/externals/mbedtls/include/mbedtls\cipher.h ****  */
 242:C:/Users/Yushev/git/wpcqi-optiga-trust-charge/optiga/externals/mbedtls/include/mbedtls\cipher.h **** typedef struct mbedtls_cipher_info_t
 243:C:/Users/Yushev/git/wpcqi-optiga-trust-charge/optiga/externals/mbedtls/include/mbedtls\cipher.h **** {
 244:C:/Users/Yushev/git/wpcqi-optiga-trust-charge/optiga/externals/mbedtls/include/mbedtls\cipher.h ****     /** Full cipher identifier. For example,
 245:C:/Users/Yushev/git/wpcqi-optiga-trust-charge/optiga/externals/mbedtls/include/mbedtls\cipher.h ****      * MBEDTLS_CIPHER_AES_256_CBC.
 246:C:/Users/Yushev/git/wpcqi-optiga-trust-charge/optiga/externals/mbedtls/include/mbedtls\cipher.h ****      */
 247:C:/Users/Yushev/git/wpcqi-optiga-trust-charge/optiga/externals/mbedtls/include/mbedtls\cipher.h ****     mbedtls_cipher_type_t type;
 248:C:/Users/Yushev/git/wpcqi-optiga-trust-charge/optiga/externals/mbedtls/include/mbedtls\cipher.h **** 
 249:C:/Users/Yushev/git/wpcqi-optiga-trust-charge/optiga/externals/mbedtls/include/mbedtls\cipher.h ****     /** The cipher mode. For example, MBEDTLS_MODE_CBC. */
 250:C:/Users/Yushev/git/wpcqi-optiga-trust-charge/optiga/externals/mbedtls/include/mbedtls\cipher.h ****     mbedtls_cipher_mode_t mode;
 251:C:/Users/Yushev/git/wpcqi-optiga-trust-charge/optiga/externals/mbedtls/include/mbedtls\cipher.h **** 
 252:C:/Users/Yushev/git/wpcqi-optiga-trust-charge/optiga/externals/mbedtls/include/mbedtls\cipher.h ****     /** The cipher key length, in bits. This is the
 253:C:/Users/Yushev/git/wpcqi-optiga-trust-charge/optiga/externals/mbedtls/include/mbedtls\cipher.h ****      * default length for variable sized ciphers.
 254:C:/Users/Yushev/git/wpcqi-optiga-trust-charge/optiga/externals/mbedtls/include/mbedtls\cipher.h ****      * Includes parity bits for ciphers like DES.
 255:C:/Users/Yushev/git/wpcqi-optiga-trust-charge/optiga/externals/mbedtls/include/mbedtls\cipher.h ****      */
 256:C:/Users/Yushev/git/wpcqi-optiga-trust-charge/optiga/externals/mbedtls/include/mbedtls\cipher.h ****     unsigned int key_bitlen;
 257:C:/Users/Yushev/git/wpcqi-optiga-trust-charge/optiga/externals/mbedtls/include/mbedtls\cipher.h **** 
 258:C:/Users/Yushev/git/wpcqi-optiga-trust-charge/optiga/externals/mbedtls/include/mbedtls\cipher.h ****     /** Name of the cipher. */
 259:C:/Users/Yushev/git/wpcqi-optiga-trust-charge/optiga/externals/mbedtls/include/mbedtls\cipher.h ****     const char * name;
 260:C:/Users/Yushev/git/wpcqi-optiga-trust-charge/optiga/externals/mbedtls/include/mbedtls\cipher.h **** 
 261:C:/Users/Yushev/git/wpcqi-optiga-trust-charge/optiga/externals/mbedtls/include/mbedtls\cipher.h ****     /** IV or nonce size, in Bytes.
 262:C:/Users/Yushev/git/wpcqi-optiga-trust-charge/optiga/externals/mbedtls/include/mbedtls\cipher.h ****      * For ciphers that accept variable IV sizes,
 263:C:/Users/Yushev/git/wpcqi-optiga-trust-charge/optiga/externals/mbedtls/include/mbedtls\cipher.h ****      * this is the recommended size.
 264:C:/Users/Yushev/git/wpcqi-optiga-trust-charge/optiga/externals/mbedtls/include/mbedtls\cipher.h ****      */
 265:C:/Users/Yushev/git/wpcqi-optiga-trust-charge/optiga/externals/mbedtls/include/mbedtls\cipher.h ****     unsigned int iv_size;
 266:C:/Users/Yushev/git/wpcqi-optiga-trust-charge/optiga/externals/mbedtls/include/mbedtls\cipher.h **** 
 267:C:/Users/Yushev/git/wpcqi-optiga-trust-charge/optiga/externals/mbedtls/include/mbedtls\cipher.h ****     /** Bitflag comprised of MBEDTLS_CIPHER_VARIABLE_IV_LEN and
 268:C:/Users/Yushev/git/wpcqi-optiga-trust-charge/optiga/externals/mbedtls/include/mbedtls\cipher.h ****      *  MBEDTLS_CIPHER_VARIABLE_KEY_LEN indicating whether the
 269:C:/Users/Yushev/git/wpcqi-optiga-trust-charge/optiga/externals/mbedtls/include/mbedtls\cipher.h ****      *  cipher supports variable IV or variable key sizes, respectively.
 270:C:/Users/Yushev/git/wpcqi-optiga-trust-charge/optiga/externals/mbedtls/include/mbedtls\cipher.h ****      */
 271:C:/Users/Yushev/git/wpcqi-optiga-trust-charge/optiga/externals/mbedtls/include/mbedtls\cipher.h ****     int flags;
 272:C:/Users/Yushev/git/wpcqi-optiga-trust-charge/optiga/externals/mbedtls/include/mbedtls\cipher.h **** 
 273:C:/Users/Yushev/git/wpcqi-optiga-trust-charge/optiga/externals/mbedtls/include/mbedtls\cipher.h ****     /** The block size, in Bytes. */
 274:C:/Users/Yushev/git/wpcqi-optiga-trust-charge/optiga/externals/mbedtls/include/mbedtls\cipher.h ****     unsigned int block_size;
 275:C:/Users/Yushev/git/wpcqi-optiga-trust-charge/optiga/externals/mbedtls/include/mbedtls\cipher.h **** 
 276:C:/Users/Yushev/git/wpcqi-optiga-trust-charge/optiga/externals/mbedtls/include/mbedtls\cipher.h ****     /** Struct for base cipher information and functions. */
 277:C:/Users/Yushev/git/wpcqi-optiga-trust-charge/optiga/externals/mbedtls/include/mbedtls\cipher.h ****     const mbedtls_cipher_base_t *base;
 278:C:/Users/Yushev/git/wpcqi-optiga-trust-charge/optiga/externals/mbedtls/include/mbedtls\cipher.h **** 
 279:C:/Users/Yushev/git/wpcqi-optiga-trust-charge/optiga/externals/mbedtls/include/mbedtls\cipher.h **** } mbedtls_cipher_info_t;
 280:C:/Users/Yushev/git/wpcqi-optiga-trust-charge/optiga/externals/mbedtls/include/mbedtls\cipher.h **** 
 281:C:/Users/Yushev/git/wpcqi-optiga-trust-charge/optiga/externals/mbedtls/include/mbedtls\cipher.h **** /**
 282:C:/Users/Yushev/git/wpcqi-optiga-trust-charge/optiga/externals/mbedtls/include/mbedtls\cipher.h ****  * Generic cipher context.
 283:C:/Users/Yushev/git/wpcqi-optiga-trust-charge/optiga/externals/mbedtls/include/mbedtls\cipher.h ****  */
 284:C:/Users/Yushev/git/wpcqi-optiga-trust-charge/optiga/externals/mbedtls/include/mbedtls\cipher.h **** typedef struct mbedtls_cipher_context_t
 285:C:/Users/Yushev/git/wpcqi-optiga-trust-charge/optiga/externals/mbedtls/include/mbedtls\cipher.h **** {
 286:C:/Users/Yushev/git/wpcqi-optiga-trust-charge/optiga/externals/mbedtls/include/mbedtls\cipher.h ****     /** Information about the associated cipher. */
 287:C:/Users/Yushev/git/wpcqi-optiga-trust-charge/optiga/externals/mbedtls/include/mbedtls\cipher.h ****     const mbedtls_cipher_info_t *cipher_info;
 288:C:/Users/Yushev/git/wpcqi-optiga-trust-charge/optiga/externals/mbedtls/include/mbedtls\cipher.h **** 
 289:C:/Users/Yushev/git/wpcqi-optiga-trust-charge/optiga/externals/mbedtls/include/mbedtls\cipher.h ****     /** Key length to use. */
 290:C:/Users/Yushev/git/wpcqi-optiga-trust-charge/optiga/externals/mbedtls/include/mbedtls\cipher.h ****     int key_bitlen;
 291:C:/Users/Yushev/git/wpcqi-optiga-trust-charge/optiga/externals/mbedtls/include/mbedtls\cipher.h **** 
 292:C:/Users/Yushev/git/wpcqi-optiga-trust-charge/optiga/externals/mbedtls/include/mbedtls\cipher.h ****     /** Operation that the key of the context has been
 293:C:/Users/Yushev/git/wpcqi-optiga-trust-charge/optiga/externals/mbedtls/include/mbedtls\cipher.h ****      * initialized for.
 294:C:/Users/Yushev/git/wpcqi-optiga-trust-charge/optiga/externals/mbedtls/include/mbedtls\cipher.h ****      */
 295:C:/Users/Yushev/git/wpcqi-optiga-trust-charge/optiga/externals/mbedtls/include/mbedtls\cipher.h ****     mbedtls_operation_t operation;
 296:C:/Users/Yushev/git/wpcqi-optiga-trust-charge/optiga/externals/mbedtls/include/mbedtls\cipher.h **** 
 297:C:/Users/Yushev/git/wpcqi-optiga-trust-charge/optiga/externals/mbedtls/include/mbedtls\cipher.h **** #if defined(MBEDTLS_CIPHER_MODE_WITH_PADDING)
 298:C:/Users/Yushev/git/wpcqi-optiga-trust-charge/optiga/externals/mbedtls/include/mbedtls\cipher.h ****     /** Padding functions to use, if relevant for
 299:C:/Users/Yushev/git/wpcqi-optiga-trust-charge/optiga/externals/mbedtls/include/mbedtls\cipher.h ****      * the specific cipher mode.
 300:C:/Users/Yushev/git/wpcqi-optiga-trust-charge/optiga/externals/mbedtls/include/mbedtls\cipher.h ****      */
 301:C:/Users/Yushev/git/wpcqi-optiga-trust-charge/optiga/externals/mbedtls/include/mbedtls\cipher.h ****     void (*add_padding)( unsigned char *output, size_t olen, size_t data_len );
 302:C:/Users/Yushev/git/wpcqi-optiga-trust-charge/optiga/externals/mbedtls/include/mbedtls\cipher.h ****     int (*get_padding)( unsigned char *input, size_t ilen, size_t *data_len );
 303:C:/Users/Yushev/git/wpcqi-optiga-trust-charge/optiga/externals/mbedtls/include/mbedtls\cipher.h **** #endif
 304:C:/Users/Yushev/git/wpcqi-optiga-trust-charge/optiga/externals/mbedtls/include/mbedtls\cipher.h **** 
 305:C:/Users/Yushev/git/wpcqi-optiga-trust-charge/optiga/externals/mbedtls/include/mbedtls\cipher.h ****     /** Buffer for input that has not been processed yet. */
 306:C:/Users/Yushev/git/wpcqi-optiga-trust-charge/optiga/externals/mbedtls/include/mbedtls\cipher.h ****     unsigned char unprocessed_data[MBEDTLS_MAX_BLOCK_LENGTH];
 307:C:/Users/Yushev/git/wpcqi-optiga-trust-charge/optiga/externals/mbedtls/include/mbedtls\cipher.h **** 
 308:C:/Users/Yushev/git/wpcqi-optiga-trust-charge/optiga/externals/mbedtls/include/mbedtls\cipher.h ****     /** Number of Bytes that have not been processed yet. */
 309:C:/Users/Yushev/git/wpcqi-optiga-trust-charge/optiga/externals/mbedtls/include/mbedtls\cipher.h ****     size_t unprocessed_len;
 310:C:/Users/Yushev/git/wpcqi-optiga-trust-charge/optiga/externals/mbedtls/include/mbedtls\cipher.h **** 
 311:C:/Users/Yushev/git/wpcqi-optiga-trust-charge/optiga/externals/mbedtls/include/mbedtls\cipher.h ****     /** Current IV or NONCE_COUNTER for CTR-mode, data unit (or sector) number
 312:C:/Users/Yushev/git/wpcqi-optiga-trust-charge/optiga/externals/mbedtls/include/mbedtls\cipher.h ****      * for XTS-mode. */
 313:C:/Users/Yushev/git/wpcqi-optiga-trust-charge/optiga/externals/mbedtls/include/mbedtls\cipher.h ****     unsigned char iv[MBEDTLS_MAX_IV_LENGTH];
 314:C:/Users/Yushev/git/wpcqi-optiga-trust-charge/optiga/externals/mbedtls/include/mbedtls\cipher.h **** 
 315:C:/Users/Yushev/git/wpcqi-optiga-trust-charge/optiga/externals/mbedtls/include/mbedtls\cipher.h ****     /** IV size in Bytes, for ciphers with variable-length IVs. */
 316:C:/Users/Yushev/git/wpcqi-optiga-trust-charge/optiga/externals/mbedtls/include/mbedtls\cipher.h ****     size_t iv_size;
 317:C:/Users/Yushev/git/wpcqi-optiga-trust-charge/optiga/externals/mbedtls/include/mbedtls\cipher.h **** 
 318:C:/Users/Yushev/git/wpcqi-optiga-trust-charge/optiga/externals/mbedtls/include/mbedtls\cipher.h ****     /** The cipher-specific context. */
 319:C:/Users/Yushev/git/wpcqi-optiga-trust-charge/optiga/externals/mbedtls/include/mbedtls\cipher.h ****     void *cipher_ctx;
 320:C:/Users/Yushev/git/wpcqi-optiga-trust-charge/optiga/externals/mbedtls/include/mbedtls\cipher.h **** 
 321:C:/Users/Yushev/git/wpcqi-optiga-trust-charge/optiga/externals/mbedtls/include/mbedtls\cipher.h **** #if defined(MBEDTLS_CMAC_C)
 322:C:/Users/Yushev/git/wpcqi-optiga-trust-charge/optiga/externals/mbedtls/include/mbedtls\cipher.h ****     /** CMAC-specific context. */
 323:C:/Users/Yushev/git/wpcqi-optiga-trust-charge/optiga/externals/mbedtls/include/mbedtls\cipher.h ****     mbedtls_cmac_context_t *cmac_ctx;
 324:C:/Users/Yushev/git/wpcqi-optiga-trust-charge/optiga/externals/mbedtls/include/mbedtls\cipher.h **** #endif
 325:C:/Users/Yushev/git/wpcqi-optiga-trust-charge/optiga/externals/mbedtls/include/mbedtls\cipher.h **** } mbedtls_cipher_context_t;
 326:C:/Users/Yushev/git/wpcqi-optiga-trust-charge/optiga/externals/mbedtls/include/mbedtls\cipher.h **** 
 327:C:/Users/Yushev/git/wpcqi-optiga-trust-charge/optiga/externals/mbedtls/include/mbedtls\cipher.h **** /**
 328:C:/Users/Yushev/git/wpcqi-optiga-trust-charge/optiga/externals/mbedtls/include/mbedtls\cipher.h ****  * \brief This function retrieves the list of ciphers supported by the generic
 329:C:/Users/Yushev/git/wpcqi-optiga-trust-charge/optiga/externals/mbedtls/include/mbedtls\cipher.h ****  * cipher module.
 330:C:/Users/Yushev/git/wpcqi-optiga-trust-charge/optiga/externals/mbedtls/include/mbedtls\cipher.h ****  *
 331:C:/Users/Yushev/git/wpcqi-optiga-trust-charge/optiga/externals/mbedtls/include/mbedtls\cipher.h ****  * \return      A statically-allocated array of ciphers. The last entry
 332:C:/Users/Yushev/git/wpcqi-optiga-trust-charge/optiga/externals/mbedtls/include/mbedtls\cipher.h ****  *              is zero.
 333:C:/Users/Yushev/git/wpcqi-optiga-trust-charge/optiga/externals/mbedtls/include/mbedtls\cipher.h ****  */
 334:C:/Users/Yushev/git/wpcqi-optiga-trust-charge/optiga/externals/mbedtls/include/mbedtls\cipher.h **** const int *mbedtls_cipher_list( void );
 335:C:/Users/Yushev/git/wpcqi-optiga-trust-charge/optiga/externals/mbedtls/include/mbedtls\cipher.h **** 
 336:C:/Users/Yushev/git/wpcqi-optiga-trust-charge/optiga/externals/mbedtls/include/mbedtls\cipher.h **** /**
 337:C:/Users/Yushev/git/wpcqi-optiga-trust-charge/optiga/externals/mbedtls/include/mbedtls\cipher.h ****  * \brief               This function retrieves the cipher-information
 338:C:/Users/Yushev/git/wpcqi-optiga-trust-charge/optiga/externals/mbedtls/include/mbedtls\cipher.h ****  *                      structure associated with the given cipher name.
 339:C:/Users/Yushev/git/wpcqi-optiga-trust-charge/optiga/externals/mbedtls/include/mbedtls\cipher.h ****  *
 340:C:/Users/Yushev/git/wpcqi-optiga-trust-charge/optiga/externals/mbedtls/include/mbedtls\cipher.h ****  * \param cipher_name   Name of the cipher to search for. This must not be
 341:C:/Users/Yushev/git/wpcqi-optiga-trust-charge/optiga/externals/mbedtls/include/mbedtls\cipher.h ****  *                      \c NULL.
 342:C:/Users/Yushev/git/wpcqi-optiga-trust-charge/optiga/externals/mbedtls/include/mbedtls\cipher.h ****  *
 343:C:/Users/Yushev/git/wpcqi-optiga-trust-charge/optiga/externals/mbedtls/include/mbedtls\cipher.h ****  * \return              The cipher information structure associated with the
 344:C:/Users/Yushev/git/wpcqi-optiga-trust-charge/optiga/externals/mbedtls/include/mbedtls\cipher.h ****  *                      given \p cipher_name.
 345:C:/Users/Yushev/git/wpcqi-optiga-trust-charge/optiga/externals/mbedtls/include/mbedtls\cipher.h ****  * \return              \c NULL if the associated cipher information is not found.
 346:C:/Users/Yushev/git/wpcqi-optiga-trust-charge/optiga/externals/mbedtls/include/mbedtls\cipher.h ****  */
 347:C:/Users/Yushev/git/wpcqi-optiga-trust-charge/optiga/externals/mbedtls/include/mbedtls\cipher.h **** const mbedtls_cipher_info_t *mbedtls_cipher_info_from_string( const char *cipher_name );
 348:C:/Users/Yushev/git/wpcqi-optiga-trust-charge/optiga/externals/mbedtls/include/mbedtls\cipher.h **** 
 349:C:/Users/Yushev/git/wpcqi-optiga-trust-charge/optiga/externals/mbedtls/include/mbedtls\cipher.h **** /**
 350:C:/Users/Yushev/git/wpcqi-optiga-trust-charge/optiga/externals/mbedtls/include/mbedtls\cipher.h ****  * \brief               This function retrieves the cipher-information
 351:C:/Users/Yushev/git/wpcqi-optiga-trust-charge/optiga/externals/mbedtls/include/mbedtls\cipher.h ****  *                      structure associated with the given cipher type.
 352:C:/Users/Yushev/git/wpcqi-optiga-trust-charge/optiga/externals/mbedtls/include/mbedtls\cipher.h ****  *
 353:C:/Users/Yushev/git/wpcqi-optiga-trust-charge/optiga/externals/mbedtls/include/mbedtls\cipher.h ****  * \param cipher_type   Type of the cipher to search for.
 354:C:/Users/Yushev/git/wpcqi-optiga-trust-charge/optiga/externals/mbedtls/include/mbedtls\cipher.h ****  *
 355:C:/Users/Yushev/git/wpcqi-optiga-trust-charge/optiga/externals/mbedtls/include/mbedtls\cipher.h ****  * \return              The cipher information structure associated with the
 356:C:/Users/Yushev/git/wpcqi-optiga-trust-charge/optiga/externals/mbedtls/include/mbedtls\cipher.h ****  *                      given \p cipher_type.
 357:C:/Users/Yushev/git/wpcqi-optiga-trust-charge/optiga/externals/mbedtls/include/mbedtls\cipher.h ****  * \return              \c NULL if the associated cipher information is not found.
 358:C:/Users/Yushev/git/wpcqi-optiga-trust-charge/optiga/externals/mbedtls/include/mbedtls\cipher.h ****  */
 359:C:/Users/Yushev/git/wpcqi-optiga-trust-charge/optiga/externals/mbedtls/include/mbedtls\cipher.h **** const mbedtls_cipher_info_t *mbedtls_cipher_info_from_type( const mbedtls_cipher_type_t cipher_type
 360:C:/Users/Yushev/git/wpcqi-optiga-trust-charge/optiga/externals/mbedtls/include/mbedtls\cipher.h **** 
 361:C:/Users/Yushev/git/wpcqi-optiga-trust-charge/optiga/externals/mbedtls/include/mbedtls\cipher.h **** /**
 362:C:/Users/Yushev/git/wpcqi-optiga-trust-charge/optiga/externals/mbedtls/include/mbedtls\cipher.h ****  * \brief               This function retrieves the cipher-information
 363:C:/Users/Yushev/git/wpcqi-optiga-trust-charge/optiga/externals/mbedtls/include/mbedtls\cipher.h ****  *                      structure associated with the given cipher ID,
 364:C:/Users/Yushev/git/wpcqi-optiga-trust-charge/optiga/externals/mbedtls/include/mbedtls\cipher.h ****  *                      key size and mode.
 365:C:/Users/Yushev/git/wpcqi-optiga-trust-charge/optiga/externals/mbedtls/include/mbedtls\cipher.h ****  *
 366:C:/Users/Yushev/git/wpcqi-optiga-trust-charge/optiga/externals/mbedtls/include/mbedtls\cipher.h ****  * \param cipher_id     The ID of the cipher to search for. For example,
 367:C:/Users/Yushev/git/wpcqi-optiga-trust-charge/optiga/externals/mbedtls/include/mbedtls\cipher.h ****  *                      #MBEDTLS_CIPHER_ID_AES.
 368:C:/Users/Yushev/git/wpcqi-optiga-trust-charge/optiga/externals/mbedtls/include/mbedtls\cipher.h ****  * \param key_bitlen    The length of the key in bits.
 369:C:/Users/Yushev/git/wpcqi-optiga-trust-charge/optiga/externals/mbedtls/include/mbedtls\cipher.h ****  * \param mode          The cipher mode. For example, #MBEDTLS_MODE_CBC.
 370:C:/Users/Yushev/git/wpcqi-optiga-trust-charge/optiga/externals/mbedtls/include/mbedtls\cipher.h ****  *
 371:C:/Users/Yushev/git/wpcqi-optiga-trust-charge/optiga/externals/mbedtls/include/mbedtls\cipher.h ****  * \return              The cipher information structure associated with the
 372:C:/Users/Yushev/git/wpcqi-optiga-trust-charge/optiga/externals/mbedtls/include/mbedtls\cipher.h ****  *                      given \p cipher_id.
 373:C:/Users/Yushev/git/wpcqi-optiga-trust-charge/optiga/externals/mbedtls/include/mbedtls\cipher.h ****  * \return              \c NULL if the associated cipher information is not found.
 374:C:/Users/Yushev/git/wpcqi-optiga-trust-charge/optiga/externals/mbedtls/include/mbedtls\cipher.h ****  */
 375:C:/Users/Yushev/git/wpcqi-optiga-trust-charge/optiga/externals/mbedtls/include/mbedtls\cipher.h **** const mbedtls_cipher_info_t *mbedtls_cipher_info_from_values( const mbedtls_cipher_id_t cipher_id,
 376:C:/Users/Yushev/git/wpcqi-optiga-trust-charge/optiga/externals/mbedtls/include/mbedtls\cipher.h ****                                               int key_bitlen,
 377:C:/Users/Yushev/git/wpcqi-optiga-trust-charge/optiga/externals/mbedtls/include/mbedtls\cipher.h ****                                               const mbedtls_cipher_mode_t mode );
 378:C:/Users/Yushev/git/wpcqi-optiga-trust-charge/optiga/externals/mbedtls/include/mbedtls\cipher.h **** 
 379:C:/Users/Yushev/git/wpcqi-optiga-trust-charge/optiga/externals/mbedtls/include/mbedtls\cipher.h **** /**
 380:C:/Users/Yushev/git/wpcqi-optiga-trust-charge/optiga/externals/mbedtls/include/mbedtls\cipher.h ****  * \brief               This function initializes a \p cipher_context as NONE.
 381:C:/Users/Yushev/git/wpcqi-optiga-trust-charge/optiga/externals/mbedtls/include/mbedtls\cipher.h ****  *
 382:C:/Users/Yushev/git/wpcqi-optiga-trust-charge/optiga/externals/mbedtls/include/mbedtls\cipher.h ****  * \param ctx           The context to be initialized. This must not be \c NULL.
 383:C:/Users/Yushev/git/wpcqi-optiga-trust-charge/optiga/externals/mbedtls/include/mbedtls\cipher.h ****  */
 384:C:/Users/Yushev/git/wpcqi-optiga-trust-charge/optiga/externals/mbedtls/include/mbedtls\cipher.h **** void mbedtls_cipher_init( mbedtls_cipher_context_t *ctx );
 385:C:/Users/Yushev/git/wpcqi-optiga-trust-charge/optiga/externals/mbedtls/include/mbedtls\cipher.h **** 
 386:C:/Users/Yushev/git/wpcqi-optiga-trust-charge/optiga/externals/mbedtls/include/mbedtls\cipher.h **** /**
 387:C:/Users/Yushev/git/wpcqi-optiga-trust-charge/optiga/externals/mbedtls/include/mbedtls\cipher.h ****  * \brief               This function frees and clears the cipher-specific
 388:C:/Users/Yushev/git/wpcqi-optiga-trust-charge/optiga/externals/mbedtls/include/mbedtls\cipher.h ****  *                      context of \p ctx. Freeing \p ctx itself remains the
 389:C:/Users/Yushev/git/wpcqi-optiga-trust-charge/optiga/externals/mbedtls/include/mbedtls\cipher.h ****  *                      responsibility of the caller.
 390:C:/Users/Yushev/git/wpcqi-optiga-trust-charge/optiga/externals/mbedtls/include/mbedtls\cipher.h ****  *
 391:C:/Users/Yushev/git/wpcqi-optiga-trust-charge/optiga/externals/mbedtls/include/mbedtls\cipher.h ****  * \param ctx           The context to be freed. If this is \c NULL, the
 392:C:/Users/Yushev/git/wpcqi-optiga-trust-charge/optiga/externals/mbedtls/include/mbedtls\cipher.h ****  *                      function has no effect, otherwise this must point to an
 393:C:/Users/Yushev/git/wpcqi-optiga-trust-charge/optiga/externals/mbedtls/include/mbedtls\cipher.h ****  *                      initialized context.
 394:C:/Users/Yushev/git/wpcqi-optiga-trust-charge/optiga/externals/mbedtls/include/mbedtls\cipher.h ****  */
 395:C:/Users/Yushev/git/wpcqi-optiga-trust-charge/optiga/externals/mbedtls/include/mbedtls\cipher.h **** void mbedtls_cipher_free( mbedtls_cipher_context_t *ctx );
 396:C:/Users/Yushev/git/wpcqi-optiga-trust-charge/optiga/externals/mbedtls/include/mbedtls\cipher.h **** 
 397:C:/Users/Yushev/git/wpcqi-optiga-trust-charge/optiga/externals/mbedtls/include/mbedtls\cipher.h **** 
 398:C:/Users/Yushev/git/wpcqi-optiga-trust-charge/optiga/externals/mbedtls/include/mbedtls\cipher.h **** /**
 399:C:/Users/Yushev/git/wpcqi-optiga-trust-charge/optiga/externals/mbedtls/include/mbedtls\cipher.h ****  * \brief               This function initializes and fills the cipher-context
 400:C:/Users/Yushev/git/wpcqi-optiga-trust-charge/optiga/externals/mbedtls/include/mbedtls\cipher.h ****  *                      structure with the appropriate values. It also clears
 401:C:/Users/Yushev/git/wpcqi-optiga-trust-charge/optiga/externals/mbedtls/include/mbedtls\cipher.h ****  *                      the structure.
 402:C:/Users/Yushev/git/wpcqi-optiga-trust-charge/optiga/externals/mbedtls/include/mbedtls\cipher.h ****  *
 403:C:/Users/Yushev/git/wpcqi-optiga-trust-charge/optiga/externals/mbedtls/include/mbedtls\cipher.h ****  * \param ctx           The context to initialize. This must be initialized.
 404:C:/Users/Yushev/git/wpcqi-optiga-trust-charge/optiga/externals/mbedtls/include/mbedtls\cipher.h ****  * \param cipher_info   The cipher to use.
 405:C:/Users/Yushev/git/wpcqi-optiga-trust-charge/optiga/externals/mbedtls/include/mbedtls\cipher.h ****  *
 406:C:/Users/Yushev/git/wpcqi-optiga-trust-charge/optiga/externals/mbedtls/include/mbedtls\cipher.h ****  * \return              \c 0 on success.
 407:C:/Users/Yushev/git/wpcqi-optiga-trust-charge/optiga/externals/mbedtls/include/mbedtls\cipher.h ****  * \return              #MBEDTLS_ERR_CIPHER_BAD_INPUT_DATA on
 408:C:/Users/Yushev/git/wpcqi-optiga-trust-charge/optiga/externals/mbedtls/include/mbedtls\cipher.h ****  *                      parameter-verification failure.
 409:C:/Users/Yushev/git/wpcqi-optiga-trust-charge/optiga/externals/mbedtls/include/mbedtls\cipher.h ****  * \return              #MBEDTLS_ERR_CIPHER_ALLOC_FAILED if allocation of the
 410:C:/Users/Yushev/git/wpcqi-optiga-trust-charge/optiga/externals/mbedtls/include/mbedtls\cipher.h ****  *                      cipher-specific context fails.
 411:C:/Users/Yushev/git/wpcqi-optiga-trust-charge/optiga/externals/mbedtls/include/mbedtls\cipher.h ****  *
 412:C:/Users/Yushev/git/wpcqi-optiga-trust-charge/optiga/externals/mbedtls/include/mbedtls\cipher.h ****  * \internal Currently, the function also clears the structure.
 413:C:/Users/Yushev/git/wpcqi-optiga-trust-charge/optiga/externals/mbedtls/include/mbedtls\cipher.h ****  * In future versions, the caller will be required to call
 414:C:/Users/Yushev/git/wpcqi-optiga-trust-charge/optiga/externals/mbedtls/include/mbedtls\cipher.h ****  * mbedtls_cipher_init() on the structure first.
 415:C:/Users/Yushev/git/wpcqi-optiga-trust-charge/optiga/externals/mbedtls/include/mbedtls\cipher.h ****  */
 416:C:/Users/Yushev/git/wpcqi-optiga-trust-charge/optiga/externals/mbedtls/include/mbedtls\cipher.h **** int mbedtls_cipher_setup( mbedtls_cipher_context_t *ctx,
 417:C:/Users/Yushev/git/wpcqi-optiga-trust-charge/optiga/externals/mbedtls/include/mbedtls\cipher.h ****                           const mbedtls_cipher_info_t *cipher_info );
 418:C:/Users/Yushev/git/wpcqi-optiga-trust-charge/optiga/externals/mbedtls/include/mbedtls\cipher.h **** 
 419:C:/Users/Yushev/git/wpcqi-optiga-trust-charge/optiga/externals/mbedtls/include/mbedtls\cipher.h **** /**
 420:C:/Users/Yushev/git/wpcqi-optiga-trust-charge/optiga/externals/mbedtls/include/mbedtls\cipher.h ****  * \brief        This function returns the block size of the given cipher.
 421:C:/Users/Yushev/git/wpcqi-optiga-trust-charge/optiga/externals/mbedtls/include/mbedtls\cipher.h ****  *
 422:C:/Users/Yushev/git/wpcqi-optiga-trust-charge/optiga/externals/mbedtls/include/mbedtls\cipher.h ****  * \param ctx    The context of the cipher. This must be initialized.
 423:C:/Users/Yushev/git/wpcqi-optiga-trust-charge/optiga/externals/mbedtls/include/mbedtls\cipher.h ****  *
 424:C:/Users/Yushev/git/wpcqi-optiga-trust-charge/optiga/externals/mbedtls/include/mbedtls\cipher.h ****  * \return       The block size of the underlying cipher.
 425:C:/Users/Yushev/git/wpcqi-optiga-trust-charge/optiga/externals/mbedtls/include/mbedtls\cipher.h ****  * \return       \c 0 if \p ctx has not been initialized.
 426:C:/Users/Yushev/git/wpcqi-optiga-trust-charge/optiga/externals/mbedtls/include/mbedtls\cipher.h ****  */
 427:C:/Users/Yushev/git/wpcqi-optiga-trust-charge/optiga/externals/mbedtls/include/mbedtls\cipher.h **** static inline unsigned int mbedtls_cipher_get_block_size(
 428:C:/Users/Yushev/git/wpcqi-optiga-trust-charge/optiga/externals/mbedtls/include/mbedtls\cipher.h ****     const mbedtls_cipher_context_t *ctx )
 429:C:/Users/Yushev/git/wpcqi-optiga-trust-charge/optiga/externals/mbedtls/include/mbedtls\cipher.h **** {
  27              	 .loc 1 429 0
  28              	 .cfi_startproc
  29              	 
  30              	 
  31              	 
  32 0000 80B4     	 push {r7}
  33              	.LCFI0:
  34              	 .cfi_def_cfa_offset 4
  35              	 .cfi_offset 7,-4
  36 0002 83B0     	 sub sp,sp,#12
  37              	.LCFI1:
  38              	 .cfi_def_cfa_offset 16
  39 0004 00AF     	 add r7,sp,#0
  40              	.LCFI2:
  41              	 .cfi_def_cfa_register 7
  42 0006 7860     	 str r0,[r7,#4]
 430:C:/Users/Yushev/git/wpcqi-optiga-trust-charge/optiga/externals/mbedtls/include/mbedtls\cipher.h ****     MBEDTLS_INTERNAL_VALIDATE_RET( ctx != NULL, 0 );
 431:C:/Users/Yushev/git/wpcqi-optiga-trust-charge/optiga/externals/mbedtls/include/mbedtls\cipher.h ****     if( ctx->cipher_info == NULL )
  43              	 .loc 1 431 0
  44 0008 7B68     	 ldr r3,[r7,#4]
  45 000a 1B68     	 ldr r3,[r3]
  46 000c 002B     	 cmp r3,#0
  47 000e 01D1     	 bne .L2
 432:C:/Users/Yushev/git/wpcqi-optiga-trust-charge/optiga/externals/mbedtls/include/mbedtls\cipher.h ****         return 0;
  48              	 .loc 1 432 0
  49 0010 0023     	 movs r3,#0
  50 0012 02E0     	 b .L3
  51              	.L2:
 433:C:/Users/Yushev/git/wpcqi-optiga-trust-charge/optiga/externals/mbedtls/include/mbedtls\cipher.h **** 
 434:C:/Users/Yushev/git/wpcqi-optiga-trust-charge/optiga/externals/mbedtls/include/mbedtls\cipher.h ****     return ctx->cipher_info->block_size;
  52              	 .loc 1 434 0
  53 0014 7B68     	 ldr r3,[r7,#4]
  54 0016 1B68     	 ldr r3,[r3]
  55 0018 5B69     	 ldr r3,[r3,#20]
  56              	.L3:
 435:C:/Users/Yushev/git/wpcqi-optiga-trust-charge/optiga/externals/mbedtls/include/mbedtls\cipher.h **** }
  57              	 .loc 1 435 0
  58 001a 1846     	 mov r0,r3
  59 001c 0C37     	 adds r7,r7,#12
  60              	.LCFI3:
  61              	 .cfi_def_cfa_offset 4
  62 001e BD46     	 mov sp,r7
  63              	.LCFI4:
  64              	 .cfi_def_cfa_register 13
  65              	 
  66 0020 5DF8047B 	 ldr r7,[sp],#4
  67              	.LCFI5:
  68              	 .cfi_restore 7
  69              	 .cfi_def_cfa_offset 0
  70 0024 7047     	 bx lr
  71              	 .cfi_endproc
  72              	.LFE0:
  74 0026 00BF     	 .section .bss.supported_init,"aw",%nobits
  75              	 .align 2
  78              	supported_init:
  79 0000 00000000 	 .space 4
  80              	 .section .text.mbedtls_cipher_list,"ax",%progbits
  81              	 .align 2
  82              	 .global mbedtls_cipher_list
  83              	 .thumb
  84              	 .thumb_func
  86              	mbedtls_cipher_list:
  87              	.LFB7:
  88              	 .file 2 "C:/Users/Yushev/git/wpcqi-optiga-trust-charge/optiga/externals/mbedtls/library/cipher.c"
   1:C:/Users/Yushev/git/wpcqi-optiga-trust-charge/optiga/externals/mbedtls/library\cipher.c **** /**
   2:C:/Users/Yushev/git/wpcqi-optiga-trust-charge/optiga/externals/mbedtls/library\cipher.c ****  * \file cipher.c
   3:C:/Users/Yushev/git/wpcqi-optiga-trust-charge/optiga/externals/mbedtls/library\cipher.c ****  *
   4:C:/Users/Yushev/git/wpcqi-optiga-trust-charge/optiga/externals/mbedtls/library\cipher.c ****  * \brief Generic cipher wrapper for mbed TLS
   5:C:/Users/Yushev/git/wpcqi-optiga-trust-charge/optiga/externals/mbedtls/library\cipher.c ****  *
   6:C:/Users/Yushev/git/wpcqi-optiga-trust-charge/optiga/externals/mbedtls/library\cipher.c ****  * \author Adriaan de Jong <dejong@fox-it.com>
   7:C:/Users/Yushev/git/wpcqi-optiga-trust-charge/optiga/externals/mbedtls/library\cipher.c ****  *
   8:C:/Users/Yushev/git/wpcqi-optiga-trust-charge/optiga/externals/mbedtls/library\cipher.c ****  *  Copyright (C) 2006-2015, ARM Limited, All Rights Reserved
   9:C:/Users/Yushev/git/wpcqi-optiga-trust-charge/optiga/externals/mbedtls/library\cipher.c ****  *  SPDX-License-Identifier: Apache-2.0
  10:C:/Users/Yushev/git/wpcqi-optiga-trust-charge/optiga/externals/mbedtls/library\cipher.c ****  *
  11:C:/Users/Yushev/git/wpcqi-optiga-trust-charge/optiga/externals/mbedtls/library\cipher.c ****  *  Licensed under the Apache License, Version 2.0 (the "License"); you may
  12:C:/Users/Yushev/git/wpcqi-optiga-trust-charge/optiga/externals/mbedtls/library\cipher.c ****  *  not use this file except in compliance with the License.
  13:C:/Users/Yushev/git/wpcqi-optiga-trust-charge/optiga/externals/mbedtls/library\cipher.c ****  *  You may obtain a copy of the License at
  14:C:/Users/Yushev/git/wpcqi-optiga-trust-charge/optiga/externals/mbedtls/library\cipher.c ****  *
  15:C:/Users/Yushev/git/wpcqi-optiga-trust-charge/optiga/externals/mbedtls/library\cipher.c ****  *  http://www.apache.org/licenses/LICENSE-2.0
  16:C:/Users/Yushev/git/wpcqi-optiga-trust-charge/optiga/externals/mbedtls/library\cipher.c ****  *
  17:C:/Users/Yushev/git/wpcqi-optiga-trust-charge/optiga/externals/mbedtls/library\cipher.c ****  *  Unless required by applicable law or agreed to in writing, software
  18:C:/Users/Yushev/git/wpcqi-optiga-trust-charge/optiga/externals/mbedtls/library\cipher.c ****  *  distributed under the License is distributed on an "AS IS" BASIS, WITHOUT
  19:C:/Users/Yushev/git/wpcqi-optiga-trust-charge/optiga/externals/mbedtls/library\cipher.c ****  *  WARRANTIES OR CONDITIONS OF ANY KIND, either express or implied.
  20:C:/Users/Yushev/git/wpcqi-optiga-trust-charge/optiga/externals/mbedtls/library\cipher.c ****  *  See the License for the specific language governing permissions and
  21:C:/Users/Yushev/git/wpcqi-optiga-trust-charge/optiga/externals/mbedtls/library\cipher.c ****  *  limitations under the License.
  22:C:/Users/Yushev/git/wpcqi-optiga-trust-charge/optiga/externals/mbedtls/library\cipher.c ****  *
  23:C:/Users/Yushev/git/wpcqi-optiga-trust-charge/optiga/externals/mbedtls/library\cipher.c ****  *  This file is part of mbed TLS (https://tls.mbed.org)
  24:C:/Users/Yushev/git/wpcqi-optiga-trust-charge/optiga/externals/mbedtls/library\cipher.c ****  */
  25:C:/Users/Yushev/git/wpcqi-optiga-trust-charge/optiga/externals/mbedtls/library\cipher.c **** 
  26:C:/Users/Yushev/git/wpcqi-optiga-trust-charge/optiga/externals/mbedtls/library\cipher.c **** #if !defined(MBEDTLS_CONFIG_FILE)
  27:C:/Users/Yushev/git/wpcqi-optiga-trust-charge/optiga/externals/mbedtls/library\cipher.c **** #include "mbedtls/config.h"
  28:C:/Users/Yushev/git/wpcqi-optiga-trust-charge/optiga/externals/mbedtls/library\cipher.c **** #else
  29:C:/Users/Yushev/git/wpcqi-optiga-trust-charge/optiga/externals/mbedtls/library\cipher.c **** #include MBEDTLS_CONFIG_FILE
  30:C:/Users/Yushev/git/wpcqi-optiga-trust-charge/optiga/externals/mbedtls/library\cipher.c **** #endif
  31:C:/Users/Yushev/git/wpcqi-optiga-trust-charge/optiga/externals/mbedtls/library\cipher.c **** 
  32:C:/Users/Yushev/git/wpcqi-optiga-trust-charge/optiga/externals/mbedtls/library\cipher.c **** #if defined(MBEDTLS_CIPHER_C)
  33:C:/Users/Yushev/git/wpcqi-optiga-trust-charge/optiga/externals/mbedtls/library\cipher.c **** 
  34:C:/Users/Yushev/git/wpcqi-optiga-trust-charge/optiga/externals/mbedtls/library\cipher.c **** #include "mbedtls/cipher.h"
  35:C:/Users/Yushev/git/wpcqi-optiga-trust-charge/optiga/externals/mbedtls/library\cipher.c **** #include "mbedtls/cipher_internal.h"
  36:C:/Users/Yushev/git/wpcqi-optiga-trust-charge/optiga/externals/mbedtls/library\cipher.c **** #include "mbedtls/platform_util.h"
  37:C:/Users/Yushev/git/wpcqi-optiga-trust-charge/optiga/externals/mbedtls/library\cipher.c **** 
  38:C:/Users/Yushev/git/wpcqi-optiga-trust-charge/optiga/externals/mbedtls/library\cipher.c **** #include <stdlib.h>
  39:C:/Users/Yushev/git/wpcqi-optiga-trust-charge/optiga/externals/mbedtls/library\cipher.c **** #include <string.h>
  40:C:/Users/Yushev/git/wpcqi-optiga-trust-charge/optiga/externals/mbedtls/library\cipher.c **** 
  41:C:/Users/Yushev/git/wpcqi-optiga-trust-charge/optiga/externals/mbedtls/library\cipher.c **** #if defined(MBEDTLS_CHACHAPOLY_C)
  42:C:/Users/Yushev/git/wpcqi-optiga-trust-charge/optiga/externals/mbedtls/library\cipher.c **** #include "mbedtls/chachapoly.h"
  43:C:/Users/Yushev/git/wpcqi-optiga-trust-charge/optiga/externals/mbedtls/library\cipher.c **** #endif
  44:C:/Users/Yushev/git/wpcqi-optiga-trust-charge/optiga/externals/mbedtls/library\cipher.c **** 
  45:C:/Users/Yushev/git/wpcqi-optiga-trust-charge/optiga/externals/mbedtls/library\cipher.c **** #if defined(MBEDTLS_GCM_C)
  46:C:/Users/Yushev/git/wpcqi-optiga-trust-charge/optiga/externals/mbedtls/library\cipher.c **** #include "mbedtls/gcm.h"
  47:C:/Users/Yushev/git/wpcqi-optiga-trust-charge/optiga/externals/mbedtls/library\cipher.c **** #endif
  48:C:/Users/Yushev/git/wpcqi-optiga-trust-charge/optiga/externals/mbedtls/library\cipher.c **** 
  49:C:/Users/Yushev/git/wpcqi-optiga-trust-charge/optiga/externals/mbedtls/library\cipher.c **** #if defined(MBEDTLS_CCM_C)
  50:C:/Users/Yushev/git/wpcqi-optiga-trust-charge/optiga/externals/mbedtls/library\cipher.c **** #include "mbedtls/ccm.h"
  51:C:/Users/Yushev/git/wpcqi-optiga-trust-charge/optiga/externals/mbedtls/library\cipher.c **** #endif
  52:C:/Users/Yushev/git/wpcqi-optiga-trust-charge/optiga/externals/mbedtls/library\cipher.c **** 
  53:C:/Users/Yushev/git/wpcqi-optiga-trust-charge/optiga/externals/mbedtls/library\cipher.c **** #if defined(MBEDTLS_CHACHA20_C)
  54:C:/Users/Yushev/git/wpcqi-optiga-trust-charge/optiga/externals/mbedtls/library\cipher.c **** #include "mbedtls/chacha20.h"
  55:C:/Users/Yushev/git/wpcqi-optiga-trust-charge/optiga/externals/mbedtls/library\cipher.c **** #endif
  56:C:/Users/Yushev/git/wpcqi-optiga-trust-charge/optiga/externals/mbedtls/library\cipher.c **** 
  57:C:/Users/Yushev/git/wpcqi-optiga-trust-charge/optiga/externals/mbedtls/library\cipher.c **** #if defined(MBEDTLS_CMAC_C)
  58:C:/Users/Yushev/git/wpcqi-optiga-trust-charge/optiga/externals/mbedtls/library\cipher.c **** #include "mbedtls/cmac.h"
  59:C:/Users/Yushev/git/wpcqi-optiga-trust-charge/optiga/externals/mbedtls/library\cipher.c **** #endif
  60:C:/Users/Yushev/git/wpcqi-optiga-trust-charge/optiga/externals/mbedtls/library\cipher.c **** 
  61:C:/Users/Yushev/git/wpcqi-optiga-trust-charge/optiga/externals/mbedtls/library\cipher.c **** #if defined(MBEDTLS_PLATFORM_C)
  62:C:/Users/Yushev/git/wpcqi-optiga-trust-charge/optiga/externals/mbedtls/library\cipher.c **** #include "mbedtls/platform.h"
  63:C:/Users/Yushev/git/wpcqi-optiga-trust-charge/optiga/externals/mbedtls/library\cipher.c **** #else
  64:C:/Users/Yushev/git/wpcqi-optiga-trust-charge/optiga/externals/mbedtls/library\cipher.c **** #define mbedtls_calloc calloc
  65:C:/Users/Yushev/git/wpcqi-optiga-trust-charge/optiga/externals/mbedtls/library\cipher.c **** #define mbedtls_free   free
  66:C:/Users/Yushev/git/wpcqi-optiga-trust-charge/optiga/externals/mbedtls/library\cipher.c **** #endif
  67:C:/Users/Yushev/git/wpcqi-optiga-trust-charge/optiga/externals/mbedtls/library\cipher.c **** 
  68:C:/Users/Yushev/git/wpcqi-optiga-trust-charge/optiga/externals/mbedtls/library\cipher.c **** #define CIPHER_VALIDATE_RET( cond )    \
  69:C:/Users/Yushev/git/wpcqi-optiga-trust-charge/optiga/externals/mbedtls/library\cipher.c ****     MBEDTLS_INTERNAL_VALIDATE_RET( cond, MBEDTLS_ERR_CIPHER_BAD_INPUT_DATA )
  70:C:/Users/Yushev/git/wpcqi-optiga-trust-charge/optiga/externals/mbedtls/library\cipher.c **** #define CIPHER_VALIDATE( cond )        \
  71:C:/Users/Yushev/git/wpcqi-optiga-trust-charge/optiga/externals/mbedtls/library\cipher.c ****     MBEDTLS_INTERNAL_VALIDATE( cond )
  72:C:/Users/Yushev/git/wpcqi-optiga-trust-charge/optiga/externals/mbedtls/library\cipher.c **** 
  73:C:/Users/Yushev/git/wpcqi-optiga-trust-charge/optiga/externals/mbedtls/library\cipher.c **** #if defined(MBEDTLS_GCM_C) || defined(MBEDTLS_CHACHAPOLY_C)
  74:C:/Users/Yushev/git/wpcqi-optiga-trust-charge/optiga/externals/mbedtls/library\cipher.c **** /* Compare the contents of two buffers in constant time.
  75:C:/Users/Yushev/git/wpcqi-optiga-trust-charge/optiga/externals/mbedtls/library\cipher.c ****  * Returns 0 if the contents are bitwise identical, otherwise returns
  76:C:/Users/Yushev/git/wpcqi-optiga-trust-charge/optiga/externals/mbedtls/library\cipher.c ****  * a non-zero value.
  77:C:/Users/Yushev/git/wpcqi-optiga-trust-charge/optiga/externals/mbedtls/library\cipher.c ****  * This is currently only used by GCM and ChaCha20+Poly1305.
  78:C:/Users/Yushev/git/wpcqi-optiga-trust-charge/optiga/externals/mbedtls/library\cipher.c ****  */
  79:C:/Users/Yushev/git/wpcqi-optiga-trust-charge/optiga/externals/mbedtls/library\cipher.c **** static int mbedtls_constant_time_memcmp( const void *v1, const void *v2, size_t len )
  80:C:/Users/Yushev/git/wpcqi-optiga-trust-charge/optiga/externals/mbedtls/library\cipher.c **** {
  81:C:/Users/Yushev/git/wpcqi-optiga-trust-charge/optiga/externals/mbedtls/library\cipher.c ****     const unsigned char *p1 = (const unsigned char*) v1;
  82:C:/Users/Yushev/git/wpcqi-optiga-trust-charge/optiga/externals/mbedtls/library\cipher.c ****     const unsigned char *p2 = (const unsigned char*) v2;
  83:C:/Users/Yushev/git/wpcqi-optiga-trust-charge/optiga/externals/mbedtls/library\cipher.c ****     size_t i;
  84:C:/Users/Yushev/git/wpcqi-optiga-trust-charge/optiga/externals/mbedtls/library\cipher.c ****     unsigned char diff;
  85:C:/Users/Yushev/git/wpcqi-optiga-trust-charge/optiga/externals/mbedtls/library\cipher.c **** 
  86:C:/Users/Yushev/git/wpcqi-optiga-trust-charge/optiga/externals/mbedtls/library\cipher.c ****     for( diff = 0, i = 0; i < len; i++ )
  87:C:/Users/Yushev/git/wpcqi-optiga-trust-charge/optiga/externals/mbedtls/library\cipher.c ****         diff |= p1[i] ^ p2[i];
  88:C:/Users/Yushev/git/wpcqi-optiga-trust-charge/optiga/externals/mbedtls/library\cipher.c **** 
  89:C:/Users/Yushev/git/wpcqi-optiga-trust-charge/optiga/externals/mbedtls/library\cipher.c ****     return( (int)diff );
  90:C:/Users/Yushev/git/wpcqi-optiga-trust-charge/optiga/externals/mbedtls/library\cipher.c **** }
  91:C:/Users/Yushev/git/wpcqi-optiga-trust-charge/optiga/externals/mbedtls/library\cipher.c **** #endif /* MBEDTLS_GCM_C || MBEDTLS_CHACHAPOLY_C */
  92:C:/Users/Yushev/git/wpcqi-optiga-trust-charge/optiga/externals/mbedtls/library\cipher.c **** 
  93:C:/Users/Yushev/git/wpcqi-optiga-trust-charge/optiga/externals/mbedtls/library\cipher.c **** static int supported_init = 0;
  94:C:/Users/Yushev/git/wpcqi-optiga-trust-charge/optiga/externals/mbedtls/library\cipher.c **** 
  95:C:/Users/Yushev/git/wpcqi-optiga-trust-charge/optiga/externals/mbedtls/library\cipher.c **** const int *mbedtls_cipher_list( void )
  96:C:/Users/Yushev/git/wpcqi-optiga-trust-charge/optiga/externals/mbedtls/library\cipher.c **** {
  89              	 .loc 2 96 0
  90              	 .cfi_startproc
  91              	 
  92              	 
  93              	 
  94 0000 80B4     	 push {r7}
  95              	.LCFI6:
  96              	 .cfi_def_cfa_offset 4
  97              	 .cfi_offset 7,-4
  98 0002 83B0     	 sub sp,sp,#12
  99              	.LCFI7:
 100              	 .cfi_def_cfa_offset 16
 101 0004 00AF     	 add r7,sp,#0
 102              	.LCFI8:
 103              	 .cfi_def_cfa_register 7
  97:C:/Users/Yushev/git/wpcqi-optiga-trust-charge/optiga/externals/mbedtls/library\cipher.c ****     const mbedtls_cipher_definition_t *def;
  98:C:/Users/Yushev/git/wpcqi-optiga-trust-charge/optiga/externals/mbedtls/library\cipher.c ****     int *type;
  99:C:/Users/Yushev/git/wpcqi-optiga-trust-charge/optiga/externals/mbedtls/library\cipher.c **** 
 100:C:/Users/Yushev/git/wpcqi-optiga-trust-charge/optiga/externals/mbedtls/library\cipher.c ****     if( ! supported_init )
 104              	 .loc 2 100 0
 105 0006 114B     	 ldr r3,.L9
 106 0008 1B68     	 ldr r3,[r3]
 107 000a 002B     	 cmp r3,#0
 108 000c 17D1     	 bne .L5
 101:C:/Users/Yushev/git/wpcqi-optiga-trust-charge/optiga/externals/mbedtls/library\cipher.c ****     {
 102:C:/Users/Yushev/git/wpcqi-optiga-trust-charge/optiga/externals/mbedtls/library\cipher.c ****         def = mbedtls_cipher_definitions;
 109              	 .loc 2 102 0
 110 000e 104B     	 ldr r3,.L9+4
 111 0010 7B60     	 str r3,[r7,#4]
 103:C:/Users/Yushev/git/wpcqi-optiga-trust-charge/optiga/externals/mbedtls/library\cipher.c ****         type = mbedtls_cipher_supported;
 112              	 .loc 2 103 0
 113 0012 104B     	 ldr r3,.L9+8
 114 0014 3B60     	 str r3,[r7]
 104:C:/Users/Yushev/git/wpcqi-optiga-trust-charge/optiga/externals/mbedtls/library\cipher.c **** 
 105:C:/Users/Yushev/git/wpcqi-optiga-trust-charge/optiga/externals/mbedtls/library\cipher.c ****         while( def->type != 0 )
 115              	 .loc 2 105 0
 116 0016 08E0     	 b .L6
 117              	.L7:
 106:C:/Users/Yushev/git/wpcqi-optiga-trust-charge/optiga/externals/mbedtls/library\cipher.c ****             *type++ = (*def++).type;
 118              	 .loc 2 106 0
 119 0018 3B68     	 ldr r3,[r7]
 120 001a 1A1D     	 adds r2,r3,#4
 121 001c 3A60     	 str r2,[r7]
 122 001e 7A68     	 ldr r2,[r7,#4]
 123 0020 02F10801 	 add r1,r2,#8
 124 0024 7960     	 str r1,[r7,#4]
 125 0026 1278     	 ldrb r2,[r2]
 126 0028 1A60     	 str r2,[r3]
 127              	.L6:
 105:C:/Users/Yushev/git/wpcqi-optiga-trust-charge/optiga/externals/mbedtls/library\cipher.c ****             *type++ = (*def++).type;
 128              	 .loc 2 105 0
 129 002a 7B68     	 ldr r3,[r7,#4]
 130 002c 1B78     	 ldrb r3,[r3]
 131 002e 002B     	 cmp r3,#0
 132 0030 F2D1     	 bne .L7
 107:C:/Users/Yushev/git/wpcqi-optiga-trust-charge/optiga/externals/mbedtls/library\cipher.c **** 
 108:C:/Users/Yushev/git/wpcqi-optiga-trust-charge/optiga/externals/mbedtls/library\cipher.c ****         *type = 0;
 133              	 .loc 2 108 0
 134 0032 3B68     	 ldr r3,[r7]
 135 0034 0022     	 movs r2,#0
 136 0036 1A60     	 str r2,[r3]
 109:C:/Users/Yushev/git/wpcqi-optiga-trust-charge/optiga/externals/mbedtls/library\cipher.c **** 
 110:C:/Users/Yushev/git/wpcqi-optiga-trust-charge/optiga/externals/mbedtls/library\cipher.c ****         supported_init = 1;
 137              	 .loc 2 110 0
 138 0038 044B     	 ldr r3,.L9
 139 003a 0122     	 movs r2,#1
 140 003c 1A60     	 str r2,[r3]
 141              	.L5:
 111:C:/Users/Yushev/git/wpcqi-optiga-trust-charge/optiga/externals/mbedtls/library\cipher.c ****     }
 112:C:/Users/Yushev/git/wpcqi-optiga-trust-charge/optiga/externals/mbedtls/library\cipher.c **** 
 113:C:/Users/Yushev/git/wpcqi-optiga-trust-charge/optiga/externals/mbedtls/library\cipher.c ****     return( mbedtls_cipher_supported );
 142              	 .loc 2 113 0
 143 003e 054B     	 ldr r3,.L9+8
 114:C:/Users/Yushev/git/wpcqi-optiga-trust-charge/optiga/externals/mbedtls/library\cipher.c **** }
 144              	 .loc 2 114 0
 145 0040 1846     	 mov r0,r3
 146 0042 0C37     	 adds r7,r7,#12
 147              	.LCFI9:
 148              	 .cfi_def_cfa_offset 4
 149 0044 BD46     	 mov sp,r7
 150              	.LCFI10:
 151              	 .cfi_def_cfa_register 13
 152              	 
 153 0046 5DF8047B 	 ldr r7,[sp],#4
 154              	.LCFI11:
 155              	 .cfi_restore 7
 156              	 .cfi_def_cfa_offset 0
 157 004a 7047     	 bx lr
 158              	.L10:
 159              	 .align 2
 160              	.L9:
 161 004c 00000000 	 .word supported_init
 162 0050 00000000 	 .word mbedtls_cipher_definitions
 163 0054 00000000 	 .word mbedtls_cipher_supported
 164              	 .cfi_endproc
 165              	.LFE7:
 167              	 .section .text.mbedtls_cipher_info_from_type,"ax",%progbits
 168              	 .align 2
 169              	 .global mbedtls_cipher_info_from_type
 170              	 .thumb
 171              	 .thumb_func
 173              	mbedtls_cipher_info_from_type:
 174              	.LFB8:
 115:C:/Users/Yushev/git/wpcqi-optiga-trust-charge/optiga/externals/mbedtls/library\cipher.c **** 
 116:C:/Users/Yushev/git/wpcqi-optiga-trust-charge/optiga/externals/mbedtls/library\cipher.c **** const mbedtls_cipher_info_t *mbedtls_cipher_info_from_type( const mbedtls_cipher_type_t cipher_type
 117:C:/Users/Yushev/git/wpcqi-optiga-trust-charge/optiga/externals/mbedtls/library\cipher.c **** {
 175              	 .loc 2 117 0
 176              	 .cfi_startproc
 177              	 
 178              	 
 179              	 
 180 0000 80B4     	 push {r7}
 181              	.LCFI12:
 182              	 .cfi_def_cfa_offset 4
 183              	 .cfi_offset 7,-4
 184 0002 85B0     	 sub sp,sp,#20
 185              	.LCFI13:
 186              	 .cfi_def_cfa_offset 24
 187 0004 00AF     	 add r7,sp,#0
 188              	.LCFI14:
 189              	 .cfi_def_cfa_register 7
 190 0006 0346     	 mov r3,r0
 191 0008 FB71     	 strb r3,[r7,#7]
 118:C:/Users/Yushev/git/wpcqi-optiga-trust-charge/optiga/externals/mbedtls/library\cipher.c ****     const mbedtls_cipher_definition_t *def;
 119:C:/Users/Yushev/git/wpcqi-optiga-trust-charge/optiga/externals/mbedtls/library\cipher.c **** 
 120:C:/Users/Yushev/git/wpcqi-optiga-trust-charge/optiga/externals/mbedtls/library\cipher.c ****     for( def = mbedtls_cipher_definitions; def->info != NULL; def++ )
 192              	 .loc 2 120 0
 193 000a 0C4B     	 ldr r3,.L16
 194 000c FB60     	 str r3,[r7,#12]
 195 000e 0AE0     	 b .L12
 196              	.L15:
 121:C:/Users/Yushev/git/wpcqi-optiga-trust-charge/optiga/externals/mbedtls/library\cipher.c ****         if( def->type == cipher_type )
 197              	 .loc 2 121 0
 198 0010 FB68     	 ldr r3,[r7,#12]
 199 0012 1B78     	 ldrb r3,[r3]
 200 0014 FA79     	 ldrb r2,[r7,#7]
 201 0016 9A42     	 cmp r2,r3
 202 0018 02D1     	 bne .L13
 122:C:/Users/Yushev/git/wpcqi-optiga-trust-charge/optiga/externals/mbedtls/library\cipher.c ****             return( def->info );
 203              	 .loc 2 122 0
 204 001a FB68     	 ldr r3,[r7,#12]
 205 001c 5B68     	 ldr r3,[r3,#4]
 206 001e 07E0     	 b .L14
 207              	.L13:
 120:C:/Users/Yushev/git/wpcqi-optiga-trust-charge/optiga/externals/mbedtls/library\cipher.c ****         if( def->type == cipher_type )
 208              	 .loc 2 120 0 discriminator 2
 209 0020 FB68     	 ldr r3,[r7,#12]
 210 0022 0833     	 adds r3,r3,#8
 211 0024 FB60     	 str r3,[r7,#12]
 212              	.L12:
 120:C:/Users/Yushev/git/wpcqi-optiga-trust-charge/optiga/externals/mbedtls/library\cipher.c ****         if( def->type == cipher_type )
 213              	 .loc 2 120 0 is_stmt 0 discriminator 1
 214 0026 FB68     	 ldr r3,[r7,#12]
 215 0028 5B68     	 ldr r3,[r3,#4]
 216 002a 002B     	 cmp r3,#0
 217 002c F0D1     	 bne .L15
 123:C:/Users/Yushev/git/wpcqi-optiga-trust-charge/optiga/externals/mbedtls/library\cipher.c **** 
 124:C:/Users/Yushev/git/wpcqi-optiga-trust-charge/optiga/externals/mbedtls/library\cipher.c ****     return( NULL );
 218              	 .loc 2 124 0 is_stmt 1
 219 002e 0023     	 movs r3,#0
 220              	.L14:
 125:C:/Users/Yushev/git/wpcqi-optiga-trust-charge/optiga/externals/mbedtls/library\cipher.c **** }
 221              	 .loc 2 125 0
 222 0030 1846     	 mov r0,r3
 223 0032 1437     	 adds r7,r7,#20
 224              	.LCFI15:
 225              	 .cfi_def_cfa_offset 4
 226 0034 BD46     	 mov sp,r7
 227              	.LCFI16:
 228              	 .cfi_def_cfa_register 13
 229              	 
 230 0036 5DF8047B 	 ldr r7,[sp],#4
 231              	.LCFI17:
 232              	 .cfi_restore 7
 233              	 .cfi_def_cfa_offset 0
 234 003a 7047     	 bx lr
 235              	.L17:
 236              	 .align 2
 237              	.L16:
 238 003c 00000000 	 .word mbedtls_cipher_definitions
 239              	 .cfi_endproc
 240              	.LFE8:
 242              	 .section .text.mbedtls_cipher_info_from_string,"ax",%progbits
 243              	 .align 2
 244              	 .global mbedtls_cipher_info_from_string
 245              	 .thumb
 246              	 .thumb_func
 248              	mbedtls_cipher_info_from_string:
 249              	.LFB9:
 126:C:/Users/Yushev/git/wpcqi-optiga-trust-charge/optiga/externals/mbedtls/library\cipher.c **** 
 127:C:/Users/Yushev/git/wpcqi-optiga-trust-charge/optiga/externals/mbedtls/library\cipher.c **** const mbedtls_cipher_info_t *mbedtls_cipher_info_from_string( const char *cipher_name )
 128:C:/Users/Yushev/git/wpcqi-optiga-trust-charge/optiga/externals/mbedtls/library\cipher.c **** {
 250              	 .loc 2 128 0
 251              	 .cfi_startproc
 252              	 
 253              	 
 254 0000 80B5     	 push {r7,lr}
 255              	.LCFI18:
 256              	 .cfi_def_cfa_offset 8
 257              	 .cfi_offset 7,-8
 258              	 .cfi_offset 14,-4
 259 0002 84B0     	 sub sp,sp,#16
 260              	.LCFI19:
 261              	 .cfi_def_cfa_offset 24
 262 0004 00AF     	 add r7,sp,#0
 263              	.LCFI20:
 264              	 .cfi_def_cfa_register 7
 265 0006 7860     	 str r0,[r7,#4]
 129:C:/Users/Yushev/git/wpcqi-optiga-trust-charge/optiga/externals/mbedtls/library\cipher.c ****     const mbedtls_cipher_definition_t *def;
 130:C:/Users/Yushev/git/wpcqi-optiga-trust-charge/optiga/externals/mbedtls/library\cipher.c **** 
 131:C:/Users/Yushev/git/wpcqi-optiga-trust-charge/optiga/externals/mbedtls/library\cipher.c ****     if( NULL == cipher_name )
 266              	 .loc 2 131 0
 267 0008 7B68     	 ldr r3,[r7,#4]
 268 000a 002B     	 cmp r3,#0
 269 000c 01D1     	 bne .L19
 132:C:/Users/Yushev/git/wpcqi-optiga-trust-charge/optiga/externals/mbedtls/library\cipher.c ****         return( NULL );
 270              	 .loc 2 132 0
 271 000e 0023     	 movs r3,#0
 272 0010 17E0     	 b .L20
 273              	.L19:
 133:C:/Users/Yushev/git/wpcqi-optiga-trust-charge/optiga/externals/mbedtls/library\cipher.c **** 
 134:C:/Users/Yushev/git/wpcqi-optiga-trust-charge/optiga/externals/mbedtls/library\cipher.c ****     for( def = mbedtls_cipher_definitions; def->info != NULL; def++ )
 274              	 .loc 2 134 0
 275 0012 0E4B     	 ldr r3,.L24
 276 0014 FB60     	 str r3,[r7,#12]
 277 0016 0FE0     	 b .L21
 278              	.L23:
 135:C:/Users/Yushev/git/wpcqi-optiga-trust-charge/optiga/externals/mbedtls/library\cipher.c ****         if( !  strcmp( def->info->name, cipher_name ) )
 279              	 .loc 2 135 0
 280 0018 FB68     	 ldr r3,[r7,#12]
 281 001a 5B68     	 ldr r3,[r3,#4]
 282 001c 9B68     	 ldr r3,[r3,#8]
 283 001e 1846     	 mov r0,r3
 284 0020 7968     	 ldr r1,[r7,#4]
 285 0022 FFF7FEFF 	 bl strcmp
 286 0026 0346     	 mov r3,r0
 287 0028 002B     	 cmp r3,#0
 288 002a 02D1     	 bne .L22
 136:C:/Users/Yushev/git/wpcqi-optiga-trust-charge/optiga/externals/mbedtls/library\cipher.c ****             return( def->info );
 289              	 .loc 2 136 0
 290 002c FB68     	 ldr r3,[r7,#12]
 291 002e 5B68     	 ldr r3,[r3,#4]
 292 0030 07E0     	 b .L20
 293              	.L22:
 134:C:/Users/Yushev/git/wpcqi-optiga-trust-charge/optiga/externals/mbedtls/library\cipher.c ****         if( !  strcmp( def->info->name, cipher_name ) )
 294              	 .loc 2 134 0 discriminator 2
 295 0032 FB68     	 ldr r3,[r7,#12]
 296 0034 0833     	 adds r3,r3,#8
 297 0036 FB60     	 str r3,[r7,#12]
 298              	.L21:
 134:C:/Users/Yushev/git/wpcqi-optiga-trust-charge/optiga/externals/mbedtls/library\cipher.c ****         if( !  strcmp( def->info->name, cipher_name ) )
 299              	 .loc 2 134 0 is_stmt 0 discriminator 1
 300 0038 FB68     	 ldr r3,[r7,#12]
 301 003a 5B68     	 ldr r3,[r3,#4]
 302 003c 002B     	 cmp r3,#0
 303 003e EBD1     	 bne .L23
 137:C:/Users/Yushev/git/wpcqi-optiga-trust-charge/optiga/externals/mbedtls/library\cipher.c **** 
 138:C:/Users/Yushev/git/wpcqi-optiga-trust-charge/optiga/externals/mbedtls/library\cipher.c ****     return( NULL );
 304              	 .loc 2 138 0 is_stmt 1
 305 0040 0023     	 movs r3,#0
 306              	.L20:
 139:C:/Users/Yushev/git/wpcqi-optiga-trust-charge/optiga/externals/mbedtls/library\cipher.c **** }
 307              	 .loc 2 139 0
 308 0042 1846     	 mov r0,r3
 309 0044 1037     	 adds r7,r7,#16
 310              	.LCFI21:
 311              	 .cfi_def_cfa_offset 8
 312 0046 BD46     	 mov sp,r7
 313              	.LCFI22:
 314              	 .cfi_def_cfa_register 13
 315              	 
 316 0048 80BD     	 pop {r7,pc}
 317              	.L25:
 318 004a 00BF     	 .align 2
 319              	.L24:
 320 004c 00000000 	 .word mbedtls_cipher_definitions
 321              	 .cfi_endproc
 322              	.LFE9:
 324              	 .section .text.mbedtls_cipher_info_from_values,"ax",%progbits
 325              	 .align 2
 326              	 .global mbedtls_cipher_info_from_values
 327              	 .thumb
 328              	 .thumb_func
 330              	mbedtls_cipher_info_from_values:
 331              	.LFB10:
 140:C:/Users/Yushev/git/wpcqi-optiga-trust-charge/optiga/externals/mbedtls/library\cipher.c **** 
 141:C:/Users/Yushev/git/wpcqi-optiga-trust-charge/optiga/externals/mbedtls/library\cipher.c **** const mbedtls_cipher_info_t *mbedtls_cipher_info_from_values( const mbedtls_cipher_id_t cipher_id,
 142:C:/Users/Yushev/git/wpcqi-optiga-trust-charge/optiga/externals/mbedtls/library\cipher.c ****                                               int key_bitlen,
 143:C:/Users/Yushev/git/wpcqi-optiga-trust-charge/optiga/externals/mbedtls/library\cipher.c ****                                               const mbedtls_cipher_mode_t mode )
 144:C:/Users/Yushev/git/wpcqi-optiga-trust-charge/optiga/externals/mbedtls/library\cipher.c **** {
 332              	 .loc 2 144 0
 333              	 .cfi_startproc
 334              	 
 335              	 
 336              	 
 337 0000 80B4     	 push {r7}
 338              	.LCFI23:
 339              	 .cfi_def_cfa_offset 4
 340              	 .cfi_offset 7,-4
 341 0002 85B0     	 sub sp,sp,#20
 342              	.LCFI24:
 343              	 .cfi_def_cfa_offset 24
 344 0004 00AF     	 add r7,sp,#0
 345              	.LCFI25:
 346              	 .cfi_def_cfa_register 7
 347 0006 0346     	 mov r3,r0
 348 0008 3960     	 str r1,[r7]
 349 000a FB71     	 strb r3,[r7,#7]
 350 000c 1346     	 mov r3,r2
 351 000e BB71     	 strb r3,[r7,#6]
 145:C:/Users/Yushev/git/wpcqi-optiga-trust-charge/optiga/externals/mbedtls/library\cipher.c ****     const mbedtls_cipher_definition_t *def;
 146:C:/Users/Yushev/git/wpcqi-optiga-trust-charge/optiga/externals/mbedtls/library\cipher.c **** 
 147:C:/Users/Yushev/git/wpcqi-optiga-trust-charge/optiga/externals/mbedtls/library\cipher.c ****     for( def = mbedtls_cipher_definitions; def->info != NULL; def++ )
 352              	 .loc 2 147 0
 353 0010 134B     	 ldr r3,.L31
 354 0012 FB60     	 str r3,[r7,#12]
 355 0014 18E0     	 b .L27
 356              	.L30:
 148:C:/Users/Yushev/git/wpcqi-optiga-trust-charge/optiga/externals/mbedtls/library\cipher.c ****         if( def->info->base->cipher == cipher_id &&
 357              	 .loc 2 148 0
 358 0016 FB68     	 ldr r3,[r7,#12]
 359 0018 5B68     	 ldr r3,[r3,#4]
 360 001a 9B69     	 ldr r3,[r3,#24]
 361 001c 1B78     	 ldrb r3,[r3]
 362 001e FA79     	 ldrb r2,[r7,#7]
 363 0020 9A42     	 cmp r2,r3
 364 0022 0ED1     	 bne .L28
 149:C:/Users/Yushev/git/wpcqi-optiga-trust-charge/optiga/externals/mbedtls/library\cipher.c ****             def->info->key_bitlen == (unsigned) key_bitlen &&
 365              	 .loc 2 149 0 discriminator 1
 366 0024 FB68     	 ldr r3,[r7,#12]
 367 0026 5B68     	 ldr r3,[r3,#4]
 368 0028 5A68     	 ldr r2,[r3,#4]
 369 002a 3B68     	 ldr r3,[r7]
 148:C:/Users/Yushev/git/wpcqi-optiga-trust-charge/optiga/externals/mbedtls/library\cipher.c ****         if( def->info->base->cipher == cipher_id &&
 370              	 .loc 2 148 0 discriminator 1
 371 002c 9A42     	 cmp r2,r3
 372 002e 08D1     	 bne .L28
 150:C:/Users/Yushev/git/wpcqi-optiga-trust-charge/optiga/externals/mbedtls/library\cipher.c ****             def->info->mode == mode )
 373              	 .loc 2 150 0
 374 0030 FB68     	 ldr r3,[r7,#12]
 375 0032 5B68     	 ldr r3,[r3,#4]
 376 0034 5B78     	 ldrb r3,[r3,#1]
 149:C:/Users/Yushev/git/wpcqi-optiga-trust-charge/optiga/externals/mbedtls/library\cipher.c ****             def->info->key_bitlen == (unsigned) key_bitlen &&
 377              	 .loc 2 149 0
 378 0036 BA79     	 ldrb r2,[r7,#6]
 379 0038 9A42     	 cmp r2,r3
 380 003a 02D1     	 bne .L28
 151:C:/Users/Yushev/git/wpcqi-optiga-trust-charge/optiga/externals/mbedtls/library\cipher.c ****             return( def->info );
 381              	 .loc 2 151 0
 382 003c FB68     	 ldr r3,[r7,#12]
 383 003e 5B68     	 ldr r3,[r3,#4]
 384 0040 07E0     	 b .L29
 385              	.L28:
 147:C:/Users/Yushev/git/wpcqi-optiga-trust-charge/optiga/externals/mbedtls/library\cipher.c ****         if( def->info->base->cipher == cipher_id &&
 386              	 .loc 2 147 0 discriminator 2
 387 0042 FB68     	 ldr r3,[r7,#12]
 388 0044 0833     	 adds r3,r3,#8
 389 0046 FB60     	 str r3,[r7,#12]
 390              	.L27:
 147:C:/Users/Yushev/git/wpcqi-optiga-trust-charge/optiga/externals/mbedtls/library\cipher.c ****         if( def->info->base->cipher == cipher_id &&
 391              	 .loc 2 147 0 is_stmt 0 discriminator 1
 392 0048 FB68     	 ldr r3,[r7,#12]
 393 004a 5B68     	 ldr r3,[r3,#4]
 394 004c 002B     	 cmp r3,#0
 395 004e E2D1     	 bne .L30
 152:C:/Users/Yushev/git/wpcqi-optiga-trust-charge/optiga/externals/mbedtls/library\cipher.c **** 
 153:C:/Users/Yushev/git/wpcqi-optiga-trust-charge/optiga/externals/mbedtls/library\cipher.c ****     return( NULL );
 396              	 .loc 2 153 0 is_stmt 1
 397 0050 0023     	 movs r3,#0
 398              	.L29:
 154:C:/Users/Yushev/git/wpcqi-optiga-trust-charge/optiga/externals/mbedtls/library\cipher.c **** }
 399              	 .loc 2 154 0
 400 0052 1846     	 mov r0,r3
 401 0054 1437     	 adds r7,r7,#20
 402              	.LCFI26:
 403              	 .cfi_def_cfa_offset 4
 404 0056 BD46     	 mov sp,r7
 405              	.LCFI27:
 406              	 .cfi_def_cfa_register 13
 407              	 
 408 0058 5DF8047B 	 ldr r7,[sp],#4
 409              	.LCFI28:
 410              	 .cfi_restore 7
 411              	 .cfi_def_cfa_offset 0
 412 005c 7047     	 bx lr
 413              	.L32:
 414 005e 00BF     	 .align 2
 415              	.L31:
 416 0060 00000000 	 .word mbedtls_cipher_definitions
 417              	 .cfi_endproc
 418              	.LFE10:
 420              	 .section .text.mbedtls_cipher_init,"ax",%progbits
 421              	 .align 2
 422              	 .global mbedtls_cipher_init
 423              	 .thumb
 424              	 .thumb_func
 426              	mbedtls_cipher_init:
 427              	.LFB11:
 155:C:/Users/Yushev/git/wpcqi-optiga-trust-charge/optiga/externals/mbedtls/library\cipher.c **** 
 156:C:/Users/Yushev/git/wpcqi-optiga-trust-charge/optiga/externals/mbedtls/library\cipher.c **** void mbedtls_cipher_init( mbedtls_cipher_context_t *ctx )
 157:C:/Users/Yushev/git/wpcqi-optiga-trust-charge/optiga/externals/mbedtls/library\cipher.c **** {
 428              	 .loc 2 157 0
 429              	 .cfi_startproc
 430              	 
 431              	 
 432 0000 80B5     	 push {r7,lr}
 433              	.LCFI29:
 434              	 .cfi_def_cfa_offset 8
 435              	 .cfi_offset 7,-8
 436              	 .cfi_offset 14,-4
 437 0002 82B0     	 sub sp,sp,#8
 438              	.LCFI30:
 439              	 .cfi_def_cfa_offset 16
 440 0004 00AF     	 add r7,sp,#0
 441              	.LCFI31:
 442              	 .cfi_def_cfa_register 7
 443 0006 7860     	 str r0,[r7,#4]
 158:C:/Users/Yushev/git/wpcqi-optiga-trust-charge/optiga/externals/mbedtls/library\cipher.c ****     CIPHER_VALIDATE( ctx != NULL );
 159:C:/Users/Yushev/git/wpcqi-optiga-trust-charge/optiga/externals/mbedtls/library\cipher.c ****     memset( ctx, 0, sizeof( mbedtls_cipher_context_t ) );
 444              	 .loc 2 159 0
 445 0008 7868     	 ldr r0,[r7,#4]
 446 000a 0021     	 movs r1,#0
 447 000c 3822     	 movs r2,#56
 448 000e FFF7FEFF 	 bl memset
 160:C:/Users/Yushev/git/wpcqi-optiga-trust-charge/optiga/externals/mbedtls/library\cipher.c **** }
 449              	 .loc 2 160 0
 450 0012 0837     	 adds r7,r7,#8
 451              	.LCFI32:
 452              	 .cfi_def_cfa_offset 8
 453 0014 BD46     	 mov sp,r7
 454              	.LCFI33:
 455              	 .cfi_def_cfa_register 13
 456              	 
 457 0016 80BD     	 pop {r7,pc}
 458              	 .cfi_endproc
 459              	.LFE11:
 461              	 .section .text.mbedtls_cipher_free,"ax",%progbits
 462              	 .align 2
 463              	 .global mbedtls_cipher_free
 464              	 .thumb
 465              	 .thumb_func
 467              	mbedtls_cipher_free:
 468              	.LFB12:
 161:C:/Users/Yushev/git/wpcqi-optiga-trust-charge/optiga/externals/mbedtls/library\cipher.c **** 
 162:C:/Users/Yushev/git/wpcqi-optiga-trust-charge/optiga/externals/mbedtls/library\cipher.c **** void mbedtls_cipher_free( mbedtls_cipher_context_t *ctx )
 163:C:/Users/Yushev/git/wpcqi-optiga-trust-charge/optiga/externals/mbedtls/library\cipher.c **** {
 469              	 .loc 2 163 0
 470              	 .cfi_startproc
 471              	 
 472              	 
 473 0000 80B5     	 push {r7,lr}
 474              	.LCFI34:
 475              	 .cfi_def_cfa_offset 8
 476              	 .cfi_offset 7,-8
 477              	 .cfi_offset 14,-4
 478 0002 82B0     	 sub sp,sp,#8
 479              	.LCFI35:
 480              	 .cfi_def_cfa_offset 16
 481 0004 00AF     	 add r7,sp,#0
 482              	.LCFI36:
 483              	 .cfi_def_cfa_register 7
 484 0006 7860     	 str r0,[r7,#4]
 164:C:/Users/Yushev/git/wpcqi-optiga-trust-charge/optiga/externals/mbedtls/library\cipher.c ****     if( ctx == NULL )
 485              	 .loc 2 164 0
 486 0008 7B68     	 ldr r3,[r7,#4]
 487 000a 002B     	 cmp r3,#0
 488 000c 00D1     	 bne .L35
 165:C:/Users/Yushev/git/wpcqi-optiga-trust-charge/optiga/externals/mbedtls/library\cipher.c ****         return;
 489              	 .loc 2 165 0
 490 000e 0FE0     	 b .L34
 491              	.L35:
 166:C:/Users/Yushev/git/wpcqi-optiga-trust-charge/optiga/externals/mbedtls/library\cipher.c **** 
 167:C:/Users/Yushev/git/wpcqi-optiga-trust-charge/optiga/externals/mbedtls/library\cipher.c **** #if defined(MBEDTLS_CMAC_C)
 168:C:/Users/Yushev/git/wpcqi-optiga-trust-charge/optiga/externals/mbedtls/library\cipher.c ****     if( ctx->cmac_ctx )
 169:C:/Users/Yushev/git/wpcqi-optiga-trust-charge/optiga/externals/mbedtls/library\cipher.c ****     {
 170:C:/Users/Yushev/git/wpcqi-optiga-trust-charge/optiga/externals/mbedtls/library\cipher.c ****        mbedtls_platform_zeroize( ctx->cmac_ctx,
 171:C:/Users/Yushev/git/wpcqi-optiga-trust-charge/optiga/externals/mbedtls/library\cipher.c ****                                  sizeof( mbedtls_cmac_context_t ) );
 172:C:/Users/Yushev/git/wpcqi-optiga-trust-charge/optiga/externals/mbedtls/library\cipher.c ****        mbedtls_free( ctx->cmac_ctx );
 173:C:/Users/Yushev/git/wpcqi-optiga-trust-charge/optiga/externals/mbedtls/library\cipher.c ****     }
 174:C:/Users/Yushev/git/wpcqi-optiga-trust-charge/optiga/externals/mbedtls/library\cipher.c **** #endif
 175:C:/Users/Yushev/git/wpcqi-optiga-trust-charge/optiga/externals/mbedtls/library\cipher.c **** 
 176:C:/Users/Yushev/git/wpcqi-optiga-trust-charge/optiga/externals/mbedtls/library\cipher.c ****     if( ctx->cipher_ctx )
 492              	 .loc 2 176 0
 493 0010 7B68     	 ldr r3,[r7,#4]
 494 0012 5B6B     	 ldr r3,[r3,#52]
 495 0014 002B     	 cmp r3,#0
 496 0016 07D0     	 beq .L37
 177:C:/Users/Yushev/git/wpcqi-optiga-trust-charge/optiga/externals/mbedtls/library\cipher.c ****         ctx->cipher_info->base->ctx_free_func( ctx->cipher_ctx );
 497              	 .loc 2 177 0
 498 0018 7B68     	 ldr r3,[r7,#4]
 499 001a 1B68     	 ldr r3,[r3]
 500 001c 9B69     	 ldr r3,[r3,#24]
 501 001e 5B69     	 ldr r3,[r3,#20]
 502 0020 7A68     	 ldr r2,[r7,#4]
 503 0022 526B     	 ldr r2,[r2,#52]
 504 0024 1046     	 mov r0,r2
 505 0026 9847     	 blx r3
 506              	.L37:
 178:C:/Users/Yushev/git/wpcqi-optiga-trust-charge/optiga/externals/mbedtls/library\cipher.c **** 
 179:C:/Users/Yushev/git/wpcqi-optiga-trust-charge/optiga/externals/mbedtls/library\cipher.c ****     mbedtls_platform_zeroize( ctx, sizeof(mbedtls_cipher_context_t) );
 507              	 .loc 2 179 0
 508 0028 7868     	 ldr r0,[r7,#4]
 509 002a 3821     	 movs r1,#56
 510 002c FFF7FEFF 	 bl mbedtls_platform_zeroize
 511              	.L34:
 180:C:/Users/Yushev/git/wpcqi-optiga-trust-charge/optiga/externals/mbedtls/library\cipher.c **** }
 512              	 .loc 2 180 0
 513 0030 0837     	 adds r7,r7,#8
 514              	.LCFI37:
 515              	 .cfi_def_cfa_offset 8
 516 0032 BD46     	 mov sp,r7
 517              	.LCFI38:
 518              	 .cfi_def_cfa_register 13
 519              	 
 520 0034 80BD     	 pop {r7,pc}
 521              	 .cfi_endproc
 522              	.LFE12:
 524 0036 00BF     	 .section .text.mbedtls_cipher_setup,"ax",%progbits
 525              	 .align 2
 526              	 .global mbedtls_cipher_setup
 527              	 .thumb
 528              	 .thumb_func
 530              	mbedtls_cipher_setup:
 531              	.LFB13:
 181:C:/Users/Yushev/git/wpcqi-optiga-trust-charge/optiga/externals/mbedtls/library\cipher.c **** 
 182:C:/Users/Yushev/git/wpcqi-optiga-trust-charge/optiga/externals/mbedtls/library\cipher.c **** int mbedtls_cipher_setup( mbedtls_cipher_context_t *ctx, const mbedtls_cipher_info_t *cipher_info )
 183:C:/Users/Yushev/git/wpcqi-optiga-trust-charge/optiga/externals/mbedtls/library\cipher.c **** {
 532              	 .loc 2 183 0
 533              	 .cfi_startproc
 534              	 
 535              	 
 536 0000 80B5     	 push {r7,lr}
 537              	.LCFI39:
 538              	 .cfi_def_cfa_offset 8
 539              	 .cfi_offset 7,-8
 540              	 .cfi_offset 14,-4
 541 0002 82B0     	 sub sp,sp,#8
 542              	.LCFI40:
 543              	 .cfi_def_cfa_offset 16
 544 0004 00AF     	 add r7,sp,#0
 545              	.LCFI41:
 546              	 .cfi_def_cfa_register 7
 547 0006 7860     	 str r0,[r7,#4]
 548 0008 3960     	 str r1,[r7]
 184:C:/Users/Yushev/git/wpcqi-optiga-trust-charge/optiga/externals/mbedtls/library\cipher.c ****     CIPHER_VALIDATE_RET( ctx != NULL );
 185:C:/Users/Yushev/git/wpcqi-optiga-trust-charge/optiga/externals/mbedtls/library\cipher.c ****     if( cipher_info == NULL )
 549              	 .loc 2 185 0
 550 000a 3B68     	 ldr r3,[r7]
 551 000c 002B     	 cmp r3,#0
 552 000e 01D1     	 bne .L39
 186:C:/Users/Yushev/git/wpcqi-optiga-trust-charge/optiga/externals/mbedtls/library\cipher.c ****         return( MBEDTLS_ERR_CIPHER_BAD_INPUT_DATA );
 553              	 .loc 2 186 0
 554 0010 0D4B     	 ldr r3,.L42
 555 0012 15E0     	 b .L40
 556              	.L39:
 187:C:/Users/Yushev/git/wpcqi-optiga-trust-charge/optiga/externals/mbedtls/library\cipher.c **** 
 188:C:/Users/Yushev/git/wpcqi-optiga-trust-charge/optiga/externals/mbedtls/library\cipher.c ****     memset( ctx, 0, sizeof( mbedtls_cipher_context_t ) );
 557              	 .loc 2 188 0
 558 0014 7868     	 ldr r0,[r7,#4]
 559 0016 0021     	 movs r1,#0
 560 0018 3822     	 movs r2,#56
 561 001a FFF7FEFF 	 bl memset
 189:C:/Users/Yushev/git/wpcqi-optiga-trust-charge/optiga/externals/mbedtls/library\cipher.c **** 
 190:C:/Users/Yushev/git/wpcqi-optiga-trust-charge/optiga/externals/mbedtls/library\cipher.c ****     if( NULL == ( ctx->cipher_ctx = cipher_info->base->ctx_alloc_func() ) )
 562              	 .loc 2 190 0
 563 001e 3B68     	 ldr r3,[r7]
 564 0020 9B69     	 ldr r3,[r3,#24]
 565 0022 1B69     	 ldr r3,[r3,#16]
 566 0024 9847     	 blx r3
 567 0026 0246     	 mov r2,r0
 568 0028 7B68     	 ldr r3,[r7,#4]
 569 002a 5A63     	 str r2,[r3,#52]
 570 002c 7B68     	 ldr r3,[r7,#4]
 571 002e 5B6B     	 ldr r3,[r3,#52]
 572 0030 002B     	 cmp r3,#0
 573 0032 01D1     	 bne .L41
 191:C:/Users/Yushev/git/wpcqi-optiga-trust-charge/optiga/externals/mbedtls/library\cipher.c ****         return( MBEDTLS_ERR_CIPHER_ALLOC_FAILED );
 574              	 .loc 2 191 0
 575 0034 054B     	 ldr r3,.L42+4
 576 0036 03E0     	 b .L40
 577              	.L41:
 192:C:/Users/Yushev/git/wpcqi-optiga-trust-charge/optiga/externals/mbedtls/library\cipher.c **** 
 193:C:/Users/Yushev/git/wpcqi-optiga-trust-charge/optiga/externals/mbedtls/library\cipher.c ****     ctx->cipher_info = cipher_info;
 578              	 .loc 2 193 0
 579 0038 7B68     	 ldr r3,[r7,#4]
 580 003a 3A68     	 ldr r2,[r7]
 581 003c 1A60     	 str r2,[r3]
 194:C:/Users/Yushev/git/wpcqi-optiga-trust-charge/optiga/externals/mbedtls/library\cipher.c **** 
 195:C:/Users/Yushev/git/wpcqi-optiga-trust-charge/optiga/externals/mbedtls/library\cipher.c **** #if defined(MBEDTLS_CIPHER_MODE_WITH_PADDING)
 196:C:/Users/Yushev/git/wpcqi-optiga-trust-charge/optiga/externals/mbedtls/library\cipher.c ****     /*
 197:C:/Users/Yushev/git/wpcqi-optiga-trust-charge/optiga/externals/mbedtls/library\cipher.c ****      * Ignore possible errors caused by a cipher mode that doesn't use padding
 198:C:/Users/Yushev/git/wpcqi-optiga-trust-charge/optiga/externals/mbedtls/library\cipher.c ****      */
 199:C:/Users/Yushev/git/wpcqi-optiga-trust-charge/optiga/externals/mbedtls/library\cipher.c **** #if defined(MBEDTLS_CIPHER_PADDING_PKCS7)
 200:C:/Users/Yushev/git/wpcqi-optiga-trust-charge/optiga/externals/mbedtls/library\cipher.c ****     (void) mbedtls_cipher_set_padding_mode( ctx, MBEDTLS_PADDING_PKCS7 );
 201:C:/Users/Yushev/git/wpcqi-optiga-trust-charge/optiga/externals/mbedtls/library\cipher.c **** #else
 202:C:/Users/Yushev/git/wpcqi-optiga-trust-charge/optiga/externals/mbedtls/library\cipher.c ****     (void) mbedtls_cipher_set_padding_mode( ctx, MBEDTLS_PADDING_NONE );
 203:C:/Users/Yushev/git/wpcqi-optiga-trust-charge/optiga/externals/mbedtls/library\cipher.c **** #endif
 204:C:/Users/Yushev/git/wpcqi-optiga-trust-charge/optiga/externals/mbedtls/library\cipher.c **** #endif /* MBEDTLS_CIPHER_MODE_WITH_PADDING */
 205:C:/Users/Yushev/git/wpcqi-optiga-trust-charge/optiga/externals/mbedtls/library\cipher.c **** 
 206:C:/Users/Yushev/git/wpcqi-optiga-trust-charge/optiga/externals/mbedtls/library\cipher.c ****     return( 0 );
 582              	 .loc 2 206 0
 583 003e 0023     	 movs r3,#0
 584              	.L40:
 207:C:/Users/Yushev/git/wpcqi-optiga-trust-charge/optiga/externals/mbedtls/library\cipher.c **** }
 585              	 .loc 2 207 0
 586 0040 1846     	 mov r0,r3
 587 0042 0837     	 adds r7,r7,#8
 588              	.LCFI42:
 589              	 .cfi_def_cfa_offset 8
 590 0044 BD46     	 mov sp,r7
 591              	.LCFI43:
 592              	 .cfi_def_cfa_register 13
 593              	 
 594 0046 80BD     	 pop {r7,pc}
 595              	.L43:
 596              	 .align 2
 597              	.L42:
 598 0048 009FFFFF 	 .word -24832
 599 004c 809EFFFF 	 .word -24960
 600              	 .cfi_endproc
 601              	.LFE13:
 603              	 .section .text.mbedtls_cipher_setkey,"ax",%progbits
 604              	 .align 2
 605              	 .global mbedtls_cipher_setkey
 606              	 .thumb
 607              	 .thumb_func
 609              	mbedtls_cipher_setkey:
 610              	.LFB14:
 208:C:/Users/Yushev/git/wpcqi-optiga-trust-charge/optiga/externals/mbedtls/library\cipher.c **** 
 209:C:/Users/Yushev/git/wpcqi-optiga-trust-charge/optiga/externals/mbedtls/library\cipher.c **** int mbedtls_cipher_setkey( mbedtls_cipher_context_t *ctx,
 210:C:/Users/Yushev/git/wpcqi-optiga-trust-charge/optiga/externals/mbedtls/library\cipher.c ****                            const unsigned char *key,
 211:C:/Users/Yushev/git/wpcqi-optiga-trust-charge/optiga/externals/mbedtls/library\cipher.c ****                            int key_bitlen,
 212:C:/Users/Yushev/git/wpcqi-optiga-trust-charge/optiga/externals/mbedtls/library\cipher.c ****                            const mbedtls_operation_t operation )
 213:C:/Users/Yushev/git/wpcqi-optiga-trust-charge/optiga/externals/mbedtls/library\cipher.c **** {
 611              	 .loc 2 213 0
 612              	 .cfi_startproc
 613              	 
 614              	 
 615 0000 80B5     	 push {r7,lr}
 616              	.LCFI44:
 617              	 .cfi_def_cfa_offset 8
 618              	 .cfi_offset 7,-8
 619              	 .cfi_offset 14,-4
 620 0002 84B0     	 sub sp,sp,#16
 621              	.LCFI45:
 622              	 .cfi_def_cfa_offset 24
 623 0004 00AF     	 add r7,sp,#0
 624              	.LCFI46:
 625              	 .cfi_def_cfa_register 7
 626 0006 F860     	 str r0,[r7,#12]
 627 0008 B960     	 str r1,[r7,#8]
 628 000a 7A60     	 str r2,[r7,#4]
 629 000c FB70     	 strb r3,[r7,#3]
 214:C:/Users/Yushev/git/wpcqi-optiga-trust-charge/optiga/externals/mbedtls/library\cipher.c ****     CIPHER_VALIDATE_RET( ctx != NULL );
 215:C:/Users/Yushev/git/wpcqi-optiga-trust-charge/optiga/externals/mbedtls/library\cipher.c ****     CIPHER_VALIDATE_RET( key != NULL );
 216:C:/Users/Yushev/git/wpcqi-optiga-trust-charge/optiga/externals/mbedtls/library\cipher.c ****     CIPHER_VALIDATE_RET( operation == MBEDTLS_ENCRYPT ||
 217:C:/Users/Yushev/git/wpcqi-optiga-trust-charge/optiga/externals/mbedtls/library\cipher.c ****                          operation == MBEDTLS_DECRYPT );
 218:C:/Users/Yushev/git/wpcqi-optiga-trust-charge/optiga/externals/mbedtls/library\cipher.c ****     if( ctx->cipher_info == NULL )
 630              	 .loc 2 218 0
 631 000e FB68     	 ldr r3,[r7,#12]
 632 0010 1B68     	 ldr r3,[r3]
 633 0012 002B     	 cmp r3,#0
 634 0014 01D1     	 bne .L45
 219:C:/Users/Yushev/git/wpcqi-optiga-trust-charge/optiga/externals/mbedtls/library\cipher.c ****         return( MBEDTLS_ERR_CIPHER_BAD_INPUT_DATA );
 635              	 .loc 2 219 0
 636 0016 274B     	 ldr r3,.L51
 637 0018 47E0     	 b .L46
 638              	.L45:
 220:C:/Users/Yushev/git/wpcqi-optiga-trust-charge/optiga/externals/mbedtls/library\cipher.c **** 
 221:C:/Users/Yushev/git/wpcqi-optiga-trust-charge/optiga/externals/mbedtls/library\cipher.c ****     if( ( ctx->cipher_info->flags & MBEDTLS_CIPHER_VARIABLE_KEY_LEN ) == 0 &&
 639              	 .loc 2 221 0
 640 001a FB68     	 ldr r3,[r7,#12]
 641 001c 1B68     	 ldr r3,[r3]
 642 001e 1B69     	 ldr r3,[r3,#16]
 643 0020 03F00203 	 and r3,r3,#2
 644 0024 002B     	 cmp r3,#0
 645 0026 08D1     	 bne .L47
 222:C:/Users/Yushev/git/wpcqi-optiga-trust-charge/optiga/externals/mbedtls/library\cipher.c ****         (int) ctx->cipher_info->key_bitlen != key_bitlen )
 646              	 .loc 2 222 0 discriminator 1
 647 0028 FB68     	 ldr r3,[r7,#12]
 648 002a 1B68     	 ldr r3,[r3]
 649 002c 5B68     	 ldr r3,[r3,#4]
 650 002e 1A46     	 mov r2,r3
 221:C:/Users/Yushev/git/wpcqi-optiga-trust-charge/optiga/externals/mbedtls/library\cipher.c ****         (int) ctx->cipher_info->key_bitlen != key_bitlen )
 651              	 .loc 2 221 0 discriminator 1
 652 0030 7B68     	 ldr r3,[r7,#4]
 653 0032 9A42     	 cmp r2,r3
 654 0034 01D0     	 beq .L47
 223:C:/Users/Yushev/git/wpcqi-optiga-trust-charge/optiga/externals/mbedtls/library\cipher.c ****     {
 224:C:/Users/Yushev/git/wpcqi-optiga-trust-charge/optiga/externals/mbedtls/library\cipher.c ****         return( MBEDTLS_ERR_CIPHER_BAD_INPUT_DATA );
 655              	 .loc 2 224 0
 656 0036 1F4B     	 ldr r3,.L51
 657 0038 37E0     	 b .L46
 658              	.L47:
 225:C:/Users/Yushev/git/wpcqi-optiga-trust-charge/optiga/externals/mbedtls/library\cipher.c ****     }
 226:C:/Users/Yushev/git/wpcqi-optiga-trust-charge/optiga/externals/mbedtls/library\cipher.c **** 
 227:C:/Users/Yushev/git/wpcqi-optiga-trust-charge/optiga/externals/mbedtls/library\cipher.c ****     ctx->key_bitlen = key_bitlen;
 659              	 .loc 2 227 0
 660 003a FB68     	 ldr r3,[r7,#12]
 661 003c 7A68     	 ldr r2,[r7,#4]
 662 003e 5A60     	 str r2,[r3,#4]
 228:C:/Users/Yushev/git/wpcqi-optiga-trust-charge/optiga/externals/mbedtls/library\cipher.c ****     ctx->operation = operation;
 663              	 .loc 2 228 0
 664 0040 FB68     	 ldr r3,[r7,#12]
 665 0042 FA78     	 ldrb r2,[r7,#3]
 666 0044 1A72     	 strb r2,[r3,#8]
 229:C:/Users/Yushev/git/wpcqi-optiga-trust-charge/optiga/externals/mbedtls/library\cipher.c **** 
 230:C:/Users/Yushev/git/wpcqi-optiga-trust-charge/optiga/externals/mbedtls/library\cipher.c ****     /*
 231:C:/Users/Yushev/git/wpcqi-optiga-trust-charge/optiga/externals/mbedtls/library\cipher.c ****      * For OFB, CFB and CTR mode always use the encryption key schedule
 232:C:/Users/Yushev/git/wpcqi-optiga-trust-charge/optiga/externals/mbedtls/library\cipher.c ****      */
 233:C:/Users/Yushev/git/wpcqi-optiga-trust-charge/optiga/externals/mbedtls/library\cipher.c ****     if( MBEDTLS_ENCRYPT == operation ||
 667              	 .loc 2 233 0
 668 0046 97F90330 	 ldrsb r3,[r7,#3]
 669 004a 012B     	 cmp r3,#1
 670 004c 0ED0     	 beq .L48
 234:C:/Users/Yushev/git/wpcqi-optiga-trust-charge/optiga/externals/mbedtls/library\cipher.c ****         MBEDTLS_MODE_CFB == ctx->cipher_info->mode ||
 671              	 .loc 2 234 0 discriminator 1
 672 004e FB68     	 ldr r3,[r7,#12]
 673 0050 1B68     	 ldr r3,[r3]
 674 0052 5B78     	 ldrb r3,[r3,#1]
 233:C:/Users/Yushev/git/wpcqi-optiga-trust-charge/optiga/externals/mbedtls/library\cipher.c ****         MBEDTLS_MODE_CFB == ctx->cipher_info->mode ||
 675              	 .loc 2 233 0 discriminator 1
 676 0054 032B     	 cmp r3,#3
 677 0056 09D0     	 beq .L48
 235:C:/Users/Yushev/git/wpcqi-optiga-trust-charge/optiga/externals/mbedtls/library\cipher.c ****         MBEDTLS_MODE_OFB == ctx->cipher_info->mode ||
 678              	 .loc 2 235 0
 679 0058 FB68     	 ldr r3,[r7,#12]
 680 005a 1B68     	 ldr r3,[r3]
 681 005c 5B78     	 ldrb r3,[r3,#1]
 234:C:/Users/Yushev/git/wpcqi-optiga-trust-charge/optiga/externals/mbedtls/library\cipher.c ****         MBEDTLS_MODE_CFB == ctx->cipher_info->mode ||
 682              	 .loc 2 234 0
 683 005e 042B     	 cmp r3,#4
 684 0060 04D0     	 beq .L48
 236:C:/Users/Yushev/git/wpcqi-optiga-trust-charge/optiga/externals/mbedtls/library\cipher.c ****         MBEDTLS_MODE_CTR == ctx->cipher_info->mode )
 685              	 .loc 2 236 0
 686 0062 FB68     	 ldr r3,[r7,#12]
 687 0064 1B68     	 ldr r3,[r3]
 688 0066 5B78     	 ldrb r3,[r3,#1]
 235:C:/Users/Yushev/git/wpcqi-optiga-trust-charge/optiga/externals/mbedtls/library\cipher.c ****         MBEDTLS_MODE_OFB == ctx->cipher_info->mode ||
 689              	 .loc 2 235 0
 690 0068 052B     	 cmp r3,#5
 691 006a 0CD1     	 bne .L49
 692              	.L48:
 237:C:/Users/Yushev/git/wpcqi-optiga-trust-charge/optiga/externals/mbedtls/library\cipher.c ****     {
 238:C:/Users/Yushev/git/wpcqi-optiga-trust-charge/optiga/externals/mbedtls/library\cipher.c ****         return( ctx->cipher_info->base->setkey_enc_func( ctx->cipher_ctx, key,
 693              	 .loc 2 238 0
 694 006c FB68     	 ldr r3,[r7,#12]
 695 006e 1B68     	 ldr r3,[r3]
 696 0070 9B69     	 ldr r3,[r3,#24]
 697 0072 9B68     	 ldr r3,[r3,#8]
 698 0074 FA68     	 ldr r2,[r7,#12]
 699 0076 516B     	 ldr r1,[r2,#52]
 239:C:/Users/Yushev/git/wpcqi-optiga-trust-charge/optiga/externals/mbedtls/library\cipher.c ****                                                          ctx->key_bitlen ) );
 700              	 .loc 2 239 0
 701 0078 FA68     	 ldr r2,[r7,#12]
 702 007a 5268     	 ldr r2,[r2,#4]
 238:C:/Users/Yushev/git/wpcqi-optiga-trust-charge/optiga/externals/mbedtls/library\cipher.c ****                                                          ctx->key_bitlen ) );
 703              	 .loc 2 238 0
 704 007c 0846     	 mov r0,r1
 705 007e B968     	 ldr r1,[r7,#8]
 706 0080 9847     	 blx r3
 707 0082 0346     	 mov r3,r0
 708 0084 11E0     	 b .L46
 709              	.L49:
 240:C:/Users/Yushev/git/wpcqi-optiga-trust-charge/optiga/externals/mbedtls/library\cipher.c ****     }
 241:C:/Users/Yushev/git/wpcqi-optiga-trust-charge/optiga/externals/mbedtls/library\cipher.c **** 
 242:C:/Users/Yushev/git/wpcqi-optiga-trust-charge/optiga/externals/mbedtls/library\cipher.c ****     if( MBEDTLS_DECRYPT == operation )
 710              	 .loc 2 242 0
 711 0086 97F90330 	 ldrsb r3,[r7,#3]
 712 008a 002B     	 cmp r3,#0
 713 008c 0CD1     	 bne .L50
 243:C:/Users/Yushev/git/wpcqi-optiga-trust-charge/optiga/externals/mbedtls/library\cipher.c ****         return( ctx->cipher_info->base->setkey_dec_func( ctx->cipher_ctx, key,
 714              	 .loc 2 243 0
 715 008e FB68     	 ldr r3,[r7,#12]
 716 0090 1B68     	 ldr r3,[r3]
 717 0092 9B69     	 ldr r3,[r3,#24]
 718 0094 DB68     	 ldr r3,[r3,#12]
 719 0096 FA68     	 ldr r2,[r7,#12]
 720 0098 516B     	 ldr r1,[r2,#52]
 244:C:/Users/Yushev/git/wpcqi-optiga-trust-charge/optiga/externals/mbedtls/library\cipher.c ****                                                          ctx->key_bitlen ) );
 721              	 .loc 2 244 0
 722 009a FA68     	 ldr r2,[r7,#12]
 723 009c 5268     	 ldr r2,[r2,#4]
 243:C:/Users/Yushev/git/wpcqi-optiga-trust-charge/optiga/externals/mbedtls/library\cipher.c ****         return( ctx->cipher_info->base->setkey_dec_func( ctx->cipher_ctx, key,
 724              	 .loc 2 243 0
 725 009e 0846     	 mov r0,r1
 726 00a0 B968     	 ldr r1,[r7,#8]
 727 00a2 9847     	 blx r3
 728 00a4 0346     	 mov r3,r0
 729 00a6 00E0     	 b .L46
 730              	.L50:
 245:C:/Users/Yushev/git/wpcqi-optiga-trust-charge/optiga/externals/mbedtls/library\cipher.c **** 
 246:C:/Users/Yushev/git/wpcqi-optiga-trust-charge/optiga/externals/mbedtls/library\cipher.c ****     return( MBEDTLS_ERR_CIPHER_BAD_INPUT_DATA );
 731              	 .loc 2 246 0
 732 00a8 024B     	 ldr r3,.L51
 733              	.L46:
 247:C:/Users/Yushev/git/wpcqi-optiga-trust-charge/optiga/externals/mbedtls/library\cipher.c **** }
 734              	 .loc 2 247 0
 735 00aa 1846     	 mov r0,r3
 736 00ac 1037     	 adds r7,r7,#16
 737              	.LCFI47:
 738              	 .cfi_def_cfa_offset 8
 739 00ae BD46     	 mov sp,r7
 740              	.LCFI48:
 741              	 .cfi_def_cfa_register 13
 742              	 
 743 00b0 80BD     	 pop {r7,pc}
 744              	.L52:
 745 00b2 00BF     	 .align 2
 746              	.L51:
 747 00b4 009FFFFF 	 .word -24832
 748              	 .cfi_endproc
 749              	.LFE14:
 751              	 .section .text.mbedtls_cipher_set_iv,"ax",%progbits
 752              	 .align 2
 753              	 .global mbedtls_cipher_set_iv
 754              	 .thumb
 755              	 .thumb_func
 757              	mbedtls_cipher_set_iv:
 758              	.LFB15:
 248:C:/Users/Yushev/git/wpcqi-optiga-trust-charge/optiga/externals/mbedtls/library\cipher.c **** 
 249:C:/Users/Yushev/git/wpcqi-optiga-trust-charge/optiga/externals/mbedtls/library\cipher.c **** int mbedtls_cipher_set_iv( mbedtls_cipher_context_t *ctx,
 250:C:/Users/Yushev/git/wpcqi-optiga-trust-charge/optiga/externals/mbedtls/library\cipher.c ****                            const unsigned char *iv,
 251:C:/Users/Yushev/git/wpcqi-optiga-trust-charge/optiga/externals/mbedtls/library\cipher.c ****                            size_t iv_len )
 252:C:/Users/Yushev/git/wpcqi-optiga-trust-charge/optiga/externals/mbedtls/library\cipher.c **** {
 759              	 .loc 2 252 0
 760              	 .cfi_startproc
 761              	 
 762              	 
 763 0000 80B5     	 push {r7,lr}
 764              	.LCFI49:
 765              	 .cfi_def_cfa_offset 8
 766              	 .cfi_offset 7,-8
 767              	 .cfi_offset 14,-4
 768 0002 86B0     	 sub sp,sp,#24
 769              	.LCFI50:
 770              	 .cfi_def_cfa_offset 32
 771 0004 00AF     	 add r7,sp,#0
 772              	.LCFI51:
 773              	 .cfi_def_cfa_register 7
 774 0006 F860     	 str r0,[r7,#12]
 775 0008 B960     	 str r1,[r7,#8]
 776 000a 7A60     	 str r2,[r7,#4]
 253:C:/Users/Yushev/git/wpcqi-optiga-trust-charge/optiga/externals/mbedtls/library\cipher.c ****     size_t actual_iv_size;
 254:C:/Users/Yushev/git/wpcqi-optiga-trust-charge/optiga/externals/mbedtls/library\cipher.c **** 
 255:C:/Users/Yushev/git/wpcqi-optiga-trust-charge/optiga/externals/mbedtls/library\cipher.c ****     CIPHER_VALIDATE_RET( ctx != NULL );
 256:C:/Users/Yushev/git/wpcqi-optiga-trust-charge/optiga/externals/mbedtls/library\cipher.c ****     CIPHER_VALIDATE_RET( iv_len == 0 || iv != NULL );
 257:C:/Users/Yushev/git/wpcqi-optiga-trust-charge/optiga/externals/mbedtls/library\cipher.c ****     if( ctx->cipher_info == NULL )
 777              	 .loc 2 257 0
 778 000c FB68     	 ldr r3,[r7,#12]
 779 000e 1B68     	 ldr r3,[r3]
 780 0010 002B     	 cmp r3,#0
 781 0012 01D1     	 bne .L54
 258:C:/Users/Yushev/git/wpcqi-optiga-trust-charge/optiga/externals/mbedtls/library\cipher.c ****         return( MBEDTLS_ERR_CIPHER_BAD_INPUT_DATA );
 782              	 .loc 2 258 0
 783 0014 164B     	 ldr r3,.L60
 784 0016 26E0     	 b .L55
 785              	.L54:
 259:C:/Users/Yushev/git/wpcqi-optiga-trust-charge/optiga/externals/mbedtls/library\cipher.c **** 
 260:C:/Users/Yushev/git/wpcqi-optiga-trust-charge/optiga/externals/mbedtls/library\cipher.c ****     /* avoid buffer overflow in ctx->iv */
 261:C:/Users/Yushev/git/wpcqi-optiga-trust-charge/optiga/externals/mbedtls/library\cipher.c ****     if( iv_len > MBEDTLS_MAX_IV_LENGTH )
 786              	 .loc 2 261 0
 787 0018 7B68     	 ldr r3,[r7,#4]
 788 001a 102B     	 cmp r3,#16
 789 001c 01D9     	 bls .L56
 262:C:/Users/Yushev/git/wpcqi-optiga-trust-charge/optiga/externals/mbedtls/library\cipher.c ****         return( MBEDTLS_ERR_CIPHER_FEATURE_UNAVAILABLE );
 790              	 .loc 2 262 0
 791 001e 154B     	 ldr r3,.L60+4
 792 0020 21E0     	 b .L55
 793              	.L56:
 263:C:/Users/Yushev/git/wpcqi-optiga-trust-charge/optiga/externals/mbedtls/library\cipher.c **** 
 264:C:/Users/Yushev/git/wpcqi-optiga-trust-charge/optiga/externals/mbedtls/library\cipher.c ****     if( ( ctx->cipher_info->flags & MBEDTLS_CIPHER_VARIABLE_IV_LEN ) != 0 )
 794              	 .loc 2 264 0
 795 0022 FB68     	 ldr r3,[r7,#12]
 796 0024 1B68     	 ldr r3,[r3]
 797 0026 1B69     	 ldr r3,[r3,#16]
 798 0028 03F00103 	 and r3,r3,#1
 799 002c 002B     	 cmp r3,#0
 800 002e 02D0     	 beq .L57
 265:C:/Users/Yushev/git/wpcqi-optiga-trust-charge/optiga/externals/mbedtls/library\cipher.c ****         actual_iv_size = iv_len;
 801              	 .loc 2 265 0
 802 0030 7B68     	 ldr r3,[r7,#4]
 803 0032 7B61     	 str r3,[r7,#20]
 804 0034 09E0     	 b .L58
 805              	.L57:
 266:C:/Users/Yushev/git/wpcqi-optiga-trust-charge/optiga/externals/mbedtls/library\cipher.c ****     else
 267:C:/Users/Yushev/git/wpcqi-optiga-trust-charge/optiga/externals/mbedtls/library\cipher.c ****     {
 268:C:/Users/Yushev/git/wpcqi-optiga-trust-charge/optiga/externals/mbedtls/library\cipher.c ****         actual_iv_size = ctx->cipher_info->iv_size;
 806              	 .loc 2 268 0
 807 0036 FB68     	 ldr r3,[r7,#12]
 808 0038 1B68     	 ldr r3,[r3]
 809 003a DB68     	 ldr r3,[r3,#12]
 810 003c 7B61     	 str r3,[r7,#20]
 269:C:/Users/Yushev/git/wpcqi-optiga-trust-charge/optiga/externals/mbedtls/library\cipher.c **** 
 270:C:/Users/Yushev/git/wpcqi-optiga-trust-charge/optiga/externals/mbedtls/library\cipher.c ****         /* avoid reading past the end of input buffer */
 271:C:/Users/Yushev/git/wpcqi-optiga-trust-charge/optiga/externals/mbedtls/library\cipher.c ****         if( actual_iv_size > iv_len )
 811              	 .loc 2 271 0
 812 003e 7A69     	 ldr r2,[r7,#20]
 813 0040 7B68     	 ldr r3,[r7,#4]
 814 0042 9A42     	 cmp r2,r3
 815 0044 01D9     	 bls .L58
 272:C:/Users/Yushev/git/wpcqi-optiga-trust-charge/optiga/externals/mbedtls/library\cipher.c ****             return( MBEDTLS_ERR_CIPHER_BAD_INPUT_DATA );
 816              	 .loc 2 272 0
 817 0046 0A4B     	 ldr r3,.L60
 818 0048 0DE0     	 b .L55
 819              	.L58:
 273:C:/Users/Yushev/git/wpcqi-optiga-trust-charge/optiga/externals/mbedtls/library\cipher.c ****     }
 274:C:/Users/Yushev/git/wpcqi-optiga-trust-charge/optiga/externals/mbedtls/library\cipher.c **** 
 275:C:/Users/Yushev/git/wpcqi-optiga-trust-charge/optiga/externals/mbedtls/library\cipher.c **** #if defined(MBEDTLS_CHACHA20_C)
 276:C:/Users/Yushev/git/wpcqi-optiga-trust-charge/optiga/externals/mbedtls/library\cipher.c ****     if ( ctx->cipher_info->type == MBEDTLS_CIPHER_CHACHA20 )
 277:C:/Users/Yushev/git/wpcqi-optiga-trust-charge/optiga/externals/mbedtls/library\cipher.c ****     {
 278:C:/Users/Yushev/git/wpcqi-optiga-trust-charge/optiga/externals/mbedtls/library\cipher.c ****         if ( 0 != mbedtls_chacha20_starts( (mbedtls_chacha20_context*)ctx->cipher_ctx,
 279:C:/Users/Yushev/git/wpcqi-optiga-trust-charge/optiga/externals/mbedtls/library\cipher.c ****                                            iv,
 280:C:/Users/Yushev/git/wpcqi-optiga-trust-charge/optiga/externals/mbedtls/library\cipher.c ****                                            0U ) ) /* Initial counter value */
 281:C:/Users/Yushev/git/wpcqi-optiga-trust-charge/optiga/externals/mbedtls/library\cipher.c ****         {
 282:C:/Users/Yushev/git/wpcqi-optiga-trust-charge/optiga/externals/mbedtls/library\cipher.c ****             return( MBEDTLS_ERR_CIPHER_BAD_INPUT_DATA );
 283:C:/Users/Yushev/git/wpcqi-optiga-trust-charge/optiga/externals/mbedtls/library\cipher.c ****         }
 284:C:/Users/Yushev/git/wpcqi-optiga-trust-charge/optiga/externals/mbedtls/library\cipher.c ****     }
 285:C:/Users/Yushev/git/wpcqi-optiga-trust-charge/optiga/externals/mbedtls/library\cipher.c **** #endif
 286:C:/Users/Yushev/git/wpcqi-optiga-trust-charge/optiga/externals/mbedtls/library\cipher.c **** 
 287:C:/Users/Yushev/git/wpcqi-optiga-trust-charge/optiga/externals/mbedtls/library\cipher.c ****     if ( actual_iv_size != 0 )
 820              	 .loc 2 287 0
 821 004a 7B69     	 ldr r3,[r7,#20]
 822 004c 002B     	 cmp r3,#0
 823 004e 09D0     	 beq .L59
 288:C:/Users/Yushev/git/wpcqi-optiga-trust-charge/optiga/externals/mbedtls/library\cipher.c ****     {
 289:C:/Users/Yushev/git/wpcqi-optiga-trust-charge/optiga/externals/mbedtls/library\cipher.c ****         memcpy( ctx->iv, iv, actual_iv_size );
 824              	 .loc 2 289 0
 825 0050 FB68     	 ldr r3,[r7,#12]
 826 0052 2033     	 adds r3,r3,#32
 827 0054 1846     	 mov r0,r3
 828 0056 B968     	 ldr r1,[r7,#8]
 829 0058 7A69     	 ldr r2,[r7,#20]
 830 005a FFF7FEFF 	 bl memcpy
 290:C:/Users/Yushev/git/wpcqi-optiga-trust-charge/optiga/externals/mbedtls/library\cipher.c ****         ctx->iv_size = actual_iv_size;
 831              	 .loc 2 290 0
 832 005e FB68     	 ldr r3,[r7,#12]
 833 0060 7A69     	 ldr r2,[r7,#20]
 834 0062 1A63     	 str r2,[r3,#48]
 835              	.L59:
 291:C:/Users/Yushev/git/wpcqi-optiga-trust-charge/optiga/externals/mbedtls/library\cipher.c ****     }
 292:C:/Users/Yushev/git/wpcqi-optiga-trust-charge/optiga/externals/mbedtls/library\cipher.c **** 
 293:C:/Users/Yushev/git/wpcqi-optiga-trust-charge/optiga/externals/mbedtls/library\cipher.c ****     return( 0 );
 836              	 .loc 2 293 0
 837 0064 0023     	 movs r3,#0
 838              	.L55:
 294:C:/Users/Yushev/git/wpcqi-optiga-trust-charge/optiga/externals/mbedtls/library\cipher.c **** }
 839              	 .loc 2 294 0
 840 0066 1846     	 mov r0,r3
 841 0068 1837     	 adds r7,r7,#24
 842              	.LCFI52:
 843              	 .cfi_def_cfa_offset 8
 844 006a BD46     	 mov sp,r7
 845              	.LCFI53:
 846              	 .cfi_def_cfa_register 13
 847              	 
 848 006c 80BD     	 pop {r7,pc}
 849              	.L61:
 850 006e 00BF     	 .align 2
 851              	.L60:
 852 0070 009FFFFF 	 .word -24832
 853 0074 809FFFFF 	 .word -24704
 854              	 .cfi_endproc
 855              	.LFE15:
 857              	 .section .text.mbedtls_cipher_reset,"ax",%progbits
 858              	 .align 2
 859              	 .global mbedtls_cipher_reset
 860              	 .thumb
 861              	 .thumb_func
 863              	mbedtls_cipher_reset:
 864              	.LFB16:
 295:C:/Users/Yushev/git/wpcqi-optiga-trust-charge/optiga/externals/mbedtls/library\cipher.c **** 
 296:C:/Users/Yushev/git/wpcqi-optiga-trust-charge/optiga/externals/mbedtls/library\cipher.c **** int mbedtls_cipher_reset( mbedtls_cipher_context_t *ctx )
 297:C:/Users/Yushev/git/wpcqi-optiga-trust-charge/optiga/externals/mbedtls/library\cipher.c **** {
 865              	 .loc 2 297 0
 866              	 .cfi_startproc
 867              	 
 868              	 
 869              	 
 870 0000 80B4     	 push {r7}
 871              	.LCFI54:
 872              	 .cfi_def_cfa_offset 4
 873              	 .cfi_offset 7,-4
 874 0002 83B0     	 sub sp,sp,#12
 875              	.LCFI55:
 876              	 .cfi_def_cfa_offset 16
 877 0004 00AF     	 add r7,sp,#0
 878              	.LCFI56:
 879              	 .cfi_def_cfa_register 7
 880 0006 7860     	 str r0,[r7,#4]
 298:C:/Users/Yushev/git/wpcqi-optiga-trust-charge/optiga/externals/mbedtls/library\cipher.c ****     CIPHER_VALIDATE_RET( ctx != NULL );
 299:C:/Users/Yushev/git/wpcqi-optiga-trust-charge/optiga/externals/mbedtls/library\cipher.c ****     if( ctx->cipher_info == NULL )
 881              	 .loc 2 299 0
 882 0008 7B68     	 ldr r3,[r7,#4]
 883 000a 1B68     	 ldr r3,[r3]
 884 000c 002B     	 cmp r3,#0
 885 000e 01D1     	 bne .L63
 300:C:/Users/Yushev/git/wpcqi-optiga-trust-charge/optiga/externals/mbedtls/library\cipher.c ****         return( MBEDTLS_ERR_CIPHER_BAD_INPUT_DATA );
 886              	 .loc 2 300 0
 887 0010 054B     	 ldr r3,.L65
 888 0012 03E0     	 b .L64
 889              	.L63:
 301:C:/Users/Yushev/git/wpcqi-optiga-trust-charge/optiga/externals/mbedtls/library\cipher.c **** 
 302:C:/Users/Yushev/git/wpcqi-optiga-trust-charge/optiga/externals/mbedtls/library\cipher.c ****     ctx->unprocessed_len = 0;
 890              	 .loc 2 302 0
 891 0014 7B68     	 ldr r3,[r7,#4]
 892 0016 0022     	 movs r2,#0
 893 0018 DA61     	 str r2,[r3,#28]
 303:C:/Users/Yushev/git/wpcqi-optiga-trust-charge/optiga/externals/mbedtls/library\cipher.c **** 
 304:C:/Users/Yushev/git/wpcqi-optiga-trust-charge/optiga/externals/mbedtls/library\cipher.c ****     return( 0 );
 894              	 .loc 2 304 0
 895 001a 0023     	 movs r3,#0
 896              	.L64:
 305:C:/Users/Yushev/git/wpcqi-optiga-trust-charge/optiga/externals/mbedtls/library\cipher.c **** }
 897              	 .loc 2 305 0
 898 001c 1846     	 mov r0,r3
 899 001e 0C37     	 adds r7,r7,#12
 900              	.LCFI57:
 901              	 .cfi_def_cfa_offset 4
 902 0020 BD46     	 mov sp,r7
 903              	.LCFI58:
 904              	 .cfi_def_cfa_register 13
 905              	 
 906 0022 5DF8047B 	 ldr r7,[sp],#4
 907              	.LCFI59:
 908              	 .cfi_restore 7
 909              	 .cfi_def_cfa_offset 0
 910 0026 7047     	 bx lr
 911              	.L66:
 912              	 .align 2
 913              	.L65:
 914 0028 009FFFFF 	 .word -24832
 915              	 .cfi_endproc
 916              	.LFE16:
 918              	 .section .text.mbedtls_cipher_update,"ax",%progbits
 919              	 .align 2
 920              	 .global mbedtls_cipher_update
 921              	 .thumb
 922              	 .thumb_func
 924              	mbedtls_cipher_update:
 925              	.LFB17:
 306:C:/Users/Yushev/git/wpcqi-optiga-trust-charge/optiga/externals/mbedtls/library\cipher.c **** 
 307:C:/Users/Yushev/git/wpcqi-optiga-trust-charge/optiga/externals/mbedtls/library\cipher.c **** #if defined(MBEDTLS_GCM_C) || defined(MBEDTLS_CHACHAPOLY_C)
 308:C:/Users/Yushev/git/wpcqi-optiga-trust-charge/optiga/externals/mbedtls/library\cipher.c **** int mbedtls_cipher_update_ad( mbedtls_cipher_context_t *ctx,
 309:C:/Users/Yushev/git/wpcqi-optiga-trust-charge/optiga/externals/mbedtls/library\cipher.c ****                       const unsigned char *ad, size_t ad_len )
 310:C:/Users/Yushev/git/wpcqi-optiga-trust-charge/optiga/externals/mbedtls/library\cipher.c **** {
 311:C:/Users/Yushev/git/wpcqi-optiga-trust-charge/optiga/externals/mbedtls/library\cipher.c ****     CIPHER_VALIDATE_RET( ctx != NULL );
 312:C:/Users/Yushev/git/wpcqi-optiga-trust-charge/optiga/externals/mbedtls/library\cipher.c ****     CIPHER_VALIDATE_RET( ad_len == 0 || ad != NULL );
 313:C:/Users/Yushev/git/wpcqi-optiga-trust-charge/optiga/externals/mbedtls/library\cipher.c ****     if( ctx->cipher_info == NULL )
 314:C:/Users/Yushev/git/wpcqi-optiga-trust-charge/optiga/externals/mbedtls/library\cipher.c ****         return( MBEDTLS_ERR_CIPHER_BAD_INPUT_DATA );
 315:C:/Users/Yushev/git/wpcqi-optiga-trust-charge/optiga/externals/mbedtls/library\cipher.c **** 
 316:C:/Users/Yushev/git/wpcqi-optiga-trust-charge/optiga/externals/mbedtls/library\cipher.c **** #if defined(MBEDTLS_GCM_C)
 317:C:/Users/Yushev/git/wpcqi-optiga-trust-charge/optiga/externals/mbedtls/library\cipher.c ****     if( MBEDTLS_MODE_GCM == ctx->cipher_info->mode )
 318:C:/Users/Yushev/git/wpcqi-optiga-trust-charge/optiga/externals/mbedtls/library\cipher.c ****     {
 319:C:/Users/Yushev/git/wpcqi-optiga-trust-charge/optiga/externals/mbedtls/library\cipher.c ****         return( mbedtls_gcm_starts( (mbedtls_gcm_context *) ctx->cipher_ctx, ctx->operation,
 320:C:/Users/Yushev/git/wpcqi-optiga-trust-charge/optiga/externals/mbedtls/library\cipher.c ****                                     ctx->iv, ctx->iv_size, ad, ad_len ) );
 321:C:/Users/Yushev/git/wpcqi-optiga-trust-charge/optiga/externals/mbedtls/library\cipher.c ****     }
 322:C:/Users/Yushev/git/wpcqi-optiga-trust-charge/optiga/externals/mbedtls/library\cipher.c **** #endif
 323:C:/Users/Yushev/git/wpcqi-optiga-trust-charge/optiga/externals/mbedtls/library\cipher.c **** 
 324:C:/Users/Yushev/git/wpcqi-optiga-trust-charge/optiga/externals/mbedtls/library\cipher.c **** #if defined(MBEDTLS_CHACHAPOLY_C)
 325:C:/Users/Yushev/git/wpcqi-optiga-trust-charge/optiga/externals/mbedtls/library\cipher.c ****     if (MBEDTLS_CIPHER_CHACHA20_POLY1305 == ctx->cipher_info->type )
 326:C:/Users/Yushev/git/wpcqi-optiga-trust-charge/optiga/externals/mbedtls/library\cipher.c ****     {
 327:C:/Users/Yushev/git/wpcqi-optiga-trust-charge/optiga/externals/mbedtls/library\cipher.c ****         int result;
 328:C:/Users/Yushev/git/wpcqi-optiga-trust-charge/optiga/externals/mbedtls/library\cipher.c ****         mbedtls_chachapoly_mode_t mode;
 329:C:/Users/Yushev/git/wpcqi-optiga-trust-charge/optiga/externals/mbedtls/library\cipher.c **** 
 330:C:/Users/Yushev/git/wpcqi-optiga-trust-charge/optiga/externals/mbedtls/library\cipher.c ****         mode = ( ctx->operation == MBEDTLS_ENCRYPT )
 331:C:/Users/Yushev/git/wpcqi-optiga-trust-charge/optiga/externals/mbedtls/library\cipher.c ****                 ? MBEDTLS_CHACHAPOLY_ENCRYPT
 332:C:/Users/Yushev/git/wpcqi-optiga-trust-charge/optiga/externals/mbedtls/library\cipher.c ****                 : MBEDTLS_CHACHAPOLY_DECRYPT;
 333:C:/Users/Yushev/git/wpcqi-optiga-trust-charge/optiga/externals/mbedtls/library\cipher.c **** 
 334:C:/Users/Yushev/git/wpcqi-optiga-trust-charge/optiga/externals/mbedtls/library\cipher.c ****         result = mbedtls_chachapoly_starts( (mbedtls_chachapoly_context*) ctx->cipher_ctx,
 335:C:/Users/Yushev/git/wpcqi-optiga-trust-charge/optiga/externals/mbedtls/library\cipher.c ****                                                         ctx->iv,
 336:C:/Users/Yushev/git/wpcqi-optiga-trust-charge/optiga/externals/mbedtls/library\cipher.c ****                                                         mode );
 337:C:/Users/Yushev/git/wpcqi-optiga-trust-charge/optiga/externals/mbedtls/library\cipher.c ****         if ( result != 0 )
 338:C:/Users/Yushev/git/wpcqi-optiga-trust-charge/optiga/externals/mbedtls/library\cipher.c ****             return( result );
 339:C:/Users/Yushev/git/wpcqi-optiga-trust-charge/optiga/externals/mbedtls/library\cipher.c **** 
 340:C:/Users/Yushev/git/wpcqi-optiga-trust-charge/optiga/externals/mbedtls/library\cipher.c ****         return( mbedtls_chachapoly_update_aad( (mbedtls_chachapoly_context*) ctx->cipher_ctx,
 341:C:/Users/Yushev/git/wpcqi-optiga-trust-charge/optiga/externals/mbedtls/library\cipher.c ****                                                ad, ad_len ) );
 342:C:/Users/Yushev/git/wpcqi-optiga-trust-charge/optiga/externals/mbedtls/library\cipher.c ****     }
 343:C:/Users/Yushev/git/wpcqi-optiga-trust-charge/optiga/externals/mbedtls/library\cipher.c **** #endif
 344:C:/Users/Yushev/git/wpcqi-optiga-trust-charge/optiga/externals/mbedtls/library\cipher.c **** 
 345:C:/Users/Yushev/git/wpcqi-optiga-trust-charge/optiga/externals/mbedtls/library\cipher.c ****     return( 0 );
 346:C:/Users/Yushev/git/wpcqi-optiga-trust-charge/optiga/externals/mbedtls/library\cipher.c **** }
 347:C:/Users/Yushev/git/wpcqi-optiga-trust-charge/optiga/externals/mbedtls/library\cipher.c **** #endif /* MBEDTLS_GCM_C || MBEDTLS_CHACHAPOLY_C */
 348:C:/Users/Yushev/git/wpcqi-optiga-trust-charge/optiga/externals/mbedtls/library\cipher.c **** 
 349:C:/Users/Yushev/git/wpcqi-optiga-trust-charge/optiga/externals/mbedtls/library\cipher.c **** int mbedtls_cipher_update( mbedtls_cipher_context_t *ctx, const unsigned char *input,
 350:C:/Users/Yushev/git/wpcqi-optiga-trust-charge/optiga/externals/mbedtls/library\cipher.c ****                    size_t ilen, unsigned char *output, size_t *olen )
 351:C:/Users/Yushev/git/wpcqi-optiga-trust-charge/optiga/externals/mbedtls/library\cipher.c **** {
 926              	 .loc 2 351 0
 927              	 .cfi_startproc
 928              	 
 929              	 
 930 0000 90B5     	 push {r4,r7,lr}
 931              	.LCFI60:
 932              	 .cfi_def_cfa_offset 12
 933              	 .cfi_offset 4,-12
 934              	 .cfi_offset 7,-8
 935              	 .cfi_offset 14,-4
 936 0002 87B0     	 sub sp,sp,#28
 937              	.LCFI61:
 938              	 .cfi_def_cfa_offset 40
 939 0004 00AF     	 add r7,sp,#0
 940              	.LCFI62:
 941              	 .cfi_def_cfa_register 7
 942 0006 F860     	 str r0,[r7,#12]
 943 0008 B960     	 str r1,[r7,#8]
 944 000a 7A60     	 str r2,[r7,#4]
 945 000c 3B60     	 str r3,[r7]
 352:C:/Users/Yushev/git/wpcqi-optiga-trust-charge/optiga/externals/mbedtls/library\cipher.c ****     int ret;
 353:C:/Users/Yushev/git/wpcqi-optiga-trust-charge/optiga/externals/mbedtls/library\cipher.c ****     size_t block_size;
 354:C:/Users/Yushev/git/wpcqi-optiga-trust-charge/optiga/externals/mbedtls/library\cipher.c **** 
 355:C:/Users/Yushev/git/wpcqi-optiga-trust-charge/optiga/externals/mbedtls/library\cipher.c ****     CIPHER_VALIDATE_RET( ctx != NULL );
 356:C:/Users/Yushev/git/wpcqi-optiga-trust-charge/optiga/externals/mbedtls/library\cipher.c ****     CIPHER_VALIDATE_RET( ilen == 0 || input != NULL );
 357:C:/Users/Yushev/git/wpcqi-optiga-trust-charge/optiga/externals/mbedtls/library\cipher.c ****     CIPHER_VALIDATE_RET( output != NULL );
 358:C:/Users/Yushev/git/wpcqi-optiga-trust-charge/optiga/externals/mbedtls/library\cipher.c ****     CIPHER_VALIDATE_RET( olen != NULL );
 359:C:/Users/Yushev/git/wpcqi-optiga-trust-charge/optiga/externals/mbedtls/library\cipher.c ****     if( ctx->cipher_info == NULL )
 946              	 .loc 2 359 0
 947 000e FB68     	 ldr r3,[r7,#12]
 948 0010 1B68     	 ldr r3,[r3]
 949 0012 002B     	 cmp r3,#0
 950 0014 01D1     	 bne .L68
 360:C:/Users/Yushev/git/wpcqi-optiga-trust-charge/optiga/externals/mbedtls/library\cipher.c ****         return( MBEDTLS_ERR_CIPHER_BAD_INPUT_DATA );
 951              	 .loc 2 360 0
 952 0016 254B     	 ldr r3,.L76
 953 0018 44E0     	 b .L69
 954              	.L68:
 361:C:/Users/Yushev/git/wpcqi-optiga-trust-charge/optiga/externals/mbedtls/library\cipher.c **** 
 362:C:/Users/Yushev/git/wpcqi-optiga-trust-charge/optiga/externals/mbedtls/library\cipher.c ****     *olen = 0;
 955              	 .loc 2 362 0
 956 001a BB6A     	 ldr r3,[r7,#40]
 957 001c 0022     	 movs r2,#0
 958 001e 1A60     	 str r2,[r3]
 363:C:/Users/Yushev/git/wpcqi-optiga-trust-charge/optiga/externals/mbedtls/library\cipher.c ****     block_size = mbedtls_cipher_get_block_size( ctx );
 959              	 .loc 2 363 0
 960 0020 F868     	 ldr r0,[r7,#12]
 961 0022 FFF7FEFF 	 bl mbedtls_cipher_get_block_size
 962 0026 7861     	 str r0,[r7,#20]
 364:C:/Users/Yushev/git/wpcqi-optiga-trust-charge/optiga/externals/mbedtls/library\cipher.c **** 
 365:C:/Users/Yushev/git/wpcqi-optiga-trust-charge/optiga/externals/mbedtls/library\cipher.c ****     if( ctx->cipher_info->mode == MBEDTLS_MODE_ECB )
 963              	 .loc 2 365 0
 964 0028 FB68     	 ldr r3,[r7,#12]
 965 002a 1B68     	 ldr r3,[r3]
 966 002c 5B78     	 ldrb r3,[r3,#1]
 967 002e 012B     	 cmp r3,#1
 968 0030 1ED1     	 bne .L70
 366:C:/Users/Yushev/git/wpcqi-optiga-trust-charge/optiga/externals/mbedtls/library\cipher.c ****     {
 367:C:/Users/Yushev/git/wpcqi-optiga-trust-charge/optiga/externals/mbedtls/library\cipher.c ****         if( ilen != block_size )
 969              	 .loc 2 367 0
 970 0032 7A68     	 ldr r2,[r7,#4]
 971 0034 7B69     	 ldr r3,[r7,#20]
 972 0036 9A42     	 cmp r2,r3
 973 0038 01D0     	 beq .L71
 368:C:/Users/Yushev/git/wpcqi-optiga-trust-charge/optiga/externals/mbedtls/library\cipher.c ****             return( MBEDTLS_ERR_CIPHER_FULL_BLOCK_EXPECTED );
 974              	 .loc 2 368 0
 975 003a 1D4B     	 ldr r3,.L76+4
 976 003c 32E0     	 b .L69
 977              	.L71:
 369:C:/Users/Yushev/git/wpcqi-optiga-trust-charge/optiga/externals/mbedtls/library\cipher.c **** 
 370:C:/Users/Yushev/git/wpcqi-optiga-trust-charge/optiga/externals/mbedtls/library\cipher.c ****         *olen = ilen;
 978              	 .loc 2 370 0
 979 003e BB6A     	 ldr r3,[r7,#40]
 980 0040 7A68     	 ldr r2,[r7,#4]
 981 0042 1A60     	 str r2,[r3]
 371:C:/Users/Yushev/git/wpcqi-optiga-trust-charge/optiga/externals/mbedtls/library\cipher.c **** 
 372:C:/Users/Yushev/git/wpcqi-optiga-trust-charge/optiga/externals/mbedtls/library\cipher.c ****         if( 0 != ( ret = ctx->cipher_info->base->ecb_func( ctx->cipher_ctx,
 982              	 .loc 2 372 0
 983 0044 FB68     	 ldr r3,[r7,#12]
 984 0046 1B68     	 ldr r3,[r3]
 985 0048 9B69     	 ldr r3,[r3,#24]
 986 004a 5C68     	 ldr r4,[r3,#4]
 987 004c FB68     	 ldr r3,[r7,#12]
 988 004e 5A6B     	 ldr r2,[r3,#52]
 989 0050 FB68     	 ldr r3,[r7,#12]
 990 0052 1B7A     	 ldrb r3,[r3,#8]
 991 0054 5BB2     	 sxtb r3,r3
 992 0056 1046     	 mov r0,r2
 993 0058 1946     	 mov r1,r3
 994 005a BA68     	 ldr r2,[r7,#8]
 995 005c 3B68     	 ldr r3,[r7]
 996 005e A047     	 blx r4
 997 0060 3861     	 str r0,[r7,#16]
 998 0062 3B69     	 ldr r3,[r7,#16]
 999 0064 002B     	 cmp r3,#0
 1000 0066 01D0     	 beq .L72
 373:C:/Users/Yushev/git/wpcqi-optiga-trust-charge/optiga/externals/mbedtls/library\cipher.c ****                     ctx->operation, input, output ) ) )
 374:C:/Users/Yushev/git/wpcqi-optiga-trust-charge/optiga/externals/mbedtls/library\cipher.c ****         {
 375:C:/Users/Yushev/git/wpcqi-optiga-trust-charge/optiga/externals/mbedtls/library\cipher.c ****             return( ret );
 1001              	 .loc 2 375 0
 1002 0068 3B69     	 ldr r3,[r7,#16]
 1003 006a 1BE0     	 b .L69
 1004              	.L72:
 376:C:/Users/Yushev/git/wpcqi-optiga-trust-charge/optiga/externals/mbedtls/library\cipher.c ****         }
 377:C:/Users/Yushev/git/wpcqi-optiga-trust-charge/optiga/externals/mbedtls/library\cipher.c **** 
 378:C:/Users/Yushev/git/wpcqi-optiga-trust-charge/optiga/externals/mbedtls/library\cipher.c ****         return( 0 );
 1005              	 .loc 2 378 0
 1006 006c 0023     	 movs r3,#0
 1007 006e 19E0     	 b .L69
 1008              	.L70:
 379:C:/Users/Yushev/git/wpcqi-optiga-trust-charge/optiga/externals/mbedtls/library\cipher.c ****     }
 380:C:/Users/Yushev/git/wpcqi-optiga-trust-charge/optiga/externals/mbedtls/library\cipher.c **** 
 381:C:/Users/Yushev/git/wpcqi-optiga-trust-charge/optiga/externals/mbedtls/library\cipher.c **** #if defined(MBEDTLS_GCM_C)
 382:C:/Users/Yushev/git/wpcqi-optiga-trust-charge/optiga/externals/mbedtls/library\cipher.c ****     if( ctx->cipher_info->mode == MBEDTLS_MODE_GCM )
 383:C:/Users/Yushev/git/wpcqi-optiga-trust-charge/optiga/externals/mbedtls/library\cipher.c ****     {
 384:C:/Users/Yushev/git/wpcqi-optiga-trust-charge/optiga/externals/mbedtls/library\cipher.c ****         *olen = ilen;
 385:C:/Users/Yushev/git/wpcqi-optiga-trust-charge/optiga/externals/mbedtls/library\cipher.c ****         return( mbedtls_gcm_update( (mbedtls_gcm_context *) ctx->cipher_ctx, ilen, input,
 386:C:/Users/Yushev/git/wpcqi-optiga-trust-charge/optiga/externals/mbedtls/library\cipher.c ****                                     output ) );
 387:C:/Users/Yushev/git/wpcqi-optiga-trust-charge/optiga/externals/mbedtls/library\cipher.c ****     }
 388:C:/Users/Yushev/git/wpcqi-optiga-trust-charge/optiga/externals/mbedtls/library\cipher.c **** #endif
 389:C:/Users/Yushev/git/wpcqi-optiga-trust-charge/optiga/externals/mbedtls/library\cipher.c **** 
 390:C:/Users/Yushev/git/wpcqi-optiga-trust-charge/optiga/externals/mbedtls/library\cipher.c **** #if defined(MBEDTLS_CHACHAPOLY_C)
 391:C:/Users/Yushev/git/wpcqi-optiga-trust-charge/optiga/externals/mbedtls/library\cipher.c ****     if ( ctx->cipher_info->type == MBEDTLS_CIPHER_CHACHA20_POLY1305 )
 392:C:/Users/Yushev/git/wpcqi-optiga-trust-charge/optiga/externals/mbedtls/library\cipher.c ****     {
 393:C:/Users/Yushev/git/wpcqi-optiga-trust-charge/optiga/externals/mbedtls/library\cipher.c ****         *olen = ilen;
 394:C:/Users/Yushev/git/wpcqi-optiga-trust-charge/optiga/externals/mbedtls/library\cipher.c ****         return( mbedtls_chachapoly_update( (mbedtls_chachapoly_context*) ctx->cipher_ctx,
 395:C:/Users/Yushev/git/wpcqi-optiga-trust-charge/optiga/externals/mbedtls/library\cipher.c ****                                            ilen, input, output ) );
 396:C:/Users/Yushev/git/wpcqi-optiga-trust-charge/optiga/externals/mbedtls/library\cipher.c ****     }
 397:C:/Users/Yushev/git/wpcqi-optiga-trust-charge/optiga/externals/mbedtls/library\cipher.c **** #endif
 398:C:/Users/Yushev/git/wpcqi-optiga-trust-charge/optiga/externals/mbedtls/library\cipher.c **** 
 399:C:/Users/Yushev/git/wpcqi-optiga-trust-charge/optiga/externals/mbedtls/library\cipher.c ****     if ( 0 == block_size )
 1009              	 .loc 2 399 0
 1010 0070 7B69     	 ldr r3,[r7,#20]
 1011 0072 002B     	 cmp r3,#0
 1012 0074 01D1     	 bne .L73
 400:C:/Users/Yushev/git/wpcqi-optiga-trust-charge/optiga/externals/mbedtls/library\cipher.c ****     {
 401:C:/Users/Yushev/git/wpcqi-optiga-trust-charge/optiga/externals/mbedtls/library\cipher.c ****         return( MBEDTLS_ERR_CIPHER_INVALID_CONTEXT );
 1013              	 .loc 2 401 0
 1014 0076 0F4B     	 ldr r3,.L76+8
 1015 0078 14E0     	 b .L69
 1016              	.L73:
 402:C:/Users/Yushev/git/wpcqi-optiga-trust-charge/optiga/externals/mbedtls/library\cipher.c ****     }
 403:C:/Users/Yushev/git/wpcqi-optiga-trust-charge/optiga/externals/mbedtls/library\cipher.c **** 
 404:C:/Users/Yushev/git/wpcqi-optiga-trust-charge/optiga/externals/mbedtls/library\cipher.c ****     if( input == output &&
 1017              	 .loc 2 404 0
 1018 007a BA68     	 ldr r2,[r7,#8]
 1019 007c 3B68     	 ldr r3,[r7]
 1020 007e 9A42     	 cmp r2,r3
 1021 0080 0FD1     	 bne .L74
 405:C:/Users/Yushev/git/wpcqi-optiga-trust-charge/optiga/externals/mbedtls/library\cipher.c ****        ( ctx->unprocessed_len != 0 || ilen % block_size ) )
 1022              	 .loc 2 405 0 discriminator 1
 1023 0082 FB68     	 ldr r3,[r7,#12]
 1024 0084 DB69     	 ldr r3,[r3,#28]
 404:C:/Users/Yushev/git/wpcqi-optiga-trust-charge/optiga/externals/mbedtls/library\cipher.c ****        ( ctx->unprocessed_len != 0 || ilen % block_size ) )
 1025              	 .loc 2 404 0 discriminator 1
 1026 0086 002B     	 cmp r3,#0
 1027 0088 09D1     	 bne .L75
 1028              	 .loc 2 405 0
 1029 008a 7B68     	 ldr r3,[r7,#4]
 1030 008c 7A69     	 ldr r2,[r7,#20]
 1031 008e B3FBF2F2 	 udiv r2,r3,r2
 1032 0092 7969     	 ldr r1,[r7,#20]
 1033 0094 01FB02F2 	 mul r2,r1,r2
 1034 0098 9B1A     	 subs r3,r3,r2
 1035 009a 002B     	 cmp r3,#0
 1036 009c 01D0     	 beq .L74
 1037              	.L75:
 406:C:/Users/Yushev/git/wpcqi-optiga-trust-charge/optiga/externals/mbedtls/library\cipher.c ****     {
 407:C:/Users/Yushev/git/wpcqi-optiga-trust-charge/optiga/externals/mbedtls/library\cipher.c ****         return( MBEDTLS_ERR_CIPHER_BAD_INPUT_DATA );
 1038              	 .loc 2 407 0
 1039 009e 034B     	 ldr r3,.L76
 1040 00a0 00E0     	 b .L69
 1041              	.L74:
 408:C:/Users/Yushev/git/wpcqi-optiga-trust-charge/optiga/externals/mbedtls/library\cipher.c ****     }
 409:C:/Users/Yushev/git/wpcqi-optiga-trust-charge/optiga/externals/mbedtls/library\cipher.c **** 
 410:C:/Users/Yushev/git/wpcqi-optiga-trust-charge/optiga/externals/mbedtls/library\cipher.c **** #if defined(MBEDTLS_CIPHER_MODE_CBC)
 411:C:/Users/Yushev/git/wpcqi-optiga-trust-charge/optiga/externals/mbedtls/library\cipher.c ****     if( ctx->cipher_info->mode == MBEDTLS_MODE_CBC )
 412:C:/Users/Yushev/git/wpcqi-optiga-trust-charge/optiga/externals/mbedtls/library\cipher.c ****     {
 413:C:/Users/Yushev/git/wpcqi-optiga-trust-charge/optiga/externals/mbedtls/library\cipher.c ****         size_t copy_len = 0;
 414:C:/Users/Yushev/git/wpcqi-optiga-trust-charge/optiga/externals/mbedtls/library\cipher.c **** 
 415:C:/Users/Yushev/git/wpcqi-optiga-trust-charge/optiga/externals/mbedtls/library\cipher.c ****         /*
 416:C:/Users/Yushev/git/wpcqi-optiga-trust-charge/optiga/externals/mbedtls/library\cipher.c ****          * If there is not enough data for a full block, cache it.
 417:C:/Users/Yushev/git/wpcqi-optiga-trust-charge/optiga/externals/mbedtls/library\cipher.c ****          */
 418:C:/Users/Yushev/git/wpcqi-optiga-trust-charge/optiga/externals/mbedtls/library\cipher.c ****         if( ( ctx->operation == MBEDTLS_DECRYPT && NULL != ctx->add_padding &&
 419:C:/Users/Yushev/git/wpcqi-optiga-trust-charge/optiga/externals/mbedtls/library\cipher.c ****                 ilen <= block_size - ctx->unprocessed_len ) ||
 420:C:/Users/Yushev/git/wpcqi-optiga-trust-charge/optiga/externals/mbedtls/library\cipher.c ****             ( ctx->operation == MBEDTLS_DECRYPT && NULL == ctx->add_padding &&
 421:C:/Users/Yushev/git/wpcqi-optiga-trust-charge/optiga/externals/mbedtls/library\cipher.c ****                 ilen < block_size - ctx->unprocessed_len ) ||
 422:C:/Users/Yushev/git/wpcqi-optiga-trust-charge/optiga/externals/mbedtls/library\cipher.c ****              ( ctx->operation == MBEDTLS_ENCRYPT &&
 423:C:/Users/Yushev/git/wpcqi-optiga-trust-charge/optiga/externals/mbedtls/library\cipher.c ****                 ilen < block_size - ctx->unprocessed_len ) )
 424:C:/Users/Yushev/git/wpcqi-optiga-trust-charge/optiga/externals/mbedtls/library\cipher.c ****         {
 425:C:/Users/Yushev/git/wpcqi-optiga-trust-charge/optiga/externals/mbedtls/library\cipher.c ****             memcpy( &( ctx->unprocessed_data[ctx->unprocessed_len] ), input,
 426:C:/Users/Yushev/git/wpcqi-optiga-trust-charge/optiga/externals/mbedtls/library\cipher.c ****                     ilen );
 427:C:/Users/Yushev/git/wpcqi-optiga-trust-charge/optiga/externals/mbedtls/library\cipher.c **** 
 428:C:/Users/Yushev/git/wpcqi-optiga-trust-charge/optiga/externals/mbedtls/library\cipher.c ****             ctx->unprocessed_len += ilen;
 429:C:/Users/Yushev/git/wpcqi-optiga-trust-charge/optiga/externals/mbedtls/library\cipher.c ****             return( 0 );
 430:C:/Users/Yushev/git/wpcqi-optiga-trust-charge/optiga/externals/mbedtls/library\cipher.c ****         }
 431:C:/Users/Yushev/git/wpcqi-optiga-trust-charge/optiga/externals/mbedtls/library\cipher.c **** 
 432:C:/Users/Yushev/git/wpcqi-optiga-trust-charge/optiga/externals/mbedtls/library\cipher.c ****         /*
 433:C:/Users/Yushev/git/wpcqi-optiga-trust-charge/optiga/externals/mbedtls/library\cipher.c ****          * Process cached data first
 434:C:/Users/Yushev/git/wpcqi-optiga-trust-charge/optiga/externals/mbedtls/library\cipher.c ****          */
 435:C:/Users/Yushev/git/wpcqi-optiga-trust-charge/optiga/externals/mbedtls/library\cipher.c ****         if( 0 != ctx->unprocessed_len )
 436:C:/Users/Yushev/git/wpcqi-optiga-trust-charge/optiga/externals/mbedtls/library\cipher.c ****         {
 437:C:/Users/Yushev/git/wpcqi-optiga-trust-charge/optiga/externals/mbedtls/library\cipher.c ****             copy_len = block_size - ctx->unprocessed_len;
 438:C:/Users/Yushev/git/wpcqi-optiga-trust-charge/optiga/externals/mbedtls/library\cipher.c **** 
 439:C:/Users/Yushev/git/wpcqi-optiga-trust-charge/optiga/externals/mbedtls/library\cipher.c ****             memcpy( &( ctx->unprocessed_data[ctx->unprocessed_len] ), input,
 440:C:/Users/Yushev/git/wpcqi-optiga-trust-charge/optiga/externals/mbedtls/library\cipher.c ****                     copy_len );
 441:C:/Users/Yushev/git/wpcqi-optiga-trust-charge/optiga/externals/mbedtls/library\cipher.c **** 
 442:C:/Users/Yushev/git/wpcqi-optiga-trust-charge/optiga/externals/mbedtls/library\cipher.c ****             if( 0 != ( ret = ctx->cipher_info->base->cbc_func( ctx->cipher_ctx,
 443:C:/Users/Yushev/git/wpcqi-optiga-trust-charge/optiga/externals/mbedtls/library\cipher.c ****                     ctx->operation, block_size, ctx->iv,
 444:C:/Users/Yushev/git/wpcqi-optiga-trust-charge/optiga/externals/mbedtls/library\cipher.c ****                     ctx->unprocessed_data, output ) ) )
 445:C:/Users/Yushev/git/wpcqi-optiga-trust-charge/optiga/externals/mbedtls/library\cipher.c ****             {
 446:C:/Users/Yushev/git/wpcqi-optiga-trust-charge/optiga/externals/mbedtls/library\cipher.c ****                 return( ret );
 447:C:/Users/Yushev/git/wpcqi-optiga-trust-charge/optiga/externals/mbedtls/library\cipher.c ****             }
 448:C:/Users/Yushev/git/wpcqi-optiga-trust-charge/optiga/externals/mbedtls/library\cipher.c **** 
 449:C:/Users/Yushev/git/wpcqi-optiga-trust-charge/optiga/externals/mbedtls/library\cipher.c ****             *olen += block_size;
 450:C:/Users/Yushev/git/wpcqi-optiga-trust-charge/optiga/externals/mbedtls/library\cipher.c ****             output += block_size;
 451:C:/Users/Yushev/git/wpcqi-optiga-trust-charge/optiga/externals/mbedtls/library\cipher.c ****             ctx->unprocessed_len = 0;
 452:C:/Users/Yushev/git/wpcqi-optiga-trust-charge/optiga/externals/mbedtls/library\cipher.c **** 
 453:C:/Users/Yushev/git/wpcqi-optiga-trust-charge/optiga/externals/mbedtls/library\cipher.c ****             input += copy_len;
 454:C:/Users/Yushev/git/wpcqi-optiga-trust-charge/optiga/externals/mbedtls/library\cipher.c ****             ilen -= copy_len;
 455:C:/Users/Yushev/git/wpcqi-optiga-trust-charge/optiga/externals/mbedtls/library\cipher.c ****         }
 456:C:/Users/Yushev/git/wpcqi-optiga-trust-charge/optiga/externals/mbedtls/library\cipher.c **** 
 457:C:/Users/Yushev/git/wpcqi-optiga-trust-charge/optiga/externals/mbedtls/library\cipher.c ****         /*
 458:C:/Users/Yushev/git/wpcqi-optiga-trust-charge/optiga/externals/mbedtls/library\cipher.c ****          * Cache final, incomplete block
 459:C:/Users/Yushev/git/wpcqi-optiga-trust-charge/optiga/externals/mbedtls/library\cipher.c ****          */
 460:C:/Users/Yushev/git/wpcqi-optiga-trust-charge/optiga/externals/mbedtls/library\cipher.c ****         if( 0 != ilen )
 461:C:/Users/Yushev/git/wpcqi-optiga-trust-charge/optiga/externals/mbedtls/library\cipher.c ****         {
 462:C:/Users/Yushev/git/wpcqi-optiga-trust-charge/optiga/externals/mbedtls/library\cipher.c ****             if( 0 == block_size )
 463:C:/Users/Yushev/git/wpcqi-optiga-trust-charge/optiga/externals/mbedtls/library\cipher.c ****             {
 464:C:/Users/Yushev/git/wpcqi-optiga-trust-charge/optiga/externals/mbedtls/library\cipher.c ****                 return( MBEDTLS_ERR_CIPHER_INVALID_CONTEXT );
 465:C:/Users/Yushev/git/wpcqi-optiga-trust-charge/optiga/externals/mbedtls/library\cipher.c ****             }
 466:C:/Users/Yushev/git/wpcqi-optiga-trust-charge/optiga/externals/mbedtls/library\cipher.c **** 
 467:C:/Users/Yushev/git/wpcqi-optiga-trust-charge/optiga/externals/mbedtls/library\cipher.c ****             /* Encryption: only cache partial blocks
 468:C:/Users/Yushev/git/wpcqi-optiga-trust-charge/optiga/externals/mbedtls/library\cipher.c ****              * Decryption w/ padding: always keep at least one whole block
 469:C:/Users/Yushev/git/wpcqi-optiga-trust-charge/optiga/externals/mbedtls/library\cipher.c ****              * Decryption w/o padding: only cache partial blocks
 470:C:/Users/Yushev/git/wpcqi-optiga-trust-charge/optiga/externals/mbedtls/library\cipher.c ****              */
 471:C:/Users/Yushev/git/wpcqi-optiga-trust-charge/optiga/externals/mbedtls/library\cipher.c ****             copy_len = ilen % block_size;
 472:C:/Users/Yushev/git/wpcqi-optiga-trust-charge/optiga/externals/mbedtls/library\cipher.c ****             if( copy_len == 0 &&
 473:C:/Users/Yushev/git/wpcqi-optiga-trust-charge/optiga/externals/mbedtls/library\cipher.c ****                 ctx->operation == MBEDTLS_DECRYPT &&
 474:C:/Users/Yushev/git/wpcqi-optiga-trust-charge/optiga/externals/mbedtls/library\cipher.c ****                 NULL != ctx->add_padding)
 475:C:/Users/Yushev/git/wpcqi-optiga-trust-charge/optiga/externals/mbedtls/library\cipher.c ****             {
 476:C:/Users/Yushev/git/wpcqi-optiga-trust-charge/optiga/externals/mbedtls/library\cipher.c ****                 copy_len = block_size;
 477:C:/Users/Yushev/git/wpcqi-optiga-trust-charge/optiga/externals/mbedtls/library\cipher.c ****             }
 478:C:/Users/Yushev/git/wpcqi-optiga-trust-charge/optiga/externals/mbedtls/library\cipher.c **** 
 479:C:/Users/Yushev/git/wpcqi-optiga-trust-charge/optiga/externals/mbedtls/library\cipher.c ****             memcpy( ctx->unprocessed_data, &( input[ilen - copy_len] ),
 480:C:/Users/Yushev/git/wpcqi-optiga-trust-charge/optiga/externals/mbedtls/library\cipher.c ****                     copy_len );
 481:C:/Users/Yushev/git/wpcqi-optiga-trust-charge/optiga/externals/mbedtls/library\cipher.c **** 
 482:C:/Users/Yushev/git/wpcqi-optiga-trust-charge/optiga/externals/mbedtls/library\cipher.c ****             ctx->unprocessed_len += copy_len;
 483:C:/Users/Yushev/git/wpcqi-optiga-trust-charge/optiga/externals/mbedtls/library\cipher.c ****             ilen -= copy_len;
 484:C:/Users/Yushev/git/wpcqi-optiga-trust-charge/optiga/externals/mbedtls/library\cipher.c ****         }
 485:C:/Users/Yushev/git/wpcqi-optiga-trust-charge/optiga/externals/mbedtls/library\cipher.c **** 
 486:C:/Users/Yushev/git/wpcqi-optiga-trust-charge/optiga/externals/mbedtls/library\cipher.c ****         /*
 487:C:/Users/Yushev/git/wpcqi-optiga-trust-charge/optiga/externals/mbedtls/library\cipher.c ****          * Process remaining full blocks
 488:C:/Users/Yushev/git/wpcqi-optiga-trust-charge/optiga/externals/mbedtls/library\cipher.c ****          */
 489:C:/Users/Yushev/git/wpcqi-optiga-trust-charge/optiga/externals/mbedtls/library\cipher.c ****         if( ilen )
 490:C:/Users/Yushev/git/wpcqi-optiga-trust-charge/optiga/externals/mbedtls/library\cipher.c ****         {
 491:C:/Users/Yushev/git/wpcqi-optiga-trust-charge/optiga/externals/mbedtls/library\cipher.c ****             if( 0 != ( ret = ctx->cipher_info->base->cbc_func( ctx->cipher_ctx,
 492:C:/Users/Yushev/git/wpcqi-optiga-trust-charge/optiga/externals/mbedtls/library\cipher.c ****                     ctx->operation, ilen, ctx->iv, input, output ) ) )
 493:C:/Users/Yushev/git/wpcqi-optiga-trust-charge/optiga/externals/mbedtls/library\cipher.c ****             {
 494:C:/Users/Yushev/git/wpcqi-optiga-trust-charge/optiga/externals/mbedtls/library\cipher.c ****                 return( ret );
 495:C:/Users/Yushev/git/wpcqi-optiga-trust-charge/optiga/externals/mbedtls/library\cipher.c ****             }
 496:C:/Users/Yushev/git/wpcqi-optiga-trust-charge/optiga/externals/mbedtls/library\cipher.c **** 
 497:C:/Users/Yushev/git/wpcqi-optiga-trust-charge/optiga/externals/mbedtls/library\cipher.c ****             *olen += ilen;
 498:C:/Users/Yushev/git/wpcqi-optiga-trust-charge/optiga/externals/mbedtls/library\cipher.c ****         }
 499:C:/Users/Yushev/git/wpcqi-optiga-trust-charge/optiga/externals/mbedtls/library\cipher.c **** 
 500:C:/Users/Yushev/git/wpcqi-optiga-trust-charge/optiga/externals/mbedtls/library\cipher.c ****         return( 0 );
 501:C:/Users/Yushev/git/wpcqi-optiga-trust-charge/optiga/externals/mbedtls/library\cipher.c ****     }
 502:C:/Users/Yushev/git/wpcqi-optiga-trust-charge/optiga/externals/mbedtls/library\cipher.c **** #endif /* MBEDTLS_CIPHER_MODE_CBC */
 503:C:/Users/Yushev/git/wpcqi-optiga-trust-charge/optiga/externals/mbedtls/library\cipher.c **** 
 504:C:/Users/Yushev/git/wpcqi-optiga-trust-charge/optiga/externals/mbedtls/library\cipher.c **** #if defined(MBEDTLS_CIPHER_MODE_CFB)
 505:C:/Users/Yushev/git/wpcqi-optiga-trust-charge/optiga/externals/mbedtls/library\cipher.c ****     if( ctx->cipher_info->mode == MBEDTLS_MODE_CFB )
 506:C:/Users/Yushev/git/wpcqi-optiga-trust-charge/optiga/externals/mbedtls/library\cipher.c ****     {
 507:C:/Users/Yushev/git/wpcqi-optiga-trust-charge/optiga/externals/mbedtls/library\cipher.c ****         if( 0 != ( ret = ctx->cipher_info->base->cfb_func( ctx->cipher_ctx,
 508:C:/Users/Yushev/git/wpcqi-optiga-trust-charge/optiga/externals/mbedtls/library\cipher.c ****                 ctx->operation, ilen, &ctx->unprocessed_len, ctx->iv,
 509:C:/Users/Yushev/git/wpcqi-optiga-trust-charge/optiga/externals/mbedtls/library\cipher.c ****                 input, output ) ) )
 510:C:/Users/Yushev/git/wpcqi-optiga-trust-charge/optiga/externals/mbedtls/library\cipher.c ****         {
 511:C:/Users/Yushev/git/wpcqi-optiga-trust-charge/optiga/externals/mbedtls/library\cipher.c ****             return( ret );
 512:C:/Users/Yushev/git/wpcqi-optiga-trust-charge/optiga/externals/mbedtls/library\cipher.c ****         }
 513:C:/Users/Yushev/git/wpcqi-optiga-trust-charge/optiga/externals/mbedtls/library\cipher.c **** 
 514:C:/Users/Yushev/git/wpcqi-optiga-trust-charge/optiga/externals/mbedtls/library\cipher.c ****         *olen = ilen;
 515:C:/Users/Yushev/git/wpcqi-optiga-trust-charge/optiga/externals/mbedtls/library\cipher.c **** 
 516:C:/Users/Yushev/git/wpcqi-optiga-trust-charge/optiga/externals/mbedtls/library\cipher.c ****         return( 0 );
 517:C:/Users/Yushev/git/wpcqi-optiga-trust-charge/optiga/externals/mbedtls/library\cipher.c ****     }
 518:C:/Users/Yushev/git/wpcqi-optiga-trust-charge/optiga/externals/mbedtls/library\cipher.c **** #endif /* MBEDTLS_CIPHER_MODE_CFB */
 519:C:/Users/Yushev/git/wpcqi-optiga-trust-charge/optiga/externals/mbedtls/library\cipher.c **** 
 520:C:/Users/Yushev/git/wpcqi-optiga-trust-charge/optiga/externals/mbedtls/library\cipher.c **** #if defined(MBEDTLS_CIPHER_MODE_OFB)
 521:C:/Users/Yushev/git/wpcqi-optiga-trust-charge/optiga/externals/mbedtls/library\cipher.c ****     if( ctx->cipher_info->mode == MBEDTLS_MODE_OFB )
 522:C:/Users/Yushev/git/wpcqi-optiga-trust-charge/optiga/externals/mbedtls/library\cipher.c ****     {
 523:C:/Users/Yushev/git/wpcqi-optiga-trust-charge/optiga/externals/mbedtls/library\cipher.c ****         if( 0 != ( ret = ctx->cipher_info->base->ofb_func( ctx->cipher_ctx,
 524:C:/Users/Yushev/git/wpcqi-optiga-trust-charge/optiga/externals/mbedtls/library\cipher.c ****                 ilen, &ctx->unprocessed_len, ctx->iv, input, output ) ) )
 525:C:/Users/Yushev/git/wpcqi-optiga-trust-charge/optiga/externals/mbedtls/library\cipher.c ****         {
 526:C:/Users/Yushev/git/wpcqi-optiga-trust-charge/optiga/externals/mbedtls/library\cipher.c ****             return( ret );
 527:C:/Users/Yushev/git/wpcqi-optiga-trust-charge/optiga/externals/mbedtls/library\cipher.c ****         }
 528:C:/Users/Yushev/git/wpcqi-optiga-trust-charge/optiga/externals/mbedtls/library\cipher.c **** 
 529:C:/Users/Yushev/git/wpcqi-optiga-trust-charge/optiga/externals/mbedtls/library\cipher.c ****         *olen = ilen;
 530:C:/Users/Yushev/git/wpcqi-optiga-trust-charge/optiga/externals/mbedtls/library\cipher.c **** 
 531:C:/Users/Yushev/git/wpcqi-optiga-trust-charge/optiga/externals/mbedtls/library\cipher.c ****         return( 0 );
 532:C:/Users/Yushev/git/wpcqi-optiga-trust-charge/optiga/externals/mbedtls/library\cipher.c ****     }
 533:C:/Users/Yushev/git/wpcqi-optiga-trust-charge/optiga/externals/mbedtls/library\cipher.c **** #endif /* MBEDTLS_CIPHER_MODE_OFB */
 534:C:/Users/Yushev/git/wpcqi-optiga-trust-charge/optiga/externals/mbedtls/library\cipher.c **** 
 535:C:/Users/Yushev/git/wpcqi-optiga-trust-charge/optiga/externals/mbedtls/library\cipher.c **** #if defined(MBEDTLS_CIPHER_MODE_CTR)
 536:C:/Users/Yushev/git/wpcqi-optiga-trust-charge/optiga/externals/mbedtls/library\cipher.c ****     if( ctx->cipher_info->mode == MBEDTLS_MODE_CTR )
 537:C:/Users/Yushev/git/wpcqi-optiga-trust-charge/optiga/externals/mbedtls/library\cipher.c ****     {
 538:C:/Users/Yushev/git/wpcqi-optiga-trust-charge/optiga/externals/mbedtls/library\cipher.c ****         if( 0 != ( ret = ctx->cipher_info->base->ctr_func( ctx->cipher_ctx,
 539:C:/Users/Yushev/git/wpcqi-optiga-trust-charge/optiga/externals/mbedtls/library\cipher.c ****                 ilen, &ctx->unprocessed_len, ctx->iv,
 540:C:/Users/Yushev/git/wpcqi-optiga-trust-charge/optiga/externals/mbedtls/library\cipher.c ****                 ctx->unprocessed_data, input, output ) ) )
 541:C:/Users/Yushev/git/wpcqi-optiga-trust-charge/optiga/externals/mbedtls/library\cipher.c ****         {
 542:C:/Users/Yushev/git/wpcqi-optiga-trust-charge/optiga/externals/mbedtls/library\cipher.c ****             return( ret );
 543:C:/Users/Yushev/git/wpcqi-optiga-trust-charge/optiga/externals/mbedtls/library\cipher.c ****         }
 544:C:/Users/Yushev/git/wpcqi-optiga-trust-charge/optiga/externals/mbedtls/library\cipher.c **** 
 545:C:/Users/Yushev/git/wpcqi-optiga-trust-charge/optiga/externals/mbedtls/library\cipher.c ****         *olen = ilen;
 546:C:/Users/Yushev/git/wpcqi-optiga-trust-charge/optiga/externals/mbedtls/library\cipher.c **** 
 547:C:/Users/Yushev/git/wpcqi-optiga-trust-charge/optiga/externals/mbedtls/library\cipher.c ****         return( 0 );
 548:C:/Users/Yushev/git/wpcqi-optiga-trust-charge/optiga/externals/mbedtls/library\cipher.c ****     }
 549:C:/Users/Yushev/git/wpcqi-optiga-trust-charge/optiga/externals/mbedtls/library\cipher.c **** #endif /* MBEDTLS_CIPHER_MODE_CTR */
 550:C:/Users/Yushev/git/wpcqi-optiga-trust-charge/optiga/externals/mbedtls/library\cipher.c **** 
 551:C:/Users/Yushev/git/wpcqi-optiga-trust-charge/optiga/externals/mbedtls/library\cipher.c **** #if defined(MBEDTLS_CIPHER_MODE_XTS)
 552:C:/Users/Yushev/git/wpcqi-optiga-trust-charge/optiga/externals/mbedtls/library\cipher.c ****     if( ctx->cipher_info->mode == MBEDTLS_MODE_XTS )
 553:C:/Users/Yushev/git/wpcqi-optiga-trust-charge/optiga/externals/mbedtls/library\cipher.c ****     {
 554:C:/Users/Yushev/git/wpcqi-optiga-trust-charge/optiga/externals/mbedtls/library\cipher.c ****         if( ctx->unprocessed_len > 0 ) {
 555:C:/Users/Yushev/git/wpcqi-optiga-trust-charge/optiga/externals/mbedtls/library\cipher.c ****             /* We can only process an entire data unit at a time. */
 556:C:/Users/Yushev/git/wpcqi-optiga-trust-charge/optiga/externals/mbedtls/library\cipher.c ****             return( MBEDTLS_ERR_CIPHER_FEATURE_UNAVAILABLE );
 557:C:/Users/Yushev/git/wpcqi-optiga-trust-charge/optiga/externals/mbedtls/library\cipher.c ****         }
 558:C:/Users/Yushev/git/wpcqi-optiga-trust-charge/optiga/externals/mbedtls/library\cipher.c **** 
 559:C:/Users/Yushev/git/wpcqi-optiga-trust-charge/optiga/externals/mbedtls/library\cipher.c ****         ret = ctx->cipher_info->base->xts_func( ctx->cipher_ctx,
 560:C:/Users/Yushev/git/wpcqi-optiga-trust-charge/optiga/externals/mbedtls/library\cipher.c ****                 ctx->operation, ilen, ctx->iv, input, output );
 561:C:/Users/Yushev/git/wpcqi-optiga-trust-charge/optiga/externals/mbedtls/library\cipher.c ****         if( ret != 0 )
 562:C:/Users/Yushev/git/wpcqi-optiga-trust-charge/optiga/externals/mbedtls/library\cipher.c ****         {
 563:C:/Users/Yushev/git/wpcqi-optiga-trust-charge/optiga/externals/mbedtls/library\cipher.c ****             return( ret );
 564:C:/Users/Yushev/git/wpcqi-optiga-trust-charge/optiga/externals/mbedtls/library\cipher.c ****         }
 565:C:/Users/Yushev/git/wpcqi-optiga-trust-charge/optiga/externals/mbedtls/library\cipher.c **** 
 566:C:/Users/Yushev/git/wpcqi-optiga-trust-charge/optiga/externals/mbedtls/library\cipher.c ****         *olen = ilen;
 567:C:/Users/Yushev/git/wpcqi-optiga-trust-charge/optiga/externals/mbedtls/library\cipher.c **** 
 568:C:/Users/Yushev/git/wpcqi-optiga-trust-charge/optiga/externals/mbedtls/library\cipher.c ****         return( 0 );
 569:C:/Users/Yushev/git/wpcqi-optiga-trust-charge/optiga/externals/mbedtls/library\cipher.c ****     }
 570:C:/Users/Yushev/git/wpcqi-optiga-trust-charge/optiga/externals/mbedtls/library\cipher.c **** #endif /* MBEDTLS_CIPHER_MODE_XTS */
 571:C:/Users/Yushev/git/wpcqi-optiga-trust-charge/optiga/externals/mbedtls/library\cipher.c **** 
 572:C:/Users/Yushev/git/wpcqi-optiga-trust-charge/optiga/externals/mbedtls/library\cipher.c **** #if defined(MBEDTLS_CIPHER_MODE_STREAM)
 573:C:/Users/Yushev/git/wpcqi-optiga-trust-charge/optiga/externals/mbedtls/library\cipher.c ****     if( ctx->cipher_info->mode == MBEDTLS_MODE_STREAM )
 574:C:/Users/Yushev/git/wpcqi-optiga-trust-charge/optiga/externals/mbedtls/library\cipher.c ****     {
 575:C:/Users/Yushev/git/wpcqi-optiga-trust-charge/optiga/externals/mbedtls/library\cipher.c ****         if( 0 != ( ret = ctx->cipher_info->base->stream_func( ctx->cipher_ctx,
 576:C:/Users/Yushev/git/wpcqi-optiga-trust-charge/optiga/externals/mbedtls/library\cipher.c ****                                                     ilen, input, output ) ) )
 577:C:/Users/Yushev/git/wpcqi-optiga-trust-charge/optiga/externals/mbedtls/library\cipher.c ****         {
 578:C:/Users/Yushev/git/wpcqi-optiga-trust-charge/optiga/externals/mbedtls/library\cipher.c ****             return( ret );
 579:C:/Users/Yushev/git/wpcqi-optiga-trust-charge/optiga/externals/mbedtls/library\cipher.c ****         }
 580:C:/Users/Yushev/git/wpcqi-optiga-trust-charge/optiga/externals/mbedtls/library\cipher.c **** 
 581:C:/Users/Yushev/git/wpcqi-optiga-trust-charge/optiga/externals/mbedtls/library\cipher.c ****         *olen = ilen;
 582:C:/Users/Yushev/git/wpcqi-optiga-trust-charge/optiga/externals/mbedtls/library\cipher.c **** 
 583:C:/Users/Yushev/git/wpcqi-optiga-trust-charge/optiga/externals/mbedtls/library\cipher.c ****         return( 0 );
 584:C:/Users/Yushev/git/wpcqi-optiga-trust-charge/optiga/externals/mbedtls/library\cipher.c ****     }
 585:C:/Users/Yushev/git/wpcqi-optiga-trust-charge/optiga/externals/mbedtls/library\cipher.c **** #endif /* MBEDTLS_CIPHER_MODE_STREAM */
 586:C:/Users/Yushev/git/wpcqi-optiga-trust-charge/optiga/externals/mbedtls/library\cipher.c **** 
 587:C:/Users/Yushev/git/wpcqi-optiga-trust-charge/optiga/externals/mbedtls/library\cipher.c ****     return( MBEDTLS_ERR_CIPHER_FEATURE_UNAVAILABLE );
 1042              	 .loc 2 587 0
 1043 00a2 054B     	 ldr r3,.L76+12
 1044              	.L69:
 588:C:/Users/Yushev/git/wpcqi-optiga-trust-charge/optiga/externals/mbedtls/library\cipher.c **** }
 1045              	 .loc 2 588 0
 1046 00a4 1846     	 mov r0,r3
 1047 00a6 1C37     	 adds r7,r7,#28
 1048              	.LCFI63:
 1049              	 .cfi_def_cfa_offset 12
 1050 00a8 BD46     	 mov sp,r7
 1051              	.LCFI64:
 1052              	 .cfi_def_cfa_register 13
 1053              	 
 1054 00aa 90BD     	 pop {r4,r7,pc}
 1055              	.L77:
 1056              	 .align 2
 1057              	.L76:
 1058 00ac 009FFFFF 	 .word -24832
 1059 00b0 809DFFFF 	 .word -25216
 1060 00b4 809CFFFF 	 .word -25472
 1061 00b8 809FFFFF 	 .word -24704
 1062              	 .cfi_endproc
 1063              	.LFE17:
 1065              	 .section .text.mbedtls_cipher_finish,"ax",%progbits
 1066              	 .align 2
 1067              	 .global mbedtls_cipher_finish
 1068              	 .thumb
 1069              	 .thumb_func
 1071              	mbedtls_cipher_finish:
 1072              	.LFB18:
 589:C:/Users/Yushev/git/wpcqi-optiga-trust-charge/optiga/externals/mbedtls/library\cipher.c **** 
 590:C:/Users/Yushev/git/wpcqi-optiga-trust-charge/optiga/externals/mbedtls/library\cipher.c **** #if defined(MBEDTLS_CIPHER_MODE_WITH_PADDING)
 591:C:/Users/Yushev/git/wpcqi-optiga-trust-charge/optiga/externals/mbedtls/library\cipher.c **** #if defined(MBEDTLS_CIPHER_PADDING_PKCS7)
 592:C:/Users/Yushev/git/wpcqi-optiga-trust-charge/optiga/externals/mbedtls/library\cipher.c **** /*
 593:C:/Users/Yushev/git/wpcqi-optiga-trust-charge/optiga/externals/mbedtls/library\cipher.c ****  * PKCS7 (and PKCS5) padding: fill with ll bytes, with ll = padding_len
 594:C:/Users/Yushev/git/wpcqi-optiga-trust-charge/optiga/externals/mbedtls/library\cipher.c ****  */
 595:C:/Users/Yushev/git/wpcqi-optiga-trust-charge/optiga/externals/mbedtls/library\cipher.c **** static void add_pkcs_padding( unsigned char *output, size_t output_len,
 596:C:/Users/Yushev/git/wpcqi-optiga-trust-charge/optiga/externals/mbedtls/library\cipher.c ****         size_t data_len )
 597:C:/Users/Yushev/git/wpcqi-optiga-trust-charge/optiga/externals/mbedtls/library\cipher.c **** {
 598:C:/Users/Yushev/git/wpcqi-optiga-trust-charge/optiga/externals/mbedtls/library\cipher.c ****     size_t padding_len = output_len - data_len;
 599:C:/Users/Yushev/git/wpcqi-optiga-trust-charge/optiga/externals/mbedtls/library\cipher.c ****     unsigned char i;
 600:C:/Users/Yushev/git/wpcqi-optiga-trust-charge/optiga/externals/mbedtls/library\cipher.c **** 
 601:C:/Users/Yushev/git/wpcqi-optiga-trust-charge/optiga/externals/mbedtls/library\cipher.c ****     for( i = 0; i < padding_len; i++ )
 602:C:/Users/Yushev/git/wpcqi-optiga-trust-charge/optiga/externals/mbedtls/library\cipher.c ****         output[data_len + i] = (unsigned char) padding_len;
 603:C:/Users/Yushev/git/wpcqi-optiga-trust-charge/optiga/externals/mbedtls/library\cipher.c **** }
 604:C:/Users/Yushev/git/wpcqi-optiga-trust-charge/optiga/externals/mbedtls/library\cipher.c **** 
 605:C:/Users/Yushev/git/wpcqi-optiga-trust-charge/optiga/externals/mbedtls/library\cipher.c **** static int get_pkcs_padding( unsigned char *input, size_t input_len,
 606:C:/Users/Yushev/git/wpcqi-optiga-trust-charge/optiga/externals/mbedtls/library\cipher.c ****         size_t *data_len )
 607:C:/Users/Yushev/git/wpcqi-optiga-trust-charge/optiga/externals/mbedtls/library\cipher.c **** {
 608:C:/Users/Yushev/git/wpcqi-optiga-trust-charge/optiga/externals/mbedtls/library\cipher.c ****     size_t i, pad_idx;
 609:C:/Users/Yushev/git/wpcqi-optiga-trust-charge/optiga/externals/mbedtls/library\cipher.c ****     unsigned char padding_len, bad = 0;
 610:C:/Users/Yushev/git/wpcqi-optiga-trust-charge/optiga/externals/mbedtls/library\cipher.c **** 
 611:C:/Users/Yushev/git/wpcqi-optiga-trust-charge/optiga/externals/mbedtls/library\cipher.c ****     if( NULL == input || NULL == data_len )
 612:C:/Users/Yushev/git/wpcqi-optiga-trust-charge/optiga/externals/mbedtls/library\cipher.c ****         return( MBEDTLS_ERR_CIPHER_BAD_INPUT_DATA );
 613:C:/Users/Yushev/git/wpcqi-optiga-trust-charge/optiga/externals/mbedtls/library\cipher.c **** 
 614:C:/Users/Yushev/git/wpcqi-optiga-trust-charge/optiga/externals/mbedtls/library\cipher.c ****     padding_len = input[input_len - 1];
 615:C:/Users/Yushev/git/wpcqi-optiga-trust-charge/optiga/externals/mbedtls/library\cipher.c ****     *data_len = input_len - padding_len;
 616:C:/Users/Yushev/git/wpcqi-optiga-trust-charge/optiga/externals/mbedtls/library\cipher.c **** 
 617:C:/Users/Yushev/git/wpcqi-optiga-trust-charge/optiga/externals/mbedtls/library\cipher.c ****     /* Avoid logical || since it results in a branch */
 618:C:/Users/Yushev/git/wpcqi-optiga-trust-charge/optiga/externals/mbedtls/library\cipher.c ****     bad |= padding_len > input_len;
 619:C:/Users/Yushev/git/wpcqi-optiga-trust-charge/optiga/externals/mbedtls/library\cipher.c ****     bad |= padding_len == 0;
 620:C:/Users/Yushev/git/wpcqi-optiga-trust-charge/optiga/externals/mbedtls/library\cipher.c **** 
 621:C:/Users/Yushev/git/wpcqi-optiga-trust-charge/optiga/externals/mbedtls/library\cipher.c ****     /* The number of bytes checked must be independent of padding_len,
 622:C:/Users/Yushev/git/wpcqi-optiga-trust-charge/optiga/externals/mbedtls/library\cipher.c ****      * so pick input_len, which is usually 8 or 16 (one block) */
 623:C:/Users/Yushev/git/wpcqi-optiga-trust-charge/optiga/externals/mbedtls/library\cipher.c ****     pad_idx = input_len - padding_len;
 624:C:/Users/Yushev/git/wpcqi-optiga-trust-charge/optiga/externals/mbedtls/library\cipher.c ****     for( i = 0; i < input_len; i++ )
 625:C:/Users/Yushev/git/wpcqi-optiga-trust-charge/optiga/externals/mbedtls/library\cipher.c ****         bad |= ( input[i] ^ padding_len ) * ( i >= pad_idx );
 626:C:/Users/Yushev/git/wpcqi-optiga-trust-charge/optiga/externals/mbedtls/library\cipher.c **** 
 627:C:/Users/Yushev/git/wpcqi-optiga-trust-charge/optiga/externals/mbedtls/library\cipher.c ****     return( MBEDTLS_ERR_CIPHER_INVALID_PADDING * ( bad != 0 ) );
 628:C:/Users/Yushev/git/wpcqi-optiga-trust-charge/optiga/externals/mbedtls/library\cipher.c **** }
 629:C:/Users/Yushev/git/wpcqi-optiga-trust-charge/optiga/externals/mbedtls/library\cipher.c **** #endif /* MBEDTLS_CIPHER_PADDING_PKCS7 */
 630:C:/Users/Yushev/git/wpcqi-optiga-trust-charge/optiga/externals/mbedtls/library\cipher.c **** 
 631:C:/Users/Yushev/git/wpcqi-optiga-trust-charge/optiga/externals/mbedtls/library\cipher.c **** #if defined(MBEDTLS_CIPHER_PADDING_ONE_AND_ZEROS)
 632:C:/Users/Yushev/git/wpcqi-optiga-trust-charge/optiga/externals/mbedtls/library\cipher.c **** /*
 633:C:/Users/Yushev/git/wpcqi-optiga-trust-charge/optiga/externals/mbedtls/library\cipher.c ****  * One and zeros padding: fill with 80 00 ... 00
 634:C:/Users/Yushev/git/wpcqi-optiga-trust-charge/optiga/externals/mbedtls/library\cipher.c ****  */
 635:C:/Users/Yushev/git/wpcqi-optiga-trust-charge/optiga/externals/mbedtls/library\cipher.c **** static void add_one_and_zeros_padding( unsigned char *output,
 636:C:/Users/Yushev/git/wpcqi-optiga-trust-charge/optiga/externals/mbedtls/library\cipher.c ****                                        size_t output_len, size_t data_len )
 637:C:/Users/Yushev/git/wpcqi-optiga-trust-charge/optiga/externals/mbedtls/library\cipher.c **** {
 638:C:/Users/Yushev/git/wpcqi-optiga-trust-charge/optiga/externals/mbedtls/library\cipher.c ****     size_t padding_len = output_len - data_len;
 639:C:/Users/Yushev/git/wpcqi-optiga-trust-charge/optiga/externals/mbedtls/library\cipher.c ****     unsigned char i = 0;
 640:C:/Users/Yushev/git/wpcqi-optiga-trust-charge/optiga/externals/mbedtls/library\cipher.c **** 
 641:C:/Users/Yushev/git/wpcqi-optiga-trust-charge/optiga/externals/mbedtls/library\cipher.c ****     output[data_len] = 0x80;
 642:C:/Users/Yushev/git/wpcqi-optiga-trust-charge/optiga/externals/mbedtls/library\cipher.c ****     for( i = 1; i < padding_len; i++ )
 643:C:/Users/Yushev/git/wpcqi-optiga-trust-charge/optiga/externals/mbedtls/library\cipher.c ****         output[data_len + i] = 0x00;
 644:C:/Users/Yushev/git/wpcqi-optiga-trust-charge/optiga/externals/mbedtls/library\cipher.c **** }
 645:C:/Users/Yushev/git/wpcqi-optiga-trust-charge/optiga/externals/mbedtls/library\cipher.c **** 
 646:C:/Users/Yushev/git/wpcqi-optiga-trust-charge/optiga/externals/mbedtls/library\cipher.c **** static int get_one_and_zeros_padding( unsigned char *input, size_t input_len,
 647:C:/Users/Yushev/git/wpcqi-optiga-trust-charge/optiga/externals/mbedtls/library\cipher.c ****                                       size_t *data_len )
 648:C:/Users/Yushev/git/wpcqi-optiga-trust-charge/optiga/externals/mbedtls/library\cipher.c **** {
 649:C:/Users/Yushev/git/wpcqi-optiga-trust-charge/optiga/externals/mbedtls/library\cipher.c ****     size_t i;
 650:C:/Users/Yushev/git/wpcqi-optiga-trust-charge/optiga/externals/mbedtls/library\cipher.c ****     unsigned char done = 0, prev_done, bad;
 651:C:/Users/Yushev/git/wpcqi-optiga-trust-charge/optiga/externals/mbedtls/library\cipher.c **** 
 652:C:/Users/Yushev/git/wpcqi-optiga-trust-charge/optiga/externals/mbedtls/library\cipher.c ****     if( NULL == input || NULL == data_len )
 653:C:/Users/Yushev/git/wpcqi-optiga-trust-charge/optiga/externals/mbedtls/library\cipher.c ****         return( MBEDTLS_ERR_CIPHER_BAD_INPUT_DATA );
 654:C:/Users/Yushev/git/wpcqi-optiga-trust-charge/optiga/externals/mbedtls/library\cipher.c **** 
 655:C:/Users/Yushev/git/wpcqi-optiga-trust-charge/optiga/externals/mbedtls/library\cipher.c ****     bad = 0x80;
 656:C:/Users/Yushev/git/wpcqi-optiga-trust-charge/optiga/externals/mbedtls/library\cipher.c ****     *data_len = 0;
 657:C:/Users/Yushev/git/wpcqi-optiga-trust-charge/optiga/externals/mbedtls/library\cipher.c ****     for( i = input_len; i > 0; i-- )
 658:C:/Users/Yushev/git/wpcqi-optiga-trust-charge/optiga/externals/mbedtls/library\cipher.c ****     {
 659:C:/Users/Yushev/git/wpcqi-optiga-trust-charge/optiga/externals/mbedtls/library\cipher.c ****         prev_done = done;
 660:C:/Users/Yushev/git/wpcqi-optiga-trust-charge/optiga/externals/mbedtls/library\cipher.c ****         done |= ( input[i - 1] != 0 );
 661:C:/Users/Yushev/git/wpcqi-optiga-trust-charge/optiga/externals/mbedtls/library\cipher.c ****         *data_len |= ( i - 1 ) * ( done != prev_done );
 662:C:/Users/Yushev/git/wpcqi-optiga-trust-charge/optiga/externals/mbedtls/library\cipher.c ****         bad ^= input[i - 1] * ( done != prev_done );
 663:C:/Users/Yushev/git/wpcqi-optiga-trust-charge/optiga/externals/mbedtls/library\cipher.c ****     }
 664:C:/Users/Yushev/git/wpcqi-optiga-trust-charge/optiga/externals/mbedtls/library\cipher.c **** 
 665:C:/Users/Yushev/git/wpcqi-optiga-trust-charge/optiga/externals/mbedtls/library\cipher.c ****     return( MBEDTLS_ERR_CIPHER_INVALID_PADDING * ( bad != 0 ) );
 666:C:/Users/Yushev/git/wpcqi-optiga-trust-charge/optiga/externals/mbedtls/library\cipher.c **** 
 667:C:/Users/Yushev/git/wpcqi-optiga-trust-charge/optiga/externals/mbedtls/library\cipher.c **** }
 668:C:/Users/Yushev/git/wpcqi-optiga-trust-charge/optiga/externals/mbedtls/library\cipher.c **** #endif /* MBEDTLS_CIPHER_PADDING_ONE_AND_ZEROS */
 669:C:/Users/Yushev/git/wpcqi-optiga-trust-charge/optiga/externals/mbedtls/library\cipher.c **** 
 670:C:/Users/Yushev/git/wpcqi-optiga-trust-charge/optiga/externals/mbedtls/library\cipher.c **** #if defined(MBEDTLS_CIPHER_PADDING_ZEROS_AND_LEN)
 671:C:/Users/Yushev/git/wpcqi-optiga-trust-charge/optiga/externals/mbedtls/library\cipher.c **** /*
 672:C:/Users/Yushev/git/wpcqi-optiga-trust-charge/optiga/externals/mbedtls/library\cipher.c ****  * Zeros and len padding: fill with 00 ... 00 ll, where ll is padding length
 673:C:/Users/Yushev/git/wpcqi-optiga-trust-charge/optiga/externals/mbedtls/library\cipher.c ****  */
 674:C:/Users/Yushev/git/wpcqi-optiga-trust-charge/optiga/externals/mbedtls/library\cipher.c **** static void add_zeros_and_len_padding( unsigned char *output,
 675:C:/Users/Yushev/git/wpcqi-optiga-trust-charge/optiga/externals/mbedtls/library\cipher.c ****                                        size_t output_len, size_t data_len )
 676:C:/Users/Yushev/git/wpcqi-optiga-trust-charge/optiga/externals/mbedtls/library\cipher.c **** {
 677:C:/Users/Yushev/git/wpcqi-optiga-trust-charge/optiga/externals/mbedtls/library\cipher.c ****     size_t padding_len = output_len - data_len;
 678:C:/Users/Yushev/git/wpcqi-optiga-trust-charge/optiga/externals/mbedtls/library\cipher.c ****     unsigned char i = 0;
 679:C:/Users/Yushev/git/wpcqi-optiga-trust-charge/optiga/externals/mbedtls/library\cipher.c **** 
 680:C:/Users/Yushev/git/wpcqi-optiga-trust-charge/optiga/externals/mbedtls/library\cipher.c ****     for( i = 1; i < padding_len; i++ )
 681:C:/Users/Yushev/git/wpcqi-optiga-trust-charge/optiga/externals/mbedtls/library\cipher.c ****         output[data_len + i - 1] = 0x00;
 682:C:/Users/Yushev/git/wpcqi-optiga-trust-charge/optiga/externals/mbedtls/library\cipher.c ****     output[output_len - 1] = (unsigned char) padding_len;
 683:C:/Users/Yushev/git/wpcqi-optiga-trust-charge/optiga/externals/mbedtls/library\cipher.c **** }
 684:C:/Users/Yushev/git/wpcqi-optiga-trust-charge/optiga/externals/mbedtls/library\cipher.c **** 
 685:C:/Users/Yushev/git/wpcqi-optiga-trust-charge/optiga/externals/mbedtls/library\cipher.c **** static int get_zeros_and_len_padding( unsigned char *input, size_t input_len,
 686:C:/Users/Yushev/git/wpcqi-optiga-trust-charge/optiga/externals/mbedtls/library\cipher.c ****                                       size_t *data_len )
 687:C:/Users/Yushev/git/wpcqi-optiga-trust-charge/optiga/externals/mbedtls/library\cipher.c **** {
 688:C:/Users/Yushev/git/wpcqi-optiga-trust-charge/optiga/externals/mbedtls/library\cipher.c ****     size_t i, pad_idx;
 689:C:/Users/Yushev/git/wpcqi-optiga-trust-charge/optiga/externals/mbedtls/library\cipher.c ****     unsigned char padding_len, bad = 0;
 690:C:/Users/Yushev/git/wpcqi-optiga-trust-charge/optiga/externals/mbedtls/library\cipher.c **** 
 691:C:/Users/Yushev/git/wpcqi-optiga-trust-charge/optiga/externals/mbedtls/library\cipher.c ****     if( NULL == input || NULL == data_len )
 692:C:/Users/Yushev/git/wpcqi-optiga-trust-charge/optiga/externals/mbedtls/library\cipher.c ****         return( MBEDTLS_ERR_CIPHER_BAD_INPUT_DATA );
 693:C:/Users/Yushev/git/wpcqi-optiga-trust-charge/optiga/externals/mbedtls/library\cipher.c **** 
 694:C:/Users/Yushev/git/wpcqi-optiga-trust-charge/optiga/externals/mbedtls/library\cipher.c ****     padding_len = input[input_len - 1];
 695:C:/Users/Yushev/git/wpcqi-optiga-trust-charge/optiga/externals/mbedtls/library\cipher.c ****     *data_len = input_len - padding_len;
 696:C:/Users/Yushev/git/wpcqi-optiga-trust-charge/optiga/externals/mbedtls/library\cipher.c **** 
 697:C:/Users/Yushev/git/wpcqi-optiga-trust-charge/optiga/externals/mbedtls/library\cipher.c ****     /* Avoid logical || since it results in a branch */
 698:C:/Users/Yushev/git/wpcqi-optiga-trust-charge/optiga/externals/mbedtls/library\cipher.c ****     bad |= padding_len > input_len;
 699:C:/Users/Yushev/git/wpcqi-optiga-trust-charge/optiga/externals/mbedtls/library\cipher.c ****     bad |= padding_len == 0;
 700:C:/Users/Yushev/git/wpcqi-optiga-trust-charge/optiga/externals/mbedtls/library\cipher.c **** 
 701:C:/Users/Yushev/git/wpcqi-optiga-trust-charge/optiga/externals/mbedtls/library\cipher.c ****     /* The number of bytes checked must be independent of padding_len */
 702:C:/Users/Yushev/git/wpcqi-optiga-trust-charge/optiga/externals/mbedtls/library\cipher.c ****     pad_idx = input_len - padding_len;
 703:C:/Users/Yushev/git/wpcqi-optiga-trust-charge/optiga/externals/mbedtls/library\cipher.c ****     for( i = 0; i < input_len - 1; i++ )
 704:C:/Users/Yushev/git/wpcqi-optiga-trust-charge/optiga/externals/mbedtls/library\cipher.c ****         bad |= input[i] * ( i >= pad_idx );
 705:C:/Users/Yushev/git/wpcqi-optiga-trust-charge/optiga/externals/mbedtls/library\cipher.c **** 
 706:C:/Users/Yushev/git/wpcqi-optiga-trust-charge/optiga/externals/mbedtls/library\cipher.c ****     return( MBEDTLS_ERR_CIPHER_INVALID_PADDING * ( bad != 0 ) );
 707:C:/Users/Yushev/git/wpcqi-optiga-trust-charge/optiga/externals/mbedtls/library\cipher.c **** }
 708:C:/Users/Yushev/git/wpcqi-optiga-trust-charge/optiga/externals/mbedtls/library\cipher.c **** #endif /* MBEDTLS_CIPHER_PADDING_ZEROS_AND_LEN */
 709:C:/Users/Yushev/git/wpcqi-optiga-trust-charge/optiga/externals/mbedtls/library\cipher.c **** 
 710:C:/Users/Yushev/git/wpcqi-optiga-trust-charge/optiga/externals/mbedtls/library\cipher.c **** #if defined(MBEDTLS_CIPHER_PADDING_ZEROS)
 711:C:/Users/Yushev/git/wpcqi-optiga-trust-charge/optiga/externals/mbedtls/library\cipher.c **** /*
 712:C:/Users/Yushev/git/wpcqi-optiga-trust-charge/optiga/externals/mbedtls/library\cipher.c ****  * Zero padding: fill with 00 ... 00
 713:C:/Users/Yushev/git/wpcqi-optiga-trust-charge/optiga/externals/mbedtls/library\cipher.c ****  */
 714:C:/Users/Yushev/git/wpcqi-optiga-trust-charge/optiga/externals/mbedtls/library\cipher.c **** static void add_zeros_padding( unsigned char *output,
 715:C:/Users/Yushev/git/wpcqi-optiga-trust-charge/optiga/externals/mbedtls/library\cipher.c ****                                size_t output_len, size_t data_len )
 716:C:/Users/Yushev/git/wpcqi-optiga-trust-charge/optiga/externals/mbedtls/library\cipher.c **** {
 717:C:/Users/Yushev/git/wpcqi-optiga-trust-charge/optiga/externals/mbedtls/library\cipher.c ****     size_t i;
 718:C:/Users/Yushev/git/wpcqi-optiga-trust-charge/optiga/externals/mbedtls/library\cipher.c **** 
 719:C:/Users/Yushev/git/wpcqi-optiga-trust-charge/optiga/externals/mbedtls/library\cipher.c ****     for( i = data_len; i < output_len; i++ )
 720:C:/Users/Yushev/git/wpcqi-optiga-trust-charge/optiga/externals/mbedtls/library\cipher.c ****         output[i] = 0x00;
 721:C:/Users/Yushev/git/wpcqi-optiga-trust-charge/optiga/externals/mbedtls/library\cipher.c **** }
 722:C:/Users/Yushev/git/wpcqi-optiga-trust-charge/optiga/externals/mbedtls/library\cipher.c **** 
 723:C:/Users/Yushev/git/wpcqi-optiga-trust-charge/optiga/externals/mbedtls/library\cipher.c **** static int get_zeros_padding( unsigned char *input, size_t input_len,
 724:C:/Users/Yushev/git/wpcqi-optiga-trust-charge/optiga/externals/mbedtls/library\cipher.c ****                               size_t *data_len )
 725:C:/Users/Yushev/git/wpcqi-optiga-trust-charge/optiga/externals/mbedtls/library\cipher.c **** {
 726:C:/Users/Yushev/git/wpcqi-optiga-trust-charge/optiga/externals/mbedtls/library\cipher.c ****     size_t i;
 727:C:/Users/Yushev/git/wpcqi-optiga-trust-charge/optiga/externals/mbedtls/library\cipher.c ****     unsigned char done = 0, prev_done;
 728:C:/Users/Yushev/git/wpcqi-optiga-trust-charge/optiga/externals/mbedtls/library\cipher.c **** 
 729:C:/Users/Yushev/git/wpcqi-optiga-trust-charge/optiga/externals/mbedtls/library\cipher.c ****     if( NULL == input || NULL == data_len )
 730:C:/Users/Yushev/git/wpcqi-optiga-trust-charge/optiga/externals/mbedtls/library\cipher.c ****         return( MBEDTLS_ERR_CIPHER_BAD_INPUT_DATA );
 731:C:/Users/Yushev/git/wpcqi-optiga-trust-charge/optiga/externals/mbedtls/library\cipher.c **** 
 732:C:/Users/Yushev/git/wpcqi-optiga-trust-charge/optiga/externals/mbedtls/library\cipher.c ****     *data_len = 0;
 733:C:/Users/Yushev/git/wpcqi-optiga-trust-charge/optiga/externals/mbedtls/library\cipher.c ****     for( i = input_len; i > 0; i-- )
 734:C:/Users/Yushev/git/wpcqi-optiga-trust-charge/optiga/externals/mbedtls/library\cipher.c ****     {
 735:C:/Users/Yushev/git/wpcqi-optiga-trust-charge/optiga/externals/mbedtls/library\cipher.c ****         prev_done = done;
 736:C:/Users/Yushev/git/wpcqi-optiga-trust-charge/optiga/externals/mbedtls/library\cipher.c ****         done |= ( input[i-1] != 0 );
 737:C:/Users/Yushev/git/wpcqi-optiga-trust-charge/optiga/externals/mbedtls/library\cipher.c ****         *data_len |= i * ( done != prev_done );
 738:C:/Users/Yushev/git/wpcqi-optiga-trust-charge/optiga/externals/mbedtls/library\cipher.c ****     }
 739:C:/Users/Yushev/git/wpcqi-optiga-trust-charge/optiga/externals/mbedtls/library\cipher.c **** 
 740:C:/Users/Yushev/git/wpcqi-optiga-trust-charge/optiga/externals/mbedtls/library\cipher.c ****     return( 0 );
 741:C:/Users/Yushev/git/wpcqi-optiga-trust-charge/optiga/externals/mbedtls/library\cipher.c **** }
 742:C:/Users/Yushev/git/wpcqi-optiga-trust-charge/optiga/externals/mbedtls/library\cipher.c **** #endif /* MBEDTLS_CIPHER_PADDING_ZEROS */
 743:C:/Users/Yushev/git/wpcqi-optiga-trust-charge/optiga/externals/mbedtls/library\cipher.c **** 
 744:C:/Users/Yushev/git/wpcqi-optiga-trust-charge/optiga/externals/mbedtls/library\cipher.c **** /*
 745:C:/Users/Yushev/git/wpcqi-optiga-trust-charge/optiga/externals/mbedtls/library\cipher.c ****  * No padding: don't pad :)
 746:C:/Users/Yushev/git/wpcqi-optiga-trust-charge/optiga/externals/mbedtls/library\cipher.c ****  *
 747:C:/Users/Yushev/git/wpcqi-optiga-trust-charge/optiga/externals/mbedtls/library\cipher.c ****  * There is no add_padding function (check for NULL in mbedtls_cipher_finish)
 748:C:/Users/Yushev/git/wpcqi-optiga-trust-charge/optiga/externals/mbedtls/library\cipher.c ****  * but a trivial get_padding function
 749:C:/Users/Yushev/git/wpcqi-optiga-trust-charge/optiga/externals/mbedtls/library\cipher.c ****  */
 750:C:/Users/Yushev/git/wpcqi-optiga-trust-charge/optiga/externals/mbedtls/library\cipher.c **** static int get_no_padding( unsigned char *input, size_t input_len,
 751:C:/Users/Yushev/git/wpcqi-optiga-trust-charge/optiga/externals/mbedtls/library\cipher.c ****                               size_t *data_len )
 752:C:/Users/Yushev/git/wpcqi-optiga-trust-charge/optiga/externals/mbedtls/library\cipher.c **** {
 753:C:/Users/Yushev/git/wpcqi-optiga-trust-charge/optiga/externals/mbedtls/library\cipher.c ****     if( NULL == input || NULL == data_len )
 754:C:/Users/Yushev/git/wpcqi-optiga-trust-charge/optiga/externals/mbedtls/library\cipher.c ****         return( MBEDTLS_ERR_CIPHER_BAD_INPUT_DATA );
 755:C:/Users/Yushev/git/wpcqi-optiga-trust-charge/optiga/externals/mbedtls/library\cipher.c **** 
 756:C:/Users/Yushev/git/wpcqi-optiga-trust-charge/optiga/externals/mbedtls/library\cipher.c ****     *data_len = input_len;
 757:C:/Users/Yushev/git/wpcqi-optiga-trust-charge/optiga/externals/mbedtls/library\cipher.c **** 
 758:C:/Users/Yushev/git/wpcqi-optiga-trust-charge/optiga/externals/mbedtls/library\cipher.c ****     return( 0 );
 759:C:/Users/Yushev/git/wpcqi-optiga-trust-charge/optiga/externals/mbedtls/library\cipher.c **** }
 760:C:/Users/Yushev/git/wpcqi-optiga-trust-charge/optiga/externals/mbedtls/library\cipher.c **** #endif /* MBEDTLS_CIPHER_MODE_WITH_PADDING */
 761:C:/Users/Yushev/git/wpcqi-optiga-trust-charge/optiga/externals/mbedtls/library\cipher.c **** 
 762:C:/Users/Yushev/git/wpcqi-optiga-trust-charge/optiga/externals/mbedtls/library\cipher.c **** int mbedtls_cipher_finish( mbedtls_cipher_context_t *ctx,
 763:C:/Users/Yushev/git/wpcqi-optiga-trust-charge/optiga/externals/mbedtls/library\cipher.c ****                    unsigned char *output, size_t *olen )
 764:C:/Users/Yushev/git/wpcqi-optiga-trust-charge/optiga/externals/mbedtls/library\cipher.c **** {
 1073              	 .loc 2 764 0
 1074              	 .cfi_startproc
 1075              	 
 1076              	 
 1077              	 
 1078 0000 80B4     	 push {r7}
 1079              	.LCFI65:
 1080              	 .cfi_def_cfa_offset 4
 1081              	 .cfi_offset 7,-4
 1082 0002 85B0     	 sub sp,sp,#20
 1083              	.LCFI66:
 1084              	 .cfi_def_cfa_offset 24
 1085 0004 00AF     	 add r7,sp,#0
 1086              	.LCFI67:
 1087              	 .cfi_def_cfa_register 7
 1088 0006 F860     	 str r0,[r7,#12]
 1089 0008 B960     	 str r1,[r7,#8]
 1090 000a 7A60     	 str r2,[r7,#4]
 765:C:/Users/Yushev/git/wpcqi-optiga-trust-charge/optiga/externals/mbedtls/library\cipher.c ****     CIPHER_VALIDATE_RET( ctx != NULL );
 766:C:/Users/Yushev/git/wpcqi-optiga-trust-charge/optiga/externals/mbedtls/library\cipher.c ****     CIPHER_VALIDATE_RET( output != NULL );
 767:C:/Users/Yushev/git/wpcqi-optiga-trust-charge/optiga/externals/mbedtls/library\cipher.c ****     CIPHER_VALIDATE_RET( olen != NULL );
 768:C:/Users/Yushev/git/wpcqi-optiga-trust-charge/optiga/externals/mbedtls/library\cipher.c ****     if( ctx->cipher_info == NULL )
 1091              	 .loc 2 768 0
 1092 000c FB68     	 ldr r3,[r7,#12]
 1093 000e 1B68     	 ldr r3,[r3]
 1094 0010 002B     	 cmp r3,#0
 1095 0012 01D1     	 bne .L79
 769:C:/Users/Yushev/git/wpcqi-optiga-trust-charge/optiga/externals/mbedtls/library\cipher.c ****         return( MBEDTLS_ERR_CIPHER_BAD_INPUT_DATA );
 1096              	 .loc 2 769 0
 1097 0014 224B     	 ldr r3,.L87
 1098 0016 3CE0     	 b .L80
 1099              	.L79:
 770:C:/Users/Yushev/git/wpcqi-optiga-trust-charge/optiga/externals/mbedtls/library\cipher.c **** 
 771:C:/Users/Yushev/git/wpcqi-optiga-trust-charge/optiga/externals/mbedtls/library\cipher.c ****     *olen = 0;
 1100              	 .loc 2 771 0
 1101 0018 7B68     	 ldr r3,[r7,#4]
 1102 001a 0022     	 movs r2,#0
 1103 001c 1A60     	 str r2,[r3]
 772:C:/Users/Yushev/git/wpcqi-optiga-trust-charge/optiga/externals/mbedtls/library\cipher.c **** 
 773:C:/Users/Yushev/git/wpcqi-optiga-trust-charge/optiga/externals/mbedtls/library\cipher.c ****     if( MBEDTLS_MODE_CFB == ctx->cipher_info->mode ||
 1104              	 .loc 2 773 0
 1105 001e FB68     	 ldr r3,[r7,#12]
 1106 0020 1B68     	 ldr r3,[r3]
 1107 0022 5B78     	 ldrb r3,[r3,#1]
 1108 0024 032B     	 cmp r3,#3
 1109 0026 18D0     	 beq .L81
 774:C:/Users/Yushev/git/wpcqi-optiga-trust-charge/optiga/externals/mbedtls/library\cipher.c ****         MBEDTLS_MODE_OFB == ctx->cipher_info->mode ||
 1110              	 .loc 2 774 0 discriminator 1
 1111 0028 FB68     	 ldr r3,[r7,#12]
 1112 002a 1B68     	 ldr r3,[r3]
 1113 002c 5B78     	 ldrb r3,[r3,#1]
 773:C:/Users/Yushev/git/wpcqi-optiga-trust-charge/optiga/externals/mbedtls/library\cipher.c ****         MBEDTLS_MODE_OFB == ctx->cipher_info->mode ||
 1114              	 .loc 2 773 0 discriminator 1
 1115 002e 042B     	 cmp r3,#4
 1116 0030 13D0     	 beq .L81
 775:C:/Users/Yushev/git/wpcqi-optiga-trust-charge/optiga/externals/mbedtls/library\cipher.c ****         MBEDTLS_MODE_CTR == ctx->cipher_info->mode ||
 1117              	 .loc 2 775 0
 1118 0032 FB68     	 ldr r3,[r7,#12]
 1119 0034 1B68     	 ldr r3,[r3]
 1120 0036 5B78     	 ldrb r3,[r3,#1]
 774:C:/Users/Yushev/git/wpcqi-optiga-trust-charge/optiga/externals/mbedtls/library\cipher.c ****         MBEDTLS_MODE_OFB == ctx->cipher_info->mode ||
 1121              	 .loc 2 774 0
 1122 0038 052B     	 cmp r3,#5
 1123 003a 0ED0     	 beq .L81
 776:C:/Users/Yushev/git/wpcqi-optiga-trust-charge/optiga/externals/mbedtls/library\cipher.c ****         MBEDTLS_MODE_GCM == ctx->cipher_info->mode ||
 1124              	 .loc 2 776 0
 1125 003c FB68     	 ldr r3,[r7,#12]
 1126 003e 1B68     	 ldr r3,[r3]
 1127 0040 5B78     	 ldrb r3,[r3,#1]
 775:C:/Users/Yushev/git/wpcqi-optiga-trust-charge/optiga/externals/mbedtls/library\cipher.c ****         MBEDTLS_MODE_CTR == ctx->cipher_info->mode ||
 1128              	 .loc 2 775 0
 1129 0042 062B     	 cmp r3,#6
 1130 0044 09D0     	 beq .L81
 777:C:/Users/Yushev/git/wpcqi-optiga-trust-charge/optiga/externals/mbedtls/library\cipher.c ****         MBEDTLS_MODE_XTS == ctx->cipher_info->mode ||
 1131              	 .loc 2 777 0
 1132 0046 FB68     	 ldr r3,[r7,#12]
 1133 0048 1B68     	 ldr r3,[r3]
 1134 004a 5B78     	 ldrb r3,[r3,#1]
 776:C:/Users/Yushev/git/wpcqi-optiga-trust-charge/optiga/externals/mbedtls/library\cipher.c ****         MBEDTLS_MODE_GCM == ctx->cipher_info->mode ||
 1135              	 .loc 2 776 0
 1136 004c 092B     	 cmp r3,#9
 1137 004e 04D0     	 beq .L81
 778:C:/Users/Yushev/git/wpcqi-optiga-trust-charge/optiga/externals/mbedtls/library\cipher.c ****         MBEDTLS_MODE_STREAM == ctx->cipher_info->mode )
 1138              	 .loc 2 778 0
 1139 0050 FB68     	 ldr r3,[r7,#12]
 1140 0052 1B68     	 ldr r3,[r3]
 1141 0054 5B78     	 ldrb r3,[r3,#1]
 777:C:/Users/Yushev/git/wpcqi-optiga-trust-charge/optiga/externals/mbedtls/library\cipher.c ****         MBEDTLS_MODE_XTS == ctx->cipher_info->mode ||
 1142              	 .loc 2 777 0
 1143 0056 072B     	 cmp r3,#7
 1144 0058 01D1     	 bne .L82
 1145              	.L81:
 779:C:/Users/Yushev/git/wpcqi-optiga-trust-charge/optiga/externals/mbedtls/library\cipher.c ****     {
 780:C:/Users/Yushev/git/wpcqi-optiga-trust-charge/optiga/externals/mbedtls/library\cipher.c ****         return( 0 );
 1146              	 .loc 2 780 0
 1147 005a 0023     	 movs r3,#0
 1148 005c 19E0     	 b .L80
 1149              	.L82:
 781:C:/Users/Yushev/git/wpcqi-optiga-trust-charge/optiga/externals/mbedtls/library\cipher.c ****     }
 782:C:/Users/Yushev/git/wpcqi-optiga-trust-charge/optiga/externals/mbedtls/library\cipher.c **** 
 783:C:/Users/Yushev/git/wpcqi-optiga-trust-charge/optiga/externals/mbedtls/library\cipher.c ****     if ( ( MBEDTLS_CIPHER_CHACHA20          == ctx->cipher_info->type ) ||
 1150              	 .loc 2 783 0
 1151 005e FB68     	 ldr r3,[r7,#12]
 1152 0060 1B68     	 ldr r3,[r3]
 1153 0062 1B78     	 ldrb r3,[r3]
 1154 0064 482B     	 cmp r3,#72
 1155 0066 04D0     	 beq .L83
 784:C:/Users/Yushev/git/wpcqi-optiga-trust-charge/optiga/externals/mbedtls/library\cipher.c ****          ( MBEDTLS_CIPHER_CHACHA20_POLY1305 == ctx->cipher_info->type ) )
 1156              	 .loc 2 784 0 discriminator 1
 1157 0068 FB68     	 ldr r3,[r7,#12]
 1158 006a 1B68     	 ldr r3,[r3]
 1159 006c 1B78     	 ldrb r3,[r3]
 783:C:/Users/Yushev/git/wpcqi-optiga-trust-charge/optiga/externals/mbedtls/library\cipher.c ****          ( MBEDTLS_CIPHER_CHACHA20_POLY1305 == ctx->cipher_info->type ) )
 1160              	 .loc 2 783 0 discriminator 1
 1161 006e 492B     	 cmp r3,#73
 1162 0070 01D1     	 bne .L84
 1163              	.L83:
 785:C:/Users/Yushev/git/wpcqi-optiga-trust-charge/optiga/externals/mbedtls/library\cipher.c ****     {
 786:C:/Users/Yushev/git/wpcqi-optiga-trust-charge/optiga/externals/mbedtls/library\cipher.c ****         return( 0 );
 1164              	 .loc 2 786 0
 1165 0072 0023     	 movs r3,#0
 1166 0074 0DE0     	 b .L80
 1167              	.L84:
 787:C:/Users/Yushev/git/wpcqi-optiga-trust-charge/optiga/externals/mbedtls/library\cipher.c ****     }
 788:C:/Users/Yushev/git/wpcqi-optiga-trust-charge/optiga/externals/mbedtls/library\cipher.c **** 
 789:C:/Users/Yushev/git/wpcqi-optiga-trust-charge/optiga/externals/mbedtls/library\cipher.c ****     if( MBEDTLS_MODE_ECB == ctx->cipher_info->mode )
 1168              	 .loc 2 789 0
 1169 0076 FB68     	 ldr r3,[r7,#12]
 1170 0078 1B68     	 ldr r3,[r3]
 1171 007a 5B78     	 ldrb r3,[r3,#1]
 1172 007c 012B     	 cmp r3,#1
 1173 007e 07D1     	 bne .L85
 790:C:/Users/Yushev/git/wpcqi-optiga-trust-charge/optiga/externals/mbedtls/library\cipher.c ****     {
 791:C:/Users/Yushev/git/wpcqi-optiga-trust-charge/optiga/externals/mbedtls/library\cipher.c ****         if( ctx->unprocessed_len != 0 )
 1174              	 .loc 2 791 0
 1175 0080 FB68     	 ldr r3,[r7,#12]
 1176 0082 DB69     	 ldr r3,[r3,#28]
 1177 0084 002B     	 cmp r3,#0
 1178 0086 01D0     	 beq .L86
 792:C:/Users/Yushev/git/wpcqi-optiga-trust-charge/optiga/externals/mbedtls/library\cipher.c ****             return( MBEDTLS_ERR_CIPHER_FULL_BLOCK_EXPECTED );
 1179              	 .loc 2 792 0
 1180 0088 064B     	 ldr r3,.L87+4
 1181 008a 02E0     	 b .L80
 1182              	.L86:
 793:C:/Users/Yushev/git/wpcqi-optiga-trust-charge/optiga/externals/mbedtls/library\cipher.c **** 
 794:C:/Users/Yushev/git/wpcqi-optiga-trust-charge/optiga/externals/mbedtls/library\cipher.c ****         return( 0 );
 1183              	 .loc 2 794 0
 1184 008c 0023     	 movs r3,#0
 1185 008e 00E0     	 b .L80
 1186              	.L85:
 795:C:/Users/Yushev/git/wpcqi-optiga-trust-charge/optiga/externals/mbedtls/library\cipher.c ****     }
 796:C:/Users/Yushev/git/wpcqi-optiga-trust-charge/optiga/externals/mbedtls/library\cipher.c **** 
 797:C:/Users/Yushev/git/wpcqi-optiga-trust-charge/optiga/externals/mbedtls/library\cipher.c **** #if defined(MBEDTLS_CIPHER_MODE_CBC)
 798:C:/Users/Yushev/git/wpcqi-optiga-trust-charge/optiga/externals/mbedtls/library\cipher.c ****     if( MBEDTLS_MODE_CBC == ctx->cipher_info->mode )
 799:C:/Users/Yushev/git/wpcqi-optiga-trust-charge/optiga/externals/mbedtls/library\cipher.c ****     {
 800:C:/Users/Yushev/git/wpcqi-optiga-trust-charge/optiga/externals/mbedtls/library\cipher.c ****         int ret = 0;
 801:C:/Users/Yushev/git/wpcqi-optiga-trust-charge/optiga/externals/mbedtls/library\cipher.c **** 
 802:C:/Users/Yushev/git/wpcqi-optiga-trust-charge/optiga/externals/mbedtls/library\cipher.c ****         if( MBEDTLS_ENCRYPT == ctx->operation )
 803:C:/Users/Yushev/git/wpcqi-optiga-trust-charge/optiga/externals/mbedtls/library\cipher.c ****         {
 804:C:/Users/Yushev/git/wpcqi-optiga-trust-charge/optiga/externals/mbedtls/library\cipher.c ****             /* check for 'no padding' mode */
 805:C:/Users/Yushev/git/wpcqi-optiga-trust-charge/optiga/externals/mbedtls/library\cipher.c ****             if( NULL == ctx->add_padding )
 806:C:/Users/Yushev/git/wpcqi-optiga-trust-charge/optiga/externals/mbedtls/library\cipher.c ****             {
 807:C:/Users/Yushev/git/wpcqi-optiga-trust-charge/optiga/externals/mbedtls/library\cipher.c ****                 if( 0 != ctx->unprocessed_len )
 808:C:/Users/Yushev/git/wpcqi-optiga-trust-charge/optiga/externals/mbedtls/library\cipher.c ****                     return( MBEDTLS_ERR_CIPHER_FULL_BLOCK_EXPECTED );
 809:C:/Users/Yushev/git/wpcqi-optiga-trust-charge/optiga/externals/mbedtls/library\cipher.c **** 
 810:C:/Users/Yushev/git/wpcqi-optiga-trust-charge/optiga/externals/mbedtls/library\cipher.c ****                 return( 0 );
 811:C:/Users/Yushev/git/wpcqi-optiga-trust-charge/optiga/externals/mbedtls/library\cipher.c ****             }
 812:C:/Users/Yushev/git/wpcqi-optiga-trust-charge/optiga/externals/mbedtls/library\cipher.c **** 
 813:C:/Users/Yushev/git/wpcqi-optiga-trust-charge/optiga/externals/mbedtls/library\cipher.c ****             ctx->add_padding( ctx->unprocessed_data, mbedtls_cipher_get_iv_size( ctx ),
 814:C:/Users/Yushev/git/wpcqi-optiga-trust-charge/optiga/externals/mbedtls/library\cipher.c ****                     ctx->unprocessed_len );
 815:C:/Users/Yushev/git/wpcqi-optiga-trust-charge/optiga/externals/mbedtls/library\cipher.c ****         }
 816:C:/Users/Yushev/git/wpcqi-optiga-trust-charge/optiga/externals/mbedtls/library\cipher.c ****         else if( mbedtls_cipher_get_block_size( ctx ) != ctx->unprocessed_len )
 817:C:/Users/Yushev/git/wpcqi-optiga-trust-charge/optiga/externals/mbedtls/library\cipher.c ****         {
 818:C:/Users/Yushev/git/wpcqi-optiga-trust-charge/optiga/externals/mbedtls/library\cipher.c ****             /*
 819:C:/Users/Yushev/git/wpcqi-optiga-trust-charge/optiga/externals/mbedtls/library\cipher.c ****              * For decrypt operations, expect a full block,
 820:C:/Users/Yushev/git/wpcqi-optiga-trust-charge/optiga/externals/mbedtls/library\cipher.c ****              * or an empty block if no padding
 821:C:/Users/Yushev/git/wpcqi-optiga-trust-charge/optiga/externals/mbedtls/library\cipher.c ****              */
 822:C:/Users/Yushev/git/wpcqi-optiga-trust-charge/optiga/externals/mbedtls/library\cipher.c ****             if( NULL == ctx->add_padding && 0 == ctx->unprocessed_len )
 823:C:/Users/Yushev/git/wpcqi-optiga-trust-charge/optiga/externals/mbedtls/library\cipher.c ****                 return( 0 );
 824:C:/Users/Yushev/git/wpcqi-optiga-trust-charge/optiga/externals/mbedtls/library\cipher.c **** 
 825:C:/Users/Yushev/git/wpcqi-optiga-trust-charge/optiga/externals/mbedtls/library\cipher.c ****             return( MBEDTLS_ERR_CIPHER_FULL_BLOCK_EXPECTED );
 826:C:/Users/Yushev/git/wpcqi-optiga-trust-charge/optiga/externals/mbedtls/library\cipher.c ****         }
 827:C:/Users/Yushev/git/wpcqi-optiga-trust-charge/optiga/externals/mbedtls/library\cipher.c **** 
 828:C:/Users/Yushev/git/wpcqi-optiga-trust-charge/optiga/externals/mbedtls/library\cipher.c ****         /* cipher block */
 829:C:/Users/Yushev/git/wpcqi-optiga-trust-charge/optiga/externals/mbedtls/library\cipher.c ****         if( 0 != ( ret = ctx->cipher_info->base->cbc_func( ctx->cipher_ctx,
 830:C:/Users/Yushev/git/wpcqi-optiga-trust-charge/optiga/externals/mbedtls/library\cipher.c ****                 ctx->operation, mbedtls_cipher_get_block_size( ctx ), ctx->iv,
 831:C:/Users/Yushev/git/wpcqi-optiga-trust-charge/optiga/externals/mbedtls/library\cipher.c ****                 ctx->unprocessed_data, output ) ) )
 832:C:/Users/Yushev/git/wpcqi-optiga-trust-charge/optiga/externals/mbedtls/library\cipher.c ****         {
 833:C:/Users/Yushev/git/wpcqi-optiga-trust-charge/optiga/externals/mbedtls/library\cipher.c ****             return( ret );
 834:C:/Users/Yushev/git/wpcqi-optiga-trust-charge/optiga/externals/mbedtls/library\cipher.c ****         }
 835:C:/Users/Yushev/git/wpcqi-optiga-trust-charge/optiga/externals/mbedtls/library\cipher.c **** 
 836:C:/Users/Yushev/git/wpcqi-optiga-trust-charge/optiga/externals/mbedtls/library\cipher.c ****         /* Set output size for decryption */
 837:C:/Users/Yushev/git/wpcqi-optiga-trust-charge/optiga/externals/mbedtls/library\cipher.c ****         if( MBEDTLS_DECRYPT == ctx->operation )
 838:C:/Users/Yushev/git/wpcqi-optiga-trust-charge/optiga/externals/mbedtls/library\cipher.c ****             return( ctx->get_padding( output, mbedtls_cipher_get_block_size( ctx ),
 839:C:/Users/Yushev/git/wpcqi-optiga-trust-charge/optiga/externals/mbedtls/library\cipher.c ****                                       olen ) );
 840:C:/Users/Yushev/git/wpcqi-optiga-trust-charge/optiga/externals/mbedtls/library\cipher.c **** 
 841:C:/Users/Yushev/git/wpcqi-optiga-trust-charge/optiga/externals/mbedtls/library\cipher.c ****         /* Set output size for encryption */
 842:C:/Users/Yushev/git/wpcqi-optiga-trust-charge/optiga/externals/mbedtls/library\cipher.c ****         *olen = mbedtls_cipher_get_block_size( ctx );
 843:C:/Users/Yushev/git/wpcqi-optiga-trust-charge/optiga/externals/mbedtls/library\cipher.c ****         return( 0 );
 844:C:/Users/Yushev/git/wpcqi-optiga-trust-charge/optiga/externals/mbedtls/library\cipher.c ****     }
 845:C:/Users/Yushev/git/wpcqi-optiga-trust-charge/optiga/externals/mbedtls/library\cipher.c **** #else
 846:C:/Users/Yushev/git/wpcqi-optiga-trust-charge/optiga/externals/mbedtls/library\cipher.c ****     ((void) output);
 847:C:/Users/Yushev/git/wpcqi-optiga-trust-charge/optiga/externals/mbedtls/library\cipher.c **** #endif /* MBEDTLS_CIPHER_MODE_CBC */
 848:C:/Users/Yushev/git/wpcqi-optiga-trust-charge/optiga/externals/mbedtls/library\cipher.c **** 
 849:C:/Users/Yushev/git/wpcqi-optiga-trust-charge/optiga/externals/mbedtls/library\cipher.c ****     return( MBEDTLS_ERR_CIPHER_FEATURE_UNAVAILABLE );
 1187              	 .loc 2 849 0
 1188 0090 054B     	 ldr r3,.L87+8
 1189              	.L80:
 850:C:/Users/Yushev/git/wpcqi-optiga-trust-charge/optiga/externals/mbedtls/library\cipher.c **** }
 1190              	 .loc 2 850 0
 1191 0092 1846     	 mov r0,r3
 1192 0094 1437     	 adds r7,r7,#20
 1193              	.LCFI68:
 1194              	 .cfi_def_cfa_offset 4
 1195 0096 BD46     	 mov sp,r7
 1196              	.LCFI69:
 1197              	 .cfi_def_cfa_register 13
 1198              	 
 1199 0098 5DF8047B 	 ldr r7,[sp],#4
 1200              	.LCFI70:
 1201              	 .cfi_restore 7
 1202              	 .cfi_def_cfa_offset 0
 1203 009c 7047     	 bx lr
 1204              	.L88:
 1205 009e 00BF     	 .align 2
 1206              	.L87:
 1207 00a0 009FFFFF 	 .word -24832
 1208 00a4 809DFFFF 	 .word -25216
 1209 00a8 809FFFFF 	 .word -24704
 1210              	 .cfi_endproc
 1211              	.LFE18:
 1213              	 .section .text.mbedtls_cipher_crypt,"ax",%progbits
 1214              	 .align 2
 1215              	 .global mbedtls_cipher_crypt
 1216              	 .thumb
 1217              	 .thumb_func
 1219              	mbedtls_cipher_crypt:
 1220              	.LFB19:
 851:C:/Users/Yushev/git/wpcqi-optiga-trust-charge/optiga/externals/mbedtls/library\cipher.c **** 
 852:C:/Users/Yushev/git/wpcqi-optiga-trust-charge/optiga/externals/mbedtls/library\cipher.c **** #if defined(MBEDTLS_CIPHER_MODE_WITH_PADDING)
 853:C:/Users/Yushev/git/wpcqi-optiga-trust-charge/optiga/externals/mbedtls/library\cipher.c **** int mbedtls_cipher_set_padding_mode( mbedtls_cipher_context_t *ctx,
 854:C:/Users/Yushev/git/wpcqi-optiga-trust-charge/optiga/externals/mbedtls/library\cipher.c ****                                      mbedtls_cipher_padding_t mode )
 855:C:/Users/Yushev/git/wpcqi-optiga-trust-charge/optiga/externals/mbedtls/library\cipher.c **** {
 856:C:/Users/Yushev/git/wpcqi-optiga-trust-charge/optiga/externals/mbedtls/library\cipher.c ****     CIPHER_VALIDATE_RET( ctx != NULL );
 857:C:/Users/Yushev/git/wpcqi-optiga-trust-charge/optiga/externals/mbedtls/library\cipher.c **** 
 858:C:/Users/Yushev/git/wpcqi-optiga-trust-charge/optiga/externals/mbedtls/library\cipher.c ****     if( NULL == ctx->cipher_info || MBEDTLS_MODE_CBC != ctx->cipher_info->mode )
 859:C:/Users/Yushev/git/wpcqi-optiga-trust-charge/optiga/externals/mbedtls/library\cipher.c ****     {
 860:C:/Users/Yushev/git/wpcqi-optiga-trust-charge/optiga/externals/mbedtls/library\cipher.c ****         return( MBEDTLS_ERR_CIPHER_BAD_INPUT_DATA );
 861:C:/Users/Yushev/git/wpcqi-optiga-trust-charge/optiga/externals/mbedtls/library\cipher.c ****     }
 862:C:/Users/Yushev/git/wpcqi-optiga-trust-charge/optiga/externals/mbedtls/library\cipher.c **** 
 863:C:/Users/Yushev/git/wpcqi-optiga-trust-charge/optiga/externals/mbedtls/library\cipher.c ****     switch( mode )
 864:C:/Users/Yushev/git/wpcqi-optiga-trust-charge/optiga/externals/mbedtls/library\cipher.c ****     {
 865:C:/Users/Yushev/git/wpcqi-optiga-trust-charge/optiga/externals/mbedtls/library\cipher.c **** #if defined(MBEDTLS_CIPHER_PADDING_PKCS7)
 866:C:/Users/Yushev/git/wpcqi-optiga-trust-charge/optiga/externals/mbedtls/library\cipher.c ****     case MBEDTLS_PADDING_PKCS7:
 867:C:/Users/Yushev/git/wpcqi-optiga-trust-charge/optiga/externals/mbedtls/library\cipher.c ****         ctx->add_padding = add_pkcs_padding;
 868:C:/Users/Yushev/git/wpcqi-optiga-trust-charge/optiga/externals/mbedtls/library\cipher.c ****         ctx->get_padding = get_pkcs_padding;
 869:C:/Users/Yushev/git/wpcqi-optiga-trust-charge/optiga/externals/mbedtls/library\cipher.c ****         break;
 870:C:/Users/Yushev/git/wpcqi-optiga-trust-charge/optiga/externals/mbedtls/library\cipher.c **** #endif
 871:C:/Users/Yushev/git/wpcqi-optiga-trust-charge/optiga/externals/mbedtls/library\cipher.c **** #if defined(MBEDTLS_CIPHER_PADDING_ONE_AND_ZEROS)
 872:C:/Users/Yushev/git/wpcqi-optiga-trust-charge/optiga/externals/mbedtls/library\cipher.c ****     case MBEDTLS_PADDING_ONE_AND_ZEROS:
 873:C:/Users/Yushev/git/wpcqi-optiga-trust-charge/optiga/externals/mbedtls/library\cipher.c ****         ctx->add_padding = add_one_and_zeros_padding;
 874:C:/Users/Yushev/git/wpcqi-optiga-trust-charge/optiga/externals/mbedtls/library\cipher.c ****         ctx->get_padding = get_one_and_zeros_padding;
 875:C:/Users/Yushev/git/wpcqi-optiga-trust-charge/optiga/externals/mbedtls/library\cipher.c ****         break;
 876:C:/Users/Yushev/git/wpcqi-optiga-trust-charge/optiga/externals/mbedtls/library\cipher.c **** #endif
 877:C:/Users/Yushev/git/wpcqi-optiga-trust-charge/optiga/externals/mbedtls/library\cipher.c **** #if defined(MBEDTLS_CIPHER_PADDING_ZEROS_AND_LEN)
 878:C:/Users/Yushev/git/wpcqi-optiga-trust-charge/optiga/externals/mbedtls/library\cipher.c ****     case MBEDTLS_PADDING_ZEROS_AND_LEN:
 879:C:/Users/Yushev/git/wpcqi-optiga-trust-charge/optiga/externals/mbedtls/library\cipher.c ****         ctx->add_padding = add_zeros_and_len_padding;
 880:C:/Users/Yushev/git/wpcqi-optiga-trust-charge/optiga/externals/mbedtls/library\cipher.c ****         ctx->get_padding = get_zeros_and_len_padding;
 881:C:/Users/Yushev/git/wpcqi-optiga-trust-charge/optiga/externals/mbedtls/library\cipher.c ****         break;
 882:C:/Users/Yushev/git/wpcqi-optiga-trust-charge/optiga/externals/mbedtls/library\cipher.c **** #endif
 883:C:/Users/Yushev/git/wpcqi-optiga-trust-charge/optiga/externals/mbedtls/library\cipher.c **** #if defined(MBEDTLS_CIPHER_PADDING_ZEROS)
 884:C:/Users/Yushev/git/wpcqi-optiga-trust-charge/optiga/externals/mbedtls/library\cipher.c ****     case MBEDTLS_PADDING_ZEROS:
 885:C:/Users/Yushev/git/wpcqi-optiga-trust-charge/optiga/externals/mbedtls/library\cipher.c ****         ctx->add_padding = add_zeros_padding;
 886:C:/Users/Yushev/git/wpcqi-optiga-trust-charge/optiga/externals/mbedtls/library\cipher.c ****         ctx->get_padding = get_zeros_padding;
 887:C:/Users/Yushev/git/wpcqi-optiga-trust-charge/optiga/externals/mbedtls/library\cipher.c ****         break;
 888:C:/Users/Yushev/git/wpcqi-optiga-trust-charge/optiga/externals/mbedtls/library\cipher.c **** #endif
 889:C:/Users/Yushev/git/wpcqi-optiga-trust-charge/optiga/externals/mbedtls/library\cipher.c ****     case MBEDTLS_PADDING_NONE:
 890:C:/Users/Yushev/git/wpcqi-optiga-trust-charge/optiga/externals/mbedtls/library\cipher.c ****         ctx->add_padding = NULL;
 891:C:/Users/Yushev/git/wpcqi-optiga-trust-charge/optiga/externals/mbedtls/library\cipher.c ****         ctx->get_padding = get_no_padding;
 892:C:/Users/Yushev/git/wpcqi-optiga-trust-charge/optiga/externals/mbedtls/library\cipher.c ****         break;
 893:C:/Users/Yushev/git/wpcqi-optiga-trust-charge/optiga/externals/mbedtls/library\cipher.c **** 
 894:C:/Users/Yushev/git/wpcqi-optiga-trust-charge/optiga/externals/mbedtls/library\cipher.c ****     default:
 895:C:/Users/Yushev/git/wpcqi-optiga-trust-charge/optiga/externals/mbedtls/library\cipher.c ****         return( MBEDTLS_ERR_CIPHER_FEATURE_UNAVAILABLE );
 896:C:/Users/Yushev/git/wpcqi-optiga-trust-charge/optiga/externals/mbedtls/library\cipher.c ****     }
 897:C:/Users/Yushev/git/wpcqi-optiga-trust-charge/optiga/externals/mbedtls/library\cipher.c **** 
 898:C:/Users/Yushev/git/wpcqi-optiga-trust-charge/optiga/externals/mbedtls/library\cipher.c ****     return( 0 );
 899:C:/Users/Yushev/git/wpcqi-optiga-trust-charge/optiga/externals/mbedtls/library\cipher.c **** }
 900:C:/Users/Yushev/git/wpcqi-optiga-trust-charge/optiga/externals/mbedtls/library\cipher.c **** #endif /* MBEDTLS_CIPHER_MODE_WITH_PADDING */
 901:C:/Users/Yushev/git/wpcqi-optiga-trust-charge/optiga/externals/mbedtls/library\cipher.c **** 
 902:C:/Users/Yushev/git/wpcqi-optiga-trust-charge/optiga/externals/mbedtls/library\cipher.c **** #if defined(MBEDTLS_GCM_C) || defined(MBEDTLS_CHACHAPOLY_C)
 903:C:/Users/Yushev/git/wpcqi-optiga-trust-charge/optiga/externals/mbedtls/library\cipher.c **** int mbedtls_cipher_write_tag( mbedtls_cipher_context_t *ctx,
 904:C:/Users/Yushev/git/wpcqi-optiga-trust-charge/optiga/externals/mbedtls/library\cipher.c ****                       unsigned char *tag, size_t tag_len )
 905:C:/Users/Yushev/git/wpcqi-optiga-trust-charge/optiga/externals/mbedtls/library\cipher.c **** {
 906:C:/Users/Yushev/git/wpcqi-optiga-trust-charge/optiga/externals/mbedtls/library\cipher.c ****     CIPHER_VALIDATE_RET( ctx != NULL );
 907:C:/Users/Yushev/git/wpcqi-optiga-trust-charge/optiga/externals/mbedtls/library\cipher.c ****     CIPHER_VALIDATE_RET( tag_len == 0 || tag != NULL );
 908:C:/Users/Yushev/git/wpcqi-optiga-trust-charge/optiga/externals/mbedtls/library\cipher.c ****     if( ctx->cipher_info == NULL )
 909:C:/Users/Yushev/git/wpcqi-optiga-trust-charge/optiga/externals/mbedtls/library\cipher.c ****         return( MBEDTLS_ERR_CIPHER_BAD_INPUT_DATA );
 910:C:/Users/Yushev/git/wpcqi-optiga-trust-charge/optiga/externals/mbedtls/library\cipher.c **** 
 911:C:/Users/Yushev/git/wpcqi-optiga-trust-charge/optiga/externals/mbedtls/library\cipher.c ****     if( MBEDTLS_ENCRYPT != ctx->operation )
 912:C:/Users/Yushev/git/wpcqi-optiga-trust-charge/optiga/externals/mbedtls/library\cipher.c ****         return( MBEDTLS_ERR_CIPHER_BAD_INPUT_DATA );
 913:C:/Users/Yushev/git/wpcqi-optiga-trust-charge/optiga/externals/mbedtls/library\cipher.c **** 
 914:C:/Users/Yushev/git/wpcqi-optiga-trust-charge/optiga/externals/mbedtls/library\cipher.c **** #if defined(MBEDTLS_GCM_C)
 915:C:/Users/Yushev/git/wpcqi-optiga-trust-charge/optiga/externals/mbedtls/library\cipher.c ****     if( MBEDTLS_MODE_GCM == ctx->cipher_info->mode )
 916:C:/Users/Yushev/git/wpcqi-optiga-trust-charge/optiga/externals/mbedtls/library\cipher.c ****         return( mbedtls_gcm_finish( (mbedtls_gcm_context *) ctx->cipher_ctx,
 917:C:/Users/Yushev/git/wpcqi-optiga-trust-charge/optiga/externals/mbedtls/library\cipher.c ****                                     tag, tag_len ) );
 918:C:/Users/Yushev/git/wpcqi-optiga-trust-charge/optiga/externals/mbedtls/library\cipher.c **** #endif
 919:C:/Users/Yushev/git/wpcqi-optiga-trust-charge/optiga/externals/mbedtls/library\cipher.c **** 
 920:C:/Users/Yushev/git/wpcqi-optiga-trust-charge/optiga/externals/mbedtls/library\cipher.c **** #if defined(MBEDTLS_CHACHAPOLY_C)
 921:C:/Users/Yushev/git/wpcqi-optiga-trust-charge/optiga/externals/mbedtls/library\cipher.c ****     if ( MBEDTLS_CIPHER_CHACHA20_POLY1305 == ctx->cipher_info->type )
 922:C:/Users/Yushev/git/wpcqi-optiga-trust-charge/optiga/externals/mbedtls/library\cipher.c ****     {
 923:C:/Users/Yushev/git/wpcqi-optiga-trust-charge/optiga/externals/mbedtls/library\cipher.c ****         /* Don't allow truncated MAC for Poly1305 */
 924:C:/Users/Yushev/git/wpcqi-optiga-trust-charge/optiga/externals/mbedtls/library\cipher.c ****         if ( tag_len != 16U )
 925:C:/Users/Yushev/git/wpcqi-optiga-trust-charge/optiga/externals/mbedtls/library\cipher.c ****             return( MBEDTLS_ERR_CIPHER_BAD_INPUT_DATA );
 926:C:/Users/Yushev/git/wpcqi-optiga-trust-charge/optiga/externals/mbedtls/library\cipher.c **** 
 927:C:/Users/Yushev/git/wpcqi-optiga-trust-charge/optiga/externals/mbedtls/library\cipher.c ****         return( mbedtls_chachapoly_finish( (mbedtls_chachapoly_context*) ctx->cipher_ctx,
 928:C:/Users/Yushev/git/wpcqi-optiga-trust-charge/optiga/externals/mbedtls/library\cipher.c ****                                            tag ) );
 929:C:/Users/Yushev/git/wpcqi-optiga-trust-charge/optiga/externals/mbedtls/library\cipher.c ****     }
 930:C:/Users/Yushev/git/wpcqi-optiga-trust-charge/optiga/externals/mbedtls/library\cipher.c **** #endif
 931:C:/Users/Yushev/git/wpcqi-optiga-trust-charge/optiga/externals/mbedtls/library\cipher.c **** 
 932:C:/Users/Yushev/git/wpcqi-optiga-trust-charge/optiga/externals/mbedtls/library\cipher.c ****     return( 0 );
 933:C:/Users/Yushev/git/wpcqi-optiga-trust-charge/optiga/externals/mbedtls/library\cipher.c **** }
 934:C:/Users/Yushev/git/wpcqi-optiga-trust-charge/optiga/externals/mbedtls/library\cipher.c **** 
 935:C:/Users/Yushev/git/wpcqi-optiga-trust-charge/optiga/externals/mbedtls/library\cipher.c **** int mbedtls_cipher_check_tag( mbedtls_cipher_context_t *ctx,
 936:C:/Users/Yushev/git/wpcqi-optiga-trust-charge/optiga/externals/mbedtls/library\cipher.c ****                       const unsigned char *tag, size_t tag_len )
 937:C:/Users/Yushev/git/wpcqi-optiga-trust-charge/optiga/externals/mbedtls/library\cipher.c **** {
 938:C:/Users/Yushev/git/wpcqi-optiga-trust-charge/optiga/externals/mbedtls/library\cipher.c ****     unsigned char check_tag[16];
 939:C:/Users/Yushev/git/wpcqi-optiga-trust-charge/optiga/externals/mbedtls/library\cipher.c ****     int ret;
 940:C:/Users/Yushev/git/wpcqi-optiga-trust-charge/optiga/externals/mbedtls/library\cipher.c **** 
 941:C:/Users/Yushev/git/wpcqi-optiga-trust-charge/optiga/externals/mbedtls/library\cipher.c ****     CIPHER_VALIDATE_RET( ctx != NULL );
 942:C:/Users/Yushev/git/wpcqi-optiga-trust-charge/optiga/externals/mbedtls/library\cipher.c ****     CIPHER_VALIDATE_RET( tag_len == 0 || tag != NULL );
 943:C:/Users/Yushev/git/wpcqi-optiga-trust-charge/optiga/externals/mbedtls/library\cipher.c ****     if( ctx->cipher_info == NULL )
 944:C:/Users/Yushev/git/wpcqi-optiga-trust-charge/optiga/externals/mbedtls/library\cipher.c ****         return( MBEDTLS_ERR_CIPHER_BAD_INPUT_DATA );
 945:C:/Users/Yushev/git/wpcqi-optiga-trust-charge/optiga/externals/mbedtls/library\cipher.c **** 
 946:C:/Users/Yushev/git/wpcqi-optiga-trust-charge/optiga/externals/mbedtls/library\cipher.c ****     if( MBEDTLS_DECRYPT != ctx->operation )
 947:C:/Users/Yushev/git/wpcqi-optiga-trust-charge/optiga/externals/mbedtls/library\cipher.c ****     {
 948:C:/Users/Yushev/git/wpcqi-optiga-trust-charge/optiga/externals/mbedtls/library\cipher.c ****         return( MBEDTLS_ERR_CIPHER_BAD_INPUT_DATA );
 949:C:/Users/Yushev/git/wpcqi-optiga-trust-charge/optiga/externals/mbedtls/library\cipher.c ****     }
 950:C:/Users/Yushev/git/wpcqi-optiga-trust-charge/optiga/externals/mbedtls/library\cipher.c **** 
 951:C:/Users/Yushev/git/wpcqi-optiga-trust-charge/optiga/externals/mbedtls/library\cipher.c **** #if defined(MBEDTLS_GCM_C)
 952:C:/Users/Yushev/git/wpcqi-optiga-trust-charge/optiga/externals/mbedtls/library\cipher.c ****     if( MBEDTLS_MODE_GCM == ctx->cipher_info->mode )
 953:C:/Users/Yushev/git/wpcqi-optiga-trust-charge/optiga/externals/mbedtls/library\cipher.c ****     {
 954:C:/Users/Yushev/git/wpcqi-optiga-trust-charge/optiga/externals/mbedtls/library\cipher.c ****         if( tag_len > sizeof( check_tag ) )
 955:C:/Users/Yushev/git/wpcqi-optiga-trust-charge/optiga/externals/mbedtls/library\cipher.c ****             return( MBEDTLS_ERR_CIPHER_BAD_INPUT_DATA );
 956:C:/Users/Yushev/git/wpcqi-optiga-trust-charge/optiga/externals/mbedtls/library\cipher.c **** 
 957:C:/Users/Yushev/git/wpcqi-optiga-trust-charge/optiga/externals/mbedtls/library\cipher.c ****         if( 0 != ( ret = mbedtls_gcm_finish( (mbedtls_gcm_context *) ctx->cipher_ctx,
 958:C:/Users/Yushev/git/wpcqi-optiga-trust-charge/optiga/externals/mbedtls/library\cipher.c ****                                      check_tag, tag_len ) ) )
 959:C:/Users/Yushev/git/wpcqi-optiga-trust-charge/optiga/externals/mbedtls/library\cipher.c ****         {
 960:C:/Users/Yushev/git/wpcqi-optiga-trust-charge/optiga/externals/mbedtls/library\cipher.c ****             return( ret );
 961:C:/Users/Yushev/git/wpcqi-optiga-trust-charge/optiga/externals/mbedtls/library\cipher.c ****         }
 962:C:/Users/Yushev/git/wpcqi-optiga-trust-charge/optiga/externals/mbedtls/library\cipher.c **** 
 963:C:/Users/Yushev/git/wpcqi-optiga-trust-charge/optiga/externals/mbedtls/library\cipher.c ****         /* Check the tag in "constant-time" */
 964:C:/Users/Yushev/git/wpcqi-optiga-trust-charge/optiga/externals/mbedtls/library\cipher.c ****         if( mbedtls_constant_time_memcmp( tag, check_tag, tag_len ) != 0 )
 965:C:/Users/Yushev/git/wpcqi-optiga-trust-charge/optiga/externals/mbedtls/library\cipher.c ****             return( MBEDTLS_ERR_CIPHER_AUTH_FAILED );
 966:C:/Users/Yushev/git/wpcqi-optiga-trust-charge/optiga/externals/mbedtls/library\cipher.c **** 
 967:C:/Users/Yushev/git/wpcqi-optiga-trust-charge/optiga/externals/mbedtls/library\cipher.c ****         return( 0 );
 968:C:/Users/Yushev/git/wpcqi-optiga-trust-charge/optiga/externals/mbedtls/library\cipher.c ****     }
 969:C:/Users/Yushev/git/wpcqi-optiga-trust-charge/optiga/externals/mbedtls/library\cipher.c **** #endif /* MBEDTLS_GCM_C */
 970:C:/Users/Yushev/git/wpcqi-optiga-trust-charge/optiga/externals/mbedtls/library\cipher.c **** 
 971:C:/Users/Yushev/git/wpcqi-optiga-trust-charge/optiga/externals/mbedtls/library\cipher.c **** #if defined(MBEDTLS_CHACHAPOLY_C)
 972:C:/Users/Yushev/git/wpcqi-optiga-trust-charge/optiga/externals/mbedtls/library\cipher.c ****     if ( MBEDTLS_CIPHER_CHACHA20_POLY1305 == ctx->cipher_info->type )
 973:C:/Users/Yushev/git/wpcqi-optiga-trust-charge/optiga/externals/mbedtls/library\cipher.c ****     {
 974:C:/Users/Yushev/git/wpcqi-optiga-trust-charge/optiga/externals/mbedtls/library\cipher.c ****         /* Don't allow truncated MAC for Poly1305 */
 975:C:/Users/Yushev/git/wpcqi-optiga-trust-charge/optiga/externals/mbedtls/library\cipher.c ****         if ( tag_len != sizeof( check_tag ) )
 976:C:/Users/Yushev/git/wpcqi-optiga-trust-charge/optiga/externals/mbedtls/library\cipher.c ****             return( MBEDTLS_ERR_CIPHER_BAD_INPUT_DATA );
 977:C:/Users/Yushev/git/wpcqi-optiga-trust-charge/optiga/externals/mbedtls/library\cipher.c **** 
 978:C:/Users/Yushev/git/wpcqi-optiga-trust-charge/optiga/externals/mbedtls/library\cipher.c ****         ret = mbedtls_chachapoly_finish( (mbedtls_chachapoly_context*) ctx->cipher_ctx,
 979:C:/Users/Yushev/git/wpcqi-optiga-trust-charge/optiga/externals/mbedtls/library\cipher.c ****                                                      check_tag );
 980:C:/Users/Yushev/git/wpcqi-optiga-trust-charge/optiga/externals/mbedtls/library\cipher.c ****         if ( ret != 0 )
 981:C:/Users/Yushev/git/wpcqi-optiga-trust-charge/optiga/externals/mbedtls/library\cipher.c ****         {
 982:C:/Users/Yushev/git/wpcqi-optiga-trust-charge/optiga/externals/mbedtls/library\cipher.c ****             return( ret );
 983:C:/Users/Yushev/git/wpcqi-optiga-trust-charge/optiga/externals/mbedtls/library\cipher.c ****         }
 984:C:/Users/Yushev/git/wpcqi-optiga-trust-charge/optiga/externals/mbedtls/library\cipher.c **** 
 985:C:/Users/Yushev/git/wpcqi-optiga-trust-charge/optiga/externals/mbedtls/library\cipher.c ****         /* Check the tag in "constant-time" */
 986:C:/Users/Yushev/git/wpcqi-optiga-trust-charge/optiga/externals/mbedtls/library\cipher.c ****         if( mbedtls_constant_time_memcmp( tag, check_tag, tag_len ) != 0 )
 987:C:/Users/Yushev/git/wpcqi-optiga-trust-charge/optiga/externals/mbedtls/library\cipher.c ****             return( MBEDTLS_ERR_CIPHER_AUTH_FAILED );
 988:C:/Users/Yushev/git/wpcqi-optiga-trust-charge/optiga/externals/mbedtls/library\cipher.c **** 
 989:C:/Users/Yushev/git/wpcqi-optiga-trust-charge/optiga/externals/mbedtls/library\cipher.c ****         return( 0 );
 990:C:/Users/Yushev/git/wpcqi-optiga-trust-charge/optiga/externals/mbedtls/library\cipher.c ****     }
 991:C:/Users/Yushev/git/wpcqi-optiga-trust-charge/optiga/externals/mbedtls/library\cipher.c **** #endif /* MBEDTLS_CHACHAPOLY_C */
 992:C:/Users/Yushev/git/wpcqi-optiga-trust-charge/optiga/externals/mbedtls/library\cipher.c **** 
 993:C:/Users/Yushev/git/wpcqi-optiga-trust-charge/optiga/externals/mbedtls/library\cipher.c ****     return( 0 );
 994:C:/Users/Yushev/git/wpcqi-optiga-trust-charge/optiga/externals/mbedtls/library\cipher.c **** }
 995:C:/Users/Yushev/git/wpcqi-optiga-trust-charge/optiga/externals/mbedtls/library\cipher.c **** #endif /* MBEDTLS_GCM_C || MBEDTLS_CHACHAPOLY_C */
 996:C:/Users/Yushev/git/wpcqi-optiga-trust-charge/optiga/externals/mbedtls/library\cipher.c **** 
 997:C:/Users/Yushev/git/wpcqi-optiga-trust-charge/optiga/externals/mbedtls/library\cipher.c **** /*
 998:C:/Users/Yushev/git/wpcqi-optiga-trust-charge/optiga/externals/mbedtls/library\cipher.c ****  * Packet-oriented wrapper for non-AEAD modes
 999:C:/Users/Yushev/git/wpcqi-optiga-trust-charge/optiga/externals/mbedtls/library\cipher.c ****  */
1000:C:/Users/Yushev/git/wpcqi-optiga-trust-charge/optiga/externals/mbedtls/library\cipher.c **** int mbedtls_cipher_crypt( mbedtls_cipher_context_t *ctx,
1001:C:/Users/Yushev/git/wpcqi-optiga-trust-charge/optiga/externals/mbedtls/library\cipher.c ****                   const unsigned char *iv, size_t iv_len,
1002:C:/Users/Yushev/git/wpcqi-optiga-trust-charge/optiga/externals/mbedtls/library\cipher.c ****                   const unsigned char *input, size_t ilen,
1003:C:/Users/Yushev/git/wpcqi-optiga-trust-charge/optiga/externals/mbedtls/library\cipher.c ****                   unsigned char *output, size_t *olen )
1004:C:/Users/Yushev/git/wpcqi-optiga-trust-charge/optiga/externals/mbedtls/library\cipher.c **** {
 1221              	 .loc 2 1004 0
 1222              	 .cfi_startproc
 1223              	 
 1224              	 
 1225 0000 80B5     	 push {r7,lr}
 1226              	.LCFI71:
 1227              	 .cfi_def_cfa_offset 8
 1228              	 .cfi_offset 7,-8
 1229              	 .cfi_offset 14,-4
 1230 0002 88B0     	 sub sp,sp,#32
 1231              	.LCFI72:
 1232              	 .cfi_def_cfa_offset 40
 1233 0004 02AF     	 add r7,sp,#8
 1234              	.LCFI73:
 1235              	 .cfi_def_cfa 7,32
 1236 0006 F860     	 str r0,[r7,#12]
 1237 0008 B960     	 str r1,[r7,#8]
 1238 000a 7A60     	 str r2,[r7,#4]
 1239 000c 3B60     	 str r3,[r7]
1005:C:/Users/Yushev/git/wpcqi-optiga-trust-charge/optiga/externals/mbedtls/library\cipher.c ****     int ret;
1006:C:/Users/Yushev/git/wpcqi-optiga-trust-charge/optiga/externals/mbedtls/library\cipher.c ****     size_t finish_olen;
1007:C:/Users/Yushev/git/wpcqi-optiga-trust-charge/optiga/externals/mbedtls/library\cipher.c **** 
1008:C:/Users/Yushev/git/wpcqi-optiga-trust-charge/optiga/externals/mbedtls/library\cipher.c ****     CIPHER_VALIDATE_RET( ctx != NULL );
1009:C:/Users/Yushev/git/wpcqi-optiga-trust-charge/optiga/externals/mbedtls/library\cipher.c ****     CIPHER_VALIDATE_RET( iv_len == 0 || iv != NULL );
1010:C:/Users/Yushev/git/wpcqi-optiga-trust-charge/optiga/externals/mbedtls/library\cipher.c ****     CIPHER_VALIDATE_RET( ilen == 0 || input != NULL );
1011:C:/Users/Yushev/git/wpcqi-optiga-trust-charge/optiga/externals/mbedtls/library\cipher.c ****     CIPHER_VALIDATE_RET( output != NULL );
1012:C:/Users/Yushev/git/wpcqi-optiga-trust-charge/optiga/externals/mbedtls/library\cipher.c ****     CIPHER_VALIDATE_RET( olen != NULL );
1013:C:/Users/Yushev/git/wpcqi-optiga-trust-charge/optiga/externals/mbedtls/library\cipher.c **** 
1014:C:/Users/Yushev/git/wpcqi-optiga-trust-charge/optiga/externals/mbedtls/library\cipher.c ****     if( ( ret = mbedtls_cipher_set_iv( ctx, iv, iv_len ) ) != 0 )
 1240              	 .loc 2 1014 0
 1241 000e F868     	 ldr r0,[r7,#12]
 1242 0010 B968     	 ldr r1,[r7,#8]
 1243 0012 7A68     	 ldr r2,[r7,#4]
 1244 0014 FFF7FEFF 	 bl mbedtls_cipher_set_iv
 1245 0018 7861     	 str r0,[r7,#20]
 1246 001a 7B69     	 ldr r3,[r7,#20]
 1247 001c 002B     	 cmp r3,#0
 1248 001e 01D0     	 beq .L90
1015:C:/Users/Yushev/git/wpcqi-optiga-trust-charge/optiga/externals/mbedtls/library\cipher.c ****         return( ret );
 1249              	 .loc 2 1015 0
 1250 0020 7B69     	 ldr r3,[r7,#20]
 1251 0022 2EE0     	 b .L95
 1252              	.L90:
1016:C:/Users/Yushev/git/wpcqi-optiga-trust-charge/optiga/externals/mbedtls/library\cipher.c **** 
1017:C:/Users/Yushev/git/wpcqi-optiga-trust-charge/optiga/externals/mbedtls/library\cipher.c ****     if( ( ret = mbedtls_cipher_reset( ctx ) ) != 0 )
 1253              	 .loc 2 1017 0
 1254 0024 F868     	 ldr r0,[r7,#12]
 1255 0026 FFF7FEFF 	 bl mbedtls_cipher_reset
 1256 002a 7861     	 str r0,[r7,#20]
 1257 002c 7B69     	 ldr r3,[r7,#20]
 1258 002e 002B     	 cmp r3,#0
 1259 0030 01D0     	 beq .L92
1018:C:/Users/Yushev/git/wpcqi-optiga-trust-charge/optiga/externals/mbedtls/library\cipher.c ****         return( ret );
 1260              	 .loc 2 1018 0
 1261 0032 7B69     	 ldr r3,[r7,#20]
 1262 0034 25E0     	 b .L95
 1263              	.L92:
1019:C:/Users/Yushev/git/wpcqi-optiga-trust-charge/optiga/externals/mbedtls/library\cipher.c **** 
1020:C:/Users/Yushev/git/wpcqi-optiga-trust-charge/optiga/externals/mbedtls/library\cipher.c ****     if( ( ret = mbedtls_cipher_update( ctx, input, ilen, output, olen ) ) != 0 )
 1264              	 .loc 2 1020 0
 1265 0036 BB6A     	 ldr r3,[r7,#40]
 1266 0038 0093     	 str r3,[sp]
 1267 003a F868     	 ldr r0,[r7,#12]
 1268 003c 3968     	 ldr r1,[r7]
 1269 003e 3A6A     	 ldr r2,[r7,#32]
 1270 0040 7B6A     	 ldr r3,[r7,#36]
 1271 0042 FFF7FEFF 	 bl mbedtls_cipher_update
 1272 0046 7861     	 str r0,[r7,#20]
 1273 0048 7B69     	 ldr r3,[r7,#20]
 1274 004a 002B     	 cmp r3,#0
 1275 004c 01D0     	 beq .L93
1021:C:/Users/Yushev/git/wpcqi-optiga-trust-charge/optiga/externals/mbedtls/library\cipher.c ****         return( ret );
 1276              	 .loc 2 1021 0
 1277 004e 7B69     	 ldr r3,[r7,#20]
 1278 0050 17E0     	 b .L95
 1279              	.L93:
1022:C:/Users/Yushev/git/wpcqi-optiga-trust-charge/optiga/externals/mbedtls/library\cipher.c **** 
1023:C:/Users/Yushev/git/wpcqi-optiga-trust-charge/optiga/externals/mbedtls/library\cipher.c ****     if( ( ret = mbedtls_cipher_finish( ctx, output + *olen, &finish_olen ) ) != 0 )
 1280              	 .loc 2 1023 0
 1281 0052 BB6A     	 ldr r3,[r7,#40]
 1282 0054 1B68     	 ldr r3,[r3]
 1283 0056 7A6A     	 ldr r2,[r7,#36]
 1284 0058 1A44     	 add r2,r2,r3
 1285 005a 07F11003 	 add r3,r7,#16
 1286 005e F868     	 ldr r0,[r7,#12]
 1287 0060 1146     	 mov r1,r2
 1288 0062 1A46     	 mov r2,r3
 1289 0064 FFF7FEFF 	 bl mbedtls_cipher_finish
 1290 0068 7861     	 str r0,[r7,#20]
 1291 006a 7B69     	 ldr r3,[r7,#20]
 1292 006c 002B     	 cmp r3,#0
 1293 006e 01D0     	 beq .L94
1024:C:/Users/Yushev/git/wpcqi-optiga-trust-charge/optiga/externals/mbedtls/library\cipher.c ****         return( ret );
 1294              	 .loc 2 1024 0
 1295 0070 7B69     	 ldr r3,[r7,#20]
 1296 0072 06E0     	 b .L95
 1297              	.L94:
1025:C:/Users/Yushev/git/wpcqi-optiga-trust-charge/optiga/externals/mbedtls/library\cipher.c **** 
1026:C:/Users/Yushev/git/wpcqi-optiga-trust-charge/optiga/externals/mbedtls/library\cipher.c ****     *olen += finish_olen;
 1298              	 .loc 2 1026 0
 1299 0074 BB6A     	 ldr r3,[r7,#40]
 1300 0076 1A68     	 ldr r2,[r3]
 1301 0078 3B69     	 ldr r3,[r7,#16]
 1302 007a 1A44     	 add r2,r2,r3
 1303 007c BB6A     	 ldr r3,[r7,#40]
 1304 007e 1A60     	 str r2,[r3]
1027:C:/Users/Yushev/git/wpcqi-optiga-trust-charge/optiga/externals/mbedtls/library\cipher.c **** 
1028:C:/Users/Yushev/git/wpcqi-optiga-trust-charge/optiga/externals/mbedtls/library\cipher.c ****     return( 0 );
 1305              	 .loc 2 1028 0
 1306 0080 0023     	 movs r3,#0
 1307              	.L95:
1029:C:/Users/Yushev/git/wpcqi-optiga-trust-charge/optiga/externals/mbedtls/library\cipher.c **** }
 1308              	 .loc 2 1029 0 discriminator 1
 1309 0082 1846     	 mov r0,r3
 1310 0084 1837     	 adds r7,r7,#24
 1311              	.LCFI74:
 1312              	 .cfi_def_cfa_offset 8
 1313 0086 BD46     	 mov sp,r7
 1314              	.LCFI75:
 1315              	 .cfi_def_cfa_register 13
 1316              	 
 1317 0088 80BD     	 pop {r7,pc}
 1318              	 .cfi_endproc
 1319              	.LFE19:
 1321 008a 00BF     	 .section .text.mbedtls_cipher_auth_encrypt,"ax",%progbits
 1322              	 .align 2
 1323              	 .global mbedtls_cipher_auth_encrypt
 1324              	 .thumb
 1325              	 .thumb_func
 1327              	mbedtls_cipher_auth_encrypt:
 1328              	.LFB20:
1030:C:/Users/Yushev/git/wpcqi-optiga-trust-charge/optiga/externals/mbedtls/library\cipher.c **** 
1031:C:/Users/Yushev/git/wpcqi-optiga-trust-charge/optiga/externals/mbedtls/library\cipher.c **** #if defined(MBEDTLS_CIPHER_MODE_AEAD)
1032:C:/Users/Yushev/git/wpcqi-optiga-trust-charge/optiga/externals/mbedtls/library\cipher.c **** /*
1033:C:/Users/Yushev/git/wpcqi-optiga-trust-charge/optiga/externals/mbedtls/library\cipher.c ****  * Packet-oriented encryption for AEAD modes
1034:C:/Users/Yushev/git/wpcqi-optiga-trust-charge/optiga/externals/mbedtls/library\cipher.c ****  */
1035:C:/Users/Yushev/git/wpcqi-optiga-trust-charge/optiga/externals/mbedtls/library\cipher.c **** int mbedtls_cipher_auth_encrypt( mbedtls_cipher_context_t *ctx,
1036:C:/Users/Yushev/git/wpcqi-optiga-trust-charge/optiga/externals/mbedtls/library\cipher.c ****                          const unsigned char *iv, size_t iv_len,
1037:C:/Users/Yushev/git/wpcqi-optiga-trust-charge/optiga/externals/mbedtls/library\cipher.c ****                          const unsigned char *ad, size_t ad_len,
1038:C:/Users/Yushev/git/wpcqi-optiga-trust-charge/optiga/externals/mbedtls/library\cipher.c ****                          const unsigned char *input, size_t ilen,
1039:C:/Users/Yushev/git/wpcqi-optiga-trust-charge/optiga/externals/mbedtls/library\cipher.c ****                          unsigned char *output, size_t *olen,
1040:C:/Users/Yushev/git/wpcqi-optiga-trust-charge/optiga/externals/mbedtls/library\cipher.c ****                          unsigned char *tag, size_t tag_len )
1041:C:/Users/Yushev/git/wpcqi-optiga-trust-charge/optiga/externals/mbedtls/library\cipher.c **** {
 1329              	 .loc 2 1041 0
 1330              	 .cfi_startproc
 1331              	 
 1332              	 
 1333 0000 80B5     	 push {r7,lr}
 1334              	.LCFI76:
 1335              	 .cfi_def_cfa_offset 8
 1336              	 .cfi_offset 7,-8
 1337              	 .cfi_offset 14,-4
 1338 0002 8AB0     	 sub sp,sp,#40
 1339              	.LCFI77:
 1340              	 .cfi_def_cfa_offset 48
 1341 0004 06AF     	 add r7,sp,#24
 1342              	.LCFI78:
 1343              	 .cfi_def_cfa 7,24
 1344 0006 F860     	 str r0,[r7,#12]
 1345 0008 B960     	 str r1,[r7,#8]
 1346 000a 7A60     	 str r2,[r7,#4]
 1347 000c 3B60     	 str r3,[r7]
1042:C:/Users/Yushev/git/wpcqi-optiga-trust-charge/optiga/externals/mbedtls/library\cipher.c ****     CIPHER_VALIDATE_RET( ctx != NULL );
1043:C:/Users/Yushev/git/wpcqi-optiga-trust-charge/optiga/externals/mbedtls/library\cipher.c ****     CIPHER_VALIDATE_RET( iv != NULL );
1044:C:/Users/Yushev/git/wpcqi-optiga-trust-charge/optiga/externals/mbedtls/library\cipher.c ****     CIPHER_VALIDATE_RET( ad_len == 0 || ad != NULL );
