   1              	 .syntax unified
   2              	 .cpu cortex-m4
   3              	 .eabi_attribute 27,3
   4              	 .fpu fpv4-sp-d16
   5              	 .eabi_attribute 20,1
   6              	 .eabi_attribute 21,1
   7              	 .eabi_attribute 23,3
   8              	 .eabi_attribute 24,1
   9              	 .eabi_attribute 25,1
  10              	 .eabi_attribute 26,1
  11              	 .eabi_attribute 30,6
  12              	 .eabi_attribute 34,1
  13              	 .eabi_attribute 18,4
  14              	 .thumb
  15              	 .file "cipher_wrap.c"
  16              	 .text
  17              	.Ltext0:
  18              	 .cfi_sections .debug_frame
  19              	 .section .text.ccm_ctx_alloc,"ax",%progbits
  20              	 .align 2
  21              	 .thumb
  22              	 .thumb_func
  24              	ccm_ctx_alloc:
  25              	.LFB7:
  26              	 .file 1 "C:/Users/Yushev/git/wpcqi-optiga-trust-charge/optiga/externals/mbedtls/library/cipher_wrap.c"
   1:C:/Users/Yushev/git/wpcqi-optiga-trust-charge/optiga/externals/mbedtls/library\cipher_wrap.c **** /**
   2:C:/Users/Yushev/git/wpcqi-optiga-trust-charge/optiga/externals/mbedtls/library\cipher_wrap.c ****  * \file cipher_wrap.c
   3:C:/Users/Yushev/git/wpcqi-optiga-trust-charge/optiga/externals/mbedtls/library\cipher_wrap.c ****  *
   4:C:/Users/Yushev/git/wpcqi-optiga-trust-charge/optiga/externals/mbedtls/library\cipher_wrap.c ****  * \brief Generic cipher wrapper for mbed TLS
   5:C:/Users/Yushev/git/wpcqi-optiga-trust-charge/optiga/externals/mbedtls/library\cipher_wrap.c ****  *
   6:C:/Users/Yushev/git/wpcqi-optiga-trust-charge/optiga/externals/mbedtls/library\cipher_wrap.c ****  * \author Adriaan de Jong <dejong@fox-it.com>
   7:C:/Users/Yushev/git/wpcqi-optiga-trust-charge/optiga/externals/mbedtls/library\cipher_wrap.c ****  *
   8:C:/Users/Yushev/git/wpcqi-optiga-trust-charge/optiga/externals/mbedtls/library\cipher_wrap.c ****  *  Copyright (C) 2006-2015, ARM Limited, All Rights Reserved
   9:C:/Users/Yushev/git/wpcqi-optiga-trust-charge/optiga/externals/mbedtls/library\cipher_wrap.c ****  *  SPDX-License-Identifier: Apache-2.0
  10:C:/Users/Yushev/git/wpcqi-optiga-trust-charge/optiga/externals/mbedtls/library\cipher_wrap.c ****  *
  11:C:/Users/Yushev/git/wpcqi-optiga-trust-charge/optiga/externals/mbedtls/library\cipher_wrap.c ****  *  Licensed under the Apache License, Version 2.0 (the "License"); you may
  12:C:/Users/Yushev/git/wpcqi-optiga-trust-charge/optiga/externals/mbedtls/library\cipher_wrap.c ****  *  not use this file except in compliance with the License.
  13:C:/Users/Yushev/git/wpcqi-optiga-trust-charge/optiga/externals/mbedtls/library\cipher_wrap.c ****  *  You may obtain a copy of the License at
  14:C:/Users/Yushev/git/wpcqi-optiga-trust-charge/optiga/externals/mbedtls/library\cipher_wrap.c ****  *
  15:C:/Users/Yushev/git/wpcqi-optiga-trust-charge/optiga/externals/mbedtls/library\cipher_wrap.c ****  *  http://www.apache.org/licenses/LICENSE-2.0
  16:C:/Users/Yushev/git/wpcqi-optiga-trust-charge/optiga/externals/mbedtls/library\cipher_wrap.c ****  *
  17:C:/Users/Yushev/git/wpcqi-optiga-trust-charge/optiga/externals/mbedtls/library\cipher_wrap.c ****  *  Unless required by applicable law or agreed to in writing, software
  18:C:/Users/Yushev/git/wpcqi-optiga-trust-charge/optiga/externals/mbedtls/library\cipher_wrap.c ****  *  distributed under the License is distributed on an "AS IS" BASIS, WITHOUT
  19:C:/Users/Yushev/git/wpcqi-optiga-trust-charge/optiga/externals/mbedtls/library\cipher_wrap.c ****  *  WARRANTIES OR CONDITIONS OF ANY KIND, either express or implied.
  20:C:/Users/Yushev/git/wpcqi-optiga-trust-charge/optiga/externals/mbedtls/library\cipher_wrap.c ****  *  See the License for the specific language governing permissions and
  21:C:/Users/Yushev/git/wpcqi-optiga-trust-charge/optiga/externals/mbedtls/library\cipher_wrap.c ****  *  limitations under the License.
  22:C:/Users/Yushev/git/wpcqi-optiga-trust-charge/optiga/externals/mbedtls/library\cipher_wrap.c ****  *
  23:C:/Users/Yushev/git/wpcqi-optiga-trust-charge/optiga/externals/mbedtls/library\cipher_wrap.c ****  *  This file is part of mbed TLS (https://tls.mbed.org)
  24:C:/Users/Yushev/git/wpcqi-optiga-trust-charge/optiga/externals/mbedtls/library\cipher_wrap.c ****  */
  25:C:/Users/Yushev/git/wpcqi-optiga-trust-charge/optiga/externals/mbedtls/library\cipher_wrap.c **** 
  26:C:/Users/Yushev/git/wpcqi-optiga-trust-charge/optiga/externals/mbedtls/library\cipher_wrap.c **** #if !defined(MBEDTLS_CONFIG_FILE)
  27:C:/Users/Yushev/git/wpcqi-optiga-trust-charge/optiga/externals/mbedtls/library\cipher_wrap.c **** #include "mbedtls/config.h"
  28:C:/Users/Yushev/git/wpcqi-optiga-trust-charge/optiga/externals/mbedtls/library\cipher_wrap.c **** #else
  29:C:/Users/Yushev/git/wpcqi-optiga-trust-charge/optiga/externals/mbedtls/library\cipher_wrap.c **** #include MBEDTLS_CONFIG_FILE
  30:C:/Users/Yushev/git/wpcqi-optiga-trust-charge/optiga/externals/mbedtls/library\cipher_wrap.c **** #endif
  31:C:/Users/Yushev/git/wpcqi-optiga-trust-charge/optiga/externals/mbedtls/library\cipher_wrap.c **** 
  32:C:/Users/Yushev/git/wpcqi-optiga-trust-charge/optiga/externals/mbedtls/library\cipher_wrap.c **** #if defined(MBEDTLS_CIPHER_C)
  33:C:/Users/Yushev/git/wpcqi-optiga-trust-charge/optiga/externals/mbedtls/library\cipher_wrap.c **** 
  34:C:/Users/Yushev/git/wpcqi-optiga-trust-charge/optiga/externals/mbedtls/library\cipher_wrap.c **** #include "mbedtls/cipher_internal.h"
  35:C:/Users/Yushev/git/wpcqi-optiga-trust-charge/optiga/externals/mbedtls/library\cipher_wrap.c **** 
  36:C:/Users/Yushev/git/wpcqi-optiga-trust-charge/optiga/externals/mbedtls/library\cipher_wrap.c **** #if defined(MBEDTLS_CHACHAPOLY_C)
  37:C:/Users/Yushev/git/wpcqi-optiga-trust-charge/optiga/externals/mbedtls/library\cipher_wrap.c **** #include "mbedtls/chachapoly.h"
  38:C:/Users/Yushev/git/wpcqi-optiga-trust-charge/optiga/externals/mbedtls/library\cipher_wrap.c **** #endif
  39:C:/Users/Yushev/git/wpcqi-optiga-trust-charge/optiga/externals/mbedtls/library\cipher_wrap.c **** 
  40:C:/Users/Yushev/git/wpcqi-optiga-trust-charge/optiga/externals/mbedtls/library\cipher_wrap.c **** #if defined(MBEDTLS_AES_C)
  41:C:/Users/Yushev/git/wpcqi-optiga-trust-charge/optiga/externals/mbedtls/library\cipher_wrap.c **** #include "mbedtls/aes.h"
  42:C:/Users/Yushev/git/wpcqi-optiga-trust-charge/optiga/externals/mbedtls/library\cipher_wrap.c **** #endif
  43:C:/Users/Yushev/git/wpcqi-optiga-trust-charge/optiga/externals/mbedtls/library\cipher_wrap.c **** 
  44:C:/Users/Yushev/git/wpcqi-optiga-trust-charge/optiga/externals/mbedtls/library\cipher_wrap.c **** #if defined(MBEDTLS_ARC4_C)
  45:C:/Users/Yushev/git/wpcqi-optiga-trust-charge/optiga/externals/mbedtls/library\cipher_wrap.c **** #include "mbedtls/arc4.h"
  46:C:/Users/Yushev/git/wpcqi-optiga-trust-charge/optiga/externals/mbedtls/library\cipher_wrap.c **** #endif
  47:C:/Users/Yushev/git/wpcqi-optiga-trust-charge/optiga/externals/mbedtls/library\cipher_wrap.c **** 
  48:C:/Users/Yushev/git/wpcqi-optiga-trust-charge/optiga/externals/mbedtls/library\cipher_wrap.c **** #if defined(MBEDTLS_CAMELLIA_C)
  49:C:/Users/Yushev/git/wpcqi-optiga-trust-charge/optiga/externals/mbedtls/library\cipher_wrap.c **** #include "mbedtls/camellia.h"
  50:C:/Users/Yushev/git/wpcqi-optiga-trust-charge/optiga/externals/mbedtls/library\cipher_wrap.c **** #endif
  51:C:/Users/Yushev/git/wpcqi-optiga-trust-charge/optiga/externals/mbedtls/library\cipher_wrap.c **** 
  52:C:/Users/Yushev/git/wpcqi-optiga-trust-charge/optiga/externals/mbedtls/library\cipher_wrap.c **** #if defined(MBEDTLS_ARIA_C)
  53:C:/Users/Yushev/git/wpcqi-optiga-trust-charge/optiga/externals/mbedtls/library\cipher_wrap.c **** #include "mbedtls/aria.h"
  54:C:/Users/Yushev/git/wpcqi-optiga-trust-charge/optiga/externals/mbedtls/library\cipher_wrap.c **** #endif
  55:C:/Users/Yushev/git/wpcqi-optiga-trust-charge/optiga/externals/mbedtls/library\cipher_wrap.c **** 
  56:C:/Users/Yushev/git/wpcqi-optiga-trust-charge/optiga/externals/mbedtls/library\cipher_wrap.c **** #if defined(MBEDTLS_DES_C)
  57:C:/Users/Yushev/git/wpcqi-optiga-trust-charge/optiga/externals/mbedtls/library\cipher_wrap.c **** #include "mbedtls/des.h"
  58:C:/Users/Yushev/git/wpcqi-optiga-trust-charge/optiga/externals/mbedtls/library\cipher_wrap.c **** #endif
  59:C:/Users/Yushev/git/wpcqi-optiga-trust-charge/optiga/externals/mbedtls/library\cipher_wrap.c **** 
  60:C:/Users/Yushev/git/wpcqi-optiga-trust-charge/optiga/externals/mbedtls/library\cipher_wrap.c **** #if defined(MBEDTLS_BLOWFISH_C)
  61:C:/Users/Yushev/git/wpcqi-optiga-trust-charge/optiga/externals/mbedtls/library\cipher_wrap.c **** #include "mbedtls/blowfish.h"
  62:C:/Users/Yushev/git/wpcqi-optiga-trust-charge/optiga/externals/mbedtls/library\cipher_wrap.c **** #endif
  63:C:/Users/Yushev/git/wpcqi-optiga-trust-charge/optiga/externals/mbedtls/library\cipher_wrap.c **** 
  64:C:/Users/Yushev/git/wpcqi-optiga-trust-charge/optiga/externals/mbedtls/library\cipher_wrap.c **** #if defined(MBEDTLS_CHACHA20_C)
  65:C:/Users/Yushev/git/wpcqi-optiga-trust-charge/optiga/externals/mbedtls/library\cipher_wrap.c **** #include "mbedtls/chacha20.h"
  66:C:/Users/Yushev/git/wpcqi-optiga-trust-charge/optiga/externals/mbedtls/library\cipher_wrap.c **** #endif
  67:C:/Users/Yushev/git/wpcqi-optiga-trust-charge/optiga/externals/mbedtls/library\cipher_wrap.c **** 
  68:C:/Users/Yushev/git/wpcqi-optiga-trust-charge/optiga/externals/mbedtls/library\cipher_wrap.c **** #if defined(MBEDTLS_GCM_C)
  69:C:/Users/Yushev/git/wpcqi-optiga-trust-charge/optiga/externals/mbedtls/library\cipher_wrap.c **** #include "mbedtls/gcm.h"
  70:C:/Users/Yushev/git/wpcqi-optiga-trust-charge/optiga/externals/mbedtls/library\cipher_wrap.c **** #endif
  71:C:/Users/Yushev/git/wpcqi-optiga-trust-charge/optiga/externals/mbedtls/library\cipher_wrap.c **** 
  72:C:/Users/Yushev/git/wpcqi-optiga-trust-charge/optiga/externals/mbedtls/library\cipher_wrap.c **** #if defined(MBEDTLS_CCM_C)
  73:C:/Users/Yushev/git/wpcqi-optiga-trust-charge/optiga/externals/mbedtls/library\cipher_wrap.c **** #include "mbedtls/ccm.h"
  74:C:/Users/Yushev/git/wpcqi-optiga-trust-charge/optiga/externals/mbedtls/library\cipher_wrap.c **** #endif
  75:C:/Users/Yushev/git/wpcqi-optiga-trust-charge/optiga/externals/mbedtls/library\cipher_wrap.c **** 
  76:C:/Users/Yushev/git/wpcqi-optiga-trust-charge/optiga/externals/mbedtls/library\cipher_wrap.c **** #if defined(MBEDTLS_CIPHER_NULL_CIPHER)
  77:C:/Users/Yushev/git/wpcqi-optiga-trust-charge/optiga/externals/mbedtls/library\cipher_wrap.c **** #include <string.h>
  78:C:/Users/Yushev/git/wpcqi-optiga-trust-charge/optiga/externals/mbedtls/library\cipher_wrap.c **** #endif
  79:C:/Users/Yushev/git/wpcqi-optiga-trust-charge/optiga/externals/mbedtls/library\cipher_wrap.c **** 
  80:C:/Users/Yushev/git/wpcqi-optiga-trust-charge/optiga/externals/mbedtls/library\cipher_wrap.c **** #if defined(MBEDTLS_PLATFORM_C)
  81:C:/Users/Yushev/git/wpcqi-optiga-trust-charge/optiga/externals/mbedtls/library\cipher_wrap.c **** #include "mbedtls/platform.h"
  82:C:/Users/Yushev/git/wpcqi-optiga-trust-charge/optiga/externals/mbedtls/library\cipher_wrap.c **** #else
  83:C:/Users/Yushev/git/wpcqi-optiga-trust-charge/optiga/externals/mbedtls/library\cipher_wrap.c **** #include <stdlib.h>
  84:C:/Users/Yushev/git/wpcqi-optiga-trust-charge/optiga/externals/mbedtls/library\cipher_wrap.c **** #define mbedtls_calloc    calloc
  85:C:/Users/Yushev/git/wpcqi-optiga-trust-charge/optiga/externals/mbedtls/library\cipher_wrap.c **** #define mbedtls_free       free
  86:C:/Users/Yushev/git/wpcqi-optiga-trust-charge/optiga/externals/mbedtls/library\cipher_wrap.c **** #endif
  87:C:/Users/Yushev/git/wpcqi-optiga-trust-charge/optiga/externals/mbedtls/library\cipher_wrap.c **** 
  88:C:/Users/Yushev/git/wpcqi-optiga-trust-charge/optiga/externals/mbedtls/library\cipher_wrap.c **** #if defined(MBEDTLS_GCM_C)
  89:C:/Users/Yushev/git/wpcqi-optiga-trust-charge/optiga/externals/mbedtls/library\cipher_wrap.c **** /* shared by all GCM ciphers */
  90:C:/Users/Yushev/git/wpcqi-optiga-trust-charge/optiga/externals/mbedtls/library\cipher_wrap.c **** static void *gcm_ctx_alloc( void )
  91:C:/Users/Yushev/git/wpcqi-optiga-trust-charge/optiga/externals/mbedtls/library\cipher_wrap.c **** {
  92:C:/Users/Yushev/git/wpcqi-optiga-trust-charge/optiga/externals/mbedtls/library\cipher_wrap.c ****     void *ctx = mbedtls_calloc( 1, sizeof( mbedtls_gcm_context ) );
  93:C:/Users/Yushev/git/wpcqi-optiga-trust-charge/optiga/externals/mbedtls/library\cipher_wrap.c **** 
  94:C:/Users/Yushev/git/wpcqi-optiga-trust-charge/optiga/externals/mbedtls/library\cipher_wrap.c ****     if( ctx != NULL )
  95:C:/Users/Yushev/git/wpcqi-optiga-trust-charge/optiga/externals/mbedtls/library\cipher_wrap.c ****         mbedtls_gcm_init( (mbedtls_gcm_context *) ctx );
  96:C:/Users/Yushev/git/wpcqi-optiga-trust-charge/optiga/externals/mbedtls/library\cipher_wrap.c **** 
  97:C:/Users/Yushev/git/wpcqi-optiga-trust-charge/optiga/externals/mbedtls/library\cipher_wrap.c ****     return( ctx );
  98:C:/Users/Yushev/git/wpcqi-optiga-trust-charge/optiga/externals/mbedtls/library\cipher_wrap.c **** }
  99:C:/Users/Yushev/git/wpcqi-optiga-trust-charge/optiga/externals/mbedtls/library\cipher_wrap.c **** 
 100:C:/Users/Yushev/git/wpcqi-optiga-trust-charge/optiga/externals/mbedtls/library\cipher_wrap.c **** static void gcm_ctx_free( void *ctx )
 101:C:/Users/Yushev/git/wpcqi-optiga-trust-charge/optiga/externals/mbedtls/library\cipher_wrap.c **** {
 102:C:/Users/Yushev/git/wpcqi-optiga-trust-charge/optiga/externals/mbedtls/library\cipher_wrap.c ****     mbedtls_gcm_free( ctx );
 103:C:/Users/Yushev/git/wpcqi-optiga-trust-charge/optiga/externals/mbedtls/library\cipher_wrap.c ****     mbedtls_free( ctx );
 104:C:/Users/Yushev/git/wpcqi-optiga-trust-charge/optiga/externals/mbedtls/library\cipher_wrap.c **** }
 105:C:/Users/Yushev/git/wpcqi-optiga-trust-charge/optiga/externals/mbedtls/library\cipher_wrap.c **** #endif /* MBEDTLS_GCM_C */
 106:C:/Users/Yushev/git/wpcqi-optiga-trust-charge/optiga/externals/mbedtls/library\cipher_wrap.c **** 
 107:C:/Users/Yushev/git/wpcqi-optiga-trust-charge/optiga/externals/mbedtls/library\cipher_wrap.c **** #if defined(MBEDTLS_CCM_C)
 108:C:/Users/Yushev/git/wpcqi-optiga-trust-charge/optiga/externals/mbedtls/library\cipher_wrap.c **** /* shared by all CCM ciphers */
 109:C:/Users/Yushev/git/wpcqi-optiga-trust-charge/optiga/externals/mbedtls/library\cipher_wrap.c **** static void *ccm_ctx_alloc( void )
 110:C:/Users/Yushev/git/wpcqi-optiga-trust-charge/optiga/externals/mbedtls/library\cipher_wrap.c **** {
  27              	 .loc 1 110 0
  28              	 .cfi_startproc
  29              	 
  30              	 
  31 0000 80B5     	 push {r7,lr}
  32              	.LCFI0:
  33              	 .cfi_def_cfa_offset 8
  34              	 .cfi_offset 7,-8
  35              	 .cfi_offset 14,-4
  36 0002 82B0     	 sub sp,sp,#8
  37              	.LCFI1:
  38              	 .cfi_def_cfa_offset 16
  39 0004 00AF     	 add r7,sp,#0
  40              	.LCFI2:
  41              	 .cfi_def_cfa_register 7
 111:C:/Users/Yushev/git/wpcqi-optiga-trust-charge/optiga/externals/mbedtls/library\cipher_wrap.c ****     void *ctx = mbedtls_calloc( 1, sizeof( mbedtls_ccm_context ) );
  42              	 .loc 1 111 0
  43 0006 0120     	 movs r0,#1
  44 0008 3821     	 movs r1,#56
  45 000a FFF7FEFF 	 bl calloc
  46 000e 0346     	 mov r3,r0
  47 0010 7B60     	 str r3,[r7,#4]
 112:C:/Users/Yushev/git/wpcqi-optiga-trust-charge/optiga/externals/mbedtls/library\cipher_wrap.c **** 
 113:C:/Users/Yushev/git/wpcqi-optiga-trust-charge/optiga/externals/mbedtls/library\cipher_wrap.c ****     if( ctx != NULL )
  48              	 .loc 1 113 0
  49 0012 7B68     	 ldr r3,[r7,#4]
  50 0014 002B     	 cmp r3,#0
  51 0016 02D0     	 beq .L2
 114:C:/Users/Yushev/git/wpcqi-optiga-trust-charge/optiga/externals/mbedtls/library\cipher_wrap.c ****         mbedtls_ccm_init( (mbedtls_ccm_context *) ctx );
  52              	 .loc 1 114 0
  53 0018 7868     	 ldr r0,[r7,#4]
  54 001a FFF7FEFF 	 bl mbedtls_ccm_init
  55              	.L2:
 115:C:/Users/Yushev/git/wpcqi-optiga-trust-charge/optiga/externals/mbedtls/library\cipher_wrap.c **** 
 116:C:/Users/Yushev/git/wpcqi-optiga-trust-charge/optiga/externals/mbedtls/library\cipher_wrap.c ****     return( ctx );
  56              	 .loc 1 116 0
  57 001e 7B68     	 ldr r3,[r7,#4]
 117:C:/Users/Yushev/git/wpcqi-optiga-trust-charge/optiga/externals/mbedtls/library\cipher_wrap.c **** }
  58              	 .loc 1 117 0
  59 0020 1846     	 mov r0,r3
  60 0022 0837     	 adds r7,r7,#8
  61              	.LCFI3:
  62              	 .cfi_def_cfa_offset 8
  63 0024 BD46     	 mov sp,r7
  64              	.LCFI4:
  65              	 .cfi_def_cfa_register 13
  66              	 
  67 0026 80BD     	 pop {r7,pc}
  68              	 .cfi_endproc
  69              	.LFE7:
  71              	 .section .text.ccm_ctx_free,"ax",%progbits
  72              	 .align 2
  73              	 .thumb
  74              	 .thumb_func
  76              	ccm_ctx_free:
  77              	.LFB8:
 118:C:/Users/Yushev/git/wpcqi-optiga-trust-charge/optiga/externals/mbedtls/library\cipher_wrap.c **** 
 119:C:/Users/Yushev/git/wpcqi-optiga-trust-charge/optiga/externals/mbedtls/library\cipher_wrap.c **** static void ccm_ctx_free( void *ctx )
 120:C:/Users/Yushev/git/wpcqi-optiga-trust-charge/optiga/externals/mbedtls/library\cipher_wrap.c **** {
  78              	 .loc 1 120 0
  79              	 .cfi_startproc
  80              	 
  81              	 
  82 0000 80B5     	 push {r7,lr}
  83              	.LCFI5:
  84              	 .cfi_def_cfa_offset 8
  85              	 .cfi_offset 7,-8
  86              	 .cfi_offset 14,-4
  87 0002 82B0     	 sub sp,sp,#8
  88              	.LCFI6:
  89              	 .cfi_def_cfa_offset 16
  90 0004 00AF     	 add r7,sp,#0
  91              	.LCFI7:
  92              	 .cfi_def_cfa_register 7
  93 0006 7860     	 str r0,[r7,#4]
 121:C:/Users/Yushev/git/wpcqi-optiga-trust-charge/optiga/externals/mbedtls/library\cipher_wrap.c ****     mbedtls_ccm_free( ctx );
  94              	 .loc 1 121 0
  95 0008 7868     	 ldr r0,[r7,#4]
  96 000a FFF7FEFF 	 bl mbedtls_ccm_free
 122:C:/Users/Yushev/git/wpcqi-optiga-trust-charge/optiga/externals/mbedtls/library\cipher_wrap.c ****     mbedtls_free( ctx );
  97              	 .loc 1 122 0
  98 000e 7868     	 ldr r0,[r7,#4]
  99 0010 FFF7FEFF 	 bl free
 123:C:/Users/Yushev/git/wpcqi-optiga-trust-charge/optiga/externals/mbedtls/library\cipher_wrap.c **** }
 100              	 .loc 1 123 0
 101 0014 0837     	 adds r7,r7,#8
 102              	.LCFI8:
 103              	 .cfi_def_cfa_offset 8
 104 0016 BD46     	 mov sp,r7
 105              	.LCFI9:
 106              	 .cfi_def_cfa_register 13
 107              	 
 108 0018 80BD     	 pop {r7,pc}
 109              	 .cfi_endproc
 110              	.LFE8:
 112 001a 00BF     	 .section .text.aes_crypt_ecb_wrap,"ax",%progbits
 113              	 .align 2
 114              	 .thumb
 115              	 .thumb_func
 117              	aes_crypt_ecb_wrap:
 118              	.LFB9:
 124:C:/Users/Yushev/git/wpcqi-optiga-trust-charge/optiga/externals/mbedtls/library\cipher_wrap.c **** #endif /* MBEDTLS_CCM_C */
 125:C:/Users/Yushev/git/wpcqi-optiga-trust-charge/optiga/externals/mbedtls/library\cipher_wrap.c **** 
 126:C:/Users/Yushev/git/wpcqi-optiga-trust-charge/optiga/externals/mbedtls/library\cipher_wrap.c **** #if defined(MBEDTLS_AES_C)
 127:C:/Users/Yushev/git/wpcqi-optiga-trust-charge/optiga/externals/mbedtls/library\cipher_wrap.c **** 
 128:C:/Users/Yushev/git/wpcqi-optiga-trust-charge/optiga/externals/mbedtls/library\cipher_wrap.c **** static int aes_crypt_ecb_wrap( void *ctx, mbedtls_operation_t operation,
 129:C:/Users/Yushev/git/wpcqi-optiga-trust-charge/optiga/externals/mbedtls/library\cipher_wrap.c ****         const unsigned char *input, unsigned char *output )
 130:C:/Users/Yushev/git/wpcqi-optiga-trust-charge/optiga/externals/mbedtls/library\cipher_wrap.c **** {
 119              	 .loc 1 130 0
 120              	 .cfi_startproc
 121              	 
 122              	 
 123 0000 80B5     	 push {r7,lr}
 124              	.LCFI10:
 125              	 .cfi_def_cfa_offset 8
 126              	 .cfi_offset 7,-8
 127              	 .cfi_offset 14,-4
 128 0002 84B0     	 sub sp,sp,#16
 129              	.LCFI11:
 130              	 .cfi_def_cfa_offset 24
 131 0004 00AF     	 add r7,sp,#0
 132              	.LCFI12:
 133              	 .cfi_def_cfa_register 7
 134 0006 F860     	 str r0,[r7,#12]
 135 0008 7A60     	 str r2,[r7,#4]
 136 000a 3B60     	 str r3,[r7]
 137 000c 0B46     	 mov r3,r1
 138 000e FB72     	 strb r3,[r7,#11]
 131:C:/Users/Yushev/git/wpcqi-optiga-trust-charge/optiga/externals/mbedtls/library\cipher_wrap.c ****     return mbedtls_aes_crypt_ecb( (mbedtls_aes_context *) ctx, operation, input, output );
 139              	 .loc 1 131 0
 140 0010 97F90B30 	 ldrsb r3,[r7,#11]
 141 0014 F868     	 ldr r0,[r7,#12]
 142 0016 1946     	 mov r1,r3
 143 0018 7A68     	 ldr r2,[r7,#4]
 144 001a 3B68     	 ldr r3,[r7]
 145 001c FFF7FEFF 	 bl mbedtls_aes_crypt_ecb
 146 0020 0346     	 mov r3,r0
 132:C:/Users/Yushev/git/wpcqi-optiga-trust-charge/optiga/externals/mbedtls/library\cipher_wrap.c **** }
 147              	 .loc 1 132 0
 148 0022 1846     	 mov r0,r3
 149 0024 1037     	 adds r7,r7,#16
 150              	.LCFI13:
 151              	 .cfi_def_cfa_offset 8
 152 0026 BD46     	 mov sp,r7
 153              	.LCFI14:
 154              	 .cfi_def_cfa_register 13
 155              	 
 156 0028 80BD     	 pop {r7,pc}
 157              	 .cfi_endproc
 158              	.LFE9:
 160 002a 00BF     	 .section .text.aes_setkey_dec_wrap,"ax",%progbits
 161              	 .align 2
 162              	 .thumb
 163              	 .thumb_func
 165              	aes_setkey_dec_wrap:
 166              	.LFB10:
 133:C:/Users/Yushev/git/wpcqi-optiga-trust-charge/optiga/externals/mbedtls/library\cipher_wrap.c **** 
 134:C:/Users/Yushev/git/wpcqi-optiga-trust-charge/optiga/externals/mbedtls/library\cipher_wrap.c **** #if defined(MBEDTLS_CIPHER_MODE_CBC)
 135:C:/Users/Yushev/git/wpcqi-optiga-trust-charge/optiga/externals/mbedtls/library\cipher_wrap.c **** static int aes_crypt_cbc_wrap( void *ctx, mbedtls_operation_t operation, size_t length,
 136:C:/Users/Yushev/git/wpcqi-optiga-trust-charge/optiga/externals/mbedtls/library\cipher_wrap.c ****         unsigned char *iv, const unsigned char *input, unsigned char *output )
 137:C:/Users/Yushev/git/wpcqi-optiga-trust-charge/optiga/externals/mbedtls/library\cipher_wrap.c **** {
 138:C:/Users/Yushev/git/wpcqi-optiga-trust-charge/optiga/externals/mbedtls/library\cipher_wrap.c ****     return mbedtls_aes_crypt_cbc( (mbedtls_aes_context *) ctx, operation, length, iv, input,
 139:C:/Users/Yushev/git/wpcqi-optiga-trust-charge/optiga/externals/mbedtls/library\cipher_wrap.c ****                           output );
 140:C:/Users/Yushev/git/wpcqi-optiga-trust-charge/optiga/externals/mbedtls/library\cipher_wrap.c **** }
 141:C:/Users/Yushev/git/wpcqi-optiga-trust-charge/optiga/externals/mbedtls/library\cipher_wrap.c **** #endif /* MBEDTLS_CIPHER_MODE_CBC */
 142:C:/Users/Yushev/git/wpcqi-optiga-trust-charge/optiga/externals/mbedtls/library\cipher_wrap.c **** 
 143:C:/Users/Yushev/git/wpcqi-optiga-trust-charge/optiga/externals/mbedtls/library\cipher_wrap.c **** #if defined(MBEDTLS_CIPHER_MODE_CFB)
 144:C:/Users/Yushev/git/wpcqi-optiga-trust-charge/optiga/externals/mbedtls/library\cipher_wrap.c **** static int aes_crypt_cfb128_wrap( void *ctx, mbedtls_operation_t operation,
 145:C:/Users/Yushev/git/wpcqi-optiga-trust-charge/optiga/externals/mbedtls/library\cipher_wrap.c ****         size_t length, size_t *iv_off, unsigned char *iv,
 146:C:/Users/Yushev/git/wpcqi-optiga-trust-charge/optiga/externals/mbedtls/library\cipher_wrap.c ****         const unsigned char *input, unsigned char *output )
 147:C:/Users/Yushev/git/wpcqi-optiga-trust-charge/optiga/externals/mbedtls/library\cipher_wrap.c **** {
 148:C:/Users/Yushev/git/wpcqi-optiga-trust-charge/optiga/externals/mbedtls/library\cipher_wrap.c ****     return mbedtls_aes_crypt_cfb128( (mbedtls_aes_context *) ctx, operation, length, iv_off, iv,
 149:C:/Users/Yushev/git/wpcqi-optiga-trust-charge/optiga/externals/mbedtls/library\cipher_wrap.c ****                              input, output );
 150:C:/Users/Yushev/git/wpcqi-optiga-trust-charge/optiga/externals/mbedtls/library\cipher_wrap.c **** }
 151:C:/Users/Yushev/git/wpcqi-optiga-trust-charge/optiga/externals/mbedtls/library\cipher_wrap.c **** #endif /* MBEDTLS_CIPHER_MODE_CFB */
 152:C:/Users/Yushev/git/wpcqi-optiga-trust-charge/optiga/externals/mbedtls/library\cipher_wrap.c **** 
 153:C:/Users/Yushev/git/wpcqi-optiga-trust-charge/optiga/externals/mbedtls/library\cipher_wrap.c **** #if defined(MBEDTLS_CIPHER_MODE_OFB)
 154:C:/Users/Yushev/git/wpcqi-optiga-trust-charge/optiga/externals/mbedtls/library\cipher_wrap.c **** static int aes_crypt_ofb_wrap( void *ctx, size_t length, size_t *iv_off,
 155:C:/Users/Yushev/git/wpcqi-optiga-trust-charge/optiga/externals/mbedtls/library\cipher_wrap.c ****         unsigned char *iv, const unsigned char *input, unsigned char *output )
 156:C:/Users/Yushev/git/wpcqi-optiga-trust-charge/optiga/externals/mbedtls/library\cipher_wrap.c **** {
 157:C:/Users/Yushev/git/wpcqi-optiga-trust-charge/optiga/externals/mbedtls/library\cipher_wrap.c ****     return mbedtls_aes_crypt_ofb( (mbedtls_aes_context *) ctx, length, iv_off,
 158:C:/Users/Yushev/git/wpcqi-optiga-trust-charge/optiga/externals/mbedtls/library\cipher_wrap.c ****                                     iv, input, output );
 159:C:/Users/Yushev/git/wpcqi-optiga-trust-charge/optiga/externals/mbedtls/library\cipher_wrap.c **** }
 160:C:/Users/Yushev/git/wpcqi-optiga-trust-charge/optiga/externals/mbedtls/library\cipher_wrap.c **** #endif /* MBEDTLS_CIPHER_MODE_OFB */
 161:C:/Users/Yushev/git/wpcqi-optiga-trust-charge/optiga/externals/mbedtls/library\cipher_wrap.c **** 
 162:C:/Users/Yushev/git/wpcqi-optiga-trust-charge/optiga/externals/mbedtls/library\cipher_wrap.c **** #if defined(MBEDTLS_CIPHER_MODE_CTR)
 163:C:/Users/Yushev/git/wpcqi-optiga-trust-charge/optiga/externals/mbedtls/library\cipher_wrap.c **** static int aes_crypt_ctr_wrap( void *ctx, size_t length, size_t *nc_off,
 164:C:/Users/Yushev/git/wpcqi-optiga-trust-charge/optiga/externals/mbedtls/library\cipher_wrap.c ****         unsigned char *nonce_counter, unsigned char *stream_block,
 165:C:/Users/Yushev/git/wpcqi-optiga-trust-charge/optiga/externals/mbedtls/library\cipher_wrap.c ****         const unsigned char *input, unsigned char *output )
 166:C:/Users/Yushev/git/wpcqi-optiga-trust-charge/optiga/externals/mbedtls/library\cipher_wrap.c **** {
 167:C:/Users/Yushev/git/wpcqi-optiga-trust-charge/optiga/externals/mbedtls/library\cipher_wrap.c ****     return mbedtls_aes_crypt_ctr( (mbedtls_aes_context *) ctx, length, nc_off, nonce_counter,
 168:C:/Users/Yushev/git/wpcqi-optiga-trust-charge/optiga/externals/mbedtls/library\cipher_wrap.c ****                           stream_block, input, output );
 169:C:/Users/Yushev/git/wpcqi-optiga-trust-charge/optiga/externals/mbedtls/library\cipher_wrap.c **** }
 170:C:/Users/Yushev/git/wpcqi-optiga-trust-charge/optiga/externals/mbedtls/library\cipher_wrap.c **** #endif /* MBEDTLS_CIPHER_MODE_CTR */
 171:C:/Users/Yushev/git/wpcqi-optiga-trust-charge/optiga/externals/mbedtls/library\cipher_wrap.c **** 
 172:C:/Users/Yushev/git/wpcqi-optiga-trust-charge/optiga/externals/mbedtls/library\cipher_wrap.c **** #if defined(MBEDTLS_CIPHER_MODE_XTS)
 173:C:/Users/Yushev/git/wpcqi-optiga-trust-charge/optiga/externals/mbedtls/library\cipher_wrap.c **** static int aes_crypt_xts_wrap( void *ctx, mbedtls_operation_t operation,
 174:C:/Users/Yushev/git/wpcqi-optiga-trust-charge/optiga/externals/mbedtls/library\cipher_wrap.c ****                                size_t length,
 175:C:/Users/Yushev/git/wpcqi-optiga-trust-charge/optiga/externals/mbedtls/library\cipher_wrap.c ****                                const unsigned char data_unit[16],
 176:C:/Users/Yushev/git/wpcqi-optiga-trust-charge/optiga/externals/mbedtls/library\cipher_wrap.c ****                                const unsigned char *input,
 177:C:/Users/Yushev/git/wpcqi-optiga-trust-charge/optiga/externals/mbedtls/library\cipher_wrap.c ****                                unsigned char *output )
 178:C:/Users/Yushev/git/wpcqi-optiga-trust-charge/optiga/externals/mbedtls/library\cipher_wrap.c **** {
 179:C:/Users/Yushev/git/wpcqi-optiga-trust-charge/optiga/externals/mbedtls/library\cipher_wrap.c ****     mbedtls_aes_xts_context *xts_ctx = ctx;
 180:C:/Users/Yushev/git/wpcqi-optiga-trust-charge/optiga/externals/mbedtls/library\cipher_wrap.c ****     int mode;
 181:C:/Users/Yushev/git/wpcqi-optiga-trust-charge/optiga/externals/mbedtls/library\cipher_wrap.c **** 
 182:C:/Users/Yushev/git/wpcqi-optiga-trust-charge/optiga/externals/mbedtls/library\cipher_wrap.c ****     switch( operation )
 183:C:/Users/Yushev/git/wpcqi-optiga-trust-charge/optiga/externals/mbedtls/library\cipher_wrap.c ****     {
 184:C:/Users/Yushev/git/wpcqi-optiga-trust-charge/optiga/externals/mbedtls/library\cipher_wrap.c ****         case MBEDTLS_ENCRYPT:
 185:C:/Users/Yushev/git/wpcqi-optiga-trust-charge/optiga/externals/mbedtls/library\cipher_wrap.c ****             mode = MBEDTLS_AES_ENCRYPT;
 186:C:/Users/Yushev/git/wpcqi-optiga-trust-charge/optiga/externals/mbedtls/library\cipher_wrap.c ****             break;
 187:C:/Users/Yushev/git/wpcqi-optiga-trust-charge/optiga/externals/mbedtls/library\cipher_wrap.c ****         case MBEDTLS_DECRYPT:
 188:C:/Users/Yushev/git/wpcqi-optiga-trust-charge/optiga/externals/mbedtls/library\cipher_wrap.c ****             mode = MBEDTLS_AES_DECRYPT;
 189:C:/Users/Yushev/git/wpcqi-optiga-trust-charge/optiga/externals/mbedtls/library\cipher_wrap.c ****             break;
 190:C:/Users/Yushev/git/wpcqi-optiga-trust-charge/optiga/externals/mbedtls/library\cipher_wrap.c ****         default:
 191:C:/Users/Yushev/git/wpcqi-optiga-trust-charge/optiga/externals/mbedtls/library\cipher_wrap.c ****             return MBEDTLS_ERR_CIPHER_BAD_INPUT_DATA;
 192:C:/Users/Yushev/git/wpcqi-optiga-trust-charge/optiga/externals/mbedtls/library\cipher_wrap.c ****     }
 193:C:/Users/Yushev/git/wpcqi-optiga-trust-charge/optiga/externals/mbedtls/library\cipher_wrap.c **** 
 194:C:/Users/Yushev/git/wpcqi-optiga-trust-charge/optiga/externals/mbedtls/library\cipher_wrap.c ****     return mbedtls_aes_crypt_xts( xts_ctx, mode, length,
 195:C:/Users/Yushev/git/wpcqi-optiga-trust-charge/optiga/externals/mbedtls/library\cipher_wrap.c ****                                   data_unit, input, output );
 196:C:/Users/Yushev/git/wpcqi-optiga-trust-charge/optiga/externals/mbedtls/library\cipher_wrap.c **** }
 197:C:/Users/Yushev/git/wpcqi-optiga-trust-charge/optiga/externals/mbedtls/library\cipher_wrap.c **** #endif /* MBEDTLS_CIPHER_MODE_XTS */
 198:C:/Users/Yushev/git/wpcqi-optiga-trust-charge/optiga/externals/mbedtls/library\cipher_wrap.c **** 
 199:C:/Users/Yushev/git/wpcqi-optiga-trust-charge/optiga/externals/mbedtls/library\cipher_wrap.c **** static int aes_setkey_dec_wrap( void *ctx, const unsigned char *key,
 200:C:/Users/Yushev/git/wpcqi-optiga-trust-charge/optiga/externals/mbedtls/library\cipher_wrap.c ****                                 unsigned int key_bitlen )
 201:C:/Users/Yushev/git/wpcqi-optiga-trust-charge/optiga/externals/mbedtls/library\cipher_wrap.c **** {
 167              	 .loc 1 201 0
 168              	 .cfi_startproc
 169              	 
 170              	 
 171 0000 80B5     	 push {r7,lr}
 172              	.LCFI15:
 173              	 .cfi_def_cfa_offset 8
 174              	 .cfi_offset 7,-8
 175              	 .cfi_offset 14,-4
 176 0002 84B0     	 sub sp,sp,#16
 177              	.LCFI16:
 178              	 .cfi_def_cfa_offset 24
 179 0004 00AF     	 add r7,sp,#0
 180              	.LCFI17:
 181              	 .cfi_def_cfa_register 7
 182 0006 F860     	 str r0,[r7,#12]
 183 0008 B960     	 str r1,[r7,#8]
 184 000a 7A60     	 str r2,[r7,#4]
 202:C:/Users/Yushev/git/wpcqi-optiga-trust-charge/optiga/externals/mbedtls/library\cipher_wrap.c ****     return mbedtls_aes_setkey_dec( (mbedtls_aes_context *) ctx, key, key_bitlen );
 185              	 .loc 1 202 0
 186 000c F868     	 ldr r0,[r7,#12]
 187 000e B968     	 ldr r1,[r7,#8]
 188 0010 7A68     	 ldr r2,[r7,#4]
 189 0012 FFF7FEFF 	 bl mbedtls_aes_setkey_dec
 190 0016 0346     	 mov r3,r0
 203:C:/Users/Yushev/git/wpcqi-optiga-trust-charge/optiga/externals/mbedtls/library\cipher_wrap.c **** }
 191              	 .loc 1 203 0
 192 0018 1846     	 mov r0,r3
 193 001a 1037     	 adds r7,r7,#16
 194              	.LCFI18:
 195              	 .cfi_def_cfa_offset 8
 196 001c BD46     	 mov sp,r7
 197              	.LCFI19:
 198              	 .cfi_def_cfa_register 13
 199              	 
 200 001e 80BD     	 pop {r7,pc}
 201              	 .cfi_endproc
 202              	.LFE10:
 204              	 .section .text.aes_setkey_enc_wrap,"ax",%progbits
 205              	 .align 2
 206              	 .thumb
 207              	 .thumb_func
 209              	aes_setkey_enc_wrap:
 210              	.LFB11:
 204:C:/Users/Yushev/git/wpcqi-optiga-trust-charge/optiga/externals/mbedtls/library\cipher_wrap.c **** 
 205:C:/Users/Yushev/git/wpcqi-optiga-trust-charge/optiga/externals/mbedtls/library\cipher_wrap.c **** static int aes_setkey_enc_wrap( void *ctx, const unsigned char *key,
 206:C:/Users/Yushev/git/wpcqi-optiga-trust-charge/optiga/externals/mbedtls/library\cipher_wrap.c ****                                 unsigned int key_bitlen )
 207:C:/Users/Yushev/git/wpcqi-optiga-trust-charge/optiga/externals/mbedtls/library\cipher_wrap.c **** {
 211              	 .loc 1 207 0
 212              	 .cfi_startproc
 213              	 
 214              	 
 215 0000 80B5     	 push {r7,lr}
 216              	.LCFI20:
 217              	 .cfi_def_cfa_offset 8
 218              	 .cfi_offset 7,-8
 219              	 .cfi_offset 14,-4
 220 0002 84B0     	 sub sp,sp,#16
 221              	.LCFI21:
 222              	 .cfi_def_cfa_offset 24
 223 0004 00AF     	 add r7,sp,#0
 224              	.LCFI22:
 225              	 .cfi_def_cfa_register 7
 226 0006 F860     	 str r0,[r7,#12]
 227 0008 B960     	 str r1,[r7,#8]
 228 000a 7A60     	 str r2,[r7,#4]
 208:C:/Users/Yushev/git/wpcqi-optiga-trust-charge/optiga/externals/mbedtls/library\cipher_wrap.c ****     return mbedtls_aes_setkey_enc( (mbedtls_aes_context *) ctx, key, key_bitlen );
 229              	 .loc 1 208 0
 230 000c F868     	 ldr r0,[r7,#12]
 231 000e B968     	 ldr r1,[r7,#8]
 232 0010 7A68     	 ldr r2,[r7,#4]
 233 0012 FFF7FEFF 	 bl mbedtls_aes_setkey_enc
 234 0016 0346     	 mov r3,r0
 209:C:/Users/Yushev/git/wpcqi-optiga-trust-charge/optiga/externals/mbedtls/library\cipher_wrap.c **** }
 235              	 .loc 1 209 0
 236 0018 1846     	 mov r0,r3
 237 001a 1037     	 adds r7,r7,#16
 238              	.LCFI23:
 239              	 .cfi_def_cfa_offset 8
 240 001c BD46     	 mov sp,r7
 241              	.LCFI24:
 242              	 .cfi_def_cfa_register 13
 243              	 
 244 001e 80BD     	 pop {r7,pc}
 245              	 .cfi_endproc
 246              	.LFE11:
 248              	 .section .text.aes_ctx_alloc,"ax",%progbits
 249              	 .align 2
 250              	 .thumb
 251              	 .thumb_func
 253              	aes_ctx_alloc:
 254              	.LFB12:
 210:C:/Users/Yushev/git/wpcqi-optiga-trust-charge/optiga/externals/mbedtls/library\cipher_wrap.c **** 
 211:C:/Users/Yushev/git/wpcqi-optiga-trust-charge/optiga/externals/mbedtls/library\cipher_wrap.c **** static void * aes_ctx_alloc( void )
 212:C:/Users/Yushev/git/wpcqi-optiga-trust-charge/optiga/externals/mbedtls/library\cipher_wrap.c **** {
 255              	 .loc 1 212 0
 256              	 .cfi_startproc
 257              	 
 258              	 
 259 0000 80B5     	 push {r7,lr}
 260              	.LCFI25:
 261              	 .cfi_def_cfa_offset 8
 262              	 .cfi_offset 7,-8
 263              	 .cfi_offset 14,-4
 264 0002 82B0     	 sub sp,sp,#8
 265              	.LCFI26:
 266              	 .cfi_def_cfa_offset 16
 267 0004 00AF     	 add r7,sp,#0
 268              	.LCFI27:
 269              	 .cfi_def_cfa_register 7
 213:C:/Users/Yushev/git/wpcqi-optiga-trust-charge/optiga/externals/mbedtls/library\cipher_wrap.c ****     mbedtls_aes_context *aes = mbedtls_calloc( 1, sizeof( mbedtls_aes_context ) );
 270              	 .loc 1 213 0
 271 0006 0120     	 movs r0,#1
 272 0008 4FF48C71 	 mov r1,#280
 273 000c FFF7FEFF 	 bl calloc
 274 0010 0346     	 mov r3,r0
 275 0012 7B60     	 str r3,[r7,#4]
 214:C:/Users/Yushev/git/wpcqi-optiga-trust-charge/optiga/externals/mbedtls/library\cipher_wrap.c **** 
 215:C:/Users/Yushev/git/wpcqi-optiga-trust-charge/optiga/externals/mbedtls/library\cipher_wrap.c ****     if( aes == NULL )
 276              	 .loc 1 215 0
 277 0014 7B68     	 ldr r3,[r7,#4]
 278 0016 002B     	 cmp r3,#0
 279 0018 01D1     	 bne .L12
 216:C:/Users/Yushev/git/wpcqi-optiga-trust-charge/optiga/externals/mbedtls/library\cipher_wrap.c ****         return( NULL );
 280              	 .loc 1 216 0
 281 001a 0023     	 movs r3,#0
 282 001c 03E0     	 b .L13
 283              	.L12:
 217:C:/Users/Yushev/git/wpcqi-optiga-trust-charge/optiga/externals/mbedtls/library\cipher_wrap.c **** 
 218:C:/Users/Yushev/git/wpcqi-optiga-trust-charge/optiga/externals/mbedtls/library\cipher_wrap.c ****     mbedtls_aes_init( aes );
 284              	 .loc 1 218 0
 285 001e 7868     	 ldr r0,[r7,#4]
 286 0020 FFF7FEFF 	 bl mbedtls_aes_init
 219:C:/Users/Yushev/git/wpcqi-optiga-trust-charge/optiga/externals/mbedtls/library\cipher_wrap.c **** 
 220:C:/Users/Yushev/git/wpcqi-optiga-trust-charge/optiga/externals/mbedtls/library\cipher_wrap.c ****     return( aes );
 287              	 .loc 1 220 0
 288 0024 7B68     	 ldr r3,[r7,#4]
 289              	.L13:
 221:C:/Users/Yushev/git/wpcqi-optiga-trust-charge/optiga/externals/mbedtls/library\cipher_wrap.c **** }
 290              	 .loc 1 221 0
 291 0026 1846     	 mov r0,r3
 292 0028 0837     	 adds r7,r7,#8
 293              	.LCFI28:
 294              	 .cfi_def_cfa_offset 8
 295 002a BD46     	 mov sp,r7
 296              	.LCFI29:
 297              	 .cfi_def_cfa_register 13
 298              	 
 299 002c 80BD     	 pop {r7,pc}
 300              	 .cfi_endproc
 301              	.LFE12:
 303 002e 00BF     	 .section .text.aes_ctx_free,"ax",%progbits
 304              	 .align 2
 305              	 .thumb
 306              	 .thumb_func
 308              	aes_ctx_free:
 309              	.LFB13:
 222:C:/Users/Yushev/git/wpcqi-optiga-trust-charge/optiga/externals/mbedtls/library\cipher_wrap.c **** 
 223:C:/Users/Yushev/git/wpcqi-optiga-trust-charge/optiga/externals/mbedtls/library\cipher_wrap.c **** static void aes_ctx_free( void *ctx )
 224:C:/Users/Yushev/git/wpcqi-optiga-trust-charge/optiga/externals/mbedtls/library\cipher_wrap.c **** {
 310              	 .loc 1 224 0
 311              	 .cfi_startproc
 312              	 
 313              	 
 314 0000 80B5     	 push {r7,lr}
 315              	.LCFI30:
 316              	 .cfi_def_cfa_offset 8
 317              	 .cfi_offset 7,-8
 318              	 .cfi_offset 14,-4
 319 0002 82B0     	 sub sp,sp,#8
 320              	.LCFI31:
 321              	 .cfi_def_cfa_offset 16
 322 0004 00AF     	 add r7,sp,#0
 323              	.LCFI32:
 324              	 .cfi_def_cfa_register 7
 325 0006 7860     	 str r0,[r7,#4]
 225:C:/Users/Yushev/git/wpcqi-optiga-trust-charge/optiga/externals/mbedtls/library\cipher_wrap.c ****     mbedtls_aes_free( (mbedtls_aes_context *) ctx );
 326              	 .loc 1 225 0
 327 0008 7868     	 ldr r0,[r7,#4]
 328 000a FFF7FEFF 	 bl mbedtls_aes_free
 226:C:/Users/Yushev/git/wpcqi-optiga-trust-charge/optiga/externals/mbedtls/library\cipher_wrap.c ****     mbedtls_free( ctx );
 329              	 .loc 1 226 0
 330 000e 7868     	 ldr r0,[r7,#4]
 331 0010 FFF7FEFF 	 bl free
 227:C:/Users/Yushev/git/wpcqi-optiga-trust-charge/optiga/externals/mbedtls/library\cipher_wrap.c **** }
 332              	 .loc 1 227 0
 333 0014 0837     	 adds r7,r7,#8
 334              	.LCFI33:
 335              	 .cfi_def_cfa_offset 8
 336 0016 BD46     	 mov sp,r7
 337              	.LCFI34:
 338              	 .cfi_def_cfa_register 13
 339              	 
 340 0018 80BD     	 pop {r7,pc}
 341              	 .cfi_endproc
 342              	.LFE13:
 344 001a 00BF     	 .section .rodata.aes_info,"a",%progbits
 345              	 .align 2
 348              	aes_info:
 349 0000 02       	 .byte 2
 350 0001 000000   	 .space 3
 351 0004 00000000 	 .word aes_crypt_ecb_wrap
 352 0008 00000000 	 .word aes_setkey_enc_wrap
 353 000c 00000000 	 .word aes_setkey_dec_wrap
 354 0010 00000000 	 .word aes_ctx_alloc
 355 0014 00000000 	 .word aes_ctx_free
 356              	 .section .rodata
 357              	 .align 2
 358              	.LC0:
 359 0000 4145532D 	 .ascii "AES-128-ECB\000"
 359      3132382D 
 359      45434200 
 360              	 .section .rodata.aes_128_ecb_info,"a",%progbits
 361              	 .align 2
 364              	aes_128_ecb_info:
 365 0000 02       	 .byte 2
 366 0001 01       	 .byte 1
 367 0002 0000     	 .space 2
 368 0004 80000000 	 .word 128
 369 0008 00000000 	 .word .LC0
 370 000c 00000000 	 .word 0
 371 0010 00000000 	 .word 0
 372 0014 10000000 	 .word 16
 373 0018 00000000 	 .word aes_info
 374              	 .section .rodata
 375              	 .align 2
 376              	.LC1:
 377 000c 4145532D 	 .ascii "AES-192-ECB\000"
 377      3139322D 
 377      45434200 
 378              	 .section .rodata.aes_192_ecb_info,"a",%progbits
 379              	 .align 2
 382              	aes_192_ecb_info:
 383 0000 03       	 .byte 3
 384 0001 01       	 .byte 1
 385 0002 0000     	 .space 2
 386 0004 C0000000 	 .word 192
 387 0008 0C000000 	 .word .LC1
 388 000c 00000000 	 .word 0
 389 0010 00000000 	 .word 0
 390 0014 10000000 	 .word 16
 391 0018 00000000 	 .word aes_info
 392              	 .section .rodata
 393              	 .align 2
 394              	.LC2:
 395 0018 4145532D 	 .ascii "AES-256-ECB\000"
 395      3235362D 
 395      45434200 
 396              	 .section .rodata.aes_256_ecb_info,"a",%progbits
 397              	 .align 2
 400              	aes_256_ecb_info:
 401 0000 04       	 .byte 4
 402 0001 01       	 .byte 1
 403 0002 0000     	 .space 2
 404 0004 00010000 	 .word 256
 405 0008 18000000 	 .word .LC2
 406 000c 00000000 	 .word 0
 407 0010 00000000 	 .word 0
 408 0014 10000000 	 .word 16
 409 0018 00000000 	 .word aes_info
 410              	 .section .text.ccm_aes_setkey_wrap,"ax",%progbits
 411              	 .align 2
 412              	 .thumb
 413              	 .thumb_func
 415              	ccm_aes_setkey_wrap:
 416              	.LFB14:
 228:C:/Users/Yushev/git/wpcqi-optiga-trust-charge/optiga/externals/mbedtls/library\cipher_wrap.c **** 
 229:C:/Users/Yushev/git/wpcqi-optiga-trust-charge/optiga/externals/mbedtls/library\cipher_wrap.c **** static const mbedtls_cipher_base_t aes_info = {
 230:C:/Users/Yushev/git/wpcqi-optiga-trust-charge/optiga/externals/mbedtls/library\cipher_wrap.c ****     MBEDTLS_CIPHER_ID_AES,
 231:C:/Users/Yushev/git/wpcqi-optiga-trust-charge/optiga/externals/mbedtls/library\cipher_wrap.c ****     aes_crypt_ecb_wrap,
 232:C:/Users/Yushev/git/wpcqi-optiga-trust-charge/optiga/externals/mbedtls/library\cipher_wrap.c **** #if defined(MBEDTLS_CIPHER_MODE_CBC)
 233:C:/Users/Yushev/git/wpcqi-optiga-trust-charge/optiga/externals/mbedtls/library\cipher_wrap.c ****     aes_crypt_cbc_wrap,
 234:C:/Users/Yushev/git/wpcqi-optiga-trust-charge/optiga/externals/mbedtls/library\cipher_wrap.c **** #endif
 235:C:/Users/Yushev/git/wpcqi-optiga-trust-charge/optiga/externals/mbedtls/library\cipher_wrap.c **** #if defined(MBEDTLS_CIPHER_MODE_CFB)
 236:C:/Users/Yushev/git/wpcqi-optiga-trust-charge/optiga/externals/mbedtls/library\cipher_wrap.c ****     aes_crypt_cfb128_wrap,
 237:C:/Users/Yushev/git/wpcqi-optiga-trust-charge/optiga/externals/mbedtls/library\cipher_wrap.c **** #endif
 238:C:/Users/Yushev/git/wpcqi-optiga-trust-charge/optiga/externals/mbedtls/library\cipher_wrap.c **** #if defined(MBEDTLS_CIPHER_MODE_OFB)
 239:C:/Users/Yushev/git/wpcqi-optiga-trust-charge/optiga/externals/mbedtls/library\cipher_wrap.c ****     aes_crypt_ofb_wrap,
 240:C:/Users/Yushev/git/wpcqi-optiga-trust-charge/optiga/externals/mbedtls/library\cipher_wrap.c **** #endif
 241:C:/Users/Yushev/git/wpcqi-optiga-trust-charge/optiga/externals/mbedtls/library\cipher_wrap.c **** #if defined(MBEDTLS_CIPHER_MODE_CTR)
 242:C:/Users/Yushev/git/wpcqi-optiga-trust-charge/optiga/externals/mbedtls/library\cipher_wrap.c ****     aes_crypt_ctr_wrap,
 243:C:/Users/Yushev/git/wpcqi-optiga-trust-charge/optiga/externals/mbedtls/library\cipher_wrap.c **** #endif
 244:C:/Users/Yushev/git/wpcqi-optiga-trust-charge/optiga/externals/mbedtls/library\cipher_wrap.c **** #if defined(MBEDTLS_CIPHER_MODE_XTS)
 245:C:/Users/Yushev/git/wpcqi-optiga-trust-charge/optiga/externals/mbedtls/library\cipher_wrap.c ****     NULL,
 246:C:/Users/Yushev/git/wpcqi-optiga-trust-charge/optiga/externals/mbedtls/library\cipher_wrap.c **** #endif
 247:C:/Users/Yushev/git/wpcqi-optiga-trust-charge/optiga/externals/mbedtls/library\cipher_wrap.c **** #if defined(MBEDTLS_CIPHER_MODE_STREAM)
 248:C:/Users/Yushev/git/wpcqi-optiga-trust-charge/optiga/externals/mbedtls/library\cipher_wrap.c ****     NULL,
 249:C:/Users/Yushev/git/wpcqi-optiga-trust-charge/optiga/externals/mbedtls/library\cipher_wrap.c **** #endif
 250:C:/Users/Yushev/git/wpcqi-optiga-trust-charge/optiga/externals/mbedtls/library\cipher_wrap.c ****     aes_setkey_enc_wrap,
 251:C:/Users/Yushev/git/wpcqi-optiga-trust-charge/optiga/externals/mbedtls/library\cipher_wrap.c ****     aes_setkey_dec_wrap,
 252:C:/Users/Yushev/git/wpcqi-optiga-trust-charge/optiga/externals/mbedtls/library\cipher_wrap.c ****     aes_ctx_alloc,
 253:C:/Users/Yushev/git/wpcqi-optiga-trust-charge/optiga/externals/mbedtls/library\cipher_wrap.c ****     aes_ctx_free
 254:C:/Users/Yushev/git/wpcqi-optiga-trust-charge/optiga/externals/mbedtls/library\cipher_wrap.c **** };
 255:C:/Users/Yushev/git/wpcqi-optiga-trust-charge/optiga/externals/mbedtls/library\cipher_wrap.c **** 
 256:C:/Users/Yushev/git/wpcqi-optiga-trust-charge/optiga/externals/mbedtls/library\cipher_wrap.c **** static const mbedtls_cipher_info_t aes_128_ecb_info = {
 257:C:/Users/Yushev/git/wpcqi-optiga-trust-charge/optiga/externals/mbedtls/library\cipher_wrap.c ****     MBEDTLS_CIPHER_AES_128_ECB,
 258:C:/Users/Yushev/git/wpcqi-optiga-trust-charge/optiga/externals/mbedtls/library\cipher_wrap.c ****     MBEDTLS_MODE_ECB,
 259:C:/Users/Yushev/git/wpcqi-optiga-trust-charge/optiga/externals/mbedtls/library\cipher_wrap.c ****     128,
 260:C:/Users/Yushev/git/wpcqi-optiga-trust-charge/optiga/externals/mbedtls/library\cipher_wrap.c ****     "AES-128-ECB",
 261:C:/Users/Yushev/git/wpcqi-optiga-trust-charge/optiga/externals/mbedtls/library\cipher_wrap.c ****     0,
 262:C:/Users/Yushev/git/wpcqi-optiga-trust-charge/optiga/externals/mbedtls/library\cipher_wrap.c ****     0,
 263:C:/Users/Yushev/git/wpcqi-optiga-trust-charge/optiga/externals/mbedtls/library\cipher_wrap.c ****     16,
 264:C:/Users/Yushev/git/wpcqi-optiga-trust-charge/optiga/externals/mbedtls/library\cipher_wrap.c ****     &aes_info
 265:C:/Users/Yushev/git/wpcqi-optiga-trust-charge/optiga/externals/mbedtls/library\cipher_wrap.c **** };
 266:C:/Users/Yushev/git/wpcqi-optiga-trust-charge/optiga/externals/mbedtls/library\cipher_wrap.c **** 
 267:C:/Users/Yushev/git/wpcqi-optiga-trust-charge/optiga/externals/mbedtls/library\cipher_wrap.c **** static const mbedtls_cipher_info_t aes_192_ecb_info = {
 268:C:/Users/Yushev/git/wpcqi-optiga-trust-charge/optiga/externals/mbedtls/library\cipher_wrap.c ****     MBEDTLS_CIPHER_AES_192_ECB,
 269:C:/Users/Yushev/git/wpcqi-optiga-trust-charge/optiga/externals/mbedtls/library\cipher_wrap.c ****     MBEDTLS_MODE_ECB,
 270:C:/Users/Yushev/git/wpcqi-optiga-trust-charge/optiga/externals/mbedtls/library\cipher_wrap.c ****     192,
 271:C:/Users/Yushev/git/wpcqi-optiga-trust-charge/optiga/externals/mbedtls/library\cipher_wrap.c ****     "AES-192-ECB",
 272:C:/Users/Yushev/git/wpcqi-optiga-trust-charge/optiga/externals/mbedtls/library\cipher_wrap.c ****     0,
 273:C:/Users/Yushev/git/wpcqi-optiga-trust-charge/optiga/externals/mbedtls/library\cipher_wrap.c ****     0,
 274:C:/Users/Yushev/git/wpcqi-optiga-trust-charge/optiga/externals/mbedtls/library\cipher_wrap.c ****     16,
 275:C:/Users/Yushev/git/wpcqi-optiga-trust-charge/optiga/externals/mbedtls/library\cipher_wrap.c ****     &aes_info
 276:C:/Users/Yushev/git/wpcqi-optiga-trust-charge/optiga/externals/mbedtls/library\cipher_wrap.c **** };
 277:C:/Users/Yushev/git/wpcqi-optiga-trust-charge/optiga/externals/mbedtls/library\cipher_wrap.c **** 
 278:C:/Users/Yushev/git/wpcqi-optiga-trust-charge/optiga/externals/mbedtls/library\cipher_wrap.c **** static const mbedtls_cipher_info_t aes_256_ecb_info = {
 279:C:/Users/Yushev/git/wpcqi-optiga-trust-charge/optiga/externals/mbedtls/library\cipher_wrap.c ****     MBEDTLS_CIPHER_AES_256_ECB,
 280:C:/Users/Yushev/git/wpcqi-optiga-trust-charge/optiga/externals/mbedtls/library\cipher_wrap.c ****     MBEDTLS_MODE_ECB,
 281:C:/Users/Yushev/git/wpcqi-optiga-trust-charge/optiga/externals/mbedtls/library\cipher_wrap.c ****     256,
 282:C:/Users/Yushev/git/wpcqi-optiga-trust-charge/optiga/externals/mbedtls/library\cipher_wrap.c ****     "AES-256-ECB",
 283:C:/Users/Yushev/git/wpcqi-optiga-trust-charge/optiga/externals/mbedtls/library\cipher_wrap.c ****     0,
 284:C:/Users/Yushev/git/wpcqi-optiga-trust-charge/optiga/externals/mbedtls/library\cipher_wrap.c ****     0,
 285:C:/Users/Yushev/git/wpcqi-optiga-trust-charge/optiga/externals/mbedtls/library\cipher_wrap.c ****     16,
 286:C:/Users/Yushev/git/wpcqi-optiga-trust-charge/optiga/externals/mbedtls/library\cipher_wrap.c ****     &aes_info
 287:C:/Users/Yushev/git/wpcqi-optiga-trust-charge/optiga/externals/mbedtls/library\cipher_wrap.c **** };
 288:C:/Users/Yushev/git/wpcqi-optiga-trust-charge/optiga/externals/mbedtls/library\cipher_wrap.c **** 
 289:C:/Users/Yushev/git/wpcqi-optiga-trust-charge/optiga/externals/mbedtls/library\cipher_wrap.c **** #if defined(MBEDTLS_CIPHER_MODE_CBC)
 290:C:/Users/Yushev/git/wpcqi-optiga-trust-charge/optiga/externals/mbedtls/library\cipher_wrap.c **** static const mbedtls_cipher_info_t aes_128_cbc_info = {
 291:C:/Users/Yushev/git/wpcqi-optiga-trust-charge/optiga/externals/mbedtls/library\cipher_wrap.c ****     MBEDTLS_CIPHER_AES_128_CBC,
 292:C:/Users/Yushev/git/wpcqi-optiga-trust-charge/optiga/externals/mbedtls/library\cipher_wrap.c ****     MBEDTLS_MODE_CBC,
 293:C:/Users/Yushev/git/wpcqi-optiga-trust-charge/optiga/externals/mbedtls/library\cipher_wrap.c ****     128,
 294:C:/Users/Yushev/git/wpcqi-optiga-trust-charge/optiga/externals/mbedtls/library\cipher_wrap.c ****     "AES-128-CBC",
 295:C:/Users/Yushev/git/wpcqi-optiga-trust-charge/optiga/externals/mbedtls/library\cipher_wrap.c ****     16,
 296:C:/Users/Yushev/git/wpcqi-optiga-trust-charge/optiga/externals/mbedtls/library\cipher_wrap.c ****     0,
 297:C:/Users/Yushev/git/wpcqi-optiga-trust-charge/optiga/externals/mbedtls/library\cipher_wrap.c ****     16,
 298:C:/Users/Yushev/git/wpcqi-optiga-trust-charge/optiga/externals/mbedtls/library\cipher_wrap.c ****     &aes_info
 299:C:/Users/Yushev/git/wpcqi-optiga-trust-charge/optiga/externals/mbedtls/library\cipher_wrap.c **** };
 300:C:/Users/Yushev/git/wpcqi-optiga-trust-charge/optiga/externals/mbedtls/library\cipher_wrap.c **** 
 301:C:/Users/Yushev/git/wpcqi-optiga-trust-charge/optiga/externals/mbedtls/library\cipher_wrap.c **** static const mbedtls_cipher_info_t aes_192_cbc_info = {
 302:C:/Users/Yushev/git/wpcqi-optiga-trust-charge/optiga/externals/mbedtls/library\cipher_wrap.c ****     MBEDTLS_CIPHER_AES_192_CBC,
 303:C:/Users/Yushev/git/wpcqi-optiga-trust-charge/optiga/externals/mbedtls/library\cipher_wrap.c ****     MBEDTLS_MODE_CBC,
 304:C:/Users/Yushev/git/wpcqi-optiga-trust-charge/optiga/externals/mbedtls/library\cipher_wrap.c ****     192,
 305:C:/Users/Yushev/git/wpcqi-optiga-trust-charge/optiga/externals/mbedtls/library\cipher_wrap.c ****     "AES-192-CBC",
 306:C:/Users/Yushev/git/wpcqi-optiga-trust-charge/optiga/externals/mbedtls/library\cipher_wrap.c ****     16,
 307:C:/Users/Yushev/git/wpcqi-optiga-trust-charge/optiga/externals/mbedtls/library\cipher_wrap.c ****     0,
 308:C:/Users/Yushev/git/wpcqi-optiga-trust-charge/optiga/externals/mbedtls/library\cipher_wrap.c ****     16,
 309:C:/Users/Yushev/git/wpcqi-optiga-trust-charge/optiga/externals/mbedtls/library\cipher_wrap.c ****     &aes_info
 310:C:/Users/Yushev/git/wpcqi-optiga-trust-charge/optiga/externals/mbedtls/library\cipher_wrap.c **** };
 311:C:/Users/Yushev/git/wpcqi-optiga-trust-charge/optiga/externals/mbedtls/library\cipher_wrap.c **** 
 312:C:/Users/Yushev/git/wpcqi-optiga-trust-charge/optiga/externals/mbedtls/library\cipher_wrap.c **** static const mbedtls_cipher_info_t aes_256_cbc_info = {
 313:C:/Users/Yushev/git/wpcqi-optiga-trust-charge/optiga/externals/mbedtls/library\cipher_wrap.c ****     MBEDTLS_CIPHER_AES_256_CBC,
 314:C:/Users/Yushev/git/wpcqi-optiga-trust-charge/optiga/externals/mbedtls/library\cipher_wrap.c ****     MBEDTLS_MODE_CBC,
 315:C:/Users/Yushev/git/wpcqi-optiga-trust-charge/optiga/externals/mbedtls/library\cipher_wrap.c ****     256,
 316:C:/Users/Yushev/git/wpcqi-optiga-trust-charge/optiga/externals/mbedtls/library\cipher_wrap.c ****     "AES-256-CBC",
 317:C:/Users/Yushev/git/wpcqi-optiga-trust-charge/optiga/externals/mbedtls/library\cipher_wrap.c ****     16,
 318:C:/Users/Yushev/git/wpcqi-optiga-trust-charge/optiga/externals/mbedtls/library\cipher_wrap.c ****     0,
 319:C:/Users/Yushev/git/wpcqi-optiga-trust-charge/optiga/externals/mbedtls/library\cipher_wrap.c ****     16,
 320:C:/Users/Yushev/git/wpcqi-optiga-trust-charge/optiga/externals/mbedtls/library\cipher_wrap.c ****     &aes_info
 321:C:/Users/Yushev/git/wpcqi-optiga-trust-charge/optiga/externals/mbedtls/library\cipher_wrap.c **** };
 322:C:/Users/Yushev/git/wpcqi-optiga-trust-charge/optiga/externals/mbedtls/library\cipher_wrap.c **** #endif /* MBEDTLS_CIPHER_MODE_CBC */
 323:C:/Users/Yushev/git/wpcqi-optiga-trust-charge/optiga/externals/mbedtls/library\cipher_wrap.c **** 
 324:C:/Users/Yushev/git/wpcqi-optiga-trust-charge/optiga/externals/mbedtls/library\cipher_wrap.c **** #if defined(MBEDTLS_CIPHER_MODE_CFB)
 325:C:/Users/Yushev/git/wpcqi-optiga-trust-charge/optiga/externals/mbedtls/library\cipher_wrap.c **** static const mbedtls_cipher_info_t aes_128_cfb128_info = {
 326:C:/Users/Yushev/git/wpcqi-optiga-trust-charge/optiga/externals/mbedtls/library\cipher_wrap.c ****     MBEDTLS_CIPHER_AES_128_CFB128,
 327:C:/Users/Yushev/git/wpcqi-optiga-trust-charge/optiga/externals/mbedtls/library\cipher_wrap.c ****     MBEDTLS_MODE_CFB,
 328:C:/Users/Yushev/git/wpcqi-optiga-trust-charge/optiga/externals/mbedtls/library\cipher_wrap.c ****     128,
 329:C:/Users/Yushev/git/wpcqi-optiga-trust-charge/optiga/externals/mbedtls/library\cipher_wrap.c ****     "AES-128-CFB128",
 330:C:/Users/Yushev/git/wpcqi-optiga-trust-charge/optiga/externals/mbedtls/library\cipher_wrap.c ****     16,
 331:C:/Users/Yushev/git/wpcqi-optiga-trust-charge/optiga/externals/mbedtls/library\cipher_wrap.c ****     0,
 332:C:/Users/Yushev/git/wpcqi-optiga-trust-charge/optiga/externals/mbedtls/library\cipher_wrap.c ****     16,
 333:C:/Users/Yushev/git/wpcqi-optiga-trust-charge/optiga/externals/mbedtls/library\cipher_wrap.c ****     &aes_info
 334:C:/Users/Yushev/git/wpcqi-optiga-trust-charge/optiga/externals/mbedtls/library\cipher_wrap.c **** };
 335:C:/Users/Yushev/git/wpcqi-optiga-trust-charge/optiga/externals/mbedtls/library\cipher_wrap.c **** 
 336:C:/Users/Yushev/git/wpcqi-optiga-trust-charge/optiga/externals/mbedtls/library\cipher_wrap.c **** static const mbedtls_cipher_info_t aes_192_cfb128_info = {
 337:C:/Users/Yushev/git/wpcqi-optiga-trust-charge/optiga/externals/mbedtls/library\cipher_wrap.c ****     MBEDTLS_CIPHER_AES_192_CFB128,
 338:C:/Users/Yushev/git/wpcqi-optiga-trust-charge/optiga/externals/mbedtls/library\cipher_wrap.c ****     MBEDTLS_MODE_CFB,
 339:C:/Users/Yushev/git/wpcqi-optiga-trust-charge/optiga/externals/mbedtls/library\cipher_wrap.c ****     192,
 340:C:/Users/Yushev/git/wpcqi-optiga-trust-charge/optiga/externals/mbedtls/library\cipher_wrap.c ****     "AES-192-CFB128",
 341:C:/Users/Yushev/git/wpcqi-optiga-trust-charge/optiga/externals/mbedtls/library\cipher_wrap.c ****     16,
 342:C:/Users/Yushev/git/wpcqi-optiga-trust-charge/optiga/externals/mbedtls/library\cipher_wrap.c ****     0,
 343:C:/Users/Yushev/git/wpcqi-optiga-trust-charge/optiga/externals/mbedtls/library\cipher_wrap.c ****     16,
 344:C:/Users/Yushev/git/wpcqi-optiga-trust-charge/optiga/externals/mbedtls/library\cipher_wrap.c ****     &aes_info
 345:C:/Users/Yushev/git/wpcqi-optiga-trust-charge/optiga/externals/mbedtls/library\cipher_wrap.c **** };
 346:C:/Users/Yushev/git/wpcqi-optiga-trust-charge/optiga/externals/mbedtls/library\cipher_wrap.c **** 
 347:C:/Users/Yushev/git/wpcqi-optiga-trust-charge/optiga/externals/mbedtls/library\cipher_wrap.c **** static const mbedtls_cipher_info_t aes_256_cfb128_info = {
 348:C:/Users/Yushev/git/wpcqi-optiga-trust-charge/optiga/externals/mbedtls/library\cipher_wrap.c ****     MBEDTLS_CIPHER_AES_256_CFB128,
 349:C:/Users/Yushev/git/wpcqi-optiga-trust-charge/optiga/externals/mbedtls/library\cipher_wrap.c ****     MBEDTLS_MODE_CFB,
 350:C:/Users/Yushev/git/wpcqi-optiga-trust-charge/optiga/externals/mbedtls/library\cipher_wrap.c ****     256,
 351:C:/Users/Yushev/git/wpcqi-optiga-trust-charge/optiga/externals/mbedtls/library\cipher_wrap.c ****     "AES-256-CFB128",
 352:C:/Users/Yushev/git/wpcqi-optiga-trust-charge/optiga/externals/mbedtls/library\cipher_wrap.c ****     16,
 353:C:/Users/Yushev/git/wpcqi-optiga-trust-charge/optiga/externals/mbedtls/library\cipher_wrap.c ****     0,
 354:C:/Users/Yushev/git/wpcqi-optiga-trust-charge/optiga/externals/mbedtls/library\cipher_wrap.c ****     16,
 355:C:/Users/Yushev/git/wpcqi-optiga-trust-charge/optiga/externals/mbedtls/library\cipher_wrap.c ****     &aes_info
 356:C:/Users/Yushev/git/wpcqi-optiga-trust-charge/optiga/externals/mbedtls/library\cipher_wrap.c **** };
 357:C:/Users/Yushev/git/wpcqi-optiga-trust-charge/optiga/externals/mbedtls/library\cipher_wrap.c **** #endif /* MBEDTLS_CIPHER_MODE_CFB */
 358:C:/Users/Yushev/git/wpcqi-optiga-trust-charge/optiga/externals/mbedtls/library\cipher_wrap.c **** 
 359:C:/Users/Yushev/git/wpcqi-optiga-trust-charge/optiga/externals/mbedtls/library\cipher_wrap.c **** #if defined(MBEDTLS_CIPHER_MODE_OFB)
 360:C:/Users/Yushev/git/wpcqi-optiga-trust-charge/optiga/externals/mbedtls/library\cipher_wrap.c **** static const mbedtls_cipher_info_t aes_128_ofb_info = {
 361:C:/Users/Yushev/git/wpcqi-optiga-trust-charge/optiga/externals/mbedtls/library\cipher_wrap.c ****     MBEDTLS_CIPHER_AES_128_OFB,
 362:C:/Users/Yushev/git/wpcqi-optiga-trust-charge/optiga/externals/mbedtls/library\cipher_wrap.c ****     MBEDTLS_MODE_OFB,
 363:C:/Users/Yushev/git/wpcqi-optiga-trust-charge/optiga/externals/mbedtls/library\cipher_wrap.c ****     128,
 364:C:/Users/Yushev/git/wpcqi-optiga-trust-charge/optiga/externals/mbedtls/library\cipher_wrap.c ****     "AES-128-OFB",
 365:C:/Users/Yushev/git/wpcqi-optiga-trust-charge/optiga/externals/mbedtls/library\cipher_wrap.c ****     16,
 366:C:/Users/Yushev/git/wpcqi-optiga-trust-charge/optiga/externals/mbedtls/library\cipher_wrap.c ****     0,
 367:C:/Users/Yushev/git/wpcqi-optiga-trust-charge/optiga/externals/mbedtls/library\cipher_wrap.c ****     16,
 368:C:/Users/Yushev/git/wpcqi-optiga-trust-charge/optiga/externals/mbedtls/library\cipher_wrap.c ****     &aes_info
 369:C:/Users/Yushev/git/wpcqi-optiga-trust-charge/optiga/externals/mbedtls/library\cipher_wrap.c **** };
 370:C:/Users/Yushev/git/wpcqi-optiga-trust-charge/optiga/externals/mbedtls/library\cipher_wrap.c **** 
 371:C:/Users/Yushev/git/wpcqi-optiga-trust-charge/optiga/externals/mbedtls/library\cipher_wrap.c **** static const mbedtls_cipher_info_t aes_192_ofb_info = {
 372:C:/Users/Yushev/git/wpcqi-optiga-trust-charge/optiga/externals/mbedtls/library\cipher_wrap.c ****     MBEDTLS_CIPHER_AES_192_OFB,
 373:C:/Users/Yushev/git/wpcqi-optiga-trust-charge/optiga/externals/mbedtls/library\cipher_wrap.c ****     MBEDTLS_MODE_OFB,
 374:C:/Users/Yushev/git/wpcqi-optiga-trust-charge/optiga/externals/mbedtls/library\cipher_wrap.c ****     192,
 375:C:/Users/Yushev/git/wpcqi-optiga-trust-charge/optiga/externals/mbedtls/library\cipher_wrap.c ****     "AES-192-OFB",
 376:C:/Users/Yushev/git/wpcqi-optiga-trust-charge/optiga/externals/mbedtls/library\cipher_wrap.c ****     16,
 377:C:/Users/Yushev/git/wpcqi-optiga-trust-charge/optiga/externals/mbedtls/library\cipher_wrap.c ****     0,
 378:C:/Users/Yushev/git/wpcqi-optiga-trust-charge/optiga/externals/mbedtls/library\cipher_wrap.c ****     16,
 379:C:/Users/Yushev/git/wpcqi-optiga-trust-charge/optiga/externals/mbedtls/library\cipher_wrap.c ****     &aes_info
 380:C:/Users/Yushev/git/wpcqi-optiga-trust-charge/optiga/externals/mbedtls/library\cipher_wrap.c **** };
 381:C:/Users/Yushev/git/wpcqi-optiga-trust-charge/optiga/externals/mbedtls/library\cipher_wrap.c **** 
 382:C:/Users/Yushev/git/wpcqi-optiga-trust-charge/optiga/externals/mbedtls/library\cipher_wrap.c **** static const mbedtls_cipher_info_t aes_256_ofb_info = {
 383:C:/Users/Yushev/git/wpcqi-optiga-trust-charge/optiga/externals/mbedtls/library\cipher_wrap.c ****     MBEDTLS_CIPHER_AES_256_OFB,
 384:C:/Users/Yushev/git/wpcqi-optiga-trust-charge/optiga/externals/mbedtls/library\cipher_wrap.c ****     MBEDTLS_MODE_OFB,
 385:C:/Users/Yushev/git/wpcqi-optiga-trust-charge/optiga/externals/mbedtls/library\cipher_wrap.c ****     256,
 386:C:/Users/Yushev/git/wpcqi-optiga-trust-charge/optiga/externals/mbedtls/library\cipher_wrap.c ****     "AES-256-OFB",
 387:C:/Users/Yushev/git/wpcqi-optiga-trust-charge/optiga/externals/mbedtls/library\cipher_wrap.c ****     16,
 388:C:/Users/Yushev/git/wpcqi-optiga-trust-charge/optiga/externals/mbedtls/library\cipher_wrap.c ****     0,
 389:C:/Users/Yushev/git/wpcqi-optiga-trust-charge/optiga/externals/mbedtls/library\cipher_wrap.c ****     16,
 390:C:/Users/Yushev/git/wpcqi-optiga-trust-charge/optiga/externals/mbedtls/library\cipher_wrap.c ****     &aes_info
 391:C:/Users/Yushev/git/wpcqi-optiga-trust-charge/optiga/externals/mbedtls/library\cipher_wrap.c **** };
 392:C:/Users/Yushev/git/wpcqi-optiga-trust-charge/optiga/externals/mbedtls/library\cipher_wrap.c **** #endif /* MBEDTLS_CIPHER_MODE_OFB */
 393:C:/Users/Yushev/git/wpcqi-optiga-trust-charge/optiga/externals/mbedtls/library\cipher_wrap.c **** 
 394:C:/Users/Yushev/git/wpcqi-optiga-trust-charge/optiga/externals/mbedtls/library\cipher_wrap.c **** #if defined(MBEDTLS_CIPHER_MODE_CTR)
 395:C:/Users/Yushev/git/wpcqi-optiga-trust-charge/optiga/externals/mbedtls/library\cipher_wrap.c **** static const mbedtls_cipher_info_t aes_128_ctr_info = {
 396:C:/Users/Yushev/git/wpcqi-optiga-trust-charge/optiga/externals/mbedtls/library\cipher_wrap.c ****     MBEDTLS_CIPHER_AES_128_CTR,
 397:C:/Users/Yushev/git/wpcqi-optiga-trust-charge/optiga/externals/mbedtls/library\cipher_wrap.c ****     MBEDTLS_MODE_CTR,
 398:C:/Users/Yushev/git/wpcqi-optiga-trust-charge/optiga/externals/mbedtls/library\cipher_wrap.c ****     128,
 399:C:/Users/Yushev/git/wpcqi-optiga-trust-charge/optiga/externals/mbedtls/library\cipher_wrap.c ****     "AES-128-CTR",
 400:C:/Users/Yushev/git/wpcqi-optiga-trust-charge/optiga/externals/mbedtls/library\cipher_wrap.c ****     16,
 401:C:/Users/Yushev/git/wpcqi-optiga-trust-charge/optiga/externals/mbedtls/library\cipher_wrap.c ****     0,
 402:C:/Users/Yushev/git/wpcqi-optiga-trust-charge/optiga/externals/mbedtls/library\cipher_wrap.c ****     16,
 403:C:/Users/Yushev/git/wpcqi-optiga-trust-charge/optiga/externals/mbedtls/library\cipher_wrap.c ****     &aes_info
 404:C:/Users/Yushev/git/wpcqi-optiga-trust-charge/optiga/externals/mbedtls/library\cipher_wrap.c **** };
 405:C:/Users/Yushev/git/wpcqi-optiga-trust-charge/optiga/externals/mbedtls/library\cipher_wrap.c **** 
 406:C:/Users/Yushev/git/wpcqi-optiga-trust-charge/optiga/externals/mbedtls/library\cipher_wrap.c **** static const mbedtls_cipher_info_t aes_192_ctr_info = {
 407:C:/Users/Yushev/git/wpcqi-optiga-trust-charge/optiga/externals/mbedtls/library\cipher_wrap.c ****     MBEDTLS_CIPHER_AES_192_CTR,
 408:C:/Users/Yushev/git/wpcqi-optiga-trust-charge/optiga/externals/mbedtls/library\cipher_wrap.c ****     MBEDTLS_MODE_CTR,
 409:C:/Users/Yushev/git/wpcqi-optiga-trust-charge/optiga/externals/mbedtls/library\cipher_wrap.c ****     192,
 410:C:/Users/Yushev/git/wpcqi-optiga-trust-charge/optiga/externals/mbedtls/library\cipher_wrap.c ****     "AES-192-CTR",
 411:C:/Users/Yushev/git/wpcqi-optiga-trust-charge/optiga/externals/mbedtls/library\cipher_wrap.c ****     16,
 412:C:/Users/Yushev/git/wpcqi-optiga-trust-charge/optiga/externals/mbedtls/library\cipher_wrap.c ****     0,
 413:C:/Users/Yushev/git/wpcqi-optiga-trust-charge/optiga/externals/mbedtls/library\cipher_wrap.c ****     16,
 414:C:/Users/Yushev/git/wpcqi-optiga-trust-charge/optiga/externals/mbedtls/library\cipher_wrap.c ****     &aes_info
 415:C:/Users/Yushev/git/wpcqi-optiga-trust-charge/optiga/externals/mbedtls/library\cipher_wrap.c **** };
 416:C:/Users/Yushev/git/wpcqi-optiga-trust-charge/optiga/externals/mbedtls/library\cipher_wrap.c **** 
 417:C:/Users/Yushev/git/wpcqi-optiga-trust-charge/optiga/externals/mbedtls/library\cipher_wrap.c **** static const mbedtls_cipher_info_t aes_256_ctr_info = {
 418:C:/Users/Yushev/git/wpcqi-optiga-trust-charge/optiga/externals/mbedtls/library\cipher_wrap.c ****     MBEDTLS_CIPHER_AES_256_CTR,
 419:C:/Users/Yushev/git/wpcqi-optiga-trust-charge/optiga/externals/mbedtls/library\cipher_wrap.c ****     MBEDTLS_MODE_CTR,
 420:C:/Users/Yushev/git/wpcqi-optiga-trust-charge/optiga/externals/mbedtls/library\cipher_wrap.c ****     256,
 421:C:/Users/Yushev/git/wpcqi-optiga-trust-charge/optiga/externals/mbedtls/library\cipher_wrap.c ****     "AES-256-CTR",
 422:C:/Users/Yushev/git/wpcqi-optiga-trust-charge/optiga/externals/mbedtls/library\cipher_wrap.c ****     16,
 423:C:/Users/Yushev/git/wpcqi-optiga-trust-charge/optiga/externals/mbedtls/library\cipher_wrap.c ****     0,
 424:C:/Users/Yushev/git/wpcqi-optiga-trust-charge/optiga/externals/mbedtls/library\cipher_wrap.c ****     16,
 425:C:/Users/Yushev/git/wpcqi-optiga-trust-charge/optiga/externals/mbedtls/library\cipher_wrap.c ****     &aes_info
 426:C:/Users/Yushev/git/wpcqi-optiga-trust-charge/optiga/externals/mbedtls/library\cipher_wrap.c **** };
 427:C:/Users/Yushev/git/wpcqi-optiga-trust-charge/optiga/externals/mbedtls/library\cipher_wrap.c **** #endif /* MBEDTLS_CIPHER_MODE_CTR */
 428:C:/Users/Yushev/git/wpcqi-optiga-trust-charge/optiga/externals/mbedtls/library\cipher_wrap.c **** 
 429:C:/Users/Yushev/git/wpcqi-optiga-trust-charge/optiga/externals/mbedtls/library\cipher_wrap.c **** #if defined(MBEDTLS_CIPHER_MODE_XTS)
 430:C:/Users/Yushev/git/wpcqi-optiga-trust-charge/optiga/externals/mbedtls/library\cipher_wrap.c **** static int xts_aes_setkey_enc_wrap( void *ctx, const unsigned char *key,
 431:C:/Users/Yushev/git/wpcqi-optiga-trust-charge/optiga/externals/mbedtls/library\cipher_wrap.c ****                                     unsigned int key_bitlen )
 432:C:/Users/Yushev/git/wpcqi-optiga-trust-charge/optiga/externals/mbedtls/library\cipher_wrap.c **** {
 433:C:/Users/Yushev/git/wpcqi-optiga-trust-charge/optiga/externals/mbedtls/library\cipher_wrap.c ****     mbedtls_aes_xts_context *xts_ctx = ctx;
 434:C:/Users/Yushev/git/wpcqi-optiga-trust-charge/optiga/externals/mbedtls/library\cipher_wrap.c ****     return( mbedtls_aes_xts_setkey_enc( xts_ctx, key, key_bitlen ) );
 435:C:/Users/Yushev/git/wpcqi-optiga-trust-charge/optiga/externals/mbedtls/library\cipher_wrap.c **** }
 436:C:/Users/Yushev/git/wpcqi-optiga-trust-charge/optiga/externals/mbedtls/library\cipher_wrap.c **** 
 437:C:/Users/Yushev/git/wpcqi-optiga-trust-charge/optiga/externals/mbedtls/library\cipher_wrap.c **** static int xts_aes_setkey_dec_wrap( void *ctx, const unsigned char *key,
 438:C:/Users/Yushev/git/wpcqi-optiga-trust-charge/optiga/externals/mbedtls/library\cipher_wrap.c ****                                     unsigned int key_bitlen )
 439:C:/Users/Yushev/git/wpcqi-optiga-trust-charge/optiga/externals/mbedtls/library\cipher_wrap.c **** {
 440:C:/Users/Yushev/git/wpcqi-optiga-trust-charge/optiga/externals/mbedtls/library\cipher_wrap.c ****     mbedtls_aes_xts_context *xts_ctx = ctx;
 441:C:/Users/Yushev/git/wpcqi-optiga-trust-charge/optiga/externals/mbedtls/library\cipher_wrap.c ****     return( mbedtls_aes_xts_setkey_dec( xts_ctx, key, key_bitlen ) );
 442:C:/Users/Yushev/git/wpcqi-optiga-trust-charge/optiga/externals/mbedtls/library\cipher_wrap.c **** }
 443:C:/Users/Yushev/git/wpcqi-optiga-trust-charge/optiga/externals/mbedtls/library\cipher_wrap.c **** 
 444:C:/Users/Yushev/git/wpcqi-optiga-trust-charge/optiga/externals/mbedtls/library\cipher_wrap.c **** static void *xts_aes_ctx_alloc( void )
 445:C:/Users/Yushev/git/wpcqi-optiga-trust-charge/optiga/externals/mbedtls/library\cipher_wrap.c **** {
 446:C:/Users/Yushev/git/wpcqi-optiga-trust-charge/optiga/externals/mbedtls/library\cipher_wrap.c ****     mbedtls_aes_xts_context *xts_ctx = mbedtls_calloc( 1, sizeof( *xts_ctx ) );
 447:C:/Users/Yushev/git/wpcqi-optiga-trust-charge/optiga/externals/mbedtls/library\cipher_wrap.c **** 
 448:C:/Users/Yushev/git/wpcqi-optiga-trust-charge/optiga/externals/mbedtls/library\cipher_wrap.c ****     if( xts_ctx != NULL )
 449:C:/Users/Yushev/git/wpcqi-optiga-trust-charge/optiga/externals/mbedtls/library\cipher_wrap.c ****         mbedtls_aes_xts_init( xts_ctx );
 450:C:/Users/Yushev/git/wpcqi-optiga-trust-charge/optiga/externals/mbedtls/library\cipher_wrap.c **** 
 451:C:/Users/Yushev/git/wpcqi-optiga-trust-charge/optiga/externals/mbedtls/library\cipher_wrap.c ****     return( xts_ctx );
 452:C:/Users/Yushev/git/wpcqi-optiga-trust-charge/optiga/externals/mbedtls/library\cipher_wrap.c **** }
 453:C:/Users/Yushev/git/wpcqi-optiga-trust-charge/optiga/externals/mbedtls/library\cipher_wrap.c **** 
 454:C:/Users/Yushev/git/wpcqi-optiga-trust-charge/optiga/externals/mbedtls/library\cipher_wrap.c **** static void xts_aes_ctx_free( void *ctx )
 455:C:/Users/Yushev/git/wpcqi-optiga-trust-charge/optiga/externals/mbedtls/library\cipher_wrap.c **** {
 456:C:/Users/Yushev/git/wpcqi-optiga-trust-charge/optiga/externals/mbedtls/library\cipher_wrap.c ****     mbedtls_aes_xts_context *xts_ctx = ctx;
 457:C:/Users/Yushev/git/wpcqi-optiga-trust-charge/optiga/externals/mbedtls/library\cipher_wrap.c **** 
 458:C:/Users/Yushev/git/wpcqi-optiga-trust-charge/optiga/externals/mbedtls/library\cipher_wrap.c ****     if( xts_ctx == NULL )
 459:C:/Users/Yushev/git/wpcqi-optiga-trust-charge/optiga/externals/mbedtls/library\cipher_wrap.c ****         return;
 460:C:/Users/Yushev/git/wpcqi-optiga-trust-charge/optiga/externals/mbedtls/library\cipher_wrap.c **** 
 461:C:/Users/Yushev/git/wpcqi-optiga-trust-charge/optiga/externals/mbedtls/library\cipher_wrap.c ****     mbedtls_aes_xts_free( xts_ctx );
 462:C:/Users/Yushev/git/wpcqi-optiga-trust-charge/optiga/externals/mbedtls/library\cipher_wrap.c ****     mbedtls_free( xts_ctx );
 463:C:/Users/Yushev/git/wpcqi-optiga-trust-charge/optiga/externals/mbedtls/library\cipher_wrap.c **** }
 464:C:/Users/Yushev/git/wpcqi-optiga-trust-charge/optiga/externals/mbedtls/library\cipher_wrap.c **** 
 465:C:/Users/Yushev/git/wpcqi-optiga-trust-charge/optiga/externals/mbedtls/library\cipher_wrap.c **** static const mbedtls_cipher_base_t xts_aes_info = {
 466:C:/Users/Yushev/git/wpcqi-optiga-trust-charge/optiga/externals/mbedtls/library\cipher_wrap.c ****     MBEDTLS_CIPHER_ID_AES,
 467:C:/Users/Yushev/git/wpcqi-optiga-trust-charge/optiga/externals/mbedtls/library\cipher_wrap.c ****     NULL,
 468:C:/Users/Yushev/git/wpcqi-optiga-trust-charge/optiga/externals/mbedtls/library\cipher_wrap.c **** #if defined(MBEDTLS_CIPHER_MODE_CBC)
 469:C:/Users/Yushev/git/wpcqi-optiga-trust-charge/optiga/externals/mbedtls/library\cipher_wrap.c ****     NULL,
 470:C:/Users/Yushev/git/wpcqi-optiga-trust-charge/optiga/externals/mbedtls/library\cipher_wrap.c **** #endif
 471:C:/Users/Yushev/git/wpcqi-optiga-trust-charge/optiga/externals/mbedtls/library\cipher_wrap.c **** #if defined(MBEDTLS_CIPHER_MODE_CFB)
 472:C:/Users/Yushev/git/wpcqi-optiga-trust-charge/optiga/externals/mbedtls/library\cipher_wrap.c ****     NULL,
 473:C:/Users/Yushev/git/wpcqi-optiga-trust-charge/optiga/externals/mbedtls/library\cipher_wrap.c **** #endif
 474:C:/Users/Yushev/git/wpcqi-optiga-trust-charge/optiga/externals/mbedtls/library\cipher_wrap.c **** #if defined(MBEDTLS_CIPHER_MODE_OFB)
 475:C:/Users/Yushev/git/wpcqi-optiga-trust-charge/optiga/externals/mbedtls/library\cipher_wrap.c ****     NULL,
 476:C:/Users/Yushev/git/wpcqi-optiga-trust-charge/optiga/externals/mbedtls/library\cipher_wrap.c **** #endif
 477:C:/Users/Yushev/git/wpcqi-optiga-trust-charge/optiga/externals/mbedtls/library\cipher_wrap.c **** #if defined(MBEDTLS_CIPHER_MODE_CTR)
 478:C:/Users/Yushev/git/wpcqi-optiga-trust-charge/optiga/externals/mbedtls/library\cipher_wrap.c ****     NULL,
 479:C:/Users/Yushev/git/wpcqi-optiga-trust-charge/optiga/externals/mbedtls/library\cipher_wrap.c **** #endif
 480:C:/Users/Yushev/git/wpcqi-optiga-trust-charge/optiga/externals/mbedtls/library\cipher_wrap.c **** #if defined(MBEDTLS_CIPHER_MODE_XTS)
 481:C:/Users/Yushev/git/wpcqi-optiga-trust-charge/optiga/externals/mbedtls/library\cipher_wrap.c ****     aes_crypt_xts_wrap,
 482:C:/Users/Yushev/git/wpcqi-optiga-trust-charge/optiga/externals/mbedtls/library\cipher_wrap.c **** #endif
 483:C:/Users/Yushev/git/wpcqi-optiga-trust-charge/optiga/externals/mbedtls/library\cipher_wrap.c **** #if defined(MBEDTLS_CIPHER_MODE_STREAM)
 484:C:/Users/Yushev/git/wpcqi-optiga-trust-charge/optiga/externals/mbedtls/library\cipher_wrap.c ****     NULL,
 485:C:/Users/Yushev/git/wpcqi-optiga-trust-charge/optiga/externals/mbedtls/library\cipher_wrap.c **** #endif
 486:C:/Users/Yushev/git/wpcqi-optiga-trust-charge/optiga/externals/mbedtls/library\cipher_wrap.c ****     xts_aes_setkey_enc_wrap,
 487:C:/Users/Yushev/git/wpcqi-optiga-trust-charge/optiga/externals/mbedtls/library\cipher_wrap.c ****     xts_aes_setkey_dec_wrap,
 488:C:/Users/Yushev/git/wpcqi-optiga-trust-charge/optiga/externals/mbedtls/library\cipher_wrap.c ****     xts_aes_ctx_alloc,
 489:C:/Users/Yushev/git/wpcqi-optiga-trust-charge/optiga/externals/mbedtls/library\cipher_wrap.c ****     xts_aes_ctx_free
 490:C:/Users/Yushev/git/wpcqi-optiga-trust-charge/optiga/externals/mbedtls/library\cipher_wrap.c **** };
 491:C:/Users/Yushev/git/wpcqi-optiga-trust-charge/optiga/externals/mbedtls/library\cipher_wrap.c **** 
 492:C:/Users/Yushev/git/wpcqi-optiga-trust-charge/optiga/externals/mbedtls/library\cipher_wrap.c **** static const mbedtls_cipher_info_t aes_128_xts_info = {
 493:C:/Users/Yushev/git/wpcqi-optiga-trust-charge/optiga/externals/mbedtls/library\cipher_wrap.c ****     MBEDTLS_CIPHER_AES_128_XTS,
 494:C:/Users/Yushev/git/wpcqi-optiga-trust-charge/optiga/externals/mbedtls/library\cipher_wrap.c ****     MBEDTLS_MODE_XTS,
 495:C:/Users/Yushev/git/wpcqi-optiga-trust-charge/optiga/externals/mbedtls/library\cipher_wrap.c ****     256,
 496:C:/Users/Yushev/git/wpcqi-optiga-trust-charge/optiga/externals/mbedtls/library\cipher_wrap.c ****     "AES-128-XTS",
 497:C:/Users/Yushev/git/wpcqi-optiga-trust-charge/optiga/externals/mbedtls/library\cipher_wrap.c ****     16,
 498:C:/Users/Yushev/git/wpcqi-optiga-trust-charge/optiga/externals/mbedtls/library\cipher_wrap.c ****     0,
 499:C:/Users/Yushev/git/wpcqi-optiga-trust-charge/optiga/externals/mbedtls/library\cipher_wrap.c ****     16,
 500:C:/Users/Yushev/git/wpcqi-optiga-trust-charge/optiga/externals/mbedtls/library\cipher_wrap.c ****     &xts_aes_info
 501:C:/Users/Yushev/git/wpcqi-optiga-trust-charge/optiga/externals/mbedtls/library\cipher_wrap.c **** };
 502:C:/Users/Yushev/git/wpcqi-optiga-trust-charge/optiga/externals/mbedtls/library\cipher_wrap.c **** 
 503:C:/Users/Yushev/git/wpcqi-optiga-trust-charge/optiga/externals/mbedtls/library\cipher_wrap.c **** static const mbedtls_cipher_info_t aes_256_xts_info = {
 504:C:/Users/Yushev/git/wpcqi-optiga-trust-charge/optiga/externals/mbedtls/library\cipher_wrap.c ****     MBEDTLS_CIPHER_AES_256_XTS,
 505:C:/Users/Yushev/git/wpcqi-optiga-trust-charge/optiga/externals/mbedtls/library\cipher_wrap.c ****     MBEDTLS_MODE_XTS,
 506:C:/Users/Yushev/git/wpcqi-optiga-trust-charge/optiga/externals/mbedtls/library\cipher_wrap.c ****     512,
 507:C:/Users/Yushev/git/wpcqi-optiga-trust-charge/optiga/externals/mbedtls/library\cipher_wrap.c ****     "AES-256-XTS",
 508:C:/Users/Yushev/git/wpcqi-optiga-trust-charge/optiga/externals/mbedtls/library\cipher_wrap.c ****     16,
 509:C:/Users/Yushev/git/wpcqi-optiga-trust-charge/optiga/externals/mbedtls/library\cipher_wrap.c ****     0,
 510:C:/Users/Yushev/git/wpcqi-optiga-trust-charge/optiga/externals/mbedtls/library\cipher_wrap.c ****     16,
 511:C:/Users/Yushev/git/wpcqi-optiga-trust-charge/optiga/externals/mbedtls/library\cipher_wrap.c ****     &xts_aes_info
 512:C:/Users/Yushev/git/wpcqi-optiga-trust-charge/optiga/externals/mbedtls/library\cipher_wrap.c **** };
 513:C:/Users/Yushev/git/wpcqi-optiga-trust-charge/optiga/externals/mbedtls/library\cipher_wrap.c **** #endif /* MBEDTLS_CIPHER_MODE_XTS */
 514:C:/Users/Yushev/git/wpcqi-optiga-trust-charge/optiga/externals/mbedtls/library\cipher_wrap.c **** 
 515:C:/Users/Yushev/git/wpcqi-optiga-trust-charge/optiga/externals/mbedtls/library\cipher_wrap.c **** #if defined(MBEDTLS_GCM_C)
 516:C:/Users/Yushev/git/wpcqi-optiga-trust-charge/optiga/externals/mbedtls/library\cipher_wrap.c **** static int gcm_aes_setkey_wrap( void *ctx, const unsigned char *key,
 517:C:/Users/Yushev/git/wpcqi-optiga-trust-charge/optiga/externals/mbedtls/library\cipher_wrap.c ****                                 unsigned int key_bitlen )
 518:C:/Users/Yushev/git/wpcqi-optiga-trust-charge/optiga/externals/mbedtls/library\cipher_wrap.c **** {
 519:C:/Users/Yushev/git/wpcqi-optiga-trust-charge/optiga/externals/mbedtls/library\cipher_wrap.c ****     return mbedtls_gcm_setkey( (mbedtls_gcm_context *) ctx, MBEDTLS_CIPHER_ID_AES,
 520:C:/Users/Yushev/git/wpcqi-optiga-trust-charge/optiga/externals/mbedtls/library\cipher_wrap.c ****                      key, key_bitlen );
 521:C:/Users/Yushev/git/wpcqi-optiga-trust-charge/optiga/externals/mbedtls/library\cipher_wrap.c **** }
 522:C:/Users/Yushev/git/wpcqi-optiga-trust-charge/optiga/externals/mbedtls/library\cipher_wrap.c **** 
 523:C:/Users/Yushev/git/wpcqi-optiga-trust-charge/optiga/externals/mbedtls/library\cipher_wrap.c **** static const mbedtls_cipher_base_t gcm_aes_info = {
 524:C:/Users/Yushev/git/wpcqi-optiga-trust-charge/optiga/externals/mbedtls/library\cipher_wrap.c ****     MBEDTLS_CIPHER_ID_AES,
 525:C:/Users/Yushev/git/wpcqi-optiga-trust-charge/optiga/externals/mbedtls/library\cipher_wrap.c ****     NULL,
 526:C:/Users/Yushev/git/wpcqi-optiga-trust-charge/optiga/externals/mbedtls/library\cipher_wrap.c **** #if defined(MBEDTLS_CIPHER_MODE_CBC)
 527:C:/Users/Yushev/git/wpcqi-optiga-trust-charge/optiga/externals/mbedtls/library\cipher_wrap.c ****     NULL,
 528:C:/Users/Yushev/git/wpcqi-optiga-trust-charge/optiga/externals/mbedtls/library\cipher_wrap.c **** #endif
 529:C:/Users/Yushev/git/wpcqi-optiga-trust-charge/optiga/externals/mbedtls/library\cipher_wrap.c **** #if defined(MBEDTLS_CIPHER_MODE_CFB)
 530:C:/Users/Yushev/git/wpcqi-optiga-trust-charge/optiga/externals/mbedtls/library\cipher_wrap.c ****     NULL,
 531:C:/Users/Yushev/git/wpcqi-optiga-trust-charge/optiga/externals/mbedtls/library\cipher_wrap.c **** #endif
 532:C:/Users/Yushev/git/wpcqi-optiga-trust-charge/optiga/externals/mbedtls/library\cipher_wrap.c **** #if defined(MBEDTLS_CIPHER_MODE_OFB)
 533:C:/Users/Yushev/git/wpcqi-optiga-trust-charge/optiga/externals/mbedtls/library\cipher_wrap.c ****     NULL,
 534:C:/Users/Yushev/git/wpcqi-optiga-trust-charge/optiga/externals/mbedtls/library\cipher_wrap.c **** #endif
 535:C:/Users/Yushev/git/wpcqi-optiga-trust-charge/optiga/externals/mbedtls/library\cipher_wrap.c **** #if defined(MBEDTLS_CIPHER_MODE_CTR)
 536:C:/Users/Yushev/git/wpcqi-optiga-trust-charge/optiga/externals/mbedtls/library\cipher_wrap.c ****     NULL,
 537:C:/Users/Yushev/git/wpcqi-optiga-trust-charge/optiga/externals/mbedtls/library\cipher_wrap.c **** #endif
 538:C:/Users/Yushev/git/wpcqi-optiga-trust-charge/optiga/externals/mbedtls/library\cipher_wrap.c **** #if defined(MBEDTLS_CIPHER_MODE_XTS)
 539:C:/Users/Yushev/git/wpcqi-optiga-trust-charge/optiga/externals/mbedtls/library\cipher_wrap.c ****     NULL,
 540:C:/Users/Yushev/git/wpcqi-optiga-trust-charge/optiga/externals/mbedtls/library\cipher_wrap.c **** #endif
 541:C:/Users/Yushev/git/wpcqi-optiga-trust-charge/optiga/externals/mbedtls/library\cipher_wrap.c **** #if defined(MBEDTLS_CIPHER_MODE_STREAM)
 542:C:/Users/Yushev/git/wpcqi-optiga-trust-charge/optiga/externals/mbedtls/library\cipher_wrap.c ****     NULL,
 543:C:/Users/Yushev/git/wpcqi-optiga-trust-charge/optiga/externals/mbedtls/library\cipher_wrap.c **** #endif
 544:C:/Users/Yushev/git/wpcqi-optiga-trust-charge/optiga/externals/mbedtls/library\cipher_wrap.c ****     gcm_aes_setkey_wrap,
 545:C:/Users/Yushev/git/wpcqi-optiga-trust-charge/optiga/externals/mbedtls/library\cipher_wrap.c ****     gcm_aes_setkey_wrap,
 546:C:/Users/Yushev/git/wpcqi-optiga-trust-charge/optiga/externals/mbedtls/library\cipher_wrap.c ****     gcm_ctx_alloc,
 547:C:/Users/Yushev/git/wpcqi-optiga-trust-charge/optiga/externals/mbedtls/library\cipher_wrap.c ****     gcm_ctx_free,
 548:C:/Users/Yushev/git/wpcqi-optiga-trust-charge/optiga/externals/mbedtls/library\cipher_wrap.c **** };
 549:C:/Users/Yushev/git/wpcqi-optiga-trust-charge/optiga/externals/mbedtls/library\cipher_wrap.c **** 
 550:C:/Users/Yushev/git/wpcqi-optiga-trust-charge/optiga/externals/mbedtls/library\cipher_wrap.c **** static const mbedtls_cipher_info_t aes_128_gcm_info = {
 551:C:/Users/Yushev/git/wpcqi-optiga-trust-charge/optiga/externals/mbedtls/library\cipher_wrap.c ****     MBEDTLS_CIPHER_AES_128_GCM,
 552:C:/Users/Yushev/git/wpcqi-optiga-trust-charge/optiga/externals/mbedtls/library\cipher_wrap.c ****     MBEDTLS_MODE_GCM,
 553:C:/Users/Yushev/git/wpcqi-optiga-trust-charge/optiga/externals/mbedtls/library\cipher_wrap.c ****     128,
 554:C:/Users/Yushev/git/wpcqi-optiga-trust-charge/optiga/externals/mbedtls/library\cipher_wrap.c ****     "AES-128-GCM",
 555:C:/Users/Yushev/git/wpcqi-optiga-trust-charge/optiga/externals/mbedtls/library\cipher_wrap.c ****     12,
 556:C:/Users/Yushev/git/wpcqi-optiga-trust-charge/optiga/externals/mbedtls/library\cipher_wrap.c ****     MBEDTLS_CIPHER_VARIABLE_IV_LEN,
 557:C:/Users/Yushev/git/wpcqi-optiga-trust-charge/optiga/externals/mbedtls/library\cipher_wrap.c ****     16,
 558:C:/Users/Yushev/git/wpcqi-optiga-trust-charge/optiga/externals/mbedtls/library\cipher_wrap.c ****     &gcm_aes_info
 559:C:/Users/Yushev/git/wpcqi-optiga-trust-charge/optiga/externals/mbedtls/library\cipher_wrap.c **** };
 560:C:/Users/Yushev/git/wpcqi-optiga-trust-charge/optiga/externals/mbedtls/library\cipher_wrap.c **** 
 561:C:/Users/Yushev/git/wpcqi-optiga-trust-charge/optiga/externals/mbedtls/library\cipher_wrap.c **** static const mbedtls_cipher_info_t aes_192_gcm_info = {
 562:C:/Users/Yushev/git/wpcqi-optiga-trust-charge/optiga/externals/mbedtls/library\cipher_wrap.c ****     MBEDTLS_CIPHER_AES_192_GCM,
 563:C:/Users/Yushev/git/wpcqi-optiga-trust-charge/optiga/externals/mbedtls/library\cipher_wrap.c ****     MBEDTLS_MODE_GCM,
 564:C:/Users/Yushev/git/wpcqi-optiga-trust-charge/optiga/externals/mbedtls/library\cipher_wrap.c ****     192,
 565:C:/Users/Yushev/git/wpcqi-optiga-trust-charge/optiga/externals/mbedtls/library\cipher_wrap.c ****     "AES-192-GCM",
 566:C:/Users/Yushev/git/wpcqi-optiga-trust-charge/optiga/externals/mbedtls/library\cipher_wrap.c ****     12,
 567:C:/Users/Yushev/git/wpcqi-optiga-trust-charge/optiga/externals/mbedtls/library\cipher_wrap.c ****     MBEDTLS_CIPHER_VARIABLE_IV_LEN,
 568:C:/Users/Yushev/git/wpcqi-optiga-trust-charge/optiga/externals/mbedtls/library\cipher_wrap.c ****     16,
 569:C:/Users/Yushev/git/wpcqi-optiga-trust-charge/optiga/externals/mbedtls/library\cipher_wrap.c ****     &gcm_aes_info
 570:C:/Users/Yushev/git/wpcqi-optiga-trust-charge/optiga/externals/mbedtls/library\cipher_wrap.c **** };
 571:C:/Users/Yushev/git/wpcqi-optiga-trust-charge/optiga/externals/mbedtls/library\cipher_wrap.c **** 
 572:C:/Users/Yushev/git/wpcqi-optiga-trust-charge/optiga/externals/mbedtls/library\cipher_wrap.c **** static const mbedtls_cipher_info_t aes_256_gcm_info = {
 573:C:/Users/Yushev/git/wpcqi-optiga-trust-charge/optiga/externals/mbedtls/library\cipher_wrap.c ****     MBEDTLS_CIPHER_AES_256_GCM,
 574:C:/Users/Yushev/git/wpcqi-optiga-trust-charge/optiga/externals/mbedtls/library\cipher_wrap.c ****     MBEDTLS_MODE_GCM,
 575:C:/Users/Yushev/git/wpcqi-optiga-trust-charge/optiga/externals/mbedtls/library\cipher_wrap.c ****     256,
 576:C:/Users/Yushev/git/wpcqi-optiga-trust-charge/optiga/externals/mbedtls/library\cipher_wrap.c ****     "AES-256-GCM",
 577:C:/Users/Yushev/git/wpcqi-optiga-trust-charge/optiga/externals/mbedtls/library\cipher_wrap.c ****     12,
 578:C:/Users/Yushev/git/wpcqi-optiga-trust-charge/optiga/externals/mbedtls/library\cipher_wrap.c ****     MBEDTLS_CIPHER_VARIABLE_IV_LEN,
 579:C:/Users/Yushev/git/wpcqi-optiga-trust-charge/optiga/externals/mbedtls/library\cipher_wrap.c ****     16,
 580:C:/Users/Yushev/git/wpcqi-optiga-trust-charge/optiga/externals/mbedtls/library\cipher_wrap.c ****     &gcm_aes_info
 581:C:/Users/Yushev/git/wpcqi-optiga-trust-charge/optiga/externals/mbedtls/library\cipher_wrap.c **** };
 582:C:/Users/Yushev/git/wpcqi-optiga-trust-charge/optiga/externals/mbedtls/library\cipher_wrap.c **** #endif /* MBEDTLS_GCM_C */
 583:C:/Users/Yushev/git/wpcqi-optiga-trust-charge/optiga/externals/mbedtls/library\cipher_wrap.c **** 
 584:C:/Users/Yushev/git/wpcqi-optiga-trust-charge/optiga/externals/mbedtls/library\cipher_wrap.c **** #if defined(MBEDTLS_CCM_C)
 585:C:/Users/Yushev/git/wpcqi-optiga-trust-charge/optiga/externals/mbedtls/library\cipher_wrap.c **** static int ccm_aes_setkey_wrap( void *ctx, const unsigned char *key,
 586:C:/Users/Yushev/git/wpcqi-optiga-trust-charge/optiga/externals/mbedtls/library\cipher_wrap.c ****                                 unsigned int key_bitlen )
 587:C:/Users/Yushev/git/wpcqi-optiga-trust-charge/optiga/externals/mbedtls/library\cipher_wrap.c **** {
 417              	 .loc 1 587 0
 418              	 .cfi_startproc
 419              	 
 420              	 
 421 0000 80B5     	 push {r7,lr}
 422              	.LCFI35:
 423              	 .cfi_def_cfa_offset 8
 424              	 .cfi_offset 7,-8
 425              	 .cfi_offset 14,-4
 426 0002 84B0     	 sub sp,sp,#16
 427              	.LCFI36:
 428              	 .cfi_def_cfa_offset 24
 429 0004 00AF     	 add r7,sp,#0
 430              	.LCFI37:
 431              	 .cfi_def_cfa_register 7
 432 0006 F860     	 str r0,[r7,#12]
 433 0008 B960     	 str r1,[r7,#8]
 434 000a 7A60     	 str r2,[r7,#4]
 588:C:/Users/Yushev/git/wpcqi-optiga-trust-charge/optiga/externals/mbedtls/library\cipher_wrap.c ****     return mbedtls_ccm_setkey( (mbedtls_ccm_context *) ctx, MBEDTLS_CIPHER_ID_AES,
 435              	 .loc 1 588 0
 436 000c F868     	 ldr r0,[r7,#12]
 437 000e 0221     	 movs r1,#2
 438 0010 BA68     	 ldr r2,[r7,#8]
 439 0012 7B68     	 ldr r3,[r7,#4]
 440 0014 FFF7FEFF 	 bl mbedtls_ccm_setkey
 441 0018 0346     	 mov r3,r0
 589:C:/Users/Yushev/git/wpcqi-optiga-trust-charge/optiga/externals/mbedtls/library\cipher_wrap.c ****                      key, key_bitlen );
 590:C:/Users/Yushev/git/wpcqi-optiga-trust-charge/optiga/externals/mbedtls/library\cipher_wrap.c **** }
 442              	 .loc 1 590 0
 443 001a 1846     	 mov r0,r3
 444 001c 1037     	 adds r7,r7,#16
 445              	.LCFI38:
 446              	 .cfi_def_cfa_offset 8
 447 001e BD46     	 mov sp,r7
 448              	.LCFI39:
 449              	 .cfi_def_cfa_register 13
 450              	 
 451 0020 80BD     	 pop {r7,pc}
 452              	 .cfi_endproc
 453              	.LFE14:
 455 0022 00BF     	 .section .rodata.ccm_aes_info,"a",%progbits
 456              	 .align 2
 459              	ccm_aes_info:
 460 0000 02       	 .byte 2
 461 0001 000000   	 .space 3
 462 0004 00000000 	 .word 0
 463 0008 00000000 	 .word ccm_aes_setkey_wrap
 464 000c 00000000 	 .word ccm_aes_setkey_wrap
 465 0010 00000000 	 .word ccm_ctx_alloc
 466 0014 00000000 	 .word ccm_ctx_free
 467              	 .section .rodata
 468              	 .align 2
 469              	.LC3:
 470 0024 4145532D 	 .ascii "AES-128-CCM\000"
 470      3132382D 
 470      43434D00 
 471              	 .section .rodata.aes_128_ccm_info,"a",%progbits
 472              	 .align 2
 475              	aes_128_ccm_info:
 476 0000 2B       	 .byte 43
 477 0001 08       	 .byte 8
 478 0002 0000     	 .space 2
 479 0004 80000000 	 .word 128
 480 0008 24000000 	 .word .LC3
 481 000c 0C000000 	 .word 12
 482 0010 01000000 	 .word 1
 483 0014 10000000 	 .word 16
 484 0018 00000000 	 .word ccm_aes_info
 485              	 .section .rodata
 486              	 .align 2
 487              	.LC4:
 488 0030 4145532D 	 .ascii "AES-192-CCM\000"
 488      3139322D 
 488      43434D00 
 489              	 .section .rodata.aes_192_ccm_info,"a",%progbits
 490              	 .align 2
 493              	aes_192_ccm_info:
 494 0000 2C       	 .byte 44
 495 0001 08       	 .byte 8
 496 0002 0000     	 .space 2
 497 0004 C0000000 	 .word 192
 498 0008 30000000 	 .word .LC4
 499 000c 0C000000 	 .word 12
 500 0010 01000000 	 .word 1
 501 0014 10000000 	 .word 16
 502 0018 00000000 	 .word ccm_aes_info
 503              	 .section .rodata
 504              	 .align 2
 505              	.LC5:
 506 003c 4145532D 	 .ascii "AES-256-CCM\000"
 506      3235362D 
 506      43434D00 
 507              	 .section .rodata.aes_256_ccm_info,"a",%progbits
 508              	 .align 2
 511              	aes_256_ccm_info:
 512 0000 2D       	 .byte 45
 513 0001 08       	 .byte 8
 514 0002 0000     	 .space 2
 515 0004 00010000 	 .word 256
 516 0008 3C000000 	 .word .LC5
 517 000c 0C000000 	 .word 12
 518 0010 01000000 	 .word 1
 519 0014 10000000 	 .word 16
 520 0018 00000000 	 .word ccm_aes_info
 521              	 .global mbedtls_cipher_definitions
 522              	 .section .rodata.mbedtls_cipher_definitions,"a",%progbits
 523              	 .align 2
 526              	mbedtls_cipher_definitions:
 527 0000 02       	 .byte 2
 528 0001 000000   	 .space 3
 529 0004 00000000 	 .word aes_128_ecb_info
 530 0008 03       	 .byte 3
 531 0009 000000   	 .space 3
 532 000c 00000000 	 .word aes_192_ecb_info
 533 0010 04       	 .byte 4
 534 0011 000000   	 .space 3
 535 0014 00000000 	 .word aes_256_ecb_info
 536 0018 2B       	 .byte 43
 537 0019 000000   	 .space 3
 538 001c 00000000 	 .word aes_128_ccm_info
 539 0020 2C       	 .byte 44
 540 0021 000000   	 .space 3
 541 0024 00000000 	 .word aes_192_ccm_info
 542 0028 2D       	 .byte 45
 543 0029 000000   	 .space 3
 544 002c 00000000 	 .word aes_256_ccm_info
 545 0030 00       	 .byte 0
 546 0031 000000   	 .space 3
 547 0034 00000000 	 .word 0
 548              	 .comm mbedtls_cipher_supported,28,4
 549              	 .text
 550              	.Letext0:
 551              	 .file 2 "c:\\users\\yushev\\dave_4-4-2_32bit_2018-02-23\\dave-ide-4.4.2-32bit\\eclipse\\arm-gcc-49\\lib\\gcc\\arm-none-eabi\\4.9.3\\include\\stddef.h"
 552              	 .file 3 "C:/Users/Yushev/git/wpcqi-optiga-trust-charge/optiga/externals/mbedtls/include/mbedtls/cipher.h"
 553              	 .file 4 "C:/Users/Yushev/git/wpcqi-optiga-trust-charge/optiga/externals/mbedtls/include/mbedtls/cipher_internal.h"
 554              	 .file 5 "c:\\users\\yushev\\dave_4-4-2_32bit_2018-02-23\\dave-ide-4.4.2-32bit\\eclipse\\arm-gcc-49\\arm-none-eabi\\include\\machine\\_default_types.h"
 555              	 .file 6 "c:\\users\\yushev\\dave_4-4-2_32bit_2018-02-23\\dave-ide-4.4.2-32bit\\eclipse\\arm-gcc-49\\arm-none-eabi\\include\\stdint.h"
 556              	 .file 7 "C:/Users/Yushev/git/wpcqi-optiga-trust-charge/optiga/externals/mbedtls/include/mbedtls/aes.h"
 557              	 .file 8 "C:/Users/Yushev/git/wpcqi-optiga-trust-charge/optiga/externals/mbedtls/include/mbedtls/ccm.h"