   1              	 .syntax unified
   2              	 .cpu cortex-m4
   3              	 .eabi_attribute 27,3
   4              	 .fpu fpv4-sp-d16
   5              	 .eabi_attribute 20,1
   6              	 .eabi_attribute 21,1
   7              	 .eabi_attribute 23,3
   8              	 .eabi_attribute 24,1
   9              	 .eabi_attribute 25,1
  10              	 .eabi_attribute 26,1
  11              	 .eabi_attribute 30,6
  12              	 .eabi_attribute 34,1
  13              	 .eabi_attribute 18,4
  14              	 .thumb
  15              	 .file "ecp.c"
  16              	 .text
  17              	.Ltext0:
  18              	 .cfi_sections .debug_frame
  19              	 .section .rodata
  20              	 .align 2
  21              	.LC0:
  22 0000 73656370 	 .ascii "secp256r1\000"
  22      32353672 
  22      3100
  23 000a 0000     	 .section .rodata.ecp_supported_curves,"a",%progbits
  24              	 .align 2
  27              	ecp_supported_curves:
  28 0000 03       	 .byte 3
  29 0001 00       	 .space 1
  30 0002 1700     	 .short 23
  31 0004 0001     	 .short 256
  32 0006 0000     	 .space 2
  33 0008 00000000 	 .word .LC0
  34 000c 00       	 .byte 0
  35 000d 00       	 .space 1
  36 000e 0000     	 .short 0
  37 0010 0000     	 .short 0
  38 0012 0000     	 .space 2
  39 0014 00000000 	 .word 0
  40              	 .section .bss.ecp_supported_grp_id,"aw",%nobits
  41              	 .align 2
  44              	ecp_supported_grp_id:
  45 0000 0000     	 .space 2
  46 0002 0000     	 .section .text.mbedtls_ecp_curve_list,"ax",%progbits
  47              	 .align 2
  48              	 .global mbedtls_ecp_curve_list
  49              	 .thumb
  50              	 .thumb_func
  52              	mbedtls_ecp_curve_list:
  53              	.LFB0:
  54              	 .file 1 "C:/Users/Yushev/git/wpcqi-optiga-trust-charge/optiga/externals/mbedtls/library/ecp.c"
   1:C:/Users/Yushev/git/wpcqi-optiga-trust-charge/optiga/externals/mbedtls/library\ecp.c **** /*
   2:C:/Users/Yushev/git/wpcqi-optiga-trust-charge/optiga/externals/mbedtls/library\ecp.c ****  *  Elliptic curves over GF(p): generic functions
   3:C:/Users/Yushev/git/wpcqi-optiga-trust-charge/optiga/externals/mbedtls/library\ecp.c ****  *
   4:C:/Users/Yushev/git/wpcqi-optiga-trust-charge/optiga/externals/mbedtls/library\ecp.c ****  *  Copyright (C) 2006-2015, ARM Limited, All Rights Reserved
   5:C:/Users/Yushev/git/wpcqi-optiga-trust-charge/optiga/externals/mbedtls/library\ecp.c ****  *  SPDX-License-Identifier: Apache-2.0
   6:C:/Users/Yushev/git/wpcqi-optiga-trust-charge/optiga/externals/mbedtls/library\ecp.c ****  *
   7:C:/Users/Yushev/git/wpcqi-optiga-trust-charge/optiga/externals/mbedtls/library\ecp.c ****  *  Licensed under the Apache License, Version 2.0 (the "License"); you may
   8:C:/Users/Yushev/git/wpcqi-optiga-trust-charge/optiga/externals/mbedtls/library\ecp.c ****  *  not use this file except in compliance with the License.
   9:C:/Users/Yushev/git/wpcqi-optiga-trust-charge/optiga/externals/mbedtls/library\ecp.c ****  *  You may obtain a copy of the License at
  10:C:/Users/Yushev/git/wpcqi-optiga-trust-charge/optiga/externals/mbedtls/library\ecp.c ****  *
  11:C:/Users/Yushev/git/wpcqi-optiga-trust-charge/optiga/externals/mbedtls/library\ecp.c ****  *  http://www.apache.org/licenses/LICENSE-2.0
  12:C:/Users/Yushev/git/wpcqi-optiga-trust-charge/optiga/externals/mbedtls/library\ecp.c ****  *
  13:C:/Users/Yushev/git/wpcqi-optiga-trust-charge/optiga/externals/mbedtls/library\ecp.c ****  *  Unless required by applicable law or agreed to in writing, software
  14:C:/Users/Yushev/git/wpcqi-optiga-trust-charge/optiga/externals/mbedtls/library\ecp.c ****  *  distributed under the License is distributed on an "AS IS" BASIS, WITHOUT
  15:C:/Users/Yushev/git/wpcqi-optiga-trust-charge/optiga/externals/mbedtls/library\ecp.c ****  *  WARRANTIES OR CONDITIONS OF ANY KIND, either express or implied.
  16:C:/Users/Yushev/git/wpcqi-optiga-trust-charge/optiga/externals/mbedtls/library\ecp.c ****  *  See the License for the specific language governing permissions and
  17:C:/Users/Yushev/git/wpcqi-optiga-trust-charge/optiga/externals/mbedtls/library\ecp.c ****  *  limitations under the License.
  18:C:/Users/Yushev/git/wpcqi-optiga-trust-charge/optiga/externals/mbedtls/library\ecp.c ****  *
  19:C:/Users/Yushev/git/wpcqi-optiga-trust-charge/optiga/externals/mbedtls/library\ecp.c ****  *  This file is part of mbed TLS (https://tls.mbed.org)
  20:C:/Users/Yushev/git/wpcqi-optiga-trust-charge/optiga/externals/mbedtls/library\ecp.c ****  */
  21:C:/Users/Yushev/git/wpcqi-optiga-trust-charge/optiga/externals/mbedtls/library\ecp.c **** 
  22:C:/Users/Yushev/git/wpcqi-optiga-trust-charge/optiga/externals/mbedtls/library\ecp.c **** /*
  23:C:/Users/Yushev/git/wpcqi-optiga-trust-charge/optiga/externals/mbedtls/library\ecp.c ****  * References:
  24:C:/Users/Yushev/git/wpcqi-optiga-trust-charge/optiga/externals/mbedtls/library\ecp.c ****  *
  25:C:/Users/Yushev/git/wpcqi-optiga-trust-charge/optiga/externals/mbedtls/library\ecp.c ****  * SEC1 http://www.secg.org/index.php?action=secg,docs_secg
  26:C:/Users/Yushev/git/wpcqi-optiga-trust-charge/optiga/externals/mbedtls/library\ecp.c ****  * GECC = Guide to Elliptic Curve Cryptography - Hankerson, Menezes, Vanstone
  27:C:/Users/Yushev/git/wpcqi-optiga-trust-charge/optiga/externals/mbedtls/library\ecp.c ****  * FIPS 186-3 http://csrc.nist.gov/publications/fips/fips186-3/fips_186-3.pdf
  28:C:/Users/Yushev/git/wpcqi-optiga-trust-charge/optiga/externals/mbedtls/library\ecp.c ****  * RFC 4492 for the related TLS structures and constants
  29:C:/Users/Yushev/git/wpcqi-optiga-trust-charge/optiga/externals/mbedtls/library\ecp.c ****  * RFC 7748 for the Curve448 and Curve25519 curve definitions
  30:C:/Users/Yushev/git/wpcqi-optiga-trust-charge/optiga/externals/mbedtls/library\ecp.c ****  *
  31:C:/Users/Yushev/git/wpcqi-optiga-trust-charge/optiga/externals/mbedtls/library\ecp.c ****  * [Curve25519] http://cr.yp.to/ecdh/curve25519-20060209.pdf
  32:C:/Users/Yushev/git/wpcqi-optiga-trust-charge/optiga/externals/mbedtls/library\ecp.c ****  *
  33:C:/Users/Yushev/git/wpcqi-optiga-trust-charge/optiga/externals/mbedtls/library\ecp.c ****  * [2] CORON, Jean-S'ebastien. Resistance against differential power analysis
  34:C:/Users/Yushev/git/wpcqi-optiga-trust-charge/optiga/externals/mbedtls/library\ecp.c ****  *     for elliptic curve cryptosystems. In : Cryptographic Hardware and
  35:C:/Users/Yushev/git/wpcqi-optiga-trust-charge/optiga/externals/mbedtls/library\ecp.c ****  *     Embedded Systems. Springer Berlin Heidelberg, 1999. p. 292-302.
  36:C:/Users/Yushev/git/wpcqi-optiga-trust-charge/optiga/externals/mbedtls/library\ecp.c ****  *     <http://link.springer.com/chapter/10.1007/3-540-48059-5_25>
  37:C:/Users/Yushev/git/wpcqi-optiga-trust-charge/optiga/externals/mbedtls/library\ecp.c ****  *
  38:C:/Users/Yushev/git/wpcqi-optiga-trust-charge/optiga/externals/mbedtls/library\ecp.c ****  * [3] HEDABOU, Mustapha, PINEL, Pierre, et B'EN'ETEAU, Lucien. A comb method to
  39:C:/Users/Yushev/git/wpcqi-optiga-trust-charge/optiga/externals/mbedtls/library\ecp.c ****  *     render ECC resistant against Side Channel Attacks. IACR Cryptology
  40:C:/Users/Yushev/git/wpcqi-optiga-trust-charge/optiga/externals/mbedtls/library\ecp.c ****  *     ePrint Archive, 2004, vol. 2004, p. 342.
  41:C:/Users/Yushev/git/wpcqi-optiga-trust-charge/optiga/externals/mbedtls/library\ecp.c ****  *     <http://eprint.iacr.org/2004/342.pdf>
  42:C:/Users/Yushev/git/wpcqi-optiga-trust-charge/optiga/externals/mbedtls/library\ecp.c ****  */
  43:C:/Users/Yushev/git/wpcqi-optiga-trust-charge/optiga/externals/mbedtls/library\ecp.c **** 
  44:C:/Users/Yushev/git/wpcqi-optiga-trust-charge/optiga/externals/mbedtls/library\ecp.c **** #if !defined(MBEDTLS_CONFIG_FILE)
  45:C:/Users/Yushev/git/wpcqi-optiga-trust-charge/optiga/externals/mbedtls/library\ecp.c **** #include "mbedtls/config.h"
  46:C:/Users/Yushev/git/wpcqi-optiga-trust-charge/optiga/externals/mbedtls/library\ecp.c **** #else
  47:C:/Users/Yushev/git/wpcqi-optiga-trust-charge/optiga/externals/mbedtls/library\ecp.c **** #include MBEDTLS_CONFIG_FILE
  48:C:/Users/Yushev/git/wpcqi-optiga-trust-charge/optiga/externals/mbedtls/library\ecp.c **** #endif
  49:C:/Users/Yushev/git/wpcqi-optiga-trust-charge/optiga/externals/mbedtls/library\ecp.c **** 
  50:C:/Users/Yushev/git/wpcqi-optiga-trust-charge/optiga/externals/mbedtls/library\ecp.c **** /**
  51:C:/Users/Yushev/git/wpcqi-optiga-trust-charge/optiga/externals/mbedtls/library\ecp.c ****  * \brief Function level alternative implementation.
  52:C:/Users/Yushev/git/wpcqi-optiga-trust-charge/optiga/externals/mbedtls/library\ecp.c ****  *
  53:C:/Users/Yushev/git/wpcqi-optiga-trust-charge/optiga/externals/mbedtls/library\ecp.c ****  * The MBEDTLS_ECP_INTERNAL_ALT macro enables alternative implementations to
  54:C:/Users/Yushev/git/wpcqi-optiga-trust-charge/optiga/externals/mbedtls/library\ecp.c ****  * replace certain functions in this module. The alternative implementations are
  55:C:/Users/Yushev/git/wpcqi-optiga-trust-charge/optiga/externals/mbedtls/library\ecp.c ****  * typically hardware accelerators and need to activate the hardware before the
  56:C:/Users/Yushev/git/wpcqi-optiga-trust-charge/optiga/externals/mbedtls/library\ecp.c ****  * computation starts and deactivate it after it finishes. The
  57:C:/Users/Yushev/git/wpcqi-optiga-trust-charge/optiga/externals/mbedtls/library\ecp.c ****  * mbedtls_internal_ecp_init() and mbedtls_internal_ecp_free() functions serve
  58:C:/Users/Yushev/git/wpcqi-optiga-trust-charge/optiga/externals/mbedtls/library\ecp.c ****  * this purpose.
  59:C:/Users/Yushev/git/wpcqi-optiga-trust-charge/optiga/externals/mbedtls/library\ecp.c ****  *
  60:C:/Users/Yushev/git/wpcqi-optiga-trust-charge/optiga/externals/mbedtls/library\ecp.c ****  * To preserve the correct functionality the following conditions must hold:
  61:C:/Users/Yushev/git/wpcqi-optiga-trust-charge/optiga/externals/mbedtls/library\ecp.c ****  *
  62:C:/Users/Yushev/git/wpcqi-optiga-trust-charge/optiga/externals/mbedtls/library\ecp.c ****  * - The alternative implementation must be activated by
  63:C:/Users/Yushev/git/wpcqi-optiga-trust-charge/optiga/externals/mbedtls/library\ecp.c ****  *   mbedtls_internal_ecp_init() before any of the replaceable functions is
  64:C:/Users/Yushev/git/wpcqi-optiga-trust-charge/optiga/externals/mbedtls/library\ecp.c ****  *   called.
  65:C:/Users/Yushev/git/wpcqi-optiga-trust-charge/optiga/externals/mbedtls/library\ecp.c ****  * - mbedtls_internal_ecp_free() must \b only be called when the alternative
  66:C:/Users/Yushev/git/wpcqi-optiga-trust-charge/optiga/externals/mbedtls/library\ecp.c ****  *   implementation is activated.
  67:C:/Users/Yushev/git/wpcqi-optiga-trust-charge/optiga/externals/mbedtls/library\ecp.c ****  * - mbedtls_internal_ecp_init() must \b not be called when the alternative
  68:C:/Users/Yushev/git/wpcqi-optiga-trust-charge/optiga/externals/mbedtls/library\ecp.c ****  *   implementation is activated.
  69:C:/Users/Yushev/git/wpcqi-optiga-trust-charge/optiga/externals/mbedtls/library\ecp.c ****  * - Public functions must not return while the alternative implementation is
  70:C:/Users/Yushev/git/wpcqi-optiga-trust-charge/optiga/externals/mbedtls/library\ecp.c ****  *   activated.
  71:C:/Users/Yushev/git/wpcqi-optiga-trust-charge/optiga/externals/mbedtls/library\ecp.c ****  * - Replaceable functions are guarded by \c MBEDTLS_ECP_XXX_ALT macros and
  72:C:/Users/Yushev/git/wpcqi-optiga-trust-charge/optiga/externals/mbedtls/library\ecp.c ****  *   before calling them an \code if( mbedtls_internal_ecp_grp_capable( grp ) )
  73:C:/Users/Yushev/git/wpcqi-optiga-trust-charge/optiga/externals/mbedtls/library\ecp.c ****  *   \endcode ensures that the alternative implementation supports the current
  74:C:/Users/Yushev/git/wpcqi-optiga-trust-charge/optiga/externals/mbedtls/library\ecp.c ****  *   group.
  75:C:/Users/Yushev/git/wpcqi-optiga-trust-charge/optiga/externals/mbedtls/library\ecp.c ****  */
  76:C:/Users/Yushev/git/wpcqi-optiga-trust-charge/optiga/externals/mbedtls/library\ecp.c **** #if defined(MBEDTLS_ECP_INTERNAL_ALT)
  77:C:/Users/Yushev/git/wpcqi-optiga-trust-charge/optiga/externals/mbedtls/library\ecp.c **** #endif
  78:C:/Users/Yushev/git/wpcqi-optiga-trust-charge/optiga/externals/mbedtls/library\ecp.c **** 
  79:C:/Users/Yushev/git/wpcqi-optiga-trust-charge/optiga/externals/mbedtls/library\ecp.c **** #if defined(MBEDTLS_ECP_C)
  80:C:/Users/Yushev/git/wpcqi-optiga-trust-charge/optiga/externals/mbedtls/library\ecp.c **** 
  81:C:/Users/Yushev/git/wpcqi-optiga-trust-charge/optiga/externals/mbedtls/library\ecp.c **** #include "mbedtls/ecp.h"
  82:C:/Users/Yushev/git/wpcqi-optiga-trust-charge/optiga/externals/mbedtls/library\ecp.c **** #include "mbedtls/threading.h"
  83:C:/Users/Yushev/git/wpcqi-optiga-trust-charge/optiga/externals/mbedtls/library\ecp.c **** #include "mbedtls/platform_util.h"
  84:C:/Users/Yushev/git/wpcqi-optiga-trust-charge/optiga/externals/mbedtls/library\ecp.c **** 
  85:C:/Users/Yushev/git/wpcqi-optiga-trust-charge/optiga/externals/mbedtls/library\ecp.c **** #include <string.h>
  86:C:/Users/Yushev/git/wpcqi-optiga-trust-charge/optiga/externals/mbedtls/library\ecp.c **** 
  87:C:/Users/Yushev/git/wpcqi-optiga-trust-charge/optiga/externals/mbedtls/library\ecp.c **** #if !defined(MBEDTLS_ECP_ALT)
  88:C:/Users/Yushev/git/wpcqi-optiga-trust-charge/optiga/externals/mbedtls/library\ecp.c **** 
  89:C:/Users/Yushev/git/wpcqi-optiga-trust-charge/optiga/externals/mbedtls/library\ecp.c **** /* Parameter validation macros based on platform_util.h */
  90:C:/Users/Yushev/git/wpcqi-optiga-trust-charge/optiga/externals/mbedtls/library\ecp.c **** #define ECP_VALIDATE_RET( cond )    \
  91:C:/Users/Yushev/git/wpcqi-optiga-trust-charge/optiga/externals/mbedtls/library\ecp.c ****     MBEDTLS_INTERNAL_VALIDATE_RET( cond, MBEDTLS_ERR_ECP_BAD_INPUT_DATA )
  92:C:/Users/Yushev/git/wpcqi-optiga-trust-charge/optiga/externals/mbedtls/library\ecp.c **** #define ECP_VALIDATE( cond )        \
  93:C:/Users/Yushev/git/wpcqi-optiga-trust-charge/optiga/externals/mbedtls/library\ecp.c ****     MBEDTLS_INTERNAL_VALIDATE( cond )
  94:C:/Users/Yushev/git/wpcqi-optiga-trust-charge/optiga/externals/mbedtls/library\ecp.c **** 
  95:C:/Users/Yushev/git/wpcqi-optiga-trust-charge/optiga/externals/mbedtls/library\ecp.c **** #if defined(MBEDTLS_PLATFORM_C)
  96:C:/Users/Yushev/git/wpcqi-optiga-trust-charge/optiga/externals/mbedtls/library\ecp.c **** #include "mbedtls/platform.h"
  97:C:/Users/Yushev/git/wpcqi-optiga-trust-charge/optiga/externals/mbedtls/library\ecp.c **** #else
  98:C:/Users/Yushev/git/wpcqi-optiga-trust-charge/optiga/externals/mbedtls/library\ecp.c **** #include <stdlib.h>
  99:C:/Users/Yushev/git/wpcqi-optiga-trust-charge/optiga/externals/mbedtls/library\ecp.c **** #include <stdio.h>
 100:C:/Users/Yushev/git/wpcqi-optiga-trust-charge/optiga/externals/mbedtls/library\ecp.c **** #define mbedtls_printf     printf
 101:C:/Users/Yushev/git/wpcqi-optiga-trust-charge/optiga/externals/mbedtls/library\ecp.c **** #define mbedtls_calloc    calloc
 102:C:/Users/Yushev/git/wpcqi-optiga-trust-charge/optiga/externals/mbedtls/library\ecp.c **** #define mbedtls_free       free
 103:C:/Users/Yushev/git/wpcqi-optiga-trust-charge/optiga/externals/mbedtls/library\ecp.c **** #endif
 104:C:/Users/Yushev/git/wpcqi-optiga-trust-charge/optiga/externals/mbedtls/library\ecp.c **** 
 105:C:/Users/Yushev/git/wpcqi-optiga-trust-charge/optiga/externals/mbedtls/library\ecp.c **** #include "mbedtls/ecp_internal.h"
 106:C:/Users/Yushev/git/wpcqi-optiga-trust-charge/optiga/externals/mbedtls/library\ecp.c **** 
 107:C:/Users/Yushev/git/wpcqi-optiga-trust-charge/optiga/externals/mbedtls/library\ecp.c **** #if ( defined(__ARMCC_VERSION) || defined(_MSC_VER) ) && \
 108:C:/Users/Yushev/git/wpcqi-optiga-trust-charge/optiga/externals/mbedtls/library\ecp.c ****     !defined(inline) && !defined(__cplusplus)
 109:C:/Users/Yushev/git/wpcqi-optiga-trust-charge/optiga/externals/mbedtls/library\ecp.c **** #define inline __inline
 110:C:/Users/Yushev/git/wpcqi-optiga-trust-charge/optiga/externals/mbedtls/library\ecp.c **** #endif
 111:C:/Users/Yushev/git/wpcqi-optiga-trust-charge/optiga/externals/mbedtls/library\ecp.c **** 
 112:C:/Users/Yushev/git/wpcqi-optiga-trust-charge/optiga/externals/mbedtls/library\ecp.c **** #if defined(MBEDTLS_SELF_TEST)
 113:C:/Users/Yushev/git/wpcqi-optiga-trust-charge/optiga/externals/mbedtls/library\ecp.c **** /*
 114:C:/Users/Yushev/git/wpcqi-optiga-trust-charge/optiga/externals/mbedtls/library\ecp.c ****  * Counts of point addition and doubling, and field multiplications.
 115:C:/Users/Yushev/git/wpcqi-optiga-trust-charge/optiga/externals/mbedtls/library\ecp.c ****  * Used to test resistance of point multiplication to simple timing attacks.
 116:C:/Users/Yushev/git/wpcqi-optiga-trust-charge/optiga/externals/mbedtls/library\ecp.c ****  */
 117:C:/Users/Yushev/git/wpcqi-optiga-trust-charge/optiga/externals/mbedtls/library\ecp.c **** static unsigned long add_count, dbl_count, mul_count;
 118:C:/Users/Yushev/git/wpcqi-optiga-trust-charge/optiga/externals/mbedtls/library\ecp.c **** #endif
 119:C:/Users/Yushev/git/wpcqi-optiga-trust-charge/optiga/externals/mbedtls/library\ecp.c **** 
 120:C:/Users/Yushev/git/wpcqi-optiga-trust-charge/optiga/externals/mbedtls/library\ecp.c **** #if defined(MBEDTLS_ECP_RESTARTABLE)
 121:C:/Users/Yushev/git/wpcqi-optiga-trust-charge/optiga/externals/mbedtls/library\ecp.c **** /*
 122:C:/Users/Yushev/git/wpcqi-optiga-trust-charge/optiga/externals/mbedtls/library\ecp.c ****  * Maximum number of "basic operations" to be done in a row.
 123:C:/Users/Yushev/git/wpcqi-optiga-trust-charge/optiga/externals/mbedtls/library\ecp.c ****  *
 124:C:/Users/Yushev/git/wpcqi-optiga-trust-charge/optiga/externals/mbedtls/library\ecp.c ****  * Default value 0 means that ECC operations will not yield.
 125:C:/Users/Yushev/git/wpcqi-optiga-trust-charge/optiga/externals/mbedtls/library\ecp.c ****  * Note that regardless of the value of ecp_max_ops, always at
 126:C:/Users/Yushev/git/wpcqi-optiga-trust-charge/optiga/externals/mbedtls/library\ecp.c ****  * least one step is performed before yielding.
 127:C:/Users/Yushev/git/wpcqi-optiga-trust-charge/optiga/externals/mbedtls/library\ecp.c ****  *
 128:C:/Users/Yushev/git/wpcqi-optiga-trust-charge/optiga/externals/mbedtls/library\ecp.c ****  * Setting ecp_max_ops=1 can be suitable for testing purposes
 129:C:/Users/Yushev/git/wpcqi-optiga-trust-charge/optiga/externals/mbedtls/library\ecp.c ****  * as it will interrupt computation at all possible points.
 130:C:/Users/Yushev/git/wpcqi-optiga-trust-charge/optiga/externals/mbedtls/library\ecp.c ****  */
 131:C:/Users/Yushev/git/wpcqi-optiga-trust-charge/optiga/externals/mbedtls/library\ecp.c **** static unsigned ecp_max_ops = 0;
 132:C:/Users/Yushev/git/wpcqi-optiga-trust-charge/optiga/externals/mbedtls/library\ecp.c **** 
 133:C:/Users/Yushev/git/wpcqi-optiga-trust-charge/optiga/externals/mbedtls/library\ecp.c **** /*
 134:C:/Users/Yushev/git/wpcqi-optiga-trust-charge/optiga/externals/mbedtls/library\ecp.c ****  * Set ecp_max_ops
 135:C:/Users/Yushev/git/wpcqi-optiga-trust-charge/optiga/externals/mbedtls/library\ecp.c ****  */
 136:C:/Users/Yushev/git/wpcqi-optiga-trust-charge/optiga/externals/mbedtls/library\ecp.c **** void mbedtls_ecp_set_max_ops( unsigned max_ops )
 137:C:/Users/Yushev/git/wpcqi-optiga-trust-charge/optiga/externals/mbedtls/library\ecp.c **** {
 138:C:/Users/Yushev/git/wpcqi-optiga-trust-charge/optiga/externals/mbedtls/library\ecp.c ****     ecp_max_ops = max_ops;
 139:C:/Users/Yushev/git/wpcqi-optiga-trust-charge/optiga/externals/mbedtls/library\ecp.c **** }
 140:C:/Users/Yushev/git/wpcqi-optiga-trust-charge/optiga/externals/mbedtls/library\ecp.c **** 
 141:C:/Users/Yushev/git/wpcqi-optiga-trust-charge/optiga/externals/mbedtls/library\ecp.c **** /*
 142:C:/Users/Yushev/git/wpcqi-optiga-trust-charge/optiga/externals/mbedtls/library\ecp.c ****  * Check if restart is enabled
 143:C:/Users/Yushev/git/wpcqi-optiga-trust-charge/optiga/externals/mbedtls/library\ecp.c ****  */
 144:C:/Users/Yushev/git/wpcqi-optiga-trust-charge/optiga/externals/mbedtls/library\ecp.c **** int mbedtls_ecp_restart_is_enabled( void )
 145:C:/Users/Yushev/git/wpcqi-optiga-trust-charge/optiga/externals/mbedtls/library\ecp.c **** {
 146:C:/Users/Yushev/git/wpcqi-optiga-trust-charge/optiga/externals/mbedtls/library\ecp.c ****     return( ecp_max_ops != 0 );
 147:C:/Users/Yushev/git/wpcqi-optiga-trust-charge/optiga/externals/mbedtls/library\ecp.c **** }
 148:C:/Users/Yushev/git/wpcqi-optiga-trust-charge/optiga/externals/mbedtls/library\ecp.c **** 
 149:C:/Users/Yushev/git/wpcqi-optiga-trust-charge/optiga/externals/mbedtls/library\ecp.c **** /*
 150:C:/Users/Yushev/git/wpcqi-optiga-trust-charge/optiga/externals/mbedtls/library\ecp.c ****  * Restart sub-context for ecp_mul_comb()
 151:C:/Users/Yushev/git/wpcqi-optiga-trust-charge/optiga/externals/mbedtls/library\ecp.c ****  */
 152:C:/Users/Yushev/git/wpcqi-optiga-trust-charge/optiga/externals/mbedtls/library\ecp.c **** struct mbedtls_ecp_restart_mul
 153:C:/Users/Yushev/git/wpcqi-optiga-trust-charge/optiga/externals/mbedtls/library\ecp.c **** {
 154:C:/Users/Yushev/git/wpcqi-optiga-trust-charge/optiga/externals/mbedtls/library\ecp.c ****     mbedtls_ecp_point R;    /* current intermediate result                  */
 155:C:/Users/Yushev/git/wpcqi-optiga-trust-charge/optiga/externals/mbedtls/library\ecp.c ****     size_t i;               /* current index in various loops, 0 outside    */
 156:C:/Users/Yushev/git/wpcqi-optiga-trust-charge/optiga/externals/mbedtls/library\ecp.c ****     mbedtls_ecp_point *T;   /* table for precomputed points                 */
 157:C:/Users/Yushev/git/wpcqi-optiga-trust-charge/optiga/externals/mbedtls/library\ecp.c ****     unsigned char T_size;   /* number of points in table T                  */
 158:C:/Users/Yushev/git/wpcqi-optiga-trust-charge/optiga/externals/mbedtls/library\ecp.c ****     enum {                  /* what were we doing last time we returned?    */
 159:C:/Users/Yushev/git/wpcqi-optiga-trust-charge/optiga/externals/mbedtls/library\ecp.c ****         ecp_rsm_init = 0,       /* nothing so far, dummy initial state      */
 160:C:/Users/Yushev/git/wpcqi-optiga-trust-charge/optiga/externals/mbedtls/library\ecp.c ****         ecp_rsm_pre_dbl,        /* precompute 2^n multiples                 */
 161:C:/Users/Yushev/git/wpcqi-optiga-trust-charge/optiga/externals/mbedtls/library\ecp.c ****         ecp_rsm_pre_norm_dbl,   /* normalize precomputed 2^n multiples      */
 162:C:/Users/Yushev/git/wpcqi-optiga-trust-charge/optiga/externals/mbedtls/library\ecp.c ****         ecp_rsm_pre_add,        /* precompute remaining points by adding    */
 163:C:/Users/Yushev/git/wpcqi-optiga-trust-charge/optiga/externals/mbedtls/library\ecp.c ****         ecp_rsm_pre_norm_add,   /* normalize all precomputed points         */
 164:C:/Users/Yushev/git/wpcqi-optiga-trust-charge/optiga/externals/mbedtls/library\ecp.c ****         ecp_rsm_comb_core,      /* ecp_mul_comb_core()                      */
 165:C:/Users/Yushev/git/wpcqi-optiga-trust-charge/optiga/externals/mbedtls/library\ecp.c ****         ecp_rsm_final_norm,     /* do the final normalization               */
 166:C:/Users/Yushev/git/wpcqi-optiga-trust-charge/optiga/externals/mbedtls/library\ecp.c ****     } state;
 167:C:/Users/Yushev/git/wpcqi-optiga-trust-charge/optiga/externals/mbedtls/library\ecp.c **** };
 168:C:/Users/Yushev/git/wpcqi-optiga-trust-charge/optiga/externals/mbedtls/library\ecp.c **** 
 169:C:/Users/Yushev/git/wpcqi-optiga-trust-charge/optiga/externals/mbedtls/library\ecp.c **** /*
 170:C:/Users/Yushev/git/wpcqi-optiga-trust-charge/optiga/externals/mbedtls/library\ecp.c ****  * Init restart_mul sub-context
 171:C:/Users/Yushev/git/wpcqi-optiga-trust-charge/optiga/externals/mbedtls/library\ecp.c ****  */
 172:C:/Users/Yushev/git/wpcqi-optiga-trust-charge/optiga/externals/mbedtls/library\ecp.c **** static void ecp_restart_rsm_init( mbedtls_ecp_restart_mul_ctx *ctx )
 173:C:/Users/Yushev/git/wpcqi-optiga-trust-charge/optiga/externals/mbedtls/library\ecp.c **** {
 174:C:/Users/Yushev/git/wpcqi-optiga-trust-charge/optiga/externals/mbedtls/library\ecp.c ****     mbedtls_ecp_point_init( &ctx->R );
 175:C:/Users/Yushev/git/wpcqi-optiga-trust-charge/optiga/externals/mbedtls/library\ecp.c ****     ctx->i = 0;
 176:C:/Users/Yushev/git/wpcqi-optiga-trust-charge/optiga/externals/mbedtls/library\ecp.c ****     ctx->T = NULL;
 177:C:/Users/Yushev/git/wpcqi-optiga-trust-charge/optiga/externals/mbedtls/library\ecp.c ****     ctx->T_size = 0;
 178:C:/Users/Yushev/git/wpcqi-optiga-trust-charge/optiga/externals/mbedtls/library\ecp.c ****     ctx->state = ecp_rsm_init;
 179:C:/Users/Yushev/git/wpcqi-optiga-trust-charge/optiga/externals/mbedtls/library\ecp.c **** }
 180:C:/Users/Yushev/git/wpcqi-optiga-trust-charge/optiga/externals/mbedtls/library\ecp.c **** 
 181:C:/Users/Yushev/git/wpcqi-optiga-trust-charge/optiga/externals/mbedtls/library\ecp.c **** /*
 182:C:/Users/Yushev/git/wpcqi-optiga-trust-charge/optiga/externals/mbedtls/library\ecp.c ****  * Free the components of a restart_mul sub-context
 183:C:/Users/Yushev/git/wpcqi-optiga-trust-charge/optiga/externals/mbedtls/library\ecp.c ****  */
 184:C:/Users/Yushev/git/wpcqi-optiga-trust-charge/optiga/externals/mbedtls/library\ecp.c **** static void ecp_restart_rsm_free( mbedtls_ecp_restart_mul_ctx *ctx )
 185:C:/Users/Yushev/git/wpcqi-optiga-trust-charge/optiga/externals/mbedtls/library\ecp.c **** {
 186:C:/Users/Yushev/git/wpcqi-optiga-trust-charge/optiga/externals/mbedtls/library\ecp.c ****     unsigned char i;
 187:C:/Users/Yushev/git/wpcqi-optiga-trust-charge/optiga/externals/mbedtls/library\ecp.c **** 
 188:C:/Users/Yushev/git/wpcqi-optiga-trust-charge/optiga/externals/mbedtls/library\ecp.c ****     if( ctx == NULL )
 189:C:/Users/Yushev/git/wpcqi-optiga-trust-charge/optiga/externals/mbedtls/library\ecp.c ****         return;
 190:C:/Users/Yushev/git/wpcqi-optiga-trust-charge/optiga/externals/mbedtls/library\ecp.c **** 
 191:C:/Users/Yushev/git/wpcqi-optiga-trust-charge/optiga/externals/mbedtls/library\ecp.c ****     mbedtls_ecp_point_free( &ctx->R );
 192:C:/Users/Yushev/git/wpcqi-optiga-trust-charge/optiga/externals/mbedtls/library\ecp.c **** 
 193:C:/Users/Yushev/git/wpcqi-optiga-trust-charge/optiga/externals/mbedtls/library\ecp.c ****     if( ctx->T != NULL )
 194:C:/Users/Yushev/git/wpcqi-optiga-trust-charge/optiga/externals/mbedtls/library\ecp.c ****     {
 195:C:/Users/Yushev/git/wpcqi-optiga-trust-charge/optiga/externals/mbedtls/library\ecp.c ****         for( i = 0; i < ctx->T_size; i++ )
 196:C:/Users/Yushev/git/wpcqi-optiga-trust-charge/optiga/externals/mbedtls/library\ecp.c ****             mbedtls_ecp_point_free( ctx->T + i );
 197:C:/Users/Yushev/git/wpcqi-optiga-trust-charge/optiga/externals/mbedtls/library\ecp.c ****         mbedtls_free( ctx->T );
 198:C:/Users/Yushev/git/wpcqi-optiga-trust-charge/optiga/externals/mbedtls/library\ecp.c ****     }
 199:C:/Users/Yushev/git/wpcqi-optiga-trust-charge/optiga/externals/mbedtls/library\ecp.c **** 
 200:C:/Users/Yushev/git/wpcqi-optiga-trust-charge/optiga/externals/mbedtls/library\ecp.c ****     ecp_restart_rsm_init( ctx );
 201:C:/Users/Yushev/git/wpcqi-optiga-trust-charge/optiga/externals/mbedtls/library\ecp.c **** }
 202:C:/Users/Yushev/git/wpcqi-optiga-trust-charge/optiga/externals/mbedtls/library\ecp.c **** 
 203:C:/Users/Yushev/git/wpcqi-optiga-trust-charge/optiga/externals/mbedtls/library\ecp.c **** /*
 204:C:/Users/Yushev/git/wpcqi-optiga-trust-charge/optiga/externals/mbedtls/library\ecp.c ****  * Restart context for ecp_muladd()
 205:C:/Users/Yushev/git/wpcqi-optiga-trust-charge/optiga/externals/mbedtls/library\ecp.c ****  */
 206:C:/Users/Yushev/git/wpcqi-optiga-trust-charge/optiga/externals/mbedtls/library\ecp.c **** struct mbedtls_ecp_restart_muladd
 207:C:/Users/Yushev/git/wpcqi-optiga-trust-charge/optiga/externals/mbedtls/library\ecp.c **** {
 208:C:/Users/Yushev/git/wpcqi-optiga-trust-charge/optiga/externals/mbedtls/library\ecp.c ****     mbedtls_ecp_point mP;       /* mP value                             */
 209:C:/Users/Yushev/git/wpcqi-optiga-trust-charge/optiga/externals/mbedtls/library\ecp.c ****     mbedtls_ecp_point R;        /* R intermediate result                */
 210:C:/Users/Yushev/git/wpcqi-optiga-trust-charge/optiga/externals/mbedtls/library\ecp.c ****     enum {                      /* what should we do next?              */
 211:C:/Users/Yushev/git/wpcqi-optiga-trust-charge/optiga/externals/mbedtls/library\ecp.c ****         ecp_rsma_mul1 = 0,      /* first multiplication                 */
 212:C:/Users/Yushev/git/wpcqi-optiga-trust-charge/optiga/externals/mbedtls/library\ecp.c ****         ecp_rsma_mul2,          /* second multiplication                */
 213:C:/Users/Yushev/git/wpcqi-optiga-trust-charge/optiga/externals/mbedtls/library\ecp.c ****         ecp_rsma_add,           /* addition                             */
 214:C:/Users/Yushev/git/wpcqi-optiga-trust-charge/optiga/externals/mbedtls/library\ecp.c ****         ecp_rsma_norm,          /* normalization                        */
 215:C:/Users/Yushev/git/wpcqi-optiga-trust-charge/optiga/externals/mbedtls/library\ecp.c ****     } state;
 216:C:/Users/Yushev/git/wpcqi-optiga-trust-charge/optiga/externals/mbedtls/library\ecp.c **** };
 217:C:/Users/Yushev/git/wpcqi-optiga-trust-charge/optiga/externals/mbedtls/library\ecp.c **** 
 218:C:/Users/Yushev/git/wpcqi-optiga-trust-charge/optiga/externals/mbedtls/library\ecp.c **** /*
 219:C:/Users/Yushev/git/wpcqi-optiga-trust-charge/optiga/externals/mbedtls/library\ecp.c ****  * Init restart_muladd sub-context
 220:C:/Users/Yushev/git/wpcqi-optiga-trust-charge/optiga/externals/mbedtls/library\ecp.c ****  */
 221:C:/Users/Yushev/git/wpcqi-optiga-trust-charge/optiga/externals/mbedtls/library\ecp.c **** static void ecp_restart_ma_init( mbedtls_ecp_restart_muladd_ctx *ctx )
 222:C:/Users/Yushev/git/wpcqi-optiga-trust-charge/optiga/externals/mbedtls/library\ecp.c **** {
 223:C:/Users/Yushev/git/wpcqi-optiga-trust-charge/optiga/externals/mbedtls/library\ecp.c ****     mbedtls_ecp_point_init( &ctx->mP );
 224:C:/Users/Yushev/git/wpcqi-optiga-trust-charge/optiga/externals/mbedtls/library\ecp.c ****     mbedtls_ecp_point_init( &ctx->R );
 225:C:/Users/Yushev/git/wpcqi-optiga-trust-charge/optiga/externals/mbedtls/library\ecp.c ****     ctx->state = ecp_rsma_mul1;
 226:C:/Users/Yushev/git/wpcqi-optiga-trust-charge/optiga/externals/mbedtls/library\ecp.c **** }
 227:C:/Users/Yushev/git/wpcqi-optiga-trust-charge/optiga/externals/mbedtls/library\ecp.c **** 
 228:C:/Users/Yushev/git/wpcqi-optiga-trust-charge/optiga/externals/mbedtls/library\ecp.c **** /*
 229:C:/Users/Yushev/git/wpcqi-optiga-trust-charge/optiga/externals/mbedtls/library\ecp.c ****  * Free the components of a restart_muladd sub-context
 230:C:/Users/Yushev/git/wpcqi-optiga-trust-charge/optiga/externals/mbedtls/library\ecp.c ****  */
 231:C:/Users/Yushev/git/wpcqi-optiga-trust-charge/optiga/externals/mbedtls/library\ecp.c **** static void ecp_restart_ma_free( mbedtls_ecp_restart_muladd_ctx *ctx )
 232:C:/Users/Yushev/git/wpcqi-optiga-trust-charge/optiga/externals/mbedtls/library\ecp.c **** {
 233:C:/Users/Yushev/git/wpcqi-optiga-trust-charge/optiga/externals/mbedtls/library\ecp.c ****     if( ctx == NULL )
 234:C:/Users/Yushev/git/wpcqi-optiga-trust-charge/optiga/externals/mbedtls/library\ecp.c ****         return;
 235:C:/Users/Yushev/git/wpcqi-optiga-trust-charge/optiga/externals/mbedtls/library\ecp.c **** 
 236:C:/Users/Yushev/git/wpcqi-optiga-trust-charge/optiga/externals/mbedtls/library\ecp.c ****     mbedtls_ecp_point_free( &ctx->mP );
 237:C:/Users/Yushev/git/wpcqi-optiga-trust-charge/optiga/externals/mbedtls/library\ecp.c ****     mbedtls_ecp_point_free( &ctx->R );
 238:C:/Users/Yushev/git/wpcqi-optiga-trust-charge/optiga/externals/mbedtls/library\ecp.c **** 
 239:C:/Users/Yushev/git/wpcqi-optiga-trust-charge/optiga/externals/mbedtls/library\ecp.c ****     ecp_restart_ma_init( ctx );
 240:C:/Users/Yushev/git/wpcqi-optiga-trust-charge/optiga/externals/mbedtls/library\ecp.c **** }
 241:C:/Users/Yushev/git/wpcqi-optiga-trust-charge/optiga/externals/mbedtls/library\ecp.c **** 
 242:C:/Users/Yushev/git/wpcqi-optiga-trust-charge/optiga/externals/mbedtls/library\ecp.c **** /*
 243:C:/Users/Yushev/git/wpcqi-optiga-trust-charge/optiga/externals/mbedtls/library\ecp.c ****  * Initialize a restart context
 244:C:/Users/Yushev/git/wpcqi-optiga-trust-charge/optiga/externals/mbedtls/library\ecp.c ****  */
 245:C:/Users/Yushev/git/wpcqi-optiga-trust-charge/optiga/externals/mbedtls/library\ecp.c **** void mbedtls_ecp_restart_init( mbedtls_ecp_restart_ctx *ctx )
 246:C:/Users/Yushev/git/wpcqi-optiga-trust-charge/optiga/externals/mbedtls/library\ecp.c **** {
 247:C:/Users/Yushev/git/wpcqi-optiga-trust-charge/optiga/externals/mbedtls/library\ecp.c ****     ECP_VALIDATE( ctx != NULL );
 248:C:/Users/Yushev/git/wpcqi-optiga-trust-charge/optiga/externals/mbedtls/library\ecp.c ****     ctx->ops_done = 0;
 249:C:/Users/Yushev/git/wpcqi-optiga-trust-charge/optiga/externals/mbedtls/library\ecp.c ****     ctx->depth = 0;
 250:C:/Users/Yushev/git/wpcqi-optiga-trust-charge/optiga/externals/mbedtls/library\ecp.c ****     ctx->rsm = NULL;
 251:C:/Users/Yushev/git/wpcqi-optiga-trust-charge/optiga/externals/mbedtls/library\ecp.c ****     ctx->ma = NULL;
 252:C:/Users/Yushev/git/wpcqi-optiga-trust-charge/optiga/externals/mbedtls/library\ecp.c **** }
 253:C:/Users/Yushev/git/wpcqi-optiga-trust-charge/optiga/externals/mbedtls/library\ecp.c **** 
 254:C:/Users/Yushev/git/wpcqi-optiga-trust-charge/optiga/externals/mbedtls/library\ecp.c **** /*
 255:C:/Users/Yushev/git/wpcqi-optiga-trust-charge/optiga/externals/mbedtls/library\ecp.c ****  * Free the components of a restart context
 256:C:/Users/Yushev/git/wpcqi-optiga-trust-charge/optiga/externals/mbedtls/library\ecp.c ****  */
 257:C:/Users/Yushev/git/wpcqi-optiga-trust-charge/optiga/externals/mbedtls/library\ecp.c **** void mbedtls_ecp_restart_free( mbedtls_ecp_restart_ctx *ctx )
 258:C:/Users/Yushev/git/wpcqi-optiga-trust-charge/optiga/externals/mbedtls/library\ecp.c **** {
 259:C:/Users/Yushev/git/wpcqi-optiga-trust-charge/optiga/externals/mbedtls/library\ecp.c ****     if( ctx == NULL )
 260:C:/Users/Yushev/git/wpcqi-optiga-trust-charge/optiga/externals/mbedtls/library\ecp.c ****         return;
 261:C:/Users/Yushev/git/wpcqi-optiga-trust-charge/optiga/externals/mbedtls/library\ecp.c **** 
 262:C:/Users/Yushev/git/wpcqi-optiga-trust-charge/optiga/externals/mbedtls/library\ecp.c ****     ecp_restart_rsm_free( ctx->rsm );
 263:C:/Users/Yushev/git/wpcqi-optiga-trust-charge/optiga/externals/mbedtls/library\ecp.c ****     mbedtls_free( ctx->rsm );
 264:C:/Users/Yushev/git/wpcqi-optiga-trust-charge/optiga/externals/mbedtls/library\ecp.c **** 
 265:C:/Users/Yushev/git/wpcqi-optiga-trust-charge/optiga/externals/mbedtls/library\ecp.c ****     ecp_restart_ma_free( ctx->ma );
 266:C:/Users/Yushev/git/wpcqi-optiga-trust-charge/optiga/externals/mbedtls/library\ecp.c ****     mbedtls_free( ctx->ma );
 267:C:/Users/Yushev/git/wpcqi-optiga-trust-charge/optiga/externals/mbedtls/library\ecp.c **** 
 268:C:/Users/Yushev/git/wpcqi-optiga-trust-charge/optiga/externals/mbedtls/library\ecp.c ****     mbedtls_ecp_restart_init( ctx );
 269:C:/Users/Yushev/git/wpcqi-optiga-trust-charge/optiga/externals/mbedtls/library\ecp.c **** }
 270:C:/Users/Yushev/git/wpcqi-optiga-trust-charge/optiga/externals/mbedtls/library\ecp.c **** 
 271:C:/Users/Yushev/git/wpcqi-optiga-trust-charge/optiga/externals/mbedtls/library\ecp.c **** /*
 272:C:/Users/Yushev/git/wpcqi-optiga-trust-charge/optiga/externals/mbedtls/library\ecp.c ****  * Check if we can do the next step
 273:C:/Users/Yushev/git/wpcqi-optiga-trust-charge/optiga/externals/mbedtls/library\ecp.c ****  */
 274:C:/Users/Yushev/git/wpcqi-optiga-trust-charge/optiga/externals/mbedtls/library\ecp.c **** int mbedtls_ecp_check_budget( const mbedtls_ecp_group *grp,
 275:C:/Users/Yushev/git/wpcqi-optiga-trust-charge/optiga/externals/mbedtls/library\ecp.c ****                               mbedtls_ecp_restart_ctx *rs_ctx,
 276:C:/Users/Yushev/git/wpcqi-optiga-trust-charge/optiga/externals/mbedtls/library\ecp.c ****                               unsigned ops )
 277:C:/Users/Yushev/git/wpcqi-optiga-trust-charge/optiga/externals/mbedtls/library\ecp.c **** {
 278:C:/Users/Yushev/git/wpcqi-optiga-trust-charge/optiga/externals/mbedtls/library\ecp.c ****     ECP_VALIDATE_RET( grp != NULL );
 279:C:/Users/Yushev/git/wpcqi-optiga-trust-charge/optiga/externals/mbedtls/library\ecp.c **** 
 280:C:/Users/Yushev/git/wpcqi-optiga-trust-charge/optiga/externals/mbedtls/library\ecp.c ****     if( rs_ctx != NULL && ecp_max_ops != 0 )
 281:C:/Users/Yushev/git/wpcqi-optiga-trust-charge/optiga/externals/mbedtls/library\ecp.c ****     {
 282:C:/Users/Yushev/git/wpcqi-optiga-trust-charge/optiga/externals/mbedtls/library\ecp.c ****         /* scale depending on curve size: the chosen reference is 256-bit,
 283:C:/Users/Yushev/git/wpcqi-optiga-trust-charge/optiga/externals/mbedtls/library\ecp.c ****          * and multiplication is quadratic. Round to the closest integer. */
 284:C:/Users/Yushev/git/wpcqi-optiga-trust-charge/optiga/externals/mbedtls/library\ecp.c ****         if( grp->pbits >= 512 )
 285:C:/Users/Yushev/git/wpcqi-optiga-trust-charge/optiga/externals/mbedtls/library\ecp.c ****             ops *= 4;
 286:C:/Users/Yushev/git/wpcqi-optiga-trust-charge/optiga/externals/mbedtls/library\ecp.c ****         else if( grp->pbits >= 384 )
 287:C:/Users/Yushev/git/wpcqi-optiga-trust-charge/optiga/externals/mbedtls/library\ecp.c ****             ops *= 2;
 288:C:/Users/Yushev/git/wpcqi-optiga-trust-charge/optiga/externals/mbedtls/library\ecp.c **** 
 289:C:/Users/Yushev/git/wpcqi-optiga-trust-charge/optiga/externals/mbedtls/library\ecp.c ****         /* Avoid infinite loops: always allow first step.
 290:C:/Users/Yushev/git/wpcqi-optiga-trust-charge/optiga/externals/mbedtls/library\ecp.c ****          * Because of that, however, it's not generally true
 291:C:/Users/Yushev/git/wpcqi-optiga-trust-charge/optiga/externals/mbedtls/library\ecp.c ****          * that ops_done <= ecp_max_ops, so the check
 292:C:/Users/Yushev/git/wpcqi-optiga-trust-charge/optiga/externals/mbedtls/library\ecp.c ****          * ops_done > ecp_max_ops below is mandatory. */
 293:C:/Users/Yushev/git/wpcqi-optiga-trust-charge/optiga/externals/mbedtls/library\ecp.c ****         if( ( rs_ctx->ops_done != 0 ) &&
 294:C:/Users/Yushev/git/wpcqi-optiga-trust-charge/optiga/externals/mbedtls/library\ecp.c ****             ( rs_ctx->ops_done > ecp_max_ops ||
 295:C:/Users/Yushev/git/wpcqi-optiga-trust-charge/optiga/externals/mbedtls/library\ecp.c ****               ops > ecp_max_ops - rs_ctx->ops_done ) )
 296:C:/Users/Yushev/git/wpcqi-optiga-trust-charge/optiga/externals/mbedtls/library\ecp.c ****         {
 297:C:/Users/Yushev/git/wpcqi-optiga-trust-charge/optiga/externals/mbedtls/library\ecp.c ****             return( MBEDTLS_ERR_ECP_IN_PROGRESS );
 298:C:/Users/Yushev/git/wpcqi-optiga-trust-charge/optiga/externals/mbedtls/library\ecp.c ****         }
 299:C:/Users/Yushev/git/wpcqi-optiga-trust-charge/optiga/externals/mbedtls/library\ecp.c **** 
 300:C:/Users/Yushev/git/wpcqi-optiga-trust-charge/optiga/externals/mbedtls/library\ecp.c ****         /* update running count */
 301:C:/Users/Yushev/git/wpcqi-optiga-trust-charge/optiga/externals/mbedtls/library\ecp.c ****         rs_ctx->ops_done += ops;
 302:C:/Users/Yushev/git/wpcqi-optiga-trust-charge/optiga/externals/mbedtls/library\ecp.c ****     }
 303:C:/Users/Yushev/git/wpcqi-optiga-trust-charge/optiga/externals/mbedtls/library\ecp.c **** 
 304:C:/Users/Yushev/git/wpcqi-optiga-trust-charge/optiga/externals/mbedtls/library\ecp.c ****     return( 0 );
 305:C:/Users/Yushev/git/wpcqi-optiga-trust-charge/optiga/externals/mbedtls/library\ecp.c **** }
 306:C:/Users/Yushev/git/wpcqi-optiga-trust-charge/optiga/externals/mbedtls/library\ecp.c **** 
 307:C:/Users/Yushev/git/wpcqi-optiga-trust-charge/optiga/externals/mbedtls/library\ecp.c **** /* Call this when entering a function that needs its own sub-context */
 308:C:/Users/Yushev/git/wpcqi-optiga-trust-charge/optiga/externals/mbedtls/library\ecp.c **** #define ECP_RS_ENTER( SUB )   do {                                      \
 309:C:/Users/Yushev/git/wpcqi-optiga-trust-charge/optiga/externals/mbedtls/library\ecp.c ****     /* reset ops count for this call if top-level */                    \
 310:C:/Users/Yushev/git/wpcqi-optiga-trust-charge/optiga/externals/mbedtls/library\ecp.c ****     if( rs_ctx != NULL && rs_ctx->depth++ == 0 )                        \
 311:C:/Users/Yushev/git/wpcqi-optiga-trust-charge/optiga/externals/mbedtls/library\ecp.c ****         rs_ctx->ops_done = 0;                                           \
 312:C:/Users/Yushev/git/wpcqi-optiga-trust-charge/optiga/externals/mbedtls/library\ecp.c ****                                                                         \
 313:C:/Users/Yushev/git/wpcqi-optiga-trust-charge/optiga/externals/mbedtls/library\ecp.c ****     /* set up our own sub-context if needed */                          \
 314:C:/Users/Yushev/git/wpcqi-optiga-trust-charge/optiga/externals/mbedtls/library\ecp.c ****     if( mbedtls_ecp_restart_is_enabled() &&                             \
 315:C:/Users/Yushev/git/wpcqi-optiga-trust-charge/optiga/externals/mbedtls/library\ecp.c ****         rs_ctx != NULL && rs_ctx->SUB == NULL )                         \
 316:C:/Users/Yushev/git/wpcqi-optiga-trust-charge/optiga/externals/mbedtls/library\ecp.c ****     {                                                                   \
 317:C:/Users/Yushev/git/wpcqi-optiga-trust-charge/optiga/externals/mbedtls/library\ecp.c ****         rs_ctx->SUB = mbedtls_calloc( 1, sizeof( *rs_ctx->SUB ) );      \
 318:C:/Users/Yushev/git/wpcqi-optiga-trust-charge/optiga/externals/mbedtls/library\ecp.c ****         if( rs_ctx->SUB == NULL )                                       \
 319:C:/Users/Yushev/git/wpcqi-optiga-trust-charge/optiga/externals/mbedtls/library\ecp.c ****             return( MBEDTLS_ERR_ECP_ALLOC_FAILED );                     \
 320:C:/Users/Yushev/git/wpcqi-optiga-trust-charge/optiga/externals/mbedtls/library\ecp.c ****                                                                         \
 321:C:/Users/Yushev/git/wpcqi-optiga-trust-charge/optiga/externals/mbedtls/library\ecp.c ****         ecp_restart_## SUB ##_init( rs_ctx->SUB );                      \
 322:C:/Users/Yushev/git/wpcqi-optiga-trust-charge/optiga/externals/mbedtls/library\ecp.c ****     }                                                                   \
 323:C:/Users/Yushev/git/wpcqi-optiga-trust-charge/optiga/externals/mbedtls/library\ecp.c **** } while( 0 )
 324:C:/Users/Yushev/git/wpcqi-optiga-trust-charge/optiga/externals/mbedtls/library\ecp.c **** 
 325:C:/Users/Yushev/git/wpcqi-optiga-trust-charge/optiga/externals/mbedtls/library\ecp.c **** /* Call this when leaving a function that needs its own sub-context */
 326:C:/Users/Yushev/git/wpcqi-optiga-trust-charge/optiga/externals/mbedtls/library\ecp.c **** #define ECP_RS_LEAVE( SUB )   do {                                      \
 327:C:/Users/Yushev/git/wpcqi-optiga-trust-charge/optiga/externals/mbedtls/library\ecp.c ****     /* clear our sub-context when not in progress (done or error) */    \
 328:C:/Users/Yushev/git/wpcqi-optiga-trust-charge/optiga/externals/mbedtls/library\ecp.c ****     if( rs_ctx != NULL && rs_ctx->SUB != NULL &&                        \
 329:C:/Users/Yushev/git/wpcqi-optiga-trust-charge/optiga/externals/mbedtls/library\ecp.c ****         ret != MBEDTLS_ERR_ECP_IN_PROGRESS )                            \
 330:C:/Users/Yushev/git/wpcqi-optiga-trust-charge/optiga/externals/mbedtls/library\ecp.c ****     {                                                                   \
 331:C:/Users/Yushev/git/wpcqi-optiga-trust-charge/optiga/externals/mbedtls/library\ecp.c ****         ecp_restart_## SUB ##_free( rs_ctx->SUB );                      \
 332:C:/Users/Yushev/git/wpcqi-optiga-trust-charge/optiga/externals/mbedtls/library\ecp.c ****         mbedtls_free( rs_ctx->SUB );                                    \
 333:C:/Users/Yushev/git/wpcqi-optiga-trust-charge/optiga/externals/mbedtls/library\ecp.c ****         rs_ctx->SUB = NULL;                                             \
 334:C:/Users/Yushev/git/wpcqi-optiga-trust-charge/optiga/externals/mbedtls/library\ecp.c ****     }                                                                   \
 335:C:/Users/Yushev/git/wpcqi-optiga-trust-charge/optiga/externals/mbedtls/library\ecp.c ****                                                                         \
 336:C:/Users/Yushev/git/wpcqi-optiga-trust-charge/optiga/externals/mbedtls/library\ecp.c ****     if( rs_ctx != NULL )                                                \
 337:C:/Users/Yushev/git/wpcqi-optiga-trust-charge/optiga/externals/mbedtls/library\ecp.c ****         rs_ctx->depth--;                                                \
 338:C:/Users/Yushev/git/wpcqi-optiga-trust-charge/optiga/externals/mbedtls/library\ecp.c **** } while( 0 )
 339:C:/Users/Yushev/git/wpcqi-optiga-trust-charge/optiga/externals/mbedtls/library\ecp.c **** 
 340:C:/Users/Yushev/git/wpcqi-optiga-trust-charge/optiga/externals/mbedtls/library\ecp.c **** #else /* MBEDTLS_ECP_RESTARTABLE */
 341:C:/Users/Yushev/git/wpcqi-optiga-trust-charge/optiga/externals/mbedtls/library\ecp.c **** 
 342:C:/Users/Yushev/git/wpcqi-optiga-trust-charge/optiga/externals/mbedtls/library\ecp.c **** #define ECP_RS_ENTER( sub )     (void) rs_ctx;
 343:C:/Users/Yushev/git/wpcqi-optiga-trust-charge/optiga/externals/mbedtls/library\ecp.c **** #define ECP_RS_LEAVE( sub )     (void) rs_ctx;
 344:C:/Users/Yushev/git/wpcqi-optiga-trust-charge/optiga/externals/mbedtls/library\ecp.c **** 
 345:C:/Users/Yushev/git/wpcqi-optiga-trust-charge/optiga/externals/mbedtls/library\ecp.c **** #endif /* MBEDTLS_ECP_RESTARTABLE */
 346:C:/Users/Yushev/git/wpcqi-optiga-trust-charge/optiga/externals/mbedtls/library\ecp.c **** 
 347:C:/Users/Yushev/git/wpcqi-optiga-trust-charge/optiga/externals/mbedtls/library\ecp.c **** #if defined(MBEDTLS_ECP_DP_SECP192R1_ENABLED) ||   \
 348:C:/Users/Yushev/git/wpcqi-optiga-trust-charge/optiga/externals/mbedtls/library\ecp.c ****     defined(MBEDTLS_ECP_DP_SECP224R1_ENABLED) ||   \
 349:C:/Users/Yushev/git/wpcqi-optiga-trust-charge/optiga/externals/mbedtls/library\ecp.c ****     defined(MBEDTLS_ECP_DP_SECP256R1_ENABLED) ||   \
 350:C:/Users/Yushev/git/wpcqi-optiga-trust-charge/optiga/externals/mbedtls/library\ecp.c ****     defined(MBEDTLS_ECP_DP_SECP384R1_ENABLED) ||   \
 351:C:/Users/Yushev/git/wpcqi-optiga-trust-charge/optiga/externals/mbedtls/library\ecp.c ****     defined(MBEDTLS_ECP_DP_SECP521R1_ENABLED) ||   \
 352:C:/Users/Yushev/git/wpcqi-optiga-trust-charge/optiga/externals/mbedtls/library\ecp.c ****     defined(MBEDTLS_ECP_DP_BP256R1_ENABLED)   ||   \
 353:C:/Users/Yushev/git/wpcqi-optiga-trust-charge/optiga/externals/mbedtls/library\ecp.c ****     defined(MBEDTLS_ECP_DP_BP384R1_ENABLED)   ||   \
 354:C:/Users/Yushev/git/wpcqi-optiga-trust-charge/optiga/externals/mbedtls/library\ecp.c ****     defined(MBEDTLS_ECP_DP_BP512R1_ENABLED)   ||   \
 355:C:/Users/Yushev/git/wpcqi-optiga-trust-charge/optiga/externals/mbedtls/library\ecp.c ****     defined(MBEDTLS_ECP_DP_SECP192K1_ENABLED) ||   \
 356:C:/Users/Yushev/git/wpcqi-optiga-trust-charge/optiga/externals/mbedtls/library\ecp.c ****     defined(MBEDTLS_ECP_DP_SECP224K1_ENABLED) ||   \
 357:C:/Users/Yushev/git/wpcqi-optiga-trust-charge/optiga/externals/mbedtls/library\ecp.c ****     defined(MBEDTLS_ECP_DP_SECP256K1_ENABLED)
 358:C:/Users/Yushev/git/wpcqi-optiga-trust-charge/optiga/externals/mbedtls/library\ecp.c **** #define ECP_SHORTWEIERSTRASS
 359:C:/Users/Yushev/git/wpcqi-optiga-trust-charge/optiga/externals/mbedtls/library\ecp.c **** #endif
 360:C:/Users/Yushev/git/wpcqi-optiga-trust-charge/optiga/externals/mbedtls/library\ecp.c **** 
 361:C:/Users/Yushev/git/wpcqi-optiga-trust-charge/optiga/externals/mbedtls/library\ecp.c **** #if defined(MBEDTLS_ECP_DP_CURVE25519_ENABLED) || \
 362:C:/Users/Yushev/git/wpcqi-optiga-trust-charge/optiga/externals/mbedtls/library\ecp.c ****     defined(MBEDTLS_ECP_DP_CURVE448_ENABLED)
 363:C:/Users/Yushev/git/wpcqi-optiga-trust-charge/optiga/externals/mbedtls/library\ecp.c **** #define ECP_MONTGOMERY
 364:C:/Users/Yushev/git/wpcqi-optiga-trust-charge/optiga/externals/mbedtls/library\ecp.c **** #endif
 365:C:/Users/Yushev/git/wpcqi-optiga-trust-charge/optiga/externals/mbedtls/library\ecp.c **** 
 366:C:/Users/Yushev/git/wpcqi-optiga-trust-charge/optiga/externals/mbedtls/library\ecp.c **** /*
 367:C:/Users/Yushev/git/wpcqi-optiga-trust-charge/optiga/externals/mbedtls/library\ecp.c ****  * Curve types: internal for now, might be exposed later
 368:C:/Users/Yushev/git/wpcqi-optiga-trust-charge/optiga/externals/mbedtls/library\ecp.c ****  */
 369:C:/Users/Yushev/git/wpcqi-optiga-trust-charge/optiga/externals/mbedtls/library\ecp.c **** typedef enum
 370:C:/Users/Yushev/git/wpcqi-optiga-trust-charge/optiga/externals/mbedtls/library\ecp.c **** {
 371:C:/Users/Yushev/git/wpcqi-optiga-trust-charge/optiga/externals/mbedtls/library\ecp.c ****     ECP_TYPE_NONE = 0,
 372:C:/Users/Yushev/git/wpcqi-optiga-trust-charge/optiga/externals/mbedtls/library\ecp.c ****     ECP_TYPE_SHORT_WEIERSTRASS,    /* y^2 = x^3 + a x + b      */
 373:C:/Users/Yushev/git/wpcqi-optiga-trust-charge/optiga/externals/mbedtls/library\ecp.c ****     ECP_TYPE_MONTGOMERY,           /* y^2 = x^3 + a x^2 + x    */
 374:C:/Users/Yushev/git/wpcqi-optiga-trust-charge/optiga/externals/mbedtls/library\ecp.c **** } ecp_curve_type;
 375:C:/Users/Yushev/git/wpcqi-optiga-trust-charge/optiga/externals/mbedtls/library\ecp.c **** 
 376:C:/Users/Yushev/git/wpcqi-optiga-trust-charge/optiga/externals/mbedtls/library\ecp.c **** /*
 377:C:/Users/Yushev/git/wpcqi-optiga-trust-charge/optiga/externals/mbedtls/library\ecp.c ****  * List of supported curves:
 378:C:/Users/Yushev/git/wpcqi-optiga-trust-charge/optiga/externals/mbedtls/library\ecp.c ****  *  - internal ID
 379:C:/Users/Yushev/git/wpcqi-optiga-trust-charge/optiga/externals/mbedtls/library\ecp.c ****  *  - TLS NamedCurve ID (RFC 4492 sec. 5.1.1, RFC 7071 sec. 2)
 380:C:/Users/Yushev/git/wpcqi-optiga-trust-charge/optiga/externals/mbedtls/library\ecp.c ****  *  - size in bits
 381:C:/Users/Yushev/git/wpcqi-optiga-trust-charge/optiga/externals/mbedtls/library\ecp.c ****  *  - readable name
 382:C:/Users/Yushev/git/wpcqi-optiga-trust-charge/optiga/externals/mbedtls/library\ecp.c ****  *
 383:C:/Users/Yushev/git/wpcqi-optiga-trust-charge/optiga/externals/mbedtls/library\ecp.c ****  * Curves are listed in order: largest curves first, and for a given size,
 384:C:/Users/Yushev/git/wpcqi-optiga-trust-charge/optiga/externals/mbedtls/library\ecp.c ****  * fastest curves first. This provides the default order for the SSL module.
 385:C:/Users/Yushev/git/wpcqi-optiga-trust-charge/optiga/externals/mbedtls/library\ecp.c ****  *
 386:C:/Users/Yushev/git/wpcqi-optiga-trust-charge/optiga/externals/mbedtls/library\ecp.c ****  * Reminder: update profiles in x509_crt.c when adding a new curves!
 387:C:/Users/Yushev/git/wpcqi-optiga-trust-charge/optiga/externals/mbedtls/library\ecp.c ****  */
 388:C:/Users/Yushev/git/wpcqi-optiga-trust-charge/optiga/externals/mbedtls/library\ecp.c **** static const mbedtls_ecp_curve_info ecp_supported_curves[] =
 389:C:/Users/Yushev/git/wpcqi-optiga-trust-charge/optiga/externals/mbedtls/library\ecp.c **** {
 390:C:/Users/Yushev/git/wpcqi-optiga-trust-charge/optiga/externals/mbedtls/library\ecp.c **** #if defined(MBEDTLS_ECP_DP_SECP521R1_ENABLED)
 391:C:/Users/Yushev/git/wpcqi-optiga-trust-charge/optiga/externals/mbedtls/library\ecp.c ****     { MBEDTLS_ECP_DP_SECP521R1,    25,     521,    "secp521r1"         },
 392:C:/Users/Yushev/git/wpcqi-optiga-trust-charge/optiga/externals/mbedtls/library\ecp.c **** #endif
 393:C:/Users/Yushev/git/wpcqi-optiga-trust-charge/optiga/externals/mbedtls/library\ecp.c **** #if defined(MBEDTLS_ECP_DP_BP512R1_ENABLED)
 394:C:/Users/Yushev/git/wpcqi-optiga-trust-charge/optiga/externals/mbedtls/library\ecp.c ****     { MBEDTLS_ECP_DP_BP512R1,      28,     512,    "brainpoolP512r1"   },
 395:C:/Users/Yushev/git/wpcqi-optiga-trust-charge/optiga/externals/mbedtls/library\ecp.c **** #endif
 396:C:/Users/Yushev/git/wpcqi-optiga-trust-charge/optiga/externals/mbedtls/library\ecp.c **** #if defined(MBEDTLS_ECP_DP_SECP384R1_ENABLED)
 397:C:/Users/Yushev/git/wpcqi-optiga-trust-charge/optiga/externals/mbedtls/library\ecp.c ****     { MBEDTLS_ECP_DP_SECP384R1,    24,     384,    "secp384r1"         },
 398:C:/Users/Yushev/git/wpcqi-optiga-trust-charge/optiga/externals/mbedtls/library\ecp.c **** #endif
 399:C:/Users/Yushev/git/wpcqi-optiga-trust-charge/optiga/externals/mbedtls/library\ecp.c **** #if defined(MBEDTLS_ECP_DP_BP384R1_ENABLED)
 400:C:/Users/Yushev/git/wpcqi-optiga-trust-charge/optiga/externals/mbedtls/library\ecp.c ****     { MBEDTLS_ECP_DP_BP384R1,      27,     384,    "brainpoolP384r1"   },
 401:C:/Users/Yushev/git/wpcqi-optiga-trust-charge/optiga/externals/mbedtls/library\ecp.c **** #endif
 402:C:/Users/Yushev/git/wpcqi-optiga-trust-charge/optiga/externals/mbedtls/library\ecp.c **** #if defined(MBEDTLS_ECP_DP_SECP256R1_ENABLED)
 403:C:/Users/Yushev/git/wpcqi-optiga-trust-charge/optiga/externals/mbedtls/library\ecp.c ****     { MBEDTLS_ECP_DP_SECP256R1,    23,     256,    "secp256r1"         },
 404:C:/Users/Yushev/git/wpcqi-optiga-trust-charge/optiga/externals/mbedtls/library\ecp.c **** #endif
 405:C:/Users/Yushev/git/wpcqi-optiga-trust-charge/optiga/externals/mbedtls/library\ecp.c **** #if defined(MBEDTLS_ECP_DP_SECP256K1_ENABLED)
 406:C:/Users/Yushev/git/wpcqi-optiga-trust-charge/optiga/externals/mbedtls/library\ecp.c ****     { MBEDTLS_ECP_DP_SECP256K1,    22,     256,    "secp256k1"         },
 407:C:/Users/Yushev/git/wpcqi-optiga-trust-charge/optiga/externals/mbedtls/library\ecp.c **** #endif
 408:C:/Users/Yushev/git/wpcqi-optiga-trust-charge/optiga/externals/mbedtls/library\ecp.c **** #if defined(MBEDTLS_ECP_DP_BP256R1_ENABLED)
 409:C:/Users/Yushev/git/wpcqi-optiga-trust-charge/optiga/externals/mbedtls/library\ecp.c ****     { MBEDTLS_ECP_DP_BP256R1,      26,     256,    "brainpoolP256r1"   },
 410:C:/Users/Yushev/git/wpcqi-optiga-trust-charge/optiga/externals/mbedtls/library\ecp.c **** #endif
 411:C:/Users/Yushev/git/wpcqi-optiga-trust-charge/optiga/externals/mbedtls/library\ecp.c **** #if defined(MBEDTLS_ECP_DP_SECP224R1_ENABLED)
 412:C:/Users/Yushev/git/wpcqi-optiga-trust-charge/optiga/externals/mbedtls/library\ecp.c ****     { MBEDTLS_ECP_DP_SECP224R1,    21,     224,    "secp224r1"         },
 413:C:/Users/Yushev/git/wpcqi-optiga-trust-charge/optiga/externals/mbedtls/library\ecp.c **** #endif
 414:C:/Users/Yushev/git/wpcqi-optiga-trust-charge/optiga/externals/mbedtls/library\ecp.c **** #if defined(MBEDTLS_ECP_DP_SECP224K1_ENABLED)
 415:C:/Users/Yushev/git/wpcqi-optiga-trust-charge/optiga/externals/mbedtls/library\ecp.c ****     { MBEDTLS_ECP_DP_SECP224K1,    20,     224,    "secp224k1"         },
 416:C:/Users/Yushev/git/wpcqi-optiga-trust-charge/optiga/externals/mbedtls/library\ecp.c **** #endif
 417:C:/Users/Yushev/git/wpcqi-optiga-trust-charge/optiga/externals/mbedtls/library\ecp.c **** #if defined(MBEDTLS_ECP_DP_SECP192R1_ENABLED)
 418:C:/Users/Yushev/git/wpcqi-optiga-trust-charge/optiga/externals/mbedtls/library\ecp.c ****     { MBEDTLS_ECP_DP_SECP192R1,    19,     192,    "secp192r1"         },
 419:C:/Users/Yushev/git/wpcqi-optiga-trust-charge/optiga/externals/mbedtls/library\ecp.c **** #endif
 420:C:/Users/Yushev/git/wpcqi-optiga-trust-charge/optiga/externals/mbedtls/library\ecp.c **** #if defined(MBEDTLS_ECP_DP_SECP192K1_ENABLED)
 421:C:/Users/Yushev/git/wpcqi-optiga-trust-charge/optiga/externals/mbedtls/library\ecp.c ****     { MBEDTLS_ECP_DP_SECP192K1,    18,     192,    "secp192k1"         },
 422:C:/Users/Yushev/git/wpcqi-optiga-trust-charge/optiga/externals/mbedtls/library\ecp.c **** #endif
 423:C:/Users/Yushev/git/wpcqi-optiga-trust-charge/optiga/externals/mbedtls/library\ecp.c ****     { MBEDTLS_ECP_DP_NONE,          0,     0,      NULL                },
 424:C:/Users/Yushev/git/wpcqi-optiga-trust-charge/optiga/externals/mbedtls/library\ecp.c **** };
 425:C:/Users/Yushev/git/wpcqi-optiga-trust-charge/optiga/externals/mbedtls/library\ecp.c **** 
 426:C:/Users/Yushev/git/wpcqi-optiga-trust-charge/optiga/externals/mbedtls/library\ecp.c **** #define ECP_NB_CURVES   sizeof( ecp_supported_curves ) /    \
 427:C:/Users/Yushev/git/wpcqi-optiga-trust-charge/optiga/externals/mbedtls/library\ecp.c ****                         sizeof( ecp_supported_curves[0] )
 428:C:/Users/Yushev/git/wpcqi-optiga-trust-charge/optiga/externals/mbedtls/library\ecp.c **** 
 429:C:/Users/Yushev/git/wpcqi-optiga-trust-charge/optiga/externals/mbedtls/library\ecp.c **** static mbedtls_ecp_group_id ecp_supported_grp_id[ECP_NB_CURVES];
 430:C:/Users/Yushev/git/wpcqi-optiga-trust-charge/optiga/externals/mbedtls/library\ecp.c **** 
 431:C:/Users/Yushev/git/wpcqi-optiga-trust-charge/optiga/externals/mbedtls/library\ecp.c **** /*
 432:C:/Users/Yushev/git/wpcqi-optiga-trust-charge/optiga/externals/mbedtls/library\ecp.c ****  * List of supported curves and associated info
 433:C:/Users/Yushev/git/wpcqi-optiga-trust-charge/optiga/externals/mbedtls/library\ecp.c ****  */
 434:C:/Users/Yushev/git/wpcqi-optiga-trust-charge/optiga/externals/mbedtls/library\ecp.c **** const mbedtls_ecp_curve_info *mbedtls_ecp_curve_list( void )
 435:C:/Users/Yushev/git/wpcqi-optiga-trust-charge/optiga/externals/mbedtls/library\ecp.c **** {
  55              	 .loc 1 435 0
  56              	 .cfi_startproc
  57              	 
  58              	 
  59              	 
  60 0000 80B4     	 push {r7}
  61              	.LCFI0:
  62              	 .cfi_def_cfa_offset 4
  63              	 .cfi_offset 7,-4
  64 0002 00AF     	 add r7,sp,#0
  65              	.LCFI1:
  66              	 .cfi_def_cfa_register 7
 436:C:/Users/Yushev/git/wpcqi-optiga-trust-charge/optiga/externals/mbedtls/library\ecp.c ****     return( ecp_supported_curves );
  67              	 .loc 1 436 0
  68 0004 024B     	 ldr r3,.L3
 437:C:/Users/Yushev/git/wpcqi-optiga-trust-charge/optiga/externals/mbedtls/library\ecp.c **** }
  69              	 .loc 1 437 0
  70 0006 1846     	 mov r0,r3
  71 0008 BD46     	 mov sp,r7
  72              	.LCFI2:
  73              	 .cfi_def_cfa_register 13
  74              	 
  75 000a 5DF8047B 	 ldr r7,[sp],#4
  76              	.LCFI3:
  77              	 .cfi_restore 7
  78              	 .cfi_def_cfa_offset 0
  79 000e 7047     	 bx lr
  80              	.L4:
  81              	 .align 2
  82              	.L3:
  83 0010 00000000 	 .word ecp_supported_curves
  84              	 .cfi_endproc
  85              	.LFE0:
  87              	 .section .text.mbedtls_ecp_grp_id_list,"ax",%progbits
  88              	 .align 2
  89              	 .global mbedtls_ecp_grp_id_list
  90              	 .thumb
  91              	 .thumb_func
  93              	mbedtls_ecp_grp_id_list:
  94              	.LFB1:
 438:C:/Users/Yushev/git/wpcqi-optiga-trust-charge/optiga/externals/mbedtls/library\ecp.c **** 
 439:C:/Users/Yushev/git/wpcqi-optiga-trust-charge/optiga/externals/mbedtls/library\ecp.c **** /*
 440:C:/Users/Yushev/git/wpcqi-optiga-trust-charge/optiga/externals/mbedtls/library\ecp.c ****  * List of supported curves, group ID only
 441:C:/Users/Yushev/git/wpcqi-optiga-trust-charge/optiga/externals/mbedtls/library\ecp.c ****  */
 442:C:/Users/Yushev/git/wpcqi-optiga-trust-charge/optiga/externals/mbedtls/library\ecp.c **** const mbedtls_ecp_group_id *mbedtls_ecp_grp_id_list( void )
 443:C:/Users/Yushev/git/wpcqi-optiga-trust-charge/optiga/externals/mbedtls/library\ecp.c **** {
  95              	 .loc 1 443 0
  96              	 .cfi_startproc
  97              	 
  98              	 
  99 0000 80B5     	 push {r7,lr}
 100              	.LCFI4:
 101              	 .cfi_def_cfa_offset 8
 102              	 .cfi_offset 7,-8
 103              	 .cfi_offset 14,-4
 104 0002 82B0     	 sub sp,sp,#8
 105              	.LCFI5:
 106              	 .cfi_def_cfa_offset 16
 107 0004 00AF     	 add r7,sp,#0
 108              	.LCFI6:
 109              	 .cfi_def_cfa_register 7
 444:C:/Users/Yushev/git/wpcqi-optiga-trust-charge/optiga/externals/mbedtls/library\ecp.c ****     static int init_done = 0;
 445:C:/Users/Yushev/git/wpcqi-optiga-trust-charge/optiga/externals/mbedtls/library\ecp.c **** 
 446:C:/Users/Yushev/git/wpcqi-optiga-trust-charge/optiga/externals/mbedtls/library\ecp.c ****     if( ! init_done )
 110              	 .loc 1 446 0
 111 0006 124B     	 ldr r3,.L10
 112 0008 1B68     	 ldr r3,[r3]
 113 000a 002B     	 cmp r3,#0
 114 000c 1BD1     	 bne .L6
 115              	.LBB2:
 447:C:/Users/Yushev/git/wpcqi-optiga-trust-charge/optiga/externals/mbedtls/library\ecp.c ****     {
 448:C:/Users/Yushev/git/wpcqi-optiga-trust-charge/optiga/externals/mbedtls/library\ecp.c ****         size_t i = 0;
 116              	 .loc 1 448 0
 117 000e 0023     	 movs r3,#0
 118 0010 7B60     	 str r3,[r7,#4]
 449:C:/Users/Yushev/git/wpcqi-optiga-trust-charge/optiga/externals/mbedtls/library\ecp.c ****         const mbedtls_ecp_curve_info *curve_info;
 450:C:/Users/Yushev/git/wpcqi-optiga-trust-charge/optiga/externals/mbedtls/library\ecp.c **** 
 451:C:/Users/Yushev/git/wpcqi-optiga-trust-charge/optiga/externals/mbedtls/library\ecp.c ****         for( curve_info = mbedtls_ecp_curve_list();
 119              	 .loc 1 451 0
 120 0012 FFF7FEFF 	 bl mbedtls_ecp_curve_list
 121 0016 3860     	 str r0,[r7]
 122 0018 09E0     	 b .L7
 123              	.L8:
 452:C:/Users/Yushev/git/wpcqi-optiga-trust-charge/optiga/externals/mbedtls/library\ecp.c ****              curve_info->grp_id != MBEDTLS_ECP_DP_NONE;
 453:C:/Users/Yushev/git/wpcqi-optiga-trust-charge/optiga/externals/mbedtls/library\ecp.c ****              curve_info++ )
 454:C:/Users/Yushev/git/wpcqi-optiga-trust-charge/optiga/externals/mbedtls/library\ecp.c ****         {
 455:C:/Users/Yushev/git/wpcqi-optiga-trust-charge/optiga/externals/mbedtls/library\ecp.c ****             ecp_supported_grp_id[i++] = curve_info->grp_id;
 124              	 .loc 1 455 0
 125 001a 7B68     	 ldr r3,[r7,#4]
 126 001c 5A1C     	 adds r2,r3,#1
 127 001e 7A60     	 str r2,[r7,#4]
 128 0020 3A68     	 ldr r2,[r7]
 129 0022 1178     	 ldrb r1,[r2]
 130 0024 0B4A     	 ldr r2,.L10+4
 131 0026 D154     	 strb r1,[r2,r3]
 453:C:/Users/Yushev/git/wpcqi-optiga-trust-charge/optiga/externals/mbedtls/library\ecp.c ****         {
 132              	 .loc 1 453 0
 133 0028 3B68     	 ldr r3,[r7]
 134 002a 0C33     	 adds r3,r3,#12
 135 002c 3B60     	 str r3,[r7]
 136              	.L7:
 452:C:/Users/Yushev/git/wpcqi-optiga-trust-charge/optiga/externals/mbedtls/library\ecp.c ****              curve_info->grp_id != MBEDTLS_ECP_DP_NONE;
 137              	 .loc 1 452 0 discriminator 1
 138 002e 3B68     	 ldr r3,[r7]
 139 0030 1B78     	 ldrb r3,[r3]
 451:C:/Users/Yushev/git/wpcqi-optiga-trust-charge/optiga/externals/mbedtls/library\ecp.c ****              curve_info->grp_id != MBEDTLS_ECP_DP_NONE;
 140              	 .loc 1 451 0 discriminator 1
 141 0032 002B     	 cmp r3,#0
 142 0034 F1D1     	 bne .L8
 456:C:/Users/Yushev/git/wpcqi-optiga-trust-charge/optiga/externals/mbedtls/library\ecp.c ****         }
 457:C:/Users/Yushev/git/wpcqi-optiga-trust-charge/optiga/externals/mbedtls/library\ecp.c ****         ecp_supported_grp_id[i] = MBEDTLS_ECP_DP_NONE;
 143              	 .loc 1 457 0
 144 0036 074A     	 ldr r2,.L10+4
 145 0038 7B68     	 ldr r3,[r7,#4]
 146 003a 1344     	 add r3,r3,r2
 147 003c 0022     	 movs r2,#0
 148 003e 1A70     	 strb r2,[r3]
 458:C:/Users/Yushev/git/wpcqi-optiga-trust-charge/optiga/externals/mbedtls/library\ecp.c **** 
 459:C:/Users/Yushev/git/wpcqi-optiga-trust-charge/optiga/externals/mbedtls/library\ecp.c ****         init_done = 1;
 149              	 .loc 1 459 0
 150 0040 034B     	 ldr r3,.L10
 151 0042 0122     	 movs r2,#1
 152 0044 1A60     	 str r2,[r3]
 153              	.L6:
 154              	.LBE2:
 460:C:/Users/Yushev/git/wpcqi-optiga-trust-charge/optiga/externals/mbedtls/library\ecp.c ****     }
 461:C:/Users/Yushev/git/wpcqi-optiga-trust-charge/optiga/externals/mbedtls/library\ecp.c **** 
 462:C:/Users/Yushev/git/wpcqi-optiga-trust-charge/optiga/externals/mbedtls/library\ecp.c ****     return( ecp_supported_grp_id );
 155              	 .loc 1 462 0
 156 0046 034B     	 ldr r3,.L10+4
 463:C:/Users/Yushev/git/wpcqi-optiga-trust-charge/optiga/externals/mbedtls/library\ecp.c **** }
 157              	 .loc 1 463 0
 158 0048 1846     	 mov r0,r3
 159 004a 0837     	 adds r7,r7,#8
 160              	.LCFI7:
 161              	 .cfi_def_cfa_offset 8
 162 004c BD46     	 mov sp,r7
 163              	.LCFI8:
 164              	 .cfi_def_cfa_register 13
 165              	 
 166 004e 80BD     	 pop {r7,pc}
 167              	.L11:
 168              	 .align 2
 169              	.L10:
 170 0050 00000000 	 .word init_done.6062
 171 0054 00000000 	 .word ecp_supported_grp_id
 172              	 .cfi_endproc
 173              	.LFE1:
 175              	 .section .text.mbedtls_ecp_curve_info_from_grp_id,"ax",%progbits
 176              	 .align 2
 177              	 .global mbedtls_ecp_curve_info_from_grp_id
 178              	 .thumb
 179              	 .thumb_func
 181              	mbedtls_ecp_curve_info_from_grp_id:
 182              	.LFB2:
 464:C:/Users/Yushev/git/wpcqi-optiga-trust-charge/optiga/externals/mbedtls/library\ecp.c **** 
 465:C:/Users/Yushev/git/wpcqi-optiga-trust-charge/optiga/externals/mbedtls/library\ecp.c **** /*
 466:C:/Users/Yushev/git/wpcqi-optiga-trust-charge/optiga/externals/mbedtls/library\ecp.c ****  * Get the curve info for the internal identifier
 467:C:/Users/Yushev/git/wpcqi-optiga-trust-charge/optiga/externals/mbedtls/library\ecp.c ****  */
 468:C:/Users/Yushev/git/wpcqi-optiga-trust-charge/optiga/externals/mbedtls/library\ecp.c **** const mbedtls_ecp_curve_info *mbedtls_ecp_curve_info_from_grp_id( mbedtls_ecp_group_id grp_id )
 469:C:/Users/Yushev/git/wpcqi-optiga-trust-charge/optiga/externals/mbedtls/library\ecp.c **** {
 183              	 .loc 1 469 0
 184              	 .cfi_startproc
 185              	 
 186              	 
 187 0000 80B5     	 push {r7,lr}
 188              	.LCFI9:
 189              	 .cfi_def_cfa_offset 8
 190              	 .cfi_offset 7,-8
 191              	 .cfi_offset 14,-4
 192 0002 84B0     	 sub sp,sp,#16
 193              	.LCFI10:
 194              	 .cfi_def_cfa_offset 24
 195 0004 00AF     	 add r7,sp,#0
 196              	.LCFI11:
 197              	 .cfi_def_cfa_register 7
 198 0006 0346     	 mov r3,r0
 199 0008 FB71     	 strb r3,[r7,#7]
 470:C:/Users/Yushev/git/wpcqi-optiga-trust-charge/optiga/externals/mbedtls/library\ecp.c ****     const mbedtls_ecp_curve_info *curve_info;
 471:C:/Users/Yushev/git/wpcqi-optiga-trust-charge/optiga/externals/mbedtls/library\ecp.c **** 
 472:C:/Users/Yushev/git/wpcqi-optiga-trust-charge/optiga/externals/mbedtls/library\ecp.c ****     for( curve_info = mbedtls_ecp_curve_list();
 200              	 .loc 1 472 0
 201 000a FFF7FEFF 	 bl mbedtls_ecp_curve_list
 202 000e F860     	 str r0,[r7,#12]
 203 0010 09E0     	 b .L13
 204              	.L16:
 473:C:/Users/Yushev/git/wpcqi-optiga-trust-charge/optiga/externals/mbedtls/library\ecp.c ****          curve_info->grp_id != MBEDTLS_ECP_DP_NONE;
 474:C:/Users/Yushev/git/wpcqi-optiga-trust-charge/optiga/externals/mbedtls/library\ecp.c ****          curve_info++ )
 475:C:/Users/Yushev/git/wpcqi-optiga-trust-charge/optiga/externals/mbedtls/library\ecp.c ****     {
 476:C:/Users/Yushev/git/wpcqi-optiga-trust-charge/optiga/externals/mbedtls/library\ecp.c ****         if( curve_info->grp_id == grp_id )
 205              	 .loc 1 476 0
 206 0012 FB68     	 ldr r3,[r7,#12]
 207 0014 1B78     	 ldrb r3,[r3]
 208 0016 FA79     	 ldrb r2,[r7,#7]
 209 0018 9A42     	 cmp r2,r3
 210 001a 01D1     	 bne .L14
 477:C:/Users/Yushev/git/wpcqi-optiga-trust-charge/optiga/externals/mbedtls/library\ecp.c ****             return( curve_info );
 211              	 .loc 1 477 0
 212 001c FB68     	 ldr r3,[r7,#12]
 213 001e 07E0     	 b .L15
 214              	.L14:
 474:C:/Users/Yushev/git/wpcqi-optiga-trust-charge/optiga/externals/mbedtls/library\ecp.c ****     {
 215              	 .loc 1 474 0
 216 0020 FB68     	 ldr r3,[r7,#12]
 217 0022 0C33     	 adds r3,r3,#12
 218 0024 FB60     	 str r3,[r7,#12]
 219              	.L13:
 473:C:/Users/Yushev/git/wpcqi-optiga-trust-charge/optiga/externals/mbedtls/library\ecp.c ****          curve_info->grp_id != MBEDTLS_ECP_DP_NONE;
 220              	 .loc 1 473 0 discriminator 1
 221 0026 FB68     	 ldr r3,[r7,#12]
 222 0028 1B78     	 ldrb r3,[r3]
 472:C:/Users/Yushev/git/wpcqi-optiga-trust-charge/optiga/externals/mbedtls/library\ecp.c ****          curve_info->grp_id != MBEDTLS_ECP_DP_NONE;
 223              	 .loc 1 472 0 discriminator 1
 224 002a 002B     	 cmp r3,#0
 225 002c F1D1     	 bne .L16
 478:C:/Users/Yushev/git/wpcqi-optiga-trust-charge/optiga/externals/mbedtls/library\ecp.c ****     }
 479:C:/Users/Yushev/git/wpcqi-optiga-trust-charge/optiga/externals/mbedtls/library\ecp.c **** 
 480:C:/Users/Yushev/git/wpcqi-optiga-trust-charge/optiga/externals/mbedtls/library\ecp.c ****     return( NULL );
 226              	 .loc 1 480 0
 227 002e 0023     	 movs r3,#0
 228              	.L15:
 481:C:/Users/Yushev/git/wpcqi-optiga-trust-charge/optiga/externals/mbedtls/library\ecp.c **** }
 229              	 .loc 1 481 0
 230 0030 1846     	 mov r0,r3
 231 0032 1037     	 adds r7,r7,#16
 232              	.LCFI12:
 233              	 .cfi_def_cfa_offset 8
 234 0034 BD46     	 mov sp,r7
 235              	.LCFI13:
 236              	 .cfi_def_cfa_register 13
 237              	 
 238 0036 80BD     	 pop {r7,pc}
 239              	 .cfi_endproc
 240              	.LFE2:
 242              	 .section .text.mbedtls_ecp_curve_info_from_tls_id,"ax",%progbits
 243              	 .align 2
 244              	 .global mbedtls_ecp_curve_info_from_tls_id
 245              	 .thumb
 246              	 .thumb_func
 248              	mbedtls_ecp_curve_info_from_tls_id:
 249              	.LFB3:
 482:C:/Users/Yushev/git/wpcqi-optiga-trust-charge/optiga/externals/mbedtls/library\ecp.c **** 
 483:C:/Users/Yushev/git/wpcqi-optiga-trust-charge/optiga/externals/mbedtls/library\ecp.c **** /*
 484:C:/Users/Yushev/git/wpcqi-optiga-trust-charge/optiga/externals/mbedtls/library\ecp.c ****  * Get the curve info from the TLS identifier
 485:C:/Users/Yushev/git/wpcqi-optiga-trust-charge/optiga/externals/mbedtls/library\ecp.c ****  */
 486:C:/Users/Yushev/git/wpcqi-optiga-trust-charge/optiga/externals/mbedtls/library\ecp.c **** const mbedtls_ecp_curve_info *mbedtls_ecp_curve_info_from_tls_id( uint16_t tls_id )
 487:C:/Users/Yushev/git/wpcqi-optiga-trust-charge/optiga/externals/mbedtls/library\ecp.c **** {
 250              	 .loc 1 487 0
 251              	 .cfi_startproc
 252              	 
 253              	 
 254 0000 80B5     	 push {r7,lr}
 255              	.LCFI14:
 256              	 .cfi_def_cfa_offset 8
 257              	 .cfi_offset 7,-8
 258              	 .cfi_offset 14,-4
 259 0002 84B0     	 sub sp,sp,#16
 260              	.LCFI15:
 261              	 .cfi_def_cfa_offset 24
 262 0004 00AF     	 add r7,sp,#0
 263              	.LCFI16:
 264              	 .cfi_def_cfa_register 7
 265 0006 0346     	 mov r3,r0
 266 0008 FB80     	 strh r3,[r7,#6]
 488:C:/Users/Yushev/git/wpcqi-optiga-trust-charge/optiga/externals/mbedtls/library\ecp.c ****     const mbedtls_ecp_curve_info *curve_info;
 489:C:/Users/Yushev/git/wpcqi-optiga-trust-charge/optiga/externals/mbedtls/library\ecp.c **** 
 490:C:/Users/Yushev/git/wpcqi-optiga-trust-charge/optiga/externals/mbedtls/library\ecp.c ****     for( curve_info = mbedtls_ecp_curve_list();
 267              	 .loc 1 490 0
 268 000a FFF7FEFF 	 bl mbedtls_ecp_curve_list
 269 000e F860     	 str r0,[r7,#12]
 270 0010 09E0     	 b .L18
 271              	.L21:
 491:C:/Users/Yushev/git/wpcqi-optiga-trust-charge/optiga/externals/mbedtls/library\ecp.c ****          curve_info->grp_id != MBEDTLS_ECP_DP_NONE;
 492:C:/Users/Yushev/git/wpcqi-optiga-trust-charge/optiga/externals/mbedtls/library\ecp.c ****          curve_info++ )
 493:C:/Users/Yushev/git/wpcqi-optiga-trust-charge/optiga/externals/mbedtls/library\ecp.c ****     {
 494:C:/Users/Yushev/git/wpcqi-optiga-trust-charge/optiga/externals/mbedtls/library\ecp.c ****         if( curve_info->tls_id == tls_id )
 272              	 .loc 1 494 0
 273 0012 FB68     	 ldr r3,[r7,#12]
 274 0014 5B88     	 ldrh r3,[r3,#2]
 275 0016 FA88     	 ldrh r2,[r7,#6]
 276 0018 9A42     	 cmp r2,r3
 277 001a 01D1     	 bne .L19
 495:C:/Users/Yushev/git/wpcqi-optiga-trust-charge/optiga/externals/mbedtls/library\ecp.c ****             return( curve_info );
 278              	 .loc 1 495 0
 279 001c FB68     	 ldr r3,[r7,#12]
 280 001e 07E0     	 b .L20
 281              	.L19:
 492:C:/Users/Yushev/git/wpcqi-optiga-trust-charge/optiga/externals/mbedtls/library\ecp.c ****     {
 282              	 .loc 1 492 0
 283 0020 FB68     	 ldr r3,[r7,#12]
 284 0022 0C33     	 adds r3,r3,#12
 285 0024 FB60     	 str r3,[r7,#12]
 286              	.L18:
 491:C:/Users/Yushev/git/wpcqi-optiga-trust-charge/optiga/externals/mbedtls/library\ecp.c ****          curve_info->grp_id != MBEDTLS_ECP_DP_NONE;
 287              	 .loc 1 491 0 discriminator 1
 288 0026 FB68     	 ldr r3,[r7,#12]
 289 0028 1B78     	 ldrb r3,[r3]
 490:C:/Users/Yushev/git/wpcqi-optiga-trust-charge/optiga/externals/mbedtls/library\ecp.c ****          curve_info->grp_id != MBEDTLS_ECP_DP_NONE;
 290              	 .loc 1 490 0 discriminator 1
 291 002a 002B     	 cmp r3,#0
 292 002c F1D1     	 bne .L21
 496:C:/Users/Yushev/git/wpcqi-optiga-trust-charge/optiga/externals/mbedtls/library\ecp.c ****     }
 497:C:/Users/Yushev/git/wpcqi-optiga-trust-charge/optiga/externals/mbedtls/library\ecp.c **** 
 498:C:/Users/Yushev/git/wpcqi-optiga-trust-charge/optiga/externals/mbedtls/library\ecp.c ****     return( NULL );
 293              	 .loc 1 498 0
 294 002e 0023     	 movs r3,#0
 295              	.L20:
 499:C:/Users/Yushev/git/wpcqi-optiga-trust-charge/optiga/externals/mbedtls/library\ecp.c **** }
 296              	 .loc 1 499 0
 297 0030 1846     	 mov r0,r3
 298 0032 1037     	 adds r7,r7,#16
 299              	.LCFI17:
 300              	 .cfi_def_cfa_offset 8
 301 0034 BD46     	 mov sp,r7
 302              	.LCFI18:
 303              	 .cfi_def_cfa_register 13
 304              	 
 305 0036 80BD     	 pop {r7,pc}
 306              	 .cfi_endproc
 307              	.LFE3:
 309              	 .section .text.mbedtls_ecp_curve_info_from_name,"ax",%progbits
 310              	 .align 2
 311              	 .global mbedtls_ecp_curve_info_from_name
 312              	 .thumb
 313              	 .thumb_func
 315              	mbedtls_ecp_curve_info_from_name:
 316              	.LFB4:
 500:C:/Users/Yushev/git/wpcqi-optiga-trust-charge/optiga/externals/mbedtls/library\ecp.c **** 
 501:C:/Users/Yushev/git/wpcqi-optiga-trust-charge/optiga/externals/mbedtls/library\ecp.c **** /*
 502:C:/Users/Yushev/git/wpcqi-optiga-trust-charge/optiga/externals/mbedtls/library\ecp.c ****  * Get the curve info from the name
 503:C:/Users/Yushev/git/wpcqi-optiga-trust-charge/optiga/externals/mbedtls/library\ecp.c ****  */
 504:C:/Users/Yushev/git/wpcqi-optiga-trust-charge/optiga/externals/mbedtls/library\ecp.c **** const mbedtls_ecp_curve_info *mbedtls_ecp_curve_info_from_name( const char *name )
 505:C:/Users/Yushev/git/wpcqi-optiga-trust-charge/optiga/externals/mbedtls/library\ecp.c **** {
 317              	 .loc 1 505 0
 318              	 .cfi_startproc
 319              	 
 320              	 
 321 0000 80B5     	 push {r7,lr}
 322              	.LCFI19:
 323              	 .cfi_def_cfa_offset 8
 324              	 .cfi_offset 7,-8
 325              	 .cfi_offset 14,-4
 326 0002 84B0     	 sub sp,sp,#16
 327              	.LCFI20:
 328              	 .cfi_def_cfa_offset 24
 329 0004 00AF     	 add r7,sp,#0
 330              	.LCFI21:
 331              	 .cfi_def_cfa_register 7
 332 0006 7860     	 str r0,[r7,#4]
 506:C:/Users/Yushev/git/wpcqi-optiga-trust-charge/optiga/externals/mbedtls/library\ecp.c ****     const mbedtls_ecp_curve_info *curve_info;
 507:C:/Users/Yushev/git/wpcqi-optiga-trust-charge/optiga/externals/mbedtls/library\ecp.c **** 
 508:C:/Users/Yushev/git/wpcqi-optiga-trust-charge/optiga/externals/mbedtls/library\ecp.c ****     if( name == NULL )
 333              	 .loc 1 508 0
 334 0008 7B68     	 ldr r3,[r7,#4]
 335 000a 002B     	 cmp r3,#0
 336 000c 01D1     	 bne .L23
 509:C:/Users/Yushev/git/wpcqi-optiga-trust-charge/optiga/externals/mbedtls/library\ecp.c ****         return( NULL );
 337              	 .loc 1 509 0
 338 000e 0023     	 movs r3,#0
 339 0010 16E0     	 b .L24
 340              	.L23:
 510:C:/Users/Yushev/git/wpcqi-optiga-trust-charge/optiga/externals/mbedtls/library\ecp.c **** 
 511:C:/Users/Yushev/git/wpcqi-optiga-trust-charge/optiga/externals/mbedtls/library\ecp.c ****     for( curve_info = mbedtls_ecp_curve_list();
 341              	 .loc 1 511 0
 342 0012 FFF7FEFF 	 bl mbedtls_ecp_curve_list
 343 0016 F860     	 str r0,[r7,#12]
 344 0018 0DE0     	 b .L25
 345              	.L27:
 512:C:/Users/Yushev/git/wpcqi-optiga-trust-charge/optiga/externals/mbedtls/library\ecp.c ****          curve_info->grp_id != MBEDTLS_ECP_DP_NONE;
 513:C:/Users/Yushev/git/wpcqi-optiga-trust-charge/optiga/externals/mbedtls/library\ecp.c ****          curve_info++ )
 514:C:/Users/Yushev/git/wpcqi-optiga-trust-charge/optiga/externals/mbedtls/library\ecp.c ****     {
 515:C:/Users/Yushev/git/wpcqi-optiga-trust-charge/optiga/externals/mbedtls/library\ecp.c ****         if( strcmp( curve_info->name, name ) == 0 )
 346              	 .loc 1 515 0
 347 001a FB68     	 ldr r3,[r7,#12]
 348 001c 9B68     	 ldr r3,[r3,#8]
 349 001e 1846     	 mov r0,r3
 350 0020 7968     	 ldr r1,[r7,#4]
 351 0022 FFF7FEFF 	 bl strcmp
 352 0026 0346     	 mov r3,r0
 353 0028 002B     	 cmp r3,#0
 354 002a 01D1     	 bne .L26
 516:C:/Users/Yushev/git/wpcqi-optiga-trust-charge/optiga/externals/mbedtls/library\ecp.c ****             return( curve_info );
 355              	 .loc 1 516 0
 356 002c FB68     	 ldr r3,[r7,#12]
 357 002e 07E0     	 b .L24
 358              	.L26:
 513:C:/Users/Yushev/git/wpcqi-optiga-trust-charge/optiga/externals/mbedtls/library\ecp.c ****     {
 359              	 .loc 1 513 0
 360 0030 FB68     	 ldr r3,[r7,#12]
 361 0032 0C33     	 adds r3,r3,#12
 362 0034 FB60     	 str r3,[r7,#12]
 363              	.L25:
 512:C:/Users/Yushev/git/wpcqi-optiga-trust-charge/optiga/externals/mbedtls/library\ecp.c ****          curve_info->grp_id != MBEDTLS_ECP_DP_NONE;
 364              	 .loc 1 512 0 discriminator 1
 365 0036 FB68     	 ldr r3,[r7,#12]
 366 0038 1B78     	 ldrb r3,[r3]
 511:C:/Users/Yushev/git/wpcqi-optiga-trust-charge/optiga/externals/mbedtls/library\ecp.c ****          curve_info->grp_id != MBEDTLS_ECP_DP_NONE;
 367              	 .loc 1 511 0 discriminator 1
 368 003a 002B     	 cmp r3,#0
 369 003c EDD1     	 bne .L27
 517:C:/Users/Yushev/git/wpcqi-optiga-trust-charge/optiga/externals/mbedtls/library\ecp.c ****     }
 518:C:/Users/Yushev/git/wpcqi-optiga-trust-charge/optiga/externals/mbedtls/library\ecp.c **** 
 519:C:/Users/Yushev/git/wpcqi-optiga-trust-charge/optiga/externals/mbedtls/library\ecp.c ****     return( NULL );
 370              	 .loc 1 519 0
 371 003e 0023     	 movs r3,#0
 372              	.L24:
 520:C:/Users/Yushev/git/wpcqi-optiga-trust-charge/optiga/externals/mbedtls/library\ecp.c **** }
 373              	 .loc 1 520 0
 374 0040 1846     	 mov r0,r3
 375 0042 1037     	 adds r7,r7,#16
 376              	.LCFI22:
 377              	 .cfi_def_cfa_offset 8
 378 0044 BD46     	 mov sp,r7
 379              	.LCFI23:
 380              	 .cfi_def_cfa_register 13
 381              	 
 382 0046 80BD     	 pop {r7,pc}
 383              	 .cfi_endproc
 384              	.LFE4:
 386              	 .section .text.ecp_get_type,"ax",%progbits
 387              	 .align 2
 388              	 .thumb
 389              	 .thumb_func
 391              	ecp_get_type:
 392              	.LFB5:
 521:C:/Users/Yushev/git/wpcqi-optiga-trust-charge/optiga/externals/mbedtls/library\ecp.c **** 
 522:C:/Users/Yushev/git/wpcqi-optiga-trust-charge/optiga/externals/mbedtls/library\ecp.c **** /*
 523:C:/Users/Yushev/git/wpcqi-optiga-trust-charge/optiga/externals/mbedtls/library\ecp.c ****  * Get the type of a curve
 524:C:/Users/Yushev/git/wpcqi-optiga-trust-charge/optiga/externals/mbedtls/library\ecp.c ****  */
 525:C:/Users/Yushev/git/wpcqi-optiga-trust-charge/optiga/externals/mbedtls/library\ecp.c **** static inline ecp_curve_type ecp_get_type( const mbedtls_ecp_group *grp )
 526:C:/Users/Yushev/git/wpcqi-optiga-trust-charge/optiga/externals/mbedtls/library\ecp.c **** {
 393              	 .loc 1 526 0
 394              	 .cfi_startproc
 395              	 
 396              	 
 397              	 
 398 0000 80B4     	 push {r7}
 399              	.LCFI24:
 400              	 .cfi_def_cfa_offset 4
 401              	 .cfi_offset 7,-4
 402 0002 83B0     	 sub sp,sp,#12
 403              	.LCFI25:
 404              	 .cfi_def_cfa_offset 16
 405 0004 00AF     	 add r7,sp,#0
 406              	.LCFI26:
 407              	 .cfi_def_cfa_register 7
 408 0006 7860     	 str r0,[r7,#4]
 527:C:/Users/Yushev/git/wpcqi-optiga-trust-charge/optiga/externals/mbedtls/library\ecp.c ****     if( grp->G.X.p == NULL )
 409              	 .loc 1 527 0
 410 0008 7B68     	 ldr r3,[r7,#4]
 411 000a 1B6B     	 ldr r3,[r3,#48]
 412 000c 002B     	 cmp r3,#0
 413 000e 01D1     	 bne .L29
 528:C:/Users/Yushev/git/wpcqi-optiga-trust-charge/optiga/externals/mbedtls/library\ecp.c ****         return( ECP_TYPE_NONE );
 414              	 .loc 1 528 0
 415 0010 0023     	 movs r3,#0
 416 0012 06E0     	 b .L30
 417              	.L29:
 529:C:/Users/Yushev/git/wpcqi-optiga-trust-charge/optiga/externals/mbedtls/library\ecp.c **** 
 530:C:/Users/Yushev/git/wpcqi-optiga-trust-charge/optiga/externals/mbedtls/library\ecp.c ****     if( grp->G.Y.p == NULL )
 418              	 .loc 1 530 0
 419 0014 7B68     	 ldr r3,[r7,#4]
 420 0016 DB6B     	 ldr r3,[r3,#60]
 421 0018 002B     	 cmp r3,#0
 422 001a 01D1     	 bne .L31
 531:C:/Users/Yushev/git/wpcqi-optiga-trust-charge/optiga/externals/mbedtls/library\ecp.c ****         return( ECP_TYPE_MONTGOMERY );
 423              	 .loc 1 531 0
 424 001c 0223     	 movs r3,#2
 425 001e 00E0     	 b .L30
 426              	.L31:
 532:C:/Users/Yushev/git/wpcqi-optiga-trust-charge/optiga/externals/mbedtls/library\ecp.c ****     else
 533:C:/Users/Yushev/git/wpcqi-optiga-trust-charge/optiga/externals/mbedtls/library\ecp.c ****         return( ECP_TYPE_SHORT_WEIERSTRASS );
 427              	 .loc 1 533 0
 428 0020 0123     	 movs r3,#1
 429              	.L30:
 534:C:/Users/Yushev/git/wpcqi-optiga-trust-charge/optiga/externals/mbedtls/library\ecp.c **** }
 430              	 .loc 1 534 0
 431 0022 1846     	 mov r0,r3
 432 0024 0C37     	 adds r7,r7,#12
 433              	.LCFI27:
 434              	 .cfi_def_cfa_offset 4
 435 0026 BD46     	 mov sp,r7
 436              	.LCFI28:
 437              	 .cfi_def_cfa_register 13
 438              	 
 439 0028 5DF8047B 	 ldr r7,[sp],#4
 440              	.LCFI29:
 441              	 .cfi_restore 7
 442              	 .cfi_def_cfa_offset 0
 443 002c 7047     	 bx lr
 444              	 .cfi_endproc
 445              	.LFE5:
 447 002e 00BF     	 .section .text.mbedtls_ecp_point_init,"ax",%progbits
 448              	 .align 2
 449              	 .global mbedtls_ecp_point_init
 450              	 .thumb
 451              	 .thumb_func
 453              	mbedtls_ecp_point_init:
 454              	.LFB6:
 535:C:/Users/Yushev/git/wpcqi-optiga-trust-charge/optiga/externals/mbedtls/library\ecp.c **** 
 536:C:/Users/Yushev/git/wpcqi-optiga-trust-charge/optiga/externals/mbedtls/library\ecp.c **** /*
 537:C:/Users/Yushev/git/wpcqi-optiga-trust-charge/optiga/externals/mbedtls/library\ecp.c ****  * Initialize (the components of) a point
 538:C:/Users/Yushev/git/wpcqi-optiga-trust-charge/optiga/externals/mbedtls/library\ecp.c ****  */
 539:C:/Users/Yushev/git/wpcqi-optiga-trust-charge/optiga/externals/mbedtls/library\ecp.c **** void mbedtls_ecp_point_init( mbedtls_ecp_point *pt )
 540:C:/Users/Yushev/git/wpcqi-optiga-trust-charge/optiga/externals/mbedtls/library\ecp.c **** {
 455              	 .loc 1 540 0
 456              	 .cfi_startproc
 457              	 
 458              	 
 459 0000 80B5     	 push {r7,lr}
 460              	.LCFI30:
 461              	 .cfi_def_cfa_offset 8
 462              	 .cfi_offset 7,-8
 463              	 .cfi_offset 14,-4
 464 0002 82B0     	 sub sp,sp,#8
 465              	.LCFI31:
 466              	 .cfi_def_cfa_offset 16
 467 0004 00AF     	 add r7,sp,#0
 468              	.LCFI32:
 469              	 .cfi_def_cfa_register 7
 470 0006 7860     	 str r0,[r7,#4]
 541:C:/Users/Yushev/git/wpcqi-optiga-trust-charge/optiga/externals/mbedtls/library\ecp.c ****     ECP_VALIDATE( pt != NULL );
 542:C:/Users/Yushev/git/wpcqi-optiga-trust-charge/optiga/externals/mbedtls/library\ecp.c **** 
 543:C:/Users/Yushev/git/wpcqi-optiga-trust-charge/optiga/externals/mbedtls/library\ecp.c ****     mbedtls_mpi_init( &pt->X );
 471              	 .loc 1 543 0
 472 0008 7B68     	 ldr r3,[r7,#4]
 473 000a 1846     	 mov r0,r3
 474 000c FFF7FEFF 	 bl mbedtls_mpi_init
 544:C:/Users/Yushev/git/wpcqi-optiga-trust-charge/optiga/externals/mbedtls/library\ecp.c ****     mbedtls_mpi_init( &pt->Y );
 475              	 .loc 1 544 0
 476 0010 7B68     	 ldr r3,[r7,#4]
 477 0012 0C33     	 adds r3,r3,#12
 478 0014 1846     	 mov r0,r3
 479 0016 FFF7FEFF 	 bl mbedtls_mpi_init
 545:C:/Users/Yushev/git/wpcqi-optiga-trust-charge/optiga/externals/mbedtls/library\ecp.c ****     mbedtls_mpi_init( &pt->Z );
 480              	 .loc 1 545 0
 481 001a 7B68     	 ldr r3,[r7,#4]
 482 001c 1833     	 adds r3,r3,#24
 483 001e 1846     	 mov r0,r3
 484 0020 FFF7FEFF 	 bl mbedtls_mpi_init
 546:C:/Users/Yushev/git/wpcqi-optiga-trust-charge/optiga/externals/mbedtls/library\ecp.c **** }
 485              	 .loc 1 546 0
 486 0024 0837     	 adds r7,r7,#8
 487              	.LCFI33:
 488              	 .cfi_def_cfa_offset 8
 489 0026 BD46     	 mov sp,r7
 490              	.LCFI34:
 491              	 .cfi_def_cfa_register 13
 492              	 
 493 0028 80BD     	 pop {r7,pc}
 494              	 .cfi_endproc
 495              	.LFE6:
 497 002a 00BF     	 .section .text.mbedtls_ecp_group_init,"ax",%progbits
 498              	 .align 2
 499              	 .global mbedtls_ecp_group_init
 500              	 .thumb
 501              	 .thumb_func
 503              	mbedtls_ecp_group_init:
 504              	.LFB7:
 547:C:/Users/Yushev/git/wpcqi-optiga-trust-charge/optiga/externals/mbedtls/library\ecp.c **** 
 548:C:/Users/Yushev/git/wpcqi-optiga-trust-charge/optiga/externals/mbedtls/library\ecp.c **** /*
 549:C:/Users/Yushev/git/wpcqi-optiga-trust-charge/optiga/externals/mbedtls/library\ecp.c ****  * Initialize (the components of) a group
 550:C:/Users/Yushev/git/wpcqi-optiga-trust-charge/optiga/externals/mbedtls/library\ecp.c ****  */
 551:C:/Users/Yushev/git/wpcqi-optiga-trust-charge/optiga/externals/mbedtls/library\ecp.c **** void mbedtls_ecp_group_init( mbedtls_ecp_group *grp )
 552:C:/Users/Yushev/git/wpcqi-optiga-trust-charge/optiga/externals/mbedtls/library\ecp.c **** {
 505              	 .loc 1 552 0
 506              	 .cfi_startproc
 507              	 
 508              	 
 509 0000 80B5     	 push {r7,lr}
 510              	.LCFI35:
 511              	 .cfi_def_cfa_offset 8
 512              	 .cfi_offset 7,-8
 513              	 .cfi_offset 14,-4
 514 0002 82B0     	 sub sp,sp,#8
 515              	.LCFI36:
 516              	 .cfi_def_cfa_offset 16
 517 0004 00AF     	 add r7,sp,#0
 518              	.LCFI37:
 519              	 .cfi_def_cfa_register 7
 520 0006 7860     	 str r0,[r7,#4]
 553:C:/Users/Yushev/git/wpcqi-optiga-trust-charge/optiga/externals/mbedtls/library\ecp.c ****     ECP_VALIDATE( grp != NULL );
 554:C:/Users/Yushev/git/wpcqi-optiga-trust-charge/optiga/externals/mbedtls/library\ecp.c **** 
 555:C:/Users/Yushev/git/wpcqi-optiga-trust-charge/optiga/externals/mbedtls/library\ecp.c ****     grp->id = MBEDTLS_ECP_DP_NONE;
 521              	 .loc 1 555 0
 522 0008 7B68     	 ldr r3,[r7,#4]
 523 000a 0022     	 movs r2,#0
 524 000c 1A70     	 strb r2,[r3]
 556:C:/Users/Yushev/git/wpcqi-optiga-trust-charge/optiga/externals/mbedtls/library\ecp.c ****     mbedtls_mpi_init( &grp->P );
 525              	 .loc 1 556 0
 526 000e 7B68     	 ldr r3,[r7,#4]
 527 0010 0433     	 adds r3,r3,#4
 528 0012 1846     	 mov r0,r3
 529 0014 FFF7FEFF 	 bl mbedtls_mpi_init
 557:C:/Users/Yushev/git/wpcqi-optiga-trust-charge/optiga/externals/mbedtls/library\ecp.c ****     mbedtls_mpi_init( &grp->A );
 530              	 .loc 1 557 0
 531 0018 7B68     	 ldr r3,[r7,#4]
 532 001a 1033     	 adds r3,r3,#16
 533 001c 1846     	 mov r0,r3
 534 001e FFF7FEFF 	 bl mbedtls_mpi_init
 558:C:/Users/Yushev/git/wpcqi-optiga-trust-charge/optiga/externals/mbedtls/library\ecp.c ****     mbedtls_mpi_init( &grp->B );
 535              	 .loc 1 558 0
 536 0022 7B68     	 ldr r3,[r7,#4]
 537 0024 1C33     	 adds r3,r3,#28
 538 0026 1846     	 mov r0,r3
 539 0028 FFF7FEFF 	 bl mbedtls_mpi_init
 559:C:/Users/Yushev/git/wpcqi-optiga-trust-charge/optiga/externals/mbedtls/library\ecp.c ****     mbedtls_ecp_point_init( &grp->G );
 540              	 .loc 1 559 0
 541 002c 7B68     	 ldr r3,[r7,#4]
 542 002e 2833     	 adds r3,r3,#40
 543 0030 1846     	 mov r0,r3
 544 0032 FFF7FEFF 	 bl mbedtls_ecp_point_init
 560:C:/Users/Yushev/git/wpcqi-optiga-trust-charge/optiga/externals/mbedtls/library\ecp.c ****     mbedtls_mpi_init( &grp->N );
 545              	 .loc 1 560 0
 546 0036 7B68     	 ldr r3,[r7,#4]
 547 0038 4C33     	 adds r3,r3,#76
 548 003a 1846     	 mov r0,r3
 549 003c FFF7FEFF 	 bl mbedtls_mpi_init
 561:C:/Users/Yushev/git/wpcqi-optiga-trust-charge/optiga/externals/mbedtls/library\ecp.c ****     grp->pbits = 0;
 550              	 .loc 1 561 0
 551 0040 7B68     	 ldr r3,[r7,#4]
 552 0042 0022     	 movs r2,#0
 553 0044 9A65     	 str r2,[r3,#88]
 562:C:/Users/Yushev/git/wpcqi-optiga-trust-charge/optiga/externals/mbedtls/library\ecp.c ****     grp->nbits = 0;
 554              	 .loc 1 562 0
 555 0046 7B68     	 ldr r3,[r7,#4]
 556 0048 0022     	 movs r2,#0
 557 004a DA65     	 str r2,[r3,#92]
 563:C:/Users/Yushev/git/wpcqi-optiga-trust-charge/optiga/externals/mbedtls/library\ecp.c ****     grp->h = 0;
 558              	 .loc 1 563 0
 559 004c 7B68     	 ldr r3,[r7,#4]
 560 004e 0022     	 movs r2,#0
 561 0050 1A66     	 str r2,[r3,#96]
 564:C:/Users/Yushev/git/wpcqi-optiga-trust-charge/optiga/externals/mbedtls/library\ecp.c ****     grp->modp = NULL;
 562              	 .loc 1 564 0
 563 0052 7B68     	 ldr r3,[r7,#4]
 564 0054 0022     	 movs r2,#0
 565 0056 5A66     	 str r2,[r3,#100]
 565:C:/Users/Yushev/git/wpcqi-optiga-trust-charge/optiga/externals/mbedtls/library\ecp.c ****     grp->t_pre = NULL;
 566              	 .loc 1 565 0
 567 0058 7B68     	 ldr r3,[r7,#4]
 568 005a 0022     	 movs r2,#0
 569 005c 9A66     	 str r2,[r3,#104]
 566:C:/Users/Yushev/git/wpcqi-optiga-trust-charge/optiga/externals/mbedtls/library\ecp.c ****     grp->t_post = NULL;
 570              	 .loc 1 566 0
 571 005e 7B68     	 ldr r3,[r7,#4]
 572 0060 0022     	 movs r2,#0
 573 0062 DA66     	 str r2,[r3,#108]
 567:C:/Users/Yushev/git/wpcqi-optiga-trust-charge/optiga/externals/mbedtls/library\ecp.c ****     grp->t_data = NULL;
 574              	 .loc 1 567 0
 575 0064 7B68     	 ldr r3,[r7,#4]
 576 0066 0022     	 movs r2,#0
 577 0068 1A67     	 str r2,[r3,#112]
 568:C:/Users/Yushev/git/wpcqi-optiga-trust-charge/optiga/externals/mbedtls/library\ecp.c ****     grp->T = NULL;
 578              	 .loc 1 568 0
 579 006a 7B68     	 ldr r3,[r7,#4]
 580 006c 0022     	 movs r2,#0
 581 006e 5A67     	 str r2,[r3,#116]
 569:C:/Users/Yushev/git/wpcqi-optiga-trust-charge/optiga/externals/mbedtls/library\ecp.c ****     grp->T_size = 0;
 582              	 .loc 1 569 0
 583 0070 7B68     	 ldr r3,[r7,#4]
 584 0072 0022     	 movs r2,#0
 585 0074 9A67     	 str r2,[r3,#120]
 570:C:/Users/Yushev/git/wpcqi-optiga-trust-charge/optiga/externals/mbedtls/library\ecp.c **** }
 586              	 .loc 1 570 0
 587 0076 0837     	 adds r7,r7,#8
 588              	.LCFI38:
 589              	 .cfi_def_cfa_offset 8
 590 0078 BD46     	 mov sp,r7
 591              	.LCFI39:
 592              	 .cfi_def_cfa_register 13
 593              	 
 594 007a 80BD     	 pop {r7,pc}
 595              	 .cfi_endproc
 596              	.LFE7:
 598              	 .section .text.mbedtls_ecp_keypair_init,"ax",%progbits
 599              	 .align 2
 600              	 .global mbedtls_ecp_keypair_init
 601              	 .thumb
 602              	 .thumb_func
 604              	mbedtls_ecp_keypair_init:
 605              	.LFB8:
 571:C:/Users/Yushev/git/wpcqi-optiga-trust-charge/optiga/externals/mbedtls/library\ecp.c **** 
 572:C:/Users/Yushev/git/wpcqi-optiga-trust-charge/optiga/externals/mbedtls/library\ecp.c **** /*
 573:C:/Users/Yushev/git/wpcqi-optiga-trust-charge/optiga/externals/mbedtls/library\ecp.c ****  * Initialize (the components of) a key pair
 574:C:/Users/Yushev/git/wpcqi-optiga-trust-charge/optiga/externals/mbedtls/library\ecp.c ****  */
 575:C:/Users/Yushev/git/wpcqi-optiga-trust-charge/optiga/externals/mbedtls/library\ecp.c **** void mbedtls_ecp_keypair_init( mbedtls_ecp_keypair *key )
 576:C:/Users/Yushev/git/wpcqi-optiga-trust-charge/optiga/externals/mbedtls/library\ecp.c **** {
 606              	 .loc 1 576 0
 607              	 .cfi_startproc
 608              	 
 609              	 
 610 0000 80B5     	 push {r7,lr}
 611              	.LCFI40:
 612              	 .cfi_def_cfa_offset 8
 613              	 .cfi_offset 7,-8
 614              	 .cfi_offset 14,-4
 615 0002 82B0     	 sub sp,sp,#8
 616              	.LCFI41:
 617              	 .cfi_def_cfa_offset 16
 618 0004 00AF     	 add r7,sp,#0
 619              	.LCFI42:
 620              	 .cfi_def_cfa_register 7
 621 0006 7860     	 str r0,[r7,#4]
 577:C:/Users/Yushev/git/wpcqi-optiga-trust-charge/optiga/externals/mbedtls/library\ecp.c ****     ECP_VALIDATE( key != NULL );
 578:C:/Users/Yushev/git/wpcqi-optiga-trust-charge/optiga/externals/mbedtls/library\ecp.c **** 
 579:C:/Users/Yushev/git/wpcqi-optiga-trust-charge/optiga/externals/mbedtls/library\ecp.c ****     mbedtls_ecp_group_init( &key->grp );
 622              	 .loc 1 579 0
 623 0008 7B68     	 ldr r3,[r7,#4]
 624 000a 1846     	 mov r0,r3
 625 000c FFF7FEFF 	 bl mbedtls_ecp_group_init
 580:C:/Users/Yushev/git/wpcqi-optiga-trust-charge/optiga/externals/mbedtls/library\ecp.c ****     mbedtls_mpi_init( &key->d );
 626              	 .loc 1 580 0
 627 0010 7B68     	 ldr r3,[r7,#4]
 628 0012 7C33     	 adds r3,r3,#124
 629 0014 1846     	 mov r0,r3
 630 0016 FFF7FEFF 	 bl mbedtls_mpi_init
 581:C:/Users/Yushev/git/wpcqi-optiga-trust-charge/optiga/externals/mbedtls/library\ecp.c ****     mbedtls_ecp_point_init( &key->Q );
 631              	 .loc 1 581 0
 632 001a 7B68     	 ldr r3,[r7,#4]
 633 001c 8833     	 adds r3,r3,#136
 634 001e 1846     	 mov r0,r3
 635 0020 FFF7FEFF 	 bl mbedtls_ecp_point_init
 582:C:/Users/Yushev/git/wpcqi-optiga-trust-charge/optiga/externals/mbedtls/library\ecp.c **** }
 636              	 .loc 1 582 0
 637 0024 0837     	 adds r7,r7,#8
 638              	.LCFI43:
 639              	 .cfi_def_cfa_offset 8
 640 0026 BD46     	 mov sp,r7
 641              	.LCFI44:
 642              	 .cfi_def_cfa_register 13
 643              	 
 644 0028 80BD     	 pop {r7,pc}
 645              	 .cfi_endproc
 646              	.LFE8:
 648 002a 00BF     	 .section .text.mbedtls_ecp_point_free,"ax",%progbits
 649              	 .align 2
 650              	 .global mbedtls_ecp_point_free
 651              	 .thumb
 652              	 .thumb_func
 654              	mbedtls_ecp_point_free:
 655              	.LFB9:
 583:C:/Users/Yushev/git/wpcqi-optiga-trust-charge/optiga/externals/mbedtls/library\ecp.c **** 
 584:C:/Users/Yushev/git/wpcqi-optiga-trust-charge/optiga/externals/mbedtls/library\ecp.c **** /*
 585:C:/Users/Yushev/git/wpcqi-optiga-trust-charge/optiga/externals/mbedtls/library\ecp.c ****  * Unallocate (the components of) a point
 586:C:/Users/Yushev/git/wpcqi-optiga-trust-charge/optiga/externals/mbedtls/library\ecp.c ****  */
 587:C:/Users/Yushev/git/wpcqi-optiga-trust-charge/optiga/externals/mbedtls/library\ecp.c **** void mbedtls_ecp_point_free( mbedtls_ecp_point *pt )
 588:C:/Users/Yushev/git/wpcqi-optiga-trust-charge/optiga/externals/mbedtls/library\ecp.c **** {
 656              	 .loc 1 588 0
 657              	 .cfi_startproc
 658              	 
 659              	 
 660 0000 80B5     	 push {r7,lr}
 661              	.LCFI45:
 662              	 .cfi_def_cfa_offset 8
 663              	 .cfi_offset 7,-8
 664              	 .cfi_offset 14,-4
 665 0002 82B0     	 sub sp,sp,#8
 666              	.LCFI46:
 667              	 .cfi_def_cfa_offset 16
 668 0004 00AF     	 add r7,sp,#0
 669              	.LCFI47:
 670              	 .cfi_def_cfa_register 7
 671 0006 7860     	 str r0,[r7,#4]
 589:C:/Users/Yushev/git/wpcqi-optiga-trust-charge/optiga/externals/mbedtls/library\ecp.c ****     if( pt == NULL )
 672              	 .loc 1 589 0
 673 0008 7B68     	 ldr r3,[r7,#4]
 674 000a 002B     	 cmp r3,#0
 675 000c 00D1     	 bne .L36
 590:C:/Users/Yushev/git/wpcqi-optiga-trust-charge/optiga/externals/mbedtls/library\ecp.c ****         return;
 676              	 .loc 1 590 0
 677 000e 0DE0     	 b .L35
 678              	.L36:
 591:C:/Users/Yushev/git/wpcqi-optiga-trust-charge/optiga/externals/mbedtls/library\ecp.c **** 
 592:C:/Users/Yushev/git/wpcqi-optiga-trust-charge/optiga/externals/mbedtls/library\ecp.c ****     mbedtls_mpi_free( &( pt->X ) );
 679              	 .loc 1 592 0
 680 0010 7B68     	 ldr r3,[r7,#4]
 681 0012 1846     	 mov r0,r3
 682 0014 FFF7FEFF 	 bl mbedtls_mpi_free
 593:C:/Users/Yushev/git/wpcqi-optiga-trust-charge/optiga/externals/mbedtls/library\ecp.c ****     mbedtls_mpi_free( &( pt->Y ) );
 683              	 .loc 1 593 0
 684 0018 7B68     	 ldr r3,[r7,#4]
 685 001a 0C33     	 adds r3,r3,#12
 686 001c 1846     	 mov r0,r3
 687 001e FFF7FEFF 	 bl mbedtls_mpi_free
 594:C:/Users/Yushev/git/wpcqi-optiga-trust-charge/optiga/externals/mbedtls/library\ecp.c ****     mbedtls_mpi_free( &( pt->Z ) );
 688              	 .loc 1 594 0
 689 0022 7B68     	 ldr r3,[r7,#4]
 690 0024 1833     	 adds r3,r3,#24
 691 0026 1846     	 mov r0,r3
 692 0028 FFF7FEFF 	 bl mbedtls_mpi_free
 693              	.L35:
 595:C:/Users/Yushev/git/wpcqi-optiga-trust-charge/optiga/externals/mbedtls/library\ecp.c **** }
 694              	 .loc 1 595 0
 695 002c 0837     	 adds r7,r7,#8
 696              	.LCFI48:
 697              	 .cfi_def_cfa_offset 8
 698 002e BD46     	 mov sp,r7
 699              	.LCFI49:
 700              	 .cfi_def_cfa_register 13
 701              	 
 702 0030 80BD     	 pop {r7,pc}
 703              	 .cfi_endproc
 704              	.LFE9:
 706 0032 00BF     	 .section .text.mbedtls_ecp_group_free,"ax",%progbits
 707              	 .align 2
 708              	 .global mbedtls_ecp_group_free
 709              	 .thumb
 710              	 .thumb_func
 712              	mbedtls_ecp_group_free:
 713              	.LFB10:
 596:C:/Users/Yushev/git/wpcqi-optiga-trust-charge/optiga/externals/mbedtls/library\ecp.c **** 
 597:C:/Users/Yushev/git/wpcqi-optiga-trust-charge/optiga/externals/mbedtls/library\ecp.c **** /*
 598:C:/Users/Yushev/git/wpcqi-optiga-trust-charge/optiga/externals/mbedtls/library\ecp.c ****  * Unallocate (the components of) a group
 599:C:/Users/Yushev/git/wpcqi-optiga-trust-charge/optiga/externals/mbedtls/library\ecp.c ****  */
 600:C:/Users/Yushev/git/wpcqi-optiga-trust-charge/optiga/externals/mbedtls/library\ecp.c **** void mbedtls_ecp_group_free( mbedtls_ecp_group *grp )
 601:C:/Users/Yushev/git/wpcqi-optiga-trust-charge/optiga/externals/mbedtls/library\ecp.c **** {
 714              	 .loc 1 601 0
 715              	 .cfi_startproc
 716              	 
 717              	 
 718 0000 80B5     	 push {r7,lr}
 719              	.LCFI50:
 720              	 .cfi_def_cfa_offset 8
 721              	 .cfi_offset 7,-8
 722              	 .cfi_offset 14,-4
 723 0002 84B0     	 sub sp,sp,#16
 724              	.LCFI51:
 725              	 .cfi_def_cfa_offset 24
 726 0004 00AF     	 add r7,sp,#0
 727              	.LCFI52:
 728              	 .cfi_def_cfa_register 7
 729 0006 7860     	 str r0,[r7,#4]
 602:C:/Users/Yushev/git/wpcqi-optiga-trust-charge/optiga/externals/mbedtls/library\ecp.c ****     size_t i;
 603:C:/Users/Yushev/git/wpcqi-optiga-trust-charge/optiga/externals/mbedtls/library\ecp.c **** 
 604:C:/Users/Yushev/git/wpcqi-optiga-trust-charge/optiga/externals/mbedtls/library\ecp.c ****     if( grp == NULL )
 730              	 .loc 1 604 0
 731 0008 7B68     	 ldr r3,[r7,#4]
 732 000a 002B     	 cmp r3,#0
 733 000c 00D1     	 bne .L39
 605:C:/Users/Yushev/git/wpcqi-optiga-trust-charge/optiga/externals/mbedtls/library\ecp.c ****         return;
 734              	 .loc 1 605 0
 735 000e 3FE0     	 b .L38
 736              	.L39:
 606:C:/Users/Yushev/git/wpcqi-optiga-trust-charge/optiga/externals/mbedtls/library\ecp.c **** 
 607:C:/Users/Yushev/git/wpcqi-optiga-trust-charge/optiga/externals/mbedtls/library\ecp.c ****     if( grp->h != 1 )
 737              	 .loc 1 607 0
 738 0010 7B68     	 ldr r3,[r7,#4]
 739 0012 1B6E     	 ldr r3,[r3,#96]
 740 0014 012B     	 cmp r3,#1
 741 0016 18D0     	 beq .L41
 608:C:/Users/Yushev/git/wpcqi-optiga-trust-charge/optiga/externals/mbedtls/library\ecp.c ****     {
 609:C:/Users/Yushev/git/wpcqi-optiga-trust-charge/optiga/externals/mbedtls/library\ecp.c ****         mbedtls_mpi_free( &grp->P );
 742              	 .loc 1 609 0
 743 0018 7B68     	 ldr r3,[r7,#4]
 744 001a 0433     	 adds r3,r3,#4
 745 001c 1846     	 mov r0,r3
 746 001e FFF7FEFF 	 bl mbedtls_mpi_free
 610:C:/Users/Yushev/git/wpcqi-optiga-trust-charge/optiga/externals/mbedtls/library\ecp.c ****         mbedtls_mpi_free( &grp->A );
 747              	 .loc 1 610 0
 748 0022 7B68     	 ldr r3,[r7,#4]
 749 0024 1033     	 adds r3,r3,#16
 750 0026 1846     	 mov r0,r3
 751 0028 FFF7FEFF 	 bl mbedtls_mpi_free
 611:C:/Users/Yushev/git/wpcqi-optiga-trust-charge/optiga/externals/mbedtls/library\ecp.c ****         mbedtls_mpi_free( &grp->B );
 752              	 .loc 1 611 0
 753 002c 7B68     	 ldr r3,[r7,#4]
 754 002e 1C33     	 adds r3,r3,#28
 755 0030 1846     	 mov r0,r3
 756 0032 FFF7FEFF 	 bl mbedtls_mpi_free
 612:C:/Users/Yushev/git/wpcqi-optiga-trust-charge/optiga/externals/mbedtls/library\ecp.c ****         mbedtls_ecp_point_free( &grp->G );
 757              	 .loc 1 612 0
 758 0036 7B68     	 ldr r3,[r7,#4]
 759 0038 2833     	 adds r3,r3,#40
 760 003a 1846     	 mov r0,r3
 761 003c FFF7FEFF 	 bl mbedtls_ecp_point_free
 613:C:/Users/Yushev/git/wpcqi-optiga-trust-charge/optiga/externals/mbedtls/library\ecp.c ****         mbedtls_mpi_free( &grp->N );
 762              	 .loc 1 613 0
 763 0040 7B68     	 ldr r3,[r7,#4]
 764 0042 4C33     	 adds r3,r3,#76
 765 0044 1846     	 mov r0,r3
 766 0046 FFF7FEFF 	 bl mbedtls_mpi_free
 767              	.L41:
 614:C:/Users/Yushev/git/wpcqi-optiga-trust-charge/optiga/externals/mbedtls/library\ecp.c ****     }
 615:C:/Users/Yushev/git/wpcqi-optiga-trust-charge/optiga/externals/mbedtls/library\ecp.c **** 
 616:C:/Users/Yushev/git/wpcqi-optiga-trust-charge/optiga/externals/mbedtls/library\ecp.c ****     if( grp->T != NULL )
 768              	 .loc 1 616 0
 769 004a 7B68     	 ldr r3,[r7,#4]
 770 004c 5B6F     	 ldr r3,[r3,#116]
 771 004e 002B     	 cmp r3,#0
 772 0050 1AD0     	 beq .L42
 617:C:/Users/Yushev/git/wpcqi-optiga-trust-charge/optiga/externals/mbedtls/library\ecp.c ****     {
 618:C:/Users/Yushev/git/wpcqi-optiga-trust-charge/optiga/externals/mbedtls/library\ecp.c ****         for( i = 0; i < grp->T_size; i++ )
 773              	 .loc 1 618 0
 774 0052 0023     	 movs r3,#0
 775 0054 FB60     	 str r3,[r7,#12]
 776 0056 0DE0     	 b .L43
 777              	.L44:
 619:C:/Users/Yushev/git/wpcqi-optiga-trust-charge/optiga/externals/mbedtls/library\ecp.c ****             mbedtls_ecp_point_free( &grp->T[i] );
 778              	 .loc 1 619 0 discriminator 3
 779 0058 7B68     	 ldr r3,[r7,#4]
 780 005a 596F     	 ldr r1,[r3,#116]
 781 005c FA68     	 ldr r2,[r7,#12]
 782 005e 1346     	 mov r3,r2
 783 0060 DB00     	 lsls r3,r3,#3
 784 0062 1344     	 add r3,r3,r2
 785 0064 9B00     	 lsls r3,r3,#2
 786 0066 0B44     	 add r3,r3,r1
 787 0068 1846     	 mov r0,r3
 788 006a FFF7FEFF 	 bl mbedtls_ecp_point_free
 618:C:/Users/Yushev/git/wpcqi-optiga-trust-charge/optiga/externals/mbedtls/library\ecp.c ****             mbedtls_ecp_point_free( &grp->T[i] );
 789              	 .loc 1 618 0 discriminator 3
 790 006e FB68     	 ldr r3,[r7,#12]
 791 0070 0133     	 adds r3,r3,#1
 792 0072 FB60     	 str r3,[r7,#12]
 793              	.L43:
 618:C:/Users/Yushev/git/wpcqi-optiga-trust-charge/optiga/externals/mbedtls/library\ecp.c ****             mbedtls_ecp_point_free( &grp->T[i] );
 794              	 .loc 1 618 0 is_stmt 0 discriminator 1
 795 0074 7B68     	 ldr r3,[r7,#4]
 796 0076 9A6F     	 ldr r2,[r3,#120]
 797 0078 FB68     	 ldr r3,[r7,#12]
 798 007a 9A42     	 cmp r2,r3
 799 007c ECD8     	 bhi .L44
 620:C:/Users/Yushev/git/wpcqi-optiga-trust-charge/optiga/externals/mbedtls/library\ecp.c ****         mbedtls_free( grp->T );
 800              	 .loc 1 620 0 is_stmt 1
 801 007e 7B68     	 ldr r3,[r7,#4]
 802 0080 5B6F     	 ldr r3,[r3,#116]
 803 0082 1846     	 mov r0,r3
 804 0084 FFF7FEFF 	 bl free
 805              	.L42:
 621:C:/Users/Yushev/git/wpcqi-optiga-trust-charge/optiga/externals/mbedtls/library\ecp.c ****     }
 622:C:/Users/Yushev/git/wpcqi-optiga-trust-charge/optiga/externals/mbedtls/library\ecp.c **** 
 623:C:/Users/Yushev/git/wpcqi-optiga-trust-charge/optiga/externals/mbedtls/library\ecp.c ****     mbedtls_platform_zeroize( grp, sizeof( mbedtls_ecp_group ) );
 806              	 .loc 1 623 0
 807 0088 7868     	 ldr r0,[r7,#4]
 808 008a 7C21     	 movs r1,#124
 809 008c FFF7FEFF 	 bl mbedtls_platform_zeroize
 810              	.L38:
 624:C:/Users/Yushev/git/wpcqi-optiga-trust-charge/optiga/externals/mbedtls/library\ecp.c **** }
 811              	 .loc 1 624 0
 812 0090 1037     	 adds r7,r7,#16
 813              	.LCFI53:
 814              	 .cfi_def_cfa_offset 8
 815 0092 BD46     	 mov sp,r7
 816              	.LCFI54:
 817              	 .cfi_def_cfa_register 13
 818              	 
 819 0094 80BD     	 pop {r7,pc}
 820              	 .cfi_endproc
 821              	.LFE10:
 823 0096 00BF     	 .section .text.mbedtls_ecp_keypair_free,"ax",%progbits
 824              	 .align 2
 825              	 .global mbedtls_ecp_keypair_free
 826              	 .thumb
 827              	 .thumb_func
 829              	mbedtls_ecp_keypair_free:
 830              	.LFB11:
 625:C:/Users/Yushev/git/wpcqi-optiga-trust-charge/optiga/externals/mbedtls/library\ecp.c **** 
 626:C:/Users/Yushev/git/wpcqi-optiga-trust-charge/optiga/externals/mbedtls/library\ecp.c **** /*
 627:C:/Users/Yushev/git/wpcqi-optiga-trust-charge/optiga/externals/mbedtls/library\ecp.c ****  * Unallocate (the components of) a key pair
 628:C:/Users/Yushev/git/wpcqi-optiga-trust-charge/optiga/externals/mbedtls/library\ecp.c ****  */
 629:C:/Users/Yushev/git/wpcqi-optiga-trust-charge/optiga/externals/mbedtls/library\ecp.c **** void mbedtls_ecp_keypair_free( mbedtls_ecp_keypair *key )
 630:C:/Users/Yushev/git/wpcqi-optiga-trust-charge/optiga/externals/mbedtls/library\ecp.c **** {
 831              	 .loc 1 630 0
 832              	 .cfi_startproc
 833              	 
 834              	 
 835 0000 80B5     	 push {r7,lr}
 836              	.LCFI55:
 837              	 .cfi_def_cfa_offset 8
 838              	 .cfi_offset 7,-8
 839              	 .cfi_offset 14,-4
 840 0002 82B0     	 sub sp,sp,#8
 841              	.LCFI56:
 842              	 .cfi_def_cfa_offset 16
 843 0004 00AF     	 add r7,sp,#0
 844              	.LCFI57:
 845              	 .cfi_def_cfa_register 7
 846 0006 7860     	 str r0,[r7,#4]
 631:C:/Users/Yushev/git/wpcqi-optiga-trust-charge/optiga/externals/mbedtls/library\ecp.c ****     if( key == NULL )
 847              	 .loc 1 631 0
 848 0008 7B68     	 ldr r3,[r7,#4]
 849 000a 002B     	 cmp r3,#0
 850 000c 00D1     	 bne .L46
 632:C:/Users/Yushev/git/wpcqi-optiga-trust-charge/optiga/externals/mbedtls/library\ecp.c ****         return;
 851              	 .loc 1 632 0
 852 000e 0DE0     	 b .L45
 853              	.L46:
 633:C:/Users/Yushev/git/wpcqi-optiga-trust-charge/optiga/externals/mbedtls/library\ecp.c **** 
 634:C:/Users/Yushev/git/wpcqi-optiga-trust-charge/optiga/externals/mbedtls/library\ecp.c ****     mbedtls_ecp_group_free( &key->grp );
 854              	 .loc 1 634 0
 855 0010 7B68     	 ldr r3,[r7,#4]
 856 0012 1846     	 mov r0,r3
 857 0014 FFF7FEFF 	 bl mbedtls_ecp_group_free
 635:C:/Users/Yushev/git/wpcqi-optiga-trust-charge/optiga/externals/mbedtls/library\ecp.c ****     mbedtls_mpi_free( &key->d );
 858              	 .loc 1 635 0
 859 0018 7B68     	 ldr r3,[r7,#4]
 860 001a 7C33     	 adds r3,r3,#124
 861 001c 1846     	 mov r0,r3
 862 001e FFF7FEFF 	 bl mbedtls_mpi_free
 636:C:/Users/Yushev/git/wpcqi-optiga-trust-charge/optiga/externals/mbedtls/library\ecp.c ****     mbedtls_ecp_point_free( &key->Q );
 863              	 .loc 1 636 0
 864 0022 7B68     	 ldr r3,[r7,#4]
 865 0024 8833     	 adds r3,r3,#136
 866 0026 1846     	 mov r0,r3
 867 0028 FFF7FEFF 	 bl mbedtls_ecp_point_free
 868              	.L45:
 637:C:/Users/Yushev/git/wpcqi-optiga-trust-charge/optiga/externals/mbedtls/library\ecp.c **** }
 869              	 .loc 1 637 0
 870 002c 0837     	 adds r7,r7,#8
 871              	.LCFI58:
 872              	 .cfi_def_cfa_offset 8
 873 002e BD46     	 mov sp,r7
 874              	.LCFI59:
 875              	 .cfi_def_cfa_register 13
 876              	 
 877 0030 80BD     	 pop {r7,pc}
 878              	 .cfi_endproc
 879              	.LFE11:
 881 0032 00BF     	 .section .text.mbedtls_ecp_copy,"ax",%progbits
 882              	 .align 2
 883              	 .global mbedtls_ecp_copy
 884              	 .thumb
 885              	 .thumb_func
 887              	mbedtls_ecp_copy:
 888              	.LFB12:
 638:C:/Users/Yushev/git/wpcqi-optiga-trust-charge/optiga/externals/mbedtls/library\ecp.c **** 
 639:C:/Users/Yushev/git/wpcqi-optiga-trust-charge/optiga/externals/mbedtls/library\ecp.c **** /*
 640:C:/Users/Yushev/git/wpcqi-optiga-trust-charge/optiga/externals/mbedtls/library\ecp.c ****  * Copy the contents of a point
 641:C:/Users/Yushev/git/wpcqi-optiga-trust-charge/optiga/externals/mbedtls/library\ecp.c ****  */
 642:C:/Users/Yushev/git/wpcqi-optiga-trust-charge/optiga/externals/mbedtls/library\ecp.c **** int mbedtls_ecp_copy( mbedtls_ecp_point *P, const mbedtls_ecp_point *Q )
 643:C:/Users/Yushev/git/wpcqi-optiga-trust-charge/optiga/externals/mbedtls/library\ecp.c **** {
 889              	 .loc 1 643 0
 890              	 .cfi_startproc
 891              	 
 892              	 
 893 0000 80B5     	 push {r7,lr}
 894              	.LCFI60:
 895              	 .cfi_def_cfa_offset 8
 896              	 .cfi_offset 7,-8
 897              	 .cfi_offset 14,-4
 898 0002 84B0     	 sub sp,sp,#16
 899              	.LCFI61:
 900              	 .cfi_def_cfa_offset 24
 901 0004 00AF     	 add r7,sp,#0
 902              	.LCFI62:
 903              	 .cfi_def_cfa_register 7
 904 0006 7860     	 str r0,[r7,#4]
 905 0008 3960     	 str r1,[r7]
 644:C:/Users/Yushev/git/wpcqi-optiga-trust-charge/optiga/externals/mbedtls/library\ecp.c ****     int ret;
 645:C:/Users/Yushev/git/wpcqi-optiga-trust-charge/optiga/externals/mbedtls/library\ecp.c ****     ECP_VALIDATE_RET( P != NULL );
 646:C:/Users/Yushev/git/wpcqi-optiga-trust-charge/optiga/externals/mbedtls/library\ecp.c ****     ECP_VALIDATE_RET( Q != NULL );
 647:C:/Users/Yushev/git/wpcqi-optiga-trust-charge/optiga/externals/mbedtls/library\ecp.c **** 
 648:C:/Users/Yushev/git/wpcqi-optiga-trust-charge/optiga/externals/mbedtls/library\ecp.c ****     MBEDTLS_MPI_CHK( mbedtls_mpi_copy( &P->X, &Q->X ) );
 906              	 .loc 1 648 0
 907 000a 7A68     	 ldr r2,[r7,#4]
 908 000c 3B68     	 ldr r3,[r7]
 909 000e 1046     	 mov r0,r2
 910 0010 1946     	 mov r1,r3
 911 0012 FFF7FEFF 	 bl mbedtls_mpi_copy
 912 0016 F860     	 str r0,[r7,#12]
 913 0018 FB68     	 ldr r3,[r7,#12]
 914 001a 002B     	 cmp r3,#0
 915 001c 00D0     	 beq .L49
 916 001e 1BE0     	 b .L50
 917              	.L49:
 649:C:/Users/Yushev/git/wpcqi-optiga-trust-charge/optiga/externals/mbedtls/library\ecp.c ****     MBEDTLS_MPI_CHK( mbedtls_mpi_copy( &P->Y, &Q->Y ) );
 918              	 .loc 1 649 0
 919 0020 7B68     	 ldr r3,[r7,#4]
 920 0022 03F10C02 	 add r2,r3,#12
 921 0026 3B68     	 ldr r3,[r7]
 922 0028 0C33     	 adds r3,r3,#12
 923 002a 1046     	 mov r0,r2
 924 002c 1946     	 mov r1,r3
 925 002e FFF7FEFF 	 bl mbedtls_mpi_copy
 926 0032 F860     	 str r0,[r7,#12]
 927 0034 FB68     	 ldr r3,[r7,#12]
 928 0036 002B     	 cmp r3,#0
 929 0038 00D0     	 beq .L51
 930 003a 0DE0     	 b .L50
 931              	.L51:
 650:C:/Users/Yushev/git/wpcqi-optiga-trust-charge/optiga/externals/mbedtls/library\ecp.c ****     MBEDTLS_MPI_CHK( mbedtls_mpi_copy( &P->Z, &Q->Z ) );
 932              	 .loc 1 650 0
 933 003c 7B68     	 ldr r3,[r7,#4]
 934 003e 03F11802 	 add r2,r3,#24
 935 0042 3B68     	 ldr r3,[r7]
 936 0044 1833     	 adds r3,r3,#24
 937 0046 1046     	 mov r0,r2
 938 0048 1946     	 mov r1,r3
 939 004a FFF7FEFF 	 bl mbedtls_mpi_copy
 940 004e F860     	 str r0,[r7,#12]
 941 0050 FB68     	 ldr r3,[r7,#12]
 942 0052 002B     	 cmp r3,#0
 943 0054 00D0     	 beq .L50
 944 0056 00BF     	 nop
 945              	.L50:
 651:C:/Users/Yushev/git/wpcqi-optiga-trust-charge/optiga/externals/mbedtls/library\ecp.c **** 
 652:C:/Users/Yushev/git/wpcqi-optiga-trust-charge/optiga/externals/mbedtls/library\ecp.c **** cleanup:
 653:C:/Users/Yushev/git/wpcqi-optiga-trust-charge/optiga/externals/mbedtls/library\ecp.c ****     return( ret );
 946              	 .loc 1 653 0
 947 0058 FB68     	 ldr r3,[r7,#12]
 654:C:/Users/Yushev/git/wpcqi-optiga-trust-charge/optiga/externals/mbedtls/library\ecp.c **** }
 948              	 .loc 1 654 0
 949 005a 1846     	 mov r0,r3
 950 005c 1037     	 adds r7,r7,#16
 951              	.LCFI63:
 952              	 .cfi_def_cfa_offset 8
 953 005e BD46     	 mov sp,r7
 954              	.LCFI64:
 955              	 .cfi_def_cfa_register 13
 956              	 
 957 0060 80BD     	 pop {r7,pc}
 958              	 .cfi_endproc
 959              	.LFE12:
 961 0062 00BF     	 .section .text.mbedtls_ecp_group_copy,"ax",%progbits
 962              	 .align 2
 963              	 .global mbedtls_ecp_group_copy
 964              	 .thumb
 965              	 .thumb_func
 967              	mbedtls_ecp_group_copy:
 968              	.LFB13:
 655:C:/Users/Yushev/git/wpcqi-optiga-trust-charge/optiga/externals/mbedtls/library\ecp.c **** 
 656:C:/Users/Yushev/git/wpcqi-optiga-trust-charge/optiga/externals/mbedtls/library\ecp.c **** /*
 657:C:/Users/Yushev/git/wpcqi-optiga-trust-charge/optiga/externals/mbedtls/library\ecp.c ****  * Copy the contents of a group object
 658:C:/Users/Yushev/git/wpcqi-optiga-trust-charge/optiga/externals/mbedtls/library\ecp.c ****  */
 659:C:/Users/Yushev/git/wpcqi-optiga-trust-charge/optiga/externals/mbedtls/library\ecp.c **** int mbedtls_ecp_group_copy( mbedtls_ecp_group *dst, const mbedtls_ecp_group *src )
 660:C:/Users/Yushev/git/wpcqi-optiga-trust-charge/optiga/externals/mbedtls/library\ecp.c **** {
 969              	 .loc 1 660 0
 970              	 .cfi_startproc
 971              	 
 972              	 
 973 0000 80B5     	 push {r7,lr}
 974              	.LCFI65:
 975              	 .cfi_def_cfa_offset 8
 976              	 .cfi_offset 7,-8
 977              	 .cfi_offset 14,-4
 978 0002 82B0     	 sub sp,sp,#8
 979              	.LCFI66:
 980              	 .cfi_def_cfa_offset 16
 981 0004 00AF     	 add r7,sp,#0
 982              	.LCFI67:
 983              	 .cfi_def_cfa_register 7
 984 0006 7860     	 str r0,[r7,#4]
 985 0008 3960     	 str r1,[r7]
 661:C:/Users/Yushev/git/wpcqi-optiga-trust-charge/optiga/externals/mbedtls/library\ecp.c ****     ECP_VALIDATE_RET( dst != NULL );
 662:C:/Users/Yushev/git/wpcqi-optiga-trust-charge/optiga/externals/mbedtls/library\ecp.c ****     ECP_VALIDATE_RET( src != NULL );
 663:C:/Users/Yushev/git/wpcqi-optiga-trust-charge/optiga/externals/mbedtls/library\ecp.c **** 
 664:C:/Users/Yushev/git/wpcqi-optiga-trust-charge/optiga/externals/mbedtls/library\ecp.c ****     return( mbedtls_ecp_group_load( dst, src->id ) );
 986              	 .loc 1 664 0
 987 000a 3B68     	 ldr r3,[r7]
 988 000c 1B78     	 ldrb r3,[r3]
 989 000e 7868     	 ldr r0,[r7,#4]
 990 0010 1946     	 mov r1,r3
 991 0012 FFF7FEFF 	 bl mbedtls_ecp_group_load
 992 0016 0346     	 mov r3,r0
 665:C:/Users/Yushev/git/wpcqi-optiga-trust-charge/optiga/externals/mbedtls/library\ecp.c **** }
 993              	 .loc 1 665 0
 994 0018 1846     	 mov r0,r3
 995 001a 0837     	 adds r7,r7,#8
 996              	.LCFI68:
 997              	 .cfi_def_cfa_offset 8
 998 001c BD46     	 mov sp,r7
 999              	.LCFI69:
 1000              	 .cfi_def_cfa_register 13
 1001              	 
 1002 001e 80BD     	 pop {r7,pc}
 1003              	 .cfi_endproc
 1004              	.LFE13:
 1006              	 .section .text.mbedtls_ecp_set_zero,"ax",%progbits
 1007              	 .align 2
 1008              	 .global mbedtls_ecp_set_zero
 1009              	 .thumb
 1010              	 .thumb_func
 1012              	mbedtls_ecp_set_zero:
 1013              	.LFB14:
 666:C:/Users/Yushev/git/wpcqi-optiga-trust-charge/optiga/externals/mbedtls/library\ecp.c **** 
 667:C:/Users/Yushev/git/wpcqi-optiga-trust-charge/optiga/externals/mbedtls/library\ecp.c **** /*
 668:C:/Users/Yushev/git/wpcqi-optiga-trust-charge/optiga/externals/mbedtls/library\ecp.c ****  * Set point to zero
 669:C:/Users/Yushev/git/wpcqi-optiga-trust-charge/optiga/externals/mbedtls/library\ecp.c ****  */
 670:C:/Users/Yushev/git/wpcqi-optiga-trust-charge/optiga/externals/mbedtls/library\ecp.c **** int mbedtls_ecp_set_zero( mbedtls_ecp_point *pt )
 671:C:/Users/Yushev/git/wpcqi-optiga-trust-charge/optiga/externals/mbedtls/library\ecp.c **** {
 1014              	 .loc 1 671 0
 1015              	 .cfi_startproc
 1016              	 
 1017              	 
 1018 0000 80B5     	 push {r7,lr}
 1019              	.LCFI70:
 1020              	 .cfi_def_cfa_offset 8
 1021              	 .cfi_offset 7,-8
 1022              	 .cfi_offset 14,-4
 1023 0002 84B0     	 sub sp,sp,#16
 1024              	.LCFI71:
 1025              	 .cfi_def_cfa_offset 24
 1026 0004 00AF     	 add r7,sp,#0
 1027              	.LCFI72:
 1028              	 .cfi_def_cfa_register 7
 1029 0006 7860     	 str r0,[r7,#4]
 672:C:/Users/Yushev/git/wpcqi-optiga-trust-charge/optiga/externals/mbedtls/library\ecp.c ****     int ret;
 673:C:/Users/Yushev/git/wpcqi-optiga-trust-charge/optiga/externals/mbedtls/library\ecp.c ****     ECP_VALIDATE_RET( pt != NULL );
 674:C:/Users/Yushev/git/wpcqi-optiga-trust-charge/optiga/externals/mbedtls/library\ecp.c **** 
 675:C:/Users/Yushev/git/wpcqi-optiga-trust-charge/optiga/externals/mbedtls/library\ecp.c ****     MBEDTLS_MPI_CHK( mbedtls_mpi_lset( &pt->X , 1 ) );
 1030              	 .loc 1 675 0
 1031 0008 7B68     	 ldr r3,[r7,#4]
 1032 000a 1846     	 mov r0,r3
 1033 000c 0121     	 movs r1,#1
 1034 000e FFF7FEFF 	 bl mbedtls_mpi_lset
 1035 0012 F860     	 str r0,[r7,#12]
 1036 0014 FB68     	 ldr r3,[r7,#12]
 1037 0016 002B     	 cmp r3,#0
 1038 0018 00D0     	 beq .L56
 1039 001a 15E0     	 b .L57
 1040              	.L56:
 676:C:/Users/Yushev/git/wpcqi-optiga-trust-charge/optiga/externals/mbedtls/library\ecp.c ****     MBEDTLS_MPI_CHK( mbedtls_mpi_lset( &pt->Y , 1 ) );
 1041              	 .loc 1 676 0
 1042 001c 7B68     	 ldr r3,[r7,#4]
 1043 001e 0C33     	 adds r3,r3,#12
 1044 0020 1846     	 mov r0,r3
 1045 0022 0121     	 movs r1,#1
 1046 0024 FFF7FEFF 	 bl mbedtls_mpi_lset
 1047 0028 F860     	 str r0,[r7,#12]
 1048 002a FB68     	 ldr r3,[r7,#12]
 1049 002c 002B     	 cmp r3,#0
 1050 002e 00D0     	 beq .L58
 1051 0030 0AE0     	 b .L57
 1052              	.L58:
 677:C:/Users/Yushev/git/wpcqi-optiga-trust-charge/optiga/externals/mbedtls/library\ecp.c ****     MBEDTLS_MPI_CHK( mbedtls_mpi_lset( &pt->Z , 0 ) );
 1053              	 .loc 1 677 0
 1054 0032 7B68     	 ldr r3,[r7,#4]
 1055 0034 1833     	 adds r3,r3,#24
 1056 0036 1846     	 mov r0,r3
 1057 0038 0021     	 movs r1,#0
 1058 003a FFF7FEFF 	 bl mbedtls_mpi_lset
 1059 003e F860     	 str r0,[r7,#12]
 1060 0040 FB68     	 ldr r3,[r7,#12]
 1061 0042 002B     	 cmp r3,#0
 1062 0044 00D0     	 beq .L57
 1063 0046 00BF     	 nop
 1064              	.L57:
 678:C:/Users/Yushev/git/wpcqi-optiga-trust-charge/optiga/externals/mbedtls/library\ecp.c **** 
 679:C:/Users/Yushev/git/wpcqi-optiga-trust-charge/optiga/externals/mbedtls/library\ecp.c **** cleanup:
 680:C:/Users/Yushev/git/wpcqi-optiga-trust-charge/optiga/externals/mbedtls/library\ecp.c ****     return( ret );
 1065              	 .loc 1 680 0
 1066 0048 FB68     	 ldr r3,[r7,#12]
 681:C:/Users/Yushev/git/wpcqi-optiga-trust-charge/optiga/externals/mbedtls/library\ecp.c **** }
 1067              	 .loc 1 681 0
 1068 004a 1846     	 mov r0,r3
 1069 004c 1037     	 adds r7,r7,#16
 1070              	.LCFI73:
 1071              	 .cfi_def_cfa_offset 8
 1072 004e BD46     	 mov sp,r7
 1073              	.LCFI74:
 1074              	 .cfi_def_cfa_register 13
 1075              	 
 1076 0050 80BD     	 pop {r7,pc}
 1077              	 .cfi_endproc
 1078              	.LFE14:
 1080 0052 00BF     	 .section .text.mbedtls_ecp_is_zero,"ax",%progbits
 1081              	 .align 2
 1082              	 .global mbedtls_ecp_is_zero
 1083              	 .thumb
 1084              	 .thumb_func
 1086              	mbedtls_ecp_is_zero:
 1087              	.LFB15:
 682:C:/Users/Yushev/git/wpcqi-optiga-trust-charge/optiga/externals/mbedtls/library\ecp.c **** 
 683:C:/Users/Yushev/git/wpcqi-optiga-trust-charge/optiga/externals/mbedtls/library\ecp.c **** /*
 684:C:/Users/Yushev/git/wpcqi-optiga-trust-charge/optiga/externals/mbedtls/library\ecp.c ****  * Tell if a point is zero
 685:C:/Users/Yushev/git/wpcqi-optiga-trust-charge/optiga/externals/mbedtls/library\ecp.c ****  */
 686:C:/Users/Yushev/git/wpcqi-optiga-trust-charge/optiga/externals/mbedtls/library\ecp.c **** int mbedtls_ecp_is_zero( mbedtls_ecp_point *pt )
 687:C:/Users/Yushev/git/wpcqi-optiga-trust-charge/optiga/externals/mbedtls/library\ecp.c **** {
 1088              	 .loc 1 687 0
 1089              	 .cfi_startproc
 1090              	 
 1091              	 
 1092 0000 80B5     	 push {r7,lr}
 1093              	.LCFI75:
 1094              	 .cfi_def_cfa_offset 8
 1095              	 .cfi_offset 7,-8
 1096              	 .cfi_offset 14,-4
 1097 0002 82B0     	 sub sp,sp,#8
 1098              	.LCFI76:
 1099              	 .cfi_def_cfa_offset 16
 1100 0004 00AF     	 add r7,sp,#0
 1101              	.LCFI77:
 1102              	 .cfi_def_cfa_register 7
 1103 0006 7860     	 str r0,[r7,#4]
 688:C:/Users/Yushev/git/wpcqi-optiga-trust-charge/optiga/externals/mbedtls/library\ecp.c ****     ECP_VALIDATE_RET( pt != NULL );
 689:C:/Users/Yushev/git/wpcqi-optiga-trust-charge/optiga/externals/mbedtls/library\ecp.c **** 
 690:C:/Users/Yushev/git/wpcqi-optiga-trust-charge/optiga/externals/mbedtls/library\ecp.c ****     return( mbedtls_mpi_cmp_int( &pt->Z, 0 ) == 0 );
 1104              	 .loc 1 690 0
 1105 0008 7B68     	 ldr r3,[r7,#4]
 1106 000a 1833     	 adds r3,r3,#24
 1107 000c 1846     	 mov r0,r3
 1108 000e 0021     	 movs r1,#0
 1109 0010 FFF7FEFF 	 bl mbedtls_mpi_cmp_int
 1110 0014 0346     	 mov r3,r0
 1111 0016 002B     	 cmp r3,#0
 1112 0018 0CBF     	 ite eq
 1113 001a 0123     	 moveq r3,#1
 1114 001c 0023     	 movne r3,#0
 1115 001e DBB2     	 uxtb r3,r3
 691:C:/Users/Yushev/git/wpcqi-optiga-trust-charge/optiga/externals/mbedtls/library\ecp.c **** }
 1116              	 .loc 1 691 0
 1117 0020 1846     	 mov r0,r3
 1118 0022 0837     	 adds r7,r7,#8
 1119              	.LCFI78:
 1120              	 .cfi_def_cfa_offset 8
 1121 0024 BD46     	 mov sp,r7
 1122              	.LCFI79:
 1123              	 .cfi_def_cfa_register 13
 1124              	 
 1125 0026 80BD     	 pop {r7,pc}
 1126              	 .cfi_endproc
 1127              	.LFE15:
 1129              	 .section .text.mbedtls_ecp_point_cmp,"ax",%progbits
 1130              	 .align 2
 1131              	 .global mbedtls_ecp_point_cmp
 1132              	 .thumb
 1133              	 .thumb_func
 1135              	mbedtls_ecp_point_cmp:
 1136              	.LFB16:
 692:C:/Users/Yushev/git/wpcqi-optiga-trust-charge/optiga/externals/mbedtls/library\ecp.c **** 
 693:C:/Users/Yushev/git/wpcqi-optiga-trust-charge/optiga/externals/mbedtls/library\ecp.c **** /*
 694:C:/Users/Yushev/git/wpcqi-optiga-trust-charge/optiga/externals/mbedtls/library\ecp.c ****  * Compare two points lazily
 695:C:/Users/Yushev/git/wpcqi-optiga-trust-charge/optiga/externals/mbedtls/library\ecp.c ****  */
 696:C:/Users/Yushev/git/wpcqi-optiga-trust-charge/optiga/externals/mbedtls/library\ecp.c **** int mbedtls_ecp_point_cmp( const mbedtls_ecp_point *P,
 697:C:/Users/Yushev/git/wpcqi-optiga-trust-charge/optiga/externals/mbedtls/library\ecp.c ****                            const mbedtls_ecp_point *Q )
 698:C:/Users/Yushev/git/wpcqi-optiga-trust-charge/optiga/externals/mbedtls/library\ecp.c **** {
 1137              	 .loc 1 698 0
 1138              	 .cfi_startproc
 1139              	 
 1140              	 
 1141 0000 80B5     	 push {r7,lr}
 1142              	.LCFI80:
 1143              	 .cfi_def_cfa_offset 8
 1144              	 .cfi_offset 7,-8
 1145              	 .cfi_offset 14,-4
 1146 0002 82B0     	 sub sp,sp,#8
 1147              	.LCFI81:
 1148              	 .cfi_def_cfa_offset 16
 1149 0004 00AF     	 add r7,sp,#0
 1150              	.LCFI82:
 1151              	 .cfi_def_cfa_register 7
 1152 0006 7860     	 str r0,[r7,#4]
 1153 0008 3960     	 str r1,[r7]
 699:C:/Users/Yushev/git/wpcqi-optiga-trust-charge/optiga/externals/mbedtls/library\ecp.c ****     ECP_VALIDATE_RET( P != NULL );
 700:C:/Users/Yushev/git/wpcqi-optiga-trust-charge/optiga/externals/mbedtls/library\ecp.c ****     ECP_VALIDATE_RET( Q != NULL );
 701:C:/Users/Yushev/git/wpcqi-optiga-trust-charge/optiga/externals/mbedtls/library\ecp.c **** 
 702:C:/Users/Yushev/git/wpcqi-optiga-trust-charge/optiga/externals/mbedtls/library\ecp.c ****     if( mbedtls_mpi_cmp_mpi( &P->X, &Q->X ) == 0 &&
 1154              	 .loc 1 702 0
 1155 000a 7A68     	 ldr r2,[r7,#4]
 1156 000c 3B68     	 ldr r3,[r7]
 1157 000e 1046     	 mov r0,r2
 1158 0010 1946     	 mov r1,r3
 1159 0012 FFF7FEFF 	 bl mbedtls_mpi_cmp_mpi
 1160 0016 0346     	 mov r3,r0
 1161 0018 002B     	 cmp r3,#0
 1162 001a 19D1     	 bne .L63
 703:C:/Users/Yushev/git/wpcqi-optiga-trust-charge/optiga/externals/mbedtls/library\ecp.c ****         mbedtls_mpi_cmp_mpi( &P->Y, &Q->Y ) == 0 &&
 1163              	 .loc 1 703 0 discriminator 1
 1164 001c 7B68     	 ldr r3,[r7,#4]
 1165 001e 03F10C02 	 add r2,r3,#12
 1166 0022 3B68     	 ldr r3,[r7]
 1167 0024 0C33     	 adds r3,r3,#12
 1168 0026 1046     	 mov r0,r2
 1169 0028 1946     	 mov r1,r3
 1170 002a FFF7FEFF 	 bl mbedtls_mpi_cmp_mpi
 1171 002e 0346     	 mov r3,r0
 702:C:/Users/Yushev/git/wpcqi-optiga-trust-charge/optiga/externals/mbedtls/library\ecp.c ****         mbedtls_mpi_cmp_mpi( &P->Y, &Q->Y ) == 0 &&
 1172              	 .loc 1 702 0 discriminator 1
 1173 0030 002B     	 cmp r3,#0
 1174 0032 0DD1     	 bne .L63
 704:C:/Users/Yushev/git/wpcqi-optiga-trust-charge/optiga/externals/mbedtls/library\ecp.c ****         mbedtls_mpi_cmp_mpi( &P->Z, &Q->Z ) == 0 )
 1175              	 .loc 1 704 0
 1176 0034 7B68     	 ldr r3,[r7,#4]
 1177 0036 03F11802 	 add r2,r3,#24
 1178 003a 3B68     	 ldr r3,[r7]
 1179 003c 1833     	 adds r3,r3,#24
 1180 003e 1046     	 mov r0,r2
 1181 0040 1946     	 mov r1,r3
 1182 0042 FFF7FEFF 	 bl mbedtls_mpi_cmp_mpi
 1183 0046 0346     	 mov r3,r0
 703:C:/Users/Yushev/git/wpcqi-optiga-trust-charge/optiga/externals/mbedtls/library\ecp.c ****         mbedtls_mpi_cmp_mpi( &P->Y, &Q->Y ) == 0 &&
 1184              	 .loc 1 703 0
 1185 0048 002B     	 cmp r3,#0
 1186 004a 01D1     	 bne .L63
 705:C:/Users/Yushev/git/wpcqi-optiga-trust-charge/optiga/externals/mbedtls/library\ecp.c ****     {
 706:C:/Users/Yushev/git/wpcqi-optiga-trust-charge/optiga/externals/mbedtls/library\ecp.c ****         return( 0 );
 1187              	 .loc 1 706 0
 1188 004c 0023     	 movs r3,#0
 1189 004e 00E0     	 b .L64
 1190              	.L63:
 707:C:/Users/Yushev/git/wpcqi-optiga-trust-charge/optiga/externals/mbedtls/library\ecp.c ****     }
 708:C:/Users/Yushev/git/wpcqi-optiga-trust-charge/optiga/externals/mbedtls/library\ecp.c **** 
 709:C:/Users/Yushev/git/wpcqi-optiga-trust-charge/optiga/externals/mbedtls/library\ecp.c ****     return( MBEDTLS_ERR_ECP_BAD_INPUT_DATA );
 1191              	 .loc 1 709 0
 1192 0050 024B     	 ldr r3,.L65
 1193              	.L64:
 710:C:/Users/Yushev/git/wpcqi-optiga-trust-charge/optiga/externals/mbedtls/library\ecp.c **** }
 1194              	 .loc 1 710 0
 1195 0052 1846     	 mov r0,r3
 1196 0054 0837     	 adds r7,r7,#8
 1197              	.LCFI83:
 1198              	 .cfi_def_cfa_offset 8
 1199 0056 BD46     	 mov sp,r7
 1200              	.LCFI84:
 1201              	 .cfi_def_cfa_register 13
 1202              	 
 1203 0058 80BD     	 pop {r7,pc}
 1204              	.L66:
 1205 005a 00BF     	 .align 2
 1206              	.L65:
 1207 005c 80B0FFFF 	 .word -20352
 1208              	 .cfi_endproc
 1209              	.LFE16:
 1211              	 .section .text.mbedtls_ecp_point_read_string,"ax",%progbits
 1212              	 .align 2
 1213              	 .global mbedtls_ecp_point_read_string
 1214              	 .thumb
 1215              	 .thumb_func
 1217              	mbedtls_ecp_point_read_string:
 1218              	.LFB17:
 711:C:/Users/Yushev/git/wpcqi-optiga-trust-charge/optiga/externals/mbedtls/library\ecp.c **** 
 712:C:/Users/Yushev/git/wpcqi-optiga-trust-charge/optiga/externals/mbedtls/library\ecp.c **** /*
 713:C:/Users/Yushev/git/wpcqi-optiga-trust-charge/optiga/externals/mbedtls/library\ecp.c ****  * Import a non-zero point from ASCII strings
 714:C:/Users/Yushev/git/wpcqi-optiga-trust-charge/optiga/externals/mbedtls/library\ecp.c ****  */
 715:C:/Users/Yushev/git/wpcqi-optiga-trust-charge/optiga/externals/mbedtls/library\ecp.c **** int mbedtls_ecp_point_read_string( mbedtls_ecp_point *P, int radix,
 716:C:/Users/Yushev/git/wpcqi-optiga-trust-charge/optiga/externals/mbedtls/library\ecp.c ****                            const char *x, const char *y )
 717:C:/Users/Yushev/git/wpcqi-optiga-trust-charge/optiga/externals/mbedtls/library\ecp.c **** {
 1219              	 .loc 1 717 0
 1220              	 .cfi_startproc
 1221              	 
 1222              	 
 1223 0000 80B5     	 push {r7,lr}
 1224              	.LCFI85:
 1225              	 .cfi_def_cfa_offset 8
 1226              	 .cfi_offset 7,-8
 1227              	 .cfi_offset 14,-4
 1228 0002 86B0     	 sub sp,sp,#24
 1229              	.LCFI86:
 1230              	 .cfi_def_cfa_offset 32
 1231 0004 00AF     	 add r7,sp,#0
 1232              	.LCFI87:
 1233              	 .cfi_def_cfa_register 7
 1234 0006 F860     	 str r0,[r7,#12]
 1235 0008 B960     	 str r1,[r7,#8]
 1236 000a 7A60     	 str r2,[r7,#4]
 1237 000c 3B60     	 str r3,[r7]
 718:C:/Users/Yushev/git/wpcqi-optiga-trust-charge/optiga/externals/mbedtls/library\ecp.c ****     int ret;
 719:C:/Users/Yushev/git/wpcqi-optiga-trust-charge/optiga/externals/mbedtls/library\ecp.c ****     ECP_VALIDATE_RET( P != NULL );
 720:C:/Users/Yushev/git/wpcqi-optiga-trust-charge/optiga/externals/mbedtls/library\ecp.c ****     ECP_VALIDATE_RET( x != NULL );
 721:C:/Users/Yushev/git/wpcqi-optiga-trust-charge/optiga/externals/mbedtls/library\ecp.c ****     ECP_VALIDATE_RET( y != NULL );
 722:C:/Users/Yushev/git/wpcqi-optiga-trust-charge/optiga/externals/mbedtls/library\ecp.c **** 
 723:C:/Users/Yushev/git/wpcqi-optiga-trust-charge/optiga/externals/mbedtls/library\ecp.c ****     MBEDTLS_MPI_CHK( mbedtls_mpi_read_string( &P->X, radix, x ) );
 1238              	 .loc 1 723 0
 1239 000e FB68     	 ldr r3,[r7,#12]
 1240 0010 1846     	 mov r0,r3
 1241 0012 B968     	 ldr r1,[r7,#8]
 1242 0014 7A68     	 ldr r2,[r7,#4]
 1243 0016 FFF7FEFF 	 bl mbedtls_mpi_read_string
 1244 001a 7861     	 str r0,[r7,#20]
 1245 001c 7B69     	 ldr r3,[r7,#20]
 1246 001e 002B     	 cmp r3,#0
 1247 0020 00D0     	 beq .L68
 1248 0022 16E0     	 b .L69
 1249              	.L68:
 724:C:/Users/Yushev/git/wpcqi-optiga-trust-charge/optiga/externals/mbedtls/library\ecp.c ****     MBEDTLS_MPI_CHK( mbedtls_mpi_read_string( &P->Y, radix, y ) );
 1250              	 .loc 1 724 0
 1251 0024 FB68     	 ldr r3,[r7,#12]
 1252 0026 0C33     	 adds r3,r3,#12
 1253 0028 1846     	 mov r0,r3
 1254 002a B968     	 ldr r1,[r7,#8]
 1255 002c 3A68     	 ldr r2,[r7]
 1256 002e FFF7FEFF 	 bl mbedtls_mpi_read_string
 1257 0032 7861     	 str r0,[r7,#20]
 1258 0034 7B69     	 ldr r3,[r7,#20]
 1259 0036 002B     	 cmp r3,#0
 1260 0038 00D0     	 beq .L70
 1261 003a 0AE0     	 b .L69
 1262              	.L70:
 725:C:/Users/Yushev/git/wpcqi-optiga-trust-charge/optiga/externals/mbedtls/library\ecp.c ****     MBEDTLS_MPI_CHK( mbedtls_mpi_lset( &P->Z, 1 ) );
 1263              	 .loc 1 725 0
 1264 003c FB68     	 ldr r3,[r7,#12]
 1265 003e 1833     	 adds r3,r3,#24
 1266 0040 1846     	 mov r0,r3
 1267 0042 0121     	 movs r1,#1
 1268 0044 FFF7FEFF 	 bl mbedtls_mpi_lset
 1269 0048 7861     	 str r0,[r7,#20]
 1270 004a 7B69     	 ldr r3,[r7,#20]
 1271 004c 002B     	 cmp r3,#0
 1272 004e 00D0     	 beq .L69
 1273 0050 00BF     	 nop
 1274              	.L69:
 726:C:/Users/Yushev/git/wpcqi-optiga-trust-charge/optiga/externals/mbedtls/library\ecp.c **** 
 727:C:/Users/Yushev/git/wpcqi-optiga-trust-charge/optiga/externals/mbedtls/library\ecp.c **** cleanup:
 728:C:/Users/Yushev/git/wpcqi-optiga-trust-charge/optiga/externals/mbedtls/library\ecp.c ****     return( ret );
 1275              	 .loc 1 728 0
 1276 0052 7B69     	 ldr r3,[r7,#20]
 729:C:/Users/Yushev/git/wpcqi-optiga-trust-charge/optiga/externals/mbedtls/library\ecp.c **** }
 1277              	 .loc 1 729 0
 1278 0054 1846     	 mov r0,r3
 1279 0056 1837     	 adds r7,r7,#24
 1280              	.LCFI88:
 1281              	 .cfi_def_cfa_offset 8
 1282 0058 BD46     	 mov sp,r7
 1283              	.LCFI89:
 1284              	 .cfi_def_cfa_register 13
 1285              	 
 1286 005a 80BD     	 pop {r7,pc}
 1287              	 .cfi_endproc
 1288              	.LFE17:
 1290              	 .section .text.mbedtls_ecp_point_write_binary,"ax",%progbits
 1291              	 .align 2
 1292              	 .global mbedtls_ecp_point_write_binary
 1293              	 .thumb
 1294              	 .thumb_func
 1296              	mbedtls_ecp_point_write_binary:
 1297              	.LFB18:
 730:C:/Users/Yushev/git/wpcqi-optiga-trust-charge/optiga/externals/mbedtls/library\ecp.c **** 
 731:C:/Users/Yushev/git/wpcqi-optiga-trust-charge/optiga/externals/mbedtls/library\ecp.c **** /*
 732:C:/Users/Yushev/git/wpcqi-optiga-trust-charge/optiga/externals/mbedtls/library\ecp.c ****  * Export a point into unsigned binary data (SEC1 2.3.3)
 733:C:/Users/Yushev/git/wpcqi-optiga-trust-charge/optiga/externals/mbedtls/library\ecp.c ****  */
 734:C:/Users/Yushev/git/wpcqi-optiga-trust-charge/optiga/externals/mbedtls/library\ecp.c **** int mbedtls_ecp_point_write_binary( const mbedtls_ecp_group *grp,
 735:C:/Users/Yushev/git/wpcqi-optiga-trust-charge/optiga/externals/mbedtls/library\ecp.c ****                                     const mbedtls_ecp_point *P,
 736:C:/Users/Yushev/git/wpcqi-optiga-trust-charge/optiga/externals/mbedtls/library\ecp.c ****                                     int format, size_t *olen,
 737:C:/Users/Yushev/git/wpcqi-optiga-trust-charge/optiga/externals/mbedtls/library\ecp.c ****                                     unsigned char *buf, size_t buflen )
 738:C:/Users/Yushev/git/wpcqi-optiga-trust-charge/optiga/externals/mbedtls/library\ecp.c **** {
 1298              	 .loc 1 738 0
 1299              	 .cfi_startproc
 1300              	 
 1301              	 
 1302 0000 80B5     	 push {r7,lr}
 1303              	.LCFI90:
 1304              	 .cfi_def_cfa_offset 8
 1305              	 .cfi_offset 7,-8
 1306              	 .cfi_offset 14,-4
 1307 0002 86B0     	 sub sp,sp,#24
 1308              	.LCFI91:
 1309              	 .cfi_def_cfa_offset 32
 1310 0004 00AF     	 add r7,sp,#0
 1311              	.LCFI92:
 1312              	 .cfi_def_cfa_register 7
 1313 0006 F860     	 str r0,[r7,#12]
 1314 0008 B960     	 str r1,[r7,#8]
 1315 000a 7A60     	 str r2,[r7,#4]
 1316 000c 3B60     	 str r3,[r7]
 739:C:/Users/Yushev/git/wpcqi-optiga-trust-charge/optiga/externals/mbedtls/library\ecp.c ****     int ret = 0;
 1317              	 .loc 1 739 0
 1318 000e 0023     	 movs r3,#0
 1319 0010 7B61     	 str r3,[r7,#20]
 740:C:/Users/Yushev/git/wpcqi-optiga-trust-charge/optiga/externals/mbedtls/library\ecp.c ****     size_t plen;
 741:C:/Users/Yushev/git/wpcqi-optiga-trust-charge/optiga/externals/mbedtls/library\ecp.c ****     ECP_VALIDATE_RET( grp  != NULL );
 742:C:/Users/Yushev/git/wpcqi-optiga-trust-charge/optiga/externals/mbedtls/library\ecp.c ****     ECP_VALIDATE_RET( P    != NULL );
 743:C:/Users/Yushev/git/wpcqi-optiga-trust-charge/optiga/externals/mbedtls/library\ecp.c ****     ECP_VALIDATE_RET( olen != NULL );
 744:C:/Users/Yushev/git/wpcqi-optiga-trust-charge/optiga/externals/mbedtls/library\ecp.c ****     ECP_VALIDATE_RET( buf  != NULL );
 745:C:/Users/Yushev/git/wpcqi-optiga-trust-charge/optiga/externals/mbedtls/library\ecp.c ****     ECP_VALIDATE_RET( format == MBEDTLS_ECP_PF_UNCOMPRESSED ||
 746:C:/Users/Yushev/git/wpcqi-optiga-trust-charge/optiga/externals/mbedtls/library\ecp.c ****                       format == MBEDTLS_ECP_PF_COMPRESSED );
 747:C:/Users/Yushev/git/wpcqi-optiga-trust-charge/optiga/externals/mbedtls/library\ecp.c **** 
 748:C:/Users/Yushev/git/wpcqi-optiga-trust-charge/optiga/externals/mbedtls/library\ecp.c ****     /*
 749:C:/Users/Yushev/git/wpcqi-optiga-trust-charge/optiga/externals/mbedtls/library\ecp.c ****      * Common case: P == 0
 750:C:/Users/Yushev/git/wpcqi-optiga-trust-charge/optiga/externals/mbedtls/library\ecp.c ****      */
 751:C:/Users/Yushev/git/wpcqi-optiga-trust-charge/optiga/externals/mbedtls/library\ecp.c ****     if( mbedtls_mpi_cmp_int( &P->Z, 0 ) == 0 )
 1320              	 .loc 1 751 0
 1321 0012 BB68     	 ldr r3,[r7,#8]
 1322 0014 1833     	 adds r3,r3,#24
 1323 0016 1846     	 mov r0,r3
 1324 0018 0021     	 movs r1,#0
 1325 001a FFF7FEFF 	 bl mbedtls_mpi_cmp_int
 1326 001e 0346     	 mov r3,r0
 1327 0020 002B     	 cmp r3,#0
 1328 0022 0CD1     	 bne .L73
 752:C:/Users/Yushev/git/wpcqi-optiga-trust-charge/optiga/externals/mbedtls/library\ecp.c ****     {
 753:C:/Users/Yushev/git/wpcqi-optiga-trust-charge/optiga/externals/mbedtls/library\ecp.c ****         if( buflen < 1 )
 1329              	 .loc 1 753 0
 1330 0024 7B6A     	 ldr r3,[r7,#36]
 1331 0026 002B     	 cmp r3,#0
 1332 0028 01D1     	 bne .L74
 754:C:/Users/Yushev/git/wpcqi-optiga-trust-charge/optiga/externals/mbedtls/library\ecp.c ****             return( MBEDTLS_ERR_ECP_BUFFER_TOO_SMALL );
 1333              	 .loc 1 754 0
 1334 002a 364B     	 ldr r3,.L81
 1335 002c 65E0     	 b .L75
 1336              	.L74:
 755:C:/Users/Yushev/git/wpcqi-optiga-trust-charge/optiga/externals/mbedtls/library\ecp.c **** 
 756:C:/Users/Yushev/git/wpcqi-optiga-trust-charge/optiga/externals/mbedtls/library\ecp.c ****         buf[0] = 0x00;
 1337              	 .loc 1 756 0
 1338 002e 3B6A     	 ldr r3,[r7,#32]
 1339 0030 0022     	 movs r2,#0
 1340 0032 1A70     	 strb r2,[r3]
 757:C:/Users/Yushev/git/wpcqi-optiga-trust-charge/optiga/externals/mbedtls/library\ecp.c ****         *olen = 1;
 1341              	 .loc 1 757 0
 1342 0034 3B68     	 ldr r3,[r7]
 1343 0036 0122     	 movs r2,#1
 1344 0038 1A60     	 str r2,[r3]
 758:C:/Users/Yushev/git/wpcqi-optiga-trust-charge/optiga/externals/mbedtls/library\ecp.c **** 
 759:C:/Users/Yushev/git/wpcqi-optiga-trust-charge/optiga/externals/mbedtls/library\ecp.c ****         return( 0 );
 1345              	 .loc 1 759 0
 1346 003a 0023     	 movs r3,#0
 1347 003c 5DE0     	 b .L75
 1348              	.L73:
 760:C:/Users/Yushev/git/wpcqi-optiga-trust-charge/optiga/externals/mbedtls/library\ecp.c ****     }
 761:C:/Users/Yushev/git/wpcqi-optiga-trust-charge/optiga/externals/mbedtls/library\ecp.c **** 
 762:C:/Users/Yushev/git/wpcqi-optiga-trust-charge/optiga/externals/mbedtls/library\ecp.c ****     plen = mbedtls_mpi_size( &grp->P );
 1349              	 .loc 1 762 0
 1350 003e FB68     	 ldr r3,[r7,#12]
 1351 0040 0433     	 adds r3,r3,#4
 1352 0042 1846     	 mov r0,r3
 1353 0044 FFF7FEFF 	 bl mbedtls_mpi_size
 1354 0048 3861     	 str r0,[r7,#16]
 763:C:/Users/Yushev/git/wpcqi-optiga-trust-charge/optiga/externals/mbedtls/library\ecp.c **** 
 764:C:/Users/Yushev/git/wpcqi-optiga-trust-charge/optiga/externals/mbedtls/library\ecp.c ****     if( format == MBEDTLS_ECP_PF_UNCOMPRESSED )
 1355              	 .loc 1 764 0
 1356 004a 7B68     	 ldr r3,[r7,#4]
 1357 004c 002B     	 cmp r3,#0
 1358 004e 2CD1     	 bne .L76
 765:C:/Users/Yushev/git/wpcqi-optiga-trust-charge/optiga/externals/mbedtls/library\ecp.c ****     {
 766:C:/Users/Yushev/git/wpcqi-optiga-trust-charge/optiga/externals/mbedtls/library\ecp.c ****         *olen = 2 * plen + 1;
 1359              	 .loc 1 766 0
 1360 0050 3B69     	 ldr r3,[r7,#16]
 1361 0052 5B00     	 lsls r3,r3,#1
 1362 0054 5A1C     	 adds r2,r3,#1
 1363 0056 3B68     	 ldr r3,[r7]
 1364 0058 1A60     	 str r2,[r3]
 767:C:/Users/Yushev/git/wpcqi-optiga-trust-charge/optiga/externals/mbedtls/library\ecp.c **** 
 768:C:/Users/Yushev/git/wpcqi-optiga-trust-charge/optiga/externals/mbedtls/library\ecp.c ****         if( buflen < *olen )
 1365              	 .loc 1 768 0
 1366 005a 3B68     	 ldr r3,[r7]
 1367 005c 1A68     	 ldr r2,[r3]
 1368 005e 7B6A     	 ldr r3,[r7,#36]
 1369 0060 9A42     	 cmp r2,r3
 1370 0062 01D9     	 bls .L77
 769:C:/Users/Yushev/git/wpcqi-optiga-trust-charge/optiga/externals/mbedtls/library\ecp.c ****             return( MBEDTLS_ERR_ECP_BUFFER_TOO_SMALL );
 1371              	 .loc 1 769 0
 1372 0064 274B     	 ldr r3,.L81
 1373 0066 48E0     	 b .L75
 1374              	.L77:
 770:C:/Users/Yushev/git/wpcqi-optiga-trust-charge/optiga/externals/mbedtls/library\ecp.c **** 
 771:C:/Users/Yushev/git/wpcqi-optiga-trust-charge/optiga/externals/mbedtls/library\ecp.c ****         buf[0] = 0x04;
 1375              	 .loc 1 771 0
 1376 0068 3B6A     	 ldr r3,[r7,#32]
 1377 006a 0422     	 movs r2,#4
 1378 006c 1A70     	 strb r2,[r3]
 772:C:/Users/Yushev/git/wpcqi-optiga-trust-charge/optiga/externals/mbedtls/library\ecp.c ****         MBEDTLS_MPI_CHK( mbedtls_mpi_write_binary( &P->X, buf + 1, plen ) );
 1379              	 .loc 1 772 0
 1380 006e BA68     	 ldr r2,[r7,#8]
 1381 0070 3B6A     	 ldr r3,[r7,#32]
 1382 0072 0133     	 adds r3,r3,#1
 1383 0074 1046     	 mov r0,r2
 1384 0076 1946     	 mov r1,r3
 1385 0078 3A69     	 ldr r2,[r7,#16]
 1386 007a FFF7FEFF 	 bl mbedtls_mpi_write_binary
 1387 007e 7861     	 str r0,[r7,#20]
 1388 0080 7B69     	 ldr r3,[r7,#20]
 1389 0082 002B     	 cmp r3,#0
 1390 0084 00D0     	 beq .L78
 1391 0086 37E0     	 b .L79
 1392              	.L78:
 773:C:/Users/Yushev/git/wpcqi-optiga-trust-charge/optiga/externals/mbedtls/library\ecp.c ****         MBEDTLS_MPI_CHK( mbedtls_mpi_write_binary( &P->Y, buf + 1 + plen, plen ) );
 1393              	 .loc 1 773 0
 1394 0088 BB68     	 ldr r3,[r7,#8]
 1395 008a 03F10C01 	 add r1,r3,#12
 1396 008e 3B69     	 ldr r3,[r7,#16]
 1397 0090 0133     	 adds r3,r3,#1
 1398 0092 3A6A     	 ldr r2,[r7,#32]
 1399 0094 1344     	 add r3,r3,r2
 1400 0096 0846     	 mov r0,r1
 1401 0098 1946     	 mov r1,r3
 1402 009a 3A69     	 ldr r2,[r7,#16]
 1403 009c FFF7FEFF 	 bl mbedtls_mpi_write_binary
 1404 00a0 7861     	 str r0,[r7,#20]
 1405 00a2 7B69     	 ldr r3,[r7,#20]
 1406 00a4 002B     	 cmp r3,#0
 1407 00a6 27D0     	 beq .L79
 1408 00a8 26E0     	 b .L79
 1409              	.L76:
 774:C:/Users/Yushev/git/wpcqi-optiga-trust-charge/optiga/externals/mbedtls/library\ecp.c ****     }
 775:C:/Users/Yushev/git/wpcqi-optiga-trust-charge/optiga/externals/mbedtls/library\ecp.c ****     else if( format == MBEDTLS_ECP_PF_COMPRESSED )
 1410              	 .loc 1 775 0
 1411 00aa 7B68     	 ldr r3,[r7,#4]
 1412 00ac 012B     	 cmp r3,#1
 1413 00ae 23D1     	 bne .L79
 776:C:/Users/Yushev/git/wpcqi-optiga-trust-charge/optiga/externals/mbedtls/library\ecp.c ****     {
 777:C:/Users/Yushev/git/wpcqi-optiga-trust-charge/optiga/externals/mbedtls/library\ecp.c ****         *olen = plen + 1;
 1414              	 .loc 1 777 0
 1415 00b0 3B69     	 ldr r3,[r7,#16]
 1416 00b2 5A1C     	 adds r2,r3,#1
 1417 00b4 3B68     	 ldr r3,[r7]
 1418 00b6 1A60     	 str r2,[r3]
 778:C:/Users/Yushev/git/wpcqi-optiga-trust-charge/optiga/externals/mbedtls/library\ecp.c **** 
 779:C:/Users/Yushev/git/wpcqi-optiga-trust-charge/optiga/externals/mbedtls/library\ecp.c ****         if( buflen < *olen )
 1419              	 .loc 1 779 0
 1420 00b8 3B68     	 ldr r3,[r7]
 1421 00ba 1A68     	 ldr r2,[r3]
 1422 00bc 7B6A     	 ldr r3,[r7,#36]
 1423 00be 9A42     	 cmp r2,r3
 1424 00c0 01D9     	 bls .L80
 780:C:/Users/Yushev/git/wpcqi-optiga-trust-charge/optiga/externals/mbedtls/library\ecp.c ****             return( MBEDTLS_ERR_ECP_BUFFER_TOO_SMALL );
 1425              	 .loc 1 780 0
 1426 00c2 104B     	 ldr r3,.L81
 1427 00c4 19E0     	 b .L75
 1428              	.L80:
 781:C:/Users/Yushev/git/wpcqi-optiga-trust-charge/optiga/externals/mbedtls/library\ecp.c **** 
 782:C:/Users/Yushev/git/wpcqi-optiga-trust-charge/optiga/externals/mbedtls/library\ecp.c ****         buf[0] = 0x02 + mbedtls_mpi_get_bit( &P->Y, 0 );
 1429              	 .loc 1 782 0
 1430 00c6 BB68     	 ldr r3,[r7,#8]
 1431 00c8 0C33     	 adds r3,r3,#12
 1432 00ca 1846     	 mov r0,r3
 1433 00cc 0021     	 movs r1,#0
 1434 00ce FFF7FEFF 	 bl mbedtls_mpi_get_bit
 1435 00d2 0346     	 mov r3,r0
 1436 00d4 DBB2     	 uxtb r3,r3
 1437 00d6 0233     	 adds r3,r3,#2
 1438 00d8 DAB2     	 uxtb r2,r3
 1439 00da 3B6A     	 ldr r3,[r7,#32]
 1440 00dc 1A70     	 strb r2,[r3]
 783:C:/Users/Yushev/git/wpcqi-optiga-trust-charge/optiga/externals/mbedtls/library\ecp.c ****         MBEDTLS_MPI_CHK( mbedtls_mpi_write_binary( &P->X, buf + 1, plen ) );
 1441              	 .loc 1 783 0
 1442 00de BA68     	 ldr r2,[r7,#8]
 1443 00e0 3B6A     	 ldr r3,[r7,#32]
 1444 00e2 0133     	 adds r3,r3,#1
 1445 00e4 1046     	 mov r0,r2
 1446 00e6 1946     	 mov r1,r3
 1447 00e8 3A69     	 ldr r2,[r7,#16]
 1448 00ea FFF7FEFF 	 bl mbedtls_mpi_write_binary
 1449 00ee 7861     	 str r0,[r7,#20]
 1450 00f0 7B69     	 ldr r3,[r7,#20]
 1451 00f2 002B     	 cmp r3,#0
 1452 00f4 00D0     	 beq .L79
 1453 00f6 00BF     	 nop
 1454              	.L79:
 784:C:/Users/Yushev/git/wpcqi-optiga-trust-charge/optiga/externals/mbedtls/library\ecp.c ****     }
 785:C:/Users/Yushev/git/wpcqi-optiga-trust-charge/optiga/externals/mbedtls/library\ecp.c **** 
 786:C:/Users/Yushev/git/wpcqi-optiga-trust-charge/optiga/externals/mbedtls/library\ecp.c **** cleanup:
 787:C:/Users/Yushev/git/wpcqi-optiga-trust-charge/optiga/externals/mbedtls/library\ecp.c ****     return( ret );
 1455              	 .loc 1 787 0
 1456 00f8 7B69     	 ldr r3,[r7,#20]
 1457              	.L75:
 788:C:/Users/Yushev/git/wpcqi-optiga-trust-charge/optiga/externals/mbedtls/library\ecp.c **** }
 1458              	 .loc 1 788 0
 1459 00fa 1846     	 mov r0,r3
 1460 00fc 1837     	 adds r7,r7,#24
 1461              	.LCFI93:
 1462              	 .cfi_def_cfa_offset 8
 1463 00fe BD46     	 mov sp,r7
 1464              	.LCFI94:
 1465              	 .cfi_def_cfa_register 13
 1466              	 
 1467 0100 80BD     	 pop {r7,pc}
 1468              	.L82:
 1469 0102 00BF     	 .align 2
 1470              	.L81:
 1471 0104 00B1FFFF 	 .word -20224
 1472              	 .cfi_endproc
 1473              	.LFE18:
 1475              	 .section .text.mbedtls_ecp_point_read_binary,"ax",%progbits
 1476              	 .align 2
 1477              	 .global mbedtls_ecp_point_read_binary
 1478              	 .thumb
 1479              	 .thumb_func
 1481              	mbedtls_ecp_point_read_binary:
 1482              	.LFB19:
 789:C:/Users/Yushev/git/wpcqi-optiga-trust-charge/optiga/externals/mbedtls/library\ecp.c **** 
 790:C:/Users/Yushev/git/wpcqi-optiga-trust-charge/optiga/externals/mbedtls/library\ecp.c **** /*
 791:C:/Users/Yushev/git/wpcqi-optiga-trust-charge/optiga/externals/mbedtls/library\ecp.c ****  * Import a point from unsigned binary data (SEC1 2.3.4)
 792:C:/Users/Yushev/git/wpcqi-optiga-trust-charge/optiga/externals/mbedtls/library\ecp.c ****  */
 793:C:/Users/Yushev/git/wpcqi-optiga-trust-charge/optiga/externals/mbedtls/library\ecp.c **** int mbedtls_ecp_point_read_binary( const mbedtls_ecp_group *grp,
 794:C:/Users/Yushev/git/wpcqi-optiga-trust-charge/optiga/externals/mbedtls/library\ecp.c ****                                    mbedtls_ecp_point *pt,
 795:C:/Users/Yushev/git/wpcqi-optiga-trust-charge/optiga/externals/mbedtls/library\ecp.c ****                                    const unsigned char *buf, size_t ilen )
 796:C:/Users/Yushev/git/wpcqi-optiga-trust-charge/optiga/externals/mbedtls/library\ecp.c **** {
 1483              	 .loc 1 796 0
 1484              	 .cfi_startproc
 1485              	 
 1486              	 
 1487 0000 80B5     	 push {r7,lr}
 1488              	.LCFI95:
 1489              	 .cfi_def_cfa_offset 8
 1490              	 .cfi_offset 7,-8
 1491              	 .cfi_offset 14,-4
 1492 0002 86B0     	 sub sp,sp,#24
 1493              	.LCFI96:
 1494              	 .cfi_def_cfa_offset 32
 1495 0004 00AF     	 add r7,sp,#0
 1496              	.LCFI97:
 1497              	 .cfi_def_cfa_register 7
 1498 0006 F860     	 str r0,[r7,#12]
 1499 0008 B960     	 str r1,[r7,#8]
 1500 000a 7A60     	 str r2,[r7,#4]
 1501 000c 3B60     	 str r3,[r7]
 797:C:/Users/Yushev/git/wpcqi-optiga-trust-charge/optiga/externals/mbedtls/library\ecp.c ****     int ret;
 798:C:/Users/Yushev/git/wpcqi-optiga-trust-charge/optiga/externals/mbedtls/library\ecp.c ****     size_t plen;
 799:C:/Users/Yushev/git/wpcqi-optiga-trust-charge/optiga/externals/mbedtls/library\ecp.c ****     ECP_VALIDATE_RET( grp != NULL );
 800:C:/Users/Yushev/git/wpcqi-optiga-trust-charge/optiga/externals/mbedtls/library\ecp.c ****     ECP_VALIDATE_RET( pt  != NULL );
 801:C:/Users/Yushev/git/wpcqi-optiga-trust-charge/optiga/externals/mbedtls/library\ecp.c ****     ECP_VALIDATE_RET( buf != NULL );
 802:C:/Users/Yushev/git/wpcqi-optiga-trust-charge/optiga/externals/mbedtls/library\ecp.c **** 
 803:C:/Users/Yushev/git/wpcqi-optiga-trust-charge/optiga/externals/mbedtls/library\ecp.c ****     if( ilen < 1 )
 1502              	 .loc 1 803 0
 1503 000e 3B68     	 ldr r3,[r7]
 1504 0010 002B     	 cmp r3,#0
 1505 0012 01D1     	 bne .L84
 804:C:/Users/Yushev/git/wpcqi-optiga-trust-charge/optiga/externals/mbedtls/library\ecp.c ****         return( MBEDTLS_ERR_ECP_BAD_INPUT_DATA );
 1506              	 .loc 1 804 0
 1507 0014 284B     	 ldr r3,.L93
 1508 0016 4BE0     	 b .L85
 1509              	.L84:
 805:C:/Users/Yushev/git/wpcqi-optiga-trust-charge/optiga/externals/mbedtls/library\ecp.c **** 
 806:C:/Users/Yushev/git/wpcqi-optiga-trust-charge/optiga/externals/mbedtls/library\ecp.c ****     if( buf[0] == 0x00 )
 1510              	 .loc 1 806 0
 1511 0018 7B68     	 ldr r3,[r7,#4]
 1512 001a 1B78     	 ldrb r3,[r3]
 1513 001c 002B     	 cmp r3,#0
 1514 001e 09D1     	 bne .L86
 807:C:/Users/Yushev/git/wpcqi-optiga-trust-charge/optiga/externals/mbedtls/library\ecp.c ****     {
 808:C:/Users/Yushev/git/wpcqi-optiga-trust-charge/optiga/externals/mbedtls/library\ecp.c ****         if( ilen == 1 )
 1515              	 .loc 1 808 0
 1516 0020 3B68     	 ldr r3,[r7]
 1517 0022 012B     	 cmp r3,#1
 1518 0024 04D1     	 bne .L87
 809:C:/Users/Yushev/git/wpcqi-optiga-trust-charge/optiga/externals/mbedtls/library\ecp.c ****             return( mbedtls_ecp_set_zero( pt ) );
 1519              	 .loc 1 809 0
 1520 0026 B868     	 ldr r0,[r7,#8]
 1521 0028 FFF7FEFF 	 bl mbedtls_ecp_set_zero
 1522 002c 0346     	 mov r3,r0
 1523 002e 3FE0     	 b .L85
 1524              	.L87:
 810:C:/Users/Yushev/git/wpcqi-optiga-trust-charge/optiga/externals/mbedtls/library\ecp.c ****         else
 811:C:/Users/Yushev/git/wpcqi-optiga-trust-charge/optiga/externals/mbedtls/library\ecp.c ****             return( MBEDTLS_ERR_ECP_BAD_INPUT_DATA );
 1525              	 .loc 1 811 0
 1526 0030 214B     	 ldr r3,.L93
 1527 0032 3DE0     	 b .L85
 1528              	.L86:
 812:C:/Users/Yushev/git/wpcqi-optiga-trust-charge/optiga/externals/mbedtls/library\ecp.c ****     }
 813:C:/Users/Yushev/git/wpcqi-optiga-trust-charge/optiga/externals/mbedtls/library\ecp.c **** 
 814:C:/Users/Yushev/git/wpcqi-optiga-trust-charge/optiga/externals/mbedtls/library\ecp.c ****     plen = mbedtls_mpi_size( &grp->P );
 1529              	 .loc 1 814 0
 1530 0034 FB68     	 ldr r3,[r7,#12]
 1531 0036 0433     	 adds r3,r3,#4
 1532 0038 1846     	 mov r0,r3
 1533 003a FFF7FEFF 	 bl mbedtls_mpi_size
 1534 003e 3861     	 str r0,[r7,#16]
 815:C:/Users/Yushev/git/wpcqi-optiga-trust-charge/optiga/externals/mbedtls/library\ecp.c **** 
 816:C:/Users/Yushev/git/wpcqi-optiga-trust-charge/optiga/externals/mbedtls/library\ecp.c ****     if( buf[0] != 0x04 )
 1535              	 .loc 1 816 0
 1536 0040 7B68     	 ldr r3,[r7,#4]
 1537 0042 1B78     	 ldrb r3,[r3]
 1538 0044 042B     	 cmp r3,#4
 1539 0046 01D0     	 beq .L88
 817:C:/Users/Yushev/git/wpcqi-optiga-trust-charge/optiga/externals/mbedtls/library\ecp.c ****         return( MBEDTLS_ERR_ECP_FEATURE_UNAVAILABLE );
 1540              	 .loc 1 817 0
 1541 0048 1C4B     	 ldr r3,.L93+4
 1542 004a 31E0     	 b .L85
 1543              	.L88:
 818:C:/Users/Yushev/git/wpcqi-optiga-trust-charge/optiga/externals/mbedtls/library\ecp.c **** 
 819:C:/Users/Yushev/git/wpcqi-optiga-trust-charge/optiga/externals/mbedtls/library\ecp.c ****     if( ilen != 2 * plen + 1 )
 1544              	 .loc 1 819 0
 1545 004c 3B69     	 ldr r3,[r7,#16]
 1546 004e 5B00     	 lsls r3,r3,#1
 1547 0050 5A1C     	 adds r2,r3,#1
 1548 0052 3B68     	 ldr r3,[r7]
 1549 0054 9A42     	 cmp r2,r3
 1550 0056 01D0     	 beq .L89
 820:C:/Users/Yushev/git/wpcqi-optiga-trust-charge/optiga/externals/mbedtls/library\ecp.c ****         return( MBEDTLS_ERR_ECP_BAD_INPUT_DATA );
 1551              	 .loc 1 820 0
 1552 0058 174B     	 ldr r3,.L93
 1553 005a 29E0     	 b .L85
 1554              	.L89:
 821:C:/Users/Yushev/git/wpcqi-optiga-trust-charge/optiga/externals/mbedtls/library\ecp.c **** 
 822:C:/Users/Yushev/git/wpcqi-optiga-trust-charge/optiga/externals/mbedtls/library\ecp.c ****     MBEDTLS_MPI_CHK( mbedtls_mpi_read_binary( &pt->X, buf + 1, plen ) );
 1555              	 .loc 1 822 0
 1556 005c BA68     	 ldr r2,[r7,#8]
 1557 005e 7B68     	 ldr r3,[r7,#4]
 1558 0060 0133     	 adds r3,r3,#1
 1559 0062 1046     	 mov r0,r2
 1560 0064 1946     	 mov r1,r3
 1561 0066 3A69     	 ldr r2,[r7,#16]
 1562 0068 FFF7FEFF 	 bl mbedtls_mpi_read_binary
 1563 006c 7861     	 str r0,[r7,#20]
 1564 006e 7B69     	 ldr r3,[r7,#20]
 1565 0070 002B     	 cmp r3,#0
 1566 0072 00D0     	 beq .L90
 1567 0074 1BE0     	 b .L91
 1568              	.L90:
 823:C:/Users/Yushev/git/wpcqi-optiga-trust-charge/optiga/externals/mbedtls/library\ecp.c ****     MBEDTLS_MPI_CHK( mbedtls_mpi_read_binary( &pt->Y, buf + 1 + plen, plen ) );
 1569              	 .loc 1 823 0
 1570 0076 BB68     	 ldr r3,[r7,#8]
 1571 0078 03F10C01 	 add r1,r3,#12
 1572 007c 3B69     	 ldr r3,[r7,#16]
 1573 007e 0133     	 adds r3,r3,#1
 1574 0080 7A68     	 ldr r2,[r7,#4]
 1575 0082 1344     	 add r3,r3,r2
 1576 0084 0846     	 mov r0,r1
 1577 0086 1946     	 mov r1,r3
 1578 0088 3A69     	 ldr r2,[r7,#16]
 1579 008a FFF7FEFF 	 bl mbedtls_mpi_read_binary
 1580 008e 7861     	 str r0,[r7,#20]
 1581 0090 7B69     	 ldr r3,[r7,#20]
 1582 0092 002B     	 cmp r3,#0
 1583 0094 00D0     	 beq .L92
 1584 0096 0AE0     	 b .L91
 1585              	.L92:
 824:C:/Users/Yushev/git/wpcqi-optiga-trust-charge/optiga/externals/mbedtls/library\ecp.c ****     MBEDTLS_MPI_CHK( mbedtls_mpi_lset( &pt->Z, 1 ) );
 1586              	 .loc 1 824 0
 1587 0098 BB68     	 ldr r3,[r7,#8]
 1588 009a 1833     	 adds r3,r3,#24
 1589 009c 1846     	 mov r0,r3
 1590 009e 0121     	 movs r1,#1
 1591 00a0 FFF7FEFF 	 bl mbedtls_mpi_lset
 1592 00a4 7861     	 str r0,[r7,#20]
 1593 00a6 7B69     	 ldr r3,[r7,#20]
 1594 00a8 002B     	 cmp r3,#0
 1595 00aa 00D0     	 beq .L91
 1596 00ac 00BF     	 nop
 1597              	.L91:
 825:C:/Users/Yushev/git/wpcqi-optiga-trust-charge/optiga/externals/mbedtls/library\ecp.c **** 
 826:C:/Users/Yushev/git/wpcqi-optiga-trust-charge/optiga/externals/mbedtls/library\ecp.c **** cleanup:
 827:C:/Users/Yushev/git/wpcqi-optiga-trust-charge/optiga/externals/mbedtls/library\ecp.c ****     return( ret );
 1598              	 .loc 1 827 0
 1599 00ae 7B69     	 ldr r3,[r7,#20]
 1600              	.L85:
 828:C:/Users/Yushev/git/wpcqi-optiga-trust-charge/optiga/externals/mbedtls/library\ecp.c **** }
 1601              	 .loc 1 828 0
 1602 00b0 1846     	 mov r0,r3
 1603 00b2 1837     	 adds r7,r7,#24
 1604              	.LCFI98:
 1605              	 .cfi_def_cfa_offset 8
 1606 00b4 BD46     	 mov sp,r7
 1607              	.LCFI99:
 1608              	 .cfi_def_cfa_register 13
 1609              	 
 1610 00b6 80BD     	 pop {r7,pc}
 1611              	.L94:
 1612              	 .align 2
 1613              	.L93:
 1614 00b8 80B0FFFF 	 .word -20352
 1615 00bc 80B1FFFF 	 .word -20096
 1616              	 .cfi_endproc
 1617              	.LFE19:
 1619              	 .section .text.mbedtls_ecp_tls_read_point,"ax",%progbits
 1620              	 .align 2
 1621              	 .global mbedtls_ecp_tls_read_point
 1622              	 .thumb
 1623              	 .thumb_func
 1625              	mbedtls_ecp_tls_read_point:
 1626              	.LFB20:
 829:C:/Users/Yushev/git/wpcqi-optiga-trust-charge/optiga/externals/mbedtls/library\ecp.c **** 
 830:C:/Users/Yushev/git/wpcqi-optiga-trust-charge/optiga/externals/mbedtls/library\ecp.c **** /*
 831:C:/Users/Yushev/git/wpcqi-optiga-trust-charge/optiga/externals/mbedtls/library\ecp.c ****  * Import a point from a TLS ECPoint record (RFC 4492)
 832:C:/Users/Yushev/git/wpcqi-optiga-trust-charge/optiga/externals/mbedtls/library\ecp.c ****  *      struct {
 833:C:/Users/Yushev/git/wpcqi-optiga-trust-charge/optiga/externals/mbedtls/library\ecp.c ****  *          opaque point <1..2^8-1>;
 834:C:/Users/Yushev/git/wpcqi-optiga-trust-charge/optiga/externals/mbedtls/library\ecp.c ****  *      } ECPoint;
 835:C:/Users/Yushev/git/wpcqi-optiga-trust-charge/optiga/externals/mbedtls/library\ecp.c ****  */
 836:C:/Users/Yushev/git/wpcqi-optiga-trust-charge/optiga/externals/mbedtls/library\ecp.c **** int mbedtls_ecp_tls_read_point( const mbedtls_ecp_group *grp,
 837:C:/Users/Yushev/git/wpcqi-optiga-trust-charge/optiga/externals/mbedtls/library\ecp.c ****                                 mbedtls_ecp_point *pt,
 838:C:/Users/Yushev/git/wpcqi-optiga-trust-charge/optiga/externals/mbedtls/library\ecp.c ****                                 const unsigned char **buf, size_t buf_len )
 839:C:/Users/Yushev/git/wpcqi-optiga-trust-charge/optiga/externals/mbedtls/library\ecp.c **** {
 1627              	 .loc 1 839 0
 1628              	 .cfi_startproc
 1629              	 
 1630              	 
 1631 0000 80B5     	 push {r7,lr}
 1632              	.LCFI100:
 1633              	 .cfi_def_cfa_offset 8
 1634              	 .cfi_offset 7,-8
 1635              	 .cfi_offset 14,-4
 1636 0002 86B0     	 sub sp,sp,#24
 1637              	.LCFI101:
 1638              	 .cfi_def_cfa_offset 32
 1639 0004 00AF     	 add r7,sp,#0
 1640              	.LCFI102:
 1641              	 .cfi_def_cfa_register 7
 1642 0006 F860     	 str r0,[r7,#12]
 1643 0008 B960     	 str r1,[r7,#8]
 1644 000a 7A60     	 str r2,[r7,#4]
 1645 000c 3B60     	 str r3,[r7]
 840:C:/Users/Yushev/git/wpcqi-optiga-trust-charge/optiga/externals/mbedtls/library\ecp.c ****     unsigned char data_len;
 841:C:/Users/Yushev/git/wpcqi-optiga-trust-charge/optiga/externals/mbedtls/library\ecp.c ****     const unsigned char *buf_start;
 842:C:/Users/Yushev/git/wpcqi-optiga-trust-charge/optiga/externals/mbedtls/library\ecp.c ****     ECP_VALIDATE_RET( grp != NULL );
 843:C:/Users/Yushev/git/wpcqi-optiga-trust-charge/optiga/externals/mbedtls/library\ecp.c ****     ECP_VALIDATE_RET( pt  != NULL );
 844:C:/Users/Yushev/git/wpcqi-optiga-trust-charge/optiga/externals/mbedtls/library\ecp.c ****     ECP_VALIDATE_RET( buf != NULL );
 845:C:/Users/Yushev/git/wpcqi-optiga-trust-charge/optiga/externals/mbedtls/library\ecp.c ****     ECP_VALIDATE_RET( *buf != NULL );
 846:C:/Users/Yushev/git/wpcqi-optiga-trust-charge/optiga/externals/mbedtls/library\ecp.c **** 
 847:C:/Users/Yushev/git/wpcqi-optiga-trust-charge/optiga/externals/mbedtls/library\ecp.c ****     /*
 848:C:/Users/Yushev/git/wpcqi-optiga-trust-charge/optiga/externals/mbedtls/library\ecp.c ****      * We must have at least two bytes (1 for length, at least one for data)
 849:C:/Users/Yushev/git/wpcqi-optiga-trust-charge/optiga/externals/mbedtls/library\ecp.c ****      */
 850:C:/Users/Yushev/git/wpcqi-optiga-trust-charge/optiga/externals/mbedtls/library\ecp.c ****     if( buf_len < 2 )
 1646              	 .loc 1 850 0
 1647 000e 3B68     	 ldr r3,[r7]
 1648 0010 012B     	 cmp r3,#1
 1649 0012 01D8     	 bhi .L96
 851:C:/Users/Yushev/git/wpcqi-optiga-trust-charge/optiga/externals/mbedtls/library\ecp.c ****         return( MBEDTLS_ERR_ECP_BAD_INPUT_DATA );
 1650              	 .loc 1 851 0
 1651 0014 134B     	 ldr r3,.L100
 1652 0016 20E0     	 b .L97
 1653              	.L96:
 852:C:/Users/Yushev/git/wpcqi-optiga-trust-charge/optiga/externals/mbedtls/library\ecp.c **** 
 853:C:/Users/Yushev/git/wpcqi-optiga-trust-charge/optiga/externals/mbedtls/library\ecp.c ****     data_len = *(*buf)++;
 1654              	 .loc 1 853 0
 1655 0018 7B68     	 ldr r3,[r7,#4]
 1656 001a 1B68     	 ldr r3,[r3]
 1657 001c 591C     	 adds r1,r3,#1
 1658 001e 7A68     	 ldr r2,[r7,#4]
 1659 0020 1160     	 str r1,[r2]
 1660 0022 1B78     	 ldrb r3,[r3]
 1661 0024 FB75     	 strb r3,[r7,#23]
 854:C:/Users/Yushev/git/wpcqi-optiga-trust-charge/optiga/externals/mbedtls/library\ecp.c ****     if( data_len < 1 || data_len > buf_len - 1 )
 1662              	 .loc 1 854 0
 1663 0026 FB7D     	 ldrb r3,[r7,#23]
 1664 0028 002B     	 cmp r3,#0
 1665 002a 04D0     	 beq .L98
 1666              	 .loc 1 854 0 is_stmt 0 discriminator 1
 1667 002c FA7D     	 ldrb r2,[r7,#23]
 1668 002e 3B68     	 ldr r3,[r7]
 1669 0030 013B     	 subs r3,r3,#1
 1670 0032 9A42     	 cmp r2,r3
 1671 0034 01D9     	 bls .L99
 1672              	.L98:
 855:C:/Users/Yushev/git/wpcqi-optiga-trust-charge/optiga/externals/mbedtls/library\ecp.c ****         return( MBEDTLS_ERR_ECP_BAD_INPUT_DATA );
 1673              	 .loc 1 855 0 is_stmt 1
 1674 0036 0B4B     	 ldr r3,.L100
 1675 0038 0FE0     	 b .L97
 1676              	.L99:
 856:C:/Users/Yushev/git/wpcqi-optiga-trust-charge/optiga/externals/mbedtls/library\ecp.c **** 
 857:C:/Users/Yushev/git/wpcqi-optiga-trust-charge/optiga/externals/mbedtls/library\ecp.c ****     /*
 858:C:/Users/Yushev/git/wpcqi-optiga-trust-charge/optiga/externals/mbedtls/library\ecp.c ****      * Save buffer start for read_binary and update buf
 859:C:/Users/Yushev/git/wpcqi-optiga-trust-charge/optiga/externals/mbedtls/library\ecp.c ****      */
 860:C:/Users/Yushev/git/wpcqi-optiga-trust-charge/optiga/externals/mbedtls/library\ecp.c ****     buf_start = *buf;
 1677              	 .loc 1 860 0
 1678 003a 7B68     	 ldr r3,[r7,#4]
 1679 003c 1B68     	 ldr r3,[r3]
 1680 003e 3B61     	 str r3,[r7,#16]
 861:C:/Users/Yushev/git/wpcqi-optiga-trust-charge/optiga/externals/mbedtls/library\ecp.c ****     *buf += data_len;
 1681              	 .loc 1 861 0
 1682 0040 7B68     	 ldr r3,[r7,#4]
 1683 0042 1A68     	 ldr r2,[r3]
 1684 0044 FB7D     	 ldrb r3,[r7,#23]
 1685 0046 1A44     	 add r2,r2,r3
 1686 0048 7B68     	 ldr r3,[r7,#4]
 1687 004a 1A60     	 str r2,[r3]
 862:C:/Users/Yushev/git/wpcqi-optiga-trust-charge/optiga/externals/mbedtls/library\ecp.c **** 
 863:C:/Users/Yushev/git/wpcqi-optiga-trust-charge/optiga/externals/mbedtls/library\ecp.c ****     return( mbedtls_ecp_point_read_binary( grp, pt, buf_start, data_len ) );
 1688              	 .loc 1 863 0
 1689 004c FB7D     	 ldrb r3,[r7,#23]
 1690 004e F868     	 ldr r0,[r7,#12]
 1691 0050 B968     	 ldr r1,[r7,#8]
 1692 0052 3A69     	 ldr r2,[r7,#16]
 1693 0054 FFF7FEFF 	 bl mbedtls_ecp_point_read_binary
 1694 0058 0346     	 mov r3,r0
 1695              	.L97:
 864:C:/Users/Yushev/git/wpcqi-optiga-trust-charge/optiga/externals/mbedtls/library\ecp.c **** }
 1696              	 .loc 1 864 0
 1697 005a 1846     	 mov r0,r3
 1698 005c 1837     	 adds r7,r7,#24
 1699              	.LCFI103:
 1700              	 .cfi_def_cfa_offset 8
 1701 005e BD46     	 mov sp,r7
 1702              	.LCFI104:
 1703              	 .cfi_def_cfa_register 13
 1704              	 
 1705 0060 80BD     	 pop {r7,pc}
 1706              	.L101:
 1707 0062 00BF     	 .align 2
 1708              	.L100:
 1709 0064 80B0FFFF 	 .word -20352
 1710              	 .cfi_endproc
 1711              	.LFE20:
 1713              	 .section .text.mbedtls_ecp_tls_write_point,"ax",%progbits
 1714              	 .align 2
 1715              	 .global mbedtls_ecp_tls_write_point
 1716              	 .thumb
 1717              	 .thumb_func
 1719              	mbedtls_ecp_tls_write_point:
 1720              	.LFB21:
 865:C:/Users/Yushev/git/wpcqi-optiga-trust-charge/optiga/externals/mbedtls/library\ecp.c **** 
 866:C:/Users/Yushev/git/wpcqi-optiga-trust-charge/optiga/externals/mbedtls/library\ecp.c **** /*
 867:C:/Users/Yushev/git/wpcqi-optiga-trust-charge/optiga/externals/mbedtls/library\ecp.c ****  * Export a point as a TLS ECPoint record (RFC 4492)
 868:C:/Users/Yushev/git/wpcqi-optiga-trust-charge/optiga/externals/mbedtls/library\ecp.c ****  *      struct {
 869:C:/Users/Yushev/git/wpcqi-optiga-trust-charge/optiga/externals/mbedtls/library\ecp.c ****  *          opaque point <1..2^8-1>;
 870:C:/Users/Yushev/git/wpcqi-optiga-trust-charge/optiga/externals/mbedtls/library\ecp.c ****  *      } ECPoint;
 871:C:/Users/Yushev/git/wpcqi-optiga-trust-charge/optiga/externals/mbedtls/library\ecp.c ****  */
 872:C:/Users/Yushev/git/wpcqi-optiga-trust-charge/optiga/externals/mbedtls/library\ecp.c **** int mbedtls_ecp_tls_write_point( const mbedtls_ecp_group *grp, const mbedtls_ecp_point *pt,
 873:C:/Users/Yushev/git/wpcqi-optiga-trust-charge/optiga/externals/mbedtls/library\ecp.c ****                          int format, size_t *olen,
 874:C:/Users/Yushev/git/wpcqi-optiga-trust-charge/optiga/externals/mbedtls/library\ecp.c ****                          unsigned char *buf, size_t blen )
 875:C:/Users/Yushev/git/wpcqi-optiga-trust-charge/optiga/externals/mbedtls/library\ecp.c **** {
 1721              	 .loc 1 875 0
 1722              	 .cfi_startproc
 1723              	 
 1724              	 
 1725 0000 80B5     	 push {r7,lr}
 1726              	.LCFI105:
 1727              	 .cfi_def_cfa_offset 8
 1728              	 .cfi_offset 7,-8
 1729              	 .cfi_offset 14,-4
 1730 0002 88B0     	 sub sp,sp,#32
 1731              	.LCFI106:
 1732              	 .cfi_def_cfa_offset 40
 1733 0004 02AF     	 add r7,sp,#8
 1734              	.LCFI107:
 1735              	 .cfi_def_cfa 7,32
 1736 0006 F860     	 str r0,[r7,#12]
 1737 0008 B960     	 str r1,[r7,#8]
 1738 000a 7A60     	 str r2,[r7,#4]
 1739 000c 3B60     	 str r3,[r7]
 876:C:/Users/Yushev/git/wpcqi-optiga-trust-charge/optiga/externals/mbedtls/library\ecp.c ****     int ret;
 877:C:/Users/Yushev/git/wpcqi-optiga-trust-charge/optiga/externals/mbedtls/library\ecp.c ****     ECP_VALIDATE_RET( grp  != NULL );
 878:C:/Users/Yushev/git/wpcqi-optiga-trust-charge/optiga/externals/mbedtls/library\ecp.c ****     ECP_VALIDATE_RET( pt   != NULL );
 879:C:/Users/Yushev/git/wpcqi-optiga-trust-charge/optiga/externals/mbedtls/library\ecp.c ****     ECP_VALIDATE_RET( olen != NULL );
 880:C:/Users/Yushev/git/wpcqi-optiga-trust-charge/optiga/externals/mbedtls/library\ecp.c ****     ECP_VALIDATE_RET( buf  != NULL );
 881:C:/Users/Yushev/git/wpcqi-optiga-trust-charge/optiga/externals/mbedtls/library\ecp.c ****     ECP_VALIDATE_RET( format == MBEDTLS_ECP_PF_UNCOMPRESSED ||
 882:C:/Users/Yushev/git/wpcqi-optiga-trust-charge/optiga/externals/mbedtls/library\ecp.c ****                       format == MBEDTLS_ECP_PF_COMPRESSED );
 883:C:/Users/Yushev/git/wpcqi-optiga-trust-charge/optiga/externals/mbedtls/library\ecp.c **** 
 884:C:/Users/Yushev/git/wpcqi-optiga-trust-charge/optiga/externals/mbedtls/library\ecp.c ****     /*
 885:C:/Users/Yushev/git/wpcqi-optiga-trust-charge/optiga/externals/mbedtls/library\ecp.c ****      * buffer length must be at least one, for our length byte
 886:C:/Users/Yushev/git/wpcqi-optiga-trust-charge/optiga/externals/mbedtls/library\ecp.c ****      */
 887:C:/Users/Yushev/git/wpcqi-optiga-trust-charge/optiga/externals/mbedtls/library\ecp.c ****     if( blen < 1 )
 1740              	 .loc 1 887 0
 1741 000e 7B6A     	 ldr r3,[r7,#36]
 1742 0010 002B     	 cmp r3,#0
 1743 0012 01D1     	 bne .L103
 888:C:/Users/Yushev/git/wpcqi-optiga-trust-charge/optiga/externals/mbedtls/library\ecp.c ****         return( MBEDTLS_ERR_ECP_BAD_INPUT_DATA );
 1744              	 .loc 1 888 0
 1745 0014 114B     	 ldr r3,.L106
 1746 0016 1CE0     	 b .L104
 1747              	.L103:
 889:C:/Users/Yushev/git/wpcqi-optiga-trust-charge/optiga/externals/mbedtls/library\ecp.c **** 
 890:C:/Users/Yushev/git/wpcqi-optiga-trust-charge/optiga/externals/mbedtls/library\ecp.c ****     if( ( ret = mbedtls_ecp_point_write_binary( grp, pt, format,
 1748              	 .loc 1 890 0
 1749 0018 3B6A     	 ldr r3,[r7,#32]
 1750 001a 5A1C     	 adds r2,r3,#1
 1751 001c 7B6A     	 ldr r3,[r7,#36]
 1752 001e 013B     	 subs r3,r3,#1
 1753 0020 0092     	 str r2,[sp]
 1754 0022 0193     	 str r3,[sp,#4]
 1755 0024 F868     	 ldr r0,[r7,#12]
 1756 0026 B968     	 ldr r1,[r7,#8]
 1757 0028 7A68     	 ldr r2,[r7,#4]
 1758 002a 3B68     	 ldr r3,[r7]
 1759 002c FFF7FEFF 	 bl mbedtls_ecp_point_write_binary
 1760 0030 7861     	 str r0,[r7,#20]
 1761 0032 7B69     	 ldr r3,[r7,#20]
 1762 0034 002B     	 cmp r3,#0
 1763 0036 01D0     	 beq .L105
 891:C:/Users/Yushev/git/wpcqi-optiga-trust-charge/optiga/externals/mbedtls/library\ecp.c ****                     olen, buf + 1, blen - 1) ) != 0 )
 892:C:/Users/Yushev/git/wpcqi-optiga-trust-charge/optiga/externals/mbedtls/library\ecp.c ****         return( ret );
 1764              	 .loc 1 892 0
 1765 0038 7B69     	 ldr r3,[r7,#20]
 1766 003a 0AE0     	 b .L104
 1767              	.L105:
 893:C:/Users/Yushev/git/wpcqi-optiga-trust-charge/optiga/externals/mbedtls/library\ecp.c **** 
 894:C:/Users/Yushev/git/wpcqi-optiga-trust-charge/optiga/externals/mbedtls/library\ecp.c ****     /*
 895:C:/Users/Yushev/git/wpcqi-optiga-trust-charge/optiga/externals/mbedtls/library\ecp.c ****      * write length to the first byte and update total length
 896:C:/Users/Yushev/git/wpcqi-optiga-trust-charge/optiga/externals/mbedtls/library\ecp.c ****      */
 897:C:/Users/Yushev/git/wpcqi-optiga-trust-charge/optiga/externals/mbedtls/library\ecp.c ****     buf[0] = (unsigned char) *olen;
 1768              	 .loc 1 897 0
 1769 003c 3B68     	 ldr r3,[r7]
 1770 003e 1B68     	 ldr r3,[r3]
 1771 0040 DAB2     	 uxtb r2,r3
 1772 0042 3B6A     	 ldr r3,[r7,#32]
 1773 0044 1A70     	 strb r2,[r3]
 898:C:/Users/Yushev/git/wpcqi-optiga-trust-charge/optiga/externals/mbedtls/library\ecp.c ****     ++*olen;
 1774              	 .loc 1 898 0
 1775 0046 3B68     	 ldr r3,[r7]
 1776 0048 1B68     	 ldr r3,[r3]
 1777 004a 5A1C     	 adds r2,r3,#1
 1778 004c 3B68     	 ldr r3,[r7]
 1779 004e 1A60     	 str r2,[r3]
 899:C:/Users/Yushev/git/wpcqi-optiga-trust-charge/optiga/externals/mbedtls/library\ecp.c **** 
 900:C:/Users/Yushev/git/wpcqi-optiga-trust-charge/optiga/externals/mbedtls/library\ecp.c ****     return( 0 );
 1780              	 .loc 1 900 0
 1781 0050 0023     	 movs r3,#0
 1782              	.L104:
 901:C:/Users/Yushev/git/wpcqi-optiga-trust-charge/optiga/externals/mbedtls/library\ecp.c **** }
 1783              	 .loc 1 901 0
 1784 0052 1846     	 mov r0,r3
 1785 0054 1837     	 adds r7,r7,#24
 1786              	.LCFI108:
 1787              	 .cfi_def_cfa_offset 8
 1788 0056 BD46     	 mov sp,r7
 1789              	.LCFI109:
 1790              	 .cfi_def_cfa_register 13
 1791              	 
 1792 0058 80BD     	 pop {r7,pc}
 1793              	.L107:
 1794 005a 00BF     	 .align 2
 1795              	.L106:
 1796 005c 80B0FFFF 	 .word -20352
 1797              	 .cfi_endproc
 1798              	.LFE21:
 1800              	 .section .text.mbedtls_ecp_tls_read_group,"ax",%progbits
 1801              	 .align 2
 1802              	 .global mbedtls_ecp_tls_read_group
 1803              	 .thumb
 1804              	 .thumb_func
 1806              	mbedtls_ecp_tls_read_group:
 1807              	.LFB22:
 902:C:/Users/Yushev/git/wpcqi-optiga-trust-charge/optiga/externals/mbedtls/library\ecp.c **** 
 903:C:/Users/Yushev/git/wpcqi-optiga-trust-charge/optiga/externals/mbedtls/library\ecp.c **** /*
 904:C:/Users/Yushev/git/wpcqi-optiga-trust-charge/optiga/externals/mbedtls/library\ecp.c ****  * Set a group from an ECParameters record (RFC 4492)
 905:C:/Users/Yushev/git/wpcqi-optiga-trust-charge/optiga/externals/mbedtls/library\ecp.c ****  */
 906:C:/Users/Yushev/git/wpcqi-optiga-trust-charge/optiga/externals/mbedtls/library\ecp.c **** int mbedtls_ecp_tls_read_group( mbedtls_ecp_group *grp,
 907:C:/Users/Yushev/git/wpcqi-optiga-trust-charge/optiga/externals/mbedtls/library\ecp.c ****                                 const unsigned char **buf, size_t len )
 908:C:/Users/Yushev/git/wpcqi-optiga-trust-charge/optiga/externals/mbedtls/library\ecp.c **** {
 1808              	 .loc 1 908 0
 1809              	 .cfi_startproc
 1810              	 
 1811              	 
 1812 0000 80B5     	 push {r7,lr}
 1813              	.LCFI110:
 1814              	 .cfi_def_cfa_offset 8
 1815              	 .cfi_offset 7,-8
 1816              	 .cfi_offset 14,-4
 1817 0002 86B0     	 sub sp,sp,#24
 1818              	.LCFI111:
 1819              	 .cfi_def_cfa_offset 32
 1820 0004 00AF     	 add r7,sp,#0
 1821              	.LCFI112:
 1822              	 .cfi_def_cfa_register 7
 1823 0006 F860     	 str r0,[r7,#12]
 1824 0008 B960     	 str r1,[r7,#8]
 1825 000a 7A60     	 str r2,[r7,#4]
 909:C:/Users/Yushev/git/wpcqi-optiga-trust-charge/optiga/externals/mbedtls/library\ecp.c ****     int ret;
 910:C:/Users/Yushev/git/wpcqi-optiga-trust-charge/optiga/externals/mbedtls/library\ecp.c ****     mbedtls_ecp_group_id grp_id;
 911:C:/Users/Yushev/git/wpcqi-optiga-trust-charge/optiga/externals/mbedtls/library\ecp.c ****     ECP_VALIDATE_RET( grp  != NULL );
 912:C:/Users/Yushev/git/wpcqi-optiga-trust-charge/optiga/externals/mbedtls/library\ecp.c ****     ECP_VALIDATE_RET( buf  != NULL );
 913:C:/Users/Yushev/git/wpcqi-optiga-trust-charge/optiga/externals/mbedtls/library\ecp.c ****     ECP_VALIDATE_RET( *buf != NULL );
 914:C:/Users/Yushev/git/wpcqi-optiga-trust-charge/optiga/externals/mbedtls/library\ecp.c **** 
 915:C:/Users/Yushev/git/wpcqi-optiga-trust-charge/optiga/externals/mbedtls/library\ecp.c ****     if( ( ret = mbedtls_ecp_tls_read_group_id( &grp_id, buf, len ) ) != 0 )
 1826              	 .loc 1 915 0
 1827 000c 07F11303 	 add r3,r7,#19
 1828 0010 1846     	 mov r0,r3
 1829 0012 B968     	 ldr r1,[r7,#8]
 1830 0014 7A68     	 ldr r2,[r7,#4]
 1831 0016 FFF7FEFF 	 bl mbedtls_ecp_tls_read_group_id
 1832 001a 7861     	 str r0,[r7,#20]
 1833 001c 7B69     	 ldr r3,[r7,#20]
 1834 001e 002B     	 cmp r3,#0
 1835 0020 01D0     	 beq .L109
 916:C:/Users/Yushev/git/wpcqi-optiga-trust-charge/optiga/externals/mbedtls/library\ecp.c ****         return( ret );
 1836              	 .loc 1 916 0
 1837 0022 7B69     	 ldr r3,[r7,#20]
 1838 0024 05E0     	 b .L111
 1839              	.L109:
 917:C:/Users/Yushev/git/wpcqi-optiga-trust-charge/optiga/externals/mbedtls/library\ecp.c **** 
 918:C:/Users/Yushev/git/wpcqi-optiga-trust-charge/optiga/externals/mbedtls/library\ecp.c ****     return( mbedtls_ecp_group_load( grp, grp_id ) );
 1840              	 .loc 1 918 0
 1841 0026 FB7C     	 ldrb r3,[r7,#19]
 1842 0028 F868     	 ldr r0,[r7,#12]
 1843 002a 1946     	 mov r1,r3
 1844 002c FFF7FEFF 	 bl mbedtls_ecp_group_load
 1845 0030 0346     	 mov r3,r0
 1846              	.L111:
 919:C:/Users/Yushev/git/wpcqi-optiga-trust-charge/optiga/externals/mbedtls/library\ecp.c **** }
 1847              	 .loc 1 919 0 discriminator 1
 1848 0032 1846     	 mov r0,r3
 1849 0034 1837     	 adds r7,r7,#24
 1850              	.LCFI113:
 1851              	 .cfi_def_cfa_offset 8
 1852 0036 BD46     	 mov sp,r7
 1853              	.LCFI114:
 1854              	 .cfi_def_cfa_register 13
 1855              	 
 1856 0038 80BD     	 pop {r7,pc}
 1857              	 .cfi_endproc
 1858              	.LFE22:
 1860 003a 00BF     	 .section .text.mbedtls_ecp_tls_read_group_id,"ax",%progbits
 1861              	 .align 2
 1862              	 .global mbedtls_ecp_tls_read_group_id
 1863              	 .thumb
 1864              	 .thumb_func
 1866              	mbedtls_ecp_tls_read_group_id:
 1867              	.LFB23:
 920:C:/Users/Yushev/git/wpcqi-optiga-trust-charge/optiga/externals/mbedtls/library\ecp.c **** 
 921:C:/Users/Yushev/git/wpcqi-optiga-trust-charge/optiga/externals/mbedtls/library\ecp.c **** /*
 922:C:/Users/Yushev/git/wpcqi-optiga-trust-charge/optiga/externals/mbedtls/library\ecp.c ****  * Read a group id from an ECParameters record (RFC 4492) and convert it to
 923:C:/Users/Yushev/git/wpcqi-optiga-trust-charge/optiga/externals/mbedtls/library\ecp.c ****  * mbedtls_ecp_group_id.
 924:C:/Users/Yushev/git/wpcqi-optiga-trust-charge/optiga/externals/mbedtls/library\ecp.c ****  */
 925:C:/Users/Yushev/git/wpcqi-optiga-trust-charge/optiga/externals/mbedtls/library\ecp.c **** int mbedtls_ecp_tls_read_group_id( mbedtls_ecp_group_id *grp,
 926:C:/Users/Yushev/git/wpcqi-optiga-trust-charge/optiga/externals/mbedtls/library\ecp.c ****                                    const unsigned char **buf, size_t len )
 927:C:/Users/Yushev/git/wpcqi-optiga-trust-charge/optiga/externals/mbedtls/library\ecp.c **** {
 1868              	 .loc 1 927 0
 1869              	 .cfi_startproc
 1870              	 
 1871              	 
 1872 0000 80B5     	 push {r7,lr}
 1873              	.LCFI115:
 1874              	 .cfi_def_cfa_offset 8
 1875              	 .cfi_offset 7,-8
 1876              	 .cfi_offset 14,-4
 1877 0002 86B0     	 sub sp,sp,#24
 1878              	.LCFI116:
 1879              	 .cfi_def_cfa_offset 32
 1880 0004 00AF     	 add r7,sp,#0
 1881              	.LCFI117:
 1882              	 .cfi_def_cfa_register 7
 1883 0006 F860     	 str r0,[r7,#12]
 1884 0008 B960     	 str r1,[r7,#8]
 1885 000a 7A60     	 str r2,[r7,#4]
 928:C:/Users/Yushev/git/wpcqi-optiga-trust-charge/optiga/externals/mbedtls/library\ecp.c ****     uint16_t tls_id;
 929:C:/Users/Yushev/git/wpcqi-optiga-trust-charge/optiga/externals/mbedtls/library\ecp.c ****     const mbedtls_ecp_curve_info *curve_info;
 930:C:/Users/Yushev/git/wpcqi-optiga-trust-charge/optiga/externals/mbedtls/library\ecp.c ****     ECP_VALIDATE_RET( grp  != NULL );
 931:C:/Users/Yushev/git/wpcqi-optiga-trust-charge/optiga/externals/mbedtls/library\ecp.c ****     ECP_VALIDATE_RET( buf  != NULL );
 932:C:/Users/Yushev/git/wpcqi-optiga-trust-charge/optiga/externals/mbedtls/library\ecp.c ****     ECP_VALIDATE_RET( *buf != NULL );
 933:C:/Users/Yushev/git/wpcqi-optiga-trust-charge/optiga/externals/mbedtls/library\ecp.c **** 
 934:C:/Users/Yushev/git/wpcqi-optiga-trust-charge/optiga/externals/mbedtls/library\ecp.c ****     /*
 935:C:/Users/Yushev/git/wpcqi-optiga-trust-charge/optiga/externals/mbedtls/library\ecp.c ****      * We expect at least three bytes (see below)
 936:C:/Users/Yushev/git/wpcqi-optiga-trust-charge/optiga/externals/mbedtls/library\ecp.c ****      */
 937:C:/Users/Yushev/git/wpcqi-optiga-trust-charge/optiga/externals/mbedtls/library\ecp.c ****     if( len < 3 )
 1886              	 .loc 1 937 0
 1887 000c 7B68     	 ldr r3,[r7,#4]
 1888 000e 022B     	 cmp r3,#2
 1889 0010 01D8     	 bhi .L113
 938:C:/Users/Yushev/git/wpcqi-optiga-trust-charge/optiga/externals/mbedtls/library\ecp.c ****         return( MBEDTLS_ERR_ECP_BAD_INPUT_DATA );
 1890              	 .loc 1 938 0
 1891 0012 194B     	 ldr r3,.L117
 1892 0014 2CE0     	 b .L114
 1893              	.L113:
 939:C:/Users/Yushev/git/wpcqi-optiga-trust-charge/optiga/externals/mbedtls/library\ecp.c **** 
 940:C:/Users/Yushev/git/wpcqi-optiga-trust-charge/optiga/externals/mbedtls/library\ecp.c ****     /*
 941:C:/Users/Yushev/git/wpcqi-optiga-trust-charge/optiga/externals/mbedtls/library\ecp.c ****      * First byte is curve_type; only named_curve is handled
 942:C:/Users/Yushev/git/wpcqi-optiga-trust-charge/optiga/externals/mbedtls/library\ecp.c ****      */
 943:C:/Users/Yushev/git/wpcqi-optiga-trust-charge/optiga/externals/mbedtls/library\ecp.c ****     if( *(*buf)++ != MBEDTLS_ECP_TLS_NAMED_CURVE )
 1894              	 .loc 1 943 0
 1895 0016 BB68     	 ldr r3,[r7,#8]
 1896 0018 1B68     	 ldr r3,[r3]
 1897 001a 591C     	 adds r1,r3,#1
 1898 001c BA68     	 ldr r2,[r7,#8]
 1899 001e 1160     	 str r1,[r2]
 1900 0020 1B78     	 ldrb r3,[r3]
 1901 0022 032B     	 cmp r3,#3
 1902 0024 01D0     	 beq .L115
 944:C:/Users/Yushev/git/wpcqi-optiga-trust-charge/optiga/externals/mbedtls/library\ecp.c ****         return( MBEDTLS_ERR_ECP_BAD_INPUT_DATA );
 1903              	 .loc 1 944 0
 1904 0026 144B     	 ldr r3,.L117
 1905 0028 22E0     	 b .L114
 1906              	.L115:
 945:C:/Users/Yushev/git/wpcqi-optiga-trust-charge/optiga/externals/mbedtls/library\ecp.c **** 
 946:C:/Users/Yushev/git/wpcqi-optiga-trust-charge/optiga/externals/mbedtls/library\ecp.c ****     /*
 947:C:/Users/Yushev/git/wpcqi-optiga-trust-charge/optiga/externals/mbedtls/library\ecp.c ****      * Next two bytes are the namedcurve value
 948:C:/Users/Yushev/git/wpcqi-optiga-trust-charge/optiga/externals/mbedtls/library\ecp.c ****      */
 949:C:/Users/Yushev/git/wpcqi-optiga-trust-charge/optiga/externals/mbedtls/library\ecp.c ****     tls_id = *(*buf)++;
 1907              	 .loc 1 949 0
 1908 002a BB68     	 ldr r3,[r7,#8]
 1909 002c 1B68     	 ldr r3,[r3]
 1910 002e 591C     	 adds r1,r3,#1
 1911 0030 BA68     	 ldr r2,[r7,#8]
 1912 0032 1160     	 str r1,[r2]
 1913 0034 1B78     	 ldrb r3,[r3]
 1914 0036 FB82     	 strh r3,[r7,#22]
 950:C:/Users/Yushev/git/wpcqi-optiga-trust-charge/optiga/externals/mbedtls/library\ecp.c ****     tls_id <<= 8;
 1915              	 .loc 1 950 0
 1916 0038 FB8A     	 ldrh r3,[r7,#22]
 1917 003a 1B02     	 lsls r3,r3,#8
 1918 003c FB82     	 strh r3,[r7,#22]
 951:C:/Users/Yushev/git/wpcqi-optiga-trust-charge/optiga/externals/mbedtls/library\ecp.c ****     tls_id |= *(*buf)++;
 1919              	 .loc 1 951 0
 1920 003e BB68     	 ldr r3,[r7,#8]
 1921 0040 1B68     	 ldr r3,[r3]
 1922 0042 591C     	 adds r1,r3,#1
 1923 0044 BA68     	 ldr r2,[r7,#8]
 1924 0046 1160     	 str r1,[r2]
 1925 0048 1B78     	 ldrb r3,[r3]
 1926 004a 9AB2     	 uxth r2,r3
 1927 004c FB8A     	 ldrh r3,[r7,#22]
 1928 004e 1343     	 orrs r3,r3,r2
 1929 0050 FB82     	 strh r3,[r7,#22]
 952:C:/Users/Yushev/git/wpcqi-optiga-trust-charge/optiga/externals/mbedtls/library\ecp.c **** 
 953:C:/Users/Yushev/git/wpcqi-optiga-trust-charge/optiga/externals/mbedtls/library\ecp.c ****     if( ( curve_info = mbedtls_ecp_curve_info_from_tls_id( tls_id ) ) == NULL )
 1930              	 .loc 1 953 0
 1931 0052 FB8A     	 ldrh r3,[r7,#22]
 1932 0054 1846     	 mov r0,r3
 1933 0056 FFF7FEFF 	 bl mbedtls_ecp_curve_info_from_tls_id
 1934 005a 3861     	 str r0,[r7,#16]
 1935 005c 3B69     	 ldr r3,[r7,#16]
 1936 005e 002B     	 cmp r3,#0
 1937 0060 01D1     	 bne .L116
 954:C:/Users/Yushev/git/wpcqi-optiga-trust-charge/optiga/externals/mbedtls/library\ecp.c ****         return( MBEDTLS_ERR_ECP_FEATURE_UNAVAILABLE );
 1938              	 .loc 1 954 0
 1939 0062 064B     	 ldr r3,.L117+4
 1940 0064 04E0     	 b .L114
 1941              	.L116:
 955:C:/Users/Yushev/git/wpcqi-optiga-trust-charge/optiga/externals/mbedtls/library\ecp.c **** 
 956:C:/Users/Yushev/git/wpcqi-optiga-trust-charge/optiga/externals/mbedtls/library\ecp.c ****     *grp = curve_info->grp_id;
 1942              	 .loc 1 956 0
 1943 0066 3B69     	 ldr r3,[r7,#16]
 1944 0068 1A78     	 ldrb r2,[r3]
 1945 006a FB68     	 ldr r3,[r7,#12]
 1946 006c 1A70     	 strb r2,[r3]
 957:C:/Users/Yushev/git/wpcqi-optiga-trust-charge/optiga/externals/mbedtls/library\ecp.c **** 
 958:C:/Users/Yushev/git/wpcqi-optiga-trust-charge/optiga/externals/mbedtls/library\ecp.c ****     return( 0 );
 1947              	 .loc 1 958 0
 1948 006e 0023     	 movs r3,#0
 1949              	.L114:
 959:C:/Users/Yushev/git/wpcqi-optiga-trust-charge/optiga/externals/mbedtls/library\ecp.c **** }
 1950              	 .loc 1 959 0
 1951 0070 1846     	 mov r0,r3
 1952 0072 1837     	 adds r7,r7,#24
 1953              	.LCFI118:
 1954              	 .cfi_def_cfa_offset 8
 1955 0074 BD46     	 mov sp,r7
 1956              	.LCFI119:
 1957              	 .cfi_def_cfa_register 13
 1958              	 
 1959 0076 80BD     	 pop {r7,pc}
 1960              	.L118:
 1961              	 .align 2
 1962              	.L117:
 1963 0078 80B0FFFF 	 .word -20352
 1964 007c 80B1FFFF 	 .word -20096
 1965              	 .cfi_endproc
 1966              	.LFE23:
 1968              	 .section .text.mbedtls_ecp_tls_write_group,"ax",%progbits
 1969              	 .align 2
 1970              	 .global mbedtls_ecp_tls_write_group
 1971              	 .thumb
 1972              	 .thumb_func
 1974              	mbedtls_ecp_tls_write_group:
 1975              	.LFB24:
 960:C:/Users/Yushev/git/wpcqi-optiga-trust-charge/optiga/externals/mbedtls/library\ecp.c **** 
 961:C:/Users/Yushev/git/wpcqi-optiga-trust-charge/optiga/externals/mbedtls/library\ecp.c **** /*
 962:C:/Users/Yushev/git/wpcqi-optiga-trust-charge/optiga/externals/mbedtls/library\ecp.c ****  * Write the ECParameters record corresponding to a group (RFC 4492)
 963:C:/Users/Yushev/git/wpcqi-optiga-trust-charge/optiga/externals/mbedtls/library\ecp.c ****  */
 964:C:/Users/Yushev/git/wpcqi-optiga-trust-charge/optiga/externals/mbedtls/library\ecp.c **** int mbedtls_ecp_tls_write_group( const mbedtls_ecp_group *grp, size_t *olen,
 965:C:/Users/Yushev/git/wpcqi-optiga-trust-charge/optiga/externals/mbedtls/library\ecp.c ****                          unsigned char *buf, size_t blen )
 966:C:/Users/Yushev/git/wpcqi-optiga-trust-charge/optiga/externals/mbedtls/library\ecp.c **** {
 1976              	 .loc 1 966 0
 1977              	 .cfi_startproc
 1978              	 
 1979              	 
 1980 0000 80B5     	 push {r7,lr}
 1981              	.LCFI120:
 1982              	 .cfi_def_cfa_offset 8
 1983              	 .cfi_offset 7,-8
 1984              	 .cfi_offset 14,-4
 1985 0002 86B0     	 sub sp,sp,#24
 1986              	.LCFI121:
 1987              	 .cfi_def_cfa_offset 32
 1988 0004 00AF     	 add r7,sp,#0
 1989              	.LCFI122:
 1990              	 .cfi_def_cfa_register 7
 1991 0006 F860     	 str r0,[r7,#12]
 1992 0008 B960     	 str r1,[r7,#8]
 1993 000a 7A60     	 str r2,[r7,#4]
 1994 000c 3B60     	 str r3,[r7]
 967:C:/Users/Yushev/git/wpcqi-optiga-trust-charge/optiga/externals/mbedtls/library\ecp.c ****     const mbedtls_ecp_curve_info *curve_info;
 968:C:/Users/Yushev/git/wpcqi-optiga-trust-charge/optiga/externals/mbedtls/library\ecp.c ****     ECP_VALIDATE_RET( grp  != NULL );
 969:C:/Users/Yushev/git/wpcqi-optiga-trust-charge/optiga/externals/mbedtls/library\ecp.c ****     ECP_VALIDATE_RET( buf  != NULL );
 970:C:/Users/Yushev/git/wpcqi-optiga-trust-charge/optiga/externals/mbedtls/library\ecp.c ****     ECP_VALIDATE_RET( olen != NULL );
 971:C:/Users/Yushev/git/wpcqi-optiga-trust-charge/optiga/externals/mbedtls/library\ecp.c **** 
 972:C:/Users/Yushev/git/wpcqi-optiga-trust-charge/optiga/externals/mbedtls/library\ecp.c ****     if( ( curve_info = mbedtls_ecp_curve_info_from_grp_id( grp->id ) ) == NULL )
 1995              	 .loc 1 972 0
 1996 000e FB68     	 ldr r3,[r7,#12]
 1997 0010 1B78     	 ldrb r3,[r3]
 1998 0012 1846     	 mov r0,r3
 1999 0014 FFF7FEFF 	 bl mbedtls_ecp_curve_info_from_grp_id
 2000 0018 7861     	 str r0,[r7,#20]
 2001 001a 7B69     	 ldr r3,[r7,#20]
 2002 001c 002B     	 cmp r3,#0
 2003 001e 01D1     	 bne .L120
 973:C:/Users/Yushev/git/wpcqi-optiga-trust-charge/optiga/externals/mbedtls/library\ecp.c ****         return( MBEDTLS_ERR_ECP_BAD_INPUT_DATA );
 2004              	 .loc 1 973 0
 2005 0020 114B     	 ldr r3,.L123
 2006 0022 1CE0     	 b .L121
 2007              	.L120:
 974:C:/Users/Yushev/git/wpcqi-optiga-trust-charge/optiga/externals/mbedtls/library\ecp.c **** 
 975:C:/Users/Yushev/git/wpcqi-optiga-trust-charge/optiga/externals/mbedtls/library\ecp.c ****     /*
 976:C:/Users/Yushev/git/wpcqi-optiga-trust-charge/optiga/externals/mbedtls/library\ecp.c ****      * We are going to write 3 bytes (see below)
 977:C:/Users/Yushev/git/wpcqi-optiga-trust-charge/optiga/externals/mbedtls/library\ecp.c ****      */
 978:C:/Users/Yushev/git/wpcqi-optiga-trust-charge/optiga/externals/mbedtls/library\ecp.c ****     *olen = 3;
 2008              	 .loc 1 978 0
 2009 0024 BB68     	 ldr r3,[r7,#8]
 2010 0026 0322     	 movs r2,#3
 2011 0028 1A60     	 str r2,[r3]
 979:C:/Users/Yushev/git/wpcqi-optiga-trust-charge/optiga/externals/mbedtls/library\ecp.c ****     if( blen < *olen )
 2012              	 .loc 1 979 0
 2013 002a BB68     	 ldr r3,[r7,#8]
 2014 002c 1A68     	 ldr r2,[r3]
 2015 002e 3B68     	 ldr r3,[r7]
 2016 0030 9A42     	 cmp r2,r3
 2017 0032 01D9     	 bls .L122
 980:C:/Users/Yushev/git/wpcqi-optiga-trust-charge/optiga/externals/mbedtls/library\ecp.c ****         return( MBEDTLS_ERR_ECP_BUFFER_TOO_SMALL );
 2018              	 .loc 1 980 0
 2019 0034 0D4B     	 ldr r3,.L123+4
 2020 0036 12E0     	 b .L121
 2021              	.L122:
 981:C:/Users/Yushev/git/wpcqi-optiga-trust-charge/optiga/externals/mbedtls/library\ecp.c **** 
 982:C:/Users/Yushev/git/wpcqi-optiga-trust-charge/optiga/externals/mbedtls/library\ecp.c ****     /*
 983:C:/Users/Yushev/git/wpcqi-optiga-trust-charge/optiga/externals/mbedtls/library\ecp.c ****      * First byte is curve_type, always named_curve
 984:C:/Users/Yushev/git/wpcqi-optiga-trust-charge/optiga/externals/mbedtls/library\ecp.c ****      */
 985:C:/Users/Yushev/git/wpcqi-optiga-trust-charge/optiga/externals/mbedtls/library\ecp.c ****     *buf++ = MBEDTLS_ECP_TLS_NAMED_CURVE;
 2022              	 .loc 1 985 0
 2023 0038 7B68     	 ldr r3,[r7,#4]
 2024 003a 5A1C     	 adds r2,r3,#1
 2025 003c 7A60     	 str r2,[r7,#4]
 2026 003e 0322     	 movs r2,#3
 2027 0040 1A70     	 strb r2,[r3]
 986:C:/Users/Yushev/git/wpcqi-optiga-trust-charge/optiga/externals/mbedtls/library\ecp.c **** 
 987:C:/Users/Yushev/git/wpcqi-optiga-trust-charge/optiga/externals/mbedtls/library\ecp.c ****     /*
 988:C:/Users/Yushev/git/wpcqi-optiga-trust-charge/optiga/externals/mbedtls/library\ecp.c ****      * Next two bytes are the namedcurve value
 989:C:/Users/Yushev/git/wpcqi-optiga-trust-charge/optiga/externals/mbedtls/library\ecp.c ****      */
 990:C:/Users/Yushev/git/wpcqi-optiga-trust-charge/optiga/externals/mbedtls/library\ecp.c ****     buf[0] = curve_info->tls_id >> 8;
 2028              	 .loc 1 990 0
 2029 0042 7B69     	 ldr r3,[r7,#20]
 2030 0044 5B88     	 ldrh r3,[r3,#2]
 2031 0046 1B0A     	 lsrs r3,r3,#8
 2032 0048 9BB2     	 uxth r3,r3
 2033 004a DAB2     	 uxtb r2,r3
 2034 004c 7B68     	 ldr r3,[r7,#4]
 2035 004e 1A70     	 strb r2,[r3]
 991:C:/Users/Yushev/git/wpcqi-optiga-trust-charge/optiga/externals/mbedtls/library\ecp.c ****     buf[1] = curve_info->tls_id & 0xFF;
 2036              	 .loc 1 991 0
 2037 0050 7B68     	 ldr r3,[r7,#4]
 2038 0052 0133     	 adds r3,r3,#1
 2039 0054 7A69     	 ldr r2,[r7,#20]
 2040 0056 5288     	 ldrh r2,[r2,#2]
 2041 0058 D2B2     	 uxtb r2,r2
 2042 005a 1A70     	 strb r2,[r3]
 992:C:/Users/Yushev/git/wpcqi-optiga-trust-charge/optiga/externals/mbedtls/library\ecp.c **** 
 993:C:/Users/Yushev/git/wpcqi-optiga-trust-charge/optiga/externals/mbedtls/library\ecp.c ****     return( 0 );
 2043              	 .loc 1 993 0
 2044 005c 0023     	 movs r3,#0
 2045              	.L121:
 994:C:/Users/Yushev/git/wpcqi-optiga-trust-charge/optiga/externals/mbedtls/library\ecp.c **** }
 2046              	 .loc 1 994 0
 2047 005e 1846     	 mov r0,r3
 2048 0060 1837     	 adds r7,r7,#24
 2049              	.LCFI123:
 2050              	 .cfi_def_cfa_offset 8
 2051 0062 BD46     	 mov sp,r7
 2052              	.LCFI124:
 2053              	 .cfi_def_cfa_register 13
 2054              	 
 2055 0064 80BD     	 pop {r7,pc}
 2056              	.L124:
 2057 0066 00BF     	 .align 2
 2058              	.L123:
 2059 0068 80B0FFFF 	 .word -20352
 2060 006c 00B1FFFF 	 .word -20224
 2061              	 .cfi_endproc
 2062              	.LFE24:
 2064              	 .section .text.ecp_modp,"ax",%progbits
 2065              	 .align 2
 2066              	 .thumb
 2067              	 .thumb_func
 2069              	ecp_modp:
 2070              	.LFB25:
 995:C:/Users/Yushev/git/wpcqi-optiga-trust-charge/optiga/externals/mbedtls/library\ecp.c **** 
 996:C:/Users/Yushev/git/wpcqi-optiga-trust-charge/optiga/externals/mbedtls/library\ecp.c **** /*
 997:C:/Users/Yushev/git/wpcqi-optiga-trust-charge/optiga/externals/mbedtls/library\ecp.c ****  * Wrapper around fast quasi-modp functions, with fall-back to mbedtls_mpi_mod_mpi.
 998:C:/Users/Yushev/git/wpcqi-optiga-trust-charge/optiga/externals/mbedtls/library\ecp.c ****  * See the documentation of struct mbedtls_ecp_group.
 999:C:/Users/Yushev/git/wpcqi-optiga-trust-charge/optiga/externals/mbedtls/library\ecp.c ****  *
1000:C:/Users/Yushev/git/wpcqi-optiga-trust-charge/optiga/externals/mbedtls/library\ecp.c ****  * This function is in the critial loop for mbedtls_ecp_mul, so pay attention to perf.
1001:C:/Users/Yushev/git/wpcqi-optiga-trust-charge/optiga/externals/mbedtls/library\ecp.c ****  */
1002:C:/Users/Yushev/git/wpcqi-optiga-trust-charge/optiga/externals/mbedtls/library\ecp.c **** static int ecp_modp( mbedtls_mpi *N, const mbedtls_ecp_group *grp )
1003:C:/Users/Yushev/git/wpcqi-optiga-trust-charge/optiga/externals/mbedtls/library\ecp.c **** {
 2071              	 .loc 1 1003 0
 2072              	 .cfi_startproc
 2073              	 
 2074              	 
 2075 0000 80B5     	 push {r7,lr}
 2076              	.LCFI125:
 2077              	 .cfi_def_cfa_offset 8
 2078              	 .cfi_offset 7,-8
 2079              	 .cfi_offset 14,-4
 2080 0002 84B0     	 sub sp,sp,#16
 2081              	.LCFI126:
 2082              	 .cfi_def_cfa_offset 24
 2083 0004 00AF     	 add r7,sp,#0
 2084              	.LCFI127:
 2085              	 .cfi_def_cfa_register 7
 2086 0006 7860     	 str r0,[r7,#4]
 2087 0008 3960     	 str r1,[r7]
1004:C:/Users/Yushev/git/wpcqi-optiga-trust-charge/optiga/externals/mbedtls/library\ecp.c ****     int ret;
1005:C:/Users/Yushev/git/wpcqi-optiga-trust-charge/optiga/externals/mbedtls/library\ecp.c **** 
1006:C:/Users/Yushev/git/wpcqi-optiga-trust-charge/optiga/externals/mbedtls/library\ecp.c ****     if( grp->modp == NULL )
 2088              	 .loc 1 1006 0
 2089 000a 3B68     	 ldr r3,[r7]
 2090 000c 5B6E     	 ldr r3,[r3,#100]
 2091 000e 002B     	 cmp r3,#0
 2092 0010 08D1     	 bne .L126
1007:C:/Users/Yushev/git/wpcqi-optiga-trust-charge/optiga/externals/mbedtls/library\ecp.c ****         return( mbedtls_mpi_mod_mpi( N, N, &grp->P ) );
 2093              	 .loc 1 1007 0
 2094 0012 3B68     	 ldr r3,[r7]
 2095 0014 0433     	 adds r3,r3,#4
 2096 0016 7868     	 ldr r0,[r7,#4]
 2097 0018 7968     	 ldr r1,[r7,#4]
 2098 001a 1A46     	 mov r2,r3
 2099 001c FFF7FEFF 	 bl mbedtls_mpi_mod_mpi
 2100 0020 0346     	 mov r3,r0
 2101 0022 4DE0     	 b .L127
 2102              	.L126:
1008:C:/Users/Yushev/git/wpcqi-optiga-trust-charge/optiga/externals/mbedtls/library\ecp.c **** 
1009:C:/Users/Yushev/git/wpcqi-optiga-trust-charge/optiga/externals/mbedtls/library\ecp.c ****     /* N->s < 0 is a much faster test, which fails only if N is 0 */
1010:C:/Users/Yushev/git/wpcqi-optiga-trust-charge/optiga/externals/mbedtls/library\ecp.c ****     if( ( N->s < 0 && mbedtls_mpi_cmp_int( N, 0 ) != 0 ) ||
 2103              	 .loc 1 1010 0
 2104 0024 7B68     	 ldr r3,[r7,#4]
 2105 0026 1B68     	 ldr r3,[r3]
 2106 0028 002B     	 cmp r3,#0
 2107 002a 06DA     	 bge .L128
 2108              	 .loc 1 1010 0 is_stmt 0 discriminator 1
 2109 002c 7868     	 ldr r0,[r7,#4]
 2110 002e 0021     	 movs r1,#0
 2111 0030 FFF7FEFF 	 bl mbedtls_mpi_cmp_int
 2112 0034 0346     	 mov r3,r0
 2113 0036 002B     	 cmp r3,#0
 2114 0038 08D1     	 bne .L129
 2115              	.L128:
1011:C:/Users/Yushev/git/wpcqi-optiga-trust-charge/optiga/externals/mbedtls/library\ecp.c ****         mbedtls_mpi_bitlen( N ) > 2 * grp->pbits )
 2116              	 .loc 1 1011 0 is_stmt 1 discriminator 3
 2117 003a 7868     	 ldr r0,[r7,#4]
 2118 003c FFF7FEFF 	 bl mbedtls_mpi_bitlen
 2119 0040 0246     	 mov r2,r0
 2120 0042 3B68     	 ldr r3,[r7]
 2121 0044 9B6D     	 ldr r3,[r3,#88]
 2122 0046 5B00     	 lsls r3,r3,#1
1010:C:/Users/Yushev/git/wpcqi-optiga-trust-charge/optiga/externals/mbedtls/library\ecp.c ****         mbedtls_mpi_bitlen( N ) > 2 * grp->pbits )
 2123              	 .loc 1 1010 0 discriminator 3
 2124 0048 9A42     	 cmp r2,r3
 2125 004a 01D9     	 bls .L130
 2126              	.L129:
1012:C:/Users/Yushev/git/wpcqi-optiga-trust-charge/optiga/externals/mbedtls/library\ecp.c ****     {
1013:C:/Users/Yushev/git/wpcqi-optiga-trust-charge/optiga/externals/mbedtls/library\ecp.c ****         return( MBEDTLS_ERR_ECP_BAD_INPUT_DATA );
 2127              	 .loc 1 1013 0
 2128 004c 1E4B     	 ldr r3,.L138
 2129 004e 37E0     	 b .L127
 2130              	.L130:
1014:C:/Users/Yushev/git/wpcqi-optiga-trust-charge/optiga/externals/mbedtls/library\ecp.c ****     }
1015:C:/Users/Yushev/git/wpcqi-optiga-trust-charge/optiga/externals/mbedtls/library\ecp.c **** 
1016:C:/Users/Yushev/git/wpcqi-optiga-trust-charge/optiga/externals/mbedtls/library\ecp.c ****     MBEDTLS_MPI_CHK( grp->modp( N ) );
 2131              	 .loc 1 1016 0
 2132 0050 3B68     	 ldr r3,[r7]
 2133 0052 5B6E     	 ldr r3,[r3,#100]
 2134 0054 7868     	 ldr r0,[r7,#4]
 2135 0056 9847     	 blx r3
 2136 0058 F860     	 str r0,[r7,#12]
 2137 005a FB68     	 ldr r3,[r7,#12]
 2138 005c 002B     	 cmp r3,#0
 2139 005e 00D0     	 beq .L131
 2140 0060 2DE0     	 b .L132
 2141              	.L131:
1017:C:/Users/Yushev/git/wpcqi-optiga-trust-charge/optiga/externals/mbedtls/library\ecp.c **** 
1018:C:/Users/Yushev/git/wpcqi-optiga-trust-charge/optiga/externals/mbedtls/library\ecp.c ****     /* N->s < 0 is a much faster test, which fails only if N is 0 */
1019:C:/Users/Yushev/git/wpcqi-optiga-trust-charge/optiga/externals/mbedtls/library\ecp.c ****     while( N->s < 0 && mbedtls_mpi_cmp_int( N, 0 ) != 0 )
 2142              	 .loc 1 1019 0
 2143 0062 0BE0     	 b .L133
 2144              	.L135:
1020:C:/Users/Yushev/git/wpcqi-optiga-trust-charge/optiga/externals/mbedtls/library\ecp.c ****         MBEDTLS_MPI_CHK( mbedtls_mpi_add_mpi( N, N, &grp->P ) );
 2145              	 .loc 1 1020 0
 2146 0064 3B68     	 ldr r3,[r7]
 2147 0066 0433     	 adds r3,r3,#4
 2148 0068 7868     	 ldr r0,[r7,#4]
 2149 006a 7968     	 ldr r1,[r7,#4]
 2150 006c 1A46     	 mov r2,r3
 2151 006e FFF7FEFF 	 bl mbedtls_mpi_add_mpi
 2152 0072 F860     	 str r0,[r7,#12]
 2153 0074 FB68     	 ldr r3,[r7,#12]
 2154 0076 002B     	 cmp r3,#0
 2155 0078 00D0     	 beq .L133
 2156 007a 20E0     	 b .L132
 2157              	.L133:
1019:C:/Users/Yushev/git/wpcqi-optiga-trust-charge/optiga/externals/mbedtls/library\ecp.c ****         MBEDTLS_MPI_CHK( mbedtls_mpi_add_mpi( N, N, &grp->P ) );
 2158              	 .loc 1 1019 0
 2159 007c 7B68     	 ldr r3,[r7,#4]
 2160 007e 1B68     	 ldr r3,[r3]
 2161 0080 002B     	 cmp r3,#0
 2162 0082 06DA     	 bge .L134
1019:C:/Users/Yushev/git/wpcqi-optiga-trust-charge/optiga/externals/mbedtls/library\ecp.c ****         MBEDTLS_MPI_CHK( mbedtls_mpi_add_mpi( N, N, &grp->P ) );
 2163              	 .loc 1 1019 0 is_stmt 0 discriminator 1
 2164 0084 7868     	 ldr r0,[r7,#4]
 2165 0086 0021     	 movs r1,#0
 2166 0088 FFF7FEFF 	 bl mbedtls_mpi_cmp_int
 2167 008c 0346     	 mov r3,r0
 2168 008e 002B     	 cmp r3,#0
 2169 0090 E8D1     	 bne .L135
 2170              	.L134:
1021:C:/Users/Yushev/git/wpcqi-optiga-trust-charge/optiga/externals/mbedtls/library\ecp.c **** 
1022:C:/Users/Yushev/git/wpcqi-optiga-trust-charge/optiga/externals/mbedtls/library\ecp.c ****     while( mbedtls_mpi_cmp_mpi( N, &grp->P ) >= 0 )
 2171              	 .loc 1 1022 0 is_stmt 1
 2172 0092 0BE0     	 b .L136
 2173              	.L137:
1023:C:/Users/Yushev/git/wpcqi-optiga-trust-charge/optiga/externals/mbedtls/library\ecp.c ****         /* we known P, N and the result are positive */
1024:C:/Users/Yushev/git/wpcqi-optiga-trust-charge/optiga/externals/mbedtls/library\ecp.c ****         MBEDTLS_MPI_CHK( mbedtls_mpi_sub_abs( N, N, &grp->P ) );
 2174              	 .loc 1 1024 0
 2175 0094 3B68     	 ldr r3,[r7]
 2176 0096 0433     	 adds r3,r3,#4
 2177 0098 7868     	 ldr r0,[r7,#4]
 2178 009a 7968     	 ldr r1,[r7,#4]
 2179 009c 1A46     	 mov r2,r3
 2180 009e FFF7FEFF 	 bl mbedtls_mpi_sub_abs
 2181 00a2 F860     	 str r0,[r7,#12]
 2182 00a4 FB68     	 ldr r3,[r7,#12]
 2183 00a6 002B     	 cmp r3,#0
 2184 00a8 00D0     	 beq .L136
 2185 00aa 08E0     	 b .L132
 2186              	.L136:
1022:C:/Users/Yushev/git/wpcqi-optiga-trust-charge/optiga/externals/mbedtls/library\ecp.c ****         /* we known P, N and the result are positive */
 2187              	 .loc 1 1022 0
 2188 00ac 3B68     	 ldr r3,[r7]
 2189 00ae 0433     	 adds r3,r3,#4
 2190 00b0 7868     	 ldr r0,[r7,#4]
 2191 00b2 1946     	 mov r1,r3
 2192 00b4 FFF7FEFF 	 bl mbedtls_mpi_cmp_mpi
 2193 00b8 0346     	 mov r3,r0
 2194 00ba 002B     	 cmp r3,#0
 2195 00bc EADA     	 bge .L137
 2196              	.L132:
1025:C:/Users/Yushev/git/wpcqi-optiga-trust-charge/optiga/externals/mbedtls/library\ecp.c **** 
1026:C:/Users/Yushev/git/wpcqi-optiga-trust-charge/optiga/externals/mbedtls/library\ecp.c **** cleanup:
1027:C:/Users/Yushev/git/wpcqi-optiga-trust-charge/optiga/externals/mbedtls/library\ecp.c ****     return( ret );
 2197              	 .loc 1 1027 0
 2198 00be FB68     	 ldr r3,[r7,#12]
 2199              	.L127:
1028:C:/Users/Yushev/git/wpcqi-optiga-trust-charge/optiga/externals/mbedtls/library\ecp.c **** }
 2200              	 .loc 1 1028 0
 2201 00c0 1846     	 mov r0,r3
 2202 00c2 1037     	 adds r7,r7,#16
 2203              	.LCFI128:
 2204              	 .cfi_def_cfa_offset 8
 2205 00c4 BD46     	 mov sp,r7
 2206              	.LCFI129:
 2207              	 .cfi_def_cfa_register 13
 2208              	 
 2209 00c6 80BD     	 pop {r7,pc}
 2210              	.L139:
 2211              	 .align 2
 2212              	.L138:
 2213 00c8 80B0FFFF 	 .word -20352
 2214              	 .cfi_endproc
 2215              	.LFE25:
 2217              	 .section .text.ecp_normalize_jac,"ax",%progbits
 2218              	 .align 2
 2219              	 .thumb
 2220              	 .thumb_func
 2222              	ecp_normalize_jac:
 2223              	.LFB26:
1029:C:/Users/Yushev/git/wpcqi-optiga-trust-charge/optiga/externals/mbedtls/library\ecp.c **** 
1030:C:/Users/Yushev/git/wpcqi-optiga-trust-charge/optiga/externals/mbedtls/library\ecp.c **** /*
1031:C:/Users/Yushev/git/wpcqi-optiga-trust-charge/optiga/externals/mbedtls/library\ecp.c ****  * Fast mod-p functions expect their argument to be in the 0..p^2 range.
1032:C:/Users/Yushev/git/wpcqi-optiga-trust-charge/optiga/externals/mbedtls/library\ecp.c ****  *
1033:C:/Users/Yushev/git/wpcqi-optiga-trust-charge/optiga/externals/mbedtls/library\ecp.c ****  * In order to guarantee that, we need to ensure that operands of
1034:C:/Users/Yushev/git/wpcqi-optiga-trust-charge/optiga/externals/mbedtls/library\ecp.c ****  * mbedtls_mpi_mul_mpi are in the 0..p range. So, after each operation we will
1035:C:/Users/Yushev/git/wpcqi-optiga-trust-charge/optiga/externals/mbedtls/library\ecp.c ****  * bring the result back to this range.
1036:C:/Users/Yushev/git/wpcqi-optiga-trust-charge/optiga/externals/mbedtls/library\ecp.c ****  *
1037:C:/Users/Yushev/git/wpcqi-optiga-trust-charge/optiga/externals/mbedtls/library\ecp.c ****  * The following macros are shortcuts for doing that.
1038:C:/Users/Yushev/git/wpcqi-optiga-trust-charge/optiga/externals/mbedtls/library\ecp.c ****  */
1039:C:/Users/Yushev/git/wpcqi-optiga-trust-charge/optiga/externals/mbedtls/library\ecp.c **** 
1040:C:/Users/Yushev/git/wpcqi-optiga-trust-charge/optiga/externals/mbedtls/library\ecp.c **** /*
1041:C:/Users/Yushev/git/wpcqi-optiga-trust-charge/optiga/externals/mbedtls/library\ecp.c ****  * Reduce a mbedtls_mpi mod p in-place, general case, to use after mbedtls_mpi_mul_mpi
1042:C:/Users/Yushev/git/wpcqi-optiga-trust-charge/optiga/externals/mbedtls/library\ecp.c ****  */
1043:C:/Users/Yushev/git/wpcqi-optiga-trust-charge/optiga/externals/mbedtls/library\ecp.c **** #if defined(MBEDTLS_SELF_TEST)
1044:C:/Users/Yushev/git/wpcqi-optiga-trust-charge/optiga/externals/mbedtls/library\ecp.c **** #define INC_MUL_COUNT   mul_count++;
1045:C:/Users/Yushev/git/wpcqi-optiga-trust-charge/optiga/externals/mbedtls/library\ecp.c **** #else
1046:C:/Users/Yushev/git/wpcqi-optiga-trust-charge/optiga/externals/mbedtls/library\ecp.c **** #define INC_MUL_COUNT
1047:C:/Users/Yushev/git/wpcqi-optiga-trust-charge/optiga/externals/mbedtls/library\ecp.c **** #endif
1048:C:/Users/Yushev/git/wpcqi-optiga-trust-charge/optiga/externals/mbedtls/library\ecp.c **** 
1049:C:/Users/Yushev/git/wpcqi-optiga-trust-charge/optiga/externals/mbedtls/library\ecp.c **** #define MOD_MUL( N )    do { MBEDTLS_MPI_CHK( ecp_modp( &N, grp ) ); INC_MUL_COUNT } \
1050:C:/Users/Yushev/git/wpcqi-optiga-trust-charge/optiga/externals/mbedtls/library\ecp.c ****                         while( 0 )
1051:C:/Users/Yushev/git/wpcqi-optiga-trust-charge/optiga/externals/mbedtls/library\ecp.c **** 
1052:C:/Users/Yushev/git/wpcqi-optiga-trust-charge/optiga/externals/mbedtls/library\ecp.c **** /*
1053:C:/Users/Yushev/git/wpcqi-optiga-trust-charge/optiga/externals/mbedtls/library\ecp.c ****  * Reduce a mbedtls_mpi mod p in-place, to use after mbedtls_mpi_sub_mpi
1054:C:/Users/Yushev/git/wpcqi-optiga-trust-charge/optiga/externals/mbedtls/library\ecp.c ****  * N->s < 0 is a very fast test, which fails only if N is 0
1055:C:/Users/Yushev/git/wpcqi-optiga-trust-charge/optiga/externals/mbedtls/library\ecp.c ****  */
1056:C:/Users/Yushev/git/wpcqi-optiga-trust-charge/optiga/externals/mbedtls/library\ecp.c **** #define MOD_SUB( N )                                \
1057:C:/Users/Yushev/git/wpcqi-optiga-trust-charge/optiga/externals/mbedtls/library\ecp.c ****     while( N.s < 0 && mbedtls_mpi_cmp_int( &N, 0 ) != 0 )   \
1058:C:/Users/Yushev/git/wpcqi-optiga-trust-charge/optiga/externals/mbedtls/library\ecp.c ****         MBEDTLS_MPI_CHK( mbedtls_mpi_add_mpi( &N, &N, &grp->P ) )
1059:C:/Users/Yushev/git/wpcqi-optiga-trust-charge/optiga/externals/mbedtls/library\ecp.c **** 
1060:C:/Users/Yushev/git/wpcqi-optiga-trust-charge/optiga/externals/mbedtls/library\ecp.c **** /*
1061:C:/Users/Yushev/git/wpcqi-optiga-trust-charge/optiga/externals/mbedtls/library\ecp.c ****  * Reduce a mbedtls_mpi mod p in-place, to use after mbedtls_mpi_add_mpi and mbedtls_mpi_mul_int.
1062:C:/Users/Yushev/git/wpcqi-optiga-trust-charge/optiga/externals/mbedtls/library\ecp.c ****  * We known P, N and the result are positive, so sub_abs is correct, and
1063:C:/Users/Yushev/git/wpcqi-optiga-trust-charge/optiga/externals/mbedtls/library\ecp.c ****  * a bit faster.
1064:C:/Users/Yushev/git/wpcqi-optiga-trust-charge/optiga/externals/mbedtls/library\ecp.c ****  */
1065:C:/Users/Yushev/git/wpcqi-optiga-trust-charge/optiga/externals/mbedtls/library\ecp.c **** #define MOD_ADD( N )                                \
1066:C:/Users/Yushev/git/wpcqi-optiga-trust-charge/optiga/externals/mbedtls/library\ecp.c ****     while( mbedtls_mpi_cmp_mpi( &N, &grp->P ) >= 0 )        \
1067:C:/Users/Yushev/git/wpcqi-optiga-trust-charge/optiga/externals/mbedtls/library\ecp.c ****         MBEDTLS_MPI_CHK( mbedtls_mpi_sub_abs( &N, &N, &grp->P ) )
1068:C:/Users/Yushev/git/wpcqi-optiga-trust-charge/optiga/externals/mbedtls/library\ecp.c **** 
1069:C:/Users/Yushev/git/wpcqi-optiga-trust-charge/optiga/externals/mbedtls/library\ecp.c **** #if defined(ECP_SHORTWEIERSTRASS)
1070:C:/Users/Yushev/git/wpcqi-optiga-trust-charge/optiga/externals/mbedtls/library\ecp.c **** /*
1071:C:/Users/Yushev/git/wpcqi-optiga-trust-charge/optiga/externals/mbedtls/library\ecp.c ****  * For curves in short Weierstrass form, we do all the internal operations in
1072:C:/Users/Yushev/git/wpcqi-optiga-trust-charge/optiga/externals/mbedtls/library\ecp.c ****  * Jacobian coordinates.
1073:C:/Users/Yushev/git/wpcqi-optiga-trust-charge/optiga/externals/mbedtls/library\ecp.c ****  *
1074:C:/Users/Yushev/git/wpcqi-optiga-trust-charge/optiga/externals/mbedtls/library\ecp.c ****  * For multiplication, we'll use a comb method with coutermeasueres against
1075:C:/Users/Yushev/git/wpcqi-optiga-trust-charge/optiga/externals/mbedtls/library\ecp.c ****  * SPA, hence timing attacks.
1076:C:/Users/Yushev/git/wpcqi-optiga-trust-charge/optiga/externals/mbedtls/library\ecp.c ****  */
1077:C:/Users/Yushev/git/wpcqi-optiga-trust-charge/optiga/externals/mbedtls/library\ecp.c **** 
1078:C:/Users/Yushev/git/wpcqi-optiga-trust-charge/optiga/externals/mbedtls/library\ecp.c **** /*
1079:C:/Users/Yushev/git/wpcqi-optiga-trust-charge/optiga/externals/mbedtls/library\ecp.c ****  * Normalize jacobian coordinates so that Z == 0 || Z == 1  (GECC 3.2.1)
1080:C:/Users/Yushev/git/wpcqi-optiga-trust-charge/optiga/externals/mbedtls/library\ecp.c ****  * Cost: 1N := 1I + 3M + 1S
1081:C:/Users/Yushev/git/wpcqi-optiga-trust-charge/optiga/externals/mbedtls/library\ecp.c ****  */
1082:C:/Users/Yushev/git/wpcqi-optiga-trust-charge/optiga/externals/mbedtls/library\ecp.c **** static int ecp_normalize_jac( const mbedtls_ecp_group *grp, mbedtls_ecp_point *pt )
1083:C:/Users/Yushev/git/wpcqi-optiga-trust-charge/optiga/externals/mbedtls/library\ecp.c **** {
 2224              	 .loc 1 1083 0
 2225              	 .cfi_startproc
 2226              	 
 2227              	 
 2228 0000 80B5     	 push {r7,lr}
 2229              	.LCFI130:
 2230              	 .cfi_def_cfa_offset 8
 2231              	 .cfi_offset 7,-8
 2232              	 .cfi_offset 14,-4
 2233 0002 8AB0     	 sub sp,sp,#40
 2234              	.LCFI131:
 2235              	 .cfi_def_cfa_offset 48
 2236 0004 00AF     	 add r7,sp,#0
 2237              	.LCFI132:
 2238              	 .cfi_def_cfa_register 7
 2239 0006 7860     	 str r0,[r7,#4]
 2240 0008 3960     	 str r1,[r7]
1084:C:/Users/Yushev/git/wpcqi-optiga-trust-charge/optiga/externals/mbedtls/library\ecp.c ****     int ret;
1085:C:/Users/Yushev/git/wpcqi-optiga-trust-charge/optiga/externals/mbedtls/library\ecp.c ****     mbedtls_mpi Zi, ZZi;
1086:C:/Users/Yushev/git/wpcqi-optiga-trust-charge/optiga/externals/mbedtls/library\ecp.c **** 
1087:C:/Users/Yushev/git/wpcqi-optiga-trust-charge/optiga/externals/mbedtls/library\ecp.c ****     if( mbedtls_mpi_cmp_int( &pt->Z, 0 ) == 0 )
 2241              	 .loc 1 1087 0
 2242 000a 3B68     	 ldr r3,[r7]
 2243 000c 1833     	 adds r3,r3,#24
 2244 000e 1846     	 mov r0,r3
 2245 0010 0021     	 movs r1,#0
 2246 0012 FFF7FEFF 	 bl mbedtls_mpi_cmp_int
 2247 0016 0346     	 mov r3,r0
 2248 0018 002B     	 cmp r3,#0
 2249 001a 01D1     	 bne .L141
1088:C:/Users/Yushev/git/wpcqi-optiga-trust-charge/optiga/externals/mbedtls/library\ecp.c ****         return( 0 );
 2250              	 .loc 1 1088 0
 2251 001c 0023     	 movs r3,#0
 2252 001e 9DE0     	 b .L153
 2253              	.L141:
1089:C:/Users/Yushev/git/wpcqi-optiga-trust-charge/optiga/externals/mbedtls/library\ecp.c **** 
1090:C:/Users/Yushev/git/wpcqi-optiga-trust-charge/optiga/externals/mbedtls/library\ecp.c **** #if defined(MBEDTLS_ECP_NORMALIZE_JAC_ALT)
1091:C:/Users/Yushev/git/wpcqi-optiga-trust-charge/optiga/externals/mbedtls/library\ecp.c ****     if( mbedtls_internal_ecp_grp_capable( grp ) )
1092:C:/Users/Yushev/git/wpcqi-optiga-trust-charge/optiga/externals/mbedtls/library\ecp.c ****         return( mbedtls_internal_ecp_normalize_jac( grp, pt ) );
1093:C:/Users/Yushev/git/wpcqi-optiga-trust-charge/optiga/externals/mbedtls/library\ecp.c **** #endif /* MBEDTLS_ECP_NORMALIZE_JAC_ALT */
1094:C:/Users/Yushev/git/wpcqi-optiga-trust-charge/optiga/externals/mbedtls/library\ecp.c **** 
1095:C:/Users/Yushev/git/wpcqi-optiga-trust-charge/optiga/externals/mbedtls/library\ecp.c ****     mbedtls_mpi_init( &Zi ); mbedtls_mpi_init( &ZZi );
 2254              	 .loc 1 1095 0
 2255 0020 07F11803 	 add r3,r7,#24
 2256 0024 1846     	 mov r0,r3
 2257 0026 FFF7FEFF 	 bl mbedtls_mpi_init
 2258 002a 07F10C03 	 add r3,r7,#12
 2259 002e 1846     	 mov r0,r3
 2260 0030 FFF7FEFF 	 bl mbedtls_mpi_init
1096:C:/Users/Yushev/git/wpcqi-optiga-trust-charge/optiga/externals/mbedtls/library\ecp.c **** 
1097:C:/Users/Yushev/git/wpcqi-optiga-trust-charge/optiga/externals/mbedtls/library\ecp.c ****     /*
1098:C:/Users/Yushev/git/wpcqi-optiga-trust-charge/optiga/externals/mbedtls/library\ecp.c ****      * X = X / Z^2  mod p
1099:C:/Users/Yushev/git/wpcqi-optiga-trust-charge/optiga/externals/mbedtls/library\ecp.c ****      */
1100:C:/Users/Yushev/git/wpcqi-optiga-trust-charge/optiga/externals/mbedtls/library\ecp.c ****     MBEDTLS_MPI_CHK( mbedtls_mpi_inv_mod( &Zi,      &pt->Z,     &grp->P ) );
 2261              	 .loc 1 1100 0
 2262 0034 3B68     	 ldr r3,[r7]
 2263 0036 03F11802 	 add r2,r3,#24
 2264 003a 7B68     	 ldr r3,[r7,#4]
 2265 003c 0433     	 adds r3,r3,#4
 2266 003e 07F11801 	 add r1,r7,#24
 2267 0042 0846     	 mov r0,r1
 2268 0044 1146     	 mov r1,r2
 2269 0046 1A46     	 mov r2,r3
 2270 0048 FFF7FEFF 	 bl mbedtls_mpi_inv_mod
 2271 004c 7862     	 str r0,[r7,#36]
 2272 004e 7B6A     	 ldr r3,[r7,#36]
 2273 0050 002B     	 cmp r3,#0
 2274 0052 00D0     	 beq .L143
 2275 0054 77E0     	 b .L144
 2276              	.L143:
1101:C:/Users/Yushev/git/wpcqi-optiga-trust-charge/optiga/externals/mbedtls/library\ecp.c ****     MBEDTLS_MPI_CHK( mbedtls_mpi_mul_mpi( &ZZi,     &Zi,        &Zi     ) ); MOD_MUL( ZZi );
 2277              	 .loc 1 1101 0
 2278 0056 07F10C01 	 add r1,r7,#12
 2279 005a 07F11802 	 add r2,r7,#24
 2280 005e 07F11803 	 add r3,r7,#24
 2281 0062 0846     	 mov r0,r1
 2282 0064 1146     	 mov r1,r2
 2283 0066 1A46     	 mov r2,r3
 2284 0068 FFF7FEFF 	 bl mbedtls_mpi_mul_mpi
 2285 006c 7862     	 str r0,[r7,#36]
 2286 006e 7B6A     	 ldr r3,[r7,#36]
 2287 0070 002B     	 cmp r3,#0
 2288 0072 00D0     	 beq .L145
 2289 0074 67E0     	 b .L144
 2290              	.L145:
 2291              	 .loc 1 1101 0 is_stmt 0 discriminator 1
 2292 0076 07F10C03 	 add r3,r7,#12
 2293 007a 1846     	 mov r0,r3
 2294 007c 7968     	 ldr r1,[r7,#4]
 2295 007e FFF7FEFF 	 bl ecp_modp
 2296 0082 7862     	 str r0,[r7,#36]
 2297 0084 7B6A     	 ldr r3,[r7,#36]
 2298 0086 002B     	 cmp r3,#0
 2299 0088 00D0     	 beq .L146
 2300              	 .loc 1 1101 0
 2301 008a 5CE0     	 b .L144
 2302              	.L146:
1102:C:/Users/Yushev/git/wpcqi-optiga-trust-charge/optiga/externals/mbedtls/library\ecp.c ****     MBEDTLS_MPI_CHK( mbedtls_mpi_mul_mpi( &pt->X,   &pt->X,     &ZZi    ) ); MOD_MUL( pt->X );
 2303              	 .loc 1 1102 0 is_stmt 1
 2304 008c 3968     	 ldr r1,[r7]
 2305 008e 3A68     	 ldr r2,[r7]
 2306 0090 07F10C03 	 add r3,r7,#12
 2307 0094 0846     	 mov r0,r1
 2308 0096 1146     	 mov r1,r2
 2309 0098 1A46     	 mov r2,r3
 2310 009a FFF7FEFF 	 bl mbedtls_mpi_mul_mpi
 2311 009e 7862     	 str r0,[r7,#36]
 2312 00a0 7B6A     	 ldr r3,[r7,#36]
 2313 00a2 002B     	 cmp r3,#0
 2314 00a4 00D0     	 beq .L147
 2315 00a6 4EE0     	 b .L144
 2316              	.L147:
 2317              	 .loc 1 1102 0 is_stmt 0 discriminator 1
 2318 00a8 3B68     	 ldr r3,[r7]
 2319 00aa 1846     	 mov r0,r3
 2320 00ac 7968     	 ldr r1,[r7,#4]
 2321 00ae FFF7FEFF 	 bl ecp_modp
 2322 00b2 7862     	 str r0,[r7,#36]
 2323 00b4 7B6A     	 ldr r3,[r7,#36]
 2324 00b6 002B     	 cmp r3,#0
 2325 00b8 00D0     	 beq .L148
 2326              	 .loc 1 1102 0
 2327 00ba 44E0     	 b .L144
 2328              	.L148:
1103:C:/Users/Yushev/git/wpcqi-optiga-trust-charge/optiga/externals/mbedtls/library\ecp.c **** 
1104:C:/Users/Yushev/git/wpcqi-optiga-trust-charge/optiga/externals/mbedtls/library\ecp.c ****     /*
1105:C:/Users/Yushev/git/wpcqi-optiga-trust-charge/optiga/externals/mbedtls/library\ecp.c ****      * Y = Y / Z^3  mod p
1106:C:/Users/Yushev/git/wpcqi-optiga-trust-charge/optiga/externals/mbedtls/library\ecp.c ****      */
1107:C:/Users/Yushev/git/wpcqi-optiga-trust-charge/optiga/externals/mbedtls/library\ecp.c ****     MBEDTLS_MPI_CHK( mbedtls_mpi_mul_mpi( &pt->Y,   &pt->Y,     &ZZi    ) ); MOD_MUL( pt->Y );
 2329              	 .loc 1 1107 0 is_stmt 1
 2330 00bc 3B68     	 ldr r3,[r7]
 2331 00be 03F10C01 	 add r1,r3,#12
 2332 00c2 3B68     	 ldr r3,[r7]
 2333 00c4 03F10C02 	 add r2,r3,#12
 2334 00c8 07F10C03 	 add r3,r7,#12
 2335 00cc 0846     	 mov r0,r1
 2336 00ce 1146     	 mov r1,r2
 2337 00d0 1A46     	 mov r2,r3
 2338 00d2 FFF7FEFF 	 bl mbedtls_mpi_mul_mpi
 2339 00d6 7862     	 str r0,[r7,#36]
 2340 00d8 7B6A     	 ldr r3,[r7,#36]
 2341 00da 002B     	 cmp r3,#0
 2342 00dc 00D0     	 beq .L149
 2343 00de 32E0     	 b .L144
 2344              	.L149:
 2345              	 .loc 1 1107 0 is_stmt 0 discriminator 1
 2346 00e0 3B68     	 ldr r3,[r7]
 2347 00e2 0C33     	 adds r3,r3,#12
 2348 00e4 1846     	 mov r0,r3
 2349 00e6 7968     	 ldr r1,[r7,#4]
 2350 00e8 FFF7FEFF 	 bl ecp_modp
 2351 00ec 7862     	 str r0,[r7,#36]
 2352 00ee 7B6A     	 ldr r3,[r7,#36]
 2353 00f0 002B     	 cmp r3,#0
 2354 00f2 00D0     	 beq .L150
 2355              	 .loc 1 1107 0
 2356 00f4 27E0     	 b .L144
 2357              	.L150:
1108:C:/Users/Yushev/git/wpcqi-optiga-trust-charge/optiga/externals/mbedtls/library\ecp.c ****     MBEDTLS_MPI_CHK( mbedtls_mpi_mul_mpi( &pt->Y,   &pt->Y,     &Zi     ) ); MOD_MUL( pt->Y );
 2358              	 .loc 1 1108 0 is_stmt 1
 2359 00f6 3B68     	 ldr r3,[r7]
 2360 00f8 03F10C01 	 add r1,r3,#12
 2361 00fc 3B68     	 ldr r3,[r7]
 2362 00fe 03F10C02 	 add r2,r3,#12
 2363 0102 07F11803 	 add r3,r7,#24
 2364 0106 0846     	 mov r0,r1
 2365 0108 1146     	 mov r1,r2
 2366 010a 1A46     	 mov r2,r3
 2367 010c FFF7FEFF 	 bl mbedtls_mpi_mul_mpi
 2368 0110 7862     	 str r0,[r7,#36]
 2369 0112 7B6A     	 ldr r3,[r7,#36]
 2370 0114 002B     	 cmp r3,#0
 2371 0116 00D0     	 beq .L151
 2372 0118 15E0     	 b .L144
 2373              	.L151:
 2374              	 .loc 1 1108 0 is_stmt 0 discriminator 1
 2375 011a 3B68     	 ldr r3,[r7]
 2376 011c 0C33     	 adds r3,r3,#12
 2377 011e 1846     	 mov r0,r3
 2378 0120 7968     	 ldr r1,[r7,#4]
 2379 0122 FFF7FEFF 	 bl ecp_modp
 2380 0126 7862     	 str r0,[r7,#36]
 2381 0128 7B6A     	 ldr r3,[r7,#36]
 2382 012a 002B     	 cmp r3,#0
 2383 012c 00D0     	 beq .L152
 2384              	 .loc 1 1108 0
 2385 012e 0AE0     	 b .L144
 2386              	.L152:
1109:C:/Users/Yushev/git/wpcqi-optiga-trust-charge/optiga/externals/mbedtls/library\ecp.c **** 
1110:C:/Users/Yushev/git/wpcqi-optiga-trust-charge/optiga/externals/mbedtls/library\ecp.c ****     /*
1111:C:/Users/Yushev/git/wpcqi-optiga-trust-charge/optiga/externals/mbedtls/library\ecp.c ****      * Z = 1
1112:C:/Users/Yushev/git/wpcqi-optiga-trust-charge/optiga/externals/mbedtls/library\ecp.c ****      */
1113:C:/Users/Yushev/git/wpcqi-optiga-trust-charge/optiga/externals/mbedtls/library\ecp.c ****     MBEDTLS_MPI_CHK( mbedtls_mpi_lset( &pt->Z, 1 ) );
 2387              	 .loc 1 1113 0 is_stmt 1
 2388 0130 3B68     	 ldr r3,[r7]
 2389 0132 1833     	 adds r3,r3,#24
 2390 0134 1846     	 mov r0,r3
 2391 0136 0121     	 movs r1,#1
 2392 0138 FFF7FEFF 	 bl mbedtls_mpi_lset
 2393 013c 7862     	 str r0,[r7,#36]
 2394 013e 7B6A     	 ldr r3,[r7,#36]
 2395 0140 002B     	 cmp r3,#0
 2396 0142 00D0     	 beq .L144
 2397 0144 00BF     	 nop
 2398              	.L144:
1114:C:/Users/Yushev/git/wpcqi-optiga-trust-charge/optiga/externals/mbedtls/library\ecp.c **** 
1115:C:/Users/Yushev/git/wpcqi-optiga-trust-charge/optiga/externals/mbedtls/library\ecp.c **** cleanup:
1116:C:/Users/Yushev/git/wpcqi-optiga-trust-charge/optiga/externals/mbedtls/library\ecp.c **** 
1117:C:/Users/Yushev/git/wpcqi-optiga-trust-charge/optiga/externals/mbedtls/library\ecp.c ****     mbedtls_mpi_free( &Zi ); mbedtls_mpi_free( &ZZi );
 2399              	 .loc 1 1117 0
 2400 0146 07F11803 	 add r3,r7,#24
 2401 014a 1846     	 mov r0,r3
 2402 014c FFF7FEFF 	 bl mbedtls_mpi_free
 2403 0150 07F10C03 	 add r3,r7,#12
 2404 0154 1846     	 mov r0,r3
 2405 0156 FFF7FEFF 	 bl mbedtls_mpi_free
1118:C:/Users/Yushev/git/wpcqi-optiga-trust-charge/optiga/externals/mbedtls/library\ecp.c **** 
1119:C:/Users/Yushev/git/wpcqi-optiga-trust-charge/optiga/externals/mbedtls/library\ecp.c ****     return( ret );
 2406              	 .loc 1 1119 0
 2407 015a 7B6A     	 ldr r3,[r7,#36]
 2408              	.L153:
1120:C:/Users/Yushev/git/wpcqi-optiga-trust-charge/optiga/externals/mbedtls/library\ecp.c **** }
 2409              	 .loc 1 1120 0 discriminator 1
 2410 015c 1846     	 mov r0,r3
 2411 015e 2837     	 adds r7,r7,#40
 2412              	.LCFI133:
 2413              	 .cfi_def_cfa_offset 8
 2414 0160 BD46     	 mov sp,r7
 2415              	.LCFI134:
 2416              	 .cfi_def_cfa_register 13
 2417              	 
 2418 0162 80BD     	 pop {r7,pc}
 2419              	 .cfi_endproc
 2420              	.LFE26:
 2422              	 .section .text.ecp_normalize_jac_many,"ax",%progbits
 2423              	 .align 2
 2424              	 .thumb
 2425              	 .thumb_func
 2427              	ecp_normalize_jac_many:
 2428              	.LFB27:
1121:C:/Users/Yushev/git/wpcqi-optiga-trust-charge/optiga/externals/mbedtls/library\ecp.c **** 
1122:C:/Users/Yushev/git/wpcqi-optiga-trust-charge/optiga/externals/mbedtls/library\ecp.c **** /*
1123:C:/Users/Yushev/git/wpcqi-optiga-trust-charge/optiga/externals/mbedtls/library\ecp.c ****  * Normalize jacobian coordinates of an array of (pointers to) points,
1124:C:/Users/Yushev/git/wpcqi-optiga-trust-charge/optiga/externals/mbedtls/library\ecp.c ****  * using Montgomery's trick to perform only one inversion mod P.
1125:C:/Users/Yushev/git/wpcqi-optiga-trust-charge/optiga/externals/mbedtls/library\ecp.c ****  * (See for example Cohen's "A Course in Computational Algebraic Number
1126:C:/Users/Yushev/git/wpcqi-optiga-trust-charge/optiga/externals/mbedtls/library\ecp.c ****  * Theory", Algorithm 10.3.4.)
1127:C:/Users/Yushev/git/wpcqi-optiga-trust-charge/optiga/externals/mbedtls/library\ecp.c ****  *
1128:C:/Users/Yushev/git/wpcqi-optiga-trust-charge/optiga/externals/mbedtls/library\ecp.c ****  * Warning: fails (returning an error) if one of the points is zero!
1129:C:/Users/Yushev/git/wpcqi-optiga-trust-charge/optiga/externals/mbedtls/library\ecp.c ****  * This should never happen, see choice of w in ecp_mul_comb().
1130:C:/Users/Yushev/git/wpcqi-optiga-trust-charge/optiga/externals/mbedtls/library\ecp.c ****  *
1131:C:/Users/Yushev/git/wpcqi-optiga-trust-charge/optiga/externals/mbedtls/library\ecp.c ****  * Cost: 1N(t) := 1I + (6t - 3)M + 1S
1132:C:/Users/Yushev/git/wpcqi-optiga-trust-charge/optiga/externals/mbedtls/library\ecp.c ****  */
1133:C:/Users/Yushev/git/wpcqi-optiga-trust-charge/optiga/externals/mbedtls/library\ecp.c **** static int ecp_normalize_jac_many( const mbedtls_ecp_group *grp,
1134:C:/Users/Yushev/git/wpcqi-optiga-trust-charge/optiga/externals/mbedtls/library\ecp.c ****                                    mbedtls_ecp_point *T[], size_t T_size )
1135:C:/Users/Yushev/git/wpcqi-optiga-trust-charge/optiga/externals/mbedtls/library\ecp.c **** {
 2429              	 .loc 1 1135 0
 2430              	 .cfi_startproc
 2431              	 
 2432              	 
 2433 0000 80B5     	 push {r7,lr}
 2434              	.LCFI135:
 2435              	 .cfi_def_cfa_offset 8
 2436              	 .cfi_offset 7,-8
 2437              	 .cfi_offset 14,-4
 2438 0002 90B0     	 sub sp,sp,#64
 2439              	.LCFI136:
 2440              	 .cfi_def_cfa_offset 72
 2441 0004 00AF     	 add r7,sp,#0
 2442              	.LCFI137:
 2443              	 .cfi_def_cfa_register 7
 2444 0006 F860     	 str r0,[r7,#12]
 2445 0008 B960     	 str r1,[r7,#8]
 2446 000a 7A60     	 str r2,[r7,#4]
1136:C:/Users/Yushev/git/wpcqi-optiga-trust-charge/optiga/externals/mbedtls/library\ecp.c ****     int ret;
1137:C:/Users/Yushev/git/wpcqi-optiga-trust-charge/optiga/externals/mbedtls/library\ecp.c ****     size_t i;
1138:C:/Users/Yushev/git/wpcqi-optiga-trust-charge/optiga/externals/mbedtls/library\ecp.c ****     mbedtls_mpi *c, u, Zi, ZZi;
1139:C:/Users/Yushev/git/wpcqi-optiga-trust-charge/optiga/externals/mbedtls/library\ecp.c **** 
1140:C:/Users/Yushev/git/wpcqi-optiga-trust-charge/optiga/externals/mbedtls/library\ecp.c ****     if( T_size < 2 )
 2447              	 .loc 1 1140 0
 2448 000c 7B68     	 ldr r3,[r7,#4]
 2449 000e 012B     	 cmp r3,#1
 2450 0010 07D8     	 bhi .L155
1141:C:/Users/Yushev/git/wpcqi-optiga-trust-charge/optiga/externals/mbedtls/library\ecp.c ****         return( ecp_normalize_jac( grp, *T ) );
 2451              	 .loc 1 1141 0
 2452 0012 BB68     	 ldr r3,[r7,#8]
 2453 0014 1B68     	 ldr r3,[r3]
 2454 0016 F868     	 ldr r0,[r7,#12]
 2455 0018 1946     	 mov r1,r3
 2456 001a FFF7FEFF 	 bl ecp_normalize_jac
 2457 001e 0346     	 mov r3,r0
 2458 0020 CEE1     	 b .L186
 2459              	.L155:
1142:C:/Users/Yushev/git/wpcqi-optiga-trust-charge/optiga/externals/mbedtls/library\ecp.c **** 
1143:C:/Users/Yushev/git/wpcqi-optiga-trust-charge/optiga/externals/mbedtls/library\ecp.c **** #if defined(MBEDTLS_ECP_NORMALIZE_JAC_MANY_ALT)
1144:C:/Users/Yushev/git/wpcqi-optiga-trust-charge/optiga/externals/mbedtls/library\ecp.c ****     if( mbedtls_internal_ecp_grp_capable( grp ) )
1145:C:/Users/Yushev/git/wpcqi-optiga-trust-charge/optiga/externals/mbedtls/library\ecp.c ****         return( mbedtls_internal_ecp_normalize_jac_many( grp, T, T_size ) );
1146:C:/Users/Yushev/git/wpcqi-optiga-trust-charge/optiga/externals/mbedtls/library\ecp.c **** #endif
1147:C:/Users/Yushev/git/wpcqi-optiga-trust-charge/optiga/externals/mbedtls/library\ecp.c **** 
1148:C:/Users/Yushev/git/wpcqi-optiga-trust-charge/optiga/externals/mbedtls/library\ecp.c ****     if( ( c = mbedtls_calloc( T_size, sizeof( mbedtls_mpi ) ) ) == NULL )
 2460              	 .loc 1 1148 0
 2461 0022 7868     	 ldr r0,[r7,#4]
 2462 0024 0C21     	 movs r1,#12
 2463 0026 FFF7FEFF 	 bl calloc
 2464 002a 0346     	 mov r3,r0
 2465 002c 7B63     	 str r3,[r7,#52]
 2466 002e 7B6B     	 ldr r3,[r7,#52]
 2467 0030 002B     	 cmp r3,#0
 2468 0032 01D1     	 bne .L157
1149:C:/Users/Yushev/git/wpcqi-optiga-trust-charge/optiga/externals/mbedtls/library\ecp.c ****         return( MBEDTLS_ERR_ECP_ALLOC_FAILED );
 2469              	 .loc 1 1149 0
 2470 0034 B34B     	 ldr r3,.L187
 2471 0036 C3E1     	 b .L186
 2472              	.L157:
1150:C:/Users/Yushev/git/wpcqi-optiga-trust-charge/optiga/externals/mbedtls/library\ecp.c **** 
1151:C:/Users/Yushev/git/wpcqi-optiga-trust-charge/optiga/externals/mbedtls/library\ecp.c ****     for( i = 0; i < T_size; i++ )
 2473              	 .loc 1 1151 0
 2474 0038 0023     	 movs r3,#0
 2475 003a BB63     	 str r3,[r7,#56]
 2476 003c 0DE0     	 b .L158
 2477              	.L159:
1152:C:/Users/Yushev/git/wpcqi-optiga-trust-charge/optiga/externals/mbedtls/library\ecp.c ****         mbedtls_mpi_init( &c[i] );
 2478              	 .loc 1 1152 0 discriminator 3
 2479 003e BA6B     	 ldr r2,[r7,#56]
 2480 0040 1346     	 mov r3,r2
 2481 0042 5B00     	 lsls r3,r3,#1
 2482 0044 1344     	 add r3,r3,r2
 2483 0046 9B00     	 lsls r3,r3,#2
 2484 0048 1A46     	 mov r2,r3
 2485 004a 7B6B     	 ldr r3,[r7,#52]
 2486 004c 1344     	 add r3,r3,r2
 2487 004e 1846     	 mov r0,r3
 2488 0050 FFF7FEFF 	 bl mbedtls_mpi_init
1151:C:/Users/Yushev/git/wpcqi-optiga-trust-charge/optiga/externals/mbedtls/library\ecp.c ****         mbedtls_mpi_init( &c[i] );
 2489              	 .loc 1 1151 0 discriminator 3
 2490 0054 BB6B     	 ldr r3,[r7,#56]
 2491 0056 0133     	 adds r3,r3,#1
 2492 0058 BB63     	 str r3,[r7,#56]
 2493              	.L158:
1151:C:/Users/Yushev/git/wpcqi-optiga-trust-charge/optiga/externals/mbedtls/library\ecp.c ****         mbedtls_mpi_init( &c[i] );
 2494              	 .loc 1 1151 0 is_stmt 0 discriminator 1
 2495 005a BA6B     	 ldr r2,[r7,#56]
 2496 005c 7B68     	 ldr r3,[r7,#4]
 2497 005e 9A42     	 cmp r2,r3
 2498 0060 EDD3     	 bcc .L159
1153:C:/Users/Yushev/git/wpcqi-optiga-trust-charge/optiga/externals/mbedtls/library\ecp.c **** 
1154:C:/Users/Yushev/git/wpcqi-optiga-trust-charge/optiga/externals/mbedtls/library\ecp.c ****     mbedtls_mpi_init( &u ); mbedtls_mpi_init( &Zi ); mbedtls_mpi_init( &ZZi );
 2499              	 .loc 1 1154 0 is_stmt 1
 2500 0062 07F12803 	 add r3,r7,#40
 2501 0066 1846     	 mov r0,r3
 2502 0068 FFF7FEFF 	 bl mbedtls_mpi_init
 2503 006c 07F11C03 	 add r3,r7,#28
 2504 0070 1846     	 mov r0,r3
 2505 0072 FFF7FEFF 	 bl mbedtls_mpi_init
 2506 0076 07F11003 	 add r3,r7,#16
 2507 007a 1846     	 mov r0,r3
 2508 007c FFF7FEFF 	 bl mbedtls_mpi_init
1155:C:/Users/Yushev/git/wpcqi-optiga-trust-charge/optiga/externals/mbedtls/library\ecp.c **** 
1156:C:/Users/Yushev/git/wpcqi-optiga-trust-charge/optiga/externals/mbedtls/library\ecp.c ****     /*
1157:C:/Users/Yushev/git/wpcqi-optiga-trust-charge/optiga/externals/mbedtls/library\ecp.c ****      * c[i] = Z_0 * ... * Z_i
1158:C:/Users/Yushev/git/wpcqi-optiga-trust-charge/optiga/externals/mbedtls/library\ecp.c ****      */
1159:C:/Users/Yushev/git/wpcqi-optiga-trust-charge/optiga/externals/mbedtls/library\ecp.c ****     MBEDTLS_MPI_CHK( mbedtls_mpi_copy( &c[0], &T[0]->Z ) );
 2509              	 .loc 1 1159 0
 2510 0080 BB68     	 ldr r3,[r7,#8]
 2511 0082 1B68     	 ldr r3,[r3]
 2512 0084 1833     	 adds r3,r3,#24
 2513 0086 786B     	 ldr r0,[r7,#52]
 2514 0088 1946     	 mov r1,r3
 2515 008a FFF7FEFF 	 bl mbedtls_mpi_copy
 2516 008e F863     	 str r0,[r7,#60]
 2517 0090 FB6B     	 ldr r3,[r7,#60]
 2518 0092 002B     	 cmp r3,#0
 2519 0094 00D0     	 beq .L160
 2520 0096 6BE1     	 b .L161
 2521              	.L160:
1160:C:/Users/Yushev/git/wpcqi-optiga-trust-charge/optiga/externals/mbedtls/library\ecp.c ****     for( i = 1; i < T_size; i++ )
 2522              	 .loc 1 1160 0
 2523 0098 0123     	 movs r3,#1
 2524 009a BB63     	 str r3,[r7,#56]
 2525 009c 31E0     	 b .L162
 2526              	.L165:
1161:C:/Users/Yushev/git/wpcqi-optiga-trust-charge/optiga/externals/mbedtls/library\ecp.c ****     {
1162:C:/Users/Yushev/git/wpcqi-optiga-trust-charge/optiga/externals/mbedtls/library\ecp.c ****         MBEDTLS_MPI_CHK( mbedtls_mpi_mul_mpi( &c[i], &c[i-1], &T[i]->Z ) );
 2527              	 .loc 1 1162 0
 2528 009e BA6B     	 ldr r2,[r7,#56]
 2529 00a0 1346     	 mov r3,r2
 2530 00a2 5B00     	 lsls r3,r3,#1
 2531 00a4 1344     	 add r3,r3,r2
 2532 00a6 9B00     	 lsls r3,r3,#2
 2533 00a8 1A46     	 mov r2,r3
 2534 00aa 7B6B     	 ldr r3,[r7,#52]
 2535 00ac 9818     	 adds r0,r3,r2
 2536 00ae BA6B     	 ldr r2,[r7,#56]
 2537 00b0 1346     	 mov r3,r2
 2538 00b2 5B00     	 lsls r3,r3,#1
 2539 00b4 1344     	 add r3,r3,r2
 2540 00b6 9B00     	 lsls r3,r3,#2
 2541 00b8 0C3B     	 subs r3,r3,#12
 2542 00ba 7A6B     	 ldr r2,[r7,#52]
 2543 00bc D118     	 adds r1,r2,r3
 2544 00be BB6B     	 ldr r3,[r7,#56]
 2545 00c0 9B00     	 lsls r3,r3,#2
 2546 00c2 BA68     	 ldr r2,[r7,#8]
 2547 00c4 1344     	 add r3,r3,r2
 2548 00c6 1B68     	 ldr r3,[r3]
 2549 00c8 1833     	 adds r3,r3,#24
 2550 00ca 1A46     	 mov r2,r3
 2551 00cc FFF7FEFF 	 bl mbedtls_mpi_mul_mpi
 2552 00d0 F863     	 str r0,[r7,#60]
 2553 00d2 FB6B     	 ldr r3,[r7,#60]
 2554 00d4 002B     	 cmp r3,#0
 2555 00d6 00D0     	 beq .L163
 2556 00d8 4AE1     	 b .L161
 2557              	.L163:
1163:C:/Users/Yushev/git/wpcqi-optiga-trust-charge/optiga/externals/mbedtls/library\ecp.c ****         MOD_MUL( c[i] );
 2558              	 .loc 1 1163 0
 2559 00da BA6B     	 ldr r2,[r7,#56]
 2560 00dc 1346     	 mov r3,r2
 2561 00de 5B00     	 lsls r3,r3,#1
 2562 00e0 1344     	 add r3,r3,r2
 2563 00e2 9B00     	 lsls r3,r3,#2
 2564 00e4 1A46     	 mov r2,r3
 2565 00e6 7B6B     	 ldr r3,[r7,#52]
 2566 00e8 1344     	 add r3,r3,r2
 2567 00ea 1846     	 mov r0,r3
 2568 00ec F968     	 ldr r1,[r7,#12]
 2569 00ee FFF7FEFF 	 bl ecp_modp
 2570 00f2 F863     	 str r0,[r7,#60]
 2571 00f4 FB6B     	 ldr r3,[r7,#60]
 2572 00f6 002B     	 cmp r3,#0
 2573 00f8 00D0     	 beq .L164
 2574 00fa 39E1     	 b .L161
 2575              	.L164:
1160:C:/Users/Yushev/git/wpcqi-optiga-trust-charge/optiga/externals/mbedtls/library\ecp.c ****     for( i = 1; i < T_size; i++ )
 2576              	 .loc 1 1160 0 discriminator 2
 2577 00fc BB6B     	 ldr r3,[r7,#56]
 2578 00fe 0133     	 adds r3,r3,#1
 2579 0100 BB63     	 str r3,[r7,#56]
 2580              	.L162:
1160:C:/Users/Yushev/git/wpcqi-optiga-trust-charge/optiga/externals/mbedtls/library\ecp.c ****     for( i = 1; i < T_size; i++ )
 2581              	 .loc 1 1160 0 is_stmt 0 discriminator 1
 2582 0102 BA6B     	 ldr r2,[r7,#56]
 2583 0104 7B68     	 ldr r3,[r7,#4]
 2584 0106 9A42     	 cmp r2,r3
 2585 0108 C9D3     	 bcc .L165
1164:C:/Users/Yushev/git/wpcqi-optiga-trust-charge/optiga/externals/mbedtls/library\ecp.c ****     }
1165:C:/Users/Yushev/git/wpcqi-optiga-trust-charge/optiga/externals/mbedtls/library\ecp.c **** 
1166:C:/Users/Yushev/git/wpcqi-optiga-trust-charge/optiga/externals/mbedtls/library\ecp.c ****     /*
1167:C:/Users/Yushev/git/wpcqi-optiga-trust-charge/optiga/externals/mbedtls/library\ecp.c ****      * u = 1 / (Z_0 * ... * Z_n) mod P
1168:C:/Users/Yushev/git/wpcqi-optiga-trust-charge/optiga/externals/mbedtls/library\ecp.c ****      */
1169:C:/Users/Yushev/git/wpcqi-optiga-trust-charge/optiga/externals/mbedtls/library\ecp.c ****     MBEDTLS_MPI_CHK( mbedtls_mpi_inv_mod( &u, &c[T_size-1], &grp->P ) );
 2586              	 .loc 1 1169 0 is_stmt 1
 2587 010a 7A68     	 ldr r2,[r7,#4]
 2588 010c 1346     	 mov r3,r2
 2589 010e 5B00     	 lsls r3,r3,#1
 2590 0110 1344     	 add r3,r3,r2
 2591 0112 9B00     	 lsls r3,r3,#2
 2592 0114 0C3B     	 subs r3,r3,#12
 2593 0116 7A6B     	 ldr r2,[r7,#52]
 2594 0118 1A44     	 add r2,r2,r3
 2595 011a FB68     	 ldr r3,[r7,#12]
 2596 011c 0433     	 adds r3,r3,#4
 2597 011e 07F12801 	 add r1,r7,#40
 2598 0122 0846     	 mov r0,r1
 2599 0124 1146     	 mov r1,r2
 2600 0126 1A46     	 mov r2,r3
 2601 0128 FFF7FEFF 	 bl mbedtls_mpi_inv_mod
 2602 012c F863     	 str r0,[r7,#60]
 2603 012e FB6B     	 ldr r3,[r7,#60]
 2604 0130 002B     	 cmp r3,#0
 2605 0132 00D0     	 beq .L166
 2606 0134 1CE1     	 b .L161
 2607              	.L166:
1170:C:/Users/Yushev/git/wpcqi-optiga-trust-charge/optiga/externals/mbedtls/library\ecp.c **** 
1171:C:/Users/Yushev/git/wpcqi-optiga-trust-charge/optiga/externals/mbedtls/library\ecp.c ****     for( i = T_size - 1; ; i-- )
 2608              	 .loc 1 1171 0
 2609 0136 7B68     	 ldr r3,[r7,#4]
 2610 0138 013B     	 subs r3,r3,#1
 2611 013a BB63     	 str r3,[r7,#56]
 2612              	.L183:
1172:C:/Users/Yushev/git/wpcqi-optiga-trust-charge/optiga/externals/mbedtls/library\ecp.c ****     {
1173:C:/Users/Yushev/git/wpcqi-optiga-trust-charge/optiga/externals/mbedtls/library\ecp.c ****         /*
1174:C:/Users/Yushev/git/wpcqi-optiga-trust-charge/optiga/externals/mbedtls/library\ecp.c ****          * Zi = 1 / Z_i mod p
1175:C:/Users/Yushev/git/wpcqi-optiga-trust-charge/optiga/externals/mbedtls/library\ecp.c ****          * u = 1 / (Z_0 * ... * Z_i) mod P
1176:C:/Users/Yushev/git/wpcqi-optiga-trust-charge/optiga/externals/mbedtls/library\ecp.c ****          */
1177:C:/Users/Yushev/git/wpcqi-optiga-trust-charge/optiga/externals/mbedtls/library\ecp.c ****         if( i == 0 ) {
 2613              	 .loc 1 1177 0
 2614 013c BB6B     	 ldr r3,[r7,#56]
 2615 013e 002B     	 cmp r3,#0
 2616 0140 0CD1     	 bne .L167
1178:C:/Users/Yushev/git/wpcqi-optiga-trust-charge/optiga/externals/mbedtls/library\ecp.c ****             MBEDTLS_MPI_CHK( mbedtls_mpi_copy( &Zi, &u ) );
 2617              	 .loc 1 1178 0
 2618 0142 07F11C02 	 add r2,r7,#28
 2619 0146 07F12803 	 add r3,r7,#40
 2620 014a 1046     	 mov r0,r2
 2621 014c 1946     	 mov r1,r3
 2622 014e FFF7FEFF 	 bl mbedtls_mpi_copy
 2623 0152 F863     	 str r0,[r7,#60]
 2624 0154 FB6B     	 ldr r3,[r7,#60]
 2625 0156 002B     	 cmp r3,#0
 2626 0158 40D0     	 beq .L168
 2627 015a 09E1     	 b .L161
 2628              	.L167:
1179:C:/Users/Yushev/git/wpcqi-optiga-trust-charge/optiga/externals/mbedtls/library\ecp.c ****         }
1180:C:/Users/Yushev/git/wpcqi-optiga-trust-charge/optiga/externals/mbedtls/library\ecp.c ****         else
1181:C:/Users/Yushev/git/wpcqi-optiga-trust-charge/optiga/externals/mbedtls/library\ecp.c ****         {
1182:C:/Users/Yushev/git/wpcqi-optiga-trust-charge/optiga/externals/mbedtls/library\ecp.c ****             MBEDTLS_MPI_CHK( mbedtls_mpi_mul_mpi( &Zi, &u, &c[i-1]  ) ); MOD_MUL( Zi );
 2629              	 .loc 1 1182 0
 2630 015c BA6B     	 ldr r2,[r7,#56]
 2631 015e 1346     	 mov r3,r2
 2632 0160 5B00     	 lsls r3,r3,#1
 2633 0162 1344     	 add r3,r3,r2
 2634 0164 9B00     	 lsls r3,r3,#2
 2635 0166 0C3B     	 subs r3,r3,#12
 2636 0168 7A6B     	 ldr r2,[r7,#52]
 2637 016a 1344     	 add r3,r3,r2
 2638 016c 07F11C01 	 add r1,r7,#28
 2639 0170 07F12802 	 add r2,r7,#40
 2640 0174 0846     	 mov r0,r1
 2641 0176 1146     	 mov r1,r2
 2642 0178 1A46     	 mov r2,r3
 2643 017a FFF7FEFF 	 bl mbedtls_mpi_mul_mpi
 2644 017e F863     	 str r0,[r7,#60]
 2645 0180 FB6B     	 ldr r3,[r7,#60]
 2646 0182 002B     	 cmp r3,#0
 2647 0184 00D0     	 beq .L169
 2648 0186 F3E0     	 b .L161
 2649              	.L169:
 2650              	 .loc 1 1182 0 is_stmt 0 discriminator 1
 2651 0188 07F11C03 	 add r3,r7,#28
 2652 018c 1846     	 mov r0,r3
 2653 018e F968     	 ldr r1,[r7,#12]
 2654 0190 FFF7FEFF 	 bl ecp_modp
 2655 0194 F863     	 str r0,[r7,#60]
 2656 0196 FB6B     	 ldr r3,[r7,#60]
 2657 0198 002B     	 cmp r3,#0
 2658 019a 00D0     	 beq .L170
 2659              	 .loc 1 1182 0
 2660 019c E8E0     	 b .L161
 2661              	.L170:
1183:C:/Users/Yushev/git/wpcqi-optiga-trust-charge/optiga/externals/mbedtls/library\ecp.c ****             MBEDTLS_MPI_CHK( mbedtls_mpi_mul_mpi( &u,  &u, &T[i]->Z ) ); MOD_MUL( u );
 2662              	 .loc 1 1183 0 is_stmt 1
 2663 019e BB6B     	 ldr r3,[r7,#56]
 2664 01a0 9B00     	 lsls r3,r3,#2
 2665 01a2 BA68     	 ldr r2,[r7,#8]
 2666 01a4 1344     	 add r3,r3,r2
 2667 01a6 1B68     	 ldr r3,[r3]
 2668 01a8 1833     	 adds r3,r3,#24
 2669 01aa 07F12801 	 add r1,r7,#40
 2670 01ae 07F12802 	 add r2,r7,#40
 2671 01b2 0846     	 mov r0,r1
 2672 01b4 1146     	 mov r1,r2
 2673 01b6 1A46     	 mov r2,r3
 2674 01b8 FFF7FEFF 	 bl mbedtls_mpi_mul_mpi
 2675 01bc F863     	 str r0,[r7,#60]
 2676 01be FB6B     	 ldr r3,[r7,#60]
 2677 01c0 002B     	 cmp r3,#0
 2678 01c2 00D0     	 beq .L171
 2679 01c4 D4E0     	 b .L161
 2680              	.L171:
 2681              	 .loc 1 1183 0 is_stmt 0 discriminator 1
 2682 01c6 07F12803 	 add r3,r7,#40
 2683 01ca 1846     	 mov r0,r3
 2684 01cc F968     	 ldr r1,[r7,#12]
 2685 01ce FFF7FEFF 	 bl ecp_modp
 2686 01d2 F863     	 str r0,[r7,#60]
 2687 01d4 FB6B     	 ldr r3,[r7,#60]
 2688 01d6 002B     	 cmp r3,#0
 2689 01d8 00D0     	 beq .L168
 2690              	 .loc 1 1183 0
 2691 01da C9E0     	 b .L161
 2692              	.L168:
1184:C:/Users/Yushev/git/wpcqi-optiga-trust-charge/optiga/externals/mbedtls/library\ecp.c ****         }
1185:C:/Users/Yushev/git/wpcqi-optiga-trust-charge/optiga/externals/mbedtls/library\ecp.c **** 
1186:C:/Users/Yushev/git/wpcqi-optiga-trust-charge/optiga/externals/mbedtls/library\ecp.c ****         /*
1187:C:/Users/Yushev/git/wpcqi-optiga-trust-charge/optiga/externals/mbedtls/library\ecp.c ****          * proceed as in normalize()
1188:C:/Users/Yushev/git/wpcqi-optiga-trust-charge/optiga/externals/mbedtls/library\ecp.c ****          */
1189:C:/Users/Yushev/git/wpcqi-optiga-trust-charge/optiga/externals/mbedtls/library\ecp.c ****         MBEDTLS_MPI_CHK( mbedtls_mpi_mul_mpi( &ZZi,     &Zi,      &Zi  ) ); MOD_MUL( ZZi );
 2693              	 .loc 1 1189 0 is_stmt 1
 2694 01dc 07F11001 	 add r1,r7,#16
 2695 01e0 07F11C02 	 add r2,r7,#28
 2696 01e4 07F11C03 	 add r3,r7,#28
 2697 01e8 0846     	 mov r0,r1
 2698 01ea 1146     	 mov r1,r2
 2699 01ec 1A46     	 mov r2,r3
 2700 01ee FFF7FEFF 	 bl mbedtls_mpi_mul_mpi
 2701 01f2 F863     	 str r0,[r7,#60]
 2702 01f4 FB6B     	 ldr r3,[r7,#60]
 2703 01f6 002B     	 cmp r3,#0
 2704 01f8 00D0     	 beq .L172
 2705 01fa B9E0     	 b .L161
 2706              	.L172:
 2707              	 .loc 1 1189 0 is_stmt 0 discriminator 1
 2708 01fc 07F11003 	 add r3,r7,#16
 2709 0200 1846     	 mov r0,r3
 2710 0202 F968     	 ldr r1,[r7,#12]
 2711 0204 FFF7FEFF 	 bl ecp_modp
 2712 0208 F863     	 str r0,[r7,#60]
 2713 020a FB6B     	 ldr r3,[r7,#60]
 2714 020c 002B     	 cmp r3,#0
 2715 020e 00D0     	 beq .L173
 2716              	 .loc 1 1189 0
 2717 0210 AEE0     	 b .L161
 2718              	.L173:
1190:C:/Users/Yushev/git/wpcqi-optiga-trust-charge/optiga/externals/mbedtls/library\ecp.c ****         MBEDTLS_MPI_CHK( mbedtls_mpi_mul_mpi( &T[i]->X, &T[i]->X, &ZZi ) ); MOD_MUL( T[i]->X );
 2719              	 .loc 1 1190 0 is_stmt 1
 2720 0212 BB6B     	 ldr r3,[r7,#56]
 2721 0214 9B00     	 lsls r3,r3,#2
 2722 0216 BA68     	 ldr r2,[r7,#8]
 2723 0218 1344     	 add r3,r3,r2
 2724 021a 1B68     	 ldr r3,[r3]
 2725 021c 1946     	 mov r1,r3
 2726 021e BB6B     	 ldr r3,[r7,#56]
 2727 0220 9B00     	 lsls r3,r3,#2
 2728 0222 BA68     	 ldr r2,[r7,#8]
 2729 0224 1344     	 add r3,r3,r2
 2730 0226 1B68     	 ldr r3,[r3]
 2731 0228 1A46     	 mov r2,r3
 2732 022a 07F11003 	 add r3,r7,#16
 2733 022e 0846     	 mov r0,r1
 2734 0230 1146     	 mov r1,r2
 2735 0232 1A46     	 mov r2,r3
 2736 0234 FFF7FEFF 	 bl mbedtls_mpi_mul_mpi
 2737 0238 F863     	 str r0,[r7,#60]
 2738 023a FB6B     	 ldr r3,[r7,#60]
 2739 023c 002B     	 cmp r3,#0
 2740 023e 00D0     	 beq .L174
 2741 0240 96E0     	 b .L161
 2742              	.L174:
 2743              	 .loc 1 1190 0 is_stmt 0 discriminator 1
 2744 0242 BB6B     	 ldr r3,[r7,#56]
 2745 0244 9B00     	 lsls r3,r3,#2
 2746 0246 BA68     	 ldr r2,[r7,#8]
 2747 0248 1344     	 add r3,r3,r2
 2748 024a 1B68     	 ldr r3,[r3]
 2749 024c 1846     	 mov r0,r3
 2750 024e F968     	 ldr r1,[r7,#12]
 2751 0250 FFF7FEFF 	 bl ecp_modp
 2752 0254 F863     	 str r0,[r7,#60]
 2753 0256 FB6B     	 ldr r3,[r7,#60]
 2754 0258 002B     	 cmp r3,#0
 2755 025a 00D0     	 beq .L175
 2756              	 .loc 1 1190 0
 2757 025c 88E0     	 b .L161
 2758              	.L175:
1191:C:/Users/Yushev/git/wpcqi-optiga-trust-charge/optiga/externals/mbedtls/library\ecp.c ****         MBEDTLS_MPI_CHK( mbedtls_mpi_mul_mpi( &T[i]->Y, &T[i]->Y, &ZZi ) ); MOD_MUL( T[i]->Y );
 2759              	 .loc 1 1191 0 is_stmt 1
 2760 025e BB6B     	 ldr r3,[r7,#56]
 2761 0260 9B00     	 lsls r3,r3,#2
 2762 0262 BA68     	 ldr r2,[r7,#8]
 2763 0264 1344     	 add r3,r3,r2
 2764 0266 1B68     	 ldr r3,[r3]
 2765 0268 03F10C01 	 add r1,r3,#12
 2766 026c BB6B     	 ldr r3,[r7,#56]
 2767 026e 9B00     	 lsls r3,r3,#2
 2768 0270 BA68     	 ldr r2,[r7,#8]
 2769 0272 1344     	 add r3,r3,r2
 2770 0274 1B68     	 ldr r3,[r3]
 2771 0276 03F10C02 	 add r2,r3,#12
