   1              	 .syntax unified
   2              	 .cpu cortex-m4
   3              	 .eabi_attribute 27,3
   4              	 .fpu fpv4-sp-d16
   5              	 .eabi_attribute 20,1
   6              	 .eabi_attribute 21,1
   7              	 .eabi_attribute 23,3
   8              	 .eabi_attribute 24,1
   9              	 .eabi_attribute 25,1
  10              	 .eabi_attribute 26,1
  11              	 .eabi_attribute 30,6
  12              	 .eabi_attribute 34,1
  13              	 .eabi_attribute 18,4
  14              	 .thumb
  15              	 .file "md_wrap.c"
  16              	 .text
  17              	.Ltext0:
  18              	 .cfi_sections .debug_frame
  19              	 .section .text.sha224_starts_wrap,"ax",%progbits
  20              	 .align 2
  21              	 .thumb
  22              	 .thumb_func
  24              	sha224_starts_wrap:
  25              	.LFB0:
  26              	 .file 1 "C:/Users/Yushev/git/wpcqi-optiga-trust-charge/optiga/externals/mbedtls/library/md_wrap.c"
   1:C:/Users/Yushev/git/wpcqi-optiga-trust-charge/optiga/externals/mbedtls/library\md_wrap.c **** /**
   2:C:/Users/Yushev/git/wpcqi-optiga-trust-charge/optiga/externals/mbedtls/library\md_wrap.c ****  * \file md_wrap.c
   3:C:/Users/Yushev/git/wpcqi-optiga-trust-charge/optiga/externals/mbedtls/library\md_wrap.c ****  *
   4:C:/Users/Yushev/git/wpcqi-optiga-trust-charge/optiga/externals/mbedtls/library\md_wrap.c ****  * \brief Generic message digest wrapper for mbed TLS
   5:C:/Users/Yushev/git/wpcqi-optiga-trust-charge/optiga/externals/mbedtls/library\md_wrap.c ****  *
   6:C:/Users/Yushev/git/wpcqi-optiga-trust-charge/optiga/externals/mbedtls/library\md_wrap.c ****  * \author Adriaan de Jong <dejong@fox-it.com>
   7:C:/Users/Yushev/git/wpcqi-optiga-trust-charge/optiga/externals/mbedtls/library\md_wrap.c ****  *
   8:C:/Users/Yushev/git/wpcqi-optiga-trust-charge/optiga/externals/mbedtls/library\md_wrap.c ****  *  Copyright (C) 2006-2015, ARM Limited, All Rights Reserved
   9:C:/Users/Yushev/git/wpcqi-optiga-trust-charge/optiga/externals/mbedtls/library\md_wrap.c ****  *  SPDX-License-Identifier: Apache-2.0
  10:C:/Users/Yushev/git/wpcqi-optiga-trust-charge/optiga/externals/mbedtls/library\md_wrap.c ****  *
  11:C:/Users/Yushev/git/wpcqi-optiga-trust-charge/optiga/externals/mbedtls/library\md_wrap.c ****  *  Licensed under the Apache License, Version 2.0 (the "License"); you may
  12:C:/Users/Yushev/git/wpcqi-optiga-trust-charge/optiga/externals/mbedtls/library\md_wrap.c ****  *  not use this file except in compliance with the License.
  13:C:/Users/Yushev/git/wpcqi-optiga-trust-charge/optiga/externals/mbedtls/library\md_wrap.c ****  *  You may obtain a copy of the License at
  14:C:/Users/Yushev/git/wpcqi-optiga-trust-charge/optiga/externals/mbedtls/library\md_wrap.c ****  *
  15:C:/Users/Yushev/git/wpcqi-optiga-trust-charge/optiga/externals/mbedtls/library\md_wrap.c ****  *  http://www.apache.org/licenses/LICENSE-2.0
  16:C:/Users/Yushev/git/wpcqi-optiga-trust-charge/optiga/externals/mbedtls/library\md_wrap.c ****  *
  17:C:/Users/Yushev/git/wpcqi-optiga-trust-charge/optiga/externals/mbedtls/library\md_wrap.c ****  *  Unless required by applicable law or agreed to in writing, software
  18:C:/Users/Yushev/git/wpcqi-optiga-trust-charge/optiga/externals/mbedtls/library\md_wrap.c ****  *  distributed under the License is distributed on an "AS IS" BASIS, WITHOUT
  19:C:/Users/Yushev/git/wpcqi-optiga-trust-charge/optiga/externals/mbedtls/library\md_wrap.c ****  *  WARRANTIES OR CONDITIONS OF ANY KIND, either express or implied.
  20:C:/Users/Yushev/git/wpcqi-optiga-trust-charge/optiga/externals/mbedtls/library\md_wrap.c ****  *  See the License for the specific language governing permissions and
  21:C:/Users/Yushev/git/wpcqi-optiga-trust-charge/optiga/externals/mbedtls/library\md_wrap.c ****  *  limitations under the License.
  22:C:/Users/Yushev/git/wpcqi-optiga-trust-charge/optiga/externals/mbedtls/library\md_wrap.c ****  *
  23:C:/Users/Yushev/git/wpcqi-optiga-trust-charge/optiga/externals/mbedtls/library\md_wrap.c ****  *  This file is part of mbed TLS (https://tls.mbed.org)
  24:C:/Users/Yushev/git/wpcqi-optiga-trust-charge/optiga/externals/mbedtls/library\md_wrap.c ****  */
  25:C:/Users/Yushev/git/wpcqi-optiga-trust-charge/optiga/externals/mbedtls/library\md_wrap.c **** 
  26:C:/Users/Yushev/git/wpcqi-optiga-trust-charge/optiga/externals/mbedtls/library\md_wrap.c **** #if !defined(MBEDTLS_CONFIG_FILE)
  27:C:/Users/Yushev/git/wpcqi-optiga-trust-charge/optiga/externals/mbedtls/library\md_wrap.c **** #include "mbedtls/config.h"
  28:C:/Users/Yushev/git/wpcqi-optiga-trust-charge/optiga/externals/mbedtls/library\md_wrap.c **** #else
  29:C:/Users/Yushev/git/wpcqi-optiga-trust-charge/optiga/externals/mbedtls/library\md_wrap.c **** #include MBEDTLS_CONFIG_FILE
  30:C:/Users/Yushev/git/wpcqi-optiga-trust-charge/optiga/externals/mbedtls/library\md_wrap.c **** #endif
  31:C:/Users/Yushev/git/wpcqi-optiga-trust-charge/optiga/externals/mbedtls/library\md_wrap.c **** 
  32:C:/Users/Yushev/git/wpcqi-optiga-trust-charge/optiga/externals/mbedtls/library\md_wrap.c **** #if defined(MBEDTLS_MD_C)
  33:C:/Users/Yushev/git/wpcqi-optiga-trust-charge/optiga/externals/mbedtls/library\md_wrap.c **** 
  34:C:/Users/Yushev/git/wpcqi-optiga-trust-charge/optiga/externals/mbedtls/library\md_wrap.c **** #include "mbedtls/md_internal.h"
  35:C:/Users/Yushev/git/wpcqi-optiga-trust-charge/optiga/externals/mbedtls/library\md_wrap.c **** 
  36:C:/Users/Yushev/git/wpcqi-optiga-trust-charge/optiga/externals/mbedtls/library\md_wrap.c **** #if defined(MBEDTLS_MD2_C)
  37:C:/Users/Yushev/git/wpcqi-optiga-trust-charge/optiga/externals/mbedtls/library\md_wrap.c **** #include "mbedtls/md2.h"
  38:C:/Users/Yushev/git/wpcqi-optiga-trust-charge/optiga/externals/mbedtls/library\md_wrap.c **** #endif
  39:C:/Users/Yushev/git/wpcqi-optiga-trust-charge/optiga/externals/mbedtls/library\md_wrap.c **** 
  40:C:/Users/Yushev/git/wpcqi-optiga-trust-charge/optiga/externals/mbedtls/library\md_wrap.c **** #if defined(MBEDTLS_MD4_C)
  41:C:/Users/Yushev/git/wpcqi-optiga-trust-charge/optiga/externals/mbedtls/library\md_wrap.c **** #include "mbedtls/md4.h"
  42:C:/Users/Yushev/git/wpcqi-optiga-trust-charge/optiga/externals/mbedtls/library\md_wrap.c **** #endif
  43:C:/Users/Yushev/git/wpcqi-optiga-trust-charge/optiga/externals/mbedtls/library\md_wrap.c **** 
  44:C:/Users/Yushev/git/wpcqi-optiga-trust-charge/optiga/externals/mbedtls/library\md_wrap.c **** #if defined(MBEDTLS_MD5_C)
  45:C:/Users/Yushev/git/wpcqi-optiga-trust-charge/optiga/externals/mbedtls/library\md_wrap.c **** #include "mbedtls/md5.h"
  46:C:/Users/Yushev/git/wpcqi-optiga-trust-charge/optiga/externals/mbedtls/library\md_wrap.c **** #endif
  47:C:/Users/Yushev/git/wpcqi-optiga-trust-charge/optiga/externals/mbedtls/library\md_wrap.c **** 
  48:C:/Users/Yushev/git/wpcqi-optiga-trust-charge/optiga/externals/mbedtls/library\md_wrap.c **** #if defined(MBEDTLS_RIPEMD160_C)
  49:C:/Users/Yushev/git/wpcqi-optiga-trust-charge/optiga/externals/mbedtls/library\md_wrap.c **** #include "mbedtls/ripemd160.h"
  50:C:/Users/Yushev/git/wpcqi-optiga-trust-charge/optiga/externals/mbedtls/library\md_wrap.c **** #endif
  51:C:/Users/Yushev/git/wpcqi-optiga-trust-charge/optiga/externals/mbedtls/library\md_wrap.c **** 
  52:C:/Users/Yushev/git/wpcqi-optiga-trust-charge/optiga/externals/mbedtls/library\md_wrap.c **** #if defined(MBEDTLS_SHA1_C)
  53:C:/Users/Yushev/git/wpcqi-optiga-trust-charge/optiga/externals/mbedtls/library\md_wrap.c **** #include "mbedtls/sha1.h"
  54:C:/Users/Yushev/git/wpcqi-optiga-trust-charge/optiga/externals/mbedtls/library\md_wrap.c **** #endif
  55:C:/Users/Yushev/git/wpcqi-optiga-trust-charge/optiga/externals/mbedtls/library\md_wrap.c **** 
  56:C:/Users/Yushev/git/wpcqi-optiga-trust-charge/optiga/externals/mbedtls/library\md_wrap.c **** #if defined(MBEDTLS_SHA256_C)
  57:C:/Users/Yushev/git/wpcqi-optiga-trust-charge/optiga/externals/mbedtls/library\md_wrap.c **** #include "mbedtls/sha256.h"
  58:C:/Users/Yushev/git/wpcqi-optiga-trust-charge/optiga/externals/mbedtls/library\md_wrap.c **** #endif
  59:C:/Users/Yushev/git/wpcqi-optiga-trust-charge/optiga/externals/mbedtls/library\md_wrap.c **** 
  60:C:/Users/Yushev/git/wpcqi-optiga-trust-charge/optiga/externals/mbedtls/library\md_wrap.c **** #if defined(MBEDTLS_SHA512_C)
  61:C:/Users/Yushev/git/wpcqi-optiga-trust-charge/optiga/externals/mbedtls/library\md_wrap.c **** #include "mbedtls/sha512.h"
  62:C:/Users/Yushev/git/wpcqi-optiga-trust-charge/optiga/externals/mbedtls/library\md_wrap.c **** #endif
  63:C:/Users/Yushev/git/wpcqi-optiga-trust-charge/optiga/externals/mbedtls/library\md_wrap.c **** 
  64:C:/Users/Yushev/git/wpcqi-optiga-trust-charge/optiga/externals/mbedtls/library\md_wrap.c **** #if defined(MBEDTLS_PLATFORM_C)
  65:C:/Users/Yushev/git/wpcqi-optiga-trust-charge/optiga/externals/mbedtls/library\md_wrap.c **** #include "mbedtls/platform.h"
  66:C:/Users/Yushev/git/wpcqi-optiga-trust-charge/optiga/externals/mbedtls/library\md_wrap.c **** #else
  67:C:/Users/Yushev/git/wpcqi-optiga-trust-charge/optiga/externals/mbedtls/library\md_wrap.c **** #include <stdlib.h>
  68:C:/Users/Yushev/git/wpcqi-optiga-trust-charge/optiga/externals/mbedtls/library\md_wrap.c **** #define mbedtls_calloc    calloc
  69:C:/Users/Yushev/git/wpcqi-optiga-trust-charge/optiga/externals/mbedtls/library\md_wrap.c **** #define mbedtls_free       free
  70:C:/Users/Yushev/git/wpcqi-optiga-trust-charge/optiga/externals/mbedtls/library\md_wrap.c **** #endif
  71:C:/Users/Yushev/git/wpcqi-optiga-trust-charge/optiga/externals/mbedtls/library\md_wrap.c **** 
  72:C:/Users/Yushev/git/wpcqi-optiga-trust-charge/optiga/externals/mbedtls/library\md_wrap.c **** #if defined(MBEDTLS_MD2_C)
  73:C:/Users/Yushev/git/wpcqi-optiga-trust-charge/optiga/externals/mbedtls/library\md_wrap.c **** 
  74:C:/Users/Yushev/git/wpcqi-optiga-trust-charge/optiga/externals/mbedtls/library\md_wrap.c **** static int md2_starts_wrap( void *ctx )
  75:C:/Users/Yushev/git/wpcqi-optiga-trust-charge/optiga/externals/mbedtls/library\md_wrap.c **** {
  76:C:/Users/Yushev/git/wpcqi-optiga-trust-charge/optiga/externals/mbedtls/library\md_wrap.c ****     return( mbedtls_md2_starts_ret( (mbedtls_md2_context *) ctx ) );
  77:C:/Users/Yushev/git/wpcqi-optiga-trust-charge/optiga/externals/mbedtls/library\md_wrap.c **** }
  78:C:/Users/Yushev/git/wpcqi-optiga-trust-charge/optiga/externals/mbedtls/library\md_wrap.c **** 
  79:C:/Users/Yushev/git/wpcqi-optiga-trust-charge/optiga/externals/mbedtls/library\md_wrap.c **** static int md2_update_wrap( void *ctx, const unsigned char *input,
  80:C:/Users/Yushev/git/wpcqi-optiga-trust-charge/optiga/externals/mbedtls/library\md_wrap.c ****                              size_t ilen )
  81:C:/Users/Yushev/git/wpcqi-optiga-trust-charge/optiga/externals/mbedtls/library\md_wrap.c **** {
  82:C:/Users/Yushev/git/wpcqi-optiga-trust-charge/optiga/externals/mbedtls/library\md_wrap.c ****     return( mbedtls_md2_update_ret( (mbedtls_md2_context *) ctx, input, ilen ) );
  83:C:/Users/Yushev/git/wpcqi-optiga-trust-charge/optiga/externals/mbedtls/library\md_wrap.c **** }
  84:C:/Users/Yushev/git/wpcqi-optiga-trust-charge/optiga/externals/mbedtls/library\md_wrap.c **** 
  85:C:/Users/Yushev/git/wpcqi-optiga-trust-charge/optiga/externals/mbedtls/library\md_wrap.c **** static int md2_finish_wrap( void *ctx, unsigned char *output )
  86:C:/Users/Yushev/git/wpcqi-optiga-trust-charge/optiga/externals/mbedtls/library\md_wrap.c **** {
  87:C:/Users/Yushev/git/wpcqi-optiga-trust-charge/optiga/externals/mbedtls/library\md_wrap.c ****     return( mbedtls_md2_finish_ret( (mbedtls_md2_context *) ctx, output ) );
  88:C:/Users/Yushev/git/wpcqi-optiga-trust-charge/optiga/externals/mbedtls/library\md_wrap.c **** }
  89:C:/Users/Yushev/git/wpcqi-optiga-trust-charge/optiga/externals/mbedtls/library\md_wrap.c **** 
  90:C:/Users/Yushev/git/wpcqi-optiga-trust-charge/optiga/externals/mbedtls/library\md_wrap.c **** static void *md2_ctx_alloc( void )
  91:C:/Users/Yushev/git/wpcqi-optiga-trust-charge/optiga/externals/mbedtls/library\md_wrap.c **** {
  92:C:/Users/Yushev/git/wpcqi-optiga-trust-charge/optiga/externals/mbedtls/library\md_wrap.c ****     void *ctx = mbedtls_calloc( 1, sizeof( mbedtls_md2_context ) );
  93:C:/Users/Yushev/git/wpcqi-optiga-trust-charge/optiga/externals/mbedtls/library\md_wrap.c **** 
  94:C:/Users/Yushev/git/wpcqi-optiga-trust-charge/optiga/externals/mbedtls/library\md_wrap.c ****     if( ctx != NULL )
  95:C:/Users/Yushev/git/wpcqi-optiga-trust-charge/optiga/externals/mbedtls/library\md_wrap.c ****         mbedtls_md2_init( (mbedtls_md2_context *) ctx );
  96:C:/Users/Yushev/git/wpcqi-optiga-trust-charge/optiga/externals/mbedtls/library\md_wrap.c **** 
  97:C:/Users/Yushev/git/wpcqi-optiga-trust-charge/optiga/externals/mbedtls/library\md_wrap.c ****     return( ctx );
  98:C:/Users/Yushev/git/wpcqi-optiga-trust-charge/optiga/externals/mbedtls/library\md_wrap.c **** }
  99:C:/Users/Yushev/git/wpcqi-optiga-trust-charge/optiga/externals/mbedtls/library\md_wrap.c **** 
 100:C:/Users/Yushev/git/wpcqi-optiga-trust-charge/optiga/externals/mbedtls/library\md_wrap.c **** static void md2_ctx_free( void *ctx )
 101:C:/Users/Yushev/git/wpcqi-optiga-trust-charge/optiga/externals/mbedtls/library\md_wrap.c **** {
 102:C:/Users/Yushev/git/wpcqi-optiga-trust-charge/optiga/externals/mbedtls/library\md_wrap.c ****     mbedtls_md2_free( (mbedtls_md2_context *) ctx );
 103:C:/Users/Yushev/git/wpcqi-optiga-trust-charge/optiga/externals/mbedtls/library\md_wrap.c ****     mbedtls_free( ctx );
 104:C:/Users/Yushev/git/wpcqi-optiga-trust-charge/optiga/externals/mbedtls/library\md_wrap.c **** }
 105:C:/Users/Yushev/git/wpcqi-optiga-trust-charge/optiga/externals/mbedtls/library\md_wrap.c **** 
 106:C:/Users/Yushev/git/wpcqi-optiga-trust-charge/optiga/externals/mbedtls/library\md_wrap.c **** static void md2_clone_wrap( void *dst, const void *src )
 107:C:/Users/Yushev/git/wpcqi-optiga-trust-charge/optiga/externals/mbedtls/library\md_wrap.c **** {
 108:C:/Users/Yushev/git/wpcqi-optiga-trust-charge/optiga/externals/mbedtls/library\md_wrap.c ****     mbedtls_md2_clone( (mbedtls_md2_context *) dst,
 109:C:/Users/Yushev/git/wpcqi-optiga-trust-charge/optiga/externals/mbedtls/library\md_wrap.c ****                  (const mbedtls_md2_context *) src );
 110:C:/Users/Yushev/git/wpcqi-optiga-trust-charge/optiga/externals/mbedtls/library\md_wrap.c **** }
 111:C:/Users/Yushev/git/wpcqi-optiga-trust-charge/optiga/externals/mbedtls/library\md_wrap.c **** 
 112:C:/Users/Yushev/git/wpcqi-optiga-trust-charge/optiga/externals/mbedtls/library\md_wrap.c **** static int md2_process_wrap( void *ctx, const unsigned char *data )
 113:C:/Users/Yushev/git/wpcqi-optiga-trust-charge/optiga/externals/mbedtls/library\md_wrap.c **** {
 114:C:/Users/Yushev/git/wpcqi-optiga-trust-charge/optiga/externals/mbedtls/library\md_wrap.c ****     ((void) data);
 115:C:/Users/Yushev/git/wpcqi-optiga-trust-charge/optiga/externals/mbedtls/library\md_wrap.c **** 
 116:C:/Users/Yushev/git/wpcqi-optiga-trust-charge/optiga/externals/mbedtls/library\md_wrap.c ****     return( mbedtls_internal_md2_process( (mbedtls_md2_context *) ctx ) );
 117:C:/Users/Yushev/git/wpcqi-optiga-trust-charge/optiga/externals/mbedtls/library\md_wrap.c **** }
 118:C:/Users/Yushev/git/wpcqi-optiga-trust-charge/optiga/externals/mbedtls/library\md_wrap.c **** 
 119:C:/Users/Yushev/git/wpcqi-optiga-trust-charge/optiga/externals/mbedtls/library\md_wrap.c **** const mbedtls_md_info_t mbedtls_md2_info = {
 120:C:/Users/Yushev/git/wpcqi-optiga-trust-charge/optiga/externals/mbedtls/library\md_wrap.c ****     MBEDTLS_MD_MD2,
 121:C:/Users/Yushev/git/wpcqi-optiga-trust-charge/optiga/externals/mbedtls/library\md_wrap.c ****     "MD2",
 122:C:/Users/Yushev/git/wpcqi-optiga-trust-charge/optiga/externals/mbedtls/library\md_wrap.c ****     16,
 123:C:/Users/Yushev/git/wpcqi-optiga-trust-charge/optiga/externals/mbedtls/library\md_wrap.c ****     16,
 124:C:/Users/Yushev/git/wpcqi-optiga-trust-charge/optiga/externals/mbedtls/library\md_wrap.c ****     md2_starts_wrap,
 125:C:/Users/Yushev/git/wpcqi-optiga-trust-charge/optiga/externals/mbedtls/library\md_wrap.c ****     md2_update_wrap,
 126:C:/Users/Yushev/git/wpcqi-optiga-trust-charge/optiga/externals/mbedtls/library\md_wrap.c ****     md2_finish_wrap,
 127:C:/Users/Yushev/git/wpcqi-optiga-trust-charge/optiga/externals/mbedtls/library\md_wrap.c ****     mbedtls_md2_ret,
 128:C:/Users/Yushev/git/wpcqi-optiga-trust-charge/optiga/externals/mbedtls/library\md_wrap.c ****     md2_ctx_alloc,
 129:C:/Users/Yushev/git/wpcqi-optiga-trust-charge/optiga/externals/mbedtls/library\md_wrap.c ****     md2_ctx_free,
 130:C:/Users/Yushev/git/wpcqi-optiga-trust-charge/optiga/externals/mbedtls/library\md_wrap.c ****     md2_clone_wrap,
 131:C:/Users/Yushev/git/wpcqi-optiga-trust-charge/optiga/externals/mbedtls/library\md_wrap.c ****     md2_process_wrap,
 132:C:/Users/Yushev/git/wpcqi-optiga-trust-charge/optiga/externals/mbedtls/library\md_wrap.c **** };
 133:C:/Users/Yushev/git/wpcqi-optiga-trust-charge/optiga/externals/mbedtls/library\md_wrap.c **** 
 134:C:/Users/Yushev/git/wpcqi-optiga-trust-charge/optiga/externals/mbedtls/library\md_wrap.c **** #endif /* MBEDTLS_MD2_C */
 135:C:/Users/Yushev/git/wpcqi-optiga-trust-charge/optiga/externals/mbedtls/library\md_wrap.c **** 
 136:C:/Users/Yushev/git/wpcqi-optiga-trust-charge/optiga/externals/mbedtls/library\md_wrap.c **** #if defined(MBEDTLS_MD4_C)
 137:C:/Users/Yushev/git/wpcqi-optiga-trust-charge/optiga/externals/mbedtls/library\md_wrap.c **** 
 138:C:/Users/Yushev/git/wpcqi-optiga-trust-charge/optiga/externals/mbedtls/library\md_wrap.c **** static int md4_starts_wrap( void *ctx )
 139:C:/Users/Yushev/git/wpcqi-optiga-trust-charge/optiga/externals/mbedtls/library\md_wrap.c **** {
 140:C:/Users/Yushev/git/wpcqi-optiga-trust-charge/optiga/externals/mbedtls/library\md_wrap.c ****     return( mbedtls_md4_starts_ret( (mbedtls_md4_context *) ctx ) );
 141:C:/Users/Yushev/git/wpcqi-optiga-trust-charge/optiga/externals/mbedtls/library\md_wrap.c **** }
 142:C:/Users/Yushev/git/wpcqi-optiga-trust-charge/optiga/externals/mbedtls/library\md_wrap.c **** 
 143:C:/Users/Yushev/git/wpcqi-optiga-trust-charge/optiga/externals/mbedtls/library\md_wrap.c **** static int md4_update_wrap( void *ctx, const unsigned char *input,
 144:C:/Users/Yushev/git/wpcqi-optiga-trust-charge/optiga/externals/mbedtls/library\md_wrap.c ****                              size_t ilen )
 145:C:/Users/Yushev/git/wpcqi-optiga-trust-charge/optiga/externals/mbedtls/library\md_wrap.c **** {
 146:C:/Users/Yushev/git/wpcqi-optiga-trust-charge/optiga/externals/mbedtls/library\md_wrap.c ****     return( mbedtls_md4_update_ret( (mbedtls_md4_context *) ctx, input, ilen ) );
 147:C:/Users/Yushev/git/wpcqi-optiga-trust-charge/optiga/externals/mbedtls/library\md_wrap.c **** }
 148:C:/Users/Yushev/git/wpcqi-optiga-trust-charge/optiga/externals/mbedtls/library\md_wrap.c **** 
 149:C:/Users/Yushev/git/wpcqi-optiga-trust-charge/optiga/externals/mbedtls/library\md_wrap.c **** static int md4_finish_wrap( void *ctx, unsigned char *output )
 150:C:/Users/Yushev/git/wpcqi-optiga-trust-charge/optiga/externals/mbedtls/library\md_wrap.c **** {
 151:C:/Users/Yushev/git/wpcqi-optiga-trust-charge/optiga/externals/mbedtls/library\md_wrap.c ****     return( mbedtls_md4_finish_ret( (mbedtls_md4_context *) ctx, output ) );
 152:C:/Users/Yushev/git/wpcqi-optiga-trust-charge/optiga/externals/mbedtls/library\md_wrap.c **** }
 153:C:/Users/Yushev/git/wpcqi-optiga-trust-charge/optiga/externals/mbedtls/library\md_wrap.c **** 
 154:C:/Users/Yushev/git/wpcqi-optiga-trust-charge/optiga/externals/mbedtls/library\md_wrap.c **** static void *md4_ctx_alloc( void )
 155:C:/Users/Yushev/git/wpcqi-optiga-trust-charge/optiga/externals/mbedtls/library\md_wrap.c **** {
 156:C:/Users/Yushev/git/wpcqi-optiga-trust-charge/optiga/externals/mbedtls/library\md_wrap.c ****     void *ctx = mbedtls_calloc( 1, sizeof( mbedtls_md4_context ) );
 157:C:/Users/Yushev/git/wpcqi-optiga-trust-charge/optiga/externals/mbedtls/library\md_wrap.c **** 
 158:C:/Users/Yushev/git/wpcqi-optiga-trust-charge/optiga/externals/mbedtls/library\md_wrap.c ****     if( ctx != NULL )
 159:C:/Users/Yushev/git/wpcqi-optiga-trust-charge/optiga/externals/mbedtls/library\md_wrap.c ****         mbedtls_md4_init( (mbedtls_md4_context *) ctx );
 160:C:/Users/Yushev/git/wpcqi-optiga-trust-charge/optiga/externals/mbedtls/library\md_wrap.c **** 
 161:C:/Users/Yushev/git/wpcqi-optiga-trust-charge/optiga/externals/mbedtls/library\md_wrap.c ****     return( ctx );
 162:C:/Users/Yushev/git/wpcqi-optiga-trust-charge/optiga/externals/mbedtls/library\md_wrap.c **** }
 163:C:/Users/Yushev/git/wpcqi-optiga-trust-charge/optiga/externals/mbedtls/library\md_wrap.c **** 
 164:C:/Users/Yushev/git/wpcqi-optiga-trust-charge/optiga/externals/mbedtls/library\md_wrap.c **** static void md4_ctx_free( void *ctx )
 165:C:/Users/Yushev/git/wpcqi-optiga-trust-charge/optiga/externals/mbedtls/library\md_wrap.c **** {
 166:C:/Users/Yushev/git/wpcqi-optiga-trust-charge/optiga/externals/mbedtls/library\md_wrap.c ****     mbedtls_md4_free( (mbedtls_md4_context *) ctx );
 167:C:/Users/Yushev/git/wpcqi-optiga-trust-charge/optiga/externals/mbedtls/library\md_wrap.c ****     mbedtls_free( ctx );
 168:C:/Users/Yushev/git/wpcqi-optiga-trust-charge/optiga/externals/mbedtls/library\md_wrap.c **** }
 169:C:/Users/Yushev/git/wpcqi-optiga-trust-charge/optiga/externals/mbedtls/library\md_wrap.c **** 
 170:C:/Users/Yushev/git/wpcqi-optiga-trust-charge/optiga/externals/mbedtls/library\md_wrap.c **** static void md4_clone_wrap( void *dst, const void *src )
 171:C:/Users/Yushev/git/wpcqi-optiga-trust-charge/optiga/externals/mbedtls/library\md_wrap.c **** {
 172:C:/Users/Yushev/git/wpcqi-optiga-trust-charge/optiga/externals/mbedtls/library\md_wrap.c ****     mbedtls_md4_clone( (mbedtls_md4_context *) dst,
 173:C:/Users/Yushev/git/wpcqi-optiga-trust-charge/optiga/externals/mbedtls/library\md_wrap.c ****                        (const mbedtls_md4_context *) src );
 174:C:/Users/Yushev/git/wpcqi-optiga-trust-charge/optiga/externals/mbedtls/library\md_wrap.c **** }
 175:C:/Users/Yushev/git/wpcqi-optiga-trust-charge/optiga/externals/mbedtls/library\md_wrap.c **** 
 176:C:/Users/Yushev/git/wpcqi-optiga-trust-charge/optiga/externals/mbedtls/library\md_wrap.c **** static int md4_process_wrap( void *ctx, const unsigned char *data )
 177:C:/Users/Yushev/git/wpcqi-optiga-trust-charge/optiga/externals/mbedtls/library\md_wrap.c **** {
 178:C:/Users/Yushev/git/wpcqi-optiga-trust-charge/optiga/externals/mbedtls/library\md_wrap.c ****     return( mbedtls_internal_md4_process( (mbedtls_md4_context *) ctx, data ) );
 179:C:/Users/Yushev/git/wpcqi-optiga-trust-charge/optiga/externals/mbedtls/library\md_wrap.c **** }
 180:C:/Users/Yushev/git/wpcqi-optiga-trust-charge/optiga/externals/mbedtls/library\md_wrap.c **** 
 181:C:/Users/Yushev/git/wpcqi-optiga-trust-charge/optiga/externals/mbedtls/library\md_wrap.c **** const mbedtls_md_info_t mbedtls_md4_info = {
 182:C:/Users/Yushev/git/wpcqi-optiga-trust-charge/optiga/externals/mbedtls/library\md_wrap.c ****     MBEDTLS_MD_MD4,
 183:C:/Users/Yushev/git/wpcqi-optiga-trust-charge/optiga/externals/mbedtls/library\md_wrap.c ****     "MD4",
 184:C:/Users/Yushev/git/wpcqi-optiga-trust-charge/optiga/externals/mbedtls/library\md_wrap.c ****     16,
 185:C:/Users/Yushev/git/wpcqi-optiga-trust-charge/optiga/externals/mbedtls/library\md_wrap.c ****     64,
 186:C:/Users/Yushev/git/wpcqi-optiga-trust-charge/optiga/externals/mbedtls/library\md_wrap.c ****     md4_starts_wrap,
 187:C:/Users/Yushev/git/wpcqi-optiga-trust-charge/optiga/externals/mbedtls/library\md_wrap.c ****     md4_update_wrap,
 188:C:/Users/Yushev/git/wpcqi-optiga-trust-charge/optiga/externals/mbedtls/library\md_wrap.c ****     md4_finish_wrap,
 189:C:/Users/Yushev/git/wpcqi-optiga-trust-charge/optiga/externals/mbedtls/library\md_wrap.c ****     mbedtls_md4_ret,
 190:C:/Users/Yushev/git/wpcqi-optiga-trust-charge/optiga/externals/mbedtls/library\md_wrap.c ****     md4_ctx_alloc,
 191:C:/Users/Yushev/git/wpcqi-optiga-trust-charge/optiga/externals/mbedtls/library\md_wrap.c ****     md4_ctx_free,
 192:C:/Users/Yushev/git/wpcqi-optiga-trust-charge/optiga/externals/mbedtls/library\md_wrap.c ****     md4_clone_wrap,
 193:C:/Users/Yushev/git/wpcqi-optiga-trust-charge/optiga/externals/mbedtls/library\md_wrap.c ****     md4_process_wrap,
 194:C:/Users/Yushev/git/wpcqi-optiga-trust-charge/optiga/externals/mbedtls/library\md_wrap.c **** };
 195:C:/Users/Yushev/git/wpcqi-optiga-trust-charge/optiga/externals/mbedtls/library\md_wrap.c **** 
 196:C:/Users/Yushev/git/wpcqi-optiga-trust-charge/optiga/externals/mbedtls/library\md_wrap.c **** #endif /* MBEDTLS_MD4_C */
 197:C:/Users/Yushev/git/wpcqi-optiga-trust-charge/optiga/externals/mbedtls/library\md_wrap.c **** 
 198:C:/Users/Yushev/git/wpcqi-optiga-trust-charge/optiga/externals/mbedtls/library\md_wrap.c **** #if defined(MBEDTLS_MD5_C)
 199:C:/Users/Yushev/git/wpcqi-optiga-trust-charge/optiga/externals/mbedtls/library\md_wrap.c **** 
 200:C:/Users/Yushev/git/wpcqi-optiga-trust-charge/optiga/externals/mbedtls/library\md_wrap.c **** static int md5_starts_wrap( void *ctx )
 201:C:/Users/Yushev/git/wpcqi-optiga-trust-charge/optiga/externals/mbedtls/library\md_wrap.c **** {
 202:C:/Users/Yushev/git/wpcqi-optiga-trust-charge/optiga/externals/mbedtls/library\md_wrap.c ****     return( mbedtls_md5_starts_ret( (mbedtls_md5_context *) ctx ) );
 203:C:/Users/Yushev/git/wpcqi-optiga-trust-charge/optiga/externals/mbedtls/library\md_wrap.c **** }
 204:C:/Users/Yushev/git/wpcqi-optiga-trust-charge/optiga/externals/mbedtls/library\md_wrap.c **** 
 205:C:/Users/Yushev/git/wpcqi-optiga-trust-charge/optiga/externals/mbedtls/library\md_wrap.c **** static int md5_update_wrap( void *ctx, const unsigned char *input,
 206:C:/Users/Yushev/git/wpcqi-optiga-trust-charge/optiga/externals/mbedtls/library\md_wrap.c ****                              size_t ilen )
 207:C:/Users/Yushev/git/wpcqi-optiga-trust-charge/optiga/externals/mbedtls/library\md_wrap.c **** {
 208:C:/Users/Yushev/git/wpcqi-optiga-trust-charge/optiga/externals/mbedtls/library\md_wrap.c ****     return( mbedtls_md5_update_ret( (mbedtls_md5_context *) ctx, input, ilen ) );
 209:C:/Users/Yushev/git/wpcqi-optiga-trust-charge/optiga/externals/mbedtls/library\md_wrap.c **** }
 210:C:/Users/Yushev/git/wpcqi-optiga-trust-charge/optiga/externals/mbedtls/library\md_wrap.c **** 
 211:C:/Users/Yushev/git/wpcqi-optiga-trust-charge/optiga/externals/mbedtls/library\md_wrap.c **** static int md5_finish_wrap( void *ctx, unsigned char *output )
 212:C:/Users/Yushev/git/wpcqi-optiga-trust-charge/optiga/externals/mbedtls/library\md_wrap.c **** {
 213:C:/Users/Yushev/git/wpcqi-optiga-trust-charge/optiga/externals/mbedtls/library\md_wrap.c ****     return( mbedtls_md5_finish_ret( (mbedtls_md5_context *) ctx, output ) );
 214:C:/Users/Yushev/git/wpcqi-optiga-trust-charge/optiga/externals/mbedtls/library\md_wrap.c **** }
 215:C:/Users/Yushev/git/wpcqi-optiga-trust-charge/optiga/externals/mbedtls/library\md_wrap.c **** 
 216:C:/Users/Yushev/git/wpcqi-optiga-trust-charge/optiga/externals/mbedtls/library\md_wrap.c **** static void *md5_ctx_alloc( void )
 217:C:/Users/Yushev/git/wpcqi-optiga-trust-charge/optiga/externals/mbedtls/library\md_wrap.c **** {
 218:C:/Users/Yushev/git/wpcqi-optiga-trust-charge/optiga/externals/mbedtls/library\md_wrap.c ****     void *ctx = mbedtls_calloc( 1, sizeof( mbedtls_md5_context ) );
 219:C:/Users/Yushev/git/wpcqi-optiga-trust-charge/optiga/externals/mbedtls/library\md_wrap.c **** 
 220:C:/Users/Yushev/git/wpcqi-optiga-trust-charge/optiga/externals/mbedtls/library\md_wrap.c ****     if( ctx != NULL )
 221:C:/Users/Yushev/git/wpcqi-optiga-trust-charge/optiga/externals/mbedtls/library\md_wrap.c ****         mbedtls_md5_init( (mbedtls_md5_context *) ctx );
 222:C:/Users/Yushev/git/wpcqi-optiga-trust-charge/optiga/externals/mbedtls/library\md_wrap.c **** 
 223:C:/Users/Yushev/git/wpcqi-optiga-trust-charge/optiga/externals/mbedtls/library\md_wrap.c ****     return( ctx );
 224:C:/Users/Yushev/git/wpcqi-optiga-trust-charge/optiga/externals/mbedtls/library\md_wrap.c **** }
 225:C:/Users/Yushev/git/wpcqi-optiga-trust-charge/optiga/externals/mbedtls/library\md_wrap.c **** 
 226:C:/Users/Yushev/git/wpcqi-optiga-trust-charge/optiga/externals/mbedtls/library\md_wrap.c **** static void md5_ctx_free( void *ctx )
 227:C:/Users/Yushev/git/wpcqi-optiga-trust-charge/optiga/externals/mbedtls/library\md_wrap.c **** {
 228:C:/Users/Yushev/git/wpcqi-optiga-trust-charge/optiga/externals/mbedtls/library\md_wrap.c ****     mbedtls_md5_free( (mbedtls_md5_context *) ctx );
 229:C:/Users/Yushev/git/wpcqi-optiga-trust-charge/optiga/externals/mbedtls/library\md_wrap.c ****     mbedtls_free( ctx );
 230:C:/Users/Yushev/git/wpcqi-optiga-trust-charge/optiga/externals/mbedtls/library\md_wrap.c **** }
 231:C:/Users/Yushev/git/wpcqi-optiga-trust-charge/optiga/externals/mbedtls/library\md_wrap.c **** 
 232:C:/Users/Yushev/git/wpcqi-optiga-trust-charge/optiga/externals/mbedtls/library\md_wrap.c **** static void md5_clone_wrap( void *dst, const void *src )
 233:C:/Users/Yushev/git/wpcqi-optiga-trust-charge/optiga/externals/mbedtls/library\md_wrap.c **** {
 234:C:/Users/Yushev/git/wpcqi-optiga-trust-charge/optiga/externals/mbedtls/library\md_wrap.c ****     mbedtls_md5_clone( (mbedtls_md5_context *) dst,
 235:C:/Users/Yushev/git/wpcqi-optiga-trust-charge/optiga/externals/mbedtls/library\md_wrap.c ****                        (const mbedtls_md5_context *) src );
 236:C:/Users/Yushev/git/wpcqi-optiga-trust-charge/optiga/externals/mbedtls/library\md_wrap.c **** }
 237:C:/Users/Yushev/git/wpcqi-optiga-trust-charge/optiga/externals/mbedtls/library\md_wrap.c **** 
 238:C:/Users/Yushev/git/wpcqi-optiga-trust-charge/optiga/externals/mbedtls/library\md_wrap.c **** static int md5_process_wrap( void *ctx, const unsigned char *data )
 239:C:/Users/Yushev/git/wpcqi-optiga-trust-charge/optiga/externals/mbedtls/library\md_wrap.c **** {
 240:C:/Users/Yushev/git/wpcqi-optiga-trust-charge/optiga/externals/mbedtls/library\md_wrap.c ****     return( mbedtls_internal_md5_process( (mbedtls_md5_context *) ctx, data ) );
 241:C:/Users/Yushev/git/wpcqi-optiga-trust-charge/optiga/externals/mbedtls/library\md_wrap.c **** }
 242:C:/Users/Yushev/git/wpcqi-optiga-trust-charge/optiga/externals/mbedtls/library\md_wrap.c **** 
 243:C:/Users/Yushev/git/wpcqi-optiga-trust-charge/optiga/externals/mbedtls/library\md_wrap.c **** const mbedtls_md_info_t mbedtls_md5_info = {
 244:C:/Users/Yushev/git/wpcqi-optiga-trust-charge/optiga/externals/mbedtls/library\md_wrap.c ****     MBEDTLS_MD_MD5,
 245:C:/Users/Yushev/git/wpcqi-optiga-trust-charge/optiga/externals/mbedtls/library\md_wrap.c ****     "MD5",
 246:C:/Users/Yushev/git/wpcqi-optiga-trust-charge/optiga/externals/mbedtls/library\md_wrap.c ****     16,
 247:C:/Users/Yushev/git/wpcqi-optiga-trust-charge/optiga/externals/mbedtls/library\md_wrap.c ****     64,
 248:C:/Users/Yushev/git/wpcqi-optiga-trust-charge/optiga/externals/mbedtls/library\md_wrap.c ****     md5_starts_wrap,
 249:C:/Users/Yushev/git/wpcqi-optiga-trust-charge/optiga/externals/mbedtls/library\md_wrap.c ****     md5_update_wrap,
 250:C:/Users/Yushev/git/wpcqi-optiga-trust-charge/optiga/externals/mbedtls/library\md_wrap.c ****     md5_finish_wrap,
 251:C:/Users/Yushev/git/wpcqi-optiga-trust-charge/optiga/externals/mbedtls/library\md_wrap.c ****     mbedtls_md5_ret,
 252:C:/Users/Yushev/git/wpcqi-optiga-trust-charge/optiga/externals/mbedtls/library\md_wrap.c ****     md5_ctx_alloc,
 253:C:/Users/Yushev/git/wpcqi-optiga-trust-charge/optiga/externals/mbedtls/library\md_wrap.c ****     md5_ctx_free,
 254:C:/Users/Yushev/git/wpcqi-optiga-trust-charge/optiga/externals/mbedtls/library\md_wrap.c ****     md5_clone_wrap,
 255:C:/Users/Yushev/git/wpcqi-optiga-trust-charge/optiga/externals/mbedtls/library\md_wrap.c ****     md5_process_wrap,
 256:C:/Users/Yushev/git/wpcqi-optiga-trust-charge/optiga/externals/mbedtls/library\md_wrap.c **** };
 257:C:/Users/Yushev/git/wpcqi-optiga-trust-charge/optiga/externals/mbedtls/library\md_wrap.c **** 
 258:C:/Users/Yushev/git/wpcqi-optiga-trust-charge/optiga/externals/mbedtls/library\md_wrap.c **** #endif /* MBEDTLS_MD5_C */
 259:C:/Users/Yushev/git/wpcqi-optiga-trust-charge/optiga/externals/mbedtls/library\md_wrap.c **** 
 260:C:/Users/Yushev/git/wpcqi-optiga-trust-charge/optiga/externals/mbedtls/library\md_wrap.c **** #if defined(MBEDTLS_RIPEMD160_C)
 261:C:/Users/Yushev/git/wpcqi-optiga-trust-charge/optiga/externals/mbedtls/library\md_wrap.c **** 
 262:C:/Users/Yushev/git/wpcqi-optiga-trust-charge/optiga/externals/mbedtls/library\md_wrap.c **** static int ripemd160_starts_wrap( void *ctx )
 263:C:/Users/Yushev/git/wpcqi-optiga-trust-charge/optiga/externals/mbedtls/library\md_wrap.c **** {
 264:C:/Users/Yushev/git/wpcqi-optiga-trust-charge/optiga/externals/mbedtls/library\md_wrap.c ****     return( mbedtls_ripemd160_starts_ret( (mbedtls_ripemd160_context *) ctx ) );
 265:C:/Users/Yushev/git/wpcqi-optiga-trust-charge/optiga/externals/mbedtls/library\md_wrap.c **** }
 266:C:/Users/Yushev/git/wpcqi-optiga-trust-charge/optiga/externals/mbedtls/library\md_wrap.c **** 
 267:C:/Users/Yushev/git/wpcqi-optiga-trust-charge/optiga/externals/mbedtls/library\md_wrap.c **** static int ripemd160_update_wrap( void *ctx, const unsigned char *input,
 268:C:/Users/Yushev/git/wpcqi-optiga-trust-charge/optiga/externals/mbedtls/library\md_wrap.c ****                                    size_t ilen )
 269:C:/Users/Yushev/git/wpcqi-optiga-trust-charge/optiga/externals/mbedtls/library\md_wrap.c **** {
 270:C:/Users/Yushev/git/wpcqi-optiga-trust-charge/optiga/externals/mbedtls/library\md_wrap.c ****     return( mbedtls_ripemd160_update_ret( (mbedtls_ripemd160_context *) ctx,
 271:C:/Users/Yushev/git/wpcqi-optiga-trust-charge/optiga/externals/mbedtls/library\md_wrap.c ****                                           input, ilen ) );
 272:C:/Users/Yushev/git/wpcqi-optiga-trust-charge/optiga/externals/mbedtls/library\md_wrap.c **** }
 273:C:/Users/Yushev/git/wpcqi-optiga-trust-charge/optiga/externals/mbedtls/library\md_wrap.c **** 
 274:C:/Users/Yushev/git/wpcqi-optiga-trust-charge/optiga/externals/mbedtls/library\md_wrap.c **** static int ripemd160_finish_wrap( void *ctx, unsigned char *output )
 275:C:/Users/Yushev/git/wpcqi-optiga-trust-charge/optiga/externals/mbedtls/library\md_wrap.c **** {
 276:C:/Users/Yushev/git/wpcqi-optiga-trust-charge/optiga/externals/mbedtls/library\md_wrap.c ****     return( mbedtls_ripemd160_finish_ret( (mbedtls_ripemd160_context *) ctx,
 277:C:/Users/Yushev/git/wpcqi-optiga-trust-charge/optiga/externals/mbedtls/library\md_wrap.c ****                                           output ) );
 278:C:/Users/Yushev/git/wpcqi-optiga-trust-charge/optiga/externals/mbedtls/library\md_wrap.c **** }
 279:C:/Users/Yushev/git/wpcqi-optiga-trust-charge/optiga/externals/mbedtls/library\md_wrap.c **** 
 280:C:/Users/Yushev/git/wpcqi-optiga-trust-charge/optiga/externals/mbedtls/library\md_wrap.c **** static void *ripemd160_ctx_alloc( void )
 281:C:/Users/Yushev/git/wpcqi-optiga-trust-charge/optiga/externals/mbedtls/library\md_wrap.c **** {
 282:C:/Users/Yushev/git/wpcqi-optiga-trust-charge/optiga/externals/mbedtls/library\md_wrap.c ****     void *ctx = mbedtls_calloc( 1, sizeof( mbedtls_ripemd160_context ) );
 283:C:/Users/Yushev/git/wpcqi-optiga-trust-charge/optiga/externals/mbedtls/library\md_wrap.c **** 
 284:C:/Users/Yushev/git/wpcqi-optiga-trust-charge/optiga/externals/mbedtls/library\md_wrap.c ****     if( ctx != NULL )
 285:C:/Users/Yushev/git/wpcqi-optiga-trust-charge/optiga/externals/mbedtls/library\md_wrap.c ****         mbedtls_ripemd160_init( (mbedtls_ripemd160_context *) ctx );
 286:C:/Users/Yushev/git/wpcqi-optiga-trust-charge/optiga/externals/mbedtls/library\md_wrap.c **** 
 287:C:/Users/Yushev/git/wpcqi-optiga-trust-charge/optiga/externals/mbedtls/library\md_wrap.c ****     return( ctx );
 288:C:/Users/Yushev/git/wpcqi-optiga-trust-charge/optiga/externals/mbedtls/library\md_wrap.c **** }
 289:C:/Users/Yushev/git/wpcqi-optiga-trust-charge/optiga/externals/mbedtls/library\md_wrap.c **** 
 290:C:/Users/Yushev/git/wpcqi-optiga-trust-charge/optiga/externals/mbedtls/library\md_wrap.c **** static void ripemd160_ctx_free( void *ctx )
 291:C:/Users/Yushev/git/wpcqi-optiga-trust-charge/optiga/externals/mbedtls/library\md_wrap.c **** {
 292:C:/Users/Yushev/git/wpcqi-optiga-trust-charge/optiga/externals/mbedtls/library\md_wrap.c ****     mbedtls_ripemd160_free( (mbedtls_ripemd160_context *) ctx );
 293:C:/Users/Yushev/git/wpcqi-optiga-trust-charge/optiga/externals/mbedtls/library\md_wrap.c ****     mbedtls_free( ctx );
 294:C:/Users/Yushev/git/wpcqi-optiga-trust-charge/optiga/externals/mbedtls/library\md_wrap.c **** }
 295:C:/Users/Yushev/git/wpcqi-optiga-trust-charge/optiga/externals/mbedtls/library\md_wrap.c **** 
 296:C:/Users/Yushev/git/wpcqi-optiga-trust-charge/optiga/externals/mbedtls/library\md_wrap.c **** static void ripemd160_clone_wrap( void *dst, const void *src )
 297:C:/Users/Yushev/git/wpcqi-optiga-trust-charge/optiga/externals/mbedtls/library\md_wrap.c **** {
 298:C:/Users/Yushev/git/wpcqi-optiga-trust-charge/optiga/externals/mbedtls/library\md_wrap.c ****     mbedtls_ripemd160_clone( (mbedtls_ripemd160_context *) dst,
 299:C:/Users/Yushev/git/wpcqi-optiga-trust-charge/optiga/externals/mbedtls/library\md_wrap.c ****                        (const mbedtls_ripemd160_context *) src );
 300:C:/Users/Yushev/git/wpcqi-optiga-trust-charge/optiga/externals/mbedtls/library\md_wrap.c **** }
 301:C:/Users/Yushev/git/wpcqi-optiga-trust-charge/optiga/externals/mbedtls/library\md_wrap.c **** 
 302:C:/Users/Yushev/git/wpcqi-optiga-trust-charge/optiga/externals/mbedtls/library\md_wrap.c **** static int ripemd160_process_wrap( void *ctx, const unsigned char *data )
 303:C:/Users/Yushev/git/wpcqi-optiga-trust-charge/optiga/externals/mbedtls/library\md_wrap.c **** {
 304:C:/Users/Yushev/git/wpcqi-optiga-trust-charge/optiga/externals/mbedtls/library\md_wrap.c ****     return( mbedtls_internal_ripemd160_process(
 305:C:/Users/Yushev/git/wpcqi-optiga-trust-charge/optiga/externals/mbedtls/library\md_wrap.c ****                                 (mbedtls_ripemd160_context *) ctx, data ) );
 306:C:/Users/Yushev/git/wpcqi-optiga-trust-charge/optiga/externals/mbedtls/library\md_wrap.c **** }
 307:C:/Users/Yushev/git/wpcqi-optiga-trust-charge/optiga/externals/mbedtls/library\md_wrap.c **** 
 308:C:/Users/Yushev/git/wpcqi-optiga-trust-charge/optiga/externals/mbedtls/library\md_wrap.c **** const mbedtls_md_info_t mbedtls_ripemd160_info = {
 309:C:/Users/Yushev/git/wpcqi-optiga-trust-charge/optiga/externals/mbedtls/library\md_wrap.c ****     MBEDTLS_MD_RIPEMD160,
 310:C:/Users/Yushev/git/wpcqi-optiga-trust-charge/optiga/externals/mbedtls/library\md_wrap.c ****     "RIPEMD160",
 311:C:/Users/Yushev/git/wpcqi-optiga-trust-charge/optiga/externals/mbedtls/library\md_wrap.c ****     20,
 312:C:/Users/Yushev/git/wpcqi-optiga-trust-charge/optiga/externals/mbedtls/library\md_wrap.c ****     64,
 313:C:/Users/Yushev/git/wpcqi-optiga-trust-charge/optiga/externals/mbedtls/library\md_wrap.c ****     ripemd160_starts_wrap,
 314:C:/Users/Yushev/git/wpcqi-optiga-trust-charge/optiga/externals/mbedtls/library\md_wrap.c ****     ripemd160_update_wrap,
 315:C:/Users/Yushev/git/wpcqi-optiga-trust-charge/optiga/externals/mbedtls/library\md_wrap.c ****     ripemd160_finish_wrap,
 316:C:/Users/Yushev/git/wpcqi-optiga-trust-charge/optiga/externals/mbedtls/library\md_wrap.c ****     mbedtls_ripemd160_ret,
 317:C:/Users/Yushev/git/wpcqi-optiga-trust-charge/optiga/externals/mbedtls/library\md_wrap.c ****     ripemd160_ctx_alloc,
 318:C:/Users/Yushev/git/wpcqi-optiga-trust-charge/optiga/externals/mbedtls/library\md_wrap.c ****     ripemd160_ctx_free,
 319:C:/Users/Yushev/git/wpcqi-optiga-trust-charge/optiga/externals/mbedtls/library\md_wrap.c ****     ripemd160_clone_wrap,
 320:C:/Users/Yushev/git/wpcqi-optiga-trust-charge/optiga/externals/mbedtls/library\md_wrap.c ****     ripemd160_process_wrap,
 321:C:/Users/Yushev/git/wpcqi-optiga-trust-charge/optiga/externals/mbedtls/library\md_wrap.c **** };
 322:C:/Users/Yushev/git/wpcqi-optiga-trust-charge/optiga/externals/mbedtls/library\md_wrap.c **** 
 323:C:/Users/Yushev/git/wpcqi-optiga-trust-charge/optiga/externals/mbedtls/library\md_wrap.c **** #endif /* MBEDTLS_RIPEMD160_C */
 324:C:/Users/Yushev/git/wpcqi-optiga-trust-charge/optiga/externals/mbedtls/library\md_wrap.c **** 
 325:C:/Users/Yushev/git/wpcqi-optiga-trust-charge/optiga/externals/mbedtls/library\md_wrap.c **** #if defined(MBEDTLS_SHA1_C)
 326:C:/Users/Yushev/git/wpcqi-optiga-trust-charge/optiga/externals/mbedtls/library\md_wrap.c **** 
 327:C:/Users/Yushev/git/wpcqi-optiga-trust-charge/optiga/externals/mbedtls/library\md_wrap.c **** static int sha1_starts_wrap( void *ctx )
 328:C:/Users/Yushev/git/wpcqi-optiga-trust-charge/optiga/externals/mbedtls/library\md_wrap.c **** {
 329:C:/Users/Yushev/git/wpcqi-optiga-trust-charge/optiga/externals/mbedtls/library\md_wrap.c ****     return( mbedtls_sha1_starts_ret( (mbedtls_sha1_context *) ctx ) );
 330:C:/Users/Yushev/git/wpcqi-optiga-trust-charge/optiga/externals/mbedtls/library\md_wrap.c **** }
 331:C:/Users/Yushev/git/wpcqi-optiga-trust-charge/optiga/externals/mbedtls/library\md_wrap.c **** 
 332:C:/Users/Yushev/git/wpcqi-optiga-trust-charge/optiga/externals/mbedtls/library\md_wrap.c **** static int sha1_update_wrap( void *ctx, const unsigned char *input,
 333:C:/Users/Yushev/git/wpcqi-optiga-trust-charge/optiga/externals/mbedtls/library\md_wrap.c ****                               size_t ilen )
 334:C:/Users/Yushev/git/wpcqi-optiga-trust-charge/optiga/externals/mbedtls/library\md_wrap.c **** {
 335:C:/Users/Yushev/git/wpcqi-optiga-trust-charge/optiga/externals/mbedtls/library\md_wrap.c ****     return( mbedtls_sha1_update_ret( (mbedtls_sha1_context *) ctx,
 336:C:/Users/Yushev/git/wpcqi-optiga-trust-charge/optiga/externals/mbedtls/library\md_wrap.c ****                                      input, ilen ) );
 337:C:/Users/Yushev/git/wpcqi-optiga-trust-charge/optiga/externals/mbedtls/library\md_wrap.c **** }
 338:C:/Users/Yushev/git/wpcqi-optiga-trust-charge/optiga/externals/mbedtls/library\md_wrap.c **** 
 339:C:/Users/Yushev/git/wpcqi-optiga-trust-charge/optiga/externals/mbedtls/library\md_wrap.c **** static int sha1_finish_wrap( void *ctx, unsigned char *output )
 340:C:/Users/Yushev/git/wpcqi-optiga-trust-charge/optiga/externals/mbedtls/library\md_wrap.c **** {
 341:C:/Users/Yushev/git/wpcqi-optiga-trust-charge/optiga/externals/mbedtls/library\md_wrap.c ****     return( mbedtls_sha1_finish_ret( (mbedtls_sha1_context *) ctx, output ) );
 342:C:/Users/Yushev/git/wpcqi-optiga-trust-charge/optiga/externals/mbedtls/library\md_wrap.c **** }
 343:C:/Users/Yushev/git/wpcqi-optiga-trust-charge/optiga/externals/mbedtls/library\md_wrap.c **** 
 344:C:/Users/Yushev/git/wpcqi-optiga-trust-charge/optiga/externals/mbedtls/library\md_wrap.c **** static void *sha1_ctx_alloc( void )
 345:C:/Users/Yushev/git/wpcqi-optiga-trust-charge/optiga/externals/mbedtls/library\md_wrap.c **** {
 346:C:/Users/Yushev/git/wpcqi-optiga-trust-charge/optiga/externals/mbedtls/library\md_wrap.c ****     void *ctx = mbedtls_calloc( 1, sizeof( mbedtls_sha1_context ) );
 347:C:/Users/Yushev/git/wpcqi-optiga-trust-charge/optiga/externals/mbedtls/library\md_wrap.c **** 
 348:C:/Users/Yushev/git/wpcqi-optiga-trust-charge/optiga/externals/mbedtls/library\md_wrap.c ****     if( ctx != NULL )
 349:C:/Users/Yushev/git/wpcqi-optiga-trust-charge/optiga/externals/mbedtls/library\md_wrap.c ****         mbedtls_sha1_init( (mbedtls_sha1_context *) ctx );
 350:C:/Users/Yushev/git/wpcqi-optiga-trust-charge/optiga/externals/mbedtls/library\md_wrap.c **** 
 351:C:/Users/Yushev/git/wpcqi-optiga-trust-charge/optiga/externals/mbedtls/library\md_wrap.c ****     return( ctx );
 352:C:/Users/Yushev/git/wpcqi-optiga-trust-charge/optiga/externals/mbedtls/library\md_wrap.c **** }
 353:C:/Users/Yushev/git/wpcqi-optiga-trust-charge/optiga/externals/mbedtls/library\md_wrap.c **** 
 354:C:/Users/Yushev/git/wpcqi-optiga-trust-charge/optiga/externals/mbedtls/library\md_wrap.c **** static void sha1_clone_wrap( void *dst, const void *src )
 355:C:/Users/Yushev/git/wpcqi-optiga-trust-charge/optiga/externals/mbedtls/library\md_wrap.c **** {
 356:C:/Users/Yushev/git/wpcqi-optiga-trust-charge/optiga/externals/mbedtls/library\md_wrap.c ****     mbedtls_sha1_clone( (mbedtls_sha1_context *) dst,
 357:C:/Users/Yushev/git/wpcqi-optiga-trust-charge/optiga/externals/mbedtls/library\md_wrap.c ****                   (const mbedtls_sha1_context *) src );
 358:C:/Users/Yushev/git/wpcqi-optiga-trust-charge/optiga/externals/mbedtls/library\md_wrap.c **** }
 359:C:/Users/Yushev/git/wpcqi-optiga-trust-charge/optiga/externals/mbedtls/library\md_wrap.c **** 
 360:C:/Users/Yushev/git/wpcqi-optiga-trust-charge/optiga/externals/mbedtls/library\md_wrap.c **** static void sha1_ctx_free( void *ctx )
 361:C:/Users/Yushev/git/wpcqi-optiga-trust-charge/optiga/externals/mbedtls/library\md_wrap.c **** {
 362:C:/Users/Yushev/git/wpcqi-optiga-trust-charge/optiga/externals/mbedtls/library\md_wrap.c ****     mbedtls_sha1_free( (mbedtls_sha1_context *) ctx );
 363:C:/Users/Yushev/git/wpcqi-optiga-trust-charge/optiga/externals/mbedtls/library\md_wrap.c ****     mbedtls_free( ctx );
 364:C:/Users/Yushev/git/wpcqi-optiga-trust-charge/optiga/externals/mbedtls/library\md_wrap.c **** }
 365:C:/Users/Yushev/git/wpcqi-optiga-trust-charge/optiga/externals/mbedtls/library\md_wrap.c **** 
 366:C:/Users/Yushev/git/wpcqi-optiga-trust-charge/optiga/externals/mbedtls/library\md_wrap.c **** static int sha1_process_wrap( void *ctx, const unsigned char *data )
 367:C:/Users/Yushev/git/wpcqi-optiga-trust-charge/optiga/externals/mbedtls/library\md_wrap.c **** {
 368:C:/Users/Yushev/git/wpcqi-optiga-trust-charge/optiga/externals/mbedtls/library\md_wrap.c ****     return( mbedtls_internal_sha1_process( (mbedtls_sha1_context *) ctx,
 369:C:/Users/Yushev/git/wpcqi-optiga-trust-charge/optiga/externals/mbedtls/library\md_wrap.c ****                                            data ) );
 370:C:/Users/Yushev/git/wpcqi-optiga-trust-charge/optiga/externals/mbedtls/library\md_wrap.c **** }
 371:C:/Users/Yushev/git/wpcqi-optiga-trust-charge/optiga/externals/mbedtls/library\md_wrap.c **** 
 372:C:/Users/Yushev/git/wpcqi-optiga-trust-charge/optiga/externals/mbedtls/library\md_wrap.c **** const mbedtls_md_info_t mbedtls_sha1_info = {
 373:C:/Users/Yushev/git/wpcqi-optiga-trust-charge/optiga/externals/mbedtls/library\md_wrap.c ****     MBEDTLS_MD_SHA1,
 374:C:/Users/Yushev/git/wpcqi-optiga-trust-charge/optiga/externals/mbedtls/library\md_wrap.c ****     "SHA1",
 375:C:/Users/Yushev/git/wpcqi-optiga-trust-charge/optiga/externals/mbedtls/library\md_wrap.c ****     20,
 376:C:/Users/Yushev/git/wpcqi-optiga-trust-charge/optiga/externals/mbedtls/library\md_wrap.c ****     64,
 377:C:/Users/Yushev/git/wpcqi-optiga-trust-charge/optiga/externals/mbedtls/library\md_wrap.c ****     sha1_starts_wrap,
 378:C:/Users/Yushev/git/wpcqi-optiga-trust-charge/optiga/externals/mbedtls/library\md_wrap.c ****     sha1_update_wrap,
 379:C:/Users/Yushev/git/wpcqi-optiga-trust-charge/optiga/externals/mbedtls/library\md_wrap.c ****     sha1_finish_wrap,
 380:C:/Users/Yushev/git/wpcqi-optiga-trust-charge/optiga/externals/mbedtls/library\md_wrap.c ****     mbedtls_sha1_ret,
 381:C:/Users/Yushev/git/wpcqi-optiga-trust-charge/optiga/externals/mbedtls/library\md_wrap.c ****     sha1_ctx_alloc,
 382:C:/Users/Yushev/git/wpcqi-optiga-trust-charge/optiga/externals/mbedtls/library\md_wrap.c ****     sha1_ctx_free,
 383:C:/Users/Yushev/git/wpcqi-optiga-trust-charge/optiga/externals/mbedtls/library\md_wrap.c ****     sha1_clone_wrap,
 384:C:/Users/Yushev/git/wpcqi-optiga-trust-charge/optiga/externals/mbedtls/library\md_wrap.c ****     sha1_process_wrap,
 385:C:/Users/Yushev/git/wpcqi-optiga-trust-charge/optiga/externals/mbedtls/library\md_wrap.c **** };
 386:C:/Users/Yushev/git/wpcqi-optiga-trust-charge/optiga/externals/mbedtls/library\md_wrap.c **** 
 387:C:/Users/Yushev/git/wpcqi-optiga-trust-charge/optiga/externals/mbedtls/library\md_wrap.c **** #endif /* MBEDTLS_SHA1_C */
 388:C:/Users/Yushev/git/wpcqi-optiga-trust-charge/optiga/externals/mbedtls/library\md_wrap.c **** 
 389:C:/Users/Yushev/git/wpcqi-optiga-trust-charge/optiga/externals/mbedtls/library\md_wrap.c **** /*
 390:C:/Users/Yushev/git/wpcqi-optiga-trust-charge/optiga/externals/mbedtls/library\md_wrap.c ****  * Wrappers for generic message digests
 391:C:/Users/Yushev/git/wpcqi-optiga-trust-charge/optiga/externals/mbedtls/library\md_wrap.c ****  */
 392:C:/Users/Yushev/git/wpcqi-optiga-trust-charge/optiga/externals/mbedtls/library\md_wrap.c **** #if defined(MBEDTLS_SHA256_C)
 393:C:/Users/Yushev/git/wpcqi-optiga-trust-charge/optiga/externals/mbedtls/library\md_wrap.c **** 
 394:C:/Users/Yushev/git/wpcqi-optiga-trust-charge/optiga/externals/mbedtls/library\md_wrap.c **** static int sha224_starts_wrap( void *ctx )
 395:C:/Users/Yushev/git/wpcqi-optiga-trust-charge/optiga/externals/mbedtls/library\md_wrap.c **** {
  27              	 .loc 1 395 0
  28              	 .cfi_startproc
  29              	 
  30              	 
  31 0000 80B5     	 push {r7,lr}
  32              	.LCFI0:
  33              	 .cfi_def_cfa_offset 8
  34              	 .cfi_offset 7,-8
  35              	 .cfi_offset 14,-4
  36 0002 82B0     	 sub sp,sp,#8
  37              	.LCFI1:
  38              	 .cfi_def_cfa_offset 16
  39 0004 00AF     	 add r7,sp,#0
  40              	.LCFI2:
  41              	 .cfi_def_cfa_register 7
  42 0006 7860     	 str r0,[r7,#4]
 396:C:/Users/Yushev/git/wpcqi-optiga-trust-charge/optiga/externals/mbedtls/library\md_wrap.c ****     return( mbedtls_sha256_starts_ret( (mbedtls_sha256_context *) ctx, 1 ) );
  43              	 .loc 1 396 0
  44 0008 7868     	 ldr r0,[r7,#4]
  45 000a 0121     	 movs r1,#1
  46 000c FFF7FEFF 	 bl mbedtls_sha256_starts_ret
  47 0010 0346     	 mov r3,r0
 397:C:/Users/Yushev/git/wpcqi-optiga-trust-charge/optiga/externals/mbedtls/library\md_wrap.c **** }
  48              	 .loc 1 397 0
  49 0012 1846     	 mov r0,r3
  50 0014 0837     	 adds r7,r7,#8
  51              	.LCFI3:
  52              	 .cfi_def_cfa_offset 8
  53 0016 BD46     	 mov sp,r7
  54              	.LCFI4:
  55              	 .cfi_def_cfa_register 13
  56              	 
  57 0018 80BD     	 pop {r7,pc}
  58              	 .cfi_endproc
  59              	.LFE0:
  61 001a 00BF     	 .section .text.sha224_update_wrap,"ax",%progbits
  62              	 .align 2
  63              	 .thumb
  64              	 .thumb_func
  66              	sha224_update_wrap:
  67              	.LFB1:
 398:C:/Users/Yushev/git/wpcqi-optiga-trust-charge/optiga/externals/mbedtls/library\md_wrap.c **** 
 399:C:/Users/Yushev/git/wpcqi-optiga-trust-charge/optiga/externals/mbedtls/library\md_wrap.c **** static int sha224_update_wrap( void *ctx, const unsigned char *input,
 400:C:/Users/Yushev/git/wpcqi-optiga-trust-charge/optiga/externals/mbedtls/library\md_wrap.c ****                                 size_t ilen )
 401:C:/Users/Yushev/git/wpcqi-optiga-trust-charge/optiga/externals/mbedtls/library\md_wrap.c **** {
  68              	 .loc 1 401 0
  69              	 .cfi_startproc
  70              	 
  71              	 
  72 0000 80B5     	 push {r7,lr}
  73              	.LCFI5:
  74              	 .cfi_def_cfa_offset 8
  75              	 .cfi_offset 7,-8
  76              	 .cfi_offset 14,-4
  77 0002 84B0     	 sub sp,sp,#16
  78              	.LCFI6:
  79              	 .cfi_def_cfa_offset 24
  80 0004 00AF     	 add r7,sp,#0
  81              	.LCFI7:
  82              	 .cfi_def_cfa_register 7
  83 0006 F860     	 str r0,[r7,#12]
  84 0008 B960     	 str r1,[r7,#8]
  85 000a 7A60     	 str r2,[r7,#4]
 402:C:/Users/Yushev/git/wpcqi-optiga-trust-charge/optiga/externals/mbedtls/library\md_wrap.c ****     return( mbedtls_sha256_update_ret( (mbedtls_sha256_context *) ctx,
  86              	 .loc 1 402 0
  87 000c F868     	 ldr r0,[r7,#12]
  88 000e B968     	 ldr r1,[r7,#8]
  89 0010 7A68     	 ldr r2,[r7,#4]
  90 0012 FFF7FEFF 	 bl mbedtls_sha256_update_ret
  91 0016 0346     	 mov r3,r0
 403:C:/Users/Yushev/git/wpcqi-optiga-trust-charge/optiga/externals/mbedtls/library\md_wrap.c ****                                        input, ilen ) );
 404:C:/Users/Yushev/git/wpcqi-optiga-trust-charge/optiga/externals/mbedtls/library\md_wrap.c **** }
  92              	 .loc 1 404 0
  93 0018 1846     	 mov r0,r3
  94 001a 1037     	 adds r7,r7,#16
  95              	.LCFI8:
  96              	 .cfi_def_cfa_offset 8
  97 001c BD46     	 mov sp,r7
  98              	.LCFI9:
  99              	 .cfi_def_cfa_register 13
 100              	 
 101 001e 80BD     	 pop {r7,pc}
 102              	 .cfi_endproc
 103              	.LFE1:
 105              	 .section .text.sha224_finish_wrap,"ax",%progbits
 106              	 .align 2
 107              	 .thumb
 108              	 .thumb_func
 110              	sha224_finish_wrap:
 111              	.LFB2:
 405:C:/Users/Yushev/git/wpcqi-optiga-trust-charge/optiga/externals/mbedtls/library\md_wrap.c **** 
 406:C:/Users/Yushev/git/wpcqi-optiga-trust-charge/optiga/externals/mbedtls/library\md_wrap.c **** static int sha224_finish_wrap( void *ctx, unsigned char *output )
 407:C:/Users/Yushev/git/wpcqi-optiga-trust-charge/optiga/externals/mbedtls/library\md_wrap.c **** {
 112              	 .loc 1 407 0
 113              	 .cfi_startproc
 114              	 
 115              	 
 116 0000 80B5     	 push {r7,lr}
 117              	.LCFI10:
 118              	 .cfi_def_cfa_offset 8
 119              	 .cfi_offset 7,-8
 120              	 .cfi_offset 14,-4
 121 0002 82B0     	 sub sp,sp,#8
 122              	.LCFI11:
 123              	 .cfi_def_cfa_offset 16
 124 0004 00AF     	 add r7,sp,#0
 125              	.LCFI12:
 126              	 .cfi_def_cfa_register 7
 127 0006 7860     	 str r0,[r7,#4]
 128 0008 3960     	 str r1,[r7]
 408:C:/Users/Yushev/git/wpcqi-optiga-trust-charge/optiga/externals/mbedtls/library\md_wrap.c ****     return( mbedtls_sha256_finish_ret( (mbedtls_sha256_context *) ctx,
 129              	 .loc 1 408 0
 130 000a 7868     	 ldr r0,[r7,#4]
 131 000c 3968     	 ldr r1,[r7]
 132 000e FFF7FEFF 	 bl mbedtls_sha256_finish_ret
 133 0012 0346     	 mov r3,r0
 409:C:/Users/Yushev/git/wpcqi-optiga-trust-charge/optiga/externals/mbedtls/library\md_wrap.c ****                                        output ) );
 410:C:/Users/Yushev/git/wpcqi-optiga-trust-charge/optiga/externals/mbedtls/library\md_wrap.c **** }
 134              	 .loc 1 410 0
 135 0014 1846     	 mov r0,r3
 136 0016 0837     	 adds r7,r7,#8
 137              	.LCFI13:
 138              	 .cfi_def_cfa_offset 8
 139 0018 BD46     	 mov sp,r7
 140              	.LCFI14:
 141              	 .cfi_def_cfa_register 13
 142              	 
 143 001a 80BD     	 pop {r7,pc}
 144              	 .cfi_endproc
 145              	.LFE2:
 147              	 .section .text.sha224_wrap,"ax",%progbits
 148              	 .align 2
 149              	 .thumb
 150              	 .thumb_func
 152              	sha224_wrap:
 153              	.LFB3:
 411:C:/Users/Yushev/git/wpcqi-optiga-trust-charge/optiga/externals/mbedtls/library\md_wrap.c **** 
 412:C:/Users/Yushev/git/wpcqi-optiga-trust-charge/optiga/externals/mbedtls/library\md_wrap.c **** static int sha224_wrap( const unsigned char *input, size_t ilen,
 413:C:/Users/Yushev/git/wpcqi-optiga-trust-charge/optiga/externals/mbedtls/library\md_wrap.c ****                         unsigned char *output )
 414:C:/Users/Yushev/git/wpcqi-optiga-trust-charge/optiga/externals/mbedtls/library\md_wrap.c **** {
 154              	 .loc 1 414 0
 155              	 .cfi_startproc
 156              	 
 157              	 
 158 0000 80B5     	 push {r7,lr}
 159              	.LCFI15:
 160              	 .cfi_def_cfa_offset 8
 161              	 .cfi_offset 7,-8
 162              	 .cfi_offset 14,-4
 163 0002 84B0     	 sub sp,sp,#16
 164              	.LCFI16:
 165              	 .cfi_def_cfa_offset 24
 166 0004 00AF     	 add r7,sp,#0
 167              	.LCFI17:
 168              	 .cfi_def_cfa_register 7
 169 0006 F860     	 str r0,[r7,#12]
 170 0008 B960     	 str r1,[r7,#8]
 171 000a 7A60     	 str r2,[r7,#4]
 415:C:/Users/Yushev/git/wpcqi-optiga-trust-charge/optiga/externals/mbedtls/library\md_wrap.c ****     return( mbedtls_sha256_ret( input, ilen, output, 1 ) );
 172              	 .loc 1 415 0
 173 000c F868     	 ldr r0,[r7,#12]
 174 000e B968     	 ldr r1,[r7,#8]
 175 0010 7A68     	 ldr r2,[r7,#4]
 176 0012 0123     	 movs r3,#1
 177 0014 FFF7FEFF 	 bl mbedtls_sha256_ret
 178 0018 0346     	 mov r3,r0
 416:C:/Users/Yushev/git/wpcqi-optiga-trust-charge/optiga/externals/mbedtls/library\md_wrap.c **** }
 179              	 .loc 1 416 0
 180 001a 1846     	 mov r0,r3
 181 001c 1037     	 adds r7,r7,#16
 182              	.LCFI18:
 183              	 .cfi_def_cfa_offset 8
 184 001e BD46     	 mov sp,r7
 185              	.LCFI19:
 186              	 .cfi_def_cfa_register 13
 187              	 
 188 0020 80BD     	 pop {r7,pc}
 189              	 .cfi_endproc
 190              	.LFE3:
 192 0022 00BF     	 .section .text.sha224_ctx_alloc,"ax",%progbits
 193              	 .align 2
 194              	 .thumb
 195              	 .thumb_func
 197              	sha224_ctx_alloc:
 198              	.LFB4:
 417:C:/Users/Yushev/git/wpcqi-optiga-trust-charge/optiga/externals/mbedtls/library\md_wrap.c **** 
 418:C:/Users/Yushev/git/wpcqi-optiga-trust-charge/optiga/externals/mbedtls/library\md_wrap.c **** static void *sha224_ctx_alloc( void )
 419:C:/Users/Yushev/git/wpcqi-optiga-trust-charge/optiga/externals/mbedtls/library\md_wrap.c **** {
 199              	 .loc 1 419 0
 200              	 .cfi_startproc
 201              	 
 202              	 
 203 0000 80B5     	 push {r7,lr}
 204              	.LCFI20:
 205              	 .cfi_def_cfa_offset 8
 206              	 .cfi_offset 7,-8
 207              	 .cfi_offset 14,-4
 208 0002 82B0     	 sub sp,sp,#8
 209              	.LCFI21:
 210              	 .cfi_def_cfa_offset 16
 211 0004 00AF     	 add r7,sp,#0
 212              	.LCFI22:
 213              	 .cfi_def_cfa_register 7
 420:C:/Users/Yushev/git/wpcqi-optiga-trust-charge/optiga/externals/mbedtls/library\md_wrap.c ****     void *ctx = mbedtls_calloc( 1, sizeof( mbedtls_sha256_context ) );
 214              	 .loc 1 420 0
 215 0006 0120     	 movs r0,#1
 216 0008 6C21     	 movs r1,#108
 217 000a FFF7FEFF 	 bl calloc
 218 000e 0346     	 mov r3,r0
 219 0010 7B60     	 str r3,[r7,#4]
 421:C:/Users/Yushev/git/wpcqi-optiga-trust-charge/optiga/externals/mbedtls/library\md_wrap.c **** 
 422:C:/Users/Yushev/git/wpcqi-optiga-trust-charge/optiga/externals/mbedtls/library\md_wrap.c ****     if( ctx != NULL )
 220              	 .loc 1 422 0
 221 0012 7B68     	 ldr r3,[r7,#4]
 222 0014 002B     	 cmp r3,#0
 223 0016 02D0     	 beq .L10
 423:C:/Users/Yushev/git/wpcqi-optiga-trust-charge/optiga/externals/mbedtls/library\md_wrap.c ****         mbedtls_sha256_init( (mbedtls_sha256_context *) ctx );
 224              	 .loc 1 423 0
 225 0018 7868     	 ldr r0,[r7,#4]
 226 001a FFF7FEFF 	 bl mbedtls_sha256_init
 227              	.L10:
 424:C:/Users/Yushev/git/wpcqi-optiga-trust-charge/optiga/externals/mbedtls/library\md_wrap.c **** 
 425:C:/Users/Yushev/git/wpcqi-optiga-trust-charge/optiga/externals/mbedtls/library\md_wrap.c ****     return( ctx );
 228              	 .loc 1 425 0
 229 001e 7B68     	 ldr r3,[r7,#4]
 426:C:/Users/Yushev/git/wpcqi-optiga-trust-charge/optiga/externals/mbedtls/library\md_wrap.c **** }
 230              	 .loc 1 426 0
 231 0020 1846     	 mov r0,r3
 232 0022 0837     	 adds r7,r7,#8
 233              	.LCFI23:
 234              	 .cfi_def_cfa_offset 8
 235 0024 BD46     	 mov sp,r7
 236              	.LCFI24:
 237              	 .cfi_def_cfa_register 13
 238              	 
 239 0026 80BD     	 pop {r7,pc}
 240              	 .cfi_endproc
 241              	.LFE4:
 243              	 .section .text.sha224_ctx_free,"ax",%progbits
 244              	 .align 2
 245              	 .thumb
 246              	 .thumb_func
 248              	sha224_ctx_free:
 249              	.LFB5:
 427:C:/Users/Yushev/git/wpcqi-optiga-trust-charge/optiga/externals/mbedtls/library\md_wrap.c **** 
 428:C:/Users/Yushev/git/wpcqi-optiga-trust-charge/optiga/externals/mbedtls/library\md_wrap.c **** static void sha224_ctx_free( void *ctx )
 429:C:/Users/Yushev/git/wpcqi-optiga-trust-charge/optiga/externals/mbedtls/library\md_wrap.c **** {
 250              	 .loc 1 429 0
 251              	 .cfi_startproc
 252              	 
 253              	 
 254 0000 80B5     	 push {r7,lr}
 255              	.LCFI25:
 256              	 .cfi_def_cfa_offset 8
 257              	 .cfi_offset 7,-8
 258              	 .cfi_offset 14,-4
 259 0002 82B0     	 sub sp,sp,#8
 260              	.LCFI26:
 261              	 .cfi_def_cfa_offset 16
 262 0004 00AF     	 add r7,sp,#0
 263              	.LCFI27:
 264              	 .cfi_def_cfa_register 7
 265 0006 7860     	 str r0,[r7,#4]
 430:C:/Users/Yushev/git/wpcqi-optiga-trust-charge/optiga/externals/mbedtls/library\md_wrap.c ****     mbedtls_sha256_free( (mbedtls_sha256_context *) ctx );
 266              	 .loc 1 430 0
 267 0008 7868     	 ldr r0,[r7,#4]
 268 000a FFF7FEFF 	 bl mbedtls_sha256_free
 431:C:/Users/Yushev/git/wpcqi-optiga-trust-charge/optiga/externals/mbedtls/library\md_wrap.c ****     mbedtls_free( ctx );
 269              	 .loc 1 431 0
 270 000e 7868     	 ldr r0,[r7,#4]
 271 0010 FFF7FEFF 	 bl free
 432:C:/Users/Yushev/git/wpcqi-optiga-trust-charge/optiga/externals/mbedtls/library\md_wrap.c **** }
 272              	 .loc 1 432 0
 273 0014 0837     	 adds r7,r7,#8
 274              	.LCFI28:
 275              	 .cfi_def_cfa_offset 8
 276 0016 BD46     	 mov sp,r7
 277              	.LCFI29:
 278              	 .cfi_def_cfa_register 13
 279              	 
 280 0018 80BD     	 pop {r7,pc}
 281              	 .cfi_endproc
 282              	.LFE5:
 284 001a 00BF     	 .section .text.sha224_clone_wrap,"ax",%progbits
 285              	 .align 2
 286              	 .thumb
 287              	 .thumb_func
 289              	sha224_clone_wrap:
 290              	.LFB6:
 433:C:/Users/Yushev/git/wpcqi-optiga-trust-charge/optiga/externals/mbedtls/library\md_wrap.c **** 
 434:C:/Users/Yushev/git/wpcqi-optiga-trust-charge/optiga/externals/mbedtls/library\md_wrap.c **** static void sha224_clone_wrap( void *dst, const void *src )
 435:C:/Users/Yushev/git/wpcqi-optiga-trust-charge/optiga/externals/mbedtls/library\md_wrap.c **** {
 291              	 .loc 1 435 0
 292              	 .cfi_startproc
 293              	 
 294              	 
 295 0000 80B5     	 push {r7,lr}
 296              	.LCFI30:
 297              	 .cfi_def_cfa_offset 8
 298              	 .cfi_offset 7,-8
 299              	 .cfi_offset 14,-4
 300 0002 82B0     	 sub sp,sp,#8
 301              	.LCFI31:
 302              	 .cfi_def_cfa_offset 16
 303 0004 00AF     	 add r7,sp,#0
 304              	.LCFI32:
 305              	 .cfi_def_cfa_register 7
 306 0006 7860     	 str r0,[r7,#4]
 307 0008 3960     	 str r1,[r7]
 436:C:/Users/Yushev/git/wpcqi-optiga-trust-charge/optiga/externals/mbedtls/library\md_wrap.c ****     mbedtls_sha256_clone( (mbedtls_sha256_context *) dst,
 308              	 .loc 1 436 0
 309 000a 7868     	 ldr r0,[r7,#4]
 310 000c 3968     	 ldr r1,[r7]
 311 000e FFF7FEFF 	 bl mbedtls_sha256_clone
 437:C:/Users/Yushev/git/wpcqi-optiga-trust-charge/optiga/externals/mbedtls/library\md_wrap.c ****                     (const mbedtls_sha256_context *) src );
 438:C:/Users/Yushev/git/wpcqi-optiga-trust-charge/optiga/externals/mbedtls/library\md_wrap.c **** }
 312              	 .loc 1 438 0
 313 0012 0837     	 adds r7,r7,#8
 314              	.LCFI33:
 315              	 .cfi_def_cfa_offset 8
 316 0014 BD46     	 mov sp,r7
 317              	.LCFI34:
 318              	 .cfi_def_cfa_register 13
 319              	 
 320 0016 80BD     	 pop {r7,pc}
 321              	 .cfi_endproc
 322              	.LFE6:
 324              	 .section .text.sha224_process_wrap,"ax",%progbits
 325              	 .align 2
 326              	 .thumb
 327              	 .thumb_func
 329              	sha224_process_wrap:
 330              	.LFB7:
 439:C:/Users/Yushev/git/wpcqi-optiga-trust-charge/optiga/externals/mbedtls/library\md_wrap.c **** 
 440:C:/Users/Yushev/git/wpcqi-optiga-trust-charge/optiga/externals/mbedtls/library\md_wrap.c **** static int sha224_process_wrap( void *ctx, const unsigned char *data )
 441:C:/Users/Yushev/git/wpcqi-optiga-trust-charge/optiga/externals/mbedtls/library\md_wrap.c **** {
 331              	 .loc 1 441 0
 332              	 .cfi_startproc
 333              	 
 334              	 
 335 0000 80B5     	 push {r7,lr}
 336              	.LCFI35:
 337              	 .cfi_def_cfa_offset 8
 338              	 .cfi_offset 7,-8
 339              	 .cfi_offset 14,-4
 340 0002 82B0     	 sub sp,sp,#8
 341              	.LCFI36:
 342              	 .cfi_def_cfa_offset 16
 343 0004 00AF     	 add r7,sp,#0
 344              	.LCFI37:
 345              	 .cfi_def_cfa_register 7
 346 0006 7860     	 str r0,[r7,#4]
 347 0008 3960     	 str r1,[r7]
 442:C:/Users/Yushev/git/wpcqi-optiga-trust-charge/optiga/externals/mbedtls/library\md_wrap.c ****     return( mbedtls_internal_sha256_process( (mbedtls_sha256_context *) ctx,
 348              	 .loc 1 442 0
 349 000a 7868     	 ldr r0,[r7,#4]
 350 000c 3968     	 ldr r1,[r7]
 351 000e FFF7FEFF 	 bl mbedtls_internal_sha256_process
 352 0012 0346     	 mov r3,r0
 443:C:/Users/Yushev/git/wpcqi-optiga-trust-charge/optiga/externals/mbedtls/library\md_wrap.c ****                                              data ) );
 444:C:/Users/Yushev/git/wpcqi-optiga-trust-charge/optiga/externals/mbedtls/library\md_wrap.c **** }
 353              	 .loc 1 444 0
 354 0014 1846     	 mov r0,r3
 355 0016 0837     	 adds r7,r7,#8
 356              	.LCFI38:
 357              	 .cfi_def_cfa_offset 8
 358 0018 BD46     	 mov sp,r7
 359              	.LCFI39:
 360              	 .cfi_def_cfa_register 13
 361              	 
 362 001a 80BD     	 pop {r7,pc}
 363              	 .cfi_endproc
 364              	.LFE7:
 366              	 .global mbedtls_sha224_info
 367              	 .section .rodata
 368              	 .align 2
 369              	.LC0:
 370 0000 53484132 	 .ascii "SHA224\000"
 370      323400
 371              	 .section .rodata.mbedtls_sha224_info,"a",%progbits
 372              	 .align 2
 375              	mbedtls_sha224_info:
 376 0000 05       	 .byte 5
 377 0001 000000   	 .space 3
 378 0004 00000000 	 .word .LC0
 379 0008 1C000000 	 .word 28
 380 000c 40000000 	 .word 64
 381 0010 00000000 	 .word sha224_starts_wrap
 382 0014 00000000 	 .word sha224_update_wrap
 383 0018 00000000 	 .word sha224_finish_wrap
 384 001c 00000000 	 .word sha224_wrap
 385 0020 00000000 	 .word sha224_ctx_alloc
 386 0024 00000000 	 .word sha224_ctx_free
 387 0028 00000000 	 .word sha224_clone_wrap
 388 002c 00000000 	 .word sha224_process_wrap
 389              	 .section .text.sha256_starts_wrap,"ax",%progbits
 390              	 .align 2
 391              	 .thumb
 392              	 .thumb_func
 394              	sha256_starts_wrap:
 395              	.LFB8:
 445:C:/Users/Yushev/git/wpcqi-optiga-trust-charge/optiga/externals/mbedtls/library\md_wrap.c **** 
 446:C:/Users/Yushev/git/wpcqi-optiga-trust-charge/optiga/externals/mbedtls/library\md_wrap.c **** const mbedtls_md_info_t mbedtls_sha224_info = {
 447:C:/Users/Yushev/git/wpcqi-optiga-trust-charge/optiga/externals/mbedtls/library\md_wrap.c ****     MBEDTLS_MD_SHA224,
 448:C:/Users/Yushev/git/wpcqi-optiga-trust-charge/optiga/externals/mbedtls/library\md_wrap.c ****     "SHA224",
 449:C:/Users/Yushev/git/wpcqi-optiga-trust-charge/optiga/externals/mbedtls/library\md_wrap.c ****     28,
 450:C:/Users/Yushev/git/wpcqi-optiga-trust-charge/optiga/externals/mbedtls/library\md_wrap.c ****     64,
 451:C:/Users/Yushev/git/wpcqi-optiga-trust-charge/optiga/externals/mbedtls/library\md_wrap.c ****     sha224_starts_wrap,
 452:C:/Users/Yushev/git/wpcqi-optiga-trust-charge/optiga/externals/mbedtls/library\md_wrap.c ****     sha224_update_wrap,
 453:C:/Users/Yushev/git/wpcqi-optiga-trust-charge/optiga/externals/mbedtls/library\md_wrap.c ****     sha224_finish_wrap,
 454:C:/Users/Yushev/git/wpcqi-optiga-trust-charge/optiga/externals/mbedtls/library\md_wrap.c ****     sha224_wrap,
 455:C:/Users/Yushev/git/wpcqi-optiga-trust-charge/optiga/externals/mbedtls/library\md_wrap.c ****     sha224_ctx_alloc,
 456:C:/Users/Yushev/git/wpcqi-optiga-trust-charge/optiga/externals/mbedtls/library\md_wrap.c ****     sha224_ctx_free,
 457:C:/Users/Yushev/git/wpcqi-optiga-trust-charge/optiga/externals/mbedtls/library\md_wrap.c ****     sha224_clone_wrap,
 458:C:/Users/Yushev/git/wpcqi-optiga-trust-charge/optiga/externals/mbedtls/library\md_wrap.c ****     sha224_process_wrap,
 459:C:/Users/Yushev/git/wpcqi-optiga-trust-charge/optiga/externals/mbedtls/library\md_wrap.c **** };
 460:C:/Users/Yushev/git/wpcqi-optiga-trust-charge/optiga/externals/mbedtls/library\md_wrap.c **** 
 461:C:/Users/Yushev/git/wpcqi-optiga-trust-charge/optiga/externals/mbedtls/library\md_wrap.c **** static int sha256_starts_wrap( void *ctx )
 462:C:/Users/Yushev/git/wpcqi-optiga-trust-charge/optiga/externals/mbedtls/library\md_wrap.c **** {
 396              	 .loc 1 462 0
 397              	 .cfi_startproc
 398              	 
 399              	 
 400 0000 80B5     	 push {r7,lr}
 401              	.LCFI40:
 402              	 .cfi_def_cfa_offset 8
 403              	 .cfi_offset 7,-8
 404              	 .cfi_offset 14,-4
 405 0002 82B0     	 sub sp,sp,#8
 406              	.LCFI41:
 407              	 .cfi_def_cfa_offset 16
 408 0004 00AF     	 add r7,sp,#0
 409              	.LCFI42:
 410              	 .cfi_def_cfa_register 7
 411 0006 7860     	 str r0,[r7,#4]
 463:C:/Users/Yushev/git/wpcqi-optiga-trust-charge/optiga/externals/mbedtls/library\md_wrap.c ****     return( mbedtls_sha256_starts_ret( (mbedtls_sha256_context *) ctx, 0 ) );
 412              	 .loc 1 463 0
 413 0008 7868     	 ldr r0,[r7,#4]
 414 000a 0021     	 movs r1,#0
 415 000c FFF7FEFF 	 bl mbedtls_sha256_starts_ret
 416 0010 0346     	 mov r3,r0
 464:C:/Users/Yushev/git/wpcqi-optiga-trust-charge/optiga/externals/mbedtls/library\md_wrap.c **** }
 417              	 .loc 1 464 0
 418 0012 1846     	 mov r0,r3
 419 0014 0837     	 adds r7,r7,#8
 420              	.LCFI43:
 421              	 .cfi_def_cfa_offset 8
 422 0016 BD46     	 mov sp,r7
 423              	.LCFI44:
 424              	 .cfi_def_cfa_register 13
 425              	 
 426 0018 80BD     	 pop {r7,pc}
 427              	 .cfi_endproc
 428              	.LFE8:
 430 001a 00BF     	 .section .text.sha256_wrap,"ax",%progbits
 431              	 .align 2
 432              	 .thumb
 433              	 .thumb_func
 435              	sha256_wrap:
 436              	.LFB9:
 465:C:/Users/Yushev/git/wpcqi-optiga-trust-charge/optiga/externals/mbedtls/library\md_wrap.c **** 
 466:C:/Users/Yushev/git/wpcqi-optiga-trust-charge/optiga/externals/mbedtls/library\md_wrap.c **** static int sha256_wrap( const unsigned char *input, size_t ilen,
 467:C:/Users/Yushev/git/wpcqi-optiga-trust-charge/optiga/externals/mbedtls/library\md_wrap.c ****                         unsigned char *output )
 468:C:/Users/Yushev/git/wpcqi-optiga-trust-charge/optiga/externals/mbedtls/library\md_wrap.c **** {
 437              	 .loc 1 468 0
 438              	 .cfi_startproc
 439              	 
 440              	 
 441 0000 80B5     	 push {r7,lr}
 442              	.LCFI45:
 443              	 .cfi_def_cfa_offset 8
 444              	 .cfi_offset 7,-8
 445              	 .cfi_offset 14,-4
 446 0002 84B0     	 sub sp,sp,#16
 447              	.LCFI46:
 448              	 .cfi_def_cfa_offset 24
 449 0004 00AF     	 add r7,sp,#0
 450              	.LCFI47:
 451              	 .cfi_def_cfa_register 7
 452 0006 F860     	 str r0,[r7,#12]
 453 0008 B960     	 str r1,[r7,#8]
 454 000a 7A60     	 str r2,[r7,#4]
 469:C:/Users/Yushev/git/wpcqi-optiga-trust-charge/optiga/externals/mbedtls/library\md_wrap.c ****     return( mbedtls_sha256_ret( input, ilen, output, 0 ) );
 455              	 .loc 1 469 0
 456 000c F868     	 ldr r0,[r7,#12]
 457 000e B968     	 ldr r1,[r7,#8]
 458 0010 7A68     	 ldr r2,[r7,#4]
 459 0012 0023     	 movs r3,#0
 460 0014 FFF7FEFF 	 bl mbedtls_sha256_ret
 461 0018 0346     	 mov r3,r0
 470:C:/Users/Yushev/git/wpcqi-optiga-trust-charge/optiga/externals/mbedtls/library\md_wrap.c **** }
 462              	 .loc 1 470 0
 463 001a 1846     	 mov r0,r3
 464 001c 1037     	 adds r7,r7,#16
 465              	.LCFI48:
 466              	 .cfi_def_cfa_offset 8
 467 001e BD46     	 mov sp,r7
 468              	.LCFI49:
 469              	 .cfi_def_cfa_register 13
 470              	 
 471 0020 80BD     	 pop {r7,pc}
 472              	 .cfi_endproc
 473              	.LFE9:
 475              	 .global mbedtls_sha256_info
 476 0022 00BF     	 .section .rodata
 477 0007 00       	 .align 2
 478              	.LC1:
 479 0008 53484132 	 .ascii "SHA256\000"
 479      353600
 480 000f 00       	 .section .rodata.mbedtls_sha256_info,"a",%progbits
 481              	 .align 2
 484              	mbedtls_sha256_info:
 485 0000 06       	 .byte 6
 486 0001 000000   	 .space 3
 487 0004 08000000 	 .word .LC1
 488 0008 20000000 	 .word 32
 489 000c 40000000 	 .word 64
 490 0010 00000000 	 .word sha256_starts_wrap
 491 0014 00000000 	 .word sha224_update_wrap
 492 0018 00000000 	 .word sha224_finish_wrap
 493 001c 00000000 	 .word sha256_wrap
 494 0020 00000000 	 .word sha224_ctx_alloc
 495 0024 00000000 	 .word sha224_ctx_free
 496 0028 00000000 	 .word sha224_clone_wrap
 497 002c 00000000 	 .word sha224_process_wrap
 498              	 .text
 499              	.Letext0:
 500              	 .file 2 "c:\\users\\yushev\\dave_4-4-2_32bit_2018-02-23\\dave-ide-4.4.2-32bit\\eclipse\\arm-gcc-49\\lib\\gcc\\arm-none-eabi\\4.9.3\\include\\stddef.h"
 501              	 .file 3 "C:/Users/Yushev/git/wpcqi-optiga-trust-charge/optiga/externals/mbedtls/include/mbedtls/md.h"
 502              	 .file 4 "C:/Users/Yushev/git/wpcqi-optiga-trust-charge/optiga/externals/mbedtls/include/mbedtls/md_internal.h"
 503              	 .file 5 "c:\\users\\yushev\\dave_4-4-2_32bit_2018-02-23\\dave-ide-4.4.2-32bit\\eclipse\\arm-gcc-49\\arm-none-eabi\\include\\machine\\_default_types.h"
 504              	 .file 6 "c:\\users\\yushev\\dave_4-4-2_32bit_2018-02-23\\dave-ide-4.4.2-32bit\\eclipse\\arm-gcc-49\\arm-none-eabi\\include\\stdint.h"
 505              	 .file 7 "C:/Users/Yushev/git/wpcqi-optiga-trust-charge/optiga/externals/mbedtls/include/mbedtls/sha256.h"