   1              	 .syntax unified
   2              	 .cpu cortex-m4
   3              	 .eabi_attribute 27,3
   4              	 .fpu fpv4-sp-d16
   5              	 .eabi_attribute 20,1
   6              	 .eabi_attribute 21,1
   7              	 .eabi_attribute 23,3
   8              	 .eabi_attribute 24,1
   9              	 .eabi_attribute 25,1
  10              	 .eabi_attribute 26,1
  11              	 .eabi_attribute 30,6
  12              	 .eabi_attribute 34,1
  13              	 .eabi_attribute 18,4
  14              	 .thumb
  15              	 .file "oid.c"
  16              	 .text
  17              	.Ltext0:
  18              	 .cfi_sections .debug_frame
  19              	 .section .rodata
  20              	 .align 2
  21              	.LC0:
  22 0000 55040300 	 .ascii "U\004\003\000"
  23              	 .align 2
  24              	.LC1:
  25 0004 69642D61 	 .ascii "id-at-commonName\000"
  25      742D636F 
  25      6D6D6F6E 
  25      4E616D65 
  25      00
  26 0015 000000   	 .align 2
  27              	.LC2:
  28 0018 436F6D6D 	 .ascii "Common Name\000"
  28      6F6E204E 
  28      616D6500 
  29              	 .align 2
  30              	.LC3:
  31 0024 434E00   	 .ascii "CN\000"
  32 0027 00       	 .align 2
  33              	.LC4:
  34 0028 55040600 	 .ascii "U\004\006\000"
  35              	 .align 2
  36              	.LC5:
  37 002c 69642D61 	 .ascii "id-at-countryName\000"
  37      742D636F 
  37      756E7472 
  37      794E616D 
  37      6500
  38 003e 0000     	 .align 2
  39              	.LC6:
  40 0040 436F756E 	 .ascii "Country\000"
  40      74727900 
  41              	 .align 2
  42              	.LC7:
  43 0048 4300     	 .ascii "C\000"
  44 004a 0000     	 .align 2
  45              	.LC8:
  46 004c 55040700 	 .ascii "U\004\007\000"
  47              	 .align 2
  48              	.LC9:
  49 0050 69642D61 	 .ascii "id-at-locality\000"
  49      742D6C6F 
  49      63616C69 
  49      747900
  50 005f 00       	 .align 2
  51              	.LC10:
  52 0060 4C6F6361 	 .ascii "Locality\000"
  52      6C697479 
  52      00
  53 0069 000000   	 .align 2
  54              	.LC11:
  55 006c 4C00     	 .ascii "L\000"
  56 006e 0000     	 .align 2
  57              	.LC12:
  58 0070 55040800 	 .ascii "U\004\010\000"
  59              	 .align 2
  60              	.LC13:
  61 0074 69642D61 	 .ascii "id-at-state\000"
  61      742D7374 
  61      61746500 
  62              	 .align 2
  63              	.LC14:
  64 0080 53746174 	 .ascii "State\000"
  64      6500
  65 0086 0000     	 .align 2
  66              	.LC15:
  67 0088 535400   	 .ascii "ST\000"
  68 008b 00       	 .align 2
  69              	.LC16:
  70 008c 55040A00 	 .ascii "U\004\012\000"
  71              	 .align 2
  72              	.LC17:
  73 0090 69642D61 	 .ascii "id-at-organizationName\000"
  73      742D6F72 
  73      67616E69 
  73      7A617469 
  73      6F6E4E61 
  74 00a7 00       	 .align 2
  75              	.LC18:
  76 00a8 4F726761 	 .ascii "Organization\000"
  76      6E697A61 
  76      74696F6E 
  76      00
  77 00b5 000000   	 .align 2
  78              	.LC19:
  79 00b8 4F00     	 .ascii "O\000"
  80 00ba 0000     	 .align 2
  81              	.LC20:
  82 00bc 55040B00 	 .ascii "U\004\013\000"
  83              	 .align 2
  84              	.LC21:
  85 00c0 69642D61 	 .ascii "id-at-organizationalUnitName\000"
  85      742D6F72 
  85      67616E69 
  85      7A617469 
  85      6F6E616C 
  86 00dd 000000   	 .align 2
  87              	.LC22:
  88 00e0 4F726720 	 .ascii "Org Unit\000"
  88      556E6974 
  88      00
  89 00e9 000000   	 .align 2
  90              	.LC23:
  91 00ec 4F5500   	 .ascii "OU\000"
  92 00ef 00       	 .align 2
  93              	.LC24:
  94 00f0 2A864886 	 .ascii "*\206H\206\367\015\001\011\001\000"
  94      F70D0109 
  94      0100
  95 00fa 0000     	 .align 2
  96              	.LC25:
  97 00fc 656D6169 	 .ascii "emailAddress\000"
  97      6C416464 
  97      72657373 
  97      00
  98 0109 000000   	 .align 2
  99              	.LC26:
 100 010c 452D6D61 	 .ascii "E-mail address\000"
 100      696C2061 
 100      64647265 
 100      737300
 101 011b 00       	 .align 2
 102              	.LC27:
 103 011c 55040500 	 .ascii "U\004\005\000"
 104              	 .align 2
 105              	.LC28:
 106 0120 69642D61 	 .ascii "id-at-serialNumber\000"
 106      742D7365 
 106      7269616C 
 106      4E756D62 
 106      657200
 107 0133 00       	 .align 2
 108              	.LC29:
 109 0134 53657269 	 .ascii "Serial number\000"
 109      616C206E 
 109      756D6265 
 109      7200
 110 0142 0000     	 .align 2
 111              	.LC30:
 112 0144 73657269 	 .ascii "serialNumber\000"
 112      616C4E75 
 112      6D626572 
 112      00
 113 0151 000000   	 .align 2
 114              	.LC31:
 115 0154 55041000 	 .ascii "U\004\020\000"
 116              	 .align 2
 117              	.LC32:
 118 0158 69642D61 	 .ascii "id-at-postalAddress\000"
 118      742D706F 
 118      7374616C 
 118      41646472 
 118      65737300 
 119              	 .align 2
 120              	.LC33:
 121 016c 506F7374 	 .ascii "Postal address\000"
 121      616C2061 
 121      64647265 
 121      737300
 122 017b 00       	 .align 2
 123              	.LC34:
 124 017c 706F7374 	 .ascii "postalAddress\000"
 124      616C4164 
 124      64726573 
 124      7300
 125 018a 0000     	 .align 2
 126              	.LC35:
 127 018c 55041100 	 .ascii "U\004\021\000"
 128              	 .align 2
 129              	.LC36:
 130 0190 69642D61 	 .ascii "id-at-postalCode\000"
 130      742D706F 
 130      7374616C 
 130      436F6465 
 130      00
 131 01a1 000000   	 .align 2
 132              	.LC37:
 133 01a4 506F7374 	 .ascii "Postal code\000"
 133      616C2063 
 133      6F646500 
 134              	 .align 2
 135              	.LC38:
 136 01b0 706F7374 	 .ascii "postalCode\000"
 136      616C436F 
 136      646500
 137 01bb 00       	 .align 2
 138              	.LC39:
 139 01bc 55040400 	 .ascii "U\004\004\000"
 140              	 .align 2
 141              	.LC40:
 142 01c0 69642D61 	 .ascii "id-at-surName\000"
 142      742D7375 
 142      724E616D 
 142      6500
 143 01ce 0000     	 .align 2
 144              	.LC41:
 145 01d0 5375726E 	 .ascii "Surname\000"
 145      616D6500 
 146              	 .align 2
 147              	.LC42:
 148 01d8 534E00   	 .ascii "SN\000"
 149 01db 00       	 .align 2
 150              	.LC43:
 151 01dc 55042A00 	 .ascii "U\004*\000"
 152              	 .align 2
 153              	.LC44:
 154 01e0 69642D61 	 .ascii "id-at-givenName\000"
 154      742D6769 
 154      76656E4E 
 154      616D6500 
 155              	 .align 2
 156              	.LC45:
 157 01f0 47697665 	 .ascii "Given name\000"
 157      6E206E61 
 157      6D6500
 158 01fb 00       	 .align 2
 159              	.LC46:
 160 01fc 474E00   	 .ascii "GN\000"
 161 01ff 00       	 .align 2
 162              	.LC47:
 163 0200 55042B00 	 .ascii "U\004+\000"
 164              	 .align 2
 165              	.LC48:
 166 0204 69642D61 	 .ascii "id-at-initials\000"
 166      742D696E 
 166      69746961 
 166      6C7300
 167 0213 00       	 .align 2
 168              	.LC49:
 169 0214 496E6974 	 .ascii "Initials\000"
 169      69616C73 
 169      00
 170 021d 000000   	 .align 2
 171              	.LC50:
 172 0220 696E6974 	 .ascii "initials\000"
 172      69616C73 
 172      00
 173 0229 000000   	 .align 2
 174              	.LC51:
 175 022c 55042C00 	 .ascii "U\004,\000"
 176              	 .align 2
 177              	.LC52:
 178 0230 69642D61 	 .ascii "id-at-generationQualifier\000"
 178      742D6765 
 178      6E657261 
 178      74696F6E 
 178      5175616C 
 179 024a 0000     	 .align 2
 180              	.LC53:
 181 024c 47656E65 	 .ascii "Generation qualifier\000"
 181      72617469 
 181      6F6E2071 
 181      75616C69 
 181      66696572 
 182 0261 000000   	 .align 2
 183              	.LC54:
 184 0264 67656E65 	 .ascii "generationQualifier\000"
 184      72617469 
 184      6F6E5175 
 184      616C6966 
 184      69657200 
 185              	 .align 2
 186              	.LC55:
 187 0278 55040C00 	 .ascii "U\004\014\000"
 188              	 .align 2
 189              	.LC56:
 190 027c 69642D61 	 .ascii "id-at-title\000"
 190      742D7469 
 190      746C6500 
 191              	 .align 2
 192              	.LC57:
 193 0288 5469746C 	 .ascii "Title\000"
 193      6500
 194 028e 0000     	 .align 2
 195              	.LC58:
 196 0290 7469746C 	 .ascii "title\000"
 196      6500
 197 0296 0000     	 .align 2
 198              	.LC59:
 199 0298 55042E00 	 .ascii "U\004.\000"
 200              	 .align 2
 201              	.LC60:
 202 029c 69642D61 	 .ascii "id-at-dnQualifier\000"
 202      742D646E 
 202      5175616C 
 202      69666965 
 202      7200
 203 02ae 0000     	 .align 2
 204              	.LC61:
 205 02b0 44697374 	 .ascii "Distinguished Name qualifier\000"
 205      696E6775 
 205      69736865 
 205      64204E61 
 205      6D652071 
 206 02cd 000000   	 .align 2
 207              	.LC62:
 208 02d0 646E5175 	 .ascii "dnQualifier\000"
 208      616C6966 
 208      69657200 
 209              	 .align 2
 210              	.LC63:
 211 02dc 55044100 	 .ascii "U\004A\000"
 212              	 .align 2
 213              	.LC64:
 214 02e0 69642D61 	 .ascii "id-at-pseudonym\000"
 214      742D7073 
 214      6575646F 
 214      6E796D00 
 215              	 .align 2
 216              	.LC65:
 217 02f0 50736575 	 .ascii "Pseudonym\000"
 217      646F6E79 
 217      6D00
 218 02fa 0000     	 .align 2
 219              	.LC66:
 220 02fc 70736575 	 .ascii "pseudonym\000"
 220      646F6E79 
 220      6D00
 221 0306 0000     	 .align 2
 222              	.LC67:
 223 0308 09922689 	 .ascii "\011\222&\211\223\362,d\001\031\000"
 223      93F22C64 
 223      011900
 224 0313 00       	 .align 2
 225              	.LC68:
 226 0314 69642D64 	 .ascii "id-domainComponent\000"
 226      6F6D6169 
 226      6E436F6D 
 226      706F6E65 
 226      6E7400
 227 0327 00       	 .align 2
 228              	.LC69:
 229 0328 446F6D61 	 .ascii "Domain component\000"
 229      696E2063 
 229      6F6D706F 
 229      6E656E74 
 229      00
 230 0339 000000   	 .align 2
 231              	.LC70:
 232 033c 444300   	 .ascii "DC\000"
 233 033f 00       	 .align 2
 234              	.LC71:
 235 0340 55042D00 	 .ascii "U\004-\000"
 236              	 .align 2
 237              	.LC72:
 238 0344 69642D61 	 .ascii "id-at-uniqueIdentifier\000"
 238      742D756E 
 238      69717565 
 238      4964656E 
 238      74696669 
 239 035b 00       	 .align 2
 240              	.LC73:
 241 035c 556E6971 	 .ascii "Unique Identifier\000"
 241      75652049 
 241      64656E74 
 241      69666965 
 241      7200
 242 036e 0000     	 .align 2
 243              	.LC74:
 244 0370 756E6971 	 .ascii "uniqueIdentifier\000"
 244      75654964 
 244      656E7469 
 244      66696572 
 244      00
 245              	 .section .rodata.oid_x520_attr_type,"a",%progbits
 246              	 .align 2
 249              	oid_x520_attr_type:
 250 0000 00000000 	 .word .LC0
 251 0004 03000000 	 .word 3
 252 0008 04000000 	 .word .LC1
 253 000c 18000000 	 .word .LC2
 254 0010 24000000 	 .word .LC3
 255 0014 28000000 	 .word .LC4
 256 0018 03000000 	 .word 3
 257 001c 2C000000 	 .word .LC5
 258 0020 40000000 	 .word .LC6
 259 0024 48000000 	 .word .LC7
 260 0028 4C000000 	 .word .LC8
 261 002c 03000000 	 .word 3
 262 0030 50000000 	 .word .LC9
 263 0034 60000000 	 .word .LC10
 264 0038 6C000000 	 .word .LC11
 265 003c 70000000 	 .word .LC12
 266 0040 03000000 	 .word 3
 267 0044 74000000 	 .word .LC13
 268 0048 80000000 	 .word .LC14
 269 004c 88000000 	 .word .LC15
 270 0050 8C000000 	 .word .LC16
 271 0054 03000000 	 .word 3
 272 0058 90000000 	 .word .LC17
 273 005c A8000000 	 .word .LC18
 274 0060 B8000000 	 .word .LC19
 275 0064 BC000000 	 .word .LC20
 276 0068 03000000 	 .word 3
 277 006c C0000000 	 .word .LC21
 278 0070 E0000000 	 .word .LC22
 279 0074 EC000000 	 .word .LC23
 280 0078 F0000000 	 .word .LC24
 281 007c 09000000 	 .word 9
 282 0080 FC000000 	 .word .LC25
 283 0084 0C010000 	 .word .LC26
 284 0088 FC000000 	 .word .LC25
 285 008c 1C010000 	 .word .LC27
 286 0090 03000000 	 .word 3
 287 0094 20010000 	 .word .LC28
 288 0098 34010000 	 .word .LC29
 289 009c 44010000 	 .word .LC30
 290 00a0 54010000 	 .word .LC31
 291 00a4 03000000 	 .word 3
 292 00a8 58010000 	 .word .LC32
 293 00ac 6C010000 	 .word .LC33
 294 00b0 7C010000 	 .word .LC34
 295 00b4 8C010000 	 .word .LC35
 296 00b8 03000000 	 .word 3
 297 00bc 90010000 	 .word .LC36
 298 00c0 A4010000 	 .word .LC37
 299 00c4 B0010000 	 .word .LC38
 300 00c8 BC010000 	 .word .LC39
 301 00cc 03000000 	 .word 3
 302 00d0 C0010000 	 .word .LC40
 303 00d4 D0010000 	 .word .LC41
 304 00d8 D8010000 	 .word .LC42
 305 00dc DC010000 	 .word .LC43
 306 00e0 03000000 	 .word 3
 307 00e4 E0010000 	 .word .LC44
 308 00e8 F0010000 	 .word .LC45
 309 00ec FC010000 	 .word .LC46
 310 00f0 00020000 	 .word .LC47
 311 00f4 03000000 	 .word 3
 312 00f8 04020000 	 .word .LC48
 313 00fc 14020000 	 .word .LC49
 314 0100 20020000 	 .word .LC50
 315 0104 2C020000 	 .word .LC51
 316 0108 03000000 	 .word 3
 317 010c 30020000 	 .word .LC52
 318 0110 4C020000 	 .word .LC53
 319 0114 64020000 	 .word .LC54
 320 0118 78020000 	 .word .LC55
 321 011c 03000000 	 .word 3
 322 0120 7C020000 	 .word .LC56
 323 0124 88020000 	 .word .LC57
 324 0128 90020000 	 .word .LC58
 325 012c 98020000 	 .word .LC59
 326 0130 03000000 	 .word 3
 327 0134 9C020000 	 .word .LC60
 328 0138 B0020000 	 .word .LC61
 329 013c D0020000 	 .word .LC62
 330 0140 DC020000 	 .word .LC63
 331 0144 03000000 	 .word 3
 332 0148 E0020000 	 .word .LC64
 333 014c F0020000 	 .word .LC65
 334 0150 FC020000 	 .word .LC66
 335 0154 08030000 	 .word .LC67
 336 0158 0A000000 	 .word 10
 337 015c 14030000 	 .word .LC68
 338 0160 28030000 	 .word .LC69
 339 0164 3C030000 	 .word .LC70
 340 0168 40030000 	 .word .LC71
 341 016c 03000000 	 .word 3
 342 0170 44030000 	 .word .LC72
 343 0174 5C030000 	 .word .LC73
 344 0178 70030000 	 .word .LC74
 345 017c 00000000 	 .word 0
 346 0180 00000000 	 .word 0
 347 0184 00000000 	 .word 0
 348 0188 00000000 	 .word 0
 349 018c 00000000 	 .word 0
 350              	 .section .text.oid_x520_attr_from_asn1,"ax",%progbits
 351              	 .align 2
 352              	 .thumb
 353              	 .thumb_func
 355              	oid_x520_attr_from_asn1:
 356              	.LFB9:
 357              	 .file 1 "C:/Users/Yushev/git/wpcqi-optiga-trust-charge/optiga/externals/mbedtls/library/oid.c"
   1:C:/Users/Yushev/git/wpcqi-optiga-trust-charge/optiga/externals/mbedtls/library\oid.c **** /**
   2:C:/Users/Yushev/git/wpcqi-optiga-trust-charge/optiga/externals/mbedtls/library\oid.c ****  * \file oid.c
   3:C:/Users/Yushev/git/wpcqi-optiga-trust-charge/optiga/externals/mbedtls/library\oid.c ****  *
   4:C:/Users/Yushev/git/wpcqi-optiga-trust-charge/optiga/externals/mbedtls/library\oid.c ****  * \brief Object Identifier (OID) database
   5:C:/Users/Yushev/git/wpcqi-optiga-trust-charge/optiga/externals/mbedtls/library\oid.c ****  *
   6:C:/Users/Yushev/git/wpcqi-optiga-trust-charge/optiga/externals/mbedtls/library\oid.c ****  *  Copyright (C) 2006-2015, ARM Limited, All Rights Reserved
   7:C:/Users/Yushev/git/wpcqi-optiga-trust-charge/optiga/externals/mbedtls/library\oid.c ****  *  SPDX-License-Identifier: Apache-2.0
   8:C:/Users/Yushev/git/wpcqi-optiga-trust-charge/optiga/externals/mbedtls/library\oid.c ****  *
   9:C:/Users/Yushev/git/wpcqi-optiga-trust-charge/optiga/externals/mbedtls/library\oid.c ****  *  Licensed under the Apache License, Version 2.0 (the "License"); you may
  10:C:/Users/Yushev/git/wpcqi-optiga-trust-charge/optiga/externals/mbedtls/library\oid.c ****  *  not use this file except in compliance with the License.
  11:C:/Users/Yushev/git/wpcqi-optiga-trust-charge/optiga/externals/mbedtls/library\oid.c ****  *  You may obtain a copy of the License at
  12:C:/Users/Yushev/git/wpcqi-optiga-trust-charge/optiga/externals/mbedtls/library\oid.c ****  *
  13:C:/Users/Yushev/git/wpcqi-optiga-trust-charge/optiga/externals/mbedtls/library\oid.c ****  *  http://www.apache.org/licenses/LICENSE-2.0
  14:C:/Users/Yushev/git/wpcqi-optiga-trust-charge/optiga/externals/mbedtls/library\oid.c ****  *
  15:C:/Users/Yushev/git/wpcqi-optiga-trust-charge/optiga/externals/mbedtls/library\oid.c ****  *  Unless required by applicable law or agreed to in writing, software
  16:C:/Users/Yushev/git/wpcqi-optiga-trust-charge/optiga/externals/mbedtls/library\oid.c ****  *  distributed under the License is distributed on an "AS IS" BASIS, WITHOUT
  17:C:/Users/Yushev/git/wpcqi-optiga-trust-charge/optiga/externals/mbedtls/library\oid.c ****  *  WARRANTIES OR CONDITIONS OF ANY KIND, either express or implied.
  18:C:/Users/Yushev/git/wpcqi-optiga-trust-charge/optiga/externals/mbedtls/library\oid.c ****  *  See the License for the specific language governing permissions and
  19:C:/Users/Yushev/git/wpcqi-optiga-trust-charge/optiga/externals/mbedtls/library\oid.c ****  *  limitations under the License.
  20:C:/Users/Yushev/git/wpcqi-optiga-trust-charge/optiga/externals/mbedtls/library\oid.c ****  *
  21:C:/Users/Yushev/git/wpcqi-optiga-trust-charge/optiga/externals/mbedtls/library\oid.c ****  *  This file is part of mbed TLS (https://tls.mbed.org)
  22:C:/Users/Yushev/git/wpcqi-optiga-trust-charge/optiga/externals/mbedtls/library\oid.c ****  */
  23:C:/Users/Yushev/git/wpcqi-optiga-trust-charge/optiga/externals/mbedtls/library\oid.c **** 
  24:C:/Users/Yushev/git/wpcqi-optiga-trust-charge/optiga/externals/mbedtls/library\oid.c **** #if !defined(MBEDTLS_CONFIG_FILE)
  25:C:/Users/Yushev/git/wpcqi-optiga-trust-charge/optiga/externals/mbedtls/library\oid.c **** #include "mbedtls/config.h"
  26:C:/Users/Yushev/git/wpcqi-optiga-trust-charge/optiga/externals/mbedtls/library\oid.c **** #else
  27:C:/Users/Yushev/git/wpcqi-optiga-trust-charge/optiga/externals/mbedtls/library\oid.c **** #include MBEDTLS_CONFIG_FILE
  28:C:/Users/Yushev/git/wpcqi-optiga-trust-charge/optiga/externals/mbedtls/library\oid.c **** #endif
  29:C:/Users/Yushev/git/wpcqi-optiga-trust-charge/optiga/externals/mbedtls/library\oid.c **** 
  30:C:/Users/Yushev/git/wpcqi-optiga-trust-charge/optiga/externals/mbedtls/library\oid.c **** #if defined(MBEDTLS_OID_C)
  31:C:/Users/Yushev/git/wpcqi-optiga-trust-charge/optiga/externals/mbedtls/library\oid.c **** 
  32:C:/Users/Yushev/git/wpcqi-optiga-trust-charge/optiga/externals/mbedtls/library\oid.c **** #include "mbedtls/oid.h"
  33:C:/Users/Yushev/git/wpcqi-optiga-trust-charge/optiga/externals/mbedtls/library\oid.c **** #include "mbedtls/rsa.h"
  34:C:/Users/Yushev/git/wpcqi-optiga-trust-charge/optiga/externals/mbedtls/library\oid.c **** 
  35:C:/Users/Yushev/git/wpcqi-optiga-trust-charge/optiga/externals/mbedtls/library\oid.c **** #include <stdio.h>
  36:C:/Users/Yushev/git/wpcqi-optiga-trust-charge/optiga/externals/mbedtls/library\oid.c **** #include <string.h>
  37:C:/Users/Yushev/git/wpcqi-optiga-trust-charge/optiga/externals/mbedtls/library\oid.c **** 
  38:C:/Users/Yushev/git/wpcqi-optiga-trust-charge/optiga/externals/mbedtls/library\oid.c **** #if defined(MBEDTLS_PLATFORM_C)
  39:C:/Users/Yushev/git/wpcqi-optiga-trust-charge/optiga/externals/mbedtls/library\oid.c **** #include "mbedtls/platform.h"
  40:C:/Users/Yushev/git/wpcqi-optiga-trust-charge/optiga/externals/mbedtls/library\oid.c **** #else
  41:C:/Users/Yushev/git/wpcqi-optiga-trust-charge/optiga/externals/mbedtls/library\oid.c **** #define mbedtls_snprintf snprintf
  42:C:/Users/Yushev/git/wpcqi-optiga-trust-charge/optiga/externals/mbedtls/library\oid.c **** #endif
  43:C:/Users/Yushev/git/wpcqi-optiga-trust-charge/optiga/externals/mbedtls/library\oid.c **** 
  44:C:/Users/Yushev/git/wpcqi-optiga-trust-charge/optiga/externals/mbedtls/library\oid.c **** #if defined(MBEDTLS_X509_USE_C) || defined(MBEDTLS_X509_CREATE_C)
  45:C:/Users/Yushev/git/wpcqi-optiga-trust-charge/optiga/externals/mbedtls/library\oid.c **** #include "mbedtls/x509.h"
  46:C:/Users/Yushev/git/wpcqi-optiga-trust-charge/optiga/externals/mbedtls/library\oid.c **** #endif
  47:C:/Users/Yushev/git/wpcqi-optiga-trust-charge/optiga/externals/mbedtls/library\oid.c **** 
  48:C:/Users/Yushev/git/wpcqi-optiga-trust-charge/optiga/externals/mbedtls/library\oid.c **** /*
  49:C:/Users/Yushev/git/wpcqi-optiga-trust-charge/optiga/externals/mbedtls/library\oid.c ****  * Macro to automatically add the size of #define'd OIDs
  50:C:/Users/Yushev/git/wpcqi-optiga-trust-charge/optiga/externals/mbedtls/library\oid.c ****  */
  51:C:/Users/Yushev/git/wpcqi-optiga-trust-charge/optiga/externals/mbedtls/library\oid.c **** #define ADD_LEN(s)      s, MBEDTLS_OID_SIZE(s)
  52:C:/Users/Yushev/git/wpcqi-optiga-trust-charge/optiga/externals/mbedtls/library\oid.c **** 
  53:C:/Users/Yushev/git/wpcqi-optiga-trust-charge/optiga/externals/mbedtls/library\oid.c **** /*
  54:C:/Users/Yushev/git/wpcqi-optiga-trust-charge/optiga/externals/mbedtls/library\oid.c ****  * Macro to generate an internal function for oid_XXX_from_asn1() (used by
  55:C:/Users/Yushev/git/wpcqi-optiga-trust-charge/optiga/externals/mbedtls/library\oid.c ****  * the other functions)
  56:C:/Users/Yushev/git/wpcqi-optiga-trust-charge/optiga/externals/mbedtls/library\oid.c ****  */
  57:C:/Users/Yushev/git/wpcqi-optiga-trust-charge/optiga/externals/mbedtls/library\oid.c **** #define FN_OID_TYPED_FROM_ASN1( TYPE_T, NAME, LIST )                        \
  58:C:/Users/Yushev/git/wpcqi-optiga-trust-charge/optiga/externals/mbedtls/library\oid.c **** static const TYPE_T * oid_ ## NAME ## _from_asn1( const mbedtls_asn1_buf *oid )     \
  59:C:/Users/Yushev/git/wpcqi-optiga-trust-charge/optiga/externals/mbedtls/library\oid.c **** {                                                                           \
  60:C:/Users/Yushev/git/wpcqi-optiga-trust-charge/optiga/externals/mbedtls/library\oid.c ****     const TYPE_T *p = LIST;                                                 \
  61:C:/Users/Yushev/git/wpcqi-optiga-trust-charge/optiga/externals/mbedtls/library\oid.c ****     const mbedtls_oid_descriptor_t *cur = (const mbedtls_oid_descriptor_t *) p;             \
  62:C:/Users/Yushev/git/wpcqi-optiga-trust-charge/optiga/externals/mbedtls/library\oid.c ****     if( p == NULL || oid == NULL ) return( NULL );                          \
  63:C:/Users/Yushev/git/wpcqi-optiga-trust-charge/optiga/externals/mbedtls/library\oid.c ****     while( cur->asn1 != NULL ) {                                            \
  64:C:/Users/Yushev/git/wpcqi-optiga-trust-charge/optiga/externals/mbedtls/library\oid.c ****         if( cur->asn1_len == oid->len &&                                    \
  65:C:/Users/Yushev/git/wpcqi-optiga-trust-charge/optiga/externals/mbedtls/library\oid.c ****             memcmp( cur->asn1, oid->p, oid->len ) == 0 ) {                  \
  66:C:/Users/Yushev/git/wpcqi-optiga-trust-charge/optiga/externals/mbedtls/library\oid.c ****             return( p );                                                    \
  67:C:/Users/Yushev/git/wpcqi-optiga-trust-charge/optiga/externals/mbedtls/library\oid.c ****         }                                                                   \
  68:C:/Users/Yushev/git/wpcqi-optiga-trust-charge/optiga/externals/mbedtls/library\oid.c ****         p++;                                                                \
  69:C:/Users/Yushev/git/wpcqi-optiga-trust-charge/optiga/externals/mbedtls/library\oid.c ****         cur = (const mbedtls_oid_descriptor_t *) p;                                 \
  70:C:/Users/Yushev/git/wpcqi-optiga-trust-charge/optiga/externals/mbedtls/library\oid.c ****     }                                                                       \
  71:C:/Users/Yushev/git/wpcqi-optiga-trust-charge/optiga/externals/mbedtls/library\oid.c ****     return( NULL );                                                         \
  72:C:/Users/Yushev/git/wpcqi-optiga-trust-charge/optiga/externals/mbedtls/library\oid.c **** }
  73:C:/Users/Yushev/git/wpcqi-optiga-trust-charge/optiga/externals/mbedtls/library\oid.c **** 
  74:C:/Users/Yushev/git/wpcqi-optiga-trust-charge/optiga/externals/mbedtls/library\oid.c **** /*
  75:C:/Users/Yushev/git/wpcqi-optiga-trust-charge/optiga/externals/mbedtls/library\oid.c ****  * Macro to generate a function for retrieving a single attribute from the
  76:C:/Users/Yushev/git/wpcqi-optiga-trust-charge/optiga/externals/mbedtls/library\oid.c ****  * descriptor of an mbedtls_oid_descriptor_t wrapper.
  77:C:/Users/Yushev/git/wpcqi-optiga-trust-charge/optiga/externals/mbedtls/library\oid.c ****  */
  78:C:/Users/Yushev/git/wpcqi-optiga-trust-charge/optiga/externals/mbedtls/library\oid.c **** #define FN_OID_GET_DESCRIPTOR_ATTR1(FN_NAME, TYPE_T, TYPE_NAME, ATTR1_TYPE, ATTR1) \
  79:C:/Users/Yushev/git/wpcqi-optiga-trust-charge/optiga/externals/mbedtls/library\oid.c **** int FN_NAME( const mbedtls_asn1_buf *oid, ATTR1_TYPE * ATTR1 )                  \
  80:C:/Users/Yushev/git/wpcqi-optiga-trust-charge/optiga/externals/mbedtls/library\oid.c **** {                                                                       \
  81:C:/Users/Yushev/git/wpcqi-optiga-trust-charge/optiga/externals/mbedtls/library\oid.c ****     const TYPE_T *data = oid_ ## TYPE_NAME ## _from_asn1( oid );        \
  82:C:/Users/Yushev/git/wpcqi-optiga-trust-charge/optiga/externals/mbedtls/library\oid.c ****     if( data == NULL ) return( MBEDTLS_ERR_OID_NOT_FOUND );            \
  83:C:/Users/Yushev/git/wpcqi-optiga-trust-charge/optiga/externals/mbedtls/library\oid.c ****     *ATTR1 = data->descriptor.ATTR1;                                    \
  84:C:/Users/Yushev/git/wpcqi-optiga-trust-charge/optiga/externals/mbedtls/library\oid.c ****     return( 0 );                                                        \
  85:C:/Users/Yushev/git/wpcqi-optiga-trust-charge/optiga/externals/mbedtls/library\oid.c **** }
  86:C:/Users/Yushev/git/wpcqi-optiga-trust-charge/optiga/externals/mbedtls/library\oid.c **** 
  87:C:/Users/Yushev/git/wpcqi-optiga-trust-charge/optiga/externals/mbedtls/library\oid.c **** /*
  88:C:/Users/Yushev/git/wpcqi-optiga-trust-charge/optiga/externals/mbedtls/library\oid.c ****  * Macro to generate a function for retrieving a single attribute from an
  89:C:/Users/Yushev/git/wpcqi-optiga-trust-charge/optiga/externals/mbedtls/library\oid.c ****  * mbedtls_oid_descriptor_t wrapper.
  90:C:/Users/Yushev/git/wpcqi-optiga-trust-charge/optiga/externals/mbedtls/library\oid.c ****  */
  91:C:/Users/Yushev/git/wpcqi-optiga-trust-charge/optiga/externals/mbedtls/library\oid.c **** #define FN_OID_GET_ATTR1(FN_NAME, TYPE_T, TYPE_NAME, ATTR1_TYPE, ATTR1) \
  92:C:/Users/Yushev/git/wpcqi-optiga-trust-charge/optiga/externals/mbedtls/library\oid.c **** int FN_NAME( const mbedtls_asn1_buf *oid, ATTR1_TYPE * ATTR1 )                  \
  93:C:/Users/Yushev/git/wpcqi-optiga-trust-charge/optiga/externals/mbedtls/library\oid.c **** {                                                                       \
  94:C:/Users/Yushev/git/wpcqi-optiga-trust-charge/optiga/externals/mbedtls/library\oid.c ****     const TYPE_T *data = oid_ ## TYPE_NAME ## _from_asn1( oid );        \
  95:C:/Users/Yushev/git/wpcqi-optiga-trust-charge/optiga/externals/mbedtls/library\oid.c ****     if( data == NULL ) return( MBEDTLS_ERR_OID_NOT_FOUND );            \
  96:C:/Users/Yushev/git/wpcqi-optiga-trust-charge/optiga/externals/mbedtls/library\oid.c ****     *ATTR1 = data->ATTR1;                                               \
  97:C:/Users/Yushev/git/wpcqi-optiga-trust-charge/optiga/externals/mbedtls/library\oid.c ****     return( 0 );                                                        \
  98:C:/Users/Yushev/git/wpcqi-optiga-trust-charge/optiga/externals/mbedtls/library\oid.c **** }
  99:C:/Users/Yushev/git/wpcqi-optiga-trust-charge/optiga/externals/mbedtls/library\oid.c **** 
 100:C:/Users/Yushev/git/wpcqi-optiga-trust-charge/optiga/externals/mbedtls/library\oid.c **** /*
 101:C:/Users/Yushev/git/wpcqi-optiga-trust-charge/optiga/externals/mbedtls/library\oid.c ****  * Macro to generate a function for retrieving two attributes from an
 102:C:/Users/Yushev/git/wpcqi-optiga-trust-charge/optiga/externals/mbedtls/library\oid.c ****  * mbedtls_oid_descriptor_t wrapper.
 103:C:/Users/Yushev/git/wpcqi-optiga-trust-charge/optiga/externals/mbedtls/library\oid.c ****  */
 104:C:/Users/Yushev/git/wpcqi-optiga-trust-charge/optiga/externals/mbedtls/library\oid.c **** #define FN_OID_GET_ATTR2(FN_NAME, TYPE_T, TYPE_NAME, ATTR1_TYPE, ATTR1,     \
 105:C:/Users/Yushev/git/wpcqi-optiga-trust-charge/optiga/externals/mbedtls/library\oid.c ****                          ATTR2_TYPE, ATTR2)                                 \
 106:C:/Users/Yushev/git/wpcqi-optiga-trust-charge/optiga/externals/mbedtls/library\oid.c **** int FN_NAME( const mbedtls_asn1_buf *oid, ATTR1_TYPE * ATTR1, ATTR2_TYPE * ATTR2 )  \
 107:C:/Users/Yushev/git/wpcqi-optiga-trust-charge/optiga/externals/mbedtls/library\oid.c **** {                                                                           \
 108:C:/Users/Yushev/git/wpcqi-optiga-trust-charge/optiga/externals/mbedtls/library\oid.c ****     const TYPE_T *data = oid_ ## TYPE_NAME ## _from_asn1( oid );            \
 109:C:/Users/Yushev/git/wpcqi-optiga-trust-charge/optiga/externals/mbedtls/library\oid.c ****     if( data == NULL ) return( MBEDTLS_ERR_OID_NOT_FOUND );                \
 110:C:/Users/Yushev/git/wpcqi-optiga-trust-charge/optiga/externals/mbedtls/library\oid.c ****     *ATTR1 = data->ATTR1;                                                   \
 111:C:/Users/Yushev/git/wpcqi-optiga-trust-charge/optiga/externals/mbedtls/library\oid.c ****     *ATTR2 = data->ATTR2;                                                   \
 112:C:/Users/Yushev/git/wpcqi-optiga-trust-charge/optiga/externals/mbedtls/library\oid.c ****     return( 0 );                                                            \
 113:C:/Users/Yushev/git/wpcqi-optiga-trust-charge/optiga/externals/mbedtls/library\oid.c **** }
 114:C:/Users/Yushev/git/wpcqi-optiga-trust-charge/optiga/externals/mbedtls/library\oid.c **** 
 115:C:/Users/Yushev/git/wpcqi-optiga-trust-charge/optiga/externals/mbedtls/library\oid.c **** /*
 116:C:/Users/Yushev/git/wpcqi-optiga-trust-charge/optiga/externals/mbedtls/library\oid.c ****  * Macro to generate a function for retrieving the OID based on a single
 117:C:/Users/Yushev/git/wpcqi-optiga-trust-charge/optiga/externals/mbedtls/library\oid.c ****  * attribute from a mbedtls_oid_descriptor_t wrapper.
 118:C:/Users/Yushev/git/wpcqi-optiga-trust-charge/optiga/externals/mbedtls/library\oid.c ****  */
 119:C:/Users/Yushev/git/wpcqi-optiga-trust-charge/optiga/externals/mbedtls/library\oid.c **** #define FN_OID_GET_OID_BY_ATTR1(FN_NAME, TYPE_T, LIST, ATTR1_TYPE, ATTR1)   \
 120:C:/Users/Yushev/git/wpcqi-optiga-trust-charge/optiga/externals/mbedtls/library\oid.c **** int FN_NAME( ATTR1_TYPE ATTR1, const char **oid, size_t *olen )             \
 121:C:/Users/Yushev/git/wpcqi-optiga-trust-charge/optiga/externals/mbedtls/library\oid.c **** {                                                                           \
 122:C:/Users/Yushev/git/wpcqi-optiga-trust-charge/optiga/externals/mbedtls/library\oid.c ****     const TYPE_T *cur = LIST;                                               \
 123:C:/Users/Yushev/git/wpcqi-optiga-trust-charge/optiga/externals/mbedtls/library\oid.c ****     while( cur->descriptor.asn1 != NULL ) {                                 \
 124:C:/Users/Yushev/git/wpcqi-optiga-trust-charge/optiga/externals/mbedtls/library\oid.c ****         if( cur->ATTR1 == ATTR1 ) {                                         \
 125:C:/Users/Yushev/git/wpcqi-optiga-trust-charge/optiga/externals/mbedtls/library\oid.c ****             *oid = cur->descriptor.asn1;                                    \
 126:C:/Users/Yushev/git/wpcqi-optiga-trust-charge/optiga/externals/mbedtls/library\oid.c ****             *olen = cur->descriptor.asn1_len;                               \
 127:C:/Users/Yushev/git/wpcqi-optiga-trust-charge/optiga/externals/mbedtls/library\oid.c ****             return( 0 );                                                    \
 128:C:/Users/Yushev/git/wpcqi-optiga-trust-charge/optiga/externals/mbedtls/library\oid.c ****         }                                                                   \
 129:C:/Users/Yushev/git/wpcqi-optiga-trust-charge/optiga/externals/mbedtls/library\oid.c ****         cur++;                                                              \
 130:C:/Users/Yushev/git/wpcqi-optiga-trust-charge/optiga/externals/mbedtls/library\oid.c ****     }                                                                       \
 131:C:/Users/Yushev/git/wpcqi-optiga-trust-charge/optiga/externals/mbedtls/library\oid.c ****     return( MBEDTLS_ERR_OID_NOT_FOUND );                                   \
 132:C:/Users/Yushev/git/wpcqi-optiga-trust-charge/optiga/externals/mbedtls/library\oid.c **** }
 133:C:/Users/Yushev/git/wpcqi-optiga-trust-charge/optiga/externals/mbedtls/library\oid.c **** 
 134:C:/Users/Yushev/git/wpcqi-optiga-trust-charge/optiga/externals/mbedtls/library\oid.c **** /*
 135:C:/Users/Yushev/git/wpcqi-optiga-trust-charge/optiga/externals/mbedtls/library\oid.c ****  * Macro to generate a function for retrieving the OID based on two
 136:C:/Users/Yushev/git/wpcqi-optiga-trust-charge/optiga/externals/mbedtls/library\oid.c ****  * attributes from a mbedtls_oid_descriptor_t wrapper.
 137:C:/Users/Yushev/git/wpcqi-optiga-trust-charge/optiga/externals/mbedtls/library\oid.c ****  */
 138:C:/Users/Yushev/git/wpcqi-optiga-trust-charge/optiga/externals/mbedtls/library\oid.c **** #define FN_OID_GET_OID_BY_ATTR2(FN_NAME, TYPE_T, LIST, ATTR1_TYPE, ATTR1,   \
 139:C:/Users/Yushev/git/wpcqi-optiga-trust-charge/optiga/externals/mbedtls/library\oid.c ****                                 ATTR2_TYPE, ATTR2)                          \
 140:C:/Users/Yushev/git/wpcqi-optiga-trust-charge/optiga/externals/mbedtls/library\oid.c **** int FN_NAME( ATTR1_TYPE ATTR1, ATTR2_TYPE ATTR2, const char **oid ,         \
 141:C:/Users/Yushev/git/wpcqi-optiga-trust-charge/optiga/externals/mbedtls/library\oid.c ****              size_t *olen )                                                 \
 142:C:/Users/Yushev/git/wpcqi-optiga-trust-charge/optiga/externals/mbedtls/library\oid.c **** {                                                                           \
 143:C:/Users/Yushev/git/wpcqi-optiga-trust-charge/optiga/externals/mbedtls/library\oid.c ****     const TYPE_T *cur = LIST;                                               \
 144:C:/Users/Yushev/git/wpcqi-optiga-trust-charge/optiga/externals/mbedtls/library\oid.c ****     while( cur->descriptor.asn1 != NULL ) {                                 \
 145:C:/Users/Yushev/git/wpcqi-optiga-trust-charge/optiga/externals/mbedtls/library\oid.c ****         if( cur->ATTR1 == ATTR1 && cur->ATTR2 == ATTR2 ) {                  \
 146:C:/Users/Yushev/git/wpcqi-optiga-trust-charge/optiga/externals/mbedtls/library\oid.c ****             *oid = cur->descriptor.asn1;                                    \
 147:C:/Users/Yushev/git/wpcqi-optiga-trust-charge/optiga/externals/mbedtls/library\oid.c ****             *olen = cur->descriptor.asn1_len;                               \
 148:C:/Users/Yushev/git/wpcqi-optiga-trust-charge/optiga/externals/mbedtls/library\oid.c ****             return( 0 );                                                    \
 149:C:/Users/Yushev/git/wpcqi-optiga-trust-charge/optiga/externals/mbedtls/library\oid.c ****         }                                                                   \
 150:C:/Users/Yushev/git/wpcqi-optiga-trust-charge/optiga/externals/mbedtls/library\oid.c ****         cur++;                                                              \
 151:C:/Users/Yushev/git/wpcqi-optiga-trust-charge/optiga/externals/mbedtls/library\oid.c ****     }                                                                       \
 152:C:/Users/Yushev/git/wpcqi-optiga-trust-charge/optiga/externals/mbedtls/library\oid.c ****     return( MBEDTLS_ERR_OID_NOT_FOUND );                                   \
 153:C:/Users/Yushev/git/wpcqi-optiga-trust-charge/optiga/externals/mbedtls/library\oid.c **** }
 154:C:/Users/Yushev/git/wpcqi-optiga-trust-charge/optiga/externals/mbedtls/library\oid.c **** 
 155:C:/Users/Yushev/git/wpcqi-optiga-trust-charge/optiga/externals/mbedtls/library\oid.c **** #if defined(MBEDTLS_X509_USE_C) || defined(MBEDTLS_X509_CREATE_C)
 156:C:/Users/Yushev/git/wpcqi-optiga-trust-charge/optiga/externals/mbedtls/library\oid.c **** /*
 157:C:/Users/Yushev/git/wpcqi-optiga-trust-charge/optiga/externals/mbedtls/library\oid.c ****  * For X520 attribute types
 158:C:/Users/Yushev/git/wpcqi-optiga-trust-charge/optiga/externals/mbedtls/library\oid.c ****  */
 159:C:/Users/Yushev/git/wpcqi-optiga-trust-charge/optiga/externals/mbedtls/library\oid.c **** typedef struct {
 160:C:/Users/Yushev/git/wpcqi-optiga-trust-charge/optiga/externals/mbedtls/library\oid.c ****     mbedtls_oid_descriptor_t    descriptor;
 161:C:/Users/Yushev/git/wpcqi-optiga-trust-charge/optiga/externals/mbedtls/library\oid.c ****     const char          *short_name;
 162:C:/Users/Yushev/git/wpcqi-optiga-trust-charge/optiga/externals/mbedtls/library\oid.c **** } oid_x520_attr_t;
 163:C:/Users/Yushev/git/wpcqi-optiga-trust-charge/optiga/externals/mbedtls/library\oid.c **** 
 164:C:/Users/Yushev/git/wpcqi-optiga-trust-charge/optiga/externals/mbedtls/library\oid.c **** static const oid_x520_attr_t oid_x520_attr_type[] =
 165:C:/Users/Yushev/git/wpcqi-optiga-trust-charge/optiga/externals/mbedtls/library\oid.c **** {
 166:C:/Users/Yushev/git/wpcqi-optiga-trust-charge/optiga/externals/mbedtls/library\oid.c ****     {
 167:C:/Users/Yushev/git/wpcqi-optiga-trust-charge/optiga/externals/mbedtls/library\oid.c ****         { ADD_LEN( MBEDTLS_OID_AT_CN ),          "id-at-commonName",               "Common Name" },
 168:C:/Users/Yushev/git/wpcqi-optiga-trust-charge/optiga/externals/mbedtls/library\oid.c ****         "CN",
 169:C:/Users/Yushev/git/wpcqi-optiga-trust-charge/optiga/externals/mbedtls/library\oid.c ****     },
 170:C:/Users/Yushev/git/wpcqi-optiga-trust-charge/optiga/externals/mbedtls/library\oid.c ****     {
 171:C:/Users/Yushev/git/wpcqi-optiga-trust-charge/optiga/externals/mbedtls/library\oid.c ****         { ADD_LEN( MBEDTLS_OID_AT_COUNTRY ),     "id-at-countryName",              "Country" },
 172:C:/Users/Yushev/git/wpcqi-optiga-trust-charge/optiga/externals/mbedtls/library\oid.c ****         "C",
 173:C:/Users/Yushev/git/wpcqi-optiga-trust-charge/optiga/externals/mbedtls/library\oid.c ****     },
 174:C:/Users/Yushev/git/wpcqi-optiga-trust-charge/optiga/externals/mbedtls/library\oid.c ****     {
 175:C:/Users/Yushev/git/wpcqi-optiga-trust-charge/optiga/externals/mbedtls/library\oid.c ****         { ADD_LEN( MBEDTLS_OID_AT_LOCALITY ),    "id-at-locality",                 "Locality" },
 176:C:/Users/Yushev/git/wpcqi-optiga-trust-charge/optiga/externals/mbedtls/library\oid.c ****         "L",
 177:C:/Users/Yushev/git/wpcqi-optiga-trust-charge/optiga/externals/mbedtls/library\oid.c ****     },
 178:C:/Users/Yushev/git/wpcqi-optiga-trust-charge/optiga/externals/mbedtls/library\oid.c ****     {
 179:C:/Users/Yushev/git/wpcqi-optiga-trust-charge/optiga/externals/mbedtls/library\oid.c ****         { ADD_LEN( MBEDTLS_OID_AT_STATE ),       "id-at-state",                    "State" },
 180:C:/Users/Yushev/git/wpcqi-optiga-trust-charge/optiga/externals/mbedtls/library\oid.c ****         "ST",
 181:C:/Users/Yushev/git/wpcqi-optiga-trust-charge/optiga/externals/mbedtls/library\oid.c ****     },
 182:C:/Users/Yushev/git/wpcqi-optiga-trust-charge/optiga/externals/mbedtls/library\oid.c ****     {
 183:C:/Users/Yushev/git/wpcqi-optiga-trust-charge/optiga/externals/mbedtls/library\oid.c ****         { ADD_LEN( MBEDTLS_OID_AT_ORGANIZATION ),"id-at-organizationName",         "Organization" }
 184:C:/Users/Yushev/git/wpcqi-optiga-trust-charge/optiga/externals/mbedtls/library\oid.c ****         "O",
 185:C:/Users/Yushev/git/wpcqi-optiga-trust-charge/optiga/externals/mbedtls/library\oid.c ****     },
 186:C:/Users/Yushev/git/wpcqi-optiga-trust-charge/optiga/externals/mbedtls/library\oid.c ****     {
 187:C:/Users/Yushev/git/wpcqi-optiga-trust-charge/optiga/externals/mbedtls/library\oid.c ****         { ADD_LEN( MBEDTLS_OID_AT_ORG_UNIT ),    "id-at-organizationalUnitName",   "Org Unit" },
 188:C:/Users/Yushev/git/wpcqi-optiga-trust-charge/optiga/externals/mbedtls/library\oid.c ****         "OU",
 189:C:/Users/Yushev/git/wpcqi-optiga-trust-charge/optiga/externals/mbedtls/library\oid.c ****     },
 190:C:/Users/Yushev/git/wpcqi-optiga-trust-charge/optiga/externals/mbedtls/library\oid.c ****     {
 191:C:/Users/Yushev/git/wpcqi-optiga-trust-charge/optiga/externals/mbedtls/library\oid.c ****         { ADD_LEN( MBEDTLS_OID_PKCS9_EMAIL ),    "emailAddress",                   "E-mail address"
 192:C:/Users/Yushev/git/wpcqi-optiga-trust-charge/optiga/externals/mbedtls/library\oid.c ****         "emailAddress",
 193:C:/Users/Yushev/git/wpcqi-optiga-trust-charge/optiga/externals/mbedtls/library\oid.c ****     },
 194:C:/Users/Yushev/git/wpcqi-optiga-trust-charge/optiga/externals/mbedtls/library\oid.c ****     {
 195:C:/Users/Yushev/git/wpcqi-optiga-trust-charge/optiga/externals/mbedtls/library\oid.c ****         { ADD_LEN( MBEDTLS_OID_AT_SERIAL_NUMBER ),"id-at-serialNumber",            "Serial number" 
 196:C:/Users/Yushev/git/wpcqi-optiga-trust-charge/optiga/externals/mbedtls/library\oid.c ****         "serialNumber",
 197:C:/Users/Yushev/git/wpcqi-optiga-trust-charge/optiga/externals/mbedtls/library\oid.c ****     },
 198:C:/Users/Yushev/git/wpcqi-optiga-trust-charge/optiga/externals/mbedtls/library\oid.c ****     {
 199:C:/Users/Yushev/git/wpcqi-optiga-trust-charge/optiga/externals/mbedtls/library\oid.c ****         { ADD_LEN( MBEDTLS_OID_AT_POSTAL_ADDRESS ),"id-at-postalAddress",          "Postal address"
 200:C:/Users/Yushev/git/wpcqi-optiga-trust-charge/optiga/externals/mbedtls/library\oid.c ****         "postalAddress",
 201:C:/Users/Yushev/git/wpcqi-optiga-trust-charge/optiga/externals/mbedtls/library\oid.c ****     },
 202:C:/Users/Yushev/git/wpcqi-optiga-trust-charge/optiga/externals/mbedtls/library\oid.c ****     {
 203:C:/Users/Yushev/git/wpcqi-optiga-trust-charge/optiga/externals/mbedtls/library\oid.c ****         { ADD_LEN( MBEDTLS_OID_AT_POSTAL_CODE ), "id-at-postalCode",               "Postal code" },
 204:C:/Users/Yushev/git/wpcqi-optiga-trust-charge/optiga/externals/mbedtls/library\oid.c ****         "postalCode",
 205:C:/Users/Yushev/git/wpcqi-optiga-trust-charge/optiga/externals/mbedtls/library\oid.c ****     },
 206:C:/Users/Yushev/git/wpcqi-optiga-trust-charge/optiga/externals/mbedtls/library\oid.c ****     {
 207:C:/Users/Yushev/git/wpcqi-optiga-trust-charge/optiga/externals/mbedtls/library\oid.c ****         { ADD_LEN( MBEDTLS_OID_AT_SUR_NAME ),    "id-at-surName",                  "Surname" },
 208:C:/Users/Yushev/git/wpcqi-optiga-trust-charge/optiga/externals/mbedtls/library\oid.c ****         "SN",
 209:C:/Users/Yushev/git/wpcqi-optiga-trust-charge/optiga/externals/mbedtls/library\oid.c ****     },
 210:C:/Users/Yushev/git/wpcqi-optiga-trust-charge/optiga/externals/mbedtls/library\oid.c ****     {
 211:C:/Users/Yushev/git/wpcqi-optiga-trust-charge/optiga/externals/mbedtls/library\oid.c ****         { ADD_LEN( MBEDTLS_OID_AT_GIVEN_NAME ),  "id-at-givenName",                "Given name" },
 212:C:/Users/Yushev/git/wpcqi-optiga-trust-charge/optiga/externals/mbedtls/library\oid.c ****         "GN",
 213:C:/Users/Yushev/git/wpcqi-optiga-trust-charge/optiga/externals/mbedtls/library\oid.c ****     },
 214:C:/Users/Yushev/git/wpcqi-optiga-trust-charge/optiga/externals/mbedtls/library\oid.c ****     {
 215:C:/Users/Yushev/git/wpcqi-optiga-trust-charge/optiga/externals/mbedtls/library\oid.c ****         { ADD_LEN( MBEDTLS_OID_AT_INITIALS ),    "id-at-initials",                 "Initials" },
 216:C:/Users/Yushev/git/wpcqi-optiga-trust-charge/optiga/externals/mbedtls/library\oid.c ****         "initials",
 217:C:/Users/Yushev/git/wpcqi-optiga-trust-charge/optiga/externals/mbedtls/library\oid.c ****     },
 218:C:/Users/Yushev/git/wpcqi-optiga-trust-charge/optiga/externals/mbedtls/library\oid.c ****     {
 219:C:/Users/Yushev/git/wpcqi-optiga-trust-charge/optiga/externals/mbedtls/library\oid.c ****         { ADD_LEN( MBEDTLS_OID_AT_GENERATION_QUALIFIER ), "id-at-generationQualifier", "Generation 
 220:C:/Users/Yushev/git/wpcqi-optiga-trust-charge/optiga/externals/mbedtls/library\oid.c ****         "generationQualifier",
 221:C:/Users/Yushev/git/wpcqi-optiga-trust-charge/optiga/externals/mbedtls/library\oid.c ****     },
 222:C:/Users/Yushev/git/wpcqi-optiga-trust-charge/optiga/externals/mbedtls/library\oid.c ****     {
 223:C:/Users/Yushev/git/wpcqi-optiga-trust-charge/optiga/externals/mbedtls/library\oid.c ****         { ADD_LEN( MBEDTLS_OID_AT_TITLE ),       "id-at-title",                    "Title" },
 224:C:/Users/Yushev/git/wpcqi-optiga-trust-charge/optiga/externals/mbedtls/library\oid.c ****         "title",
 225:C:/Users/Yushev/git/wpcqi-optiga-trust-charge/optiga/externals/mbedtls/library\oid.c ****     },
 226:C:/Users/Yushev/git/wpcqi-optiga-trust-charge/optiga/externals/mbedtls/library\oid.c ****     {
 227:C:/Users/Yushev/git/wpcqi-optiga-trust-charge/optiga/externals/mbedtls/library\oid.c ****         { ADD_LEN( MBEDTLS_OID_AT_DN_QUALIFIER ),"id-at-dnQualifier",              "Distinguished N
 228:C:/Users/Yushev/git/wpcqi-optiga-trust-charge/optiga/externals/mbedtls/library\oid.c ****         "dnQualifier",
 229:C:/Users/Yushev/git/wpcqi-optiga-trust-charge/optiga/externals/mbedtls/library\oid.c ****     },
 230:C:/Users/Yushev/git/wpcqi-optiga-trust-charge/optiga/externals/mbedtls/library\oid.c ****     {
 231:C:/Users/Yushev/git/wpcqi-optiga-trust-charge/optiga/externals/mbedtls/library\oid.c ****         { ADD_LEN( MBEDTLS_OID_AT_PSEUDONYM ),   "id-at-pseudonym",                "Pseudonym" },
 232:C:/Users/Yushev/git/wpcqi-optiga-trust-charge/optiga/externals/mbedtls/library\oid.c ****         "pseudonym",
 233:C:/Users/Yushev/git/wpcqi-optiga-trust-charge/optiga/externals/mbedtls/library\oid.c ****     },
 234:C:/Users/Yushev/git/wpcqi-optiga-trust-charge/optiga/externals/mbedtls/library\oid.c ****     {
 235:C:/Users/Yushev/git/wpcqi-optiga-trust-charge/optiga/externals/mbedtls/library\oid.c ****         { ADD_LEN( MBEDTLS_OID_DOMAIN_COMPONENT ), "id-domainComponent",           "Domain componen
 236:C:/Users/Yushev/git/wpcqi-optiga-trust-charge/optiga/externals/mbedtls/library\oid.c ****         "DC",
 237:C:/Users/Yushev/git/wpcqi-optiga-trust-charge/optiga/externals/mbedtls/library\oid.c ****     },
 238:C:/Users/Yushev/git/wpcqi-optiga-trust-charge/optiga/externals/mbedtls/library\oid.c ****     {
 239:C:/Users/Yushev/git/wpcqi-optiga-trust-charge/optiga/externals/mbedtls/library\oid.c ****         { ADD_LEN( MBEDTLS_OID_AT_UNIQUE_IDENTIFIER ), "id-at-uniqueIdentifier",    "Unique Identif
 240:C:/Users/Yushev/git/wpcqi-optiga-trust-charge/optiga/externals/mbedtls/library\oid.c ****         "uniqueIdentifier",
 241:C:/Users/Yushev/git/wpcqi-optiga-trust-charge/optiga/externals/mbedtls/library\oid.c ****     },
 242:C:/Users/Yushev/git/wpcqi-optiga-trust-charge/optiga/externals/mbedtls/library\oid.c ****     {
 243:C:/Users/Yushev/git/wpcqi-optiga-trust-charge/optiga/externals/mbedtls/library\oid.c ****         { NULL, 0, NULL, NULL },
 244:C:/Users/Yushev/git/wpcqi-optiga-trust-charge/optiga/externals/mbedtls/library\oid.c ****         NULL,
 245:C:/Users/Yushev/git/wpcqi-optiga-trust-charge/optiga/externals/mbedtls/library\oid.c ****     }
 246:C:/Users/Yushev/git/wpcqi-optiga-trust-charge/optiga/externals/mbedtls/library\oid.c **** };
 247:C:/Users/Yushev/git/wpcqi-optiga-trust-charge/optiga/externals/mbedtls/library\oid.c **** 
 248:C:/Users/Yushev/git/wpcqi-optiga-trust-charge/optiga/externals/mbedtls/library\oid.c **** FN_OID_TYPED_FROM_ASN1(oid_x520_attr_t, x520_attr, oid_x520_attr_type)
 358              	 .loc 1 248 0
 359              	 .cfi_startproc
 360              	 
 361              	 
 362 0000 80B5     	 push {r7,lr}
 363              	.LCFI0:
 364              	 .cfi_def_cfa_offset 8
 365              	 .cfi_offset 7,-8
 366              	 .cfi_offset 14,-4
 367 0002 84B0     	 sub sp,sp,#16
 368              	.LCFI1:
 369              	 .cfi_def_cfa_offset 24
 370 0004 00AF     	 add r7,sp,#0
 371              	.LCFI2:
 372              	 .cfi_def_cfa_register 7
 373 0006 7860     	 str r0,[r7,#4]
 374              	 .loc 1 248 0
 375 0008 184B     	 ldr r3,.L8
 376 000a FB60     	 str r3,[r7,#12]
 377 000c FB68     	 ldr r3,[r7,#12]
 378 000e BB60     	 str r3,[r7,#8]
 379 0010 FB68     	 ldr r3,[r7,#12]
 380 0012 002B     	 cmp r3,#0
 381 0014 02D0     	 beq .L2
 382              	 .loc 1 248 0 is_stmt 0 discriminator 2
 383 0016 7B68     	 ldr r3,[r7,#4]
 384 0018 002B     	 cmp r3,#0
 385 001a 01D1     	 bne .L3
 386              	.L2:
 387              	 .loc 1 248 0 discriminator 3
 388 001c 0023     	 movs r3,#0
 389 001e 20E0     	 b .L4
 390              	.L3:
 391              	 .loc 1 248 0
 392 0020 1AE0     	 b .L5
 393              	.L7:
 394              	 .loc 1 248 0 discriminator 9
 395 0022 BB68     	 ldr r3,[r7,#8]
 396 0024 5A68     	 ldr r2,[r3,#4]
 397 0026 7B68     	 ldr r3,[r7,#4]
 398 0028 5B68     	 ldr r3,[r3,#4]
 399 002a 9A42     	 cmp r2,r3
 400 002c 0FD1     	 bne .L6
 401              	 .loc 1 248 0 discriminator 4
 402 002e BB68     	 ldr r3,[r7,#8]
 403 0030 1968     	 ldr r1,[r3]
 404 0032 7B68     	 ldr r3,[r7,#4]
 405 0034 9A68     	 ldr r2,[r3,#8]
 406 0036 7B68     	 ldr r3,[r7,#4]
 407 0038 5B68     	 ldr r3,[r3,#4]
 408 003a 0846     	 mov r0,r1
 409 003c 1146     	 mov r1,r2
 410 003e 1A46     	 mov r2,r3
 411 0040 FFF7FEFF 	 bl memcmp
 412 0044 0346     	 mov r3,r0
 413 0046 002B     	 cmp r3,#0
 414 0048 01D1     	 bne .L6
 415              	 .loc 1 248 0 discriminator 6
 416 004a FB68     	 ldr r3,[r7,#12]
 417 004c 09E0     	 b .L4
 418              	.L6:
 419              	 .loc 1 248 0 discriminator 7
 420 004e FB68     	 ldr r3,[r7,#12]
 421 0050 1433     	 adds r3,r3,#20
 422 0052 FB60     	 str r3,[r7,#12]
 423 0054 FB68     	 ldr r3,[r7,#12]
 424 0056 BB60     	 str r3,[r7,#8]
 425              	.L5:
 426              	 .loc 1 248 0 discriminator 8
 427 0058 BB68     	 ldr r3,[r7,#8]
 428 005a 1B68     	 ldr r3,[r3]
 429 005c 002B     	 cmp r3,#0
 430 005e E0D1     	 bne .L7
 431              	 .loc 1 248 0 discriminator 10
 432 0060 0023     	 movs r3,#0
 433              	.L4:
 434              	 .loc 1 248 0
 435 0062 1846     	 mov r0,r3
 436 0064 1037     	 adds r7,r7,#16
 437              	.LCFI3:
 438              	 .cfi_def_cfa_offset 8
 439 0066 BD46     	 mov sp,r7
 440              	.LCFI4:
 441              	 .cfi_def_cfa_register 13
 442              	 
 443 0068 80BD     	 pop {r7,pc}
 444              	.L9:
 445 006a 00BF     	 .align 2
 446              	.L8:
 447 006c 00000000 	 .word oid_x520_attr_type
 448              	 .cfi_endproc
 449              	.LFE9:
 451              	 .section .text.mbedtls_oid_get_attr_short_name,"ax",%progbits
 452              	 .align 2
 453              	 .global mbedtls_oid_get_attr_short_name
 454              	 .thumb
 455              	 .thumb_func
 457              	mbedtls_oid_get_attr_short_name:
 458              	.LFB10:
 249:C:/Users/Yushev/git/wpcqi-optiga-trust-charge/optiga/externals/mbedtls/library\oid.c **** FN_OID_GET_ATTR1(mbedtls_oid_get_attr_short_name, oid_x520_attr_t, x520_attr, const char *, short_n
 459              	 .loc 1 249 0 is_stmt 1
 460              	 .cfi_startproc
 461              	 
 462              	 
 463 0000 80B5     	 push {r7,lr}
 464              	.LCFI5:
 465              	 .cfi_def_cfa_offset 8
 466              	 .cfi_offset 7,-8
 467              	 .cfi_offset 14,-4
 468 0002 84B0     	 sub sp,sp,#16
 469              	.LCFI6:
 470              	 .cfi_def_cfa_offset 24
 471 0004 00AF     	 add r7,sp,#0
 472              	.LCFI7:
 473              	 .cfi_def_cfa_register 7
 474 0006 7860     	 str r0,[r7,#4]
 475 0008 3960     	 str r1,[r7]
 476              	 .loc 1 249 0
 477 000a 7868     	 ldr r0,[r7,#4]
 478 000c FFF7FEFF 	 bl oid_x520_attr_from_asn1
 479 0010 F860     	 str r0,[r7,#12]
 480 0012 FB68     	 ldr r3,[r7,#12]
 481 0014 002B     	 cmp r3,#0
 482 0016 02D1     	 bne .L11
 483              	 .loc 1 249 0 is_stmt 0 discriminator 1
 484 0018 6FF02D03 	 mvn r3,#45
 485 001c 04E0     	 b .L12
 486              	.L11:
 487              	 .loc 1 249 0 discriminator 2
 488 001e FB68     	 ldr r3,[r7,#12]
 489 0020 1A69     	 ldr r2,[r3,#16]
 490 0022 3B68     	 ldr r3,[r7]
 491 0024 1A60     	 str r2,[r3]
 492 0026 0023     	 movs r3,#0
 493              	.L12:
 494              	 .loc 1 249 0
 495 0028 1846     	 mov r0,r3
 496 002a 1037     	 adds r7,r7,#16
 497              	.LCFI8:
 498              	 .cfi_def_cfa_offset 8
 499 002c BD46     	 mov sp,r7
 500              	.LCFI9:
 501              	 .cfi_def_cfa_register 13
 502              	 
 503 002e 80BD     	 pop {r7,pc}
 504              	 .cfi_endproc
 505              	.LFE10:
 507              	 .section .rodata
 508 0381 000000   	 .align 2
 509              	.LC75:
 510 0384 551D1300 	 .ascii "U\035\023\000"
 511              	 .align 2
 512              	.LC76:
 513 0388 69642D63 	 .ascii "id-ce-basicConstraints\000"
 513      652D6261 
 513      73696343 
 513      6F6E7374 
 513      7261696E 
 514 039f 00       	 .align 2
 515              	.LC77:
 516 03a0 42617369 	 .ascii "Basic Constraints\000"
 516      6320436F 
 516      6E737472 
 516      61696E74 
 516      7300
 517 03b2 0000     	 .align 2
 518              	.LC78:
 519 03b4 551D0F00 	 .ascii "U\035\017\000"
 520              	 .align 2
 521              	.LC79:
 522 03b8 69642D63 	 .ascii "id-ce-keyUsage\000"
 522      652D6B65 
 522      79557361 
 522      676500
 523 03c7 00       	 .align 2
 524              	.LC80:
 525 03c8 4B657920 	 .ascii "Key Usage\000"
 525      55736167 
 525      6500
 526 03d2 0000     	 .align 2
 527              	.LC81:
 528 03d4 551D2500 	 .ascii "U\035%\000"
 529              	 .align 2
 530              	.LC82:
 531 03d8 69642D63 	 .ascii "id-ce-extKeyUsage\000"
 531      652D6578 
 531      744B6579 
 531      55736167 
 531      6500
 532 03ea 0000     	 .align 2
 533              	.LC83:
 534 03ec 45787465 	 .ascii "Extended Key Usage\000"
 534      6E646564 
 534      204B6579 
 534      20557361 
 534      676500
 535 03ff 00       	 .align 2
 536              	.LC84:
 537 0400 551D1100 	 .ascii "U\035\021\000"
 538              	 .align 2
 539              	.LC85:
 540 0404 69642D63 	 .ascii "id-ce-subjectAltName\000"
 540      652D7375 
 540      626A6563 
 540      74416C74 
 540      4E616D65 
 541 0419 000000   	 .align 2
 542              	.LC86:
 543 041c 5375626A 	 .ascii "Subject Alt Name\000"
 543      65637420 
 543      416C7420 
 543      4E616D65 
 543      00
 544 042d 000000   	 .align 2
 545              	.LC87:
 546 0430 60864801 	 .ascii "`\206H\001\206\370B\001\001\000"
 546      86F84201 
 546      0100
 547 043a 0000     	 .align 2
 548              	.LC88:
 549 043c 69642D6E 	 .ascii "id-netscape-certtype\000"
 549      65747363 
 549      6170652D 
 549      63657274 
 549      74797065 
 550 0451 000000   	 .align 2
 551              	.LC89:
 552 0454 4E657473 	 .ascii "Netscape Certificate Type\000"
 552      63617065 
 552      20436572 
 552      74696669 
 552      63617465 
 553              	 .section .rodata.oid_x509_ext,"a",%progbits
 554              	 .align 2
 557              	oid_x509_ext:
 558 0000 84030000 	 .word .LC75
 559 0004 03000000 	 .word 3
 560 0008 88030000 	 .word .LC76
 561 000c A0030000 	 .word .LC77
 562 0010 00010000 	 .word 256
 563 0014 B4030000 	 .word .LC78
 564 0018 03000000 	 .word 3
 565 001c B8030000 	 .word .LC79
 566 0020 C8030000 	 .word .LC80
 567 0024 04000000 	 .word 4
 568 0028 D4030000 	 .word .LC81
 569 002c 03000000 	 .word 3
 570 0030 D8030000 	 .word .LC82
 571 0034 EC030000 	 .word .LC83
 572 0038 00080000 	 .word 2048
 573 003c 00040000 	 .word .LC84
 574 0040 03000000 	 .word 3
 575 0044 04040000 	 .word .LC85
 576 0048 1C040000 	 .word .LC86
 577 004c 20000000 	 .word 32
 578 0050 30040000 	 .word .LC87
 579 0054 09000000 	 .word 9
 580 0058 3C040000 	 .word .LC88
 581 005c 54040000 	 .word .LC89
 582 0060 00000100 	 .word 65536
 583 0064 00000000 	 .word 0
 584 0068 00000000 	 .word 0
 585 006c 00000000 	 .word 0
 586 0070 00000000 	 .word 0
 587 0074 00000000 	 .word 0
 588              	 .section .text.oid_x509_ext_from_asn1,"ax",%progbits
 589              	 .align 2
 590              	 .thumb
 591              	 .thumb_func
 593              	oid_x509_ext_from_asn1:
 594              	.LFB11:
 250:C:/Users/Yushev/git/wpcqi-optiga-trust-charge/optiga/externals/mbedtls/library\oid.c **** 
 251:C:/Users/Yushev/git/wpcqi-optiga-trust-charge/optiga/externals/mbedtls/library\oid.c **** /*
 252:C:/Users/Yushev/git/wpcqi-optiga-trust-charge/optiga/externals/mbedtls/library\oid.c ****  * For X509 extensions
 253:C:/Users/Yushev/git/wpcqi-optiga-trust-charge/optiga/externals/mbedtls/library\oid.c ****  */
 254:C:/Users/Yushev/git/wpcqi-optiga-trust-charge/optiga/externals/mbedtls/library\oid.c **** typedef struct {
 255:C:/Users/Yushev/git/wpcqi-optiga-trust-charge/optiga/externals/mbedtls/library\oid.c ****     mbedtls_oid_descriptor_t    descriptor;
 256:C:/Users/Yushev/git/wpcqi-optiga-trust-charge/optiga/externals/mbedtls/library\oid.c ****     int                 ext_type;
 257:C:/Users/Yushev/git/wpcqi-optiga-trust-charge/optiga/externals/mbedtls/library\oid.c **** } oid_x509_ext_t;
 258:C:/Users/Yushev/git/wpcqi-optiga-trust-charge/optiga/externals/mbedtls/library\oid.c **** 
 259:C:/Users/Yushev/git/wpcqi-optiga-trust-charge/optiga/externals/mbedtls/library\oid.c **** static const oid_x509_ext_t oid_x509_ext[] =
 260:C:/Users/Yushev/git/wpcqi-optiga-trust-charge/optiga/externals/mbedtls/library\oid.c **** {
 261:C:/Users/Yushev/git/wpcqi-optiga-trust-charge/optiga/externals/mbedtls/library\oid.c ****     {
 262:C:/Users/Yushev/git/wpcqi-optiga-trust-charge/optiga/externals/mbedtls/library\oid.c ****         { ADD_LEN( MBEDTLS_OID_BASIC_CONSTRAINTS ),    "id-ce-basicConstraints",   "Basic Constrain
 263:C:/Users/Yushev/git/wpcqi-optiga-trust-charge/optiga/externals/mbedtls/library\oid.c ****         MBEDTLS_X509_EXT_BASIC_CONSTRAINTS,
 264:C:/Users/Yushev/git/wpcqi-optiga-trust-charge/optiga/externals/mbedtls/library\oid.c ****     },
 265:C:/Users/Yushev/git/wpcqi-optiga-trust-charge/optiga/externals/mbedtls/library\oid.c ****     {
 266:C:/Users/Yushev/git/wpcqi-optiga-trust-charge/optiga/externals/mbedtls/library\oid.c ****         { ADD_LEN( MBEDTLS_OID_KEY_USAGE ),            "id-ce-keyUsage",           "Key Usage" },
 267:C:/Users/Yushev/git/wpcqi-optiga-trust-charge/optiga/externals/mbedtls/library\oid.c ****         MBEDTLS_X509_EXT_KEY_USAGE,
 268:C:/Users/Yushev/git/wpcqi-optiga-trust-charge/optiga/externals/mbedtls/library\oid.c ****     },
 269:C:/Users/Yushev/git/wpcqi-optiga-trust-charge/optiga/externals/mbedtls/library\oid.c ****     {
 270:C:/Users/Yushev/git/wpcqi-optiga-trust-charge/optiga/externals/mbedtls/library\oid.c ****         { ADD_LEN( MBEDTLS_OID_EXTENDED_KEY_USAGE ),   "id-ce-extKeyUsage",        "Extended Key Us
 271:C:/Users/Yushev/git/wpcqi-optiga-trust-charge/optiga/externals/mbedtls/library\oid.c ****         MBEDTLS_X509_EXT_EXTENDED_KEY_USAGE,
 272:C:/Users/Yushev/git/wpcqi-optiga-trust-charge/optiga/externals/mbedtls/library\oid.c ****     },
 273:C:/Users/Yushev/git/wpcqi-optiga-trust-charge/optiga/externals/mbedtls/library\oid.c ****     {
 274:C:/Users/Yushev/git/wpcqi-optiga-trust-charge/optiga/externals/mbedtls/library\oid.c ****         { ADD_LEN( MBEDTLS_OID_SUBJECT_ALT_NAME ),     "id-ce-subjectAltName",     "Subject Alt Nam
 275:C:/Users/Yushev/git/wpcqi-optiga-trust-charge/optiga/externals/mbedtls/library\oid.c ****         MBEDTLS_X509_EXT_SUBJECT_ALT_NAME,
 276:C:/Users/Yushev/git/wpcqi-optiga-trust-charge/optiga/externals/mbedtls/library\oid.c ****     },
 277:C:/Users/Yushev/git/wpcqi-optiga-trust-charge/optiga/externals/mbedtls/library\oid.c ****     {
 278:C:/Users/Yushev/git/wpcqi-optiga-trust-charge/optiga/externals/mbedtls/library\oid.c ****         { ADD_LEN( MBEDTLS_OID_NS_CERT_TYPE ),         "id-netscape-certtype",     "Netscape Certif
 279:C:/Users/Yushev/git/wpcqi-optiga-trust-charge/optiga/externals/mbedtls/library\oid.c ****         MBEDTLS_X509_EXT_NS_CERT_TYPE,
 280:C:/Users/Yushev/git/wpcqi-optiga-trust-charge/optiga/externals/mbedtls/library\oid.c ****     },
 281:C:/Users/Yushev/git/wpcqi-optiga-trust-charge/optiga/externals/mbedtls/library\oid.c ****     {
 282:C:/Users/Yushev/git/wpcqi-optiga-trust-charge/optiga/externals/mbedtls/library\oid.c ****         { NULL, 0, NULL, NULL },
 283:C:/Users/Yushev/git/wpcqi-optiga-trust-charge/optiga/externals/mbedtls/library\oid.c ****         0,
 284:C:/Users/Yushev/git/wpcqi-optiga-trust-charge/optiga/externals/mbedtls/library\oid.c ****     },
 285:C:/Users/Yushev/git/wpcqi-optiga-trust-charge/optiga/externals/mbedtls/library\oid.c **** };
 286:C:/Users/Yushev/git/wpcqi-optiga-trust-charge/optiga/externals/mbedtls/library\oid.c **** 
 287:C:/Users/Yushev/git/wpcqi-optiga-trust-charge/optiga/externals/mbedtls/library\oid.c **** FN_OID_TYPED_FROM_ASN1(oid_x509_ext_t, x509_ext, oid_x509_ext)
 595              	 .loc 1 287 0 is_stmt 1
 596              	 .cfi_startproc
 597              	 
 598              	 
 599 0000 80B5     	 push {r7,lr}
 600              	.LCFI10:
 601              	 .cfi_def_cfa_offset 8
 602              	 .cfi_offset 7,-8
 603              	 .cfi_offset 14,-4
 604 0002 84B0     	 sub sp,sp,#16
 605              	.LCFI11:
 606              	 .cfi_def_cfa_offset 24
 607 0004 00AF     	 add r7,sp,#0
 608              	.LCFI12:
 609              	 .cfi_def_cfa_register 7
 610 0006 7860     	 str r0,[r7,#4]
 611              	 .loc 1 287 0
 612 0008 184B     	 ldr r3,.L20
 613 000a FB60     	 str r3,[r7,#12]
 614 000c FB68     	 ldr r3,[r7,#12]
 615 000e BB60     	 str r3,[r7,#8]
 616 0010 FB68     	 ldr r3,[r7,#12]
 617 0012 002B     	 cmp r3,#0
 618 0014 02D0     	 beq .L14
 619              	 .loc 1 287 0 is_stmt 0 discriminator 2
 620 0016 7B68     	 ldr r3,[r7,#4]
 621 0018 002B     	 cmp r3,#0
 622 001a 01D1     	 bne .L15
 623              	.L14:
 624              	 .loc 1 287 0 discriminator 3
 625 001c 0023     	 movs r3,#0
 626 001e 20E0     	 b .L16
 627              	.L15:
 628              	 .loc 1 287 0
 629 0020 1AE0     	 b .L17
 630              	.L19:
 631              	 .loc 1 287 0 discriminator 9
 632 0022 BB68     	 ldr r3,[r7,#8]
 633 0024 5A68     	 ldr r2,[r3,#4]
 634 0026 7B68     	 ldr r3,[r7,#4]
 635 0028 5B68     	 ldr r3,[r3,#4]
 636 002a 9A42     	 cmp r2,r3
 637 002c 0FD1     	 bne .L18
 638              	 .loc 1 287 0 discriminator 4
 639 002e BB68     	 ldr r3,[r7,#8]
 640 0030 1968     	 ldr r1,[r3]
 641 0032 7B68     	 ldr r3,[r7,#4]
 642 0034 9A68     	 ldr r2,[r3,#8]
 643 0036 7B68     	 ldr r3,[r7,#4]
 644 0038 5B68     	 ldr r3,[r3,#4]
 645 003a 0846     	 mov r0,r1
 646 003c 1146     	 mov r1,r2
 647 003e 1A46     	 mov r2,r3
 648 0040 FFF7FEFF 	 bl memcmp
 649 0044 0346     	 mov r3,r0
 650 0046 002B     	 cmp r3,#0
 651 0048 01D1     	 bne .L18
 652              	 .loc 1 287 0 discriminator 6
 653 004a FB68     	 ldr r3,[r7,#12]
 654 004c 09E0     	 b .L16
 655              	.L18:
 656              	 .loc 1 287 0 discriminator 7
 657 004e FB68     	 ldr r3,[r7,#12]
 658 0050 1433     	 adds r3,r3,#20
 659 0052 FB60     	 str r3,[r7,#12]
 660 0054 FB68     	 ldr r3,[r7,#12]
 661 0056 BB60     	 str r3,[r7,#8]
 662              	.L17:
 663              	 .loc 1 287 0 discriminator 8
 664 0058 BB68     	 ldr r3,[r7,#8]
 665 005a 1B68     	 ldr r3,[r3]
 666 005c 002B     	 cmp r3,#0
 667 005e E0D1     	 bne .L19
 668              	 .loc 1 287 0 discriminator 10
 669 0060 0023     	 movs r3,#0
 670              	.L16:
 671              	 .loc 1 287 0
 672 0062 1846     	 mov r0,r3
 673 0064 1037     	 adds r7,r7,#16
 674              	.LCFI13:
 675              	 .cfi_def_cfa_offset 8
 676 0066 BD46     	 mov sp,r7
 677              	.LCFI14:
 678              	 .cfi_def_cfa_register 13
 679              	 
 680 0068 80BD     	 pop {r7,pc}
 681              	.L21:
 682 006a 00BF     	 .align 2
 683              	.L20:
 684 006c 00000000 	 .word oid_x509_ext
 685              	 .cfi_endproc
 686              	.LFE11:
 688              	 .section .text.mbedtls_oid_get_x509_ext_type,"ax",%progbits
 689              	 .align 2
 690              	 .global mbedtls_oid_get_x509_ext_type
 691              	 .thumb
 692              	 .thumb_func
 694              	mbedtls_oid_get_x509_ext_type:
 695              	.LFB12:
 288:C:/Users/Yushev/git/wpcqi-optiga-trust-charge/optiga/externals/mbedtls/library\oid.c **** FN_OID_GET_ATTR1(mbedtls_oid_get_x509_ext_type, oid_x509_ext_t, x509_ext, int, ext_type)
 696              	 .loc 1 288 0 is_stmt 1
 697              	 .cfi_startproc
 698              	 
 699              	 
 700 0000 80B5     	 push {r7,lr}
 701              	.LCFI15:
 702              	 .cfi_def_cfa_offset 8
 703              	 .cfi_offset 7,-8
 704              	 .cfi_offset 14,-4
 705 0002 84B0     	 sub sp,sp,#16
 706              	.LCFI16:
 707              	 .cfi_def_cfa_offset 24
 708 0004 00AF     	 add r7,sp,#0
 709              	.LCFI17:
 710              	 .cfi_def_cfa_register 7
 711 0006 7860     	 str r0,[r7,#4]
 712 0008 3960     	 str r1,[r7]
 713              	 .loc 1 288 0
 714 000a 7868     	 ldr r0,[r7,#4]
 715 000c FFF7FEFF 	 bl oid_x509_ext_from_asn1
 716 0010 F860     	 str r0,[r7,#12]
 717 0012 FB68     	 ldr r3,[r7,#12]
 718 0014 002B     	 cmp r3,#0
 719 0016 02D1     	 bne .L23
 720              	 .loc 1 288 0 is_stmt 0 discriminator 1
 721 0018 6FF02D03 	 mvn r3,#45
 722 001c 04E0     	 b .L24
 723              	.L23:
 724              	 .loc 1 288 0 discriminator 2
 725 001e FB68     	 ldr r3,[r7,#12]
 726 0020 1A69     	 ldr r2,[r3,#16]
 727 0022 3B68     	 ldr r3,[r7]
 728 0024 1A60     	 str r2,[r3]
 729 0026 0023     	 movs r3,#0
 730              	.L24:
 731              	 .loc 1 288 0
 732 0028 1846     	 mov r0,r3
 733 002a 1037     	 adds r7,r7,#16
 734              	.LCFI18:
 735              	 .cfi_def_cfa_offset 8
 736 002c BD46     	 mov sp,r7
 737              	.LCFI19:
 738              	 .cfi_def_cfa_register 13
 739              	 
 740 002e 80BD     	 pop {r7,pc}
 741              	 .cfi_endproc
 742              	.LFE12:
 744              	 .section .rodata
 745 046e 0000     	 .align 2
 746              	.LC90:
 747 0470 2B060105 	 .ascii "+\006\001\005\005\007\003\001\000"
 747      05070301 
 747      00
 748 0479 000000   	 .align 2
 749              	.LC91:
 750 047c 69642D6B 	 .ascii "id-kp-serverAuth\000"
 750      702D7365 
 750      72766572 
 750      41757468 
 750      00
 751 048d 000000   	 .align 2
 752              	.LC92:
 753 0490 544C5320 	 .ascii "TLS Web Server Authentication\000"
 753      57656220 
 753      53657276 
 753      65722041 
 753      75746865 
 754 04ae 0000     	 .align 2
 755              	.LC93:
 756 04b0 2B060105 	 .ascii "+\006\001\005\005\007\003\002\000"
 756      05070302 
 756      00
 757 04b9 000000   	 .align 2
 758              	.LC94:
 759 04bc 69642D6B 	 .ascii "id-kp-clientAuth\000"
 759      702D636C 
 759      69656E74 
 759      41757468 
 759      00
 760 04cd 000000   	 .align 2
 761              	.LC95:
 762 04d0 544C5320 	 .ascii "TLS Web Client Authentication\000"
 762      57656220 
 762      436C6965 
 762      6E742041 
 762      75746865 
 763 04ee 0000     	 .align 2
 764              	.LC96:
 765 04f0 2B060105 	 .ascii "+\006\001\005\005\007\003\003\000"
 765      05070303 
 765      00
 766 04f9 000000   	 .align 2
 767              	.LC97:
 768 04fc 69642D6B 	 .ascii "id-kp-codeSigning\000"
 768      702D636F 
 768      64655369 
 768      676E696E 
 768      6700
 769 050e 0000     	 .align 2
 770              	.LC98:
 771 0510 436F6465 	 .ascii "Code Signing\000"
 771      20536967 
 771      6E696E67 
 771      00
 772 051d 000000   	 .align 2
 773              	.LC99:
 774 0520 2B060105 	 .ascii "+\006\001\005\005\007\003\004\000"
 774      05070304 
 774      00
 775 0529 000000   	 .align 2
 776              	.LC100:
 777 052c 69642D6B 	 .ascii "id-kp-emailProtection\000"
 777      702D656D 
 777      61696C50 
 777      726F7465 
 777      6374696F 
 778 0542 0000     	 .align 2
 779              	.LC101:
 780 0544 452D6D61 	 .ascii "E-mail Protection\000"
 780      696C2050 
 780      726F7465 
 780      6374696F 
 780      6E00
 781 0556 0000     	 .align 2
 782              	.LC102:
 783 0558 2B060105 	 .ascii "+\006\001\005\005\007\003\010\000"
 783      05070308 
 783      00
 784 0561 000000   	 .align 2
 785              	.LC103:
 786 0564 69642D6B 	 .ascii "id-kp-timeStamping\000"
 786      702D7469 
 786      6D655374 
 786      616D7069 
 786      6E6700
 787 0577 00       	 .align 2
 788              	.LC104:
 789 0578 54696D65 	 .ascii "Time Stamping\000"
 789      20537461 
 789      6D70696E 
 789      6700
 790 0586 0000     	 .align 2
 791              	.LC105:
 792 0588 2B060105 	 .ascii "+\006\001\005\005\007\003\011\000"
 792      05070309 
 792      00
 793 0591 000000   	 .align 2
 794              	.LC106:
 795 0594 69642D6B 	 .ascii "id-kp-OCSPSigning\000"
 795      702D4F43 
 795      53505369 
 795      676E696E 
 795      6700
 796 05a6 0000     	 .align 2
 797              	.LC107:
 798 05a8 4F435350 	 .ascii "OCSP Signing\000"
 798      20536967 
 798      6E696E67 
 798      00
 799              	 .section .rodata.oid_ext_key_usage,"a",%progbits
 800              	 .align 2
 803              	oid_ext_key_usage:
 804 0000 70040000 	 .word .LC90
 805 0004 08000000 	 .word 8
 806 0008 7C040000 	 .word .LC91
 807 000c 90040000 	 .word .LC92
 808 0010 B0040000 	 .word .LC93
 809 0014 08000000 	 .word 8
 810 0018 BC040000 	 .word .LC94
 811 001c D0040000 	 .word .LC95
 812 0020 F0040000 	 .word .LC96
 813 0024 08000000 	 .word 8
 814 0028 FC040000 	 .word .LC97
 815 002c 10050000 	 .word .LC98
 816 0030 20050000 	 .word .LC99
 817 0034 08000000 	 .word 8
 818 0038 2C050000 	 .word .LC100
 819 003c 44050000 	 .word .LC101
 820 0040 58050000 	 .word .LC102
 821 0044 08000000 	 .word 8
 822 0048 64050000 	 .word .LC103
 823 004c 78050000 	 .word .LC104
 824 0050 88050000 	 .word .LC105
 825 0054 08000000 	 .word 8
 826 0058 94050000 	 .word .LC106
 827 005c A8050000 	 .word .LC107
 828 0060 00000000 	 .word 0
 829 0064 00000000 	 .word 0
 830 0068 00000000 	 .word 0
 831 006c 00000000 	 .word 0
 832              	 .section .text.oid_ext_key_usage_from_asn1,"ax",%progbits
 833              	 .align 2
 834              	 .thumb
 835              	 .thumb_func
 837              	oid_ext_key_usage_from_asn1:
 838              	.LFB13:
 289:C:/Users/Yushev/git/wpcqi-optiga-trust-charge/optiga/externals/mbedtls/library\oid.c **** 
 290:C:/Users/Yushev/git/wpcqi-optiga-trust-charge/optiga/externals/mbedtls/library\oid.c **** static const mbedtls_oid_descriptor_t oid_ext_key_usage[] =
 291:C:/Users/Yushev/git/wpcqi-optiga-trust-charge/optiga/externals/mbedtls/library\oid.c **** {
 292:C:/Users/Yushev/git/wpcqi-optiga-trust-charge/optiga/externals/mbedtls/library\oid.c ****     { ADD_LEN( MBEDTLS_OID_SERVER_AUTH ),      "id-kp-serverAuth",      "TLS Web Server Authenticat
 293:C:/Users/Yushev/git/wpcqi-optiga-trust-charge/optiga/externals/mbedtls/library\oid.c ****     { ADD_LEN( MBEDTLS_OID_CLIENT_AUTH ),      "id-kp-clientAuth",      "TLS Web Client Authenticat
 294:C:/Users/Yushev/git/wpcqi-optiga-trust-charge/optiga/externals/mbedtls/library\oid.c ****     { ADD_LEN( MBEDTLS_OID_CODE_SIGNING ),     "id-kp-codeSigning",     "Code Signing" },
 295:C:/Users/Yushev/git/wpcqi-optiga-trust-charge/optiga/externals/mbedtls/library\oid.c ****     { ADD_LEN( MBEDTLS_OID_EMAIL_PROTECTION ), "id-kp-emailProtection", "E-mail Protection" },
 296:C:/Users/Yushev/git/wpcqi-optiga-trust-charge/optiga/externals/mbedtls/library\oid.c ****     { ADD_LEN( MBEDTLS_OID_TIME_STAMPING ),    "id-kp-timeStamping",    "Time Stamping" },
 297:C:/Users/Yushev/git/wpcqi-optiga-trust-charge/optiga/externals/mbedtls/library\oid.c ****     { ADD_LEN( MBEDTLS_OID_OCSP_SIGNING ),     "id-kp-OCSPSigning",     "OCSP Signing" },
 298:C:/Users/Yushev/git/wpcqi-optiga-trust-charge/optiga/externals/mbedtls/library\oid.c ****     { NULL, 0, NULL, NULL },
 299:C:/Users/Yushev/git/wpcqi-optiga-trust-charge/optiga/externals/mbedtls/library\oid.c **** };
 300:C:/Users/Yushev/git/wpcqi-optiga-trust-charge/optiga/externals/mbedtls/library\oid.c **** 
 301:C:/Users/Yushev/git/wpcqi-optiga-trust-charge/optiga/externals/mbedtls/library\oid.c **** FN_OID_TYPED_FROM_ASN1(mbedtls_oid_descriptor_t, ext_key_usage, oid_ext_key_usage)
 839              	 .loc 1 301 0 is_stmt 1
 840              	 .cfi_startproc
 841              	 
 842              	 
 843 0000 80B5     	 push {r7,lr}
 844              	.LCFI20:
 845              	 .cfi_def_cfa_offset 8
 846              	 .cfi_offset 7,-8
 847              	 .cfi_offset 14,-4
 848 0002 84B0     	 sub sp,sp,#16
 849              	.LCFI21:
 850              	 .cfi_def_cfa_offset 24
 851 0004 00AF     	 add r7,sp,#0
 852              	.LCFI22:
 853              	 .cfi_def_cfa_register 7
 854 0006 7860     	 str r0,[r7,#4]
 855              	 .loc 1 301 0
 856 0008 184B     	 ldr r3,.L32
 857 000a FB60     	 str r3,[r7,#12]
 858 000c FB68     	 ldr r3,[r7,#12]
 859 000e BB60     	 str r3,[r7,#8]
 860 0010 FB68     	 ldr r3,[r7,#12]
 861 0012 002B     	 cmp r3,#0
 862 0014 02D0     	 beq .L26
 863              	 .loc 1 301 0 is_stmt 0 discriminator 2
 864 0016 7B68     	 ldr r3,[r7,#4]
 865 0018 002B     	 cmp r3,#0
 866 001a 01D1     	 bne .L27
 867              	.L26:
 868              	 .loc 1 301 0 discriminator 3
 869 001c 0023     	 movs r3,#0
 870 001e 20E0     	 b .L28
 871              	.L27:
 872              	 .loc 1 301 0
 873 0020 1AE0     	 b .L29
 874              	.L31:
 875              	 .loc 1 301 0 discriminator 9
 876 0022 BB68     	 ldr r3,[r7,#8]
 877 0024 5A68     	 ldr r2,[r3,#4]
 878 0026 7B68     	 ldr r3,[r7,#4]
 879 0028 5B68     	 ldr r3,[r3,#4]
 880 002a 9A42     	 cmp r2,r3
 881 002c 0FD1     	 bne .L30
 882              	 .loc 1 301 0 discriminator 4
 883 002e BB68     	 ldr r3,[r7,#8]
 884 0030 1968     	 ldr r1,[r3]
 885 0032 7B68     	 ldr r3,[r7,#4]
 886 0034 9A68     	 ldr r2,[r3,#8]
 887 0036 7B68     	 ldr r3,[r7,#4]
 888 0038 5B68     	 ldr r3,[r3,#4]
 889 003a 0846     	 mov r0,r1
 890 003c 1146     	 mov r1,r2
 891 003e 1A46     	 mov r2,r3
 892 0040 FFF7FEFF 	 bl memcmp
 893 0044 0346     	 mov r3,r0
 894 0046 002B     	 cmp r3,#0
 895 0048 01D1     	 bne .L30
 896              	 .loc 1 301 0 discriminator 6
 897 004a FB68     	 ldr r3,[r7,#12]
 898 004c 09E0     	 b .L28
 899              	.L30:
 900              	 .loc 1 301 0 discriminator 7
 901 004e FB68     	 ldr r3,[r7,#12]
 902 0050 1033     	 adds r3,r3,#16
 903 0052 FB60     	 str r3,[r7,#12]
 904 0054 FB68     	 ldr r3,[r7,#12]
 905 0056 BB60     	 str r3,[r7,#8]
 906              	.L29:
 907              	 .loc 1 301 0 discriminator 8
 908 0058 BB68     	 ldr r3,[r7,#8]
 909 005a 1B68     	 ldr r3,[r3]
 910 005c 002B     	 cmp r3,#0
 911 005e E0D1     	 bne .L31
 912              	 .loc 1 301 0 discriminator 10
 913 0060 0023     	 movs r3,#0
 914              	.L28:
 915              	 .loc 1 301 0
 916 0062 1846     	 mov r0,r3
 917 0064 1037     	 adds r7,r7,#16
 918              	.LCFI23:
 919              	 .cfi_def_cfa_offset 8
 920 0066 BD46     	 mov sp,r7
 921              	.LCFI24:
 922              	 .cfi_def_cfa_register 13
 923              	 
 924 0068 80BD     	 pop {r7,pc}
 925              	.L33:
 926 006a 00BF     	 .align 2
 927              	.L32:
 928 006c 00000000 	 .word oid_ext_key_usage
 929              	 .cfi_endproc
 930              	.LFE13:
 932              	 .section .text.mbedtls_oid_get_extended_key_usage,"ax",%progbits
 933              	 .align 2
 934              	 .global mbedtls_oid_get_extended_key_usage
 935              	 .thumb
 936              	 .thumb_func
 938              	mbedtls_oid_get_extended_key_usage:
 939              	.LFB14:
 302:C:/Users/Yushev/git/wpcqi-optiga-trust-charge/optiga/externals/mbedtls/library\oid.c **** FN_OID_GET_ATTR1(mbedtls_oid_get_extended_key_usage, mbedtls_oid_descriptor_t, ext_key_usage, const
 940              	 .loc 1 302 0 is_stmt 1
 941              	 .cfi_startproc
 942              	 
 943              	 
 944 0000 80B5     	 push {r7,lr}
 945              	.LCFI25:
 946              	 .cfi_def_cfa_offset 8
 947              	 .cfi_offset 7,-8
 948              	 .cfi_offset 14,-4
 949 0002 84B0     	 sub sp,sp,#16
 950              	.LCFI26:
 951              	 .cfi_def_cfa_offset 24
 952 0004 00AF     	 add r7,sp,#0
 953              	.LCFI27:
 954              	 .cfi_def_cfa_register 7
 955 0006 7860     	 str r0,[r7,#4]
 956 0008 3960     	 str r1,[r7]
 957              	 .loc 1 302 0
 958 000a 7868     	 ldr r0,[r7,#4]
 959 000c FFF7FEFF 	 bl oid_ext_key_usage_from_asn1
 960 0010 F860     	 str r0,[r7,#12]
 961 0012 FB68     	 ldr r3,[r7,#12]
 962 0014 002B     	 cmp r3,#0
 963 0016 02D1     	 bne .L35
 964              	 .loc 1 302 0 is_stmt 0 discriminator 1
 965 0018 6FF02D03 	 mvn r3,#45
 966 001c 04E0     	 b .L36
 967              	.L35:
 968              	 .loc 1 302 0 discriminator 2
 969 001e FB68     	 ldr r3,[r7,#12]
 970 0020 DA68     	 ldr r2,[r3,#12]
 971 0022 3B68     	 ldr r3,[r7]
 972 0024 1A60     	 str r2,[r3]
 973 0026 0023     	 movs r3,#0
 974              	.L36:
 975              	 .loc 1 302 0
 976 0028 1846     	 mov r0,r3
 977 002a 1037     	 adds r7,r7,#16
 978              	.LCFI28:
 979              	 .cfi_def_cfa_offset 8
 980 002c BD46     	 mov sp,r7
 981              	.LCFI29:
 982              	 .cfi_def_cfa_register 13
 983              	 
 984 002e 80BD     	 pop {r7,pc}
 985              	 .cfi_endproc
 986              	.LFE14:
 988              	 .section .rodata.oid_sig_alg,"a",%progbits
 989              	 .align 2
 992              	oid_sig_alg:
 993 0000 00000000 	 .space 20
 993      00000000 
 993      00000000 
 993      00000000 
 993      00000000 
 994              	 .section .text.oid_sig_alg_from_asn1,"ax",%progbits
 995              	 .align 2
 996              	 .thumb
 997              	 .thumb_func
 999              	oid_sig_alg_from_asn1:
 1000              	.LFB15:
 303:C:/Users/Yushev/git/wpcqi-optiga-trust-charge/optiga/externals/mbedtls/library\oid.c **** #endif /* MBEDTLS_X509_USE_C || MBEDTLS_X509_CREATE_C */
 304:C:/Users/Yushev/git/wpcqi-optiga-trust-charge/optiga/externals/mbedtls/library\oid.c **** 
 305:C:/Users/Yushev/git/wpcqi-optiga-trust-charge/optiga/externals/mbedtls/library\oid.c **** #if defined(MBEDTLS_MD_C)
 306:C:/Users/Yushev/git/wpcqi-optiga-trust-charge/optiga/externals/mbedtls/library\oid.c **** /*
 307:C:/Users/Yushev/git/wpcqi-optiga-trust-charge/optiga/externals/mbedtls/library\oid.c ****  * For SignatureAlgorithmIdentifier
 308:C:/Users/Yushev/git/wpcqi-optiga-trust-charge/optiga/externals/mbedtls/library\oid.c ****  */
 309:C:/Users/Yushev/git/wpcqi-optiga-trust-charge/optiga/externals/mbedtls/library\oid.c **** typedef struct {
 310:C:/Users/Yushev/git/wpcqi-optiga-trust-charge/optiga/externals/mbedtls/library\oid.c ****     mbedtls_oid_descriptor_t    descriptor;
 311:C:/Users/Yushev/git/wpcqi-optiga-trust-charge/optiga/externals/mbedtls/library\oid.c ****     mbedtls_md_type_t           md_alg;
 312:C:/Users/Yushev/git/wpcqi-optiga-trust-charge/optiga/externals/mbedtls/library\oid.c ****     mbedtls_pk_type_t           pk_alg;
 313:C:/Users/Yushev/git/wpcqi-optiga-trust-charge/optiga/externals/mbedtls/library\oid.c **** } oid_sig_alg_t;
 314:C:/Users/Yushev/git/wpcqi-optiga-trust-charge/optiga/externals/mbedtls/library\oid.c **** 
 315:C:/Users/Yushev/git/wpcqi-optiga-trust-charge/optiga/externals/mbedtls/library\oid.c **** static const oid_sig_alg_t oid_sig_alg[] =
 316:C:/Users/Yushev/git/wpcqi-optiga-trust-charge/optiga/externals/mbedtls/library\oid.c **** {
 317:C:/Users/Yushev/git/wpcqi-optiga-trust-charge/optiga/externals/mbedtls/library\oid.c **** #if defined(MBEDTLS_RSA_C)
 318:C:/Users/Yushev/git/wpcqi-optiga-trust-charge/optiga/externals/mbedtls/library\oid.c **** #if defined(MBEDTLS_MD2_C)
 319:C:/Users/Yushev/git/wpcqi-optiga-trust-charge/optiga/externals/mbedtls/library\oid.c ****     {
 320:C:/Users/Yushev/git/wpcqi-optiga-trust-charge/optiga/externals/mbedtls/library\oid.c ****         { ADD_LEN( MBEDTLS_OID_PKCS1_MD2 ),        "md2WithRSAEncryption",     "RSA with MD2" },
 321:C:/Users/Yushev/git/wpcqi-optiga-trust-charge/optiga/externals/mbedtls/library\oid.c ****         MBEDTLS_MD_MD2,      MBEDTLS_PK_RSA,
 322:C:/Users/Yushev/git/wpcqi-optiga-trust-charge/optiga/externals/mbedtls/library\oid.c ****     },
 323:C:/Users/Yushev/git/wpcqi-optiga-trust-charge/optiga/externals/mbedtls/library\oid.c **** #endif /* MBEDTLS_MD2_C */
 324:C:/Users/Yushev/git/wpcqi-optiga-trust-charge/optiga/externals/mbedtls/library\oid.c **** #if defined(MBEDTLS_MD4_C)
 325:C:/Users/Yushev/git/wpcqi-optiga-trust-charge/optiga/externals/mbedtls/library\oid.c ****     {
 326:C:/Users/Yushev/git/wpcqi-optiga-trust-charge/optiga/externals/mbedtls/library\oid.c ****         { ADD_LEN( MBEDTLS_OID_PKCS1_MD4 ),        "md4WithRSAEncryption",     "RSA with MD4" },
 327:C:/Users/Yushev/git/wpcqi-optiga-trust-charge/optiga/externals/mbedtls/library\oid.c ****         MBEDTLS_MD_MD4,      MBEDTLS_PK_RSA,
 328:C:/Users/Yushev/git/wpcqi-optiga-trust-charge/optiga/externals/mbedtls/library\oid.c ****     },
 329:C:/Users/Yushev/git/wpcqi-optiga-trust-charge/optiga/externals/mbedtls/library\oid.c **** #endif /* MBEDTLS_MD4_C */
 330:C:/Users/Yushev/git/wpcqi-optiga-trust-charge/optiga/externals/mbedtls/library\oid.c **** #if defined(MBEDTLS_MD5_C)
 331:C:/Users/Yushev/git/wpcqi-optiga-trust-charge/optiga/externals/mbedtls/library\oid.c ****     {
 332:C:/Users/Yushev/git/wpcqi-optiga-trust-charge/optiga/externals/mbedtls/library\oid.c ****         { ADD_LEN( MBEDTLS_OID_PKCS1_MD5 ),        "md5WithRSAEncryption",     "RSA with MD5" },
 333:C:/Users/Yushev/git/wpcqi-optiga-trust-charge/optiga/externals/mbedtls/library\oid.c ****         MBEDTLS_MD_MD5,      MBEDTLS_PK_RSA,
 334:C:/Users/Yushev/git/wpcqi-optiga-trust-charge/optiga/externals/mbedtls/library\oid.c ****     },
 335:C:/Users/Yushev/git/wpcqi-optiga-trust-charge/optiga/externals/mbedtls/library\oid.c **** #endif /* MBEDTLS_MD5_C */
 336:C:/Users/Yushev/git/wpcqi-optiga-trust-charge/optiga/externals/mbedtls/library\oid.c **** #if defined(MBEDTLS_SHA1_C)
 337:C:/Users/Yushev/git/wpcqi-optiga-trust-charge/optiga/externals/mbedtls/library\oid.c ****     {
 338:C:/Users/Yushev/git/wpcqi-optiga-trust-charge/optiga/externals/mbedtls/library\oid.c ****         { ADD_LEN( MBEDTLS_OID_PKCS1_SHA1 ),       "sha-1WithRSAEncryption",   "RSA with SHA1" },
 339:C:/Users/Yushev/git/wpcqi-optiga-trust-charge/optiga/externals/mbedtls/library\oid.c ****         MBEDTLS_MD_SHA1,     MBEDTLS_PK_RSA,
 340:C:/Users/Yushev/git/wpcqi-optiga-trust-charge/optiga/externals/mbedtls/library\oid.c ****     },
 341:C:/Users/Yushev/git/wpcqi-optiga-trust-charge/optiga/externals/mbedtls/library\oid.c **** #endif /* MBEDTLS_SHA1_C */
 342:C:/Users/Yushev/git/wpcqi-optiga-trust-charge/optiga/externals/mbedtls/library\oid.c **** #if defined(MBEDTLS_SHA256_C)
 343:C:/Users/Yushev/git/wpcqi-optiga-trust-charge/optiga/externals/mbedtls/library\oid.c ****     {
 344:C:/Users/Yushev/git/wpcqi-optiga-trust-charge/optiga/externals/mbedtls/library\oid.c ****         { ADD_LEN( MBEDTLS_OID_PKCS1_SHA224 ),     "sha224WithRSAEncryption",  "RSA with SHA-224" }
 345:C:/Users/Yushev/git/wpcqi-optiga-trust-charge/optiga/externals/mbedtls/library\oid.c ****         MBEDTLS_MD_SHA224,   MBEDTLS_PK_RSA,
 346:C:/Users/Yushev/git/wpcqi-optiga-trust-charge/optiga/externals/mbedtls/library\oid.c ****     },
 347:C:/Users/Yushev/git/wpcqi-optiga-trust-charge/optiga/externals/mbedtls/library\oid.c ****     {
 348:C:/Users/Yushev/git/wpcqi-optiga-trust-charge/optiga/externals/mbedtls/library\oid.c ****         { ADD_LEN( MBEDTLS_OID_PKCS1_SHA256 ),     "sha256WithRSAEncryption",  "RSA with SHA-256" }
 349:C:/Users/Yushev/git/wpcqi-optiga-trust-charge/optiga/externals/mbedtls/library\oid.c ****         MBEDTLS_MD_SHA256,   MBEDTLS_PK_RSA,
 350:C:/Users/Yushev/git/wpcqi-optiga-trust-charge/optiga/externals/mbedtls/library\oid.c ****     },
 351:C:/Users/Yushev/git/wpcqi-optiga-trust-charge/optiga/externals/mbedtls/library\oid.c **** #endif /* MBEDTLS_SHA256_C */
 352:C:/Users/Yushev/git/wpcqi-optiga-trust-charge/optiga/externals/mbedtls/library\oid.c **** #if defined(MBEDTLS_SHA512_C)
 353:C:/Users/Yushev/git/wpcqi-optiga-trust-charge/optiga/externals/mbedtls/library\oid.c ****     {
 354:C:/Users/Yushev/git/wpcqi-optiga-trust-charge/optiga/externals/mbedtls/library\oid.c ****         { ADD_LEN( MBEDTLS_OID_PKCS1_SHA384 ),     "sha384WithRSAEncryption",  "RSA with SHA-384" }
 355:C:/Users/Yushev/git/wpcqi-optiga-trust-charge/optiga/externals/mbedtls/library\oid.c ****         MBEDTLS_MD_SHA384,   MBEDTLS_PK_RSA,
 356:C:/Users/Yushev/git/wpcqi-optiga-trust-charge/optiga/externals/mbedtls/library\oid.c ****     },
 357:C:/Users/Yushev/git/wpcqi-optiga-trust-charge/optiga/externals/mbedtls/library\oid.c ****     {
 358:C:/Users/Yushev/git/wpcqi-optiga-trust-charge/optiga/externals/mbedtls/library\oid.c ****         { ADD_LEN( MBEDTLS_OID_PKCS1_SHA512 ),     "sha512WithRSAEncryption",  "RSA with SHA-512" }
 359:C:/Users/Yushev/git/wpcqi-optiga-trust-charge/optiga/externals/mbedtls/library\oid.c ****         MBEDTLS_MD_SHA512,   MBEDTLS_PK_RSA,
 360:C:/Users/Yushev/git/wpcqi-optiga-trust-charge/optiga/externals/mbedtls/library\oid.c ****     },
 361:C:/Users/Yushev/git/wpcqi-optiga-trust-charge/optiga/externals/mbedtls/library\oid.c **** #endif /* MBEDTLS_SHA512_C */
 362:C:/Users/Yushev/git/wpcqi-optiga-trust-charge/optiga/externals/mbedtls/library\oid.c **** #if defined(MBEDTLS_SHA1_C)
 363:C:/Users/Yushev/git/wpcqi-optiga-trust-charge/optiga/externals/mbedtls/library\oid.c ****     {
 364:C:/Users/Yushev/git/wpcqi-optiga-trust-charge/optiga/externals/mbedtls/library\oid.c ****         { ADD_LEN( MBEDTLS_OID_RSA_SHA_OBS ),      "sha-1WithRSAEncryption",   "RSA with SHA1" },
 365:C:/Users/Yushev/git/wpcqi-optiga-trust-charge/optiga/externals/mbedtls/library\oid.c ****         MBEDTLS_MD_SHA1,     MBEDTLS_PK_RSA,
 366:C:/Users/Yushev/git/wpcqi-optiga-trust-charge/optiga/externals/mbedtls/library\oid.c ****     },
 367:C:/Users/Yushev/git/wpcqi-optiga-trust-charge/optiga/externals/mbedtls/library\oid.c **** #endif /* MBEDTLS_SHA1_C */
 368:C:/Users/Yushev/git/wpcqi-optiga-trust-charge/optiga/externals/mbedtls/library\oid.c **** #endif /* MBEDTLS_RSA_C */
 369:C:/Users/Yushev/git/wpcqi-optiga-trust-charge/optiga/externals/mbedtls/library\oid.c **** #if defined(MBEDTLS_ECDSA_C)
 370:C:/Users/Yushev/git/wpcqi-optiga-trust-charge/optiga/externals/mbedtls/library\oid.c **** #if defined(MBEDTLS_SHA1_C)
 371:C:/Users/Yushev/git/wpcqi-optiga-trust-charge/optiga/externals/mbedtls/library\oid.c ****     {
 372:C:/Users/Yushev/git/wpcqi-optiga-trust-charge/optiga/externals/mbedtls/library\oid.c ****         { ADD_LEN( MBEDTLS_OID_ECDSA_SHA1 ),       "ecdsa-with-SHA1",      "ECDSA with SHA1" },
 373:C:/Users/Yushev/git/wpcqi-optiga-trust-charge/optiga/externals/mbedtls/library\oid.c ****         MBEDTLS_MD_SHA1,     MBEDTLS_PK_ECDSA,
 374:C:/Users/Yushev/git/wpcqi-optiga-trust-charge/optiga/externals/mbedtls/library\oid.c ****     },
 375:C:/Users/Yushev/git/wpcqi-optiga-trust-charge/optiga/externals/mbedtls/library\oid.c **** #endif /* MBEDTLS_SHA1_C */
 376:C:/Users/Yushev/git/wpcqi-optiga-trust-charge/optiga/externals/mbedtls/library\oid.c **** #if defined(MBEDTLS_SHA256_C)
 377:C:/Users/Yushev/git/wpcqi-optiga-trust-charge/optiga/externals/mbedtls/library\oid.c ****     {
 378:C:/Users/Yushev/git/wpcqi-optiga-trust-charge/optiga/externals/mbedtls/library\oid.c ****         { ADD_LEN( MBEDTLS_OID_ECDSA_SHA224 ),     "ecdsa-with-SHA224",    "ECDSA with SHA224" },
 379:C:/Users/Yushev/git/wpcqi-optiga-trust-charge/optiga/externals/mbedtls/library\oid.c ****         MBEDTLS_MD_SHA224,   MBEDTLS_PK_ECDSA,
 380:C:/Users/Yushev/git/wpcqi-optiga-trust-charge/optiga/externals/mbedtls/library\oid.c ****     },
 381:C:/Users/Yushev/git/wpcqi-optiga-trust-charge/optiga/externals/mbedtls/library\oid.c ****     {
 382:C:/Users/Yushev/git/wpcqi-optiga-trust-charge/optiga/externals/mbedtls/library\oid.c ****         { ADD_LEN( MBEDTLS_OID_ECDSA_SHA256 ),     "ecdsa-with-SHA256",    "ECDSA with SHA256" },
 383:C:/Users/Yushev/git/wpcqi-optiga-trust-charge/optiga/externals/mbedtls/library\oid.c ****         MBEDTLS_MD_SHA256,   MBEDTLS_PK_ECDSA,
 384:C:/Users/Yushev/git/wpcqi-optiga-trust-charge/optiga/externals/mbedtls/library\oid.c ****     },
 385:C:/Users/Yushev/git/wpcqi-optiga-trust-charge/optiga/externals/mbedtls/library\oid.c **** #endif /* MBEDTLS_SHA256_C */
 386:C:/Users/Yushev/git/wpcqi-optiga-trust-charge/optiga/externals/mbedtls/library\oid.c **** #if defined(MBEDTLS_SHA512_C)
 387:C:/Users/Yushev/git/wpcqi-optiga-trust-charge/optiga/externals/mbedtls/library\oid.c ****     {
 388:C:/Users/Yushev/git/wpcqi-optiga-trust-charge/optiga/externals/mbedtls/library\oid.c ****         { ADD_LEN( MBEDTLS_OID_ECDSA_SHA384 ),     "ecdsa-with-SHA384",    "ECDSA with SHA384" },
 389:C:/Users/Yushev/git/wpcqi-optiga-trust-charge/optiga/externals/mbedtls/library\oid.c ****         MBEDTLS_MD_SHA384,   MBEDTLS_PK_ECDSA,
 390:C:/Users/Yushev/git/wpcqi-optiga-trust-charge/optiga/externals/mbedtls/library\oid.c ****     },
 391:C:/Users/Yushev/git/wpcqi-optiga-trust-charge/optiga/externals/mbedtls/library\oid.c ****     {
 392:C:/Users/Yushev/git/wpcqi-optiga-trust-charge/optiga/externals/mbedtls/library\oid.c ****         { ADD_LEN( MBEDTLS_OID_ECDSA_SHA512 ),     "ecdsa-with-SHA512",    "ECDSA with SHA512" },
 393:C:/Users/Yushev/git/wpcqi-optiga-trust-charge/optiga/externals/mbedtls/library\oid.c ****         MBEDTLS_MD_SHA512,   MBEDTLS_PK_ECDSA,
 394:C:/Users/Yushev/git/wpcqi-optiga-trust-charge/optiga/externals/mbedtls/library\oid.c ****     },
 395:C:/Users/Yushev/git/wpcqi-optiga-trust-charge/optiga/externals/mbedtls/library\oid.c **** #endif /* MBEDTLS_SHA512_C */
 396:C:/Users/Yushev/git/wpcqi-optiga-trust-charge/optiga/externals/mbedtls/library\oid.c **** #endif /* MBEDTLS_ECDSA_C */
 397:C:/Users/Yushev/git/wpcqi-optiga-trust-charge/optiga/externals/mbedtls/library\oid.c **** #if defined(MBEDTLS_RSA_C)
 398:C:/Users/Yushev/git/wpcqi-optiga-trust-charge/optiga/externals/mbedtls/library\oid.c ****     {
 399:C:/Users/Yushev/git/wpcqi-optiga-trust-charge/optiga/externals/mbedtls/library\oid.c ****         { ADD_LEN( MBEDTLS_OID_RSASSA_PSS ),        "RSASSA-PSS",           "RSASSA-PSS" },
 400:C:/Users/Yushev/git/wpcqi-optiga-trust-charge/optiga/externals/mbedtls/library\oid.c ****         MBEDTLS_MD_NONE,     MBEDTLS_PK_RSASSA_PSS,
 401:C:/Users/Yushev/git/wpcqi-optiga-trust-charge/optiga/externals/mbedtls/library\oid.c ****     },
 402:C:/Users/Yushev/git/wpcqi-optiga-trust-charge/optiga/externals/mbedtls/library\oid.c **** #endif /* MBEDTLS_RSA_C */
 403:C:/Users/Yushev/git/wpcqi-optiga-trust-charge/optiga/externals/mbedtls/library\oid.c ****     {
 404:C:/Users/Yushev/git/wpcqi-optiga-trust-charge/optiga/externals/mbedtls/library\oid.c ****         { NULL, 0, NULL, NULL },
 405:C:/Users/Yushev/git/wpcqi-optiga-trust-charge/optiga/externals/mbedtls/library\oid.c ****         MBEDTLS_MD_NONE, MBEDTLS_PK_NONE,
 406:C:/Users/Yushev/git/wpcqi-optiga-trust-charge/optiga/externals/mbedtls/library\oid.c ****     },
 407:C:/Users/Yushev/git/wpcqi-optiga-trust-charge/optiga/externals/mbedtls/library\oid.c **** };
 408:C:/Users/Yushev/git/wpcqi-optiga-trust-charge/optiga/externals/mbedtls/library\oid.c **** 
 409:C:/Users/Yushev/git/wpcqi-optiga-trust-charge/optiga/externals/mbedtls/library\oid.c **** FN_OID_TYPED_FROM_ASN1(oid_sig_alg_t, sig_alg, oid_sig_alg)
 1001              	 .loc 1 409 0 is_stmt 1
 1002              	 .cfi_startproc
 1003              	 
 1004              	 
 1005 0000 80B5     	 push {r7,lr}
 1006              	.LCFI30:
 1007              	 .cfi_def_cfa_offset 8
 1008              	 .cfi_offset 7,-8
 1009              	 .cfi_offset 14,-4
 1010 0002 84B0     	 sub sp,sp,#16
 1011              	.LCFI31:
 1012              	 .cfi_def_cfa_offset 24
 1013 0004 00AF     	 add r7,sp,#0
 1014              	.LCFI32:
 1015              	 .cfi_def_cfa_register 7
 1016 0006 7860     	 str r0,[r7,#4]
 1017              	 .loc 1 409 0
 1018 0008 184B     	 ldr r3,.L44
 1019 000a FB60     	 str r3,[r7,#12]
 1020 000c FB68     	 ldr r3,[r7,#12]
 1021 000e BB60     	 str r3,[r7,#8]
 1022 0010 FB68     	 ldr r3,[r7,#12]
 1023 0012 002B     	 cmp r3,#0
 1024 0014 02D0     	 beq .L38
 1025              	 .loc 1 409 0 is_stmt 0 discriminator 2
 1026 0016 7B68     	 ldr r3,[r7,#4]
 1027 0018 002B     	 cmp r3,#0
 1028 001a 01D1     	 bne .L39
 1029              	.L38:
 1030              	 .loc 1 409 0 discriminator 3
 1031 001c 0023     	 movs r3,#0
 1032 001e 20E0     	 b .L40
 1033              	.L39:
 1034              	 .loc 1 409 0
 1035 0020 1AE0     	 b .L41
 1036              	.L43:
 1037              	 .loc 1 409 0 discriminator 9
 1038 0022 BB68     	 ldr r3,[r7,#8]
 1039 0024 5A68     	 ldr r2,[r3,#4]
 1040 0026 7B68     	 ldr r3,[r7,#4]
 1041 0028 5B68     	 ldr r3,[r3,#4]
 1042 002a 9A42     	 cmp r2,r3
 1043 002c 0FD1     	 bne .L42
 1044              	 .loc 1 409 0 discriminator 4
 1045 002e BB68     	 ldr r3,[r7,#8]
 1046 0030 1968     	 ldr r1,[r3]
 1047 0032 7B68     	 ldr r3,[r7,#4]
 1048 0034 9A68     	 ldr r2,[r3,#8]
 1049 0036 7B68     	 ldr r3,[r7,#4]
 1050 0038 5B68     	 ldr r3,[r3,#4]
 1051 003a 0846     	 mov r0,r1
 1052 003c 1146     	 mov r1,r2
 1053 003e 1A46     	 mov r2,r3
 1054 0040 FFF7FEFF 	 bl memcmp
 1055 0044 0346     	 mov r3,r0
 1056 0046 002B     	 cmp r3,#0
 1057 0048 01D1     	 bne .L42
 1058              	 .loc 1 409 0 discriminator 6
 1059 004a FB68     	 ldr r3,[r7,#12]
 1060 004c 09E0     	 b .L40
 1061              	.L42:
 1062              	 .loc 1 409 0 discriminator 7
 1063 004e FB68     	 ldr r3,[r7,#12]
 1064 0050 1433     	 adds r3,r3,#20
 1065 0052 FB60     	 str r3,[r7,#12]
 1066 0054 FB68     	 ldr r3,[r7,#12]
 1067 0056 BB60     	 str r3,[r7,#8]
 1068              	.L41:
 1069              	 .loc 1 409 0 discriminator 8
 1070 0058 BB68     	 ldr r3,[r7,#8]
 1071 005a 1B68     	 ldr r3,[r3]
 1072 005c 002B     	 cmp r3,#0
 1073 005e E0D1     	 bne .L43
 1074              	 .loc 1 409 0 discriminator 10
 1075 0060 0023     	 movs r3,#0
 1076              	.L40:
 1077              	 .loc 1 409 0
 1078 0062 1846     	 mov r0,r3
 1079 0064 1037     	 adds r7,r7,#16
 1080              	.LCFI33:
 1081              	 .cfi_def_cfa_offset 8
 1082 0066 BD46     	 mov sp,r7
 1083              	.LCFI34:
 1084              	 .cfi_def_cfa_register 13
 1085              	 
 1086 0068 80BD     	 pop {r7,pc}
 1087              	.L45:
 1088 006a 00BF     	 .align 2
 1089              	.L44:
 1090 006c 00000000 	 .word oid_sig_alg
 1091              	 .cfi_endproc
 1092              	.LFE15:
 1094              	 .section .text.mbedtls_oid_get_sig_alg_desc,"ax",%progbits
 1095              	 .align 2
 1096              	 .global mbedtls_oid_get_sig_alg_desc
 1097              	 .thumb
 1098              	 .thumb_func
 1100              	mbedtls_oid_get_sig_alg_desc:
 1101              	.LFB16:
 410:C:/Users/Yushev/git/wpcqi-optiga-trust-charge/optiga/externals/mbedtls/library\oid.c **** FN_OID_GET_DESCRIPTOR_ATTR1(mbedtls_oid_get_sig_alg_desc, oid_sig_alg_t, sig_alg, const char *, des
 1102              	 .loc 1 410 0 is_stmt 1
 1103              	 .cfi_startproc
 1104              	 
 1105              	 
 1106 0000 80B5     	 push {r7,lr}
 1107              	.LCFI35:
 1108              	 .cfi_def_cfa_offset 8
 1109              	 .cfi_offset 7,-8
 1110              	 .cfi_offset 14,-4
 1111 0002 84B0     	 sub sp,sp,#16
 1112              	.LCFI36:
 1113              	 .cfi_def_cfa_offset 24
 1114 0004 00AF     	 add r7,sp,#0
 1115              	.LCFI37:
 1116              	 .cfi_def_cfa_register 7
 1117 0006 7860     	 str r0,[r7,#4]
 1118 0008 3960     	 str r1,[r7]
 1119              	 .loc 1 410 0
 1120 000a 7868     	 ldr r0,[r7,#4]
 1121 000c FFF7FEFF 	 bl oid_sig_alg_from_asn1
 1122 0010 F860     	 str r0,[r7,#12]
 1123 0012 FB68     	 ldr r3,[r7,#12]
 1124 0014 002B     	 cmp r3,#0
 1125 0016 02D1     	 bne .L47
 1126              	 .loc 1 410 0 is_stmt 0 discriminator 1
 1127 0018 6FF02D03 	 mvn r3,#45
 1128 001c 04E0     	 b .L48
 1129              	.L47:
 1130              	 .loc 1 410 0 discriminator 2
 1131 001e FB68     	 ldr r3,[r7,#12]
 1132 0020 DA68     	 ldr r2,[r3,#12]
 1133 0022 3B68     	 ldr r3,[r7]
 1134 0024 1A60     	 str r2,[r3]
 1135 0026 0023     	 movs r3,#0
 1136              	.L48:
 1137              	 .loc 1 410 0
 1138 0028 1846     	 mov r0,r3
 1139 002a 1037     	 adds r7,r7,#16
 1140              	.LCFI38:
 1141              	 .cfi_def_cfa_offset 8
 1142 002c BD46     	 mov sp,r7
 1143              	.LCFI39:
 1144              	 .cfi_def_cfa_register 13
 1145              	 
 1146 002e 80BD     	 pop {r7,pc}
 1147              	 .cfi_endproc
 1148              	.LFE16:
 1150              	 .section .text.mbedtls_oid_get_sig_alg,"ax",%progbits
 1151              	 .align 2
 1152              	 .global mbedtls_oid_get_sig_alg
 1153              	 .thumb
 1154              	 .thumb_func
 1156              	mbedtls_oid_get_sig_alg:
 1157              	.LFB17:
 411:C:/Users/Yushev/git/wpcqi-optiga-trust-charge/optiga/externals/mbedtls/library\oid.c **** FN_OID_GET_ATTR2(mbedtls_oid_get_sig_alg, oid_sig_alg_t, sig_alg, mbedtls_md_type_t, md_alg, mbedtl
 1158              	 .loc 1 411 0 is_stmt 1
 1159              	 .cfi_startproc
 1160              	 
 1161              	 
 1162 0000 80B5     	 push {r7,lr}
 1163              	.LCFI40:
 1164              	 .cfi_def_cfa_offset 8
 1165              	 .cfi_offset 7,-8
 1166              	 .cfi_offset 14,-4
 1167 0002 86B0     	 sub sp,sp,#24
 1168              	.LCFI41:
 1169              	 .cfi_def_cfa_offset 32
 1170 0004 00AF     	 add r7,sp,#0
 1171              	.LCFI42:
 1172              	 .cfi_def_cfa_register 7
 1173 0006 F860     	 str r0,[r7,#12]
 1174 0008 B960     	 str r1,[r7,#8]
 1175 000a 7A60     	 str r2,[r7,#4]
 1176              	 .loc 1 411 0
 1177 000c F868     	 ldr r0,[r7,#12]
 1178 000e FFF7FEFF 	 bl oid_sig_alg_from_asn1
 1179 0012 7861     	 str r0,[r7,#20]
 1180 0014 7B69     	 ldr r3,[r7,#20]
 1181 0016 002B     	 cmp r3,#0
 1182 0018 02D1     	 bne .L50
 1183              	 .loc 1 411 0 is_stmt 0 discriminator 1
 1184 001a 6FF02D03 	 mvn r3,#45
 1185 001e 08E0     	 b .L51
 1186              	.L50:
 1187              	 .loc 1 411 0 discriminator 2
 1188 0020 7B69     	 ldr r3,[r7,#20]
 1189 0022 1A7C     	 ldrb r2,[r3,#16]
 1190 0024 BB68     	 ldr r3,[r7,#8]
 1191 0026 1A70     	 strb r2,[r3]
 1192 0028 7B69     	 ldr r3,[r7,#20]
 1193 002a 5A7C     	 ldrb r2,[r3,#17]
 1194 002c 7B68     	 ldr r3,[r7,#4]
 1195 002e 1A70     	 strb r2,[r3]
 1196 0030 0023     	 movs r3,#0
 1197              	.L51:
 1198              	 .loc 1 411 0
 1199 0032 1846     	 mov r0,r3
 1200 0034 1837     	 adds r7,r7,#24
 1201              	.LCFI43:
 1202              	 .cfi_def_cfa_offset 8
 1203 0036 BD46     	 mov sp,r7
 1204              	.LCFI44:
 1205              	 .cfi_def_cfa_register 13
 1206              	 
 1207 0038 80BD     	 pop {r7,pc}
 1208              	 .cfi_endproc
 1209              	.LFE17:
 1211 003a 00BF     	 .section .text.mbedtls_oid_get_oid_by_sig_alg,"ax",%progbits
 1212              	 .align 2
 1213              	 .global mbedtls_oid_get_oid_by_sig_alg
 1214              	 .thumb
 1215              	 .thumb_func
 1217              	mbedtls_oid_get_oid_by_sig_alg:
 1218              	.LFB18:
 412:C:/Users/Yushev/git/wpcqi-optiga-trust-charge/optiga/externals/mbedtls/library\oid.c **** FN_OID_GET_OID_BY_ATTR2(mbedtls_oid_get_oid_by_sig_alg, oid_sig_alg_t, oid_sig_alg, mbedtls_pk_type
 1219              	 .loc 1 412 0 is_stmt 1
 1220              	 .cfi_startproc
 1221              	 
 1222              	 
 1223              	 
 1224 0000 80B4     	 push {r7}
 1225              	.LCFI45:
 1226              	 .cfi_def_cfa_offset 4
 1227              	 .cfi_offset 7,-4
 1228 0002 87B0     	 sub sp,sp,#28
 1229              	.LCFI46:
 1230              	 .cfi_def_cfa_offset 32
 1231 0004 00AF     	 add r7,sp,#0
 1232              	.LCFI47:
 1233              	 .cfi_def_cfa_register 7
 1234 0006 BA60     	 str r2,[r7,#8]
 1235 0008 7B60     	 str r3,[r7,#4]
 1236 000a 0346     	 mov r3,r0
 1237 000c FB73     	 strb r3,[r7,#15]
 1238 000e 0B46     	 mov r3,r1
 1239 0010 BB73     	 strb r3,[r7,#14]
 1240              	 .loc 1 412 0
 1241 0012 134B     	 ldr r3,.L57
 1242 0014 7B61     	 str r3,[r7,#20]
 1243 0016 16E0     	 b .L53
 1244              	.L56:
 1245              	 .loc 1 412 0 is_stmt 0 discriminator 7
 1246 0018 7B69     	 ldr r3,[r7,#20]
 1247 001a 5B7C     	 ldrb r3,[r3,#17]
 1248 001c FA7B     	 ldrb r2,[r7,#15]
 1249 001e 9A42     	 cmp r2,r3
 1250 0020 0ED1     	 bne .L54
 1251              	 .loc 1 412 0 discriminator 2
 1252 0022 7B69     	 ldr r3,[r7,#20]
 1253 0024 1B7C     	 ldrb r3,[r3,#16]
 1254 0026 BA7B     	 ldrb r2,[r7,#14]
 1255 0028 9A42     	 cmp r2,r3
 1256 002a 09D1     	 bne .L54
 1257              	 .loc 1 412 0 discriminator 4
 1258 002c 7B69     	 ldr r3,[r7,#20]
 1259 002e 1A68     	 ldr r2,[r3]
 1260 0030 BB68     	 ldr r3,[r7,#8]
 1261 0032 1A60     	 str r2,[r3]
 1262 0034 7B69     	 ldr r3,[r7,#20]
 1263 0036 5A68     	 ldr r2,[r3,#4]
 1264 0038 7B68     	 ldr r3,[r7,#4]
 1265 003a 1A60     	 str r2,[r3]
 1266 003c 0023     	 movs r3,#0
 1267 003e 08E0     	 b .L55
 1268              	.L54:
 1269              	 .loc 1 412 0 discriminator 5
 1270 0040 7B69     	 ldr r3,[r7,#20]
 1271 0042 1433     	 adds r3,r3,#20
 1272 0044 7B61     	 str r3,[r7,#20]
 1273              	.L53:
 1274              	 .loc 1 412 0 discriminator 6
 1275 0046 7B69     	 ldr r3,[r7,#20]
 1276 0048 1B68     	 ldr r3,[r3]
 1277 004a 002B     	 cmp r3,#0
 1278 004c E4D1     	 bne .L56
 1279              	 .loc 1 412 0 discriminator 8
 1280 004e 6FF02D03 	 mvn r3,#45
 1281              	.L55:
 1282              	 .loc 1 412 0
 1283 0052 1846     	 mov r0,r3
 1284 0054 1C37     	 adds r7,r7,#28
 1285              	.LCFI48:
 1286              	 .cfi_def_cfa_offset 4
 1287 0056 BD46     	 mov sp,r7
 1288              	.LCFI49:
 1289              	 .cfi_def_cfa_register 13
 1290              	 
 1291 0058 5DF8047B 	 ldr r7,[sp],#4
 1292              	.LCFI50:
 1293              	 .cfi_restore 7
 1294              	 .cfi_def_cfa_offset 0
 1295 005c 7047     	 bx lr
 1296              	.L58:
 1297 005e 00BF     	 .align 2
 1298              	.L57:
 1299 0060 00000000 	 .word oid_sig_alg
 1300              	 .cfi_endproc
 1301              	.LFE18:
 1303              	 .section .rodata
 1304 05b5 000000   	 .align 2
 1305              	.LC108:
 1306 05b8 2A864886 	 .ascii "*\206H\206\367\015\001\001\001\000"
 1306      F70D0101 
 1306      0100
 1307 05c2 0000     	 .align 2
 1308              	.LC109:
 1309 05c4 72736145 	 .ascii "rsaEncryption\000"
 1309      6E637279 
 1309      7074696F 
 1309      6E00
 1310 05d2 0000     	 .align 2
 1311              	.LC110:
 1312 05d4 52534100 	 .ascii "RSA\000"
 1313              	 .align 2
 1314              	.LC111:
 1315 05d8 2A8648CE 	 .ascii "*\206H\316=\002\001\000"
 1315      3D020100 
 1316              	 .align 2
 1317              	.LC112:
 1318 05e0 69642D65 	 .ascii "id-ecPublicKey\000"
 1318      63507562 
 1318      6C69634B 
 1318      657900
 1319 05ef 00       	 .align 2
 1320              	.LC113:
 1321 05f0 47656E65 	 .ascii "Generic EC key\000"
 1321      72696320 
 1321      4543206B 
 1321      657900
 1322 05ff 00       	 .align 2
 1323              	.LC114:
 1324 0600 2B810401 	 .ascii "+\201\004\001\014\000"
 1324      0C00
 1325 0606 0000     	 .align 2
 1326              	.LC115:
 1327 0608 69642D65 	 .ascii "id-ecDH\000"
 1327      63444800 
 1328              	 .align 2
 1329              	.LC116:
 1330 0610 4543206B 	 .ascii "EC key for ECDH\000"
 1330      65792066 
 1330      6F722045 
 1330      43444800 
 1331              	 .section .rodata.oid_pk_alg,"a",%progbits
 1332              	 .align 2
 1335              	oid_pk_alg:
 1336 0000 B8050000 	 .word .LC108
 1337 0004 09000000 	 .word 9
 1338 0008 C4050000 	 .word .LC109
 1339 000c D4050000 	 .word .LC110
 1340 0010 01       	 .byte 1
 1341 0011 000000   	 .space 3
 1342 0014 D8050000 	 .word .LC111
 1343 0018 07000000 	 .word 7
 1344 001c E0050000 	 .word .LC112
 1345 0020 F0050000 	 .word .LC113
 1346 0024 02       	 .byte 2
 1347 0025 000000   	 .space 3
 1348 0028 00060000 	 .word .LC114
 1349 002c 05000000 	 .word 5
 1350 0030 08060000 	 .word .LC115
 1351 0034 10060000 	 .word .LC116
 1352 0038 03       	 .byte 3
 1353 0039 000000   	 .space 3
 1354 003c 00000000 	 .word 0
 1355 0040 00000000 	 .word 0
 1356 0044 00000000 	 .word 0
 1357 0048 00000000 	 .word 0
 1358 004c 00       	 .byte 0
 1359 004d 000000   	 .space 3
 1360              	 .section .text.oid_pk_alg_from_asn1,"ax",%progbits
 1361              	 .align 2
 1362              	 .thumb
 1363              	 .thumb_func
 1365              	oid_pk_alg_from_asn1:
 1366              	.LFB19:
 413:C:/Users/Yushev/git/wpcqi-optiga-trust-charge/optiga/externals/mbedtls/library\oid.c **** #endif /* MBEDTLS_MD_C */
 414:C:/Users/Yushev/git/wpcqi-optiga-trust-charge/optiga/externals/mbedtls/library\oid.c **** 
 415:C:/Users/Yushev/git/wpcqi-optiga-trust-charge/optiga/externals/mbedtls/library\oid.c **** /*
 416:C:/Users/Yushev/git/wpcqi-optiga-trust-charge/optiga/externals/mbedtls/library\oid.c ****  * For PublicKeyInfo (PKCS1, RFC 5480)
 417:C:/Users/Yushev/git/wpcqi-optiga-trust-charge/optiga/externals/mbedtls/library\oid.c ****  */
 418:C:/Users/Yushev/git/wpcqi-optiga-trust-charge/optiga/externals/mbedtls/library\oid.c **** typedef struct {
 419:C:/Users/Yushev/git/wpcqi-optiga-trust-charge/optiga/externals/mbedtls/library\oid.c ****     mbedtls_oid_descriptor_t    descriptor;
 420:C:/Users/Yushev/git/wpcqi-optiga-trust-charge/optiga/externals/mbedtls/library\oid.c ****     mbedtls_pk_type_t           pk_alg;
 421:C:/Users/Yushev/git/wpcqi-optiga-trust-charge/optiga/externals/mbedtls/library\oid.c **** } oid_pk_alg_t;
 422:C:/Users/Yushev/git/wpcqi-optiga-trust-charge/optiga/externals/mbedtls/library\oid.c **** 
 423:C:/Users/Yushev/git/wpcqi-optiga-trust-charge/optiga/externals/mbedtls/library\oid.c **** static const oid_pk_alg_t oid_pk_alg[] =
 424:C:/Users/Yushev/git/wpcqi-optiga-trust-charge/optiga/externals/mbedtls/library\oid.c **** {
 425:C:/Users/Yushev/git/wpcqi-optiga-trust-charge/optiga/externals/mbedtls/library\oid.c ****     {
 426:C:/Users/Yushev/git/wpcqi-optiga-trust-charge/optiga/externals/mbedtls/library\oid.c ****         { ADD_LEN( MBEDTLS_OID_PKCS1_RSA ),      "rsaEncryption",   "RSA" },
 427:C:/Users/Yushev/git/wpcqi-optiga-trust-charge/optiga/externals/mbedtls/library\oid.c ****         MBEDTLS_PK_RSA,
 428:C:/Users/Yushev/git/wpcqi-optiga-trust-charge/optiga/externals/mbedtls/library\oid.c ****     },
 429:C:/Users/Yushev/git/wpcqi-optiga-trust-charge/optiga/externals/mbedtls/library\oid.c ****     {
 430:C:/Users/Yushev/git/wpcqi-optiga-trust-charge/optiga/externals/mbedtls/library\oid.c ****         { ADD_LEN( MBEDTLS_OID_EC_ALG_UNRESTRICTED ),  "id-ecPublicKey",   "Generic EC key" },
 431:C:/Users/Yushev/git/wpcqi-optiga-trust-charge/optiga/externals/mbedtls/library\oid.c ****         MBEDTLS_PK_ECKEY,
 432:C:/Users/Yushev/git/wpcqi-optiga-trust-charge/optiga/externals/mbedtls/library\oid.c ****     },
 433:C:/Users/Yushev/git/wpcqi-optiga-trust-charge/optiga/externals/mbedtls/library\oid.c ****     {
 434:C:/Users/Yushev/git/wpcqi-optiga-trust-charge/optiga/externals/mbedtls/library\oid.c ****         { ADD_LEN( MBEDTLS_OID_EC_ALG_ECDH ),          "id-ecDH",          "EC key for ECDH" },
 435:C:/Users/Yushev/git/wpcqi-optiga-trust-charge/optiga/externals/mbedtls/library\oid.c ****         MBEDTLS_PK_ECKEY_DH,
 436:C:/Users/Yushev/git/wpcqi-optiga-trust-charge/optiga/externals/mbedtls/library\oid.c ****     },
 437:C:/Users/Yushev/git/wpcqi-optiga-trust-charge/optiga/externals/mbedtls/library\oid.c ****     {
 438:C:/Users/Yushev/git/wpcqi-optiga-trust-charge/optiga/externals/mbedtls/library\oid.c ****         { NULL, 0, NULL, NULL },
 439:C:/Users/Yushev/git/wpcqi-optiga-trust-charge/optiga/externals/mbedtls/library\oid.c ****         MBEDTLS_PK_NONE,
 440:C:/Users/Yushev/git/wpcqi-optiga-trust-charge/optiga/externals/mbedtls/library\oid.c ****     },
 441:C:/Users/Yushev/git/wpcqi-optiga-trust-charge/optiga/externals/mbedtls/library\oid.c **** };
 442:C:/Users/Yushev/git/wpcqi-optiga-trust-charge/optiga/externals/mbedtls/library\oid.c **** 
 443:C:/Users/Yushev/git/wpcqi-optiga-trust-charge/optiga/externals/mbedtls/library\oid.c **** FN_OID_TYPED_FROM_ASN1(oid_pk_alg_t, pk_alg, oid_pk_alg)
 1367              	 .loc 1 443 0 is_stmt 1
 1368              	 .cfi_startproc
 1369              	 
 1370              	 
 1371 0000 80B5     	 push {r7,lr}
 1372              	.LCFI51:
 1373              	 .cfi_def_cfa_offset 8
 1374              	 .cfi_offset 7,-8
 1375              	 .cfi_offset 14,-4
 1376 0002 84B0     	 sub sp,sp,#16
 1377              	.LCFI52:
 1378              	 .cfi_def_cfa_offset 24
 1379 0004 00AF     	 add r7,sp,#0
 1380              	.LCFI53:
 1381              	 .cfi_def_cfa_register 7
 1382 0006 7860     	 str r0,[r7,#4]
 1383              	 .loc 1 443 0
 1384 0008 184B     	 ldr r3,.L66
 1385 000a FB60     	 str r3,[r7,#12]
 1386 000c FB68     	 ldr r3,[r7,#12]
 1387 000e BB60     	 str r3,[r7,#8]
 1388 0010 FB68     	 ldr r3,[r7,#12]
 1389 0012 002B     	 cmp r3,#0
 1390 0014 02D0     	 beq .L60
 1391              	 .loc 1 443 0 is_stmt 0 discriminator 2
 1392 0016 7B68     	 ldr r3,[r7,#4]
 1393 0018 002B     	 cmp r3,#0
 1394 001a 01D1     	 bne .L61
 1395              	.L60:
 1396              	 .loc 1 443 0 discriminator 3
 1397 001c 0023     	 movs r3,#0
 1398 001e 20E0     	 b .L62
 1399              	.L61:
 1400              	 .loc 1 443 0
 1401 0020 1AE0     	 b .L63
 1402              	.L65:
 1403              	 .loc 1 443 0 discriminator 9
 1404 0022 BB68     	 ldr r3,[r7,#8]
 1405 0024 5A68     	 ldr r2,[r3,#4]
 1406 0026 7B68     	 ldr r3,[r7,#4]
 1407 0028 5B68     	 ldr r3,[r3,#4]
 1408 002a 9A42     	 cmp r2,r3
 1409 002c 0FD1     	 bne .L64
 1410              	 .loc 1 443 0 discriminator 4
 1411 002e BB68     	 ldr r3,[r7,#8]
 1412 0030 1968     	 ldr r1,[r3]
 1413 0032 7B68     	 ldr r3,[r7,#4]
 1414 0034 9A68     	 ldr r2,[r3,#8]
 1415 0036 7B68     	 ldr r3,[r7,#4]
 1416 0038 5B68     	 ldr r3,[r3,#4]
 1417 003a 0846     	 mov r0,r1
 1418 003c 1146     	 mov r1,r2
 1419 003e 1A46     	 mov r2,r3
 1420 0040 FFF7FEFF 	 bl memcmp
 1421 0044 0346     	 mov r3,r0
 1422 0046 002B     	 cmp r3,#0
 1423 0048 01D1     	 bne .L64
 1424              	 .loc 1 443 0 discriminator 6
 1425 004a FB68     	 ldr r3,[r7,#12]
 1426 004c 09E0     	 b .L62
 1427              	.L64:
 1428              	 .loc 1 443 0 discriminator 7
 1429 004e FB68     	 ldr r3,[r7,#12]
 1430 0050 1433     	 adds r3,r3,#20
 1431 0052 FB60     	 str r3,[r7,#12]
 1432 0054 FB68     	 ldr r3,[r7,#12]
 1433 0056 BB60     	 str r3,[r7,#8]
 1434              	.L63:
 1435              	 .loc 1 443 0 discriminator 8
 1436 0058 BB68     	 ldr r3,[r7,#8]
 1437 005a 1B68     	 ldr r3,[r3]
 1438 005c 002B     	 cmp r3,#0
 1439 005e E0D1     	 bne .L65
 1440              	 .loc 1 443 0 discriminator 10
 1441 0060 0023     	 movs r3,#0
 1442              	.L62:
 1443              	 .loc 1 443 0
 1444 0062 1846     	 mov r0,r3
 1445 0064 1037     	 adds r7,r7,#16
 1446              	.LCFI54:
 1447              	 .cfi_def_cfa_offset 8
 1448 0066 BD46     	 mov sp,r7
 1449              	.LCFI55:
 1450              	 .cfi_def_cfa_register 13
 1451              	 
 1452 0068 80BD     	 pop {r7,pc}
 1453              	.L67:
 1454 006a 00BF     	 .align 2
 1455              	.L66:
 1456 006c 00000000 	 .word oid_pk_alg
 1457              	 .cfi_endproc
 1458              	.LFE19:
 1460              	 .section .text.mbedtls_oid_get_pk_alg,"ax",%progbits
 1461              	 .align 2
 1462              	 .global mbedtls_oid_get_pk_alg
 1463              	 .thumb
 1464              	 .thumb_func
 1466              	mbedtls_oid_get_pk_alg:
 1467              	.LFB20:
 444:C:/Users/Yushev/git/wpcqi-optiga-trust-charge/optiga/externals/mbedtls/library\oid.c **** FN_OID_GET_ATTR1(mbedtls_oid_get_pk_alg, oid_pk_alg_t, pk_alg, mbedtls_pk_type_t, pk_alg)
 1468              	 .loc 1 444 0 is_stmt 1
 1469              	 .cfi_startproc
 1470              	 
 1471              	 
 1472 0000 80B5     	 push {r7,lr}
 1473              	.LCFI56:
 1474              	 .cfi_def_cfa_offset 8
 1475              	 .cfi_offset 7,-8
 1476              	 .cfi_offset 14,-4
 1477 0002 84B0     	 sub sp,sp,#16
 1478              	.LCFI57:
 1479              	 .cfi_def_cfa_offset 24
 1480 0004 00AF     	 add r7,sp,#0
 1481              	.LCFI58:
 1482              	 .cfi_def_cfa_register 7
 1483 0006 7860     	 str r0,[r7,#4]
 1484 0008 3960     	 str r1,[r7]
 1485              	 .loc 1 444 0
 1486 000a 7868     	 ldr r0,[r7,#4]
 1487 000c FFF7FEFF 	 bl oid_pk_alg_from_asn1
 1488 0010 F860     	 str r0,[r7,#12]
 1489 0012 FB68     	 ldr r3,[r7,#12]
 1490 0014 002B     	 cmp r3,#0
 1491 0016 02D1     	 bne .L69
 1492              	 .loc 1 444 0 is_stmt 0 discriminator 1
 1493 0018 6FF02D03 	 mvn r3,#45
 1494 001c 04E0     	 b .L70
 1495              	.L69:
 1496              	 .loc 1 444 0 discriminator 2
 1497 001e FB68     	 ldr r3,[r7,#12]
 1498 0020 1A7C     	 ldrb r2,[r3,#16]
 1499 0022 3B68     	 ldr r3,[r7]
 1500 0024 1A70     	 strb r2,[r3]
 1501 0026 0023     	 movs r3,#0
 1502              	.L70:
 1503              	 .loc 1 444 0
 1504 0028 1846     	 mov r0,r3
 1505 002a 1037     	 adds r7,r7,#16
 1506              	.LCFI59:
 1507              	 .cfi_def_cfa_offset 8
 1508 002c BD46     	 mov sp,r7
 1509              	.LCFI60:
 1510              	 .cfi_def_cfa_register 13
 1511              	 
 1512 002e 80BD     	 pop {r7,pc}
 1513              	 .cfi_endproc
 1514              	.LFE20:
 1516              	 .section .text.mbedtls_oid_get_oid_by_pk_alg,"ax",%progbits
 1517              	 .align 2
 1518              	 .global mbedtls_oid_get_oid_by_pk_alg
 1519              	 .thumb
 1520              	 .thumb_func
 1522              	mbedtls_oid_get_oid_by_pk_alg:
 1523              	.LFB21:
 445:C:/Users/Yushev/git/wpcqi-optiga-trust-charge/optiga/externals/mbedtls/library\oid.c **** FN_OID_GET_OID_BY_ATTR1(mbedtls_oid_get_oid_by_pk_alg, oid_pk_alg_t, oid_pk_alg, mbedtls_pk_type_t,
 1524              	 .loc 1 445 0 is_stmt 1
 1525              	 .cfi_startproc
 1526              	 
 1527              	 
 1528              	 
 1529 0000 80B4     	 push {r7}
 1530              	.LCFI61:
 1531              	 .cfi_def_cfa_offset 4
 1532              	 .cfi_offset 7,-4
 1533 0002 87B0     	 sub sp,sp,#28
 1534              	.LCFI62:
 1535              	 .cfi_def_cfa_offset 32
 1536 0004 00AF     	 add r7,sp,#0
 1537              	.LCFI63:
 1538              	 .cfi_def_cfa_register 7
 1539 0006 0346     	 mov r3,r0
 1540 0008 B960     	 str r1,[r7,#8]
 1541 000a 7A60     	 str r2,[r7,#4]
 1542 000c FB73     	 strb r3,[r7,#15]
 1543              	 .loc 1 445 0
 1544 000e 104B     	 ldr r3,.L76
 1545 0010 7B61     	 str r3,[r7,#20]
 1546 0012 11E0     	 b .L72
 1547              	.L75:
 1548              	 .loc 1 445 0 is_stmt 0 discriminator 5
 1549 0014 7B69     	 ldr r3,[r7,#20]
 1550 0016 1B7C     	 ldrb r3,[r3,#16]
 1551 0018 FA7B     	 ldrb r2,[r7,#15]
 1552 001a 9A42     	 cmp r2,r3
 1553 001c 09D1     	 bne .L73
 1554              	 .loc 1 445 0 discriminator 2
 1555 001e 7B69     	 ldr r3,[r7,#20]
 1556 0020 1A68     	 ldr r2,[r3]
 1557 0022 BB68     	 ldr r3,[r7,#8]
 1558 0024 1A60     	 str r2,[r3]
 1559 0026 7B69     	 ldr r3,[r7,#20]
 1560 0028 5A68     	 ldr r2,[r3,#4]
 1561 002a 7B68     	 ldr r3,[r7,#4]
 1562 002c 1A60     	 str r2,[r3]
 1563 002e 0023     	 movs r3,#0
 1564 0030 08E0     	 b .L74
 1565              	.L73:
 1566              	 .loc 1 445 0 discriminator 3
 1567 0032 7B69     	 ldr r3,[r7,#20]
 1568 0034 1433     	 adds r3,r3,#20
 1569 0036 7B61     	 str r3,[r7,#20]
 1570              	.L72:
 1571              	 .loc 1 445 0 discriminator 4
 1572 0038 7B69     	 ldr r3,[r7,#20]
 1573 003a 1B68     	 ldr r3,[r3]
 1574 003c 002B     	 cmp r3,#0
 1575 003e E9D1     	 bne .L75
 1576              	 .loc 1 445 0 discriminator 6
 1577 0040 6FF02D03 	 mvn r3,#45
 1578              	.L74:
 1579              	 .loc 1 445 0
 1580 0044 1846     	 mov r0,r3
 1581 0046 1C37     	 adds r7,r7,#28
 1582              	.LCFI64:
 1583              	 .cfi_def_cfa_offset 4
 1584 0048 BD46     	 mov sp,r7
 1585              	.LCFI65:
 1586              	 .cfi_def_cfa_register 13
 1587              	 
 1588 004a 5DF8047B 	 ldr r7,[sp],#4
 1589              	.LCFI66:
 1590              	 .cfi_restore 7
 1591              	 .cfi_def_cfa_offset 0
 1592 004e 7047     	 bx lr
 1593              	.L77:
 1594              	 .align 2
 1595              	.L76:
 1596 0050 00000000 	 .word oid_pk_alg
 1597              	 .cfi_endproc
 1598              	.LFE21:
 1600              	 .section .rodata
 1601              	 .align 2
 1602              	.LC117:
 1603 0620 2A8648CE 	 .ascii "*\206H\316=\003\001\007\000"
 1603      3D030107 
 1603      00
 1604 0629 000000   	 .align 2
 1605              	.LC118:
 1606 062c 73656370 	 .ascii "secp256r1\000"
 1606      32353672 
 1606      3100
 1607              	 .section .rodata.oid_ecp_grp,"a",%progbits
 1608              	 .align 2
 1611              	oid_ecp_grp:
 1612 0000 20060000 	 .word .LC117
 1613 0004 08000000 	 .word 8
 1614 0008 2C060000 	 .word .LC118
 1615 000c 2C060000 	 .word .LC118
 1616 0010 03       	 .byte 3
 1617 0011 000000   	 .space 3
 1618 0014 00000000 	 .word 0
 1619 0018 00000000 	 .word 0
 1620 001c 00000000 	 .word 0
 1621 0020 00000000 	 .word 0
 1622 0024 00       	 .byte 0
 1623 0025 000000   	 .space 3
 1624              	 .section .text.oid_grp_id_from_asn1,"ax",%progbits
 1625              	 .align 2
 1626              	 .thumb
 1627              	 .thumb_func
 1629              	oid_grp_id_from_asn1:
 1630              	.LFB22:
 446:C:/Users/Yushev/git/wpcqi-optiga-trust-charge/optiga/externals/mbedtls/library\oid.c **** 
 447:C:/Users/Yushev/git/wpcqi-optiga-trust-charge/optiga/externals/mbedtls/library\oid.c **** #if defined(MBEDTLS_ECP_C)
 448:C:/Users/Yushev/git/wpcqi-optiga-trust-charge/optiga/externals/mbedtls/library\oid.c **** /*
 449:C:/Users/Yushev/git/wpcqi-optiga-trust-charge/optiga/externals/mbedtls/library\oid.c ****  * For namedCurve (RFC 5480)
 450:C:/Users/Yushev/git/wpcqi-optiga-trust-charge/optiga/externals/mbedtls/library\oid.c ****  */
 451:C:/Users/Yushev/git/wpcqi-optiga-trust-charge/optiga/externals/mbedtls/library\oid.c **** typedef struct {
 452:C:/Users/Yushev/git/wpcqi-optiga-trust-charge/optiga/externals/mbedtls/library\oid.c ****     mbedtls_oid_descriptor_t    descriptor;
 453:C:/Users/Yushev/git/wpcqi-optiga-trust-charge/optiga/externals/mbedtls/library\oid.c ****     mbedtls_ecp_group_id        grp_id;
 454:C:/Users/Yushev/git/wpcqi-optiga-trust-charge/optiga/externals/mbedtls/library\oid.c **** } oid_ecp_grp_t;
 455:C:/Users/Yushev/git/wpcqi-optiga-trust-charge/optiga/externals/mbedtls/library\oid.c **** 
 456:C:/Users/Yushev/git/wpcqi-optiga-trust-charge/optiga/externals/mbedtls/library\oid.c **** static const oid_ecp_grp_t oid_ecp_grp[] =
 457:C:/Users/Yushev/git/wpcqi-optiga-trust-charge/optiga/externals/mbedtls/library\oid.c **** {
 458:C:/Users/Yushev/git/wpcqi-optiga-trust-charge/optiga/externals/mbedtls/library\oid.c **** #if defined(MBEDTLS_ECP_DP_SECP192R1_ENABLED)
 459:C:/Users/Yushev/git/wpcqi-optiga-trust-charge/optiga/externals/mbedtls/library\oid.c ****     {
 460:C:/Users/Yushev/git/wpcqi-optiga-trust-charge/optiga/externals/mbedtls/library\oid.c ****         { ADD_LEN( MBEDTLS_OID_EC_GRP_SECP192R1 ), "secp192r1",    "secp192r1" },
 461:C:/Users/Yushev/git/wpcqi-optiga-trust-charge/optiga/externals/mbedtls/library\oid.c ****         MBEDTLS_ECP_DP_SECP192R1,
 462:C:/Users/Yushev/git/wpcqi-optiga-trust-charge/optiga/externals/mbedtls/library\oid.c ****     },
 463:C:/Users/Yushev/git/wpcqi-optiga-trust-charge/optiga/externals/mbedtls/library\oid.c **** #endif /* MBEDTLS_ECP_DP_SECP192R1_ENABLED */
 464:C:/Users/Yushev/git/wpcqi-optiga-trust-charge/optiga/externals/mbedtls/library\oid.c **** #if defined(MBEDTLS_ECP_DP_SECP224R1_ENABLED)
 465:C:/Users/Yushev/git/wpcqi-optiga-trust-charge/optiga/externals/mbedtls/library\oid.c ****     {
 466:C:/Users/Yushev/git/wpcqi-optiga-trust-charge/optiga/externals/mbedtls/library\oid.c ****         { ADD_LEN( MBEDTLS_OID_EC_GRP_SECP224R1 ), "secp224r1",    "secp224r1" },
 467:C:/Users/Yushev/git/wpcqi-optiga-trust-charge/optiga/externals/mbedtls/library\oid.c ****         MBEDTLS_ECP_DP_SECP224R1,
 468:C:/Users/Yushev/git/wpcqi-optiga-trust-charge/optiga/externals/mbedtls/library\oid.c ****     },
 469:C:/Users/Yushev/git/wpcqi-optiga-trust-charge/optiga/externals/mbedtls/library\oid.c **** #endif /* MBEDTLS_ECP_DP_SECP224R1_ENABLED */
 470:C:/Users/Yushev/git/wpcqi-optiga-trust-charge/optiga/externals/mbedtls/library\oid.c **** #if defined(MBEDTLS_ECP_DP_SECP256R1_ENABLED)
 471:C:/Users/Yushev/git/wpcqi-optiga-trust-charge/optiga/externals/mbedtls/library\oid.c ****     {
 472:C:/Users/Yushev/git/wpcqi-optiga-trust-charge/optiga/externals/mbedtls/library\oid.c ****         { ADD_LEN( MBEDTLS_OID_EC_GRP_SECP256R1 ), "secp256r1",    "secp256r1" },
 473:C:/Users/Yushev/git/wpcqi-optiga-trust-charge/optiga/externals/mbedtls/library\oid.c ****         MBEDTLS_ECP_DP_SECP256R1,
 474:C:/Users/Yushev/git/wpcqi-optiga-trust-charge/optiga/externals/mbedtls/library\oid.c ****     },
 475:C:/Users/Yushev/git/wpcqi-optiga-trust-charge/optiga/externals/mbedtls/library\oid.c **** #endif /* MBEDTLS_ECP_DP_SECP256R1_ENABLED */
 476:C:/Users/Yushev/git/wpcqi-optiga-trust-charge/optiga/externals/mbedtls/library\oid.c **** #if defined(MBEDTLS_ECP_DP_SECP384R1_ENABLED)
 477:C:/Users/Yushev/git/wpcqi-optiga-trust-charge/optiga/externals/mbedtls/library\oid.c ****     {
 478:C:/Users/Yushev/git/wpcqi-optiga-trust-charge/optiga/externals/mbedtls/library\oid.c ****         { ADD_LEN( MBEDTLS_OID_EC_GRP_SECP384R1 ), "secp384r1",    "secp384r1" },
 479:C:/Users/Yushev/git/wpcqi-optiga-trust-charge/optiga/externals/mbedtls/library\oid.c ****         MBEDTLS_ECP_DP_SECP384R1,
 480:C:/Users/Yushev/git/wpcqi-optiga-trust-charge/optiga/externals/mbedtls/library\oid.c ****     },
 481:C:/Users/Yushev/git/wpcqi-optiga-trust-charge/optiga/externals/mbedtls/library\oid.c **** #endif /* MBEDTLS_ECP_DP_SECP384R1_ENABLED */
 482:C:/Users/Yushev/git/wpcqi-optiga-trust-charge/optiga/externals/mbedtls/library\oid.c **** #if defined(MBEDTLS_ECP_DP_SECP521R1_ENABLED)
 483:C:/Users/Yushev/git/wpcqi-optiga-trust-charge/optiga/externals/mbedtls/library\oid.c ****     {
 484:C:/Users/Yushev/git/wpcqi-optiga-trust-charge/optiga/externals/mbedtls/library\oid.c ****         { ADD_LEN( MBEDTLS_OID_EC_GRP_SECP521R1 ), "secp521r1",    "secp521r1" },
 485:C:/Users/Yushev/git/wpcqi-optiga-trust-charge/optiga/externals/mbedtls/library\oid.c ****         MBEDTLS_ECP_DP_SECP521R1,
 486:C:/Users/Yushev/git/wpcqi-optiga-trust-charge/optiga/externals/mbedtls/library\oid.c ****     },
 487:C:/Users/Yushev/git/wpcqi-optiga-trust-charge/optiga/externals/mbedtls/library\oid.c **** #endif /* MBEDTLS_ECP_DP_SECP521R1_ENABLED */
 488:C:/Users/Yushev/git/wpcqi-optiga-trust-charge/optiga/externals/mbedtls/library\oid.c **** #if defined(MBEDTLS_ECP_DP_SECP192K1_ENABLED)
 489:C:/Users/Yushev/git/wpcqi-optiga-trust-charge/optiga/externals/mbedtls/library\oid.c ****     {
 490:C:/Users/Yushev/git/wpcqi-optiga-trust-charge/optiga/externals/mbedtls/library\oid.c ****         { ADD_LEN( MBEDTLS_OID_EC_GRP_SECP192K1 ), "secp192k1",    "secp192k1" },
 491:C:/Users/Yushev/git/wpcqi-optiga-trust-charge/optiga/externals/mbedtls/library\oid.c ****         MBEDTLS_ECP_DP_SECP192K1,
 492:C:/Users/Yushev/git/wpcqi-optiga-trust-charge/optiga/externals/mbedtls/library\oid.c ****     },
 493:C:/Users/Yushev/git/wpcqi-optiga-trust-charge/optiga/externals/mbedtls/library\oid.c **** #endif /* MBEDTLS_ECP_DP_SECP192K1_ENABLED */
 494:C:/Users/Yushev/git/wpcqi-optiga-trust-charge/optiga/externals/mbedtls/library\oid.c **** #if defined(MBEDTLS_ECP_DP_SECP224K1_ENABLED)
 495:C:/Users/Yushev/git/wpcqi-optiga-trust-charge/optiga/externals/mbedtls/library\oid.c ****     {
 496:C:/Users/Yushev/git/wpcqi-optiga-trust-charge/optiga/externals/mbedtls/library\oid.c ****         { ADD_LEN( MBEDTLS_OID_EC_GRP_SECP224K1 ), "secp224k1",    "secp224k1" },
 497:C:/Users/Yushev/git/wpcqi-optiga-trust-charge/optiga/externals/mbedtls/library\oid.c ****         MBEDTLS_ECP_DP_SECP224K1,
 498:C:/Users/Yushev/git/wpcqi-optiga-trust-charge/optiga/externals/mbedtls/library\oid.c ****     },
 499:C:/Users/Yushev/git/wpcqi-optiga-trust-charge/optiga/externals/mbedtls/library\oid.c **** #endif /* MBEDTLS_ECP_DP_SECP224K1_ENABLED */
 500:C:/Users/Yushev/git/wpcqi-optiga-trust-charge/optiga/externals/mbedtls/library\oid.c **** #if defined(MBEDTLS_ECP_DP_SECP256K1_ENABLED)
 501:C:/Users/Yushev/git/wpcqi-optiga-trust-charge/optiga/externals/mbedtls/library\oid.c ****     {
 502:C:/Users/Yushev/git/wpcqi-optiga-trust-charge/optiga/externals/mbedtls/library\oid.c ****         { ADD_LEN( MBEDTLS_OID_EC_GRP_SECP256K1 ), "secp256k1",    "secp256k1" },
 503:C:/Users/Yushev/git/wpcqi-optiga-trust-charge/optiga/externals/mbedtls/library\oid.c ****         MBEDTLS_ECP_DP_SECP256K1,
 504:C:/Users/Yushev/git/wpcqi-optiga-trust-charge/optiga/externals/mbedtls/library\oid.c ****     },
 505:C:/Users/Yushev/git/wpcqi-optiga-trust-charge/optiga/externals/mbedtls/library\oid.c **** #endif /* MBEDTLS_ECP_DP_SECP256K1_ENABLED */
 506:C:/Users/Yushev/git/wpcqi-optiga-trust-charge/optiga/externals/mbedtls/library\oid.c **** #if defined(MBEDTLS_ECP_DP_BP256R1_ENABLED)
 507:C:/Users/Yushev/git/wpcqi-optiga-trust-charge/optiga/externals/mbedtls/library\oid.c ****     {
 508:C:/Users/Yushev/git/wpcqi-optiga-trust-charge/optiga/externals/mbedtls/library\oid.c ****         { ADD_LEN( MBEDTLS_OID_EC_GRP_BP256R1 ),   "brainpoolP256r1","brainpool256r1" },
 509:C:/Users/Yushev/git/wpcqi-optiga-trust-charge/optiga/externals/mbedtls/library\oid.c ****         MBEDTLS_ECP_DP_BP256R1,
 510:C:/Users/Yushev/git/wpcqi-optiga-trust-charge/optiga/externals/mbedtls/library\oid.c ****     },
 511:C:/Users/Yushev/git/wpcqi-optiga-trust-charge/optiga/externals/mbedtls/library\oid.c **** #endif /* MBEDTLS_ECP_DP_BP256R1_ENABLED */
 512:C:/Users/Yushev/git/wpcqi-optiga-trust-charge/optiga/externals/mbedtls/library\oid.c **** #if defined(MBEDTLS_ECP_DP_BP384R1_ENABLED)
 513:C:/Users/Yushev/git/wpcqi-optiga-trust-charge/optiga/externals/mbedtls/library\oid.c ****     {
 514:C:/Users/Yushev/git/wpcqi-optiga-trust-charge/optiga/externals/mbedtls/library\oid.c ****         { ADD_LEN( MBEDTLS_OID_EC_GRP_BP384R1 ),   "brainpoolP384r1","brainpool384r1" },
 515:C:/Users/Yushev/git/wpcqi-optiga-trust-charge/optiga/externals/mbedtls/library\oid.c ****         MBEDTLS_ECP_DP_BP384R1,
 516:C:/Users/Yushev/git/wpcqi-optiga-trust-charge/optiga/externals/mbedtls/library\oid.c ****     },
 517:C:/Users/Yushev/git/wpcqi-optiga-trust-charge/optiga/externals/mbedtls/library\oid.c **** #endif /* MBEDTLS_ECP_DP_BP384R1_ENABLED */
 518:C:/Users/Yushev/git/wpcqi-optiga-trust-charge/optiga/externals/mbedtls/library\oid.c **** #if defined(MBEDTLS_ECP_DP_BP512R1_ENABLED)
 519:C:/Users/Yushev/git/wpcqi-optiga-trust-charge/optiga/externals/mbedtls/library\oid.c ****     {
 520:C:/Users/Yushev/git/wpcqi-optiga-trust-charge/optiga/externals/mbedtls/library\oid.c ****         { ADD_LEN( MBEDTLS_OID_EC_GRP_BP512R1 ),   "brainpoolP512r1","brainpool512r1" },
 521:C:/Users/Yushev/git/wpcqi-optiga-trust-charge/optiga/externals/mbedtls/library\oid.c ****         MBEDTLS_ECP_DP_BP512R1,
 522:C:/Users/Yushev/git/wpcqi-optiga-trust-charge/optiga/externals/mbedtls/library\oid.c ****     },
 523:C:/Users/Yushev/git/wpcqi-optiga-trust-charge/optiga/externals/mbedtls/library\oid.c **** #endif /* MBEDTLS_ECP_DP_BP512R1_ENABLED */
 524:C:/Users/Yushev/git/wpcqi-optiga-trust-charge/optiga/externals/mbedtls/library\oid.c ****     {
 525:C:/Users/Yushev/git/wpcqi-optiga-trust-charge/optiga/externals/mbedtls/library\oid.c ****         { NULL, 0, NULL, NULL },
 526:C:/Users/Yushev/git/wpcqi-optiga-trust-charge/optiga/externals/mbedtls/library\oid.c ****         MBEDTLS_ECP_DP_NONE,
 527:C:/Users/Yushev/git/wpcqi-optiga-trust-charge/optiga/externals/mbedtls/library\oid.c ****     },
 528:C:/Users/Yushev/git/wpcqi-optiga-trust-charge/optiga/externals/mbedtls/library\oid.c **** };
 529:C:/Users/Yushev/git/wpcqi-optiga-trust-charge/optiga/externals/mbedtls/library\oid.c **** 
 530:C:/Users/Yushev/git/wpcqi-optiga-trust-charge/optiga/externals/mbedtls/library\oid.c **** FN_OID_TYPED_FROM_ASN1(oid_ecp_grp_t, grp_id, oid_ecp_grp)
 1631              	 .loc 1 530 0 is_stmt 1
 1632              	 .cfi_startproc
 1633              	 
 1634              	 
 1635 0000 80B5     	 push {r7,lr}
 1636              	.LCFI67:
 1637              	 .cfi_def_cfa_offset 8
 1638              	 .cfi_offset 7,-8
 1639              	 .cfi_offset 14,-4
 1640 0002 84B0     	 sub sp,sp,#16
 1641              	.LCFI68:
 1642              	 .cfi_def_cfa_offset 24
 1643 0004 00AF     	 add r7,sp,#0
 1644              	.LCFI69:
 1645              	 .cfi_def_cfa_register 7
 1646 0006 7860     	 str r0,[r7,#4]
 1647              	 .loc 1 530 0
 1648 0008 184B     	 ldr r3,.L85
 1649 000a FB60     	 str r3,[r7,#12]
 1650 000c FB68     	 ldr r3,[r7,#12]
 1651 000e BB60     	 str r3,[r7,#8]
 1652 0010 FB68     	 ldr r3,[r7,#12]
 1653 0012 002B     	 cmp r3,#0
 1654 0014 02D0     	 beq .L79
 1655              	 .loc 1 530 0 is_stmt 0 discriminator 2
 1656 0016 7B68     	 ldr r3,[r7,#4]
 1657 0018 002B     	 cmp r3,#0
 1658 001a 01D1     	 bne .L80
 1659              	.L79:
 1660              	 .loc 1 530 0 discriminator 3
 1661 001c 0023     	 movs r3,#0
 1662 001e 20E0     	 b .L81
 1663              	.L80:
 1664              	 .loc 1 530 0
 1665 0020 1AE0     	 b .L82
 1666              	.L84:
 1667              	 .loc 1 530 0 discriminator 9
 1668 0022 BB68     	 ldr r3,[r7,#8]
 1669 0024 5A68     	 ldr r2,[r3,#4]
 1670 0026 7B68     	 ldr r3,[r7,#4]
 1671 0028 5B68     	 ldr r3,[r3,#4]
 1672 002a 9A42     	 cmp r2,r3
 1673 002c 0FD1     	 bne .L83
 1674              	 .loc 1 530 0 discriminator 4
 1675 002e BB68     	 ldr r3,[r7,#8]
 1676 0030 1968     	 ldr r1,[r3]
 1677 0032 7B68     	 ldr r3,[r7,#4]
 1678 0034 9A68     	 ldr r2,[r3,#8]
 1679 0036 7B68     	 ldr r3,[r7,#4]
 1680 0038 5B68     	 ldr r3,[r3,#4]
 1681 003a 0846     	 mov r0,r1
 1682 003c 1146     	 mov r1,r2
 1683 003e 1A46     	 mov r2,r3
 1684 0040 FFF7FEFF 	 bl memcmp
 1685 0044 0346     	 mov r3,r0
 1686 0046 002B     	 cmp r3,#0
 1687 0048 01D1     	 bne .L83
 1688              	 .loc 1 530 0 discriminator 6
 1689 004a FB68     	 ldr r3,[r7,#12]
 1690 004c 09E0     	 b .L81
 1691              	.L83:
 1692              	 .loc 1 530 0 discriminator 7
 1693 004e FB68     	 ldr r3,[r7,#12]
 1694 0050 1433     	 adds r3,r3,#20
 1695 0052 FB60     	 str r3,[r7,#12]
 1696 0054 FB68     	 ldr r3,[r7,#12]
 1697 0056 BB60     	 str r3,[r7,#8]
 1698              	.L82:
 1699              	 .loc 1 530 0 discriminator 8
 1700 0058 BB68     	 ldr r3,[r7,#8]
 1701 005a 1B68     	 ldr r3,[r3]
 1702 005c 002B     	 cmp r3,#0
 1703 005e E0D1     	 bne .L84
 1704              	 .loc 1 530 0 discriminator 10
 1705 0060 0023     	 movs r3,#0
 1706              	.L81:
 1707              	 .loc 1 530 0
 1708 0062 1846     	 mov r0,r3
 1709 0064 1037     	 adds r7,r7,#16
 1710              	.LCFI70:
 1711              	 .cfi_def_cfa_offset 8
 1712 0066 BD46     	 mov sp,r7
 1713              	.LCFI71:
 1714              	 .cfi_def_cfa_register 13
 1715              	 
 1716 0068 80BD     	 pop {r7,pc}
 1717              	.L86:
 1718 006a 00BF     	 .align 2
 1719              	.L85:
 1720 006c 00000000 	 .word oid_ecp_grp
 1721              	 .cfi_endproc
 1722              	.LFE22:
 1724              	 .section .text.mbedtls_oid_get_ec_grp,"ax",%progbits
 1725              	 .align 2
 1726              	 .global mbedtls_oid_get_ec_grp
 1727              	 .thumb
 1728              	 .thumb_func
 1730              	mbedtls_oid_get_ec_grp:
 1731              	.LFB23:
 531:C:/Users/Yushev/git/wpcqi-optiga-trust-charge/optiga/externals/mbedtls/library\oid.c **** FN_OID_GET_ATTR1(mbedtls_oid_get_ec_grp, oid_ecp_grp_t, grp_id, mbedtls_ecp_group_id, grp_id)
 1732              	 .loc 1 531 0 is_stmt 1
 1733              	 .cfi_startproc
 1734              	 
 1735              	 
 1736 0000 80B5     	 push {r7,lr}
 1737              	.LCFI72:
 1738              	 .cfi_def_cfa_offset 8
 1739              	 .cfi_offset 7,-8
 1740              	 .cfi_offset 14,-4
 1741 0002 84B0     	 sub sp,sp,#16
 1742              	.LCFI73:
 1743              	 .cfi_def_cfa_offset 24
 1744 0004 00AF     	 add r7,sp,#0
 1745              	.LCFI74:
 1746              	 .cfi_def_cfa_register 7
 1747 0006 7860     	 str r0,[r7,#4]
 1748 0008 3960     	 str r1,[r7]
 1749              	 .loc 1 531 0
 1750 000a 7868     	 ldr r0,[r7,#4]
 1751 000c FFF7FEFF 	 bl oid_grp_id_from_asn1
 1752 0010 F860     	 str r0,[r7,#12]
 1753 0012 FB68     	 ldr r3,[r7,#12]
 1754 0014 002B     	 cmp r3,#0
 1755 0016 02D1     	 bne .L88
 1756              	 .loc 1 531 0 is_stmt 0 discriminator 1
 1757 0018 6FF02D03 	 mvn r3,#45
 1758 001c 04E0     	 b .L89
 1759              	.L88:
 1760              	 .loc 1 531 0 discriminator 2
 1761 001e FB68     	 ldr r3,[r7,#12]
 1762 0020 1A7C     	 ldrb r2,[r3,#16]
 1763 0022 3B68     	 ldr r3,[r7]
 1764 0024 1A70     	 strb r2,[r3]
 1765 0026 0023     	 movs r3,#0
 1766              	.L89:
 1767              	 .loc 1 531 0
 1768 0028 1846     	 mov r0,r3
 1769 002a 1037     	 adds r7,r7,#16
 1770              	.LCFI75:
 1771              	 .cfi_def_cfa_offset 8
 1772 002c BD46     	 mov sp,r7
 1773              	.LCFI76:
 1774              	 .cfi_def_cfa_register 13
 1775              	 
 1776 002e 80BD     	 pop {r7,pc}
 1777              	 .cfi_endproc
 1778              	.LFE23:
 1780              	 .section .text.mbedtls_oid_get_oid_by_ec_grp,"ax",%progbits
 1781              	 .align 2
 1782              	 .global mbedtls_oid_get_oid_by_ec_grp
 1783              	 .thumb
 1784              	 .thumb_func
 1786              	mbedtls_oid_get_oid_by_ec_grp:
 1787              	.LFB24:
 532:C:/Users/Yushev/git/wpcqi-optiga-trust-charge/optiga/externals/mbedtls/library\oid.c **** FN_OID_GET_OID_BY_ATTR1(mbedtls_oid_get_oid_by_ec_grp, oid_ecp_grp_t, oid_ecp_grp, mbedtls_ecp_grou
 1788              	 .loc 1 532 0 is_stmt 1
 1789              	 .cfi_startproc
 1790              	 
 1791              	 
 1792              	 
 1793 0000 80B4     	 push {r7}
 1794              	.LCFI77:
 1795              	 .cfi_def_cfa_offset 4
 1796              	 .cfi_offset 7,-4
 1797 0002 87B0     	 sub sp,sp,#28
 1798              	.LCFI78:
 1799              	 .cfi_def_cfa_offset 32
 1800 0004 00AF     	 add r7,sp,#0
 1801              	.LCFI79:
 1802              	 .cfi_def_cfa_register 7
 1803 0006 0346     	 mov r3,r0
 1804 0008 B960     	 str r1,[r7,#8]
 1805 000a 7A60     	 str r2,[r7,#4]
 1806 000c FB73     	 strb r3,[r7,#15]
 1807              	 .loc 1 532 0
 1808 000e 104B     	 ldr r3,.L95
 1809 0010 7B61     	 str r3,[r7,#20]
 1810 0012 11E0     	 b .L91
 1811              	.L94:
 1812              	 .loc 1 532 0 is_stmt 0 discriminator 5
 1813 0014 7B69     	 ldr r3,[r7,#20]
 1814 0016 1B7C     	 ldrb r3,[r3,#16]
 1815 0018 FA7B     	 ldrb r2,[r7,#15]
 1816 001a 9A42     	 cmp r2,r3
 1817 001c 09D1     	 bne .L92
 1818              	 .loc 1 532 0 discriminator 2
 1819 001e 7B69     	 ldr r3,[r7,#20]
 1820 0020 1A68     	 ldr r2,[r3]
 1821 0022 BB68     	 ldr r3,[r7,#8]
 1822 0024 1A60     	 str r2,[r3]
 1823 0026 7B69     	 ldr r3,[r7,#20]
 1824 0028 5A68     	 ldr r2,[r3,#4]
 1825 002a 7B68     	 ldr r3,[r7,#4]
 1826 002c 1A60     	 str r2,[r3]
 1827 002e 0023     	 movs r3,#0
 1828 0030 08E0     	 b .L93
 1829              	.L92:
 1830              	 .loc 1 532 0 discriminator 3
 1831 0032 7B69     	 ldr r3,[r7,#20]
 1832 0034 1433     	 adds r3,r3,#20
 1833 0036 7B61     	 str r3,[r7,#20]
 1834              	.L91:
 1835              	 .loc 1 532 0 discriminator 4
 1836 0038 7B69     	 ldr r3,[r7,#20]
 1837 003a 1B68     	 ldr r3,[r3]
 1838 003c 002B     	 cmp r3,#0
 1839 003e E9D1     	 bne .L94
 1840              	 .loc 1 532 0 discriminator 6
 1841 0040 6FF02D03 	 mvn r3,#45
 1842              	.L93:
 1843              	 .loc 1 532 0
 1844 0044 1846     	 mov r0,r3
 1845 0046 1C37     	 adds r7,r7,#28
 1846              	.LCFI80:
 1847              	 .cfi_def_cfa_offset 4
 1848 0048 BD46     	 mov sp,r7
 1849              	.LCFI81:
 1850              	 .cfi_def_cfa_register 13
 1851              	 
 1852 004a 5DF8047B 	 ldr r7,[sp],#4
 1853              	.LCFI82:
 1854              	 .cfi_restore 7
 1855              	 .cfi_def_cfa_offset 0
 1856 004e 7047     	 bx lr
 1857              	.L96:
 1858              	 .align 2
 1859              	.L95:
 1860 0050 00000000 	 .word oid_ecp_grp
 1861              	 .cfi_endproc
 1862              	.LFE24:
 1864              	 .section .rodata
 1865 0636 0000     	 .align 2
 1866              	.LC119:
 1867 0638 2B0E0302 	 .ascii "+\016\003\002\007\000"
 1867      0700
 1868 063e 0000     	 .align 2
 1869              	.LC120:
 1870 0640 64657343 	 .ascii "desCBC\000"
 1870      424300
 1871 0647 00       	 .align 2
 1872              	.LC121:
 1873 0648 4445532D 	 .ascii "DES-CBC\000"
 1873      43424300 
 1874              	 .align 2
 1875              	.LC122:
 1876 0650 2A864886 	 .ascii "*\206H\206\367\015\003\007\000"
 1876      F70D0307 
 1876      00
 1877 0659 000000   	 .align 2
 1878              	.LC123:
 1879 065c 6465732D 	 .ascii "des-ede3-cbc\000"
 1879      65646533 
 1879      2D636263 
 1879      00
 1880 0669 000000   	 .align 2
 1881              	.LC124:
 1882 066c 4445532D 	 .ascii "DES-EDE3-CBC\000"
 1882      45444533 
 1882      2D434243 
 1882      00
 1883              	 .section .rodata.oid_cipher_alg,"a",%progbits
 1884              	 .align 2
 1887              	oid_cipher_alg:
 1888 0000 38060000 	 .word .LC119
 1889 0004 05000000 	 .word 5
 1890 0008 40060000 	 .word .LC120
 1891 000c 48060000 	 .word .LC121
 1892 0010 21       	 .byte 33
 1893 0011 000000   	 .space 3
 1894 0014 50060000 	 .word .LC122
 1895 0018 08000000 	 .word 8
 1896 001c 5C060000 	 .word .LC123
 1897 0020 6C060000 	 .word .LC124
 1898 0024 25       	 .byte 37
 1899 0025 000000   	 .space 3
 1900 0028 00000000 	 .word 0
 1901 002c 00000000 	 .word 0
 1902 0030 00000000 	 .word 0
 1903 0034 00000000 	 .word 0
 1904 0038 00       	 .byte 0
 1905 0039 000000   	 .space 3
 1906              	 .section .text.oid_cipher_alg_from_asn1,"ax",%progbits
 1907              	 .align 2
 1908              	 .thumb
 1909              	 .thumb_func
 1911              	oid_cipher_alg_from_asn1:
 1912              	.LFB25:
 533:C:/Users/Yushev/git/wpcqi-optiga-trust-charge/optiga/externals/mbedtls/library\oid.c **** #endif /* MBEDTLS_ECP_C */
 534:C:/Users/Yushev/git/wpcqi-optiga-trust-charge/optiga/externals/mbedtls/library\oid.c **** 
 535:C:/Users/Yushev/git/wpcqi-optiga-trust-charge/optiga/externals/mbedtls/library\oid.c **** #if defined(MBEDTLS_CIPHER_C)
 536:C:/Users/Yushev/git/wpcqi-optiga-trust-charge/optiga/externals/mbedtls/library\oid.c **** /*
 537:C:/Users/Yushev/git/wpcqi-optiga-trust-charge/optiga/externals/mbedtls/library\oid.c ****  * For PKCS#5 PBES2 encryption algorithm
 538:C:/Users/Yushev/git/wpcqi-optiga-trust-charge/optiga/externals/mbedtls/library\oid.c ****  */
 539:C:/Users/Yushev/git/wpcqi-optiga-trust-charge/optiga/externals/mbedtls/library\oid.c **** typedef struct {
 540:C:/Users/Yushev/git/wpcqi-optiga-trust-charge/optiga/externals/mbedtls/library\oid.c ****     mbedtls_oid_descriptor_t    descriptor;
 541:C:/Users/Yushev/git/wpcqi-optiga-trust-charge/optiga/externals/mbedtls/library\oid.c ****     mbedtls_cipher_type_t       cipher_alg;
 542:C:/Users/Yushev/git/wpcqi-optiga-trust-charge/optiga/externals/mbedtls/library\oid.c **** } oid_cipher_alg_t;
 543:C:/Users/Yushev/git/wpcqi-optiga-trust-charge/optiga/externals/mbedtls/library\oid.c **** 
 544:C:/Users/Yushev/git/wpcqi-optiga-trust-charge/optiga/externals/mbedtls/library\oid.c **** static const oid_cipher_alg_t oid_cipher_alg[] =
 545:C:/Users/Yushev/git/wpcqi-optiga-trust-charge/optiga/externals/mbedtls/library\oid.c **** {
 546:C:/Users/Yushev/git/wpcqi-optiga-trust-charge/optiga/externals/mbedtls/library\oid.c ****     {
 547:C:/Users/Yushev/git/wpcqi-optiga-trust-charge/optiga/externals/mbedtls/library\oid.c ****         { ADD_LEN( MBEDTLS_OID_DES_CBC ),              "desCBC",       "DES-CBC" },
 548:C:/Users/Yushev/git/wpcqi-optiga-trust-charge/optiga/externals/mbedtls/library\oid.c ****         MBEDTLS_CIPHER_DES_CBC,
 549:C:/Users/Yushev/git/wpcqi-optiga-trust-charge/optiga/externals/mbedtls/library\oid.c ****     },
 550:C:/Users/Yushev/git/wpcqi-optiga-trust-charge/optiga/externals/mbedtls/library\oid.c ****     {
 551:C:/Users/Yushev/git/wpcqi-optiga-trust-charge/optiga/externals/mbedtls/library\oid.c ****         { ADD_LEN( MBEDTLS_OID_DES_EDE3_CBC ),         "des-ede3-cbc", "DES-EDE3-CBC" },
 552:C:/Users/Yushev/git/wpcqi-optiga-trust-charge/optiga/externals/mbedtls/library\oid.c ****         MBEDTLS_CIPHER_DES_EDE3_CBC,
 553:C:/Users/Yushev/git/wpcqi-optiga-trust-charge/optiga/externals/mbedtls/library\oid.c ****     },
 554:C:/Users/Yushev/git/wpcqi-optiga-trust-charge/optiga/externals/mbedtls/library\oid.c ****     {
 555:C:/Users/Yushev/git/wpcqi-optiga-trust-charge/optiga/externals/mbedtls/library\oid.c ****         { NULL, 0, NULL, NULL },
 556:C:/Users/Yushev/git/wpcqi-optiga-trust-charge/optiga/externals/mbedtls/library\oid.c ****         MBEDTLS_CIPHER_NONE,
 557:C:/Users/Yushev/git/wpcqi-optiga-trust-charge/optiga/externals/mbedtls/library\oid.c ****     },
 558:C:/Users/Yushev/git/wpcqi-optiga-trust-charge/optiga/externals/mbedtls/library\oid.c **** };
 559:C:/Users/Yushev/git/wpcqi-optiga-trust-charge/optiga/externals/mbedtls/library\oid.c **** 
 560:C:/Users/Yushev/git/wpcqi-optiga-trust-charge/optiga/externals/mbedtls/library\oid.c **** FN_OID_TYPED_FROM_ASN1(oid_cipher_alg_t, cipher_alg, oid_cipher_alg)
 1913              	 .loc 1 560 0 is_stmt 1
 1914              	 .cfi_startproc
 1915              	 
 1916              	 
 1917 0000 80B5     	 push {r7,lr}
 1918              	.LCFI83:
 1919              	 .cfi_def_cfa_offset 8
 1920              	 .cfi_offset 7,-8
 1921              	 .cfi_offset 14,-4
 1922 0002 84B0     	 sub sp,sp,#16
 1923              	.LCFI84:
 1924              	 .cfi_def_cfa_offset 24
 1925 0004 00AF     	 add r7,sp,#0
 1926              	.LCFI85:
 1927              	 .cfi_def_cfa_register 7
 1928 0006 7860     	 str r0,[r7,#4]
 1929              	 .loc 1 560 0
 1930 0008 184B     	 ldr r3,.L104
 1931 000a FB60     	 str r3,[r7,#12]
 1932 000c FB68     	 ldr r3,[r7,#12]
 1933 000e BB60     	 str r3,[r7,#8]
 1934 0010 FB68     	 ldr r3,[r7,#12]
 1935 0012 002B     	 cmp r3,#0
 1936 0014 02D0     	 beq .L98
 1937              	 .loc 1 560 0 is_stmt 0 discriminator 2
 1938 0016 7B68     	 ldr r3,[r7,#4]
 1939 0018 002B     	 cmp r3,#0
 1940 001a 01D1     	 bne .L99
 1941              	.L98:
 1942              	 .loc 1 560 0 discriminator 3
 1943 001c 0023     	 movs r3,#0
 1944 001e 20E0     	 b .L100
 1945              	.L99:
 1946              	 .loc 1 560 0
 1947 0020 1AE0     	 b .L101
 1948              	.L103:
 1949              	 .loc 1 560 0 discriminator 9
 1950 0022 BB68     	 ldr r3,[r7,#8]
 1951 0024 5A68     	 ldr r2,[r3,#4]
 1952 0026 7B68     	 ldr r3,[r7,#4]
 1953 0028 5B68     	 ldr r3,[r3,#4]
 1954 002a 9A42     	 cmp r2,r3
 1955 002c 0FD1     	 bne .L102
 1956              	 .loc 1 560 0 discriminator 4
 1957 002e BB68     	 ldr r3,[r7,#8]
 1958 0030 1968     	 ldr r1,[r3]
 1959 0032 7B68     	 ldr r3,[r7,#4]
 1960 0034 9A68     	 ldr r2,[r3,#8]
 1961 0036 7B68     	 ldr r3,[r7,#4]
 1962 0038 5B68     	 ldr r3,[r3,#4]
 1963 003a 0846     	 mov r0,r1
 1964 003c 1146     	 mov r1,r2
 1965 003e 1A46     	 mov r2,r3
 1966 0040 FFF7FEFF 	 bl memcmp
 1967 0044 0346     	 mov r3,r0
 1968 0046 002B     	 cmp r3,#0
 1969 0048 01D1     	 bne .L102
 1970              	 .loc 1 560 0 discriminator 6
 1971 004a FB68     	 ldr r3,[r7,#12]
 1972 004c 09E0     	 b .L100
 1973              	.L102:
 1974              	 .loc 1 560 0 discriminator 7
 1975 004e FB68     	 ldr r3,[r7,#12]
 1976 0050 1433     	 adds r3,r3,#20
 1977 0052 FB60     	 str r3,[r7,#12]
 1978 0054 FB68     	 ldr r3,[r7,#12]
 1979 0056 BB60     	 str r3,[r7,#8]
 1980              	.L101:
 1981              	 .loc 1 560 0 discriminator 8
 1982 0058 BB68     	 ldr r3,[r7,#8]
 1983 005a 1B68     	 ldr r3,[r3]
 1984 005c 002B     	 cmp r3,#0
 1985 005e E0D1     	 bne .L103
 1986              	 .loc 1 560 0 discriminator 10
 1987 0060 0023     	 movs r3,#0
 1988              	.L100:
 1989              	 .loc 1 560 0
 1990 0062 1846     	 mov r0,r3
 1991 0064 1037     	 adds r7,r7,#16
 1992              	.LCFI86:
 1993              	 .cfi_def_cfa_offset 8
 1994 0066 BD46     	 mov sp,r7
 1995              	.LCFI87:
 1996              	 .cfi_def_cfa_register 13
 1997              	 
 1998 0068 80BD     	 pop {r7,pc}
 1999              	.L105:
 2000 006a 00BF     	 .align 2
 2001              	.L104:
 2002 006c 00000000 	 .word oid_cipher_alg
 2003              	 .cfi_endproc
 2004              	.LFE25:
 2006              	 .section .text.mbedtls_oid_get_cipher_alg,"ax",%progbits
 2007              	 .align 2
 2008              	 .global mbedtls_oid_get_cipher_alg
 2009              	 .thumb
 2010              	 .thumb_func
 2012              	mbedtls_oid_get_cipher_alg:
 2013              	.LFB26:
 561:C:/Users/Yushev/git/wpcqi-optiga-trust-charge/optiga/externals/mbedtls/library\oid.c **** FN_OID_GET_ATTR1(mbedtls_oid_get_cipher_alg, oid_cipher_alg_t, cipher_alg, mbedtls_cipher_type_t, c
 2014              	 .loc 1 561 0 is_stmt 1
 2015              	 .cfi_startproc
 2016              	 
 2017              	 
 2018 0000 80B5     	 push {r7,lr}
 2019              	.LCFI88:
 2020              	 .cfi_def_cfa_offset 8
 2021              	 .cfi_offset 7,-8
 2022              	 .cfi_offset 14,-4
 2023 0002 84B0     	 sub sp,sp,#16
 2024              	.LCFI89:
 2025              	 .cfi_def_cfa_offset 24
 2026 0004 00AF     	 add r7,sp,#0
 2027              	.LCFI90:
 2028              	 .cfi_def_cfa_register 7
 2029 0006 7860     	 str r0,[r7,#4]
 2030 0008 3960     	 str r1,[r7]
 2031              	 .loc 1 561 0
 2032 000a 7868     	 ldr r0,[r7,#4]
 2033 000c FFF7FEFF 	 bl oid_cipher_alg_from_asn1
 2034 0010 F860     	 str r0,[r7,#12]
 2035 0012 FB68     	 ldr r3,[r7,#12]
 2036 0014 002B     	 cmp r3,#0
 2037 0016 02D1     	 bne .L107
 2038              	 .loc 1 561 0 is_stmt 0 discriminator 1
 2039 0018 6FF02D03 	 mvn r3,#45
 2040 001c 04E0     	 b .L108
 2041              	.L107:
 2042              	 .loc 1 561 0 discriminator 2
 2043 001e FB68     	 ldr r3,[r7,#12]
 2044 0020 1A7C     	 ldrb r2,[r3,#16]
 2045 0022 3B68     	 ldr r3,[r7]
 2046 0024 1A70     	 strb r2,[r3]
 2047 0026 0023     	 movs r3,#0
 2048              	.L108:
 2049              	 .loc 1 561 0
 2050 0028 1846     	 mov r0,r3
 2051 002a 1037     	 adds r7,r7,#16
 2052              	.LCFI91:
 2053              	 .cfi_def_cfa_offset 8
 2054 002c BD46     	 mov sp,r7
 2055              	.LCFI92:
 2056              	 .cfi_def_cfa_register 13
 2057              	 
 2058 002e 80BD     	 pop {r7,pc}
 2059              	 .cfi_endproc
 2060              	.LFE26:
 2062              	 .section .rodata
 2063 0679 000000   	 .align 2
 2064              	.LC125:
 2065 067c 60864801 	 .ascii "`\206H\001e\003\004\002\004\000"
 2065      65030402 
 2065      0400
 2066 0686 0000     	 .align 2
 2067              	.LC126:
 2068 0688 69642D73 	 .ascii "id-sha224\000"
 2068      68613232 
 2068      3400
 2069 0692 0000     	 .align 2
 2070              	.LC127:
 2071 0694 5348412D 	 .ascii "SHA-224\000"
 2071      32323400 
 2072              	 .align 2
 2073              	.LC128:
 2074 069c 60864801 	 .ascii "`\206H\001e\003\004\002\001\000"
 2074      65030402 
 2074      0100
 2075 06a6 0000     	 .align 2
 2076              	.LC129:
 2077 06a8 69642D73 	 .ascii "id-sha256\000"
 2077      68613235 
 2077      3600
 2078 06b2 0000     	 .align 2
 2079              	.LC130:
 2080 06b4 5348412D 	 .ascii "SHA-256\000"
 2080      32353600 
 2081              	 .section .rodata.oid_md_alg,"a",%progbits
 2082              	 .align 2
 2085              	oid_md_alg:
 2086 0000 7C060000 	 .word .LC125
 2087 0004 09000000 	 .word 9
 2088 0008 88060000 	 .word .LC126
 2089 000c 94060000 	 .word .LC127
 2090 0010 05       	 .byte 5
 2091 0011 000000   	 .space 3
 2092 0014 9C060000 	 .word .LC128
 2093 0018 09000000 	 .word 9
 2094 001c A8060000 	 .word .LC129
 2095 0020 B4060000 	 .word .LC130
 2096 0024 06       	 .byte 6
 2097 0025 000000   	 .space 3
 2098 0028 00000000 	 .word 0
 2099 002c 00000000 	 .word 0
 2100 0030 00000000 	 .word 0
 2101 0034 00000000 	 .word 0
 2102 0038 00       	 .byte 0
 2103 0039 000000   	 .space 3
 2104              	 .section .text.oid_md_alg_from_asn1,"ax",%progbits
 2105              	 .align 2
 2106              	 .thumb
 2107              	 .thumb_func
 2109              	oid_md_alg_from_asn1:
 2110              	.LFB27:
 562:C:/Users/Yushev/git/wpcqi-optiga-trust-charge/optiga/externals/mbedtls/library\oid.c **** #endif /* MBEDTLS_CIPHER_C */
 563:C:/Users/Yushev/git/wpcqi-optiga-trust-charge/optiga/externals/mbedtls/library\oid.c **** 
 564:C:/Users/Yushev/git/wpcqi-optiga-trust-charge/optiga/externals/mbedtls/library\oid.c **** #if defined(MBEDTLS_MD_C)
 565:C:/Users/Yushev/git/wpcqi-optiga-trust-charge/optiga/externals/mbedtls/library\oid.c **** /*
 566:C:/Users/Yushev/git/wpcqi-optiga-trust-charge/optiga/externals/mbedtls/library\oid.c ****  * For digestAlgorithm
 567:C:/Users/Yushev/git/wpcqi-optiga-trust-charge/optiga/externals/mbedtls/library\oid.c ****  */
 568:C:/Users/Yushev/git/wpcqi-optiga-trust-charge/optiga/externals/mbedtls/library\oid.c **** typedef struct {
 569:C:/Users/Yushev/git/wpcqi-optiga-trust-charge/optiga/externals/mbedtls/library\oid.c ****     mbedtls_oid_descriptor_t    descriptor;
 570:C:/Users/Yushev/git/wpcqi-optiga-trust-charge/optiga/externals/mbedtls/library\oid.c ****     mbedtls_md_type_t           md_alg;
 571:C:/Users/Yushev/git/wpcqi-optiga-trust-charge/optiga/externals/mbedtls/library\oid.c **** } oid_md_alg_t;
 572:C:/Users/Yushev/git/wpcqi-optiga-trust-charge/optiga/externals/mbedtls/library\oid.c **** 
 573:C:/Users/Yushev/git/wpcqi-optiga-trust-charge/optiga/externals/mbedtls/library\oid.c **** static const oid_md_alg_t oid_md_alg[] =
 574:C:/Users/Yushev/git/wpcqi-optiga-trust-charge/optiga/externals/mbedtls/library\oid.c **** {
 575:C:/Users/Yushev/git/wpcqi-optiga-trust-charge/optiga/externals/mbedtls/library\oid.c **** #if defined(MBEDTLS_MD2_C)
 576:C:/Users/Yushev/git/wpcqi-optiga-trust-charge/optiga/externals/mbedtls/library\oid.c ****     {
 577:C:/Users/Yushev/git/wpcqi-optiga-trust-charge/optiga/externals/mbedtls/library\oid.c ****         { ADD_LEN( MBEDTLS_OID_DIGEST_ALG_MD2 ),       "id-md2",       "MD2" },
 578:C:/Users/Yushev/git/wpcqi-optiga-trust-charge/optiga/externals/mbedtls/library\oid.c ****         MBEDTLS_MD_MD2,
 579:C:/Users/Yushev/git/wpcqi-optiga-trust-charge/optiga/externals/mbedtls/library\oid.c ****     },
 580:C:/Users/Yushev/git/wpcqi-optiga-trust-charge/optiga/externals/mbedtls/library\oid.c **** #endif /* MBEDTLS_MD2_C */
 581:C:/Users/Yushev/git/wpcqi-optiga-trust-charge/optiga/externals/mbedtls/library\oid.c **** #if defined(MBEDTLS_MD4_C)
 582:C:/Users/Yushev/git/wpcqi-optiga-trust-charge/optiga/externals/mbedtls/library\oid.c ****     {
 583:C:/Users/Yushev/git/wpcqi-optiga-trust-charge/optiga/externals/mbedtls/library\oid.c ****         { ADD_LEN( MBEDTLS_OID_DIGEST_ALG_MD4 ),       "id-md4",       "MD4" },
 584:C:/Users/Yushev/git/wpcqi-optiga-trust-charge/optiga/externals/mbedtls/library\oid.c ****         MBEDTLS_MD_MD4,
 585:C:/Users/Yushev/git/wpcqi-optiga-trust-charge/optiga/externals/mbedtls/library\oid.c ****     },
 586:C:/Users/Yushev/git/wpcqi-optiga-trust-charge/optiga/externals/mbedtls/library\oid.c **** #endif /* MBEDTLS_MD4_C */
 587:C:/Users/Yushev/git/wpcqi-optiga-trust-charge/optiga/externals/mbedtls/library\oid.c **** #if defined(MBEDTLS_MD5_C)
 588:C:/Users/Yushev/git/wpcqi-optiga-trust-charge/optiga/externals/mbedtls/library\oid.c ****     {
 589:C:/Users/Yushev/git/wpcqi-optiga-trust-charge/optiga/externals/mbedtls/library\oid.c ****         { ADD_LEN( MBEDTLS_OID_DIGEST_ALG_MD5 ),       "id-md5",       "MD5" },
 590:C:/Users/Yushev/git/wpcqi-optiga-trust-charge/optiga/externals/mbedtls/library\oid.c ****         MBEDTLS_MD_MD5,
 591:C:/Users/Yushev/git/wpcqi-optiga-trust-charge/optiga/externals/mbedtls/library\oid.c ****     },
 592:C:/Users/Yushev/git/wpcqi-optiga-trust-charge/optiga/externals/mbedtls/library\oid.c **** #endif /* MBEDTLS_MD5_C */
 593:C:/Users/Yushev/git/wpcqi-optiga-trust-charge/optiga/externals/mbedtls/library\oid.c **** #if defined(MBEDTLS_SHA1_C)
 594:C:/Users/Yushev/git/wpcqi-optiga-trust-charge/optiga/externals/mbedtls/library\oid.c ****     {
 595:C:/Users/Yushev/git/wpcqi-optiga-trust-charge/optiga/externals/mbedtls/library\oid.c ****         { ADD_LEN( MBEDTLS_OID_DIGEST_ALG_SHA1 ),      "id-sha1",      "SHA-1" },
 596:C:/Users/Yushev/git/wpcqi-optiga-trust-charge/optiga/externals/mbedtls/library\oid.c ****         MBEDTLS_MD_SHA1,
 597:C:/Users/Yushev/git/wpcqi-optiga-trust-charge/optiga/externals/mbedtls/library\oid.c ****     },
 598:C:/Users/Yushev/git/wpcqi-optiga-trust-charge/optiga/externals/mbedtls/library\oid.c **** #endif /* MBEDTLS_SHA1_C */
 599:C:/Users/Yushev/git/wpcqi-optiga-trust-charge/optiga/externals/mbedtls/library\oid.c **** #if defined(MBEDTLS_SHA256_C)
 600:C:/Users/Yushev/git/wpcqi-optiga-trust-charge/optiga/externals/mbedtls/library\oid.c ****     {
 601:C:/Users/Yushev/git/wpcqi-optiga-trust-charge/optiga/externals/mbedtls/library\oid.c ****         { ADD_LEN( MBEDTLS_OID_DIGEST_ALG_SHA224 ),    "id-sha224",    "SHA-224" },
 602:C:/Users/Yushev/git/wpcqi-optiga-trust-charge/optiga/externals/mbedtls/library\oid.c ****         MBEDTLS_MD_SHA224,
 603:C:/Users/Yushev/git/wpcqi-optiga-trust-charge/optiga/externals/mbedtls/library\oid.c ****     },
 604:C:/Users/Yushev/git/wpcqi-optiga-trust-charge/optiga/externals/mbedtls/library\oid.c ****     {
 605:C:/Users/Yushev/git/wpcqi-optiga-trust-charge/optiga/externals/mbedtls/library\oid.c ****         { ADD_LEN( MBEDTLS_OID_DIGEST_ALG_SHA256 ),    "id-sha256",    "SHA-256" },
 606:C:/Users/Yushev/git/wpcqi-optiga-trust-charge/optiga/externals/mbedtls/library\oid.c ****         MBEDTLS_MD_SHA256,
 607:C:/Users/Yushev/git/wpcqi-optiga-trust-charge/optiga/externals/mbedtls/library\oid.c ****     },
 608:C:/Users/Yushev/git/wpcqi-optiga-trust-charge/optiga/externals/mbedtls/library\oid.c **** #endif /* MBEDTLS_SHA256_C */
 609:C:/Users/Yushev/git/wpcqi-optiga-trust-charge/optiga/externals/mbedtls/library\oid.c **** #if defined(MBEDTLS_SHA512_C)
 610:C:/Users/Yushev/git/wpcqi-optiga-trust-charge/optiga/externals/mbedtls/library\oid.c ****     {
 611:C:/Users/Yushev/git/wpcqi-optiga-trust-charge/optiga/externals/mbedtls/library\oid.c ****         { ADD_LEN( MBEDTLS_OID_DIGEST_ALG_SHA384 ),    "id-sha384",    "SHA-384" },
 612:C:/Users/Yushev/git/wpcqi-optiga-trust-charge/optiga/externals/mbedtls/library\oid.c ****         MBEDTLS_MD_SHA384,
 613:C:/Users/Yushev/git/wpcqi-optiga-trust-charge/optiga/externals/mbedtls/library\oid.c ****     },
 614:C:/Users/Yushev/git/wpcqi-optiga-trust-charge/optiga/externals/mbedtls/library\oid.c ****     {
 615:C:/Users/Yushev/git/wpcqi-optiga-trust-charge/optiga/externals/mbedtls/library\oid.c ****         { ADD_LEN( MBEDTLS_OID_DIGEST_ALG_SHA512 ),    "id-sha512",    "SHA-512" },
 616:C:/Users/Yushev/git/wpcqi-optiga-trust-charge/optiga/externals/mbedtls/library\oid.c ****         MBEDTLS_MD_SHA512,
 617:C:/Users/Yushev/git/wpcqi-optiga-trust-charge/optiga/externals/mbedtls/library\oid.c ****     },
 618:C:/Users/Yushev/git/wpcqi-optiga-trust-charge/optiga/externals/mbedtls/library\oid.c **** #endif /* MBEDTLS_SHA512_C */
 619:C:/Users/Yushev/git/wpcqi-optiga-trust-charge/optiga/externals/mbedtls/library\oid.c ****     {
 620:C:/Users/Yushev/git/wpcqi-optiga-trust-charge/optiga/externals/mbedtls/library\oid.c ****         { NULL, 0, NULL, NULL },
 621:C:/Users/Yushev/git/wpcqi-optiga-trust-charge/optiga/externals/mbedtls/library\oid.c ****         MBEDTLS_MD_NONE,
 622:C:/Users/Yushev/git/wpcqi-optiga-trust-charge/optiga/externals/mbedtls/library\oid.c ****     },
 623:C:/Users/Yushev/git/wpcqi-optiga-trust-charge/optiga/externals/mbedtls/library\oid.c **** };
 624:C:/Users/Yushev/git/wpcqi-optiga-trust-charge/optiga/externals/mbedtls/library\oid.c **** 
 625:C:/Users/Yushev/git/wpcqi-optiga-trust-charge/optiga/externals/mbedtls/library\oid.c **** FN_OID_TYPED_FROM_ASN1(oid_md_alg_t, md_alg, oid_md_alg)
 2111              	 .loc 1 625 0 is_stmt 1
 2112              	 .cfi_startproc
 2113              	 
 2114              	 
 2115 0000 80B5     	 push {r7,lr}
 2116              	.LCFI93:
 2117              	 .cfi_def_cfa_offset 8
 2118              	 .cfi_offset 7,-8
 2119              	 .cfi_offset 14,-4
 2120 0002 84B0     	 sub sp,sp,#16
 2121              	.LCFI94:
 2122              	 .cfi_def_cfa_offset 24
 2123 0004 00AF     	 add r7,sp,#0
 2124              	.LCFI95:
 2125              	 .cfi_def_cfa_register 7
 2126 0006 7860     	 str r0,[r7,#4]
 2127              	 .loc 1 625 0
 2128 0008 184B     	 ldr r3,.L116
 2129 000a FB60     	 str r3,[r7,#12]
 2130 000c FB68     	 ldr r3,[r7,#12]
 2131 000e BB60     	 str r3,[r7,#8]
 2132 0010 FB68     	 ldr r3,[r7,#12]
 2133 0012 002B     	 cmp r3,#0
 2134 0014 02D0     	 beq .L110
 2135              	 .loc 1 625 0 is_stmt 0 discriminator 2
 2136 0016 7B68     	 ldr r3,[r7,#4]
 2137 0018 002B     	 cmp r3,#0
 2138 001a 01D1     	 bne .L111
 2139              	.L110:
 2140              	 .loc 1 625 0 discriminator 3
 2141 001c 0023     	 movs r3,#0
 2142 001e 20E0     	 b .L112
 2143              	.L111:
 2144              	 .loc 1 625 0
 2145 0020 1AE0     	 b .L113
 2146              	.L115:
 2147              	 .loc 1 625 0 discriminator 9
 2148 0022 BB68     	 ldr r3,[r7,#8]
 2149 0024 5A68     	 ldr r2,[r3,#4]
 2150 0026 7B68     	 ldr r3,[r7,#4]
 2151 0028 5B68     	 ldr r3,[r3,#4]
 2152 002a 9A42     	 cmp r2,r3
 2153 002c 0FD1     	 bne .L114
 2154              	 .loc 1 625 0 discriminator 4
 2155 002e BB68     	 ldr r3,[r7,#8]
 2156 0030 1968     	 ldr r1,[r3]
 2157 0032 7B68     	 ldr r3,[r7,#4]
 2158 0034 9A68     	 ldr r2,[r3,#8]
 2159 0036 7B68     	 ldr r3,[r7,#4]
 2160 0038 5B68     	 ldr r3,[r3,#4]
 2161 003a 0846     	 mov r0,r1
 2162 003c 1146     	 mov r1,r2
 2163 003e 1A46     	 mov r2,r3
 2164 0040 FFF7FEFF 	 bl memcmp
 2165 0044 0346     	 mov r3,r0
 2166 0046 002B     	 cmp r3,#0
 2167 0048 01D1     	 bne .L114
 2168              	 .loc 1 625 0 discriminator 6
 2169 004a FB68     	 ldr r3,[r7,#12]
 2170 004c 09E0     	 b .L112
 2171              	.L114:
 2172              	 .loc 1 625 0 discriminator 7
 2173 004e FB68     	 ldr r3,[r7,#12]
 2174 0050 1433     	 adds r3,r3,#20
 2175 0052 FB60     	 str r3,[r7,#12]
 2176 0054 FB68     	 ldr r3,[r7,#12]
 2177 0056 BB60     	 str r3,[r7,#8]
 2178              	.L113:
 2179              	 .loc 1 625 0 discriminator 8
 2180 0058 BB68     	 ldr r3,[r7,#8]
 2181 005a 1B68     	 ldr r3,[r3]
 2182 005c 002B     	 cmp r3,#0
 2183 005e E0D1     	 bne .L115
 2184              	 .loc 1 625 0 discriminator 10
 2185 0060 0023     	 movs r3,#0
 2186              	.L112:
 2187              	 .loc 1 625 0
 2188 0062 1846     	 mov r0,r3
 2189 0064 1037     	 adds r7,r7,#16
 2190              	.LCFI96:
 2191              	 .cfi_def_cfa_offset 8
 2192 0066 BD46     	 mov sp,r7
 2193              	.LCFI97:
 2194              	 .cfi_def_cfa_register 13
 2195              	 
 2196 0068 80BD     	 pop {r7,pc}
 2197              	.L117:
 2198 006a 00BF     	 .align 2
 2199              	.L116:
 2200 006c 00000000 	 .word oid_md_alg
 2201              	 .cfi_endproc
 2202              	.LFE27:
 2204              	 .section .text.mbedtls_oid_get_md_alg,"ax",%progbits
 2205              	 .align 2
 2206              	 .global mbedtls_oid_get_md_alg
 2207              	 .thumb
 2208              	 .thumb_func
 2210              	mbedtls_oid_get_md_alg:
 2211              	.LFB28:
 626:C:/Users/Yushev/git/wpcqi-optiga-trust-charge/optiga/externals/mbedtls/library\oid.c **** FN_OID_GET_ATTR1(mbedtls_oid_get_md_alg, oid_md_alg_t, md_alg, mbedtls_md_type_t, md_alg)
 2212              	 .loc 1 626 0 is_stmt 1
 2213              	 .cfi_startproc
 2214              	 
 2215              	 
 2216 0000 80B5     	 push {r7,lr}
 2217              	.LCFI98:
 2218              	 .cfi_def_cfa_offset 8
 2219              	 .cfi_offset 7,-8
 2220              	 .cfi_offset 14,-4
 2221 0002 84B0     	 sub sp,sp,#16
 2222              	.LCFI99:
 2223              	 .cfi_def_cfa_offset 24
 2224 0004 00AF     	 add r7,sp,#0
 2225              	.LCFI100:
 2226              	 .cfi_def_cfa_register 7
 2227 0006 7860     	 str r0,[r7,#4]
 2228 0008 3960     	 str r1,[r7]
 2229              	 .loc 1 626 0
 2230 000a 7868     	 ldr r0,[r7,#4]
 2231 000c FFF7FEFF 	 bl oid_md_alg_from_asn1
 2232 0010 F860     	 str r0,[r7,#12]
 2233 0012 FB68     	 ldr r3,[r7,#12]
 2234 0014 002B     	 cmp r3,#0
 2235 0016 02D1     	 bne .L119
 2236              	 .loc 1 626 0 is_stmt 0 discriminator 1
 2237 0018 6FF02D03 	 mvn r3,#45
 2238 001c 04E0     	 b .L120
 2239              	.L119:
 2240              	 .loc 1 626 0 discriminator 2
 2241 001e FB68     	 ldr r3,[r7,#12]
 2242 0020 1A7C     	 ldrb r2,[r3,#16]
 2243 0022 3B68     	 ldr r3,[r7]
 2244 0024 1A70     	 strb r2,[r3]
 2245 0026 0023     	 movs r3,#0
 2246              	.L120:
 2247              	 .loc 1 626 0
 2248 0028 1846     	 mov r0,r3
 2249 002a 1037     	 adds r7,r7,#16
 2250              	.LCFI101:
 2251              	 .cfi_def_cfa_offset 8
 2252 002c BD46     	 mov sp,r7
 2253              	.LCFI102:
 2254              	 .cfi_def_cfa_register 13
 2255              	 
 2256 002e 80BD     	 pop {r7,pc}
 2257              	 .cfi_endproc
 2258              	.LFE28:
 2260              	 .section .text.mbedtls_oid_get_oid_by_md,"ax",%progbits
 2261              	 .align 2
 2262              	 .global mbedtls_oid_get_oid_by_md
 2263              	 .thumb
 2264              	 .thumb_func
 2266              	mbedtls_oid_get_oid_by_md:
 2267              	.LFB29:
 627:C:/Users/Yushev/git/wpcqi-optiga-trust-charge/optiga/externals/mbedtls/library\oid.c **** FN_OID_GET_OID_BY_ATTR1(mbedtls_oid_get_oid_by_md, oid_md_alg_t, oid_md_alg, mbedtls_md_type_t, md_
 2268              	 .loc 1 627 0 is_stmt 1
 2269              	 .cfi_startproc
 2270              	 
 2271              	 
 2272              	 
 2273 0000 80B4     	 push {r7}
 2274              	.LCFI103:
 2275              	 .cfi_def_cfa_offset 4
 2276              	 .cfi_offset 7,-4
 2277 0002 87B0     	 sub sp,sp,#28
 2278              	.LCFI104:
 2279              	 .cfi_def_cfa_offset 32
 2280 0004 00AF     	 add r7,sp,#0
 2281              	.LCFI105:
 2282              	 .cfi_def_cfa_register 7
 2283 0006 0346     	 mov r3,r0
 2284 0008 B960     	 str r1,[r7,#8]
 2285 000a 7A60     	 str r2,[r7,#4]
 2286 000c FB73     	 strb r3,[r7,#15]
 2287              	 .loc 1 627 0
 2288 000e 104B     	 ldr r3,.L126
 2289 0010 7B61     	 str r3,[r7,#20]
 2290 0012 11E0     	 b .L122
 2291              	.L125:
 2292              	 .loc 1 627 0 is_stmt 0 discriminator 5
 2293 0014 7B69     	 ldr r3,[r7,#20]
 2294 0016 1B7C     	 ldrb r3,[r3,#16]
 2295 0018 FA7B     	 ldrb r2,[r7,#15]
 2296 001a 9A42     	 cmp r2,r3
 2297 001c 09D1     	 bne .L123
 2298              	 .loc 1 627 0 discriminator 2
 2299 001e 7B69     	 ldr r3,[r7,#20]
 2300 0020 1A68     	 ldr r2,[r3]
 2301 0022 BB68     	 ldr r3,[r7,#8]
 2302 0024 1A60     	 str r2,[r3]
 2303 0026 7B69     	 ldr r3,[r7,#20]
 2304 0028 5A68     	 ldr r2,[r3,#4]
 2305 002a 7B68     	 ldr r3,[r7,#4]
 2306 002c 1A60     	 str r2,[r3]
 2307 002e 0023     	 movs r3,#0
 2308 0030 08E0     	 b .L124
 2309              	.L123:
 2310              	 .loc 1 627 0 discriminator 3
 2311 0032 7B69     	 ldr r3,[r7,#20]
 2312 0034 1433     	 adds r3,r3,#20
 2313 0036 7B61     	 str r3,[r7,#20]
 2314              	.L122:
 2315              	 .loc 1 627 0 discriminator 4
 2316 0038 7B69     	 ldr r3,[r7,#20]
 2317 003a 1B68     	 ldr r3,[r3]
 2318 003c 002B     	 cmp r3,#0
 2319 003e E9D1     	 bne .L125
 2320              	 .loc 1 627 0 discriminator 6
 2321 0040 6FF02D03 	 mvn r3,#45
 2322              	.L124:
 2323              	 .loc 1 627 0
 2324 0044 1846     	 mov r0,r3
 2325 0046 1C37     	 adds r7,r7,#28
 2326              	.LCFI106:
 2327              	 .cfi_def_cfa_offset 4
 2328 0048 BD46     	 mov sp,r7
 2329              	.LCFI107:
 2330              	 .cfi_def_cfa_register 13
 2331              	 
 2332 004a 5DF8047B 	 ldr r7,[sp],#4
 2333              	.LCFI108:
 2334              	 .cfi_restore 7
 2335              	 .cfi_def_cfa_offset 0
 2336 004e 7047     	 bx lr
 2337              	.L127:
 2338              	 .align 2
 2339              	.L126:
 2340 0050 00000000 	 .word oid_md_alg
 2341              	 .cfi_endproc
 2342              	.LFE29:
 2344              	 .section .rodata
 2345              	 .align 2
 2346              	.LC131:
 2347 06bc 2A864886 	 .ascii "*\206H\206\367\015\002\010\000"
 2347      F70D0208 
 2347      00
 2348 06c5 000000   	 .align 2
 2349              	.LC132:
 2350 06c8 686D6163 	 .ascii "hmacSHA224\000"
 2350      53484132 
 2350      323400
 2351 06d3 00       	 .align 2
 2352              	.LC133:
 2353 06d4 484D4143 	 .ascii "HMAC-SHA-224\000"
 2353      2D534841 
 2353      2D323234 
 2353      00
 2354 06e1 000000   	 .align 2
 2355              	.LC134:
 2356 06e4 2A864886 	 .ascii "*\206H\206\367\015\002\011\000"
 2356      F70D0209 
 2356      00
 2357 06ed 000000   	 .align 2
 2358              	.LC135:
 2359 06f0 686D6163 	 .ascii "hmacSHA256\000"
 2359      53484132 
 2359      353600
 2360 06fb 00       	 .align 2
 2361              	.LC136:
 2362 06fc 484D4143 	 .ascii "HMAC-SHA-256\000"
 2362      2D534841 
 2362      2D323536 
 2362      00
 2363              	 .section .rodata.oid_md_hmac,"a",%progbits
 2364              	 .align 2
 2367              	oid_md_hmac:
 2368 0000 BC060000 	 .word .LC131
 2369 0004 08000000 	 .word 8
 2370 0008 C8060000 	 .word .LC132
 2371 000c D4060000 	 .word .LC133
 2372 0010 05       	 .byte 5
 2373 0011 000000   	 .space 3
 2374 0014 E4060000 	 .word .LC134
 2375 0018 08000000 	 .word 8
 2376 001c F0060000 	 .word .LC135
 2377 0020 FC060000 	 .word .LC136
 2378 0024 06       	 .byte 6
 2379 0025 000000   	 .space 3
 2380 0028 00000000 	 .word 0
 2381 002c 00000000 	 .word 0
 2382 0030 00000000 	 .word 0
 2383 0034 00000000 	 .word 0
 2384 0038 00       	 .byte 0
 2385 0039 000000   	 .space 3
 2386              	 .section .text.oid_md_hmac_from_asn1,"ax",%progbits
 2387              	 .align 2
 2388              	 .thumb
 2389              	 .thumb_func
 2391              	oid_md_hmac_from_asn1:
 2392              	.LFB30:
 628:C:/Users/Yushev/git/wpcqi-optiga-trust-charge/optiga/externals/mbedtls/library\oid.c **** 
 629:C:/Users/Yushev/git/wpcqi-optiga-trust-charge/optiga/externals/mbedtls/library\oid.c **** /*
 630:C:/Users/Yushev/git/wpcqi-optiga-trust-charge/optiga/externals/mbedtls/library\oid.c ****  * For HMAC digestAlgorithm
 631:C:/Users/Yushev/git/wpcqi-optiga-trust-charge/optiga/externals/mbedtls/library\oid.c ****  */
 632:C:/Users/Yushev/git/wpcqi-optiga-trust-charge/optiga/externals/mbedtls/library\oid.c **** typedef struct {
 633:C:/Users/Yushev/git/wpcqi-optiga-trust-charge/optiga/externals/mbedtls/library\oid.c ****     mbedtls_oid_descriptor_t    descriptor;
 634:C:/Users/Yushev/git/wpcqi-optiga-trust-charge/optiga/externals/mbedtls/library\oid.c ****     mbedtls_md_type_t           md_hmac;
 635:C:/Users/Yushev/git/wpcqi-optiga-trust-charge/optiga/externals/mbedtls/library\oid.c **** } oid_md_hmac_t;
 636:C:/Users/Yushev/git/wpcqi-optiga-trust-charge/optiga/externals/mbedtls/library\oid.c **** 
 637:C:/Users/Yushev/git/wpcqi-optiga-trust-charge/optiga/externals/mbedtls/library\oid.c **** static const oid_md_hmac_t oid_md_hmac[] =
 638:C:/Users/Yushev/git/wpcqi-optiga-trust-charge/optiga/externals/mbedtls/library\oid.c **** {
 639:C:/Users/Yushev/git/wpcqi-optiga-trust-charge/optiga/externals/mbedtls/library\oid.c **** #if defined(MBEDTLS_SHA1_C)
 640:C:/Users/Yushev/git/wpcqi-optiga-trust-charge/optiga/externals/mbedtls/library\oid.c ****     {
 641:C:/Users/Yushev/git/wpcqi-optiga-trust-charge/optiga/externals/mbedtls/library\oid.c ****         { ADD_LEN( MBEDTLS_OID_HMAC_SHA1 ),      "hmacSHA1",      "HMAC-SHA-1" },
 642:C:/Users/Yushev/git/wpcqi-optiga-trust-charge/optiga/externals/mbedtls/library\oid.c ****         MBEDTLS_MD_SHA1,
 643:C:/Users/Yushev/git/wpcqi-optiga-trust-charge/optiga/externals/mbedtls/library\oid.c ****     },
 644:C:/Users/Yushev/git/wpcqi-optiga-trust-charge/optiga/externals/mbedtls/library\oid.c **** #endif /* MBEDTLS_SHA1_C */
 645:C:/Users/Yushev/git/wpcqi-optiga-trust-charge/optiga/externals/mbedtls/library\oid.c **** #if defined(MBEDTLS_SHA256_C)
 646:C:/Users/Yushev/git/wpcqi-optiga-trust-charge/optiga/externals/mbedtls/library\oid.c ****     {
 647:C:/Users/Yushev/git/wpcqi-optiga-trust-charge/optiga/externals/mbedtls/library\oid.c ****         { ADD_LEN( MBEDTLS_OID_HMAC_SHA224 ),    "hmacSHA224",    "HMAC-SHA-224" },
 648:C:/Users/Yushev/git/wpcqi-optiga-trust-charge/optiga/externals/mbedtls/library\oid.c ****         MBEDTLS_MD_SHA224,
 649:C:/Users/Yushev/git/wpcqi-optiga-trust-charge/optiga/externals/mbedtls/library\oid.c ****     },
 650:C:/Users/Yushev/git/wpcqi-optiga-trust-charge/optiga/externals/mbedtls/library\oid.c ****     {
 651:C:/Users/Yushev/git/wpcqi-optiga-trust-charge/optiga/externals/mbedtls/library\oid.c ****         { ADD_LEN( MBEDTLS_OID_HMAC_SHA256 ),    "hmacSHA256",    "HMAC-SHA-256" },
 652:C:/Users/Yushev/git/wpcqi-optiga-trust-charge/optiga/externals/mbedtls/library\oid.c ****         MBEDTLS_MD_SHA256,
 653:C:/Users/Yushev/git/wpcqi-optiga-trust-charge/optiga/externals/mbedtls/library\oid.c ****     },
 654:C:/Users/Yushev/git/wpcqi-optiga-trust-charge/optiga/externals/mbedtls/library\oid.c **** #endif /* MBEDTLS_SHA256_C */
 655:C:/Users/Yushev/git/wpcqi-optiga-trust-charge/optiga/externals/mbedtls/library\oid.c **** #if defined(MBEDTLS_SHA512_C)
 656:C:/Users/Yushev/git/wpcqi-optiga-trust-charge/optiga/externals/mbedtls/library\oid.c ****     {
 657:C:/Users/Yushev/git/wpcqi-optiga-trust-charge/optiga/externals/mbedtls/library\oid.c ****         { ADD_LEN( MBEDTLS_OID_HMAC_SHA384 ),    "hmacSHA384",    "HMAC-SHA-384" },
 658:C:/Users/Yushev/git/wpcqi-optiga-trust-charge/optiga/externals/mbedtls/library\oid.c ****         MBEDTLS_MD_SHA384,
 659:C:/Users/Yushev/git/wpcqi-optiga-trust-charge/optiga/externals/mbedtls/library\oid.c ****     },
 660:C:/Users/Yushev/git/wpcqi-optiga-trust-charge/optiga/externals/mbedtls/library\oid.c ****     {
 661:C:/Users/Yushev/git/wpcqi-optiga-trust-charge/optiga/externals/mbedtls/library\oid.c ****         { ADD_LEN( MBEDTLS_OID_HMAC_SHA512 ),    "hmacSHA512",    "HMAC-SHA-512" },
 662:C:/Users/Yushev/git/wpcqi-optiga-trust-charge/optiga/externals/mbedtls/library\oid.c ****         MBEDTLS_MD_SHA512,
 663:C:/Users/Yushev/git/wpcqi-optiga-trust-charge/optiga/externals/mbedtls/library\oid.c ****     },
 664:C:/Users/Yushev/git/wpcqi-optiga-trust-charge/optiga/externals/mbedtls/library\oid.c **** #endif /* MBEDTLS_SHA512_C */
 665:C:/Users/Yushev/git/wpcqi-optiga-trust-charge/optiga/externals/mbedtls/library\oid.c ****     {
 666:C:/Users/Yushev/git/wpcqi-optiga-trust-charge/optiga/externals/mbedtls/library\oid.c ****         { NULL, 0, NULL, NULL },
 667:C:/Users/Yushev/git/wpcqi-optiga-trust-charge/optiga/externals/mbedtls/library\oid.c ****         MBEDTLS_MD_NONE,
 668:C:/Users/Yushev/git/wpcqi-optiga-trust-charge/optiga/externals/mbedtls/library\oid.c ****     },
 669:C:/Users/Yushev/git/wpcqi-optiga-trust-charge/optiga/externals/mbedtls/library\oid.c **** };
 670:C:/Users/Yushev/git/wpcqi-optiga-trust-charge/optiga/externals/mbedtls/library\oid.c **** 
 671:C:/Users/Yushev/git/wpcqi-optiga-trust-charge/optiga/externals/mbedtls/library\oid.c **** FN_OID_TYPED_FROM_ASN1(oid_md_hmac_t, md_hmac, oid_md_hmac)
 2393              	 .loc 1 671 0 is_stmt 1
 2394              	 .cfi_startproc
 2395              	 
 2396              	 
 2397 0000 80B5     	 push {r7,lr}
 2398              	.LCFI109:
 2399              	 .cfi_def_cfa_offset 8
 2400              	 .cfi_offset 7,-8
 2401              	 .cfi_offset 14,-4
 2402 0002 84B0     	 sub sp,sp,#16
 2403              	.LCFI110:
 2404              	 .cfi_def_cfa_offset 24
 2405 0004 00AF     	 add r7,sp,#0
 2406              	.LCFI111:
 2407              	 .cfi_def_cfa_register 7
 2408 0006 7860     	 str r0,[r7,#4]
 2409              	 .loc 1 671 0
 2410 0008 184B     	 ldr r3,.L135
 2411 000a FB60     	 str r3,[r7,#12]
 2412 000c FB68     	 ldr r3,[r7,#12]
 2413 000e BB60     	 str r3,[r7,#8]
 2414 0010 FB68     	 ldr r3,[r7,#12]
 2415 0012 002B     	 cmp r3,#0
 2416 0014 02D0     	 beq .L129
 2417              	 .loc 1 671 0 is_stmt 0 discriminator 2
 2418 0016 7B68     	 ldr r3,[r7,#4]
 2419 0018 002B     	 cmp r3,#0
 2420 001a 01D1     	 bne .L130
 2421              	.L129:
 2422              	 .loc 1 671 0 discriminator 3
 2423 001c 0023     	 movs r3,#0
 2424 001e 20E0     	 b .L131
 2425              	.L130:
 2426              	 .loc 1 671 0
 2427 0020 1AE0     	 b .L132
 2428              	.L134:
 2429              	 .loc 1 671 0 discriminator 9
 2430 0022 BB68     	 ldr r3,[r7,#8]
 2431 0024 5A68     	 ldr r2,[r3,#4]
 2432 0026 7B68     	 ldr r3,[r7,#4]
 2433 0028 5B68     	 ldr r3,[r3,#4]
 2434 002a 9A42     	 cmp r2,r3
 2435 002c 0FD1     	 bne .L133
 2436              	 .loc 1 671 0 discriminator 4
 2437 002e BB68     	 ldr r3,[r7,#8]
 2438 0030 1968     	 ldr r1,[r3]
 2439 0032 7B68     	 ldr r3,[r7,#4]
 2440 0034 9A68     	 ldr r2,[r3,#8]
 2441 0036 7B68     	 ldr r3,[r7,#4]
 2442 0038 5B68     	 ldr r3,[r3,#4]
 2443 003a 0846     	 mov r0,r1
 2444 003c 1146     	 mov r1,r2
 2445 003e 1A46     	 mov r2,r3
 2446 0040 FFF7FEFF 	 bl memcmp
 2447 0044 0346     	 mov r3,r0
 2448 0046 002B     	 cmp r3,#0
 2449 0048 01D1     	 bne .L133
 2450              	 .loc 1 671 0 discriminator 6
 2451 004a FB68     	 ldr r3,[r7,#12]
 2452 004c 09E0     	 b .L131
 2453              	.L133:
 2454              	 .loc 1 671 0 discriminator 7
 2455 004e FB68     	 ldr r3,[r7,#12]
 2456 0050 1433     	 adds r3,r3,#20
 2457 0052 FB60     	 str r3,[r7,#12]
 2458 0054 FB68     	 ldr r3,[r7,#12]
 2459 0056 BB60     	 str r3,[r7,#8]
 2460              	.L132:
 2461              	 .loc 1 671 0 discriminator 8
 2462 0058 BB68     	 ldr r3,[r7,#8]
 2463 005a 1B68     	 ldr r3,[r3]
 2464 005c 002B     	 cmp r3,#0
 2465 005e E0D1     	 bne .L134
 2466              	 .loc 1 671 0 discriminator 10
 2467 0060 0023     	 movs r3,#0
 2468              	.L131:
 2469              	 .loc 1 671 0
 2470 0062 1846     	 mov r0,r3
 2471 0064 1037     	 adds r7,r7,#16
 2472              	.LCFI112:
 2473              	 .cfi_def_cfa_offset 8
 2474 0066 BD46     	 mov sp,r7
 2475              	.LCFI113:
 2476              	 .cfi_def_cfa_register 13
 2477              	 
 2478 0068 80BD     	 pop {r7,pc}
 2479              	.L136:
 2480 006a 00BF     	 .align 2
 2481              	.L135:
 2482 006c 00000000 	 .word oid_md_hmac
 2483              	 .cfi_endproc
 2484              	.LFE30:
 2486              	 .section .text.mbedtls_oid_get_md_hmac,"ax",%progbits
 2487              	 .align 2
 2488              	 .global mbedtls_oid_get_md_hmac
 2489              	 .thumb
 2490              	 .thumb_func
 2492              	mbedtls_oid_get_md_hmac:
 2493              	.LFB31:
 672:C:/Users/Yushev/git/wpcqi-optiga-trust-charge/optiga/externals/mbedtls/library\oid.c **** FN_OID_GET_ATTR1(mbedtls_oid_get_md_hmac, oid_md_hmac_t, md_hmac, mbedtls_md_type_t, md_hmac)
 2494              	 .loc 1 672 0 is_stmt 1
 2495              	 .cfi_startproc
 2496              	 
 2497              	 
 2498 0000 80B5     	 push {r7,lr}
 2499              	.LCFI114:
 2500              	 .cfi_def_cfa_offset 8
 2501              	 .cfi_offset 7,-8
 2502              	 .cfi_offset 14,-4
 2503 0002 84B0     	 sub sp,sp,#16
 2504              	.LCFI115:
 2505              	 .cfi_def_cfa_offset 24
 2506 0004 00AF     	 add r7,sp,#0
 2507              	.LCFI116:
 2508              	 .cfi_def_cfa_register 7
 2509 0006 7860     	 str r0,[r7,#4]
 2510 0008 3960     	 str r1,[r7]
 2511              	 .loc 1 672 0
 2512 000a 7868     	 ldr r0,[r7,#4]
 2513 000c FFF7FEFF 	 bl oid_md_hmac_from_asn1
 2514 0010 F860     	 str r0,[r7,#12]
 2515 0012 FB68     	 ldr r3,[r7,#12]
 2516 0014 002B     	 cmp r3,#0
 2517 0016 02D1     	 bne .L138
 2518              	 .loc 1 672 0 is_stmt 0 discriminator 1
 2519 0018 6FF02D03 	 mvn r3,#45
 2520 001c 04E0     	 b .L139
 2521              	.L138:
 2522              	 .loc 1 672 0 discriminator 2
 2523 001e FB68     	 ldr r3,[r7,#12]
 2524 0020 1A7C     	 ldrb r2,[r3,#16]
 2525 0022 3B68     	 ldr r3,[r7]
 2526 0024 1A70     	 strb r2,[r3]
 2527 0026 0023     	 movs r3,#0
 2528              	.L139:
 2529              	 .loc 1 672 0
 2530 0028 1846     	 mov r0,r3
 2531 002a 1037     	 adds r7,r7,#16
 2532              	.LCFI117:
 2533              	 .cfi_def_cfa_offset 8
 2534 002c BD46     	 mov sp,r7
 2535              	.LCFI118:
 2536              	 .cfi_def_cfa_register 13
 2537              	 
 2538 002e 80BD     	 pop {r7,pc}
 2539              	 .cfi_endproc
 2540              	.LFE31:
 2542              	 .section .rodata
 2543 0709 000000   	 .align 2
 2544              	.LC137:
 2545 070c 25642E25 	 .ascii "%d.%d\000"
 2545      6400
 2546 0712 0000     	 .align 2
 2547              	.LC138:
 2548 0714 2E256400 	 .ascii ".%d\000"
 2549              	 .section .text.mbedtls_oid_get_numeric_string,"ax",%progbits
 2550              	 .align 2
 2551              	 .global mbedtls_oid_get_numeric_string
 2552              	 .thumb
 2553              	 .thumb_func
 2555              	mbedtls_oid_get_numeric_string:
 2556              	.LFB32:
 673:C:/Users/Yushev/git/wpcqi-optiga-trust-charge/optiga/externals/mbedtls/library\oid.c **** #endif /* MBEDTLS_MD_C */
 674:C:/Users/Yushev/git/wpcqi-optiga-trust-charge/optiga/externals/mbedtls/library\oid.c **** 
 675:C:/Users/Yushev/git/wpcqi-optiga-trust-charge/optiga/externals/mbedtls/library\oid.c **** #if defined(MBEDTLS_PKCS12_C)
 676:C:/Users/Yushev/git/wpcqi-optiga-trust-charge/optiga/externals/mbedtls/library\oid.c **** /*
 677:C:/Users/Yushev/git/wpcqi-optiga-trust-charge/optiga/externals/mbedtls/library\oid.c ****  * For PKCS#12 PBEs
 678:C:/Users/Yushev/git/wpcqi-optiga-trust-charge/optiga/externals/mbedtls/library\oid.c ****  */
 679:C:/Users/Yushev/git/wpcqi-optiga-trust-charge/optiga/externals/mbedtls/library\oid.c **** typedef struct {
 680:C:/Users/Yushev/git/wpcqi-optiga-trust-charge/optiga/externals/mbedtls/library\oid.c ****     mbedtls_oid_descriptor_t    descriptor;
 681:C:/Users/Yushev/git/wpcqi-optiga-trust-charge/optiga/externals/mbedtls/library\oid.c ****     mbedtls_md_type_t           md_alg;
 682:C:/Users/Yushev/git/wpcqi-optiga-trust-charge/optiga/externals/mbedtls/library\oid.c ****     mbedtls_cipher_type_t       cipher_alg;
 683:C:/Users/Yushev/git/wpcqi-optiga-trust-charge/optiga/externals/mbedtls/library\oid.c **** } oid_pkcs12_pbe_alg_t;
 684:C:/Users/Yushev/git/wpcqi-optiga-trust-charge/optiga/externals/mbedtls/library\oid.c **** 
 685:C:/Users/Yushev/git/wpcqi-optiga-trust-charge/optiga/externals/mbedtls/library\oid.c **** static const oid_pkcs12_pbe_alg_t oid_pkcs12_pbe_alg[] =
 686:C:/Users/Yushev/git/wpcqi-optiga-trust-charge/optiga/externals/mbedtls/library\oid.c **** {
 687:C:/Users/Yushev/git/wpcqi-optiga-trust-charge/optiga/externals/mbedtls/library\oid.c ****     {
 688:C:/Users/Yushev/git/wpcqi-optiga-trust-charge/optiga/externals/mbedtls/library\oid.c ****         { ADD_LEN( MBEDTLS_OID_PKCS12_PBE_SHA1_DES3_EDE_CBC ), "pbeWithSHAAnd3-KeyTripleDES-CBC", "
 689:C:/Users/Yushev/git/wpcqi-optiga-trust-charge/optiga/externals/mbedtls/library\oid.c ****         MBEDTLS_MD_SHA1,      MBEDTLS_CIPHER_DES_EDE3_CBC,
 690:C:/Users/Yushev/git/wpcqi-optiga-trust-charge/optiga/externals/mbedtls/library\oid.c ****     },
 691:C:/Users/Yushev/git/wpcqi-optiga-trust-charge/optiga/externals/mbedtls/library\oid.c ****     {
 692:C:/Users/Yushev/git/wpcqi-optiga-trust-charge/optiga/externals/mbedtls/library\oid.c ****         { ADD_LEN( MBEDTLS_OID_PKCS12_PBE_SHA1_DES2_EDE_CBC ), "pbeWithSHAAnd2-KeyTripleDES-CBC", "
 693:C:/Users/Yushev/git/wpcqi-optiga-trust-charge/optiga/externals/mbedtls/library\oid.c ****         MBEDTLS_MD_SHA1,      MBEDTLS_CIPHER_DES_EDE_CBC,
 694:C:/Users/Yushev/git/wpcqi-optiga-trust-charge/optiga/externals/mbedtls/library\oid.c ****     },
 695:C:/Users/Yushev/git/wpcqi-optiga-trust-charge/optiga/externals/mbedtls/library\oid.c ****     {
 696:C:/Users/Yushev/git/wpcqi-optiga-trust-charge/optiga/externals/mbedtls/library\oid.c ****         { NULL, 0, NULL, NULL },
 697:C:/Users/Yushev/git/wpcqi-optiga-trust-charge/optiga/externals/mbedtls/library\oid.c ****         MBEDTLS_MD_NONE, MBEDTLS_CIPHER_NONE,
 698:C:/Users/Yushev/git/wpcqi-optiga-trust-charge/optiga/externals/mbedtls/library\oid.c ****     },
 699:C:/Users/Yushev/git/wpcqi-optiga-trust-charge/optiga/externals/mbedtls/library\oid.c **** };
 700:C:/Users/Yushev/git/wpcqi-optiga-trust-charge/optiga/externals/mbedtls/library\oid.c **** 
 701:C:/Users/Yushev/git/wpcqi-optiga-trust-charge/optiga/externals/mbedtls/library\oid.c **** FN_OID_TYPED_FROM_ASN1(oid_pkcs12_pbe_alg_t, pkcs12_pbe_alg, oid_pkcs12_pbe_alg)
 702:C:/Users/Yushev/git/wpcqi-optiga-trust-charge/optiga/externals/mbedtls/library\oid.c **** FN_OID_GET_ATTR2(mbedtls_oid_get_pkcs12_pbe_alg, oid_pkcs12_pbe_alg_t, pkcs12_pbe_alg, mbedtls_md_t
 703:C:/Users/Yushev/git/wpcqi-optiga-trust-charge/optiga/externals/mbedtls/library\oid.c **** #endif /* MBEDTLS_PKCS12_C */
 704:C:/Users/Yushev/git/wpcqi-optiga-trust-charge/optiga/externals/mbedtls/library\oid.c **** 
 705:C:/Users/Yushev/git/wpcqi-optiga-trust-charge/optiga/externals/mbedtls/library\oid.c **** #define OID_SAFE_SNPRINTF                               \
 706:C:/Users/Yushev/git/wpcqi-optiga-trust-charge/optiga/externals/mbedtls/library\oid.c ****     do {                                                \
 707:C:/Users/Yushev/git/wpcqi-optiga-trust-charge/optiga/externals/mbedtls/library\oid.c ****         if( ret < 0 || (size_t) ret >= n )              \
 708:C:/Users/Yushev/git/wpcqi-optiga-trust-charge/optiga/externals/mbedtls/library\oid.c ****             return( MBEDTLS_ERR_OID_BUF_TOO_SMALL );    \
 709:C:/Users/Yushev/git/wpcqi-optiga-trust-charge/optiga/externals/mbedtls/library\oid.c ****                                                         \
 710:C:/Users/Yushev/git/wpcqi-optiga-trust-charge/optiga/externals/mbedtls/library\oid.c ****         n -= (size_t) ret;                              \
 711:C:/Users/Yushev/git/wpcqi-optiga-trust-charge/optiga/externals/mbedtls/library\oid.c ****         p += (size_t) ret;                              \
 712:C:/Users/Yushev/git/wpcqi-optiga-trust-charge/optiga/externals/mbedtls/library\oid.c ****     } while( 0 )
 713:C:/Users/Yushev/git/wpcqi-optiga-trust-charge/optiga/externals/mbedtls/library\oid.c **** 
 714:C:/Users/Yushev/git/wpcqi-optiga-trust-charge/optiga/externals/mbedtls/library\oid.c **** /* Return the x.y.z.... style numeric string for the given OID */
 715:C:/Users/Yushev/git/wpcqi-optiga-trust-charge/optiga/externals/mbedtls/library\oid.c **** int mbedtls_oid_get_numeric_string( char *buf, size_t size,
 716:C:/Users/Yushev/git/wpcqi-optiga-trust-charge/optiga/externals/mbedtls/library\oid.c ****                             const mbedtls_asn1_buf *oid )
 717:C:/Users/Yushev/git/wpcqi-optiga-trust-charge/optiga/externals/mbedtls/library\oid.c **** {
 2557              	 .loc 1 717 0 is_stmt 1
 2558              	 .cfi_startproc
 2559              	 
 2560              	 
 2561 0000 90B5     	 push {r4,r7,lr}
 2562              	.LCFI119:
 2563              	 .cfi_def_cfa_offset 12
 2564              	 .cfi_offset 4,-12
 2565              	 .cfi_offset 7,-8
 2566              	 .cfi_offset 14,-4
 2567 0002 8DB0     	 sub sp,sp,#52
 2568              	.LCFI120:
 2569              	 .cfi_def_cfa_offset 64
 2570 0004 02AF     	 add r7,sp,#8
 2571              	.LCFI121:
 2572              	 .cfi_def_cfa 7,56
 2573 0006 F860     	 str r0,[r7,#12]
 2574 0008 B960     	 str r1,[r7,#8]
 2575 000a 7A60     	 str r2,[r7,#4]
 718:C:/Users/Yushev/git/wpcqi-optiga-trust-charge/optiga/externals/mbedtls/library\oid.c ****     int ret;
 719:C:/Users/Yushev/git/wpcqi-optiga-trust-charge/optiga/externals/mbedtls/library\oid.c ****     size_t i, n;
 720:C:/Users/Yushev/git/wpcqi-optiga-trust-charge/optiga/externals/mbedtls/library\oid.c ****     unsigned int value;
 721:C:/Users/Yushev/git/wpcqi-optiga-trust-charge/optiga/externals/mbedtls/library\oid.c ****     char *p;
 722:C:/Users/Yushev/git/wpcqi-optiga-trust-charge/optiga/externals/mbedtls/library\oid.c **** 
 723:C:/Users/Yushev/git/wpcqi-optiga-trust-charge/optiga/externals/mbedtls/library\oid.c ****     p = buf;
 2576              	 .loc 1 723 0
 2577 000c FB68     	 ldr r3,[r7,#12]
 2578 000e BB61     	 str r3,[r7,#24]
 724:C:/Users/Yushev/git/wpcqi-optiga-trust-charge/optiga/externals/mbedtls/library\oid.c ****     n = size;
 2579              	 .loc 1 724 0
 2580 0010 BB68     	 ldr r3,[r7,#8]
 2581 0012 3B62     	 str r3,[r7,#32]
 725:C:/Users/Yushev/git/wpcqi-optiga-trust-charge/optiga/externals/mbedtls/library\oid.c **** 
 726:C:/Users/Yushev/git/wpcqi-optiga-trust-charge/optiga/externals/mbedtls/library\oid.c ****     /* First byte contains first two dots */
 727:C:/Users/Yushev/git/wpcqi-optiga-trust-charge/optiga/externals/mbedtls/library\oid.c ****     if( oid->len > 0 )
 2582              	 .loc 1 727 0
 2583 0014 7B68     	 ldr r3,[r7,#4]
 2584 0016 5B68     	 ldr r3,[r3,#4]
 2585 0018 002B     	 cmp r3,#0
 2586 001a 2FD0     	 beq .L141
 728:C:/Users/Yushev/git/wpcqi-optiga-trust-charge/optiga/externals/mbedtls/library\oid.c ****     {
 729:C:/Users/Yushev/git/wpcqi-optiga-trust-charge/optiga/externals/mbedtls/library\oid.c ****         ret = mbedtls_snprintf( p, n, "%d.%d", oid->p[0] / 40, oid->p[0] % 40 );
 2587              	 .loc 1 729 0
 2588 001c 7B68     	 ldr r3,[r7,#4]
 2589 001e 9B68     	 ldr r3,[r3,#8]
 2590 0020 1B78     	 ldrb r3,[r3]
 2591 0022 3D4A     	 ldr r2,.L151
 2592 0024 A2FB0323 	 umull r2,r3,r2,r3
 2593 0028 5B09     	 lsrs r3,r3,#5
 2594 002a DBB2     	 uxtb r3,r3
 2595 002c 1C46     	 mov r4,r3
 2596 002e 7B68     	 ldr r3,[r7,#4]
 2597 0030 9B68     	 ldr r3,[r3,#8]
 2598 0032 1A78     	 ldrb r2,[r3]
 2599 0034 384B     	 ldr r3,.L151
 2600 0036 A3FB0213 	 umull r1,r3,r3,r2
 2601 003a 5909     	 lsrs r1,r3,#5
 2602 003c 0B46     	 mov r3,r1
 2603 003e 9B00     	 lsls r3,r3,#2
 2604 0040 0B44     	 add r3,r3,r1
 2605 0042 DB00     	 lsls r3,r3,#3
 2606 0044 D31A     	 subs r3,r2,r3
 2607 0046 DBB2     	 uxtb r3,r3
 2608 0048 0093     	 str r3,[sp]
 2609 004a B869     	 ldr r0,[r7,#24]
 2610 004c 396A     	 ldr r1,[r7,#32]
 2611 004e 334A     	 ldr r2,.L151+4
 2612 0050 2346     	 mov r3,r4
 2613 0052 FFF7FEFF 	 bl snprintf
 2614 0056 7861     	 str r0,[r7,#20]
 730:C:/Users/Yushev/git/wpcqi-optiga-trust-charge/optiga/externals/mbedtls/library\oid.c ****         OID_SAFE_SNPRINTF;
 2615              	 .loc 1 730 0
 2616 0058 7B69     	 ldr r3,[r7,#20]
 2617 005a 002B     	 cmp r3,#0
 2618 005c 03DB     	 blt .L142
 2619              	 .loc 1 730 0 is_stmt 0 discriminator 2
 2620 005e 7A69     	 ldr r2,[r7,#20]
 2621 0060 3B6A     	 ldr r3,[r7,#32]
 2622 0062 9A42     	 cmp r2,r3
 2623 0064 02D3     	 bcc .L143
 2624              	.L142:
 2625              	 .loc 1 730 0 discriminator 3
 2626 0066 6FF00A03 	 mvn r3,#10
 2627 006a 51E0     	 b .L144
 2628              	.L143:
 2629              	 .loc 1 730 0 discriminator 4
 2630 006c 7B69     	 ldr r3,[r7,#20]
 2631 006e 3A6A     	 ldr r2,[r7,#32]
 2632 0070 D31A     	 subs r3,r2,r3
 2633 0072 3B62     	 str r3,[r7,#32]
 2634 0074 7B69     	 ldr r3,[r7,#20]
 2635 0076 BA69     	 ldr r2,[r7,#24]
 2636 0078 1344     	 add r3,r3,r2
 2637 007a BB61     	 str r3,[r7,#24]
 2638              	.L141:
 731:C:/Users/Yushev/git/wpcqi-optiga-trust-charge/optiga/externals/mbedtls/library\oid.c ****     }
 732:C:/Users/Yushev/git/wpcqi-optiga-trust-charge/optiga/externals/mbedtls/library\oid.c **** 
 733:C:/Users/Yushev/git/wpcqi-optiga-trust-charge/optiga/externals/mbedtls/library\oid.c ****     value = 0;
 2639              	 .loc 1 733 0 is_stmt 1
 2640 007c 0023     	 movs r3,#0
 2641 007e FB61     	 str r3,[r7,#28]
 734:C:/Users/Yushev/git/wpcqi-optiga-trust-charge/optiga/externals/mbedtls/library\oid.c ****     for( i = 1; i < oid->len; i++ )
 2642              	 .loc 1 734 0
 2643 0080 0123     	 movs r3,#1
 2644 0082 7B62     	 str r3,[r7,#36]
 2645 0084 3CE0     	 b .L145
 2646              	.L150:
 735:C:/Users/Yushev/git/wpcqi-optiga-trust-charge/optiga/externals/mbedtls/library\oid.c ****     {
 736:C:/Users/Yushev/git/wpcqi-optiga-trust-charge/optiga/externals/mbedtls/library\oid.c ****         /* Prevent overflow in value. */
 737:C:/Users/Yushev/git/wpcqi-optiga-trust-charge/optiga/externals/mbedtls/library\oid.c ****         if( ( ( value << 7 ) >> 7 ) != value )
 2647              	 .loc 1 737 0
 2648 0086 FB69     	 ldr r3,[r7,#28]
 2649 0088 23F07E42 	 bic r2,r3,#-33554432
 2650 008c FB69     	 ldr r3,[r7,#28]
 2651 008e 9A42     	 cmp r2,r3
 2652 0090 02D0     	 beq .L146
 738:C:/Users/Yushev/git/wpcqi-optiga-trust-charge/optiga/externals/mbedtls/library\oid.c ****             return( MBEDTLS_ERR_OID_BUF_TOO_SMALL );
 2653              	 .loc 1 738 0
 2654 0092 6FF00A03 	 mvn r3,#10
 2655 0096 3BE0     	 b .L144
 2656              	.L146:
 739:C:/Users/Yushev/git/wpcqi-optiga-trust-charge/optiga/externals/mbedtls/library\oid.c **** 
 740:C:/Users/Yushev/git/wpcqi-optiga-trust-charge/optiga/externals/mbedtls/library\oid.c ****         value <<= 7;
 2657              	 .loc 1 740 0
 2658 0098 FB69     	 ldr r3,[r7,#28]
 2659 009a DB01     	 lsls r3,r3,#7
 2660 009c FB61     	 str r3,[r7,#28]
 741:C:/Users/Yushev/git/wpcqi-optiga-trust-charge/optiga/externals/mbedtls/library\oid.c ****         value += oid->p[i] & 0x7F;
 2661              	 .loc 1 741 0
 2662 009e 7B68     	 ldr r3,[r7,#4]
 2663 00a0 9A68     	 ldr r2,[r3,#8]
 2664 00a2 7B6A     	 ldr r3,[r7,#36]
 2665 00a4 1344     	 add r3,r3,r2
 2666 00a6 1B78     	 ldrb r3,[r3]
 2667 00a8 03F07F03 	 and r3,r3,#127
 2668 00ac FA69     	 ldr r2,[r7,#28]
 2669 00ae 1344     	 add r3,r3,r2
 2670 00b0 FB61     	 str r3,[r7,#28]
 742:C:/Users/Yushev/git/wpcqi-optiga-trust-charge/optiga/externals/mbedtls/library\oid.c **** 
 743:C:/Users/Yushev/git/wpcqi-optiga-trust-charge/optiga/externals/mbedtls/library\oid.c ****         if( !( oid->p[i] & 0x80 ) )
 2671              	 .loc 1 743 0
 2672 00b2 7B68     	 ldr r3,[r7,#4]
 2673 00b4 9A68     	 ldr r2,[r3,#8]
 2674 00b6 7B6A     	 ldr r3,[r7,#36]
 2675 00b8 1344     	 add r3,r3,r2
 2676 00ba 1B78     	 ldrb r3,[r3]
 2677 00bc DBB2     	 uxtb r3,r3
 2678 00be 5BB2     	 sxtb r3,r3
 2679 00c0 002B     	 cmp r3,#0
 2680 00c2 1ADB     	 blt .L147
 744:C:/Users/Yushev/git/wpcqi-optiga-trust-charge/optiga/externals/mbedtls/library\oid.c ****         {
 745:C:/Users/Yushev/git/wpcqi-optiga-trust-charge/optiga/externals/mbedtls/library\oid.c ****             /* Last byte */
 746:C:/Users/Yushev/git/wpcqi-optiga-trust-charge/optiga/externals/mbedtls/library\oid.c ****             ret = mbedtls_snprintf( p, n, ".%d", value );
 2681              	 .loc 1 746 0
 2682 00c4 B869     	 ldr r0,[r7,#24]
 2683 00c6 396A     	 ldr r1,[r7,#32]
 2684 00c8 154A     	 ldr r2,.L151+8
 2685 00ca FB69     	 ldr r3,[r7,#28]
 2686 00cc FFF7FEFF 	 bl snprintf
 2687 00d0 7861     	 str r0,[r7,#20]
 747:C:/Users/Yushev/git/wpcqi-optiga-trust-charge/optiga/externals/mbedtls/library\oid.c ****             OID_SAFE_SNPRINTF;
 2688              	 .loc 1 747 0
 2689 00d2 7B69     	 ldr r3,[r7,#20]
 2690 00d4 002B     	 cmp r3,#0
 2691 00d6 03DB     	 blt .L148
 2692              	 .loc 1 747 0 is_stmt 0 discriminator 2
 2693 00d8 7A69     	 ldr r2,[r7,#20]
 2694 00da 3B6A     	 ldr r3,[r7,#32]
 2695 00dc 9A42     	 cmp r2,r3
 2696 00de 02D3     	 bcc .L149
 2697              	.L148:
 2698              	 .loc 1 747 0 discriminator 3
 2699 00e0 6FF00A03 	 mvn r3,#10
 2700 00e4 14E0     	 b .L144
 2701              	.L149:
 2702              	 .loc 1 747 0 discriminator 4
 2703 00e6 7B69     	 ldr r3,[r7,#20]
 2704 00e8 3A6A     	 ldr r2,[r7,#32]
 2705 00ea D31A     	 subs r3,r2,r3
 2706 00ec 3B62     	 str r3,[r7,#32]
 2707 00ee 7B69     	 ldr r3,[r7,#20]
 2708 00f0 BA69     	 ldr r2,[r7,#24]
 2709 00f2 1344     	 add r3,r3,r2
 2710 00f4 BB61     	 str r3,[r7,#24]
 748:C:/Users/Yushev/git/wpcqi-optiga-trust-charge/optiga/externals/mbedtls/library\oid.c ****             value = 0;
 2711              	 .loc 1 748 0 is_stmt 1 discriminator 4
 2712 00f6 0023     	 movs r3,#0
 2713 00f8 FB61     	 str r3,[r7,#28]
 2714              	.L147:
 734:C:/Users/Yushev/git/wpcqi-optiga-trust-charge/optiga/externals/mbedtls/library\oid.c ****     {
 2715              	 .loc 1 734 0 discriminator 2
 2716 00fa 7B6A     	 ldr r3,[r7,#36]
 2717 00fc 0133     	 adds r3,r3,#1
 2718 00fe 7B62     	 str r3,[r7,#36]
 2719              	.L145:
 734:C:/Users/Yushev/git/wpcqi-optiga-trust-charge/optiga/externals/mbedtls/library\oid.c ****     {
 2720              	 .loc 1 734 0 is_stmt 0 discriminator 1
 2721 0100 7B68     	 ldr r3,[r7,#4]
 2722 0102 5A68     	 ldr r2,[r3,#4]
 2723 0104 7B6A     	 ldr r3,[r7,#36]
 2724 0106 9A42     	 cmp r2,r3
 2725 0108 BDD8     	 bhi .L150
 749:C:/Users/Yushev/git/wpcqi-optiga-trust-charge/optiga/externals/mbedtls/library\oid.c ****         }
 750:C:/Users/Yushev/git/wpcqi-optiga-trust-charge/optiga/externals/mbedtls/library\oid.c ****     }
 751:C:/Users/Yushev/git/wpcqi-optiga-trust-charge/optiga/externals/mbedtls/library\oid.c **** 
 752:C:/Users/Yushev/git/wpcqi-optiga-trust-charge/optiga/externals/mbedtls/library\oid.c ****     return( (int) ( size - n ) );
 2726              	 .loc 1 752 0 is_stmt 1
 2727 010a BA68     	 ldr r2,[r7,#8]
 2728 010c 3B6A     	 ldr r3,[r7,#32]
 2729 010e D31A     	 subs r3,r2,r3
 2730              	.L144:
 753:C:/Users/Yushev/git/wpcqi-optiga-trust-charge/optiga/externals/mbedtls/library\oid.c **** }
 2731              	 .loc 1 753 0
 2732 0110 1846     	 mov r0,r3
 2733 0112 2C37     	 adds r7,r7,#44
 2734              	.LCFI122:
 2735              	 .cfi_def_cfa_offset 12
 2736 0114 BD46     	 mov sp,r7
 2737              	.LCFI123:
 2738              	 .cfi_def_cfa_register 13
 2739              	 
 2740 0116 90BD     	 pop {r4,r7,pc}
 2741              	.L152:
 2742              	 .align 2
 2743              	.L151:
 2744 0118 CDCCCCCC 	 .word -858993459
 2745 011c 0C070000 	 .word .LC137
 2746 0120 14070000 	 .word .LC138
 2747              	 .cfi_endproc
 2748              	.LFE32:
 2750              	 .text
 2751              	.Letext0:
 2752              	 .file 2 "C:/Users/Yushev/git/wpcqi-optiga-trust-charge/optiga/externals/mbedtls/include/mbedtls/asn1.h"
 2753              	 .file 3 "c:\\users\\yushev\\dave_4-4-2_32bit_2018-02-23\\dave-ide-4.4.2-32bit\\eclipse\\arm-gcc-49\\lib\\gcc\\arm-none-eabi\\4.9.3\\include\\stddef.h"
 2754              	 .file 4 "C:/Users/Yushev/git/wpcqi-optiga-trust-charge/optiga/externals/mbedtls/include/mbedtls/md.h"
 2755              	 .file 5 "C:/Users/Yushev/git/wpcqi-optiga-trust-charge/optiga/externals/mbedtls/include/mbedtls/ecp.h"
 2756              	 .file 6 "C:/Users/Yushev/git/wpcqi-optiga-trust-charge/optiga/externals/mbedtls/include/mbedtls/pk.h"
 2757              	 .file 7 "C:/Users/Yushev/git/wpcqi-optiga-trust-charge/optiga/externals/mbedtls/include/mbedtls/cipher.h"
 2758              	 .file 8 "C:/Users/Yushev/git/wpcqi-optiga-trust-charge/optiga/externals/mbedtls/include/mbedtls/oid.h"