   1              	 .syntax unified
   2              	 .cpu cortex-m4
   3              	 .eabi_attribute 27,3
   4              	 .fpu fpv4-sp-d16
   5              	 .eabi_attribute 20,1
   6              	 .eabi_attribute 21,1
   7              	 .eabi_attribute 23,3
   8              	 .eabi_attribute 24,1
   9              	 .eabi_attribute 25,1
  10              	 .eabi_attribute 26,1
  11              	 .eabi_attribute 30,6
  12              	 .eabi_attribute 34,1
  13              	 .eabi_attribute 18,4
  14              	 .thumb
  15              	 .file "pk_wrap.c"
  16              	 .text
  17              	.Ltext0:
  18              	 .cfi_sections .debug_frame
  19              	 .section .text.eckey_can_do,"ax",%progbits
  20              	 .align 2
  21              	 .thumb
  22              	 .thumb_func
  24              	eckey_can_do:
  25              	.LFB2:
  26              	 .file 1 "C:/Users/Yushev/git/wpcqi-optiga-trust-charge/optiga/externals/mbedtls/library/pk_wrap.c"
   1:C:/Users/Yushev/git/wpcqi-optiga-trust-charge/optiga/externals/mbedtls/library\pk_wrap.c **** /*
   2:C:/Users/Yushev/git/wpcqi-optiga-trust-charge/optiga/externals/mbedtls/library\pk_wrap.c ****  *  Public Key abstraction layer: wrapper functions
   3:C:/Users/Yushev/git/wpcqi-optiga-trust-charge/optiga/externals/mbedtls/library\pk_wrap.c ****  *
   4:C:/Users/Yushev/git/wpcqi-optiga-trust-charge/optiga/externals/mbedtls/library\pk_wrap.c ****  *  Copyright (C) 2006-2015, ARM Limited, All Rights Reserved
   5:C:/Users/Yushev/git/wpcqi-optiga-trust-charge/optiga/externals/mbedtls/library\pk_wrap.c ****  *  SPDX-License-Identifier: Apache-2.0
   6:C:/Users/Yushev/git/wpcqi-optiga-trust-charge/optiga/externals/mbedtls/library\pk_wrap.c ****  *
   7:C:/Users/Yushev/git/wpcqi-optiga-trust-charge/optiga/externals/mbedtls/library\pk_wrap.c ****  *  Licensed under the Apache License, Version 2.0 (the "License"); you may
   8:C:/Users/Yushev/git/wpcqi-optiga-trust-charge/optiga/externals/mbedtls/library\pk_wrap.c ****  *  not use this file except in compliance with the License.
   9:C:/Users/Yushev/git/wpcqi-optiga-trust-charge/optiga/externals/mbedtls/library\pk_wrap.c ****  *  You may obtain a copy of the License at
  10:C:/Users/Yushev/git/wpcqi-optiga-trust-charge/optiga/externals/mbedtls/library\pk_wrap.c ****  *
  11:C:/Users/Yushev/git/wpcqi-optiga-trust-charge/optiga/externals/mbedtls/library\pk_wrap.c ****  *  http://www.apache.org/licenses/LICENSE-2.0
  12:C:/Users/Yushev/git/wpcqi-optiga-trust-charge/optiga/externals/mbedtls/library\pk_wrap.c ****  *
  13:C:/Users/Yushev/git/wpcqi-optiga-trust-charge/optiga/externals/mbedtls/library\pk_wrap.c ****  *  Unless required by applicable law or agreed to in writing, software
  14:C:/Users/Yushev/git/wpcqi-optiga-trust-charge/optiga/externals/mbedtls/library\pk_wrap.c ****  *  distributed under the License is distributed on an "AS IS" BASIS, WITHOUT
  15:C:/Users/Yushev/git/wpcqi-optiga-trust-charge/optiga/externals/mbedtls/library\pk_wrap.c ****  *  WARRANTIES OR CONDITIONS OF ANY KIND, either express or implied.
  16:C:/Users/Yushev/git/wpcqi-optiga-trust-charge/optiga/externals/mbedtls/library\pk_wrap.c ****  *  See the License for the specific language governing permissions and
  17:C:/Users/Yushev/git/wpcqi-optiga-trust-charge/optiga/externals/mbedtls/library\pk_wrap.c ****  *  limitations under the License.
  18:C:/Users/Yushev/git/wpcqi-optiga-trust-charge/optiga/externals/mbedtls/library\pk_wrap.c ****  *
  19:C:/Users/Yushev/git/wpcqi-optiga-trust-charge/optiga/externals/mbedtls/library\pk_wrap.c ****  *  This file is part of mbed TLS (https://tls.mbed.org)
  20:C:/Users/Yushev/git/wpcqi-optiga-trust-charge/optiga/externals/mbedtls/library\pk_wrap.c ****  */
  21:C:/Users/Yushev/git/wpcqi-optiga-trust-charge/optiga/externals/mbedtls/library\pk_wrap.c **** 
  22:C:/Users/Yushev/git/wpcqi-optiga-trust-charge/optiga/externals/mbedtls/library\pk_wrap.c **** #if !defined(MBEDTLS_CONFIG_FILE)
  23:C:/Users/Yushev/git/wpcqi-optiga-trust-charge/optiga/externals/mbedtls/library\pk_wrap.c **** #include "mbedtls/config.h"
  24:C:/Users/Yushev/git/wpcqi-optiga-trust-charge/optiga/externals/mbedtls/library\pk_wrap.c **** #else
  25:C:/Users/Yushev/git/wpcqi-optiga-trust-charge/optiga/externals/mbedtls/library\pk_wrap.c **** #include MBEDTLS_CONFIG_FILE
  26:C:/Users/Yushev/git/wpcqi-optiga-trust-charge/optiga/externals/mbedtls/library\pk_wrap.c **** #endif
  27:C:/Users/Yushev/git/wpcqi-optiga-trust-charge/optiga/externals/mbedtls/library\pk_wrap.c **** 
  28:C:/Users/Yushev/git/wpcqi-optiga-trust-charge/optiga/externals/mbedtls/library\pk_wrap.c **** #if defined(MBEDTLS_PK_C)
  29:C:/Users/Yushev/git/wpcqi-optiga-trust-charge/optiga/externals/mbedtls/library\pk_wrap.c **** #include "mbedtls/pk_internal.h"
  30:C:/Users/Yushev/git/wpcqi-optiga-trust-charge/optiga/externals/mbedtls/library\pk_wrap.c **** 
  31:C:/Users/Yushev/git/wpcqi-optiga-trust-charge/optiga/externals/mbedtls/library\pk_wrap.c **** /* Even if RSA not activated, for the sake of RSA-alt */
  32:C:/Users/Yushev/git/wpcqi-optiga-trust-charge/optiga/externals/mbedtls/library\pk_wrap.c **** #include "mbedtls/rsa.h"
  33:C:/Users/Yushev/git/wpcqi-optiga-trust-charge/optiga/externals/mbedtls/library\pk_wrap.c **** 
  34:C:/Users/Yushev/git/wpcqi-optiga-trust-charge/optiga/externals/mbedtls/library\pk_wrap.c **** #include <string.h>
  35:C:/Users/Yushev/git/wpcqi-optiga-trust-charge/optiga/externals/mbedtls/library\pk_wrap.c **** 
  36:C:/Users/Yushev/git/wpcqi-optiga-trust-charge/optiga/externals/mbedtls/library\pk_wrap.c **** #if defined(MBEDTLS_ECP_C)
  37:C:/Users/Yushev/git/wpcqi-optiga-trust-charge/optiga/externals/mbedtls/library\pk_wrap.c **** #include "mbedtls/ecp.h"
  38:C:/Users/Yushev/git/wpcqi-optiga-trust-charge/optiga/externals/mbedtls/library\pk_wrap.c **** #endif
  39:C:/Users/Yushev/git/wpcqi-optiga-trust-charge/optiga/externals/mbedtls/library\pk_wrap.c **** 
  40:C:/Users/Yushev/git/wpcqi-optiga-trust-charge/optiga/externals/mbedtls/library\pk_wrap.c **** #if defined(MBEDTLS_ECDSA_C)
  41:C:/Users/Yushev/git/wpcqi-optiga-trust-charge/optiga/externals/mbedtls/library\pk_wrap.c **** #include "mbedtls/ecdsa.h"
  42:C:/Users/Yushev/git/wpcqi-optiga-trust-charge/optiga/externals/mbedtls/library\pk_wrap.c **** #endif
  43:C:/Users/Yushev/git/wpcqi-optiga-trust-charge/optiga/externals/mbedtls/library\pk_wrap.c **** 
  44:C:/Users/Yushev/git/wpcqi-optiga-trust-charge/optiga/externals/mbedtls/library\pk_wrap.c **** #if defined(MBEDTLS_PK_RSA_ALT_SUPPORT)
  45:C:/Users/Yushev/git/wpcqi-optiga-trust-charge/optiga/externals/mbedtls/library\pk_wrap.c **** #include "mbedtls/platform_util.h"
  46:C:/Users/Yushev/git/wpcqi-optiga-trust-charge/optiga/externals/mbedtls/library\pk_wrap.c **** #endif
  47:C:/Users/Yushev/git/wpcqi-optiga-trust-charge/optiga/externals/mbedtls/library\pk_wrap.c **** 
  48:C:/Users/Yushev/git/wpcqi-optiga-trust-charge/optiga/externals/mbedtls/library\pk_wrap.c **** #if defined(MBEDTLS_PLATFORM_C)
  49:C:/Users/Yushev/git/wpcqi-optiga-trust-charge/optiga/externals/mbedtls/library\pk_wrap.c **** #include "mbedtls/platform.h"
  50:C:/Users/Yushev/git/wpcqi-optiga-trust-charge/optiga/externals/mbedtls/library\pk_wrap.c **** #else
  51:C:/Users/Yushev/git/wpcqi-optiga-trust-charge/optiga/externals/mbedtls/library\pk_wrap.c **** #include <stdlib.h>
  52:C:/Users/Yushev/git/wpcqi-optiga-trust-charge/optiga/externals/mbedtls/library\pk_wrap.c **** #define mbedtls_calloc    calloc
  53:C:/Users/Yushev/git/wpcqi-optiga-trust-charge/optiga/externals/mbedtls/library\pk_wrap.c **** #define mbedtls_free       free
  54:C:/Users/Yushev/git/wpcqi-optiga-trust-charge/optiga/externals/mbedtls/library\pk_wrap.c **** #endif
  55:C:/Users/Yushev/git/wpcqi-optiga-trust-charge/optiga/externals/mbedtls/library\pk_wrap.c **** 
  56:C:/Users/Yushev/git/wpcqi-optiga-trust-charge/optiga/externals/mbedtls/library\pk_wrap.c **** #include <limits.h>
  57:C:/Users/Yushev/git/wpcqi-optiga-trust-charge/optiga/externals/mbedtls/library\pk_wrap.c **** #include <stdint.h>
  58:C:/Users/Yushev/git/wpcqi-optiga-trust-charge/optiga/externals/mbedtls/library\pk_wrap.c **** 
  59:C:/Users/Yushev/git/wpcqi-optiga-trust-charge/optiga/externals/mbedtls/library\pk_wrap.c **** #if defined(MBEDTLS_RSA_C)
  60:C:/Users/Yushev/git/wpcqi-optiga-trust-charge/optiga/externals/mbedtls/library\pk_wrap.c **** static int rsa_can_do( mbedtls_pk_type_t type )
  61:C:/Users/Yushev/git/wpcqi-optiga-trust-charge/optiga/externals/mbedtls/library\pk_wrap.c **** {
  62:C:/Users/Yushev/git/wpcqi-optiga-trust-charge/optiga/externals/mbedtls/library\pk_wrap.c ****     return( type == MBEDTLS_PK_RSA ||
  63:C:/Users/Yushev/git/wpcqi-optiga-trust-charge/optiga/externals/mbedtls/library\pk_wrap.c ****             type == MBEDTLS_PK_RSASSA_PSS );
  64:C:/Users/Yushev/git/wpcqi-optiga-trust-charge/optiga/externals/mbedtls/library\pk_wrap.c **** }
  65:C:/Users/Yushev/git/wpcqi-optiga-trust-charge/optiga/externals/mbedtls/library\pk_wrap.c **** 
  66:C:/Users/Yushev/git/wpcqi-optiga-trust-charge/optiga/externals/mbedtls/library\pk_wrap.c **** static size_t rsa_get_bitlen( const void *ctx )
  67:C:/Users/Yushev/git/wpcqi-optiga-trust-charge/optiga/externals/mbedtls/library\pk_wrap.c **** {
  68:C:/Users/Yushev/git/wpcqi-optiga-trust-charge/optiga/externals/mbedtls/library\pk_wrap.c ****     const mbedtls_rsa_context * rsa = (const mbedtls_rsa_context *) ctx;
  69:C:/Users/Yushev/git/wpcqi-optiga-trust-charge/optiga/externals/mbedtls/library\pk_wrap.c ****     return( 8 * mbedtls_rsa_get_len( rsa ) );
  70:C:/Users/Yushev/git/wpcqi-optiga-trust-charge/optiga/externals/mbedtls/library\pk_wrap.c **** }
  71:C:/Users/Yushev/git/wpcqi-optiga-trust-charge/optiga/externals/mbedtls/library\pk_wrap.c **** 
  72:C:/Users/Yushev/git/wpcqi-optiga-trust-charge/optiga/externals/mbedtls/library\pk_wrap.c **** static int rsa_verify_wrap( void *ctx, mbedtls_md_type_t md_alg,
  73:C:/Users/Yushev/git/wpcqi-optiga-trust-charge/optiga/externals/mbedtls/library\pk_wrap.c ****                    const unsigned char *hash, size_t hash_len,
  74:C:/Users/Yushev/git/wpcqi-optiga-trust-charge/optiga/externals/mbedtls/library\pk_wrap.c ****                    const unsigned char *sig, size_t sig_len )
  75:C:/Users/Yushev/git/wpcqi-optiga-trust-charge/optiga/externals/mbedtls/library\pk_wrap.c **** {
  76:C:/Users/Yushev/git/wpcqi-optiga-trust-charge/optiga/externals/mbedtls/library\pk_wrap.c ****     int ret;
  77:C:/Users/Yushev/git/wpcqi-optiga-trust-charge/optiga/externals/mbedtls/library\pk_wrap.c ****     mbedtls_rsa_context * rsa = (mbedtls_rsa_context *) ctx;
  78:C:/Users/Yushev/git/wpcqi-optiga-trust-charge/optiga/externals/mbedtls/library\pk_wrap.c ****     size_t rsa_len = mbedtls_rsa_get_len( rsa );
  79:C:/Users/Yushev/git/wpcqi-optiga-trust-charge/optiga/externals/mbedtls/library\pk_wrap.c **** 
  80:C:/Users/Yushev/git/wpcqi-optiga-trust-charge/optiga/externals/mbedtls/library\pk_wrap.c **** #if SIZE_MAX > UINT_MAX
  81:C:/Users/Yushev/git/wpcqi-optiga-trust-charge/optiga/externals/mbedtls/library\pk_wrap.c ****     if( md_alg == MBEDTLS_MD_NONE && UINT_MAX < hash_len )
  82:C:/Users/Yushev/git/wpcqi-optiga-trust-charge/optiga/externals/mbedtls/library\pk_wrap.c ****         return( MBEDTLS_ERR_PK_BAD_INPUT_DATA );
  83:C:/Users/Yushev/git/wpcqi-optiga-trust-charge/optiga/externals/mbedtls/library\pk_wrap.c **** #endif /* SIZE_MAX > UINT_MAX */
  84:C:/Users/Yushev/git/wpcqi-optiga-trust-charge/optiga/externals/mbedtls/library\pk_wrap.c **** 
  85:C:/Users/Yushev/git/wpcqi-optiga-trust-charge/optiga/externals/mbedtls/library\pk_wrap.c ****     if( sig_len < rsa_len )
  86:C:/Users/Yushev/git/wpcqi-optiga-trust-charge/optiga/externals/mbedtls/library\pk_wrap.c ****         return( MBEDTLS_ERR_RSA_VERIFY_FAILED );
  87:C:/Users/Yushev/git/wpcqi-optiga-trust-charge/optiga/externals/mbedtls/library\pk_wrap.c **** 
  88:C:/Users/Yushev/git/wpcqi-optiga-trust-charge/optiga/externals/mbedtls/library\pk_wrap.c ****     if( ( ret = mbedtls_rsa_pkcs1_verify( rsa, NULL, NULL,
  89:C:/Users/Yushev/git/wpcqi-optiga-trust-charge/optiga/externals/mbedtls/library\pk_wrap.c ****                                   MBEDTLS_RSA_PUBLIC, md_alg,
  90:C:/Users/Yushev/git/wpcqi-optiga-trust-charge/optiga/externals/mbedtls/library\pk_wrap.c ****                                   (unsigned int) hash_len, hash, sig ) ) != 0 )
  91:C:/Users/Yushev/git/wpcqi-optiga-trust-charge/optiga/externals/mbedtls/library\pk_wrap.c ****         return( ret );
  92:C:/Users/Yushev/git/wpcqi-optiga-trust-charge/optiga/externals/mbedtls/library\pk_wrap.c **** 
  93:C:/Users/Yushev/git/wpcqi-optiga-trust-charge/optiga/externals/mbedtls/library\pk_wrap.c ****     /* The buffer contains a valid signature followed by extra data.
  94:C:/Users/Yushev/git/wpcqi-optiga-trust-charge/optiga/externals/mbedtls/library\pk_wrap.c ****      * We have a special error code for that so that so that callers can
  95:C:/Users/Yushev/git/wpcqi-optiga-trust-charge/optiga/externals/mbedtls/library\pk_wrap.c ****      * use mbedtls_pk_verify() to check "Does the buffer start with a
  96:C:/Users/Yushev/git/wpcqi-optiga-trust-charge/optiga/externals/mbedtls/library\pk_wrap.c ****      * valid signature?" and not just "Does the buffer contain a valid
  97:C:/Users/Yushev/git/wpcqi-optiga-trust-charge/optiga/externals/mbedtls/library\pk_wrap.c ****      * signature?". */
  98:C:/Users/Yushev/git/wpcqi-optiga-trust-charge/optiga/externals/mbedtls/library\pk_wrap.c ****     if( sig_len > rsa_len )
  99:C:/Users/Yushev/git/wpcqi-optiga-trust-charge/optiga/externals/mbedtls/library\pk_wrap.c ****         return( MBEDTLS_ERR_PK_SIG_LEN_MISMATCH );
 100:C:/Users/Yushev/git/wpcqi-optiga-trust-charge/optiga/externals/mbedtls/library\pk_wrap.c **** 
 101:C:/Users/Yushev/git/wpcqi-optiga-trust-charge/optiga/externals/mbedtls/library\pk_wrap.c ****     return( 0 );
 102:C:/Users/Yushev/git/wpcqi-optiga-trust-charge/optiga/externals/mbedtls/library\pk_wrap.c **** }
 103:C:/Users/Yushev/git/wpcqi-optiga-trust-charge/optiga/externals/mbedtls/library\pk_wrap.c **** 
 104:C:/Users/Yushev/git/wpcqi-optiga-trust-charge/optiga/externals/mbedtls/library\pk_wrap.c **** static int rsa_sign_wrap( void *ctx, mbedtls_md_type_t md_alg,
 105:C:/Users/Yushev/git/wpcqi-optiga-trust-charge/optiga/externals/mbedtls/library\pk_wrap.c ****                    const unsigned char *hash, size_t hash_len,
 106:C:/Users/Yushev/git/wpcqi-optiga-trust-charge/optiga/externals/mbedtls/library\pk_wrap.c ****                    unsigned char *sig, size_t *sig_len,
 107:C:/Users/Yushev/git/wpcqi-optiga-trust-charge/optiga/externals/mbedtls/library\pk_wrap.c ****                    int (*f_rng)(void *, unsigned char *, size_t), void *p_rng )
 108:C:/Users/Yushev/git/wpcqi-optiga-trust-charge/optiga/externals/mbedtls/library\pk_wrap.c **** {
 109:C:/Users/Yushev/git/wpcqi-optiga-trust-charge/optiga/externals/mbedtls/library\pk_wrap.c ****     mbedtls_rsa_context * rsa = (mbedtls_rsa_context *) ctx;
 110:C:/Users/Yushev/git/wpcqi-optiga-trust-charge/optiga/externals/mbedtls/library\pk_wrap.c **** 
 111:C:/Users/Yushev/git/wpcqi-optiga-trust-charge/optiga/externals/mbedtls/library\pk_wrap.c **** #if SIZE_MAX > UINT_MAX
 112:C:/Users/Yushev/git/wpcqi-optiga-trust-charge/optiga/externals/mbedtls/library\pk_wrap.c ****     if( md_alg == MBEDTLS_MD_NONE && UINT_MAX < hash_len )
 113:C:/Users/Yushev/git/wpcqi-optiga-trust-charge/optiga/externals/mbedtls/library\pk_wrap.c ****         return( MBEDTLS_ERR_PK_BAD_INPUT_DATA );
 114:C:/Users/Yushev/git/wpcqi-optiga-trust-charge/optiga/externals/mbedtls/library\pk_wrap.c **** #endif /* SIZE_MAX > UINT_MAX */
 115:C:/Users/Yushev/git/wpcqi-optiga-trust-charge/optiga/externals/mbedtls/library\pk_wrap.c **** 
 116:C:/Users/Yushev/git/wpcqi-optiga-trust-charge/optiga/externals/mbedtls/library\pk_wrap.c ****     *sig_len = mbedtls_rsa_get_len( rsa );
 117:C:/Users/Yushev/git/wpcqi-optiga-trust-charge/optiga/externals/mbedtls/library\pk_wrap.c **** 
 118:C:/Users/Yushev/git/wpcqi-optiga-trust-charge/optiga/externals/mbedtls/library\pk_wrap.c ****     return( mbedtls_rsa_pkcs1_sign( rsa, f_rng, p_rng, MBEDTLS_RSA_PRIVATE,
 119:C:/Users/Yushev/git/wpcqi-optiga-trust-charge/optiga/externals/mbedtls/library\pk_wrap.c ****                 md_alg, (unsigned int) hash_len, hash, sig ) );
 120:C:/Users/Yushev/git/wpcqi-optiga-trust-charge/optiga/externals/mbedtls/library\pk_wrap.c **** }
 121:C:/Users/Yushev/git/wpcqi-optiga-trust-charge/optiga/externals/mbedtls/library\pk_wrap.c **** 
 122:C:/Users/Yushev/git/wpcqi-optiga-trust-charge/optiga/externals/mbedtls/library\pk_wrap.c **** static int rsa_decrypt_wrap( void *ctx,
 123:C:/Users/Yushev/git/wpcqi-optiga-trust-charge/optiga/externals/mbedtls/library\pk_wrap.c ****                     const unsigned char *input, size_t ilen,
 124:C:/Users/Yushev/git/wpcqi-optiga-trust-charge/optiga/externals/mbedtls/library\pk_wrap.c ****                     unsigned char *output, size_t *olen, size_t osize,
 125:C:/Users/Yushev/git/wpcqi-optiga-trust-charge/optiga/externals/mbedtls/library\pk_wrap.c ****                     int (*f_rng)(void *, unsigned char *, size_t), void *p_rng )
 126:C:/Users/Yushev/git/wpcqi-optiga-trust-charge/optiga/externals/mbedtls/library\pk_wrap.c **** {
 127:C:/Users/Yushev/git/wpcqi-optiga-trust-charge/optiga/externals/mbedtls/library\pk_wrap.c ****     mbedtls_rsa_context * rsa = (mbedtls_rsa_context *) ctx;
 128:C:/Users/Yushev/git/wpcqi-optiga-trust-charge/optiga/externals/mbedtls/library\pk_wrap.c **** 
 129:C:/Users/Yushev/git/wpcqi-optiga-trust-charge/optiga/externals/mbedtls/library\pk_wrap.c ****     if( ilen != mbedtls_rsa_get_len( rsa ) )
 130:C:/Users/Yushev/git/wpcqi-optiga-trust-charge/optiga/externals/mbedtls/library\pk_wrap.c ****         return( MBEDTLS_ERR_RSA_BAD_INPUT_DATA );
 131:C:/Users/Yushev/git/wpcqi-optiga-trust-charge/optiga/externals/mbedtls/library\pk_wrap.c **** 
 132:C:/Users/Yushev/git/wpcqi-optiga-trust-charge/optiga/externals/mbedtls/library\pk_wrap.c ****     return( mbedtls_rsa_pkcs1_decrypt( rsa, f_rng, p_rng,
 133:C:/Users/Yushev/git/wpcqi-optiga-trust-charge/optiga/externals/mbedtls/library\pk_wrap.c ****                 MBEDTLS_RSA_PRIVATE, olen, input, output, osize ) );
 134:C:/Users/Yushev/git/wpcqi-optiga-trust-charge/optiga/externals/mbedtls/library\pk_wrap.c **** }
 135:C:/Users/Yushev/git/wpcqi-optiga-trust-charge/optiga/externals/mbedtls/library\pk_wrap.c **** 
 136:C:/Users/Yushev/git/wpcqi-optiga-trust-charge/optiga/externals/mbedtls/library\pk_wrap.c **** static int rsa_encrypt_wrap( void *ctx,
 137:C:/Users/Yushev/git/wpcqi-optiga-trust-charge/optiga/externals/mbedtls/library\pk_wrap.c ****                     const unsigned char *input, size_t ilen,
 138:C:/Users/Yushev/git/wpcqi-optiga-trust-charge/optiga/externals/mbedtls/library\pk_wrap.c ****                     unsigned char *output, size_t *olen, size_t osize,
 139:C:/Users/Yushev/git/wpcqi-optiga-trust-charge/optiga/externals/mbedtls/library\pk_wrap.c ****                     int (*f_rng)(void *, unsigned char *, size_t), void *p_rng )
 140:C:/Users/Yushev/git/wpcqi-optiga-trust-charge/optiga/externals/mbedtls/library\pk_wrap.c **** {
 141:C:/Users/Yushev/git/wpcqi-optiga-trust-charge/optiga/externals/mbedtls/library\pk_wrap.c ****     mbedtls_rsa_context * rsa = (mbedtls_rsa_context *) ctx;
 142:C:/Users/Yushev/git/wpcqi-optiga-trust-charge/optiga/externals/mbedtls/library\pk_wrap.c ****     *olen = mbedtls_rsa_get_len( rsa );
 143:C:/Users/Yushev/git/wpcqi-optiga-trust-charge/optiga/externals/mbedtls/library\pk_wrap.c **** 
 144:C:/Users/Yushev/git/wpcqi-optiga-trust-charge/optiga/externals/mbedtls/library\pk_wrap.c ****     if( *olen > osize )
 145:C:/Users/Yushev/git/wpcqi-optiga-trust-charge/optiga/externals/mbedtls/library\pk_wrap.c ****         return( MBEDTLS_ERR_RSA_OUTPUT_TOO_LARGE );
 146:C:/Users/Yushev/git/wpcqi-optiga-trust-charge/optiga/externals/mbedtls/library\pk_wrap.c **** 
 147:C:/Users/Yushev/git/wpcqi-optiga-trust-charge/optiga/externals/mbedtls/library\pk_wrap.c ****     return( mbedtls_rsa_pkcs1_encrypt( rsa, f_rng, p_rng, MBEDTLS_RSA_PUBLIC,
 148:C:/Users/Yushev/git/wpcqi-optiga-trust-charge/optiga/externals/mbedtls/library\pk_wrap.c ****                                        ilen, input, output ) );
 149:C:/Users/Yushev/git/wpcqi-optiga-trust-charge/optiga/externals/mbedtls/library\pk_wrap.c **** }
 150:C:/Users/Yushev/git/wpcqi-optiga-trust-charge/optiga/externals/mbedtls/library\pk_wrap.c **** 
 151:C:/Users/Yushev/git/wpcqi-optiga-trust-charge/optiga/externals/mbedtls/library\pk_wrap.c **** static int rsa_check_pair_wrap( const void *pub, const void *prv )
 152:C:/Users/Yushev/git/wpcqi-optiga-trust-charge/optiga/externals/mbedtls/library\pk_wrap.c **** {
 153:C:/Users/Yushev/git/wpcqi-optiga-trust-charge/optiga/externals/mbedtls/library\pk_wrap.c ****     return( mbedtls_rsa_check_pub_priv( (const mbedtls_rsa_context *) pub,
 154:C:/Users/Yushev/git/wpcqi-optiga-trust-charge/optiga/externals/mbedtls/library\pk_wrap.c ****                                 (const mbedtls_rsa_context *) prv ) );
 155:C:/Users/Yushev/git/wpcqi-optiga-trust-charge/optiga/externals/mbedtls/library\pk_wrap.c **** }
 156:C:/Users/Yushev/git/wpcqi-optiga-trust-charge/optiga/externals/mbedtls/library\pk_wrap.c **** 
 157:C:/Users/Yushev/git/wpcqi-optiga-trust-charge/optiga/externals/mbedtls/library\pk_wrap.c **** static void *rsa_alloc_wrap( void )
 158:C:/Users/Yushev/git/wpcqi-optiga-trust-charge/optiga/externals/mbedtls/library\pk_wrap.c **** {
 159:C:/Users/Yushev/git/wpcqi-optiga-trust-charge/optiga/externals/mbedtls/library\pk_wrap.c ****     void *ctx = mbedtls_calloc( 1, sizeof( mbedtls_rsa_context ) );
 160:C:/Users/Yushev/git/wpcqi-optiga-trust-charge/optiga/externals/mbedtls/library\pk_wrap.c **** 
 161:C:/Users/Yushev/git/wpcqi-optiga-trust-charge/optiga/externals/mbedtls/library\pk_wrap.c ****     if( ctx != NULL )
 162:C:/Users/Yushev/git/wpcqi-optiga-trust-charge/optiga/externals/mbedtls/library\pk_wrap.c ****         mbedtls_rsa_init( (mbedtls_rsa_context *) ctx, 0, 0 );
 163:C:/Users/Yushev/git/wpcqi-optiga-trust-charge/optiga/externals/mbedtls/library\pk_wrap.c **** 
 164:C:/Users/Yushev/git/wpcqi-optiga-trust-charge/optiga/externals/mbedtls/library\pk_wrap.c ****     return( ctx );
 165:C:/Users/Yushev/git/wpcqi-optiga-trust-charge/optiga/externals/mbedtls/library\pk_wrap.c **** }
 166:C:/Users/Yushev/git/wpcqi-optiga-trust-charge/optiga/externals/mbedtls/library\pk_wrap.c **** 
 167:C:/Users/Yushev/git/wpcqi-optiga-trust-charge/optiga/externals/mbedtls/library\pk_wrap.c **** static void rsa_free_wrap( void *ctx )
 168:C:/Users/Yushev/git/wpcqi-optiga-trust-charge/optiga/externals/mbedtls/library\pk_wrap.c **** {
 169:C:/Users/Yushev/git/wpcqi-optiga-trust-charge/optiga/externals/mbedtls/library\pk_wrap.c ****     mbedtls_rsa_free( (mbedtls_rsa_context *) ctx );
 170:C:/Users/Yushev/git/wpcqi-optiga-trust-charge/optiga/externals/mbedtls/library\pk_wrap.c ****     mbedtls_free( ctx );
 171:C:/Users/Yushev/git/wpcqi-optiga-trust-charge/optiga/externals/mbedtls/library\pk_wrap.c **** }
 172:C:/Users/Yushev/git/wpcqi-optiga-trust-charge/optiga/externals/mbedtls/library\pk_wrap.c **** 
 173:C:/Users/Yushev/git/wpcqi-optiga-trust-charge/optiga/externals/mbedtls/library\pk_wrap.c **** static void rsa_debug( const void *ctx, mbedtls_pk_debug_item *items )
 174:C:/Users/Yushev/git/wpcqi-optiga-trust-charge/optiga/externals/mbedtls/library\pk_wrap.c **** {
 175:C:/Users/Yushev/git/wpcqi-optiga-trust-charge/optiga/externals/mbedtls/library\pk_wrap.c ****     items->type = MBEDTLS_PK_DEBUG_MPI;
 176:C:/Users/Yushev/git/wpcqi-optiga-trust-charge/optiga/externals/mbedtls/library\pk_wrap.c ****     items->name = "rsa.N";
 177:C:/Users/Yushev/git/wpcqi-optiga-trust-charge/optiga/externals/mbedtls/library\pk_wrap.c ****     items->value = &( ((mbedtls_rsa_context *) ctx)->N );
 178:C:/Users/Yushev/git/wpcqi-optiga-trust-charge/optiga/externals/mbedtls/library\pk_wrap.c **** 
 179:C:/Users/Yushev/git/wpcqi-optiga-trust-charge/optiga/externals/mbedtls/library\pk_wrap.c ****     items++;
 180:C:/Users/Yushev/git/wpcqi-optiga-trust-charge/optiga/externals/mbedtls/library\pk_wrap.c **** 
 181:C:/Users/Yushev/git/wpcqi-optiga-trust-charge/optiga/externals/mbedtls/library\pk_wrap.c ****     items->type = MBEDTLS_PK_DEBUG_MPI;
 182:C:/Users/Yushev/git/wpcqi-optiga-trust-charge/optiga/externals/mbedtls/library\pk_wrap.c ****     items->name = "rsa.E";
 183:C:/Users/Yushev/git/wpcqi-optiga-trust-charge/optiga/externals/mbedtls/library\pk_wrap.c ****     items->value = &( ((mbedtls_rsa_context *) ctx)->E );
 184:C:/Users/Yushev/git/wpcqi-optiga-trust-charge/optiga/externals/mbedtls/library\pk_wrap.c **** }
 185:C:/Users/Yushev/git/wpcqi-optiga-trust-charge/optiga/externals/mbedtls/library\pk_wrap.c **** 
 186:C:/Users/Yushev/git/wpcqi-optiga-trust-charge/optiga/externals/mbedtls/library\pk_wrap.c **** const mbedtls_pk_info_t mbedtls_rsa_info = {
 187:C:/Users/Yushev/git/wpcqi-optiga-trust-charge/optiga/externals/mbedtls/library\pk_wrap.c ****     MBEDTLS_PK_RSA,
 188:C:/Users/Yushev/git/wpcqi-optiga-trust-charge/optiga/externals/mbedtls/library\pk_wrap.c ****     "RSA",
 189:C:/Users/Yushev/git/wpcqi-optiga-trust-charge/optiga/externals/mbedtls/library\pk_wrap.c ****     rsa_get_bitlen,
 190:C:/Users/Yushev/git/wpcqi-optiga-trust-charge/optiga/externals/mbedtls/library\pk_wrap.c ****     rsa_can_do,
 191:C:/Users/Yushev/git/wpcqi-optiga-trust-charge/optiga/externals/mbedtls/library\pk_wrap.c ****     rsa_verify_wrap,
 192:C:/Users/Yushev/git/wpcqi-optiga-trust-charge/optiga/externals/mbedtls/library\pk_wrap.c ****     rsa_sign_wrap,
 193:C:/Users/Yushev/git/wpcqi-optiga-trust-charge/optiga/externals/mbedtls/library\pk_wrap.c **** #if defined(MBEDTLS_ECDSA_C) && defined(MBEDTLS_ECP_RESTARTABLE)
 194:C:/Users/Yushev/git/wpcqi-optiga-trust-charge/optiga/externals/mbedtls/library\pk_wrap.c ****     NULL,
 195:C:/Users/Yushev/git/wpcqi-optiga-trust-charge/optiga/externals/mbedtls/library\pk_wrap.c ****     NULL,
 196:C:/Users/Yushev/git/wpcqi-optiga-trust-charge/optiga/externals/mbedtls/library\pk_wrap.c **** #endif
 197:C:/Users/Yushev/git/wpcqi-optiga-trust-charge/optiga/externals/mbedtls/library\pk_wrap.c ****     rsa_decrypt_wrap,
 198:C:/Users/Yushev/git/wpcqi-optiga-trust-charge/optiga/externals/mbedtls/library\pk_wrap.c ****     rsa_encrypt_wrap,
 199:C:/Users/Yushev/git/wpcqi-optiga-trust-charge/optiga/externals/mbedtls/library\pk_wrap.c ****     rsa_check_pair_wrap,
 200:C:/Users/Yushev/git/wpcqi-optiga-trust-charge/optiga/externals/mbedtls/library\pk_wrap.c ****     rsa_alloc_wrap,
 201:C:/Users/Yushev/git/wpcqi-optiga-trust-charge/optiga/externals/mbedtls/library\pk_wrap.c ****     rsa_free_wrap,
 202:C:/Users/Yushev/git/wpcqi-optiga-trust-charge/optiga/externals/mbedtls/library\pk_wrap.c **** #if defined(MBEDTLS_ECDSA_C) && defined(MBEDTLS_ECP_RESTARTABLE)
 203:C:/Users/Yushev/git/wpcqi-optiga-trust-charge/optiga/externals/mbedtls/library\pk_wrap.c ****     NULL,
 204:C:/Users/Yushev/git/wpcqi-optiga-trust-charge/optiga/externals/mbedtls/library\pk_wrap.c ****     NULL,
 205:C:/Users/Yushev/git/wpcqi-optiga-trust-charge/optiga/externals/mbedtls/library\pk_wrap.c **** #endif
 206:C:/Users/Yushev/git/wpcqi-optiga-trust-charge/optiga/externals/mbedtls/library\pk_wrap.c ****     rsa_debug,
 207:C:/Users/Yushev/git/wpcqi-optiga-trust-charge/optiga/externals/mbedtls/library\pk_wrap.c **** };
 208:C:/Users/Yushev/git/wpcqi-optiga-trust-charge/optiga/externals/mbedtls/library\pk_wrap.c **** #endif /* MBEDTLS_RSA_C */
 209:C:/Users/Yushev/git/wpcqi-optiga-trust-charge/optiga/externals/mbedtls/library\pk_wrap.c **** 
 210:C:/Users/Yushev/git/wpcqi-optiga-trust-charge/optiga/externals/mbedtls/library\pk_wrap.c **** #if defined(MBEDTLS_ECP_C)
 211:C:/Users/Yushev/git/wpcqi-optiga-trust-charge/optiga/externals/mbedtls/library\pk_wrap.c **** /*
 212:C:/Users/Yushev/git/wpcqi-optiga-trust-charge/optiga/externals/mbedtls/library\pk_wrap.c ****  * Generic EC key
 213:C:/Users/Yushev/git/wpcqi-optiga-trust-charge/optiga/externals/mbedtls/library\pk_wrap.c ****  */
 214:C:/Users/Yushev/git/wpcqi-optiga-trust-charge/optiga/externals/mbedtls/library\pk_wrap.c **** static int eckey_can_do( mbedtls_pk_type_t type )
 215:C:/Users/Yushev/git/wpcqi-optiga-trust-charge/optiga/externals/mbedtls/library\pk_wrap.c **** {
  27              	 .loc 1 215 0
  28              	 .cfi_startproc
  29              	 
  30              	 
  31              	 
  32 0000 80B4     	 push {r7}
  33              	.LCFI0:
  34              	 .cfi_def_cfa_offset 4
  35              	 .cfi_offset 7,-4
  36 0002 83B0     	 sub sp,sp,#12
  37              	.LCFI1:
  38              	 .cfi_def_cfa_offset 16
  39 0004 00AF     	 add r7,sp,#0
  40              	.LCFI2:
  41              	 .cfi_def_cfa_register 7
  42 0006 0346     	 mov r3,r0
  43 0008 FB71     	 strb r3,[r7,#7]
 216:C:/Users/Yushev/git/wpcqi-optiga-trust-charge/optiga/externals/mbedtls/library\pk_wrap.c ****     return( type == MBEDTLS_PK_ECKEY ||
 217:C:/Users/Yushev/git/wpcqi-optiga-trust-charge/optiga/externals/mbedtls/library\pk_wrap.c ****             type == MBEDTLS_PK_ECKEY_DH ||
  44              	 .loc 1 217 0
  45 000a FB79     	 ldrb r3,[r7,#7]
  46 000c 022B     	 cmp r3,#2
  47 000e 05D0     	 beq .L2
 216:C:/Users/Yushev/git/wpcqi-optiga-trust-charge/optiga/externals/mbedtls/library\pk_wrap.c ****     return( type == MBEDTLS_PK_ECKEY ||
  48              	 .loc 1 216 0
  49 0010 FB79     	 ldrb r3,[r7,#7]
  50 0012 032B     	 cmp r3,#3
  51 0014 02D0     	 beq .L2
  52              	 .loc 1 217 0 discriminator 2
  53 0016 FB79     	 ldrb r3,[r7,#7]
  54 0018 042B     	 cmp r3,#4
  55 001a 01D1     	 bne .L3
  56              	.L2:
  57              	 .loc 1 217 0 is_stmt 0 discriminator 1
  58 001c 0123     	 movs r3,#1
  59 001e 00E0     	 b .L4
  60              	.L3:
  61              	 .loc 1 217 0 discriminator 3
  62 0020 0023     	 movs r3,#0
  63              	.L4:
 218:C:/Users/Yushev/git/wpcqi-optiga-trust-charge/optiga/externals/mbedtls/library\pk_wrap.c ****             type == MBEDTLS_PK_ECDSA );
 219:C:/Users/Yushev/git/wpcqi-optiga-trust-charge/optiga/externals/mbedtls/library\pk_wrap.c **** }
  64              	 .loc 1 219 0 is_stmt 1
  65 0022 1846     	 mov r0,r3
  66 0024 0C37     	 adds r7,r7,#12
  67              	.LCFI3:
  68              	 .cfi_def_cfa_offset 4
  69 0026 BD46     	 mov sp,r7
  70              	.LCFI4:
  71              	 .cfi_def_cfa_register 13
  72              	 
  73 0028 5DF8047B 	 ldr r7,[sp],#4
  74              	.LCFI5:
  75              	 .cfi_restore 7
  76              	 .cfi_def_cfa_offset 0
  77 002c 7047     	 bx lr
  78              	 .cfi_endproc
  79              	.LFE2:
  81 002e 00BF     	 .section .text.eckey_get_bitlen,"ax",%progbits
  82              	 .align 2
  83              	 .thumb
  84              	 .thumb_func
  86              	eckey_get_bitlen:
  87              	.LFB3:
 220:C:/Users/Yushev/git/wpcqi-optiga-trust-charge/optiga/externals/mbedtls/library\pk_wrap.c **** 
 221:C:/Users/Yushev/git/wpcqi-optiga-trust-charge/optiga/externals/mbedtls/library\pk_wrap.c **** static size_t eckey_get_bitlen( const void *ctx )
 222:C:/Users/Yushev/git/wpcqi-optiga-trust-charge/optiga/externals/mbedtls/library\pk_wrap.c **** {
  88              	 .loc 1 222 0
  89              	 .cfi_startproc
  90              	 
  91              	 
  92              	 
  93 0000 80B4     	 push {r7}
  94              	.LCFI6:
  95              	 .cfi_def_cfa_offset 4
  96              	 .cfi_offset 7,-4
  97 0002 83B0     	 sub sp,sp,#12
  98              	.LCFI7:
  99              	 .cfi_def_cfa_offset 16
 100 0004 00AF     	 add r7,sp,#0
 101              	.LCFI8:
 102              	 .cfi_def_cfa_register 7
 103 0006 7860     	 str r0,[r7,#4]
 223:C:/Users/Yushev/git/wpcqi-optiga-trust-charge/optiga/externals/mbedtls/library\pk_wrap.c ****     return( ((mbedtls_ecp_keypair *) ctx)->grp.pbits );
 104              	 .loc 1 223 0
 105 0008 7B68     	 ldr r3,[r7,#4]
 106 000a 9B6D     	 ldr r3,[r3,#88]
 224:C:/Users/Yushev/git/wpcqi-optiga-trust-charge/optiga/externals/mbedtls/library\pk_wrap.c **** }
 107              	 .loc 1 224 0
 108 000c 1846     	 mov r0,r3
 109 000e 0C37     	 adds r7,r7,#12
 110              	.LCFI9:
 111              	 .cfi_def_cfa_offset 4
 112 0010 BD46     	 mov sp,r7
 113              	.LCFI10:
 114              	 .cfi_def_cfa_register 13
 115              	 
 116 0012 5DF8047B 	 ldr r7,[sp],#4
 117              	.LCFI11:
 118              	 .cfi_restore 7
 119              	 .cfi_def_cfa_offset 0
 120 0016 7047     	 bx lr
 121              	 .cfi_endproc
 122              	.LFE3:
 124              	 .section .text.eckey_check_pair,"ax",%progbits
 125              	 .align 2
 126              	 .thumb
 127              	 .thumb_func
 129              	eckey_check_pair:
 130              	.LFB4:
 225:C:/Users/Yushev/git/wpcqi-optiga-trust-charge/optiga/externals/mbedtls/library\pk_wrap.c **** 
 226:C:/Users/Yushev/git/wpcqi-optiga-trust-charge/optiga/externals/mbedtls/library\pk_wrap.c **** #if defined(MBEDTLS_ECDSA_C)
 227:C:/Users/Yushev/git/wpcqi-optiga-trust-charge/optiga/externals/mbedtls/library\pk_wrap.c **** /* Forward declarations */
 228:C:/Users/Yushev/git/wpcqi-optiga-trust-charge/optiga/externals/mbedtls/library\pk_wrap.c **** static int ecdsa_verify_wrap( void *ctx, mbedtls_md_type_t md_alg,
 229:C:/Users/Yushev/git/wpcqi-optiga-trust-charge/optiga/externals/mbedtls/library\pk_wrap.c ****                        const unsigned char *hash, size_t hash_len,
 230:C:/Users/Yushev/git/wpcqi-optiga-trust-charge/optiga/externals/mbedtls/library\pk_wrap.c ****                        const unsigned char *sig, size_t sig_len );
 231:C:/Users/Yushev/git/wpcqi-optiga-trust-charge/optiga/externals/mbedtls/library\pk_wrap.c **** 
 232:C:/Users/Yushev/git/wpcqi-optiga-trust-charge/optiga/externals/mbedtls/library\pk_wrap.c **** static int ecdsa_sign_wrap( void *ctx, mbedtls_md_type_t md_alg,
 233:C:/Users/Yushev/git/wpcqi-optiga-trust-charge/optiga/externals/mbedtls/library\pk_wrap.c ****                    const unsigned char *hash, size_t hash_len,
 234:C:/Users/Yushev/git/wpcqi-optiga-trust-charge/optiga/externals/mbedtls/library\pk_wrap.c ****                    unsigned char *sig, size_t *sig_len,
 235:C:/Users/Yushev/git/wpcqi-optiga-trust-charge/optiga/externals/mbedtls/library\pk_wrap.c ****                    int (*f_rng)(void *, unsigned char *, size_t), void *p_rng );
 236:C:/Users/Yushev/git/wpcqi-optiga-trust-charge/optiga/externals/mbedtls/library\pk_wrap.c **** 
 237:C:/Users/Yushev/git/wpcqi-optiga-trust-charge/optiga/externals/mbedtls/library\pk_wrap.c **** static int eckey_verify_wrap( void *ctx, mbedtls_md_type_t md_alg,
 238:C:/Users/Yushev/git/wpcqi-optiga-trust-charge/optiga/externals/mbedtls/library\pk_wrap.c ****                        const unsigned char *hash, size_t hash_len,
 239:C:/Users/Yushev/git/wpcqi-optiga-trust-charge/optiga/externals/mbedtls/library\pk_wrap.c ****                        const unsigned char *sig, size_t sig_len )
 240:C:/Users/Yushev/git/wpcqi-optiga-trust-charge/optiga/externals/mbedtls/library\pk_wrap.c **** {
 241:C:/Users/Yushev/git/wpcqi-optiga-trust-charge/optiga/externals/mbedtls/library\pk_wrap.c ****     int ret;
 242:C:/Users/Yushev/git/wpcqi-optiga-trust-charge/optiga/externals/mbedtls/library\pk_wrap.c ****     mbedtls_ecdsa_context ecdsa;
 243:C:/Users/Yushev/git/wpcqi-optiga-trust-charge/optiga/externals/mbedtls/library\pk_wrap.c **** 
 244:C:/Users/Yushev/git/wpcqi-optiga-trust-charge/optiga/externals/mbedtls/library\pk_wrap.c ****     mbedtls_ecdsa_init( &ecdsa );
 245:C:/Users/Yushev/git/wpcqi-optiga-trust-charge/optiga/externals/mbedtls/library\pk_wrap.c **** 
 246:C:/Users/Yushev/git/wpcqi-optiga-trust-charge/optiga/externals/mbedtls/library\pk_wrap.c ****     if( ( ret = mbedtls_ecdsa_from_keypair( &ecdsa, ctx ) ) == 0 )
 247:C:/Users/Yushev/git/wpcqi-optiga-trust-charge/optiga/externals/mbedtls/library\pk_wrap.c ****         ret = ecdsa_verify_wrap( &ecdsa, md_alg, hash, hash_len, sig, sig_len );
 248:C:/Users/Yushev/git/wpcqi-optiga-trust-charge/optiga/externals/mbedtls/library\pk_wrap.c **** 
 249:C:/Users/Yushev/git/wpcqi-optiga-trust-charge/optiga/externals/mbedtls/library\pk_wrap.c ****     mbedtls_ecdsa_free( &ecdsa );
 250:C:/Users/Yushev/git/wpcqi-optiga-trust-charge/optiga/externals/mbedtls/library\pk_wrap.c **** 
 251:C:/Users/Yushev/git/wpcqi-optiga-trust-charge/optiga/externals/mbedtls/library\pk_wrap.c ****     return( ret );
 252:C:/Users/Yushev/git/wpcqi-optiga-trust-charge/optiga/externals/mbedtls/library\pk_wrap.c **** }
 253:C:/Users/Yushev/git/wpcqi-optiga-trust-charge/optiga/externals/mbedtls/library\pk_wrap.c **** 
 254:C:/Users/Yushev/git/wpcqi-optiga-trust-charge/optiga/externals/mbedtls/library\pk_wrap.c **** static int eckey_sign_wrap( void *ctx, mbedtls_md_type_t md_alg,
 255:C:/Users/Yushev/git/wpcqi-optiga-trust-charge/optiga/externals/mbedtls/library\pk_wrap.c ****                    const unsigned char *hash, size_t hash_len,
 256:C:/Users/Yushev/git/wpcqi-optiga-trust-charge/optiga/externals/mbedtls/library\pk_wrap.c ****                    unsigned char *sig, size_t *sig_len,
 257:C:/Users/Yushev/git/wpcqi-optiga-trust-charge/optiga/externals/mbedtls/library\pk_wrap.c ****                    int (*f_rng)(void *, unsigned char *, size_t), void *p_rng )
 258:C:/Users/Yushev/git/wpcqi-optiga-trust-charge/optiga/externals/mbedtls/library\pk_wrap.c **** {
 259:C:/Users/Yushev/git/wpcqi-optiga-trust-charge/optiga/externals/mbedtls/library\pk_wrap.c ****     int ret;
 260:C:/Users/Yushev/git/wpcqi-optiga-trust-charge/optiga/externals/mbedtls/library\pk_wrap.c ****     mbedtls_ecdsa_context ecdsa;
 261:C:/Users/Yushev/git/wpcqi-optiga-trust-charge/optiga/externals/mbedtls/library\pk_wrap.c **** 
 262:C:/Users/Yushev/git/wpcqi-optiga-trust-charge/optiga/externals/mbedtls/library\pk_wrap.c ****     mbedtls_ecdsa_init( &ecdsa );
 263:C:/Users/Yushev/git/wpcqi-optiga-trust-charge/optiga/externals/mbedtls/library\pk_wrap.c **** 
 264:C:/Users/Yushev/git/wpcqi-optiga-trust-charge/optiga/externals/mbedtls/library\pk_wrap.c ****     if( ( ret = mbedtls_ecdsa_from_keypair( &ecdsa, ctx ) ) == 0 )
 265:C:/Users/Yushev/git/wpcqi-optiga-trust-charge/optiga/externals/mbedtls/library\pk_wrap.c ****         ret = ecdsa_sign_wrap( &ecdsa, md_alg, hash, hash_len, sig, sig_len,
 266:C:/Users/Yushev/git/wpcqi-optiga-trust-charge/optiga/externals/mbedtls/library\pk_wrap.c ****                                f_rng, p_rng );
 267:C:/Users/Yushev/git/wpcqi-optiga-trust-charge/optiga/externals/mbedtls/library\pk_wrap.c **** 
 268:C:/Users/Yushev/git/wpcqi-optiga-trust-charge/optiga/externals/mbedtls/library\pk_wrap.c ****     mbedtls_ecdsa_free( &ecdsa );
 269:C:/Users/Yushev/git/wpcqi-optiga-trust-charge/optiga/externals/mbedtls/library\pk_wrap.c **** 
 270:C:/Users/Yushev/git/wpcqi-optiga-trust-charge/optiga/externals/mbedtls/library\pk_wrap.c ****     return( ret );
 271:C:/Users/Yushev/git/wpcqi-optiga-trust-charge/optiga/externals/mbedtls/library\pk_wrap.c **** }
 272:C:/Users/Yushev/git/wpcqi-optiga-trust-charge/optiga/externals/mbedtls/library\pk_wrap.c **** 
 273:C:/Users/Yushev/git/wpcqi-optiga-trust-charge/optiga/externals/mbedtls/library\pk_wrap.c **** #if defined(MBEDTLS_ECP_RESTARTABLE)
 274:C:/Users/Yushev/git/wpcqi-optiga-trust-charge/optiga/externals/mbedtls/library\pk_wrap.c **** /* Forward declarations */
 275:C:/Users/Yushev/git/wpcqi-optiga-trust-charge/optiga/externals/mbedtls/library\pk_wrap.c **** static int ecdsa_verify_rs_wrap( void *ctx, mbedtls_md_type_t md_alg,
 276:C:/Users/Yushev/git/wpcqi-optiga-trust-charge/optiga/externals/mbedtls/library\pk_wrap.c ****                        const unsigned char *hash, size_t hash_len,
 277:C:/Users/Yushev/git/wpcqi-optiga-trust-charge/optiga/externals/mbedtls/library\pk_wrap.c ****                        const unsigned char *sig, size_t sig_len,
 278:C:/Users/Yushev/git/wpcqi-optiga-trust-charge/optiga/externals/mbedtls/library\pk_wrap.c ****                        void *rs_ctx );
 279:C:/Users/Yushev/git/wpcqi-optiga-trust-charge/optiga/externals/mbedtls/library\pk_wrap.c **** 
 280:C:/Users/Yushev/git/wpcqi-optiga-trust-charge/optiga/externals/mbedtls/library\pk_wrap.c **** static int ecdsa_sign_rs_wrap( void *ctx, mbedtls_md_type_t md_alg,
 281:C:/Users/Yushev/git/wpcqi-optiga-trust-charge/optiga/externals/mbedtls/library\pk_wrap.c ****                    const unsigned char *hash, size_t hash_len,
 282:C:/Users/Yushev/git/wpcqi-optiga-trust-charge/optiga/externals/mbedtls/library\pk_wrap.c ****                    unsigned char *sig, size_t *sig_len,
 283:C:/Users/Yushev/git/wpcqi-optiga-trust-charge/optiga/externals/mbedtls/library\pk_wrap.c ****                    int (*f_rng)(void *, unsigned char *, size_t), void *p_rng,
 284:C:/Users/Yushev/git/wpcqi-optiga-trust-charge/optiga/externals/mbedtls/library\pk_wrap.c ****                    void *rs_ctx );
 285:C:/Users/Yushev/git/wpcqi-optiga-trust-charge/optiga/externals/mbedtls/library\pk_wrap.c **** 
 286:C:/Users/Yushev/git/wpcqi-optiga-trust-charge/optiga/externals/mbedtls/library\pk_wrap.c **** /*
 287:C:/Users/Yushev/git/wpcqi-optiga-trust-charge/optiga/externals/mbedtls/library\pk_wrap.c ****  * Restart context for ECDSA operations with ECKEY context
 288:C:/Users/Yushev/git/wpcqi-optiga-trust-charge/optiga/externals/mbedtls/library\pk_wrap.c ****  *
 289:C:/Users/Yushev/git/wpcqi-optiga-trust-charge/optiga/externals/mbedtls/library\pk_wrap.c ****  * We need to store an actual ECDSA context, as we need to pass the same to
 290:C:/Users/Yushev/git/wpcqi-optiga-trust-charge/optiga/externals/mbedtls/library\pk_wrap.c ****  * the underlying ecdsa function, so we can't create it on the fly every time.
 291:C:/Users/Yushev/git/wpcqi-optiga-trust-charge/optiga/externals/mbedtls/library\pk_wrap.c ****  */
 292:C:/Users/Yushev/git/wpcqi-optiga-trust-charge/optiga/externals/mbedtls/library\pk_wrap.c **** typedef struct
 293:C:/Users/Yushev/git/wpcqi-optiga-trust-charge/optiga/externals/mbedtls/library\pk_wrap.c **** {
 294:C:/Users/Yushev/git/wpcqi-optiga-trust-charge/optiga/externals/mbedtls/library\pk_wrap.c ****     mbedtls_ecdsa_restart_ctx ecdsa_rs;
 295:C:/Users/Yushev/git/wpcqi-optiga-trust-charge/optiga/externals/mbedtls/library\pk_wrap.c ****     mbedtls_ecdsa_context ecdsa_ctx;
 296:C:/Users/Yushev/git/wpcqi-optiga-trust-charge/optiga/externals/mbedtls/library\pk_wrap.c **** } eckey_restart_ctx;
 297:C:/Users/Yushev/git/wpcqi-optiga-trust-charge/optiga/externals/mbedtls/library\pk_wrap.c **** 
 298:C:/Users/Yushev/git/wpcqi-optiga-trust-charge/optiga/externals/mbedtls/library\pk_wrap.c **** static void *eckey_rs_alloc( void )
 299:C:/Users/Yushev/git/wpcqi-optiga-trust-charge/optiga/externals/mbedtls/library\pk_wrap.c **** {
 300:C:/Users/Yushev/git/wpcqi-optiga-trust-charge/optiga/externals/mbedtls/library\pk_wrap.c ****     eckey_restart_ctx *rs_ctx;
 301:C:/Users/Yushev/git/wpcqi-optiga-trust-charge/optiga/externals/mbedtls/library\pk_wrap.c **** 
 302:C:/Users/Yushev/git/wpcqi-optiga-trust-charge/optiga/externals/mbedtls/library\pk_wrap.c ****     void *ctx = mbedtls_calloc( 1, sizeof( eckey_restart_ctx ) );
 303:C:/Users/Yushev/git/wpcqi-optiga-trust-charge/optiga/externals/mbedtls/library\pk_wrap.c **** 
 304:C:/Users/Yushev/git/wpcqi-optiga-trust-charge/optiga/externals/mbedtls/library\pk_wrap.c ****     if( ctx != NULL )
 305:C:/Users/Yushev/git/wpcqi-optiga-trust-charge/optiga/externals/mbedtls/library\pk_wrap.c ****     {
 306:C:/Users/Yushev/git/wpcqi-optiga-trust-charge/optiga/externals/mbedtls/library\pk_wrap.c ****         rs_ctx = ctx;
 307:C:/Users/Yushev/git/wpcqi-optiga-trust-charge/optiga/externals/mbedtls/library\pk_wrap.c ****         mbedtls_ecdsa_restart_init( &rs_ctx->ecdsa_rs );
 308:C:/Users/Yushev/git/wpcqi-optiga-trust-charge/optiga/externals/mbedtls/library\pk_wrap.c ****         mbedtls_ecdsa_init( &rs_ctx->ecdsa_ctx );
 309:C:/Users/Yushev/git/wpcqi-optiga-trust-charge/optiga/externals/mbedtls/library\pk_wrap.c ****     }
 310:C:/Users/Yushev/git/wpcqi-optiga-trust-charge/optiga/externals/mbedtls/library\pk_wrap.c **** 
 311:C:/Users/Yushev/git/wpcqi-optiga-trust-charge/optiga/externals/mbedtls/library\pk_wrap.c ****     return( ctx );
 312:C:/Users/Yushev/git/wpcqi-optiga-trust-charge/optiga/externals/mbedtls/library\pk_wrap.c **** }
 313:C:/Users/Yushev/git/wpcqi-optiga-trust-charge/optiga/externals/mbedtls/library\pk_wrap.c **** 
 314:C:/Users/Yushev/git/wpcqi-optiga-trust-charge/optiga/externals/mbedtls/library\pk_wrap.c **** static void eckey_rs_free( void *ctx )
 315:C:/Users/Yushev/git/wpcqi-optiga-trust-charge/optiga/externals/mbedtls/library\pk_wrap.c **** {
 316:C:/Users/Yushev/git/wpcqi-optiga-trust-charge/optiga/externals/mbedtls/library\pk_wrap.c ****     eckey_restart_ctx *rs_ctx;
 317:C:/Users/Yushev/git/wpcqi-optiga-trust-charge/optiga/externals/mbedtls/library\pk_wrap.c **** 
 318:C:/Users/Yushev/git/wpcqi-optiga-trust-charge/optiga/externals/mbedtls/library\pk_wrap.c ****     if( ctx == NULL)
 319:C:/Users/Yushev/git/wpcqi-optiga-trust-charge/optiga/externals/mbedtls/library\pk_wrap.c ****         return;
 320:C:/Users/Yushev/git/wpcqi-optiga-trust-charge/optiga/externals/mbedtls/library\pk_wrap.c **** 
 321:C:/Users/Yushev/git/wpcqi-optiga-trust-charge/optiga/externals/mbedtls/library\pk_wrap.c ****     rs_ctx = ctx;
 322:C:/Users/Yushev/git/wpcqi-optiga-trust-charge/optiga/externals/mbedtls/library\pk_wrap.c ****     mbedtls_ecdsa_restart_free( &rs_ctx->ecdsa_rs );
 323:C:/Users/Yushev/git/wpcqi-optiga-trust-charge/optiga/externals/mbedtls/library\pk_wrap.c ****     mbedtls_ecdsa_free( &rs_ctx->ecdsa_ctx );
 324:C:/Users/Yushev/git/wpcqi-optiga-trust-charge/optiga/externals/mbedtls/library\pk_wrap.c **** 
 325:C:/Users/Yushev/git/wpcqi-optiga-trust-charge/optiga/externals/mbedtls/library\pk_wrap.c ****     mbedtls_free( ctx );
 326:C:/Users/Yushev/git/wpcqi-optiga-trust-charge/optiga/externals/mbedtls/library\pk_wrap.c **** }
 327:C:/Users/Yushev/git/wpcqi-optiga-trust-charge/optiga/externals/mbedtls/library\pk_wrap.c **** 
 328:C:/Users/Yushev/git/wpcqi-optiga-trust-charge/optiga/externals/mbedtls/library\pk_wrap.c **** static int eckey_verify_rs_wrap( void *ctx, mbedtls_md_type_t md_alg,
 329:C:/Users/Yushev/git/wpcqi-optiga-trust-charge/optiga/externals/mbedtls/library\pk_wrap.c ****                        const unsigned char *hash, size_t hash_len,
 330:C:/Users/Yushev/git/wpcqi-optiga-trust-charge/optiga/externals/mbedtls/library\pk_wrap.c ****                        const unsigned char *sig, size_t sig_len,
 331:C:/Users/Yushev/git/wpcqi-optiga-trust-charge/optiga/externals/mbedtls/library\pk_wrap.c ****                        void *rs_ctx )
 332:C:/Users/Yushev/git/wpcqi-optiga-trust-charge/optiga/externals/mbedtls/library\pk_wrap.c **** {
 333:C:/Users/Yushev/git/wpcqi-optiga-trust-charge/optiga/externals/mbedtls/library\pk_wrap.c ****     int ret;
 334:C:/Users/Yushev/git/wpcqi-optiga-trust-charge/optiga/externals/mbedtls/library\pk_wrap.c ****     eckey_restart_ctx *rs = rs_ctx;
 335:C:/Users/Yushev/git/wpcqi-optiga-trust-charge/optiga/externals/mbedtls/library\pk_wrap.c **** 
 336:C:/Users/Yushev/git/wpcqi-optiga-trust-charge/optiga/externals/mbedtls/library\pk_wrap.c ****     /* Should never happen */
 337:C:/Users/Yushev/git/wpcqi-optiga-trust-charge/optiga/externals/mbedtls/library\pk_wrap.c ****     if( rs == NULL )
 338:C:/Users/Yushev/git/wpcqi-optiga-trust-charge/optiga/externals/mbedtls/library\pk_wrap.c ****         return( MBEDTLS_ERR_PK_BAD_INPUT_DATA );
 339:C:/Users/Yushev/git/wpcqi-optiga-trust-charge/optiga/externals/mbedtls/library\pk_wrap.c **** 
 340:C:/Users/Yushev/git/wpcqi-optiga-trust-charge/optiga/externals/mbedtls/library\pk_wrap.c ****     /* set up our own sub-context if needed (that is, on first run) */
 341:C:/Users/Yushev/git/wpcqi-optiga-trust-charge/optiga/externals/mbedtls/library\pk_wrap.c ****     if( rs->ecdsa_ctx.grp.pbits == 0 )
 342:C:/Users/Yushev/git/wpcqi-optiga-trust-charge/optiga/externals/mbedtls/library\pk_wrap.c ****         MBEDTLS_MPI_CHK( mbedtls_ecdsa_from_keypair( &rs->ecdsa_ctx, ctx ) );
 343:C:/Users/Yushev/git/wpcqi-optiga-trust-charge/optiga/externals/mbedtls/library\pk_wrap.c **** 
 344:C:/Users/Yushev/git/wpcqi-optiga-trust-charge/optiga/externals/mbedtls/library\pk_wrap.c ****     MBEDTLS_MPI_CHK( ecdsa_verify_rs_wrap( &rs->ecdsa_ctx,
 345:C:/Users/Yushev/git/wpcqi-optiga-trust-charge/optiga/externals/mbedtls/library\pk_wrap.c ****                                            md_alg, hash, hash_len,
 346:C:/Users/Yushev/git/wpcqi-optiga-trust-charge/optiga/externals/mbedtls/library\pk_wrap.c ****                                            sig, sig_len, &rs->ecdsa_rs ) );
 347:C:/Users/Yushev/git/wpcqi-optiga-trust-charge/optiga/externals/mbedtls/library\pk_wrap.c **** 
 348:C:/Users/Yushev/git/wpcqi-optiga-trust-charge/optiga/externals/mbedtls/library\pk_wrap.c **** cleanup:
 349:C:/Users/Yushev/git/wpcqi-optiga-trust-charge/optiga/externals/mbedtls/library\pk_wrap.c ****     return( ret );
 350:C:/Users/Yushev/git/wpcqi-optiga-trust-charge/optiga/externals/mbedtls/library\pk_wrap.c **** }
 351:C:/Users/Yushev/git/wpcqi-optiga-trust-charge/optiga/externals/mbedtls/library\pk_wrap.c **** 
 352:C:/Users/Yushev/git/wpcqi-optiga-trust-charge/optiga/externals/mbedtls/library\pk_wrap.c **** static int eckey_sign_rs_wrap( void *ctx, mbedtls_md_type_t md_alg,
 353:C:/Users/Yushev/git/wpcqi-optiga-trust-charge/optiga/externals/mbedtls/library\pk_wrap.c ****                    const unsigned char *hash, size_t hash_len,
 354:C:/Users/Yushev/git/wpcqi-optiga-trust-charge/optiga/externals/mbedtls/library\pk_wrap.c ****                    unsigned char *sig, size_t *sig_len,
 355:C:/Users/Yushev/git/wpcqi-optiga-trust-charge/optiga/externals/mbedtls/library\pk_wrap.c ****                    int (*f_rng)(void *, unsigned char *, size_t), void *p_rng,
 356:C:/Users/Yushev/git/wpcqi-optiga-trust-charge/optiga/externals/mbedtls/library\pk_wrap.c ****                        void *rs_ctx )
 357:C:/Users/Yushev/git/wpcqi-optiga-trust-charge/optiga/externals/mbedtls/library\pk_wrap.c **** {
 358:C:/Users/Yushev/git/wpcqi-optiga-trust-charge/optiga/externals/mbedtls/library\pk_wrap.c ****     int ret;
 359:C:/Users/Yushev/git/wpcqi-optiga-trust-charge/optiga/externals/mbedtls/library\pk_wrap.c ****     eckey_restart_ctx *rs = rs_ctx;
 360:C:/Users/Yushev/git/wpcqi-optiga-trust-charge/optiga/externals/mbedtls/library\pk_wrap.c **** 
 361:C:/Users/Yushev/git/wpcqi-optiga-trust-charge/optiga/externals/mbedtls/library\pk_wrap.c ****     /* Should never happen */
 362:C:/Users/Yushev/git/wpcqi-optiga-trust-charge/optiga/externals/mbedtls/library\pk_wrap.c ****     if( rs == NULL )
 363:C:/Users/Yushev/git/wpcqi-optiga-trust-charge/optiga/externals/mbedtls/library\pk_wrap.c ****         return( MBEDTLS_ERR_PK_BAD_INPUT_DATA );
 364:C:/Users/Yushev/git/wpcqi-optiga-trust-charge/optiga/externals/mbedtls/library\pk_wrap.c **** 
 365:C:/Users/Yushev/git/wpcqi-optiga-trust-charge/optiga/externals/mbedtls/library\pk_wrap.c ****     /* set up our own sub-context if needed (that is, on first run) */
 366:C:/Users/Yushev/git/wpcqi-optiga-trust-charge/optiga/externals/mbedtls/library\pk_wrap.c ****     if( rs->ecdsa_ctx.grp.pbits == 0 )
 367:C:/Users/Yushev/git/wpcqi-optiga-trust-charge/optiga/externals/mbedtls/library\pk_wrap.c ****         MBEDTLS_MPI_CHK( mbedtls_ecdsa_from_keypair( &rs->ecdsa_ctx, ctx ) );
 368:C:/Users/Yushev/git/wpcqi-optiga-trust-charge/optiga/externals/mbedtls/library\pk_wrap.c **** 
 369:C:/Users/Yushev/git/wpcqi-optiga-trust-charge/optiga/externals/mbedtls/library\pk_wrap.c ****     MBEDTLS_MPI_CHK( ecdsa_sign_rs_wrap( &rs->ecdsa_ctx, md_alg,
 370:C:/Users/Yushev/git/wpcqi-optiga-trust-charge/optiga/externals/mbedtls/library\pk_wrap.c ****                                          hash, hash_len, sig, sig_len,
 371:C:/Users/Yushev/git/wpcqi-optiga-trust-charge/optiga/externals/mbedtls/library\pk_wrap.c ****                                          f_rng, p_rng, &rs->ecdsa_rs ) );
 372:C:/Users/Yushev/git/wpcqi-optiga-trust-charge/optiga/externals/mbedtls/library\pk_wrap.c **** 
 373:C:/Users/Yushev/git/wpcqi-optiga-trust-charge/optiga/externals/mbedtls/library\pk_wrap.c **** cleanup:
 374:C:/Users/Yushev/git/wpcqi-optiga-trust-charge/optiga/externals/mbedtls/library\pk_wrap.c ****     return( ret );
 375:C:/Users/Yushev/git/wpcqi-optiga-trust-charge/optiga/externals/mbedtls/library\pk_wrap.c **** }
 376:C:/Users/Yushev/git/wpcqi-optiga-trust-charge/optiga/externals/mbedtls/library\pk_wrap.c **** #endif /* MBEDTLS_ECP_RESTARTABLE */
 377:C:/Users/Yushev/git/wpcqi-optiga-trust-charge/optiga/externals/mbedtls/library\pk_wrap.c **** #endif /* MBEDTLS_ECDSA_C */
 378:C:/Users/Yushev/git/wpcqi-optiga-trust-charge/optiga/externals/mbedtls/library\pk_wrap.c **** 
 379:C:/Users/Yushev/git/wpcqi-optiga-trust-charge/optiga/externals/mbedtls/library\pk_wrap.c **** static int eckey_check_pair( const void *pub, const void *prv )
 380:C:/Users/Yushev/git/wpcqi-optiga-trust-charge/optiga/externals/mbedtls/library\pk_wrap.c **** {
 131              	 .loc 1 380 0
 132              	 .cfi_startproc
 133              	 
 134              	 
 135 0000 80B5     	 push {r7,lr}
 136              	.LCFI12:
 137              	 .cfi_def_cfa_offset 8
 138              	 .cfi_offset 7,-8
 139              	 .cfi_offset 14,-4
 140 0002 82B0     	 sub sp,sp,#8
 141              	.LCFI13:
 142              	 .cfi_def_cfa_offset 16
 143 0004 00AF     	 add r7,sp,#0
 144              	.LCFI14:
 145              	 .cfi_def_cfa_register 7
 146 0006 7860     	 str r0,[r7,#4]
 147 0008 3960     	 str r1,[r7]
 381:C:/Users/Yushev/git/wpcqi-optiga-trust-charge/optiga/externals/mbedtls/library\pk_wrap.c ****     return( mbedtls_ecp_check_pub_priv( (const mbedtls_ecp_keypair *) pub,
 148              	 .loc 1 381 0
 149 000a 7868     	 ldr r0,[r7,#4]
 150 000c 3968     	 ldr r1,[r7]
 151 000e FFF7FEFF 	 bl mbedtls_ecp_check_pub_priv
 152 0012 0346     	 mov r3,r0
 382:C:/Users/Yushev/git/wpcqi-optiga-trust-charge/optiga/externals/mbedtls/library\pk_wrap.c ****                                 (const mbedtls_ecp_keypair *) prv ) );
 383:C:/Users/Yushev/git/wpcqi-optiga-trust-charge/optiga/externals/mbedtls/library\pk_wrap.c **** }
 153              	 .loc 1 383 0
 154 0014 1846     	 mov r0,r3
 155 0016 0837     	 adds r7,r7,#8
 156              	.LCFI15:
 157              	 .cfi_def_cfa_offset 8
 158 0018 BD46     	 mov sp,r7
 159              	.LCFI16:
 160              	 .cfi_def_cfa_register 13
 161              	 
 162 001a 80BD     	 pop {r7,pc}
 163              	 .cfi_endproc
 164              	.LFE4:
 166              	 .section .text.eckey_alloc_wrap,"ax",%progbits
 167              	 .align 2
 168              	 .thumb
 169              	 .thumb_func
 171              	eckey_alloc_wrap:
 172              	.LFB5:
 384:C:/Users/Yushev/git/wpcqi-optiga-trust-charge/optiga/externals/mbedtls/library\pk_wrap.c **** 
 385:C:/Users/Yushev/git/wpcqi-optiga-trust-charge/optiga/externals/mbedtls/library\pk_wrap.c **** static void *eckey_alloc_wrap( void )
 386:C:/Users/Yushev/git/wpcqi-optiga-trust-charge/optiga/externals/mbedtls/library\pk_wrap.c **** {
 173              	 .loc 1 386 0
 174              	 .cfi_startproc
 175              	 
 176              	 
 177 0000 80B5     	 push {r7,lr}
 178              	.LCFI17:
 179              	 .cfi_def_cfa_offset 8
 180              	 .cfi_offset 7,-8
 181              	 .cfi_offset 14,-4
 182 0002 82B0     	 sub sp,sp,#8
 183              	.LCFI18:
 184              	 .cfi_def_cfa_offset 16
 185 0004 00AF     	 add r7,sp,#0
 186              	.LCFI19:
 187              	 .cfi_def_cfa_register 7
 387:C:/Users/Yushev/git/wpcqi-optiga-trust-charge/optiga/externals/mbedtls/library\pk_wrap.c ****     void *ctx = mbedtls_calloc( 1, sizeof( mbedtls_ecp_keypair ) );
 188              	 .loc 1 387 0
 189 0006 0120     	 movs r0,#1
 190 0008 AC21     	 movs r1,#172
 191 000a FFF7FEFF 	 bl calloc
 192 000e 0346     	 mov r3,r0
 193 0010 7B60     	 str r3,[r7,#4]
 388:C:/Users/Yushev/git/wpcqi-optiga-trust-charge/optiga/externals/mbedtls/library\pk_wrap.c **** 
 389:C:/Users/Yushev/git/wpcqi-optiga-trust-charge/optiga/externals/mbedtls/library\pk_wrap.c ****     if( ctx != NULL )
 194              	 .loc 1 389 0
 195 0012 7B68     	 ldr r3,[r7,#4]
 196 0014 002B     	 cmp r3,#0
 197 0016 02D0     	 beq .L11
 390:C:/Users/Yushev/git/wpcqi-optiga-trust-charge/optiga/externals/mbedtls/library\pk_wrap.c ****         mbedtls_ecp_keypair_init( ctx );
 198              	 .loc 1 390 0
 199 0018 7868     	 ldr r0,[r7,#4]
 200 001a FFF7FEFF 	 bl mbedtls_ecp_keypair_init
 201              	.L11:
 391:C:/Users/Yushev/git/wpcqi-optiga-trust-charge/optiga/externals/mbedtls/library\pk_wrap.c **** 
 392:C:/Users/Yushev/git/wpcqi-optiga-trust-charge/optiga/externals/mbedtls/library\pk_wrap.c ****     return( ctx );
 202              	 .loc 1 392 0
 203 001e 7B68     	 ldr r3,[r7,#4]
 393:C:/Users/Yushev/git/wpcqi-optiga-trust-charge/optiga/externals/mbedtls/library\pk_wrap.c **** }
 204              	 .loc 1 393 0
 205 0020 1846     	 mov r0,r3
 206 0022 0837     	 adds r7,r7,#8
 207              	.LCFI20:
 208              	 .cfi_def_cfa_offset 8
 209 0024 BD46     	 mov sp,r7
 210              	.LCFI21:
 211              	 .cfi_def_cfa_register 13
 212              	 
 213 0026 80BD     	 pop {r7,pc}
 214              	 .cfi_endproc
 215              	.LFE5:
 217              	 .section .text.eckey_free_wrap,"ax",%progbits
 218              	 .align 2
 219              	 .thumb
 220              	 .thumb_func
 222              	eckey_free_wrap:
 223              	.LFB6:
 394:C:/Users/Yushev/git/wpcqi-optiga-trust-charge/optiga/externals/mbedtls/library\pk_wrap.c **** 
 395:C:/Users/Yushev/git/wpcqi-optiga-trust-charge/optiga/externals/mbedtls/library\pk_wrap.c **** static void eckey_free_wrap( void *ctx )
 396:C:/Users/Yushev/git/wpcqi-optiga-trust-charge/optiga/externals/mbedtls/library\pk_wrap.c **** {
 224              	 .loc 1 396 0
 225              	 .cfi_startproc
 226              	 
 227              	 
 228 0000 80B5     	 push {r7,lr}
 229              	.LCFI22:
 230              	 .cfi_def_cfa_offset 8
 231              	 .cfi_offset 7,-8
 232              	 .cfi_offset 14,-4
 233 0002 82B0     	 sub sp,sp,#8
 234              	.LCFI23:
 235              	 .cfi_def_cfa_offset 16
 236 0004 00AF     	 add r7,sp,#0
 237              	.LCFI24:
 238              	 .cfi_def_cfa_register 7
 239 0006 7860     	 str r0,[r7,#4]
 397:C:/Users/Yushev/git/wpcqi-optiga-trust-charge/optiga/externals/mbedtls/library\pk_wrap.c ****     mbedtls_ecp_keypair_free( (mbedtls_ecp_keypair *) ctx );
 240              	 .loc 1 397 0
 241 0008 7868     	 ldr r0,[r7,#4]
 242 000a FFF7FEFF 	 bl mbedtls_ecp_keypair_free
 398:C:/Users/Yushev/git/wpcqi-optiga-trust-charge/optiga/externals/mbedtls/library\pk_wrap.c ****     mbedtls_free( ctx );
 243              	 .loc 1 398 0
 244 000e 7868     	 ldr r0,[r7,#4]
 245 0010 FFF7FEFF 	 bl free
 399:C:/Users/Yushev/git/wpcqi-optiga-trust-charge/optiga/externals/mbedtls/library\pk_wrap.c **** }
 246              	 .loc 1 399 0
 247 0014 0837     	 adds r7,r7,#8
 248              	.LCFI25:
 249              	 .cfi_def_cfa_offset 8
 250 0016 BD46     	 mov sp,r7
 251              	.LCFI26:
 252              	 .cfi_def_cfa_register 13
 253              	 
 254 0018 80BD     	 pop {r7,pc}
 255              	 .cfi_endproc
 256              	.LFE6:
 258 001a 00BF     	 .section .rodata
 259              	 .align 2
 260              	.LC0:
 261 0000 65636B65 	 .ascii "eckey.Q\000"
 261      792E5100 
 262              	 .section .text.eckey_debug,"ax",%progbits
 263              	 .align 2
 264              	 .thumb
 265              	 .thumb_func
 267              	eckey_debug:
 268              	.LFB7:
 400:C:/Users/Yushev/git/wpcqi-optiga-trust-charge/optiga/externals/mbedtls/library\pk_wrap.c **** 
 401:C:/Users/Yushev/git/wpcqi-optiga-trust-charge/optiga/externals/mbedtls/library\pk_wrap.c **** static void eckey_debug( const void *ctx, mbedtls_pk_debug_item *items )
 402:C:/Users/Yushev/git/wpcqi-optiga-trust-charge/optiga/externals/mbedtls/library\pk_wrap.c **** {
 269              	 .loc 1 402 0
 270              	 .cfi_startproc
 271              	 
 272              	 
 273              	 
 274 0000 80B4     	 push {r7}
 275              	.LCFI27:
 276              	 .cfi_def_cfa_offset 4
 277              	 .cfi_offset 7,-4
 278 0002 83B0     	 sub sp,sp,#12
 279              	.LCFI28:
 280              	 .cfi_def_cfa_offset 16
 281 0004 00AF     	 add r7,sp,#0
 282              	.LCFI29:
 283              	 .cfi_def_cfa_register 7
 284 0006 7860     	 str r0,[r7,#4]
 285 0008 3960     	 str r1,[r7]
 403:C:/Users/Yushev/git/wpcqi-optiga-trust-charge/optiga/externals/mbedtls/library\pk_wrap.c ****     items->type = MBEDTLS_PK_DEBUG_ECP;
 286              	 .loc 1 403 0
 287 000a 3B68     	 ldr r3,[r7]
 288 000c 0222     	 movs r2,#2
 289 000e 1A70     	 strb r2,[r3]
 404:C:/Users/Yushev/git/wpcqi-optiga-trust-charge/optiga/externals/mbedtls/library\pk_wrap.c ****     items->name = "eckey.Q";
 290              	 .loc 1 404 0
 291 0010 3B68     	 ldr r3,[r7]
 292 0012 064A     	 ldr r2,.L15
 293 0014 5A60     	 str r2,[r3,#4]
 405:C:/Users/Yushev/git/wpcqi-optiga-trust-charge/optiga/externals/mbedtls/library\pk_wrap.c ****     items->value = &( ((mbedtls_ecp_keypair *) ctx)->Q );
 294              	 .loc 1 405 0
 295 0016 7B68     	 ldr r3,[r7,#4]
 296 0018 03F18802 	 add r2,r3,#136
 297 001c 3B68     	 ldr r3,[r7]
 298 001e 9A60     	 str r2,[r3,#8]
 406:C:/Users/Yushev/git/wpcqi-optiga-trust-charge/optiga/externals/mbedtls/library\pk_wrap.c **** }
 299              	 .loc 1 406 0
 300 0020 0C37     	 adds r7,r7,#12
 301              	.LCFI30:
 302              	 .cfi_def_cfa_offset 4
 303 0022 BD46     	 mov sp,r7
 304              	.LCFI31:
 305              	 .cfi_def_cfa_register 13
 306              	 
 307 0024 5DF8047B 	 ldr r7,[sp],#4
 308              	.LCFI32:
 309              	 .cfi_restore 7
 310              	 .cfi_def_cfa_offset 0
 311 0028 7047     	 bx lr
 312              	.L16:
 313 002a 00BF     	 .align 2
 314              	.L15:
 315 002c 00000000 	 .word .LC0
 316              	 .cfi_endproc
 317              	.LFE7:
 319              	 .global mbedtls_eckey_info
 320              	 .section .rodata
 321              	 .align 2
 322              	.LC1:
 323 0008 454300   	 .ascii "EC\000"
 324              	 .section .rodata.mbedtls_eckey_info,"a",%progbits
 325              	 .align 2
 328              	mbedtls_eckey_info:
 329 0000 02       	 .byte 2
 330 0001 000000   	 .space 3
 331 0004 08000000 	 .word .LC1
 332 0008 00000000 	 .word eckey_get_bitlen
 333 000c 00000000 	 .word eckey_can_do
 334 0010 00000000 	 .word 0
 335 0014 00000000 	 .word 0
 336 0018 00000000 	 .word 0
 337 001c 00000000 	 .word 0
 338 0020 00000000 	 .word eckey_check_pair
 339 0024 00000000 	 .word eckey_alloc_wrap
 340 0028 00000000 	 .word eckey_free_wrap
 341 002c 00000000 	 .word eckey_debug
 342              	 .section .text.eckeydh_can_do,"ax",%progbits
 343              	 .align 2
 344              	 .thumb
 345              	 .thumb_func
 347              	eckeydh_can_do:
 348              	.LFB8:
 407:C:/Users/Yushev/git/wpcqi-optiga-trust-charge/optiga/externals/mbedtls/library\pk_wrap.c **** 
 408:C:/Users/Yushev/git/wpcqi-optiga-trust-charge/optiga/externals/mbedtls/library\pk_wrap.c **** const mbedtls_pk_info_t mbedtls_eckey_info = {
 409:C:/Users/Yushev/git/wpcqi-optiga-trust-charge/optiga/externals/mbedtls/library\pk_wrap.c ****     MBEDTLS_PK_ECKEY,
 410:C:/Users/Yushev/git/wpcqi-optiga-trust-charge/optiga/externals/mbedtls/library\pk_wrap.c ****     "EC",
 411:C:/Users/Yushev/git/wpcqi-optiga-trust-charge/optiga/externals/mbedtls/library\pk_wrap.c ****     eckey_get_bitlen,
 412:C:/Users/Yushev/git/wpcqi-optiga-trust-charge/optiga/externals/mbedtls/library\pk_wrap.c ****     eckey_can_do,
 413:C:/Users/Yushev/git/wpcqi-optiga-trust-charge/optiga/externals/mbedtls/library\pk_wrap.c **** #if defined(MBEDTLS_ECDSA_C)
 414:C:/Users/Yushev/git/wpcqi-optiga-trust-charge/optiga/externals/mbedtls/library\pk_wrap.c ****     eckey_verify_wrap,
 415:C:/Users/Yushev/git/wpcqi-optiga-trust-charge/optiga/externals/mbedtls/library\pk_wrap.c ****     eckey_sign_wrap,
 416:C:/Users/Yushev/git/wpcqi-optiga-trust-charge/optiga/externals/mbedtls/library\pk_wrap.c **** #if defined(MBEDTLS_ECP_RESTARTABLE)
 417:C:/Users/Yushev/git/wpcqi-optiga-trust-charge/optiga/externals/mbedtls/library\pk_wrap.c ****     eckey_verify_rs_wrap,
 418:C:/Users/Yushev/git/wpcqi-optiga-trust-charge/optiga/externals/mbedtls/library\pk_wrap.c ****     eckey_sign_rs_wrap,
 419:C:/Users/Yushev/git/wpcqi-optiga-trust-charge/optiga/externals/mbedtls/library\pk_wrap.c **** #endif
 420:C:/Users/Yushev/git/wpcqi-optiga-trust-charge/optiga/externals/mbedtls/library\pk_wrap.c **** #else /* MBEDTLS_ECDSA_C */
 421:C:/Users/Yushev/git/wpcqi-optiga-trust-charge/optiga/externals/mbedtls/library\pk_wrap.c ****     NULL,
 422:C:/Users/Yushev/git/wpcqi-optiga-trust-charge/optiga/externals/mbedtls/library\pk_wrap.c ****     NULL,
 423:C:/Users/Yushev/git/wpcqi-optiga-trust-charge/optiga/externals/mbedtls/library\pk_wrap.c **** #endif /* MBEDTLS_ECDSA_C */
 424:C:/Users/Yushev/git/wpcqi-optiga-trust-charge/optiga/externals/mbedtls/library\pk_wrap.c ****     NULL,
 425:C:/Users/Yushev/git/wpcqi-optiga-trust-charge/optiga/externals/mbedtls/library\pk_wrap.c ****     NULL,
 426:C:/Users/Yushev/git/wpcqi-optiga-trust-charge/optiga/externals/mbedtls/library\pk_wrap.c ****     eckey_check_pair,
 427:C:/Users/Yushev/git/wpcqi-optiga-trust-charge/optiga/externals/mbedtls/library\pk_wrap.c ****     eckey_alloc_wrap,
 428:C:/Users/Yushev/git/wpcqi-optiga-trust-charge/optiga/externals/mbedtls/library\pk_wrap.c ****     eckey_free_wrap,
 429:C:/Users/Yushev/git/wpcqi-optiga-trust-charge/optiga/externals/mbedtls/library\pk_wrap.c **** #if defined(MBEDTLS_ECDSA_C) && defined(MBEDTLS_ECP_RESTARTABLE)
 430:C:/Users/Yushev/git/wpcqi-optiga-trust-charge/optiga/externals/mbedtls/library\pk_wrap.c ****     eckey_rs_alloc,
 431:C:/Users/Yushev/git/wpcqi-optiga-trust-charge/optiga/externals/mbedtls/library\pk_wrap.c ****     eckey_rs_free,
 432:C:/Users/Yushev/git/wpcqi-optiga-trust-charge/optiga/externals/mbedtls/library\pk_wrap.c **** #endif
 433:C:/Users/Yushev/git/wpcqi-optiga-trust-charge/optiga/externals/mbedtls/library\pk_wrap.c ****     eckey_debug,
 434:C:/Users/Yushev/git/wpcqi-optiga-trust-charge/optiga/externals/mbedtls/library\pk_wrap.c **** };
 435:C:/Users/Yushev/git/wpcqi-optiga-trust-charge/optiga/externals/mbedtls/library\pk_wrap.c **** 
 436:C:/Users/Yushev/git/wpcqi-optiga-trust-charge/optiga/externals/mbedtls/library\pk_wrap.c **** /*
 437:C:/Users/Yushev/git/wpcqi-optiga-trust-charge/optiga/externals/mbedtls/library\pk_wrap.c ****  * EC key restricted to ECDH
 438:C:/Users/Yushev/git/wpcqi-optiga-trust-charge/optiga/externals/mbedtls/library\pk_wrap.c ****  */
 439:C:/Users/Yushev/git/wpcqi-optiga-trust-charge/optiga/externals/mbedtls/library\pk_wrap.c **** static int eckeydh_can_do( mbedtls_pk_type_t type )
 440:C:/Users/Yushev/git/wpcqi-optiga-trust-charge/optiga/externals/mbedtls/library\pk_wrap.c **** {
 349              	 .loc 1 440 0
 350              	 .cfi_startproc
 351              	 
 352              	 
 353              	 
 354 0000 80B4     	 push {r7}
 355              	.LCFI33:
 356              	 .cfi_def_cfa_offset 4
 357              	 .cfi_offset 7,-4
 358 0002 83B0     	 sub sp,sp,#12
 359              	.LCFI34:
 360              	 .cfi_def_cfa_offset 16
 361 0004 00AF     	 add r7,sp,#0
 362              	.LCFI35:
 363              	 .cfi_def_cfa_register 7
 364 0006 0346     	 mov r3,r0
 365 0008 FB71     	 strb r3,[r7,#7]
 441:C:/Users/Yushev/git/wpcqi-optiga-trust-charge/optiga/externals/mbedtls/library\pk_wrap.c ****     return( type == MBEDTLS_PK_ECKEY ||
 366              	 .loc 1 441 0
 367 000a FB79     	 ldrb r3,[r7,#7]
 368 000c 022B     	 cmp r3,#2
 369 000e 02D0     	 beq .L18
 370              	 .loc 1 441 0 is_stmt 0 discriminator 2
 371 0010 FB79     	 ldrb r3,[r7,#7]
 372 0012 032B     	 cmp r3,#3
 373 0014 01D1     	 bne .L19
 374              	.L18:
 375              	 .loc 1 441 0 discriminator 3
 376 0016 0123     	 movs r3,#1
 377 0018 00E0     	 b .L20
 378              	.L19:
 379              	 .loc 1 441 0 discriminator 4
 380 001a 0023     	 movs r3,#0
 381              	.L20:
 442:C:/Users/Yushev/git/wpcqi-optiga-trust-charge/optiga/externals/mbedtls/library\pk_wrap.c ****             type == MBEDTLS_PK_ECKEY_DH );
 443:C:/Users/Yushev/git/wpcqi-optiga-trust-charge/optiga/externals/mbedtls/library\pk_wrap.c **** }
 382              	 .loc 1 443 0 is_stmt 1 discriminator 6
 383 001c 1846     	 mov r0,r3
 384 001e 0C37     	 adds r7,r7,#12
 385              	.LCFI36:
 386              	 .cfi_def_cfa_offset 4
 387 0020 BD46     	 mov sp,r7
 388              	.LCFI37:
 389              	 .cfi_def_cfa_register 13
 390              	 
 391 0022 5DF8047B 	 ldr r7,[sp],#4
 392              	.LCFI38:
 393              	 .cfi_restore 7
 394              	 .cfi_def_cfa_offset 0
 395 0026 7047     	 bx lr
 396              	 .cfi_endproc
 397              	.LFE8:
 399              	 .global mbedtls_eckeydh_info
 400              	 .section .rodata
 401 000b 00       	 .align 2
 402              	.LC2:
 403 000c 45435F44 	 .ascii "EC_DH\000"
 403      4800
 404 0012 0000     	 .section .rodata.mbedtls_eckeydh_info,"a",%progbits
 405              	 .align 2
 408              	mbedtls_eckeydh_info:
 409 0000 03       	 .byte 3
 410 0001 000000   	 .space 3
 411 0004 0C000000 	 .word .LC2
 412 0008 00000000 	 .word eckey_get_bitlen
 413 000c 00000000 	 .word eckeydh_can_do
 414 0010 00000000 	 .word 0
 415 0014 00000000 	 .word 0
 416 0018 00000000 	 .word 0
 417 001c 00000000 	 .word 0
 418 0020 00000000 	 .word eckey_check_pair
 419 0024 00000000 	 .word eckey_alloc_wrap
 420 0028 00000000 	 .word eckey_free_wrap
 421 002c 00000000 	 .word eckey_debug
 422              	 .text
 423              	.Letext0:
 424              	 .file 2 "c:\\users\\yushev\\dave_4-4-2_32bit_2018-02-23\\dave-ide-4.4.2-32bit\\eclipse\\arm-gcc-49\\lib\\gcc\\arm-none-eabi\\4.9.3\\include\\stddef.h"
 425              	 .file 3 "C:/Users/Yushev/git/wpcqi-optiga-trust-charge/optiga/externals/mbedtls/include/mbedtls/md.h"
 426              	 .file 4 "c:\\users\\yushev\\dave_4-4-2_32bit_2018-02-23\\dave-ide-4.4.2-32bit\\eclipse\\arm-gcc-49\\arm-none-eabi\\include\\machine\\_default_types.h"
 427              	 .file 5 "c:\\users\\yushev\\dave_4-4-2_32bit_2018-02-23\\dave-ide-4.4.2-32bit\\eclipse\\arm-gcc-49\\arm-none-eabi\\include\\stdint.h"
 428              	 .file 6 "C:/Users/Yushev/git/wpcqi-optiga-trust-charge/optiga/externals/mbedtls/include/mbedtls/bignum.h"
 429              	 .file 7 "C:/Users/Yushev/git/wpcqi-optiga-trust-charge/optiga/externals/mbedtls/include/mbedtls/ecp.h"
 430              	 .file 8 "C:/Users/Yushev/git/wpcqi-optiga-trust-charge/optiga/externals/mbedtls/include/mbedtls/pk.h"
 431              	 .file 9 "C:/Users/Yushev/git/wpcqi-optiga-trust-charge/optiga/externals/mbedtls/include/mbedtls/pk_internal.h"