   1              	 .syntax unified
   2              	 .cpu cortex-m4
   3              	 .eabi_attribute 27,3
   4              	 .fpu fpv4-sp-d16
   5              	 .eabi_attribute 20,1
   6              	 .eabi_attribute 21,1
   7              	 .eabi_attribute 23,3
   8              	 .eabi_attribute 24,1
   9              	 .eabi_attribute 25,1
  10              	 .eabi_attribute 26,1
  11              	 .eabi_attribute 30,6
  12              	 .eabi_attribute 34,1
  13              	 .eabi_attribute 18,4
  14              	 .thumb
  15              	 .file "pkparse.c"
  16              	 .text
  17              	.Ltext0:
  18              	 .cfi_sections .debug_frame
  19              	 .section .text.mbedtls_pk_ec,"ax",%progbits
  20              	 .align 2
  21              	 .thumb
  22              	 .thumb_func
  24              	mbedtls_pk_ec:
  25              	.LFB0:
  26              	 .file 1 "C:/Users/Yushev/git/wpcqi-optiga-trust-charge/optiga/externals/mbedtls/include/mbedtls/pk.h"
   1:C:/Users/Yushev/git/wpcqi-optiga-trust-charge/optiga/externals/mbedtls/include/mbedtls\pk.h **** /**
   2:C:/Users/Yushev/git/wpcqi-optiga-trust-charge/optiga/externals/mbedtls/include/mbedtls\pk.h ****  * \file pk.h
   3:C:/Users/Yushev/git/wpcqi-optiga-trust-charge/optiga/externals/mbedtls/include/mbedtls\pk.h ****  *
   4:C:/Users/Yushev/git/wpcqi-optiga-trust-charge/optiga/externals/mbedtls/include/mbedtls\pk.h ****  * \brief Public Key abstraction layer
   5:C:/Users/Yushev/git/wpcqi-optiga-trust-charge/optiga/externals/mbedtls/include/mbedtls\pk.h ****  */
   6:C:/Users/Yushev/git/wpcqi-optiga-trust-charge/optiga/externals/mbedtls/include/mbedtls\pk.h **** /*
   7:C:/Users/Yushev/git/wpcqi-optiga-trust-charge/optiga/externals/mbedtls/include/mbedtls\pk.h ****  *  Copyright (C) 2006-2015, ARM Limited, All Rights Reserved
   8:C:/Users/Yushev/git/wpcqi-optiga-trust-charge/optiga/externals/mbedtls/include/mbedtls\pk.h ****  *  SPDX-License-Identifier: Apache-2.0
   9:C:/Users/Yushev/git/wpcqi-optiga-trust-charge/optiga/externals/mbedtls/include/mbedtls\pk.h ****  *
  10:C:/Users/Yushev/git/wpcqi-optiga-trust-charge/optiga/externals/mbedtls/include/mbedtls\pk.h ****  *  Licensed under the Apache License, Version 2.0 (the "License"); you may
  11:C:/Users/Yushev/git/wpcqi-optiga-trust-charge/optiga/externals/mbedtls/include/mbedtls\pk.h ****  *  not use this file except in compliance with the License.
  12:C:/Users/Yushev/git/wpcqi-optiga-trust-charge/optiga/externals/mbedtls/include/mbedtls\pk.h ****  *  You may obtain a copy of the License at
  13:C:/Users/Yushev/git/wpcqi-optiga-trust-charge/optiga/externals/mbedtls/include/mbedtls\pk.h ****  *
  14:C:/Users/Yushev/git/wpcqi-optiga-trust-charge/optiga/externals/mbedtls/include/mbedtls\pk.h ****  *  http://www.apache.org/licenses/LICENSE-2.0
  15:C:/Users/Yushev/git/wpcqi-optiga-trust-charge/optiga/externals/mbedtls/include/mbedtls\pk.h ****  *
  16:C:/Users/Yushev/git/wpcqi-optiga-trust-charge/optiga/externals/mbedtls/include/mbedtls\pk.h ****  *  Unless required by applicable law or agreed to in writing, software
  17:C:/Users/Yushev/git/wpcqi-optiga-trust-charge/optiga/externals/mbedtls/include/mbedtls\pk.h ****  *  distributed under the License is distributed on an "AS IS" BASIS, WITHOUT
  18:C:/Users/Yushev/git/wpcqi-optiga-trust-charge/optiga/externals/mbedtls/include/mbedtls\pk.h ****  *  WARRANTIES OR CONDITIONS OF ANY KIND, either express or implied.
  19:C:/Users/Yushev/git/wpcqi-optiga-trust-charge/optiga/externals/mbedtls/include/mbedtls\pk.h ****  *  See the License for the specific language governing permissions and
  20:C:/Users/Yushev/git/wpcqi-optiga-trust-charge/optiga/externals/mbedtls/include/mbedtls\pk.h ****  *  limitations under the License.
  21:C:/Users/Yushev/git/wpcqi-optiga-trust-charge/optiga/externals/mbedtls/include/mbedtls\pk.h ****  *
  22:C:/Users/Yushev/git/wpcqi-optiga-trust-charge/optiga/externals/mbedtls/include/mbedtls\pk.h ****  *  This file is part of mbed TLS (https://tls.mbed.org)
  23:C:/Users/Yushev/git/wpcqi-optiga-trust-charge/optiga/externals/mbedtls/include/mbedtls\pk.h ****  */
  24:C:/Users/Yushev/git/wpcqi-optiga-trust-charge/optiga/externals/mbedtls/include/mbedtls\pk.h **** 
  25:C:/Users/Yushev/git/wpcqi-optiga-trust-charge/optiga/externals/mbedtls/include/mbedtls\pk.h **** #ifndef MBEDTLS_PK_H
  26:C:/Users/Yushev/git/wpcqi-optiga-trust-charge/optiga/externals/mbedtls/include/mbedtls\pk.h **** #define MBEDTLS_PK_H
  27:C:/Users/Yushev/git/wpcqi-optiga-trust-charge/optiga/externals/mbedtls/include/mbedtls\pk.h **** 
  28:C:/Users/Yushev/git/wpcqi-optiga-trust-charge/optiga/externals/mbedtls/include/mbedtls\pk.h **** #if !defined(MBEDTLS_CONFIG_FILE)
  29:C:/Users/Yushev/git/wpcqi-optiga-trust-charge/optiga/externals/mbedtls/include/mbedtls\pk.h **** #include "config.h"
  30:C:/Users/Yushev/git/wpcqi-optiga-trust-charge/optiga/externals/mbedtls/include/mbedtls\pk.h **** #else
  31:C:/Users/Yushev/git/wpcqi-optiga-trust-charge/optiga/externals/mbedtls/include/mbedtls\pk.h **** #include MBEDTLS_CONFIG_FILE
  32:C:/Users/Yushev/git/wpcqi-optiga-trust-charge/optiga/externals/mbedtls/include/mbedtls\pk.h **** #endif
  33:C:/Users/Yushev/git/wpcqi-optiga-trust-charge/optiga/externals/mbedtls/include/mbedtls\pk.h **** 
  34:C:/Users/Yushev/git/wpcqi-optiga-trust-charge/optiga/externals/mbedtls/include/mbedtls\pk.h **** #include "md.h"
  35:C:/Users/Yushev/git/wpcqi-optiga-trust-charge/optiga/externals/mbedtls/include/mbedtls\pk.h **** 
  36:C:/Users/Yushev/git/wpcqi-optiga-trust-charge/optiga/externals/mbedtls/include/mbedtls\pk.h **** #if defined(MBEDTLS_RSA_C)
  37:C:/Users/Yushev/git/wpcqi-optiga-trust-charge/optiga/externals/mbedtls/include/mbedtls\pk.h **** #include "rsa.h"
  38:C:/Users/Yushev/git/wpcqi-optiga-trust-charge/optiga/externals/mbedtls/include/mbedtls\pk.h **** #endif
  39:C:/Users/Yushev/git/wpcqi-optiga-trust-charge/optiga/externals/mbedtls/include/mbedtls\pk.h **** 
  40:C:/Users/Yushev/git/wpcqi-optiga-trust-charge/optiga/externals/mbedtls/include/mbedtls\pk.h **** #if defined(MBEDTLS_ECP_C)
  41:C:/Users/Yushev/git/wpcqi-optiga-trust-charge/optiga/externals/mbedtls/include/mbedtls\pk.h **** #include "ecp.h"
  42:C:/Users/Yushev/git/wpcqi-optiga-trust-charge/optiga/externals/mbedtls/include/mbedtls\pk.h **** #endif
  43:C:/Users/Yushev/git/wpcqi-optiga-trust-charge/optiga/externals/mbedtls/include/mbedtls\pk.h **** 
  44:C:/Users/Yushev/git/wpcqi-optiga-trust-charge/optiga/externals/mbedtls/include/mbedtls\pk.h **** #if defined(MBEDTLS_ECDSA_C)
  45:C:/Users/Yushev/git/wpcqi-optiga-trust-charge/optiga/externals/mbedtls/include/mbedtls\pk.h **** #include "ecdsa.h"
  46:C:/Users/Yushev/git/wpcqi-optiga-trust-charge/optiga/externals/mbedtls/include/mbedtls\pk.h **** #endif
  47:C:/Users/Yushev/git/wpcqi-optiga-trust-charge/optiga/externals/mbedtls/include/mbedtls\pk.h **** 
  48:C:/Users/Yushev/git/wpcqi-optiga-trust-charge/optiga/externals/mbedtls/include/mbedtls\pk.h **** #if ( defined(__ARMCC_VERSION) || defined(_MSC_VER) ) && \
  49:C:/Users/Yushev/git/wpcqi-optiga-trust-charge/optiga/externals/mbedtls/include/mbedtls\pk.h ****     !defined(inline) && !defined(__cplusplus)
  50:C:/Users/Yushev/git/wpcqi-optiga-trust-charge/optiga/externals/mbedtls/include/mbedtls\pk.h **** #define inline __inline
  51:C:/Users/Yushev/git/wpcqi-optiga-trust-charge/optiga/externals/mbedtls/include/mbedtls\pk.h **** #endif
  52:C:/Users/Yushev/git/wpcqi-optiga-trust-charge/optiga/externals/mbedtls/include/mbedtls\pk.h **** 
  53:C:/Users/Yushev/git/wpcqi-optiga-trust-charge/optiga/externals/mbedtls/include/mbedtls\pk.h **** #define MBEDTLS_ERR_PK_ALLOC_FAILED        -0x3F80  /**< Memory allocation failed. */
  54:C:/Users/Yushev/git/wpcqi-optiga-trust-charge/optiga/externals/mbedtls/include/mbedtls\pk.h **** #define MBEDTLS_ERR_PK_TYPE_MISMATCH       -0x3F00  /**< Type mismatch, eg attempt to encrypt with 
  55:C:/Users/Yushev/git/wpcqi-optiga-trust-charge/optiga/externals/mbedtls/include/mbedtls\pk.h **** #define MBEDTLS_ERR_PK_BAD_INPUT_DATA      -0x3E80  /**< Bad input parameters to function. */
  56:C:/Users/Yushev/git/wpcqi-optiga-trust-charge/optiga/externals/mbedtls/include/mbedtls\pk.h **** #define MBEDTLS_ERR_PK_FILE_IO_ERROR       -0x3E00  /**< Read/write of file failed. */
  57:C:/Users/Yushev/git/wpcqi-optiga-trust-charge/optiga/externals/mbedtls/include/mbedtls\pk.h **** #define MBEDTLS_ERR_PK_KEY_INVALID_VERSION -0x3D80  /**< Unsupported key version */
  58:C:/Users/Yushev/git/wpcqi-optiga-trust-charge/optiga/externals/mbedtls/include/mbedtls\pk.h **** #define MBEDTLS_ERR_PK_KEY_INVALID_FORMAT  -0x3D00  /**< Invalid key tag or value. */
  59:C:/Users/Yushev/git/wpcqi-optiga-trust-charge/optiga/externals/mbedtls/include/mbedtls\pk.h **** #define MBEDTLS_ERR_PK_UNKNOWN_PK_ALG      -0x3C80  /**< Key algorithm is unsupported (only RSA and
  60:C:/Users/Yushev/git/wpcqi-optiga-trust-charge/optiga/externals/mbedtls/include/mbedtls\pk.h **** #define MBEDTLS_ERR_PK_PASSWORD_REQUIRED   -0x3C00  /**< Private key password can't be empty. */
  61:C:/Users/Yushev/git/wpcqi-optiga-trust-charge/optiga/externals/mbedtls/include/mbedtls\pk.h **** #define MBEDTLS_ERR_PK_PASSWORD_MISMATCH   -0x3B80  /**< Given private key password does not allow 
  62:C:/Users/Yushev/git/wpcqi-optiga-trust-charge/optiga/externals/mbedtls/include/mbedtls\pk.h **** #define MBEDTLS_ERR_PK_INVALID_PUBKEY      -0x3B00  /**< The pubkey tag or value is invalid (only R
  63:C:/Users/Yushev/git/wpcqi-optiga-trust-charge/optiga/externals/mbedtls/include/mbedtls\pk.h **** #define MBEDTLS_ERR_PK_INVALID_ALG         -0x3A80  /**< The algorithm tag or value is invalid. */
  64:C:/Users/Yushev/git/wpcqi-optiga-trust-charge/optiga/externals/mbedtls/include/mbedtls\pk.h **** #define MBEDTLS_ERR_PK_UNKNOWN_NAMED_CURVE -0x3A00  /**< Elliptic curve is unsupported (only NIST c
  65:C:/Users/Yushev/git/wpcqi-optiga-trust-charge/optiga/externals/mbedtls/include/mbedtls\pk.h **** #define MBEDTLS_ERR_PK_FEATURE_UNAVAILABLE -0x3980  /**< Unavailable feature, e.g. RSA disabled for
  66:C:/Users/Yushev/git/wpcqi-optiga-trust-charge/optiga/externals/mbedtls/include/mbedtls\pk.h **** #define MBEDTLS_ERR_PK_SIG_LEN_MISMATCH    -0x3900  /**< The buffer contains a valid signature foll
  67:C:/Users/Yushev/git/wpcqi-optiga-trust-charge/optiga/externals/mbedtls/include/mbedtls\pk.h **** 
  68:C:/Users/Yushev/git/wpcqi-optiga-trust-charge/optiga/externals/mbedtls/include/mbedtls\pk.h **** /* MBEDTLS_ERR_PK_HW_ACCEL_FAILED is deprecated and should not be used. */
  69:C:/Users/Yushev/git/wpcqi-optiga-trust-charge/optiga/externals/mbedtls/include/mbedtls\pk.h **** #define MBEDTLS_ERR_PK_HW_ACCEL_FAILED     -0x3880  /**< PK hardware accelerator failed. */
  70:C:/Users/Yushev/git/wpcqi-optiga-trust-charge/optiga/externals/mbedtls/include/mbedtls\pk.h **** 
  71:C:/Users/Yushev/git/wpcqi-optiga-trust-charge/optiga/externals/mbedtls/include/mbedtls\pk.h **** #ifdef __cplusplus
  72:C:/Users/Yushev/git/wpcqi-optiga-trust-charge/optiga/externals/mbedtls/include/mbedtls\pk.h **** extern "C" {
  73:C:/Users/Yushev/git/wpcqi-optiga-trust-charge/optiga/externals/mbedtls/include/mbedtls\pk.h **** #endif
  74:C:/Users/Yushev/git/wpcqi-optiga-trust-charge/optiga/externals/mbedtls/include/mbedtls\pk.h **** 
  75:C:/Users/Yushev/git/wpcqi-optiga-trust-charge/optiga/externals/mbedtls/include/mbedtls\pk.h **** /**
  76:C:/Users/Yushev/git/wpcqi-optiga-trust-charge/optiga/externals/mbedtls/include/mbedtls\pk.h ****  * \brief          Public key types
  77:C:/Users/Yushev/git/wpcqi-optiga-trust-charge/optiga/externals/mbedtls/include/mbedtls\pk.h ****  */
  78:C:/Users/Yushev/git/wpcqi-optiga-trust-charge/optiga/externals/mbedtls/include/mbedtls\pk.h **** typedef enum {
  79:C:/Users/Yushev/git/wpcqi-optiga-trust-charge/optiga/externals/mbedtls/include/mbedtls\pk.h ****     MBEDTLS_PK_NONE=0,
  80:C:/Users/Yushev/git/wpcqi-optiga-trust-charge/optiga/externals/mbedtls/include/mbedtls\pk.h ****     MBEDTLS_PK_RSA,
  81:C:/Users/Yushev/git/wpcqi-optiga-trust-charge/optiga/externals/mbedtls/include/mbedtls\pk.h ****     MBEDTLS_PK_ECKEY,
  82:C:/Users/Yushev/git/wpcqi-optiga-trust-charge/optiga/externals/mbedtls/include/mbedtls\pk.h ****     MBEDTLS_PK_ECKEY_DH,
  83:C:/Users/Yushev/git/wpcqi-optiga-trust-charge/optiga/externals/mbedtls/include/mbedtls\pk.h ****     MBEDTLS_PK_ECDSA,
  84:C:/Users/Yushev/git/wpcqi-optiga-trust-charge/optiga/externals/mbedtls/include/mbedtls\pk.h ****     MBEDTLS_PK_RSA_ALT,
  85:C:/Users/Yushev/git/wpcqi-optiga-trust-charge/optiga/externals/mbedtls/include/mbedtls\pk.h ****     MBEDTLS_PK_RSASSA_PSS,
  86:C:/Users/Yushev/git/wpcqi-optiga-trust-charge/optiga/externals/mbedtls/include/mbedtls\pk.h **** } mbedtls_pk_type_t;
  87:C:/Users/Yushev/git/wpcqi-optiga-trust-charge/optiga/externals/mbedtls/include/mbedtls\pk.h **** 
  88:C:/Users/Yushev/git/wpcqi-optiga-trust-charge/optiga/externals/mbedtls/include/mbedtls\pk.h **** /**
  89:C:/Users/Yushev/git/wpcqi-optiga-trust-charge/optiga/externals/mbedtls/include/mbedtls\pk.h ****  * \brief           Options for RSASSA-PSS signature verification.
  90:C:/Users/Yushev/git/wpcqi-optiga-trust-charge/optiga/externals/mbedtls/include/mbedtls\pk.h ****  *                  See \c mbedtls_rsa_rsassa_pss_verify_ext()
  91:C:/Users/Yushev/git/wpcqi-optiga-trust-charge/optiga/externals/mbedtls/include/mbedtls\pk.h ****  */
  92:C:/Users/Yushev/git/wpcqi-optiga-trust-charge/optiga/externals/mbedtls/include/mbedtls\pk.h **** typedef struct mbedtls_pk_rsassa_pss_options
  93:C:/Users/Yushev/git/wpcqi-optiga-trust-charge/optiga/externals/mbedtls/include/mbedtls\pk.h **** {
  94:C:/Users/Yushev/git/wpcqi-optiga-trust-charge/optiga/externals/mbedtls/include/mbedtls\pk.h ****     mbedtls_md_type_t mgf1_hash_id;
  95:C:/Users/Yushev/git/wpcqi-optiga-trust-charge/optiga/externals/mbedtls/include/mbedtls\pk.h ****     int expected_salt_len;
  96:C:/Users/Yushev/git/wpcqi-optiga-trust-charge/optiga/externals/mbedtls/include/mbedtls\pk.h **** 
  97:C:/Users/Yushev/git/wpcqi-optiga-trust-charge/optiga/externals/mbedtls/include/mbedtls\pk.h **** } mbedtls_pk_rsassa_pss_options;
  98:C:/Users/Yushev/git/wpcqi-optiga-trust-charge/optiga/externals/mbedtls/include/mbedtls\pk.h **** 
  99:C:/Users/Yushev/git/wpcqi-optiga-trust-charge/optiga/externals/mbedtls/include/mbedtls\pk.h **** /**
 100:C:/Users/Yushev/git/wpcqi-optiga-trust-charge/optiga/externals/mbedtls/include/mbedtls\pk.h ****  * \brief           Types for interfacing with the debug module
 101:C:/Users/Yushev/git/wpcqi-optiga-trust-charge/optiga/externals/mbedtls/include/mbedtls\pk.h ****  */
 102:C:/Users/Yushev/git/wpcqi-optiga-trust-charge/optiga/externals/mbedtls/include/mbedtls\pk.h **** typedef enum
 103:C:/Users/Yushev/git/wpcqi-optiga-trust-charge/optiga/externals/mbedtls/include/mbedtls\pk.h **** {
 104:C:/Users/Yushev/git/wpcqi-optiga-trust-charge/optiga/externals/mbedtls/include/mbedtls\pk.h ****     MBEDTLS_PK_DEBUG_NONE = 0,
 105:C:/Users/Yushev/git/wpcqi-optiga-trust-charge/optiga/externals/mbedtls/include/mbedtls\pk.h ****     MBEDTLS_PK_DEBUG_MPI,
 106:C:/Users/Yushev/git/wpcqi-optiga-trust-charge/optiga/externals/mbedtls/include/mbedtls\pk.h ****     MBEDTLS_PK_DEBUG_ECP,
 107:C:/Users/Yushev/git/wpcqi-optiga-trust-charge/optiga/externals/mbedtls/include/mbedtls\pk.h **** } mbedtls_pk_debug_type;
 108:C:/Users/Yushev/git/wpcqi-optiga-trust-charge/optiga/externals/mbedtls/include/mbedtls\pk.h **** 
 109:C:/Users/Yushev/git/wpcqi-optiga-trust-charge/optiga/externals/mbedtls/include/mbedtls\pk.h **** /**
 110:C:/Users/Yushev/git/wpcqi-optiga-trust-charge/optiga/externals/mbedtls/include/mbedtls\pk.h ****  * \brief           Item to send to the debug module
 111:C:/Users/Yushev/git/wpcqi-optiga-trust-charge/optiga/externals/mbedtls/include/mbedtls\pk.h ****  */
 112:C:/Users/Yushev/git/wpcqi-optiga-trust-charge/optiga/externals/mbedtls/include/mbedtls\pk.h **** typedef struct mbedtls_pk_debug_item
 113:C:/Users/Yushev/git/wpcqi-optiga-trust-charge/optiga/externals/mbedtls/include/mbedtls\pk.h **** {
 114:C:/Users/Yushev/git/wpcqi-optiga-trust-charge/optiga/externals/mbedtls/include/mbedtls\pk.h ****     mbedtls_pk_debug_type type;
 115:C:/Users/Yushev/git/wpcqi-optiga-trust-charge/optiga/externals/mbedtls/include/mbedtls\pk.h ****     const char *name;
 116:C:/Users/Yushev/git/wpcqi-optiga-trust-charge/optiga/externals/mbedtls/include/mbedtls\pk.h ****     void *value;
 117:C:/Users/Yushev/git/wpcqi-optiga-trust-charge/optiga/externals/mbedtls/include/mbedtls\pk.h **** } mbedtls_pk_debug_item;
 118:C:/Users/Yushev/git/wpcqi-optiga-trust-charge/optiga/externals/mbedtls/include/mbedtls\pk.h **** 
 119:C:/Users/Yushev/git/wpcqi-optiga-trust-charge/optiga/externals/mbedtls/include/mbedtls\pk.h **** /** Maximum number of item send for debugging, plus 1 */
 120:C:/Users/Yushev/git/wpcqi-optiga-trust-charge/optiga/externals/mbedtls/include/mbedtls\pk.h **** #define MBEDTLS_PK_DEBUG_MAX_ITEMS 3
 121:C:/Users/Yushev/git/wpcqi-optiga-trust-charge/optiga/externals/mbedtls/include/mbedtls\pk.h **** 
 122:C:/Users/Yushev/git/wpcqi-optiga-trust-charge/optiga/externals/mbedtls/include/mbedtls\pk.h **** /**
 123:C:/Users/Yushev/git/wpcqi-optiga-trust-charge/optiga/externals/mbedtls/include/mbedtls\pk.h ****  * \brief           Public key information and operations
 124:C:/Users/Yushev/git/wpcqi-optiga-trust-charge/optiga/externals/mbedtls/include/mbedtls\pk.h ****  */
 125:C:/Users/Yushev/git/wpcqi-optiga-trust-charge/optiga/externals/mbedtls/include/mbedtls\pk.h **** typedef struct mbedtls_pk_info_t mbedtls_pk_info_t;
 126:C:/Users/Yushev/git/wpcqi-optiga-trust-charge/optiga/externals/mbedtls/include/mbedtls\pk.h **** 
 127:C:/Users/Yushev/git/wpcqi-optiga-trust-charge/optiga/externals/mbedtls/include/mbedtls\pk.h **** /**
 128:C:/Users/Yushev/git/wpcqi-optiga-trust-charge/optiga/externals/mbedtls/include/mbedtls\pk.h ****  * \brief           Public key container
 129:C:/Users/Yushev/git/wpcqi-optiga-trust-charge/optiga/externals/mbedtls/include/mbedtls\pk.h ****  */
 130:C:/Users/Yushev/git/wpcqi-optiga-trust-charge/optiga/externals/mbedtls/include/mbedtls\pk.h **** typedef struct mbedtls_pk_context
 131:C:/Users/Yushev/git/wpcqi-optiga-trust-charge/optiga/externals/mbedtls/include/mbedtls\pk.h **** {
 132:C:/Users/Yushev/git/wpcqi-optiga-trust-charge/optiga/externals/mbedtls/include/mbedtls\pk.h ****     const mbedtls_pk_info_t *   pk_info; /**< Public key information         */
 133:C:/Users/Yushev/git/wpcqi-optiga-trust-charge/optiga/externals/mbedtls/include/mbedtls\pk.h ****     void *                      pk_ctx;  /**< Underlying public key context  */
 134:C:/Users/Yushev/git/wpcqi-optiga-trust-charge/optiga/externals/mbedtls/include/mbedtls\pk.h **** } mbedtls_pk_context;
 135:C:/Users/Yushev/git/wpcqi-optiga-trust-charge/optiga/externals/mbedtls/include/mbedtls\pk.h **** 
 136:C:/Users/Yushev/git/wpcqi-optiga-trust-charge/optiga/externals/mbedtls/include/mbedtls\pk.h **** #if defined(MBEDTLS_ECDSA_C) && defined(MBEDTLS_ECP_RESTARTABLE)
 137:C:/Users/Yushev/git/wpcqi-optiga-trust-charge/optiga/externals/mbedtls/include/mbedtls\pk.h **** /**
 138:C:/Users/Yushev/git/wpcqi-optiga-trust-charge/optiga/externals/mbedtls/include/mbedtls\pk.h ****  * \brief           Context for resuming operations
 139:C:/Users/Yushev/git/wpcqi-optiga-trust-charge/optiga/externals/mbedtls/include/mbedtls\pk.h ****  */
 140:C:/Users/Yushev/git/wpcqi-optiga-trust-charge/optiga/externals/mbedtls/include/mbedtls\pk.h **** typedef struct
 141:C:/Users/Yushev/git/wpcqi-optiga-trust-charge/optiga/externals/mbedtls/include/mbedtls\pk.h **** {
 142:C:/Users/Yushev/git/wpcqi-optiga-trust-charge/optiga/externals/mbedtls/include/mbedtls\pk.h ****     const mbedtls_pk_info_t *   pk_info; /**< Public key information         */
 143:C:/Users/Yushev/git/wpcqi-optiga-trust-charge/optiga/externals/mbedtls/include/mbedtls\pk.h ****     void *                      rs_ctx;  /**< Underlying restart context     */
 144:C:/Users/Yushev/git/wpcqi-optiga-trust-charge/optiga/externals/mbedtls/include/mbedtls\pk.h **** } mbedtls_pk_restart_ctx;
 145:C:/Users/Yushev/git/wpcqi-optiga-trust-charge/optiga/externals/mbedtls/include/mbedtls\pk.h **** #else /* MBEDTLS_ECDSA_C && MBEDTLS_ECP_RESTARTABLE */
 146:C:/Users/Yushev/git/wpcqi-optiga-trust-charge/optiga/externals/mbedtls/include/mbedtls\pk.h **** /* Now we can declare functions that take a pointer to that */
 147:C:/Users/Yushev/git/wpcqi-optiga-trust-charge/optiga/externals/mbedtls/include/mbedtls\pk.h **** typedef void mbedtls_pk_restart_ctx;
 148:C:/Users/Yushev/git/wpcqi-optiga-trust-charge/optiga/externals/mbedtls/include/mbedtls\pk.h **** #endif /* MBEDTLS_ECDSA_C && MBEDTLS_ECP_RESTARTABLE */
 149:C:/Users/Yushev/git/wpcqi-optiga-trust-charge/optiga/externals/mbedtls/include/mbedtls\pk.h **** 
 150:C:/Users/Yushev/git/wpcqi-optiga-trust-charge/optiga/externals/mbedtls/include/mbedtls\pk.h **** #if defined(MBEDTLS_RSA_C)
 151:C:/Users/Yushev/git/wpcqi-optiga-trust-charge/optiga/externals/mbedtls/include/mbedtls\pk.h **** /**
 152:C:/Users/Yushev/git/wpcqi-optiga-trust-charge/optiga/externals/mbedtls/include/mbedtls\pk.h ****  * Quick access to an RSA context inside a PK context.
 153:C:/Users/Yushev/git/wpcqi-optiga-trust-charge/optiga/externals/mbedtls/include/mbedtls\pk.h ****  *
 154:C:/Users/Yushev/git/wpcqi-optiga-trust-charge/optiga/externals/mbedtls/include/mbedtls\pk.h ****  * \warning You must make sure the PK context actually holds an RSA context
 155:C:/Users/Yushev/git/wpcqi-optiga-trust-charge/optiga/externals/mbedtls/include/mbedtls\pk.h ****  * before using this function!
 156:C:/Users/Yushev/git/wpcqi-optiga-trust-charge/optiga/externals/mbedtls/include/mbedtls\pk.h ****  */
 157:C:/Users/Yushev/git/wpcqi-optiga-trust-charge/optiga/externals/mbedtls/include/mbedtls\pk.h **** static inline mbedtls_rsa_context *mbedtls_pk_rsa( const mbedtls_pk_context pk )
 158:C:/Users/Yushev/git/wpcqi-optiga-trust-charge/optiga/externals/mbedtls/include/mbedtls\pk.h **** {
 159:C:/Users/Yushev/git/wpcqi-optiga-trust-charge/optiga/externals/mbedtls/include/mbedtls\pk.h ****     return( (mbedtls_rsa_context *) (pk).pk_ctx );
 160:C:/Users/Yushev/git/wpcqi-optiga-trust-charge/optiga/externals/mbedtls/include/mbedtls\pk.h **** }
 161:C:/Users/Yushev/git/wpcqi-optiga-trust-charge/optiga/externals/mbedtls/include/mbedtls\pk.h **** #endif /* MBEDTLS_RSA_C */
 162:C:/Users/Yushev/git/wpcqi-optiga-trust-charge/optiga/externals/mbedtls/include/mbedtls\pk.h **** 
 163:C:/Users/Yushev/git/wpcqi-optiga-trust-charge/optiga/externals/mbedtls/include/mbedtls\pk.h **** #if defined(MBEDTLS_ECP_C)
 164:C:/Users/Yushev/git/wpcqi-optiga-trust-charge/optiga/externals/mbedtls/include/mbedtls\pk.h **** /**
 165:C:/Users/Yushev/git/wpcqi-optiga-trust-charge/optiga/externals/mbedtls/include/mbedtls\pk.h ****  * Quick access to an EC context inside a PK context.
 166:C:/Users/Yushev/git/wpcqi-optiga-trust-charge/optiga/externals/mbedtls/include/mbedtls\pk.h ****  *
 167:C:/Users/Yushev/git/wpcqi-optiga-trust-charge/optiga/externals/mbedtls/include/mbedtls\pk.h ****  * \warning You must make sure the PK context actually holds an EC context
 168:C:/Users/Yushev/git/wpcqi-optiga-trust-charge/optiga/externals/mbedtls/include/mbedtls\pk.h ****  * before using this function!
 169:C:/Users/Yushev/git/wpcqi-optiga-trust-charge/optiga/externals/mbedtls/include/mbedtls\pk.h ****  */
 170:C:/Users/Yushev/git/wpcqi-optiga-trust-charge/optiga/externals/mbedtls/include/mbedtls\pk.h **** static inline mbedtls_ecp_keypair *mbedtls_pk_ec( const mbedtls_pk_context pk )
 171:C:/Users/Yushev/git/wpcqi-optiga-trust-charge/optiga/externals/mbedtls/include/mbedtls\pk.h **** {
  27              	 .loc 1 171 0
  28              	 .cfi_startproc
  29              	 
  30              	 
  31              	 
  32 0000 80B4     	 push {r7}
  33              	.LCFI0:
  34              	 .cfi_def_cfa_offset 4
  35              	 .cfi_offset 7,-4
  36 0002 83B0     	 sub sp,sp,#12
  37              	.LCFI1:
  38              	 .cfi_def_cfa_offset 16
  39 0004 00AF     	 add r7,sp,#0
  40              	.LCFI2:
  41              	 .cfi_def_cfa_register 7
  42 0006 3B46     	 mov r3,r7
  43 0008 83E80300 	 stmia r3,{r0,r1}
 172:C:/Users/Yushev/git/wpcqi-optiga-trust-charge/optiga/externals/mbedtls/include/mbedtls\pk.h ****     return( (mbedtls_ecp_keypair *) (pk).pk_ctx );
  44              	 .loc 1 172 0
  45 000c 7B68     	 ldr r3,[r7,#4]
 173:C:/Users/Yushev/git/wpcqi-optiga-trust-charge/optiga/externals/mbedtls/include/mbedtls\pk.h **** }
  46              	 .loc 1 173 0
  47 000e 1846     	 mov r0,r3
  48 0010 0C37     	 adds r7,r7,#12
  49              	.LCFI3:
  50              	 .cfi_def_cfa_offset 4
  51 0012 BD46     	 mov sp,r7
  52              	.LCFI4:
  53              	 .cfi_def_cfa_register 13
  54              	 
  55 0014 5DF8047B 	 ldr r7,[sp],#4
  56              	.LCFI5:
  57              	 .cfi_restore 7
  58              	 .cfi_def_cfa_offset 0
  59 0018 7047     	 bx lr
  60              	 .cfi_endproc
  61              	.LFE0:
  63 001a 00BF     	 .section .text.pk_get_ecparams,"ax",%progbits
  64              	 .align 2
  65              	 .thumb
  66              	 .thumb_func
  68              	pk_get_ecparams:
  69              	.LFB9:
  70              	 .file 2 "C:/Users/Yushev/git/wpcqi-optiga-trust-charge/optiga/externals/mbedtls/library/pkparse.c"
   1:C:/Users/Yushev/git/wpcqi-optiga-trust-charge/optiga/externals/mbedtls/library\pkparse.c **** /*
   2:C:/Users/Yushev/git/wpcqi-optiga-trust-charge/optiga/externals/mbedtls/library\pkparse.c ****  *  Public Key layer for parsing key files and structures
   3:C:/Users/Yushev/git/wpcqi-optiga-trust-charge/optiga/externals/mbedtls/library\pkparse.c ****  *
   4:C:/Users/Yushev/git/wpcqi-optiga-trust-charge/optiga/externals/mbedtls/library\pkparse.c ****  *  Copyright (C) 2006-2015, ARM Limited, All Rights Reserved
   5:C:/Users/Yushev/git/wpcqi-optiga-trust-charge/optiga/externals/mbedtls/library\pkparse.c ****  *  SPDX-License-Identifier: Apache-2.0
   6:C:/Users/Yushev/git/wpcqi-optiga-trust-charge/optiga/externals/mbedtls/library\pkparse.c ****  *
   7:C:/Users/Yushev/git/wpcqi-optiga-trust-charge/optiga/externals/mbedtls/library\pkparse.c ****  *  Licensed under the Apache License, Version 2.0 (the "License"); you may
   8:C:/Users/Yushev/git/wpcqi-optiga-trust-charge/optiga/externals/mbedtls/library\pkparse.c ****  *  not use this file except in compliance with the License.
   9:C:/Users/Yushev/git/wpcqi-optiga-trust-charge/optiga/externals/mbedtls/library\pkparse.c ****  *  You may obtain a copy of the License at
  10:C:/Users/Yushev/git/wpcqi-optiga-trust-charge/optiga/externals/mbedtls/library\pkparse.c ****  *
  11:C:/Users/Yushev/git/wpcqi-optiga-trust-charge/optiga/externals/mbedtls/library\pkparse.c ****  *  http://www.apache.org/licenses/LICENSE-2.0
  12:C:/Users/Yushev/git/wpcqi-optiga-trust-charge/optiga/externals/mbedtls/library\pkparse.c ****  *
  13:C:/Users/Yushev/git/wpcqi-optiga-trust-charge/optiga/externals/mbedtls/library\pkparse.c ****  *  Unless required by applicable law or agreed to in writing, software
  14:C:/Users/Yushev/git/wpcqi-optiga-trust-charge/optiga/externals/mbedtls/library\pkparse.c ****  *  distributed under the License is distributed on an "AS IS" BASIS, WITHOUT
  15:C:/Users/Yushev/git/wpcqi-optiga-trust-charge/optiga/externals/mbedtls/library\pkparse.c ****  *  WARRANTIES OR CONDITIONS OF ANY KIND, either express or implied.
  16:C:/Users/Yushev/git/wpcqi-optiga-trust-charge/optiga/externals/mbedtls/library\pkparse.c ****  *  See the License for the specific language governing permissions and
  17:C:/Users/Yushev/git/wpcqi-optiga-trust-charge/optiga/externals/mbedtls/library\pkparse.c ****  *  limitations under the License.
  18:C:/Users/Yushev/git/wpcqi-optiga-trust-charge/optiga/externals/mbedtls/library\pkparse.c ****  *
  19:C:/Users/Yushev/git/wpcqi-optiga-trust-charge/optiga/externals/mbedtls/library\pkparse.c ****  *  This file is part of mbed TLS (https://tls.mbed.org)
  20:C:/Users/Yushev/git/wpcqi-optiga-trust-charge/optiga/externals/mbedtls/library\pkparse.c ****  */
  21:C:/Users/Yushev/git/wpcqi-optiga-trust-charge/optiga/externals/mbedtls/library\pkparse.c **** 
  22:C:/Users/Yushev/git/wpcqi-optiga-trust-charge/optiga/externals/mbedtls/library\pkparse.c **** #if !defined(MBEDTLS_CONFIG_FILE)
  23:C:/Users/Yushev/git/wpcqi-optiga-trust-charge/optiga/externals/mbedtls/library\pkparse.c **** #include "mbedtls/config.h"
  24:C:/Users/Yushev/git/wpcqi-optiga-trust-charge/optiga/externals/mbedtls/library\pkparse.c **** #else
  25:C:/Users/Yushev/git/wpcqi-optiga-trust-charge/optiga/externals/mbedtls/library\pkparse.c **** #include MBEDTLS_CONFIG_FILE
  26:C:/Users/Yushev/git/wpcqi-optiga-trust-charge/optiga/externals/mbedtls/library\pkparse.c **** #endif
  27:C:/Users/Yushev/git/wpcqi-optiga-trust-charge/optiga/externals/mbedtls/library\pkparse.c **** 
  28:C:/Users/Yushev/git/wpcqi-optiga-trust-charge/optiga/externals/mbedtls/library\pkparse.c **** #if defined(MBEDTLS_PK_PARSE_C)
  29:C:/Users/Yushev/git/wpcqi-optiga-trust-charge/optiga/externals/mbedtls/library\pkparse.c **** 
  30:C:/Users/Yushev/git/wpcqi-optiga-trust-charge/optiga/externals/mbedtls/library\pkparse.c **** #include "mbedtls/pk.h"
  31:C:/Users/Yushev/git/wpcqi-optiga-trust-charge/optiga/externals/mbedtls/library\pkparse.c **** #include "mbedtls/asn1.h"
  32:C:/Users/Yushev/git/wpcqi-optiga-trust-charge/optiga/externals/mbedtls/library\pkparse.c **** #include "mbedtls/oid.h"
  33:C:/Users/Yushev/git/wpcqi-optiga-trust-charge/optiga/externals/mbedtls/library\pkparse.c **** #include "mbedtls/platform_util.h"
  34:C:/Users/Yushev/git/wpcqi-optiga-trust-charge/optiga/externals/mbedtls/library\pkparse.c **** 
  35:C:/Users/Yushev/git/wpcqi-optiga-trust-charge/optiga/externals/mbedtls/library\pkparse.c **** #include <string.h>
  36:C:/Users/Yushev/git/wpcqi-optiga-trust-charge/optiga/externals/mbedtls/library\pkparse.c **** 
  37:C:/Users/Yushev/git/wpcqi-optiga-trust-charge/optiga/externals/mbedtls/library\pkparse.c **** #if defined(MBEDTLS_RSA_C)
  38:C:/Users/Yushev/git/wpcqi-optiga-trust-charge/optiga/externals/mbedtls/library\pkparse.c **** #include "mbedtls/rsa.h"
  39:C:/Users/Yushev/git/wpcqi-optiga-trust-charge/optiga/externals/mbedtls/library\pkparse.c **** #endif
  40:C:/Users/Yushev/git/wpcqi-optiga-trust-charge/optiga/externals/mbedtls/library\pkparse.c **** #if defined(MBEDTLS_ECP_C)
  41:C:/Users/Yushev/git/wpcqi-optiga-trust-charge/optiga/externals/mbedtls/library\pkparse.c **** #include "mbedtls/ecp.h"
  42:C:/Users/Yushev/git/wpcqi-optiga-trust-charge/optiga/externals/mbedtls/library\pkparse.c **** #endif
  43:C:/Users/Yushev/git/wpcqi-optiga-trust-charge/optiga/externals/mbedtls/library\pkparse.c **** #if defined(MBEDTLS_ECDSA_C)
  44:C:/Users/Yushev/git/wpcqi-optiga-trust-charge/optiga/externals/mbedtls/library\pkparse.c **** #include "mbedtls/ecdsa.h"
  45:C:/Users/Yushev/git/wpcqi-optiga-trust-charge/optiga/externals/mbedtls/library\pkparse.c **** #endif
  46:C:/Users/Yushev/git/wpcqi-optiga-trust-charge/optiga/externals/mbedtls/library\pkparse.c **** #if defined(MBEDTLS_PEM_PARSE_C)
  47:C:/Users/Yushev/git/wpcqi-optiga-trust-charge/optiga/externals/mbedtls/library\pkparse.c **** #include "mbedtls/pem.h"
  48:C:/Users/Yushev/git/wpcqi-optiga-trust-charge/optiga/externals/mbedtls/library\pkparse.c **** #endif
  49:C:/Users/Yushev/git/wpcqi-optiga-trust-charge/optiga/externals/mbedtls/library\pkparse.c **** #if defined(MBEDTLS_PKCS5_C)
  50:C:/Users/Yushev/git/wpcqi-optiga-trust-charge/optiga/externals/mbedtls/library\pkparse.c **** #include "mbedtls/pkcs5.h"
  51:C:/Users/Yushev/git/wpcqi-optiga-trust-charge/optiga/externals/mbedtls/library\pkparse.c **** #endif
  52:C:/Users/Yushev/git/wpcqi-optiga-trust-charge/optiga/externals/mbedtls/library\pkparse.c **** #if defined(MBEDTLS_PKCS12_C)
  53:C:/Users/Yushev/git/wpcqi-optiga-trust-charge/optiga/externals/mbedtls/library\pkparse.c **** #include "mbedtls/pkcs12.h"
  54:C:/Users/Yushev/git/wpcqi-optiga-trust-charge/optiga/externals/mbedtls/library\pkparse.c **** #endif
  55:C:/Users/Yushev/git/wpcqi-optiga-trust-charge/optiga/externals/mbedtls/library\pkparse.c **** 
  56:C:/Users/Yushev/git/wpcqi-optiga-trust-charge/optiga/externals/mbedtls/library\pkparse.c **** #if defined(MBEDTLS_PLATFORM_C)
  57:C:/Users/Yushev/git/wpcqi-optiga-trust-charge/optiga/externals/mbedtls/library\pkparse.c **** #include "mbedtls/platform.h"
  58:C:/Users/Yushev/git/wpcqi-optiga-trust-charge/optiga/externals/mbedtls/library\pkparse.c **** #else
  59:C:/Users/Yushev/git/wpcqi-optiga-trust-charge/optiga/externals/mbedtls/library\pkparse.c **** #include <stdlib.h>
  60:C:/Users/Yushev/git/wpcqi-optiga-trust-charge/optiga/externals/mbedtls/library\pkparse.c **** #define mbedtls_calloc    calloc
  61:C:/Users/Yushev/git/wpcqi-optiga-trust-charge/optiga/externals/mbedtls/library\pkparse.c **** #define mbedtls_free       free
  62:C:/Users/Yushev/git/wpcqi-optiga-trust-charge/optiga/externals/mbedtls/library\pkparse.c **** #endif
  63:C:/Users/Yushev/git/wpcqi-optiga-trust-charge/optiga/externals/mbedtls/library\pkparse.c **** 
  64:C:/Users/Yushev/git/wpcqi-optiga-trust-charge/optiga/externals/mbedtls/library\pkparse.c **** /* Parameter validation macros based on platform_util.h */
  65:C:/Users/Yushev/git/wpcqi-optiga-trust-charge/optiga/externals/mbedtls/library\pkparse.c **** #define PK_VALIDATE_RET( cond )    \
  66:C:/Users/Yushev/git/wpcqi-optiga-trust-charge/optiga/externals/mbedtls/library\pkparse.c ****     MBEDTLS_INTERNAL_VALIDATE_RET( cond, MBEDTLS_ERR_PK_BAD_INPUT_DATA )
  67:C:/Users/Yushev/git/wpcqi-optiga-trust-charge/optiga/externals/mbedtls/library\pkparse.c **** #define PK_VALIDATE( cond )        \
  68:C:/Users/Yushev/git/wpcqi-optiga-trust-charge/optiga/externals/mbedtls/library\pkparse.c ****     MBEDTLS_INTERNAL_VALIDATE( cond )
  69:C:/Users/Yushev/git/wpcqi-optiga-trust-charge/optiga/externals/mbedtls/library\pkparse.c **** 
  70:C:/Users/Yushev/git/wpcqi-optiga-trust-charge/optiga/externals/mbedtls/library\pkparse.c **** #if defined(MBEDTLS_FS_IO)
  71:C:/Users/Yushev/git/wpcqi-optiga-trust-charge/optiga/externals/mbedtls/library\pkparse.c **** /*
  72:C:/Users/Yushev/git/wpcqi-optiga-trust-charge/optiga/externals/mbedtls/library\pkparse.c ****  * Load all data from a file into a given buffer.
  73:C:/Users/Yushev/git/wpcqi-optiga-trust-charge/optiga/externals/mbedtls/library\pkparse.c ****  *
  74:C:/Users/Yushev/git/wpcqi-optiga-trust-charge/optiga/externals/mbedtls/library\pkparse.c ****  * The file is expected to contain either PEM or DER encoded data.
  75:C:/Users/Yushev/git/wpcqi-optiga-trust-charge/optiga/externals/mbedtls/library\pkparse.c ****  * A terminating null byte is always appended. It is included in the announced
  76:C:/Users/Yushev/git/wpcqi-optiga-trust-charge/optiga/externals/mbedtls/library\pkparse.c ****  * length only if the data looks like it is PEM encoded.
  77:C:/Users/Yushev/git/wpcqi-optiga-trust-charge/optiga/externals/mbedtls/library\pkparse.c ****  */
  78:C:/Users/Yushev/git/wpcqi-optiga-trust-charge/optiga/externals/mbedtls/library\pkparse.c **** int mbedtls_pk_load_file( const char *path, unsigned char **buf, size_t *n )
  79:C:/Users/Yushev/git/wpcqi-optiga-trust-charge/optiga/externals/mbedtls/library\pkparse.c **** {
  80:C:/Users/Yushev/git/wpcqi-optiga-trust-charge/optiga/externals/mbedtls/library\pkparse.c ****     FILE *f;
  81:C:/Users/Yushev/git/wpcqi-optiga-trust-charge/optiga/externals/mbedtls/library\pkparse.c ****     long size;
  82:C:/Users/Yushev/git/wpcqi-optiga-trust-charge/optiga/externals/mbedtls/library\pkparse.c **** 
  83:C:/Users/Yushev/git/wpcqi-optiga-trust-charge/optiga/externals/mbedtls/library\pkparse.c ****     PK_VALIDATE_RET( path != NULL );
  84:C:/Users/Yushev/git/wpcqi-optiga-trust-charge/optiga/externals/mbedtls/library\pkparse.c ****     PK_VALIDATE_RET( buf != NULL );
  85:C:/Users/Yushev/git/wpcqi-optiga-trust-charge/optiga/externals/mbedtls/library\pkparse.c ****     PK_VALIDATE_RET( n != NULL );
  86:C:/Users/Yushev/git/wpcqi-optiga-trust-charge/optiga/externals/mbedtls/library\pkparse.c **** 
  87:C:/Users/Yushev/git/wpcqi-optiga-trust-charge/optiga/externals/mbedtls/library\pkparse.c ****     if( ( f = fopen( path, "rb" ) ) == NULL )
  88:C:/Users/Yushev/git/wpcqi-optiga-trust-charge/optiga/externals/mbedtls/library\pkparse.c ****         return( MBEDTLS_ERR_PK_FILE_IO_ERROR );
  89:C:/Users/Yushev/git/wpcqi-optiga-trust-charge/optiga/externals/mbedtls/library\pkparse.c **** 
  90:C:/Users/Yushev/git/wpcqi-optiga-trust-charge/optiga/externals/mbedtls/library\pkparse.c ****     fseek( f, 0, SEEK_END );
  91:C:/Users/Yushev/git/wpcqi-optiga-trust-charge/optiga/externals/mbedtls/library\pkparse.c ****     if( ( size = ftell( f ) ) == -1 )
  92:C:/Users/Yushev/git/wpcqi-optiga-trust-charge/optiga/externals/mbedtls/library\pkparse.c ****     {
  93:C:/Users/Yushev/git/wpcqi-optiga-trust-charge/optiga/externals/mbedtls/library\pkparse.c ****         fclose( f );
  94:C:/Users/Yushev/git/wpcqi-optiga-trust-charge/optiga/externals/mbedtls/library\pkparse.c ****         return( MBEDTLS_ERR_PK_FILE_IO_ERROR );
  95:C:/Users/Yushev/git/wpcqi-optiga-trust-charge/optiga/externals/mbedtls/library\pkparse.c ****     }
  96:C:/Users/Yushev/git/wpcqi-optiga-trust-charge/optiga/externals/mbedtls/library\pkparse.c ****     fseek( f, 0, SEEK_SET );
  97:C:/Users/Yushev/git/wpcqi-optiga-trust-charge/optiga/externals/mbedtls/library\pkparse.c **** 
  98:C:/Users/Yushev/git/wpcqi-optiga-trust-charge/optiga/externals/mbedtls/library\pkparse.c ****     *n = (size_t) size;
  99:C:/Users/Yushev/git/wpcqi-optiga-trust-charge/optiga/externals/mbedtls/library\pkparse.c **** 
 100:C:/Users/Yushev/git/wpcqi-optiga-trust-charge/optiga/externals/mbedtls/library\pkparse.c ****     if( *n + 1 == 0 ||
 101:C:/Users/Yushev/git/wpcqi-optiga-trust-charge/optiga/externals/mbedtls/library\pkparse.c ****         ( *buf = mbedtls_calloc( 1, *n + 1 ) ) == NULL )
 102:C:/Users/Yushev/git/wpcqi-optiga-trust-charge/optiga/externals/mbedtls/library\pkparse.c ****     {
 103:C:/Users/Yushev/git/wpcqi-optiga-trust-charge/optiga/externals/mbedtls/library\pkparse.c ****         fclose( f );
 104:C:/Users/Yushev/git/wpcqi-optiga-trust-charge/optiga/externals/mbedtls/library\pkparse.c ****         return( MBEDTLS_ERR_PK_ALLOC_FAILED );
 105:C:/Users/Yushev/git/wpcqi-optiga-trust-charge/optiga/externals/mbedtls/library\pkparse.c ****     }
 106:C:/Users/Yushev/git/wpcqi-optiga-trust-charge/optiga/externals/mbedtls/library\pkparse.c **** 
 107:C:/Users/Yushev/git/wpcqi-optiga-trust-charge/optiga/externals/mbedtls/library\pkparse.c ****     if( fread( *buf, 1, *n, f ) != *n )
 108:C:/Users/Yushev/git/wpcqi-optiga-trust-charge/optiga/externals/mbedtls/library\pkparse.c ****     {
 109:C:/Users/Yushev/git/wpcqi-optiga-trust-charge/optiga/externals/mbedtls/library\pkparse.c ****         fclose( f );
 110:C:/Users/Yushev/git/wpcqi-optiga-trust-charge/optiga/externals/mbedtls/library\pkparse.c **** 
 111:C:/Users/Yushev/git/wpcqi-optiga-trust-charge/optiga/externals/mbedtls/library\pkparse.c ****         mbedtls_platform_zeroize( *buf, *n );
 112:C:/Users/Yushev/git/wpcqi-optiga-trust-charge/optiga/externals/mbedtls/library\pkparse.c ****         mbedtls_free( *buf );
 113:C:/Users/Yushev/git/wpcqi-optiga-trust-charge/optiga/externals/mbedtls/library\pkparse.c **** 
 114:C:/Users/Yushev/git/wpcqi-optiga-trust-charge/optiga/externals/mbedtls/library\pkparse.c ****         return( MBEDTLS_ERR_PK_FILE_IO_ERROR );
 115:C:/Users/Yushev/git/wpcqi-optiga-trust-charge/optiga/externals/mbedtls/library\pkparse.c ****     }
 116:C:/Users/Yushev/git/wpcqi-optiga-trust-charge/optiga/externals/mbedtls/library\pkparse.c **** 
 117:C:/Users/Yushev/git/wpcqi-optiga-trust-charge/optiga/externals/mbedtls/library\pkparse.c ****     fclose( f );
 118:C:/Users/Yushev/git/wpcqi-optiga-trust-charge/optiga/externals/mbedtls/library\pkparse.c **** 
 119:C:/Users/Yushev/git/wpcqi-optiga-trust-charge/optiga/externals/mbedtls/library\pkparse.c ****     (*buf)[*n] = '\0';
 120:C:/Users/Yushev/git/wpcqi-optiga-trust-charge/optiga/externals/mbedtls/library\pkparse.c **** 
 121:C:/Users/Yushev/git/wpcqi-optiga-trust-charge/optiga/externals/mbedtls/library\pkparse.c ****     if( strstr( (const char *) *buf, "-----BEGIN " ) != NULL )
 122:C:/Users/Yushev/git/wpcqi-optiga-trust-charge/optiga/externals/mbedtls/library\pkparse.c ****         ++*n;
 123:C:/Users/Yushev/git/wpcqi-optiga-trust-charge/optiga/externals/mbedtls/library\pkparse.c **** 
 124:C:/Users/Yushev/git/wpcqi-optiga-trust-charge/optiga/externals/mbedtls/library\pkparse.c ****     return( 0 );
 125:C:/Users/Yushev/git/wpcqi-optiga-trust-charge/optiga/externals/mbedtls/library\pkparse.c **** }
 126:C:/Users/Yushev/git/wpcqi-optiga-trust-charge/optiga/externals/mbedtls/library\pkparse.c **** 
 127:C:/Users/Yushev/git/wpcqi-optiga-trust-charge/optiga/externals/mbedtls/library\pkparse.c **** /*
 128:C:/Users/Yushev/git/wpcqi-optiga-trust-charge/optiga/externals/mbedtls/library\pkparse.c ****  * Load and parse a private key
 129:C:/Users/Yushev/git/wpcqi-optiga-trust-charge/optiga/externals/mbedtls/library\pkparse.c ****  */
 130:C:/Users/Yushev/git/wpcqi-optiga-trust-charge/optiga/externals/mbedtls/library\pkparse.c **** int mbedtls_pk_parse_keyfile( mbedtls_pk_context *ctx,
 131:C:/Users/Yushev/git/wpcqi-optiga-trust-charge/optiga/externals/mbedtls/library\pkparse.c ****                       const char *path, const char *pwd )
 132:C:/Users/Yushev/git/wpcqi-optiga-trust-charge/optiga/externals/mbedtls/library\pkparse.c **** {
 133:C:/Users/Yushev/git/wpcqi-optiga-trust-charge/optiga/externals/mbedtls/library\pkparse.c ****     int ret;
 134:C:/Users/Yushev/git/wpcqi-optiga-trust-charge/optiga/externals/mbedtls/library\pkparse.c ****     size_t n;
 135:C:/Users/Yushev/git/wpcqi-optiga-trust-charge/optiga/externals/mbedtls/library\pkparse.c ****     unsigned char *buf;
 136:C:/Users/Yushev/git/wpcqi-optiga-trust-charge/optiga/externals/mbedtls/library\pkparse.c **** 
 137:C:/Users/Yushev/git/wpcqi-optiga-trust-charge/optiga/externals/mbedtls/library\pkparse.c ****     PK_VALIDATE_RET( ctx != NULL );
 138:C:/Users/Yushev/git/wpcqi-optiga-trust-charge/optiga/externals/mbedtls/library\pkparse.c ****     PK_VALIDATE_RET( path != NULL );
 139:C:/Users/Yushev/git/wpcqi-optiga-trust-charge/optiga/externals/mbedtls/library\pkparse.c **** 
 140:C:/Users/Yushev/git/wpcqi-optiga-trust-charge/optiga/externals/mbedtls/library\pkparse.c ****     if( ( ret = mbedtls_pk_load_file( path, &buf, &n ) ) != 0 )
 141:C:/Users/Yushev/git/wpcqi-optiga-trust-charge/optiga/externals/mbedtls/library\pkparse.c ****         return( ret );
 142:C:/Users/Yushev/git/wpcqi-optiga-trust-charge/optiga/externals/mbedtls/library\pkparse.c **** 
 143:C:/Users/Yushev/git/wpcqi-optiga-trust-charge/optiga/externals/mbedtls/library\pkparse.c ****     if( pwd == NULL )
 144:C:/Users/Yushev/git/wpcqi-optiga-trust-charge/optiga/externals/mbedtls/library\pkparse.c ****         ret = mbedtls_pk_parse_key( ctx, buf, n, NULL, 0 );
 145:C:/Users/Yushev/git/wpcqi-optiga-trust-charge/optiga/externals/mbedtls/library\pkparse.c ****     else
 146:C:/Users/Yushev/git/wpcqi-optiga-trust-charge/optiga/externals/mbedtls/library\pkparse.c ****         ret = mbedtls_pk_parse_key( ctx, buf, n,
 147:C:/Users/Yushev/git/wpcqi-optiga-trust-charge/optiga/externals/mbedtls/library\pkparse.c ****                 (const unsigned char *) pwd, strlen( pwd ) );
 148:C:/Users/Yushev/git/wpcqi-optiga-trust-charge/optiga/externals/mbedtls/library\pkparse.c **** 
 149:C:/Users/Yushev/git/wpcqi-optiga-trust-charge/optiga/externals/mbedtls/library\pkparse.c ****     mbedtls_platform_zeroize( buf, n );
 150:C:/Users/Yushev/git/wpcqi-optiga-trust-charge/optiga/externals/mbedtls/library\pkparse.c ****     mbedtls_free( buf );
 151:C:/Users/Yushev/git/wpcqi-optiga-trust-charge/optiga/externals/mbedtls/library\pkparse.c **** 
 152:C:/Users/Yushev/git/wpcqi-optiga-trust-charge/optiga/externals/mbedtls/library\pkparse.c ****     return( ret );
 153:C:/Users/Yushev/git/wpcqi-optiga-trust-charge/optiga/externals/mbedtls/library\pkparse.c **** }
 154:C:/Users/Yushev/git/wpcqi-optiga-trust-charge/optiga/externals/mbedtls/library\pkparse.c **** 
 155:C:/Users/Yushev/git/wpcqi-optiga-trust-charge/optiga/externals/mbedtls/library\pkparse.c **** /*
 156:C:/Users/Yushev/git/wpcqi-optiga-trust-charge/optiga/externals/mbedtls/library\pkparse.c ****  * Load and parse a public key
 157:C:/Users/Yushev/git/wpcqi-optiga-trust-charge/optiga/externals/mbedtls/library\pkparse.c ****  */
 158:C:/Users/Yushev/git/wpcqi-optiga-trust-charge/optiga/externals/mbedtls/library\pkparse.c **** int mbedtls_pk_parse_public_keyfile( mbedtls_pk_context *ctx, const char *path )
 159:C:/Users/Yushev/git/wpcqi-optiga-trust-charge/optiga/externals/mbedtls/library\pkparse.c **** {
 160:C:/Users/Yushev/git/wpcqi-optiga-trust-charge/optiga/externals/mbedtls/library\pkparse.c ****     int ret;
 161:C:/Users/Yushev/git/wpcqi-optiga-trust-charge/optiga/externals/mbedtls/library\pkparse.c ****     size_t n;
 162:C:/Users/Yushev/git/wpcqi-optiga-trust-charge/optiga/externals/mbedtls/library\pkparse.c ****     unsigned char *buf;
 163:C:/Users/Yushev/git/wpcqi-optiga-trust-charge/optiga/externals/mbedtls/library\pkparse.c **** 
 164:C:/Users/Yushev/git/wpcqi-optiga-trust-charge/optiga/externals/mbedtls/library\pkparse.c ****     PK_VALIDATE_RET( ctx != NULL );
 165:C:/Users/Yushev/git/wpcqi-optiga-trust-charge/optiga/externals/mbedtls/library\pkparse.c ****     PK_VALIDATE_RET( path != NULL );
 166:C:/Users/Yushev/git/wpcqi-optiga-trust-charge/optiga/externals/mbedtls/library\pkparse.c **** 
 167:C:/Users/Yushev/git/wpcqi-optiga-trust-charge/optiga/externals/mbedtls/library\pkparse.c ****     if( ( ret = mbedtls_pk_load_file( path, &buf, &n ) ) != 0 )
 168:C:/Users/Yushev/git/wpcqi-optiga-trust-charge/optiga/externals/mbedtls/library\pkparse.c ****         return( ret );
 169:C:/Users/Yushev/git/wpcqi-optiga-trust-charge/optiga/externals/mbedtls/library\pkparse.c **** 
 170:C:/Users/Yushev/git/wpcqi-optiga-trust-charge/optiga/externals/mbedtls/library\pkparse.c ****     ret = mbedtls_pk_parse_public_key( ctx, buf, n );
 171:C:/Users/Yushev/git/wpcqi-optiga-trust-charge/optiga/externals/mbedtls/library\pkparse.c **** 
 172:C:/Users/Yushev/git/wpcqi-optiga-trust-charge/optiga/externals/mbedtls/library\pkparse.c ****     mbedtls_platform_zeroize( buf, n );
 173:C:/Users/Yushev/git/wpcqi-optiga-trust-charge/optiga/externals/mbedtls/library\pkparse.c ****     mbedtls_free( buf );
 174:C:/Users/Yushev/git/wpcqi-optiga-trust-charge/optiga/externals/mbedtls/library\pkparse.c **** 
 175:C:/Users/Yushev/git/wpcqi-optiga-trust-charge/optiga/externals/mbedtls/library\pkparse.c ****     return( ret );
 176:C:/Users/Yushev/git/wpcqi-optiga-trust-charge/optiga/externals/mbedtls/library\pkparse.c **** }
 177:C:/Users/Yushev/git/wpcqi-optiga-trust-charge/optiga/externals/mbedtls/library\pkparse.c **** #endif /* MBEDTLS_FS_IO */
 178:C:/Users/Yushev/git/wpcqi-optiga-trust-charge/optiga/externals/mbedtls/library\pkparse.c **** 
 179:C:/Users/Yushev/git/wpcqi-optiga-trust-charge/optiga/externals/mbedtls/library\pkparse.c **** #if defined(MBEDTLS_ECP_C)
 180:C:/Users/Yushev/git/wpcqi-optiga-trust-charge/optiga/externals/mbedtls/library\pkparse.c **** /* Minimally parse an ECParameters buffer to and mbedtls_asn1_buf
 181:C:/Users/Yushev/git/wpcqi-optiga-trust-charge/optiga/externals/mbedtls/library\pkparse.c ****  *
 182:C:/Users/Yushev/git/wpcqi-optiga-trust-charge/optiga/externals/mbedtls/library\pkparse.c ****  * ECParameters ::= CHOICE {
 183:C:/Users/Yushev/git/wpcqi-optiga-trust-charge/optiga/externals/mbedtls/library\pkparse.c ****  *   namedCurve         OBJECT IDENTIFIER
 184:C:/Users/Yushev/git/wpcqi-optiga-trust-charge/optiga/externals/mbedtls/library\pkparse.c ****  *   specifiedCurve     SpecifiedECDomain -- = SEQUENCE { ... }
 185:C:/Users/Yushev/git/wpcqi-optiga-trust-charge/optiga/externals/mbedtls/library\pkparse.c ****  *   -- implicitCurve   NULL
 186:C:/Users/Yushev/git/wpcqi-optiga-trust-charge/optiga/externals/mbedtls/library\pkparse.c ****  * }
 187:C:/Users/Yushev/git/wpcqi-optiga-trust-charge/optiga/externals/mbedtls/library\pkparse.c ****  */
 188:C:/Users/Yushev/git/wpcqi-optiga-trust-charge/optiga/externals/mbedtls/library\pkparse.c **** static int pk_get_ecparams( unsigned char **p, const unsigned char *end,
 189:C:/Users/Yushev/git/wpcqi-optiga-trust-charge/optiga/externals/mbedtls/library\pkparse.c ****                             mbedtls_asn1_buf *params )
 190:C:/Users/Yushev/git/wpcqi-optiga-trust-charge/optiga/externals/mbedtls/library\pkparse.c **** {
  71              	 .loc 2 190 0
  72              	 .cfi_startproc
  73              	 
  74              	 
  75 0000 80B5     	 push {r7,lr}
  76              	.LCFI6:
  77              	 .cfi_def_cfa_offset 8
  78              	 .cfi_offset 7,-8
  79              	 .cfi_offset 14,-4
  80 0002 86B0     	 sub sp,sp,#24
  81              	.LCFI7:
  82              	 .cfi_def_cfa_offset 32
  83 0004 00AF     	 add r7,sp,#0
  84              	.LCFI8:
  85              	 .cfi_def_cfa_register 7
  86 0006 F860     	 str r0,[r7,#12]
  87 0008 B960     	 str r1,[r7,#8]
  88 000a 7A60     	 str r2,[r7,#4]
 191:C:/Users/Yushev/git/wpcqi-optiga-trust-charge/optiga/externals/mbedtls/library\pkparse.c ****     int ret;
 192:C:/Users/Yushev/git/wpcqi-optiga-trust-charge/optiga/externals/mbedtls/library\pkparse.c **** 
 193:C:/Users/Yushev/git/wpcqi-optiga-trust-charge/optiga/externals/mbedtls/library\pkparse.c ****     if ( end - *p < 1 )
  89              	 .loc 2 193 0
  90 000c BB68     	 ldr r3,[r7,#8]
  91 000e FA68     	 ldr r2,[r7,#12]
  92 0010 1268     	 ldr r2,[r2]
  93 0012 9B1A     	 subs r3,r3,r2
  94 0014 002B     	 cmp r3,#0
  95 0016 01DC     	 bgt .L4
 194:C:/Users/Yushev/git/wpcqi-optiga-trust-charge/optiga/externals/mbedtls/library\pkparse.c ****         return( MBEDTLS_ERR_PK_KEY_INVALID_FORMAT +
  96              	 .loc 2 194 0
  97 0018 1A4B     	 ldr r3,.L9
  98 001a 2EE0     	 b .L5
  99              	.L4:
 195:C:/Users/Yushev/git/wpcqi-optiga-trust-charge/optiga/externals/mbedtls/library\pkparse.c ****                 MBEDTLS_ERR_ASN1_OUT_OF_DATA );
 196:C:/Users/Yushev/git/wpcqi-optiga-trust-charge/optiga/externals/mbedtls/library\pkparse.c **** 
 197:C:/Users/Yushev/git/wpcqi-optiga-trust-charge/optiga/externals/mbedtls/library\pkparse.c ****     /* Tag may be either OID or SEQUENCE */
 198:C:/Users/Yushev/git/wpcqi-optiga-trust-charge/optiga/externals/mbedtls/library\pkparse.c ****     params->tag = **p;
 100              	 .loc 2 198 0
 101 001c FB68     	 ldr r3,[r7,#12]
 102 001e 1B68     	 ldr r3,[r3]
 103 0020 1B78     	 ldrb r3,[r3]
 104 0022 1A46     	 mov r2,r3
 105 0024 7B68     	 ldr r3,[r7,#4]
 106 0026 1A60     	 str r2,[r3]
 199:C:/Users/Yushev/git/wpcqi-optiga-trust-charge/optiga/externals/mbedtls/library\pkparse.c ****     if( params->tag != MBEDTLS_ASN1_OID
 107              	 .loc 2 199 0
 108 0028 7B68     	 ldr r3,[r7,#4]
 109 002a 1B68     	 ldr r3,[r3]
 110 002c 062B     	 cmp r3,#6
 111 002e 01D0     	 beq .L6
 200:C:/Users/Yushev/git/wpcqi-optiga-trust-charge/optiga/externals/mbedtls/library\pkparse.c **** #if defined(MBEDTLS_PK_PARSE_EC_EXTENDED)
 201:C:/Users/Yushev/git/wpcqi-optiga-trust-charge/optiga/externals/mbedtls/library\pkparse.c ****             && params->tag != ( MBEDTLS_ASN1_CONSTRUCTED | MBEDTLS_ASN1_SEQUENCE )
 202:C:/Users/Yushev/git/wpcqi-optiga-trust-charge/optiga/externals/mbedtls/library\pkparse.c **** #endif
 203:C:/Users/Yushev/git/wpcqi-optiga-trust-charge/optiga/externals/mbedtls/library\pkparse.c ****             )
 204:C:/Users/Yushev/git/wpcqi-optiga-trust-charge/optiga/externals/mbedtls/library\pkparse.c ****     {
 205:C:/Users/Yushev/git/wpcqi-optiga-trust-charge/optiga/externals/mbedtls/library\pkparse.c ****         return( MBEDTLS_ERR_PK_KEY_INVALID_FORMAT +
 112              	 .loc 2 205 0
 113 0030 154B     	 ldr r3,.L9+4
 114 0032 22E0     	 b .L5
 115              	.L6:
 206:C:/Users/Yushev/git/wpcqi-optiga-trust-charge/optiga/externals/mbedtls/library\pkparse.c ****                 MBEDTLS_ERR_ASN1_UNEXPECTED_TAG );
 207:C:/Users/Yushev/git/wpcqi-optiga-trust-charge/optiga/externals/mbedtls/library\pkparse.c ****     }
 208:C:/Users/Yushev/git/wpcqi-optiga-trust-charge/optiga/externals/mbedtls/library\pkparse.c **** 
 209:C:/Users/Yushev/git/wpcqi-optiga-trust-charge/optiga/externals/mbedtls/library\pkparse.c ****     if( ( ret = mbedtls_asn1_get_tag( p, end, &params->len, params->tag ) ) != 0 )
 116              	 .loc 2 209 0
 117 0034 7B68     	 ldr r3,[r7,#4]
 118 0036 1A1D     	 adds r2,r3,#4
 119 0038 7B68     	 ldr r3,[r7,#4]
 120 003a 1B68     	 ldr r3,[r3]
 121 003c F868     	 ldr r0,[r7,#12]
 122 003e B968     	 ldr r1,[r7,#8]
 123 0040 FFF7FEFF 	 bl mbedtls_asn1_get_tag
 124 0044 7861     	 str r0,[r7,#20]
 125 0046 7B69     	 ldr r3,[r7,#20]
 126 0048 002B     	 cmp r3,#0
 127 004a 03D0     	 beq .L7
 210:C:/Users/Yushev/git/wpcqi-optiga-trust-charge/optiga/externals/mbedtls/library\pkparse.c ****     {
 211:C:/Users/Yushev/git/wpcqi-optiga-trust-charge/optiga/externals/mbedtls/library\pkparse.c ****         return( MBEDTLS_ERR_PK_KEY_INVALID_FORMAT + ret );
 128              	 .loc 2 211 0
 129 004c 7B69     	 ldr r3,[r7,#20]
 130 004e A3F57453 	 sub r3,r3,#15616
 131 0052 12E0     	 b .L5
 132              	.L7:
 212:C:/Users/Yushev/git/wpcqi-optiga-trust-charge/optiga/externals/mbedtls/library\pkparse.c ****     }
 213:C:/Users/Yushev/git/wpcqi-optiga-trust-charge/optiga/externals/mbedtls/library\pkparse.c **** 
 214:C:/Users/Yushev/git/wpcqi-optiga-trust-charge/optiga/externals/mbedtls/library\pkparse.c ****     params->p = *p;
 133              	 .loc 2 214 0
 134 0054 FB68     	 ldr r3,[r7,#12]
 135 0056 1A68     	 ldr r2,[r3]
 136 0058 7B68     	 ldr r3,[r7,#4]
 137 005a 9A60     	 str r2,[r3,#8]
 215:C:/Users/Yushev/git/wpcqi-optiga-trust-charge/optiga/externals/mbedtls/library\pkparse.c ****     *p += params->len;
 138              	 .loc 2 215 0
 139 005c FB68     	 ldr r3,[r7,#12]
 140 005e 1A68     	 ldr r2,[r3]
 141 0060 7B68     	 ldr r3,[r7,#4]
 142 0062 5B68     	 ldr r3,[r3,#4]
 143 0064 1A44     	 add r2,r2,r3
 144 0066 FB68     	 ldr r3,[r7,#12]
 145 0068 1A60     	 str r2,[r3]
 216:C:/Users/Yushev/git/wpcqi-optiga-trust-charge/optiga/externals/mbedtls/library\pkparse.c **** 
 217:C:/Users/Yushev/git/wpcqi-optiga-trust-charge/optiga/externals/mbedtls/library\pkparse.c ****     if( *p != end )
 146              	 .loc 2 217 0
 147 006a FB68     	 ldr r3,[r7,#12]
 148 006c 1A68     	 ldr r2,[r3]
 149 006e BB68     	 ldr r3,[r7,#8]
 150 0070 9A42     	 cmp r2,r3
 151 0072 01D0     	 beq .L8
 218:C:/Users/Yushev/git/wpcqi-optiga-trust-charge/optiga/externals/mbedtls/library\pkparse.c ****         return( MBEDTLS_ERR_PK_KEY_INVALID_FORMAT +
 152              	 .loc 2 218 0
 153 0074 054B     	 ldr r3,.L9+8
 154 0076 00E0     	 b .L5
 155              	.L8:
 219:C:/Users/Yushev/git/wpcqi-optiga-trust-charge/optiga/externals/mbedtls/library\pkparse.c ****                 MBEDTLS_ERR_ASN1_LENGTH_MISMATCH );
 220:C:/Users/Yushev/git/wpcqi-optiga-trust-charge/optiga/externals/mbedtls/library\pkparse.c **** 
 221:C:/Users/Yushev/git/wpcqi-optiga-trust-charge/optiga/externals/mbedtls/library\pkparse.c ****     return( 0 );
 156              	 .loc 2 221 0
 157 0078 0023     	 movs r3,#0
 158              	.L5:
 222:C:/Users/Yushev/git/wpcqi-optiga-trust-charge/optiga/externals/mbedtls/library\pkparse.c **** }
 159              	 .loc 2 222 0
 160 007a 1846     	 mov r0,r3
 161 007c 1837     	 adds r7,r7,#24
 162              	.LCFI9:
 163              	 .cfi_def_cfa_offset 8
 164 007e BD46     	 mov sp,r7
 165              	.LCFI10:
 166              	 .cfi_def_cfa_register 13
 167              	 
 168 0080 80BD     	 pop {r7,pc}
 169              	.L10:
 170 0082 00BF     	 .align 2
 171              	.L9:
 172 0084 A0C2FFFF 	 .word -15712
 173 0088 9EC2FFFF 	 .word -15714
 174 008c 9AC2FFFF 	 .word -15718
 175              	 .cfi_endproc
 176              	.LFE9:
 178              	 .section .text.pk_use_ecparams,"ax",%progbits
 179              	 .align 2
 180              	 .thumb
 181              	 .thumb_func
 183              	pk_use_ecparams:
 184              	.LFB10:
 223:C:/Users/Yushev/git/wpcqi-optiga-trust-charge/optiga/externals/mbedtls/library\pkparse.c **** 
 224:C:/Users/Yushev/git/wpcqi-optiga-trust-charge/optiga/externals/mbedtls/library\pkparse.c **** #if defined(MBEDTLS_PK_PARSE_EC_EXTENDED)
 225:C:/Users/Yushev/git/wpcqi-optiga-trust-charge/optiga/externals/mbedtls/library\pkparse.c **** /*
 226:C:/Users/Yushev/git/wpcqi-optiga-trust-charge/optiga/externals/mbedtls/library\pkparse.c ****  * Parse a SpecifiedECDomain (SEC 1 C.2) and (mostly) fill the group with it.
 227:C:/Users/Yushev/git/wpcqi-optiga-trust-charge/optiga/externals/mbedtls/library\pkparse.c ****  * WARNING: the resulting group should only be used with
 228:C:/Users/Yushev/git/wpcqi-optiga-trust-charge/optiga/externals/mbedtls/library\pkparse.c ****  * pk_group_id_from_specified(), since its base point may not be set correctly
 229:C:/Users/Yushev/git/wpcqi-optiga-trust-charge/optiga/externals/mbedtls/library\pkparse.c ****  * if it was encoded compressed.
 230:C:/Users/Yushev/git/wpcqi-optiga-trust-charge/optiga/externals/mbedtls/library\pkparse.c ****  *
 231:C:/Users/Yushev/git/wpcqi-optiga-trust-charge/optiga/externals/mbedtls/library\pkparse.c ****  *  SpecifiedECDomain ::= SEQUENCE {
 232:C:/Users/Yushev/git/wpcqi-optiga-trust-charge/optiga/externals/mbedtls/library\pkparse.c ****  *      version SpecifiedECDomainVersion(ecdpVer1 | ecdpVer2 | ecdpVer3, ...),
 233:C:/Users/Yushev/git/wpcqi-optiga-trust-charge/optiga/externals/mbedtls/library\pkparse.c ****  *      fieldID FieldID {{FieldTypes}},
 234:C:/Users/Yushev/git/wpcqi-optiga-trust-charge/optiga/externals/mbedtls/library\pkparse.c ****  *      curve Curve,
 235:C:/Users/Yushev/git/wpcqi-optiga-trust-charge/optiga/externals/mbedtls/library\pkparse.c ****  *      base ECPoint,
 236:C:/Users/Yushev/git/wpcqi-optiga-trust-charge/optiga/externals/mbedtls/library\pkparse.c ****  *      order INTEGER,
 237:C:/Users/Yushev/git/wpcqi-optiga-trust-charge/optiga/externals/mbedtls/library\pkparse.c ****  *      cofactor INTEGER OPTIONAL,
 238:C:/Users/Yushev/git/wpcqi-optiga-trust-charge/optiga/externals/mbedtls/library\pkparse.c ****  *      hash HashAlgorithm OPTIONAL,
 239:C:/Users/Yushev/git/wpcqi-optiga-trust-charge/optiga/externals/mbedtls/library\pkparse.c ****  *      ...
 240:C:/Users/Yushev/git/wpcqi-optiga-trust-charge/optiga/externals/mbedtls/library\pkparse.c ****  *  }
 241:C:/Users/Yushev/git/wpcqi-optiga-trust-charge/optiga/externals/mbedtls/library\pkparse.c ****  *
 242:C:/Users/Yushev/git/wpcqi-optiga-trust-charge/optiga/externals/mbedtls/library\pkparse.c ****  * We only support prime-field as field type, and ignore hash and cofactor.
 243:C:/Users/Yushev/git/wpcqi-optiga-trust-charge/optiga/externals/mbedtls/library\pkparse.c ****  */
 244:C:/Users/Yushev/git/wpcqi-optiga-trust-charge/optiga/externals/mbedtls/library\pkparse.c **** static int pk_group_from_specified( const mbedtls_asn1_buf *params, mbedtls_ecp_group *grp )
 245:C:/Users/Yushev/git/wpcqi-optiga-trust-charge/optiga/externals/mbedtls/library\pkparse.c **** {
 246:C:/Users/Yushev/git/wpcqi-optiga-trust-charge/optiga/externals/mbedtls/library\pkparse.c ****     int ret;
 247:C:/Users/Yushev/git/wpcqi-optiga-trust-charge/optiga/externals/mbedtls/library\pkparse.c ****     unsigned char *p = params->p;
 248:C:/Users/Yushev/git/wpcqi-optiga-trust-charge/optiga/externals/mbedtls/library\pkparse.c ****     const unsigned char * const end = params->p + params->len;
 249:C:/Users/Yushev/git/wpcqi-optiga-trust-charge/optiga/externals/mbedtls/library\pkparse.c ****     const unsigned char *end_field, *end_curve;
 250:C:/Users/Yushev/git/wpcqi-optiga-trust-charge/optiga/externals/mbedtls/library\pkparse.c ****     size_t len;
 251:C:/Users/Yushev/git/wpcqi-optiga-trust-charge/optiga/externals/mbedtls/library\pkparse.c ****     int ver;
 252:C:/Users/Yushev/git/wpcqi-optiga-trust-charge/optiga/externals/mbedtls/library\pkparse.c **** 
 253:C:/Users/Yushev/git/wpcqi-optiga-trust-charge/optiga/externals/mbedtls/library\pkparse.c ****     /* SpecifiedECDomainVersion ::= INTEGER { 1, 2, 3 } */
 254:C:/Users/Yushev/git/wpcqi-optiga-trust-charge/optiga/externals/mbedtls/library\pkparse.c ****     if( ( ret = mbedtls_asn1_get_int( &p, end, &ver ) ) != 0 )
 255:C:/Users/Yushev/git/wpcqi-optiga-trust-charge/optiga/externals/mbedtls/library\pkparse.c ****         return( MBEDTLS_ERR_PK_KEY_INVALID_FORMAT + ret );
 256:C:/Users/Yushev/git/wpcqi-optiga-trust-charge/optiga/externals/mbedtls/library\pkparse.c **** 
 257:C:/Users/Yushev/git/wpcqi-optiga-trust-charge/optiga/externals/mbedtls/library\pkparse.c ****     if( ver < 1 || ver > 3 )
 258:C:/Users/Yushev/git/wpcqi-optiga-trust-charge/optiga/externals/mbedtls/library\pkparse.c ****         return( MBEDTLS_ERR_PK_KEY_INVALID_FORMAT );
 259:C:/Users/Yushev/git/wpcqi-optiga-trust-charge/optiga/externals/mbedtls/library\pkparse.c **** 
 260:C:/Users/Yushev/git/wpcqi-optiga-trust-charge/optiga/externals/mbedtls/library\pkparse.c ****     /*
 261:C:/Users/Yushev/git/wpcqi-optiga-trust-charge/optiga/externals/mbedtls/library\pkparse.c ****      * FieldID { FIELD-ID:IOSet } ::= SEQUENCE { -- Finite field
 262:C:/Users/Yushev/git/wpcqi-optiga-trust-charge/optiga/externals/mbedtls/library\pkparse.c ****      *       fieldType FIELD-ID.&id({IOSet}),
 263:C:/Users/Yushev/git/wpcqi-optiga-trust-charge/optiga/externals/mbedtls/library\pkparse.c ****      *       parameters FIELD-ID.&Type({IOSet}{@fieldType})
 264:C:/Users/Yushev/git/wpcqi-optiga-trust-charge/optiga/externals/mbedtls/library\pkparse.c ****      * }
 265:C:/Users/Yushev/git/wpcqi-optiga-trust-charge/optiga/externals/mbedtls/library\pkparse.c ****      */
 266:C:/Users/Yushev/git/wpcqi-optiga-trust-charge/optiga/externals/mbedtls/library\pkparse.c ****     if( ( ret = mbedtls_asn1_get_tag( &p, end, &len,
 267:C:/Users/Yushev/git/wpcqi-optiga-trust-charge/optiga/externals/mbedtls/library\pkparse.c ****             MBEDTLS_ASN1_CONSTRUCTED | MBEDTLS_ASN1_SEQUENCE ) ) != 0 )
 268:C:/Users/Yushev/git/wpcqi-optiga-trust-charge/optiga/externals/mbedtls/library\pkparse.c ****         return( ret );
 269:C:/Users/Yushev/git/wpcqi-optiga-trust-charge/optiga/externals/mbedtls/library\pkparse.c **** 
 270:C:/Users/Yushev/git/wpcqi-optiga-trust-charge/optiga/externals/mbedtls/library\pkparse.c ****     end_field = p + len;
 271:C:/Users/Yushev/git/wpcqi-optiga-trust-charge/optiga/externals/mbedtls/library\pkparse.c **** 
 272:C:/Users/Yushev/git/wpcqi-optiga-trust-charge/optiga/externals/mbedtls/library\pkparse.c ****     /*
 273:C:/Users/Yushev/git/wpcqi-optiga-trust-charge/optiga/externals/mbedtls/library\pkparse.c ****      * FIELD-ID ::= TYPE-IDENTIFIER
 274:C:/Users/Yushev/git/wpcqi-optiga-trust-charge/optiga/externals/mbedtls/library\pkparse.c ****      * FieldTypes FIELD-ID ::= {
 275:C:/Users/Yushev/git/wpcqi-optiga-trust-charge/optiga/externals/mbedtls/library\pkparse.c ****      *       { Prime-p IDENTIFIED BY prime-field } |
 276:C:/Users/Yushev/git/wpcqi-optiga-trust-charge/optiga/externals/mbedtls/library\pkparse.c ****      *       { Characteristic-two IDENTIFIED BY characteristic-two-field }
 277:C:/Users/Yushev/git/wpcqi-optiga-trust-charge/optiga/externals/mbedtls/library\pkparse.c ****      * }
 278:C:/Users/Yushev/git/wpcqi-optiga-trust-charge/optiga/externals/mbedtls/library\pkparse.c ****      * prime-field OBJECT IDENTIFIER ::= { id-fieldType 1 }
 279:C:/Users/Yushev/git/wpcqi-optiga-trust-charge/optiga/externals/mbedtls/library\pkparse.c ****      */
 280:C:/Users/Yushev/git/wpcqi-optiga-trust-charge/optiga/externals/mbedtls/library\pkparse.c ****     if( ( ret = mbedtls_asn1_get_tag( &p, end_field, &len, MBEDTLS_ASN1_OID ) ) != 0 )
 281:C:/Users/Yushev/git/wpcqi-optiga-trust-charge/optiga/externals/mbedtls/library\pkparse.c ****         return( ret );
 282:C:/Users/Yushev/git/wpcqi-optiga-trust-charge/optiga/externals/mbedtls/library\pkparse.c **** 
 283:C:/Users/Yushev/git/wpcqi-optiga-trust-charge/optiga/externals/mbedtls/library\pkparse.c ****     if( len != MBEDTLS_OID_SIZE( MBEDTLS_OID_ANSI_X9_62_PRIME_FIELD ) ||
 284:C:/Users/Yushev/git/wpcqi-optiga-trust-charge/optiga/externals/mbedtls/library\pkparse.c ****         memcmp( p, MBEDTLS_OID_ANSI_X9_62_PRIME_FIELD, len ) != 0 )
 285:C:/Users/Yushev/git/wpcqi-optiga-trust-charge/optiga/externals/mbedtls/library\pkparse.c ****     {
 286:C:/Users/Yushev/git/wpcqi-optiga-trust-charge/optiga/externals/mbedtls/library\pkparse.c ****         return( MBEDTLS_ERR_PK_FEATURE_UNAVAILABLE );
 287:C:/Users/Yushev/git/wpcqi-optiga-trust-charge/optiga/externals/mbedtls/library\pkparse.c ****     }
 288:C:/Users/Yushev/git/wpcqi-optiga-trust-charge/optiga/externals/mbedtls/library\pkparse.c **** 
 289:C:/Users/Yushev/git/wpcqi-optiga-trust-charge/optiga/externals/mbedtls/library\pkparse.c ****     p += len;
 290:C:/Users/Yushev/git/wpcqi-optiga-trust-charge/optiga/externals/mbedtls/library\pkparse.c **** 
 291:C:/Users/Yushev/git/wpcqi-optiga-trust-charge/optiga/externals/mbedtls/library\pkparse.c ****     /* Prime-p ::= INTEGER -- Field of size p. */
 292:C:/Users/Yushev/git/wpcqi-optiga-trust-charge/optiga/externals/mbedtls/library\pkparse.c ****     if( ( ret = mbedtls_asn1_get_mpi( &p, end_field, &grp->P ) ) != 0 )
 293:C:/Users/Yushev/git/wpcqi-optiga-trust-charge/optiga/externals/mbedtls/library\pkparse.c ****         return( MBEDTLS_ERR_PK_KEY_INVALID_FORMAT + ret );
 294:C:/Users/Yushev/git/wpcqi-optiga-trust-charge/optiga/externals/mbedtls/library\pkparse.c **** 
 295:C:/Users/Yushev/git/wpcqi-optiga-trust-charge/optiga/externals/mbedtls/library\pkparse.c ****     grp->pbits = mbedtls_mpi_bitlen( &grp->P );
 296:C:/Users/Yushev/git/wpcqi-optiga-trust-charge/optiga/externals/mbedtls/library\pkparse.c **** 
 297:C:/Users/Yushev/git/wpcqi-optiga-trust-charge/optiga/externals/mbedtls/library\pkparse.c ****     if( p != end_field )
 298:C:/Users/Yushev/git/wpcqi-optiga-trust-charge/optiga/externals/mbedtls/library\pkparse.c ****         return( MBEDTLS_ERR_PK_KEY_INVALID_FORMAT +
 299:C:/Users/Yushev/git/wpcqi-optiga-trust-charge/optiga/externals/mbedtls/library\pkparse.c ****                 MBEDTLS_ERR_ASN1_LENGTH_MISMATCH );
 300:C:/Users/Yushev/git/wpcqi-optiga-trust-charge/optiga/externals/mbedtls/library\pkparse.c **** 
 301:C:/Users/Yushev/git/wpcqi-optiga-trust-charge/optiga/externals/mbedtls/library\pkparse.c ****     /*
 302:C:/Users/Yushev/git/wpcqi-optiga-trust-charge/optiga/externals/mbedtls/library\pkparse.c ****      * Curve ::= SEQUENCE {
 303:C:/Users/Yushev/git/wpcqi-optiga-trust-charge/optiga/externals/mbedtls/library\pkparse.c ****      *       a FieldElement,
 304:C:/Users/Yushev/git/wpcqi-optiga-trust-charge/optiga/externals/mbedtls/library\pkparse.c ****      *       b FieldElement,
 305:C:/Users/Yushev/git/wpcqi-optiga-trust-charge/optiga/externals/mbedtls/library\pkparse.c ****      *       seed BIT STRING OPTIONAL
 306:C:/Users/Yushev/git/wpcqi-optiga-trust-charge/optiga/externals/mbedtls/library\pkparse.c ****      *       -- Shall be present if used in SpecifiedECDomain
 307:C:/Users/Yushev/git/wpcqi-optiga-trust-charge/optiga/externals/mbedtls/library\pkparse.c ****      *       -- with version equal to ecdpVer2 or ecdpVer3
 308:C:/Users/Yushev/git/wpcqi-optiga-trust-charge/optiga/externals/mbedtls/library\pkparse.c ****      * }
 309:C:/Users/Yushev/git/wpcqi-optiga-trust-charge/optiga/externals/mbedtls/library\pkparse.c ****      */
 310:C:/Users/Yushev/git/wpcqi-optiga-trust-charge/optiga/externals/mbedtls/library\pkparse.c ****     if( ( ret = mbedtls_asn1_get_tag( &p, end, &len,
 311:C:/Users/Yushev/git/wpcqi-optiga-trust-charge/optiga/externals/mbedtls/library\pkparse.c ****             MBEDTLS_ASN1_CONSTRUCTED | MBEDTLS_ASN1_SEQUENCE ) ) != 0 )
 312:C:/Users/Yushev/git/wpcqi-optiga-trust-charge/optiga/externals/mbedtls/library\pkparse.c ****         return( ret );
 313:C:/Users/Yushev/git/wpcqi-optiga-trust-charge/optiga/externals/mbedtls/library\pkparse.c **** 
 314:C:/Users/Yushev/git/wpcqi-optiga-trust-charge/optiga/externals/mbedtls/library\pkparse.c ****     end_curve = p + len;
 315:C:/Users/Yushev/git/wpcqi-optiga-trust-charge/optiga/externals/mbedtls/library\pkparse.c **** 
 316:C:/Users/Yushev/git/wpcqi-optiga-trust-charge/optiga/externals/mbedtls/library\pkparse.c ****     /*
 317:C:/Users/Yushev/git/wpcqi-optiga-trust-charge/optiga/externals/mbedtls/library\pkparse.c ****      * FieldElement ::= OCTET STRING
 318:C:/Users/Yushev/git/wpcqi-optiga-trust-charge/optiga/externals/mbedtls/library\pkparse.c ****      * containing an integer in the case of a prime field
 319:C:/Users/Yushev/git/wpcqi-optiga-trust-charge/optiga/externals/mbedtls/library\pkparse.c ****      */
 320:C:/Users/Yushev/git/wpcqi-optiga-trust-charge/optiga/externals/mbedtls/library\pkparse.c ****     if( ( ret = mbedtls_asn1_get_tag( &p, end_curve, &len, MBEDTLS_ASN1_OCTET_STRING ) ) != 0 ||
 321:C:/Users/Yushev/git/wpcqi-optiga-trust-charge/optiga/externals/mbedtls/library\pkparse.c ****         ( ret = mbedtls_mpi_read_binary( &grp->A, p, len ) ) != 0 )
 322:C:/Users/Yushev/git/wpcqi-optiga-trust-charge/optiga/externals/mbedtls/library\pkparse.c ****     {
 323:C:/Users/Yushev/git/wpcqi-optiga-trust-charge/optiga/externals/mbedtls/library\pkparse.c ****         return( MBEDTLS_ERR_PK_KEY_INVALID_FORMAT + ret );
 324:C:/Users/Yushev/git/wpcqi-optiga-trust-charge/optiga/externals/mbedtls/library\pkparse.c ****     }
 325:C:/Users/Yushev/git/wpcqi-optiga-trust-charge/optiga/externals/mbedtls/library\pkparse.c **** 
 326:C:/Users/Yushev/git/wpcqi-optiga-trust-charge/optiga/externals/mbedtls/library\pkparse.c ****     p += len;
 327:C:/Users/Yushev/git/wpcqi-optiga-trust-charge/optiga/externals/mbedtls/library\pkparse.c **** 
 328:C:/Users/Yushev/git/wpcqi-optiga-trust-charge/optiga/externals/mbedtls/library\pkparse.c ****     if( ( ret = mbedtls_asn1_get_tag( &p, end_curve, &len, MBEDTLS_ASN1_OCTET_STRING ) ) != 0 ||
 329:C:/Users/Yushev/git/wpcqi-optiga-trust-charge/optiga/externals/mbedtls/library\pkparse.c ****         ( ret = mbedtls_mpi_read_binary( &grp->B, p, len ) ) != 0 )
 330:C:/Users/Yushev/git/wpcqi-optiga-trust-charge/optiga/externals/mbedtls/library\pkparse.c ****     {
 331:C:/Users/Yushev/git/wpcqi-optiga-trust-charge/optiga/externals/mbedtls/library\pkparse.c ****         return( MBEDTLS_ERR_PK_KEY_INVALID_FORMAT + ret );
 332:C:/Users/Yushev/git/wpcqi-optiga-trust-charge/optiga/externals/mbedtls/library\pkparse.c ****     }
 333:C:/Users/Yushev/git/wpcqi-optiga-trust-charge/optiga/externals/mbedtls/library\pkparse.c **** 
 334:C:/Users/Yushev/git/wpcqi-optiga-trust-charge/optiga/externals/mbedtls/library\pkparse.c ****     p += len;
 335:C:/Users/Yushev/git/wpcqi-optiga-trust-charge/optiga/externals/mbedtls/library\pkparse.c **** 
 336:C:/Users/Yushev/git/wpcqi-optiga-trust-charge/optiga/externals/mbedtls/library\pkparse.c ****     /* Ignore seed BIT STRING OPTIONAL */
 337:C:/Users/Yushev/git/wpcqi-optiga-trust-charge/optiga/externals/mbedtls/library\pkparse.c ****     if( ( ret = mbedtls_asn1_get_tag( &p, end_curve, &len, MBEDTLS_ASN1_BIT_STRING ) ) == 0 )
 338:C:/Users/Yushev/git/wpcqi-optiga-trust-charge/optiga/externals/mbedtls/library\pkparse.c ****         p += len;
 339:C:/Users/Yushev/git/wpcqi-optiga-trust-charge/optiga/externals/mbedtls/library\pkparse.c **** 
 340:C:/Users/Yushev/git/wpcqi-optiga-trust-charge/optiga/externals/mbedtls/library\pkparse.c ****     if( p != end_curve )
 341:C:/Users/Yushev/git/wpcqi-optiga-trust-charge/optiga/externals/mbedtls/library\pkparse.c ****         return( MBEDTLS_ERR_PK_KEY_INVALID_FORMAT +
 342:C:/Users/Yushev/git/wpcqi-optiga-trust-charge/optiga/externals/mbedtls/library\pkparse.c ****                 MBEDTLS_ERR_ASN1_LENGTH_MISMATCH );
 343:C:/Users/Yushev/git/wpcqi-optiga-trust-charge/optiga/externals/mbedtls/library\pkparse.c **** 
 344:C:/Users/Yushev/git/wpcqi-optiga-trust-charge/optiga/externals/mbedtls/library\pkparse.c ****     /*
 345:C:/Users/Yushev/git/wpcqi-optiga-trust-charge/optiga/externals/mbedtls/library\pkparse.c ****      * ECPoint ::= OCTET STRING
 346:C:/Users/Yushev/git/wpcqi-optiga-trust-charge/optiga/externals/mbedtls/library\pkparse.c ****      */
 347:C:/Users/Yushev/git/wpcqi-optiga-trust-charge/optiga/externals/mbedtls/library\pkparse.c ****     if( ( ret = mbedtls_asn1_get_tag( &p, end, &len, MBEDTLS_ASN1_OCTET_STRING ) ) != 0 )
 348:C:/Users/Yushev/git/wpcqi-optiga-trust-charge/optiga/externals/mbedtls/library\pkparse.c ****         return( MBEDTLS_ERR_PK_KEY_INVALID_FORMAT + ret );
 349:C:/Users/Yushev/git/wpcqi-optiga-trust-charge/optiga/externals/mbedtls/library\pkparse.c **** 
 350:C:/Users/Yushev/git/wpcqi-optiga-trust-charge/optiga/externals/mbedtls/library\pkparse.c ****     if( ( ret = mbedtls_ecp_point_read_binary( grp, &grp->G,
 351:C:/Users/Yushev/git/wpcqi-optiga-trust-charge/optiga/externals/mbedtls/library\pkparse.c ****                                       ( const unsigned char *) p, len ) ) != 0 )
 352:C:/Users/Yushev/git/wpcqi-optiga-trust-charge/optiga/externals/mbedtls/library\pkparse.c ****     {
 353:C:/Users/Yushev/git/wpcqi-optiga-trust-charge/optiga/externals/mbedtls/library\pkparse.c ****         /*
 354:C:/Users/Yushev/git/wpcqi-optiga-trust-charge/optiga/externals/mbedtls/library\pkparse.c ****          * If we can't read the point because it's compressed, cheat by
 355:C:/Users/Yushev/git/wpcqi-optiga-trust-charge/optiga/externals/mbedtls/library\pkparse.c ****          * reading only the X coordinate and the parity bit of Y.
 356:C:/Users/Yushev/git/wpcqi-optiga-trust-charge/optiga/externals/mbedtls/library\pkparse.c ****          */
 357:C:/Users/Yushev/git/wpcqi-optiga-trust-charge/optiga/externals/mbedtls/library\pkparse.c ****         if( ret != MBEDTLS_ERR_ECP_FEATURE_UNAVAILABLE ||
 358:C:/Users/Yushev/git/wpcqi-optiga-trust-charge/optiga/externals/mbedtls/library\pkparse.c ****             ( p[0] != 0x02 && p[0] != 0x03 ) ||
 359:C:/Users/Yushev/git/wpcqi-optiga-trust-charge/optiga/externals/mbedtls/library\pkparse.c ****             len != mbedtls_mpi_size( &grp->P ) + 1 ||
 360:C:/Users/Yushev/git/wpcqi-optiga-trust-charge/optiga/externals/mbedtls/library\pkparse.c ****             mbedtls_mpi_read_binary( &grp->G.X, p + 1, len - 1 ) != 0 ||
 361:C:/Users/Yushev/git/wpcqi-optiga-trust-charge/optiga/externals/mbedtls/library\pkparse.c ****             mbedtls_mpi_lset( &grp->G.Y, p[0] - 2 ) != 0 ||
 362:C:/Users/Yushev/git/wpcqi-optiga-trust-charge/optiga/externals/mbedtls/library\pkparse.c ****             mbedtls_mpi_lset( &grp->G.Z, 1 ) != 0 )
 363:C:/Users/Yushev/git/wpcqi-optiga-trust-charge/optiga/externals/mbedtls/library\pkparse.c ****         {
 364:C:/Users/Yushev/git/wpcqi-optiga-trust-charge/optiga/externals/mbedtls/library\pkparse.c ****             return( MBEDTLS_ERR_PK_KEY_INVALID_FORMAT );
 365:C:/Users/Yushev/git/wpcqi-optiga-trust-charge/optiga/externals/mbedtls/library\pkparse.c ****         }
 366:C:/Users/Yushev/git/wpcqi-optiga-trust-charge/optiga/externals/mbedtls/library\pkparse.c ****     }
 367:C:/Users/Yushev/git/wpcqi-optiga-trust-charge/optiga/externals/mbedtls/library\pkparse.c **** 
 368:C:/Users/Yushev/git/wpcqi-optiga-trust-charge/optiga/externals/mbedtls/library\pkparse.c ****     p += len;
 369:C:/Users/Yushev/git/wpcqi-optiga-trust-charge/optiga/externals/mbedtls/library\pkparse.c **** 
 370:C:/Users/Yushev/git/wpcqi-optiga-trust-charge/optiga/externals/mbedtls/library\pkparse.c ****     /*
 371:C:/Users/Yushev/git/wpcqi-optiga-trust-charge/optiga/externals/mbedtls/library\pkparse.c ****      * order INTEGER
 372:C:/Users/Yushev/git/wpcqi-optiga-trust-charge/optiga/externals/mbedtls/library\pkparse.c ****      */
 373:C:/Users/Yushev/git/wpcqi-optiga-trust-charge/optiga/externals/mbedtls/library\pkparse.c ****     if( ( ret = mbedtls_asn1_get_mpi( &p, end, &grp->N ) ) != 0 )
 374:C:/Users/Yushev/git/wpcqi-optiga-trust-charge/optiga/externals/mbedtls/library\pkparse.c ****         return( MBEDTLS_ERR_PK_KEY_INVALID_FORMAT + ret );
 375:C:/Users/Yushev/git/wpcqi-optiga-trust-charge/optiga/externals/mbedtls/library\pkparse.c **** 
 376:C:/Users/Yushev/git/wpcqi-optiga-trust-charge/optiga/externals/mbedtls/library\pkparse.c ****     grp->nbits = mbedtls_mpi_bitlen( &grp->N );
 377:C:/Users/Yushev/git/wpcqi-optiga-trust-charge/optiga/externals/mbedtls/library\pkparse.c **** 
 378:C:/Users/Yushev/git/wpcqi-optiga-trust-charge/optiga/externals/mbedtls/library\pkparse.c ****     /*
 379:C:/Users/Yushev/git/wpcqi-optiga-trust-charge/optiga/externals/mbedtls/library\pkparse.c ****      * Allow optional elements by purposefully not enforcing p == end here.
 380:C:/Users/Yushev/git/wpcqi-optiga-trust-charge/optiga/externals/mbedtls/library\pkparse.c ****      */
 381:C:/Users/Yushev/git/wpcqi-optiga-trust-charge/optiga/externals/mbedtls/library\pkparse.c **** 
 382:C:/Users/Yushev/git/wpcqi-optiga-trust-charge/optiga/externals/mbedtls/library\pkparse.c ****     return( 0 );
 383:C:/Users/Yushev/git/wpcqi-optiga-trust-charge/optiga/externals/mbedtls/library\pkparse.c **** }
 384:C:/Users/Yushev/git/wpcqi-optiga-trust-charge/optiga/externals/mbedtls/library\pkparse.c **** 
 385:C:/Users/Yushev/git/wpcqi-optiga-trust-charge/optiga/externals/mbedtls/library\pkparse.c **** /*
 386:C:/Users/Yushev/git/wpcqi-optiga-trust-charge/optiga/externals/mbedtls/library\pkparse.c ****  * Find the group id associated with an (almost filled) group as generated by
 387:C:/Users/Yushev/git/wpcqi-optiga-trust-charge/optiga/externals/mbedtls/library\pkparse.c ****  * pk_group_from_specified(), or return an error if unknown.
 388:C:/Users/Yushev/git/wpcqi-optiga-trust-charge/optiga/externals/mbedtls/library\pkparse.c ****  */
 389:C:/Users/Yushev/git/wpcqi-optiga-trust-charge/optiga/externals/mbedtls/library\pkparse.c **** static int pk_group_id_from_group( const mbedtls_ecp_group *grp, mbedtls_ecp_group_id *grp_id )
 390:C:/Users/Yushev/git/wpcqi-optiga-trust-charge/optiga/externals/mbedtls/library\pkparse.c **** {
 391:C:/Users/Yushev/git/wpcqi-optiga-trust-charge/optiga/externals/mbedtls/library\pkparse.c ****     int ret = 0;
 392:C:/Users/Yushev/git/wpcqi-optiga-trust-charge/optiga/externals/mbedtls/library\pkparse.c ****     mbedtls_ecp_group ref;
 393:C:/Users/Yushev/git/wpcqi-optiga-trust-charge/optiga/externals/mbedtls/library\pkparse.c ****     const mbedtls_ecp_group_id *id;
 394:C:/Users/Yushev/git/wpcqi-optiga-trust-charge/optiga/externals/mbedtls/library\pkparse.c **** 
 395:C:/Users/Yushev/git/wpcqi-optiga-trust-charge/optiga/externals/mbedtls/library\pkparse.c ****     mbedtls_ecp_group_init( &ref );
 396:C:/Users/Yushev/git/wpcqi-optiga-trust-charge/optiga/externals/mbedtls/library\pkparse.c **** 
 397:C:/Users/Yushev/git/wpcqi-optiga-trust-charge/optiga/externals/mbedtls/library\pkparse.c ****     for( id = mbedtls_ecp_grp_id_list(); *id != MBEDTLS_ECP_DP_NONE; id++ )
 398:C:/Users/Yushev/git/wpcqi-optiga-trust-charge/optiga/externals/mbedtls/library\pkparse.c ****     {
 399:C:/Users/Yushev/git/wpcqi-optiga-trust-charge/optiga/externals/mbedtls/library\pkparse.c ****         /* Load the group associated to that id */
 400:C:/Users/Yushev/git/wpcqi-optiga-trust-charge/optiga/externals/mbedtls/library\pkparse.c ****         mbedtls_ecp_group_free( &ref );
 401:C:/Users/Yushev/git/wpcqi-optiga-trust-charge/optiga/externals/mbedtls/library\pkparse.c ****         MBEDTLS_MPI_CHK( mbedtls_ecp_group_load( &ref, *id ) );
 402:C:/Users/Yushev/git/wpcqi-optiga-trust-charge/optiga/externals/mbedtls/library\pkparse.c **** 
 403:C:/Users/Yushev/git/wpcqi-optiga-trust-charge/optiga/externals/mbedtls/library\pkparse.c ****         /* Compare to the group we were given, starting with easy tests */
 404:C:/Users/Yushev/git/wpcqi-optiga-trust-charge/optiga/externals/mbedtls/library\pkparse.c ****         if( grp->pbits == ref.pbits && grp->nbits == ref.nbits &&
 405:C:/Users/Yushev/git/wpcqi-optiga-trust-charge/optiga/externals/mbedtls/library\pkparse.c ****             mbedtls_mpi_cmp_mpi( &grp->P, &ref.P ) == 0 &&
 406:C:/Users/Yushev/git/wpcqi-optiga-trust-charge/optiga/externals/mbedtls/library\pkparse.c ****             mbedtls_mpi_cmp_mpi( &grp->A, &ref.A ) == 0 &&
 407:C:/Users/Yushev/git/wpcqi-optiga-trust-charge/optiga/externals/mbedtls/library\pkparse.c ****             mbedtls_mpi_cmp_mpi( &grp->B, &ref.B ) == 0 &&
 408:C:/Users/Yushev/git/wpcqi-optiga-trust-charge/optiga/externals/mbedtls/library\pkparse.c ****             mbedtls_mpi_cmp_mpi( &grp->N, &ref.N ) == 0 &&
 409:C:/Users/Yushev/git/wpcqi-optiga-trust-charge/optiga/externals/mbedtls/library\pkparse.c ****             mbedtls_mpi_cmp_mpi( &grp->G.X, &ref.G.X ) == 0 &&
 410:C:/Users/Yushev/git/wpcqi-optiga-trust-charge/optiga/externals/mbedtls/library\pkparse.c ****             mbedtls_mpi_cmp_mpi( &grp->G.Z, &ref.G.Z ) == 0 &&
 411:C:/Users/Yushev/git/wpcqi-optiga-trust-charge/optiga/externals/mbedtls/library\pkparse.c ****             /* For Y we may only know the parity bit, so compare only that */
 412:C:/Users/Yushev/git/wpcqi-optiga-trust-charge/optiga/externals/mbedtls/library\pkparse.c ****             mbedtls_mpi_get_bit( &grp->G.Y, 0 ) == mbedtls_mpi_get_bit( &ref.G.Y, 0 ) )
 413:C:/Users/Yushev/git/wpcqi-optiga-trust-charge/optiga/externals/mbedtls/library\pkparse.c ****         {
 414:C:/Users/Yushev/git/wpcqi-optiga-trust-charge/optiga/externals/mbedtls/library\pkparse.c ****             break;
 415:C:/Users/Yushev/git/wpcqi-optiga-trust-charge/optiga/externals/mbedtls/library\pkparse.c ****         }
 416:C:/Users/Yushev/git/wpcqi-optiga-trust-charge/optiga/externals/mbedtls/library\pkparse.c **** 
 417:C:/Users/Yushev/git/wpcqi-optiga-trust-charge/optiga/externals/mbedtls/library\pkparse.c ****     }
 418:C:/Users/Yushev/git/wpcqi-optiga-trust-charge/optiga/externals/mbedtls/library\pkparse.c **** 
 419:C:/Users/Yushev/git/wpcqi-optiga-trust-charge/optiga/externals/mbedtls/library\pkparse.c **** cleanup:
 420:C:/Users/Yushev/git/wpcqi-optiga-trust-charge/optiga/externals/mbedtls/library\pkparse.c ****     mbedtls_ecp_group_free( &ref );
 421:C:/Users/Yushev/git/wpcqi-optiga-trust-charge/optiga/externals/mbedtls/library\pkparse.c **** 
 422:C:/Users/Yushev/git/wpcqi-optiga-trust-charge/optiga/externals/mbedtls/library\pkparse.c ****     *grp_id = *id;
 423:C:/Users/Yushev/git/wpcqi-optiga-trust-charge/optiga/externals/mbedtls/library\pkparse.c **** 
 424:C:/Users/Yushev/git/wpcqi-optiga-trust-charge/optiga/externals/mbedtls/library\pkparse.c ****     if( ret == 0 && *id == MBEDTLS_ECP_DP_NONE )
 425:C:/Users/Yushev/git/wpcqi-optiga-trust-charge/optiga/externals/mbedtls/library\pkparse.c ****         ret = MBEDTLS_ERR_ECP_FEATURE_UNAVAILABLE;
 426:C:/Users/Yushev/git/wpcqi-optiga-trust-charge/optiga/externals/mbedtls/library\pkparse.c **** 
 427:C:/Users/Yushev/git/wpcqi-optiga-trust-charge/optiga/externals/mbedtls/library\pkparse.c ****     return( ret );
 428:C:/Users/Yushev/git/wpcqi-optiga-trust-charge/optiga/externals/mbedtls/library\pkparse.c **** }
 429:C:/Users/Yushev/git/wpcqi-optiga-trust-charge/optiga/externals/mbedtls/library\pkparse.c **** 
 430:C:/Users/Yushev/git/wpcqi-optiga-trust-charge/optiga/externals/mbedtls/library\pkparse.c **** /*
 431:C:/Users/Yushev/git/wpcqi-optiga-trust-charge/optiga/externals/mbedtls/library\pkparse.c ****  * Parse a SpecifiedECDomain (SEC 1 C.2) and find the associated group ID
 432:C:/Users/Yushev/git/wpcqi-optiga-trust-charge/optiga/externals/mbedtls/library\pkparse.c ****  */
 433:C:/Users/Yushev/git/wpcqi-optiga-trust-charge/optiga/externals/mbedtls/library\pkparse.c **** static int pk_group_id_from_specified( const mbedtls_asn1_buf *params,
 434:C:/Users/Yushev/git/wpcqi-optiga-trust-charge/optiga/externals/mbedtls/library\pkparse.c ****                                        mbedtls_ecp_group_id *grp_id )
 435:C:/Users/Yushev/git/wpcqi-optiga-trust-charge/optiga/externals/mbedtls/library\pkparse.c **** {
 436:C:/Users/Yushev/git/wpcqi-optiga-trust-charge/optiga/externals/mbedtls/library\pkparse.c ****     int ret;
 437:C:/Users/Yushev/git/wpcqi-optiga-trust-charge/optiga/externals/mbedtls/library\pkparse.c ****     mbedtls_ecp_group grp;
 438:C:/Users/Yushev/git/wpcqi-optiga-trust-charge/optiga/externals/mbedtls/library\pkparse.c **** 
 439:C:/Users/Yushev/git/wpcqi-optiga-trust-charge/optiga/externals/mbedtls/library\pkparse.c ****     mbedtls_ecp_group_init( &grp );
 440:C:/Users/Yushev/git/wpcqi-optiga-trust-charge/optiga/externals/mbedtls/library\pkparse.c **** 
 441:C:/Users/Yushev/git/wpcqi-optiga-trust-charge/optiga/externals/mbedtls/library\pkparse.c ****     if( ( ret = pk_group_from_specified( params, &grp ) ) != 0 )
 442:C:/Users/Yushev/git/wpcqi-optiga-trust-charge/optiga/externals/mbedtls/library\pkparse.c ****         goto cleanup;
 443:C:/Users/Yushev/git/wpcqi-optiga-trust-charge/optiga/externals/mbedtls/library\pkparse.c **** 
 444:C:/Users/Yushev/git/wpcqi-optiga-trust-charge/optiga/externals/mbedtls/library\pkparse.c ****     ret = pk_group_id_from_group( &grp, grp_id );
 445:C:/Users/Yushev/git/wpcqi-optiga-trust-charge/optiga/externals/mbedtls/library\pkparse.c **** 
 446:C:/Users/Yushev/git/wpcqi-optiga-trust-charge/optiga/externals/mbedtls/library\pkparse.c **** cleanup:
 447:C:/Users/Yushev/git/wpcqi-optiga-trust-charge/optiga/externals/mbedtls/library\pkparse.c ****     mbedtls_ecp_group_free( &grp );
 448:C:/Users/Yushev/git/wpcqi-optiga-trust-charge/optiga/externals/mbedtls/library\pkparse.c **** 
 449:C:/Users/Yushev/git/wpcqi-optiga-trust-charge/optiga/externals/mbedtls/library\pkparse.c ****     return( ret );
 450:C:/Users/Yushev/git/wpcqi-optiga-trust-charge/optiga/externals/mbedtls/library\pkparse.c **** }
 451:C:/Users/Yushev/git/wpcqi-optiga-trust-charge/optiga/externals/mbedtls/library\pkparse.c **** #endif /* MBEDTLS_PK_PARSE_EC_EXTENDED */
 452:C:/Users/Yushev/git/wpcqi-optiga-trust-charge/optiga/externals/mbedtls/library\pkparse.c **** 
 453:C:/Users/Yushev/git/wpcqi-optiga-trust-charge/optiga/externals/mbedtls/library\pkparse.c **** /*
 454:C:/Users/Yushev/git/wpcqi-optiga-trust-charge/optiga/externals/mbedtls/library\pkparse.c ****  * Use EC parameters to initialise an EC group
 455:C:/Users/Yushev/git/wpcqi-optiga-trust-charge/optiga/externals/mbedtls/library\pkparse.c ****  *
 456:C:/Users/Yushev/git/wpcqi-optiga-trust-charge/optiga/externals/mbedtls/library\pkparse.c ****  * ECParameters ::= CHOICE {
 457:C:/Users/Yushev/git/wpcqi-optiga-trust-charge/optiga/externals/mbedtls/library\pkparse.c ****  *   namedCurve         OBJECT IDENTIFIER
 458:C:/Users/Yushev/git/wpcqi-optiga-trust-charge/optiga/externals/mbedtls/library\pkparse.c ****  *   specifiedCurve     SpecifiedECDomain -- = SEQUENCE { ... }
 459:C:/Users/Yushev/git/wpcqi-optiga-trust-charge/optiga/externals/mbedtls/library\pkparse.c ****  *   -- implicitCurve   NULL
 460:C:/Users/Yushev/git/wpcqi-optiga-trust-charge/optiga/externals/mbedtls/library\pkparse.c ****  */
 461:C:/Users/Yushev/git/wpcqi-optiga-trust-charge/optiga/externals/mbedtls/library\pkparse.c **** static int pk_use_ecparams( const mbedtls_asn1_buf *params, mbedtls_ecp_group *grp )
 462:C:/Users/Yushev/git/wpcqi-optiga-trust-charge/optiga/externals/mbedtls/library\pkparse.c **** {
 185              	 .loc 2 462 0
 186              	 .cfi_startproc
 187              	 
 188              	 
 189 0000 80B5     	 push {r7,lr}
 190              	.LCFI11:
 191              	 .cfi_def_cfa_offset 8
 192              	 .cfi_offset 7,-8
 193              	 .cfi_offset 14,-4
 194 0002 84B0     	 sub sp,sp,#16
 195              	.LCFI12:
 196              	 .cfi_def_cfa_offset 24
 197 0004 00AF     	 add r7,sp,#0
 198              	.LCFI13:
 199              	 .cfi_def_cfa_register 7
 200 0006 7860     	 str r0,[r7,#4]
 201 0008 3960     	 str r1,[r7]
 463:C:/Users/Yushev/git/wpcqi-optiga-trust-charge/optiga/externals/mbedtls/library\pkparse.c ****     int ret;
 464:C:/Users/Yushev/git/wpcqi-optiga-trust-charge/optiga/externals/mbedtls/library\pkparse.c ****     mbedtls_ecp_group_id grp_id;
 465:C:/Users/Yushev/git/wpcqi-optiga-trust-charge/optiga/externals/mbedtls/library\pkparse.c **** 
 466:C:/Users/Yushev/git/wpcqi-optiga-trust-charge/optiga/externals/mbedtls/library\pkparse.c ****     if( params->tag == MBEDTLS_ASN1_OID )
 202              	 .loc 2 466 0
 203 000a 7B68     	 ldr r3,[r7,#4]
 204 000c 1B68     	 ldr r3,[r3]
 205 000e 062B     	 cmp r3,#6
 206 0010 0AD1     	 bne .L12
 467:C:/Users/Yushev/git/wpcqi-optiga-trust-charge/optiga/externals/mbedtls/library\pkparse.c ****     {
 468:C:/Users/Yushev/git/wpcqi-optiga-trust-charge/optiga/externals/mbedtls/library\pkparse.c ****         if( mbedtls_oid_get_ec_grp( params, &grp_id ) != 0 )
 207              	 .loc 2 468 0
 208 0012 07F10B03 	 add r3,r7,#11
 209 0016 7868     	 ldr r0,[r7,#4]
 210 0018 1946     	 mov r1,r3
 211 001a FFF7FEFF 	 bl mbedtls_oid_get_ec_grp
 212 001e 0346     	 mov r3,r0
 213 0020 002B     	 cmp r3,#0
 214 0022 03D0     	 beq .L13
 469:C:/Users/Yushev/git/wpcqi-optiga-trust-charge/optiga/externals/mbedtls/library\pkparse.c ****             return( MBEDTLS_ERR_PK_UNKNOWN_NAMED_CURVE );
 215              	 .loc 2 469 0
 216 0024 0F4B     	 ldr r3,.L18
 217 0026 18E0     	 b .L17
 218              	.L12:
 470:C:/Users/Yushev/git/wpcqi-optiga-trust-charge/optiga/externals/mbedtls/library\pkparse.c ****     }
 471:C:/Users/Yushev/git/wpcqi-optiga-trust-charge/optiga/externals/mbedtls/library\pkparse.c ****     else
 472:C:/Users/Yushev/git/wpcqi-optiga-trust-charge/optiga/externals/mbedtls/library\pkparse.c ****     {
 473:C:/Users/Yushev/git/wpcqi-optiga-trust-charge/optiga/externals/mbedtls/library\pkparse.c **** #if defined(MBEDTLS_PK_PARSE_EC_EXTENDED)
 474:C:/Users/Yushev/git/wpcqi-optiga-trust-charge/optiga/externals/mbedtls/library\pkparse.c ****         if( ( ret = pk_group_id_from_specified( params, &grp_id ) ) != 0 )
 475:C:/Users/Yushev/git/wpcqi-optiga-trust-charge/optiga/externals/mbedtls/library\pkparse.c ****             return( ret );
 476:C:/Users/Yushev/git/wpcqi-optiga-trust-charge/optiga/externals/mbedtls/library\pkparse.c **** #else
 477:C:/Users/Yushev/git/wpcqi-optiga-trust-charge/optiga/externals/mbedtls/library\pkparse.c ****         return( MBEDTLS_ERR_PK_KEY_INVALID_FORMAT );
 219              	 .loc 2 477 0
 220 0028 0F4B     	 ldr r3,.L18+4
 221 002a 16E0     	 b .L17
 222              	.L13:
 478:C:/Users/Yushev/git/wpcqi-optiga-trust-charge/optiga/externals/mbedtls/library\pkparse.c **** #endif
 479:C:/Users/Yushev/git/wpcqi-optiga-trust-charge/optiga/externals/mbedtls/library\pkparse.c ****     }
 480:C:/Users/Yushev/git/wpcqi-optiga-trust-charge/optiga/externals/mbedtls/library\pkparse.c **** 
 481:C:/Users/Yushev/git/wpcqi-optiga-trust-charge/optiga/externals/mbedtls/library\pkparse.c ****     /*
 482:C:/Users/Yushev/git/wpcqi-optiga-trust-charge/optiga/externals/mbedtls/library\pkparse.c ****      * grp may already be initilialized; if so, make sure IDs match
 483:C:/Users/Yushev/git/wpcqi-optiga-trust-charge/optiga/externals/mbedtls/library\pkparse.c ****      */
 484:C:/Users/Yushev/git/wpcqi-optiga-trust-charge/optiga/externals/mbedtls/library\pkparse.c ****     if( grp->id != MBEDTLS_ECP_DP_NONE && grp->id != grp_id )
 223              	 .loc 2 484 0
 224 002c 3B68     	 ldr r3,[r7]
 225 002e 1B78     	 ldrb r3,[r3]
 226 0030 002B     	 cmp r3,#0
 227 0032 06D0     	 beq .L15
 228              	 .loc 2 484 0 is_stmt 0 discriminator 1
 229 0034 3B68     	 ldr r3,[r7]
 230 0036 1A78     	 ldrb r2,[r3]
 231 0038 FB7A     	 ldrb r3,[r7,#11]
 232 003a 9A42     	 cmp r2,r3
 233 003c 01D0     	 beq .L15
 485:C:/Users/Yushev/git/wpcqi-optiga-trust-charge/optiga/externals/mbedtls/library\pkparse.c ****         return( MBEDTLS_ERR_PK_KEY_INVALID_FORMAT );
 234              	 .loc 2 485 0 is_stmt 1
 235 003e 0A4B     	 ldr r3,.L18+4
 236 0040 0BE0     	 b .L17
 237              	.L15:
 486:C:/Users/Yushev/git/wpcqi-optiga-trust-charge/optiga/externals/mbedtls/library\pkparse.c **** 
 487:C:/Users/Yushev/git/wpcqi-optiga-trust-charge/optiga/externals/mbedtls/library\pkparse.c ****     if( ( ret = mbedtls_ecp_group_load( grp, grp_id ) ) != 0 )
 238              	 .loc 2 487 0
 239 0042 FB7A     	 ldrb r3,[r7,#11]
 240 0044 3868     	 ldr r0,[r7]
 241 0046 1946     	 mov r1,r3
 242 0048 FFF7FEFF 	 bl mbedtls_ecp_group_load
 243 004c F860     	 str r0,[r7,#12]
 244 004e FB68     	 ldr r3,[r7,#12]
 245 0050 002B     	 cmp r3,#0
 246 0052 01D0     	 beq .L16
 488:C:/Users/Yushev/git/wpcqi-optiga-trust-charge/optiga/externals/mbedtls/library\pkparse.c ****         return( ret );
 247              	 .loc 2 488 0
 248 0054 FB68     	 ldr r3,[r7,#12]
 249 0056 00E0     	 b .L17
 250              	.L16:
 489:C:/Users/Yushev/git/wpcqi-optiga-trust-charge/optiga/externals/mbedtls/library\pkparse.c **** 
 490:C:/Users/Yushev/git/wpcqi-optiga-trust-charge/optiga/externals/mbedtls/library\pkparse.c ****     return( 0 );
 251              	 .loc 2 490 0
 252 0058 0023     	 movs r3,#0
 253              	.L17:
 491:C:/Users/Yushev/git/wpcqi-optiga-trust-charge/optiga/externals/mbedtls/library\pkparse.c **** }
 254              	 .loc 2 491 0 discriminator 1
 255 005a 1846     	 mov r0,r3
 256 005c 1037     	 adds r7,r7,#16
 257              	.LCFI14:
 258              	 .cfi_def_cfa_offset 8
 259 005e BD46     	 mov sp,r7
 260              	.LCFI15:
 261              	 .cfi_def_cfa_register 13
 262              	 
 263 0060 80BD     	 pop {r7,pc}
 264              	.L19:
 265 0062 00BF     	 .align 2
 266              	.L18:
 267 0064 00C6FFFF 	 .word -14848
 268 0068 00C3FFFF 	 .word -15616
 269              	 .cfi_endproc
 270              	.LFE10:
 272              	 .section .text.pk_get_ecpubkey,"ax",%progbits
 273              	 .align 2
 274              	 .thumb
 275              	 .thumb_func
 277              	pk_get_ecpubkey:
 278              	.LFB11:
 492:C:/Users/Yushev/git/wpcqi-optiga-trust-charge/optiga/externals/mbedtls/library\pkparse.c **** 
 493:C:/Users/Yushev/git/wpcqi-optiga-trust-charge/optiga/externals/mbedtls/library\pkparse.c **** /*
 494:C:/Users/Yushev/git/wpcqi-optiga-trust-charge/optiga/externals/mbedtls/library\pkparse.c ****  * EC public key is an EC point
 495:C:/Users/Yushev/git/wpcqi-optiga-trust-charge/optiga/externals/mbedtls/library\pkparse.c ****  *
 496:C:/Users/Yushev/git/wpcqi-optiga-trust-charge/optiga/externals/mbedtls/library\pkparse.c ****  * The caller is responsible for clearing the structure upon failure if
 497:C:/Users/Yushev/git/wpcqi-optiga-trust-charge/optiga/externals/mbedtls/library\pkparse.c ****  * desired. Take care to pass along the possible ECP_FEATURE_UNAVAILABLE
 498:C:/Users/Yushev/git/wpcqi-optiga-trust-charge/optiga/externals/mbedtls/library\pkparse.c ****  * return code of mbedtls_ecp_point_read_binary() and leave p in a usable state.
 499:C:/Users/Yushev/git/wpcqi-optiga-trust-charge/optiga/externals/mbedtls/library\pkparse.c ****  */
 500:C:/Users/Yushev/git/wpcqi-optiga-trust-charge/optiga/externals/mbedtls/library\pkparse.c **** static int pk_get_ecpubkey( unsigned char **p, const unsigned char *end,
 501:C:/Users/Yushev/git/wpcqi-optiga-trust-charge/optiga/externals/mbedtls/library\pkparse.c ****                             mbedtls_ecp_keypair *key )
 502:C:/Users/Yushev/git/wpcqi-optiga-trust-charge/optiga/externals/mbedtls/library\pkparse.c **** {
 279              	 .loc 2 502 0
 280              	 .cfi_startproc
 281              	 
 282              	 
 283 0000 90B5     	 push {r4,r7,lr}
 284              	.LCFI16:
 285              	 .cfi_def_cfa_offset 12
 286              	 .cfi_offset 4,-12
 287              	 .cfi_offset 7,-8
 288              	 .cfi_offset 14,-4
 289 0002 87B0     	 sub sp,sp,#28
 290              	.LCFI17:
 291              	 .cfi_def_cfa_offset 40
 292 0004 00AF     	 add r7,sp,#0
 293              	.LCFI18:
 294              	 .cfi_def_cfa_register 7
 295 0006 F860     	 str r0,[r7,#12]
 296 0008 B960     	 str r1,[r7,#8]
 297 000a 7A60     	 str r2,[r7,#4]
 503:C:/Users/Yushev/git/wpcqi-optiga-trust-charge/optiga/externals/mbedtls/library\pkparse.c ****     int ret;
 504:C:/Users/Yushev/git/wpcqi-optiga-trust-charge/optiga/externals/mbedtls/library\pkparse.c **** 
 505:C:/Users/Yushev/git/wpcqi-optiga-trust-charge/optiga/externals/mbedtls/library\pkparse.c ****     if( ( ret = mbedtls_ecp_point_read_binary( &key->grp, &key->Q,
 298              	 .loc 2 505 0
 299 000c 7868     	 ldr r0,[r7,#4]
 300 000e 7B68     	 ldr r3,[r7,#4]
 301 0010 03F18801 	 add r1,r3,#136
 302 0014 FB68     	 ldr r3,[r7,#12]
 303 0016 1C68     	 ldr r4,[r3]
 506:C:/Users/Yushev/git/wpcqi-optiga-trust-charge/optiga/externals/mbedtls/library\pkparse.c ****                     (const unsigned char *) *p, end - *p ) ) == 0 )
 304              	 .loc 2 506 0
 305 0018 BB68     	 ldr r3,[r7,#8]
 306 001a FA68     	 ldr r2,[r7,#12]
 307 001c 1268     	 ldr r2,[r2]
 308 001e 9B1A     	 subs r3,r3,r2
 505:C:/Users/Yushev/git/wpcqi-optiga-trust-charge/optiga/externals/mbedtls/library\pkparse.c ****                     (const unsigned char *) *p, end - *p ) ) == 0 )
 309              	 .loc 2 505 0
 310 0020 2246     	 mov r2,r4
 311 0022 FFF7FEFF 	 bl mbedtls_ecp_point_read_binary
 312 0026 7861     	 str r0,[r7,#20]
 313 0028 7B69     	 ldr r3,[r7,#20]
 314 002a 002B     	 cmp r3,#0
 315 002c 07D1     	 bne .L21
 507:C:/Users/Yushev/git/wpcqi-optiga-trust-charge/optiga/externals/mbedtls/library\pkparse.c ****     {
 508:C:/Users/Yushev/git/wpcqi-optiga-trust-charge/optiga/externals/mbedtls/library\pkparse.c ****         ret = mbedtls_ecp_check_pubkey( &key->grp, &key->Q );
 316              	 .loc 2 508 0
 317 002e 7A68     	 ldr r2,[r7,#4]
 318 0030 7B68     	 ldr r3,[r7,#4]
 319 0032 8833     	 adds r3,r3,#136
 320 0034 1046     	 mov r0,r2
 321 0036 1946     	 mov r1,r3
 322 0038 FFF7FEFF 	 bl mbedtls_ecp_check_pubkey
 323 003c 7861     	 str r0,[r7,#20]
 324              	.L21:
 509:C:/Users/Yushev/git/wpcqi-optiga-trust-charge/optiga/externals/mbedtls/library\pkparse.c ****     }
 510:C:/Users/Yushev/git/wpcqi-optiga-trust-charge/optiga/externals/mbedtls/library\pkparse.c **** 
 511:C:/Users/Yushev/git/wpcqi-optiga-trust-charge/optiga/externals/mbedtls/library\pkparse.c ****     /*
 512:C:/Users/Yushev/git/wpcqi-optiga-trust-charge/optiga/externals/mbedtls/library\pkparse.c ****      * We know mbedtls_ecp_point_read_binary consumed all bytes or failed
 513:C:/Users/Yushev/git/wpcqi-optiga-trust-charge/optiga/externals/mbedtls/library\pkparse.c ****      */
 514:C:/Users/Yushev/git/wpcqi-optiga-trust-charge/optiga/externals/mbedtls/library\pkparse.c ****     *p = (unsigned char *) end;
 325              	 .loc 2 514 0
 326 003e FB68     	 ldr r3,[r7,#12]
 327 0040 BA68     	 ldr r2,[r7,#8]
 328 0042 1A60     	 str r2,[r3]
 515:C:/Users/Yushev/git/wpcqi-optiga-trust-charge/optiga/externals/mbedtls/library\pkparse.c **** 
 516:C:/Users/Yushev/git/wpcqi-optiga-trust-charge/optiga/externals/mbedtls/library\pkparse.c ****     return( ret );
 329              	 .loc 2 516 0
 330 0044 7B69     	 ldr r3,[r7,#20]
 517:C:/Users/Yushev/git/wpcqi-optiga-trust-charge/optiga/externals/mbedtls/library\pkparse.c **** }
 331              	 .loc 2 517 0
 332 0046 1846     	 mov r0,r3
 333 0048 1C37     	 adds r7,r7,#28
 334              	.LCFI19:
 335              	 .cfi_def_cfa_offset 12
 336 004a BD46     	 mov sp,r7
 337              	.LCFI20:
 338              	 .cfi_def_cfa_register 13
 339              	 
 340 004c 90BD     	 pop {r4,r7,pc}
 341              	 .cfi_endproc
 342              	.LFE11:
 344 004e 00BF     	 .section .text.pk_get_pk_alg,"ax",%progbits
 345              	 .align 2
 346              	 .thumb
 347              	 .thumb_func
 349              	pk_get_pk_alg:
 350              	.LFB12:
 518:C:/Users/Yushev/git/wpcqi-optiga-trust-charge/optiga/externals/mbedtls/library\pkparse.c **** #endif /* MBEDTLS_ECP_C */
 519:C:/Users/Yushev/git/wpcqi-optiga-trust-charge/optiga/externals/mbedtls/library\pkparse.c **** 
 520:C:/Users/Yushev/git/wpcqi-optiga-trust-charge/optiga/externals/mbedtls/library\pkparse.c **** #if defined(MBEDTLS_RSA_C)
 521:C:/Users/Yushev/git/wpcqi-optiga-trust-charge/optiga/externals/mbedtls/library\pkparse.c **** /*
 522:C:/Users/Yushev/git/wpcqi-optiga-trust-charge/optiga/externals/mbedtls/library\pkparse.c ****  *  RSAPublicKey ::= SEQUENCE {
 523:C:/Users/Yushev/git/wpcqi-optiga-trust-charge/optiga/externals/mbedtls/library\pkparse.c ****  *      modulus           INTEGER,  -- n
 524:C:/Users/Yushev/git/wpcqi-optiga-trust-charge/optiga/externals/mbedtls/library\pkparse.c ****  *      publicExponent    INTEGER   -- e
 525:C:/Users/Yushev/git/wpcqi-optiga-trust-charge/optiga/externals/mbedtls/library\pkparse.c ****  *  }
 526:C:/Users/Yushev/git/wpcqi-optiga-trust-charge/optiga/externals/mbedtls/library\pkparse.c ****  */
 527:C:/Users/Yushev/git/wpcqi-optiga-trust-charge/optiga/externals/mbedtls/library\pkparse.c **** static int pk_get_rsapubkey( unsigned char **p,
 528:C:/Users/Yushev/git/wpcqi-optiga-trust-charge/optiga/externals/mbedtls/library\pkparse.c ****                              const unsigned char *end,
 529:C:/Users/Yushev/git/wpcqi-optiga-trust-charge/optiga/externals/mbedtls/library\pkparse.c ****                              mbedtls_rsa_context *rsa )
 530:C:/Users/Yushev/git/wpcqi-optiga-trust-charge/optiga/externals/mbedtls/library\pkparse.c **** {
 531:C:/Users/Yushev/git/wpcqi-optiga-trust-charge/optiga/externals/mbedtls/library\pkparse.c ****     int ret;
 532:C:/Users/Yushev/git/wpcqi-optiga-trust-charge/optiga/externals/mbedtls/library\pkparse.c ****     size_t len;
 533:C:/Users/Yushev/git/wpcqi-optiga-trust-charge/optiga/externals/mbedtls/library\pkparse.c **** 
 534:C:/Users/Yushev/git/wpcqi-optiga-trust-charge/optiga/externals/mbedtls/library\pkparse.c ****     if( ( ret = mbedtls_asn1_get_tag( p, end, &len,
 535:C:/Users/Yushev/git/wpcqi-optiga-trust-charge/optiga/externals/mbedtls/library\pkparse.c ****             MBEDTLS_ASN1_CONSTRUCTED | MBEDTLS_ASN1_SEQUENCE ) ) != 0 )
 536:C:/Users/Yushev/git/wpcqi-optiga-trust-charge/optiga/externals/mbedtls/library\pkparse.c ****         return( MBEDTLS_ERR_PK_INVALID_PUBKEY + ret );
 537:C:/Users/Yushev/git/wpcqi-optiga-trust-charge/optiga/externals/mbedtls/library\pkparse.c **** 
 538:C:/Users/Yushev/git/wpcqi-optiga-trust-charge/optiga/externals/mbedtls/library\pkparse.c ****     if( *p + len != end )
 539:C:/Users/Yushev/git/wpcqi-optiga-trust-charge/optiga/externals/mbedtls/library\pkparse.c ****         return( MBEDTLS_ERR_PK_INVALID_PUBKEY +
 540:C:/Users/Yushev/git/wpcqi-optiga-trust-charge/optiga/externals/mbedtls/library\pkparse.c ****                 MBEDTLS_ERR_ASN1_LENGTH_MISMATCH );
 541:C:/Users/Yushev/git/wpcqi-optiga-trust-charge/optiga/externals/mbedtls/library\pkparse.c **** 
 542:C:/Users/Yushev/git/wpcqi-optiga-trust-charge/optiga/externals/mbedtls/library\pkparse.c ****     /* Import N */
 543:C:/Users/Yushev/git/wpcqi-optiga-trust-charge/optiga/externals/mbedtls/library\pkparse.c ****     if( ( ret = mbedtls_asn1_get_tag( p, end, &len, MBEDTLS_ASN1_INTEGER ) ) != 0 )
 544:C:/Users/Yushev/git/wpcqi-optiga-trust-charge/optiga/externals/mbedtls/library\pkparse.c ****         return( MBEDTLS_ERR_PK_INVALID_PUBKEY + ret );
 545:C:/Users/Yushev/git/wpcqi-optiga-trust-charge/optiga/externals/mbedtls/library\pkparse.c **** 
 546:C:/Users/Yushev/git/wpcqi-optiga-trust-charge/optiga/externals/mbedtls/library\pkparse.c ****     if( ( ret = mbedtls_rsa_import_raw( rsa, *p, len, NULL, 0, NULL, 0,
 547:C:/Users/Yushev/git/wpcqi-optiga-trust-charge/optiga/externals/mbedtls/library\pkparse.c ****                                         NULL, 0, NULL, 0 ) ) != 0 )
 548:C:/Users/Yushev/git/wpcqi-optiga-trust-charge/optiga/externals/mbedtls/library\pkparse.c ****         return( MBEDTLS_ERR_PK_INVALID_PUBKEY );
 549:C:/Users/Yushev/git/wpcqi-optiga-trust-charge/optiga/externals/mbedtls/library\pkparse.c **** 
 550:C:/Users/Yushev/git/wpcqi-optiga-trust-charge/optiga/externals/mbedtls/library\pkparse.c ****     *p += len;
 551:C:/Users/Yushev/git/wpcqi-optiga-trust-charge/optiga/externals/mbedtls/library\pkparse.c **** 
 552:C:/Users/Yushev/git/wpcqi-optiga-trust-charge/optiga/externals/mbedtls/library\pkparse.c ****     /* Import E */
 553:C:/Users/Yushev/git/wpcqi-optiga-trust-charge/optiga/externals/mbedtls/library\pkparse.c ****     if( ( ret = mbedtls_asn1_get_tag( p, end, &len, MBEDTLS_ASN1_INTEGER ) ) != 0 )
 554:C:/Users/Yushev/git/wpcqi-optiga-trust-charge/optiga/externals/mbedtls/library\pkparse.c ****         return( MBEDTLS_ERR_PK_INVALID_PUBKEY + ret );
 555:C:/Users/Yushev/git/wpcqi-optiga-trust-charge/optiga/externals/mbedtls/library\pkparse.c **** 
 556:C:/Users/Yushev/git/wpcqi-optiga-trust-charge/optiga/externals/mbedtls/library\pkparse.c ****     if( ( ret = mbedtls_rsa_import_raw( rsa, NULL, 0, NULL, 0, NULL, 0,
 557:C:/Users/Yushev/git/wpcqi-optiga-trust-charge/optiga/externals/mbedtls/library\pkparse.c ****                                         NULL, 0, *p, len ) ) != 0 )
 558:C:/Users/Yushev/git/wpcqi-optiga-trust-charge/optiga/externals/mbedtls/library\pkparse.c ****         return( MBEDTLS_ERR_PK_INVALID_PUBKEY );
 559:C:/Users/Yushev/git/wpcqi-optiga-trust-charge/optiga/externals/mbedtls/library\pkparse.c **** 
 560:C:/Users/Yushev/git/wpcqi-optiga-trust-charge/optiga/externals/mbedtls/library\pkparse.c ****     *p += len;
 561:C:/Users/Yushev/git/wpcqi-optiga-trust-charge/optiga/externals/mbedtls/library\pkparse.c **** 
 562:C:/Users/Yushev/git/wpcqi-optiga-trust-charge/optiga/externals/mbedtls/library\pkparse.c ****     if( mbedtls_rsa_complete( rsa ) != 0 ||
 563:C:/Users/Yushev/git/wpcqi-optiga-trust-charge/optiga/externals/mbedtls/library\pkparse.c ****         mbedtls_rsa_check_pubkey( rsa ) != 0 )
 564:C:/Users/Yushev/git/wpcqi-optiga-trust-charge/optiga/externals/mbedtls/library\pkparse.c ****     {
 565:C:/Users/Yushev/git/wpcqi-optiga-trust-charge/optiga/externals/mbedtls/library\pkparse.c ****         return( MBEDTLS_ERR_PK_INVALID_PUBKEY );
 566:C:/Users/Yushev/git/wpcqi-optiga-trust-charge/optiga/externals/mbedtls/library\pkparse.c ****     }
 567:C:/Users/Yushev/git/wpcqi-optiga-trust-charge/optiga/externals/mbedtls/library\pkparse.c **** 
 568:C:/Users/Yushev/git/wpcqi-optiga-trust-charge/optiga/externals/mbedtls/library\pkparse.c ****     if( *p != end )
 569:C:/Users/Yushev/git/wpcqi-optiga-trust-charge/optiga/externals/mbedtls/library\pkparse.c ****         return( MBEDTLS_ERR_PK_INVALID_PUBKEY +
 570:C:/Users/Yushev/git/wpcqi-optiga-trust-charge/optiga/externals/mbedtls/library\pkparse.c ****                 MBEDTLS_ERR_ASN1_LENGTH_MISMATCH );
 571:C:/Users/Yushev/git/wpcqi-optiga-trust-charge/optiga/externals/mbedtls/library\pkparse.c **** 
 572:C:/Users/Yushev/git/wpcqi-optiga-trust-charge/optiga/externals/mbedtls/library\pkparse.c ****     return( 0 );
 573:C:/Users/Yushev/git/wpcqi-optiga-trust-charge/optiga/externals/mbedtls/library\pkparse.c **** }
 574:C:/Users/Yushev/git/wpcqi-optiga-trust-charge/optiga/externals/mbedtls/library\pkparse.c **** #endif /* MBEDTLS_RSA_C */
 575:C:/Users/Yushev/git/wpcqi-optiga-trust-charge/optiga/externals/mbedtls/library\pkparse.c **** 
 576:C:/Users/Yushev/git/wpcqi-optiga-trust-charge/optiga/externals/mbedtls/library\pkparse.c **** /* Get a PK algorithm identifier
 577:C:/Users/Yushev/git/wpcqi-optiga-trust-charge/optiga/externals/mbedtls/library\pkparse.c ****  *
 578:C:/Users/Yushev/git/wpcqi-optiga-trust-charge/optiga/externals/mbedtls/library\pkparse.c ****  *  AlgorithmIdentifier  ::=  SEQUENCE  {
 579:C:/Users/Yushev/git/wpcqi-optiga-trust-charge/optiga/externals/mbedtls/library\pkparse.c ****  *       algorithm               OBJECT IDENTIFIER,
 580:C:/Users/Yushev/git/wpcqi-optiga-trust-charge/optiga/externals/mbedtls/library\pkparse.c ****  *       parameters              ANY DEFINED BY algorithm OPTIONAL  }
 581:C:/Users/Yushev/git/wpcqi-optiga-trust-charge/optiga/externals/mbedtls/library\pkparse.c ****  */
 582:C:/Users/Yushev/git/wpcqi-optiga-trust-charge/optiga/externals/mbedtls/library\pkparse.c **** static int pk_get_pk_alg( unsigned char **p,
 583:C:/Users/Yushev/git/wpcqi-optiga-trust-charge/optiga/externals/mbedtls/library\pkparse.c ****                           const unsigned char *end,
 584:C:/Users/Yushev/git/wpcqi-optiga-trust-charge/optiga/externals/mbedtls/library\pkparse.c ****                           mbedtls_pk_type_t *pk_alg, mbedtls_asn1_buf *params )
 585:C:/Users/Yushev/git/wpcqi-optiga-trust-charge/optiga/externals/mbedtls/library\pkparse.c **** {
 351              	 .loc 2 585 0
 352              	 .cfi_startproc
 353              	 
 354              	 
 355 0000 80B5     	 push {r7,lr}
 356              	.LCFI21:
 357              	 .cfi_def_cfa_offset 8
 358              	 .cfi_offset 7,-8
 359              	 .cfi_offset 14,-4
 360 0002 88B0     	 sub sp,sp,#32
 361              	.LCFI22:
 362              	 .cfi_def_cfa_offset 40
 363 0004 00AF     	 add r7,sp,#0
 364              	.LCFI23:
 365              	 .cfi_def_cfa_register 7
 366 0006 F860     	 str r0,[r7,#12]
 367 0008 B960     	 str r1,[r7,#8]
 368 000a 7A60     	 str r2,[r7,#4]
 369 000c 3B60     	 str r3,[r7]
 586:C:/Users/Yushev/git/wpcqi-optiga-trust-charge/optiga/externals/mbedtls/library\pkparse.c ****     int ret;
 587:C:/Users/Yushev/git/wpcqi-optiga-trust-charge/optiga/externals/mbedtls/library\pkparse.c ****     mbedtls_asn1_buf alg_oid;
 588:C:/Users/Yushev/git/wpcqi-optiga-trust-charge/optiga/externals/mbedtls/library\pkparse.c **** 
 589:C:/Users/Yushev/git/wpcqi-optiga-trust-charge/optiga/externals/mbedtls/library\pkparse.c ****     memset( params, 0, sizeof(mbedtls_asn1_buf) );
 370              	 .loc 2 589 0
 371 000e 3868     	 ldr r0,[r7]
 372 0010 0021     	 movs r1,#0
 373 0012 0C22     	 movs r2,#12
 374 0014 FFF7FEFF 	 bl memset
 590:C:/Users/Yushev/git/wpcqi-optiga-trust-charge/optiga/externals/mbedtls/library\pkparse.c **** 
 591:C:/Users/Yushev/git/wpcqi-optiga-trust-charge/optiga/externals/mbedtls/library\pkparse.c ****     if( ( ret = mbedtls_asn1_get_alg( p, end, &alg_oid, params ) ) != 0 )
 375              	 .loc 2 591 0
 376 0018 07F11003 	 add r3,r7,#16
 377 001c F868     	 ldr r0,[r7,#12]
 378 001e B968     	 ldr r1,[r7,#8]
 379 0020 1A46     	 mov r2,r3
 380 0022 3B68     	 ldr r3,[r7]
 381 0024 FFF7FEFF 	 bl mbedtls_asn1_get_alg
 382 0028 F861     	 str r0,[r7,#28]
 383 002a FB69     	 ldr r3,[r7,#28]
 384 002c 002B     	 cmp r3,#0
 385 002e 03D0     	 beq .L24
 592:C:/Users/Yushev/git/wpcqi-optiga-trust-charge/optiga/externals/mbedtls/library\pkparse.c ****         return( MBEDTLS_ERR_PK_INVALID_ALG + ret );
 386              	 .loc 2 592 0
 387 0030 FB69     	 ldr r3,[r7,#28]
 388 0032 A3F56A53 	 sub r3,r3,#14976
 389 0036 1DE0     	 b .L30
 390              	.L24:
 593:C:/Users/Yushev/git/wpcqi-optiga-trust-charge/optiga/externals/mbedtls/library\pkparse.c **** 
 594:C:/Users/Yushev/git/wpcqi-optiga-trust-charge/optiga/externals/mbedtls/library\pkparse.c ****     if( mbedtls_oid_get_pk_alg( &alg_oid, pk_alg ) != 0 )
 391              	 .loc 2 594 0
 392 0038 07F11003 	 add r3,r7,#16
 393 003c 1846     	 mov r0,r3
 394 003e 7968     	 ldr r1,[r7,#4]
 395 0040 FFF7FEFF 	 bl mbedtls_oid_get_pk_alg
 396 0044 0346     	 mov r3,r0
 397 0046 002B     	 cmp r3,#0
 398 0048 01D0     	 beq .L26
 595:C:/Users/Yushev/git/wpcqi-optiga-trust-charge/optiga/externals/mbedtls/library\pkparse.c ****         return( MBEDTLS_ERR_PK_UNKNOWN_PK_ALG );
 399              	 .loc 2 595 0
 400 004a 0C4B     	 ldr r3,.L31
 401 004c 12E0     	 b .L30
 402              	.L26:
 596:C:/Users/Yushev/git/wpcqi-optiga-trust-charge/optiga/externals/mbedtls/library\pkparse.c **** 
 597:C:/Users/Yushev/git/wpcqi-optiga-trust-charge/optiga/externals/mbedtls/library\pkparse.c ****     /*
 598:C:/Users/Yushev/git/wpcqi-optiga-trust-charge/optiga/externals/mbedtls/library\pkparse.c ****      * No parameters with RSA (only for EC)
 599:C:/Users/Yushev/git/wpcqi-optiga-trust-charge/optiga/externals/mbedtls/library\pkparse.c ****      */
 600:C:/Users/Yushev/git/wpcqi-optiga-trust-charge/optiga/externals/mbedtls/library\pkparse.c ****     if( *pk_alg == MBEDTLS_PK_RSA &&
 403              	 .loc 2 600 0
 404 004e 7B68     	 ldr r3,[r7,#4]
 405 0050 1B78     	 ldrb r3,[r3]
 406 0052 012B     	 cmp r3,#1
 407 0054 0DD1     	 bne .L27
 601:C:/Users/Yushev/git/wpcqi-optiga-trust-charge/optiga/externals/mbedtls/library\pkparse.c ****             ( ( params->tag != MBEDTLS_ASN1_NULL && params->tag != 0 ) ||
 408              	 .loc 2 601 0 discriminator 1
 409 0056 3B68     	 ldr r3,[r7]
 410 0058 1B68     	 ldr r3,[r3]
 600:C:/Users/Yushev/git/wpcqi-optiga-trust-charge/optiga/externals/mbedtls/library\pkparse.c ****             ( ( params->tag != MBEDTLS_ASN1_NULL && params->tag != 0 ) ||
 411              	 .loc 2 600 0 discriminator 1
 412 005a 052B     	 cmp r3,#5
 413 005c 03D0     	 beq .L28
 414              	 .loc 2 601 0
 415 005e 3B68     	 ldr r3,[r7]
 416 0060 1B68     	 ldr r3,[r3]
 417 0062 002B     	 cmp r3,#0
 418 0064 03D1     	 bne .L29
 419              	.L28:
 602:C:/Users/Yushev/git/wpcqi-optiga-trust-charge/optiga/externals/mbedtls/library\pkparse.c ****                 params->len != 0 ) )
 420              	 .loc 2 602 0 discriminator 1
 421 0066 3B68     	 ldr r3,[r7]
 422 0068 5B68     	 ldr r3,[r3,#4]
 601:C:/Users/Yushev/git/wpcqi-optiga-trust-charge/optiga/externals/mbedtls/library\pkparse.c ****             ( ( params->tag != MBEDTLS_ASN1_NULL && params->tag != 0 ) ||
 423              	 .loc 2 601 0 discriminator 1
 424 006a 002B     	 cmp r3,#0
 425 006c 01D0     	 beq .L27
 426              	.L29:
 603:C:/Users/Yushev/git/wpcqi-optiga-trust-charge/optiga/externals/mbedtls/library\pkparse.c ****     {
 604:C:/Users/Yushev/git/wpcqi-optiga-trust-charge/optiga/externals/mbedtls/library\pkparse.c ****         return( MBEDTLS_ERR_PK_INVALID_ALG );
 427              	 .loc 2 604 0
 428 006e 044B     	 ldr r3,.L31+4
 429 0070 00E0     	 b .L30
 430              	.L27:
 605:C:/Users/Yushev/git/wpcqi-optiga-trust-charge/optiga/externals/mbedtls/library\pkparse.c ****     }
 606:C:/Users/Yushev/git/wpcqi-optiga-trust-charge/optiga/externals/mbedtls/library\pkparse.c **** 
 607:C:/Users/Yushev/git/wpcqi-optiga-trust-charge/optiga/externals/mbedtls/library\pkparse.c ****     return( 0 );
 431              	 .loc 2 607 0
 432 0072 0023     	 movs r3,#0
 433              	.L30:
 608:C:/Users/Yushev/git/wpcqi-optiga-trust-charge/optiga/externals/mbedtls/library\pkparse.c **** }
 434              	 .loc 2 608 0 discriminator 1
 435 0074 1846     	 mov r0,r3
 436 0076 2037     	 adds r7,r7,#32
 437              	.LCFI24:
 438              	 .cfi_def_cfa_offset 8
 439 0078 BD46     	 mov sp,r7
 440              	.LCFI25:
 441              	 .cfi_def_cfa_register 13
 442              	 
 443 007a 80BD     	 pop {r7,pc}
 444              	.L32:
 445              	 .align 2
 446              	.L31:
 447 007c 80C3FFFF 	 .word -15488
 448 0080 80C5FFFF 	 .word -14976
 449              	 .cfi_endproc
 450              	.LFE12:
 452              	 .section .text.mbedtls_pk_parse_subpubkey,"ax",%progbits
 453              	 .align 2
 454              	 .global mbedtls_pk_parse_subpubkey
 455              	 .thumb
 456              	 .thumb_func
 458              	mbedtls_pk_parse_subpubkey:
 459              	.LFB13:
 609:C:/Users/Yushev/git/wpcqi-optiga-trust-charge/optiga/externals/mbedtls/library\pkparse.c **** 
 610:C:/Users/Yushev/git/wpcqi-optiga-trust-charge/optiga/externals/mbedtls/library\pkparse.c **** /*
 611:C:/Users/Yushev/git/wpcqi-optiga-trust-charge/optiga/externals/mbedtls/library\pkparse.c ****  *  SubjectPublicKeyInfo  ::=  SEQUENCE  {
 612:C:/Users/Yushev/git/wpcqi-optiga-trust-charge/optiga/externals/mbedtls/library\pkparse.c ****  *       algorithm            AlgorithmIdentifier,
 613:C:/Users/Yushev/git/wpcqi-optiga-trust-charge/optiga/externals/mbedtls/library\pkparse.c ****  *       subjectPublicKey     BIT STRING }
 614:C:/Users/Yushev/git/wpcqi-optiga-trust-charge/optiga/externals/mbedtls/library\pkparse.c ****  */
 615:C:/Users/Yushev/git/wpcqi-optiga-trust-charge/optiga/externals/mbedtls/library\pkparse.c **** int mbedtls_pk_parse_subpubkey( unsigned char **p, const unsigned char *end,
 616:C:/Users/Yushev/git/wpcqi-optiga-trust-charge/optiga/externals/mbedtls/library\pkparse.c ****                         mbedtls_pk_context *pk )
 617:C:/Users/Yushev/git/wpcqi-optiga-trust-charge/optiga/externals/mbedtls/library\pkparse.c **** {
 460              	 .loc 2 617 0
 461              	 .cfi_startproc
 462              	 
 463              	 
 464 0000 80B5     	 push {r7,lr}
 465              	.LCFI26:
 466              	 .cfi_def_cfa_offset 8
 467              	 .cfi_offset 7,-8
 468              	 .cfi_offset 14,-4
 469 0002 8CB0     	 sub sp,sp,#48
 470              	.LCFI27:
 471              	 .cfi_def_cfa_offset 56
 472 0004 00AF     	 add r7,sp,#0
 473              	.LCFI28:
 474              	 .cfi_def_cfa_register 7
 475 0006 F860     	 str r0,[r7,#12]
 476 0008 B960     	 str r1,[r7,#8]
 477 000a 7A60     	 str r2,[r7,#4]
 618:C:/Users/Yushev/git/wpcqi-optiga-trust-charge/optiga/externals/mbedtls/library\pkparse.c ****     int ret;
 619:C:/Users/Yushev/git/wpcqi-optiga-trust-charge/optiga/externals/mbedtls/library\pkparse.c ****     size_t len;
 620:C:/Users/Yushev/git/wpcqi-optiga-trust-charge/optiga/externals/mbedtls/library\pkparse.c ****     mbedtls_asn1_buf alg_params;
 621:C:/Users/Yushev/git/wpcqi-optiga-trust-charge/optiga/externals/mbedtls/library\pkparse.c ****     mbedtls_pk_type_t pk_alg = MBEDTLS_PK_NONE;
 478              	 .loc 2 621 0
 479 000c 0023     	 movs r3,#0
 480 000e FB75     	 strb r3,[r7,#23]
 622:C:/Users/Yushev/git/wpcqi-optiga-trust-charge/optiga/externals/mbedtls/library\pkparse.c ****     const mbedtls_pk_info_t *pk_info;
 623:C:/Users/Yushev/git/wpcqi-optiga-trust-charge/optiga/externals/mbedtls/library\pkparse.c **** 
 624:C:/Users/Yushev/git/wpcqi-optiga-trust-charge/optiga/externals/mbedtls/library\pkparse.c ****     PK_VALIDATE_RET( p != NULL );
 625:C:/Users/Yushev/git/wpcqi-optiga-trust-charge/optiga/externals/mbedtls/library\pkparse.c ****     PK_VALIDATE_RET( *p != NULL );
 626:C:/Users/Yushev/git/wpcqi-optiga-trust-charge/optiga/externals/mbedtls/library\pkparse.c ****     PK_VALIDATE_RET( end != NULL );
 627:C:/Users/Yushev/git/wpcqi-optiga-trust-charge/optiga/externals/mbedtls/library\pkparse.c ****     PK_VALIDATE_RET( pk != NULL );
 628:C:/Users/Yushev/git/wpcqi-optiga-trust-charge/optiga/externals/mbedtls/library\pkparse.c **** 
 629:C:/Users/Yushev/git/wpcqi-optiga-trust-charge/optiga/externals/mbedtls/library\pkparse.c ****     if( ( ret = mbedtls_asn1_get_tag( p, end, &len,
 481              	 .loc 2 629 0
 482 0010 07F12403 	 add r3,r7,#36
 483 0014 F868     	 ldr r0,[r7,#12]
 484 0016 B968     	 ldr r1,[r7,#8]
 485 0018 1A46     	 mov r2,r3
 486 001a 3023     	 movs r3,#48
 487 001c FFF7FEFF 	 bl mbedtls_asn1_get_tag
 488 0020 F862     	 str r0,[r7,#44]
 489 0022 FB6A     	 ldr r3,[r7,#44]
 490 0024 002B     	 cmp r3,#0
 491 0026 03D0     	 beq .L34
 630:C:/Users/Yushev/git/wpcqi-optiga-trust-charge/optiga/externals/mbedtls/library\pkparse.c ****                     MBEDTLS_ASN1_CONSTRUCTED | MBEDTLS_ASN1_SEQUENCE ) ) != 0 )
 631:C:/Users/Yushev/git/wpcqi-optiga-trust-charge/optiga/externals/mbedtls/library\pkparse.c ****     {
 632:C:/Users/Yushev/git/wpcqi-optiga-trust-charge/optiga/externals/mbedtls/library\pkparse.c ****         return( MBEDTLS_ERR_PK_KEY_INVALID_FORMAT + ret );
 492              	 .loc 2 632 0
 493 0028 FB6A     	 ldr r3,[r7,#44]
 494 002a A3F57453 	 sub r3,r3,#15616
 495 002e 76E0     	 b .L47
 496              	.L34:
 633:C:/Users/Yushev/git/wpcqi-optiga-trust-charge/optiga/externals/mbedtls/library\pkparse.c ****     }
 634:C:/Users/Yushev/git/wpcqi-optiga-trust-charge/optiga/externals/mbedtls/library\pkparse.c **** 
 635:C:/Users/Yushev/git/wpcqi-optiga-trust-charge/optiga/externals/mbedtls/library\pkparse.c ****     end = *p + len;
 497              	 .loc 2 635 0
 498 0030 FB68     	 ldr r3,[r7,#12]
 499 0032 1A68     	 ldr r2,[r3]
 500 0034 7B6A     	 ldr r3,[r7,#36]
 501 0036 1344     	 add r3,r3,r2
 502 0038 BB60     	 str r3,[r7,#8]
 636:C:/Users/Yushev/git/wpcqi-optiga-trust-charge/optiga/externals/mbedtls/library\pkparse.c **** 
 637:C:/Users/Yushev/git/wpcqi-optiga-trust-charge/optiga/externals/mbedtls/library\pkparse.c ****     if( ( ret = pk_get_pk_alg( p, end, &pk_alg, &alg_params ) ) != 0 )
 503              	 .loc 2 637 0
 504 003a 07F11702 	 add r2,r7,#23
 505 003e 07F11803 	 add r3,r7,#24
 506 0042 F868     	 ldr r0,[r7,#12]
 507 0044 B968     	 ldr r1,[r7,#8]
 508 0046 FFF7FEFF 	 bl pk_get_pk_alg
 509 004a F862     	 str r0,[r7,#44]
 510 004c FB6A     	 ldr r3,[r7,#44]
 511 004e 002B     	 cmp r3,#0
 512 0050 01D0     	 beq .L36
 638:C:/Users/Yushev/git/wpcqi-optiga-trust-charge/optiga/externals/mbedtls/library\pkparse.c ****         return( ret );
 513              	 .loc 2 638 0
 514 0052 FB6A     	 ldr r3,[r7,#44]
 515 0054 63E0     	 b .L47
 516              	.L36:
 639:C:/Users/Yushev/git/wpcqi-optiga-trust-charge/optiga/externals/mbedtls/library\pkparse.c **** 
 640:C:/Users/Yushev/git/wpcqi-optiga-trust-charge/optiga/externals/mbedtls/library\pkparse.c ****     if( ( ret = mbedtls_asn1_get_bitstring_null( p, end, &len ) ) != 0 )
 517              	 .loc 2 640 0
 518 0056 07F12403 	 add r3,r7,#36
 519 005a F868     	 ldr r0,[r7,#12]
 520 005c B968     	 ldr r1,[r7,#8]
 521 005e 1A46     	 mov r2,r3
 522 0060 FFF7FEFF 	 bl mbedtls_asn1_get_bitstring_null
 523 0064 F862     	 str r0,[r7,#44]
 524 0066 FB6A     	 ldr r3,[r7,#44]
 525 0068 002B     	 cmp r3,#0
 526 006a 03D0     	 beq .L37
 641:C:/Users/Yushev/git/wpcqi-optiga-trust-charge/optiga/externals/mbedtls/library\pkparse.c ****         return( MBEDTLS_ERR_PK_INVALID_PUBKEY + ret );
 527              	 .loc 2 641 0
 528 006c FB6A     	 ldr r3,[r7,#44]
 529 006e A3F56C53 	 sub r3,r3,#15104
 530 0072 54E0     	 b .L47
 531              	.L37:
 642:C:/Users/Yushev/git/wpcqi-optiga-trust-charge/optiga/externals/mbedtls/library\pkparse.c **** 
 643:C:/Users/Yushev/git/wpcqi-optiga-trust-charge/optiga/externals/mbedtls/library\pkparse.c ****     if( *p + len != end )
 532              	 .loc 2 643 0
 533 0074 FB68     	 ldr r3,[r7,#12]
 534 0076 1A68     	 ldr r2,[r3]
 535 0078 7B6A     	 ldr r3,[r7,#36]
 536 007a 1A44     	 add r2,r2,r3
 537 007c BB68     	 ldr r3,[r7,#8]
 538 007e 9A42     	 cmp r2,r3
 539 0080 01D0     	 beq .L38
 644:C:/Users/Yushev/git/wpcqi-optiga-trust-charge/optiga/externals/mbedtls/library\pkparse.c ****         return( MBEDTLS_ERR_PK_INVALID_PUBKEY +
 540              	 .loc 2 644 0
 541 0082 294B     	 ldr r3,.L48
 542 0084 4BE0     	 b .L47
 543              	.L38:
 645:C:/Users/Yushev/git/wpcqi-optiga-trust-charge/optiga/externals/mbedtls/library\pkparse.c ****                 MBEDTLS_ERR_ASN1_LENGTH_MISMATCH );
 646:C:/Users/Yushev/git/wpcqi-optiga-trust-charge/optiga/externals/mbedtls/library\pkparse.c **** 
 647:C:/Users/Yushev/git/wpcqi-optiga-trust-charge/optiga/externals/mbedtls/library\pkparse.c ****     if( ( pk_info = mbedtls_pk_info_from_type( pk_alg ) ) == NULL )
 544              	 .loc 2 647 0
 545 0086 FB7D     	 ldrb r3,[r7,#23]
 546 0088 1846     	 mov r0,r3
 547 008a FFF7FEFF 	 bl mbedtls_pk_info_from_type
 548 008e B862     	 str r0,[r7,#40]
 549 0090 BB6A     	 ldr r3,[r7,#40]
 550 0092 002B     	 cmp r3,#0
 551 0094 01D1     	 bne .L39
 648:C:/Users/Yushev/git/wpcqi-optiga-trust-charge/optiga/externals/mbedtls/library\pkparse.c ****         return( MBEDTLS_ERR_PK_UNKNOWN_PK_ALG );
 552              	 .loc 2 648 0
 553 0096 254B     	 ldr r3,.L48+4
 554 0098 41E0     	 b .L47
 555              	.L39:
 649:C:/Users/Yushev/git/wpcqi-optiga-trust-charge/optiga/externals/mbedtls/library\pkparse.c **** 
 650:C:/Users/Yushev/git/wpcqi-optiga-trust-charge/optiga/externals/mbedtls/library\pkparse.c ****     if( ( ret = mbedtls_pk_setup( pk, pk_info ) ) != 0 )
 556              	 .loc 2 650 0
 557 009a 7868     	 ldr r0,[r7,#4]
 558 009c B96A     	 ldr r1,[r7,#40]
 559 009e FFF7FEFF 	 bl mbedtls_pk_setup
 560 00a2 F862     	 str r0,[r7,#44]
 561 00a4 FB6A     	 ldr r3,[r7,#44]
 562 00a6 002B     	 cmp r3,#0
 563 00a8 01D0     	 beq .L40
 651:C:/Users/Yushev/git/wpcqi-optiga-trust-charge/optiga/externals/mbedtls/library\pkparse.c ****         return( ret );
 564              	 .loc 2 651 0
 565 00aa FB6A     	 ldr r3,[r7,#44]
 566 00ac 37E0     	 b .L47
 567              	.L40:
 652:C:/Users/Yushev/git/wpcqi-optiga-trust-charge/optiga/externals/mbedtls/library\pkparse.c **** 
 653:C:/Users/Yushev/git/wpcqi-optiga-trust-charge/optiga/externals/mbedtls/library\pkparse.c **** #if defined(MBEDTLS_RSA_C)
 654:C:/Users/Yushev/git/wpcqi-optiga-trust-charge/optiga/externals/mbedtls/library\pkparse.c ****     if( pk_alg == MBEDTLS_PK_RSA )
 655:C:/Users/Yushev/git/wpcqi-optiga-trust-charge/optiga/externals/mbedtls/library\pkparse.c ****     {
 656:C:/Users/Yushev/git/wpcqi-optiga-trust-charge/optiga/externals/mbedtls/library\pkparse.c ****         ret = pk_get_rsapubkey( p, end, mbedtls_pk_rsa( *pk ) );
 657:C:/Users/Yushev/git/wpcqi-optiga-trust-charge/optiga/externals/mbedtls/library\pkparse.c ****     } else
 658:C:/Users/Yushev/git/wpcqi-optiga-trust-charge/optiga/externals/mbedtls/library\pkparse.c **** #endif /* MBEDTLS_RSA_C */
 659:C:/Users/Yushev/git/wpcqi-optiga-trust-charge/optiga/externals/mbedtls/library\pkparse.c **** #if defined(MBEDTLS_ECP_C)
 660:C:/Users/Yushev/git/wpcqi-optiga-trust-charge/optiga/externals/mbedtls/library\pkparse.c ****     if( pk_alg == MBEDTLS_PK_ECKEY_DH || pk_alg == MBEDTLS_PK_ECKEY )
 568              	 .loc 2 660 0
 569 00ae FB7D     	 ldrb r3,[r7,#23]
 570 00b0 032B     	 cmp r3,#3
 571 00b2 02D0     	 beq .L41
 572              	 .loc 2 660 0 is_stmt 0 discriminator 1
 573 00b4 FB7D     	 ldrb r3,[r7,#23]
 574 00b6 022B     	 cmp r3,#2
 575 00b8 1ED1     	 bne .L42
 576              	.L41:
 661:C:/Users/Yushev/git/wpcqi-optiga-trust-charge/optiga/externals/mbedtls/library\pkparse.c ****     {
 662:C:/Users/Yushev/git/wpcqi-optiga-trust-charge/optiga/externals/mbedtls/library\pkparse.c ****         ret = pk_use_ecparams( &alg_params, &mbedtls_pk_ec( *pk )->grp );
 577              	 .loc 2 662 0 is_stmt 1
 578 00ba 7B68     	 ldr r3,[r7,#4]
 579 00bc 93E80300 	 ldmia r3,{r0,r1}
 580 00c0 FFF7FEFF 	 bl mbedtls_pk_ec
 581 00c4 0346     	 mov r3,r0
 582 00c6 1A46     	 mov r2,r3
 583 00c8 07F11803 	 add r3,r7,#24
 584 00cc 1846     	 mov r0,r3
 585 00ce 1146     	 mov r1,r2
 586 00d0 FFF7FEFF 	 bl pk_use_ecparams
 587 00d4 F862     	 str r0,[r7,#44]
 663:C:/Users/Yushev/git/wpcqi-optiga-trust-charge/optiga/externals/mbedtls/library\pkparse.c ****         if( ret == 0 )
 588              	 .loc 2 663 0
 589 00d6 FB6A     	 ldr r3,[r7,#44]
 590 00d8 002B     	 cmp r3,#0
 591 00da 0CD1     	 bne .L43
 664:C:/Users/Yushev/git/wpcqi-optiga-trust-charge/optiga/externals/mbedtls/library\pkparse.c ****             ret = pk_get_ecpubkey( p, end, mbedtls_pk_ec( *pk ) );
 592              	 .loc 2 664 0
 593 00dc 7B68     	 ldr r3,[r7,#4]
 594 00de 93E80300 	 ldmia r3,{r0,r1}
 595 00e2 FFF7FEFF 	 bl mbedtls_pk_ec
 596 00e6 0346     	 mov r3,r0
 597 00e8 F868     	 ldr r0,[r7,#12]
 598 00ea B968     	 ldr r1,[r7,#8]
 599 00ec 1A46     	 mov r2,r3
 600 00ee FFF7FEFF 	 bl pk_get_ecpubkey
 601 00f2 F862     	 str r0,[r7,#44]
 663:C:/Users/Yushev/git/wpcqi-optiga-trust-charge/optiga/externals/mbedtls/library\pkparse.c ****         if( ret == 0 )
 602              	 .loc 2 663 0
 603 00f4 02E0     	 b .L44
 604              	.L43:
 605 00f6 01E0     	 b .L44
 606              	.L42:
 665:C:/Users/Yushev/git/wpcqi-optiga-trust-charge/optiga/externals/mbedtls/library\pkparse.c ****     } else
 666:C:/Users/Yushev/git/wpcqi-optiga-trust-charge/optiga/externals/mbedtls/library\pkparse.c **** #endif /* MBEDTLS_ECP_C */
 667:C:/Users/Yushev/git/wpcqi-optiga-trust-charge/optiga/externals/mbedtls/library\pkparse.c ****         ret = MBEDTLS_ERR_PK_UNKNOWN_PK_ALG;
 607              	 .loc 2 667 0
 608 00f8 0C4B     	 ldr r3,.L48+4
 609 00fa FB62     	 str r3,[r7,#44]
 610              	.L44:
 668:C:/Users/Yushev/git/wpcqi-optiga-trust-charge/optiga/externals/mbedtls/library\pkparse.c **** 
 669:C:/Users/Yushev/git/wpcqi-optiga-trust-charge/optiga/externals/mbedtls/library\pkparse.c ****     if( ret == 0 && *p != end )
 611              	 .loc 2 669 0
 612 00fc FB6A     	 ldr r3,[r7,#44]
 613 00fe 002B     	 cmp r3,#0
 614 0100 06D1     	 bne .L45
 615              	 .loc 2 669 0 is_stmt 0 discriminator 1
 616 0102 FB68     	 ldr r3,[r7,#12]
 617 0104 1A68     	 ldr r2,[r3]
 618 0106 BB68     	 ldr r3,[r7,#8]
 619 0108 9A42     	 cmp r2,r3
 620 010a 01D0     	 beq .L45
 670:C:/Users/Yushev/git/wpcqi-optiga-trust-charge/optiga/externals/mbedtls/library\pkparse.c ****         ret = MBEDTLS_ERR_PK_INVALID_PUBKEY
 621              	 .loc 2 670 0 is_stmt 1
 622 010c 064B     	 ldr r3,.L48
 623 010e FB62     	 str r3,[r7,#44]
 624              	.L45:
 671:C:/Users/Yushev/git/wpcqi-optiga-trust-charge/optiga/externals/mbedtls/library\pkparse.c ****               MBEDTLS_ERR_ASN1_LENGTH_MISMATCH;
 672:C:/Users/Yushev/git/wpcqi-optiga-trust-charge/optiga/externals/mbedtls/library\pkparse.c **** 
 673:C:/Users/Yushev/git/wpcqi-optiga-trust-charge/optiga/externals/mbedtls/library\pkparse.c ****     if( ret != 0 )
 625              	 .loc 2 673 0
 626 0110 FB6A     	 ldr r3,[r7,#44]
 627 0112 002B     	 cmp r3,#0
 628 0114 02D0     	 beq .L46
 674:C:/Users/Yushev/git/wpcqi-optiga-trust-charge/optiga/externals/mbedtls/library\pkparse.c ****         mbedtls_pk_free( pk );
 629              	 .loc 2 674 0
 630 0116 7868     	 ldr r0,[r7,#4]
 631 0118 FFF7FEFF 	 bl mbedtls_pk_free
 632              	.L46:
 675:C:/Users/Yushev/git/wpcqi-optiga-trust-charge/optiga/externals/mbedtls/library\pkparse.c **** 
 676:C:/Users/Yushev/git/wpcqi-optiga-trust-charge/optiga/externals/mbedtls/library\pkparse.c ****     return( ret );
 633              	 .loc 2 676 0
 634 011c FB6A     	 ldr r3,[r7,#44]
 635              	.L47:
 677:C:/Users/Yushev/git/wpcqi-optiga-trust-charge/optiga/externals/mbedtls/library\pkparse.c **** }
 636              	 .loc 2 677 0 discriminator 1
 637 011e 1846     	 mov r0,r3
 638 0120 3037     	 adds r7,r7,#48
 639              	.LCFI29:
 640              	 .cfi_def_cfa_offset 8
 641 0122 BD46     	 mov sp,r7
 642              	.LCFI30:
 643              	 .cfi_def_cfa_register 13
 644              	 
 645 0124 80BD     	 pop {r7,pc}
 646              	.L49:
 647 0126 00BF     	 .align 2
 648              	.L48:
 649 0128 9AC4FFFF 	 .word -15206
 650 012c 80C3FFFF 	 .word -15488
 651              	 .cfi_endproc
 652              	.LFE13:
 654              	 .section .text.pk_parse_key_sec1_der,"ax",%progbits
 655              	 .align 2
 656              	 .thumb
 657              	 .thumb_func
 659              	pk_parse_key_sec1_der:
 660              	.LFB14:
 678:C:/Users/Yushev/git/wpcqi-optiga-trust-charge/optiga/externals/mbedtls/library\pkparse.c **** 
 679:C:/Users/Yushev/git/wpcqi-optiga-trust-charge/optiga/externals/mbedtls/library\pkparse.c **** #if defined(MBEDTLS_RSA_C)
 680:C:/Users/Yushev/git/wpcqi-optiga-trust-charge/optiga/externals/mbedtls/library\pkparse.c **** /*
 681:C:/Users/Yushev/git/wpcqi-optiga-trust-charge/optiga/externals/mbedtls/library\pkparse.c ****  * Parse a PKCS#1 encoded private RSA key
 682:C:/Users/Yushev/git/wpcqi-optiga-trust-charge/optiga/externals/mbedtls/library\pkparse.c ****  */
 683:C:/Users/Yushev/git/wpcqi-optiga-trust-charge/optiga/externals/mbedtls/library\pkparse.c **** static int pk_parse_key_pkcs1_der( mbedtls_rsa_context *rsa,
 684:C:/Users/Yushev/git/wpcqi-optiga-trust-charge/optiga/externals/mbedtls/library\pkparse.c ****                                    const unsigned char *key,
 685:C:/Users/Yushev/git/wpcqi-optiga-trust-charge/optiga/externals/mbedtls/library\pkparse.c ****                                    size_t keylen )
 686:C:/Users/Yushev/git/wpcqi-optiga-trust-charge/optiga/externals/mbedtls/library\pkparse.c **** {
 687:C:/Users/Yushev/git/wpcqi-optiga-trust-charge/optiga/externals/mbedtls/library\pkparse.c ****     int ret, version;
 688:C:/Users/Yushev/git/wpcqi-optiga-trust-charge/optiga/externals/mbedtls/library\pkparse.c ****     size_t len;
 689:C:/Users/Yushev/git/wpcqi-optiga-trust-charge/optiga/externals/mbedtls/library\pkparse.c ****     unsigned char *p, *end;
 690:C:/Users/Yushev/git/wpcqi-optiga-trust-charge/optiga/externals/mbedtls/library\pkparse.c **** 
 691:C:/Users/Yushev/git/wpcqi-optiga-trust-charge/optiga/externals/mbedtls/library\pkparse.c ****     mbedtls_mpi T;
 692:C:/Users/Yushev/git/wpcqi-optiga-trust-charge/optiga/externals/mbedtls/library\pkparse.c ****     mbedtls_mpi_init( &T );
 693:C:/Users/Yushev/git/wpcqi-optiga-trust-charge/optiga/externals/mbedtls/library\pkparse.c **** 
 694:C:/Users/Yushev/git/wpcqi-optiga-trust-charge/optiga/externals/mbedtls/library\pkparse.c ****     p = (unsigned char *) key;
 695:C:/Users/Yushev/git/wpcqi-optiga-trust-charge/optiga/externals/mbedtls/library\pkparse.c ****     end = p + keylen;
 696:C:/Users/Yushev/git/wpcqi-optiga-trust-charge/optiga/externals/mbedtls/library\pkparse.c **** 
 697:C:/Users/Yushev/git/wpcqi-optiga-trust-charge/optiga/externals/mbedtls/library\pkparse.c ****     /*
 698:C:/Users/Yushev/git/wpcqi-optiga-trust-charge/optiga/externals/mbedtls/library\pkparse.c ****      * This function parses the RSAPrivateKey (PKCS#1)
 699:C:/Users/Yushev/git/wpcqi-optiga-trust-charge/optiga/externals/mbedtls/library\pkparse.c ****      *
 700:C:/Users/Yushev/git/wpcqi-optiga-trust-charge/optiga/externals/mbedtls/library\pkparse.c ****      *  RSAPrivateKey ::= SEQUENCE {
 701:C:/Users/Yushev/git/wpcqi-optiga-trust-charge/optiga/externals/mbedtls/library\pkparse.c ****      *      version           Version,
 702:C:/Users/Yushev/git/wpcqi-optiga-trust-charge/optiga/externals/mbedtls/library\pkparse.c ****      *      modulus           INTEGER,  -- n
 703:C:/Users/Yushev/git/wpcqi-optiga-trust-charge/optiga/externals/mbedtls/library\pkparse.c ****      *      publicExponent    INTEGER,  -- e
 704:C:/Users/Yushev/git/wpcqi-optiga-trust-charge/optiga/externals/mbedtls/library\pkparse.c ****      *      privateExponent   INTEGER,  -- d
 705:C:/Users/Yushev/git/wpcqi-optiga-trust-charge/optiga/externals/mbedtls/library\pkparse.c ****      *      prime1            INTEGER,  -- p
 706:C:/Users/Yushev/git/wpcqi-optiga-trust-charge/optiga/externals/mbedtls/library\pkparse.c ****      *      prime2            INTEGER,  -- q
 707:C:/Users/Yushev/git/wpcqi-optiga-trust-charge/optiga/externals/mbedtls/library\pkparse.c ****      *      exponent1         INTEGER,  -- d mod (p-1)
 708:C:/Users/Yushev/git/wpcqi-optiga-trust-charge/optiga/externals/mbedtls/library\pkparse.c ****      *      exponent2         INTEGER,  -- d mod (q-1)
 709:C:/Users/Yushev/git/wpcqi-optiga-trust-charge/optiga/externals/mbedtls/library\pkparse.c ****      *      coefficient       INTEGER,  -- (inverse of q) mod p
 710:C:/Users/Yushev/git/wpcqi-optiga-trust-charge/optiga/externals/mbedtls/library\pkparse.c ****      *      otherPrimeInfos   OtherPrimeInfos OPTIONAL
 711:C:/Users/Yushev/git/wpcqi-optiga-trust-charge/optiga/externals/mbedtls/library\pkparse.c ****      *  }
 712:C:/Users/Yushev/git/wpcqi-optiga-trust-charge/optiga/externals/mbedtls/library\pkparse.c ****      */
 713:C:/Users/Yushev/git/wpcqi-optiga-trust-charge/optiga/externals/mbedtls/library\pkparse.c ****     if( ( ret = mbedtls_asn1_get_tag( &p, end, &len,
 714:C:/Users/Yushev/git/wpcqi-optiga-trust-charge/optiga/externals/mbedtls/library\pkparse.c ****             MBEDTLS_ASN1_CONSTRUCTED | MBEDTLS_ASN1_SEQUENCE ) ) != 0 )
 715:C:/Users/Yushev/git/wpcqi-optiga-trust-charge/optiga/externals/mbedtls/library\pkparse.c ****     {
 716:C:/Users/Yushev/git/wpcqi-optiga-trust-charge/optiga/externals/mbedtls/library\pkparse.c ****         return( MBEDTLS_ERR_PK_KEY_INVALID_FORMAT + ret );
 717:C:/Users/Yushev/git/wpcqi-optiga-trust-charge/optiga/externals/mbedtls/library\pkparse.c ****     }
 718:C:/Users/Yushev/git/wpcqi-optiga-trust-charge/optiga/externals/mbedtls/library\pkparse.c **** 
 719:C:/Users/Yushev/git/wpcqi-optiga-trust-charge/optiga/externals/mbedtls/library\pkparse.c ****     end = p + len;
 720:C:/Users/Yushev/git/wpcqi-optiga-trust-charge/optiga/externals/mbedtls/library\pkparse.c **** 
 721:C:/Users/Yushev/git/wpcqi-optiga-trust-charge/optiga/externals/mbedtls/library\pkparse.c ****     if( ( ret = mbedtls_asn1_get_int( &p, end, &version ) ) != 0 )
 722:C:/Users/Yushev/git/wpcqi-optiga-trust-charge/optiga/externals/mbedtls/library\pkparse.c ****     {
 723:C:/Users/Yushev/git/wpcqi-optiga-trust-charge/optiga/externals/mbedtls/library\pkparse.c ****         return( MBEDTLS_ERR_PK_KEY_INVALID_FORMAT + ret );
 724:C:/Users/Yushev/git/wpcqi-optiga-trust-charge/optiga/externals/mbedtls/library\pkparse.c ****     }
 725:C:/Users/Yushev/git/wpcqi-optiga-trust-charge/optiga/externals/mbedtls/library\pkparse.c **** 
 726:C:/Users/Yushev/git/wpcqi-optiga-trust-charge/optiga/externals/mbedtls/library\pkparse.c ****     if( version != 0 )
 727:C:/Users/Yushev/git/wpcqi-optiga-trust-charge/optiga/externals/mbedtls/library\pkparse.c ****     {
 728:C:/Users/Yushev/git/wpcqi-optiga-trust-charge/optiga/externals/mbedtls/library\pkparse.c ****         return( MBEDTLS_ERR_PK_KEY_INVALID_VERSION );
 729:C:/Users/Yushev/git/wpcqi-optiga-trust-charge/optiga/externals/mbedtls/library\pkparse.c ****     }
 730:C:/Users/Yushev/git/wpcqi-optiga-trust-charge/optiga/externals/mbedtls/library\pkparse.c **** 
 731:C:/Users/Yushev/git/wpcqi-optiga-trust-charge/optiga/externals/mbedtls/library\pkparse.c ****     /* Import N */
 732:C:/Users/Yushev/git/wpcqi-optiga-trust-charge/optiga/externals/mbedtls/library\pkparse.c ****     if( ( ret = mbedtls_asn1_get_tag( &p, end, &len,
 733:C:/Users/Yushev/git/wpcqi-optiga-trust-charge/optiga/externals/mbedtls/library\pkparse.c ****                                       MBEDTLS_ASN1_INTEGER ) ) != 0 ||
 734:C:/Users/Yushev/git/wpcqi-optiga-trust-charge/optiga/externals/mbedtls/library\pkparse.c ****         ( ret = mbedtls_rsa_import_raw( rsa, p, len, NULL, 0, NULL, 0,
 735:C:/Users/Yushev/git/wpcqi-optiga-trust-charge/optiga/externals/mbedtls/library\pkparse.c ****                                         NULL, 0, NULL, 0 ) ) != 0 )
 736:C:/Users/Yushev/git/wpcqi-optiga-trust-charge/optiga/externals/mbedtls/library\pkparse.c ****         goto cleanup;
 737:C:/Users/Yushev/git/wpcqi-optiga-trust-charge/optiga/externals/mbedtls/library\pkparse.c ****     p += len;
 738:C:/Users/Yushev/git/wpcqi-optiga-trust-charge/optiga/externals/mbedtls/library\pkparse.c **** 
 739:C:/Users/Yushev/git/wpcqi-optiga-trust-charge/optiga/externals/mbedtls/library\pkparse.c ****     /* Import E */
 740:C:/Users/Yushev/git/wpcqi-optiga-trust-charge/optiga/externals/mbedtls/library\pkparse.c ****     if( ( ret = mbedtls_asn1_get_tag( &p, end, &len,
 741:C:/Users/Yushev/git/wpcqi-optiga-trust-charge/optiga/externals/mbedtls/library\pkparse.c ****                                       MBEDTLS_ASN1_INTEGER ) ) != 0 ||
 742:C:/Users/Yushev/git/wpcqi-optiga-trust-charge/optiga/externals/mbedtls/library\pkparse.c ****         ( ret = mbedtls_rsa_import_raw( rsa, NULL, 0, NULL, 0, NULL, 0,
 743:C:/Users/Yushev/git/wpcqi-optiga-trust-charge/optiga/externals/mbedtls/library\pkparse.c ****                                         NULL, 0, p, len ) ) != 0 )
 744:C:/Users/Yushev/git/wpcqi-optiga-trust-charge/optiga/externals/mbedtls/library\pkparse.c ****         goto cleanup;
 745:C:/Users/Yushev/git/wpcqi-optiga-trust-charge/optiga/externals/mbedtls/library\pkparse.c ****     p += len;
 746:C:/Users/Yushev/git/wpcqi-optiga-trust-charge/optiga/externals/mbedtls/library\pkparse.c **** 
 747:C:/Users/Yushev/git/wpcqi-optiga-trust-charge/optiga/externals/mbedtls/library\pkparse.c ****     /* Import D */
 748:C:/Users/Yushev/git/wpcqi-optiga-trust-charge/optiga/externals/mbedtls/library\pkparse.c ****     if( ( ret = mbedtls_asn1_get_tag( &p, end, &len,
 749:C:/Users/Yushev/git/wpcqi-optiga-trust-charge/optiga/externals/mbedtls/library\pkparse.c ****                                       MBEDTLS_ASN1_INTEGER ) ) != 0 ||
 750:C:/Users/Yushev/git/wpcqi-optiga-trust-charge/optiga/externals/mbedtls/library\pkparse.c ****         ( ret = mbedtls_rsa_import_raw( rsa, NULL, 0, NULL, 0, NULL, 0,
 751:C:/Users/Yushev/git/wpcqi-optiga-trust-charge/optiga/externals/mbedtls/library\pkparse.c ****                                         p, len, NULL, 0 ) ) != 0 )
 752:C:/Users/Yushev/git/wpcqi-optiga-trust-charge/optiga/externals/mbedtls/library\pkparse.c ****         goto cleanup;
 753:C:/Users/Yushev/git/wpcqi-optiga-trust-charge/optiga/externals/mbedtls/library\pkparse.c ****     p += len;
 754:C:/Users/Yushev/git/wpcqi-optiga-trust-charge/optiga/externals/mbedtls/library\pkparse.c **** 
 755:C:/Users/Yushev/git/wpcqi-optiga-trust-charge/optiga/externals/mbedtls/library\pkparse.c ****     /* Import P */
 756:C:/Users/Yushev/git/wpcqi-optiga-trust-charge/optiga/externals/mbedtls/library\pkparse.c ****     if( ( ret = mbedtls_asn1_get_tag( &p, end, &len,
 757:C:/Users/Yushev/git/wpcqi-optiga-trust-charge/optiga/externals/mbedtls/library\pkparse.c ****                                       MBEDTLS_ASN1_INTEGER ) ) != 0 ||
 758:C:/Users/Yushev/git/wpcqi-optiga-trust-charge/optiga/externals/mbedtls/library\pkparse.c ****         ( ret = mbedtls_rsa_import_raw( rsa, NULL, 0, p, len, NULL, 0,
 759:C:/Users/Yushev/git/wpcqi-optiga-trust-charge/optiga/externals/mbedtls/library\pkparse.c ****                                         NULL, 0, NULL, 0 ) ) != 0 )
 760:C:/Users/Yushev/git/wpcqi-optiga-trust-charge/optiga/externals/mbedtls/library\pkparse.c ****         goto cleanup;
 761:C:/Users/Yushev/git/wpcqi-optiga-trust-charge/optiga/externals/mbedtls/library\pkparse.c ****     p += len;
 762:C:/Users/Yushev/git/wpcqi-optiga-trust-charge/optiga/externals/mbedtls/library\pkparse.c **** 
 763:C:/Users/Yushev/git/wpcqi-optiga-trust-charge/optiga/externals/mbedtls/library\pkparse.c ****     /* Import Q */
 764:C:/Users/Yushev/git/wpcqi-optiga-trust-charge/optiga/externals/mbedtls/library\pkparse.c ****     if( ( ret = mbedtls_asn1_get_tag( &p, end, &len,
 765:C:/Users/Yushev/git/wpcqi-optiga-trust-charge/optiga/externals/mbedtls/library\pkparse.c ****                                       MBEDTLS_ASN1_INTEGER ) ) != 0 ||
 766:C:/Users/Yushev/git/wpcqi-optiga-trust-charge/optiga/externals/mbedtls/library\pkparse.c ****         ( ret = mbedtls_rsa_import_raw( rsa, NULL, 0, NULL, 0, p, len,
 767:C:/Users/Yushev/git/wpcqi-optiga-trust-charge/optiga/externals/mbedtls/library\pkparse.c ****                                         NULL, 0, NULL, 0 ) ) != 0 )
 768:C:/Users/Yushev/git/wpcqi-optiga-trust-charge/optiga/externals/mbedtls/library\pkparse.c ****         goto cleanup;
 769:C:/Users/Yushev/git/wpcqi-optiga-trust-charge/optiga/externals/mbedtls/library\pkparse.c ****     p += len;
 770:C:/Users/Yushev/git/wpcqi-optiga-trust-charge/optiga/externals/mbedtls/library\pkparse.c **** 
 771:C:/Users/Yushev/git/wpcqi-optiga-trust-charge/optiga/externals/mbedtls/library\pkparse.c ****     /* Complete the RSA private key */
 772:C:/Users/Yushev/git/wpcqi-optiga-trust-charge/optiga/externals/mbedtls/library\pkparse.c ****     if( ( ret = mbedtls_rsa_complete( rsa ) ) != 0 )
 773:C:/Users/Yushev/git/wpcqi-optiga-trust-charge/optiga/externals/mbedtls/library\pkparse.c ****         goto cleanup;
 774:C:/Users/Yushev/git/wpcqi-optiga-trust-charge/optiga/externals/mbedtls/library\pkparse.c **** 
 775:C:/Users/Yushev/git/wpcqi-optiga-trust-charge/optiga/externals/mbedtls/library\pkparse.c ****     /* Check optional parameters */
 776:C:/Users/Yushev/git/wpcqi-optiga-trust-charge/optiga/externals/mbedtls/library\pkparse.c ****     if( ( ret = mbedtls_asn1_get_mpi( &p, end, &T ) ) != 0 ||
 777:C:/Users/Yushev/git/wpcqi-optiga-trust-charge/optiga/externals/mbedtls/library\pkparse.c ****         ( ret = mbedtls_asn1_get_mpi( &p, end, &T ) ) != 0 ||
 778:C:/Users/Yushev/git/wpcqi-optiga-trust-charge/optiga/externals/mbedtls/library\pkparse.c ****         ( ret = mbedtls_asn1_get_mpi( &p, end, &T ) ) != 0 )
 779:C:/Users/Yushev/git/wpcqi-optiga-trust-charge/optiga/externals/mbedtls/library\pkparse.c ****         goto cleanup;
 780:C:/Users/Yushev/git/wpcqi-optiga-trust-charge/optiga/externals/mbedtls/library\pkparse.c **** 
 781:C:/Users/Yushev/git/wpcqi-optiga-trust-charge/optiga/externals/mbedtls/library\pkparse.c ****     if( p != end )
 782:C:/Users/Yushev/git/wpcqi-optiga-trust-charge/optiga/externals/mbedtls/library\pkparse.c ****     {
 783:C:/Users/Yushev/git/wpcqi-optiga-trust-charge/optiga/externals/mbedtls/library\pkparse.c ****         ret = MBEDTLS_ERR_PK_KEY_INVALID_FORMAT +
 784:C:/Users/Yushev/git/wpcqi-optiga-trust-charge/optiga/externals/mbedtls/library\pkparse.c ****               MBEDTLS_ERR_ASN1_LENGTH_MISMATCH ;
 785:C:/Users/Yushev/git/wpcqi-optiga-trust-charge/optiga/externals/mbedtls/library\pkparse.c ****     }
 786:C:/Users/Yushev/git/wpcqi-optiga-trust-charge/optiga/externals/mbedtls/library\pkparse.c **** 
 787:C:/Users/Yushev/git/wpcqi-optiga-trust-charge/optiga/externals/mbedtls/library\pkparse.c **** cleanup:
 788:C:/Users/Yushev/git/wpcqi-optiga-trust-charge/optiga/externals/mbedtls/library\pkparse.c **** 
 789:C:/Users/Yushev/git/wpcqi-optiga-trust-charge/optiga/externals/mbedtls/library\pkparse.c ****     mbedtls_mpi_free( &T );
 790:C:/Users/Yushev/git/wpcqi-optiga-trust-charge/optiga/externals/mbedtls/library\pkparse.c **** 
 791:C:/Users/Yushev/git/wpcqi-optiga-trust-charge/optiga/externals/mbedtls/library\pkparse.c ****     if( ret != 0 )
 792:C:/Users/Yushev/git/wpcqi-optiga-trust-charge/optiga/externals/mbedtls/library\pkparse.c ****     {
 793:C:/Users/Yushev/git/wpcqi-optiga-trust-charge/optiga/externals/mbedtls/library\pkparse.c ****         /* Wrap error code if it's coming from a lower level */
 794:C:/Users/Yushev/git/wpcqi-optiga-trust-charge/optiga/externals/mbedtls/library\pkparse.c ****         if( ( ret & 0xff80 ) == 0 )
 795:C:/Users/Yushev/git/wpcqi-optiga-trust-charge/optiga/externals/mbedtls/library\pkparse.c ****             ret = MBEDTLS_ERR_PK_KEY_INVALID_FORMAT + ret;
 796:C:/Users/Yushev/git/wpcqi-optiga-trust-charge/optiga/externals/mbedtls/library\pkparse.c ****         else
 797:C:/Users/Yushev/git/wpcqi-optiga-trust-charge/optiga/externals/mbedtls/library\pkparse.c ****             ret = MBEDTLS_ERR_PK_KEY_INVALID_FORMAT;
 798:C:/Users/Yushev/git/wpcqi-optiga-trust-charge/optiga/externals/mbedtls/library\pkparse.c **** 
 799:C:/Users/Yushev/git/wpcqi-optiga-trust-charge/optiga/externals/mbedtls/library\pkparse.c ****         mbedtls_rsa_free( rsa );
 800:C:/Users/Yushev/git/wpcqi-optiga-trust-charge/optiga/externals/mbedtls/library\pkparse.c ****     }
 801:C:/Users/Yushev/git/wpcqi-optiga-trust-charge/optiga/externals/mbedtls/library\pkparse.c **** 
 802:C:/Users/Yushev/git/wpcqi-optiga-trust-charge/optiga/externals/mbedtls/library\pkparse.c ****     return( ret );
 803:C:/Users/Yushev/git/wpcqi-optiga-trust-charge/optiga/externals/mbedtls/library\pkparse.c **** }
 804:C:/Users/Yushev/git/wpcqi-optiga-trust-charge/optiga/externals/mbedtls/library\pkparse.c **** #endif /* MBEDTLS_RSA_C */
 805:C:/Users/Yushev/git/wpcqi-optiga-trust-charge/optiga/externals/mbedtls/library\pkparse.c **** 
 806:C:/Users/Yushev/git/wpcqi-optiga-trust-charge/optiga/externals/mbedtls/library\pkparse.c **** #if defined(MBEDTLS_ECP_C)
 807:C:/Users/Yushev/git/wpcqi-optiga-trust-charge/optiga/externals/mbedtls/library\pkparse.c **** /*
 808:C:/Users/Yushev/git/wpcqi-optiga-trust-charge/optiga/externals/mbedtls/library\pkparse.c ****  * Parse a SEC1 encoded private EC key
 809:C:/Users/Yushev/git/wpcqi-optiga-trust-charge/optiga/externals/mbedtls/library\pkparse.c ****  */
 810:C:/Users/Yushev/git/wpcqi-optiga-trust-charge/optiga/externals/mbedtls/library\pkparse.c **** static int pk_parse_key_sec1_der( mbedtls_ecp_keypair *eck,
 811:C:/Users/Yushev/git/wpcqi-optiga-trust-charge/optiga/externals/mbedtls/library\pkparse.c ****                                   const unsigned char *key,
 812:C:/Users/Yushev/git/wpcqi-optiga-trust-charge/optiga/externals/mbedtls/library\pkparse.c ****                                   size_t keylen )
 813:C:/Users/Yushev/git/wpcqi-optiga-trust-charge/optiga/externals/mbedtls/library\pkparse.c **** {
 661              	 .loc 2 813 0
 662              	 .cfi_startproc
 663              	 
 664              	 
 665 0000 90B5     	 push {r4,r7,lr}
 666              	.LCFI31:
 667              	 .cfi_def_cfa_offset 12
 668              	 .cfi_offset 4,-12
 669              	 .cfi_offset 7,-8
 670              	 .cfi_offset 14,-4
 671 0002 91B0     	 sub sp,sp,#68
 672              	.LCFI32:
 673              	 .cfi_def_cfa_offset 80
 674 0004 02AF     	 add r7,sp,#8
 675              	.LCFI33:
 676              	 .cfi_def_cfa 7,72
 677 0006 F860     	 str r0,[r7,#12]
 678 0008 B960     	 str r1,[r7,#8]
 679 000a 7A60     	 str r2,[r7,#4]
 814:C:/Users/Yushev/git/wpcqi-optiga-trust-charge/optiga/externals/mbedtls/library\pkparse.c ****     int ret;
 815:C:/Users/Yushev/git/wpcqi-optiga-trust-charge/optiga/externals/mbedtls/library\pkparse.c ****     int version, pubkey_done;
 816:C:/Users/Yushev/git/wpcqi-optiga-trust-charge/optiga/externals/mbedtls/library\pkparse.c ****     size_t len;
 817:C:/Users/Yushev/git/wpcqi-optiga-trust-charge/optiga/externals/mbedtls/library\pkparse.c ****     mbedtls_asn1_buf params;
 818:C:/Users/Yushev/git/wpcqi-optiga-trust-charge/optiga/externals/mbedtls/library\pkparse.c ****     unsigned char *p = (unsigned char *) key;
 680              	 .loc 2 818 0
 681 000c BB68     	 ldr r3,[r7,#8]
 682 000e 3B61     	 str r3,[r7,#16]
 819:C:/Users/Yushev/git/wpcqi-optiga-trust-charge/optiga/externals/mbedtls/library\pkparse.c ****     unsigned char *end = p + keylen;
 683              	 .loc 2 819 0
 684 0010 3A69     	 ldr r2,[r7,#16]
 685 0012 7B68     	 ldr r3,[r7,#4]
 686 0014 1344     	 add r3,r3,r2
 687 0016 FB62     	 str r3,[r7,#44]
 820:C:/Users/Yushev/git/wpcqi-optiga-trust-charge/optiga/externals/mbedtls/library\pkparse.c ****     unsigned char *end2;
 821:C:/Users/Yushev/git/wpcqi-optiga-trust-charge/optiga/externals/mbedtls/library\pkparse.c **** 
 822:C:/Users/Yushev/git/wpcqi-optiga-trust-charge/optiga/externals/mbedtls/library\pkparse.c ****     /*
 823:C:/Users/Yushev/git/wpcqi-optiga-trust-charge/optiga/externals/mbedtls/library\pkparse.c ****      * RFC 5915, or SEC1 Appendix C.4
 824:C:/Users/Yushev/git/wpcqi-optiga-trust-charge/optiga/externals/mbedtls/library\pkparse.c ****      *
 825:C:/Users/Yushev/git/wpcqi-optiga-trust-charge/optiga/externals/mbedtls/library\pkparse.c ****      * ECPrivateKey ::= SEQUENCE {
 826:C:/Users/Yushev/git/wpcqi-optiga-trust-charge/optiga/externals/mbedtls/library\pkparse.c ****      *      version        INTEGER { ecPrivkeyVer1(1) } (ecPrivkeyVer1),
 827:C:/Users/Yushev/git/wpcqi-optiga-trust-charge/optiga/externals/mbedtls/library\pkparse.c ****      *      privateKey     OCTET STRING,
 828:C:/Users/Yushev/git/wpcqi-optiga-trust-charge/optiga/externals/mbedtls/library\pkparse.c ****      *      parameters [0] ECParameters {{ NamedCurve }} OPTIONAL,
 829:C:/Users/Yushev/git/wpcqi-optiga-trust-charge/optiga/externals/mbedtls/library\pkparse.c ****      *      publicKey  [1] BIT STRING OPTIONAL
 830:C:/Users/Yushev/git/wpcqi-optiga-trust-charge/optiga/externals/mbedtls/library\pkparse.c ****      *    }
 831:C:/Users/Yushev/git/wpcqi-optiga-trust-charge/optiga/externals/mbedtls/library\pkparse.c ****      */
 832:C:/Users/Yushev/git/wpcqi-optiga-trust-charge/optiga/externals/mbedtls/library\pkparse.c ****     if( ( ret = mbedtls_asn1_get_tag( &p, end, &len,
 688              	 .loc 2 832 0
 689 0018 07F11002 	 add r2,r7,#16
 690 001c 07F12003 	 add r3,r7,#32
 691 0020 1046     	 mov r0,r2
 692 0022 F96A     	 ldr r1,[r7,#44]
 693 0024 1A46     	 mov r2,r3
 694 0026 3023     	 movs r3,#48
 695 0028 FFF7FEFF 	 bl mbedtls_asn1_get_tag
 696 002c 7863     	 str r0,[r7,#52]
 697 002e 7B6B     	 ldr r3,[r7,#52]
 698 0030 002B     	 cmp r3,#0
 699 0032 03D0     	 beq .L51
 833:C:/Users/Yushev/git/wpcqi-optiga-trust-charge/optiga/externals/mbedtls/library\pkparse.c ****             MBEDTLS_ASN1_CONSTRUCTED | MBEDTLS_ASN1_SEQUENCE ) ) != 0 )
 834:C:/Users/Yushev/git/wpcqi-optiga-trust-charge/optiga/externals/mbedtls/library\pkparse.c ****     {
 835:C:/Users/Yushev/git/wpcqi-optiga-trust-charge/optiga/externals/mbedtls/library\pkparse.c ****         return( MBEDTLS_ERR_PK_KEY_INVALID_FORMAT + ret );
 700              	 .loc 2 835 0
 701 0034 7B6B     	 ldr r3,[r7,#52]
 702 0036 A3F57453 	 sub r3,r3,#15616
 703 003a 01E1     	 b .L67
 704              	.L51:
 836:C:/Users/Yushev/git/wpcqi-optiga-trust-charge/optiga/externals/mbedtls/library\pkparse.c ****     }
 837:C:/Users/Yushev/git/wpcqi-optiga-trust-charge/optiga/externals/mbedtls/library\pkparse.c **** 
 838:C:/Users/Yushev/git/wpcqi-optiga-trust-charge/optiga/externals/mbedtls/library\pkparse.c ****     end = p + len;
 705              	 .loc 2 838 0
 706 003c 3A69     	 ldr r2,[r7,#16]
 707 003e 3B6A     	 ldr r3,[r7,#32]
 708 0040 1344     	 add r3,r3,r2
 709 0042 FB62     	 str r3,[r7,#44]
 839:C:/Users/Yushev/git/wpcqi-optiga-trust-charge/optiga/externals/mbedtls/library\pkparse.c **** 
 840:C:/Users/Yushev/git/wpcqi-optiga-trust-charge/optiga/externals/mbedtls/library\pkparse.c ****     if( ( ret = mbedtls_asn1_get_int( &p, end, &version ) ) != 0 )
 710              	 .loc 2 840 0
 711 0044 07F11002 	 add r2,r7,#16
 712 0048 07F12403 	 add r3,r7,#36
 713 004c 1046     	 mov r0,r2
 714 004e F96A     	 ldr r1,[r7,#44]
 715 0050 1A46     	 mov r2,r3
 716 0052 FFF7FEFF 	 bl mbedtls_asn1_get_int
 717 0056 7863     	 str r0,[r7,#52]
 718 0058 7B6B     	 ldr r3,[r7,#52]
 719 005a 002B     	 cmp r3,#0
 720 005c 03D0     	 beq .L53
 841:C:/Users/Yushev/git/wpcqi-optiga-trust-charge/optiga/externals/mbedtls/library\pkparse.c ****         return( MBEDTLS_ERR_PK_KEY_INVALID_FORMAT + ret );
 721              	 .loc 2 841 0
 722 005e 7B6B     	 ldr r3,[r7,#52]
 723 0060 A3F57453 	 sub r3,r3,#15616
 724 0064 ECE0     	 b .L67
 725              	.L53:
 842:C:/Users/Yushev/git/wpcqi-optiga-trust-charge/optiga/externals/mbedtls/library\pkparse.c **** 
 843:C:/Users/Yushev/git/wpcqi-optiga-trust-charge/optiga/externals/mbedtls/library\pkparse.c ****     if( version != 1 )
 726              	 .loc 2 843 0
 727 0066 7B6A     	 ldr r3,[r7,#36]
 728 0068 012B     	 cmp r3,#1
 729 006a 01D0     	 beq .L54
 844:C:/Users/Yushev/git/wpcqi-optiga-trust-charge/optiga/externals/mbedtls/library\pkparse.c ****         return( MBEDTLS_ERR_PK_KEY_INVALID_VERSION );
 730              	 .loc 2 844 0
 731 006c 764B     	 ldr r3,.L68
 732 006e E7E0     	 b .L67
 733              	.L54:
 845:C:/Users/Yushev/git/wpcqi-optiga-trust-charge/optiga/externals/mbedtls/library\pkparse.c **** 
 846:C:/Users/Yushev/git/wpcqi-optiga-trust-charge/optiga/externals/mbedtls/library\pkparse.c ****     if( ( ret = mbedtls_asn1_get_tag( &p, end, &len, MBEDTLS_ASN1_OCTET_STRING ) ) != 0 )
 734              	 .loc 2 846 0
 735 0070 07F11002 	 add r2,r7,#16
 736 0074 07F12003 	 add r3,r7,#32
 737 0078 1046     	 mov r0,r2
 738 007a F96A     	 ldr r1,[r7,#44]
 739 007c 1A46     	 mov r2,r3
 740 007e 0423     	 movs r3,#4
 741 0080 FFF7FEFF 	 bl mbedtls_asn1_get_tag
 742 0084 7863     	 str r0,[r7,#52]
 743 0086 7B6B     	 ldr r3,[r7,#52]
 744 0088 002B     	 cmp r3,#0
 745 008a 03D0     	 beq .L55
 847:C:/Users/Yushev/git/wpcqi-optiga-trust-charge/optiga/externals/mbedtls/library\pkparse.c ****         return( MBEDTLS_ERR_PK_KEY_INVALID_FORMAT + ret );
 746              	 .loc 2 847 0
 747 008c 7B6B     	 ldr r3,[r7,#52]
 748 008e A3F57453 	 sub r3,r3,#15616
 749 0092 D5E0     	 b .L67
 750              	.L55:
 848:C:/Users/Yushev/git/wpcqi-optiga-trust-charge/optiga/externals/mbedtls/library\pkparse.c **** 
 849:C:/Users/Yushev/git/wpcqi-optiga-trust-charge/optiga/externals/mbedtls/library\pkparse.c ****     if( ( ret = mbedtls_mpi_read_binary( &eck->d, p, len ) ) != 0 )
 751              	 .loc 2 849 0
 752 0094 FB68     	 ldr r3,[r7,#12]
 753 0096 03F17C01 	 add r1,r3,#124
 754 009a 3A69     	 ldr r2,[r7,#16]
 755 009c 3B6A     	 ldr r3,[r7,#32]
 756 009e 0846     	 mov r0,r1
 757 00a0 1146     	 mov r1,r2
 758 00a2 1A46     	 mov r2,r3
 759 00a4 FFF7FEFF 	 bl mbedtls_mpi_read_binary
 760 00a8 7863     	 str r0,[r7,#52]
 761 00aa 7B6B     	 ldr r3,[r7,#52]
 762 00ac 002B     	 cmp r3,#0
 763 00ae 06D0     	 beq .L56
 850:C:/Users/Yushev/git/wpcqi-optiga-trust-charge/optiga/externals/mbedtls/library\pkparse.c ****     {
 851:C:/Users/Yushev/git/wpcqi-optiga-trust-charge/optiga/externals/mbedtls/library\pkparse.c ****         mbedtls_ecp_keypair_free( eck );
 764              	 .loc 2 851 0
 765 00b0 F868     	 ldr r0,[r7,#12]
 766 00b2 FFF7FEFF 	 bl mbedtls_ecp_keypair_free
 852:C:/Users/Yushev/git/wpcqi-optiga-trust-charge/optiga/externals/mbedtls/library\pkparse.c ****         return( MBEDTLS_ERR_PK_KEY_INVALID_FORMAT + ret );
 767              	 .loc 2 852 0
 768 00b6 7B6B     	 ldr r3,[r7,#52]
 769 00b8 A3F57453 	 sub r3,r3,#15616
 770 00bc C0E0     	 b .L67
 771              	.L56:
 853:C:/Users/Yushev/git/wpcqi-optiga-trust-charge/optiga/externals/mbedtls/library\pkparse.c ****     }
 854:C:/Users/Yushev/git/wpcqi-optiga-trust-charge/optiga/externals/mbedtls/library\pkparse.c **** 
 855:C:/Users/Yushev/git/wpcqi-optiga-trust-charge/optiga/externals/mbedtls/library\pkparse.c ****     p += len;
 772              	 .loc 2 855 0
 773 00be 3A69     	 ldr r2,[r7,#16]
 774 00c0 3B6A     	 ldr r3,[r7,#32]
 775 00c2 1344     	 add r3,r3,r2
 776 00c4 3B61     	 str r3,[r7,#16]
 856:C:/Users/Yushev/git/wpcqi-optiga-trust-charge/optiga/externals/mbedtls/library\pkparse.c **** 
 857:C:/Users/Yushev/git/wpcqi-optiga-trust-charge/optiga/externals/mbedtls/library\pkparse.c ****     pubkey_done = 0;
 777              	 .loc 2 857 0
 778 00c6 0023     	 movs r3,#0
 779 00c8 3B63     	 str r3,[r7,#48]
 858:C:/Users/Yushev/git/wpcqi-optiga-trust-charge/optiga/externals/mbedtls/library\pkparse.c ****     if( p != end )
 780              	 .loc 2 858 0
 781 00ca 3A69     	 ldr r2,[r7,#16]
 782 00cc FB6A     	 ldr r3,[r7,#44]
 783 00ce 9A42     	 cmp r2,r3
 784 00d0 38D0     	 beq .L57
 859:C:/Users/Yushev/git/wpcqi-optiga-trust-charge/optiga/externals/mbedtls/library\pkparse.c ****     {
 860:C:/Users/Yushev/git/wpcqi-optiga-trust-charge/optiga/externals/mbedtls/library\pkparse.c ****         /*
 861:C:/Users/Yushev/git/wpcqi-optiga-trust-charge/optiga/externals/mbedtls/library\pkparse.c ****          * Is 'parameters' present?
 862:C:/Users/Yushev/git/wpcqi-optiga-trust-charge/optiga/externals/mbedtls/library\pkparse.c ****          */
 863:C:/Users/Yushev/git/wpcqi-optiga-trust-charge/optiga/externals/mbedtls/library\pkparse.c ****         if( ( ret = mbedtls_asn1_get_tag( &p, end, &len,
 785              	 .loc 2 863 0
 786 00d2 07F11002 	 add r2,r7,#16
 787 00d6 07F12003 	 add r3,r7,#32
 788 00da 1046     	 mov r0,r2
 789 00dc F96A     	 ldr r1,[r7,#44]
 790 00de 1A46     	 mov r2,r3
 791 00e0 A023     	 movs r3,#160
 792 00e2 FFF7FEFF 	 bl mbedtls_asn1_get_tag
 793 00e6 7863     	 str r0,[r7,#52]
 794 00e8 7B6B     	 ldr r3,[r7,#52]
 795 00ea 002B     	 cmp r3,#0
 796 00ec 1FD1     	 bne .L58
 864:C:/Users/Yushev/git/wpcqi-optiga-trust-charge/optiga/externals/mbedtls/library\pkparse.c ****                         MBEDTLS_ASN1_CONTEXT_SPECIFIC | MBEDTLS_ASN1_CONSTRUCTED | 0 ) ) == 0 )
 865:C:/Users/Yushev/git/wpcqi-optiga-trust-charge/optiga/externals/mbedtls/library\pkparse.c ****         {
 866:C:/Users/Yushev/git/wpcqi-optiga-trust-charge/optiga/externals/mbedtls/library\pkparse.c ****             if( ( ret = pk_get_ecparams( &p, p + len, &params) ) != 0 ||
 797              	 .loc 2 866 0
 798 00ee 3A69     	 ldr r2,[r7,#16]
 799 00f0 3B6A     	 ldr r3,[r7,#32]
 800 00f2 1A44     	 add r2,r2,r3
 801 00f4 07F11001 	 add r1,r7,#16
 802 00f8 07F11403 	 add r3,r7,#20
 803 00fc 0846     	 mov r0,r1
 804 00fe 1146     	 mov r1,r2
 805 0100 1A46     	 mov r2,r3
 806 0102 FFF7FEFF 	 bl pk_get_ecparams
 807 0106 7863     	 str r0,[r7,#52]
 808 0108 7B6B     	 ldr r3,[r7,#52]
 809 010a 002B     	 cmp r3,#0
 810 010c 0AD1     	 bne .L59
 867:C:/Users/Yushev/git/wpcqi-optiga-trust-charge/optiga/externals/mbedtls/library\pkparse.c ****                 ( ret = pk_use_ecparams( &params, &eck->grp )  ) != 0 )
 811              	 .loc 2 867 0 discriminator 1
 812 010e FB68     	 ldr r3,[r7,#12]
 866:C:/Users/Yushev/git/wpcqi-optiga-trust-charge/optiga/externals/mbedtls/library\pkparse.c ****                 ( ret = pk_use_ecparams( &params, &eck->grp )  ) != 0 )
 813              	 .loc 2 866 0 discriminator 1
 814 0110 07F11402 	 add r2,r7,#20
 815 0114 1046     	 mov r0,r2
 816 0116 1946     	 mov r1,r3
 817 0118 FFF7FEFF 	 bl pk_use_ecparams
 818 011c 7863     	 str r0,[r7,#52]
 819 011e 7B6B     	 ldr r3,[r7,#52]
 820 0120 002B     	 cmp r3,#0
 821 0122 0FD0     	 beq .L57
 822              	.L59:
 868:C:/Users/Yushev/git/wpcqi-optiga-trust-charge/optiga/externals/mbedtls/library\pkparse.c ****             {
 869:C:/Users/Yushev/git/wpcqi-optiga-trust-charge/optiga/externals/mbedtls/library\pkparse.c ****                 mbedtls_ecp_keypair_free( eck );
 823              	 .loc 2 869 0
 824 0124 F868     	 ldr r0,[r7,#12]
 825 0126 FFF7FEFF 	 bl mbedtls_ecp_keypair_free
 870:C:/Users/Yushev/git/wpcqi-optiga-trust-charge/optiga/externals/mbedtls/library\pkparse.c ****                 return( ret );
 826              	 .loc 2 870 0
 827 012a 7B6B     	 ldr r3,[r7,#52]
 828 012c 88E0     	 b .L67
 829              	.L58:
 871:C:/Users/Yushev/git/wpcqi-optiga-trust-charge/optiga/externals/mbedtls/library\pkparse.c ****             }
 872:C:/Users/Yushev/git/wpcqi-optiga-trust-charge/optiga/externals/mbedtls/library\pkparse.c ****         }
 873:C:/Users/Yushev/git/wpcqi-optiga-trust-charge/optiga/externals/mbedtls/library\pkparse.c ****         else if( ret != MBEDTLS_ERR_ASN1_UNEXPECTED_TAG )
 830              	 .loc 2 873 0
 831 012e 7B6B     	 ldr r3,[r7,#52]
 832 0130 13F1620F 	 cmn r3,#98
 833 0134 06D0     	 beq .L57
 874:C:/Users/Yushev/git/wpcqi-optiga-trust-charge/optiga/externals/mbedtls/library\pkparse.c ****         {
 875:C:/Users/Yushev/git/wpcqi-optiga-trust-charge/optiga/externals/mbedtls/library\pkparse.c ****             mbedtls_ecp_keypair_free( eck );
 834              	 .loc 2 875 0
 835 0136 F868     	 ldr r0,[r7,#12]
 836 0138 FFF7FEFF 	 bl mbedtls_ecp_keypair_free
 876:C:/Users/Yushev/git/wpcqi-optiga-trust-charge/optiga/externals/mbedtls/library\pkparse.c ****             return( MBEDTLS_ERR_PK_KEY_INVALID_FORMAT + ret );
 837              	 .loc 2 876 0
 838 013c 7B6B     	 ldr r3,[r7,#52]
 839 013e A3F57453 	 sub r3,r3,#15616
 840 0142 7DE0     	 b .L67
 841              	.L57:
 877:C:/Users/Yushev/git/wpcqi-optiga-trust-charge/optiga/externals/mbedtls/library\pkparse.c ****         }
 878:C:/Users/Yushev/git/wpcqi-optiga-trust-charge/optiga/externals/mbedtls/library\pkparse.c ****     }
 879:C:/Users/Yushev/git/wpcqi-optiga-trust-charge/optiga/externals/mbedtls/library\pkparse.c **** 
 880:C:/Users/Yushev/git/wpcqi-optiga-trust-charge/optiga/externals/mbedtls/library\pkparse.c ****     if( p != end )
 842              	 .loc 2 880 0
 843 0144 3A69     	 ldr r2,[r7,#16]
 844 0146 FB6A     	 ldr r3,[r7,#44]
 845 0148 9A42     	 cmp r2,r3
 846 014a 49D0     	 beq .L60
 881:C:/Users/Yushev/git/wpcqi-optiga-trust-charge/optiga/externals/mbedtls/library\pkparse.c ****     {
 882:C:/Users/Yushev/git/wpcqi-optiga-trust-charge/optiga/externals/mbedtls/library\pkparse.c ****         /*
 883:C:/Users/Yushev/git/wpcqi-optiga-trust-charge/optiga/externals/mbedtls/library\pkparse.c ****          * Is 'publickey' present? If not, or if we can't read it (eg because it
 884:C:/Users/Yushev/git/wpcqi-optiga-trust-charge/optiga/externals/mbedtls/library\pkparse.c ****          * is compressed), create it from the private key.
 885:C:/Users/Yushev/git/wpcqi-optiga-trust-charge/optiga/externals/mbedtls/library\pkparse.c ****          */
 886:C:/Users/Yushev/git/wpcqi-optiga-trust-charge/optiga/externals/mbedtls/library\pkparse.c ****         if( ( ret = mbedtls_asn1_get_tag( &p, end, &len,
 847              	 .loc 2 886 0
 848 014c 07F11002 	 add r2,r7,#16
 849 0150 07F12003 	 add r3,r7,#32
 850 0154 1046     	 mov r0,r2
 851 0156 F96A     	 ldr r1,[r7,#44]
 852 0158 1A46     	 mov r2,r3
 853 015a A123     	 movs r3,#161
 854 015c FFF7FEFF 	 bl mbedtls_asn1_get_tag
 855 0160 7863     	 str r0,[r7,#52]
 856 0162 7B6B     	 ldr r3,[r7,#52]
 857 0164 002B     	 cmp r3,#0
 858 0166 30D1     	 bne .L61
 887:C:/Users/Yushev/git/wpcqi-optiga-trust-charge/optiga/externals/mbedtls/library\pkparse.c ****                         MBEDTLS_ASN1_CONTEXT_SPECIFIC | MBEDTLS_ASN1_CONSTRUCTED | 1 ) ) == 0 )
 888:C:/Users/Yushev/git/wpcqi-optiga-trust-charge/optiga/externals/mbedtls/library\pkparse.c ****         {
 889:C:/Users/Yushev/git/wpcqi-optiga-trust-charge/optiga/externals/mbedtls/library\pkparse.c ****             end2 = p + len;
 859              	 .loc 2 889 0
 860 0168 3A69     	 ldr r2,[r7,#16]
 861 016a 3B6A     	 ldr r3,[r7,#32]
 862 016c 1344     	 add r3,r3,r2
 863 016e BB62     	 str r3,[r7,#40]
 890:C:/Users/Yushev/git/wpcqi-optiga-trust-charge/optiga/externals/mbedtls/library\pkparse.c **** 
 891:C:/Users/Yushev/git/wpcqi-optiga-trust-charge/optiga/externals/mbedtls/library\pkparse.c ****             if( ( ret = mbedtls_asn1_get_bitstring_null( &p, end2, &len ) ) != 0 )
 864              	 .loc 2 891 0
 865 0170 07F11002 	 add r2,r7,#16
 866 0174 07F12003 	 add r3,r7,#32
 867 0178 1046     	 mov r0,r2
 868 017a B96A     	 ldr r1,[r7,#40]
 869 017c 1A46     	 mov r2,r3
 870 017e FFF7FEFF 	 bl mbedtls_asn1_get_bitstring_null
 871 0182 7863     	 str r0,[r7,#52]
 872 0184 7B6B     	 ldr r3,[r7,#52]
 873 0186 002B     	 cmp r3,#0
 874 0188 03D0     	 beq .L62
 892:C:/Users/Yushev/git/wpcqi-optiga-trust-charge/optiga/externals/mbedtls/library\pkparse.c ****                 return( MBEDTLS_ERR_PK_KEY_INVALID_FORMAT + ret );
 875              	 .loc 2 892 0
 876 018a 7B6B     	 ldr r3,[r7,#52]
 877 018c A3F57453 	 sub r3,r3,#15616
 878 0190 56E0     	 b .L67
 879              	.L62:
 893:C:/Users/Yushev/git/wpcqi-optiga-trust-charge/optiga/externals/mbedtls/library\pkparse.c **** 
 894:C:/Users/Yushev/git/wpcqi-optiga-trust-charge/optiga/externals/mbedtls/library\pkparse.c ****             if( p + len != end2 )
 880              	 .loc 2 894 0
 881 0192 3A69     	 ldr r2,[r7,#16]
 882 0194 3B6A     	 ldr r3,[r7,#32]
 883 0196 1A44     	 add r2,r2,r3
 884 0198 BB6A     	 ldr r3,[r7,#40]
 885 019a 9A42     	 cmp r2,r3
 886 019c 01D0     	 beq .L63
 895:C:/Users/Yushev/git/wpcqi-optiga-trust-charge/optiga/externals/mbedtls/library\pkparse.c ****                 return( MBEDTLS_ERR_PK_KEY_INVALID_FORMAT +
 887              	 .loc 2 895 0
 888 019e 2B4B     	 ldr r3,.L68+4
 889 01a0 4EE0     	 b .L67
 890              	.L63:
 896:C:/Users/Yushev/git/wpcqi-optiga-trust-charge/optiga/externals/mbedtls/library\pkparse.c ****                         MBEDTLS_ERR_ASN1_LENGTH_MISMATCH );
 897:C:/Users/Yushev/git/wpcqi-optiga-trust-charge/optiga/externals/mbedtls/library\pkparse.c **** 
 898:C:/Users/Yushev/git/wpcqi-optiga-trust-charge/optiga/externals/mbedtls/library\pkparse.c ****             if( ( ret = pk_get_ecpubkey( &p, end2, eck ) ) == 0 )
 891              	 .loc 2 898 0
 892 01a2 07F11003 	 add r3,r7,#16
 893 01a6 1846     	 mov r0,r3
 894 01a8 B96A     	 ldr r1,[r7,#40]
 895 01aa FA68     	 ldr r2,[r7,#12]
 896 01ac FFF7FEFF 	 bl pk_get_ecpubkey
 897 01b0 7863     	 str r0,[r7,#52]
 898 01b2 7B6B     	 ldr r3,[r7,#52]
 899 01b4 002B     	 cmp r3,#0
 900 01b6 02D1     	 bne .L64
 899:C:/Users/Yushev/git/wpcqi-optiga-trust-charge/optiga/externals/mbedtls/library\pkparse.c ****                 pubkey_done = 1;
 901              	 .loc 2 899 0
 902 01b8 0123     	 movs r3,#1
 903 01ba 3B63     	 str r3,[r7,#48]
 904 01bc 10E0     	 b .L60
 905              	.L64:
 900:C:/Users/Yushev/git/wpcqi-optiga-trust-charge/optiga/externals/mbedtls/library\pkparse.c ****             else
 901:C:/Users/Yushev/git/wpcqi-optiga-trust-charge/optiga/externals/mbedtls/library\pkparse.c ****             {
 902:C:/Users/Yushev/git/wpcqi-optiga-trust-charge/optiga/externals/mbedtls/library\pkparse.c ****                 /*
 903:C:/Users/Yushev/git/wpcqi-optiga-trust-charge/optiga/externals/mbedtls/library\pkparse.c ****                  * The only acceptable failure mode of pk_get_ecpubkey() above
 904:C:/Users/Yushev/git/wpcqi-optiga-trust-charge/optiga/externals/mbedtls/library\pkparse.c ****                  * is if the point format is not recognized.
 905:C:/Users/Yushev/git/wpcqi-optiga-trust-charge/optiga/externals/mbedtls/library\pkparse.c ****                  */
 906:C:/Users/Yushev/git/wpcqi-optiga-trust-charge/optiga/externals/mbedtls/library\pkparse.c ****                 if( ret != MBEDTLS_ERR_ECP_FEATURE_UNAVAILABLE )
 906              	 .loc 2 906 0
 907 01be 7B6B     	 ldr r3,[r7,#52]
 908 01c0 13F59D4F 	 cmn r3,#20096
 909 01c4 0CD0     	 beq .L60
 907:C:/Users/Yushev/git/wpcqi-optiga-trust-charge/optiga/externals/mbedtls/library\pkparse.c ****                     return( MBEDTLS_ERR_PK_KEY_INVALID_FORMAT );
 910              	 .loc 2 907 0
 911 01c6 224B     	 ldr r3,.L68+8
 912 01c8 3AE0     	 b .L67
 913              	.L61:
 908:C:/Users/Yushev/git/wpcqi-optiga-trust-charge/optiga/externals/mbedtls/library\pkparse.c ****             }
 909:C:/Users/Yushev/git/wpcqi-optiga-trust-charge/optiga/externals/mbedtls/library\pkparse.c ****         }
 910:C:/Users/Yushev/git/wpcqi-optiga-trust-charge/optiga/externals/mbedtls/library\pkparse.c ****         else if( ret != MBEDTLS_ERR_ASN1_UNEXPECTED_TAG )
 914              	 .loc 2 910 0
 915 01ca 7B6B     	 ldr r3,[r7,#52]
 916 01cc 13F1620F 	 cmn r3,#98
 917 01d0 06D0     	 beq .L60
 911:C:/Users/Yushev/git/wpcqi-optiga-trust-charge/optiga/externals/mbedtls/library\pkparse.c ****         {
 912:C:/Users/Yushev/git/wpcqi-optiga-trust-charge/optiga/externals/mbedtls/library\pkparse.c ****             mbedtls_ecp_keypair_free( eck );
 918              	 .loc 2 912 0
 919 01d2 F868     	 ldr r0,[r7,#12]
 920 01d4 FFF7FEFF 	 bl mbedtls_ecp_keypair_free
 913:C:/Users/Yushev/git/wpcqi-optiga-trust-charge/optiga/externals/mbedtls/library\pkparse.c ****             return( MBEDTLS_ERR_PK_KEY_INVALID_FORMAT + ret );
 921              	 .loc 2 913 0
 922 01d8 7B6B     	 ldr r3,[r7,#52]
 923 01da A3F57453 	 sub r3,r3,#15616
 924 01de 2FE0     	 b .L67
 925              	.L60:
 914:C:/Users/Yushev/git/wpcqi-optiga-trust-charge/optiga/externals/mbedtls/library\pkparse.c ****         }
 915:C:/Users/Yushev/git/wpcqi-optiga-trust-charge/optiga/externals/mbedtls/library\pkparse.c ****     }
 916:C:/Users/Yushev/git/wpcqi-optiga-trust-charge/optiga/externals/mbedtls/library\pkparse.c **** 
 917:C:/Users/Yushev/git/wpcqi-optiga-trust-charge/optiga/externals/mbedtls/library\pkparse.c ****     if( ! pubkey_done &&
 926              	 .loc 2 917 0
 927 01e0 3B6B     	 ldr r3,[r7,#48]
 928 01e2 002B     	 cmp r3,#0
 929 01e4 1BD1     	 bne .L65
 918:C:/Users/Yushev/git/wpcqi-optiga-trust-charge/optiga/externals/mbedtls/library\pkparse.c ****         ( ret = mbedtls_ecp_mul( &eck->grp, &eck->Q, &eck->d, &eck->grp.G,
 930              	 .loc 2 918 0 discriminator 1
 931 01e6 F868     	 ldr r0,[r7,#12]
 932 01e8 FB68     	 ldr r3,[r7,#12]
 933 01ea 03F18801 	 add r1,r3,#136
 934 01ee FB68     	 ldr r3,[r7,#12]
 935 01f0 03F17C02 	 add r2,r3,#124
 936 01f4 FB68     	 ldr r3,[r7,#12]
 937 01f6 03F12804 	 add r4,r3,#40
 917:C:/Users/Yushev/git/wpcqi-optiga-trust-charge/optiga/externals/mbedtls/library\pkparse.c ****         ( ret = mbedtls_ecp_mul( &eck->grp, &eck->Q, &eck->d, &eck->grp.G,
 938              	 .loc 2 917 0 discriminator 1
 939 01fa 0023     	 movs r3,#0
 940 01fc 0093     	 str r3,[sp]
 941 01fe 0023     	 movs r3,#0
 942 0200 0193     	 str r3,[sp,#4]
 943 0202 2346     	 mov r3,r4
 944 0204 FFF7FEFF 	 bl mbedtls_ecp_mul
 945 0208 7863     	 str r0,[r7,#52]
 946 020a 7B6B     	 ldr r3,[r7,#52]
 947 020c 002B     	 cmp r3,#0
 948 020e 06D0     	 beq .L65
 919:C:/Users/Yushev/git/wpcqi-optiga-trust-charge/optiga/externals/mbedtls/library\pkparse.c ****                                                       NULL, NULL ) ) != 0 )
 920:C:/Users/Yushev/git/wpcqi-optiga-trust-charge/optiga/externals/mbedtls/library\pkparse.c ****     {
 921:C:/Users/Yushev/git/wpcqi-optiga-trust-charge/optiga/externals/mbedtls/library\pkparse.c ****         mbedtls_ecp_keypair_free( eck );
 949              	 .loc 2 921 0
 950 0210 F868     	 ldr r0,[r7,#12]
 951 0212 FFF7FEFF 	 bl mbedtls_ecp_keypair_free
 922:C:/Users/Yushev/git/wpcqi-optiga-trust-charge/optiga/externals/mbedtls/library\pkparse.c ****         return( MBEDTLS_ERR_PK_KEY_INVALID_FORMAT + ret );
 952              	 .loc 2 922 0
 953 0216 7B6B     	 ldr r3,[r7,#52]
 954 0218 A3F57453 	 sub r3,r3,#15616
 955 021c 10E0     	 b .L67
 956              	.L65:
 923:C:/Users/Yushev/git/wpcqi-optiga-trust-charge/optiga/externals/mbedtls/library\pkparse.c ****     }
 924:C:/Users/Yushev/git/wpcqi-optiga-trust-charge/optiga/externals/mbedtls/library\pkparse.c **** 
 925:C:/Users/Yushev/git/wpcqi-optiga-trust-charge/optiga/externals/mbedtls/library\pkparse.c ****     if( ( ret = mbedtls_ecp_check_privkey( &eck->grp, &eck->d ) ) != 0 )
 957              	 .loc 2 925 0
 958 021e FA68     	 ldr r2,[r7,#12]
 959 0220 FB68     	 ldr r3,[r7,#12]
 960 0222 7C33     	 adds r3,r3,#124
 961 0224 1046     	 mov r0,r2
 962 0226 1946     	 mov r1,r3
 963 0228 FFF7FEFF 	 bl mbedtls_ecp_check_privkey
 964 022c 7863     	 str r0,[r7,#52]
 965 022e 7B6B     	 ldr r3,[r7,#52]
 966 0230 002B     	 cmp r3,#0
 967 0232 04D0     	 beq .L66
 926:C:/Users/Yushev/git/wpcqi-optiga-trust-charge/optiga/externals/mbedtls/library\pkparse.c ****     {
 927:C:/Users/Yushev/git/wpcqi-optiga-trust-charge/optiga/externals/mbedtls/library\pkparse.c ****         mbedtls_ecp_keypair_free( eck );
 968              	 .loc 2 927 0
 969 0234 F868     	 ldr r0,[r7,#12]
 970 0236 FFF7FEFF 	 bl mbedtls_ecp_keypair_free
 928:C:/Users/Yushev/git/wpcqi-optiga-trust-charge/optiga/externals/mbedtls/library\pkparse.c ****         return( ret );
 971              	 .loc 2 928 0
 972 023a 7B6B     	 ldr r3,[r7,#52]
 973 023c 00E0     	 b .L67
 974              	.L66:
 929:C:/Users/Yushev/git/wpcqi-optiga-trust-charge/optiga/externals/mbedtls/library\pkparse.c ****     }
 930:C:/Users/Yushev/git/wpcqi-optiga-trust-charge/optiga/externals/mbedtls/library\pkparse.c **** 
 931:C:/Users/Yushev/git/wpcqi-optiga-trust-charge/optiga/externals/mbedtls/library\pkparse.c ****     return( 0 );
 975              	 .loc 2 931 0
 976 023e 0023     	 movs r3,#0
 977              	.L67:
 932:C:/Users/Yushev/git/wpcqi-optiga-trust-charge/optiga/externals/mbedtls/library\pkparse.c **** }
 978              	 .loc 2 932 0 discriminator 1
 979 0240 1846     	 mov r0,r3
 980 0242 3C37     	 adds r7,r7,#60
 981              	.LCFI34:
 982              	 .cfi_def_cfa_offset 12
 983 0244 BD46     	 mov sp,r7
 984              	.LCFI35:
 985              	 .cfi_def_cfa_register 13
 986              	 
 987 0246 90BD     	 pop {r4,r7,pc}
 988              	.L69:
 989              	 .align 2
 990              	.L68:
 991 0248 80C2FFFF 	 .word -15744
 992 024c 9AC2FFFF 	 .word -15718
 993 0250 00C3FFFF 	 .word -15616
 994              	 .cfi_endproc
 995              	.LFE14:
 997              	 .section .text.pk_parse_key_pkcs8_unencrypted_der,"ax",%progbits
 998              	 .align 2
 999              	 .thumb
 1000              	 .thumb_func
 1002              	pk_parse_key_pkcs8_unencrypted_der:
 1003              	.LFB15:
 933:C:/Users/Yushev/git/wpcqi-optiga-trust-charge/optiga/externals/mbedtls/library\pkparse.c **** #endif /* MBEDTLS_ECP_C */
 934:C:/Users/Yushev/git/wpcqi-optiga-trust-charge/optiga/externals/mbedtls/library\pkparse.c **** 
 935:C:/Users/Yushev/git/wpcqi-optiga-trust-charge/optiga/externals/mbedtls/library\pkparse.c **** /*
 936:C:/Users/Yushev/git/wpcqi-optiga-trust-charge/optiga/externals/mbedtls/library\pkparse.c ****  * Parse an unencrypted PKCS#8 encoded private key
 937:C:/Users/Yushev/git/wpcqi-optiga-trust-charge/optiga/externals/mbedtls/library\pkparse.c ****  *
 938:C:/Users/Yushev/git/wpcqi-optiga-trust-charge/optiga/externals/mbedtls/library\pkparse.c ****  * Notes:
 939:C:/Users/Yushev/git/wpcqi-optiga-trust-charge/optiga/externals/mbedtls/library\pkparse.c ****  *
 940:C:/Users/Yushev/git/wpcqi-optiga-trust-charge/optiga/externals/mbedtls/library\pkparse.c ****  * - This function does not own the key buffer. It is the
 941:C:/Users/Yushev/git/wpcqi-optiga-trust-charge/optiga/externals/mbedtls/library\pkparse.c ****  *   responsibility of the caller to take care of zeroizing
 942:C:/Users/Yushev/git/wpcqi-optiga-trust-charge/optiga/externals/mbedtls/library\pkparse.c ****  *   and freeing it after use.
 943:C:/Users/Yushev/git/wpcqi-optiga-trust-charge/optiga/externals/mbedtls/library\pkparse.c ****  *
 944:C:/Users/Yushev/git/wpcqi-optiga-trust-charge/optiga/externals/mbedtls/library\pkparse.c ****  * - The function is responsible for freeing the provided
 945:C:/Users/Yushev/git/wpcqi-optiga-trust-charge/optiga/externals/mbedtls/library\pkparse.c ****  *   PK context on failure.
 946:C:/Users/Yushev/git/wpcqi-optiga-trust-charge/optiga/externals/mbedtls/library\pkparse.c ****  *
 947:C:/Users/Yushev/git/wpcqi-optiga-trust-charge/optiga/externals/mbedtls/library\pkparse.c ****  */
 948:C:/Users/Yushev/git/wpcqi-optiga-trust-charge/optiga/externals/mbedtls/library\pkparse.c **** static int pk_parse_key_pkcs8_unencrypted_der(
 949:C:/Users/Yushev/git/wpcqi-optiga-trust-charge/optiga/externals/mbedtls/library\pkparse.c ****                                     mbedtls_pk_context *pk,
 950:C:/Users/Yushev/git/wpcqi-optiga-trust-charge/optiga/externals/mbedtls/library\pkparse.c ****                                     const unsigned char* key,
 951:C:/Users/Yushev/git/wpcqi-optiga-trust-charge/optiga/externals/mbedtls/library\pkparse.c ****                                     size_t keylen )
 952:C:/Users/Yushev/git/wpcqi-optiga-trust-charge/optiga/externals/mbedtls/library\pkparse.c **** {
 1004              	 .loc 2 952 0
 1005              	 .cfi_startproc
 1006              	 
 1007              	 
 1008 0000 80B5     	 push {r7,lr}
 1009              	.LCFI36:
 1010              	 .cfi_def_cfa_offset 8
 1011              	 .cfi_offset 7,-8
 1012              	 .cfi_offset 14,-4
 1013 0002 8EB0     	 sub sp,sp,#56
 1014              	.LCFI37:
 1015              	 .cfi_def_cfa_offset 64
 1016 0004 00AF     	 add r7,sp,#0
 1017              	.LCFI38:
 1018              	 .cfi_def_cfa_register 7
 1019 0006 F860     	 str r0,[r7,#12]
 1020 0008 B960     	 str r1,[r7,#8]
 1021 000a 7A60     	 str r2,[r7,#4]
 953:C:/Users/Yushev/git/wpcqi-optiga-trust-charge/optiga/externals/mbedtls/library\pkparse.c ****     int ret, version;
 954:C:/Users/Yushev/git/wpcqi-optiga-trust-charge/optiga/externals/mbedtls/library\pkparse.c ****     size_t len;
 955:C:/Users/Yushev/git/wpcqi-optiga-trust-charge/optiga/externals/mbedtls/library\pkparse.c ****     mbedtls_asn1_buf params;
 956:C:/Users/Yushev/git/wpcqi-optiga-trust-charge/optiga/externals/mbedtls/library\pkparse.c ****     unsigned char *p = (unsigned char *) key;
 1022              	 .loc 2 956 0
 1023 000c BB68     	 ldr r3,[r7,#8]
 1024 000e 7B61     	 str r3,[r7,#20]
 957:C:/Users/Yushev/git/wpcqi-optiga-trust-charge/optiga/externals/mbedtls/library\pkparse.c ****     unsigned char *end = p + keylen;
 1025              	 .loc 2 957 0
 1026 0010 7A69     	 ldr r2,[r7,#20]
 1027 0012 7B68     	 ldr r3,[r7,#4]
 1028 0014 1344     	 add r3,r3,r2
 1029 0016 3B63     	 str r3,[r7,#48]
 958:C:/Users/Yushev/git/wpcqi-optiga-trust-charge/optiga/externals/mbedtls/library\pkparse.c ****     mbedtls_pk_type_t pk_alg = MBEDTLS_PK_NONE;
 1030              	 .loc 2 958 0
 1031 0018 0023     	 movs r3,#0
 1032 001a FB74     	 strb r3,[r7,#19]
 959:C:/Users/Yushev/git/wpcqi-optiga-trust-charge/optiga/externals/mbedtls/library\pkparse.c ****     const mbedtls_pk_info_t *pk_info;
 960:C:/Users/Yushev/git/wpcqi-optiga-trust-charge/optiga/externals/mbedtls/library\pkparse.c **** 
 961:C:/Users/Yushev/git/wpcqi-optiga-trust-charge/optiga/externals/mbedtls/library\pkparse.c ****     /*
 962:C:/Users/Yushev/git/wpcqi-optiga-trust-charge/optiga/externals/mbedtls/library\pkparse.c ****      * This function parses the PrivateKeyInfo object (PKCS#8 v1.2 = RFC 5208)
 963:C:/Users/Yushev/git/wpcqi-optiga-trust-charge/optiga/externals/mbedtls/library\pkparse.c ****      *
 964:C:/Users/Yushev/git/wpcqi-optiga-trust-charge/optiga/externals/mbedtls/library\pkparse.c ****      *    PrivateKeyInfo ::= SEQUENCE {
 965:C:/Users/Yushev/git/wpcqi-optiga-trust-charge/optiga/externals/mbedtls/library\pkparse.c ****      *      version                   Version,
 966:C:/Users/Yushev/git/wpcqi-optiga-trust-charge/optiga/externals/mbedtls/library\pkparse.c ****      *      privateKeyAlgorithm       PrivateKeyAlgorithmIdentifier,
 967:C:/Users/Yushev/git/wpcqi-optiga-trust-charge/optiga/externals/mbedtls/library\pkparse.c ****      *      privateKey                PrivateKey,
 968:C:/Users/Yushev/git/wpcqi-optiga-trust-charge/optiga/externals/mbedtls/library\pkparse.c ****      *      attributes           [0]  IMPLICIT Attributes OPTIONAL }
 969:C:/Users/Yushev/git/wpcqi-optiga-trust-charge/optiga/externals/mbedtls/library\pkparse.c ****      *
 970:C:/Users/Yushev/git/wpcqi-optiga-trust-charge/optiga/externals/mbedtls/library\pkparse.c ****      *    Version ::= INTEGER
 971:C:/Users/Yushev/git/wpcqi-optiga-trust-charge/optiga/externals/mbedtls/library\pkparse.c ****      *    PrivateKeyAlgorithmIdentifier ::= AlgorithmIdentifier
 972:C:/Users/Yushev/git/wpcqi-optiga-trust-charge/optiga/externals/mbedtls/library\pkparse.c ****      *    PrivateKey ::= OCTET STRING
 973:C:/Users/Yushev/git/wpcqi-optiga-trust-charge/optiga/externals/mbedtls/library\pkparse.c ****      *
 974:C:/Users/Yushev/git/wpcqi-optiga-trust-charge/optiga/externals/mbedtls/library\pkparse.c ****      *  The PrivateKey OCTET STRING is a SEC1 ECPrivateKey
 975:C:/Users/Yushev/git/wpcqi-optiga-trust-charge/optiga/externals/mbedtls/library\pkparse.c ****      */
 976:C:/Users/Yushev/git/wpcqi-optiga-trust-charge/optiga/externals/mbedtls/library\pkparse.c **** 
 977:C:/Users/Yushev/git/wpcqi-optiga-trust-charge/optiga/externals/mbedtls/library\pkparse.c ****     if( ( ret = mbedtls_asn1_get_tag( &p, end, &len,
 1033              	 .loc 2 977 0
 1034 001c 07F11402 	 add r2,r7,#20
 1035 0020 07F12403 	 add r3,r7,#36
 1036 0024 1046     	 mov r0,r2
 1037 0026 396B     	 ldr r1,[r7,#48]
 1038 0028 1A46     	 mov r2,r3
 1039 002a 3023     	 movs r3,#48
 1040 002c FFF7FEFF 	 bl mbedtls_asn1_get_tag
 1041 0030 7863     	 str r0,[r7,#52]
 1042 0032 7B6B     	 ldr r3,[r7,#52]
 1043 0034 002B     	 cmp r3,#0
 1044 0036 03D0     	 beq .L71
 978:C:/Users/Yushev/git/wpcqi-optiga-trust-charge/optiga/externals/mbedtls/library\pkparse.c ****             MBEDTLS_ASN1_CONSTRUCTED | MBEDTLS_ASN1_SEQUENCE ) ) != 0 )
 979:C:/Users/Yushev/git/wpcqi-optiga-trust-charge/optiga/externals/mbedtls/library\pkparse.c ****     {
 980:C:/Users/Yushev/git/wpcqi-optiga-trust-charge/optiga/externals/mbedtls/library\pkparse.c ****         return( MBEDTLS_ERR_PK_KEY_INVALID_FORMAT + ret );
 1045              	 .loc 2 980 0
 1046 0038 7B6B     	 ldr r3,[r7,#52]
 1047 003a A3F57453 	 sub r3,r3,#15616
 1048 003e 89E0     	 b .L85
 1049              	.L71:
 981:C:/Users/Yushev/git/wpcqi-optiga-trust-charge/optiga/externals/mbedtls/library\pkparse.c ****     }
 982:C:/Users/Yushev/git/wpcqi-optiga-trust-charge/optiga/externals/mbedtls/library\pkparse.c **** 
 983:C:/Users/Yushev/git/wpcqi-optiga-trust-charge/optiga/externals/mbedtls/library\pkparse.c ****     end = p + len;
 1050              	 .loc 2 983 0
 1051 0040 7A69     	 ldr r2,[r7,#20]
 1052 0042 7B6A     	 ldr r3,[r7,#36]
 1053 0044 1344     	 add r3,r3,r2
 1054 0046 3B63     	 str r3,[r7,#48]
 984:C:/Users/Yushev/git/wpcqi-optiga-trust-charge/optiga/externals/mbedtls/library\pkparse.c **** 
 985:C:/Users/Yushev/git/wpcqi-optiga-trust-charge/optiga/externals/mbedtls/library\pkparse.c ****     if( ( ret = mbedtls_asn1_get_int( &p, end, &version ) ) != 0 )
 1055              	 .loc 2 985 0
 1056 0048 07F11402 	 add r2,r7,#20
 1057 004c 07F12803 	 add r3,r7,#40
 1058 0050 1046     	 mov r0,r2
 1059 0052 396B     	 ldr r1,[r7,#48]
 1060 0054 1A46     	 mov r2,r3
 1061 0056 FFF7FEFF 	 bl mbedtls_asn1_get_int
 1062 005a 7863     	 str r0,[r7,#52]
 1063 005c 7B6B     	 ldr r3,[r7,#52]
 1064 005e 002B     	 cmp r3,#0
 1065 0060 03D0     	 beq .L73
 986:C:/Users/Yushev/git/wpcqi-optiga-trust-charge/optiga/externals/mbedtls/library\pkparse.c ****         return( MBEDTLS_ERR_PK_KEY_INVALID_FORMAT + ret );
 1066              	 .loc 2 986 0
 1067 0062 7B6B     	 ldr r3,[r7,#52]
 1068 0064 A3F57453 	 sub r3,r3,#15616
 1069 0068 74E0     	 b .L85
 1070              	.L73:
 987:C:/Users/Yushev/git/wpcqi-optiga-trust-charge/optiga/externals/mbedtls/library\pkparse.c **** 
 988:C:/Users/Yushev/git/wpcqi-optiga-trust-charge/optiga/externals/mbedtls/library\pkparse.c ****     if( version != 0 )
 1071              	 .loc 2 988 0
 1072 006a BB6A     	 ldr r3,[r7,#40]
 1073 006c 002B     	 cmp r3,#0
 1074 006e 03D0     	 beq .L74
 989:C:/Users/Yushev/git/wpcqi-optiga-trust-charge/optiga/externals/mbedtls/library\pkparse.c ****         return( MBEDTLS_ERR_PK_KEY_INVALID_VERSION + ret );
 1075              	 .loc 2 989 0
 1076 0070 7B6B     	 ldr r3,[r7,#52]
 1077 0072 A3F57653 	 sub r3,r3,#15744
 1078 0076 6DE0     	 b .L85
 1079              	.L74:
 990:C:/Users/Yushev/git/wpcqi-optiga-trust-charge/optiga/externals/mbedtls/library\pkparse.c **** 
 991:C:/Users/Yushev/git/wpcqi-optiga-trust-charge/optiga/externals/mbedtls/library\pkparse.c ****     if( ( ret = pk_get_pk_alg( &p, end, &pk_alg, &params ) ) != 0 )
 1080              	 .loc 2 991 0
 1081 0078 07F11401 	 add r1,r7,#20
 1082 007c 07F11302 	 add r2,r7,#19
 1083 0080 07F11803 	 add r3,r7,#24
 1084 0084 0846     	 mov r0,r1
 1085 0086 396B     	 ldr r1,[r7,#48]
 1086 0088 FFF7FEFF 	 bl pk_get_pk_alg
 1087 008c 7863     	 str r0,[r7,#52]
 1088 008e 7B6B     	 ldr r3,[r7,#52]
 1089 0090 002B     	 cmp r3,#0
 1090 0092 03D0     	 beq .L75
 992:C:/Users/Yushev/git/wpcqi-optiga-trust-charge/optiga/externals/mbedtls/library\pkparse.c ****         return( MBEDTLS_ERR_PK_KEY_INVALID_FORMAT + ret );
 1091              	 .loc 2 992 0
 1092 0094 7B6B     	 ldr r3,[r7,#52]
 1093 0096 A3F57453 	 sub r3,r3,#15616
 1094 009a 5BE0     	 b .L85
 1095              	.L75:
 993:C:/Users/Yushev/git/wpcqi-optiga-trust-charge/optiga/externals/mbedtls/library\pkparse.c **** 
 994:C:/Users/Yushev/git/wpcqi-optiga-trust-charge/optiga/externals/mbedtls/library\pkparse.c ****     if( ( ret = mbedtls_asn1_get_tag( &p, end, &len, MBEDTLS_ASN1_OCTET_STRING ) ) != 0 )
 1096              	 .loc 2 994 0
 1097 009c 07F11402 	 add r2,r7,#20
 1098 00a0 07F12403 	 add r3,r7,#36
 1099 00a4 1046     	 mov r0,r2
 1100 00a6 396B     	 ldr r1,[r7,#48]
 1101 00a8 1A46     	 mov r2,r3
 1102 00aa 0423     	 movs r3,#4
 1103 00ac FFF7FEFF 	 bl mbedtls_asn1_get_tag
 1104 00b0 7863     	 str r0,[r7,#52]
 1105 00b2 7B6B     	 ldr r3,[r7,#52]
 1106 00b4 002B     	 cmp r3,#0
 1107 00b6 03D0     	 beq .L76
 995:C:/Users/Yushev/git/wpcqi-optiga-trust-charge/optiga/externals/mbedtls/library\pkparse.c ****         return( MBEDTLS_ERR_PK_KEY_INVALID_FORMAT + ret );
 1108              	 .loc 2 995 0
 1109 00b8 7B6B     	 ldr r3,[r7,#52]
 1110 00ba A3F57453 	 sub r3,r3,#15616
 1111 00be 49E0     	 b .L85
 1112              	.L76:
 996:C:/Users/Yushev/git/wpcqi-optiga-trust-charge/optiga/externals/mbedtls/library\pkparse.c **** 
 997:C:/Users/Yushev/git/wpcqi-optiga-trust-charge/optiga/externals/mbedtls/library\pkparse.c ****     if( len < 1 )
 1113              	 .loc 2 997 0
 1114 00c0 7B6A     	 ldr r3,[r7,#36]
 1115 00c2 002B     	 cmp r3,#0
 1116 00c4 01D1     	 bne .L77
 998:C:/Users/Yushev/git/wpcqi-optiga-trust-charge/optiga/externals/mbedtls/library\pkparse.c ****         return( MBEDTLS_ERR_PK_KEY_INVALID_FORMAT +
 1117              	 .loc 2 998 0
 1118 00c6 254B     	 ldr r3,.L86
 1119 00c8 44E0     	 b .L85
 1120              	.L77:
 999:C:/Users/Yushev/git/wpcqi-optiga-trust-charge/optiga/externals/mbedtls/library\pkparse.c ****                 MBEDTLS_ERR_ASN1_OUT_OF_DATA );
1000:C:/Users/Yushev/git/wpcqi-optiga-trust-charge/optiga/externals/mbedtls/library\pkparse.c **** 
1001:C:/Users/Yushev/git/wpcqi-optiga-trust-charge/optiga/externals/mbedtls/library\pkparse.c ****     if( ( pk_info = mbedtls_pk_info_from_type( pk_alg ) ) == NULL )
 1121              	 .loc 2 1001 0
 1122 00ca FB7C     	 ldrb r3,[r7,#19]
 1123 00cc 1846     	 mov r0,r3
 1124 00ce FFF7FEFF 	 bl mbedtls_pk_info_from_type
 1125 00d2 F862     	 str r0,[r7,#44]
 1126 00d4 FB6A     	 ldr r3,[r7,#44]
 1127 00d6 002B     	 cmp r3,#0
 1128 00d8 01D1     	 bne .L78
1002:C:/Users/Yushev/git/wpcqi-optiga-trust-charge/optiga/externals/mbedtls/library\pkparse.c ****         return( MBEDTLS_ERR_PK_UNKNOWN_PK_ALG );
 1129              	 .loc 2 1002 0
 1130 00da 214B     	 ldr r3,.L86+4
 1131 00dc 3AE0     	 b .L85
 1132              	.L78:
1003:C:/Users/Yushev/git/wpcqi-optiga-trust-charge/optiga/externals/mbedtls/library\pkparse.c **** 
1004:C:/Users/Yushev/git/wpcqi-optiga-trust-charge/optiga/externals/mbedtls/library\pkparse.c ****     if( ( ret = mbedtls_pk_setup( pk, pk_info ) ) != 0 )
 1133              	 .loc 2 1004 0
 1134 00de F868     	 ldr r0,[r7,#12]
 1135 00e0 F96A     	 ldr r1,[r7,#44]
 1136 00e2 FFF7FEFF 	 bl mbedtls_pk_setup
 1137 00e6 7863     	 str r0,[r7,#52]
 1138 00e8 7B6B     	 ldr r3,[r7,#52]
 1139 00ea 002B     	 cmp r3,#0
 1140 00ec 01D0     	 beq .L79
1005:C:/Users/Yushev/git/wpcqi-optiga-trust-charge/optiga/externals/mbedtls/library\pkparse.c ****         return( ret );
 1141              	 .loc 2 1005 0
 1142 00ee 7B6B     	 ldr r3,[r7,#52]
 1143 00f0 30E0     	 b .L85
 1144              	.L79:
1006:C:/Users/Yushev/git/wpcqi-optiga-trust-charge/optiga/externals/mbedtls/library\pkparse.c **** 
1007:C:/Users/Yushev/git/wpcqi-optiga-trust-charge/optiga/externals/mbedtls/library\pkparse.c **** #if defined(MBEDTLS_RSA_C)
1008:C:/Users/Yushev/git/wpcqi-optiga-trust-charge/optiga/externals/mbedtls/library\pkparse.c ****     if( pk_alg == MBEDTLS_PK_RSA )
1009:C:/Users/Yushev/git/wpcqi-optiga-trust-charge/optiga/externals/mbedtls/library\pkparse.c ****     {
1010:C:/Users/Yushev/git/wpcqi-optiga-trust-charge/optiga/externals/mbedtls/library\pkparse.c ****         if( ( ret = pk_parse_key_pkcs1_der( mbedtls_pk_rsa( *pk ), p, len ) ) != 0 )
1011:C:/Users/Yushev/git/wpcqi-optiga-trust-charge/optiga/externals/mbedtls/library\pkparse.c ****         {
1012:C:/Users/Yushev/git/wpcqi-optiga-trust-charge/optiga/externals/mbedtls/library\pkparse.c ****             mbedtls_pk_free( pk );
1013:C:/Users/Yushev/git/wpcqi-optiga-trust-charge/optiga/externals/mbedtls/library\pkparse.c ****             return( ret );
1014:C:/Users/Yushev/git/wpcqi-optiga-trust-charge/optiga/externals/mbedtls/library\pkparse.c ****         }
1015:C:/Users/Yushev/git/wpcqi-optiga-trust-charge/optiga/externals/mbedtls/library\pkparse.c ****     } else
1016:C:/Users/Yushev/git/wpcqi-optiga-trust-charge/optiga/externals/mbedtls/library\pkparse.c **** #endif /* MBEDTLS_RSA_C */
1017:C:/Users/Yushev/git/wpcqi-optiga-trust-charge/optiga/externals/mbedtls/library\pkparse.c **** #if defined(MBEDTLS_ECP_C)
1018:C:/Users/Yushev/git/wpcqi-optiga-trust-charge/optiga/externals/mbedtls/library\pkparse.c ****     if( pk_alg == MBEDTLS_PK_ECKEY || pk_alg == MBEDTLS_PK_ECKEY_DH )
 1145              	 .loc 2 1018 0
 1146 00f2 FB7C     	 ldrb r3,[r7,#19]
 1147 00f4 022B     	 cmp r3,#2
 1148 00f6 02D0     	 beq .L80
 1149              	 .loc 2 1018 0 is_stmt 0 discriminator 1
 1150 00f8 FB7C     	 ldrb r3,[r7,#19]
 1151 00fa 032B     	 cmp r3,#3
 1152 00fc 29D1     	 bne .L81
 1153              	.L80:
1019:C:/Users/Yushev/git/wpcqi-optiga-trust-charge/optiga/externals/mbedtls/library\pkparse.c ****     {
1020:C:/Users/Yushev/git/wpcqi-optiga-trust-charge/optiga/externals/mbedtls/library\pkparse.c ****         if( ( ret = pk_use_ecparams( &params, &mbedtls_pk_ec( *pk )->grp ) ) != 0 ||
 1154              	 .loc 2 1020 0 is_stmt 1
 1155 00fe FB68     	 ldr r3,[r7,#12]
 1156 0100 93E80300 	 ldmia r3,{r0,r1}
 1157 0104 FFF7FEFF 	 bl mbedtls_pk_ec
 1158 0108 0346     	 mov r3,r0
 1159 010a 1A46     	 mov r2,r3
 1160 010c 07F11803 	 add r3,r7,#24
 1161 0110 1846     	 mov r0,r3
 1162 0112 1146     	 mov r1,r2
 1163 0114 FFF7FEFF 	 bl pk_use_ecparams
 1164 0118 7863     	 str r0,[r7,#52]
 1165 011a 7B6B     	 ldr r3,[r7,#52]
 1166 011c 002B     	 cmp r3,#0
 1167 011e 10D1     	 bne .L82
1021:C:/Users/Yushev/git/wpcqi-optiga-trust-charge/optiga/externals/mbedtls/library\pkparse.c ****             ( ret = pk_parse_key_sec1_der( mbedtls_pk_ec( *pk ), p, len )  ) != 0 )
 1168              	 .loc 2 1021 0 discriminator 1
 1169 0120 FB68     	 ldr r3,[r7,#12]
 1170 0122 93E80300 	 ldmia r3,{r0,r1}
 1171 0126 FFF7FEFF 	 bl mbedtls_pk_ec
 1172 012a 0146     	 mov r1,r0
 1173 012c 7A69     	 ldr r2,[r7,#20]
 1174 012e 7B6A     	 ldr r3,[r7,#36]
1020:C:/Users/Yushev/git/wpcqi-optiga-trust-charge/optiga/externals/mbedtls/library\pkparse.c ****             ( ret = pk_parse_key_sec1_der( mbedtls_pk_ec( *pk ), p, len )  ) != 0 )
 1175              	 .loc 2 1020 0 discriminator 1
 1176 0130 0846     	 mov r0,r1
 1177 0132 1146     	 mov r1,r2
 1178 0134 1A46     	 mov r2,r3
 1179 0136 FFF7FEFF 	 bl pk_parse_key_sec1_der
 1180 013a 7863     	 str r0,[r7,#52]
 1181 013c 7B6B     	 ldr r3,[r7,#52]
 1182 013e 002B     	 cmp r3,#0
 1183 0140 04D0     	 beq .L83
 1184              	.L82:
1022:C:/Users/Yushev/git/wpcqi-optiga-trust-charge/optiga/externals/mbedtls/library\pkparse.c ****         {
1023:C:/Users/Yushev/git/wpcqi-optiga-trust-charge/optiga/externals/mbedtls/library\pkparse.c ****             mbedtls_pk_free( pk );
 1185              	 .loc 2 1023 0
 1186 0142 F868     	 ldr r0,[r7,#12]
 1187 0144 FFF7FEFF 	 bl mbedtls_pk_free
1024:C:/Users/Yushev/git/wpcqi-optiga-trust-charge/optiga/externals/mbedtls/library\pkparse.c ****             return( ret );
 1188              	 .loc 2 1024 0
 1189 0148 7B6B     	 ldr r3,[r7,#52]
 1190 014a 03E0     	 b .L85
 1191              	.L83:
1020:C:/Users/Yushev/git/wpcqi-optiga-trust-charge/optiga/externals/mbedtls/library\pkparse.c ****             ( ret = pk_parse_key_sec1_der( mbedtls_pk_ec( *pk ), p, len )  ) != 0 )
 1192              	 .loc 2 1020 0
 1193 014c 00BF     	 nop
1025:C:/Users/Yushev/git/wpcqi-optiga-trust-charge/optiga/externals/mbedtls/library\pkparse.c ****         }
1026:C:/Users/Yushev/git/wpcqi-optiga-trust-charge/optiga/externals/mbedtls/library\pkparse.c ****     } else
1027:C:/Users/Yushev/git/wpcqi-optiga-trust-charge/optiga/externals/mbedtls/library\pkparse.c **** #endif /* MBEDTLS_ECP_C */
1028:C:/Users/Yushev/git/wpcqi-optiga-trust-charge/optiga/externals/mbedtls/library\pkparse.c ****         return( MBEDTLS_ERR_PK_UNKNOWN_PK_ALG );
1029:C:/Users/Yushev/git/wpcqi-optiga-trust-charge/optiga/externals/mbedtls/library\pkparse.c **** 
1030:C:/Users/Yushev/git/wpcqi-optiga-trust-charge/optiga/externals/mbedtls/library\pkparse.c ****     return( 0 );
 1194              	 .loc 2 1030 0
 1195 014e 0023     	 movs r3,#0
 1196 0150 00E0     	 b .L85
 1197              	.L81:
1028:C:/Users/Yushev/git/wpcqi-optiga-trust-charge/optiga/externals/mbedtls/library\pkparse.c **** 
 1198              	 .loc 2 1028 0
 1199 0152 034B     	 ldr r3,.L86+4
 1200              	.L85:
1031:C:/Users/Yushev/git/wpcqi-optiga-trust-charge/optiga/externals/mbedtls/library\pkparse.c **** }
 1201              	 .loc 2 1031 0 discriminator 1
 1202 0154 1846     	 mov r0,r3
 1203 0156 3837     	 adds r7,r7,#56
 1204              	.LCFI39:
 1205              	 .cfi_def_cfa_offset 8
 1206 0158 BD46     	 mov sp,r7
 1207              	.LCFI40:
 1208              	 .cfi_def_cfa_register 13
 1209              	 
 1210 015a 80BD     	 pop {r7,pc}
 1211              	.L87:
 1212              	 .align 2
 1213              	.L86:
 1214 015c A0C2FFFF 	 .word -15712
 1215 0160 80C3FFFF 	 .word -15488
 1216              	 .cfi_endproc
 1217              	.LFE15:
 1219              	 .section .text.mbedtls_pk_parse_key,"ax",%progbits
 1220              	 .align 2
 1221              	 .global mbedtls_pk_parse_key
 1222              	 .thumb
 1223              	 .thumb_func
 1225              	mbedtls_pk_parse_key:
 1226              	.LFB16:
1032:C:/Users/Yushev/git/wpcqi-optiga-trust-charge/optiga/externals/mbedtls/library\pkparse.c **** 
1033:C:/Users/Yushev/git/wpcqi-optiga-trust-charge/optiga/externals/mbedtls/library\pkparse.c **** /*
1034:C:/Users/Yushev/git/wpcqi-optiga-trust-charge/optiga/externals/mbedtls/library\pkparse.c ****  * Parse an encrypted PKCS#8 encoded private key
1035:C:/Users/Yushev/git/wpcqi-optiga-trust-charge/optiga/externals/mbedtls/library\pkparse.c ****  *
1036:C:/Users/Yushev/git/wpcqi-optiga-trust-charge/optiga/externals/mbedtls/library\pkparse.c ****  * To save space, the decryption happens in-place on the given key buffer.
1037:C:/Users/Yushev/git/wpcqi-optiga-trust-charge/optiga/externals/mbedtls/library\pkparse.c ****  * Also, while this function may modify the keybuffer, it doesn't own it,
1038:C:/Users/Yushev/git/wpcqi-optiga-trust-charge/optiga/externals/mbedtls/library\pkparse.c ****  * and instead it is the responsibility of the caller to zeroize and properly
1039:C:/Users/Yushev/git/wpcqi-optiga-trust-charge/optiga/externals/mbedtls/library\pkparse.c ****  * free it after use.
1040:C:/Users/Yushev/git/wpcqi-optiga-trust-charge/optiga/externals/mbedtls/library\pkparse.c ****  *
1041:C:/Users/Yushev/git/wpcqi-optiga-trust-charge/optiga/externals/mbedtls/library\pkparse.c ****  */
1042:C:/Users/Yushev/git/wpcqi-optiga-trust-charge/optiga/externals/mbedtls/library\pkparse.c **** #if defined(MBEDTLS_PKCS12_C) || defined(MBEDTLS_PKCS5_C)
1043:C:/Users/Yushev/git/wpcqi-optiga-trust-charge/optiga/externals/mbedtls/library\pkparse.c **** static int pk_parse_key_pkcs8_encrypted_der(
1044:C:/Users/Yushev/git/wpcqi-optiga-trust-charge/optiga/externals/mbedtls/library\pkparse.c ****                                     mbedtls_pk_context *pk,
1045:C:/Users/Yushev/git/wpcqi-optiga-trust-charge/optiga/externals/mbedtls/library\pkparse.c ****                                     unsigned char *key, size_t keylen,
1046:C:/Users/Yushev/git/wpcqi-optiga-trust-charge/optiga/externals/mbedtls/library\pkparse.c ****                                     const unsigned char *pwd, size_t pwdlen )
1047:C:/Users/Yushev/git/wpcqi-optiga-trust-charge/optiga/externals/mbedtls/library\pkparse.c **** {
1048:C:/Users/Yushev/git/wpcqi-optiga-trust-charge/optiga/externals/mbedtls/library\pkparse.c ****     int ret, decrypted = 0;
1049:C:/Users/Yushev/git/wpcqi-optiga-trust-charge/optiga/externals/mbedtls/library\pkparse.c ****     size_t len;
1050:C:/Users/Yushev/git/wpcqi-optiga-trust-charge/optiga/externals/mbedtls/library\pkparse.c ****     unsigned char *buf;
1051:C:/Users/Yushev/git/wpcqi-optiga-trust-charge/optiga/externals/mbedtls/library\pkparse.c ****     unsigned char *p, *end;
1052:C:/Users/Yushev/git/wpcqi-optiga-trust-charge/optiga/externals/mbedtls/library\pkparse.c ****     mbedtls_asn1_buf pbe_alg_oid, pbe_params;
1053:C:/Users/Yushev/git/wpcqi-optiga-trust-charge/optiga/externals/mbedtls/library\pkparse.c **** #if defined(MBEDTLS_PKCS12_C)
1054:C:/Users/Yushev/git/wpcqi-optiga-trust-charge/optiga/externals/mbedtls/library\pkparse.c ****     mbedtls_cipher_type_t cipher_alg;
1055:C:/Users/Yushev/git/wpcqi-optiga-trust-charge/optiga/externals/mbedtls/library\pkparse.c ****     mbedtls_md_type_t md_alg;
1056:C:/Users/Yushev/git/wpcqi-optiga-trust-charge/optiga/externals/mbedtls/library\pkparse.c **** #endif
1057:C:/Users/Yushev/git/wpcqi-optiga-trust-charge/optiga/externals/mbedtls/library\pkparse.c **** 
1058:C:/Users/Yushev/git/wpcqi-optiga-trust-charge/optiga/externals/mbedtls/library\pkparse.c ****     p = key;
1059:C:/Users/Yushev/git/wpcqi-optiga-trust-charge/optiga/externals/mbedtls/library\pkparse.c ****     end = p + keylen;
1060:C:/Users/Yushev/git/wpcqi-optiga-trust-charge/optiga/externals/mbedtls/library\pkparse.c **** 
1061:C:/Users/Yushev/git/wpcqi-optiga-trust-charge/optiga/externals/mbedtls/library\pkparse.c ****     if( pwdlen == 0 )
1062:C:/Users/Yushev/git/wpcqi-optiga-trust-charge/optiga/externals/mbedtls/library\pkparse.c ****         return( MBEDTLS_ERR_PK_PASSWORD_REQUIRED );
1063:C:/Users/Yushev/git/wpcqi-optiga-trust-charge/optiga/externals/mbedtls/library\pkparse.c **** 
1064:C:/Users/Yushev/git/wpcqi-optiga-trust-charge/optiga/externals/mbedtls/library\pkparse.c ****     /*
1065:C:/Users/Yushev/git/wpcqi-optiga-trust-charge/optiga/externals/mbedtls/library\pkparse.c ****      * This function parses the EncryptedPrivateKeyInfo object (PKCS#8)
1066:C:/Users/Yushev/git/wpcqi-optiga-trust-charge/optiga/externals/mbedtls/library\pkparse.c ****      *
1067:C:/Users/Yushev/git/wpcqi-optiga-trust-charge/optiga/externals/mbedtls/library\pkparse.c ****      *  EncryptedPrivateKeyInfo ::= SEQUENCE {
1068:C:/Users/Yushev/git/wpcqi-optiga-trust-charge/optiga/externals/mbedtls/library\pkparse.c ****      *    encryptionAlgorithm  EncryptionAlgorithmIdentifier,
1069:C:/Users/Yushev/git/wpcqi-optiga-trust-charge/optiga/externals/mbedtls/library\pkparse.c ****      *    encryptedData        EncryptedData
1070:C:/Users/Yushev/git/wpcqi-optiga-trust-charge/optiga/externals/mbedtls/library\pkparse.c ****      *  }
1071:C:/Users/Yushev/git/wpcqi-optiga-trust-charge/optiga/externals/mbedtls/library\pkparse.c ****      *
1072:C:/Users/Yushev/git/wpcqi-optiga-trust-charge/optiga/externals/mbedtls/library\pkparse.c ****      *  EncryptionAlgorithmIdentifier ::= AlgorithmIdentifier
1073:C:/Users/Yushev/git/wpcqi-optiga-trust-charge/optiga/externals/mbedtls/library\pkparse.c ****      *
1074:C:/Users/Yushev/git/wpcqi-optiga-trust-charge/optiga/externals/mbedtls/library\pkparse.c ****      *  EncryptedData ::= OCTET STRING
1075:C:/Users/Yushev/git/wpcqi-optiga-trust-charge/optiga/externals/mbedtls/library\pkparse.c ****      *
1076:C:/Users/Yushev/git/wpcqi-optiga-trust-charge/optiga/externals/mbedtls/library\pkparse.c ****      *  The EncryptedData OCTET STRING is a PKCS#8 PrivateKeyInfo
1077:C:/Users/Yushev/git/wpcqi-optiga-trust-charge/optiga/externals/mbedtls/library\pkparse.c ****      *
1078:C:/Users/Yushev/git/wpcqi-optiga-trust-charge/optiga/externals/mbedtls/library\pkparse.c ****      */
1079:C:/Users/Yushev/git/wpcqi-optiga-trust-charge/optiga/externals/mbedtls/library\pkparse.c ****     if( ( ret = mbedtls_asn1_get_tag( &p, end, &len,
1080:C:/Users/Yushev/git/wpcqi-optiga-trust-charge/optiga/externals/mbedtls/library\pkparse.c ****             MBEDTLS_ASN1_CONSTRUCTED | MBEDTLS_ASN1_SEQUENCE ) ) != 0 )
1081:C:/Users/Yushev/git/wpcqi-optiga-trust-charge/optiga/externals/mbedtls/library\pkparse.c ****     {
1082:C:/Users/Yushev/git/wpcqi-optiga-trust-charge/optiga/externals/mbedtls/library\pkparse.c ****         return( MBEDTLS_ERR_PK_KEY_INVALID_FORMAT + ret );
1083:C:/Users/Yushev/git/wpcqi-optiga-trust-charge/optiga/externals/mbedtls/library\pkparse.c ****     }
1084:C:/Users/Yushev/git/wpcqi-optiga-trust-charge/optiga/externals/mbedtls/library\pkparse.c **** 
1085:C:/Users/Yushev/git/wpcqi-optiga-trust-charge/optiga/externals/mbedtls/library\pkparse.c ****     end = p + len;
1086:C:/Users/Yushev/git/wpcqi-optiga-trust-charge/optiga/externals/mbedtls/library\pkparse.c **** 
1087:C:/Users/Yushev/git/wpcqi-optiga-trust-charge/optiga/externals/mbedtls/library\pkparse.c ****     if( ( ret = mbedtls_asn1_get_alg( &p, end, &pbe_alg_oid, &pbe_params ) ) != 0 )
1088:C:/Users/Yushev/git/wpcqi-optiga-trust-charge/optiga/externals/mbedtls/library\pkparse.c ****         return( MBEDTLS_ERR_PK_KEY_INVALID_FORMAT + ret );
1089:C:/Users/Yushev/git/wpcqi-optiga-trust-charge/optiga/externals/mbedtls/library\pkparse.c **** 
1090:C:/Users/Yushev/git/wpcqi-optiga-trust-charge/optiga/externals/mbedtls/library\pkparse.c ****     if( ( ret = mbedtls_asn1_get_tag( &p, end, &len, MBEDTLS_ASN1_OCTET_STRING ) ) != 0 )
1091:C:/Users/Yushev/git/wpcqi-optiga-trust-charge/optiga/externals/mbedtls/library\pkparse.c ****         return( MBEDTLS_ERR_PK_KEY_INVALID_FORMAT + ret );
1092:C:/Users/Yushev/git/wpcqi-optiga-trust-charge/optiga/externals/mbedtls/library\pkparse.c **** 
1093:C:/Users/Yushev/git/wpcqi-optiga-trust-charge/optiga/externals/mbedtls/library\pkparse.c ****     buf = p;
1094:C:/Users/Yushev/git/wpcqi-optiga-trust-charge/optiga/externals/mbedtls/library\pkparse.c **** 
1095:C:/Users/Yushev/git/wpcqi-optiga-trust-charge/optiga/externals/mbedtls/library\pkparse.c ****     /*
1096:C:/Users/Yushev/git/wpcqi-optiga-trust-charge/optiga/externals/mbedtls/library\pkparse.c ****      * Decrypt EncryptedData with appropriate PBE
1097:C:/Users/Yushev/git/wpcqi-optiga-trust-charge/optiga/externals/mbedtls/library\pkparse.c ****      */
1098:C:/Users/Yushev/git/wpcqi-optiga-trust-charge/optiga/externals/mbedtls/library\pkparse.c **** #if defined(MBEDTLS_PKCS12_C)
1099:C:/Users/Yushev/git/wpcqi-optiga-trust-charge/optiga/externals/mbedtls/library\pkparse.c ****     if( mbedtls_oid_get_pkcs12_pbe_alg( &pbe_alg_oid, &md_alg, &cipher_alg ) == 0 )
1100:C:/Users/Yushev/git/wpcqi-optiga-trust-charge/optiga/externals/mbedtls/library\pkparse.c ****     {
1101:C:/Users/Yushev/git/wpcqi-optiga-trust-charge/optiga/externals/mbedtls/library\pkparse.c ****         if( ( ret = mbedtls_pkcs12_pbe( &pbe_params, MBEDTLS_PKCS12_PBE_DECRYPT,
1102:C:/Users/Yushev/git/wpcqi-optiga-trust-charge/optiga/externals/mbedtls/library\pkparse.c ****                                 cipher_alg, md_alg,
1103:C:/Users/Yushev/git/wpcqi-optiga-trust-charge/optiga/externals/mbedtls/library\pkparse.c ****                                 pwd, pwdlen, p, len, buf ) ) != 0 )
1104:C:/Users/Yushev/git/wpcqi-optiga-trust-charge/optiga/externals/mbedtls/library\pkparse.c ****         {
1105:C:/Users/Yushev/git/wpcqi-optiga-trust-charge/optiga/externals/mbedtls/library\pkparse.c ****             if( ret == MBEDTLS_ERR_PKCS12_PASSWORD_MISMATCH )
1106:C:/Users/Yushev/git/wpcqi-optiga-trust-charge/optiga/externals/mbedtls/library\pkparse.c ****                 return( MBEDTLS_ERR_PK_PASSWORD_MISMATCH );
1107:C:/Users/Yushev/git/wpcqi-optiga-trust-charge/optiga/externals/mbedtls/library\pkparse.c **** 
1108:C:/Users/Yushev/git/wpcqi-optiga-trust-charge/optiga/externals/mbedtls/library\pkparse.c ****             return( ret );
1109:C:/Users/Yushev/git/wpcqi-optiga-trust-charge/optiga/externals/mbedtls/library\pkparse.c ****         }
1110:C:/Users/Yushev/git/wpcqi-optiga-trust-charge/optiga/externals/mbedtls/library\pkparse.c **** 
1111:C:/Users/Yushev/git/wpcqi-optiga-trust-charge/optiga/externals/mbedtls/library\pkparse.c ****         decrypted = 1;
1112:C:/Users/Yushev/git/wpcqi-optiga-trust-charge/optiga/externals/mbedtls/library\pkparse.c ****     }
1113:C:/Users/Yushev/git/wpcqi-optiga-trust-charge/optiga/externals/mbedtls/library\pkparse.c ****     else if( MBEDTLS_OID_CMP( MBEDTLS_OID_PKCS12_PBE_SHA1_RC4_128, &pbe_alg_oid ) == 0 )
1114:C:/Users/Yushev/git/wpcqi-optiga-trust-charge/optiga/externals/mbedtls/library\pkparse.c ****     {
1115:C:/Users/Yushev/git/wpcqi-optiga-trust-charge/optiga/externals/mbedtls/library\pkparse.c ****         if( ( ret = mbedtls_pkcs12_pbe_sha1_rc4_128( &pbe_params,
1116:C:/Users/Yushev/git/wpcqi-optiga-trust-charge/optiga/externals/mbedtls/library\pkparse.c ****                                              MBEDTLS_PKCS12_PBE_DECRYPT,
1117:C:/Users/Yushev/git/wpcqi-optiga-trust-charge/optiga/externals/mbedtls/library\pkparse.c ****                                              pwd, pwdlen,
1118:C:/Users/Yushev/git/wpcqi-optiga-trust-charge/optiga/externals/mbedtls/library\pkparse.c ****                                              p, len, buf ) ) != 0 )
1119:C:/Users/Yushev/git/wpcqi-optiga-trust-charge/optiga/externals/mbedtls/library\pkparse.c ****         {
1120:C:/Users/Yushev/git/wpcqi-optiga-trust-charge/optiga/externals/mbedtls/library\pkparse.c ****             return( ret );
1121:C:/Users/Yushev/git/wpcqi-optiga-trust-charge/optiga/externals/mbedtls/library\pkparse.c ****         }
1122:C:/Users/Yushev/git/wpcqi-optiga-trust-charge/optiga/externals/mbedtls/library\pkparse.c **** 
1123:C:/Users/Yushev/git/wpcqi-optiga-trust-charge/optiga/externals/mbedtls/library\pkparse.c ****         // Best guess for password mismatch when using RC4. If first tag is
1124:C:/Users/Yushev/git/wpcqi-optiga-trust-charge/optiga/externals/mbedtls/library\pkparse.c ****         // not MBEDTLS_ASN1_CONSTRUCTED | MBEDTLS_ASN1_SEQUENCE
1125:C:/Users/Yushev/git/wpcqi-optiga-trust-charge/optiga/externals/mbedtls/library\pkparse.c ****         //
1126:C:/Users/Yushev/git/wpcqi-optiga-trust-charge/optiga/externals/mbedtls/library\pkparse.c ****         if( *buf != ( MBEDTLS_ASN1_CONSTRUCTED | MBEDTLS_ASN1_SEQUENCE ) )
1127:C:/Users/Yushev/git/wpcqi-optiga-trust-charge/optiga/externals/mbedtls/library\pkparse.c ****             return( MBEDTLS_ERR_PK_PASSWORD_MISMATCH );
1128:C:/Users/Yushev/git/wpcqi-optiga-trust-charge/optiga/externals/mbedtls/library\pkparse.c **** 
1129:C:/Users/Yushev/git/wpcqi-optiga-trust-charge/optiga/externals/mbedtls/library\pkparse.c ****         decrypted = 1;
1130:C:/Users/Yushev/git/wpcqi-optiga-trust-charge/optiga/externals/mbedtls/library\pkparse.c ****     }
1131:C:/Users/Yushev/git/wpcqi-optiga-trust-charge/optiga/externals/mbedtls/library\pkparse.c ****     else
1132:C:/Users/Yushev/git/wpcqi-optiga-trust-charge/optiga/externals/mbedtls/library\pkparse.c **** #endif /* MBEDTLS_PKCS12_C */
1133:C:/Users/Yushev/git/wpcqi-optiga-trust-charge/optiga/externals/mbedtls/library\pkparse.c **** #if defined(MBEDTLS_PKCS5_C)
1134:C:/Users/Yushev/git/wpcqi-optiga-trust-charge/optiga/externals/mbedtls/library\pkparse.c ****     if( MBEDTLS_OID_CMP( MBEDTLS_OID_PKCS5_PBES2, &pbe_alg_oid ) == 0 )
1135:C:/Users/Yushev/git/wpcqi-optiga-trust-charge/optiga/externals/mbedtls/library\pkparse.c ****     {
1136:C:/Users/Yushev/git/wpcqi-optiga-trust-charge/optiga/externals/mbedtls/library\pkparse.c ****         if( ( ret = mbedtls_pkcs5_pbes2( &pbe_params, MBEDTLS_PKCS5_DECRYPT, pwd, pwdlen,
1137:C:/Users/Yushev/git/wpcqi-optiga-trust-charge/optiga/externals/mbedtls/library\pkparse.c ****                                   p, len, buf ) ) != 0 )
1138:C:/Users/Yushev/git/wpcqi-optiga-trust-charge/optiga/externals/mbedtls/library\pkparse.c ****         {
1139:C:/Users/Yushev/git/wpcqi-optiga-trust-charge/optiga/externals/mbedtls/library\pkparse.c ****             if( ret == MBEDTLS_ERR_PKCS5_PASSWORD_MISMATCH )
1140:C:/Users/Yushev/git/wpcqi-optiga-trust-charge/optiga/externals/mbedtls/library\pkparse.c ****                 return( MBEDTLS_ERR_PK_PASSWORD_MISMATCH );
1141:C:/Users/Yushev/git/wpcqi-optiga-trust-charge/optiga/externals/mbedtls/library\pkparse.c **** 
1142:C:/Users/Yushev/git/wpcqi-optiga-trust-charge/optiga/externals/mbedtls/library\pkparse.c ****             return( ret );
1143:C:/Users/Yushev/git/wpcqi-optiga-trust-charge/optiga/externals/mbedtls/library\pkparse.c ****         }
1144:C:/Users/Yushev/git/wpcqi-optiga-trust-charge/optiga/externals/mbedtls/library\pkparse.c **** 
1145:C:/Users/Yushev/git/wpcqi-optiga-trust-charge/optiga/externals/mbedtls/library\pkparse.c ****         decrypted = 1;
1146:C:/Users/Yushev/git/wpcqi-optiga-trust-charge/optiga/externals/mbedtls/library\pkparse.c ****     }
1147:C:/Users/Yushev/git/wpcqi-optiga-trust-charge/optiga/externals/mbedtls/library\pkparse.c ****     else
1148:C:/Users/Yushev/git/wpcqi-optiga-trust-charge/optiga/externals/mbedtls/library\pkparse.c **** #endif /* MBEDTLS_PKCS5_C */
1149:C:/Users/Yushev/git/wpcqi-optiga-trust-charge/optiga/externals/mbedtls/library\pkparse.c ****     {
1150:C:/Users/Yushev/git/wpcqi-optiga-trust-charge/optiga/externals/mbedtls/library\pkparse.c ****         ((void) pwd);
1151:C:/Users/Yushev/git/wpcqi-optiga-trust-charge/optiga/externals/mbedtls/library\pkparse.c ****     }
1152:C:/Users/Yushev/git/wpcqi-optiga-trust-charge/optiga/externals/mbedtls/library\pkparse.c **** 
1153:C:/Users/Yushev/git/wpcqi-optiga-trust-charge/optiga/externals/mbedtls/library\pkparse.c ****     if( decrypted == 0 )
1154:C:/Users/Yushev/git/wpcqi-optiga-trust-charge/optiga/externals/mbedtls/library\pkparse.c ****         return( MBEDTLS_ERR_PK_FEATURE_UNAVAILABLE );
1155:C:/Users/Yushev/git/wpcqi-optiga-trust-charge/optiga/externals/mbedtls/library\pkparse.c **** 
1156:C:/Users/Yushev/git/wpcqi-optiga-trust-charge/optiga/externals/mbedtls/library\pkparse.c ****     return( pk_parse_key_pkcs8_unencrypted_der( pk, buf, len ) );
1157:C:/Users/Yushev/git/wpcqi-optiga-trust-charge/optiga/externals/mbedtls/library\pkparse.c **** }
1158:C:/Users/Yushev/git/wpcqi-optiga-trust-charge/optiga/externals/mbedtls/library\pkparse.c **** #endif /* MBEDTLS_PKCS12_C || MBEDTLS_PKCS5_C */
1159:C:/Users/Yushev/git/wpcqi-optiga-trust-charge/optiga/externals/mbedtls/library\pkparse.c **** 
1160:C:/Users/Yushev/git/wpcqi-optiga-trust-charge/optiga/externals/mbedtls/library\pkparse.c **** /*
1161:C:/Users/Yushev/git/wpcqi-optiga-trust-charge/optiga/externals/mbedtls/library\pkparse.c ****  * Parse a private key
1162:C:/Users/Yushev/git/wpcqi-optiga-trust-charge/optiga/externals/mbedtls/library\pkparse.c ****  */
1163:C:/Users/Yushev/git/wpcqi-optiga-trust-charge/optiga/externals/mbedtls/library\pkparse.c **** int mbedtls_pk_parse_key( mbedtls_pk_context *pk,
1164:C:/Users/Yushev/git/wpcqi-optiga-trust-charge/optiga/externals/mbedtls/library\pkparse.c ****                   const unsigned char *key, size_t keylen,
1165:C:/Users/Yushev/git/wpcqi-optiga-trust-charge/optiga/externals/mbedtls/library\pkparse.c ****                   const unsigned char *pwd, size_t pwdlen )
1166:C:/Users/Yushev/git/wpcqi-optiga-trust-charge/optiga/externals/mbedtls/library\pkparse.c **** {
 1227              	 .loc 2 1166 0
 1228              	 .cfi_startproc
 1229              	 
 1230              	 
 1231 0000 80B5     	 push {r7,lr}
 1232              	.LCFI41:
 1233              	 .cfi_def_cfa_offset 8
 1234              	 .cfi_offset 7,-8
 1235              	 .cfi_offset 14,-4
 1236 0002 86B0     	 sub sp,sp,#24
 1237              	.LCFI42:
 1238              	 .cfi_def_cfa_offset 32
 1239 0004 00AF     	 add r7,sp,#0
 1240              	.LCFI43:
 1241              	 .cfi_def_cfa_register 7
 1242 0006 F860     	 str r0,[r7,#12]
 1243 0008 B960     	 str r1,[r7,#8]
 1244 000a 7A60     	 str r2,[r7,#4]
 1245 000c 3B60     	 str r3,[r7]
1167:C:/Users/Yushev/git/wpcqi-optiga-trust-charge/optiga/externals/mbedtls/library\pkparse.c ****     int ret;
1168:C:/Users/Yushev/git/wpcqi-optiga-trust-charge/optiga/externals/mbedtls/library\pkparse.c ****     const mbedtls_pk_info_t *pk_info;
1169:C:/Users/Yushev/git/wpcqi-optiga-trust-charge/optiga/externals/mbedtls/library\pkparse.c **** #if defined(MBEDTLS_PEM_PARSE_C)
1170:C:/Users/Yushev/git/wpcqi-optiga-trust-charge/optiga/externals/mbedtls/library\pkparse.c ****     size_t len;
1171:C:/Users/Yushev/git/wpcqi-optiga-trust-charge/optiga/externals/mbedtls/library\pkparse.c ****     mbedtls_pem_context pem;
1172:C:/Users/Yushev/git/wpcqi-optiga-trust-charge/optiga/externals/mbedtls/library\pkparse.c **** #endif
1173:C:/Users/Yushev/git/wpcqi-optiga-trust-charge/optiga/externals/mbedtls/library\pkparse.c **** 
1174:C:/Users/Yushev/git/wpcqi-optiga-trust-charge/optiga/externals/mbedtls/library\pkparse.c ****     PK_VALIDATE_RET( pk != NULL );
1175:C:/Users/Yushev/git/wpcqi-optiga-trust-charge/optiga/externals/mbedtls/library\pkparse.c ****     if( keylen == 0 )
 1246              	 .loc 2 1175 0
 1247 000e 7B68     	 ldr r3,[r7,#4]
 1248 0010 002B     	 cmp r3,#0
 1249 0012 01D1     	 bne .L89
1176:C:/Users/Yushev/git/wpcqi-optiga-trust-charge/optiga/externals/mbedtls/library\pkparse.c ****         return( MBEDTLS_ERR_PK_KEY_INVALID_FORMAT );
 1250              	 .loc 2 1176 0
 1251 0014 1A4B     	 ldr r3,.L93
 1252 0016 2FE0     	 b .L90
 1253              	.L89:
1177:C:/Users/Yushev/git/wpcqi-optiga-trust-charge/optiga/externals/mbedtls/library\pkparse.c ****     PK_VALIDATE_RET( key != NULL );
1178:C:/Users/Yushev/git/wpcqi-optiga-trust-charge/optiga/externals/mbedtls/library\pkparse.c **** 
1179:C:/Users/Yushev/git/wpcqi-optiga-trust-charge/optiga/externals/mbedtls/library\pkparse.c **** #if defined(MBEDTLS_PEM_PARSE_C)
1180:C:/Users/Yushev/git/wpcqi-optiga-trust-charge/optiga/externals/mbedtls/library\pkparse.c ****    mbedtls_pem_init( &pem );
1181:C:/Users/Yushev/git/wpcqi-optiga-trust-charge/optiga/externals/mbedtls/library\pkparse.c **** 
1182:C:/Users/Yushev/git/wpcqi-optiga-trust-charge/optiga/externals/mbedtls/library\pkparse.c **** #if defined(MBEDTLS_RSA_C)
1183:C:/Users/Yushev/git/wpcqi-optiga-trust-charge/optiga/externals/mbedtls/library\pkparse.c ****     /* Avoid calling mbedtls_pem_read_buffer() on non-null-terminated string */
1184:C:/Users/Yushev/git/wpcqi-optiga-trust-charge/optiga/externals/mbedtls/library\pkparse.c ****     if( key[keylen - 1] != '\0' )
1185:C:/Users/Yushev/git/wpcqi-optiga-trust-charge/optiga/externals/mbedtls/library\pkparse.c ****         ret = MBEDTLS_ERR_PEM_NO_HEADER_FOOTER_PRESENT;
1186:C:/Users/Yushev/git/wpcqi-optiga-trust-charge/optiga/externals/mbedtls/library\pkparse.c ****     else
1187:C:/Users/Yushev/git/wpcqi-optiga-trust-charge/optiga/externals/mbedtls/library\pkparse.c ****         ret = mbedtls_pem_read_buffer( &pem,
1188:C:/Users/Yushev/git/wpcqi-optiga-trust-charge/optiga/externals/mbedtls/library\pkparse.c ****                                "-----BEGIN RSA PRIVATE KEY-----",
1189:C:/Users/Yushev/git/wpcqi-optiga-trust-charge/optiga/externals/mbedtls/library\pkparse.c ****                                "-----END RSA PRIVATE KEY-----",
1190:C:/Users/Yushev/git/wpcqi-optiga-trust-charge/optiga/externals/mbedtls/library\pkparse.c ****                                key, pwd, pwdlen, &len );
1191:C:/Users/Yushev/git/wpcqi-optiga-trust-charge/optiga/externals/mbedtls/library\pkparse.c **** 
1192:C:/Users/Yushev/git/wpcqi-optiga-trust-charge/optiga/externals/mbedtls/library\pkparse.c ****     if( ret == 0 )
1193:C:/Users/Yushev/git/wpcqi-optiga-trust-charge/optiga/externals/mbedtls/library\pkparse.c ****     {
1194:C:/Users/Yushev/git/wpcqi-optiga-trust-charge/optiga/externals/mbedtls/library\pkparse.c ****         pk_info = mbedtls_pk_info_from_type( MBEDTLS_PK_RSA );
1195:C:/Users/Yushev/git/wpcqi-optiga-trust-charge/optiga/externals/mbedtls/library\pkparse.c ****         if( ( ret = mbedtls_pk_setup( pk, pk_info ) ) != 0 ||
1196:C:/Users/Yushev/git/wpcqi-optiga-trust-charge/optiga/externals/mbedtls/library\pkparse.c ****             ( ret = pk_parse_key_pkcs1_der( mbedtls_pk_rsa( *pk ),
1197:C:/Users/Yushev/git/wpcqi-optiga-trust-charge/optiga/externals/mbedtls/library\pkparse.c ****                                             pem.buf, pem.buflen ) ) != 0 )
1198:C:/Users/Yushev/git/wpcqi-optiga-trust-charge/optiga/externals/mbedtls/library\pkparse.c ****         {
1199:C:/Users/Yushev/git/wpcqi-optiga-trust-charge/optiga/externals/mbedtls/library\pkparse.c ****             mbedtls_pk_free( pk );
1200:C:/Users/Yushev/git/wpcqi-optiga-trust-charge/optiga/externals/mbedtls/library\pkparse.c ****         }
1201:C:/Users/Yushev/git/wpcqi-optiga-trust-charge/optiga/externals/mbedtls/library\pkparse.c **** 
1202:C:/Users/Yushev/git/wpcqi-optiga-trust-charge/optiga/externals/mbedtls/library\pkparse.c ****         mbedtls_pem_free( &pem );
1203:C:/Users/Yushev/git/wpcqi-optiga-trust-charge/optiga/externals/mbedtls/library\pkparse.c ****         return( ret );
1204:C:/Users/Yushev/git/wpcqi-optiga-trust-charge/optiga/externals/mbedtls/library\pkparse.c ****     }
1205:C:/Users/Yushev/git/wpcqi-optiga-trust-charge/optiga/externals/mbedtls/library\pkparse.c ****     else if( ret == MBEDTLS_ERR_PEM_PASSWORD_MISMATCH )
1206:C:/Users/Yushev/git/wpcqi-optiga-trust-charge/optiga/externals/mbedtls/library\pkparse.c ****         return( MBEDTLS_ERR_PK_PASSWORD_MISMATCH );
1207:C:/Users/Yushev/git/wpcqi-optiga-trust-charge/optiga/externals/mbedtls/library\pkparse.c ****     else if( ret == MBEDTLS_ERR_PEM_PASSWORD_REQUIRED )
1208:C:/Users/Yushev/git/wpcqi-optiga-trust-charge/optiga/externals/mbedtls/library\pkparse.c ****         return( MBEDTLS_ERR_PK_PASSWORD_REQUIRED );
1209:C:/Users/Yushev/git/wpcqi-optiga-trust-charge/optiga/externals/mbedtls/library\pkparse.c ****     else if( ret != MBEDTLS_ERR_PEM_NO_HEADER_FOOTER_PRESENT )
1210:C:/Users/Yushev/git/wpcqi-optiga-trust-charge/optiga/externals/mbedtls/library\pkparse.c ****         return( ret );
1211:C:/Users/Yushev/git/wpcqi-optiga-trust-charge/optiga/externals/mbedtls/library\pkparse.c **** #endif /* MBEDTLS_RSA_C */
1212:C:/Users/Yushev/git/wpcqi-optiga-trust-charge/optiga/externals/mbedtls/library\pkparse.c **** 
1213:C:/Users/Yushev/git/wpcqi-optiga-trust-charge/optiga/externals/mbedtls/library\pkparse.c **** #if defined(MBEDTLS_ECP_C)
1214:C:/Users/Yushev/git/wpcqi-optiga-trust-charge/optiga/externals/mbedtls/library\pkparse.c ****     /* Avoid calling mbedtls_pem_read_buffer() on non-null-terminated string */
1215:C:/Users/Yushev/git/wpcqi-optiga-trust-charge/optiga/externals/mbedtls/library\pkparse.c ****     if( key[keylen - 1] != '\0' )
1216:C:/Users/Yushev/git/wpcqi-optiga-trust-charge/optiga/externals/mbedtls/library\pkparse.c ****         ret = MBEDTLS_ERR_PEM_NO_HEADER_FOOTER_PRESENT;
1217:C:/Users/Yushev/git/wpcqi-optiga-trust-charge/optiga/externals/mbedtls/library\pkparse.c ****     else
1218:C:/Users/Yushev/git/wpcqi-optiga-trust-charge/optiga/externals/mbedtls/library\pkparse.c ****         ret = mbedtls_pem_read_buffer( &pem,
1219:C:/Users/Yushev/git/wpcqi-optiga-trust-charge/optiga/externals/mbedtls/library\pkparse.c ****                                "-----BEGIN EC PRIVATE KEY-----",
1220:C:/Users/Yushev/git/wpcqi-optiga-trust-charge/optiga/externals/mbedtls/library\pkparse.c ****                                "-----END EC PRIVATE KEY-----",
1221:C:/Users/Yushev/git/wpcqi-optiga-trust-charge/optiga/externals/mbedtls/library\pkparse.c ****                                key, pwd, pwdlen, &len );
1222:C:/Users/Yushev/git/wpcqi-optiga-trust-charge/optiga/externals/mbedtls/library\pkparse.c ****     if( ret == 0 )
1223:C:/Users/Yushev/git/wpcqi-optiga-trust-charge/optiga/externals/mbedtls/library\pkparse.c ****     {
1224:C:/Users/Yushev/git/wpcqi-optiga-trust-charge/optiga/externals/mbedtls/library\pkparse.c ****         pk_info = mbedtls_pk_info_from_type( MBEDTLS_PK_ECKEY );
1225:C:/Users/Yushev/git/wpcqi-optiga-trust-charge/optiga/externals/mbedtls/library\pkparse.c **** 
1226:C:/Users/Yushev/git/wpcqi-optiga-trust-charge/optiga/externals/mbedtls/library\pkparse.c ****         if( ( ret = mbedtls_pk_setup( pk, pk_info ) ) != 0 ||
1227:C:/Users/Yushev/git/wpcqi-optiga-trust-charge/optiga/externals/mbedtls/library\pkparse.c ****             ( ret = pk_parse_key_sec1_der( mbedtls_pk_ec( *pk ),
1228:C:/Users/Yushev/git/wpcqi-optiga-trust-charge/optiga/externals/mbedtls/library\pkparse.c ****                                            pem.buf, pem.buflen ) ) != 0 )
1229:C:/Users/Yushev/git/wpcqi-optiga-trust-charge/optiga/externals/mbedtls/library\pkparse.c ****         {
1230:C:/Users/Yushev/git/wpcqi-optiga-trust-charge/optiga/externals/mbedtls/library\pkparse.c ****             mbedtls_pk_free( pk );
1231:C:/Users/Yushev/git/wpcqi-optiga-trust-charge/optiga/externals/mbedtls/library\pkparse.c ****         }
1232:C:/Users/Yushev/git/wpcqi-optiga-trust-charge/optiga/externals/mbedtls/library\pkparse.c **** 
1233:C:/Users/Yushev/git/wpcqi-optiga-trust-charge/optiga/externals/mbedtls/library\pkparse.c ****         mbedtls_pem_free( &pem );
1234:C:/Users/Yushev/git/wpcqi-optiga-trust-charge/optiga/externals/mbedtls/library\pkparse.c ****         return( ret );
1235:C:/Users/Yushev/git/wpcqi-optiga-trust-charge/optiga/externals/mbedtls/library\pkparse.c ****     }
1236:C:/Users/Yushev/git/wpcqi-optiga-trust-charge/optiga/externals/mbedtls/library\pkparse.c ****     else if( ret == MBEDTLS_ERR_PEM_PASSWORD_MISMATCH )
1237:C:/Users/Yushev/git/wpcqi-optiga-trust-charge/optiga/externals/mbedtls/library\pkparse.c ****         return( MBEDTLS_ERR_PK_PASSWORD_MISMATCH );
1238:C:/Users/Yushev/git/wpcqi-optiga-trust-charge/optiga/externals/mbedtls/library\pkparse.c ****     else if( ret == MBEDTLS_ERR_PEM_PASSWORD_REQUIRED )
1239:C:/Users/Yushev/git/wpcqi-optiga-trust-charge/optiga/externals/mbedtls/library\pkparse.c ****         return( MBEDTLS_ERR_PK_PASSWORD_REQUIRED );
1240:C:/Users/Yushev/git/wpcqi-optiga-trust-charge/optiga/externals/mbedtls/library\pkparse.c ****     else if( ret != MBEDTLS_ERR_PEM_NO_HEADER_FOOTER_PRESENT )
1241:C:/Users/Yushev/git/wpcqi-optiga-trust-charge/optiga/externals/mbedtls/library\pkparse.c ****         return( ret );
1242:C:/Users/Yushev/git/wpcqi-optiga-trust-charge/optiga/externals/mbedtls/library\pkparse.c **** #endif /* MBEDTLS_ECP_C */
1243:C:/Users/Yushev/git/wpcqi-optiga-trust-charge/optiga/externals/mbedtls/library\pkparse.c **** 
1244:C:/Users/Yushev/git/wpcqi-optiga-trust-charge/optiga/externals/mbedtls/library\pkparse.c ****     /* Avoid calling mbedtls_pem_read_buffer() on non-null-terminated string */
1245:C:/Users/Yushev/git/wpcqi-optiga-trust-charge/optiga/externals/mbedtls/library\pkparse.c ****     if( key[keylen - 1] != '\0' )
1246:C:/Users/Yushev/git/wpcqi-optiga-trust-charge/optiga/externals/mbedtls/library\pkparse.c ****         ret = MBEDTLS_ERR_PEM_NO_HEADER_FOOTER_PRESENT;
1247:C:/Users/Yushev/git/wpcqi-optiga-trust-charge/optiga/externals/mbedtls/library\pkparse.c ****     else
1248:C:/Users/Yushev/git/wpcqi-optiga-trust-charge/optiga/externals/mbedtls/library\pkparse.c ****         ret = mbedtls_pem_read_buffer( &pem,
1249:C:/Users/Yushev/git/wpcqi-optiga-trust-charge/optiga/externals/mbedtls/library\pkparse.c ****                                "-----BEGIN PRIVATE KEY-----",
1250:C:/Users/Yushev/git/wpcqi-optiga-trust-charge/optiga/externals/mbedtls/library\pkparse.c ****                                "-----END PRIVATE KEY-----",
1251:C:/Users/Yushev/git/wpcqi-optiga-trust-charge/optiga/externals/mbedtls/library\pkparse.c ****                                key, NULL, 0, &len );
1252:C:/Users/Yushev/git/wpcqi-optiga-trust-charge/optiga/externals/mbedtls/library\pkparse.c ****     if( ret == 0 )
1253:C:/Users/Yushev/git/wpcqi-optiga-trust-charge/optiga/externals/mbedtls/library\pkparse.c ****     {
1254:C:/Users/Yushev/git/wpcqi-optiga-trust-charge/optiga/externals/mbedtls/library\pkparse.c ****         if( ( ret = pk_parse_key_pkcs8_unencrypted_der( pk,
1255:C:/Users/Yushev/git/wpcqi-optiga-trust-charge/optiga/externals/mbedtls/library\pkparse.c ****                                                 pem.buf, pem.buflen ) ) != 0 )
1256:C:/Users/Yushev/git/wpcqi-optiga-trust-charge/optiga/externals/mbedtls/library\pkparse.c ****         {
1257:C:/Users/Yushev/git/wpcqi-optiga-trust-charge/optiga/externals/mbedtls/library\pkparse.c ****             mbedtls_pk_free( pk );
1258:C:/Users/Yushev/git/wpcqi-optiga-trust-charge/optiga/externals/mbedtls/library\pkparse.c ****         }
1259:C:/Users/Yushev/git/wpcqi-optiga-trust-charge/optiga/externals/mbedtls/library\pkparse.c **** 
1260:C:/Users/Yushev/git/wpcqi-optiga-trust-charge/optiga/externals/mbedtls/library\pkparse.c ****         mbedtls_pem_free( &pem );
1261:C:/Users/Yushev/git/wpcqi-optiga-trust-charge/optiga/externals/mbedtls/library\pkparse.c ****         return( ret );
1262:C:/Users/Yushev/git/wpcqi-optiga-trust-charge/optiga/externals/mbedtls/library\pkparse.c ****     }
1263:C:/Users/Yushev/git/wpcqi-optiga-trust-charge/optiga/externals/mbedtls/library\pkparse.c ****     else if( ret != MBEDTLS_ERR_PEM_NO_HEADER_FOOTER_PRESENT )
1264:C:/Users/Yushev/git/wpcqi-optiga-trust-charge/optiga/externals/mbedtls/library\pkparse.c ****         return( ret );
1265:C:/Users/Yushev/git/wpcqi-optiga-trust-charge/optiga/externals/mbedtls/library\pkparse.c **** 
1266:C:/Users/Yushev/git/wpcqi-optiga-trust-charge/optiga/externals/mbedtls/library\pkparse.c **** #if defined(MBEDTLS_PKCS12_C) || defined(MBEDTLS_PKCS5_C)
1267:C:/Users/Yushev/git/wpcqi-optiga-trust-charge/optiga/externals/mbedtls/library\pkparse.c ****     /* Avoid calling mbedtls_pem_read_buffer() on non-null-terminated string */
1268:C:/Users/Yushev/git/wpcqi-optiga-trust-charge/optiga/externals/mbedtls/library\pkparse.c ****     if( key[keylen - 1] != '\0' )
1269:C:/Users/Yushev/git/wpcqi-optiga-trust-charge/optiga/externals/mbedtls/library\pkparse.c ****         ret = MBEDTLS_ERR_PEM_NO_HEADER_FOOTER_PRESENT;
1270:C:/Users/Yushev/git/wpcqi-optiga-trust-charge/optiga/externals/mbedtls/library\pkparse.c ****     else
1271:C:/Users/Yushev/git/wpcqi-optiga-trust-charge/optiga/externals/mbedtls/library\pkparse.c ****         ret = mbedtls_pem_read_buffer( &pem,
1272:C:/Users/Yushev/git/wpcqi-optiga-trust-charge/optiga/externals/mbedtls/library\pkparse.c ****                                "-----BEGIN ENCRYPTED PRIVATE KEY-----",
1273:C:/Users/Yushev/git/wpcqi-optiga-trust-charge/optiga/externals/mbedtls/library\pkparse.c ****                                "-----END ENCRYPTED PRIVATE KEY-----",
1274:C:/Users/Yushev/git/wpcqi-optiga-trust-charge/optiga/externals/mbedtls/library\pkparse.c ****                                key, NULL, 0, &len );
1275:C:/Users/Yushev/git/wpcqi-optiga-trust-charge/optiga/externals/mbedtls/library\pkparse.c ****     if( ret == 0 )
1276:C:/Users/Yushev/git/wpcqi-optiga-trust-charge/optiga/externals/mbedtls/library\pkparse.c ****     {
1277:C:/Users/Yushev/git/wpcqi-optiga-trust-charge/optiga/externals/mbedtls/library\pkparse.c ****         if( ( ret = pk_parse_key_pkcs8_encrypted_der( pk,
1278:C:/Users/Yushev/git/wpcqi-optiga-trust-charge/optiga/externals/mbedtls/library\pkparse.c ****                                                       pem.buf, pem.buflen,
1279:C:/Users/Yushev/git/wpcqi-optiga-trust-charge/optiga/externals/mbedtls/library\pkparse.c ****                                                       pwd, pwdlen ) ) != 0 )
1280:C:/Users/Yushev/git/wpcqi-optiga-trust-charge/optiga/externals/mbedtls/library\pkparse.c ****         {
1281:C:/Users/Yushev/git/wpcqi-optiga-trust-charge/optiga/externals/mbedtls/library\pkparse.c ****             mbedtls_pk_free( pk );
1282:C:/Users/Yushev/git/wpcqi-optiga-trust-charge/optiga/externals/mbedtls/library\pkparse.c ****         }
1283:C:/Users/Yushev/git/wpcqi-optiga-trust-charge/optiga/externals/mbedtls/library\pkparse.c **** 
1284:C:/Users/Yushev/git/wpcqi-optiga-trust-charge/optiga/externals/mbedtls/library\pkparse.c ****         mbedtls_pem_free( &pem );
1285:C:/Users/Yushev/git/wpcqi-optiga-trust-charge/optiga/externals/mbedtls/library\pkparse.c ****         return( ret );
1286:C:/Users/Yushev/git/wpcqi-optiga-trust-charge/optiga/externals/mbedtls/library\pkparse.c ****     }
1287:C:/Users/Yushev/git/wpcqi-optiga-trust-charge/optiga/externals/mbedtls/library\pkparse.c ****     else if( ret != MBEDTLS_ERR_PEM_NO_HEADER_FOOTER_PRESENT )
1288:C:/Users/Yushev/git/wpcqi-optiga-trust-charge/optiga/externals/mbedtls/library\pkparse.c ****         return( ret );
1289:C:/Users/Yushev/git/wpcqi-optiga-trust-charge/optiga/externals/mbedtls/library\pkparse.c **** #endif /* MBEDTLS_PKCS12_C || MBEDTLS_PKCS5_C */
1290:C:/Users/Yushev/git/wpcqi-optiga-trust-charge/optiga/externals/mbedtls/library\pkparse.c **** #else
1291:C:/Users/Yushev/git/wpcqi-optiga-trust-charge/optiga/externals/mbedtls/library\pkparse.c ****     ((void) pwd);
1292:C:/Users/Yushev/git/wpcqi-optiga-trust-charge/optiga/externals/mbedtls/library\pkparse.c ****     ((void) pwdlen);
1293:C:/Users/Yushev/git/wpcqi-optiga-trust-charge/optiga/externals/mbedtls/library\pkparse.c **** #endif /* MBEDTLS_PEM_PARSE_C */
1294:C:/Users/Yushev/git/wpcqi-optiga-trust-charge/optiga/externals/mbedtls/library\pkparse.c **** 
1295:C:/Users/Yushev/git/wpcqi-optiga-trust-charge/optiga/externals/mbedtls/library\pkparse.c ****     /*
1296:C:/Users/Yushev/git/wpcqi-optiga-trust-charge/optiga/externals/mbedtls/library\pkparse.c ****      * At this point we only know it's not a PEM formatted key. Could be any
1297:C:/Users/Yushev/git/wpcqi-optiga-trust-charge/optiga/externals/mbedtls/library\pkparse.c ****      * of the known DER encoded private key formats
1298:C:/Users/Yushev/git/wpcqi-optiga-trust-charge/optiga/externals/mbedtls/library\pkparse.c ****      *
1299:C:/Users/Yushev/git/wpcqi-optiga-trust-charge/optiga/externals/mbedtls/library\pkparse.c ****      * We try the different DER format parsers to see if one passes without
1300:C:/Users/Yushev/git/wpcqi-optiga-trust-charge/optiga/externals/mbedtls/library\pkparse.c ****      * error
1301:C:/Users/Yushev/git/wpcqi-optiga-trust-charge/optiga/externals/mbedtls/library\pkparse.c ****      */
1302:C:/Users/Yushev/git/wpcqi-optiga-trust-charge/optiga/externals/mbedtls/library\pkparse.c **** #if defined(MBEDTLS_PKCS12_C) || defined(MBEDTLS_PKCS5_C)
1303:C:/Users/Yushev/git/wpcqi-optiga-trust-charge/optiga/externals/mbedtls/library\pkparse.c ****     {
1304:C:/Users/Yushev/git/wpcqi-optiga-trust-charge/optiga/externals/mbedtls/library\pkparse.c ****         unsigned char *key_copy;
1305:C:/Users/Yushev/git/wpcqi-optiga-trust-charge/optiga/externals/mbedtls/library\pkparse.c **** 
1306:C:/Users/Yushev/git/wpcqi-optiga-trust-charge/optiga/externals/mbedtls/library\pkparse.c ****         if( ( key_copy = mbedtls_calloc( 1, keylen ) ) == NULL )
1307:C:/Users/Yushev/git/wpcqi-optiga-trust-charge/optiga/externals/mbedtls/library\pkparse.c ****             return( MBEDTLS_ERR_PK_ALLOC_FAILED );
1308:C:/Users/Yushev/git/wpcqi-optiga-trust-charge/optiga/externals/mbedtls/library\pkparse.c **** 
1309:C:/Users/Yushev/git/wpcqi-optiga-trust-charge/optiga/externals/mbedtls/library\pkparse.c ****         memcpy( key_copy, key, keylen );
1310:C:/Users/Yushev/git/wpcqi-optiga-trust-charge/optiga/externals/mbedtls/library\pkparse.c **** 
1311:C:/Users/Yushev/git/wpcqi-optiga-trust-charge/optiga/externals/mbedtls/library\pkparse.c ****         ret = pk_parse_key_pkcs8_encrypted_der( pk, key_copy, keylen,
1312:C:/Users/Yushev/git/wpcqi-optiga-trust-charge/optiga/externals/mbedtls/library\pkparse.c ****                                                 pwd, pwdlen );
1313:C:/Users/Yushev/git/wpcqi-optiga-trust-charge/optiga/externals/mbedtls/library\pkparse.c **** 
1314:C:/Users/Yushev/git/wpcqi-optiga-trust-charge/optiga/externals/mbedtls/library\pkparse.c ****         mbedtls_platform_zeroize( key_copy, keylen );
1315:C:/Users/Yushev/git/wpcqi-optiga-trust-charge/optiga/externals/mbedtls/library\pkparse.c ****         mbedtls_free( key_copy );
1316:C:/Users/Yushev/git/wpcqi-optiga-trust-charge/optiga/externals/mbedtls/library\pkparse.c ****     }
1317:C:/Users/Yushev/git/wpcqi-optiga-trust-charge/optiga/externals/mbedtls/library\pkparse.c **** 
1318:C:/Users/Yushev/git/wpcqi-optiga-trust-charge/optiga/externals/mbedtls/library\pkparse.c ****     if( ret == 0 )
1319:C:/Users/Yushev/git/wpcqi-optiga-trust-charge/optiga/externals/mbedtls/library\pkparse.c ****         return( 0 );
1320:C:/Users/Yushev/git/wpcqi-optiga-trust-charge/optiga/externals/mbedtls/library\pkparse.c **** 
1321:C:/Users/Yushev/git/wpcqi-optiga-trust-charge/optiga/externals/mbedtls/library\pkparse.c ****     mbedtls_pk_free( pk );
1322:C:/Users/Yushev/git/wpcqi-optiga-trust-charge/optiga/externals/mbedtls/library\pkparse.c ****     mbedtls_pk_init( pk );
1323:C:/Users/Yushev/git/wpcqi-optiga-trust-charge/optiga/externals/mbedtls/library\pkparse.c **** 
1324:C:/Users/Yushev/git/wpcqi-optiga-trust-charge/optiga/externals/mbedtls/library\pkparse.c ****     if( ret == MBEDTLS_ERR_PK_PASSWORD_MISMATCH )
1325:C:/Users/Yushev/git/wpcqi-optiga-trust-charge/optiga/externals/mbedtls/library\pkparse.c ****     {
1326:C:/Users/Yushev/git/wpcqi-optiga-trust-charge/optiga/externals/mbedtls/library\pkparse.c ****         return( ret );
1327:C:/Users/Yushev/git/wpcqi-optiga-trust-charge/optiga/externals/mbedtls/library\pkparse.c ****     }
1328:C:/Users/Yushev/git/wpcqi-optiga-trust-charge/optiga/externals/mbedtls/library\pkparse.c **** #endif /* MBEDTLS_PKCS12_C || MBEDTLS_PKCS5_C */
1329:C:/Users/Yushev/git/wpcqi-optiga-trust-charge/optiga/externals/mbedtls/library\pkparse.c **** 
1330:C:/Users/Yushev/git/wpcqi-optiga-trust-charge/optiga/externals/mbedtls/library\pkparse.c ****     if( ( ret = pk_parse_key_pkcs8_unencrypted_der( pk, key, keylen ) ) == 0 )
 1254              	 .loc 2 1330 0
 1255 0018 F868     	 ldr r0,[r7,#12]
 1256 001a B968     	 ldr r1,[r7,#8]
 1257 001c 7A68     	 ldr r2,[r7,#4]
 1258 001e FFF7FEFF 	 bl pk_parse_key_pkcs8_unencrypted_der
 1259 0022 7861     	 str r0,[r7,#20]
 1260 0024 7B69     	 ldr r3,[r7,#20]
 1261 0026 002B     	 cmp r3,#0
 1262 0028 01D1     	 bne .L91
1331:C:/Users/Yushev/git/wpcqi-optiga-trust-charge/optiga/externals/mbedtls/library\pkparse.c ****         return( 0 );
 1263              	 .loc 2 1331 0
 1264 002a 0023     	 movs r3,#0
 1265 002c 24E0     	 b .L90
 1266              	.L91:
1332:C:/Users/Yushev/git/wpcqi-optiga-trust-charge/optiga/externals/mbedtls/library\pkparse.c **** 
1333:C:/Users/Yushev/git/wpcqi-optiga-trust-charge/optiga/externals/mbedtls/library\pkparse.c ****     mbedtls_pk_free( pk );
 1267              	 .loc 2 1333 0
 1268 002e F868     	 ldr r0,[r7,#12]
 1269 0030 FFF7FEFF 	 bl mbedtls_pk_free
1334:C:/Users/Yushev/git/wpcqi-optiga-trust-charge/optiga/externals/mbedtls/library\pkparse.c ****     mbedtls_pk_init( pk );
 1270              	 .loc 2 1334 0
 1271 0034 F868     	 ldr r0,[r7,#12]
 1272 0036 FFF7FEFF 	 bl mbedtls_pk_init
1335:C:/Users/Yushev/git/wpcqi-optiga-trust-charge/optiga/externals/mbedtls/library\pkparse.c **** 
1336:C:/Users/Yushev/git/wpcqi-optiga-trust-charge/optiga/externals/mbedtls/library\pkparse.c **** #if defined(MBEDTLS_RSA_C)
1337:C:/Users/Yushev/git/wpcqi-optiga-trust-charge/optiga/externals/mbedtls/library\pkparse.c **** 
1338:C:/Users/Yushev/git/wpcqi-optiga-trust-charge/optiga/externals/mbedtls/library\pkparse.c ****     pk_info = mbedtls_pk_info_from_type( MBEDTLS_PK_RSA );
1339:C:/Users/Yushev/git/wpcqi-optiga-trust-charge/optiga/externals/mbedtls/library\pkparse.c ****     if( mbedtls_pk_setup( pk, pk_info ) == 0 &&
1340:C:/Users/Yushev/git/wpcqi-optiga-trust-charge/optiga/externals/mbedtls/library\pkparse.c ****         pk_parse_key_pkcs1_der( mbedtls_pk_rsa( *pk ), key, keylen ) == 0 )
1341:C:/Users/Yushev/git/wpcqi-optiga-trust-charge/optiga/externals/mbedtls/library\pkparse.c ****     {
1342:C:/Users/Yushev/git/wpcqi-optiga-trust-charge/optiga/externals/mbedtls/library\pkparse.c ****         return( 0 );
1343:C:/Users/Yushev/git/wpcqi-optiga-trust-charge/optiga/externals/mbedtls/library\pkparse.c ****     }
1344:C:/Users/Yushev/git/wpcqi-optiga-trust-charge/optiga/externals/mbedtls/library\pkparse.c **** 
1345:C:/Users/Yushev/git/wpcqi-optiga-trust-charge/optiga/externals/mbedtls/library\pkparse.c ****     mbedtls_pk_free( pk );
1346:C:/Users/Yushev/git/wpcqi-optiga-trust-charge/optiga/externals/mbedtls/library\pkparse.c ****     mbedtls_pk_init( pk );
1347:C:/Users/Yushev/git/wpcqi-optiga-trust-charge/optiga/externals/mbedtls/library\pkparse.c **** #endif /* MBEDTLS_RSA_C */
1348:C:/Users/Yushev/git/wpcqi-optiga-trust-charge/optiga/externals/mbedtls/library\pkparse.c **** 
1349:C:/Users/Yushev/git/wpcqi-optiga-trust-charge/optiga/externals/mbedtls/library\pkparse.c **** #if defined(MBEDTLS_ECP_C)
1350:C:/Users/Yushev/git/wpcqi-optiga-trust-charge/optiga/externals/mbedtls/library\pkparse.c ****     pk_info = mbedtls_pk_info_from_type( MBEDTLS_PK_ECKEY );
 1273              	 .loc 2 1350 0
 1274 003a 0220     	 movs r0,#2
 1275 003c FFF7FEFF 	 bl mbedtls_pk_info_from_type
 1276 0040 3861     	 str r0,[r7,#16]
1351:C:/Users/Yushev/git/wpcqi-optiga-trust-charge/optiga/externals/mbedtls/library\pkparse.c ****     if( mbedtls_pk_setup( pk, pk_info ) == 0 &&
 1277              	 .loc 2 1351 0
 1278 0042 F868     	 ldr r0,[r7,#12]
 1279 0044 3969     	 ldr r1,[r7,#16]
 1280 0046 FFF7FEFF 	 bl mbedtls_pk_setup
 1281 004a 0346     	 mov r3,r0
 1282 004c 002B     	 cmp r3,#0
 1283 004e 0FD1     	 bne .L92
1352:C:/Users/Yushev/git/wpcqi-optiga-trust-charge/optiga/externals/mbedtls/library\pkparse.c ****         pk_parse_key_sec1_der( mbedtls_pk_ec( *pk ),
 1284              	 .loc 2 1352 0 discriminator 1
 1285 0050 FB68     	 ldr r3,[r7,#12]
 1286 0052 93E80300 	 ldmia r3,{r0,r1}
 1287 0056 FFF7FEFF 	 bl mbedtls_pk_ec
 1288 005a 0346     	 mov r3,r0
 1289 005c 1846     	 mov r0,r3
 1290 005e B968     	 ldr r1,[r7,#8]
 1291 0060 7A68     	 ldr r2,[r7,#4]
 1292 0062 FFF7FEFF 	 bl pk_parse_key_sec1_der
 1293 0066 0346     	 mov r3,r0
1351:C:/Users/Yushev/git/wpcqi-optiga-trust-charge/optiga/externals/mbedtls/library\pkparse.c ****     if( mbedtls_pk_setup( pk, pk_info ) == 0 &&
 1294              	 .loc 2 1351 0 discriminator 1
 1295 0068 002B     	 cmp r3,#0
 1296 006a 01D1     	 bne .L92
1353:C:/Users/Yushev/git/wpcqi-optiga-trust-charge/optiga/externals/mbedtls/library\pkparse.c ****                                key, keylen ) == 0 )
1354:C:/Users/Yushev/git/wpcqi-optiga-trust-charge/optiga/externals/mbedtls/library\pkparse.c ****     {
1355:C:/Users/Yushev/git/wpcqi-optiga-trust-charge/optiga/externals/mbedtls/library\pkparse.c ****         return( 0 );
 1297              	 .loc 2 1355 0
 1298 006c 0023     	 movs r3,#0
 1299 006e 03E0     	 b .L90
 1300              	.L92:
1356:C:/Users/Yushev/git/wpcqi-optiga-trust-charge/optiga/externals/mbedtls/library\pkparse.c ****     }
1357:C:/Users/Yushev/git/wpcqi-optiga-trust-charge/optiga/externals/mbedtls/library\pkparse.c ****     mbedtls_pk_free( pk );
 1301              	 .loc 2 1357 0
 1302 0070 F868     	 ldr r0,[r7,#12]
 1303 0072 FFF7FEFF 	 bl mbedtls_pk_free
1358:C:/Users/Yushev/git/wpcqi-optiga-trust-charge/optiga/externals/mbedtls/library\pkparse.c **** #endif /* MBEDTLS_ECP_C */
1359:C:/Users/Yushev/git/wpcqi-optiga-trust-charge/optiga/externals/mbedtls/library\pkparse.c **** 
1360:C:/Users/Yushev/git/wpcqi-optiga-trust-charge/optiga/externals/mbedtls/library\pkparse.c ****     /* If MBEDTLS_RSA_C is defined but MBEDTLS_ECP_C isn't,
1361:C:/Users/Yushev/git/wpcqi-optiga-trust-charge/optiga/externals/mbedtls/library\pkparse.c ****      * it is ok to leave the PK context initialized but not
1362:C:/Users/Yushev/git/wpcqi-optiga-trust-charge/optiga/externals/mbedtls/library\pkparse.c ****      * freed: It is the caller's responsibility to call pk_init()
1363:C:/Users/Yushev/git/wpcqi-optiga-trust-charge/optiga/externals/mbedtls/library\pkparse.c ****      * before calling this function, and to call pk_free()
1364:C:/Users/Yushev/git/wpcqi-optiga-trust-charge/optiga/externals/mbedtls/library\pkparse.c ****      * when it fails. If MBEDTLS_ECP_C is defined but MBEDTLS_RSA_C
1365:C:/Users/Yushev/git/wpcqi-optiga-trust-charge/optiga/externals/mbedtls/library\pkparse.c ****      * isn't, this leads to mbedtls_pk_free() being called
1366:C:/Users/Yushev/git/wpcqi-optiga-trust-charge/optiga/externals/mbedtls/library\pkparse.c ****      * twice, once here and once by the caller, but this is
1367:C:/Users/Yushev/git/wpcqi-optiga-trust-charge/optiga/externals/mbedtls/library\pkparse.c ****      * also ok and in line with the mbedtls_pk_free() calls
1368:C:/Users/Yushev/git/wpcqi-optiga-trust-charge/optiga/externals/mbedtls/library\pkparse.c ****      * on failed PEM parsing attempts. */
1369:C:/Users/Yushev/git/wpcqi-optiga-trust-charge/optiga/externals/mbedtls/library\pkparse.c **** 
1370:C:/Users/Yushev/git/wpcqi-optiga-trust-charge/optiga/externals/mbedtls/library\pkparse.c ****     return( MBEDTLS_ERR_PK_KEY_INVALID_FORMAT );
 1304              	 .loc 2 1370 0
 1305 0076 024B     	 ldr r3,.L93
 1306              	.L90:
1371:C:/Users/Yushev/git/wpcqi-optiga-trust-charge/optiga/externals/mbedtls/library\pkparse.c **** }
 1307              	 .loc 2 1371 0
 1308 0078 1846     	 mov r0,r3
 1309 007a 1837     	 adds r7,r7,#24
 1310              	.LCFI44:
 1311              	 .cfi_def_cfa_offset 8
 1312 007c BD46     	 mov sp,r7
 1313              	.LCFI45:
 1314              	 .cfi_def_cfa_register 13
 1315              	 
 1316 007e 80BD     	 pop {r7,pc}
 1317              	.L94:
 1318              	 .align 2
 1319              	.L93:
 1320 0080 00C3FFFF 	 .word -15616
 1321              	 .cfi_endproc
 1322              	.LFE16:
 1324              	 .section .text.mbedtls_pk_parse_public_key,"ax",%progbits
 1325              	 .align 2
