   1              	 .syntax unified
   2              	 .cpu cortex-m4
   3              	 .eabi_attribute 27,3
   4              	 .fpu fpv4-sp-d16
   5              	 .eabi_attribute 20,1
   6              	 .eabi_attribute 21,1
   7              	 .eabi_attribute 23,3
   8              	 .eabi_attribute 24,1
   9              	 .eabi_attribute 25,1
  10              	 .eabi_attribute 26,1
  11              	 .eabi_attribute 30,6
  12              	 .eabi_attribute 34,1
  13              	 .eabi_attribute 18,4
  14              	 .thumb
  15              	 .file "x509_crt.c"
  16              	 .text
  17              	.Ltext0:
  18              	 .cfi_sections .debug_frame
  19              	 .section .text.mbedtls_pk_ec,"ax",%progbits
  20              	 .align 2
  21              	 .thumb
  22              	 .thumb_func
  24              	mbedtls_pk_ec:
  25              	.LFB0:
  26              	 .file 1 "C:/Users/Yushev/git/wpcqi-optiga-trust-charge/optiga/externals/mbedtls/include/mbedtls/pk.h"
   1:C:/Users/Yushev/git/wpcqi-optiga-trust-charge/optiga/externals/mbedtls/include/mbedtls\pk.h **** /**
   2:C:/Users/Yushev/git/wpcqi-optiga-trust-charge/optiga/externals/mbedtls/include/mbedtls\pk.h ****  * \file pk.h
   3:C:/Users/Yushev/git/wpcqi-optiga-trust-charge/optiga/externals/mbedtls/include/mbedtls\pk.h ****  *
   4:C:/Users/Yushev/git/wpcqi-optiga-trust-charge/optiga/externals/mbedtls/include/mbedtls\pk.h ****  * \brief Public Key abstraction layer
   5:C:/Users/Yushev/git/wpcqi-optiga-trust-charge/optiga/externals/mbedtls/include/mbedtls\pk.h ****  */
   6:C:/Users/Yushev/git/wpcqi-optiga-trust-charge/optiga/externals/mbedtls/include/mbedtls\pk.h **** /*
   7:C:/Users/Yushev/git/wpcqi-optiga-trust-charge/optiga/externals/mbedtls/include/mbedtls\pk.h ****  *  Copyright (C) 2006-2015, ARM Limited, All Rights Reserved
   8:C:/Users/Yushev/git/wpcqi-optiga-trust-charge/optiga/externals/mbedtls/include/mbedtls\pk.h ****  *  SPDX-License-Identifier: Apache-2.0
   9:C:/Users/Yushev/git/wpcqi-optiga-trust-charge/optiga/externals/mbedtls/include/mbedtls\pk.h ****  *
  10:C:/Users/Yushev/git/wpcqi-optiga-trust-charge/optiga/externals/mbedtls/include/mbedtls\pk.h ****  *  Licensed under the Apache License, Version 2.0 (the "License"); you may
  11:C:/Users/Yushev/git/wpcqi-optiga-trust-charge/optiga/externals/mbedtls/include/mbedtls\pk.h ****  *  not use this file except in compliance with the License.
  12:C:/Users/Yushev/git/wpcqi-optiga-trust-charge/optiga/externals/mbedtls/include/mbedtls\pk.h ****  *  You may obtain a copy of the License at
  13:C:/Users/Yushev/git/wpcqi-optiga-trust-charge/optiga/externals/mbedtls/include/mbedtls\pk.h ****  *
  14:C:/Users/Yushev/git/wpcqi-optiga-trust-charge/optiga/externals/mbedtls/include/mbedtls\pk.h ****  *  http://www.apache.org/licenses/LICENSE-2.0
  15:C:/Users/Yushev/git/wpcqi-optiga-trust-charge/optiga/externals/mbedtls/include/mbedtls\pk.h ****  *
  16:C:/Users/Yushev/git/wpcqi-optiga-trust-charge/optiga/externals/mbedtls/include/mbedtls\pk.h ****  *  Unless required by applicable law or agreed to in writing, software
  17:C:/Users/Yushev/git/wpcqi-optiga-trust-charge/optiga/externals/mbedtls/include/mbedtls\pk.h ****  *  distributed under the License is distributed on an "AS IS" BASIS, WITHOUT
  18:C:/Users/Yushev/git/wpcqi-optiga-trust-charge/optiga/externals/mbedtls/include/mbedtls\pk.h ****  *  WARRANTIES OR CONDITIONS OF ANY KIND, either express or implied.
  19:C:/Users/Yushev/git/wpcqi-optiga-trust-charge/optiga/externals/mbedtls/include/mbedtls\pk.h ****  *  See the License for the specific language governing permissions and
  20:C:/Users/Yushev/git/wpcqi-optiga-trust-charge/optiga/externals/mbedtls/include/mbedtls\pk.h ****  *  limitations under the License.
  21:C:/Users/Yushev/git/wpcqi-optiga-trust-charge/optiga/externals/mbedtls/include/mbedtls\pk.h ****  *
  22:C:/Users/Yushev/git/wpcqi-optiga-trust-charge/optiga/externals/mbedtls/include/mbedtls\pk.h ****  *  This file is part of mbed TLS (https://tls.mbed.org)
  23:C:/Users/Yushev/git/wpcqi-optiga-trust-charge/optiga/externals/mbedtls/include/mbedtls\pk.h ****  */
  24:C:/Users/Yushev/git/wpcqi-optiga-trust-charge/optiga/externals/mbedtls/include/mbedtls\pk.h **** 
  25:C:/Users/Yushev/git/wpcqi-optiga-trust-charge/optiga/externals/mbedtls/include/mbedtls\pk.h **** #ifndef MBEDTLS_PK_H
  26:C:/Users/Yushev/git/wpcqi-optiga-trust-charge/optiga/externals/mbedtls/include/mbedtls\pk.h **** #define MBEDTLS_PK_H
  27:C:/Users/Yushev/git/wpcqi-optiga-trust-charge/optiga/externals/mbedtls/include/mbedtls\pk.h **** 
  28:C:/Users/Yushev/git/wpcqi-optiga-trust-charge/optiga/externals/mbedtls/include/mbedtls\pk.h **** #if !defined(MBEDTLS_CONFIG_FILE)
  29:C:/Users/Yushev/git/wpcqi-optiga-trust-charge/optiga/externals/mbedtls/include/mbedtls\pk.h **** #include "config.h"
  30:C:/Users/Yushev/git/wpcqi-optiga-trust-charge/optiga/externals/mbedtls/include/mbedtls\pk.h **** #else
  31:C:/Users/Yushev/git/wpcqi-optiga-trust-charge/optiga/externals/mbedtls/include/mbedtls\pk.h **** #include MBEDTLS_CONFIG_FILE
  32:C:/Users/Yushev/git/wpcqi-optiga-trust-charge/optiga/externals/mbedtls/include/mbedtls\pk.h **** #endif
  33:C:/Users/Yushev/git/wpcqi-optiga-trust-charge/optiga/externals/mbedtls/include/mbedtls\pk.h **** 
  34:C:/Users/Yushev/git/wpcqi-optiga-trust-charge/optiga/externals/mbedtls/include/mbedtls\pk.h **** #include "md.h"
  35:C:/Users/Yushev/git/wpcqi-optiga-trust-charge/optiga/externals/mbedtls/include/mbedtls\pk.h **** 
  36:C:/Users/Yushev/git/wpcqi-optiga-trust-charge/optiga/externals/mbedtls/include/mbedtls\pk.h **** #if defined(MBEDTLS_RSA_C)
  37:C:/Users/Yushev/git/wpcqi-optiga-trust-charge/optiga/externals/mbedtls/include/mbedtls\pk.h **** #include "rsa.h"
  38:C:/Users/Yushev/git/wpcqi-optiga-trust-charge/optiga/externals/mbedtls/include/mbedtls\pk.h **** #endif
  39:C:/Users/Yushev/git/wpcqi-optiga-trust-charge/optiga/externals/mbedtls/include/mbedtls\pk.h **** 
  40:C:/Users/Yushev/git/wpcqi-optiga-trust-charge/optiga/externals/mbedtls/include/mbedtls\pk.h **** #if defined(MBEDTLS_ECP_C)
  41:C:/Users/Yushev/git/wpcqi-optiga-trust-charge/optiga/externals/mbedtls/include/mbedtls\pk.h **** #include "ecp.h"
  42:C:/Users/Yushev/git/wpcqi-optiga-trust-charge/optiga/externals/mbedtls/include/mbedtls\pk.h **** #endif
  43:C:/Users/Yushev/git/wpcqi-optiga-trust-charge/optiga/externals/mbedtls/include/mbedtls\pk.h **** 
  44:C:/Users/Yushev/git/wpcqi-optiga-trust-charge/optiga/externals/mbedtls/include/mbedtls\pk.h **** #if defined(MBEDTLS_ECDSA_C)
  45:C:/Users/Yushev/git/wpcqi-optiga-trust-charge/optiga/externals/mbedtls/include/mbedtls\pk.h **** #include "ecdsa.h"
  46:C:/Users/Yushev/git/wpcqi-optiga-trust-charge/optiga/externals/mbedtls/include/mbedtls\pk.h **** #endif
  47:C:/Users/Yushev/git/wpcqi-optiga-trust-charge/optiga/externals/mbedtls/include/mbedtls\pk.h **** 
  48:C:/Users/Yushev/git/wpcqi-optiga-trust-charge/optiga/externals/mbedtls/include/mbedtls\pk.h **** #if ( defined(__ARMCC_VERSION) || defined(_MSC_VER) ) && \
  49:C:/Users/Yushev/git/wpcqi-optiga-trust-charge/optiga/externals/mbedtls/include/mbedtls\pk.h ****     !defined(inline) && !defined(__cplusplus)
  50:C:/Users/Yushev/git/wpcqi-optiga-trust-charge/optiga/externals/mbedtls/include/mbedtls\pk.h **** #define inline __inline
  51:C:/Users/Yushev/git/wpcqi-optiga-trust-charge/optiga/externals/mbedtls/include/mbedtls\pk.h **** #endif
  52:C:/Users/Yushev/git/wpcqi-optiga-trust-charge/optiga/externals/mbedtls/include/mbedtls\pk.h **** 
  53:C:/Users/Yushev/git/wpcqi-optiga-trust-charge/optiga/externals/mbedtls/include/mbedtls\pk.h **** #define MBEDTLS_ERR_PK_ALLOC_FAILED        -0x3F80  /**< Memory allocation failed. */
  54:C:/Users/Yushev/git/wpcqi-optiga-trust-charge/optiga/externals/mbedtls/include/mbedtls\pk.h **** #define MBEDTLS_ERR_PK_TYPE_MISMATCH       -0x3F00  /**< Type mismatch, eg attempt to encrypt with 
  55:C:/Users/Yushev/git/wpcqi-optiga-trust-charge/optiga/externals/mbedtls/include/mbedtls\pk.h **** #define MBEDTLS_ERR_PK_BAD_INPUT_DATA      -0x3E80  /**< Bad input parameters to function. */
  56:C:/Users/Yushev/git/wpcqi-optiga-trust-charge/optiga/externals/mbedtls/include/mbedtls\pk.h **** #define MBEDTLS_ERR_PK_FILE_IO_ERROR       -0x3E00  /**< Read/write of file failed. */
  57:C:/Users/Yushev/git/wpcqi-optiga-trust-charge/optiga/externals/mbedtls/include/mbedtls\pk.h **** #define MBEDTLS_ERR_PK_KEY_INVALID_VERSION -0x3D80  /**< Unsupported key version */
  58:C:/Users/Yushev/git/wpcqi-optiga-trust-charge/optiga/externals/mbedtls/include/mbedtls\pk.h **** #define MBEDTLS_ERR_PK_KEY_INVALID_FORMAT  -0x3D00  /**< Invalid key tag or value. */
  59:C:/Users/Yushev/git/wpcqi-optiga-trust-charge/optiga/externals/mbedtls/include/mbedtls\pk.h **** #define MBEDTLS_ERR_PK_UNKNOWN_PK_ALG      -0x3C80  /**< Key algorithm is unsupported (only RSA and
  60:C:/Users/Yushev/git/wpcqi-optiga-trust-charge/optiga/externals/mbedtls/include/mbedtls\pk.h **** #define MBEDTLS_ERR_PK_PASSWORD_REQUIRED   -0x3C00  /**< Private key password can't be empty. */
  61:C:/Users/Yushev/git/wpcqi-optiga-trust-charge/optiga/externals/mbedtls/include/mbedtls\pk.h **** #define MBEDTLS_ERR_PK_PASSWORD_MISMATCH   -0x3B80  /**< Given private key password does not allow 
  62:C:/Users/Yushev/git/wpcqi-optiga-trust-charge/optiga/externals/mbedtls/include/mbedtls\pk.h **** #define MBEDTLS_ERR_PK_INVALID_PUBKEY      -0x3B00  /**< The pubkey tag or value is invalid (only R
  63:C:/Users/Yushev/git/wpcqi-optiga-trust-charge/optiga/externals/mbedtls/include/mbedtls\pk.h **** #define MBEDTLS_ERR_PK_INVALID_ALG         -0x3A80  /**< The algorithm tag or value is invalid. */
  64:C:/Users/Yushev/git/wpcqi-optiga-trust-charge/optiga/externals/mbedtls/include/mbedtls\pk.h **** #define MBEDTLS_ERR_PK_UNKNOWN_NAMED_CURVE -0x3A00  /**< Elliptic curve is unsupported (only NIST c
  65:C:/Users/Yushev/git/wpcqi-optiga-trust-charge/optiga/externals/mbedtls/include/mbedtls\pk.h **** #define MBEDTLS_ERR_PK_FEATURE_UNAVAILABLE -0x3980  /**< Unavailable feature, e.g. RSA disabled for
  66:C:/Users/Yushev/git/wpcqi-optiga-trust-charge/optiga/externals/mbedtls/include/mbedtls\pk.h **** #define MBEDTLS_ERR_PK_SIG_LEN_MISMATCH    -0x3900  /**< The buffer contains a valid signature foll
  67:C:/Users/Yushev/git/wpcqi-optiga-trust-charge/optiga/externals/mbedtls/include/mbedtls\pk.h **** 
  68:C:/Users/Yushev/git/wpcqi-optiga-trust-charge/optiga/externals/mbedtls/include/mbedtls\pk.h **** /* MBEDTLS_ERR_PK_HW_ACCEL_FAILED is deprecated and should not be used. */
  69:C:/Users/Yushev/git/wpcqi-optiga-trust-charge/optiga/externals/mbedtls/include/mbedtls\pk.h **** #define MBEDTLS_ERR_PK_HW_ACCEL_FAILED     -0x3880  /**< PK hardware accelerator failed. */
  70:C:/Users/Yushev/git/wpcqi-optiga-trust-charge/optiga/externals/mbedtls/include/mbedtls\pk.h **** 
  71:C:/Users/Yushev/git/wpcqi-optiga-trust-charge/optiga/externals/mbedtls/include/mbedtls\pk.h **** #ifdef __cplusplus
  72:C:/Users/Yushev/git/wpcqi-optiga-trust-charge/optiga/externals/mbedtls/include/mbedtls\pk.h **** extern "C" {
  73:C:/Users/Yushev/git/wpcqi-optiga-trust-charge/optiga/externals/mbedtls/include/mbedtls\pk.h **** #endif
  74:C:/Users/Yushev/git/wpcqi-optiga-trust-charge/optiga/externals/mbedtls/include/mbedtls\pk.h **** 
  75:C:/Users/Yushev/git/wpcqi-optiga-trust-charge/optiga/externals/mbedtls/include/mbedtls\pk.h **** /**
  76:C:/Users/Yushev/git/wpcqi-optiga-trust-charge/optiga/externals/mbedtls/include/mbedtls\pk.h ****  * \brief          Public key types
  77:C:/Users/Yushev/git/wpcqi-optiga-trust-charge/optiga/externals/mbedtls/include/mbedtls\pk.h ****  */
  78:C:/Users/Yushev/git/wpcqi-optiga-trust-charge/optiga/externals/mbedtls/include/mbedtls\pk.h **** typedef enum {
  79:C:/Users/Yushev/git/wpcqi-optiga-trust-charge/optiga/externals/mbedtls/include/mbedtls\pk.h ****     MBEDTLS_PK_NONE=0,
  80:C:/Users/Yushev/git/wpcqi-optiga-trust-charge/optiga/externals/mbedtls/include/mbedtls\pk.h ****     MBEDTLS_PK_RSA,
  81:C:/Users/Yushev/git/wpcqi-optiga-trust-charge/optiga/externals/mbedtls/include/mbedtls\pk.h ****     MBEDTLS_PK_ECKEY,
  82:C:/Users/Yushev/git/wpcqi-optiga-trust-charge/optiga/externals/mbedtls/include/mbedtls\pk.h ****     MBEDTLS_PK_ECKEY_DH,
  83:C:/Users/Yushev/git/wpcqi-optiga-trust-charge/optiga/externals/mbedtls/include/mbedtls\pk.h ****     MBEDTLS_PK_ECDSA,
  84:C:/Users/Yushev/git/wpcqi-optiga-trust-charge/optiga/externals/mbedtls/include/mbedtls\pk.h ****     MBEDTLS_PK_RSA_ALT,
  85:C:/Users/Yushev/git/wpcqi-optiga-trust-charge/optiga/externals/mbedtls/include/mbedtls\pk.h ****     MBEDTLS_PK_RSASSA_PSS,
  86:C:/Users/Yushev/git/wpcqi-optiga-trust-charge/optiga/externals/mbedtls/include/mbedtls\pk.h **** } mbedtls_pk_type_t;
  87:C:/Users/Yushev/git/wpcqi-optiga-trust-charge/optiga/externals/mbedtls/include/mbedtls\pk.h **** 
  88:C:/Users/Yushev/git/wpcqi-optiga-trust-charge/optiga/externals/mbedtls/include/mbedtls\pk.h **** /**
  89:C:/Users/Yushev/git/wpcqi-optiga-trust-charge/optiga/externals/mbedtls/include/mbedtls\pk.h ****  * \brief           Options for RSASSA-PSS signature verification.
  90:C:/Users/Yushev/git/wpcqi-optiga-trust-charge/optiga/externals/mbedtls/include/mbedtls\pk.h ****  *                  See \c mbedtls_rsa_rsassa_pss_verify_ext()
  91:C:/Users/Yushev/git/wpcqi-optiga-trust-charge/optiga/externals/mbedtls/include/mbedtls\pk.h ****  */
  92:C:/Users/Yushev/git/wpcqi-optiga-trust-charge/optiga/externals/mbedtls/include/mbedtls\pk.h **** typedef struct mbedtls_pk_rsassa_pss_options
  93:C:/Users/Yushev/git/wpcqi-optiga-trust-charge/optiga/externals/mbedtls/include/mbedtls\pk.h **** {
  94:C:/Users/Yushev/git/wpcqi-optiga-trust-charge/optiga/externals/mbedtls/include/mbedtls\pk.h ****     mbedtls_md_type_t mgf1_hash_id;
  95:C:/Users/Yushev/git/wpcqi-optiga-trust-charge/optiga/externals/mbedtls/include/mbedtls\pk.h ****     int expected_salt_len;
  96:C:/Users/Yushev/git/wpcqi-optiga-trust-charge/optiga/externals/mbedtls/include/mbedtls\pk.h **** 
  97:C:/Users/Yushev/git/wpcqi-optiga-trust-charge/optiga/externals/mbedtls/include/mbedtls\pk.h **** } mbedtls_pk_rsassa_pss_options;
  98:C:/Users/Yushev/git/wpcqi-optiga-trust-charge/optiga/externals/mbedtls/include/mbedtls\pk.h **** 
  99:C:/Users/Yushev/git/wpcqi-optiga-trust-charge/optiga/externals/mbedtls/include/mbedtls\pk.h **** /**
 100:C:/Users/Yushev/git/wpcqi-optiga-trust-charge/optiga/externals/mbedtls/include/mbedtls\pk.h ****  * \brief           Types for interfacing with the debug module
 101:C:/Users/Yushev/git/wpcqi-optiga-trust-charge/optiga/externals/mbedtls/include/mbedtls\pk.h ****  */
 102:C:/Users/Yushev/git/wpcqi-optiga-trust-charge/optiga/externals/mbedtls/include/mbedtls\pk.h **** typedef enum
 103:C:/Users/Yushev/git/wpcqi-optiga-trust-charge/optiga/externals/mbedtls/include/mbedtls\pk.h **** {
 104:C:/Users/Yushev/git/wpcqi-optiga-trust-charge/optiga/externals/mbedtls/include/mbedtls\pk.h ****     MBEDTLS_PK_DEBUG_NONE = 0,
 105:C:/Users/Yushev/git/wpcqi-optiga-trust-charge/optiga/externals/mbedtls/include/mbedtls\pk.h ****     MBEDTLS_PK_DEBUG_MPI,
 106:C:/Users/Yushev/git/wpcqi-optiga-trust-charge/optiga/externals/mbedtls/include/mbedtls\pk.h ****     MBEDTLS_PK_DEBUG_ECP,
 107:C:/Users/Yushev/git/wpcqi-optiga-trust-charge/optiga/externals/mbedtls/include/mbedtls\pk.h **** } mbedtls_pk_debug_type;
 108:C:/Users/Yushev/git/wpcqi-optiga-trust-charge/optiga/externals/mbedtls/include/mbedtls\pk.h **** 
 109:C:/Users/Yushev/git/wpcqi-optiga-trust-charge/optiga/externals/mbedtls/include/mbedtls\pk.h **** /**
 110:C:/Users/Yushev/git/wpcqi-optiga-trust-charge/optiga/externals/mbedtls/include/mbedtls\pk.h ****  * \brief           Item to send to the debug module
 111:C:/Users/Yushev/git/wpcqi-optiga-trust-charge/optiga/externals/mbedtls/include/mbedtls\pk.h ****  */
 112:C:/Users/Yushev/git/wpcqi-optiga-trust-charge/optiga/externals/mbedtls/include/mbedtls\pk.h **** typedef struct mbedtls_pk_debug_item
 113:C:/Users/Yushev/git/wpcqi-optiga-trust-charge/optiga/externals/mbedtls/include/mbedtls\pk.h **** {
 114:C:/Users/Yushev/git/wpcqi-optiga-trust-charge/optiga/externals/mbedtls/include/mbedtls\pk.h ****     mbedtls_pk_debug_type type;
 115:C:/Users/Yushev/git/wpcqi-optiga-trust-charge/optiga/externals/mbedtls/include/mbedtls\pk.h ****     const char *name;
 116:C:/Users/Yushev/git/wpcqi-optiga-trust-charge/optiga/externals/mbedtls/include/mbedtls\pk.h ****     void *value;
 117:C:/Users/Yushev/git/wpcqi-optiga-trust-charge/optiga/externals/mbedtls/include/mbedtls\pk.h **** } mbedtls_pk_debug_item;
 118:C:/Users/Yushev/git/wpcqi-optiga-trust-charge/optiga/externals/mbedtls/include/mbedtls\pk.h **** 
 119:C:/Users/Yushev/git/wpcqi-optiga-trust-charge/optiga/externals/mbedtls/include/mbedtls\pk.h **** /** Maximum number of item send for debugging, plus 1 */
 120:C:/Users/Yushev/git/wpcqi-optiga-trust-charge/optiga/externals/mbedtls/include/mbedtls\pk.h **** #define MBEDTLS_PK_DEBUG_MAX_ITEMS 3
 121:C:/Users/Yushev/git/wpcqi-optiga-trust-charge/optiga/externals/mbedtls/include/mbedtls\pk.h **** 
 122:C:/Users/Yushev/git/wpcqi-optiga-trust-charge/optiga/externals/mbedtls/include/mbedtls\pk.h **** /**
 123:C:/Users/Yushev/git/wpcqi-optiga-trust-charge/optiga/externals/mbedtls/include/mbedtls\pk.h ****  * \brief           Public key information and operations
 124:C:/Users/Yushev/git/wpcqi-optiga-trust-charge/optiga/externals/mbedtls/include/mbedtls\pk.h ****  */
 125:C:/Users/Yushev/git/wpcqi-optiga-trust-charge/optiga/externals/mbedtls/include/mbedtls\pk.h **** typedef struct mbedtls_pk_info_t mbedtls_pk_info_t;
 126:C:/Users/Yushev/git/wpcqi-optiga-trust-charge/optiga/externals/mbedtls/include/mbedtls\pk.h **** 
 127:C:/Users/Yushev/git/wpcqi-optiga-trust-charge/optiga/externals/mbedtls/include/mbedtls\pk.h **** /**
 128:C:/Users/Yushev/git/wpcqi-optiga-trust-charge/optiga/externals/mbedtls/include/mbedtls\pk.h ****  * \brief           Public key container
 129:C:/Users/Yushev/git/wpcqi-optiga-trust-charge/optiga/externals/mbedtls/include/mbedtls\pk.h ****  */
 130:C:/Users/Yushev/git/wpcqi-optiga-trust-charge/optiga/externals/mbedtls/include/mbedtls\pk.h **** typedef struct mbedtls_pk_context
 131:C:/Users/Yushev/git/wpcqi-optiga-trust-charge/optiga/externals/mbedtls/include/mbedtls\pk.h **** {
 132:C:/Users/Yushev/git/wpcqi-optiga-trust-charge/optiga/externals/mbedtls/include/mbedtls\pk.h ****     const mbedtls_pk_info_t *   pk_info; /**< Public key information         */
 133:C:/Users/Yushev/git/wpcqi-optiga-trust-charge/optiga/externals/mbedtls/include/mbedtls\pk.h ****     void *                      pk_ctx;  /**< Underlying public key context  */
 134:C:/Users/Yushev/git/wpcqi-optiga-trust-charge/optiga/externals/mbedtls/include/mbedtls\pk.h **** } mbedtls_pk_context;
 135:C:/Users/Yushev/git/wpcqi-optiga-trust-charge/optiga/externals/mbedtls/include/mbedtls\pk.h **** 
 136:C:/Users/Yushev/git/wpcqi-optiga-trust-charge/optiga/externals/mbedtls/include/mbedtls\pk.h **** #if defined(MBEDTLS_ECDSA_C) && defined(MBEDTLS_ECP_RESTARTABLE)
 137:C:/Users/Yushev/git/wpcqi-optiga-trust-charge/optiga/externals/mbedtls/include/mbedtls\pk.h **** /**
 138:C:/Users/Yushev/git/wpcqi-optiga-trust-charge/optiga/externals/mbedtls/include/mbedtls\pk.h ****  * \brief           Context for resuming operations
 139:C:/Users/Yushev/git/wpcqi-optiga-trust-charge/optiga/externals/mbedtls/include/mbedtls\pk.h ****  */
 140:C:/Users/Yushev/git/wpcqi-optiga-trust-charge/optiga/externals/mbedtls/include/mbedtls\pk.h **** typedef struct
 141:C:/Users/Yushev/git/wpcqi-optiga-trust-charge/optiga/externals/mbedtls/include/mbedtls\pk.h **** {
 142:C:/Users/Yushev/git/wpcqi-optiga-trust-charge/optiga/externals/mbedtls/include/mbedtls\pk.h ****     const mbedtls_pk_info_t *   pk_info; /**< Public key information         */
 143:C:/Users/Yushev/git/wpcqi-optiga-trust-charge/optiga/externals/mbedtls/include/mbedtls\pk.h ****     void *                      rs_ctx;  /**< Underlying restart context     */
 144:C:/Users/Yushev/git/wpcqi-optiga-trust-charge/optiga/externals/mbedtls/include/mbedtls\pk.h **** } mbedtls_pk_restart_ctx;
 145:C:/Users/Yushev/git/wpcqi-optiga-trust-charge/optiga/externals/mbedtls/include/mbedtls\pk.h **** #else /* MBEDTLS_ECDSA_C && MBEDTLS_ECP_RESTARTABLE */
 146:C:/Users/Yushev/git/wpcqi-optiga-trust-charge/optiga/externals/mbedtls/include/mbedtls\pk.h **** /* Now we can declare functions that take a pointer to that */
 147:C:/Users/Yushev/git/wpcqi-optiga-trust-charge/optiga/externals/mbedtls/include/mbedtls\pk.h **** typedef void mbedtls_pk_restart_ctx;
 148:C:/Users/Yushev/git/wpcqi-optiga-trust-charge/optiga/externals/mbedtls/include/mbedtls\pk.h **** #endif /* MBEDTLS_ECDSA_C && MBEDTLS_ECP_RESTARTABLE */
 149:C:/Users/Yushev/git/wpcqi-optiga-trust-charge/optiga/externals/mbedtls/include/mbedtls\pk.h **** 
 150:C:/Users/Yushev/git/wpcqi-optiga-trust-charge/optiga/externals/mbedtls/include/mbedtls\pk.h **** #if defined(MBEDTLS_RSA_C)
 151:C:/Users/Yushev/git/wpcqi-optiga-trust-charge/optiga/externals/mbedtls/include/mbedtls\pk.h **** /**
 152:C:/Users/Yushev/git/wpcqi-optiga-trust-charge/optiga/externals/mbedtls/include/mbedtls\pk.h ****  * Quick access to an RSA context inside a PK context.
 153:C:/Users/Yushev/git/wpcqi-optiga-trust-charge/optiga/externals/mbedtls/include/mbedtls\pk.h ****  *
 154:C:/Users/Yushev/git/wpcqi-optiga-trust-charge/optiga/externals/mbedtls/include/mbedtls\pk.h ****  * \warning You must make sure the PK context actually holds an RSA context
 155:C:/Users/Yushev/git/wpcqi-optiga-trust-charge/optiga/externals/mbedtls/include/mbedtls\pk.h ****  * before using this function!
 156:C:/Users/Yushev/git/wpcqi-optiga-trust-charge/optiga/externals/mbedtls/include/mbedtls\pk.h ****  */
 157:C:/Users/Yushev/git/wpcqi-optiga-trust-charge/optiga/externals/mbedtls/include/mbedtls\pk.h **** static inline mbedtls_rsa_context *mbedtls_pk_rsa( const mbedtls_pk_context pk )
 158:C:/Users/Yushev/git/wpcqi-optiga-trust-charge/optiga/externals/mbedtls/include/mbedtls\pk.h **** {
 159:C:/Users/Yushev/git/wpcqi-optiga-trust-charge/optiga/externals/mbedtls/include/mbedtls\pk.h ****     return( (mbedtls_rsa_context *) (pk).pk_ctx );
 160:C:/Users/Yushev/git/wpcqi-optiga-trust-charge/optiga/externals/mbedtls/include/mbedtls\pk.h **** }
 161:C:/Users/Yushev/git/wpcqi-optiga-trust-charge/optiga/externals/mbedtls/include/mbedtls\pk.h **** #endif /* MBEDTLS_RSA_C */
 162:C:/Users/Yushev/git/wpcqi-optiga-trust-charge/optiga/externals/mbedtls/include/mbedtls\pk.h **** 
 163:C:/Users/Yushev/git/wpcqi-optiga-trust-charge/optiga/externals/mbedtls/include/mbedtls\pk.h **** #if defined(MBEDTLS_ECP_C)
 164:C:/Users/Yushev/git/wpcqi-optiga-trust-charge/optiga/externals/mbedtls/include/mbedtls\pk.h **** /**
 165:C:/Users/Yushev/git/wpcqi-optiga-trust-charge/optiga/externals/mbedtls/include/mbedtls\pk.h ****  * Quick access to an EC context inside a PK context.
 166:C:/Users/Yushev/git/wpcqi-optiga-trust-charge/optiga/externals/mbedtls/include/mbedtls\pk.h ****  *
 167:C:/Users/Yushev/git/wpcqi-optiga-trust-charge/optiga/externals/mbedtls/include/mbedtls\pk.h ****  * \warning You must make sure the PK context actually holds an EC context
 168:C:/Users/Yushev/git/wpcqi-optiga-trust-charge/optiga/externals/mbedtls/include/mbedtls\pk.h ****  * before using this function!
 169:C:/Users/Yushev/git/wpcqi-optiga-trust-charge/optiga/externals/mbedtls/include/mbedtls\pk.h ****  */
 170:C:/Users/Yushev/git/wpcqi-optiga-trust-charge/optiga/externals/mbedtls/include/mbedtls\pk.h **** static inline mbedtls_ecp_keypair *mbedtls_pk_ec( const mbedtls_pk_context pk )
 171:C:/Users/Yushev/git/wpcqi-optiga-trust-charge/optiga/externals/mbedtls/include/mbedtls\pk.h **** {
  27              	 .loc 1 171 0
  28              	 .cfi_startproc
  29              	 
  30              	 
  31              	 
  32 0000 80B4     	 push {r7}
  33              	.LCFI0:
  34              	 .cfi_def_cfa_offset 4
  35              	 .cfi_offset 7,-4
  36 0002 83B0     	 sub sp,sp,#12
  37              	.LCFI1:
  38              	 .cfi_def_cfa_offset 16
  39 0004 00AF     	 add r7,sp,#0
  40              	.LCFI2:
  41              	 .cfi_def_cfa_register 7
  42 0006 3B46     	 mov r3,r7
  43 0008 83E80300 	 stmia r3,{r0,r1}
 172:C:/Users/Yushev/git/wpcqi-optiga-trust-charge/optiga/externals/mbedtls/include/mbedtls\pk.h ****     return( (mbedtls_ecp_keypair *) (pk).pk_ctx );
  44              	 .loc 1 172 0
  45 000c 7B68     	 ldr r3,[r7,#4]
 173:C:/Users/Yushev/git/wpcqi-optiga-trust-charge/optiga/externals/mbedtls/include/mbedtls\pk.h **** }
  46              	 .loc 1 173 0
  47 000e 1846     	 mov r0,r3
  48 0010 0C37     	 adds r7,r7,#12
  49              	.LCFI3:
  50              	 .cfi_def_cfa_offset 4
  51 0012 BD46     	 mov sp,r7
  52              	.LCFI4:
  53              	 .cfi_def_cfa_register 13
  54              	 
  55 0014 5DF8047B 	 ldr r7,[sp],#4
  56              	.LCFI5:
  57              	 .cfi_restore 7
  58              	 .cfi_def_cfa_offset 0
  59 0018 7047     	 bx lr
  60              	 .cfi_endproc
  61              	.LFE0:
  63              	 .global mbedtls_x509_crt_profile_default
  64 001a 00BF     	 .section .rodata.mbedtls_x509_crt_profile_default,"a",%progbits
  65              	 .align 2
  68              	mbedtls_x509_crt_profile_default:
  69 0000 F0000000 	 .word 240
  70 0004 FFFFFF0F 	 .word 268435455
  71 0008 FFFFFF0F 	 .word 268435455
  72 000c 00080000 	 .word 2048
  73              	 .global mbedtls_x509_crt_profile_next
  74              	 .section .rodata.mbedtls_x509_crt_profile_next,"a",%progbits
  75              	 .align 2
  78              	mbedtls_x509_crt_profile_next:
  79 0000 E0000000 	 .word 224
  80 0004 FFFFFF0F 	 .word 268435455
  81 0008 FC080000 	 .word 2300
  82 000c 00080000 	 .word 2048
  83              	 .global mbedtls_x509_crt_profile_suiteb
  84              	 .section .rodata.mbedtls_x509_crt_profile_suiteb,"a",%progbits
  85              	 .align 2
  88              	mbedtls_x509_crt_profile_suiteb:
  89 0000 60000000 	 .word 96
  90 0004 0A000000 	 .word 10
  91 0008 0C000000 	 .word 12
  92 000c 00000000 	 .word 0
  93              	 .section .text.x509_profile_check_md_alg,"ax",%progbits
  94              	 .align 2
  95              	 .thumb
  96              	 .thumb_func
  98              	x509_profile_check_md_alg:
  99              	.LFB9:
 100              	 .file 2 "C:/Users/Yushev/git/wpcqi-optiga-trust-charge/optiga/externals/mbedtls/library/x509_crt.c"
   1:C:/Users/Yushev/git/wpcqi-optiga-trust-charge/optiga/externals/mbedtls/library\x509_crt.c **** /*
   2:C:/Users/Yushev/git/wpcqi-optiga-trust-charge/optiga/externals/mbedtls/library\x509_crt.c ****  *  X.509 certificate parsing and verification
   3:C:/Users/Yushev/git/wpcqi-optiga-trust-charge/optiga/externals/mbedtls/library\x509_crt.c ****  *
   4:C:/Users/Yushev/git/wpcqi-optiga-trust-charge/optiga/externals/mbedtls/library\x509_crt.c ****  *  Copyright (C) 2006-2015, ARM Limited, All Rights Reserved
   5:C:/Users/Yushev/git/wpcqi-optiga-trust-charge/optiga/externals/mbedtls/library\x509_crt.c ****  *  SPDX-License-Identifier: Apache-2.0
   6:C:/Users/Yushev/git/wpcqi-optiga-trust-charge/optiga/externals/mbedtls/library\x509_crt.c ****  *
   7:C:/Users/Yushev/git/wpcqi-optiga-trust-charge/optiga/externals/mbedtls/library\x509_crt.c ****  *  Licensed under the Apache License, Version 2.0 (the "License"); you may
   8:C:/Users/Yushev/git/wpcqi-optiga-trust-charge/optiga/externals/mbedtls/library\x509_crt.c ****  *  not use this file except in compliance with the License.
   9:C:/Users/Yushev/git/wpcqi-optiga-trust-charge/optiga/externals/mbedtls/library\x509_crt.c ****  *  You may obtain a copy of the License at
  10:C:/Users/Yushev/git/wpcqi-optiga-trust-charge/optiga/externals/mbedtls/library\x509_crt.c ****  *
  11:C:/Users/Yushev/git/wpcqi-optiga-trust-charge/optiga/externals/mbedtls/library\x509_crt.c ****  *  http://www.apache.org/licenses/LICENSE-2.0
  12:C:/Users/Yushev/git/wpcqi-optiga-trust-charge/optiga/externals/mbedtls/library\x509_crt.c ****  *
  13:C:/Users/Yushev/git/wpcqi-optiga-trust-charge/optiga/externals/mbedtls/library\x509_crt.c ****  *  Unless required by applicable law or agreed to in writing, software
  14:C:/Users/Yushev/git/wpcqi-optiga-trust-charge/optiga/externals/mbedtls/library\x509_crt.c ****  *  distributed under the License is distributed on an "AS IS" BASIS, WITHOUT
  15:C:/Users/Yushev/git/wpcqi-optiga-trust-charge/optiga/externals/mbedtls/library\x509_crt.c ****  *  WARRANTIES OR CONDITIONS OF ANY KIND, either express or implied.
  16:C:/Users/Yushev/git/wpcqi-optiga-trust-charge/optiga/externals/mbedtls/library\x509_crt.c ****  *  See the License for the specific language governing permissions and
  17:C:/Users/Yushev/git/wpcqi-optiga-trust-charge/optiga/externals/mbedtls/library\x509_crt.c ****  *  limitations under the License.
  18:C:/Users/Yushev/git/wpcqi-optiga-trust-charge/optiga/externals/mbedtls/library\x509_crt.c ****  *
  19:C:/Users/Yushev/git/wpcqi-optiga-trust-charge/optiga/externals/mbedtls/library\x509_crt.c ****  *  This file is part of mbed TLS (https://tls.mbed.org)
  20:C:/Users/Yushev/git/wpcqi-optiga-trust-charge/optiga/externals/mbedtls/library\x509_crt.c ****  */
  21:C:/Users/Yushev/git/wpcqi-optiga-trust-charge/optiga/externals/mbedtls/library\x509_crt.c **** /*
  22:C:/Users/Yushev/git/wpcqi-optiga-trust-charge/optiga/externals/mbedtls/library\x509_crt.c ****  *  The ITU-T X.509 standard defines a certificate format for PKI.
  23:C:/Users/Yushev/git/wpcqi-optiga-trust-charge/optiga/externals/mbedtls/library\x509_crt.c ****  *
  24:C:/Users/Yushev/git/wpcqi-optiga-trust-charge/optiga/externals/mbedtls/library\x509_crt.c ****  *  http://www.ietf.org/rfc/rfc5280.txt (Certificates and CRLs)
  25:C:/Users/Yushev/git/wpcqi-optiga-trust-charge/optiga/externals/mbedtls/library\x509_crt.c ****  *  http://www.ietf.org/rfc/rfc3279.txt (Alg IDs for CRLs)
  26:C:/Users/Yushev/git/wpcqi-optiga-trust-charge/optiga/externals/mbedtls/library\x509_crt.c ****  *  http://www.ietf.org/rfc/rfc2986.txt (CSRs, aka PKCS#10)
  27:C:/Users/Yushev/git/wpcqi-optiga-trust-charge/optiga/externals/mbedtls/library\x509_crt.c ****  *
  28:C:/Users/Yushev/git/wpcqi-optiga-trust-charge/optiga/externals/mbedtls/library\x509_crt.c ****  *  http://www.itu.int/ITU-T/studygroups/com17/languages/X.680-0207.pdf
  29:C:/Users/Yushev/git/wpcqi-optiga-trust-charge/optiga/externals/mbedtls/library\x509_crt.c ****  *  http://www.itu.int/ITU-T/studygroups/com17/languages/X.690-0207.pdf
  30:C:/Users/Yushev/git/wpcqi-optiga-trust-charge/optiga/externals/mbedtls/library\x509_crt.c ****  *
  31:C:/Users/Yushev/git/wpcqi-optiga-trust-charge/optiga/externals/mbedtls/library\x509_crt.c ****  *  [SIRO] https://cabforum.org/wp-content/uploads/Chunghwatelecom201503cabforumV4.pdf
  32:C:/Users/Yushev/git/wpcqi-optiga-trust-charge/optiga/externals/mbedtls/library\x509_crt.c ****  */
  33:C:/Users/Yushev/git/wpcqi-optiga-trust-charge/optiga/externals/mbedtls/library\x509_crt.c **** 
  34:C:/Users/Yushev/git/wpcqi-optiga-trust-charge/optiga/externals/mbedtls/library\x509_crt.c **** #if !defined(MBEDTLS_CONFIG_FILE)
  35:C:/Users/Yushev/git/wpcqi-optiga-trust-charge/optiga/externals/mbedtls/library\x509_crt.c **** #include "mbedtls/config.h"
  36:C:/Users/Yushev/git/wpcqi-optiga-trust-charge/optiga/externals/mbedtls/library\x509_crt.c **** #else
  37:C:/Users/Yushev/git/wpcqi-optiga-trust-charge/optiga/externals/mbedtls/library\x509_crt.c **** #include MBEDTLS_CONFIG_FILE
  38:C:/Users/Yushev/git/wpcqi-optiga-trust-charge/optiga/externals/mbedtls/library\x509_crt.c **** #endif
  39:C:/Users/Yushev/git/wpcqi-optiga-trust-charge/optiga/externals/mbedtls/library\x509_crt.c **** 
  40:C:/Users/Yushev/git/wpcqi-optiga-trust-charge/optiga/externals/mbedtls/library\x509_crt.c **** #if defined(MBEDTLS_X509_CRT_PARSE_C)
  41:C:/Users/Yushev/git/wpcqi-optiga-trust-charge/optiga/externals/mbedtls/library\x509_crt.c **** 
  42:C:/Users/Yushev/git/wpcqi-optiga-trust-charge/optiga/externals/mbedtls/library\x509_crt.c **** #include "mbedtls/x509_crt.h"
  43:C:/Users/Yushev/git/wpcqi-optiga-trust-charge/optiga/externals/mbedtls/library\x509_crt.c **** #include "mbedtls/oid.h"
  44:C:/Users/Yushev/git/wpcqi-optiga-trust-charge/optiga/externals/mbedtls/library\x509_crt.c **** #include "mbedtls/platform_util.h"
  45:C:/Users/Yushev/git/wpcqi-optiga-trust-charge/optiga/externals/mbedtls/library\x509_crt.c **** 
  46:C:/Users/Yushev/git/wpcqi-optiga-trust-charge/optiga/externals/mbedtls/library\x509_crt.c **** #include <string.h>
  47:C:/Users/Yushev/git/wpcqi-optiga-trust-charge/optiga/externals/mbedtls/library\x509_crt.c **** 
  48:C:/Users/Yushev/git/wpcqi-optiga-trust-charge/optiga/externals/mbedtls/library\x509_crt.c **** #if defined(MBEDTLS_PEM_PARSE_C)
  49:C:/Users/Yushev/git/wpcqi-optiga-trust-charge/optiga/externals/mbedtls/library\x509_crt.c **** #include "mbedtls/pem.h"
  50:C:/Users/Yushev/git/wpcqi-optiga-trust-charge/optiga/externals/mbedtls/library\x509_crt.c **** #endif
  51:C:/Users/Yushev/git/wpcqi-optiga-trust-charge/optiga/externals/mbedtls/library\x509_crt.c **** 
  52:C:/Users/Yushev/git/wpcqi-optiga-trust-charge/optiga/externals/mbedtls/library\x509_crt.c **** #if defined(MBEDTLS_PLATFORM_C)
  53:C:/Users/Yushev/git/wpcqi-optiga-trust-charge/optiga/externals/mbedtls/library\x509_crt.c **** #include "mbedtls/platform.h"
  54:C:/Users/Yushev/git/wpcqi-optiga-trust-charge/optiga/externals/mbedtls/library\x509_crt.c **** #else
  55:C:/Users/Yushev/git/wpcqi-optiga-trust-charge/optiga/externals/mbedtls/library\x509_crt.c **** #include <stdio.h>
  56:C:/Users/Yushev/git/wpcqi-optiga-trust-charge/optiga/externals/mbedtls/library\x509_crt.c **** #include <stdlib.h>
  57:C:/Users/Yushev/git/wpcqi-optiga-trust-charge/optiga/externals/mbedtls/library\x509_crt.c **** #define mbedtls_free       free
  58:C:/Users/Yushev/git/wpcqi-optiga-trust-charge/optiga/externals/mbedtls/library\x509_crt.c **** #define mbedtls_calloc    calloc
  59:C:/Users/Yushev/git/wpcqi-optiga-trust-charge/optiga/externals/mbedtls/library\x509_crt.c **** #define mbedtls_snprintf   snprintf
  60:C:/Users/Yushev/git/wpcqi-optiga-trust-charge/optiga/externals/mbedtls/library\x509_crt.c **** #endif
  61:C:/Users/Yushev/git/wpcqi-optiga-trust-charge/optiga/externals/mbedtls/library\x509_crt.c **** 
  62:C:/Users/Yushev/git/wpcqi-optiga-trust-charge/optiga/externals/mbedtls/library\x509_crt.c **** #if defined(MBEDTLS_THREADING_C)
  63:C:/Users/Yushev/git/wpcqi-optiga-trust-charge/optiga/externals/mbedtls/library\x509_crt.c **** #include "mbedtls/threading.h"
  64:C:/Users/Yushev/git/wpcqi-optiga-trust-charge/optiga/externals/mbedtls/library\x509_crt.c **** #endif
  65:C:/Users/Yushev/git/wpcqi-optiga-trust-charge/optiga/externals/mbedtls/library\x509_crt.c **** 
  66:C:/Users/Yushev/git/wpcqi-optiga-trust-charge/optiga/externals/mbedtls/library\x509_crt.c **** #if defined(_WIN32) && !defined(EFIX64) && !defined(EFI32)
  67:C:/Users/Yushev/git/wpcqi-optiga-trust-charge/optiga/externals/mbedtls/library\x509_crt.c **** #include <windows.h>
  68:C:/Users/Yushev/git/wpcqi-optiga-trust-charge/optiga/externals/mbedtls/library\x509_crt.c **** #else
  69:C:/Users/Yushev/git/wpcqi-optiga-trust-charge/optiga/externals/mbedtls/library\x509_crt.c **** #include <time.h>
  70:C:/Users/Yushev/git/wpcqi-optiga-trust-charge/optiga/externals/mbedtls/library\x509_crt.c **** #endif
  71:C:/Users/Yushev/git/wpcqi-optiga-trust-charge/optiga/externals/mbedtls/library\x509_crt.c **** 
  72:C:/Users/Yushev/git/wpcqi-optiga-trust-charge/optiga/externals/mbedtls/library\x509_crt.c **** #if defined(MBEDTLS_FS_IO)
  73:C:/Users/Yushev/git/wpcqi-optiga-trust-charge/optiga/externals/mbedtls/library\x509_crt.c **** #include <stdio.h>
  74:C:/Users/Yushev/git/wpcqi-optiga-trust-charge/optiga/externals/mbedtls/library\x509_crt.c **** #if !defined(_WIN32) || defined(EFIX64) || defined(EFI32)
  75:C:/Users/Yushev/git/wpcqi-optiga-trust-charge/optiga/externals/mbedtls/library\x509_crt.c **** #include <sys/types.h>
  76:C:/Users/Yushev/git/wpcqi-optiga-trust-charge/optiga/externals/mbedtls/library\x509_crt.c **** #include <sys/stat.h>
  77:C:/Users/Yushev/git/wpcqi-optiga-trust-charge/optiga/externals/mbedtls/library\x509_crt.c **** #include <dirent.h>
  78:C:/Users/Yushev/git/wpcqi-optiga-trust-charge/optiga/externals/mbedtls/library\x509_crt.c **** #endif /* !_WIN32 || EFIX64 || EFI32 */
  79:C:/Users/Yushev/git/wpcqi-optiga-trust-charge/optiga/externals/mbedtls/library\x509_crt.c **** #endif
  80:C:/Users/Yushev/git/wpcqi-optiga-trust-charge/optiga/externals/mbedtls/library\x509_crt.c **** 
  81:C:/Users/Yushev/git/wpcqi-optiga-trust-charge/optiga/externals/mbedtls/library\x509_crt.c **** /*
  82:C:/Users/Yushev/git/wpcqi-optiga-trust-charge/optiga/externals/mbedtls/library\x509_crt.c ****  * Item in a verification chain: cert and flags for it
  83:C:/Users/Yushev/git/wpcqi-optiga-trust-charge/optiga/externals/mbedtls/library\x509_crt.c ****  */
  84:C:/Users/Yushev/git/wpcqi-optiga-trust-charge/optiga/externals/mbedtls/library\x509_crt.c **** typedef struct {
  85:C:/Users/Yushev/git/wpcqi-optiga-trust-charge/optiga/externals/mbedtls/library\x509_crt.c ****     mbedtls_x509_crt *crt;
  86:C:/Users/Yushev/git/wpcqi-optiga-trust-charge/optiga/externals/mbedtls/library\x509_crt.c ****     uint32_t flags;
  87:C:/Users/Yushev/git/wpcqi-optiga-trust-charge/optiga/externals/mbedtls/library\x509_crt.c **** } x509_crt_verify_chain_item;
  88:C:/Users/Yushev/git/wpcqi-optiga-trust-charge/optiga/externals/mbedtls/library\x509_crt.c **** 
  89:C:/Users/Yushev/git/wpcqi-optiga-trust-charge/optiga/externals/mbedtls/library\x509_crt.c **** /*
  90:C:/Users/Yushev/git/wpcqi-optiga-trust-charge/optiga/externals/mbedtls/library\x509_crt.c ****  * Max size of verification chain: end-entity + intermediates + trusted root
  91:C:/Users/Yushev/git/wpcqi-optiga-trust-charge/optiga/externals/mbedtls/library\x509_crt.c ****  */
  92:C:/Users/Yushev/git/wpcqi-optiga-trust-charge/optiga/externals/mbedtls/library\x509_crt.c **** #define X509_MAX_VERIFY_CHAIN_SIZE    ( MBEDTLS_X509_MAX_INTERMEDIATE_CA + 2 )
  93:C:/Users/Yushev/git/wpcqi-optiga-trust-charge/optiga/externals/mbedtls/library\x509_crt.c **** 
  94:C:/Users/Yushev/git/wpcqi-optiga-trust-charge/optiga/externals/mbedtls/library\x509_crt.c **** /*
  95:C:/Users/Yushev/git/wpcqi-optiga-trust-charge/optiga/externals/mbedtls/library\x509_crt.c ****  * Default profile
  96:C:/Users/Yushev/git/wpcqi-optiga-trust-charge/optiga/externals/mbedtls/library\x509_crt.c ****  */
  97:C:/Users/Yushev/git/wpcqi-optiga-trust-charge/optiga/externals/mbedtls/library\x509_crt.c **** const mbedtls_x509_crt_profile mbedtls_x509_crt_profile_default =
  98:C:/Users/Yushev/git/wpcqi-optiga-trust-charge/optiga/externals/mbedtls/library\x509_crt.c **** {
  99:C:/Users/Yushev/git/wpcqi-optiga-trust-charge/optiga/externals/mbedtls/library\x509_crt.c **** #if defined(MBEDTLS_TLS_DEFAULT_ALLOW_SHA1_IN_CERTIFICATES)
 100:C:/Users/Yushev/git/wpcqi-optiga-trust-charge/optiga/externals/mbedtls/library\x509_crt.c ****     /* Allow SHA-1 (weak, but still safe in controlled environments) */
 101:C:/Users/Yushev/git/wpcqi-optiga-trust-charge/optiga/externals/mbedtls/library\x509_crt.c ****     MBEDTLS_X509_ID_FLAG( MBEDTLS_MD_SHA1 ) |
 102:C:/Users/Yushev/git/wpcqi-optiga-trust-charge/optiga/externals/mbedtls/library\x509_crt.c **** #endif
 103:C:/Users/Yushev/git/wpcqi-optiga-trust-charge/optiga/externals/mbedtls/library\x509_crt.c ****     /* Only SHA-2 hashes */
 104:C:/Users/Yushev/git/wpcqi-optiga-trust-charge/optiga/externals/mbedtls/library\x509_crt.c ****     MBEDTLS_X509_ID_FLAG( MBEDTLS_MD_SHA224 ) |
 105:C:/Users/Yushev/git/wpcqi-optiga-trust-charge/optiga/externals/mbedtls/library\x509_crt.c ****     MBEDTLS_X509_ID_FLAG( MBEDTLS_MD_SHA256 ) |
 106:C:/Users/Yushev/git/wpcqi-optiga-trust-charge/optiga/externals/mbedtls/library\x509_crt.c ****     MBEDTLS_X509_ID_FLAG( MBEDTLS_MD_SHA384 ) |
 107:C:/Users/Yushev/git/wpcqi-optiga-trust-charge/optiga/externals/mbedtls/library\x509_crt.c ****     MBEDTLS_X509_ID_FLAG( MBEDTLS_MD_SHA512 ),
 108:C:/Users/Yushev/git/wpcqi-optiga-trust-charge/optiga/externals/mbedtls/library\x509_crt.c ****     0xFFFFFFF, /* Any PK alg    */
 109:C:/Users/Yushev/git/wpcqi-optiga-trust-charge/optiga/externals/mbedtls/library\x509_crt.c ****     0xFFFFFFF, /* Any curve     */
 110:C:/Users/Yushev/git/wpcqi-optiga-trust-charge/optiga/externals/mbedtls/library\x509_crt.c ****     2048,
 111:C:/Users/Yushev/git/wpcqi-optiga-trust-charge/optiga/externals/mbedtls/library\x509_crt.c **** };
 112:C:/Users/Yushev/git/wpcqi-optiga-trust-charge/optiga/externals/mbedtls/library\x509_crt.c **** 
 113:C:/Users/Yushev/git/wpcqi-optiga-trust-charge/optiga/externals/mbedtls/library\x509_crt.c **** /*
 114:C:/Users/Yushev/git/wpcqi-optiga-trust-charge/optiga/externals/mbedtls/library\x509_crt.c ****  * Next-default profile
 115:C:/Users/Yushev/git/wpcqi-optiga-trust-charge/optiga/externals/mbedtls/library\x509_crt.c ****  */
 116:C:/Users/Yushev/git/wpcqi-optiga-trust-charge/optiga/externals/mbedtls/library\x509_crt.c **** const mbedtls_x509_crt_profile mbedtls_x509_crt_profile_next =
 117:C:/Users/Yushev/git/wpcqi-optiga-trust-charge/optiga/externals/mbedtls/library\x509_crt.c **** {
 118:C:/Users/Yushev/git/wpcqi-optiga-trust-charge/optiga/externals/mbedtls/library\x509_crt.c ****     /* Hashes from SHA-256 and above */
 119:C:/Users/Yushev/git/wpcqi-optiga-trust-charge/optiga/externals/mbedtls/library\x509_crt.c ****     MBEDTLS_X509_ID_FLAG( MBEDTLS_MD_SHA256 ) |
 120:C:/Users/Yushev/git/wpcqi-optiga-trust-charge/optiga/externals/mbedtls/library\x509_crt.c ****     MBEDTLS_X509_ID_FLAG( MBEDTLS_MD_SHA384 ) |
 121:C:/Users/Yushev/git/wpcqi-optiga-trust-charge/optiga/externals/mbedtls/library\x509_crt.c ****     MBEDTLS_X509_ID_FLAG( MBEDTLS_MD_SHA512 ),
 122:C:/Users/Yushev/git/wpcqi-optiga-trust-charge/optiga/externals/mbedtls/library\x509_crt.c ****     0xFFFFFFF, /* Any PK alg    */
 123:C:/Users/Yushev/git/wpcqi-optiga-trust-charge/optiga/externals/mbedtls/library\x509_crt.c **** #if defined(MBEDTLS_ECP_C)
 124:C:/Users/Yushev/git/wpcqi-optiga-trust-charge/optiga/externals/mbedtls/library\x509_crt.c ****     /* Curves at or above 128-bit security level */
 125:C:/Users/Yushev/git/wpcqi-optiga-trust-charge/optiga/externals/mbedtls/library\x509_crt.c ****     MBEDTLS_X509_ID_FLAG( MBEDTLS_ECP_DP_SECP256R1 ) |
 126:C:/Users/Yushev/git/wpcqi-optiga-trust-charge/optiga/externals/mbedtls/library\x509_crt.c ****     MBEDTLS_X509_ID_FLAG( MBEDTLS_ECP_DP_SECP384R1 ) |
 127:C:/Users/Yushev/git/wpcqi-optiga-trust-charge/optiga/externals/mbedtls/library\x509_crt.c ****     MBEDTLS_X509_ID_FLAG( MBEDTLS_ECP_DP_SECP521R1 ) |
 128:C:/Users/Yushev/git/wpcqi-optiga-trust-charge/optiga/externals/mbedtls/library\x509_crt.c ****     MBEDTLS_X509_ID_FLAG( MBEDTLS_ECP_DP_BP256R1 ) |
 129:C:/Users/Yushev/git/wpcqi-optiga-trust-charge/optiga/externals/mbedtls/library\x509_crt.c ****     MBEDTLS_X509_ID_FLAG( MBEDTLS_ECP_DP_BP384R1 ) |
 130:C:/Users/Yushev/git/wpcqi-optiga-trust-charge/optiga/externals/mbedtls/library\x509_crt.c ****     MBEDTLS_X509_ID_FLAG( MBEDTLS_ECP_DP_BP512R1 ) |
 131:C:/Users/Yushev/git/wpcqi-optiga-trust-charge/optiga/externals/mbedtls/library\x509_crt.c ****     MBEDTLS_X509_ID_FLAG( MBEDTLS_ECP_DP_SECP256K1 ),
 132:C:/Users/Yushev/git/wpcqi-optiga-trust-charge/optiga/externals/mbedtls/library\x509_crt.c **** #else
 133:C:/Users/Yushev/git/wpcqi-optiga-trust-charge/optiga/externals/mbedtls/library\x509_crt.c ****     0,
 134:C:/Users/Yushev/git/wpcqi-optiga-trust-charge/optiga/externals/mbedtls/library\x509_crt.c **** #endif
 135:C:/Users/Yushev/git/wpcqi-optiga-trust-charge/optiga/externals/mbedtls/library\x509_crt.c ****     2048,
 136:C:/Users/Yushev/git/wpcqi-optiga-trust-charge/optiga/externals/mbedtls/library\x509_crt.c **** };
 137:C:/Users/Yushev/git/wpcqi-optiga-trust-charge/optiga/externals/mbedtls/library\x509_crt.c **** 
 138:C:/Users/Yushev/git/wpcqi-optiga-trust-charge/optiga/externals/mbedtls/library\x509_crt.c **** /*
 139:C:/Users/Yushev/git/wpcqi-optiga-trust-charge/optiga/externals/mbedtls/library\x509_crt.c ****  * NSA Suite B Profile
 140:C:/Users/Yushev/git/wpcqi-optiga-trust-charge/optiga/externals/mbedtls/library\x509_crt.c ****  */
 141:C:/Users/Yushev/git/wpcqi-optiga-trust-charge/optiga/externals/mbedtls/library\x509_crt.c **** const mbedtls_x509_crt_profile mbedtls_x509_crt_profile_suiteb =
 142:C:/Users/Yushev/git/wpcqi-optiga-trust-charge/optiga/externals/mbedtls/library\x509_crt.c **** {
 143:C:/Users/Yushev/git/wpcqi-optiga-trust-charge/optiga/externals/mbedtls/library\x509_crt.c ****     /* Only SHA-256 and 384 */
 144:C:/Users/Yushev/git/wpcqi-optiga-trust-charge/optiga/externals/mbedtls/library\x509_crt.c ****     MBEDTLS_X509_ID_FLAG( MBEDTLS_MD_SHA256 ) |
 145:C:/Users/Yushev/git/wpcqi-optiga-trust-charge/optiga/externals/mbedtls/library\x509_crt.c ****     MBEDTLS_X509_ID_FLAG( MBEDTLS_MD_SHA384 ),
 146:C:/Users/Yushev/git/wpcqi-optiga-trust-charge/optiga/externals/mbedtls/library\x509_crt.c ****     /* Only ECDSA */
 147:C:/Users/Yushev/git/wpcqi-optiga-trust-charge/optiga/externals/mbedtls/library\x509_crt.c ****     MBEDTLS_X509_ID_FLAG( MBEDTLS_PK_ECDSA ) |
 148:C:/Users/Yushev/git/wpcqi-optiga-trust-charge/optiga/externals/mbedtls/library\x509_crt.c ****     MBEDTLS_X509_ID_FLAG( MBEDTLS_PK_ECKEY ),
 149:C:/Users/Yushev/git/wpcqi-optiga-trust-charge/optiga/externals/mbedtls/library\x509_crt.c **** #if defined(MBEDTLS_ECP_C)
 150:C:/Users/Yushev/git/wpcqi-optiga-trust-charge/optiga/externals/mbedtls/library\x509_crt.c ****     /* Only NIST P-256 and P-384 */
 151:C:/Users/Yushev/git/wpcqi-optiga-trust-charge/optiga/externals/mbedtls/library\x509_crt.c ****     MBEDTLS_X509_ID_FLAG( MBEDTLS_ECP_DP_SECP256R1 ) |
 152:C:/Users/Yushev/git/wpcqi-optiga-trust-charge/optiga/externals/mbedtls/library\x509_crt.c ****     MBEDTLS_X509_ID_FLAG( MBEDTLS_ECP_DP_SECP384R1 ),
 153:C:/Users/Yushev/git/wpcqi-optiga-trust-charge/optiga/externals/mbedtls/library\x509_crt.c **** #else
 154:C:/Users/Yushev/git/wpcqi-optiga-trust-charge/optiga/externals/mbedtls/library\x509_crt.c ****     0,
 155:C:/Users/Yushev/git/wpcqi-optiga-trust-charge/optiga/externals/mbedtls/library\x509_crt.c **** #endif
 156:C:/Users/Yushev/git/wpcqi-optiga-trust-charge/optiga/externals/mbedtls/library\x509_crt.c ****     0,
 157:C:/Users/Yushev/git/wpcqi-optiga-trust-charge/optiga/externals/mbedtls/library\x509_crt.c **** };
 158:C:/Users/Yushev/git/wpcqi-optiga-trust-charge/optiga/externals/mbedtls/library\x509_crt.c **** 
 159:C:/Users/Yushev/git/wpcqi-optiga-trust-charge/optiga/externals/mbedtls/library\x509_crt.c **** /*
 160:C:/Users/Yushev/git/wpcqi-optiga-trust-charge/optiga/externals/mbedtls/library\x509_crt.c ****  * Check md_alg against profile
 161:C:/Users/Yushev/git/wpcqi-optiga-trust-charge/optiga/externals/mbedtls/library\x509_crt.c ****  * Return 0 if md_alg is acceptable for this profile, -1 otherwise
 162:C:/Users/Yushev/git/wpcqi-optiga-trust-charge/optiga/externals/mbedtls/library\x509_crt.c ****  */
 163:C:/Users/Yushev/git/wpcqi-optiga-trust-charge/optiga/externals/mbedtls/library\x509_crt.c **** static int x509_profile_check_md_alg( const mbedtls_x509_crt_profile *profile,
 164:C:/Users/Yushev/git/wpcqi-optiga-trust-charge/optiga/externals/mbedtls/library\x509_crt.c ****                                       mbedtls_md_type_t md_alg )
 165:C:/Users/Yushev/git/wpcqi-optiga-trust-charge/optiga/externals/mbedtls/library\x509_crt.c **** {
 101              	 .loc 2 165 0
 102              	 .cfi_startproc
 103              	 
 104              	 
 105              	 
 106 0000 80B4     	 push {r7}
 107              	.LCFI6:
 108              	 .cfi_def_cfa_offset 4
 109              	 .cfi_offset 7,-4
 110 0002 83B0     	 sub sp,sp,#12
 111              	.LCFI7:
 112              	 .cfi_def_cfa_offset 16
 113 0004 00AF     	 add r7,sp,#0
 114              	.LCFI8:
 115              	 .cfi_def_cfa_register 7
 116 0006 7860     	 str r0,[r7,#4]
 117 0008 0B46     	 mov r3,r1
 118 000a FB70     	 strb r3,[r7,#3]
 166:C:/Users/Yushev/git/wpcqi-optiga-trust-charge/optiga/externals/mbedtls/library\x509_crt.c ****     if( md_alg == MBEDTLS_MD_NONE )
 119              	 .loc 2 166 0
 120 000c FB78     	 ldrb r3,[r7,#3]
 121 000e 002B     	 cmp r3,#0
 122 0010 02D1     	 bne .L4
 167:C:/Users/Yushev/git/wpcqi-optiga-trust-charge/optiga/externals/mbedtls/library\x509_crt.c ****         return( -1 );
 123              	 .loc 2 167 0
 124 0012 4FF0FF33 	 mov r3,#-1
 125 0016 0DE0     	 b .L5
 126              	.L4:
 168:C:/Users/Yushev/git/wpcqi-optiga-trust-charge/optiga/externals/mbedtls/library\x509_crt.c **** 
 169:C:/Users/Yushev/git/wpcqi-optiga-trust-charge/optiga/externals/mbedtls/library\x509_crt.c ****     if( ( profile->allowed_mds & MBEDTLS_X509_ID_FLAG( md_alg ) ) != 0 )
 127              	 .loc 2 169 0
 128 0018 7B68     	 ldr r3,[r7,#4]
 129 001a 1B68     	 ldr r3,[r3]
 130 001c FA78     	 ldrb r2,[r7,#3]
 131 001e 013A     	 subs r2,r2,#1
 132 0020 0121     	 movs r1,#1
 133 0022 01FA02F2 	 lsl r2,r1,r2
 134 0026 1340     	 ands r3,r3,r2
 135 0028 002B     	 cmp r3,#0
 136 002a 01D0     	 beq .L6
 170:C:/Users/Yushev/git/wpcqi-optiga-trust-charge/optiga/externals/mbedtls/library\x509_crt.c ****         return( 0 );
 137              	 .loc 2 170 0
 138 002c 0023     	 movs r3,#0
 139 002e 01E0     	 b .L5
 140              	.L6:
 171:C:/Users/Yushev/git/wpcqi-optiga-trust-charge/optiga/externals/mbedtls/library\x509_crt.c **** 
 172:C:/Users/Yushev/git/wpcqi-optiga-trust-charge/optiga/externals/mbedtls/library\x509_crt.c ****     return( -1 );
 141              	 .loc 2 172 0
 142 0030 4FF0FF33 	 mov r3,#-1
 143              	.L5:
 173:C:/Users/Yushev/git/wpcqi-optiga-trust-charge/optiga/externals/mbedtls/library\x509_crt.c **** }
 144              	 .loc 2 173 0
 145 0034 1846     	 mov r0,r3
 146 0036 0C37     	 adds r7,r7,#12
 147              	.LCFI9:
 148              	 .cfi_def_cfa_offset 4
 149 0038 BD46     	 mov sp,r7
 150              	.LCFI10:
 151              	 .cfi_def_cfa_register 13
 152              	 
 153 003a 5DF8047B 	 ldr r7,[sp],#4
 154              	.LCFI11:
 155              	 .cfi_restore 7
 156              	 .cfi_def_cfa_offset 0
 157 003e 7047     	 bx lr
 158              	 .cfi_endproc
 159              	.LFE9:
 161              	 .section .text.x509_profile_check_pk_alg,"ax",%progbits
 162              	 .align 2
 163              	 .thumb
 164              	 .thumb_func
 166              	x509_profile_check_pk_alg:
 167              	.LFB10:
 174:C:/Users/Yushev/git/wpcqi-optiga-trust-charge/optiga/externals/mbedtls/library\x509_crt.c **** 
 175:C:/Users/Yushev/git/wpcqi-optiga-trust-charge/optiga/externals/mbedtls/library\x509_crt.c **** /*
 176:C:/Users/Yushev/git/wpcqi-optiga-trust-charge/optiga/externals/mbedtls/library\x509_crt.c ****  * Check pk_alg against profile
 177:C:/Users/Yushev/git/wpcqi-optiga-trust-charge/optiga/externals/mbedtls/library\x509_crt.c ****  * Return 0 if pk_alg is acceptable for this profile, -1 otherwise
 178:C:/Users/Yushev/git/wpcqi-optiga-trust-charge/optiga/externals/mbedtls/library\x509_crt.c ****  */
 179:C:/Users/Yushev/git/wpcqi-optiga-trust-charge/optiga/externals/mbedtls/library\x509_crt.c **** static int x509_profile_check_pk_alg( const mbedtls_x509_crt_profile *profile,
 180:C:/Users/Yushev/git/wpcqi-optiga-trust-charge/optiga/externals/mbedtls/library\x509_crt.c ****                                       mbedtls_pk_type_t pk_alg )
 181:C:/Users/Yushev/git/wpcqi-optiga-trust-charge/optiga/externals/mbedtls/library\x509_crt.c **** {
 168              	 .loc 2 181 0
 169              	 .cfi_startproc
 170              	 
 171              	 
 172              	 
 173 0000 80B4     	 push {r7}
 174              	.LCFI12:
 175              	 .cfi_def_cfa_offset 4
 176              	 .cfi_offset 7,-4
 177 0002 83B0     	 sub sp,sp,#12
 178              	.LCFI13:
 179              	 .cfi_def_cfa_offset 16
 180 0004 00AF     	 add r7,sp,#0
 181              	.LCFI14:
 182              	 .cfi_def_cfa_register 7
 183 0006 7860     	 str r0,[r7,#4]
 184 0008 0B46     	 mov r3,r1
 185 000a FB70     	 strb r3,[r7,#3]
 182:C:/Users/Yushev/git/wpcqi-optiga-trust-charge/optiga/externals/mbedtls/library\x509_crt.c ****     if( pk_alg == MBEDTLS_PK_NONE )
 186              	 .loc 2 182 0
 187 000c FB78     	 ldrb r3,[r7,#3]
 188 000e 002B     	 cmp r3,#0
 189 0010 02D1     	 bne .L8
 183:C:/Users/Yushev/git/wpcqi-optiga-trust-charge/optiga/externals/mbedtls/library\x509_crt.c ****         return( -1 );
 190              	 .loc 2 183 0
 191 0012 4FF0FF33 	 mov r3,#-1
 192 0016 0DE0     	 b .L9
 193              	.L8:
 184:C:/Users/Yushev/git/wpcqi-optiga-trust-charge/optiga/externals/mbedtls/library\x509_crt.c **** 
 185:C:/Users/Yushev/git/wpcqi-optiga-trust-charge/optiga/externals/mbedtls/library\x509_crt.c ****     if( ( profile->allowed_pks & MBEDTLS_X509_ID_FLAG( pk_alg ) ) != 0 )
 194              	 .loc 2 185 0
 195 0018 7B68     	 ldr r3,[r7,#4]
 196 001a 5B68     	 ldr r3,[r3,#4]
 197 001c FA78     	 ldrb r2,[r7,#3]
 198 001e 013A     	 subs r2,r2,#1
 199 0020 0121     	 movs r1,#1
 200 0022 01FA02F2 	 lsl r2,r1,r2
 201 0026 1340     	 ands r3,r3,r2
 202 0028 002B     	 cmp r3,#0
 203 002a 01D0     	 beq .L10
 186:C:/Users/Yushev/git/wpcqi-optiga-trust-charge/optiga/externals/mbedtls/library\x509_crt.c ****         return( 0 );
 204              	 .loc 2 186 0
 205 002c 0023     	 movs r3,#0
 206 002e 01E0     	 b .L9
 207              	.L10:
 187:C:/Users/Yushev/git/wpcqi-optiga-trust-charge/optiga/externals/mbedtls/library\x509_crt.c **** 
 188:C:/Users/Yushev/git/wpcqi-optiga-trust-charge/optiga/externals/mbedtls/library\x509_crt.c ****     return( -1 );
 208              	 .loc 2 188 0
 209 0030 4FF0FF33 	 mov r3,#-1
 210              	.L9:
 189:C:/Users/Yushev/git/wpcqi-optiga-trust-charge/optiga/externals/mbedtls/library\x509_crt.c **** }
 211              	 .loc 2 189 0
 212 0034 1846     	 mov r0,r3
 213 0036 0C37     	 adds r7,r7,#12
 214              	.LCFI15:
 215              	 .cfi_def_cfa_offset 4
 216 0038 BD46     	 mov sp,r7
 217              	.LCFI16:
 218              	 .cfi_def_cfa_register 13
 219              	 
 220 003a 5DF8047B 	 ldr r7,[sp],#4
 221              	.LCFI17:
 222              	 .cfi_restore 7
 223              	 .cfi_def_cfa_offset 0
 224 003e 7047     	 bx lr
 225              	 .cfi_endproc
 226              	.LFE10:
 228              	 .section .text.x509_profile_check_key,"ax",%progbits
 229              	 .align 2
 230              	 .thumb
 231              	 .thumb_func
 233              	x509_profile_check_key:
 234              	.LFB11:
 190:C:/Users/Yushev/git/wpcqi-optiga-trust-charge/optiga/externals/mbedtls/library\x509_crt.c **** 
 191:C:/Users/Yushev/git/wpcqi-optiga-trust-charge/optiga/externals/mbedtls/library\x509_crt.c **** /*
 192:C:/Users/Yushev/git/wpcqi-optiga-trust-charge/optiga/externals/mbedtls/library\x509_crt.c ****  * Check key against profile
 193:C:/Users/Yushev/git/wpcqi-optiga-trust-charge/optiga/externals/mbedtls/library\x509_crt.c ****  * Return 0 if pk is acceptable for this profile, -1 otherwise
 194:C:/Users/Yushev/git/wpcqi-optiga-trust-charge/optiga/externals/mbedtls/library\x509_crt.c ****  */
 195:C:/Users/Yushev/git/wpcqi-optiga-trust-charge/optiga/externals/mbedtls/library\x509_crt.c **** static int x509_profile_check_key( const mbedtls_x509_crt_profile *profile,
 196:C:/Users/Yushev/git/wpcqi-optiga-trust-charge/optiga/externals/mbedtls/library\x509_crt.c ****                                    const mbedtls_pk_context *pk )
 197:C:/Users/Yushev/git/wpcqi-optiga-trust-charge/optiga/externals/mbedtls/library\x509_crt.c **** {
 235              	 .loc 2 197 0
 236              	 .cfi_startproc
 237              	 
 238              	 
 239 0000 80B5     	 push {r7,lr}
 240              	.LCFI18:
 241              	 .cfi_def_cfa_offset 8
 242              	 .cfi_offset 7,-8
 243              	 .cfi_offset 14,-4
 244 0002 84B0     	 sub sp,sp,#16
 245              	.LCFI19:
 246              	 .cfi_def_cfa_offset 24
 247 0004 00AF     	 add r7,sp,#0
 248              	.LCFI20:
 249              	 .cfi_def_cfa_register 7
 250 0006 7860     	 str r0,[r7,#4]
 251 0008 3960     	 str r1,[r7]
 198:C:/Users/Yushev/git/wpcqi-optiga-trust-charge/optiga/externals/mbedtls/library\x509_crt.c ****     const mbedtls_pk_type_t pk_alg = mbedtls_pk_get_type( pk );
 252              	 .loc 2 198 0
 253 000a 3868     	 ldr r0,[r7]
 254 000c FFF7FEFF 	 bl mbedtls_pk_get_type
 255 0010 0346     	 mov r3,r0
 256 0012 FB73     	 strb r3,[r7,#15]
 199:C:/Users/Yushev/git/wpcqi-optiga-trust-charge/optiga/externals/mbedtls/library\x509_crt.c **** 
 200:C:/Users/Yushev/git/wpcqi-optiga-trust-charge/optiga/externals/mbedtls/library\x509_crt.c **** #if defined(MBEDTLS_RSA_C)
 201:C:/Users/Yushev/git/wpcqi-optiga-trust-charge/optiga/externals/mbedtls/library\x509_crt.c ****     if( pk_alg == MBEDTLS_PK_RSA || pk_alg == MBEDTLS_PK_RSASSA_PSS )
 202:C:/Users/Yushev/git/wpcqi-optiga-trust-charge/optiga/externals/mbedtls/library\x509_crt.c ****     {
 203:C:/Users/Yushev/git/wpcqi-optiga-trust-charge/optiga/externals/mbedtls/library\x509_crt.c ****         if( mbedtls_pk_get_bitlen( pk ) >= profile->rsa_min_bitlen )
 204:C:/Users/Yushev/git/wpcqi-optiga-trust-charge/optiga/externals/mbedtls/library\x509_crt.c ****             return( 0 );
 205:C:/Users/Yushev/git/wpcqi-optiga-trust-charge/optiga/externals/mbedtls/library\x509_crt.c **** 
 206:C:/Users/Yushev/git/wpcqi-optiga-trust-charge/optiga/externals/mbedtls/library\x509_crt.c ****         return( -1 );
 207:C:/Users/Yushev/git/wpcqi-optiga-trust-charge/optiga/externals/mbedtls/library\x509_crt.c ****     }
 208:C:/Users/Yushev/git/wpcqi-optiga-trust-charge/optiga/externals/mbedtls/library\x509_crt.c **** #endif
 209:C:/Users/Yushev/git/wpcqi-optiga-trust-charge/optiga/externals/mbedtls/library\x509_crt.c **** 
 210:C:/Users/Yushev/git/wpcqi-optiga-trust-charge/optiga/externals/mbedtls/library\x509_crt.c **** #if defined(MBEDTLS_ECP_C)
 211:C:/Users/Yushev/git/wpcqi-optiga-trust-charge/optiga/externals/mbedtls/library\x509_crt.c ****     if( pk_alg == MBEDTLS_PK_ECDSA ||
 257              	 .loc 2 211 0
 258 0014 FB7B     	 ldrb r3,[r7,#15]
 259 0016 042B     	 cmp r3,#4
 260 0018 05D0     	 beq .L12
 261              	 .loc 2 211 0 is_stmt 0 discriminator 1
 262 001a FB7B     	 ldrb r3,[r7,#15]
 263 001c 022B     	 cmp r3,#2
 264 001e 02D0     	 beq .L12
 212:C:/Users/Yushev/git/wpcqi-optiga-trust-charge/optiga/externals/mbedtls/library\x509_crt.c ****         pk_alg == MBEDTLS_PK_ECKEY ||
 265              	 .loc 2 212 0 is_stmt 1
 266 0020 FB7B     	 ldrb r3,[r7,#15]
 267 0022 032B     	 cmp r3,#3
 268 0024 1CD1     	 bne .L13
 269              	.L12:
 270              	.LBB2:
 213:C:/Users/Yushev/git/wpcqi-optiga-trust-charge/optiga/externals/mbedtls/library\x509_crt.c ****         pk_alg == MBEDTLS_PK_ECKEY_DH )
 214:C:/Users/Yushev/git/wpcqi-optiga-trust-charge/optiga/externals/mbedtls/library\x509_crt.c ****     {
 215:C:/Users/Yushev/git/wpcqi-optiga-trust-charge/optiga/externals/mbedtls/library\x509_crt.c ****         const mbedtls_ecp_group_id gid = mbedtls_pk_ec( *pk )->grp.id;
 271              	 .loc 2 215 0
 272 0026 3B68     	 ldr r3,[r7]
 273 0028 93E80300 	 ldmia r3,{r0,r1}
 274 002c FFF7FEFF 	 bl mbedtls_pk_ec
 275 0030 0346     	 mov r3,r0
 276 0032 1B78     	 ldrb r3,[r3]
 277 0034 BB73     	 strb r3,[r7,#14]
 216:C:/Users/Yushev/git/wpcqi-optiga-trust-charge/optiga/externals/mbedtls/library\x509_crt.c **** 
 217:C:/Users/Yushev/git/wpcqi-optiga-trust-charge/optiga/externals/mbedtls/library\x509_crt.c ****         if( gid == MBEDTLS_ECP_DP_NONE )
 278              	 .loc 2 217 0
 279 0036 BB7B     	 ldrb r3,[r7,#14]
 280 0038 002B     	 cmp r3,#0
 281 003a 02D1     	 bne .L14
 218:C:/Users/Yushev/git/wpcqi-optiga-trust-charge/optiga/externals/mbedtls/library\x509_crt.c ****             return( -1 );
 282              	 .loc 2 218 0
 283 003c 4FF0FF33 	 mov r3,#-1
 284 0040 10E0     	 b .L15
 285              	.L14:
 219:C:/Users/Yushev/git/wpcqi-optiga-trust-charge/optiga/externals/mbedtls/library\x509_crt.c **** 
 220:C:/Users/Yushev/git/wpcqi-optiga-trust-charge/optiga/externals/mbedtls/library\x509_crt.c ****         if( ( profile->allowed_curves & MBEDTLS_X509_ID_FLAG( gid ) ) != 0 )
 286              	 .loc 2 220 0
 287 0042 7B68     	 ldr r3,[r7,#4]
 288 0044 9B68     	 ldr r3,[r3,#8]
 289 0046 BA7B     	 ldrb r2,[r7,#14]
 290 0048 013A     	 subs r2,r2,#1
 291 004a 0121     	 movs r1,#1
 292 004c 01FA02F2 	 lsl r2,r1,r2
 293 0050 1340     	 ands r3,r3,r2
 294 0052 002B     	 cmp r3,#0
 295 0054 01D0     	 beq .L16
 221:C:/Users/Yushev/git/wpcqi-optiga-trust-charge/optiga/externals/mbedtls/library\x509_crt.c ****             return( 0 );
 296              	 .loc 2 221 0
 297 0056 0023     	 movs r3,#0
 298 0058 04E0     	 b .L15
 299              	.L16:
 222:C:/Users/Yushev/git/wpcqi-optiga-trust-charge/optiga/externals/mbedtls/library\x509_crt.c **** 
 223:C:/Users/Yushev/git/wpcqi-optiga-trust-charge/optiga/externals/mbedtls/library\x509_crt.c ****         return( -1 );
 300              	 .loc 2 223 0
 301 005a 4FF0FF33 	 mov r3,#-1
 302 005e 01E0     	 b .L15
 303              	.L13:
 304              	.LBE2:
 224:C:/Users/Yushev/git/wpcqi-optiga-trust-charge/optiga/externals/mbedtls/library\x509_crt.c ****     }
 225:C:/Users/Yushev/git/wpcqi-optiga-trust-charge/optiga/externals/mbedtls/library\x509_crt.c **** #endif
 226:C:/Users/Yushev/git/wpcqi-optiga-trust-charge/optiga/externals/mbedtls/library\x509_crt.c **** 
 227:C:/Users/Yushev/git/wpcqi-optiga-trust-charge/optiga/externals/mbedtls/library\x509_crt.c ****     return( -1 );
 305              	 .loc 2 227 0
 306 0060 4FF0FF33 	 mov r3,#-1
 307              	.L15:
 228:C:/Users/Yushev/git/wpcqi-optiga-trust-charge/optiga/externals/mbedtls/library\x509_crt.c **** }
 308              	 .loc 2 228 0
 309 0064 1846     	 mov r0,r3
 310 0066 1037     	 adds r7,r7,#16
 311              	.LCFI21:
 312              	 .cfi_def_cfa_offset 8
 313 0068 BD46     	 mov sp,r7
 314              	.LCFI22:
 315              	 .cfi_def_cfa_register 13
 316              	 
 317 006a 80BD     	 pop {r7,pc}
 318              	 .cfi_endproc
 319              	.LFE11:
 321              	 .section .text.x509_memcasecmp,"ax",%progbits
 322              	 .align 2
 323              	 .thumb
 324              	 .thumb_func
 326              	x509_memcasecmp:
 327              	.LFB12:
 229:C:/Users/Yushev/git/wpcqi-optiga-trust-charge/optiga/externals/mbedtls/library\x509_crt.c **** 
 230:C:/Users/Yushev/git/wpcqi-optiga-trust-charge/optiga/externals/mbedtls/library\x509_crt.c **** /*
 231:C:/Users/Yushev/git/wpcqi-optiga-trust-charge/optiga/externals/mbedtls/library\x509_crt.c ****  * Like memcmp, but case-insensitive and always returns -1 if different
 232:C:/Users/Yushev/git/wpcqi-optiga-trust-charge/optiga/externals/mbedtls/library\x509_crt.c ****  */
 233:C:/Users/Yushev/git/wpcqi-optiga-trust-charge/optiga/externals/mbedtls/library\x509_crt.c **** static int x509_memcasecmp( const void *s1, const void *s2, size_t len )
 234:C:/Users/Yushev/git/wpcqi-optiga-trust-charge/optiga/externals/mbedtls/library\x509_crt.c **** {
 328              	 .loc 2 234 0
 329              	 .cfi_startproc
 330              	 
 331              	 
 332              	 
 333 0000 80B4     	 push {r7}
 334              	.LCFI23:
 335              	 .cfi_def_cfa_offset 4
 336              	 .cfi_offset 7,-4
 337 0002 89B0     	 sub sp,sp,#36
 338              	.LCFI24:
 339              	 .cfi_def_cfa_offset 40
 340 0004 00AF     	 add r7,sp,#0
 341              	.LCFI25:
 342              	 .cfi_def_cfa_register 7
 343 0006 F860     	 str r0,[r7,#12]
 344 0008 B960     	 str r1,[r7,#8]
 345 000a 7A60     	 str r2,[r7,#4]
 235:C:/Users/Yushev/git/wpcqi-optiga-trust-charge/optiga/externals/mbedtls/library\x509_crt.c ****     size_t i;
 236:C:/Users/Yushev/git/wpcqi-optiga-trust-charge/optiga/externals/mbedtls/library\x509_crt.c ****     unsigned char diff;
 237:C:/Users/Yushev/git/wpcqi-optiga-trust-charge/optiga/externals/mbedtls/library\x509_crt.c ****     const unsigned char *n1 = s1, *n2 = s2;
 346              	 .loc 2 237 0
 347 000c FB68     	 ldr r3,[r7,#12]
 348 000e BB61     	 str r3,[r7,#24]
 349 0010 BB68     	 ldr r3,[r7,#8]
 350 0012 7B61     	 str r3,[r7,#20]
 238:C:/Users/Yushev/git/wpcqi-optiga-trust-charge/optiga/externals/mbedtls/library\x509_crt.c **** 
 239:C:/Users/Yushev/git/wpcqi-optiga-trust-charge/optiga/externals/mbedtls/library\x509_crt.c ****     for( i = 0; i < len; i++ )
 351              	 .loc 2 239 0
 352 0014 0023     	 movs r3,#0
 353 0016 FB61     	 str r3,[r7,#28]
 354 0018 2FE0     	 b .L18
 355              	.L25:
 240:C:/Users/Yushev/git/wpcqi-optiga-trust-charge/optiga/externals/mbedtls/library\x509_crt.c ****     {
 241:C:/Users/Yushev/git/wpcqi-optiga-trust-charge/optiga/externals/mbedtls/library\x509_crt.c ****         diff = n1[i] ^ n2[i];
 356              	 .loc 2 241 0
 357 001a BA69     	 ldr r2,[r7,#24]
 358 001c FB69     	 ldr r3,[r7,#28]
 359 001e 1344     	 add r3,r3,r2
 360 0020 1A78     	 ldrb r2,[r3]
 361 0022 7969     	 ldr r1,[r7,#20]
 362 0024 FB69     	 ldr r3,[r7,#28]
 363 0026 0B44     	 add r3,r3,r1
 364 0028 1B78     	 ldrb r3,[r3]
 365 002a 5340     	 eors r3,r3,r2
 366 002c FB74     	 strb r3,[r7,#19]
 242:C:/Users/Yushev/git/wpcqi-optiga-trust-charge/optiga/externals/mbedtls/library\x509_crt.c **** 
 243:C:/Users/Yushev/git/wpcqi-optiga-trust-charge/optiga/externals/mbedtls/library\x509_crt.c ****         if( diff == 0 )
 367              	 .loc 2 243 0
 368 002e FB7C     	 ldrb r3,[r7,#19]
 369 0030 002B     	 cmp r3,#0
 370 0032 00D1     	 bne .L19
 244:C:/Users/Yushev/git/wpcqi-optiga-trust-charge/optiga/externals/mbedtls/library\x509_crt.c ****             continue;
 371              	 .loc 2 244 0
 372 0034 1EE0     	 b .L20
 373              	.L19:
 245:C:/Users/Yushev/git/wpcqi-optiga-trust-charge/optiga/externals/mbedtls/library\x509_crt.c **** 
 246:C:/Users/Yushev/git/wpcqi-optiga-trust-charge/optiga/externals/mbedtls/library\x509_crt.c ****         if( diff == 32 &&
 374              	 .loc 2 246 0
 375 0036 FB7C     	 ldrb r3,[r7,#19]
 376 0038 202B     	 cmp r3,#32
 377 003a 18D1     	 bne .L21
 247:C:/Users/Yushev/git/wpcqi-optiga-trust-charge/optiga/externals/mbedtls/library\x509_crt.c ****             ( ( n1[i] >= 'a' && n1[i] <= 'z' ) ||
 378              	 .loc 2 247 0 discriminator 1
 379 003c BA69     	 ldr r2,[r7,#24]
 380 003e FB69     	 ldr r3,[r7,#28]
 381 0040 1344     	 add r3,r3,r2
 382 0042 1B78     	 ldrb r3,[r3]
 246:C:/Users/Yushev/git/wpcqi-optiga-trust-charge/optiga/externals/mbedtls/library\x509_crt.c ****             ( ( n1[i] >= 'a' && n1[i] <= 'z' ) ||
 383              	 .loc 2 246 0 discriminator 1
 384 0044 602B     	 cmp r3,#96
 385 0046 05D9     	 bls .L22
 386              	 .loc 2 247 0
 387 0048 BA69     	 ldr r2,[r7,#24]
 388 004a FB69     	 ldr r3,[r7,#28]
 389 004c 1344     	 add r3,r3,r2
 390 004e 1B78     	 ldrb r3,[r3]
 391 0050 7A2B     	 cmp r3,#122
 392 0052 0BD9     	 bls .L23
 393              	.L22:
 248:C:/Users/Yushev/git/wpcqi-optiga-trust-charge/optiga/externals/mbedtls/library\x509_crt.c ****               ( n1[i] >= 'A' && n1[i] <= 'Z' ) ) )
 394              	 .loc 2 248 0 discriminator 1
 395 0054 BA69     	 ldr r2,[r7,#24]
 396 0056 FB69     	 ldr r3,[r7,#28]
 397 0058 1344     	 add r3,r3,r2
 398 005a 1B78     	 ldrb r3,[r3]
 247:C:/Users/Yushev/git/wpcqi-optiga-trust-charge/optiga/externals/mbedtls/library\x509_crt.c ****             ( ( n1[i] >= 'a' && n1[i] <= 'z' ) ||
 399              	 .loc 2 247 0 discriminator 1
 400 005c 402B     	 cmp r3,#64
 401 005e 06D9     	 bls .L21
 402              	 .loc 2 248 0
 403 0060 BA69     	 ldr r2,[r7,#24]
 404 0062 FB69     	 ldr r3,[r7,#28]
 405 0064 1344     	 add r3,r3,r2
 406 0066 1B78     	 ldrb r3,[r3]
 407 0068 5A2B     	 cmp r3,#90
 408 006a 00D8     	 bhi .L21
 409              	.L23:
 249:C:/Users/Yushev/git/wpcqi-optiga-trust-charge/optiga/externals/mbedtls/library\x509_crt.c ****         {
 250:C:/Users/Yushev/git/wpcqi-optiga-trust-charge/optiga/externals/mbedtls/library\x509_crt.c ****             continue;
 410              	 .loc 2 250 0
 411 006c 02E0     	 b .L20
 412              	.L21:
 251:C:/Users/Yushev/git/wpcqi-optiga-trust-charge/optiga/externals/mbedtls/library\x509_crt.c ****         }
 252:C:/Users/Yushev/git/wpcqi-optiga-trust-charge/optiga/externals/mbedtls/library\x509_crt.c **** 
 253:C:/Users/Yushev/git/wpcqi-optiga-trust-charge/optiga/externals/mbedtls/library\x509_crt.c ****         return( -1 );
 413              	 .loc 2 253 0
 414 006e 4FF0FF33 	 mov r3,#-1
 415 0072 07E0     	 b .L24
 416              	.L20:
 239:C:/Users/Yushev/git/wpcqi-optiga-trust-charge/optiga/externals/mbedtls/library\x509_crt.c ****     {
 417              	 .loc 2 239 0 discriminator 2
 418 0074 FB69     	 ldr r3,[r7,#28]
 419 0076 0133     	 adds r3,r3,#1
 420 0078 FB61     	 str r3,[r7,#28]
 421              	.L18:
 239:C:/Users/Yushev/git/wpcqi-optiga-trust-charge/optiga/externals/mbedtls/library\x509_crt.c ****     {
 422              	 .loc 2 239 0 is_stmt 0 discriminator 1
 423 007a FA69     	 ldr r2,[r7,#28]
 424 007c 7B68     	 ldr r3,[r7,#4]
 425 007e 9A42     	 cmp r2,r3
 426 0080 CBD3     	 bcc .L25
 254:C:/Users/Yushev/git/wpcqi-optiga-trust-charge/optiga/externals/mbedtls/library\x509_crt.c ****     }
 255:C:/Users/Yushev/git/wpcqi-optiga-trust-charge/optiga/externals/mbedtls/library\x509_crt.c **** 
 256:C:/Users/Yushev/git/wpcqi-optiga-trust-charge/optiga/externals/mbedtls/library\x509_crt.c ****     return( 0 );
 427              	 .loc 2 256 0 is_stmt 1
 428 0082 0023     	 movs r3,#0
 429              	.L24:
 257:C:/Users/Yushev/git/wpcqi-optiga-trust-charge/optiga/externals/mbedtls/library\x509_crt.c **** }
 430              	 .loc 2 257 0
 431 0084 1846     	 mov r0,r3
 432 0086 2437     	 adds r7,r7,#36
 433              	.LCFI26:
 434              	 .cfi_def_cfa_offset 4
 435 0088 BD46     	 mov sp,r7
 436              	.LCFI27:
 437              	 .cfi_def_cfa_register 13
 438              	 
 439 008a 5DF8047B 	 ldr r7,[sp],#4
 440              	.LCFI28:
 441              	 .cfi_restore 7
 442              	 .cfi_def_cfa_offset 0
 443 008e 7047     	 bx lr
 444              	 .cfi_endproc
 445              	.LFE12:
 447              	 .section .text.x509_check_wildcard,"ax",%progbits
 448              	 .align 2
 449              	 .thumb
 450              	 .thumb_func
 452              	x509_check_wildcard:
 453              	.LFB13:
 258:C:/Users/Yushev/git/wpcqi-optiga-trust-charge/optiga/externals/mbedtls/library\x509_crt.c **** 
 259:C:/Users/Yushev/git/wpcqi-optiga-trust-charge/optiga/externals/mbedtls/library\x509_crt.c **** /*
 260:C:/Users/Yushev/git/wpcqi-optiga-trust-charge/optiga/externals/mbedtls/library\x509_crt.c ****  * Return 0 if name matches wildcard, -1 otherwise
 261:C:/Users/Yushev/git/wpcqi-optiga-trust-charge/optiga/externals/mbedtls/library\x509_crt.c ****  */
 262:C:/Users/Yushev/git/wpcqi-optiga-trust-charge/optiga/externals/mbedtls/library\x509_crt.c **** static int x509_check_wildcard( const char *cn, const mbedtls_x509_buf *name )
 263:C:/Users/Yushev/git/wpcqi-optiga-trust-charge/optiga/externals/mbedtls/library\x509_crt.c **** {
 454              	 .loc 2 263 0
 455              	 .cfi_startproc
 456              	 
 457              	 
 458 0000 80B5     	 push {r7,lr}
 459              	.LCFI29:
 460              	 .cfi_def_cfa_offset 8
 461              	 .cfi_offset 7,-8
 462              	 .cfi_offset 14,-4
 463 0002 86B0     	 sub sp,sp,#24
 464              	.LCFI30:
 465              	 .cfi_def_cfa_offset 32
 466 0004 00AF     	 add r7,sp,#0
 467              	.LCFI31:
 468              	 .cfi_def_cfa_register 7
 469 0006 7860     	 str r0,[r7,#4]
 470 0008 3960     	 str r1,[r7]
 264:C:/Users/Yushev/git/wpcqi-optiga-trust-charge/optiga/externals/mbedtls/library\x509_crt.c ****     size_t i;
 265:C:/Users/Yushev/git/wpcqi-optiga-trust-charge/optiga/externals/mbedtls/library\x509_crt.c ****     size_t cn_idx = 0, cn_len = strlen( cn );
 471              	 .loc 2 265 0
 472 000a 0023     	 movs r3,#0
 473 000c 3B61     	 str r3,[r7,#16]
 474 000e 7868     	 ldr r0,[r7,#4]
 475 0010 FFF7FEFF 	 bl strlen
 476 0014 F860     	 str r0,[r7,#12]
 266:C:/Users/Yushev/git/wpcqi-optiga-trust-charge/optiga/externals/mbedtls/library\x509_crt.c **** 
 267:C:/Users/Yushev/git/wpcqi-optiga-trust-charge/optiga/externals/mbedtls/library\x509_crt.c ****     /* We can't have a match if there is no wildcard to match */
 268:C:/Users/Yushev/git/wpcqi-optiga-trust-charge/optiga/externals/mbedtls/library\x509_crt.c ****     if( name->len < 3 || name->p[0] != '*' || name->p[1] != '.' )
 477              	 .loc 2 268 0
 478 0016 3B68     	 ldr r3,[r7]
 479 0018 5B68     	 ldr r3,[r3,#4]
 480 001a 022B     	 cmp r3,#2
 481 001c 0AD9     	 bls .L27
 482              	 .loc 2 268 0 is_stmt 0 discriminator 1
 483 001e 3B68     	 ldr r3,[r7]
 484 0020 9B68     	 ldr r3,[r3,#8]
 485 0022 1B78     	 ldrb r3,[r3]
 486 0024 2A2B     	 cmp r3,#42
 487 0026 05D1     	 bne .L27
 488              	 .loc 2 268 0 discriminator 2
 489 0028 3B68     	 ldr r3,[r7]
 490 002a 9B68     	 ldr r3,[r3,#8]
 491 002c 0133     	 adds r3,r3,#1
 492 002e 1B78     	 ldrb r3,[r3]
 493 0030 2E2B     	 cmp r3,#46
 494 0032 02D0     	 beq .L28
 495              	.L27:
 269:C:/Users/Yushev/git/wpcqi-optiga-trust-charge/optiga/externals/mbedtls/library\x509_crt.c ****         return( -1 );
 496              	 .loc 2 269 0 is_stmt 1
 497 0034 4FF0FF33 	 mov r3,#-1
 498 0038 35E0     	 b .L29
 499              	.L28:
 270:C:/Users/Yushev/git/wpcqi-optiga-trust-charge/optiga/externals/mbedtls/library\x509_crt.c **** 
 271:C:/Users/Yushev/git/wpcqi-optiga-trust-charge/optiga/externals/mbedtls/library\x509_crt.c ****     for( i = 0; i < cn_len; ++i )
 500              	 .loc 2 271 0
 501 003a 0023     	 movs r3,#0
 502 003c 7B61     	 str r3,[r7,#20]
 503 003e 0BE0     	 b .L30
 504              	.L33:
 272:C:/Users/Yushev/git/wpcqi-optiga-trust-charge/optiga/externals/mbedtls/library\x509_crt.c ****     {
 273:C:/Users/Yushev/git/wpcqi-optiga-trust-charge/optiga/externals/mbedtls/library\x509_crt.c ****         if( cn[i] == '.' )
 505              	 .loc 2 273 0
 506 0040 7A68     	 ldr r2,[r7,#4]
 507 0042 7B69     	 ldr r3,[r7,#20]
 508 0044 1344     	 add r3,r3,r2
 509 0046 1B78     	 ldrb r3,[r3]
 510 0048 2E2B     	 cmp r3,#46
 511 004a 02D1     	 bne .L31
 274:C:/Users/Yushev/git/wpcqi-optiga-trust-charge/optiga/externals/mbedtls/library\x509_crt.c ****         {
 275:C:/Users/Yushev/git/wpcqi-optiga-trust-charge/optiga/externals/mbedtls/library\x509_crt.c ****             cn_idx = i;
 512              	 .loc 2 275 0
 513 004c 7B69     	 ldr r3,[r7,#20]
 514 004e 3B61     	 str r3,[r7,#16]
 276:C:/Users/Yushev/git/wpcqi-optiga-trust-charge/optiga/externals/mbedtls/library\x509_crt.c ****             break;
 515              	 .loc 2 276 0
 516 0050 06E0     	 b .L32
 517              	.L31:
 271:C:/Users/Yushev/git/wpcqi-optiga-trust-charge/optiga/externals/mbedtls/library\x509_crt.c ****     {
 518              	 .loc 2 271 0 discriminator 2
 519 0052 7B69     	 ldr r3,[r7,#20]
 520 0054 0133     	 adds r3,r3,#1
 521 0056 7B61     	 str r3,[r7,#20]
 522              	.L30:
 271:C:/Users/Yushev/git/wpcqi-optiga-trust-charge/optiga/externals/mbedtls/library\x509_crt.c ****     {
 523              	 .loc 2 271 0 is_stmt 0 discriminator 1
 524 0058 7A69     	 ldr r2,[r7,#20]
 525 005a FB68     	 ldr r3,[r7,#12]
 526 005c 9A42     	 cmp r2,r3
 527 005e EFD3     	 bcc .L33
 528              	.L32:
 277:C:/Users/Yushev/git/wpcqi-optiga-trust-charge/optiga/externals/mbedtls/library\x509_crt.c ****         }
 278:C:/Users/Yushev/git/wpcqi-optiga-trust-charge/optiga/externals/mbedtls/library\x509_crt.c ****     }
 279:C:/Users/Yushev/git/wpcqi-optiga-trust-charge/optiga/externals/mbedtls/library\x509_crt.c **** 
 280:C:/Users/Yushev/git/wpcqi-optiga-trust-charge/optiga/externals/mbedtls/library\x509_crt.c ****     if( cn_idx == 0 )
 529              	 .loc 2 280 0 is_stmt 1
 530 0060 3B69     	 ldr r3,[r7,#16]
 531 0062 002B     	 cmp r3,#0
 532 0064 02D1     	 bne .L34
 281:C:/Users/Yushev/git/wpcqi-optiga-trust-charge/optiga/externals/mbedtls/library\x509_crt.c ****         return( -1 );
 533              	 .loc 2 281 0
 534 0066 4FF0FF33 	 mov r3,#-1
 535 006a 1CE0     	 b .L29
 536              	.L34:
 282:C:/Users/Yushev/git/wpcqi-optiga-trust-charge/optiga/externals/mbedtls/library\x509_crt.c **** 
 283:C:/Users/Yushev/git/wpcqi-optiga-trust-charge/optiga/externals/mbedtls/library\x509_crt.c ****     if( cn_len - cn_idx == name->len - 1 &&
 537              	 .loc 2 283 0
 538 006c FA68     	 ldr r2,[r7,#12]
 539 006e 3B69     	 ldr r3,[r7,#16]
 540 0070 D21A     	 subs r2,r2,r3
 541 0072 3B68     	 ldr r3,[r7]
 542 0074 5B68     	 ldr r3,[r3,#4]
 543 0076 013B     	 subs r3,r3,#1
 544 0078 9A42     	 cmp r2,r3
 545 007a 12D1     	 bne .L35
 284:C:/Users/Yushev/git/wpcqi-optiga-trust-charge/optiga/externals/mbedtls/library\x509_crt.c ****         x509_memcasecmp( name->p + 1, cn + cn_idx, name->len - 1 ) == 0 )
 546              	 .loc 2 284 0 discriminator 1
 547 007c 3B68     	 ldr r3,[r7]
 548 007e 9B68     	 ldr r3,[r3,#8]
 549 0080 591C     	 adds r1,r3,#1
 550 0082 7A68     	 ldr r2,[r7,#4]
 551 0084 3B69     	 ldr r3,[r7,#16]
 552 0086 1A44     	 add r2,r2,r3
 553 0088 3B68     	 ldr r3,[r7]
 554 008a 5B68     	 ldr r3,[r3,#4]
 555 008c 013B     	 subs r3,r3,#1
 556 008e 0846     	 mov r0,r1
 557 0090 1146     	 mov r1,r2
 558 0092 1A46     	 mov r2,r3
 559 0094 FFF7FEFF 	 bl x509_memcasecmp
 560 0098 0346     	 mov r3,r0
 283:C:/Users/Yushev/git/wpcqi-optiga-trust-charge/optiga/externals/mbedtls/library\x509_crt.c ****         x509_memcasecmp( name->p + 1, cn + cn_idx, name->len - 1 ) == 0 )
 561              	 .loc 2 283 0 discriminator 1
 562 009a 002B     	 cmp r3,#0
 563 009c 01D1     	 bne .L35
 285:C:/Users/Yushev/git/wpcqi-optiga-trust-charge/optiga/externals/mbedtls/library\x509_crt.c ****     {
 286:C:/Users/Yushev/git/wpcqi-optiga-trust-charge/optiga/externals/mbedtls/library\x509_crt.c ****         return( 0 );
 564              	 .loc 2 286 0
 565 009e 0023     	 movs r3,#0
 566 00a0 01E0     	 b .L29
 567              	.L35:
 287:C:/Users/Yushev/git/wpcqi-optiga-trust-charge/optiga/externals/mbedtls/library\x509_crt.c ****     }
 288:C:/Users/Yushev/git/wpcqi-optiga-trust-charge/optiga/externals/mbedtls/library\x509_crt.c **** 
 289:C:/Users/Yushev/git/wpcqi-optiga-trust-charge/optiga/externals/mbedtls/library\x509_crt.c ****     return( -1 );
 568              	 .loc 2 289 0
 569 00a2 4FF0FF33 	 mov r3,#-1
 570              	.L29:
 290:C:/Users/Yushev/git/wpcqi-optiga-trust-charge/optiga/externals/mbedtls/library\x509_crt.c **** }
 571              	 .loc 2 290 0
 572 00a6 1846     	 mov r0,r3
 573 00a8 1837     	 adds r7,r7,#24
 574              	.LCFI32:
 575              	 .cfi_def_cfa_offset 8
 576 00aa BD46     	 mov sp,r7
 577              	.LCFI33:
 578              	 .cfi_def_cfa_register 13
 579              	 
 580 00ac 80BD     	 pop {r7,pc}
 581              	 .cfi_endproc
 582              	.LFE13:
 584 00ae 00BF     	 .section .text.x509_string_cmp,"ax",%progbits
 585              	 .align 2
 586              	 .thumb
 587              	 .thumb_func
 589              	x509_string_cmp:
 590              	.LFB14:
 291:C:/Users/Yushev/git/wpcqi-optiga-trust-charge/optiga/externals/mbedtls/library\x509_crt.c **** 
 292:C:/Users/Yushev/git/wpcqi-optiga-trust-charge/optiga/externals/mbedtls/library\x509_crt.c **** /*
 293:C:/Users/Yushev/git/wpcqi-optiga-trust-charge/optiga/externals/mbedtls/library\x509_crt.c ****  * Compare two X.509 strings, case-insensitive, and allowing for some encoding
 294:C:/Users/Yushev/git/wpcqi-optiga-trust-charge/optiga/externals/mbedtls/library\x509_crt.c ****  * variations (but not all).
 295:C:/Users/Yushev/git/wpcqi-optiga-trust-charge/optiga/externals/mbedtls/library\x509_crt.c ****  *
 296:C:/Users/Yushev/git/wpcqi-optiga-trust-charge/optiga/externals/mbedtls/library\x509_crt.c ****  * Return 0 if equal, -1 otherwise.
 297:C:/Users/Yushev/git/wpcqi-optiga-trust-charge/optiga/externals/mbedtls/library\x509_crt.c ****  */
 298:C:/Users/Yushev/git/wpcqi-optiga-trust-charge/optiga/externals/mbedtls/library\x509_crt.c **** static int x509_string_cmp( const mbedtls_x509_buf *a, const mbedtls_x509_buf *b )
 299:C:/Users/Yushev/git/wpcqi-optiga-trust-charge/optiga/externals/mbedtls/library\x509_crt.c **** {
 591              	 .loc 2 299 0
 592              	 .cfi_startproc
 593              	 
 594              	 
 595 0000 80B5     	 push {r7,lr}
 596              	.LCFI34:
 597              	 .cfi_def_cfa_offset 8
 598              	 .cfi_offset 7,-8
 599              	 .cfi_offset 14,-4
 600 0002 82B0     	 sub sp,sp,#8
 601              	.LCFI35:
 602              	 .cfi_def_cfa_offset 16
 603 0004 00AF     	 add r7,sp,#0
 604              	.LCFI36:
 605              	 .cfi_def_cfa_register 7
 606 0006 7860     	 str r0,[r7,#4]
 607 0008 3960     	 str r1,[r7]
 300:C:/Users/Yushev/git/wpcqi-optiga-trust-charge/optiga/externals/mbedtls/library\x509_crt.c ****     if( a->tag == b->tag &&
 608              	 .loc 2 300 0
 609 000a 7B68     	 ldr r3,[r7,#4]
 610 000c 1A68     	 ldr r2,[r3]
 611 000e 3B68     	 ldr r3,[r7]
 612 0010 1B68     	 ldr r3,[r3]
 613 0012 9A42     	 cmp r2,r3
 614 0014 15D1     	 bne .L37
 301:C:/Users/Yushev/git/wpcqi-optiga-trust-charge/optiga/externals/mbedtls/library\x509_crt.c ****         a->len == b->len &&
 615              	 .loc 2 301 0 discriminator 1
 616 0016 7B68     	 ldr r3,[r7,#4]
 617 0018 5A68     	 ldr r2,[r3,#4]
 618 001a 3B68     	 ldr r3,[r7]
 619 001c 5B68     	 ldr r3,[r3,#4]
 300:C:/Users/Yushev/git/wpcqi-optiga-trust-charge/optiga/externals/mbedtls/library\x509_crt.c ****     if( a->tag == b->tag &&
 620              	 .loc 2 300 0 discriminator 1
 621 001e 9A42     	 cmp r2,r3
 622 0020 0FD1     	 bne .L37
 302:C:/Users/Yushev/git/wpcqi-optiga-trust-charge/optiga/externals/mbedtls/library\x509_crt.c ****         memcmp( a->p, b->p, b->len ) == 0 )
 623              	 .loc 2 302 0
 624 0022 7B68     	 ldr r3,[r7,#4]
 625 0024 9968     	 ldr r1,[r3,#8]
 626 0026 3B68     	 ldr r3,[r7]
 627 0028 9A68     	 ldr r2,[r3,#8]
 628 002a 3B68     	 ldr r3,[r7]
 629 002c 5B68     	 ldr r3,[r3,#4]
 630 002e 0846     	 mov r0,r1
 631 0030 1146     	 mov r1,r2
 632 0032 1A46     	 mov r2,r3
 633 0034 FFF7FEFF 	 bl memcmp
 634 0038 0346     	 mov r3,r0
 301:C:/Users/Yushev/git/wpcqi-optiga-trust-charge/optiga/externals/mbedtls/library\x509_crt.c ****         a->len == b->len &&
 635              	 .loc 2 301 0
 636 003a 002B     	 cmp r3,#0
 637 003c 01D1     	 bne .L37
 303:C:/Users/Yushev/git/wpcqi-optiga-trust-charge/optiga/externals/mbedtls/library\x509_crt.c ****     {
 304:C:/Users/Yushev/git/wpcqi-optiga-trust-charge/optiga/externals/mbedtls/library\x509_crt.c ****         return( 0 );
 638              	 .loc 2 304 0
 639 003e 0023     	 movs r3,#0
 640 0040 27E0     	 b .L38
 641              	.L37:
 305:C:/Users/Yushev/git/wpcqi-optiga-trust-charge/optiga/externals/mbedtls/library\x509_crt.c ****     }
 306:C:/Users/Yushev/git/wpcqi-optiga-trust-charge/optiga/externals/mbedtls/library\x509_crt.c **** 
 307:C:/Users/Yushev/git/wpcqi-optiga-trust-charge/optiga/externals/mbedtls/library\x509_crt.c ****     if( ( a->tag == MBEDTLS_ASN1_UTF8_STRING || a->tag == MBEDTLS_ASN1_PRINTABLE_STRING ) &&
 642              	 .loc 2 307 0
 643 0042 7B68     	 ldr r3,[r7,#4]
 644 0044 1B68     	 ldr r3,[r3]
 645 0046 0C2B     	 cmp r3,#12
 646 0048 03D0     	 beq .L39
 647              	 .loc 2 307 0 is_stmt 0 discriminator 2
 648 004a 7B68     	 ldr r3,[r7,#4]
 649 004c 1B68     	 ldr r3,[r3]
 650 004e 132B     	 cmp r3,#19
 651 0050 1DD1     	 bne .L40
 652              	.L39:
 308:C:/Users/Yushev/git/wpcqi-optiga-trust-charge/optiga/externals/mbedtls/library\x509_crt.c ****         ( b->tag == MBEDTLS_ASN1_UTF8_STRING || b->tag == MBEDTLS_ASN1_PRINTABLE_STRING ) &&
 653              	 .loc 2 308 0 is_stmt 1 discriminator 3
 654 0052 3B68     	 ldr r3,[r7]
 655 0054 1B68     	 ldr r3,[r3]
 307:C:/Users/Yushev/git/wpcqi-optiga-trust-charge/optiga/externals/mbedtls/library\x509_crt.c ****         ( b->tag == MBEDTLS_ASN1_UTF8_STRING || b->tag == MBEDTLS_ASN1_PRINTABLE_STRING ) &&
 656              	 .loc 2 307 0 discriminator 3
 657 0056 0C2B     	 cmp r3,#12
 658 0058 03D0     	 beq .L41
 659              	 .loc 2 308 0
 660 005a 3B68     	 ldr r3,[r7]
 661 005c 1B68     	 ldr r3,[r3]
 662 005e 132B     	 cmp r3,#19
 663 0060 15D1     	 bne .L40
 664              	.L41:
 309:C:/Users/Yushev/git/wpcqi-optiga-trust-charge/optiga/externals/mbedtls/library\x509_crt.c ****         a->len == b->len &&
 665              	 .loc 2 309 0 discriminator 1
 666 0062 7B68     	 ldr r3,[r7,#4]
 667 0064 5A68     	 ldr r2,[r3,#4]
 668 0066 3B68     	 ldr r3,[r7]
 669 0068 5B68     	 ldr r3,[r3,#4]
 308:C:/Users/Yushev/git/wpcqi-optiga-trust-charge/optiga/externals/mbedtls/library\x509_crt.c ****         ( b->tag == MBEDTLS_ASN1_UTF8_STRING || b->tag == MBEDTLS_ASN1_PRINTABLE_STRING ) &&
 670              	 .loc 2 308 0 discriminator 1
 671 006a 9A42     	 cmp r2,r3
 672 006c 0FD1     	 bne .L40
 310:C:/Users/Yushev/git/wpcqi-optiga-trust-charge/optiga/externals/mbedtls/library\x509_crt.c ****         x509_memcasecmp( a->p, b->p, b->len ) == 0 )
 673              	 .loc 2 310 0
 674 006e 7B68     	 ldr r3,[r7,#4]
 675 0070 9968     	 ldr r1,[r3,#8]
 676 0072 3B68     	 ldr r3,[r7]
 677 0074 9A68     	 ldr r2,[r3,#8]
 678 0076 3B68     	 ldr r3,[r7]
 679 0078 5B68     	 ldr r3,[r3,#4]
 680 007a 0846     	 mov r0,r1
 681 007c 1146     	 mov r1,r2
 682 007e 1A46     	 mov r2,r3
 683 0080 FFF7FEFF 	 bl x509_memcasecmp
 684 0084 0346     	 mov r3,r0
 309:C:/Users/Yushev/git/wpcqi-optiga-trust-charge/optiga/externals/mbedtls/library\x509_crt.c ****         a->len == b->len &&
 685              	 .loc 2 309 0
 686 0086 002B     	 cmp r3,#0
 687 0088 01D1     	 bne .L40
 311:C:/Users/Yushev/git/wpcqi-optiga-trust-charge/optiga/externals/mbedtls/library\x509_crt.c ****     {
 312:C:/Users/Yushev/git/wpcqi-optiga-trust-charge/optiga/externals/mbedtls/library\x509_crt.c ****         return( 0 );
 688              	 .loc 2 312 0
 689 008a 0023     	 movs r3,#0
 690 008c 01E0     	 b .L38
 691              	.L40:
 313:C:/Users/Yushev/git/wpcqi-optiga-trust-charge/optiga/externals/mbedtls/library\x509_crt.c ****     }
 314:C:/Users/Yushev/git/wpcqi-optiga-trust-charge/optiga/externals/mbedtls/library\x509_crt.c **** 
 315:C:/Users/Yushev/git/wpcqi-optiga-trust-charge/optiga/externals/mbedtls/library\x509_crt.c ****     return( -1 );
 692              	 .loc 2 315 0
 693 008e 4FF0FF33 	 mov r3,#-1
 694              	.L38:
 316:C:/Users/Yushev/git/wpcqi-optiga-trust-charge/optiga/externals/mbedtls/library\x509_crt.c **** }
 695              	 .loc 2 316 0
 696 0092 1846     	 mov r0,r3
 697 0094 0837     	 adds r7,r7,#8
 698              	.LCFI37:
 699              	 .cfi_def_cfa_offset 8
 700 0096 BD46     	 mov sp,r7
 701              	.LCFI38:
 702              	 .cfi_def_cfa_register 13
 703              	 
 704 0098 80BD     	 pop {r7,pc}
 705              	 .cfi_endproc
 706              	.LFE14:
 708 009a 00BF     	 .section .text.x509_name_cmp,"ax",%progbits
 709              	 .align 2
 710              	 .thumb
 711              	 .thumb_func
 713              	x509_name_cmp:
 714              	.LFB15:
 317:C:/Users/Yushev/git/wpcqi-optiga-trust-charge/optiga/externals/mbedtls/library\x509_crt.c **** 
 318:C:/Users/Yushev/git/wpcqi-optiga-trust-charge/optiga/externals/mbedtls/library\x509_crt.c **** /*
 319:C:/Users/Yushev/git/wpcqi-optiga-trust-charge/optiga/externals/mbedtls/library\x509_crt.c ****  * Compare two X.509 Names (aka rdnSequence).
 320:C:/Users/Yushev/git/wpcqi-optiga-trust-charge/optiga/externals/mbedtls/library\x509_crt.c ****  *
 321:C:/Users/Yushev/git/wpcqi-optiga-trust-charge/optiga/externals/mbedtls/library\x509_crt.c ****  * See RFC 5280 section 7.1, though we don't implement the whole algorithm:
 322:C:/Users/Yushev/git/wpcqi-optiga-trust-charge/optiga/externals/mbedtls/library\x509_crt.c ****  * we sometimes return unequal when the full algorithm would return equal,
 323:C:/Users/Yushev/git/wpcqi-optiga-trust-charge/optiga/externals/mbedtls/library\x509_crt.c ****  * but never the other way. (In particular, we don't do Unicode normalisation
 324:C:/Users/Yushev/git/wpcqi-optiga-trust-charge/optiga/externals/mbedtls/library\x509_crt.c ****  * or space folding.)
 325:C:/Users/Yushev/git/wpcqi-optiga-trust-charge/optiga/externals/mbedtls/library\x509_crt.c ****  *
 326:C:/Users/Yushev/git/wpcqi-optiga-trust-charge/optiga/externals/mbedtls/library\x509_crt.c ****  * Return 0 if equal, -1 otherwise.
 327:C:/Users/Yushev/git/wpcqi-optiga-trust-charge/optiga/externals/mbedtls/library\x509_crt.c ****  */
 328:C:/Users/Yushev/git/wpcqi-optiga-trust-charge/optiga/externals/mbedtls/library\x509_crt.c **** static int x509_name_cmp( const mbedtls_x509_name *a, const mbedtls_x509_name *b )
 329:C:/Users/Yushev/git/wpcqi-optiga-trust-charge/optiga/externals/mbedtls/library\x509_crt.c **** {
 715              	 .loc 2 329 0
 716              	 .cfi_startproc
 717              	 
 718              	 
 719 0000 80B5     	 push {r7,lr}
 720              	.LCFI39:
 721              	 .cfi_def_cfa_offset 8
 722              	 .cfi_offset 7,-8
 723              	 .cfi_offset 14,-4
 724 0002 82B0     	 sub sp,sp,#8
 725              	.LCFI40:
 726              	 .cfi_def_cfa_offset 16
 727 0004 00AF     	 add r7,sp,#0
 728              	.LCFI41:
 729              	 .cfi_def_cfa_register 7
 730 0006 7860     	 str r0,[r7,#4]
 731 0008 3960     	 str r1,[r7]
 330:C:/Users/Yushev/git/wpcqi-optiga-trust-charge/optiga/externals/mbedtls/library\x509_crt.c ****     /* Avoid recursion, it might not be optimised by the compiler */
 331:C:/Users/Yushev/git/wpcqi-optiga-trust-charge/optiga/externals/mbedtls/library\x509_crt.c ****     while( a != NULL || b != NULL )
 732              	 .loc 2 331 0
 733 000a 43E0     	 b .L43
 734              	.L51:
 332:C:/Users/Yushev/git/wpcqi-optiga-trust-charge/optiga/externals/mbedtls/library\x509_crt.c ****     {
 333:C:/Users/Yushev/git/wpcqi-optiga-trust-charge/optiga/externals/mbedtls/library\x509_crt.c ****         if( a == NULL || b == NULL )
 735              	 .loc 2 333 0
 736 000c 7B68     	 ldr r3,[r7,#4]
 737 000e 002B     	 cmp r3,#0
 738 0010 02D0     	 beq .L44
 739              	 .loc 2 333 0 is_stmt 0 discriminator 1
 740 0012 3B68     	 ldr r3,[r7]
 741 0014 002B     	 cmp r3,#0
 742 0016 02D1     	 bne .L45
 743              	.L44:
 334:C:/Users/Yushev/git/wpcqi-optiga-trust-charge/optiga/externals/mbedtls/library\x509_crt.c ****             return( -1 );
 744              	 .loc 2 334 0 is_stmt 1
 745 0018 4FF0FF33 	 mov r3,#-1
 746 001c 41E0     	 b .L46
 747              	.L45:
 335:C:/Users/Yushev/git/wpcqi-optiga-trust-charge/optiga/externals/mbedtls/library\x509_crt.c **** 
 336:C:/Users/Yushev/git/wpcqi-optiga-trust-charge/optiga/externals/mbedtls/library\x509_crt.c ****         /* type */
 337:C:/Users/Yushev/git/wpcqi-optiga-trust-charge/optiga/externals/mbedtls/library\x509_crt.c ****         if( a->oid.tag != b->oid.tag ||
 748              	 .loc 2 337 0
 749 001e 7B68     	 ldr r3,[r7,#4]
 750 0020 1A68     	 ldr r2,[r3]
 751 0022 3B68     	 ldr r3,[r7]
 752 0024 1B68     	 ldr r3,[r3]
 753 0026 9A42     	 cmp r2,r3
 754 0028 13D1     	 bne .L47
 338:C:/Users/Yushev/git/wpcqi-optiga-trust-charge/optiga/externals/mbedtls/library\x509_crt.c ****             a->oid.len != b->oid.len ||
 755              	 .loc 2 338 0 discriminator 1
 756 002a 7B68     	 ldr r3,[r7,#4]
 757 002c 5A68     	 ldr r2,[r3,#4]
 758 002e 3B68     	 ldr r3,[r7]
 759 0030 5B68     	 ldr r3,[r3,#4]
 337:C:/Users/Yushev/git/wpcqi-optiga-trust-charge/optiga/externals/mbedtls/library\x509_crt.c ****             a->oid.len != b->oid.len ||
 760              	 .loc 2 337 0 discriminator 1
 761 0032 9A42     	 cmp r2,r3
 762 0034 0DD1     	 bne .L47
 339:C:/Users/Yushev/git/wpcqi-optiga-trust-charge/optiga/externals/mbedtls/library\x509_crt.c ****             memcmp( a->oid.p, b->oid.p, b->oid.len ) != 0 )
 763              	 .loc 2 339 0
 764 0036 7B68     	 ldr r3,[r7,#4]
 765 0038 9968     	 ldr r1,[r3,#8]
 766 003a 3B68     	 ldr r3,[r7]
 767 003c 9A68     	 ldr r2,[r3,#8]
 768 003e 3B68     	 ldr r3,[r7]
 769 0040 5B68     	 ldr r3,[r3,#4]
 770 0042 0846     	 mov r0,r1
 771 0044 1146     	 mov r1,r2
 772 0046 1A46     	 mov r2,r3
 773 0048 FFF7FEFF 	 bl memcmp
 774 004c 0346     	 mov r3,r0
 338:C:/Users/Yushev/git/wpcqi-optiga-trust-charge/optiga/externals/mbedtls/library\x509_crt.c ****             a->oid.len != b->oid.len ||
 775              	 .loc 2 338 0
 776 004e 002B     	 cmp r3,#0
 777 0050 02D0     	 beq .L48
 778              	.L47:
 340:C:/Users/Yushev/git/wpcqi-optiga-trust-charge/optiga/externals/mbedtls/library\x509_crt.c ****         {
 341:C:/Users/Yushev/git/wpcqi-optiga-trust-charge/optiga/externals/mbedtls/library\x509_crt.c ****             return( -1 );
 779              	 .loc 2 341 0
 780 0052 4FF0FF33 	 mov r3,#-1
 781 0056 24E0     	 b .L46
 782              	.L48:
 342:C:/Users/Yushev/git/wpcqi-optiga-trust-charge/optiga/externals/mbedtls/library\x509_crt.c ****         }
 343:C:/Users/Yushev/git/wpcqi-optiga-trust-charge/optiga/externals/mbedtls/library\x509_crt.c **** 
 344:C:/Users/Yushev/git/wpcqi-optiga-trust-charge/optiga/externals/mbedtls/library\x509_crt.c ****         /* value */
 345:C:/Users/Yushev/git/wpcqi-optiga-trust-charge/optiga/externals/mbedtls/library\x509_crt.c ****         if( x509_string_cmp( &a->val, &b->val ) != 0 )
 783              	 .loc 2 345 0
 784 0058 7B68     	 ldr r3,[r7,#4]
 785 005a 03F10C02 	 add r2,r3,#12
 786 005e 3B68     	 ldr r3,[r7]
 787 0060 0C33     	 adds r3,r3,#12
 788 0062 1046     	 mov r0,r2
 789 0064 1946     	 mov r1,r3
 790 0066 FFF7FEFF 	 bl x509_string_cmp
 791 006a 0346     	 mov r3,r0
 792 006c 002B     	 cmp r3,#0
 793 006e 02D0     	 beq .L49
 346:C:/Users/Yushev/git/wpcqi-optiga-trust-charge/optiga/externals/mbedtls/library\x509_crt.c ****             return( -1 );
 794              	 .loc 2 346 0
 795 0070 4FF0FF33 	 mov r3,#-1
 796 0074 15E0     	 b .L46
 797              	.L49:
 347:C:/Users/Yushev/git/wpcqi-optiga-trust-charge/optiga/externals/mbedtls/library\x509_crt.c **** 
 348:C:/Users/Yushev/git/wpcqi-optiga-trust-charge/optiga/externals/mbedtls/library\x509_crt.c ****         /* structure of the list of sets */
 349:C:/Users/Yushev/git/wpcqi-optiga-trust-charge/optiga/externals/mbedtls/library\x509_crt.c ****         if( a->next_merged != b->next_merged )
 798              	 .loc 2 349 0
 799 0076 7B68     	 ldr r3,[r7,#4]
 800 0078 1A7F     	 ldrb r2,[r3,#28]
 801 007a 3B68     	 ldr r3,[r7]
 802 007c 1B7F     	 ldrb r3,[r3,#28]
 803 007e 9A42     	 cmp r2,r3
 804 0080 02D0     	 beq .L50
 350:C:/Users/Yushev/git/wpcqi-optiga-trust-charge/optiga/externals/mbedtls/library\x509_crt.c ****             return( -1 );
 805              	 .loc 2 350 0
 806 0082 4FF0FF33 	 mov r3,#-1
 807 0086 0CE0     	 b .L46
 808              	.L50:
 351:C:/Users/Yushev/git/wpcqi-optiga-trust-charge/optiga/externals/mbedtls/library\x509_crt.c **** 
 352:C:/Users/Yushev/git/wpcqi-optiga-trust-charge/optiga/externals/mbedtls/library\x509_crt.c ****         a = a->next;
 809              	 .loc 2 352 0
 810 0088 7B68     	 ldr r3,[r7,#4]
 811 008a 9B69     	 ldr r3,[r3,#24]
 812 008c 7B60     	 str r3,[r7,#4]
 353:C:/Users/Yushev/git/wpcqi-optiga-trust-charge/optiga/externals/mbedtls/library\x509_crt.c ****         b = b->next;
 813              	 .loc 2 353 0
 814 008e 3B68     	 ldr r3,[r7]
 815 0090 9B69     	 ldr r3,[r3,#24]
 816 0092 3B60     	 str r3,[r7]
 817              	.L43:
 331:C:/Users/Yushev/git/wpcqi-optiga-trust-charge/optiga/externals/mbedtls/library\x509_crt.c ****     {
 818              	 .loc 2 331 0
 819 0094 7B68     	 ldr r3,[r7,#4]
 820 0096 002B     	 cmp r3,#0
 821 0098 B8D1     	 bne .L51
 331:C:/Users/Yushev/git/wpcqi-optiga-trust-charge/optiga/externals/mbedtls/library\x509_crt.c ****     {
 822              	 .loc 2 331 0 is_stmt 0 discriminator 1
 823 009a 3B68     	 ldr r3,[r7]
 824 009c 002B     	 cmp r3,#0
 825 009e B5D1     	 bne .L51
 354:C:/Users/Yushev/git/wpcqi-optiga-trust-charge/optiga/externals/mbedtls/library\x509_crt.c ****     }
 355:C:/Users/Yushev/git/wpcqi-optiga-trust-charge/optiga/externals/mbedtls/library\x509_crt.c **** 
 356:C:/Users/Yushev/git/wpcqi-optiga-trust-charge/optiga/externals/mbedtls/library\x509_crt.c ****     /* a == NULL == b */
 357:C:/Users/Yushev/git/wpcqi-optiga-trust-charge/optiga/externals/mbedtls/library\x509_crt.c ****     return( 0 );
 826              	 .loc 2 357 0 is_stmt 1
 827 00a0 0023     	 movs r3,#0
 828              	.L46:
 358:C:/Users/Yushev/git/wpcqi-optiga-trust-charge/optiga/externals/mbedtls/library\x509_crt.c **** }
 829              	 .loc 2 358 0
 830 00a2 1846     	 mov r0,r3
 831 00a4 0837     	 adds r7,r7,#8
 832              	.LCFI42:
 833              	 .cfi_def_cfa_offset 8
 834 00a6 BD46     	 mov sp,r7
 835              	.LCFI43:
 836              	 .cfi_def_cfa_register 13
 837              	 
 838 00a8 80BD     	 pop {r7,pc}
 839              	 .cfi_endproc
 840              	.LFE15:
 842 00aa 00BF     	 .section .text.x509_crt_verify_chain_reset,"ax",%progbits
 843              	 .align 2
 844              	 .thumb
 845              	 .thumb_func
 847              	x509_crt_verify_chain_reset:
 848              	.LFB16:
 359:C:/Users/Yushev/git/wpcqi-optiga-trust-charge/optiga/externals/mbedtls/library\x509_crt.c **** 
 360:C:/Users/Yushev/git/wpcqi-optiga-trust-charge/optiga/externals/mbedtls/library\x509_crt.c **** /*
 361:C:/Users/Yushev/git/wpcqi-optiga-trust-charge/optiga/externals/mbedtls/library\x509_crt.c ****  * Reset (init or clear) a verify_chain
 362:C:/Users/Yushev/git/wpcqi-optiga-trust-charge/optiga/externals/mbedtls/library\x509_crt.c ****  */
 363:C:/Users/Yushev/git/wpcqi-optiga-trust-charge/optiga/externals/mbedtls/library\x509_crt.c **** static void x509_crt_verify_chain_reset(
 364:C:/Users/Yushev/git/wpcqi-optiga-trust-charge/optiga/externals/mbedtls/library\x509_crt.c ****     mbedtls_x509_crt_verify_chain *ver_chain )
 365:C:/Users/Yushev/git/wpcqi-optiga-trust-charge/optiga/externals/mbedtls/library\x509_crt.c **** {
 849              	 .loc 2 365 0
 850              	 .cfi_startproc
 851              	 
 852              	 
 853              	 
 854 0000 80B4     	 push {r7}
 855              	.LCFI44:
 856              	 .cfi_def_cfa_offset 4
 857              	 .cfi_offset 7,-4
 858 0002 85B0     	 sub sp,sp,#20
 859              	.LCFI45:
 860              	 .cfi_def_cfa_offset 24
 861 0004 00AF     	 add r7,sp,#0
 862              	.LCFI46:
 863              	 .cfi_def_cfa_register 7
 864 0006 7860     	 str r0,[r7,#4]
 366:C:/Users/Yushev/git/wpcqi-optiga-trust-charge/optiga/externals/mbedtls/library\x509_crt.c ****     size_t i;
 367:C:/Users/Yushev/git/wpcqi-optiga-trust-charge/optiga/externals/mbedtls/library\x509_crt.c **** 
 368:C:/Users/Yushev/git/wpcqi-optiga-trust-charge/optiga/externals/mbedtls/library\x509_crt.c ****     for( i = 0; i < MBEDTLS_X509_MAX_VERIFY_CHAIN_SIZE; i++ )
 865              	 .loc 2 368 0
 866 0008 0023     	 movs r3,#0
 867 000a FB60     	 str r3,[r7,#12]
 868 000c 0EE0     	 b .L53
 869              	.L54:
 369:C:/Users/Yushev/git/wpcqi-optiga-trust-charge/optiga/externals/mbedtls/library\x509_crt.c ****     {
 370:C:/Users/Yushev/git/wpcqi-optiga-trust-charge/optiga/externals/mbedtls/library\x509_crt.c ****         ver_chain->items[i].crt = NULL;
 870              	 .loc 2 370 0 discriminator 3
 871 000e 7B68     	 ldr r3,[r7,#4]
 872 0010 FA68     	 ldr r2,[r7,#12]
 873 0012 0021     	 movs r1,#0
 874 0014 43F83210 	 str r1,[r3,r2,lsl#3]
 371:C:/Users/Yushev/git/wpcqi-optiga-trust-charge/optiga/externals/mbedtls/library\x509_crt.c ****         ver_chain->items[i].flags = -1;
 875              	 .loc 2 371 0 discriminator 3
 876 0018 7A68     	 ldr r2,[r7,#4]
 877 001a FB68     	 ldr r3,[r7,#12]
 878 001c DB00     	 lsls r3,r3,#3
 879 001e 1344     	 add r3,r3,r2
 880 0020 4FF0FF32 	 mov r2,#-1
 881 0024 5A60     	 str r2,[r3,#4]
 368:C:/Users/Yushev/git/wpcqi-optiga-trust-charge/optiga/externals/mbedtls/library\x509_crt.c ****     {
 882              	 .loc 2 368 0 discriminator 3
 883 0026 FB68     	 ldr r3,[r7,#12]
 884 0028 0133     	 adds r3,r3,#1
 885 002a FB60     	 str r3,[r7,#12]
 886              	.L53:
 368:C:/Users/Yushev/git/wpcqi-optiga-trust-charge/optiga/externals/mbedtls/library\x509_crt.c ****     {
 887              	 .loc 2 368 0 is_stmt 0 discriminator 1
 888 002c FB68     	 ldr r3,[r7,#12]
 889 002e 092B     	 cmp r3,#9
 890 0030 EDD9     	 bls .L54
 372:C:/Users/Yushev/git/wpcqi-optiga-trust-charge/optiga/externals/mbedtls/library\x509_crt.c ****     }
 373:C:/Users/Yushev/git/wpcqi-optiga-trust-charge/optiga/externals/mbedtls/library\x509_crt.c **** 
 374:C:/Users/Yushev/git/wpcqi-optiga-trust-charge/optiga/externals/mbedtls/library\x509_crt.c ****     ver_chain->len = 0;
 891              	 .loc 2 374 0 is_stmt 1
 892 0032 7B68     	 ldr r3,[r7,#4]
 893 0034 0022     	 movs r2,#0
 894 0036 1A65     	 str r2,[r3,#80]
 375:C:/Users/Yushev/git/wpcqi-optiga-trust-charge/optiga/externals/mbedtls/library\x509_crt.c **** }
 895              	 .loc 2 375 0
 896 0038 1437     	 adds r7,r7,#20
 897              	.LCFI47:
 898              	 .cfi_def_cfa_offset 4
 899 003a BD46     	 mov sp,r7
 900              	.LCFI48:
 901              	 .cfi_def_cfa_register 13
 902              	 
 903 003c 5DF8047B 	 ldr r7,[sp],#4
 904              	.LCFI49:
 905              	 .cfi_restore 7
 906              	 .cfi_def_cfa_offset 0
 907 0040 7047     	 bx lr
 908              	 .cfi_endproc
 909              	.LFE16:
 911 0042 00BF     	 .section .text.x509_get_version,"ax",%progbits
 912              	 .align 2
 913              	 .thumb
 914              	 .thumb_func
 916              	x509_get_version:
 917              	.LFB17:
 376:C:/Users/Yushev/git/wpcqi-optiga-trust-charge/optiga/externals/mbedtls/library\x509_crt.c **** 
 377:C:/Users/Yushev/git/wpcqi-optiga-trust-charge/optiga/externals/mbedtls/library\x509_crt.c **** /*
 378:C:/Users/Yushev/git/wpcqi-optiga-trust-charge/optiga/externals/mbedtls/library\x509_crt.c ****  *  Version  ::=  INTEGER  {  v1(0), v2(1), v3(2)  }
 379:C:/Users/Yushev/git/wpcqi-optiga-trust-charge/optiga/externals/mbedtls/library\x509_crt.c ****  */
 380:C:/Users/Yushev/git/wpcqi-optiga-trust-charge/optiga/externals/mbedtls/library\x509_crt.c **** static int x509_get_version( unsigned char **p,
 381:C:/Users/Yushev/git/wpcqi-optiga-trust-charge/optiga/externals/mbedtls/library\x509_crt.c ****                              const unsigned char *end,
 382:C:/Users/Yushev/git/wpcqi-optiga-trust-charge/optiga/externals/mbedtls/library\x509_crt.c ****                              int *ver )
 383:C:/Users/Yushev/git/wpcqi-optiga-trust-charge/optiga/externals/mbedtls/library\x509_crt.c **** {
 918              	 .loc 2 383 0
 919              	 .cfi_startproc
 920              	 
 921              	 
 922 0000 80B5     	 push {r7,lr}
 923              	.LCFI50:
 924              	 .cfi_def_cfa_offset 8
 925              	 .cfi_offset 7,-8
 926              	 .cfi_offset 14,-4
 927 0002 86B0     	 sub sp,sp,#24
 928              	.LCFI51:
 929              	 .cfi_def_cfa_offset 32
 930 0004 00AF     	 add r7,sp,#0
 931              	.LCFI52:
 932              	 .cfi_def_cfa_register 7
 933 0006 F860     	 str r0,[r7,#12]
 934 0008 B960     	 str r1,[r7,#8]
 935 000a 7A60     	 str r2,[r7,#4]
 384:C:/Users/Yushev/git/wpcqi-optiga-trust-charge/optiga/externals/mbedtls/library\x509_crt.c ****     int ret;
 385:C:/Users/Yushev/git/wpcqi-optiga-trust-charge/optiga/externals/mbedtls/library\x509_crt.c ****     size_t len;
 386:C:/Users/Yushev/git/wpcqi-optiga-trust-charge/optiga/externals/mbedtls/library\x509_crt.c **** 
 387:C:/Users/Yushev/git/wpcqi-optiga-trust-charge/optiga/externals/mbedtls/library\x509_crt.c ****     if( ( ret = mbedtls_asn1_get_tag( p, end, &len,
 936              	 .loc 2 387 0
 937 000c 07F11003 	 add r3,r7,#16
 938 0010 F868     	 ldr r0,[r7,#12]
 939 0012 B968     	 ldr r1,[r7,#8]
 940 0014 1A46     	 mov r2,r3
 941 0016 A023     	 movs r3,#160
 942 0018 FFF7FEFF 	 bl mbedtls_asn1_get_tag
 943 001c 7861     	 str r0,[r7,#20]
 944 001e 7B69     	 ldr r3,[r7,#20]
 945 0020 002B     	 cmp r3,#0
 946 0022 0AD0     	 beq .L56
 388:C:/Users/Yushev/git/wpcqi-optiga-trust-charge/optiga/externals/mbedtls/library\x509_crt.c ****             MBEDTLS_ASN1_CONTEXT_SPECIFIC | MBEDTLS_ASN1_CONSTRUCTED | 0 ) ) != 0 )
 389:C:/Users/Yushev/git/wpcqi-optiga-trust-charge/optiga/externals/mbedtls/library\x509_crt.c ****     {
 390:C:/Users/Yushev/git/wpcqi-optiga-trust-charge/optiga/externals/mbedtls/library\x509_crt.c ****         if( ret == MBEDTLS_ERR_ASN1_UNEXPECTED_TAG )
 947              	 .loc 2 390 0
 948 0024 7B69     	 ldr r3,[r7,#20]
 949 0026 13F1620F 	 cmn r3,#98
 950 002a 04D1     	 bne .L57
 391:C:/Users/Yushev/git/wpcqi-optiga-trust-charge/optiga/externals/mbedtls/library\x509_crt.c ****         {
 392:C:/Users/Yushev/git/wpcqi-optiga-trust-charge/optiga/externals/mbedtls/library\x509_crt.c ****             *ver = 0;
 951              	 .loc 2 392 0
 952 002c 7B68     	 ldr r3,[r7,#4]
 953 002e 0022     	 movs r2,#0
 954 0030 1A60     	 str r2,[r3]
 393:C:/Users/Yushev/git/wpcqi-optiga-trust-charge/optiga/externals/mbedtls/library\x509_crt.c ****             return( 0 );
 955              	 .loc 2 393 0
 956 0032 0023     	 movs r3,#0
 957 0034 1BE0     	 b .L61
 958              	.L57:
 394:C:/Users/Yushev/git/wpcqi-optiga-trust-charge/optiga/externals/mbedtls/library\x509_crt.c ****         }
 395:C:/Users/Yushev/git/wpcqi-optiga-trust-charge/optiga/externals/mbedtls/library\x509_crt.c **** 
 396:C:/Users/Yushev/git/wpcqi-optiga-trust-charge/optiga/externals/mbedtls/library\x509_crt.c ****         return( ret );
 959              	 .loc 2 396 0
 960 0036 7B69     	 ldr r3,[r7,#20]
 961 0038 19E0     	 b .L61
 962              	.L56:
 397:C:/Users/Yushev/git/wpcqi-optiga-trust-charge/optiga/externals/mbedtls/library\x509_crt.c ****     }
 398:C:/Users/Yushev/git/wpcqi-optiga-trust-charge/optiga/externals/mbedtls/library\x509_crt.c **** 
 399:C:/Users/Yushev/git/wpcqi-optiga-trust-charge/optiga/externals/mbedtls/library\x509_crt.c ****     end = *p + len;
 963              	 .loc 2 399 0
 964 003a FB68     	 ldr r3,[r7,#12]
 965 003c 1A68     	 ldr r2,[r3]
 966 003e 3B69     	 ldr r3,[r7,#16]
 967 0040 1344     	 add r3,r3,r2
 968 0042 BB60     	 str r3,[r7,#8]
 400:C:/Users/Yushev/git/wpcqi-optiga-trust-charge/optiga/externals/mbedtls/library\x509_crt.c **** 
 401:C:/Users/Yushev/git/wpcqi-optiga-trust-charge/optiga/externals/mbedtls/library\x509_crt.c ****     if( ( ret = mbedtls_asn1_get_int( p, end, ver ) ) != 0 )
 969              	 .loc 2 401 0
 970 0044 F868     	 ldr r0,[r7,#12]
 971 0046 B968     	 ldr r1,[r7,#8]
 972 0048 7A68     	 ldr r2,[r7,#4]
 973 004a FFF7FEFF 	 bl mbedtls_asn1_get_int
 974 004e 7861     	 str r0,[r7,#20]
 975 0050 7B69     	 ldr r3,[r7,#20]
 976 0052 002B     	 cmp r3,#0
 977 0054 03D0     	 beq .L59
 402:C:/Users/Yushev/git/wpcqi-optiga-trust-charge/optiga/externals/mbedtls/library\x509_crt.c ****         return( MBEDTLS_ERR_X509_INVALID_VERSION + ret );
 978              	 .loc 2 402 0
 979 0056 7B69     	 ldr r3,[r7,#20]
 980 0058 A3F50853 	 sub r3,r3,#8704
 981 005c 07E0     	 b .L61
 982              	.L59:
 403:C:/Users/Yushev/git/wpcqi-optiga-trust-charge/optiga/externals/mbedtls/library\x509_crt.c **** 
 404:C:/Users/Yushev/git/wpcqi-optiga-trust-charge/optiga/externals/mbedtls/library\x509_crt.c ****     if( *p != end )
 983              	 .loc 2 404 0
 984 005e FB68     	 ldr r3,[r7,#12]
 985 0060 1A68     	 ldr r2,[r3]
 986 0062 BB68     	 ldr r3,[r7,#8]
 987 0064 9A42     	 cmp r2,r3
 988 0066 01D0     	 beq .L60
 405:C:/Users/Yushev/git/wpcqi-optiga-trust-charge/optiga/externals/mbedtls/library\x509_crt.c ****         return( MBEDTLS_ERR_X509_INVALID_VERSION +
 989              	 .loc 2 405 0
 990 0068 034B     	 ldr r3,.L62
 991 006a 00E0     	 b .L61
 992              	.L60:
 406:C:/Users/Yushev/git/wpcqi-optiga-trust-charge/optiga/externals/mbedtls/library\x509_crt.c ****                 MBEDTLS_ERR_ASN1_LENGTH_MISMATCH );
 407:C:/Users/Yushev/git/wpcqi-optiga-trust-charge/optiga/externals/mbedtls/library\x509_crt.c **** 
 408:C:/Users/Yushev/git/wpcqi-optiga-trust-charge/optiga/externals/mbedtls/library\x509_crt.c ****     return( 0 );
 993              	 .loc 2 408 0
 994 006c 0023     	 movs r3,#0
 995              	.L61:
 409:C:/Users/Yushev/git/wpcqi-optiga-trust-charge/optiga/externals/mbedtls/library\x509_crt.c **** }
 996              	 .loc 2 409 0 discriminator 1
 997 006e 1846     	 mov r0,r3
 998 0070 1837     	 adds r7,r7,#24
 999              	.LCFI53:
 1000              	 .cfi_def_cfa_offset 8
 1001 0072 BD46     	 mov sp,r7
 1002              	.LCFI54:
 1003              	 .cfi_def_cfa_register 13
 1004              	 
 1005 0074 80BD     	 pop {r7,pc}
 1006              	.L63:
 1007 0076 00BF     	 .align 2
 1008              	.L62:
 1009 0078 9ADDFFFF 	 .word -8806
 1010              	 .cfi_endproc
 1011              	.LFE17:
 1013              	 .section .text.x509_get_dates,"ax",%progbits
 1014              	 .align 2
 1015              	 .thumb
 1016              	 .thumb_func
 1018              	x509_get_dates:
 1019              	.LFB18:
 410:C:/Users/Yushev/git/wpcqi-optiga-trust-charge/optiga/externals/mbedtls/library\x509_crt.c **** 
 411:C:/Users/Yushev/git/wpcqi-optiga-trust-charge/optiga/externals/mbedtls/library\x509_crt.c **** /*
 412:C:/Users/Yushev/git/wpcqi-optiga-trust-charge/optiga/externals/mbedtls/library\x509_crt.c ****  *  Validity ::= SEQUENCE {
 413:C:/Users/Yushev/git/wpcqi-optiga-trust-charge/optiga/externals/mbedtls/library\x509_crt.c ****  *       notBefore      Time,
 414:C:/Users/Yushev/git/wpcqi-optiga-trust-charge/optiga/externals/mbedtls/library\x509_crt.c ****  *       notAfter       Time }
 415:C:/Users/Yushev/git/wpcqi-optiga-trust-charge/optiga/externals/mbedtls/library\x509_crt.c ****  */
 416:C:/Users/Yushev/git/wpcqi-optiga-trust-charge/optiga/externals/mbedtls/library\x509_crt.c **** static int x509_get_dates( unsigned char **p,
 417:C:/Users/Yushev/git/wpcqi-optiga-trust-charge/optiga/externals/mbedtls/library\x509_crt.c ****                            const unsigned char *end,
 418:C:/Users/Yushev/git/wpcqi-optiga-trust-charge/optiga/externals/mbedtls/library\x509_crt.c ****                            mbedtls_x509_time *from,
 419:C:/Users/Yushev/git/wpcqi-optiga-trust-charge/optiga/externals/mbedtls/library\x509_crt.c ****                            mbedtls_x509_time *to )
 420:C:/Users/Yushev/git/wpcqi-optiga-trust-charge/optiga/externals/mbedtls/library\x509_crt.c **** {
 1020              	 .loc 2 420 0
 1021              	 .cfi_startproc
 1022              	 
 1023              	 
 1024 0000 80B5     	 push {r7,lr}
 1025              	.LCFI55:
 1026              	 .cfi_def_cfa_offset 8
 1027              	 .cfi_offset 7,-8
 1028              	 .cfi_offset 14,-4
 1029 0002 86B0     	 sub sp,sp,#24
 1030              	.LCFI56:
 1031              	 .cfi_def_cfa_offset 32
 1032 0004 00AF     	 add r7,sp,#0
 1033              	.LCFI57:
 1034              	 .cfi_def_cfa_register 7
 1035 0006 F860     	 str r0,[r7,#12]
 1036 0008 B960     	 str r1,[r7,#8]
 1037 000a 7A60     	 str r2,[r7,#4]
 1038 000c 3B60     	 str r3,[r7]
 421:C:/Users/Yushev/git/wpcqi-optiga-trust-charge/optiga/externals/mbedtls/library\x509_crt.c ****     int ret;
 422:C:/Users/Yushev/git/wpcqi-optiga-trust-charge/optiga/externals/mbedtls/library\x509_crt.c ****     size_t len;
 423:C:/Users/Yushev/git/wpcqi-optiga-trust-charge/optiga/externals/mbedtls/library\x509_crt.c **** 
 424:C:/Users/Yushev/git/wpcqi-optiga-trust-charge/optiga/externals/mbedtls/library\x509_crt.c ****     if( ( ret = mbedtls_asn1_get_tag( p, end, &len,
 1039              	 .loc 2 424 0
 1040 000e 07F11003 	 add r3,r7,#16
 1041 0012 F868     	 ldr r0,[r7,#12]
 1042 0014 B968     	 ldr r1,[r7,#8]
 1043 0016 1A46     	 mov r2,r3
 1044 0018 3023     	 movs r3,#48
 1045 001a FFF7FEFF 	 bl mbedtls_asn1_get_tag
 1046 001e 7861     	 str r0,[r7,#20]
 1047 0020 7B69     	 ldr r3,[r7,#20]
 1048 0022 002B     	 cmp r3,#0
 1049 0024 03D0     	 beq .L65
 425:C:/Users/Yushev/git/wpcqi-optiga-trust-charge/optiga/externals/mbedtls/library\x509_crt.c ****             MBEDTLS_ASN1_CONSTRUCTED | MBEDTLS_ASN1_SEQUENCE ) ) != 0 )
 426:C:/Users/Yushev/git/wpcqi-optiga-trust-charge/optiga/externals/mbedtls/library\x509_crt.c ****         return( MBEDTLS_ERR_X509_INVALID_DATE + ret );
 1050              	 .loc 2 426 0
 1051 0026 7B69     	 ldr r3,[r7,#20]
 1052 0028 A3F51053 	 sub r3,r3,#9216
 1053 002c 22E0     	 b .L70
 1054              	.L65:
 427:C:/Users/Yushev/git/wpcqi-optiga-trust-charge/optiga/externals/mbedtls/library\x509_crt.c **** 
 428:C:/Users/Yushev/git/wpcqi-optiga-trust-charge/optiga/externals/mbedtls/library\x509_crt.c ****     end = *p + len;
 1055              	 .loc 2 428 0
 1056 002e FB68     	 ldr r3,[r7,#12]
 1057 0030 1A68     	 ldr r2,[r3]
 1058 0032 3B69     	 ldr r3,[r7,#16]
 1059 0034 1344     	 add r3,r3,r2
 1060 0036 BB60     	 str r3,[r7,#8]
 429:C:/Users/Yushev/git/wpcqi-optiga-trust-charge/optiga/externals/mbedtls/library\x509_crt.c **** 
 430:C:/Users/Yushev/git/wpcqi-optiga-trust-charge/optiga/externals/mbedtls/library\x509_crt.c ****     if( ( ret = mbedtls_x509_get_time( p, end, from ) ) != 0 )
 1061              	 .loc 2 430 0
 1062 0038 F868     	 ldr r0,[r7,#12]
 1063 003a B968     	 ldr r1,[r7,#8]
 1064 003c 7A68     	 ldr r2,[r7,#4]
 1065 003e FFF7FEFF 	 bl mbedtls_x509_get_time
 1066 0042 7861     	 str r0,[r7,#20]
 1067 0044 7B69     	 ldr r3,[r7,#20]
 1068 0046 002B     	 cmp r3,#0
 1069 0048 01D0     	 beq .L67
 431:C:/Users/Yushev/git/wpcqi-optiga-trust-charge/optiga/externals/mbedtls/library\x509_crt.c ****         return( ret );
 1070              	 .loc 2 431 0
 1071 004a 7B69     	 ldr r3,[r7,#20]
 1072 004c 12E0     	 b .L70
 1073              	.L67:
 432:C:/Users/Yushev/git/wpcqi-optiga-trust-charge/optiga/externals/mbedtls/library\x509_crt.c **** 
 433:C:/Users/Yushev/git/wpcqi-optiga-trust-charge/optiga/externals/mbedtls/library\x509_crt.c ****     if( ( ret = mbedtls_x509_get_time( p, end, to ) ) != 0 )
 1074              	 .loc 2 433 0
 1075 004e F868     	 ldr r0,[r7,#12]
 1076 0050 B968     	 ldr r1,[r7,#8]
 1077 0052 3A68     	 ldr r2,[r7]
 1078 0054 FFF7FEFF 	 bl mbedtls_x509_get_time
 1079 0058 7861     	 str r0,[r7,#20]
 1080 005a 7B69     	 ldr r3,[r7,#20]
 1081 005c 002B     	 cmp r3,#0
 1082 005e 01D0     	 beq .L68
 434:C:/Users/Yushev/git/wpcqi-optiga-trust-charge/optiga/externals/mbedtls/library\x509_crt.c ****         return( ret );
 1083              	 .loc 2 434 0
 1084 0060 7B69     	 ldr r3,[r7,#20]
 1085 0062 07E0     	 b .L70
 1086              	.L68:
 435:C:/Users/Yushev/git/wpcqi-optiga-trust-charge/optiga/externals/mbedtls/library\x509_crt.c **** 
 436:C:/Users/Yushev/git/wpcqi-optiga-trust-charge/optiga/externals/mbedtls/library\x509_crt.c ****     if( *p != end )
 1087              	 .loc 2 436 0
 1088 0064 FB68     	 ldr r3,[r7,#12]
 1089 0066 1A68     	 ldr r2,[r3]
 1090 0068 BB68     	 ldr r3,[r7,#8]
 1091 006a 9A42     	 cmp r2,r3
 1092 006c 01D0     	 beq .L69
 437:C:/Users/Yushev/git/wpcqi-optiga-trust-charge/optiga/externals/mbedtls/library\x509_crt.c ****         return( MBEDTLS_ERR_X509_INVALID_DATE +
 1093              	 .loc 2 437 0
 1094 006e 034B     	 ldr r3,.L71
 1095 0070 00E0     	 b .L70
 1096              	.L69:
 438:C:/Users/Yushev/git/wpcqi-optiga-trust-charge/optiga/externals/mbedtls/library\x509_crt.c ****                 MBEDTLS_ERR_ASN1_LENGTH_MISMATCH );
 439:C:/Users/Yushev/git/wpcqi-optiga-trust-charge/optiga/externals/mbedtls/library\x509_crt.c **** 
 440:C:/Users/Yushev/git/wpcqi-optiga-trust-charge/optiga/externals/mbedtls/library\x509_crt.c ****     return( 0 );
 1097              	 .loc 2 440 0
 1098 0072 0023     	 movs r3,#0
 1099              	.L70:
 441:C:/Users/Yushev/git/wpcqi-optiga-trust-charge/optiga/externals/mbedtls/library\x509_crt.c **** }
 1100              	 .loc 2 441 0 discriminator 1
 1101 0074 1846     	 mov r0,r3
 1102 0076 1837     	 adds r7,r7,#24
 1103              	.LCFI58:
 1104              	 .cfi_def_cfa_offset 8
 1105 0078 BD46     	 mov sp,r7
 1106              	.LCFI59:
 1107              	 .cfi_def_cfa_register 13
 1108              	 
 1109 007a 80BD     	 pop {r7,pc}
 1110              	.L72:
 1111              	 .align 2
 1112              	.L71:
 1113 007c 9ADBFFFF 	 .word -9318
 1114              	 .cfi_endproc
 1115              	.LFE18:
 1117              	 .section .text.x509_get_uid,"ax",%progbits
 1118              	 .align 2
 1119              	 .thumb
 1120              	 .thumb_func
 1122              	x509_get_uid:
 1123              	.LFB19:
 442:C:/Users/Yushev/git/wpcqi-optiga-trust-charge/optiga/externals/mbedtls/library\x509_crt.c **** 
 443:C:/Users/Yushev/git/wpcqi-optiga-trust-charge/optiga/externals/mbedtls/library\x509_crt.c **** /*
 444:C:/Users/Yushev/git/wpcqi-optiga-trust-charge/optiga/externals/mbedtls/library\x509_crt.c ****  * X.509 v2/v3 unique identifier (not parsed)
 445:C:/Users/Yushev/git/wpcqi-optiga-trust-charge/optiga/externals/mbedtls/library\x509_crt.c ****  */
 446:C:/Users/Yushev/git/wpcqi-optiga-trust-charge/optiga/externals/mbedtls/library\x509_crt.c **** static int x509_get_uid( unsigned char **p,
 447:C:/Users/Yushev/git/wpcqi-optiga-trust-charge/optiga/externals/mbedtls/library\x509_crt.c ****                          const unsigned char *end,
 448:C:/Users/Yushev/git/wpcqi-optiga-trust-charge/optiga/externals/mbedtls/library\x509_crt.c ****                          mbedtls_x509_buf *uid, int n )
 449:C:/Users/Yushev/git/wpcqi-optiga-trust-charge/optiga/externals/mbedtls/library\x509_crt.c **** {
 1124              	 .loc 2 449 0
 1125              	 .cfi_startproc
 1126              	 
 1127              	 
 1128 0000 80B5     	 push {r7,lr}
 1129              	.LCFI60:
 1130              	 .cfi_def_cfa_offset 8
 1131              	 .cfi_offset 7,-8
 1132              	 .cfi_offset 14,-4
 1133 0002 86B0     	 sub sp,sp,#24
 1134              	.LCFI61:
 1135              	 .cfi_def_cfa_offset 32
 1136 0004 00AF     	 add r7,sp,#0
 1137              	.LCFI62:
 1138              	 .cfi_def_cfa_register 7
 1139 0006 F860     	 str r0,[r7,#12]
 1140 0008 B960     	 str r1,[r7,#8]
 1141 000a 7A60     	 str r2,[r7,#4]
 1142 000c 3B60     	 str r3,[r7]
 450:C:/Users/Yushev/git/wpcqi-optiga-trust-charge/optiga/externals/mbedtls/library\x509_crt.c ****     int ret;
 451:C:/Users/Yushev/git/wpcqi-optiga-trust-charge/optiga/externals/mbedtls/library\x509_crt.c **** 
 452:C:/Users/Yushev/git/wpcqi-optiga-trust-charge/optiga/externals/mbedtls/library\x509_crt.c ****     if( *p == end )
 1143              	 .loc 2 452 0
 1144 000e FB68     	 ldr r3,[r7,#12]
 1145 0010 1A68     	 ldr r2,[r3]
 1146 0012 BB68     	 ldr r3,[r7,#8]
 1147 0014 9A42     	 cmp r2,r3
 1148 0016 01D1     	 bne .L74
 453:C:/Users/Yushev/git/wpcqi-optiga-trust-charge/optiga/externals/mbedtls/library\x509_crt.c ****         return( 0 );
 1149              	 .loc 2 453 0
 1150 0018 0023     	 movs r3,#0
 1151 001a 26E0     	 b .L75
 1152              	.L74:
 454:C:/Users/Yushev/git/wpcqi-optiga-trust-charge/optiga/externals/mbedtls/library\x509_crt.c **** 
 455:C:/Users/Yushev/git/wpcqi-optiga-trust-charge/optiga/externals/mbedtls/library\x509_crt.c ****     uid->tag = **p;
 1153              	 .loc 2 455 0
 1154 001c FB68     	 ldr r3,[r7,#12]
 1155 001e 1B68     	 ldr r3,[r3]
 1156 0020 1B78     	 ldrb r3,[r3]
 1157 0022 1A46     	 mov r2,r3
 1158 0024 7B68     	 ldr r3,[r7,#4]
 1159 0026 1A60     	 str r2,[r3]
 456:C:/Users/Yushev/git/wpcqi-optiga-trust-charge/optiga/externals/mbedtls/library\x509_crt.c **** 
 457:C:/Users/Yushev/git/wpcqi-optiga-trust-charge/optiga/externals/mbedtls/library\x509_crt.c ****     if( ( ret = mbedtls_asn1_get_tag( p, end, &uid->len,
 1160              	 .loc 2 457 0
 1161 0028 7B68     	 ldr r3,[r7,#4]
 1162 002a 1A1D     	 adds r2,r3,#4
 1163 002c 3B68     	 ldr r3,[r7]
 1164 002e 43F0A003 	 orr r3,r3,#160
 1165 0032 F868     	 ldr r0,[r7,#12]
 1166 0034 B968     	 ldr r1,[r7,#8]
 1167 0036 FFF7FEFF 	 bl mbedtls_asn1_get_tag
 1168 003a 7861     	 str r0,[r7,#20]
 1169 003c 7B69     	 ldr r3,[r7,#20]
 1170 003e 002B     	 cmp r3,#0
 1171 0040 07D0     	 beq .L76
 458:C:/Users/Yushev/git/wpcqi-optiga-trust-charge/optiga/externals/mbedtls/library\x509_crt.c ****             MBEDTLS_ASN1_CONTEXT_SPECIFIC | MBEDTLS_ASN1_CONSTRUCTED | n ) ) != 0 )
 459:C:/Users/Yushev/git/wpcqi-optiga-trust-charge/optiga/externals/mbedtls/library\x509_crt.c ****     {
 460:C:/Users/Yushev/git/wpcqi-optiga-trust-charge/optiga/externals/mbedtls/library\x509_crt.c ****         if( ret == MBEDTLS_ERR_ASN1_UNEXPECTED_TAG )
 1172              	 .loc 2 460 0
 1173 0042 7B69     	 ldr r3,[r7,#20]
 1174 0044 13F1620F 	 cmn r3,#98
 1175 0048 01D1     	 bne .L77
 461:C:/Users/Yushev/git/wpcqi-optiga-trust-charge/optiga/externals/mbedtls/library\x509_crt.c ****             return( 0 );
 1176              	 .loc 2 461 0
 1177 004a 0023     	 movs r3,#0
 1178 004c 0DE0     	 b .L75
 1179              	.L77:
 462:C:/Users/Yushev/git/wpcqi-optiga-trust-charge/optiga/externals/mbedtls/library\x509_crt.c **** 
 463:C:/Users/Yushev/git/wpcqi-optiga-trust-charge/optiga/externals/mbedtls/library\x509_crt.c ****         return( ret );
 1180              	 .loc 2 463 0
 1181 004e 7B69     	 ldr r3,[r7,#20]
 1182 0050 0BE0     	 b .L75
 1183              	.L76:
 464:C:/Users/Yushev/git/wpcqi-optiga-trust-charge/optiga/externals/mbedtls/library\x509_crt.c ****     }
 465:C:/Users/Yushev/git/wpcqi-optiga-trust-charge/optiga/externals/mbedtls/library\x509_crt.c **** 
 466:C:/Users/Yushev/git/wpcqi-optiga-trust-charge/optiga/externals/mbedtls/library\x509_crt.c ****     uid->p = *p;
 1184              	 .loc 2 466 0
 1185 0052 FB68     	 ldr r3,[r7,#12]
 1186 0054 1A68     	 ldr r2,[r3]
 1187 0056 7B68     	 ldr r3,[r7,#4]
 1188 0058 9A60     	 str r2,[r3,#8]
 467:C:/Users/Yushev/git/wpcqi-optiga-trust-charge/optiga/externals/mbedtls/library\x509_crt.c ****     *p += uid->len;
 1189              	 .loc 2 467 0
 1190 005a FB68     	 ldr r3,[r7,#12]
 1191 005c 1A68     	 ldr r2,[r3]
 1192 005e 7B68     	 ldr r3,[r7,#4]
 1193 0060 5B68     	 ldr r3,[r3,#4]
 1194 0062 1A44     	 add r2,r2,r3
 1195 0064 FB68     	 ldr r3,[r7,#12]
 1196 0066 1A60     	 str r2,[r3]
 468:C:/Users/Yushev/git/wpcqi-optiga-trust-charge/optiga/externals/mbedtls/library\x509_crt.c **** 
 469:C:/Users/Yushev/git/wpcqi-optiga-trust-charge/optiga/externals/mbedtls/library\x509_crt.c ****     return( 0 );
 1197              	 .loc 2 469 0
 1198 0068 0023     	 movs r3,#0
 1199              	.L75:
 470:C:/Users/Yushev/git/wpcqi-optiga-trust-charge/optiga/externals/mbedtls/library\x509_crt.c **** }
 1200              	 .loc 2 470 0
 1201 006a 1846     	 mov r0,r3
 1202 006c 1837     	 adds r7,r7,#24
 1203              	.LCFI63:
 1204              	 .cfi_def_cfa_offset 8
 1205 006e BD46     	 mov sp,r7
 1206              	.LCFI64:
 1207              	 .cfi_def_cfa_register 13
 1208              	 
 1209 0070 80BD     	 pop {r7,pc}
 1210              	 .cfi_endproc
 1211              	.LFE19:
 1213 0072 00BF     	 .section .text.x509_get_basic_constraints,"ax",%progbits
 1214              	 .align 2
 1215              	 .thumb
 1216              	 .thumb_func
 1218              	x509_get_basic_constraints:
 1219              	.LFB20:
 471:C:/Users/Yushev/git/wpcqi-optiga-trust-charge/optiga/externals/mbedtls/library\x509_crt.c **** 
 472:C:/Users/Yushev/git/wpcqi-optiga-trust-charge/optiga/externals/mbedtls/library\x509_crt.c **** static int x509_get_basic_constraints( unsigned char **p,
 473:C:/Users/Yushev/git/wpcqi-optiga-trust-charge/optiga/externals/mbedtls/library\x509_crt.c ****                                        const unsigned char *end,
 474:C:/Users/Yushev/git/wpcqi-optiga-trust-charge/optiga/externals/mbedtls/library\x509_crt.c ****                                        int *ca_istrue,
 475:C:/Users/Yushev/git/wpcqi-optiga-trust-charge/optiga/externals/mbedtls/library\x509_crt.c ****                                        int *max_pathlen )
 476:C:/Users/Yushev/git/wpcqi-optiga-trust-charge/optiga/externals/mbedtls/library\x509_crt.c **** {
 1220              	 .loc 2 476 0
 1221              	 .cfi_startproc
 1222              	 
 1223              	 
 1224 0000 80B5     	 push {r7,lr}
 1225              	.LCFI65:
 1226              	 .cfi_def_cfa_offset 8
 1227              	 .cfi_offset 7,-8
 1228              	 .cfi_offset 14,-4
 1229 0002 86B0     	 sub sp,sp,#24
 1230              	.LCFI66:
 1231              	 .cfi_def_cfa_offset 32
 1232 0004 00AF     	 add r7,sp,#0
 1233              	.LCFI67:
 1234              	 .cfi_def_cfa_register 7
 1235 0006 F860     	 str r0,[r7,#12]
 1236 0008 B960     	 str r1,[r7,#8]
 1237 000a 7A60     	 str r2,[r7,#4]
 1238 000c 3B60     	 str r3,[r7]
 477:C:/Users/Yushev/git/wpcqi-optiga-trust-charge/optiga/externals/mbedtls/library\x509_crt.c ****     int ret;
 478:C:/Users/Yushev/git/wpcqi-optiga-trust-charge/optiga/externals/mbedtls/library\x509_crt.c ****     size_t len;
 479:C:/Users/Yushev/git/wpcqi-optiga-trust-charge/optiga/externals/mbedtls/library\x509_crt.c **** 
 480:C:/Users/Yushev/git/wpcqi-optiga-trust-charge/optiga/externals/mbedtls/library\x509_crt.c ****     /*
 481:C:/Users/Yushev/git/wpcqi-optiga-trust-charge/optiga/externals/mbedtls/library\x509_crt.c ****      * BasicConstraints ::= SEQUENCE {
 482:C:/Users/Yushev/git/wpcqi-optiga-trust-charge/optiga/externals/mbedtls/library\x509_crt.c ****      *      cA                      BOOLEAN DEFAULT FALSE,
 483:C:/Users/Yushev/git/wpcqi-optiga-trust-charge/optiga/externals/mbedtls/library\x509_crt.c ****      *      pathLenConstraint       INTEGER (0..MAX) OPTIONAL }
 484:C:/Users/Yushev/git/wpcqi-optiga-trust-charge/optiga/externals/mbedtls/library\x509_crt.c ****      */
 485:C:/Users/Yushev/git/wpcqi-optiga-trust-charge/optiga/externals/mbedtls/library\x509_crt.c ****     *ca_istrue = 0; /* DEFAULT FALSE */
 1239              	 .loc 2 485 0
 1240 000e 7B68     	 ldr r3,[r7,#4]
 1241 0010 0022     	 movs r2,#0
 1242 0012 1A60     	 str r2,[r3]
 486:C:/Users/Yushev/git/wpcqi-optiga-trust-charge/optiga/externals/mbedtls/library\x509_crt.c ****     *max_pathlen = 0; /* endless */
 1243              	 .loc 2 486 0
 1244 0014 3B68     	 ldr r3,[r7]
 1245 0016 0022     	 movs r2,#0
 1246 0018 1A60     	 str r2,[r3]
 487:C:/Users/Yushev/git/wpcqi-optiga-trust-charge/optiga/externals/mbedtls/library\x509_crt.c **** 
 488:C:/Users/Yushev/git/wpcqi-optiga-trust-charge/optiga/externals/mbedtls/library\x509_crt.c ****     if( ( ret = mbedtls_asn1_get_tag( p, end, &len,
 1247              	 .loc 2 488 0
 1248 001a 07F11003 	 add r3,r7,#16
 1249 001e F868     	 ldr r0,[r7,#12]
 1250 0020 B968     	 ldr r1,[r7,#8]
 1251 0022 1A46     	 mov r2,r3
 1252 0024 3023     	 movs r3,#48
 1253 0026 FFF7FEFF 	 bl mbedtls_asn1_get_tag
 1254 002a 7861     	 str r0,[r7,#20]
 1255 002c 7B69     	 ldr r3,[r7,#20]
 1256 002e 002B     	 cmp r3,#0
 1257 0030 03D0     	 beq .L79
 489:C:/Users/Yushev/git/wpcqi-optiga-trust-charge/optiga/externals/mbedtls/library\x509_crt.c ****             MBEDTLS_ASN1_CONSTRUCTED | MBEDTLS_ASN1_SEQUENCE ) ) != 0 )
 490:C:/Users/Yushev/git/wpcqi-optiga-trust-charge/optiga/externals/mbedtls/library\x509_crt.c ****         return( MBEDTLS_ERR_X509_INVALID_EXTENSIONS + ret );
 1258              	 .loc 2 490 0
 1259 0032 7B69     	 ldr r3,[r7,#20]
 1260 0034 A3F51453 	 sub r3,r3,#9472
 1261 0038 48E0     	 b .L88
 1262              	.L79:
 491:C:/Users/Yushev/git/wpcqi-optiga-trust-charge/optiga/externals/mbedtls/library\x509_crt.c **** 
 492:C:/Users/Yushev/git/wpcqi-optiga-trust-charge/optiga/externals/mbedtls/library\x509_crt.c ****     if( *p == end )
 1263              	 .loc 2 492 0
 1264 003a FB68     	 ldr r3,[r7,#12]
 1265 003c 1A68     	 ldr r2,[r3]
 1266 003e BB68     	 ldr r3,[r7,#8]
 1267 0040 9A42     	 cmp r2,r3
 1268 0042 01D1     	 bne .L81
 493:C:/Users/Yushev/git/wpcqi-optiga-trust-charge/optiga/externals/mbedtls/library\x509_crt.c ****         return( 0 );
 1269              	 .loc 2 493 0
 1270 0044 0023     	 movs r3,#0
 1271 0046 41E0     	 b .L88
 1272              	.L81:
 494:C:/Users/Yushev/git/wpcqi-optiga-trust-charge/optiga/externals/mbedtls/library\x509_crt.c **** 
 495:C:/Users/Yushev/git/wpcqi-optiga-trust-charge/optiga/externals/mbedtls/library\x509_crt.c ****     if( ( ret = mbedtls_asn1_get_bool( p, end, ca_istrue ) ) != 0 )
 1273              	 .loc 2 495 0
 1274 0048 F868     	 ldr r0,[r7,#12]
 1275 004a B968     	 ldr r1,[r7,#8]
 1276 004c 7A68     	 ldr r2,[r7,#4]
 1277 004e FFF7FEFF 	 bl mbedtls_asn1_get_bool
 1278 0052 7861     	 str r0,[r7,#20]
 1279 0054 7B69     	 ldr r3,[r7,#20]
 1280 0056 002B     	 cmp r3,#0
 1281 0058 17D0     	 beq .L82
 496:C:/Users/Yushev/git/wpcqi-optiga-trust-charge/optiga/externals/mbedtls/library\x509_crt.c ****     {
 497:C:/Users/Yushev/git/wpcqi-optiga-trust-charge/optiga/externals/mbedtls/library\x509_crt.c ****         if( ret == MBEDTLS_ERR_ASN1_UNEXPECTED_TAG )
 1282              	 .loc 2 497 0
 1283 005a 7B69     	 ldr r3,[r7,#20]
 1284 005c 13F1620F 	 cmn r3,#98
 1285 0060 05D1     	 bne .L83
 498:C:/Users/Yushev/git/wpcqi-optiga-trust-charge/optiga/externals/mbedtls/library\x509_crt.c ****             ret = mbedtls_asn1_get_int( p, end, ca_istrue );
 1286              	 .loc 2 498 0
 1287 0062 F868     	 ldr r0,[r7,#12]
 1288 0064 B968     	 ldr r1,[r7,#8]
 1289 0066 7A68     	 ldr r2,[r7,#4]
 1290 0068 FFF7FEFF 	 bl mbedtls_asn1_get_int
 1291 006c 7861     	 str r0,[r7,#20]
 1292              	.L83:
 499:C:/Users/Yushev/git/wpcqi-optiga-trust-charge/optiga/externals/mbedtls/library\x509_crt.c **** 
 500:C:/Users/Yushev/git/wpcqi-optiga-trust-charge/optiga/externals/mbedtls/library\x509_crt.c ****         if( ret != 0 )
 1293              	 .loc 2 500 0
 1294 006e 7B69     	 ldr r3,[r7,#20]
 1295 0070 002B     	 cmp r3,#0
 1296 0072 03D0     	 beq .L84
 501:C:/Users/Yushev/git/wpcqi-optiga-trust-charge/optiga/externals/mbedtls/library\x509_crt.c ****             return( MBEDTLS_ERR_X509_INVALID_EXTENSIONS + ret );
 1297              	 .loc 2 501 0
 1298 0074 7B69     	 ldr r3,[r7,#20]
 1299 0076 A3F51453 	 sub r3,r3,#9472
 1300 007a 27E0     	 b .L88
 1301              	.L84:
 502:C:/Users/Yushev/git/wpcqi-optiga-trust-charge/optiga/externals/mbedtls/library\x509_crt.c **** 
 503:C:/Users/Yushev/git/wpcqi-optiga-trust-charge/optiga/externals/mbedtls/library\x509_crt.c ****         if( *ca_istrue != 0 )
 1302              	 .loc 2 503 0
 1303 007c 7B68     	 ldr r3,[r7,#4]
 1304 007e 1B68     	 ldr r3,[r3]
 1305 0080 002B     	 cmp r3,#0
 1306 0082 02D0     	 beq .L82
 504:C:/Users/Yushev/git/wpcqi-optiga-trust-charge/optiga/externals/mbedtls/library\x509_crt.c ****             *ca_istrue = 1;
 1307              	 .loc 2 504 0
 1308 0084 7B68     	 ldr r3,[r7,#4]
 1309 0086 0122     	 movs r2,#1
 1310 0088 1A60     	 str r2,[r3]
 1311              	.L82:
 505:C:/Users/Yushev/git/wpcqi-optiga-trust-charge/optiga/externals/mbedtls/library\x509_crt.c ****     }
 506:C:/Users/Yushev/git/wpcqi-optiga-trust-charge/optiga/externals/mbedtls/library\x509_crt.c **** 
 507:C:/Users/Yushev/git/wpcqi-optiga-trust-charge/optiga/externals/mbedtls/library\x509_crt.c ****     if( *p == end )
 1312              	 .loc 2 507 0
 1313 008a FB68     	 ldr r3,[r7,#12]
 1314 008c 1A68     	 ldr r2,[r3]
 1315 008e BB68     	 ldr r3,[r7,#8]
 1316 0090 9A42     	 cmp r2,r3
 1317 0092 01D1     	 bne .L85
 508:C:/Users/Yushev/git/wpcqi-optiga-trust-charge/optiga/externals/mbedtls/library\x509_crt.c ****         return( 0 );
 1318              	 .loc 2 508 0
 1319 0094 0023     	 movs r3,#0
 1320 0096 19E0     	 b .L88
 1321              	.L85:
 509:C:/Users/Yushev/git/wpcqi-optiga-trust-charge/optiga/externals/mbedtls/library\x509_crt.c **** 
 510:C:/Users/Yushev/git/wpcqi-optiga-trust-charge/optiga/externals/mbedtls/library\x509_crt.c ****     if( ( ret = mbedtls_asn1_get_int( p, end, max_pathlen ) ) != 0 )
 1322              	 .loc 2 510 0
 1323 0098 F868     	 ldr r0,[r7,#12]
 1324 009a B968     	 ldr r1,[r7,#8]
 1325 009c 3A68     	 ldr r2,[r7]
 1326 009e FFF7FEFF 	 bl mbedtls_asn1_get_int
 1327 00a2 7861     	 str r0,[r7,#20]
 1328 00a4 7B69     	 ldr r3,[r7,#20]
 1329 00a6 002B     	 cmp r3,#0
 1330 00a8 03D0     	 beq .L86
 511:C:/Users/Yushev/git/wpcqi-optiga-trust-charge/optiga/externals/mbedtls/library\x509_crt.c ****         return( MBEDTLS_ERR_X509_INVALID_EXTENSIONS + ret );
 1331              	 .loc 2 511 0
 1332 00aa 7B69     	 ldr r3,[r7,#20]
 1333 00ac A3F51453 	 sub r3,r3,#9472
 1334 00b0 0CE0     	 b .L88
 1335              	.L86:
 512:C:/Users/Yushev/git/wpcqi-optiga-trust-charge/optiga/externals/mbedtls/library\x509_crt.c **** 
 513:C:/Users/Yushev/git/wpcqi-optiga-trust-charge/optiga/externals/mbedtls/library\x509_crt.c ****     if( *p != end )
 1336              	 .loc 2 513 0
 1337 00b2 FB68     	 ldr r3,[r7,#12]
 1338 00b4 1A68     	 ldr r2,[r3]
 1339 00b6 BB68     	 ldr r3,[r7,#8]
 1340 00b8 9A42     	 cmp r2,r3
 1341 00ba 01D0     	 beq .L87
 514:C:/Users/Yushev/git/wpcqi-optiga-trust-charge/optiga/externals/mbedtls/library\x509_crt.c ****         return( MBEDTLS_ERR_X509_INVALID_EXTENSIONS +
 1342              	 .loc 2 514 0
 1343 00bc 054B     	 ldr r3,.L89
 1344 00be 05E0     	 b .L88
 1345              	.L87:
 515:C:/Users/Yushev/git/wpcqi-optiga-trust-charge/optiga/externals/mbedtls/library\x509_crt.c ****                 MBEDTLS_ERR_ASN1_LENGTH_MISMATCH );
 516:C:/Users/Yushev/git/wpcqi-optiga-trust-charge/optiga/externals/mbedtls/library\x509_crt.c **** 
 517:C:/Users/Yushev/git/wpcqi-optiga-trust-charge/optiga/externals/mbedtls/library\x509_crt.c ****     (*max_pathlen)++;
 1346              	 .loc 2 517 0
 1347 00c0 3B68     	 ldr r3,[r7]
 1348 00c2 1B68     	 ldr r3,[r3]
 1349 00c4 5A1C     	 adds r2,r3,#1
 1350 00c6 3B68     	 ldr r3,[r7]
 1351 00c8 1A60     	 str r2,[r3]
 518:C:/Users/Yushev/git/wpcqi-optiga-trust-charge/optiga/externals/mbedtls/library\x509_crt.c **** 
 519:C:/Users/Yushev/git/wpcqi-optiga-trust-charge/optiga/externals/mbedtls/library\x509_crt.c ****     return( 0 );
 1352              	 .loc 2 519 0
 1353 00ca 0023     	 movs r3,#0
 1354              	.L88:
 520:C:/Users/Yushev/git/wpcqi-optiga-trust-charge/optiga/externals/mbedtls/library\x509_crt.c **** }
 1355              	 .loc 2 520 0 discriminator 1
 1356 00cc 1846     	 mov r0,r3
 1357 00ce 1837     	 adds r7,r7,#24
 1358              	.LCFI68:
 1359              	 .cfi_def_cfa_offset 8
 1360 00d0 BD46     	 mov sp,r7
 1361              	.LCFI69:
 1362              	 .cfi_def_cfa_register 13
 1363              	 
 1364 00d2 80BD     	 pop {r7,pc}
 1365              	.L90:
 1366              	 .align 2
 1367              	.L89:
 1368 00d4 9ADAFFFF 	 .word -9574
 1369              	 .cfi_endproc
 1370              	.LFE20:
 1372              	 .section .text.x509_get_ns_cert_type,"ax",%progbits
 1373              	 .align 2
 1374              	 .thumb
 1375              	 .thumb_func
 1377              	x509_get_ns_cert_type:
 1378              	.LFB21:
 521:C:/Users/Yushev/git/wpcqi-optiga-trust-charge/optiga/externals/mbedtls/library\x509_crt.c **** 
 522:C:/Users/Yushev/git/wpcqi-optiga-trust-charge/optiga/externals/mbedtls/library\x509_crt.c **** static int x509_get_ns_cert_type( unsigned char **p,
 523:C:/Users/Yushev/git/wpcqi-optiga-trust-charge/optiga/externals/mbedtls/library\x509_crt.c ****                                        const unsigned char *end,
 524:C:/Users/Yushev/git/wpcqi-optiga-trust-charge/optiga/externals/mbedtls/library\x509_crt.c ****                                        unsigned char *ns_cert_type)
 525:C:/Users/Yushev/git/wpcqi-optiga-trust-charge/optiga/externals/mbedtls/library\x509_crt.c **** {
 1379              	 .loc 2 525 0
 1380              	 .cfi_startproc
 1381              	 
 1382              	 
 1383 0000 80B5     	 push {r7,lr}
 1384              	.LCFI70:
 1385              	 .cfi_def_cfa_offset 8
 1386              	 .cfi_offset 7,-8
 1387              	 .cfi_offset 14,-4
 1388 0002 88B0     	 sub sp,sp,#32
 1389              	.LCFI71:
 1390              	 .cfi_def_cfa_offset 40
 1391 0004 00AF     	 add r7,sp,#0
 1392              	.LCFI72:
 1393              	 .cfi_def_cfa_register 7
 1394 0006 F860     	 str r0,[r7,#12]
 1395 0008 B960     	 str r1,[r7,#8]
 1396 000a 7A60     	 str r2,[r7,#4]
 526:C:/Users/Yushev/git/wpcqi-optiga-trust-charge/optiga/externals/mbedtls/library\x509_crt.c ****     int ret;
 527:C:/Users/Yushev/git/wpcqi-optiga-trust-charge/optiga/externals/mbedtls/library\x509_crt.c ****     mbedtls_x509_bitstring bs = { 0, 0, NULL };
 1397              	 .loc 2 527 0
 1398 000c 0023     	 movs r3,#0
 1399 000e 3B61     	 str r3,[r7,#16]
 1400 0010 0023     	 movs r3,#0
 1401 0012 3B75     	 strb r3,[r7,#20]
 1402 0014 0023     	 movs r3,#0
 1403 0016 BB61     	 str r3,[r7,#24]
 528:C:/Users/Yushev/git/wpcqi-optiga-trust-charge/optiga/externals/mbedtls/library\x509_crt.c **** 
 529:C:/Users/Yushev/git/wpcqi-optiga-trust-charge/optiga/externals/mbedtls/library\x509_crt.c ****     if( ( ret = mbedtls_asn1_get_bitstring( p, end, &bs ) ) != 0 )
 1404              	 .loc 2 529 0
 1405 0018 07F11003 	 add r3,r7,#16
 1406 001c F868     	 ldr r0,[r7,#12]
 1407 001e B968     	 ldr r1,[r7,#8]
 1408 0020 1A46     	 mov r2,r3
 1409 0022 FFF7FEFF 	 bl mbedtls_asn1_get_bitstring
 1410 0026 F861     	 str r0,[r7,#28]
 1411 0028 FB69     	 ldr r3,[r7,#28]
 1412 002a 002B     	 cmp r3,#0
 1413 002c 03D0     	 beq .L92
 530:C:/Users/Yushev/git/wpcqi-optiga-trust-charge/optiga/externals/mbedtls/library\x509_crt.c ****         return( MBEDTLS_ERR_X509_INVALID_EXTENSIONS + ret );
 1414              	 .loc 2 530 0
 1415 002e FB69     	 ldr r3,[r7,#28]
 1416 0030 A3F51453 	 sub r3,r3,#9472
 1417 0034 09E0     	 b .L95
 1418              	.L92:
 531:C:/Users/Yushev/git/wpcqi-optiga-trust-charge/optiga/externals/mbedtls/library\x509_crt.c **** 
 532:C:/Users/Yushev/git/wpcqi-optiga-trust-charge/optiga/externals/mbedtls/library\x509_crt.c ****     if( bs.len != 1 )
 1419              	 .loc 2 532 0
 1420 0036 3B69     	 ldr r3,[r7,#16]
 1421 0038 012B     	 cmp r3,#1
 1422 003a 01D0     	 beq .L94
 533:C:/Users/Yushev/git/wpcqi-optiga-trust-charge/optiga/externals/mbedtls/library\x509_crt.c ****         return( MBEDTLS_ERR_X509_INVALID_EXTENSIONS +
 1423              	 .loc 2 533 0
 1424 003c 054B     	 ldr r3,.L96
 1425 003e 04E0     	 b .L95
 1426              	.L94:
 534:C:/Users/Yushev/git/wpcqi-optiga-trust-charge/optiga/externals/mbedtls/library\x509_crt.c ****                 MBEDTLS_ERR_ASN1_INVALID_LENGTH );
 535:C:/Users/Yushev/git/wpcqi-optiga-trust-charge/optiga/externals/mbedtls/library\x509_crt.c **** 
 536:C:/Users/Yushev/git/wpcqi-optiga-trust-charge/optiga/externals/mbedtls/library\x509_crt.c ****     /* Get actual bitstring */
 537:C:/Users/Yushev/git/wpcqi-optiga-trust-charge/optiga/externals/mbedtls/library\x509_crt.c ****     *ns_cert_type = *bs.p;
 1427              	 .loc 2 537 0
 1428 0040 BB69     	 ldr r3,[r7,#24]
 1429 0042 1A78     	 ldrb r2,[r3]
 1430 0044 7B68     	 ldr r3,[r7,#4]
 1431 0046 1A70     	 strb r2,[r3]
 538:C:/Users/Yushev/git/wpcqi-optiga-trust-charge/optiga/externals/mbedtls/library\x509_crt.c ****     return( 0 );
 1432              	 .loc 2 538 0
 1433 0048 0023     	 movs r3,#0
 1434              	.L95:
 539:C:/Users/Yushev/git/wpcqi-optiga-trust-charge/optiga/externals/mbedtls/library\x509_crt.c **** }
 1435              	 .loc 2 539 0 discriminator 1
 1436 004a 1846     	 mov r0,r3
 1437 004c 2037     	 adds r7,r7,#32
 1438              	.LCFI73:
 1439              	 .cfi_def_cfa_offset 8
 1440 004e BD46     	 mov sp,r7
 1441              	.LCFI74:
 1442              	 .cfi_def_cfa_register 13
 1443              	 
 1444 0050 80BD     	 pop {r7,pc}
 1445              	.L97:
 1446 0052 00BF     	 .align 2
 1447              	.L96:
 1448 0054 9CDAFFFF 	 .word -9572
 1449              	 .cfi_endproc
 1450              	.LFE21:
 1452              	 .section .text.x509_get_key_usage,"ax",%progbits
 1453              	 .align 2
 1454              	 .thumb
 1455              	 .thumb_func
 1457              	x509_get_key_usage:
 1458              	.LFB22:
 540:C:/Users/Yushev/git/wpcqi-optiga-trust-charge/optiga/externals/mbedtls/library\x509_crt.c **** 
 541:C:/Users/Yushev/git/wpcqi-optiga-trust-charge/optiga/externals/mbedtls/library\x509_crt.c **** static int x509_get_key_usage( unsigned char **p,
 542:C:/Users/Yushev/git/wpcqi-optiga-trust-charge/optiga/externals/mbedtls/library\x509_crt.c ****                                const unsigned char *end,
 543:C:/Users/Yushev/git/wpcqi-optiga-trust-charge/optiga/externals/mbedtls/library\x509_crt.c ****                                unsigned int *key_usage)
 544:C:/Users/Yushev/git/wpcqi-optiga-trust-charge/optiga/externals/mbedtls/library\x509_crt.c **** {
 1459              	 .loc 2 544 0
 1460              	 .cfi_startproc
 1461              	 
 1462              	 
 1463 0000 80B5     	 push {r7,lr}
 1464              	.LCFI75:
 1465              	 .cfi_def_cfa_offset 8
 1466              	 .cfi_offset 7,-8
 1467              	 .cfi_offset 14,-4
 1468 0002 8AB0     	 sub sp,sp,#40
 1469              	.LCFI76:
 1470              	 .cfi_def_cfa_offset 48
 1471 0004 00AF     	 add r7,sp,#0
 1472              	.LCFI77:
 1473              	 .cfi_def_cfa_register 7
 1474 0006 F860     	 str r0,[r7,#12]
 1475 0008 B960     	 str r1,[r7,#8]
 1476 000a 7A60     	 str r2,[r7,#4]
 545:C:/Users/Yushev/git/wpcqi-optiga-trust-charge/optiga/externals/mbedtls/library\x509_crt.c ****     int ret;
 546:C:/Users/Yushev/git/wpcqi-optiga-trust-charge/optiga/externals/mbedtls/library\x509_crt.c ****     size_t i;
 547:C:/Users/Yushev/git/wpcqi-optiga-trust-charge/optiga/externals/mbedtls/library\x509_crt.c ****     mbedtls_x509_bitstring bs = { 0, 0, NULL };
 1477              	 .loc 2 547 0
 1478 000c 0023     	 movs r3,#0
 1479 000e 7B61     	 str r3,[r7,#20]
 1480 0010 0023     	 movs r3,#0
 1481 0012 3B76     	 strb r3,[r7,#24]
 1482 0014 0023     	 movs r3,#0
 1483 0016 FB61     	 str r3,[r7,#28]
 548:C:/Users/Yushev/git/wpcqi-optiga-trust-charge/optiga/externals/mbedtls/library\x509_crt.c **** 
 549:C:/Users/Yushev/git/wpcqi-optiga-trust-charge/optiga/externals/mbedtls/library\x509_crt.c ****     if( ( ret = mbedtls_asn1_get_bitstring( p, end, &bs ) ) != 0 )
 1484              	 .loc 2 549 0
 1485 0018 07F11403 	 add r3,r7,#20
 1486 001c F868     	 ldr r0,[r7,#12]
 1487 001e B968     	 ldr r1,[r7,#8]
 1488 0020 1A46     	 mov r2,r3
 1489 0022 FFF7FEFF 	 bl mbedtls_asn1_get_bitstring
 1490 0026 3862     	 str r0,[r7,#32]
 1491 0028 3B6A     	 ldr r3,[r7,#32]
 1492 002a 002B     	 cmp r3,#0
 1493 002c 03D0     	 beq .L99
 550:C:/Users/Yushev/git/wpcqi-optiga-trust-charge/optiga/externals/mbedtls/library\x509_crt.c ****         return( MBEDTLS_ERR_X509_INVALID_EXTENSIONS + ret );
 1494              	 .loc 2 550 0
 1495 002e 3B6A     	 ldr r3,[r7,#32]
 1496 0030 A3F51453 	 sub r3,r3,#9472
 1497 0034 23E0     	 b .L105
 1498              	.L99:
 551:C:/Users/Yushev/git/wpcqi-optiga-trust-charge/optiga/externals/mbedtls/library\x509_crt.c **** 
 552:C:/Users/Yushev/git/wpcqi-optiga-trust-charge/optiga/externals/mbedtls/library\x509_crt.c ****     if( bs.len < 1 )
 1499              	 .loc 2 552 0
 1500 0036 7B69     	 ldr r3,[r7,#20]
 1501 0038 002B     	 cmp r3,#0
 1502 003a 01D1     	 bne .L101
 553:C:/Users/Yushev/git/wpcqi-optiga-trust-charge/optiga/externals/mbedtls/library\x509_crt.c ****         return( MBEDTLS_ERR_X509_INVALID_EXTENSIONS +
 1503              	 .loc 2 553 0
 1504 003c 124B     	 ldr r3,.L106
 1505 003e 1EE0     	 b .L105
 1506              	.L101:
 554:C:/Users/Yushev/git/wpcqi-optiga-trust-charge/optiga/externals/mbedtls/library\x509_crt.c ****                 MBEDTLS_ERR_ASN1_INVALID_LENGTH );
 555:C:/Users/Yushev/git/wpcqi-optiga-trust-charge/optiga/externals/mbedtls/library\x509_crt.c **** 
 556:C:/Users/Yushev/git/wpcqi-optiga-trust-charge/optiga/externals/mbedtls/library\x509_crt.c ****     /* Get actual bitstring */
 557:C:/Users/Yushev/git/wpcqi-optiga-trust-charge/optiga/externals/mbedtls/library\x509_crt.c ****     *key_usage = 0;
 1507              	 .loc 2 557 0
 1508 0040 7B68     	 ldr r3,[r7,#4]
 1509 0042 0022     	 movs r2,#0
 1510 0044 1A60     	 str r2,[r3]
 558:C:/Users/Yushev/git/wpcqi-optiga-trust-charge/optiga/externals/mbedtls/library\x509_crt.c ****     for( i = 0; i < bs.len && i < sizeof( unsigned int ); i++ )
 1511              	 .loc 2 558 0
 1512 0046 0023     	 movs r3,#0
 1513 0048 7B62     	 str r3,[r7,#36]
 1514 004a 10E0     	 b .L102
 1515              	.L104:
 559:C:/Users/Yushev/git/wpcqi-optiga-trust-charge/optiga/externals/mbedtls/library\x509_crt.c ****     {
 560:C:/Users/Yushev/git/wpcqi-optiga-trust-charge/optiga/externals/mbedtls/library\x509_crt.c ****         *key_usage |= (unsigned int) bs.p[i] << (8*i);
 1516              	 .loc 2 560 0 discriminator 4
 1517 004c 7B68     	 ldr r3,[r7,#4]
 1518 004e 1A68     	 ldr r2,[r3]
 1519 0050 F969     	 ldr r1,[r7,#28]
 1520 0052 7B6A     	 ldr r3,[r7,#36]
 1521 0054 0B44     	 add r3,r3,r1
 1522 0056 1B78     	 ldrb r3,[r3]
 1523 0058 1946     	 mov r1,r3
 1524 005a 7B6A     	 ldr r3,[r7,#36]
 1525 005c DB00     	 lsls r3,r3,#3
 1526 005e 01FA03F3 	 lsl r3,r1,r3
 1527 0062 1A43     	 orrs r2,r2,r3
 1528 0064 7B68     	 ldr r3,[r7,#4]
 1529 0066 1A60     	 str r2,[r3]
 558:C:/Users/Yushev/git/wpcqi-optiga-trust-charge/optiga/externals/mbedtls/library\x509_crt.c ****     for( i = 0; i < bs.len && i < sizeof( unsigned int ); i++ )
 1530              	 .loc 2 558 0 discriminator 4
 1531 0068 7B6A     	 ldr r3,[r7,#36]
 1532 006a 0133     	 adds r3,r3,#1
 1533 006c 7B62     	 str r3,[r7,#36]
 1534              	.L102:
 558:C:/Users/Yushev/git/wpcqi-optiga-trust-charge/optiga/externals/mbedtls/library\x509_crt.c ****     for( i = 0; i < bs.len && i < sizeof( unsigned int ); i++ )
 1535              	 .loc 2 558 0 is_stmt 0 discriminator 1
 1536 006e 7A69     	 ldr r2,[r7,#20]
 1537 0070 7B6A     	 ldr r3,[r7,#36]
 1538 0072 9A42     	 cmp r2,r3
 1539 0074 02D9     	 bls .L103
 558:C:/Users/Yushev/git/wpcqi-optiga-trust-charge/optiga/externals/mbedtls/library\x509_crt.c ****     for( i = 0; i < bs.len && i < sizeof( unsigned int ); i++ )
 1540              	 .loc 2 558 0 discriminator 3
 1541 0076 7B6A     	 ldr r3,[r7,#36]
 1542 0078 032B     	 cmp r3,#3
 1543 007a E7D9     	 bls .L104
 1544              	.L103:
 561:C:/Users/Yushev/git/wpcqi-optiga-trust-charge/optiga/externals/mbedtls/library\x509_crt.c ****     }
 562:C:/Users/Yushev/git/wpcqi-optiga-trust-charge/optiga/externals/mbedtls/library\x509_crt.c **** 
 563:C:/Users/Yushev/git/wpcqi-optiga-trust-charge/optiga/externals/mbedtls/library\x509_crt.c ****     return( 0 );
 1545              	 .loc 2 563 0 is_stmt 1
 1546 007c 0023     	 movs r3,#0
 1547              	.L105:
 564:C:/Users/Yushev/git/wpcqi-optiga-trust-charge/optiga/externals/mbedtls/library\x509_crt.c **** }
 1548              	 .loc 2 564 0 discriminator 1
 1549 007e 1846     	 mov r0,r3
 1550 0080 2837     	 adds r7,r7,#40
 1551              	.LCFI78:
 1552              	 .cfi_def_cfa_offset 8
 1553 0082 BD46     	 mov sp,r7
 1554              	.LCFI79:
 1555              	 .cfi_def_cfa_register 13
 1556              	 
 1557 0084 80BD     	 pop {r7,pc}
 1558              	.L107:
 1559 0086 00BF     	 .align 2
 1560              	.L106:
 1561 0088 9CDAFFFF 	 .word -9572
 1562              	 .cfi_endproc
 1563              	.LFE22:
 1565              	 .section .text.x509_get_ext_key_usage,"ax",%progbits
 1566              	 .align 2
 1567              	 .thumb
 1568              	 .thumb_func
 1570              	x509_get_ext_key_usage:
 1571              	.LFB23:
 565:C:/Users/Yushev/git/wpcqi-optiga-trust-charge/optiga/externals/mbedtls/library\x509_crt.c **** 
 566:C:/Users/Yushev/git/wpcqi-optiga-trust-charge/optiga/externals/mbedtls/library\x509_crt.c **** /*
 567:C:/Users/Yushev/git/wpcqi-optiga-trust-charge/optiga/externals/mbedtls/library\x509_crt.c ****  * ExtKeyUsageSyntax ::= SEQUENCE SIZE (1..MAX) OF KeyPurposeId
 568:C:/Users/Yushev/git/wpcqi-optiga-trust-charge/optiga/externals/mbedtls/library\x509_crt.c ****  *
 569:C:/Users/Yushev/git/wpcqi-optiga-trust-charge/optiga/externals/mbedtls/library\x509_crt.c ****  * KeyPurposeId ::= OBJECT IDENTIFIER
 570:C:/Users/Yushev/git/wpcqi-optiga-trust-charge/optiga/externals/mbedtls/library\x509_crt.c ****  */
 571:C:/Users/Yushev/git/wpcqi-optiga-trust-charge/optiga/externals/mbedtls/library\x509_crt.c **** static int x509_get_ext_key_usage( unsigned char **p,
 572:C:/Users/Yushev/git/wpcqi-optiga-trust-charge/optiga/externals/mbedtls/library\x509_crt.c ****                                const unsigned char *end,
 573:C:/Users/Yushev/git/wpcqi-optiga-trust-charge/optiga/externals/mbedtls/library\x509_crt.c ****                                mbedtls_x509_sequence *ext_key_usage)
 574:C:/Users/Yushev/git/wpcqi-optiga-trust-charge/optiga/externals/mbedtls/library\x509_crt.c **** {
 1572              	 .loc 2 574 0
 1573              	 .cfi_startproc
 1574              	 
 1575              	 
 1576 0000 80B5     	 push {r7,lr}
 1577              	.LCFI80:
 1578              	 .cfi_def_cfa_offset 8
 1579              	 .cfi_offset 7,-8
 1580              	 .cfi_offset 14,-4
 1581 0002 86B0     	 sub sp,sp,#24
 1582              	.LCFI81:
 1583              	 .cfi_def_cfa_offset 32
 1584 0004 00AF     	 add r7,sp,#0
 1585              	.LCFI82:
 1586              	 .cfi_def_cfa_register 7
 1587 0006 F860     	 str r0,[r7,#12]
 1588 0008 B960     	 str r1,[r7,#8]
 1589 000a 7A60     	 str r2,[r7,#4]
 575:C:/Users/Yushev/git/wpcqi-optiga-trust-charge/optiga/externals/mbedtls/library\x509_crt.c ****     int ret;
 576:C:/Users/Yushev/git/wpcqi-optiga-trust-charge/optiga/externals/mbedtls/library\x509_crt.c **** 
 577:C:/Users/Yushev/git/wpcqi-optiga-trust-charge/optiga/externals/mbedtls/library\x509_crt.c ****     if( ( ret = mbedtls_asn1_get_sequence_of( p, end, ext_key_usage, MBEDTLS_ASN1_OID ) ) != 0 )
 1590              	 .loc 2 577 0
 1591 000c F868     	 ldr r0,[r7,#12]
 1592 000e B968     	 ldr r1,[r7,#8]
 1593 0010 7A68     	 ldr r2,[r7,#4]
 1594 0012 0623     	 movs r3,#6
 1595 0014 FFF7FEFF 	 bl mbedtls_asn1_get_sequence_of
 1596 0018 7861     	 str r0,[r7,#20]
 1597 001a 7B69     	 ldr r3,[r7,#20]
 1598 001c 002B     	 cmp r3,#0
 1599 001e 03D0     	 beq .L109
 578:C:/Users/Yushev/git/wpcqi-optiga-trust-charge/optiga/externals/mbedtls/library\x509_crt.c ****         return( MBEDTLS_ERR_X509_INVALID_EXTENSIONS + ret );
 1600              	 .loc 2 578 0
 1601 0020 7B69     	 ldr r3,[r7,#20]
 1602 0022 A3F51453 	 sub r3,r3,#9472
 1603 0026 06E0     	 b .L110
 1604              	.L109:
 579:C:/Users/Yushev/git/wpcqi-optiga-trust-charge/optiga/externals/mbedtls/library\x509_crt.c **** 
 580:C:/Users/Yushev/git/wpcqi-optiga-trust-charge/optiga/externals/mbedtls/library\x509_crt.c ****     /* Sequence length must be >= 1 */
 581:C:/Users/Yushev/git/wpcqi-optiga-trust-charge/optiga/externals/mbedtls/library\x509_crt.c ****     if( ext_key_usage->buf.p == NULL )
 1605              	 .loc 2 581 0
 1606 0028 7B68     	 ldr r3,[r7,#4]
 1607 002a 9B68     	 ldr r3,[r3,#8]
 1608 002c 002B     	 cmp r3,#0
 1609 002e 01D1     	 bne .L111
 582:C:/Users/Yushev/git/wpcqi-optiga-trust-charge/optiga/externals/mbedtls/library\x509_crt.c ****         return( MBEDTLS_ERR_X509_INVALID_EXTENSIONS +
 1610              	 .loc 2 582 0
 1611 0030 034B     	 ldr r3,.L112
 1612 0032 00E0     	 b .L110
 1613              	.L111:
 583:C:/Users/Yushev/git/wpcqi-optiga-trust-charge/optiga/externals/mbedtls/library\x509_crt.c ****                 MBEDTLS_ERR_ASN1_INVALID_LENGTH );
 584:C:/Users/Yushev/git/wpcqi-optiga-trust-charge/optiga/externals/mbedtls/library\x509_crt.c **** 
 585:C:/Users/Yushev/git/wpcqi-optiga-trust-charge/optiga/externals/mbedtls/library\x509_crt.c ****     return( 0 );
 1614              	 .loc 2 585 0
 1615 0034 0023     	 movs r3,#0
 1616              	.L110:
 586:C:/Users/Yushev/git/wpcqi-optiga-trust-charge/optiga/externals/mbedtls/library\x509_crt.c **** }
 1617              	 .loc 2 586 0
 1618 0036 1846     	 mov r0,r3
 1619 0038 1837     	 adds r7,r7,#24
 1620              	.LCFI83:
 1621              	 .cfi_def_cfa_offset 8
 1622 003a BD46     	 mov sp,r7
 1623              	.LCFI84:
 1624              	 .cfi_def_cfa_register 13
 1625              	 
 1626 003c 80BD     	 pop {r7,pc}
 1627              	.L113:
 1628 003e 00BF     	 .align 2
 1629              	.L112:
 1630 0040 9CDAFFFF 	 .word -9572
 1631              	 .cfi_endproc
 1632              	.LFE23:
 1634              	 .section .text.x509_get_subject_alt_name,"ax",%progbits
 1635              	 .align 2
 1636              	 .thumb
 1637              	 .thumb_func
 1639              	x509_get_subject_alt_name:
 1640              	.LFB24:
 587:C:/Users/Yushev/git/wpcqi-optiga-trust-charge/optiga/externals/mbedtls/library\x509_crt.c **** 
 588:C:/Users/Yushev/git/wpcqi-optiga-trust-charge/optiga/externals/mbedtls/library\x509_crt.c **** /*
 589:C:/Users/Yushev/git/wpcqi-optiga-trust-charge/optiga/externals/mbedtls/library\x509_crt.c ****  * SubjectAltName ::= GeneralNames
 590:C:/Users/Yushev/git/wpcqi-optiga-trust-charge/optiga/externals/mbedtls/library\x509_crt.c ****  *
 591:C:/Users/Yushev/git/wpcqi-optiga-trust-charge/optiga/externals/mbedtls/library\x509_crt.c ****  * GeneralNames ::= SEQUENCE SIZE (1..MAX) OF GeneralName
 592:C:/Users/Yushev/git/wpcqi-optiga-trust-charge/optiga/externals/mbedtls/library\x509_crt.c ****  *
 593:C:/Users/Yushev/git/wpcqi-optiga-trust-charge/optiga/externals/mbedtls/library\x509_crt.c ****  * GeneralName ::= CHOICE {
 594:C:/Users/Yushev/git/wpcqi-optiga-trust-charge/optiga/externals/mbedtls/library\x509_crt.c ****  *      otherName                       [0]     OtherName,
 595:C:/Users/Yushev/git/wpcqi-optiga-trust-charge/optiga/externals/mbedtls/library\x509_crt.c ****  *      rfc822Name                      [1]     IA5String,
 596:C:/Users/Yushev/git/wpcqi-optiga-trust-charge/optiga/externals/mbedtls/library\x509_crt.c ****  *      dNSName                         [2]     IA5String,
 597:C:/Users/Yushev/git/wpcqi-optiga-trust-charge/optiga/externals/mbedtls/library\x509_crt.c ****  *      x400Address                     [3]     ORAddress,
 598:C:/Users/Yushev/git/wpcqi-optiga-trust-charge/optiga/externals/mbedtls/library\x509_crt.c ****  *      directoryName                   [4]     Name,
 599:C:/Users/Yushev/git/wpcqi-optiga-trust-charge/optiga/externals/mbedtls/library\x509_crt.c ****  *      ediPartyName                    [5]     EDIPartyName,
 600:C:/Users/Yushev/git/wpcqi-optiga-trust-charge/optiga/externals/mbedtls/library\x509_crt.c ****  *      uniformResourceIdentifier       [6]     IA5String,
 601:C:/Users/Yushev/git/wpcqi-optiga-trust-charge/optiga/externals/mbedtls/library\x509_crt.c ****  *      iPAddress                       [7]     OCTET STRING,
 602:C:/Users/Yushev/git/wpcqi-optiga-trust-charge/optiga/externals/mbedtls/library\x509_crt.c ****  *      registeredID                    [8]     OBJECT IDENTIFIER }
 603:C:/Users/Yushev/git/wpcqi-optiga-trust-charge/optiga/externals/mbedtls/library\x509_crt.c ****  *
 604:C:/Users/Yushev/git/wpcqi-optiga-trust-charge/optiga/externals/mbedtls/library\x509_crt.c ****  * OtherName ::= SEQUENCE {
 605:C:/Users/Yushev/git/wpcqi-optiga-trust-charge/optiga/externals/mbedtls/library\x509_crt.c ****  *      type-id    OBJECT IDENTIFIER,
 606:C:/Users/Yushev/git/wpcqi-optiga-trust-charge/optiga/externals/mbedtls/library\x509_crt.c ****  *      value      [0] EXPLICIT ANY DEFINED BY type-id }
 607:C:/Users/Yushev/git/wpcqi-optiga-trust-charge/optiga/externals/mbedtls/library\x509_crt.c ****  *
 608:C:/Users/Yushev/git/wpcqi-optiga-trust-charge/optiga/externals/mbedtls/library\x509_crt.c ****  * EDIPartyName ::= SEQUENCE {
 609:C:/Users/Yushev/git/wpcqi-optiga-trust-charge/optiga/externals/mbedtls/library\x509_crt.c ****  *      nameAssigner            [0]     DirectoryString OPTIONAL,
 610:C:/Users/Yushev/git/wpcqi-optiga-trust-charge/optiga/externals/mbedtls/library\x509_crt.c ****  *      partyName               [1]     DirectoryString }
 611:C:/Users/Yushev/git/wpcqi-optiga-trust-charge/optiga/externals/mbedtls/library\x509_crt.c ****  *
 612:C:/Users/Yushev/git/wpcqi-optiga-trust-charge/optiga/externals/mbedtls/library\x509_crt.c ****  * NOTE: we only parse and use dNSName at this point.
 613:C:/Users/Yushev/git/wpcqi-optiga-trust-charge/optiga/externals/mbedtls/library\x509_crt.c ****  */
 614:C:/Users/Yushev/git/wpcqi-optiga-trust-charge/optiga/externals/mbedtls/library\x509_crt.c **** static int x509_get_subject_alt_name( unsigned char **p,
 615:C:/Users/Yushev/git/wpcqi-optiga-trust-charge/optiga/externals/mbedtls/library\x509_crt.c ****                                       const unsigned char *end,
 616:C:/Users/Yushev/git/wpcqi-optiga-trust-charge/optiga/externals/mbedtls/library\x509_crt.c ****                                       mbedtls_x509_sequence *subject_alt_name )
 617:C:/Users/Yushev/git/wpcqi-optiga-trust-charge/optiga/externals/mbedtls/library\x509_crt.c **** {
 1641              	 .loc 2 617 0
 1642              	 .cfi_startproc
 1643              	 
 1644              	 
 1645 0000 80B5     	 push {r7,lr}
 1646              	.LCFI85:
 1647              	 .cfi_def_cfa_offset 8
 1648              	 .cfi_offset 7,-8
 1649              	 .cfi_offset 14,-4
 1650 0002 8AB0     	 sub sp,sp,#40
 1651              	.LCFI86:
 1652              	 .cfi_def_cfa_offset 48
 1653 0004 00AF     	 add r7,sp,#0
 1654              	.LCFI87:
 1655              	 .cfi_def_cfa_register 7
 1656 0006 F860     	 str r0,[r7,#12]
 1657 0008 B960     	 str r1,[r7,#8]
 1658 000a 7A60     	 str r2,[r7,#4]
 618:C:/Users/Yushev/git/wpcqi-optiga-trust-charge/optiga/externals/mbedtls/library\x509_crt.c ****     int ret;
 619:C:/Users/Yushev/git/wpcqi-optiga-trust-charge/optiga/externals/mbedtls/library\x509_crt.c ****     size_t len, tag_len;
 620:C:/Users/Yushev/git/wpcqi-optiga-trust-charge/optiga/externals/mbedtls/library\x509_crt.c ****     mbedtls_asn1_buf *buf;
 621:C:/Users/Yushev/git/wpcqi-optiga-trust-charge/optiga/externals/mbedtls/library\x509_crt.c ****     unsigned char tag;
 622:C:/Users/Yushev/git/wpcqi-optiga-trust-charge/optiga/externals/mbedtls/library\x509_crt.c ****     mbedtls_asn1_sequence *cur = subject_alt_name;
 1659              	 .loc 2 622 0
 1660 000c 7B68     	 ldr r3,[r7,#4]
 1661 000e 7B62     	 str r3,[r7,#36]
 623:C:/Users/Yushev/git/wpcqi-optiga-trust-charge/optiga/externals/mbedtls/library\x509_crt.c **** 
 624:C:/Users/Yushev/git/wpcqi-optiga-trust-charge/optiga/externals/mbedtls/library\x509_crt.c ****     /* Get main sequence tag */
 625:C:/Users/Yushev/git/wpcqi-optiga-trust-charge/optiga/externals/mbedtls/library\x509_crt.c ****     if( ( ret = mbedtls_asn1_get_tag( p, end, &len,
 1662              	 .loc 2 625 0
 1663 0010 07F11403 	 add r3,r7,#20
 1664 0014 F868     	 ldr r0,[r7,#12]
 1665 0016 B968     	 ldr r1,[r7,#8]
 1666 0018 1A46     	 mov r2,r3
 1667 001a 3023     	 movs r3,#48
 1668 001c FFF7FEFF 	 bl mbedtls_asn1_get_tag
 1669 0020 3862     	 str r0,[r7,#32]
 1670 0022 3B6A     	 ldr r3,[r7,#32]
 1671 0024 002B     	 cmp r3,#0
 1672 0026 03D0     	 beq .L115
 626:C:/Users/Yushev/git/wpcqi-optiga-trust-charge/optiga/externals/mbedtls/library\x509_crt.c ****             MBEDTLS_ASN1_CONSTRUCTED | MBEDTLS_ASN1_SEQUENCE ) ) != 0 )
 627:C:/Users/Yushev/git/wpcqi-optiga-trust-charge/optiga/externals/mbedtls/library\x509_crt.c ****         return( MBEDTLS_ERR_X509_INVALID_EXTENSIONS + ret );
 1673              	 .loc 2 627 0
 1674 0028 3B6A     	 ldr r3,[r7,#32]
 1675 002a A3F51453 	 sub r3,r3,#9472
 1676 002e 78E0     	 b .L128
 1677              	.L115:
 628:C:/Users/Yushev/git/wpcqi-optiga-trust-charge/optiga/externals/mbedtls/library\x509_crt.c **** 
 629:C:/Users/Yushev/git/wpcqi-optiga-trust-charge/optiga/externals/mbedtls/library\x509_crt.c ****     if( *p + len != end )
 1678              	 .loc 2 629 0
 1679 0030 FB68     	 ldr r3,[r7,#12]
 1680 0032 1A68     	 ldr r2,[r3]
 1681 0034 7B69     	 ldr r3,[r7,#20]
 1682 0036 1A44     	 add r2,r2,r3
 1683 0038 BB68     	 ldr r3,[r7,#8]
 1684 003a 9A42     	 cmp r2,r3
 1685 003c 01D0     	 beq .L117
 630:C:/Users/Yushev/git/wpcqi-optiga-trust-charge/optiga/externals/mbedtls/library\x509_crt.c ****         return( MBEDTLS_ERR_X509_INVALID_EXTENSIONS +
 1686              	 .loc 2 630 0
 1687 003e 3B4B     	 ldr r3,.L129
 1688 0040 6FE0     	 b .L128
 1689              	.L117:
 631:C:/Users/Yushev/git/wpcqi-optiga-trust-charge/optiga/externals/mbedtls/library\x509_crt.c ****                 MBEDTLS_ERR_ASN1_LENGTH_MISMATCH );
 632:C:/Users/Yushev/git/wpcqi-optiga-trust-charge/optiga/externals/mbedtls/library\x509_crt.c **** 
 633:C:/Users/Yushev/git/wpcqi-optiga-trust-charge/optiga/externals/mbedtls/library\x509_crt.c ****     while( *p < end )
 1690              	 .loc 2 633 0
 1691 0042 5EE0     	 b .L118
 1692              	.L126:
 634:C:/Users/Yushev/git/wpcqi-optiga-trust-charge/optiga/externals/mbedtls/library\x509_crt.c ****     {
 635:C:/Users/Yushev/git/wpcqi-optiga-trust-charge/optiga/externals/mbedtls/library\x509_crt.c ****         if( ( end - *p ) < 1 )
 1693              	 .loc 2 635 0
 1694 0044 BB68     	 ldr r3,[r7,#8]
 1695 0046 FA68     	 ldr r2,[r7,#12]
 1696 0048 1268     	 ldr r2,[r2]
 1697 004a 9B1A     	 subs r3,r3,r2
 1698 004c 002B     	 cmp r3,#0
 1699 004e 01DC     	 bgt .L119
 636:C:/Users/Yushev/git/wpcqi-optiga-trust-charge/optiga/externals/mbedtls/library\x509_crt.c ****             return( MBEDTLS_ERR_X509_INVALID_EXTENSIONS +
 1700              	 .loc 2 636 0
 1701 0050 374B     	 ldr r3,.L129+4
 1702 0052 66E0     	 b .L128
 1703              	.L119:
 637:C:/Users/Yushev/git/wpcqi-optiga-trust-charge/optiga/externals/mbedtls/library\x509_crt.c ****                     MBEDTLS_ERR_ASN1_OUT_OF_DATA );
 638:C:/Users/Yushev/git/wpcqi-optiga-trust-charge/optiga/externals/mbedtls/library\x509_crt.c **** 
 639:C:/Users/Yushev/git/wpcqi-optiga-trust-charge/optiga/externals/mbedtls/library\x509_crt.c ****         tag = **p;
 1704              	 .loc 2 639 0
 1705 0054 FB68     	 ldr r3,[r7,#12]
 1706 0056 1B68     	 ldr r3,[r3]
 1707 0058 1B78     	 ldrb r3,[r3]
 1708 005a FB77     	 strb r3,[r7,#31]
 640:C:/Users/Yushev/git/wpcqi-optiga-trust-charge/optiga/externals/mbedtls/library\x509_crt.c ****         (*p)++;
 1709              	 .loc 2 640 0
 1710 005c FB68     	 ldr r3,[r7,#12]
 1711 005e 1B68     	 ldr r3,[r3]
 1712 0060 5A1C     	 adds r2,r3,#1
 1713 0062 FB68     	 ldr r3,[r7,#12]
 1714 0064 1A60     	 str r2,[r3]
 641:C:/Users/Yushev/git/wpcqi-optiga-trust-charge/optiga/externals/mbedtls/library\x509_crt.c ****         if( ( ret = mbedtls_asn1_get_len( p, end, &tag_len ) ) != 0 )
 1715              	 .loc 2 641 0
 1716 0066 07F11003 	 add r3,r7,#16
 1717 006a F868     	 ldr r0,[r7,#12]
 1718 006c B968     	 ldr r1,[r7,#8]
 1719 006e 1A46     	 mov r2,r3
 1720 0070 FFF7FEFF 	 bl mbedtls_asn1_get_len
 1721 0074 3862     	 str r0,[r7,#32]
 1722 0076 3B6A     	 ldr r3,[r7,#32]
 1723 0078 002B     	 cmp r3,#0
 1724 007a 03D0     	 beq .L120
 642:C:/Users/Yushev/git/wpcqi-optiga-trust-charge/optiga/externals/mbedtls/library\x509_crt.c ****             return( MBEDTLS_ERR_X509_INVALID_EXTENSIONS + ret );
 1725              	 .loc 2 642 0
 1726 007c 3B6A     	 ldr r3,[r7,#32]
 1727 007e A3F51453 	 sub r3,r3,#9472
 1728 0082 4EE0     	 b .L128
 1729              	.L120:
 643:C:/Users/Yushev/git/wpcqi-optiga-trust-charge/optiga/externals/mbedtls/library\x509_crt.c **** 
 644:C:/Users/Yushev/git/wpcqi-optiga-trust-charge/optiga/externals/mbedtls/library\x509_crt.c ****         if( ( tag & MBEDTLS_ASN1_TAG_CLASS_MASK ) !=
 1730              	 .loc 2 644 0
 1731 0084 FB7F     	 ldrb r3,[r7,#31]
 1732 0086 03F0C003 	 and r3,r3,#192
 1733 008a 802B     	 cmp r3,#128
 1734 008c 01D0     	 beq .L121
 645:C:/Users/Yushev/git/wpcqi-optiga-trust-charge/optiga/externals/mbedtls/library\x509_crt.c ****                 MBEDTLS_ASN1_CONTEXT_SPECIFIC )
 646:C:/Users/Yushev/git/wpcqi-optiga-trust-charge/optiga/externals/mbedtls/library\x509_crt.c ****         {
 647:C:/Users/Yushev/git/wpcqi-optiga-trust-charge/optiga/externals/mbedtls/library\x509_crt.c ****             return( MBEDTLS_ERR_X509_INVALID_EXTENSIONS +
 1735              	 .loc 2 647 0
 1736 008e 294B     	 ldr r3,.L129+8
 1737 0090 47E0     	 b .L128
 1738              	.L121:
 648:C:/Users/Yushev/git/wpcqi-optiga-trust-charge/optiga/externals/mbedtls/library\x509_crt.c ****                     MBEDTLS_ERR_ASN1_UNEXPECTED_TAG );
 649:C:/Users/Yushev/git/wpcqi-optiga-trust-charge/optiga/externals/mbedtls/library\x509_crt.c ****         }
 650:C:/Users/Yushev/git/wpcqi-optiga-trust-charge/optiga/externals/mbedtls/library\x509_crt.c **** 
 651:C:/Users/Yushev/git/wpcqi-optiga-trust-charge/optiga/externals/mbedtls/library\x509_crt.c ****         /* Skip everything but DNS name */
 652:C:/Users/Yushev/git/wpcqi-optiga-trust-charge/optiga/externals/mbedtls/library\x509_crt.c ****         if( tag != ( MBEDTLS_ASN1_CONTEXT_SPECIFIC | 2 ) )
 1739              	 .loc 2 652 0
 1740 0092 FB7F     	 ldrb r3,[r7,#31]
 1741 0094 822B     	 cmp r3,#130
 1742 0096 06D0     	 beq .L122
 653:C:/Users/Yushev/git/wpcqi-optiga-trust-charge/optiga/externals/mbedtls/library\x509_crt.c ****         {
 654:C:/Users/Yushev/git/wpcqi-optiga-trust-charge/optiga/externals/mbedtls/library\x509_crt.c ****             *p += tag_len;
 1743              	 .loc 2 654 0
 1744 0098 FB68     	 ldr r3,[r7,#12]
 1745 009a 1A68     	 ldr r2,[r3]
 1746 009c 3B69     	 ldr r3,[r7,#16]
 1747 009e 1A44     	 add r2,r2,r3
 1748 00a0 FB68     	 ldr r3,[r7,#12]
 1749 00a2 1A60     	 str r2,[r3]
 655:C:/Users/Yushev/git/wpcqi-optiga-trust-charge/optiga/externals/mbedtls/library\x509_crt.c ****             continue;
 1750              	 .loc 2 655 0
 1751 00a4 2DE0     	 b .L118
 1752              	.L122:
 656:C:/Users/Yushev/git/wpcqi-optiga-trust-charge/optiga/externals/mbedtls/library\x509_crt.c ****         }
 657:C:/Users/Yushev/git/wpcqi-optiga-trust-charge/optiga/externals/mbedtls/library\x509_crt.c **** 
 658:C:/Users/Yushev/git/wpcqi-optiga-trust-charge/optiga/externals/mbedtls/library\x509_crt.c ****         /* Allocate and assign next pointer */
 659:C:/Users/Yushev/git/wpcqi-optiga-trust-charge/optiga/externals/mbedtls/library\x509_crt.c ****         if( cur->buf.p != NULL )
 1753              	 .loc 2 659 0
 1754 00a6 7B6A     	 ldr r3,[r7,#36]
 1755 00a8 9B68     	 ldr r3,[r3,#8]
 1756 00aa 002B     	 cmp r3,#0
 1757 00ac 16D0     	 beq .L123
 660:C:/Users/Yushev/git/wpcqi-optiga-trust-charge/optiga/externals/mbedtls/library\x509_crt.c ****         {
 661:C:/Users/Yushev/git/wpcqi-optiga-trust-charge/optiga/externals/mbedtls/library\x509_crt.c ****             if( cur->next != NULL )
 1758              	 .loc 2 661 0
 1759 00ae 7B6A     	 ldr r3,[r7,#36]
 1760 00b0 DB68     	 ldr r3,[r3,#12]
 1761 00b2 002B     	 cmp r3,#0
 1762 00b4 01D0     	 beq .L124
 662:C:/Users/Yushev/git/wpcqi-optiga-trust-charge/optiga/externals/mbedtls/library\x509_crt.c ****                 return( MBEDTLS_ERR_X509_INVALID_EXTENSIONS );
 1763              	 .loc 2 662 0
 1764 00b6 204B     	 ldr r3,.L129+12
 1765 00b8 33E0     	 b .L128
 1766              	.L124:
 663:C:/Users/Yushev/git/wpcqi-optiga-trust-charge/optiga/externals/mbedtls/library\x509_crt.c **** 
 664:C:/Users/Yushev/git/wpcqi-optiga-trust-charge/optiga/externals/mbedtls/library\x509_crt.c ****             cur->next = mbedtls_calloc( 1, sizeof( mbedtls_asn1_sequence ) );
 1767              	 .loc 2 664 0
 1768 00ba 0120     	 movs r0,#1
 1769 00bc 1021     	 movs r1,#16
 1770 00be FFF7FEFF 	 bl calloc
 1771 00c2 0346     	 mov r3,r0
 1772 00c4 1A46     	 mov r2,r3
 1773 00c6 7B6A     	 ldr r3,[r7,#36]
 1774 00c8 DA60     	 str r2,[r3,#12]
 665:C:/Users/Yushev/git/wpcqi-optiga-trust-charge/optiga/externals/mbedtls/library\x509_crt.c **** 
 666:C:/Users/Yushev/git/wpcqi-optiga-trust-charge/optiga/externals/mbedtls/library\x509_crt.c ****             if( cur->next == NULL )
 1775              	 .loc 2 666 0
 1776 00ca 7B6A     	 ldr r3,[r7,#36]
 1777 00cc DB68     	 ldr r3,[r3,#12]
 1778 00ce 002B     	 cmp r3,#0
 1779 00d0 01D1     	 bne .L125
 667:C:/Users/Yushev/git/wpcqi-optiga-trust-charge/optiga/externals/mbedtls/library\x509_crt.c ****                 return( MBEDTLS_ERR_X509_INVALID_EXTENSIONS +
 1780              	 .loc 2 667 0
 1781 00d2 1A4B     	 ldr r3,.L129+16
 1782 00d4 25E0     	 b .L128
 1783              	.L125:
 668:C:/Users/Yushev/git/wpcqi-optiga-trust-charge/optiga/externals/mbedtls/library\x509_crt.c ****                         MBEDTLS_ERR_ASN1_ALLOC_FAILED );
 669:C:/Users/Yushev/git/wpcqi-optiga-trust-charge/optiga/externals/mbedtls/library\x509_crt.c **** 
 670:C:/Users/Yushev/git/wpcqi-optiga-trust-charge/optiga/externals/mbedtls/library\x509_crt.c ****             cur = cur->next;
 1784              	 .loc 2 670 0
 1785 00d6 7B6A     	 ldr r3,[r7,#36]
 1786 00d8 DB68     	 ldr r3,[r3,#12]
 1787 00da 7B62     	 str r3,[r7,#36]
 1788              	.L123:
 671:C:/Users/Yushev/git/wpcqi-optiga-trust-charge/optiga/externals/mbedtls/library\x509_crt.c ****         }
 672:C:/Users/Yushev/git/wpcqi-optiga-trust-charge/optiga/externals/mbedtls/library\x509_crt.c **** 
 673:C:/Users/Yushev/git/wpcqi-optiga-trust-charge/optiga/externals/mbedtls/library\x509_crt.c ****         buf = &(cur->buf);
 1789              	 .loc 2 673 0
 1790 00dc 7B6A     	 ldr r3,[r7,#36]
 1791 00de BB61     	 str r3,[r7,#24]
 674:C:/Users/Yushev/git/wpcqi-optiga-trust-charge/optiga/externals/mbedtls/library\x509_crt.c ****         buf->tag = tag;
 1792              	 .loc 2 674 0
 1793 00e0 FA7F     	 ldrb r2,[r7,#31]
 1794 00e2 BB69     	 ldr r3,[r7,#24]
 1795 00e4 1A60     	 str r2,[r3]
 675:C:/Users/Yushev/git/wpcqi-optiga-trust-charge/optiga/externals/mbedtls/library\x509_crt.c ****         buf->p = *p;
 1796              	 .loc 2 675 0
 1797 00e6 FB68     	 ldr r3,[r7,#12]
 1798 00e8 1A68     	 ldr r2,[r3]
 1799 00ea BB69     	 ldr r3,[r7,#24]
 1800 00ec 9A60     	 str r2,[r3,#8]
 676:C:/Users/Yushev/git/wpcqi-optiga-trust-charge/optiga/externals/mbedtls/library\x509_crt.c ****         buf->len = tag_len;
 1801              	 .loc 2 676 0
 1802 00ee 3A69     	 ldr r2,[r7,#16]
 1803 00f0 BB69     	 ldr r3,[r7,#24]
 1804 00f2 5A60     	 str r2,[r3,#4]
 677:C:/Users/Yushev/git/wpcqi-optiga-trust-charge/optiga/externals/mbedtls/library\x509_crt.c ****         *p += buf->len;
 1805              	 .loc 2 677 0
 1806 00f4 FB68     	 ldr r3,[r7,#12]
 1807 00f6 1A68     	 ldr r2,[r3]
 1808 00f8 BB69     	 ldr r3,[r7,#24]
 1809 00fa 5B68     	 ldr r3,[r3,#4]
 1810 00fc 1A44     	 add r2,r2,r3
 1811 00fe FB68     	 ldr r3,[r7,#12]
 1812 0100 1A60     	 str r2,[r3]
 1813              	.L118:
 633:C:/Users/Yushev/git/wpcqi-optiga-trust-charge/optiga/externals/mbedtls/library\x509_crt.c ****     {
 1814              	 .loc 2 633 0
 1815 0102 FB68     	 ldr r3,[r7,#12]
 1816 0104 1A68     	 ldr r2,[r3]
 1817 0106 BB68     	 ldr r3,[r7,#8]
 1818 0108 9A42     	 cmp r2,r3
 1819 010a 9BD3     	 bcc .L126
 678:C:/Users/Yushev/git/wpcqi-optiga-trust-charge/optiga/externals/mbedtls/library\x509_crt.c ****     }
 679:C:/Users/Yushev/git/wpcqi-optiga-trust-charge/optiga/externals/mbedtls/library\x509_crt.c **** 
 680:C:/Users/Yushev/git/wpcqi-optiga-trust-charge/optiga/externals/mbedtls/library\x509_crt.c ****     /* Set final sequence entry's next pointer to NULL */
 681:C:/Users/Yushev/git/wpcqi-optiga-trust-charge/optiga/externals/mbedtls/library\x509_crt.c ****     cur->next = NULL;
 1820              	 .loc 2 681 0
 1821 010c 7B6A     	 ldr r3,[r7,#36]
 1822 010e 0022     	 movs r2,#0
 1823 0110 DA60     	 str r2,[r3,#12]
 682:C:/Users/Yushev/git/wpcqi-optiga-trust-charge/optiga/externals/mbedtls/library\x509_crt.c **** 
 683:C:/Users/Yushev/git/wpcqi-optiga-trust-charge/optiga/externals/mbedtls/library\x509_crt.c ****     if( *p != end )
 1824              	 .loc 2 683 0
 1825 0112 FB68     	 ldr r3,[r7,#12]
 1826 0114 1A68     	 ldr r2,[r3]
 1827 0116 BB68     	 ldr r3,[r7,#8]
 1828 0118 9A42     	 cmp r2,r3
 1829 011a 01D0     	 beq .L127
 684:C:/Users/Yushev/git/wpcqi-optiga-trust-charge/optiga/externals/mbedtls/library\x509_crt.c ****         return( MBEDTLS_ERR_X509_INVALID_EXTENSIONS +
 1830              	 .loc 2 684 0
 1831 011c 034B     	 ldr r3,.L129
 1832 011e 00E0     	 b .L128
 1833              	.L127:
 685:C:/Users/Yushev/git/wpcqi-optiga-trust-charge/optiga/externals/mbedtls/library\x509_crt.c ****                 MBEDTLS_ERR_ASN1_LENGTH_MISMATCH );
 686:C:/Users/Yushev/git/wpcqi-optiga-trust-charge/optiga/externals/mbedtls/library\x509_crt.c **** 
 687:C:/Users/Yushev/git/wpcqi-optiga-trust-charge/optiga/externals/mbedtls/library\x509_crt.c ****     return( 0 );
 1834              	 .loc 2 687 0
 1835 0120 0023     	 movs r3,#0
 1836              	.L128:
 688:C:/Users/Yushev/git/wpcqi-optiga-trust-charge/optiga/externals/mbedtls/library\x509_crt.c **** }
 1837              	 .loc 2 688 0 discriminator 1
 1838 0122 1846     	 mov r0,r3
 1839 0124 2837     	 adds r7,r7,#40
 1840              	.LCFI88:
 1841              	 .cfi_def_cfa_offset 8
 1842 0126 BD46     	 mov sp,r7
 1843              	.LCFI89:
 1844              	 .cfi_def_cfa_register 13
 1845              	 
 1846 0128 80BD     	 pop {r7,pc}
 1847              	.L130:
 1848 012a 00BF     	 .align 2
 1849              	.L129:
 1850 012c 9ADAFFFF 	 .word -9574
 1851 0130 A0DAFFFF 	 .word -9568
 1852 0134 9EDAFFFF 	 .word -9570
 1853 0138 00DBFFFF 	 .word -9472
 1854 013c 96DAFFFF 	 .word -9578
 1855              	 .cfi_endproc
 1856              	.LFE24:
 1858              	 .section .text.x509_get_crt_ext,"ax",%progbits
 1859              	 .align 2
 1860              	 .thumb
 1861              	 .thumb_func
 1863              	x509_get_crt_ext:
 1864              	.LFB25:
 689:C:/Users/Yushev/git/wpcqi-optiga-trust-charge/optiga/externals/mbedtls/library\x509_crt.c **** 
 690:C:/Users/Yushev/git/wpcqi-optiga-trust-charge/optiga/externals/mbedtls/library\x509_crt.c **** /*
 691:C:/Users/Yushev/git/wpcqi-optiga-trust-charge/optiga/externals/mbedtls/library\x509_crt.c ****  * X.509 v3 extensions
 692:C:/Users/Yushev/git/wpcqi-optiga-trust-charge/optiga/externals/mbedtls/library\x509_crt.c ****  *
 693:C:/Users/Yushev/git/wpcqi-optiga-trust-charge/optiga/externals/mbedtls/library\x509_crt.c ****  */
 694:C:/Users/Yushev/git/wpcqi-optiga-trust-charge/optiga/externals/mbedtls/library\x509_crt.c **** static int x509_get_crt_ext( unsigned char **p,
 695:C:/Users/Yushev/git/wpcqi-optiga-trust-charge/optiga/externals/mbedtls/library\x509_crt.c ****                              const unsigned char *end,
 696:C:/Users/Yushev/git/wpcqi-optiga-trust-charge/optiga/externals/mbedtls/library\x509_crt.c ****                              mbedtls_x509_crt *crt )
 697:C:/Users/Yushev/git/wpcqi-optiga-trust-charge/optiga/externals/mbedtls/library\x509_crt.c **** {
 1865              	 .loc 2 697 0
 1866              	 .cfi_startproc
 1867              	 
 1868              	 
 1869 0000 80B5     	 push {r7,lr}
 1870              	.LCFI90:
 1871              	 .cfi_def_cfa_offset 8
 1872              	 .cfi_offset 7,-8
 1873              	 .cfi_offset 14,-4
 1874 0002 8EB0     	 sub sp,sp,#56
 1875              	.LCFI91:
 1876              	 .cfi_def_cfa_offset 64
 1877 0004 00AF     	 add r7,sp,#0
 1878              	.LCFI92:
 1879              	 .cfi_def_cfa_register 7
 1880 0006 F860     	 str r0,[r7,#12]
 1881 0008 B960     	 str r1,[r7,#8]
 1882 000a 7A60     	 str r2,[r7,#4]
 698:C:/Users/Yushev/git/wpcqi-optiga-trust-charge/optiga/externals/mbedtls/library\x509_crt.c ****     int ret;
 699:C:/Users/Yushev/git/wpcqi-optiga-trust-charge/optiga/externals/mbedtls/library\x509_crt.c ****     size_t len;
 700:C:/Users/Yushev/git/wpcqi-optiga-trust-charge/optiga/externals/mbedtls/library\x509_crt.c ****     unsigned char *end_ext_data, *end_ext_octet;
 701:C:/Users/Yushev/git/wpcqi-optiga-trust-charge/optiga/externals/mbedtls/library\x509_crt.c **** 
 702:C:/Users/Yushev/git/wpcqi-optiga-trust-charge/optiga/externals/mbedtls/library\x509_crt.c ****     if( ( ret = mbedtls_x509_get_ext( p, end, &crt->v3_ext, 3 ) ) != 0 )
 1883              	 .loc 2 702 0
 1884 000c 7B68     	 ldr r3,[r7,#4]
 1885 000e DC33     	 adds r3,r3,#220
 1886 0010 F868     	 ldr r0,[r7,#12]
 1887 0012 B968     	 ldr r1,[r7,#8]
 1888 0014 1A46     	 mov r2,r3
 1889 0016 0323     	 movs r3,#3
 1890 0018 FFF7FEFF 	 bl mbedtls_x509_get_ext
 1891 001c 7863     	 str r0,[r7,#52]
 1892 001e 7B6B     	 ldr r3,[r7,#52]
 1893 0020 002B     	 cmp r3,#0
 1894 0022 07D0     	 beq .L132
 703:C:/Users/Yushev/git/wpcqi-optiga-trust-charge/optiga/externals/mbedtls/library\x509_crt.c ****     {
 704:C:/Users/Yushev/git/wpcqi-optiga-trust-charge/optiga/externals/mbedtls/library\x509_crt.c ****         if( ret == MBEDTLS_ERR_ASN1_UNEXPECTED_TAG )
 1895              	 .loc 2 704 0
 1896 0024 7B6B     	 ldr r3,[r7,#52]
 1897 0026 13F1620F 	 cmn r3,#98
 1898 002a 01D1     	 bne .L133
 705:C:/Users/Yushev/git/wpcqi-optiga-trust-charge/optiga/externals/mbedtls/library\x509_crt.c ****             return( 0 );
 1899              	 .loc 2 705 0
 1900 002c 0023     	 movs r3,#0
 1901 002e FFE0     	 b .L160
 1902              	.L133:
 706:C:/Users/Yushev/git/wpcqi-optiga-trust-charge/optiga/externals/mbedtls/library\x509_crt.c **** 
 707:C:/Users/Yushev/git/wpcqi-optiga-trust-charge/optiga/externals/mbedtls/library\x509_crt.c ****         return( ret );
 1903              	 .loc 2 707 0
 1904 0030 7B6B     	 ldr r3,[r7,#52]
 1905 0032 FDE0     	 b .L160
 1906              	.L132:
 708:C:/Users/Yushev/git/wpcqi-optiga-trust-charge/optiga/externals/mbedtls/library\x509_crt.c ****     }
 709:C:/Users/Yushev/git/wpcqi-optiga-trust-charge/optiga/externals/mbedtls/library\x509_crt.c **** 
 710:C:/Users/Yushev/git/wpcqi-optiga-trust-charge/optiga/externals/mbedtls/library\x509_crt.c ****     while( *p < end )
 1907              	 .loc 2 710 0
 1908 0034 EEE0     	 b .L135
 1909              	.L158:
 1910              	.LBB3:
 711:C:/Users/Yushev/git/wpcqi-optiga-trust-charge/optiga/externals/mbedtls/library\x509_crt.c ****     {
 712:C:/Users/Yushev/git/wpcqi-optiga-trust-charge/optiga/externals/mbedtls/library\x509_crt.c ****         /*
 713:C:/Users/Yushev/git/wpcqi-optiga-trust-charge/optiga/externals/mbedtls/library\x509_crt.c ****          * Extension  ::=  SEQUENCE  {
 714:C:/Users/Yushev/git/wpcqi-optiga-trust-charge/optiga/externals/mbedtls/library\x509_crt.c ****          *      extnID      OBJECT IDENTIFIER,
 715:C:/Users/Yushev/git/wpcqi-optiga-trust-charge/optiga/externals/mbedtls/library\x509_crt.c ****          *      critical    BOOLEAN DEFAULT FALSE,
 716:C:/Users/Yushev/git/wpcqi-optiga-trust-charge/optiga/externals/mbedtls/library\x509_crt.c ****          *      extnValue   OCTET STRING  }
 717:C:/Users/Yushev/git/wpcqi-optiga-trust-charge/optiga/externals/mbedtls/library\x509_crt.c ****          */
 718:C:/Users/Yushev/git/wpcqi-optiga-trust-charge/optiga/externals/mbedtls/library\x509_crt.c ****         mbedtls_x509_buf extn_oid = {0, 0, NULL};
 1911              	 .loc 2 718 0
 1912 0036 0023     	 movs r3,#0
 1913 0038 FB61     	 str r3,[r7,#28]
 1914 003a 0023     	 movs r3,#0
 1915 003c 3B62     	 str r3,[r7,#32]
 1916 003e 0023     	 movs r3,#0
 1917 0040 7B62     	 str r3,[r7,#36]
 719:C:/Users/Yushev/git/wpcqi-optiga-trust-charge/optiga/externals/mbedtls/library\x509_crt.c ****         int is_critical = 0; /* DEFAULT FALSE */
 1918              	 .loc 2 719 0
 1919 0042 0023     	 movs r3,#0
 1920 0044 BB61     	 str r3,[r7,#24]
 720:C:/Users/Yushev/git/wpcqi-optiga-trust-charge/optiga/externals/mbedtls/library\x509_crt.c ****         int ext_type = 0;
 1921              	 .loc 2 720 0
 1922 0046 0023     	 movs r3,#0
 1923 0048 7B61     	 str r3,[r7,#20]
 721:C:/Users/Yushev/git/wpcqi-optiga-trust-charge/optiga/externals/mbedtls/library\x509_crt.c **** 
 722:C:/Users/Yushev/git/wpcqi-optiga-trust-charge/optiga/externals/mbedtls/library\x509_crt.c ****         if( ( ret = mbedtls_asn1_get_tag( p, end, &len,
 1924              	 .loc 2 722 0
 1925 004a 07F12803 	 add r3,r7,#40
 1926 004e F868     	 ldr r0,[r7,#12]
 1927 0050 B968     	 ldr r1,[r7,#8]
 1928 0052 1A46     	 mov r2,r3
 1929 0054 3023     	 movs r3,#48
 1930 0056 FFF7FEFF 	 bl mbedtls_asn1_get_tag
 1931 005a 7863     	 str r0,[r7,#52]
 1932 005c 7B6B     	 ldr r3,[r7,#52]
 1933 005e 002B     	 cmp r3,#0
 1934 0060 03D0     	 beq .L136
 723:C:/Users/Yushev/git/wpcqi-optiga-trust-charge/optiga/externals/mbedtls/library\x509_crt.c ****                 MBEDTLS_ASN1_CONSTRUCTED | MBEDTLS_ASN1_SEQUENCE ) ) != 0 )
 724:C:/Users/Yushev/git/wpcqi-optiga-trust-charge/optiga/externals/mbedtls/library\x509_crt.c ****             return( MBEDTLS_ERR_X509_INVALID_EXTENSIONS + ret );
 1935              	 .loc 2 724 0
 1936 0062 7B6B     	 ldr r3,[r7,#52]
 1937 0064 A3F51453 	 sub r3,r3,#9472
 1938 0068 E2E0     	 b .L160
 1939              	.L136:
 725:C:/Users/Yushev/git/wpcqi-optiga-trust-charge/optiga/externals/mbedtls/library\x509_crt.c **** 
 726:C:/Users/Yushev/git/wpcqi-optiga-trust-charge/optiga/externals/mbedtls/library\x509_crt.c ****         end_ext_data = *p + len;
 1940              	 .loc 2 726 0
 1941 006a FB68     	 ldr r3,[r7,#12]
 1942 006c 1A68     	 ldr r2,[r3]
 1943 006e BB6A     	 ldr r3,[r7,#40]
 1944 0070 1344     	 add r3,r3,r2
 1945 0072 3B63     	 str r3,[r7,#48]
 727:C:/Users/Yushev/git/wpcqi-optiga-trust-charge/optiga/externals/mbedtls/library\x509_crt.c **** 
 728:C:/Users/Yushev/git/wpcqi-optiga-trust-charge/optiga/externals/mbedtls/library\x509_crt.c ****         /* Get extension ID */
 729:C:/Users/Yushev/git/wpcqi-optiga-trust-charge/optiga/externals/mbedtls/library\x509_crt.c ****         if( ( ret = mbedtls_asn1_get_tag( p, end_ext_data, &extn_oid.len,
 1946              	 .loc 2 729 0
 1947 0074 07F11C03 	 add r3,r7,#28
 1948 0078 0433     	 adds r3,r3,#4
 1949 007a F868     	 ldr r0,[r7,#12]
 1950 007c 396B     	 ldr r1,[r7,#48]
 1951 007e 1A46     	 mov r2,r3
 1952 0080 0623     	 movs r3,#6
 1953 0082 FFF7FEFF 	 bl mbedtls_asn1_get_tag
 1954 0086 7863     	 str r0,[r7,#52]
 1955 0088 7B6B     	 ldr r3,[r7,#52]
 1956 008a 002B     	 cmp r3,#0
 1957 008c 03D0     	 beq .L138
 730:C:/Users/Yushev/git/wpcqi-optiga-trust-charge/optiga/externals/mbedtls/library\x509_crt.c ****                                           MBEDTLS_ASN1_OID ) ) != 0 )
 731:C:/Users/Yushev/git/wpcqi-optiga-trust-charge/optiga/externals/mbedtls/library\x509_crt.c ****             return( MBEDTLS_ERR_X509_INVALID_EXTENSIONS + ret );
 1958              	 .loc 2 731 0
 1959 008e 7B6B     	 ldr r3,[r7,#52]
 1960 0090 A3F51453 	 sub r3,r3,#9472
 1961 0094 CCE0     	 b .L160
 1962              	.L138:
 732:C:/Users/Yushev/git/wpcqi-optiga-trust-charge/optiga/externals/mbedtls/library\x509_crt.c **** 
 733:C:/Users/Yushev/git/wpcqi-optiga-trust-charge/optiga/externals/mbedtls/library\x509_crt.c ****         extn_oid.tag = MBEDTLS_ASN1_OID;
 1963              	 .loc 2 733 0
 1964 0096 0623     	 movs r3,#6
 1965 0098 FB61     	 str r3,[r7,#28]
 734:C:/Users/Yushev/git/wpcqi-optiga-trust-charge/optiga/externals/mbedtls/library\x509_crt.c ****         extn_oid.p = *p;
 1966              	 .loc 2 734 0
 1967 009a FB68     	 ldr r3,[r7,#12]
 1968 009c 1B68     	 ldr r3,[r3]
 1969 009e 7B62     	 str r3,[r7,#36]
 735:C:/Users/Yushev/git/wpcqi-optiga-trust-charge/optiga/externals/mbedtls/library\x509_crt.c ****         *p += extn_oid.len;
 1970              	 .loc 2 735 0
 1971 00a0 FB68     	 ldr r3,[r7,#12]
 1972 00a2 1A68     	 ldr r2,[r3]
 1973 00a4 3B6A     	 ldr r3,[r7,#32]
 1974 00a6 1A44     	 add r2,r2,r3
 1975 00a8 FB68     	 ldr r3,[r7,#12]
 1976 00aa 1A60     	 str r2,[r3]
 736:C:/Users/Yushev/git/wpcqi-optiga-trust-charge/optiga/externals/mbedtls/library\x509_crt.c **** 
 737:C:/Users/Yushev/git/wpcqi-optiga-trust-charge/optiga/externals/mbedtls/library\x509_crt.c ****         /* Get optional critical */
 738:C:/Users/Yushev/git/wpcqi-optiga-trust-charge/optiga/externals/mbedtls/library\x509_crt.c ****         if( ( ret = mbedtls_asn1_get_bool( p, end_ext_data, &is_critical ) ) != 0 &&
 1977              	 .loc 2 738 0
 1978 00ac 07F11803 	 add r3,r7,#24
 1979 00b0 F868     	 ldr r0,[r7,#12]
 1980 00b2 396B     	 ldr r1,[r7,#48]
 1981 00b4 1A46     	 mov r2,r3
 1982 00b6 FFF7FEFF 	 bl mbedtls_asn1_get_bool
 1983 00ba 7863     	 str r0,[r7,#52]
 1984 00bc 7B6B     	 ldr r3,[r7,#52]
 1985 00be 002B     	 cmp r3,#0
 1986 00c0 07D0     	 beq .L139
 1987              	 .loc 2 738 0 is_stmt 0 discriminator 1
 1988 00c2 7B6B     	 ldr r3,[r7,#52]
 1989 00c4 13F1620F 	 cmn r3,#98
 1990 00c8 03D0     	 beq .L139
 739:C:/Users/Yushev/git/wpcqi-optiga-trust-charge/optiga/externals/mbedtls/library\x509_crt.c ****             ( ret != MBEDTLS_ERR_ASN1_UNEXPECTED_TAG ) )
 740:C:/Users/Yushev/git/wpcqi-optiga-trust-charge/optiga/externals/mbedtls/library\x509_crt.c ****             return( MBEDTLS_ERR_X509_INVALID_EXTENSIONS + ret );
 1991              	 .loc 2 740 0 is_stmt 1
 1992 00ca 7B6B     	 ldr r3,[r7,#52]
 1993 00cc A3F51453 	 sub r3,r3,#9472
 1994 00d0 AEE0     	 b .L160
 1995              	.L139:
 741:C:/Users/Yushev/git/wpcqi-optiga-trust-charge/optiga/externals/mbedtls/library\x509_crt.c **** 
 742:C:/Users/Yushev/git/wpcqi-optiga-trust-charge/optiga/externals/mbedtls/library\x509_crt.c ****         /* Data should be octet string type */
 743:C:/Users/Yushev/git/wpcqi-optiga-trust-charge/optiga/externals/mbedtls/library\x509_crt.c ****         if( ( ret = mbedtls_asn1_get_tag( p, end_ext_data, &len,
 1996              	 .loc 2 743 0
 1997 00d2 07F12803 	 add r3,r7,#40
 1998 00d6 F868     	 ldr r0,[r7,#12]
 1999 00d8 396B     	 ldr r1,[r7,#48]
 2000 00da 1A46     	 mov r2,r3
 2001 00dc 0423     	 movs r3,#4
 2002 00de FFF7FEFF 	 bl mbedtls_asn1_get_tag
 2003 00e2 7863     	 str r0,[r7,#52]
 2004 00e4 7B6B     	 ldr r3,[r7,#52]
 2005 00e6 002B     	 cmp r3,#0
 2006 00e8 03D0     	 beq .L140
 744:C:/Users/Yushev/git/wpcqi-optiga-trust-charge/optiga/externals/mbedtls/library\x509_crt.c ****                 MBEDTLS_ASN1_OCTET_STRING ) ) != 0 )
 745:C:/Users/Yushev/git/wpcqi-optiga-trust-charge/optiga/externals/mbedtls/library\x509_crt.c ****             return( MBEDTLS_ERR_X509_INVALID_EXTENSIONS + ret );
 2007              	 .loc 2 745 0
 2008 00ea 7B6B     	 ldr r3,[r7,#52]
 2009 00ec A3F51453 	 sub r3,r3,#9472
 2010 00f0 9EE0     	 b .L160
 2011              	.L140:
 746:C:/Users/Yushev/git/wpcqi-optiga-trust-charge/optiga/externals/mbedtls/library\x509_crt.c **** 
 747:C:/Users/Yushev/git/wpcqi-optiga-trust-charge/optiga/externals/mbedtls/library\x509_crt.c ****         end_ext_octet = *p + len;
 2012              	 .loc 2 747 0
 2013 00f2 FB68     	 ldr r3,[r7,#12]
 2014 00f4 1A68     	 ldr r2,[r3]
 2015 00f6 BB6A     	 ldr r3,[r7,#40]
 2016 00f8 1344     	 add r3,r3,r2
 2017 00fa FB62     	 str r3,[r7,#44]
 748:C:/Users/Yushev/git/wpcqi-optiga-trust-charge/optiga/externals/mbedtls/library\x509_crt.c **** 
 749:C:/Users/Yushev/git/wpcqi-optiga-trust-charge/optiga/externals/mbedtls/library\x509_crt.c ****         if( end_ext_octet != end_ext_data )
 2018              	 .loc 2 749 0
 2019 00fc FA6A     	 ldr r2,[r7,#44]
 2020 00fe 3B6B     	 ldr r3,[r7,#48]
 2021 0100 9A42     	 cmp r2,r3
 2022 0102 01D0     	 beq .L141
 750:C:/Users/Yushev/git/wpcqi-optiga-trust-charge/optiga/externals/mbedtls/library\x509_crt.c ****             return( MBEDTLS_ERR_X509_INVALID_EXTENSIONS +
 2023              	 .loc 2 750 0
 2024 0104 4C4B     	 ldr r3,.L161
 2025 0106 93E0     	 b .L160
 2026              	.L141:
 751:C:/Users/Yushev/git/wpcqi-optiga-trust-charge/optiga/externals/mbedtls/library\x509_crt.c ****                     MBEDTLS_ERR_ASN1_LENGTH_MISMATCH );
 752:C:/Users/Yushev/git/wpcqi-optiga-trust-charge/optiga/externals/mbedtls/library\x509_crt.c **** 
 753:C:/Users/Yushev/git/wpcqi-optiga-trust-charge/optiga/externals/mbedtls/library\x509_crt.c ****         /*
 754:C:/Users/Yushev/git/wpcqi-optiga-trust-charge/optiga/externals/mbedtls/library\x509_crt.c ****          * Detect supported extensions
 755:C:/Users/Yushev/git/wpcqi-optiga-trust-charge/optiga/externals/mbedtls/library\x509_crt.c ****          */
 756:C:/Users/Yushev/git/wpcqi-optiga-trust-charge/optiga/externals/mbedtls/library\x509_crt.c ****         ret = mbedtls_oid_get_x509_ext_type( &extn_oid, &ext_type );
 2027              	 .loc 2 756 0
 2028 0108 07F11C02 	 add r2,r7,#28
 2029 010c 07F11403 	 add r3,r7,#20
 2030 0110 1046     	 mov r0,r2
 2031 0112 1946     	 mov r1,r3
 2032 0114 FFF7FEFF 	 bl mbedtls_oid_get_x509_ext_type
 2033 0118 7863     	 str r0,[r7,#52]
 757:C:/Users/Yushev/git/wpcqi-optiga-trust-charge/optiga/externals/mbedtls/library\x509_crt.c **** 
 758:C:/Users/Yushev/git/wpcqi-optiga-trust-charge/optiga/externals/mbedtls/library\x509_crt.c ****         if( ret != 0 )
 2034              	 .loc 2 758 0
 2035 011a 7B6B     	 ldr r3,[r7,#52]
 2036 011c 002B     	 cmp r3,#0
 2037 011e 07D0     	 beq .L142
 759:C:/Users/Yushev/git/wpcqi-optiga-trust-charge/optiga/externals/mbedtls/library\x509_crt.c ****         {
 760:C:/Users/Yushev/git/wpcqi-optiga-trust-charge/optiga/externals/mbedtls/library\x509_crt.c ****             /* No parser found, skip extension */
 761:C:/Users/Yushev/git/wpcqi-optiga-trust-charge/optiga/externals/mbedtls/library\x509_crt.c ****             *p = end_ext_octet;
 2038              	 .loc 2 761 0
 2039 0120 FB68     	 ldr r3,[r7,#12]
 2040 0122 FA6A     	 ldr r2,[r7,#44]
 2041 0124 1A60     	 str r2,[r3]
 762:C:/Users/Yushev/git/wpcqi-optiga-trust-charge/optiga/externals/mbedtls/library\x509_crt.c **** 
 763:C:/Users/Yushev/git/wpcqi-optiga-trust-charge/optiga/externals/mbedtls/library\x509_crt.c **** #if !defined(MBEDTLS_X509_ALLOW_UNSUPPORTED_CRITICAL_EXTENSION)
 764:C:/Users/Yushev/git/wpcqi-optiga-trust-charge/optiga/externals/mbedtls/library\x509_crt.c ****             if( is_critical )
 2042              	 .loc 2 764 0
 2043 0126 BB69     	 ldr r3,[r7,#24]
 2044 0128 002B     	 cmp r3,#0
 2045 012a 73D0     	 beq .L135
 765:C:/Users/Yushev/git/wpcqi-optiga-trust-charge/optiga/externals/mbedtls/library\x509_crt.c ****             {
 766:C:/Users/Yushev/git/wpcqi-optiga-trust-charge/optiga/externals/mbedtls/library\x509_crt.c ****                 /* Data is marked as critical: fail */
 767:C:/Users/Yushev/git/wpcqi-optiga-trust-charge/optiga/externals/mbedtls/library\x509_crt.c ****                 return( MBEDTLS_ERR_X509_INVALID_EXTENSIONS +
 2046              	 .loc 2 767 0
 2047 012c 434B     	 ldr r3,.L161+4
 2048 012e 7FE0     	 b .L160
 2049              	.L142:
 768:C:/Users/Yushev/git/wpcqi-optiga-trust-charge/optiga/externals/mbedtls/library\x509_crt.c ****                         MBEDTLS_ERR_ASN1_UNEXPECTED_TAG );
 769:C:/Users/Yushev/git/wpcqi-optiga-trust-charge/optiga/externals/mbedtls/library\x509_crt.c ****             }
 770:C:/Users/Yushev/git/wpcqi-optiga-trust-charge/optiga/externals/mbedtls/library\x509_crt.c **** #endif
 771:C:/Users/Yushev/git/wpcqi-optiga-trust-charge/optiga/externals/mbedtls/library\x509_crt.c ****             continue;
 772:C:/Users/Yushev/git/wpcqi-optiga-trust-charge/optiga/externals/mbedtls/library\x509_crt.c ****         }
 773:C:/Users/Yushev/git/wpcqi-optiga-trust-charge/optiga/externals/mbedtls/library\x509_crt.c **** 
 774:C:/Users/Yushev/git/wpcqi-optiga-trust-charge/optiga/externals/mbedtls/library\x509_crt.c ****         /* Forbid repeated extensions */
 775:C:/Users/Yushev/git/wpcqi-optiga-trust-charge/optiga/externals/mbedtls/library\x509_crt.c ****         if( ( crt->ext_types & ext_type ) != 0 )
 2050              	 .loc 2 775 0
 2051 0130 7B68     	 ldr r3,[r7,#4]
 2052 0132 D3F8F820 	 ldr r2,[r3,#248]
 2053 0136 7B69     	 ldr r3,[r7,#20]
 2054 0138 1340     	 ands r3,r3,r2
 2055 013a 002B     	 cmp r3,#0
 2056 013c 01D0     	 beq .L144
 776:C:/Users/Yushev/git/wpcqi-optiga-trust-charge/optiga/externals/mbedtls/library\x509_crt.c ****             return( MBEDTLS_ERR_X509_INVALID_EXTENSIONS );
 2057              	 .loc 2 776 0
 2058 013e 404B     	 ldr r3,.L161+8
 2059 0140 76E0     	 b .L160
 2060              	.L144:
 777:C:/Users/Yushev/git/wpcqi-optiga-trust-charge/optiga/externals/mbedtls/library\x509_crt.c **** 
 778:C:/Users/Yushev/git/wpcqi-optiga-trust-charge/optiga/externals/mbedtls/library\x509_crt.c ****         crt->ext_types |= ext_type;
 2061              	 .loc 2 778 0
 2062 0142 7B68     	 ldr r3,[r7,#4]
 2063 0144 D3F8F820 	 ldr r2,[r3,#248]
 2064 0148 7B69     	 ldr r3,[r7,#20]
 2065 014a 1A43     	 orrs r2,r2,r3
 2066 014c 7B68     	 ldr r3,[r7,#4]
 2067 014e C3F8F820 	 str r2,[r3,#248]
 779:C:/Users/Yushev/git/wpcqi-optiga-trust-charge/optiga/externals/mbedtls/library\x509_crt.c **** 
 780:C:/Users/Yushev/git/wpcqi-optiga-trust-charge/optiga/externals/mbedtls/library\x509_crt.c ****         switch( ext_type )
 2068              	 .loc 2 780 0
 2069 0152 7B69     	 ldr r3,[r7,#20]
 2070 0154 B3F5807F 	 cmp r3,#256
 2071 0158 0ED0     	 beq .L146
 2072 015a B3F5807F 	 cmp r3,#256
 2073 015e 04DC     	 bgt .L147
 2074 0160 042B     	 cmp r3,#4
 2075 0162 1AD0     	 beq .L148
 2076 0164 202B     	 cmp r3,#32
 2077 0166 36D0     	 beq .L149
 2078 0168 52E0     	 b .L145
 2079              	.L147:
 2080 016a B3F5006F 	 cmp r3,#2048
 2081 016e 23D0     	 beq .L150
 2082 0170 B3F5803F 	 cmp r3,#65536
 2083 0174 3DD0     	 beq .L151
 2084 0176 4BE0     	 b .L145
 2085              	.L146:
 781:C:/Users/Yushev/git/wpcqi-optiga-trust-charge/optiga/externals/mbedtls/library\x509_crt.c ****         {
 782:C:/Users/Yushev/git/wpcqi-optiga-trust-charge/optiga/externals/mbedtls/library\x509_crt.c ****         case MBEDTLS_X509_EXT_BASIC_CONSTRAINTS:
 783:C:/Users/Yushev/git/wpcqi-optiga-trust-charge/optiga/externals/mbedtls/library\x509_crt.c ****             /* Parse basic constraints */
 784:C:/Users/Yushev/git/wpcqi-optiga-trust-charge/optiga/externals/mbedtls/library\x509_crt.c ****             if( ( ret = x509_get_basic_constraints( p, end_ext_octet,
 2086              	 .loc 2 784 0
 2087 0178 7B68     	 ldr r3,[r7,#4]
 2088 017a 03F1FC02 	 add r2,r3,#252
 2089 017e 7B68     	 ldr r3,[r7,#4]
 2090 0180 03F58073 	 add r3,r3,#256
 2091 0184 F868     	 ldr r0,[r7,#12]
 2092 0186 F96A     	 ldr r1,[r7,#44]
 2093 0188 FFF7FEFF 	 bl x509_get_basic_constraints
 2094 018c 7863     	 str r0,[r7,#52]
 2095 018e 7B6B     	 ldr r3,[r7,#52]
 2096 0190 002B     	 cmp r3,#0
 2097 0192 01D0     	 beq .L152
 785:C:/Users/Yushev/git/wpcqi-optiga-trust-charge/optiga/externals/mbedtls/library\x509_crt.c ****                     &crt->ca_istrue, &crt->max_pathlen ) ) != 0 )
 786:C:/Users/Yushev/git/wpcqi-optiga-trust-charge/optiga/externals/mbedtls/library\x509_crt.c ****                 return( ret );
 2098              	 .loc 2 786 0
 2099 0194 7B6B     	 ldr r3,[r7,#52]
 2100 0196 4BE0     	 b .L160
 2101              	.L152:
 787:C:/Users/Yushev/git/wpcqi-optiga-trust-charge/optiga/externals/mbedtls/library\x509_crt.c ****             break;
 2102              	 .loc 2 787 0
 2103 0198 3CE0     	 b .L153
 2104              	.L148:
 788:C:/Users/Yushev/git/wpcqi-optiga-trust-charge/optiga/externals/mbedtls/library\x509_crt.c **** 
 789:C:/Users/Yushev/git/wpcqi-optiga-trust-charge/optiga/externals/mbedtls/library\x509_crt.c ****         case MBEDTLS_X509_EXT_KEY_USAGE:
 790:C:/Users/Yushev/git/wpcqi-optiga-trust-charge/optiga/externals/mbedtls/library\x509_crt.c ****             /* Parse key usage */
 791:C:/Users/Yushev/git/wpcqi-optiga-trust-charge/optiga/externals/mbedtls/library\x509_crt.c ****             if( ( ret = x509_get_key_usage( p, end_ext_octet,
 2105              	 .loc 2 791 0
 2106 019a 7B68     	 ldr r3,[r7,#4]
 2107 019c 03F58273 	 add r3,r3,#260
 2108 01a0 F868     	 ldr r0,[r7,#12]
 2109 01a2 F96A     	 ldr r1,[r7,#44]
 2110 01a4 1A46     	 mov r2,r3
 2111 01a6 FFF7FEFF 	 bl x509_get_key_usage
 2112 01aa 7863     	 str r0,[r7,#52]
 2113 01ac 7B6B     	 ldr r3,[r7,#52]
 2114 01ae 002B     	 cmp r3,#0
 2115 01b0 01D0     	 beq .L154
 792:C:/Users/Yushev/git/wpcqi-optiga-trust-charge/optiga/externals/mbedtls/library\x509_crt.c ****                     &crt->key_usage ) ) != 0 )
 793:C:/Users/Yushev/git/wpcqi-optiga-trust-charge/optiga/externals/mbedtls/library\x509_crt.c ****                 return( ret );
 2116              	 .loc 2 793 0
 2117 01b2 7B6B     	 ldr r3,[r7,#52]
 2118 01b4 3CE0     	 b .L160
 2119              	.L154:
 794:C:/Users/Yushev/git/wpcqi-optiga-trust-charge/optiga/externals/mbedtls/library\x509_crt.c ****             break;
 2120              	 .loc 2 794 0 discriminator 2
 2121 01b6 2DE0     	 b .L153
 2122              	.L150:
 795:C:/Users/Yushev/git/wpcqi-optiga-trust-charge/optiga/externals/mbedtls/library\x509_crt.c **** 
 796:C:/Users/Yushev/git/wpcqi-optiga-trust-charge/optiga/externals/mbedtls/library\x509_crt.c ****         case MBEDTLS_X509_EXT_EXTENDED_KEY_USAGE:
 797:C:/Users/Yushev/git/wpcqi-optiga-trust-charge/optiga/externals/mbedtls/library\x509_crt.c ****             /* Parse extended key usage */
 798:C:/Users/Yushev/git/wpcqi-optiga-trust-charge/optiga/externals/mbedtls/library\x509_crt.c ****             if( ( ret = x509_get_ext_key_usage( p, end_ext_octet,
 2123              	 .loc 2 798 0
 2124 01b8 7B68     	 ldr r3,[r7,#4]
 2125 01ba 03F58473 	 add r3,r3,#264
 2126 01be F868     	 ldr r0,[r7,#12]
 2127 01c0 F96A     	 ldr r1,[r7,#44]
 2128 01c2 1A46     	 mov r2,r3
 2129 01c4 FFF7FEFF 	 bl x509_get_ext_key_usage
 2130 01c8 7863     	 str r0,[r7,#52]
 2131 01ca 7B6B     	 ldr r3,[r7,#52]
 2132 01cc 002B     	 cmp r3,#0
 2133 01ce 01D0     	 beq .L155
 799:C:/Users/Yushev/git/wpcqi-optiga-trust-charge/optiga/externals/mbedtls/library\x509_crt.c ****                     &crt->ext_key_usage ) ) != 0 )
 800:C:/Users/Yushev/git/wpcqi-optiga-trust-charge/optiga/externals/mbedtls/library\x509_crt.c ****                 return( ret );
 2134              	 .loc 2 800 0
 2135 01d0 7B6B     	 ldr r3,[r7,#52]
 2136 01d2 2DE0     	 b .L160
 2137              	.L155:
 801:C:/Users/Yushev/git/wpcqi-optiga-trust-charge/optiga/externals/mbedtls/library\x509_crt.c ****             break;
 2138              	 .loc 2 801 0 discriminator 3
 2139 01d4 1EE0     	 b .L153
 2140              	.L149:
 802:C:/Users/Yushev/git/wpcqi-optiga-trust-charge/optiga/externals/mbedtls/library\x509_crt.c **** 
 803:C:/Users/Yushev/git/wpcqi-optiga-trust-charge/optiga/externals/mbedtls/library\x509_crt.c ****         case MBEDTLS_X509_EXT_SUBJECT_ALT_NAME:
 804:C:/Users/Yushev/git/wpcqi-optiga-trust-charge/optiga/externals/mbedtls/library\x509_crt.c ****             /* Parse subject alt name */
 805:C:/Users/Yushev/git/wpcqi-optiga-trust-charge/optiga/externals/mbedtls/library\x509_crt.c ****             if( ( ret = x509_get_subject_alt_name( p, end_ext_octet,
 2141              	 .loc 2 805 0
 2142 01d6 7B68     	 ldr r3,[r7,#4]
 2143 01d8 E833     	 adds r3,r3,#232
 2144 01da F868     	 ldr r0,[r7,#12]
 2145 01dc F96A     	 ldr r1,[r7,#44]
 2146 01de 1A46     	 mov r2,r3
 2147 01e0 FFF7FEFF 	 bl x509_get_subject_alt_name
 2148 01e4 7863     	 str r0,[r7,#52]
 2149 01e6 7B6B     	 ldr r3,[r7,#52]
 2150 01e8 002B     	 cmp r3,#0
 2151 01ea 01D0     	 beq .L156
 806:C:/Users/Yushev/git/wpcqi-optiga-trust-charge/optiga/externals/mbedtls/library\x509_crt.c ****                     &crt->subject_alt_names ) ) != 0 )
 807:C:/Users/Yushev/git/wpcqi-optiga-trust-charge/optiga/externals/mbedtls/library\x509_crt.c ****                 return( ret );
 2152              	 .loc 2 807 0
 2153 01ec 7B6B     	 ldr r3,[r7,#52]
 2154 01ee 1FE0     	 b .L160
 2155              	.L156:
 808:C:/Users/Yushev/git/wpcqi-optiga-trust-charge/optiga/externals/mbedtls/library\x509_crt.c ****             break;
 2156              	 .loc 2 808 0 discriminator 4
 2157 01f0 10E0     	 b .L153
 2158              	.L151:
 809:C:/Users/Yushev/git/wpcqi-optiga-trust-charge/optiga/externals/mbedtls/library\x509_crt.c **** 
 810:C:/Users/Yushev/git/wpcqi-optiga-trust-charge/optiga/externals/mbedtls/library\x509_crt.c ****         case MBEDTLS_X509_EXT_NS_CERT_TYPE:
 811:C:/Users/Yushev/git/wpcqi-optiga-trust-charge/optiga/externals/mbedtls/library\x509_crt.c ****             /* Parse netscape certificate type */
 812:C:/Users/Yushev/git/wpcqi-optiga-trust-charge/optiga/externals/mbedtls/library\x509_crt.c ****             if( ( ret = x509_get_ns_cert_type( p, end_ext_octet,
 2159              	 .loc 2 812 0
 2160 01f2 7B68     	 ldr r3,[r7,#4]
 2161 01f4 03F58C73 	 add r3,r3,#280
 2162 01f8 F868     	 ldr r0,[r7,#12]
 2163 01fa F96A     	 ldr r1,[r7,#44]
 2164 01fc 1A46     	 mov r2,r3
 2165 01fe FFF7FEFF 	 bl x509_get_ns_cert_type
 2166 0202 7863     	 str r0,[r7,#52]
 2167 0204 7B6B     	 ldr r3,[r7,#52]
 2168 0206 002B     	 cmp r3,#0
 2169 0208 01D0     	 beq .L157
 813:C:/Users/Yushev/git/wpcqi-optiga-trust-charge/optiga/externals/mbedtls/library\x509_crt.c ****                     &crt->ns_cert_type ) ) != 0 )
 814:C:/Users/Yushev/git/wpcqi-optiga-trust-charge/optiga/externals/mbedtls/library\x509_crt.c ****                 return( ret );
 2170              	 .loc 2 814 0
 2171 020a 7B6B     	 ldr r3,[r7,#52]
 2172 020c 10E0     	 b .L160
 2173              	.L157:
 815:C:/Users/Yushev/git/wpcqi-optiga-trust-charge/optiga/externals/mbedtls/library\x509_crt.c ****             break;
 2174              	 .loc 2 815 0 discriminator 5
 2175 020e 01E0     	 b .L153
 2176              	.L145:
 816:C:/Users/Yushev/git/wpcqi-optiga-trust-charge/optiga/externals/mbedtls/library\x509_crt.c **** 
 817:C:/Users/Yushev/git/wpcqi-optiga-trust-charge/optiga/externals/mbedtls/library\x509_crt.c ****         default:
 818:C:/Users/Yushev/git/wpcqi-optiga-trust-charge/optiga/externals/mbedtls/library\x509_crt.c ****             return( MBEDTLS_ERR_X509_FEATURE_UNAVAILABLE );
 2177              	 .loc 2 818 0
 2178 0210 0C4B     	 ldr r3,.L161+12
 2179 0212 0DE0     	 b .L160
 2180              	.L153:
 2181              	.L135:
 2182              	.LBE3:
 710:C:/Users/Yushev/git/wpcqi-optiga-trust-charge/optiga/externals/mbedtls/library\x509_crt.c ****     {
 2183              	 .loc 2 710 0
 2184 0214 FB68     	 ldr r3,[r7,#12]
 2185 0216 1A68     	 ldr r2,[r3]
 2186 0218 BB68     	 ldr r3,[r7,#8]
 2187 021a 9A42     	 cmp r2,r3
 2188 021c FFF40BAF 	 bcc .L158
 819:C:/Users/Yushev/git/wpcqi-optiga-trust-charge/optiga/externals/mbedtls/library\x509_crt.c ****         }
 820:C:/Users/Yushev/git/wpcqi-optiga-trust-charge/optiga/externals/mbedtls/library\x509_crt.c ****     }
 821:C:/Users/Yushev/git/wpcqi-optiga-trust-charge/optiga/externals/mbedtls/library\x509_crt.c **** 
 822:C:/Users/Yushev/git/wpcqi-optiga-trust-charge/optiga/externals/mbedtls/library\x509_crt.c ****     if( *p != end )
 2189              	 .loc 2 822 0
 2190 0220 FB68     	 ldr r3,[r7,#12]
 2191 0222 1A68     	 ldr r2,[r3]
 2192 0224 BB68     	 ldr r3,[r7,#8]
 2193 0226 9A42     	 cmp r2,r3
 2194 0228 01D0     	 beq .L159
 823:C:/Users/Yushev/git/wpcqi-optiga-trust-charge/optiga/externals/mbedtls/library\x509_crt.c ****         return( MBEDTLS_ERR_X509_INVALID_EXTENSIONS +
 2195              	 .loc 2 823 0
 2196 022a 034B     	 ldr r3,.L161
 2197 022c 00E0     	 b .L160
 2198              	.L159:
 824:C:/Users/Yushev/git/wpcqi-optiga-trust-charge/optiga/externals/mbedtls/library\x509_crt.c ****                 MBEDTLS_ERR_ASN1_LENGTH_MISMATCH );
 825:C:/Users/Yushev/git/wpcqi-optiga-trust-charge/optiga/externals/mbedtls/library\x509_crt.c **** 
 826:C:/Users/Yushev/git/wpcqi-optiga-trust-charge/optiga/externals/mbedtls/library\x509_crt.c ****     return( 0 );
 2199              	 .loc 2 826 0
 2200 022e 0023     	 movs r3,#0
 2201              	.L160:
 827:C:/Users/Yushev/git/wpcqi-optiga-trust-charge/optiga/externals/mbedtls/library\x509_crt.c **** }
 2202              	 .loc 2 827 0 discriminator 6
 2203 0230 1846     	 mov r0,r3
 2204 0232 3837     	 adds r7,r7,#56
 2205              	.LCFI93:
 2206              	 .cfi_def_cfa_offset 8
 2207 0234 BD46     	 mov sp,r7
 2208              	.LCFI94:
 2209              	 .cfi_def_cfa_register 13
 2210              	 
 2211 0236 80BD     	 pop {r7,pc}
 2212              	.L162:
 2213              	 .align 2
 2214              	.L161:
 2215 0238 9ADAFFFF 	 .word -9574
 2216 023c 9EDAFFFF 	 .word -9570
 2217 0240 00DBFFFF 	 .word -9472
 2218 0244 80DFFFFF 	 .word -8320
 2219              	 .cfi_endproc
 2220              	.LFE25:
 2222              	 .section .text.x509_crt_parse_der_core,"ax",%progbits
 2223              	 .align 2
 2224              	 .thumb
 2225              	 .thumb_func
 2227              	x509_crt_parse_der_core:
 2228              	.LFB26:
 828:C:/Users/Yushev/git/wpcqi-optiga-trust-charge/optiga/externals/mbedtls/library\x509_crt.c **** 
 829:C:/Users/Yushev/git/wpcqi-optiga-trust-charge/optiga/externals/mbedtls/library\x509_crt.c **** /*
 830:C:/Users/Yushev/git/wpcqi-optiga-trust-charge/optiga/externals/mbedtls/library\x509_crt.c ****  * Parse and fill a single X.509 certificate in DER format
 831:C:/Users/Yushev/git/wpcqi-optiga-trust-charge/optiga/externals/mbedtls/library\x509_crt.c ****  */
 832:C:/Users/Yushev/git/wpcqi-optiga-trust-charge/optiga/externals/mbedtls/library\x509_crt.c **** static int x509_crt_parse_der_core( mbedtls_x509_crt *crt, const unsigned char *buf,
 833:C:/Users/Yushev/git/wpcqi-optiga-trust-charge/optiga/externals/mbedtls/library\x509_crt.c ****                                     size_t buflen )
 834:C:/Users/Yushev/git/wpcqi-optiga-trust-charge/optiga/externals/mbedtls/library\x509_crt.c **** {
 2229              	 .loc 2 834 0
 2230              	 .cfi_startproc
 2231              	 
 2232              	 
 2233 0000 90B5     	 push {r4,r7,lr}
 2234              	.LCFI95:
 2235              	 .cfi_def_cfa_offset 12
 2236              	 .cfi_offset 4,-12
 2237              	 .cfi_offset 7,-8
 2238              	 .cfi_offset 14,-4
 2239 0002 95B0     	 sub sp,sp,#84
 2240              	.LCFI96:
 2241              	 .cfi_def_cfa_offset 96
 2242 0004 02AF     	 add r7,sp,#8
 2243              	.LCFI97:
 2244              	 .cfi_def_cfa 7,88
 2245 0006 F860     	 str r0,[r7,#12]
 2246 0008 B960     	 str r1,[r7,#8]
 2247 000a 7A60     	 str r2,[r7,#4]
 835:C:/Users/Yushev/git/wpcqi-optiga-trust-charge/optiga/externals/mbedtls/library\x509_crt.c ****     int ret;
 836:C:/Users/Yushev/git/wpcqi-optiga-trust-charge/optiga/externals/mbedtls/library\x509_crt.c ****     size_t len;
 837:C:/Users/Yushev/git/wpcqi-optiga-trust-charge/optiga/externals/mbedtls/library\x509_crt.c ****     unsigned char *p, *end, *crt_end;
 838:C:/Users/Yushev/git/wpcqi-optiga-trust-charge/optiga/externals/mbedtls/library\x509_crt.c ****     mbedtls_x509_buf sig_params1, sig_params2, sig_oid2;
 839:C:/Users/Yushev/git/wpcqi-optiga-trust-charge/optiga/externals/mbedtls/library\x509_crt.c **** 
 840:C:/Users/Yushev/git/wpcqi-optiga-trust-charge/optiga/externals/mbedtls/library\x509_crt.c ****     memset( &sig_params1, 0, sizeof( mbedtls_x509_buf ) );
 2248              	 .loc 2 840 0
 2249 000c 07F12803 	 add r3,r7,#40
 2250 0010 1846     	 mov r0,r3
 2251 0012 0021     	 movs r1,#0
 2252 0014 0C22     	 movs r2,#12
 2253 0016 FFF7FEFF 	 bl memset
 841:C:/Users/Yushev/git/wpcqi-optiga-trust-charge/optiga/externals/mbedtls/library\x509_crt.c ****     memset( &sig_params2, 0, sizeof( mbedtls_x509_buf ) );
 2254              	 .loc 2 841 0
 2255 001a 07F11C03 	 add r3,r7,#28
 2256 001e 1846     	 mov r0,r3
 2257 0020 0021     	 movs r1,#0
 2258 0022 0C22     	 movs r2,#12
 2259 0024 FFF7FEFF 	 bl memset
 842:C:/Users/Yushev/git/wpcqi-optiga-trust-charge/optiga/externals/mbedtls/library\x509_crt.c ****     memset( &sig_oid2, 0, sizeof( mbedtls_x509_buf ) );
 2260              	 .loc 2 842 0
 2261 0028 07F11003 	 add r3,r7,#16
 2262 002c 1846     	 mov r0,r3
 2263 002e 0021     	 movs r1,#0
 2264 0030 0C22     	 movs r2,#12
 2265 0032 FFF7FEFF 	 bl memset
 843:C:/Users/Yushev/git/wpcqi-optiga-trust-charge/optiga/externals/mbedtls/library\x509_crt.c **** 
 844:C:/Users/Yushev/git/wpcqi-optiga-trust-charge/optiga/externals/mbedtls/library\x509_crt.c ****     /*
 845:C:/Users/Yushev/git/wpcqi-optiga-trust-charge/optiga/externals/mbedtls/library\x509_crt.c ****      * Check for valid input
 846:C:/Users/Yushev/git/wpcqi-optiga-trust-charge/optiga/externals/mbedtls/library\x509_crt.c ****      */
 847:C:/Users/Yushev/git/wpcqi-optiga-trust-charge/optiga/externals/mbedtls/library\x509_crt.c ****     if( crt == NULL || buf == NULL )
 2266              	 .loc 2 847 0
 2267 0036 FB68     	 ldr r3,[r7,#12]
 2268 0038 002B     	 cmp r3,#0
 2269 003a 02D0     	 beq .L164
 2270              	 .loc 2 847 0 is_stmt 0 discriminator 1
 2271 003c BB68     	 ldr r3,[r7,#8]
 2272 003e 002B     	 cmp r3,#0
 2273 0040 01D1     	 bne .L165
 2274              	.L164:
 848:C:/Users/Yushev/git/wpcqi-optiga-trust-charge/optiga/externals/mbedtls/library\x509_crt.c ****         return( MBEDTLS_ERR_X509_BAD_INPUT_DATA );
 2275              	 .loc 2 848 0 is_stmt 1
 2276 0042 A74B     	 ldr r3,.L194
 2277 0044 1EE2     	 b .L193
 2278              	.L165:
 849:C:/Users/Yushev/git/wpcqi-optiga-trust-charge/optiga/externals/mbedtls/library\x509_crt.c **** 
 850:C:/Users/Yushev/git/wpcqi-optiga-trust-charge/optiga/externals/mbedtls/library\x509_crt.c ****     // Use the original buffer until we figure out actual length
 851:C:/Users/Yushev/git/wpcqi-optiga-trust-charge/optiga/externals/mbedtls/library\x509_crt.c ****     p = (unsigned char*) buf;
 2279              	 .loc 2 851 0
 2280 0046 BB68     	 ldr r3,[r7,#8]
 2281 0048 7B63     	 str r3,[r7,#52]
 852:C:/Users/Yushev/git/wpcqi-optiga-trust-charge/optiga/externals/mbedtls/library\x509_crt.c ****     len = buflen;
 2282              	 .loc 2 852 0
 2283 004a 7B68     	 ldr r3,[r7,#4]
 2284 004c BB63     	 str r3,[r7,#56]
 853:C:/Users/Yushev/git/wpcqi-optiga-trust-charge/optiga/externals/mbedtls/library\x509_crt.c ****     end = p + len;
 2285              	 .loc 2 853 0
 2286 004e 7A6B     	 ldr r2,[r7,#52]
 2287 0050 BB6B     	 ldr r3,[r7,#56]
 2288 0052 1344     	 add r3,r3,r2
 2289 0054 3B64     	 str r3,[r7,#64]
 854:C:/Users/Yushev/git/wpcqi-optiga-trust-charge/optiga/externals/mbedtls/library\x509_crt.c **** 
 855:C:/Users/Yushev/git/wpcqi-optiga-trust-charge/optiga/externals/mbedtls/library\x509_crt.c ****     /*
 856:C:/Users/Yushev/git/wpcqi-optiga-trust-charge/optiga/externals/mbedtls/library\x509_crt.c ****      * Certificate  ::=  SEQUENCE  {
 857:C:/Users/Yushev/git/wpcqi-optiga-trust-charge/optiga/externals/mbedtls/library\x509_crt.c ****      *      tbsCertificate       TBSCertificate,
 858:C:/Users/Yushev/git/wpcqi-optiga-trust-charge/optiga/externals/mbedtls/library\x509_crt.c ****      *      signatureAlgorithm   AlgorithmIdentifier,
 859:C:/Users/Yushev/git/wpcqi-optiga-trust-charge/optiga/externals/mbedtls/library\x509_crt.c ****      *      signatureValue       BIT STRING  }
 860:C:/Users/Yushev/git/wpcqi-optiga-trust-charge/optiga/externals/mbedtls/library\x509_crt.c ****      */
 861:C:/Users/Yushev/git/wpcqi-optiga-trust-charge/optiga/externals/mbedtls/library\x509_crt.c ****     if( ( ret = mbedtls_asn1_get_tag( &p, end, &len,
 2290              	 .loc 2 861 0
 2291 0056 07F13402 	 add r2,r7,#52
 2292 005a 07F13803 	 add r3,r7,#56
 2293 005e 1046     	 mov r0,r2
 2294 0060 396C     	 ldr r1,[r7,#64]
 2295 0062 1A46     	 mov r2,r3
 2296 0064 3023     	 movs r3,#48
 2297 0066 FFF7FEFF 	 bl mbedtls_asn1_get_tag
 2298 006a 7864     	 str r0,[r7,#68]
 2299 006c 7B6C     	 ldr r3,[r7,#68]
 2300 006e 002B     	 cmp r3,#0
 2301 0070 04D0     	 beq .L167
 862:C:/Users/Yushev/git/wpcqi-optiga-trust-charge/optiga/externals/mbedtls/library\x509_crt.c ****             MBEDTLS_ASN1_CONSTRUCTED | MBEDTLS_ASN1_SEQUENCE ) ) != 0 )
 863:C:/Users/Yushev/git/wpcqi-optiga-trust-charge/optiga/externals/mbedtls/library\x509_crt.c ****     {
 864:C:/Users/Yushev/git/wpcqi-optiga-trust-charge/optiga/externals/mbedtls/library\x509_crt.c ****         mbedtls_x509_crt_free( crt );
 2302              	 .loc 2 864 0
 2303 0072 F868     	 ldr r0,[r7,#12]
 2304 0074 FFF7FEFF 	 bl mbedtls_x509_crt_free
 865:C:/Users/Yushev/git/wpcqi-optiga-trust-charge/optiga/externals/mbedtls/library\x509_crt.c ****         return( MBEDTLS_ERR_X509_INVALID_FORMAT );
 2305              	 .loc 2 865 0
 2306 0078 9A4B     	 ldr r3,.L194+4
 2307 007a 03E2     	 b .L193
 2308              	.L167:
 866:C:/Users/Yushev/git/wpcqi-optiga-trust-charge/optiga/externals/mbedtls/library\x509_crt.c ****     }
 867:C:/Users/Yushev/git/wpcqi-optiga-trust-charge/optiga/externals/mbedtls/library\x509_crt.c **** 
 868:C:/Users/Yushev/git/wpcqi-optiga-trust-charge/optiga/externals/mbedtls/library\x509_crt.c ****     if( len > (size_t) ( end - p ) )
 2309              	 .loc 2 868 0
 2310 007c 3B6C     	 ldr r3,[r7,#64]
 2311 007e 7A6B     	 ldr r2,[r7,#52]
 2312 0080 9B1A     	 subs r3,r3,r2
 2313 0082 1A46     	 mov r2,r3
 2314 0084 BB6B     	 ldr r3,[r7,#56]
 2315 0086 9A42     	 cmp r2,r3
 2316 0088 04D2     	 bcs .L168
 869:C:/Users/Yushev/git/wpcqi-optiga-trust-charge/optiga/externals/mbedtls/library\x509_crt.c ****     {
 870:C:/Users/Yushev/git/wpcqi-optiga-trust-charge/optiga/externals/mbedtls/library\x509_crt.c ****         mbedtls_x509_crt_free( crt );
 2317              	 .loc 2 870 0
 2318 008a F868     	 ldr r0,[r7,#12]
 2319 008c FFF7FEFF 	 bl mbedtls_x509_crt_free
 871:C:/Users/Yushev/git/wpcqi-optiga-trust-charge/optiga/externals/mbedtls/library\x509_crt.c ****         return( MBEDTLS_ERR_X509_INVALID_FORMAT +
 2320              	 .loc 2 871 0
 2321 0090 954B     	 ldr r3,.L194+8
 2322 0092 F7E1     	 b .L193
 2323              	.L168:
 872:C:/Users/Yushev/git/wpcqi-optiga-trust-charge/optiga/externals/mbedtls/library\x509_crt.c ****                 MBEDTLS_ERR_ASN1_LENGTH_MISMATCH );
 873:C:/Users/Yushev/git/wpcqi-optiga-trust-charge/optiga/externals/mbedtls/library\x509_crt.c ****     }
 874:C:/Users/Yushev/git/wpcqi-optiga-trust-charge/optiga/externals/mbedtls/library\x509_crt.c ****     crt_end = p + len;
 2324              	 .loc 2 874 0
 2325 0094 7A6B     	 ldr r2,[r7,#52]
 2326 0096 BB6B     	 ldr r3,[r7,#56]
 2327 0098 1344     	 add r3,r3,r2
 2328 009a FB63     	 str r3,[r7,#60]
 875:C:/Users/Yushev/git/wpcqi-optiga-trust-charge/optiga/externals/mbedtls/library\x509_crt.c **** 
 876:C:/Users/Yushev/git/wpcqi-optiga-trust-charge/optiga/externals/mbedtls/library\x509_crt.c ****     // Create and populate a new buffer for the raw field
 877:C:/Users/Yushev/git/wpcqi-optiga-trust-charge/optiga/externals/mbedtls/library\x509_crt.c ****     crt->raw.len = crt_end - buf;
 2329              	 .loc 2 877 0
 2330 009c FA6B     	 ldr r2,[r7,#60]
 2331 009e BB68     	 ldr r3,[r7,#8]
 2332 00a0 D31A     	 subs r3,r2,r3
 2333 00a2 1A46     	 mov r2,r3
 2334 00a4 FB68     	 ldr r3,[r7,#12]
 2335 00a6 5A60     	 str r2,[r3,#4]
 878:C:/Users/Yushev/git/wpcqi-optiga-trust-charge/optiga/externals/mbedtls/library\x509_crt.c ****     crt->raw.p = p = mbedtls_calloc( 1, crt->raw.len );
 2336              	 .loc 2 878 0
 2337 00a8 FB68     	 ldr r3,[r7,#12]
 2338 00aa 5B68     	 ldr r3,[r3,#4]
 2339 00ac 0120     	 movs r0,#1
 2340 00ae 1946     	 mov r1,r3
 2341 00b0 FFF7FEFF 	 bl calloc
 2342 00b4 0346     	 mov r3,r0
 2343 00b6 7B63     	 str r3,[r7,#52]
 2344 00b8 7A6B     	 ldr r2,[r7,#52]
 2345 00ba FB68     	 ldr r3,[r7,#12]
 2346 00bc 9A60     	 str r2,[r3,#8]
 879:C:/Users/Yushev/git/wpcqi-optiga-trust-charge/optiga/externals/mbedtls/library\x509_crt.c ****     if( p == NULL )
 2347              	 .loc 2 879 0
 2348 00be 7B6B     	 ldr r3,[r7,#52]
 2349 00c0 002B     	 cmp r3,#0
 2350 00c2 01D1     	 bne .L169
 880:C:/Users/Yushev/git/wpcqi-optiga-trust-charge/optiga/externals/mbedtls/library\x509_crt.c ****         return( MBEDTLS_ERR_X509_ALLOC_FAILED );
 2351              	 .loc 2 880 0
 2352 00c4 894B     	 ldr r3,.L194+12
 2353 00c6 DDE1     	 b .L193
 2354              	.L169:
 881:C:/Users/Yushev/git/wpcqi-optiga-trust-charge/optiga/externals/mbedtls/library\x509_crt.c **** 
 882:C:/Users/Yushev/git/wpcqi-optiga-trust-charge/optiga/externals/mbedtls/library\x509_crt.c ****     memcpy( p, buf, crt->raw.len );
 2355              	 .loc 2 882 0
 2356 00c8 7A6B     	 ldr r2,[r7,#52]
 2357 00ca FB68     	 ldr r3,[r7,#12]
 2358 00cc 5B68     	 ldr r3,[r3,#4]
 2359 00ce 1046     	 mov r0,r2
 2360 00d0 B968     	 ldr r1,[r7,#8]
 2361 00d2 1A46     	 mov r2,r3
 2362 00d4 FFF7FEFF 	 bl memcpy
 883:C:/Users/Yushev/git/wpcqi-optiga-trust-charge/optiga/externals/mbedtls/library\x509_crt.c **** 
 884:C:/Users/Yushev/git/wpcqi-optiga-trust-charge/optiga/externals/mbedtls/library\x509_crt.c ****     // Direct pointers to the new buffer
 885:C:/Users/Yushev/git/wpcqi-optiga-trust-charge/optiga/externals/mbedtls/library\x509_crt.c ****     p += crt->raw.len - len;
 2363              	 .loc 2 885 0
 2364 00d8 7A6B     	 ldr r2,[r7,#52]
 2365 00da FB68     	 ldr r3,[r7,#12]
 2366 00dc 5968     	 ldr r1,[r3,#4]
 2367 00de BB6B     	 ldr r3,[r7,#56]
 2368 00e0 CB1A     	 subs r3,r1,r3
 2369 00e2 1344     	 add r3,r3,r2
 2370 00e4 7B63     	 str r3,[r7,#52]
 886:C:/Users/Yushev/git/wpcqi-optiga-trust-charge/optiga/externals/mbedtls/library\x509_crt.c ****     end = crt_end = p + len;
 2371              	 .loc 2 886 0
 2372 00e6 7A6B     	 ldr r2,[r7,#52]
 2373 00e8 BB6B     	 ldr r3,[r7,#56]
 2374 00ea 1344     	 add r3,r3,r2
 2375 00ec FB63     	 str r3,[r7,#60]
 2376 00ee FB6B     	 ldr r3,[r7,#60]
 2377 00f0 3B64     	 str r3,[r7,#64]
 887:C:/Users/Yushev/git/wpcqi-optiga-trust-charge/optiga/externals/mbedtls/library\x509_crt.c **** 
 888:C:/Users/Yushev/git/wpcqi-optiga-trust-charge/optiga/externals/mbedtls/library\x509_crt.c ****     /*
 889:C:/Users/Yushev/git/wpcqi-optiga-trust-charge/optiga/externals/mbedtls/library\x509_crt.c ****      * TBSCertificate  ::=  SEQUENCE  {
 890:C:/Users/Yushev/git/wpcqi-optiga-trust-charge/optiga/externals/mbedtls/library\x509_crt.c ****      */
 891:C:/Users/Yushev/git/wpcqi-optiga-trust-charge/optiga/externals/mbedtls/library\x509_crt.c ****     crt->tbs.p = p;
 2378              	 .loc 2 891 0
 2379 00f2 7A6B     	 ldr r2,[r7,#52]
 2380 00f4 FB68     	 ldr r3,[r7,#12]
 2381 00f6 5A61     	 str r2,[r3,#20]
 892:C:/Users/Yushev/git/wpcqi-optiga-trust-charge/optiga/externals/mbedtls/library\x509_crt.c **** 
 893:C:/Users/Yushev/git/wpcqi-optiga-trust-charge/optiga/externals/mbedtls/library\x509_crt.c ****     if( ( ret = mbedtls_asn1_get_tag( &p, end, &len,
 2382              	 .loc 2 893 0
 2383 00f8 07F13402 	 add r2,r7,#52
 2384 00fc 07F13803 	 add r3,r7,#56
 2385 0100 1046     	 mov r0,r2
 2386 0102 396C     	 ldr r1,[r7,#64]
 2387 0104 1A46     	 mov r2,r3
 2388 0106 3023     	 movs r3,#48
 2389 0108 FFF7FEFF 	 bl mbedtls_asn1_get_tag
 2390 010c 7864     	 str r0,[r7,#68]
 2391 010e 7B6C     	 ldr r3,[r7,#68]
 2392 0110 002B     	 cmp r3,#0
 2393 0112 06D0     	 beq .L170
 894:C:/Users/Yushev/git/wpcqi-optiga-trust-charge/optiga/externals/mbedtls/library\x509_crt.c ****             MBEDTLS_ASN1_CONSTRUCTED | MBEDTLS_ASN1_SEQUENCE ) ) != 0 )
 895:C:/Users/Yushev/git/wpcqi-optiga-trust-charge/optiga/externals/mbedtls/library\x509_crt.c ****     {
 896:C:/Users/Yushev/git/wpcqi-optiga-trust-charge/optiga/externals/mbedtls/library\x509_crt.c ****         mbedtls_x509_crt_free( crt );
 2394              	 .loc 2 896 0
 2395 0114 F868     	 ldr r0,[r7,#12]
 2396 0116 FFF7FEFF 	 bl mbedtls_x509_crt_free
 897:C:/Users/Yushev/git/wpcqi-optiga-trust-charge/optiga/externals/mbedtls/library\x509_crt.c ****         return( MBEDTLS_ERR_X509_INVALID_FORMAT + ret );
 2397              	 .loc 2 897 0
 2398 011a 7B6C     	 ldr r3,[r7,#68]
 2399 011c A3F50653 	 sub r3,r3,#8576
 2400 0120 B0E1     	 b .L193
 2401              	.L170:
 898:C:/Users/Yushev/git/wpcqi-optiga-trust-charge/optiga/externals/mbedtls/library\x509_crt.c ****     }
 899:C:/Users/Yushev/git/wpcqi-optiga-trust-charge/optiga/externals/mbedtls/library\x509_crt.c **** 
 900:C:/Users/Yushev/git/wpcqi-optiga-trust-charge/optiga/externals/mbedtls/library\x509_crt.c ****     end = p + len;
 2402              	 .loc 2 900 0
 2403 0122 7A6B     	 ldr r2,[r7,#52]
 2404 0124 BB6B     	 ldr r3,[r7,#56]
 2405 0126 1344     	 add r3,r3,r2
 2406 0128 3B64     	 str r3,[r7,#64]
 901:C:/Users/Yushev/git/wpcqi-optiga-trust-charge/optiga/externals/mbedtls/library\x509_crt.c ****     crt->tbs.len = end - crt->tbs.p;
 2407              	 .loc 2 901 0
 2408 012a 3B6C     	 ldr r3,[r7,#64]
 2409 012c FA68     	 ldr r2,[r7,#12]
 2410 012e 5269     	 ldr r2,[r2,#20]
 2411 0130 9B1A     	 subs r3,r3,r2
 2412 0132 1A46     	 mov r2,r3
 2413 0134 FB68     	 ldr r3,[r7,#12]
 2414 0136 1A61     	 str r2,[r3,#16]
 902:C:/Users/Yushev/git/wpcqi-optiga-trust-charge/optiga/externals/mbedtls/library\x509_crt.c **** 
 903:C:/Users/Yushev/git/wpcqi-optiga-trust-charge/optiga/externals/mbedtls/library\x509_crt.c ****     /*
 904:C:/Users/Yushev/git/wpcqi-optiga-trust-charge/optiga/externals/mbedtls/library\x509_crt.c ****      * Version  ::=  INTEGER  {  v1(0), v2(1), v3(2)  }
 905:C:/Users/Yushev/git/wpcqi-optiga-trust-charge/optiga/externals/mbedtls/library\x509_crt.c ****      *
 906:C:/Users/Yushev/git/wpcqi-optiga-trust-charge/optiga/externals/mbedtls/library\x509_crt.c ****      * CertificateSerialNumber  ::=  INTEGER
 907:C:/Users/Yushev/git/wpcqi-optiga-trust-charge/optiga/externals/mbedtls/library\x509_crt.c ****      *
 908:C:/Users/Yushev/git/wpcqi-optiga-trust-charge/optiga/externals/mbedtls/library\x509_crt.c ****      * signature            AlgorithmIdentifier
 909:C:/Users/Yushev/git/wpcqi-optiga-trust-charge/optiga/externals/mbedtls/library\x509_crt.c ****      */
 910:C:/Users/Yushev/git/wpcqi-optiga-trust-charge/optiga/externals/mbedtls/library\x509_crt.c ****     if( ( ret = x509_get_version(  &p, end, &crt->version  ) ) != 0 ||
 2415              	 .loc 2 910 0
 2416 0138 FB68     	 ldr r3,[r7,#12]
 2417 013a 1833     	 adds r3,r3,#24
 2418 013c 07F13402 	 add r2,r7,#52
 2419 0140 1046     	 mov r0,r2
 2420 0142 396C     	 ldr r1,[r7,#64]
 2421 0144 1A46     	 mov r2,r3
 2422 0146 FFF7FEFF 	 bl x509_get_version
 2423 014a 7864     	 str r0,[r7,#68]
 2424 014c 7B6C     	 ldr r3,[r7,#68]
 2425 014e 002B     	 cmp r3,#0
 2426 0150 1BD1     	 bne .L171
 911:C:/Users/Yushev/git/wpcqi-optiga-trust-charge/optiga/externals/mbedtls/library\x509_crt.c ****         ( ret = mbedtls_x509_get_serial(   &p, end, &crt->serial   ) ) != 0 ||
 2427              	 .loc 2 911 0 discriminator 1
 2428 0152 FB68     	 ldr r3,[r7,#12]
 2429 0154 1C33     	 adds r3,r3,#28
 910:C:/Users/Yushev/git/wpcqi-optiga-trust-charge/optiga/externals/mbedtls/library\x509_crt.c ****         ( ret = mbedtls_x509_get_serial(   &p, end, &crt->serial   ) ) != 0 ||
 2430              	 .loc 2 910 0 discriminator 1
 2431 0156 07F13402 	 add r2,r7,#52
 2432 015a 1046     	 mov r0,r2
 2433 015c 396C     	 ldr r1,[r7,#64]
 2434 015e 1A46     	 mov r2,r3
 2435 0160 FFF7FEFF 	 bl mbedtls_x509_get_serial
 2436 0164 7864     	 str r0,[r7,#68]
 2437 0166 7B6C     	 ldr r3,[r7,#68]
 2438 0168 002B     	 cmp r3,#0
 2439 016a 0ED1     	 bne .L171
 912:C:/Users/Yushev/git/wpcqi-optiga-trust-charge/optiga/externals/mbedtls/library\x509_crt.c ****         ( ret = mbedtls_x509_get_alg(      &p, end, &crt->sig_oid,
 2440              	 .loc 2 912 0
 2441 016c FB68     	 ldr r3,[r7,#12]
 2442 016e 03F12802 	 add r2,r3,#40
 911:C:/Users/Yushev/git/wpcqi-optiga-trust-charge/optiga/externals/mbedtls/library\x509_crt.c ****         ( ret = mbedtls_x509_get_serial(   &p, end, &crt->serial   ) ) != 0 ||
 2443              	 .loc 2 911 0
 2444 0172 07F13401 	 add r1,r7,#52
 2445 0176 07F12803 	 add r3,r7,#40
 2446 017a 0846     	 mov r0,r1
 2447 017c 396C     	 ldr r1,[r7,#64]
 2448 017e FFF7FEFF 	 bl mbedtls_x509_get_alg
 2449 0182 7864     	 str r0,[r7,#68]
 2450 0184 7B6C     	 ldr r3,[r7,#68]
 2451 0186 002B     	 cmp r3,#0
 2452 0188 04D0     	 beq .L172
 2453              	.L171:
 913:C:/Users/Yushev/git/wpcqi-optiga-trust-charge/optiga/externals/mbedtls/library\x509_crt.c ****                                             &sig_params1 ) ) != 0 )
 914:C:/Users/Yushev/git/wpcqi-optiga-trust-charge/optiga/externals/mbedtls/library\x509_crt.c ****     {
 915:C:/Users/Yushev/git/wpcqi-optiga-trust-charge/optiga/externals/mbedtls/library\x509_crt.c ****         mbedtls_x509_crt_free( crt );
 2454              	 .loc 2 915 0
 2455 018a F868     	 ldr r0,[r7,#12]
 2456 018c FFF7FEFF 	 bl mbedtls_x509_crt_free
 916:C:/Users/Yushev/git/wpcqi-optiga-trust-charge/optiga/externals/mbedtls/library\x509_crt.c ****         return( ret );
 2457              	 .loc 2 916 0
 2458 0190 7B6C     	 ldr r3,[r7,#68]
 2459 0192 77E1     	 b .L193
 2460              	.L172:
 917:C:/Users/Yushev/git/wpcqi-optiga-trust-charge/optiga/externals/mbedtls/library\x509_crt.c ****     }
 918:C:/Users/Yushev/git/wpcqi-optiga-trust-charge/optiga/externals/mbedtls/library\x509_crt.c **** 
 919:C:/Users/Yushev/git/wpcqi-optiga-trust-charge/optiga/externals/mbedtls/library\x509_crt.c ****     if( crt->version < 0 || crt->version > 2 )
 2461              	 .loc 2 919 0
 2462 0194 FB68     	 ldr r3,[r7,#12]
 2463 0196 9B69     	 ldr r3,[r3,#24]
 2464 0198 002B     	 cmp r3,#0
 2465 019a 03DB     	 blt .L173
 2466              	 .loc 2 919 0 is_stmt 0 discriminator 1
 2467 019c FB68     	 ldr r3,[r7,#12]
 2468 019e 9B69     	 ldr r3,[r3,#24]
 2469 01a0 022B     	 cmp r3,#2
 2470 01a2 04DD     	 ble .L174
 2471              	.L173:
 920:C:/Users/Yushev/git/wpcqi-optiga-trust-charge/optiga/externals/mbedtls/library\x509_crt.c ****     {
 921:C:/Users/Yushev/git/wpcqi-optiga-trust-charge/optiga/externals/mbedtls/library\x509_crt.c ****         mbedtls_x509_crt_free( crt );
 2472              	 .loc 2 921 0 is_stmt 1
 2473 01a4 F868     	 ldr r0,[r7,#12]
 2474 01a6 FFF7FEFF 	 bl mbedtls_x509_crt_free
 922:C:/Users/Yushev/git/wpcqi-optiga-trust-charge/optiga/externals/mbedtls/library\x509_crt.c ****         return( MBEDTLS_ERR_X509_UNKNOWN_VERSION );
 2475              	 .loc 2 922 0
 2476 01aa 514B     	 ldr r3,.L194+16
 2477 01ac 6AE1     	 b .L193
 2478              	.L174:
 923:C:/Users/Yushev/git/wpcqi-optiga-trust-charge/optiga/externals/mbedtls/library\x509_crt.c ****     }
 924:C:/Users/Yushev/git/wpcqi-optiga-trust-charge/optiga/externals/mbedtls/library\x509_crt.c **** 
 925:C:/Users/Yushev/git/wpcqi-optiga-trust-charge/optiga/externals/mbedtls/library\x509_crt.c ****     crt->version++;
 2479              	 .loc 2 925 0
 2480 01ae FB68     	 ldr r3,[r7,#12]
 2481 01b0 9B69     	 ldr r3,[r3,#24]
 2482 01b2 5A1C     	 adds r2,r3,#1
 2483 01b4 FB68     	 ldr r3,[r7,#12]
 2484 01b6 9A61     	 str r2,[r3,#24]
 926:C:/Users/Yushev/git/wpcqi-optiga-trust-charge/optiga/externals/mbedtls/library\x509_crt.c **** 
 927:C:/Users/Yushev/git/wpcqi-optiga-trust-charge/optiga/externals/mbedtls/library\x509_crt.c ****     if( ( ret = mbedtls_x509_get_sig_alg( &crt->sig_oid, &sig_params1,
 2485              	 .loc 2 927 0
 2486 01b8 FB68     	 ldr r3,[r7,#12]
 2487 01ba 03F12800 	 add r0,r3,#40
 2488 01be FB68     	 ldr r3,[r7,#12]
 2489 01c0 03F59472 	 add r2,r3,#296
 2490 01c4 FB68     	 ldr r3,[r7,#12]
 2491 01c6 03F22914 	 addw r4,r3,#297
 2492 01ca FB68     	 ldr r3,[r7,#12]
 2493 01cc 03F59673 	 add r3,r3,#300
 2494 01d0 07F12801 	 add r1,r7,#40
 2495 01d4 0093     	 str r3,[sp]
 2496 01d6 2346     	 mov r3,r4
 2497 01d8 FFF7FEFF 	 bl mbedtls_x509_get_sig_alg
 2498 01dc 7864     	 str r0,[r7,#68]
 2499 01de 7B6C     	 ldr r3,[r7,#68]
 2500 01e0 002B     	 cmp r3,#0
 2501 01e2 04D0     	 beq .L175
 928:C:/Users/Yushev/git/wpcqi-optiga-trust-charge/optiga/externals/mbedtls/library\x509_crt.c ****                                   &crt->sig_md, &crt->sig_pk,
 929:C:/Users/Yushev/git/wpcqi-optiga-trust-charge/optiga/externals/mbedtls/library\x509_crt.c ****                                   &crt->sig_opts ) ) != 0 )
 930:C:/Users/Yushev/git/wpcqi-optiga-trust-charge/optiga/externals/mbedtls/library\x509_crt.c ****     {
 931:C:/Users/Yushev/git/wpcqi-optiga-trust-charge/optiga/externals/mbedtls/library\x509_crt.c ****         mbedtls_x509_crt_free( crt );
 2502              	 .loc 2 931 0
 2503 01e4 F868     	 ldr r0,[r7,#12]
 2504 01e6 FFF7FEFF 	 bl mbedtls_x509_crt_free
 932:C:/Users/Yushev/git/wpcqi-optiga-trust-charge/optiga/externals/mbedtls/library\x509_crt.c ****         return( ret );
 2505              	 .loc 2 932 0
 2506 01ea 7B6C     	 ldr r3,[r7,#68]
 2507 01ec 4AE1     	 b .L193
 2508              	.L175:
 933:C:/Users/Yushev/git/wpcqi-optiga-trust-charge/optiga/externals/mbedtls/library\x509_crt.c ****     }
 934:C:/Users/Yushev/git/wpcqi-optiga-trust-charge/optiga/externals/mbedtls/library\x509_crt.c **** 
 935:C:/Users/Yushev/git/wpcqi-optiga-trust-charge/optiga/externals/mbedtls/library\x509_crt.c ****     /*
 936:C:/Users/Yushev/git/wpcqi-optiga-trust-charge/optiga/externals/mbedtls/library\x509_crt.c ****      * issuer               Name
 937:C:/Users/Yushev/git/wpcqi-optiga-trust-charge/optiga/externals/mbedtls/library\x509_crt.c ****      */
 938:C:/Users/Yushev/git/wpcqi-optiga-trust-charge/optiga/externals/mbedtls/library\x509_crt.c ****     crt->issuer_raw.p = p;
 2509              	 .loc 2 938 0
 2510 01ee 7A6B     	 ldr r2,[r7,#52]
 2511 01f0 FB68     	 ldr r3,[r7,#12]
 2512 01f2 DA63     	 str r2,[r3,#60]
 939:C:/Users/Yushev/git/wpcqi-optiga-trust-charge/optiga/externals/mbedtls/library\x509_crt.c **** 
 940:C:/Users/Yushev/git/wpcqi-optiga-trust-charge/optiga/externals/mbedtls/library\x509_crt.c ****     if( ( ret = mbedtls_asn1_get_tag( &p, end, &len,
 2513              	 .loc 2 940 0
 2514 01f4 07F13402 	 add r2,r7,#52
 2515 01f8 07F13803 	 add r3,r7,#56
 2516 01fc 1046     	 mov r0,r2
 2517 01fe 396C     	 ldr r1,[r7,#64]
 2518 0200 1A46     	 mov r2,r3
 2519 0202 3023     	 movs r3,#48
 2520 0204 FFF7FEFF 	 bl mbedtls_asn1_get_tag
 2521 0208 7864     	 str r0,[r7,#68]
 2522 020a 7B6C     	 ldr r3,[r7,#68]
 2523 020c 002B     	 cmp r3,#0
 2524 020e 06D0     	 beq .L176
 941:C:/Users/Yushev/git/wpcqi-optiga-trust-charge/optiga/externals/mbedtls/library\x509_crt.c ****             MBEDTLS_ASN1_CONSTRUCTED | MBEDTLS_ASN1_SEQUENCE ) ) != 0 )
 942:C:/Users/Yushev/git/wpcqi-optiga-trust-charge/optiga/externals/mbedtls/library\x509_crt.c ****     {
 943:C:/Users/Yushev/git/wpcqi-optiga-trust-charge/optiga/externals/mbedtls/library\x509_crt.c ****         mbedtls_x509_crt_free( crt );
 2525              	 .loc 2 943 0
 2526 0210 F868     	 ldr r0,[r7,#12]
 2527 0212 FFF7FEFF 	 bl mbedtls_x509_crt_free
 944:C:/Users/Yushev/git/wpcqi-optiga-trust-charge/optiga/externals/mbedtls/library\x509_crt.c ****         return( MBEDTLS_ERR_X509_INVALID_FORMAT + ret );
 2528              	 .loc 2 944 0
 2529 0216 7B6C     	 ldr r3,[r7,#68]
 2530 0218 A3F50653 	 sub r3,r3,#8576
 2531 021c 32E1     	 b .L193
 2532              	.L176:
 945:C:/Users/Yushev/git/wpcqi-optiga-trust-charge/optiga/externals/mbedtls/library\x509_crt.c ****     }
 946:C:/Users/Yushev/git/wpcqi-optiga-trust-charge/optiga/externals/mbedtls/library\x509_crt.c **** 
 947:C:/Users/Yushev/git/wpcqi-optiga-trust-charge/optiga/externals/mbedtls/library\x509_crt.c ****     if( ( ret = mbedtls_x509_get_name( &p, p + len, &crt->issuer ) ) != 0 )
 2533              	 .loc 2 947 0
 2534 021e 7A6B     	 ldr r2,[r7,#52]
 2535 0220 BB6B     	 ldr r3,[r7,#56]
 2536 0222 1A44     	 add r2,r2,r3
 2537 0224 FB68     	 ldr r3,[r7,#12]
 2538 0226 4C33     	 adds r3,r3,#76
 2539 0228 07F13401 	 add r1,r7,#52
 2540 022c 0846     	 mov r0,r1
 2541 022e 1146     	 mov r1,r2
 2542 0230 1A46     	 mov r2,r3
 2543 0232 FFF7FEFF 	 bl mbedtls_x509_get_name
 2544 0236 7864     	 str r0,[r7,#68]
 2545 0238 7B6C     	 ldr r3,[r7,#68]
 2546 023a 002B     	 cmp r3,#0
 2547 023c 04D0     	 beq .L177
 948:C:/Users/Yushev/git/wpcqi-optiga-trust-charge/optiga/externals/mbedtls/library\x509_crt.c ****     {
 949:C:/Users/Yushev/git/wpcqi-optiga-trust-charge/optiga/externals/mbedtls/library\x509_crt.c ****         mbedtls_x509_crt_free( crt );
 2548              	 .loc 2 949 0
 2549 023e F868     	 ldr r0,[r7,#12]
 2550 0240 FFF7FEFF 	 bl mbedtls_x509_crt_free
 950:C:/Users/Yushev/git/wpcqi-optiga-trust-charge/optiga/externals/mbedtls/library\x509_crt.c ****         return( ret );
 2551              	 .loc 2 950 0
 2552 0244 7B6C     	 ldr r3,[r7,#68]
 2553 0246 1DE1     	 b .L193
 2554              	.L177:
 951:C:/Users/Yushev/git/wpcqi-optiga-trust-charge/optiga/externals/mbedtls/library\x509_crt.c ****     }
 952:C:/Users/Yushev/git/wpcqi-optiga-trust-charge/optiga/externals/mbedtls/library\x509_crt.c **** 
 953:C:/Users/Yushev/git/wpcqi-optiga-trust-charge/optiga/externals/mbedtls/library\x509_crt.c ****     crt->issuer_raw.len = p - crt->issuer_raw.p;
 2555              	 .loc 2 953 0
 2556 0248 7B6B     	 ldr r3,[r7,#52]
 2557 024a 1A46     	 mov r2,r3
 2558 024c FB68     	 ldr r3,[r7,#12]
 2559 024e DB6B     	 ldr r3,[r3,#60]
 2560 0250 D31A     	 subs r3,r2,r3
 2561 0252 1A46     	 mov r2,r3
 2562 0254 FB68     	 ldr r3,[r7,#12]
 2563 0256 9A63     	 str r2,[r3,#56]
 954:C:/Users/Yushev/git/wpcqi-optiga-trust-charge/optiga/externals/mbedtls/library\x509_crt.c **** 
 955:C:/Users/Yushev/git/wpcqi-optiga-trust-charge/optiga/externals/mbedtls/library\x509_crt.c ****     /*
 956:C:/Users/Yushev/git/wpcqi-optiga-trust-charge/optiga/externals/mbedtls/library\x509_crt.c ****      * Validity ::= SEQUENCE {
 957:C:/Users/Yushev/git/wpcqi-optiga-trust-charge/optiga/externals/mbedtls/library\x509_crt.c ****      *      notBefore      Time,
 958:C:/Users/Yushev/git/wpcqi-optiga-trust-charge/optiga/externals/mbedtls/library\x509_crt.c ****      *      notAfter       Time }
 959:C:/Users/Yushev/git/wpcqi-optiga-trust-charge/optiga/externals/mbedtls/library\x509_crt.c ****      *
 960:C:/Users/Yushev/git/wpcqi-optiga-trust-charge/optiga/externals/mbedtls/library\x509_crt.c ****      */
 961:C:/Users/Yushev/git/wpcqi-optiga-trust-charge/optiga/externals/mbedtls/library\x509_crt.c ****     if( ( ret = x509_get_dates( &p, end, &crt->valid_from,
 2564              	 .loc 2 961 0
 2565 0258 FB68     	 ldr r3,[r7,#12]
 2566 025a 03F18C02 	 add r2,r3,#140
 2567 025e FB68     	 ldr r3,[r7,#12]
 2568 0260 A433     	 adds r3,r3,#164
 2569 0262 07F13401 	 add r1,r7,#52
 2570 0266 0846     	 mov r0,r1
 2571 0268 396C     	 ldr r1,[r7,#64]
 2572 026a FFF7FEFF 	 bl x509_get_dates
 2573 026e 7864     	 str r0,[r7,#68]
 2574 0270 7B6C     	 ldr r3,[r7,#68]
 2575 0272 002B     	 cmp r3,#0
 2576 0274 04D0     	 beq .L178
 962:C:/Users/Yushev/git/wpcqi-optiga-trust-charge/optiga/externals/mbedtls/library\x509_crt.c ****                                          &crt->valid_to ) ) != 0 )
 963:C:/Users/Yushev/git/wpcqi-optiga-trust-charge/optiga/externals/mbedtls/library\x509_crt.c ****     {
 964:C:/Users/Yushev/git/wpcqi-optiga-trust-charge/optiga/externals/mbedtls/library\x509_crt.c ****         mbedtls_x509_crt_free( crt );
 2577              	 .loc 2 964 0
 2578 0276 F868     	 ldr r0,[r7,#12]
 2579 0278 FFF7FEFF 	 bl mbedtls_x509_crt_free
 965:C:/Users/Yushev/git/wpcqi-optiga-trust-charge/optiga/externals/mbedtls/library\x509_crt.c ****         return( ret );
 2580              	 .loc 2 965 0
 2581 027c 7B6C     	 ldr r3,[r7,#68]
 2582 027e 01E1     	 b .L193
 2583              	.L178:
 966:C:/Users/Yushev/git/wpcqi-optiga-trust-charge/optiga/externals/mbedtls/library\x509_crt.c ****     }
 967:C:/Users/Yushev/git/wpcqi-optiga-trust-charge/optiga/externals/mbedtls/library\x509_crt.c **** 
 968:C:/Users/Yushev/git/wpcqi-optiga-trust-charge/optiga/externals/mbedtls/library\x509_crt.c ****     /*
 969:C:/Users/Yushev/git/wpcqi-optiga-trust-charge/optiga/externals/mbedtls/library\x509_crt.c ****      * subject              Name
 970:C:/Users/Yushev/git/wpcqi-optiga-trust-charge/optiga/externals/mbedtls/library\x509_crt.c ****      */
 971:C:/Users/Yushev/git/wpcqi-optiga-trust-charge/optiga/externals/mbedtls/library\x509_crt.c ****     crt->subject_raw.p = p;
 2584              	 .loc 2 971 0
 2585 0280 7A6B     	 ldr r2,[r7,#52]
 2586 0282 FB68     	 ldr r3,[r7,#12]
 2587 0284 9A64     	 str r2,[r3,#72]
 972:C:/Users/Yushev/git/wpcqi-optiga-trust-charge/optiga/externals/mbedtls/library\x509_crt.c **** 
 973:C:/Users/Yushev/git/wpcqi-optiga-trust-charge/optiga/externals/mbedtls/library\x509_crt.c ****     if( ( ret = mbedtls_asn1_get_tag( &p, end, &len,
 2588              	 .loc 2 973 0
 2589 0286 07F13402 	 add r2,r7,#52
 2590 028a 07F13803 	 add r3,r7,#56
 2591 028e 1046     	 mov r0,r2
 2592 0290 396C     	 ldr r1,[r7,#64]
 2593 0292 1A46     	 mov r2,r3
 2594 0294 3023     	 movs r3,#48
 2595 0296 FFF7FEFF 	 bl mbedtls_asn1_get_tag
 2596 029a 7864     	 str r0,[r7,#68]
 2597 029c 7B6C     	 ldr r3,[r7,#68]
 2598 029e 002B     	 cmp r3,#0
 2599 02a0 06D0     	 beq .L179
 974:C:/Users/Yushev/git/wpcqi-optiga-trust-charge/optiga/externals/mbedtls/library\x509_crt.c ****             MBEDTLS_ASN1_CONSTRUCTED | MBEDTLS_ASN1_SEQUENCE ) ) != 0 )
 975:C:/Users/Yushev/git/wpcqi-optiga-trust-charge/optiga/externals/mbedtls/library\x509_crt.c ****     {
 976:C:/Users/Yushev/git/wpcqi-optiga-trust-charge/optiga/externals/mbedtls/library\x509_crt.c ****         mbedtls_x509_crt_free( crt );
 2600              	 .loc 2 976 0
 2601 02a2 F868     	 ldr r0,[r7,#12]
 2602 02a4 FFF7FEFF 	 bl mbedtls_x509_crt_free
 977:C:/Users/Yushev/git/wpcqi-optiga-trust-charge/optiga/externals/mbedtls/library\x509_crt.c ****         return( MBEDTLS_ERR_X509_INVALID_FORMAT + ret );
 2603              	 .loc 2 977 0
 2604 02a8 7B6C     	 ldr r3,[r7,#68]
 2605 02aa A3F50653 	 sub r3,r3,#8576
 2606 02ae E9E0     	 b .L193
 2607              	.L179:
 978:C:/Users/Yushev/git/wpcqi-optiga-trust-charge/optiga/externals/mbedtls/library\x509_crt.c ****     }
 979:C:/Users/Yushev/git/wpcqi-optiga-trust-charge/optiga/externals/mbedtls/library\x509_crt.c **** 
 980:C:/Users/Yushev/git/wpcqi-optiga-trust-charge/optiga/externals/mbedtls/library\x509_crt.c ****     if( len && ( ret = mbedtls_x509_get_name( &p, p + len, &crt->subject ) ) != 0 )
 2608              	 .loc 2 980 0
 2609 02b0 BB6B     	 ldr r3,[r7,#56]
 2610 02b2 002B     	 cmp r3,#0
 2611 02b4 1ED0     	 beq .L180
 2612              	 .loc 2 980 0 is_stmt 0 discriminator 1
 2613 02b6 7A6B     	 ldr r2,[r7,#52]
 2614 02b8 BB6B     	 ldr r3,[r7,#56]
 2615 02ba 1A44     	 add r2,r2,r3
 2616 02bc FB68     	 ldr r3,[r7,#12]
 2617 02be 6C33     	 adds r3,r3,#108
 2618 02c0 07F13401 	 add r1,r7,#52
 2619 02c4 0846     	 mov r0,r1
 2620 02c6 1146     	 mov r1,r2
 2621 02c8 1A46     	 mov r2,r3
 2622 02ca FFF7FEFF 	 bl mbedtls_x509_get_name
 2623 02ce 7864     	 str r0,[r7,#68]
 2624 02d0 7B6C     	 ldr r3,[r7,#68]
 2625 02d2 002B     	 cmp r3,#0
 2626 02d4 0ED0     	 beq .L180
 981:C:/Users/Yushev/git/wpcqi-optiga-trust-charge/optiga/externals/mbedtls/library\x509_crt.c ****     {
 982:C:/Users/Yushev/git/wpcqi-optiga-trust-charge/optiga/externals/mbedtls/library\x509_crt.c ****         mbedtls_x509_crt_free( crt );
 2627              	 .loc 2 982 0 is_stmt 1
 2628 02d6 F868     	 ldr r0,[r7,#12]
 2629 02d8 FFF7FEFF 	 bl mbedtls_x509_crt_free
 983:C:/Users/Yushev/git/wpcqi-optiga-trust-charge/optiga/externals/mbedtls/library\x509_crt.c ****         return( ret );
 2630              	 .loc 2 983 0
 2631 02dc 7B6C     	 ldr r3,[r7,#68]
 2632 02de D1E0     	 b .L193
 2633              	.L195:
 2634              	 .align 2
 2635              	.L194:
 2636 02e0 00D8FFFF 	 .word -10240
 2637 02e4 80DEFFFF 	 .word -8576
 2638 02e8 1ADEFFFF 	 .word -8678
 2639 02ec 80D7FFFF 	 .word -10368
 2640 02f0 80DAFFFF 	 .word -9600
 2641              	.L180:
 984:C:/Users/Yushev/git/wpcqi-optiga-trust-charge/optiga/externals/mbedtls/library\x509_crt.c ****     }
 985:C:/Users/Yushev/git/wpcqi-optiga-trust-charge/optiga/externals/mbedtls/library\x509_crt.c **** 
 986:C:/Users/Yushev/git/wpcqi-optiga-trust-charge/optiga/externals/mbedtls/library\x509_crt.c ****     crt->subject_raw.len = p - crt->subject_raw.p;
 2642              	 .loc 2 986 0
 2643 02f4 7B6B     	 ldr r3,[r7,#52]
 2644 02f6 1A46     	 mov r2,r3
 2645 02f8 FB68     	 ldr r3,[r7,#12]
 2646 02fa 9B6C     	 ldr r3,[r3,#72]
 2647 02fc D31A     	 subs r3,r2,r3
 2648 02fe 1A46     	 mov r2,r3
 2649 0300 FB68     	 ldr r3,[r7,#12]
 2650 0302 5A64     	 str r2,[r3,#68]
 987:C:/Users/Yushev/git/wpcqi-optiga-trust-charge/optiga/externals/mbedtls/library\x509_crt.c **** 
 988:C:/Users/Yushev/git/wpcqi-optiga-trust-charge/optiga/externals/mbedtls/library\x509_crt.c ****     /*
 989:C:/Users/Yushev/git/wpcqi-optiga-trust-charge/optiga/externals/mbedtls/library\x509_crt.c ****      * SubjectPublicKeyInfo
 990:C:/Users/Yushev/git/wpcqi-optiga-trust-charge/optiga/externals/mbedtls/library\x509_crt.c ****      */
 991:C:/Users/Yushev/git/wpcqi-optiga-trust-charge/optiga/externals/mbedtls/library\x509_crt.c ****     if( ( ret = mbedtls_pk_parse_subpubkey( &p, end, &crt->pk ) ) != 0 )
 2651              	 .loc 2 991 0
 2652 0304 FB68     	 ldr r3,[r7,#12]
 2653 0306 BC33     	 adds r3,r3,#188
 2654 0308 07F13402 	 add r2,r7,#52
 2655 030c 1046     	 mov r0,r2
 2656 030e 396C     	 ldr r1,[r7,#64]
 2657 0310 1A46     	 mov r2,r3
 2658 0312 FFF7FEFF 	 bl mbedtls_pk_parse_subpubkey
 2659 0316 7864     	 str r0,[r7,#68]
 2660 0318 7B6C     	 ldr r3,[r7,#68]
 2661 031a 002B     	 cmp r3,#0
 2662 031c 04D0     	 beq .L181
 992:C:/Users/Yushev/git/wpcqi-optiga-trust-charge/optiga/externals/mbedtls/library\x509_crt.c ****     {
 993:C:/Users/Yushev/git/wpcqi-optiga-trust-charge/optiga/externals/mbedtls/library\x509_crt.c ****         mbedtls_x509_crt_free( crt );
 2663              	 .loc 2 993 0
 2664 031e F868     	 ldr r0,[r7,#12]
 2665 0320 FFF7FEFF 	 bl mbedtls_x509_crt_free
 994:C:/Users/Yushev/git/wpcqi-optiga-trust-charge/optiga/externals/mbedtls/library\x509_crt.c ****         return( ret );
 2666              	 .loc 2 994 0
 2667 0324 7B6C     	 ldr r3,[r7,#68]
 2668 0326 ADE0     	 b .L193
 2669              	.L181:
 995:C:/Users/Yushev/git/wpcqi-optiga-trust-charge/optiga/externals/mbedtls/library\x509_crt.c ****     }
 996:C:/Users/Yushev/git/wpcqi-optiga-trust-charge/optiga/externals/mbedtls/library\x509_crt.c **** 
 997:C:/Users/Yushev/git/wpcqi-optiga-trust-charge/optiga/externals/mbedtls/library\x509_crt.c ****     /*
 998:C:/Users/Yushev/git/wpcqi-optiga-trust-charge/optiga/externals/mbedtls/library\x509_crt.c ****      *  issuerUniqueID  [1]  IMPLICIT UniqueIdentifier OPTIONAL,
 999:C:/Users/Yushev/git/wpcqi-optiga-trust-charge/optiga/externals/mbedtls/library\x509_crt.c ****      *                       -- If present, version shall be v2 or v3
1000:C:/Users/Yushev/git/wpcqi-optiga-trust-charge/optiga/externals/mbedtls/library\x509_crt.c ****      *  subjectUniqueID [2]  IMPLICIT UniqueIdentifier OPTIONAL,
1001:C:/Users/Yushev/git/wpcqi-optiga-trust-charge/optiga/externals/mbedtls/library\x509_crt.c ****      *                       -- If present, version shall be v2 or v3
1002:C:/Users/Yushev/git/wpcqi-optiga-trust-charge/optiga/externals/mbedtls/library\x509_crt.c ****      *  extensions      [3]  EXPLICIT Extensions OPTIONAL
1003:C:/Users/Yushev/git/wpcqi-optiga-trust-charge/optiga/externals/mbedtls/library\x509_crt.c ****      *                       -- If present, version shall be v3
1004:C:/Users/Yushev/git/wpcqi-optiga-trust-charge/optiga/externals/mbedtls/library\x509_crt.c ****      */
