   1              	 .syntax unified
   2              	 .cpu cortex-m4
   3              	 .eabi_attribute 27,3
   4              	 .fpu fpv4-sp-d16
   5              	 .eabi_attribute 20,1
   6              	 .eabi_attribute 21,1
   7              	 .eabi_attribute 23,3
   8              	 .eabi_attribute 24,1
   9              	 .eabi_attribute 25,1
  10              	 .eabi_attribute 26,1
  11              	 .eabi_attribute 30,6
  12              	 .eabi_attribute 34,1
  13              	 .eabi_attribute 18,4
  14              	 .thumb
  15              	 .file "x509_crt.c"
  16              	 .text
  17              	.Ltext0:
  18              	 .cfi_sections .debug_frame
  19              	 .section .text.mbedtls_pk_ec,"ax",%progbits
  20              	 .align 2
  21              	 .thumb
  22              	 .thumb_func
  24              	mbedtls_pk_ec:
  25              	.LFB0:
  26              	 .file 1 "C:/Users/Yushev/git/wpcqi-optiga-trust-charge/optiga/externals/mbedtls/include/mbedtls/pk.h"
   1:C:/Users/Yushev/git/wpcqi-optiga-trust-charge/optiga/externals/mbedtls/include/mbedtls\pk.h **** /**
   2:C:/Users/Yushev/git/wpcqi-optiga-trust-charge/optiga/externals/mbedtls/include/mbedtls\pk.h ****  * \file pk.h
   3:C:/Users/Yushev/git/wpcqi-optiga-trust-charge/optiga/externals/mbedtls/include/mbedtls\pk.h ****  *
   4:C:/Users/Yushev/git/wpcqi-optiga-trust-charge/optiga/externals/mbedtls/include/mbedtls\pk.h ****  * \brief Public Key abstraction layer
   5:C:/Users/Yushev/git/wpcqi-optiga-trust-charge/optiga/externals/mbedtls/include/mbedtls\pk.h ****  */
   6:C:/Users/Yushev/git/wpcqi-optiga-trust-charge/optiga/externals/mbedtls/include/mbedtls\pk.h **** /*
   7:C:/Users/Yushev/git/wpcqi-optiga-trust-charge/optiga/externals/mbedtls/include/mbedtls\pk.h ****  *  Copyright (C) 2006-2015, ARM Limited, All Rights Reserved
   8:C:/Users/Yushev/git/wpcqi-optiga-trust-charge/optiga/externals/mbedtls/include/mbedtls\pk.h ****  *  SPDX-License-Identifier: Apache-2.0
   9:C:/Users/Yushev/git/wpcqi-optiga-trust-charge/optiga/externals/mbedtls/include/mbedtls\pk.h ****  *
  10:C:/Users/Yushev/git/wpcqi-optiga-trust-charge/optiga/externals/mbedtls/include/mbedtls\pk.h ****  *  Licensed under the Apache License, Version 2.0 (the "License"); you may
  11:C:/Users/Yushev/git/wpcqi-optiga-trust-charge/optiga/externals/mbedtls/include/mbedtls\pk.h ****  *  not use this file except in compliance with the License.
  12:C:/Users/Yushev/git/wpcqi-optiga-trust-charge/optiga/externals/mbedtls/include/mbedtls\pk.h ****  *  You may obtain a copy of the License at
  13:C:/Users/Yushev/git/wpcqi-optiga-trust-charge/optiga/externals/mbedtls/include/mbedtls\pk.h ****  *
  14:C:/Users/Yushev/git/wpcqi-optiga-trust-charge/optiga/externals/mbedtls/include/mbedtls\pk.h ****  *  http://www.apache.org/licenses/LICENSE-2.0
  15:C:/Users/Yushev/git/wpcqi-optiga-trust-charge/optiga/externals/mbedtls/include/mbedtls\pk.h ****  *
  16:C:/Users/Yushev/git/wpcqi-optiga-trust-charge/optiga/externals/mbedtls/include/mbedtls\pk.h ****  *  Unless required by applicable law or agreed to in writing, software
  17:C:/Users/Yushev/git/wpcqi-optiga-trust-charge/optiga/externals/mbedtls/include/mbedtls\pk.h ****  *  distributed under the License is distributed on an "AS IS" BASIS, WITHOUT
  18:C:/Users/Yushev/git/wpcqi-optiga-trust-charge/optiga/externals/mbedtls/include/mbedtls\pk.h ****  *  WARRANTIES OR CONDITIONS OF ANY KIND, either express or implied.
  19:C:/Users/Yushev/git/wpcqi-optiga-trust-charge/optiga/externals/mbedtls/include/mbedtls\pk.h ****  *  See the License for the specific language governing permissions and
  20:C:/Users/Yushev/git/wpcqi-optiga-trust-charge/optiga/externals/mbedtls/include/mbedtls\pk.h ****  *  limitations under the License.
  21:C:/Users/Yushev/git/wpcqi-optiga-trust-charge/optiga/externals/mbedtls/include/mbedtls\pk.h ****  *
  22:C:/Users/Yushev/git/wpcqi-optiga-trust-charge/optiga/externals/mbedtls/include/mbedtls\pk.h ****  *  This file is part of mbed TLS (https://tls.mbed.org)
  23:C:/Users/Yushev/git/wpcqi-optiga-trust-charge/optiga/externals/mbedtls/include/mbedtls\pk.h ****  */
  24:C:/Users/Yushev/git/wpcqi-optiga-trust-charge/optiga/externals/mbedtls/include/mbedtls\pk.h **** 
  25:C:/Users/Yushev/git/wpcqi-optiga-trust-charge/optiga/externals/mbedtls/include/mbedtls\pk.h **** #ifndef MBEDTLS_PK_H
  26:C:/Users/Yushev/git/wpcqi-optiga-trust-charge/optiga/externals/mbedtls/include/mbedtls\pk.h **** #define MBEDTLS_PK_H
  27:C:/Users/Yushev/git/wpcqi-optiga-trust-charge/optiga/externals/mbedtls/include/mbedtls\pk.h **** 
  28:C:/Users/Yushev/git/wpcqi-optiga-trust-charge/optiga/externals/mbedtls/include/mbedtls\pk.h **** #if !defined(MBEDTLS_CONFIG_FILE)
  29:C:/Users/Yushev/git/wpcqi-optiga-trust-charge/optiga/externals/mbedtls/include/mbedtls\pk.h **** #include "config.h"
  30:C:/Users/Yushev/git/wpcqi-optiga-trust-charge/optiga/externals/mbedtls/include/mbedtls\pk.h **** #else
  31:C:/Users/Yushev/git/wpcqi-optiga-trust-charge/optiga/externals/mbedtls/include/mbedtls\pk.h **** #include MBEDTLS_CONFIG_FILE
  32:C:/Users/Yushev/git/wpcqi-optiga-trust-charge/optiga/externals/mbedtls/include/mbedtls\pk.h **** #endif
  33:C:/Users/Yushev/git/wpcqi-optiga-trust-charge/optiga/externals/mbedtls/include/mbedtls\pk.h **** 
  34:C:/Users/Yushev/git/wpcqi-optiga-trust-charge/optiga/externals/mbedtls/include/mbedtls\pk.h **** #include "md.h"
  35:C:/Users/Yushev/git/wpcqi-optiga-trust-charge/optiga/externals/mbedtls/include/mbedtls\pk.h **** 
  36:C:/Users/Yushev/git/wpcqi-optiga-trust-charge/optiga/externals/mbedtls/include/mbedtls\pk.h **** #if defined(MBEDTLS_RSA_C)
  37:C:/Users/Yushev/git/wpcqi-optiga-trust-charge/optiga/externals/mbedtls/include/mbedtls\pk.h **** #include "rsa.h"
  38:C:/Users/Yushev/git/wpcqi-optiga-trust-charge/optiga/externals/mbedtls/include/mbedtls\pk.h **** #endif
  39:C:/Users/Yushev/git/wpcqi-optiga-trust-charge/optiga/externals/mbedtls/include/mbedtls\pk.h **** 
  40:C:/Users/Yushev/git/wpcqi-optiga-trust-charge/optiga/externals/mbedtls/include/mbedtls\pk.h **** #if defined(MBEDTLS_ECP_C)
  41:C:/Users/Yushev/git/wpcqi-optiga-trust-charge/optiga/externals/mbedtls/include/mbedtls\pk.h **** #include "ecp.h"
  42:C:/Users/Yushev/git/wpcqi-optiga-trust-charge/optiga/externals/mbedtls/include/mbedtls\pk.h **** #endif
  43:C:/Users/Yushev/git/wpcqi-optiga-trust-charge/optiga/externals/mbedtls/include/mbedtls\pk.h **** 
  44:C:/Users/Yushev/git/wpcqi-optiga-trust-charge/optiga/externals/mbedtls/include/mbedtls\pk.h **** #if defined(MBEDTLS_ECDSA_C)
  45:C:/Users/Yushev/git/wpcqi-optiga-trust-charge/optiga/externals/mbedtls/include/mbedtls\pk.h **** #include "ecdsa.h"
  46:C:/Users/Yushev/git/wpcqi-optiga-trust-charge/optiga/externals/mbedtls/include/mbedtls\pk.h **** #endif
  47:C:/Users/Yushev/git/wpcqi-optiga-trust-charge/optiga/externals/mbedtls/include/mbedtls\pk.h **** 
  48:C:/Users/Yushev/git/wpcqi-optiga-trust-charge/optiga/externals/mbedtls/include/mbedtls\pk.h **** #if ( defined(__ARMCC_VERSION) || defined(_MSC_VER) ) && \
  49:C:/Users/Yushev/git/wpcqi-optiga-trust-charge/optiga/externals/mbedtls/include/mbedtls\pk.h ****     !defined(inline) && !defined(__cplusplus)
  50:C:/Users/Yushev/git/wpcqi-optiga-trust-charge/optiga/externals/mbedtls/include/mbedtls\pk.h **** #define inline __inline
  51:C:/Users/Yushev/git/wpcqi-optiga-trust-charge/optiga/externals/mbedtls/include/mbedtls\pk.h **** #endif
  52:C:/Users/Yushev/git/wpcqi-optiga-trust-charge/optiga/externals/mbedtls/include/mbedtls\pk.h **** 
  53:C:/Users/Yushev/git/wpcqi-optiga-trust-charge/optiga/externals/mbedtls/include/mbedtls\pk.h **** #define MBEDTLS_ERR_PK_ALLOC_FAILED        -0x3F80  /**< Memory allocation failed. */
  54:C:/Users/Yushev/git/wpcqi-optiga-trust-charge/optiga/externals/mbedtls/include/mbedtls\pk.h **** #define MBEDTLS_ERR_PK_TYPE_MISMATCH       -0x3F00  /**< Type mismatch, eg attempt to encrypt with 
  55:C:/Users/Yushev/git/wpcqi-optiga-trust-charge/optiga/externals/mbedtls/include/mbedtls\pk.h **** #define MBEDTLS_ERR_PK_BAD_INPUT_DATA      -0x3E80  /**< Bad input parameters to function. */
  56:C:/Users/Yushev/git/wpcqi-optiga-trust-charge/optiga/externals/mbedtls/include/mbedtls\pk.h **** #define MBEDTLS_ERR_PK_FILE_IO_ERROR       -0x3E00  /**< Read/write of file failed. */
  57:C:/Users/Yushev/git/wpcqi-optiga-trust-charge/optiga/externals/mbedtls/include/mbedtls\pk.h **** #define MBEDTLS_ERR_PK_KEY_INVALID_VERSION -0x3D80  /**< Unsupported key version */
  58:C:/Users/Yushev/git/wpcqi-optiga-trust-charge/optiga/externals/mbedtls/include/mbedtls\pk.h **** #define MBEDTLS_ERR_PK_KEY_INVALID_FORMAT  -0x3D00  /**< Invalid key tag or value. */
  59:C:/Users/Yushev/git/wpcqi-optiga-trust-charge/optiga/externals/mbedtls/include/mbedtls\pk.h **** #define MBEDTLS_ERR_PK_UNKNOWN_PK_ALG      -0x3C80  /**< Key algorithm is unsupported (only RSA and
  60:C:/Users/Yushev/git/wpcqi-optiga-trust-charge/optiga/externals/mbedtls/include/mbedtls\pk.h **** #define MBEDTLS_ERR_PK_PASSWORD_REQUIRED   -0x3C00  /**< Private key password can't be empty. */
  61:C:/Users/Yushev/git/wpcqi-optiga-trust-charge/optiga/externals/mbedtls/include/mbedtls\pk.h **** #define MBEDTLS_ERR_PK_PASSWORD_MISMATCH   -0x3B80  /**< Given private key password does not allow 
  62:C:/Users/Yushev/git/wpcqi-optiga-trust-charge/optiga/externals/mbedtls/include/mbedtls\pk.h **** #define MBEDTLS_ERR_PK_INVALID_PUBKEY      -0x3B00  /**< The pubkey tag or value is invalid (only R
  63:C:/Users/Yushev/git/wpcqi-optiga-trust-charge/optiga/externals/mbedtls/include/mbedtls\pk.h **** #define MBEDTLS_ERR_PK_INVALID_ALG         -0x3A80  /**< The algorithm tag or value is invalid. */
  64:C:/Users/Yushev/git/wpcqi-optiga-trust-charge/optiga/externals/mbedtls/include/mbedtls\pk.h **** #define MBEDTLS_ERR_PK_UNKNOWN_NAMED_CURVE -0x3A00  /**< Elliptic curve is unsupported (only NIST c
  65:C:/Users/Yushev/git/wpcqi-optiga-trust-charge/optiga/externals/mbedtls/include/mbedtls\pk.h **** #define MBEDTLS_ERR_PK_FEATURE_UNAVAILABLE -0x3980  /**< Unavailable feature, e.g. RSA disabled for
  66:C:/Users/Yushev/git/wpcqi-optiga-trust-charge/optiga/externals/mbedtls/include/mbedtls\pk.h **** #define MBEDTLS_ERR_PK_SIG_LEN_MISMATCH    -0x3900  /**< The buffer contains a valid signature foll
  67:C:/Users/Yushev/git/wpcqi-optiga-trust-charge/optiga/externals/mbedtls/include/mbedtls\pk.h **** 
  68:C:/Users/Yushev/git/wpcqi-optiga-trust-charge/optiga/externals/mbedtls/include/mbedtls\pk.h **** /* MBEDTLS_ERR_PK_HW_ACCEL_FAILED is deprecated and should not be used. */
  69:C:/Users/Yushev/git/wpcqi-optiga-trust-charge/optiga/externals/mbedtls/include/mbedtls\pk.h **** #define MBEDTLS_ERR_PK_HW_ACCEL_FAILED     -0x3880  /**< PK hardware accelerator failed. */
  70:C:/Users/Yushev/git/wpcqi-optiga-trust-charge/optiga/externals/mbedtls/include/mbedtls\pk.h **** 
  71:C:/Users/Yushev/git/wpcqi-optiga-trust-charge/optiga/externals/mbedtls/include/mbedtls\pk.h **** #ifdef __cplusplus
  72:C:/Users/Yushev/git/wpcqi-optiga-trust-charge/optiga/externals/mbedtls/include/mbedtls\pk.h **** extern "C" {
  73:C:/Users/Yushev/git/wpcqi-optiga-trust-charge/optiga/externals/mbedtls/include/mbedtls\pk.h **** #endif
  74:C:/Users/Yushev/git/wpcqi-optiga-trust-charge/optiga/externals/mbedtls/include/mbedtls\pk.h **** 
  75:C:/Users/Yushev/git/wpcqi-optiga-trust-charge/optiga/externals/mbedtls/include/mbedtls\pk.h **** /**
  76:C:/Users/Yushev/git/wpcqi-optiga-trust-charge/optiga/externals/mbedtls/include/mbedtls\pk.h ****  * \brief          Public key types
  77:C:/Users/Yushev/git/wpcqi-optiga-trust-charge/optiga/externals/mbedtls/include/mbedtls\pk.h ****  */
  78:C:/Users/Yushev/git/wpcqi-optiga-trust-charge/optiga/externals/mbedtls/include/mbedtls\pk.h **** typedef enum {
  79:C:/Users/Yushev/git/wpcqi-optiga-trust-charge/optiga/externals/mbedtls/include/mbedtls\pk.h ****     MBEDTLS_PK_NONE=0,
  80:C:/Users/Yushev/git/wpcqi-optiga-trust-charge/optiga/externals/mbedtls/include/mbedtls\pk.h ****     MBEDTLS_PK_RSA,
  81:C:/Users/Yushev/git/wpcqi-optiga-trust-charge/optiga/externals/mbedtls/include/mbedtls\pk.h ****     MBEDTLS_PK_ECKEY,
  82:C:/Users/Yushev/git/wpcqi-optiga-trust-charge/optiga/externals/mbedtls/include/mbedtls\pk.h ****     MBEDTLS_PK_ECKEY_DH,
  83:C:/Users/Yushev/git/wpcqi-optiga-trust-charge/optiga/externals/mbedtls/include/mbedtls\pk.h ****     MBEDTLS_PK_ECDSA,
  84:C:/Users/Yushev/git/wpcqi-optiga-trust-charge/optiga/externals/mbedtls/include/mbedtls\pk.h ****     MBEDTLS_PK_RSA_ALT,
  85:C:/Users/Yushev/git/wpcqi-optiga-trust-charge/optiga/externals/mbedtls/include/mbedtls\pk.h ****     MBEDTLS_PK_RSASSA_PSS,
  86:C:/Users/Yushev/git/wpcqi-optiga-trust-charge/optiga/externals/mbedtls/include/mbedtls\pk.h **** } mbedtls_pk_type_t;
  87:C:/Users/Yushev/git/wpcqi-optiga-trust-charge/optiga/externals/mbedtls/include/mbedtls\pk.h **** 
  88:C:/Users/Yushev/git/wpcqi-optiga-trust-charge/optiga/externals/mbedtls/include/mbedtls\pk.h **** /**
  89:C:/Users/Yushev/git/wpcqi-optiga-trust-charge/optiga/externals/mbedtls/include/mbedtls\pk.h ****  * \brief           Options for RSASSA-PSS signature verification.
  90:C:/Users/Yushev/git/wpcqi-optiga-trust-charge/optiga/externals/mbedtls/include/mbedtls\pk.h ****  *                  See \c mbedtls_rsa_rsassa_pss_verify_ext()
  91:C:/Users/Yushev/git/wpcqi-optiga-trust-charge/optiga/externals/mbedtls/include/mbedtls\pk.h ****  */
  92:C:/Users/Yushev/git/wpcqi-optiga-trust-charge/optiga/externals/mbedtls/include/mbedtls\pk.h **** typedef struct mbedtls_pk_rsassa_pss_options
  93:C:/Users/Yushev/git/wpcqi-optiga-trust-charge/optiga/externals/mbedtls/include/mbedtls\pk.h **** {
  94:C:/Users/Yushev/git/wpcqi-optiga-trust-charge/optiga/externals/mbedtls/include/mbedtls\pk.h ****     mbedtls_md_type_t mgf1_hash_id;
  95:C:/Users/Yushev/git/wpcqi-optiga-trust-charge/optiga/externals/mbedtls/include/mbedtls\pk.h ****     int expected_salt_len;
  96:C:/Users/Yushev/git/wpcqi-optiga-trust-charge/optiga/externals/mbedtls/include/mbedtls\pk.h **** 
  97:C:/Users/Yushev/git/wpcqi-optiga-trust-charge/optiga/externals/mbedtls/include/mbedtls\pk.h **** } mbedtls_pk_rsassa_pss_options;
  98:C:/Users/Yushev/git/wpcqi-optiga-trust-charge/optiga/externals/mbedtls/include/mbedtls\pk.h **** 
  99:C:/Users/Yushev/git/wpcqi-optiga-trust-charge/optiga/externals/mbedtls/include/mbedtls\pk.h **** /**
 100:C:/Users/Yushev/git/wpcqi-optiga-trust-charge/optiga/externals/mbedtls/include/mbedtls\pk.h ****  * \brief           Types for interfacing with the debug module
 101:C:/Users/Yushev/git/wpcqi-optiga-trust-charge/optiga/externals/mbedtls/include/mbedtls\pk.h ****  */
 102:C:/Users/Yushev/git/wpcqi-optiga-trust-charge/optiga/externals/mbedtls/include/mbedtls\pk.h **** typedef enum
 103:C:/Users/Yushev/git/wpcqi-optiga-trust-charge/optiga/externals/mbedtls/include/mbedtls\pk.h **** {
 104:C:/Users/Yushev/git/wpcqi-optiga-trust-charge/optiga/externals/mbedtls/include/mbedtls\pk.h ****     MBEDTLS_PK_DEBUG_NONE = 0,
 105:C:/Users/Yushev/git/wpcqi-optiga-trust-charge/optiga/externals/mbedtls/include/mbedtls\pk.h ****     MBEDTLS_PK_DEBUG_MPI,
 106:C:/Users/Yushev/git/wpcqi-optiga-trust-charge/optiga/externals/mbedtls/include/mbedtls\pk.h ****     MBEDTLS_PK_DEBUG_ECP,
 107:C:/Users/Yushev/git/wpcqi-optiga-trust-charge/optiga/externals/mbedtls/include/mbedtls\pk.h **** } mbedtls_pk_debug_type;
 108:C:/Users/Yushev/git/wpcqi-optiga-trust-charge/optiga/externals/mbedtls/include/mbedtls\pk.h **** 
 109:C:/Users/Yushev/git/wpcqi-optiga-trust-charge/optiga/externals/mbedtls/include/mbedtls\pk.h **** /**
 110:C:/Users/Yushev/git/wpcqi-optiga-trust-charge/optiga/externals/mbedtls/include/mbedtls\pk.h ****  * \brief           Item to send to the debug module
 111:C:/Users/Yushev/git/wpcqi-optiga-trust-charge/optiga/externals/mbedtls/include/mbedtls\pk.h ****  */
 112:C:/Users/Yushev/git/wpcqi-optiga-trust-charge/optiga/externals/mbedtls/include/mbedtls\pk.h **** typedef struct mbedtls_pk_debug_item
 113:C:/Users/Yushev/git/wpcqi-optiga-trust-charge/optiga/externals/mbedtls/include/mbedtls\pk.h **** {
 114:C:/Users/Yushev/git/wpcqi-optiga-trust-charge/optiga/externals/mbedtls/include/mbedtls\pk.h ****     mbedtls_pk_debug_type type;
 115:C:/Users/Yushev/git/wpcqi-optiga-trust-charge/optiga/externals/mbedtls/include/mbedtls\pk.h ****     const char *name;
 116:C:/Users/Yushev/git/wpcqi-optiga-trust-charge/optiga/externals/mbedtls/include/mbedtls\pk.h ****     void *value;
 117:C:/Users/Yushev/git/wpcqi-optiga-trust-charge/optiga/externals/mbedtls/include/mbedtls\pk.h **** } mbedtls_pk_debug_item;
 118:C:/Users/Yushev/git/wpcqi-optiga-trust-charge/optiga/externals/mbedtls/include/mbedtls\pk.h **** 
 119:C:/Users/Yushev/git/wpcqi-optiga-trust-charge/optiga/externals/mbedtls/include/mbedtls\pk.h **** /** Maximum number of item send for debugging, plus 1 */
 120:C:/Users/Yushev/git/wpcqi-optiga-trust-charge/optiga/externals/mbedtls/include/mbedtls\pk.h **** #define MBEDTLS_PK_DEBUG_MAX_ITEMS 3
 121:C:/Users/Yushev/git/wpcqi-optiga-trust-charge/optiga/externals/mbedtls/include/mbedtls\pk.h **** 
 122:C:/Users/Yushev/git/wpcqi-optiga-trust-charge/optiga/externals/mbedtls/include/mbedtls\pk.h **** /**
 123:C:/Users/Yushev/git/wpcqi-optiga-trust-charge/optiga/externals/mbedtls/include/mbedtls\pk.h ****  * \brief           Public key information and operations
 124:C:/Users/Yushev/git/wpcqi-optiga-trust-charge/optiga/externals/mbedtls/include/mbedtls\pk.h ****  */
 125:C:/Users/Yushev/git/wpcqi-optiga-trust-charge/optiga/externals/mbedtls/include/mbedtls\pk.h **** typedef struct mbedtls_pk_info_t mbedtls_pk_info_t;
 126:C:/Users/Yushev/git/wpcqi-optiga-trust-charge/optiga/externals/mbedtls/include/mbedtls\pk.h **** 
 127:C:/Users/Yushev/git/wpcqi-optiga-trust-charge/optiga/externals/mbedtls/include/mbedtls\pk.h **** /**
 128:C:/Users/Yushev/git/wpcqi-optiga-trust-charge/optiga/externals/mbedtls/include/mbedtls\pk.h ****  * \brief           Public key container
 129:C:/Users/Yushev/git/wpcqi-optiga-trust-charge/optiga/externals/mbedtls/include/mbedtls\pk.h ****  */
 130:C:/Users/Yushev/git/wpcqi-optiga-trust-charge/optiga/externals/mbedtls/include/mbedtls\pk.h **** typedef struct mbedtls_pk_context
 131:C:/Users/Yushev/git/wpcqi-optiga-trust-charge/optiga/externals/mbedtls/include/mbedtls\pk.h **** {
 132:C:/Users/Yushev/git/wpcqi-optiga-trust-charge/optiga/externals/mbedtls/include/mbedtls\pk.h ****     const mbedtls_pk_info_t *   pk_info; /**< Public key information         */
 133:C:/Users/Yushev/git/wpcqi-optiga-trust-charge/optiga/externals/mbedtls/include/mbedtls\pk.h ****     void *                      pk_ctx;  /**< Underlying public key context  */
 134:C:/Users/Yushev/git/wpcqi-optiga-trust-charge/optiga/externals/mbedtls/include/mbedtls\pk.h **** } mbedtls_pk_context;
 135:C:/Users/Yushev/git/wpcqi-optiga-trust-charge/optiga/externals/mbedtls/include/mbedtls\pk.h **** 
 136:C:/Users/Yushev/git/wpcqi-optiga-trust-charge/optiga/externals/mbedtls/include/mbedtls\pk.h **** #if defined(MBEDTLS_ECDSA_C) && defined(MBEDTLS_ECP_RESTARTABLE)
 137:C:/Users/Yushev/git/wpcqi-optiga-trust-charge/optiga/externals/mbedtls/include/mbedtls\pk.h **** /**
 138:C:/Users/Yushev/git/wpcqi-optiga-trust-charge/optiga/externals/mbedtls/include/mbedtls\pk.h ****  * \brief           Context for resuming operations
 139:C:/Users/Yushev/git/wpcqi-optiga-trust-charge/optiga/externals/mbedtls/include/mbedtls\pk.h ****  */
 140:C:/Users/Yushev/git/wpcqi-optiga-trust-charge/optiga/externals/mbedtls/include/mbedtls\pk.h **** typedef struct
 141:C:/Users/Yushev/git/wpcqi-optiga-trust-charge/optiga/externals/mbedtls/include/mbedtls\pk.h **** {
 142:C:/Users/Yushev/git/wpcqi-optiga-trust-charge/optiga/externals/mbedtls/include/mbedtls\pk.h ****     const mbedtls_pk_info_t *   pk_info; /**< Public key information         */
 143:C:/Users/Yushev/git/wpcqi-optiga-trust-charge/optiga/externals/mbedtls/include/mbedtls\pk.h ****     void *                      rs_ctx;  /**< Underlying restart context     */
 144:C:/Users/Yushev/git/wpcqi-optiga-trust-charge/optiga/externals/mbedtls/include/mbedtls\pk.h **** } mbedtls_pk_restart_ctx;
 145:C:/Users/Yushev/git/wpcqi-optiga-trust-charge/optiga/externals/mbedtls/include/mbedtls\pk.h **** #else /* MBEDTLS_ECDSA_C && MBEDTLS_ECP_RESTARTABLE */
 146:C:/Users/Yushev/git/wpcqi-optiga-trust-charge/optiga/externals/mbedtls/include/mbedtls\pk.h **** /* Now we can declare functions that take a pointer to that */
 147:C:/Users/Yushev/git/wpcqi-optiga-trust-charge/optiga/externals/mbedtls/include/mbedtls\pk.h **** typedef void mbedtls_pk_restart_ctx;
 148:C:/Users/Yushev/git/wpcqi-optiga-trust-charge/optiga/externals/mbedtls/include/mbedtls\pk.h **** #endif /* MBEDTLS_ECDSA_C && MBEDTLS_ECP_RESTARTABLE */
 149:C:/Users/Yushev/git/wpcqi-optiga-trust-charge/optiga/externals/mbedtls/include/mbedtls\pk.h **** 
 150:C:/Users/Yushev/git/wpcqi-optiga-trust-charge/optiga/externals/mbedtls/include/mbedtls\pk.h **** #if defined(MBEDTLS_RSA_C)
 151:C:/Users/Yushev/git/wpcqi-optiga-trust-charge/optiga/externals/mbedtls/include/mbedtls\pk.h **** /**
 152:C:/Users/Yushev/git/wpcqi-optiga-trust-charge/optiga/externals/mbedtls/include/mbedtls\pk.h ****  * Quick access to an RSA context inside a PK context.
 153:C:/Users/Yushev/git/wpcqi-optiga-trust-charge/optiga/externals/mbedtls/include/mbedtls\pk.h ****  *
 154:C:/Users/Yushev/git/wpcqi-optiga-trust-charge/optiga/externals/mbedtls/include/mbedtls\pk.h ****  * \warning You must make sure the PK context actually holds an RSA context
 155:C:/Users/Yushev/git/wpcqi-optiga-trust-charge/optiga/externals/mbedtls/include/mbedtls\pk.h ****  * before using this function!
 156:C:/Users/Yushev/git/wpcqi-optiga-trust-charge/optiga/externals/mbedtls/include/mbedtls\pk.h ****  */
 157:C:/Users/Yushev/git/wpcqi-optiga-trust-charge/optiga/externals/mbedtls/include/mbedtls\pk.h **** static inline mbedtls_rsa_context *mbedtls_pk_rsa( const mbedtls_pk_context pk )
 158:C:/Users/Yushev/git/wpcqi-optiga-trust-charge/optiga/externals/mbedtls/include/mbedtls\pk.h **** {
 159:C:/Users/Yushev/git/wpcqi-optiga-trust-charge/optiga/externals/mbedtls/include/mbedtls\pk.h ****     return( (mbedtls_rsa_context *) (pk).pk_ctx );
 160:C:/Users/Yushev/git/wpcqi-optiga-trust-charge/optiga/externals/mbedtls/include/mbedtls\pk.h **** }
 161:C:/Users/Yushev/git/wpcqi-optiga-trust-charge/optiga/externals/mbedtls/include/mbedtls\pk.h **** #endif /* MBEDTLS_RSA_C */
 162:C:/Users/Yushev/git/wpcqi-optiga-trust-charge/optiga/externals/mbedtls/include/mbedtls\pk.h **** 
 163:C:/Users/Yushev/git/wpcqi-optiga-trust-charge/optiga/externals/mbedtls/include/mbedtls\pk.h **** #if defined(MBEDTLS_ECP_C)
 164:C:/Users/Yushev/git/wpcqi-optiga-trust-charge/optiga/externals/mbedtls/include/mbedtls\pk.h **** /**
 165:C:/Users/Yushev/git/wpcqi-optiga-trust-charge/optiga/externals/mbedtls/include/mbedtls\pk.h ****  * Quick access to an EC context inside a PK context.
 166:C:/Users/Yushev/git/wpcqi-optiga-trust-charge/optiga/externals/mbedtls/include/mbedtls\pk.h ****  *
 167:C:/Users/Yushev/git/wpcqi-optiga-trust-charge/optiga/externals/mbedtls/include/mbedtls\pk.h ****  * \warning You must make sure the PK context actually holds an EC context
 168:C:/Users/Yushev/git/wpcqi-optiga-trust-charge/optiga/externals/mbedtls/include/mbedtls\pk.h ****  * before using this function!
 169:C:/Users/Yushev/git/wpcqi-optiga-trust-charge/optiga/externals/mbedtls/include/mbedtls\pk.h ****  */
 170:C:/Users/Yushev/git/wpcqi-optiga-trust-charge/optiga/externals/mbedtls/include/mbedtls\pk.h **** static inline mbedtls_ecp_keypair *mbedtls_pk_ec( const mbedtls_pk_context pk )
 171:C:/Users/Yushev/git/wpcqi-optiga-trust-charge/optiga/externals/mbedtls/include/mbedtls\pk.h **** {
  27              	 .loc 1 171 0
  28              	 .cfi_startproc
  29              	 
  30              	 
  31              	 
  32 0000 80B4     	 push {r7}
  33              	.LCFI0:
  34              	 .cfi_def_cfa_offset 4
  35              	 .cfi_offset 7,-4
  36 0002 83B0     	 sub sp,sp,#12
  37              	.LCFI1:
  38              	 .cfi_def_cfa_offset 16
  39 0004 00AF     	 add r7,sp,#0
  40              	.LCFI2:
  41              	 .cfi_def_cfa_register 7
  42 0006 3B46     	 mov r3,r7
  43 0008 83E80300 	 stmia r3,{r0,r1}
 172:C:/Users/Yushev/git/wpcqi-optiga-trust-charge/optiga/externals/mbedtls/include/mbedtls\pk.h ****     return( (mbedtls_ecp_keypair *) (pk).pk_ctx );
  44              	 .loc 1 172 0
  45 000c 7B68     	 ldr r3,[r7,#4]
 173:C:/Users/Yushev/git/wpcqi-optiga-trust-charge/optiga/externals/mbedtls/include/mbedtls\pk.h **** }
  46              	 .loc 1 173 0
  47 000e 1846     	 mov r0,r3
  48 0010 0C37     	 adds r7,r7,#12
  49              	.LCFI3:
  50              	 .cfi_def_cfa_offset 4
  51 0012 BD46     	 mov sp,r7
  52              	.LCFI4:
  53              	 .cfi_def_cfa_register 13
  54              	 
  55 0014 5DF8047B 	 ldr r7,[sp],#4
  56              	.LCFI5:
  57              	 .cfi_restore 7
  58              	 .cfi_def_cfa_offset 0
  59 0018 7047     	 bx lr
  60              	 .cfi_endproc
  61              	.LFE0:
  63              	 .global mbedtls_x509_crt_profile_default
  64 001a 00BF     	 .section .rodata.mbedtls_x509_crt_profile_default,"a",%progbits
  65              	 .align 2
  68              	mbedtls_x509_crt_profile_default:
  69 0000 F0000000 	 .word 240
  70 0004 FFFFFF0F 	 .word 268435455
  71 0008 FFFFFF0F 	 .word 268435455
  72 000c 00080000 	 .word 2048
  73              	 .global mbedtls_x509_crt_profile_next
  74              	 .section .rodata.mbedtls_x509_crt_profile_next,"a",%progbits
  75              	 .align 2
  78              	mbedtls_x509_crt_profile_next:
  79 0000 E0000000 	 .word 224
  80 0004 FFFFFF0F 	 .word 268435455
  81 0008 FC080000 	 .word 2300
  82 000c 00080000 	 .word 2048
  83              	 .global mbedtls_x509_crt_profile_suiteb
  84              	 .section .rodata.mbedtls_x509_crt_profile_suiteb,"a",%progbits
  85              	 .align 2
  88              	mbedtls_x509_crt_profile_suiteb:
  89 0000 60000000 	 .word 96
  90 0004 0A000000 	 .word 10
  91 0008 0C000000 	 .word 12
  92 000c 00000000 	 .word 0
  93              	 .section .text.x509_profile_check_md_alg,"ax",%progbits
  94              	 .align 2
  95              	 .thumb
  96              	 .thumb_func
  98              	x509_profile_check_md_alg:
  99              	.LFB9:
 100              	 .file 2 "C:/Users/Yushev/git/wpcqi-optiga-trust-charge/optiga/externals/mbedtls/library/x509_crt.c"
   1:C:/Users/Yushev/git/wpcqi-optiga-trust-charge/optiga/externals/mbedtls/library\x509_crt.c **** /*
   2:C:/Users/Yushev/git/wpcqi-optiga-trust-charge/optiga/externals/mbedtls/library\x509_crt.c ****  *  X.509 certificate parsing and verification
   3:C:/Users/Yushev/git/wpcqi-optiga-trust-charge/optiga/externals/mbedtls/library\x509_crt.c ****  *
   4:C:/Users/Yushev/git/wpcqi-optiga-trust-charge/optiga/externals/mbedtls/library\x509_crt.c ****  *  Copyright (C) 2006-2015, ARM Limited, All Rights Reserved
   5:C:/Users/Yushev/git/wpcqi-optiga-trust-charge/optiga/externals/mbedtls/library\x509_crt.c ****  *  SPDX-License-Identifier: Apache-2.0
   6:C:/Users/Yushev/git/wpcqi-optiga-trust-charge/optiga/externals/mbedtls/library\x509_crt.c ****  *
   7:C:/Users/Yushev/git/wpcqi-optiga-trust-charge/optiga/externals/mbedtls/library\x509_crt.c ****  *  Licensed under the Apache License, Version 2.0 (the "License"); you may
   8:C:/Users/Yushev/git/wpcqi-optiga-trust-charge/optiga/externals/mbedtls/library\x509_crt.c ****  *  not use this file except in compliance with the License.
   9:C:/Users/Yushev/git/wpcqi-optiga-trust-charge/optiga/externals/mbedtls/library\x509_crt.c ****  *  You may obtain a copy of the License at
  10:C:/Users/Yushev/git/wpcqi-optiga-trust-charge/optiga/externals/mbedtls/library\x509_crt.c ****  *
  11:C:/Users/Yushev/git/wpcqi-optiga-trust-charge/optiga/externals/mbedtls/library\x509_crt.c ****  *  http://www.apache.org/licenses/LICENSE-2.0
  12:C:/Users/Yushev/git/wpcqi-optiga-trust-charge/optiga/externals/mbedtls/library\x509_crt.c ****  *
  13:C:/Users/Yushev/git/wpcqi-optiga-trust-charge/optiga/externals/mbedtls/library\x509_crt.c ****  *  Unless required by applicable law or agreed to in writing, software
  14:C:/Users/Yushev/git/wpcqi-optiga-trust-charge/optiga/externals/mbedtls/library\x509_crt.c ****  *  distributed under the License is distributed on an "AS IS" BASIS, WITHOUT
  15:C:/Users/Yushev/git/wpcqi-optiga-trust-charge/optiga/externals/mbedtls/library\x509_crt.c ****  *  WARRANTIES OR CONDITIONS OF ANY KIND, either express or implied.
  16:C:/Users/Yushev/git/wpcqi-optiga-trust-charge/optiga/externals/mbedtls/library\x509_crt.c ****  *  See the License for the specific language governing permissions and
  17:C:/Users/Yushev/git/wpcqi-optiga-trust-charge/optiga/externals/mbedtls/library\x509_crt.c ****  *  limitations under the License.
  18:C:/Users/Yushev/git/wpcqi-optiga-trust-charge/optiga/externals/mbedtls/library\x509_crt.c ****  *
  19:C:/Users/Yushev/git/wpcqi-optiga-trust-charge/optiga/externals/mbedtls/library\x509_crt.c ****  *  This file is part of mbed TLS (https://tls.mbed.org)
  20:C:/Users/Yushev/git/wpcqi-optiga-trust-charge/optiga/externals/mbedtls/library\x509_crt.c ****  */
  21:C:/Users/Yushev/git/wpcqi-optiga-trust-charge/optiga/externals/mbedtls/library\x509_crt.c **** /*
  22:C:/Users/Yushev/git/wpcqi-optiga-trust-charge/optiga/externals/mbedtls/library\x509_crt.c ****  *  The ITU-T X.509 standard defines a certificate format for PKI.
  23:C:/Users/Yushev/git/wpcqi-optiga-trust-charge/optiga/externals/mbedtls/library\x509_crt.c ****  *
  24:C:/Users/Yushev/git/wpcqi-optiga-trust-charge/optiga/externals/mbedtls/library\x509_crt.c ****  *  http://www.ietf.org/rfc/rfc5280.txt (Certificates and CRLs)
  25:C:/Users/Yushev/git/wpcqi-optiga-trust-charge/optiga/externals/mbedtls/library\x509_crt.c ****  *  http://www.ietf.org/rfc/rfc3279.txt (Alg IDs for CRLs)
  26:C:/Users/Yushev/git/wpcqi-optiga-trust-charge/optiga/externals/mbedtls/library\x509_crt.c ****  *  http://www.ietf.org/rfc/rfc2986.txt (CSRs, aka PKCS#10)
  27:C:/Users/Yushev/git/wpcqi-optiga-trust-charge/optiga/externals/mbedtls/library\x509_crt.c ****  *
  28:C:/Users/Yushev/git/wpcqi-optiga-trust-charge/optiga/externals/mbedtls/library\x509_crt.c ****  *  http://www.itu.int/ITU-T/studygroups/com17/languages/X.680-0207.pdf
  29:C:/Users/Yushev/git/wpcqi-optiga-trust-charge/optiga/externals/mbedtls/library\x509_crt.c ****  *  http://www.itu.int/ITU-T/studygroups/com17/languages/X.690-0207.pdf
  30:C:/Users/Yushev/git/wpcqi-optiga-trust-charge/optiga/externals/mbedtls/library\x509_crt.c ****  *
  31:C:/Users/Yushev/git/wpcqi-optiga-trust-charge/optiga/externals/mbedtls/library\x509_crt.c ****  *  [SIRO] https://cabforum.org/wp-content/uploads/Chunghwatelecom201503cabforumV4.pdf
  32:C:/Users/Yushev/git/wpcqi-optiga-trust-charge/optiga/externals/mbedtls/library\x509_crt.c ****  */
  33:C:/Users/Yushev/git/wpcqi-optiga-trust-charge/optiga/externals/mbedtls/library\x509_crt.c **** 
  34:C:/Users/Yushev/git/wpcqi-optiga-trust-charge/optiga/externals/mbedtls/library\x509_crt.c **** #if !defined(MBEDTLS_CONFIG_FILE)
  35:C:/Users/Yushev/git/wpcqi-optiga-trust-charge/optiga/externals/mbedtls/library\x509_crt.c **** #include "mbedtls/config.h"
  36:C:/Users/Yushev/git/wpcqi-optiga-trust-charge/optiga/externals/mbedtls/library\x509_crt.c **** #else
  37:C:/Users/Yushev/git/wpcqi-optiga-trust-charge/optiga/externals/mbedtls/library\x509_crt.c **** #include MBEDTLS_CONFIG_FILE
  38:C:/Users/Yushev/git/wpcqi-optiga-trust-charge/optiga/externals/mbedtls/library\x509_crt.c **** #endif
  39:C:/Users/Yushev/git/wpcqi-optiga-trust-charge/optiga/externals/mbedtls/library\x509_crt.c **** 
  40:C:/Users/Yushev/git/wpcqi-optiga-trust-charge/optiga/externals/mbedtls/library\x509_crt.c **** #if defined(MBEDTLS_X509_CRT_PARSE_C)
  41:C:/Users/Yushev/git/wpcqi-optiga-trust-charge/optiga/externals/mbedtls/library\x509_crt.c **** 
  42:C:/Users/Yushev/git/wpcqi-optiga-trust-charge/optiga/externals/mbedtls/library\x509_crt.c **** #include "mbedtls/x509_crt.h"
  43:C:/Users/Yushev/git/wpcqi-optiga-trust-charge/optiga/externals/mbedtls/library\x509_crt.c **** #include "mbedtls/oid.h"
  44:C:/Users/Yushev/git/wpcqi-optiga-trust-charge/optiga/externals/mbedtls/library\x509_crt.c **** #include "mbedtls/platform_util.h"
  45:C:/Users/Yushev/git/wpcqi-optiga-trust-charge/optiga/externals/mbedtls/library\x509_crt.c **** 
  46:C:/Users/Yushev/git/wpcqi-optiga-trust-charge/optiga/externals/mbedtls/library\x509_crt.c **** #include <string.h>
  47:C:/Users/Yushev/git/wpcqi-optiga-trust-charge/optiga/externals/mbedtls/library\x509_crt.c **** 
  48:C:/Users/Yushev/git/wpcqi-optiga-trust-charge/optiga/externals/mbedtls/library\x509_crt.c **** #if defined(MBEDTLS_PEM_PARSE_C)
  49:C:/Users/Yushev/git/wpcqi-optiga-trust-charge/optiga/externals/mbedtls/library\x509_crt.c **** #include "mbedtls/pem.h"
  50:C:/Users/Yushev/git/wpcqi-optiga-trust-charge/optiga/externals/mbedtls/library\x509_crt.c **** #endif
  51:C:/Users/Yushev/git/wpcqi-optiga-trust-charge/optiga/externals/mbedtls/library\x509_crt.c **** 
  52:C:/Users/Yushev/git/wpcqi-optiga-trust-charge/optiga/externals/mbedtls/library\x509_crt.c **** #if defined(MBEDTLS_PLATFORM_C)
  53:C:/Users/Yushev/git/wpcqi-optiga-trust-charge/optiga/externals/mbedtls/library\x509_crt.c **** #include "mbedtls/platform.h"
  54:C:/Users/Yushev/git/wpcqi-optiga-trust-charge/optiga/externals/mbedtls/library\x509_crt.c **** #else
  55:C:/Users/Yushev/git/wpcqi-optiga-trust-charge/optiga/externals/mbedtls/library\x509_crt.c **** #include <stdio.h>
  56:C:/Users/Yushev/git/wpcqi-optiga-trust-charge/optiga/externals/mbedtls/library\x509_crt.c **** #include <stdlib.h>
  57:C:/Users/Yushev/git/wpcqi-optiga-trust-charge/optiga/externals/mbedtls/library\x509_crt.c **** #define mbedtls_free       free
  58:C:/Users/Yushev/git/wpcqi-optiga-trust-charge/optiga/externals/mbedtls/library\x509_crt.c **** #define mbedtls_calloc    calloc
  59:C:/Users/Yushev/git/wpcqi-optiga-trust-charge/optiga/externals/mbedtls/library\x509_crt.c **** #define mbedtls_snprintf   snprintf
  60:C:/Users/Yushev/git/wpcqi-optiga-trust-charge/optiga/externals/mbedtls/library\x509_crt.c **** #endif
  61:C:/Users/Yushev/git/wpcqi-optiga-trust-charge/optiga/externals/mbedtls/library\x509_crt.c **** 
  62:C:/Users/Yushev/git/wpcqi-optiga-trust-charge/optiga/externals/mbedtls/library\x509_crt.c **** #if defined(MBEDTLS_THREADING_C)
  63:C:/Users/Yushev/git/wpcqi-optiga-trust-charge/optiga/externals/mbedtls/library\x509_crt.c **** #include "mbedtls/threading.h"
  64:C:/Users/Yushev/git/wpcqi-optiga-trust-charge/optiga/externals/mbedtls/library\x509_crt.c **** #endif
  65:C:/Users/Yushev/git/wpcqi-optiga-trust-charge/optiga/externals/mbedtls/library\x509_crt.c **** 
  66:C:/Users/Yushev/git/wpcqi-optiga-trust-charge/optiga/externals/mbedtls/library\x509_crt.c **** #if defined(_WIN32) && !defined(EFIX64) && !defined(EFI32)
  67:C:/Users/Yushev/git/wpcqi-optiga-trust-charge/optiga/externals/mbedtls/library\x509_crt.c **** #include <windows.h>
  68:C:/Users/Yushev/git/wpcqi-optiga-trust-charge/optiga/externals/mbedtls/library\x509_crt.c **** #else
  69:C:/Users/Yushev/git/wpcqi-optiga-trust-charge/optiga/externals/mbedtls/library\x509_crt.c **** #include <time.h>
  70:C:/Users/Yushev/git/wpcqi-optiga-trust-charge/optiga/externals/mbedtls/library\x509_crt.c **** #endif
  71:C:/Users/Yushev/git/wpcqi-optiga-trust-charge/optiga/externals/mbedtls/library\x509_crt.c **** 
  72:C:/Users/Yushev/git/wpcqi-optiga-trust-charge/optiga/externals/mbedtls/library\x509_crt.c **** #if defined(MBEDTLS_FS_IO)
  73:C:/Users/Yushev/git/wpcqi-optiga-trust-charge/optiga/externals/mbedtls/library\x509_crt.c **** #include <stdio.h>
  74:C:/Users/Yushev/git/wpcqi-optiga-trust-charge/optiga/externals/mbedtls/library\x509_crt.c **** #if !defined(_WIN32) || defined(EFIX64) || defined(EFI32)
  75:C:/Users/Yushev/git/wpcqi-optiga-trust-charge/optiga/externals/mbedtls/library\x509_crt.c **** #include <sys/types.h>
  76:C:/Users/Yushev/git/wpcqi-optiga-trust-charge/optiga/externals/mbedtls/library\x509_crt.c **** #include <sys/stat.h>
  77:C:/Users/Yushev/git/wpcqi-optiga-trust-charge/optiga/externals/mbedtls/library\x509_crt.c **** #include <dirent.h>
  78:C:/Users/Yushev/git/wpcqi-optiga-trust-charge/optiga/externals/mbedtls/library\x509_crt.c **** #endif /* !_WIN32 || EFIX64 || EFI32 */
  79:C:/Users/Yushev/git/wpcqi-optiga-trust-charge/optiga/externals/mbedtls/library\x509_crt.c **** #endif
  80:C:/Users/Yushev/git/wpcqi-optiga-trust-charge/optiga/externals/mbedtls/library\x509_crt.c **** 
  81:C:/Users/Yushev/git/wpcqi-optiga-trust-charge/optiga/externals/mbedtls/library\x509_crt.c **** /*
  82:C:/Users/Yushev/git/wpcqi-optiga-trust-charge/optiga/externals/mbedtls/library\x509_crt.c ****  * Item in a verification chain: cert and flags for it
  83:C:/Users/Yushev/git/wpcqi-optiga-trust-charge/optiga/externals/mbedtls/library\x509_crt.c ****  */
  84:C:/Users/Yushev/git/wpcqi-optiga-trust-charge/optiga/externals/mbedtls/library\x509_crt.c **** typedef struct {
  85:C:/Users/Yushev/git/wpcqi-optiga-trust-charge/optiga/externals/mbedtls/library\x509_crt.c ****     mbedtls_x509_crt *crt;
  86:C:/Users/Yushev/git/wpcqi-optiga-trust-charge/optiga/externals/mbedtls/library\x509_crt.c ****     uint32_t flags;
  87:C:/Users/Yushev/git/wpcqi-optiga-trust-charge/optiga/externals/mbedtls/library\x509_crt.c **** } x509_crt_verify_chain_item;
  88:C:/Users/Yushev/git/wpcqi-optiga-trust-charge/optiga/externals/mbedtls/library\x509_crt.c **** 
  89:C:/Users/Yushev/git/wpcqi-optiga-trust-charge/optiga/externals/mbedtls/library\x509_crt.c **** /*
  90:C:/Users/Yushev/git/wpcqi-optiga-trust-charge/optiga/externals/mbedtls/library\x509_crt.c ****  * Max size of verification chain: end-entity + intermediates + trusted root
  91:C:/Users/Yushev/git/wpcqi-optiga-trust-charge/optiga/externals/mbedtls/library\x509_crt.c ****  */
  92:C:/Users/Yushev/git/wpcqi-optiga-trust-charge/optiga/externals/mbedtls/library\x509_crt.c **** #define X509_MAX_VERIFY_CHAIN_SIZE    ( MBEDTLS_X509_MAX_INTERMEDIATE_CA + 2 )
  93:C:/Users/Yushev/git/wpcqi-optiga-trust-charge/optiga/externals/mbedtls/library\x509_crt.c **** 
  94:C:/Users/Yushev/git/wpcqi-optiga-trust-charge/optiga/externals/mbedtls/library\x509_crt.c **** /*
  95:C:/Users/Yushev/git/wpcqi-optiga-trust-charge/optiga/externals/mbedtls/library\x509_crt.c ****  * Default profile
  96:C:/Users/Yushev/git/wpcqi-optiga-trust-charge/optiga/externals/mbedtls/library\x509_crt.c ****  */
  97:C:/Users/Yushev/git/wpcqi-optiga-trust-charge/optiga/externals/mbedtls/library\x509_crt.c **** const mbedtls_x509_crt_profile mbedtls_x509_crt_profile_default =
  98:C:/Users/Yushev/git/wpcqi-optiga-trust-charge/optiga/externals/mbedtls/library\x509_crt.c **** {
  99:C:/Users/Yushev/git/wpcqi-optiga-trust-charge/optiga/externals/mbedtls/library\x509_crt.c **** #if defined(MBEDTLS_TLS_DEFAULT_ALLOW_SHA1_IN_CERTIFICATES)
 100:C:/Users/Yushev/git/wpcqi-optiga-trust-charge/optiga/externals/mbedtls/library\x509_crt.c ****     /* Allow SHA-1 (weak, but still safe in controlled environments) */
 101:C:/Users/Yushev/git/wpcqi-optiga-trust-charge/optiga/externals/mbedtls/library\x509_crt.c ****     MBEDTLS_X509_ID_FLAG( MBEDTLS_MD_SHA1 ) |
 102:C:/Users/Yushev/git/wpcqi-optiga-trust-charge/optiga/externals/mbedtls/library\x509_crt.c **** #endif
 103:C:/Users/Yushev/git/wpcqi-optiga-trust-charge/optiga/externals/mbedtls/library\x509_crt.c ****     /* Only SHA-2 hashes */
 104:C:/Users/Yushev/git/wpcqi-optiga-trust-charge/optiga/externals/mbedtls/library\x509_crt.c ****     MBEDTLS_X509_ID_FLAG( MBEDTLS_MD_SHA224 ) |
 105:C:/Users/Yushev/git/wpcqi-optiga-trust-charge/optiga/externals/mbedtls/library\x509_crt.c ****     MBEDTLS_X509_ID_FLAG( MBEDTLS_MD_SHA256 ) |
 106:C:/Users/Yushev/git/wpcqi-optiga-trust-charge/optiga/externals/mbedtls/library\x509_crt.c ****     MBEDTLS_X509_ID_FLAG( MBEDTLS_MD_SHA384 ) |
 107:C:/Users/Yushev/git/wpcqi-optiga-trust-charge/optiga/externals/mbedtls/library\x509_crt.c ****     MBEDTLS_X509_ID_FLAG( MBEDTLS_MD_SHA512 ),
 108:C:/Users/Yushev/git/wpcqi-optiga-trust-charge/optiga/externals/mbedtls/library\x509_crt.c ****     0xFFFFFFF, /* Any PK alg    */
 109:C:/Users/Yushev/git/wpcqi-optiga-trust-charge/optiga/externals/mbedtls/library\x509_crt.c ****     0xFFFFFFF, /* Any curve     */
 110:C:/Users/Yushev/git/wpcqi-optiga-trust-charge/optiga/externals/mbedtls/library\x509_crt.c ****     2048,
 111:C:/Users/Yushev/git/wpcqi-optiga-trust-charge/optiga/externals/mbedtls/library\x509_crt.c **** };
 112:C:/Users/Yushev/git/wpcqi-optiga-trust-charge/optiga/externals/mbedtls/library\x509_crt.c **** 
 113:C:/Users/Yushev/git/wpcqi-optiga-trust-charge/optiga/externals/mbedtls/library\x509_crt.c **** /*
 114:C:/Users/Yushev/git/wpcqi-optiga-trust-charge/optiga/externals/mbedtls/library\x509_crt.c ****  * Next-default profile
 115:C:/Users/Yushev/git/wpcqi-optiga-trust-charge/optiga/externals/mbedtls/library\x509_crt.c ****  */
 116:C:/Users/Yushev/git/wpcqi-optiga-trust-charge/optiga/externals/mbedtls/library\x509_crt.c **** const mbedtls_x509_crt_profile mbedtls_x509_crt_profile_next =
 117:C:/Users/Yushev/git/wpcqi-optiga-trust-charge/optiga/externals/mbedtls/library\x509_crt.c **** {
 118:C:/Users/Yushev/git/wpcqi-optiga-trust-charge/optiga/externals/mbedtls/library\x509_crt.c ****     /* Hashes from SHA-256 and above */
 119:C:/Users/Yushev/git/wpcqi-optiga-trust-charge/optiga/externals/mbedtls/library\x509_crt.c ****     MBEDTLS_X509_ID_FLAG( MBEDTLS_MD_SHA256 ) |
 120:C:/Users/Yushev/git/wpcqi-optiga-trust-charge/optiga/externals/mbedtls/library\x509_crt.c ****     MBEDTLS_X509_ID_FLAG( MBEDTLS_MD_SHA384 ) |
 121:C:/Users/Yushev/git/wpcqi-optiga-trust-charge/optiga/externals/mbedtls/library\x509_crt.c ****     MBEDTLS_X509_ID_FLAG( MBEDTLS_MD_SHA512 ),
 122:C:/Users/Yushev/git/wpcqi-optiga-trust-charge/optiga/externals/mbedtls/library\x509_crt.c ****     0xFFFFFFF, /* Any PK alg    */
 123:C:/Users/Yushev/git/wpcqi-optiga-trust-charge/optiga/externals/mbedtls/library\x509_crt.c **** #if defined(MBEDTLS_ECP_C)
 124:C:/Users/Yushev/git/wpcqi-optiga-trust-charge/optiga/externals/mbedtls/library\x509_crt.c ****     /* Curves at or above 128-bit security level */
 125:C:/Users/Yushev/git/wpcqi-optiga-trust-charge/optiga/externals/mbedtls/library\x509_crt.c ****     MBEDTLS_X509_ID_FLAG( MBEDTLS_ECP_DP_SECP256R1 ) |
 126:C:/Users/Yushev/git/wpcqi-optiga-trust-charge/optiga/externals/mbedtls/library\x509_crt.c ****     MBEDTLS_X509_ID_FLAG( MBEDTLS_ECP_DP_SECP384R1 ) |
 127:C:/Users/Yushev/git/wpcqi-optiga-trust-charge/optiga/externals/mbedtls/library\x509_crt.c ****     MBEDTLS_X509_ID_FLAG( MBEDTLS_ECP_DP_SECP521R1 ) |
 128:C:/Users/Yushev/git/wpcqi-optiga-trust-charge/optiga/externals/mbedtls/library\x509_crt.c ****     MBEDTLS_X509_ID_FLAG( MBEDTLS_ECP_DP_BP256R1 ) |
 129:C:/Users/Yushev/git/wpcqi-optiga-trust-charge/optiga/externals/mbedtls/library\x509_crt.c ****     MBEDTLS_X509_ID_FLAG( MBEDTLS_ECP_DP_BP384R1 ) |
 130:C:/Users/Yushev/git/wpcqi-optiga-trust-charge/optiga/externals/mbedtls/library\x509_crt.c ****     MBEDTLS_X509_ID_FLAG( MBEDTLS_ECP_DP_BP512R1 ) |
 131:C:/Users/Yushev/git/wpcqi-optiga-trust-charge/optiga/externals/mbedtls/library\x509_crt.c ****     MBEDTLS_X509_ID_FLAG( MBEDTLS_ECP_DP_SECP256K1 ),
 132:C:/Users/Yushev/git/wpcqi-optiga-trust-charge/optiga/externals/mbedtls/library\x509_crt.c **** #else
 133:C:/Users/Yushev/git/wpcqi-optiga-trust-charge/optiga/externals/mbedtls/library\x509_crt.c ****     0,
 134:C:/Users/Yushev/git/wpcqi-optiga-trust-charge/optiga/externals/mbedtls/library\x509_crt.c **** #endif
 135:C:/Users/Yushev/git/wpcqi-optiga-trust-charge/optiga/externals/mbedtls/library\x509_crt.c ****     2048,
 136:C:/Users/Yushev/git/wpcqi-optiga-trust-charge/optiga/externals/mbedtls/library\x509_crt.c **** };
 137:C:/Users/Yushev/git/wpcqi-optiga-trust-charge/optiga/externals/mbedtls/library\x509_crt.c **** 
 138:C:/Users/Yushev/git/wpcqi-optiga-trust-charge/optiga/externals/mbedtls/library\x509_crt.c **** /*
 139:C:/Users/Yushev/git/wpcqi-optiga-trust-charge/optiga/externals/mbedtls/library\x509_crt.c ****  * NSA Suite B Profile
 140:C:/Users/Yushev/git/wpcqi-optiga-trust-charge/optiga/externals/mbedtls/library\x509_crt.c ****  */
 141:C:/Users/Yushev/git/wpcqi-optiga-trust-charge/optiga/externals/mbedtls/library\x509_crt.c **** const mbedtls_x509_crt_profile mbedtls_x509_crt_profile_suiteb =
 142:C:/Users/Yushev/git/wpcqi-optiga-trust-charge/optiga/externals/mbedtls/library\x509_crt.c **** {
 143:C:/Users/Yushev/git/wpcqi-optiga-trust-charge/optiga/externals/mbedtls/library\x509_crt.c ****     /* Only SHA-256 and 384 */
 144:C:/Users/Yushev/git/wpcqi-optiga-trust-charge/optiga/externals/mbedtls/library\x509_crt.c ****     MBEDTLS_X509_ID_FLAG( MBEDTLS_MD_SHA256 ) |
 145:C:/Users/Yushev/git/wpcqi-optiga-trust-charge/optiga/externals/mbedtls/library\x509_crt.c ****     MBEDTLS_X509_ID_FLAG( MBEDTLS_MD_SHA384 ),
 146:C:/Users/Yushev/git/wpcqi-optiga-trust-charge/optiga/externals/mbedtls/library\x509_crt.c ****     /* Only ECDSA */
 147:C:/Users/Yushev/git/wpcqi-optiga-trust-charge/optiga/externals/mbedtls/library\x509_crt.c ****     MBEDTLS_X509_ID_FLAG( MBEDTLS_PK_ECDSA ) |
 148:C:/Users/Yushev/git/wpcqi-optiga-trust-charge/optiga/externals/mbedtls/library\x509_crt.c ****     MBEDTLS_X509_ID_FLAG( MBEDTLS_PK_ECKEY ),
 149:C:/Users/Yushev/git/wpcqi-optiga-trust-charge/optiga/externals/mbedtls/library\x509_crt.c **** #if defined(MBEDTLS_ECP_C)
 150:C:/Users/Yushev/git/wpcqi-optiga-trust-charge/optiga/externals/mbedtls/library\x509_crt.c ****     /* Only NIST P-256 and P-384 */
 151:C:/Users/Yushev/git/wpcqi-optiga-trust-charge/optiga/externals/mbedtls/library\x509_crt.c ****     MBEDTLS_X509_ID_FLAG( MBEDTLS_ECP_DP_SECP256R1 ) |
 152:C:/Users/Yushev/git/wpcqi-optiga-trust-charge/optiga/externals/mbedtls/library\x509_crt.c ****     MBEDTLS_X509_ID_FLAG( MBEDTLS_ECP_DP_SECP384R1 ),
 153:C:/Users/Yushev/git/wpcqi-optiga-trust-charge/optiga/externals/mbedtls/library\x509_crt.c **** #else
 154:C:/Users/Yushev/git/wpcqi-optiga-trust-charge/optiga/externals/mbedtls/library\x509_crt.c ****     0,
 155:C:/Users/Yushev/git/wpcqi-optiga-trust-charge/optiga/externals/mbedtls/library\x509_crt.c **** #endif
 156:C:/Users/Yushev/git/wpcqi-optiga-trust-charge/optiga/externals/mbedtls/library\x509_crt.c ****     0,
 157:C:/Users/Yushev/git/wpcqi-optiga-trust-charge/optiga/externals/mbedtls/library\x509_crt.c **** };
 158:C:/Users/Yushev/git/wpcqi-optiga-trust-charge/optiga/externals/mbedtls/library\x509_crt.c **** 
 159:C:/Users/Yushev/git/wpcqi-optiga-trust-charge/optiga/externals/mbedtls/library\x509_crt.c **** /*
 160:C:/Users/Yushev/git/wpcqi-optiga-trust-charge/optiga/externals/mbedtls/library\x509_crt.c ****  * Check md_alg against profile
 161:C:/Users/Yushev/git/wpcqi-optiga-trust-charge/optiga/externals/mbedtls/library\x509_crt.c ****  * Return 0 if md_alg is acceptable for this profile, -1 otherwise
 162:C:/Users/Yushev/git/wpcqi-optiga-trust-charge/optiga/externals/mbedtls/library\x509_crt.c ****  */
 163:C:/Users/Yushev/git/wpcqi-optiga-trust-charge/optiga/externals/mbedtls/library\x509_crt.c **** static int x509_profile_check_md_alg( const mbedtls_x509_crt_profile *profile,
 164:C:/Users/Yushev/git/wpcqi-optiga-trust-charge/optiga/externals/mbedtls/library\x509_crt.c ****                                       mbedtls_md_type_t md_alg )
 165:C:/Users/Yushev/git/wpcqi-optiga-trust-charge/optiga/externals/mbedtls/library\x509_crt.c **** {
 101              	 .loc 2 165 0
 102              	 .cfi_startproc
 103              	 
 104              	 
 105              	 
 106 0000 80B4     	 push {r7}
 107              	.LCFI6:
 108              	 .cfi_def_cfa_offset 4
 109              	 .cfi_offset 7,-4
 110 0002 83B0     	 sub sp,sp,#12
 111              	.LCFI7:
 112              	 .cfi_def_cfa_offset 16
 113 0004 00AF     	 add r7,sp,#0
 114              	.LCFI8:
 115              	 .cfi_def_cfa_register 7
 116 0006 7860     	 str r0,[r7,#4]
 117 0008 0B46     	 mov r3,r1
 118 000a FB70     	 strb r3,[r7,#3]
 166:C:/Users/Yushev/git/wpcqi-optiga-trust-charge/optiga/externals/mbedtls/library\x509_crt.c ****     if( md_alg == MBEDTLS_MD_NONE )
 119              	 .loc 2 166 0
 120 000c FB78     	 ldrb r3,[r7,#3]
 121 000e 002B     	 cmp r3,#0
 122 0010 02D1     	 bne .L4
 167:C:/Users/Yushev/git/wpcqi-optiga-trust-charge/optiga/externals/mbedtls/library\x509_crt.c ****         return( -1 );
 123              	 .loc 2 167 0
 124 0012 4FF0FF33 	 mov r3,#-1
 125 0016 0DE0     	 b .L5
 126              	.L4:
 168:C:/Users/Yushev/git/wpcqi-optiga-trust-charge/optiga/externals/mbedtls/library\x509_crt.c **** 
 169:C:/Users/Yushev/git/wpcqi-optiga-trust-charge/optiga/externals/mbedtls/library\x509_crt.c ****     if( ( profile->allowed_mds & MBEDTLS_X509_ID_FLAG( md_alg ) ) != 0 )
 127              	 .loc 2 169 0
 128 0018 7B68     	 ldr r3,[r7,#4]
 129 001a 1B68     	 ldr r3,[r3]
 130 001c FA78     	 ldrb r2,[r7,#3]
 131 001e 013A     	 subs r2,r2,#1
 132 0020 0121     	 movs r1,#1
 133 0022 01FA02F2 	 lsl r2,r1,r2
 134 0026 1340     	 ands r3,r3,r2
 135 0028 002B     	 cmp r3,#0
 136 002a 01D0     	 beq .L6
 170:C:/Users/Yushev/git/wpcqi-optiga-trust-charge/optiga/externals/mbedtls/library\x509_crt.c ****         return( 0 );
 137              	 .loc 2 170 0
 138 002c 0023     	 movs r3,#0
 139 002e 01E0     	 b .L5
 140              	.L6:
 171:C:/Users/Yushev/git/wpcqi-optiga-trust-charge/optiga/externals/mbedtls/library\x509_crt.c **** 
 172:C:/Users/Yushev/git/wpcqi-optiga-trust-charge/optiga/externals/mbedtls/library\x509_crt.c ****     return( -1 );
 141              	 .loc 2 172 0
 142 0030 4FF0FF33 	 mov r3,#-1
 143              	.L5:
 173:C:/Users/Yushev/git/wpcqi-optiga-trust-charge/optiga/externals/mbedtls/library\x509_crt.c **** }
 144              	 .loc 2 173 0
 145 0034 1846     	 mov r0,r3
 146 0036 0C37     	 adds r7,r7,#12
 147              	.LCFI9:
 148              	 .cfi_def_cfa_offset 4
 149 0038 BD46     	 mov sp,r7
 150              	.LCFI10:
 151              	 .cfi_def_cfa_register 13
 152              	 
 153 003a 5DF8047B 	 ldr r7,[sp],#4
 154              	.LCFI11:
 155              	 .cfi_restore 7
 156              	 .cfi_def_cfa_offset 0
 157 003e 7047     	 bx lr
 158              	 .cfi_endproc
 159              	.LFE9:
 161              	 .section .text.x509_profile_check_pk_alg,"ax",%progbits
 162              	 .align 2
 163              	 .thumb
 164              	 .thumb_func
 166              	x509_profile_check_pk_alg:
 167              	.LFB10:
 174:C:/Users/Yushev/git/wpcqi-optiga-trust-charge/optiga/externals/mbedtls/library\x509_crt.c **** 
 175:C:/Users/Yushev/git/wpcqi-optiga-trust-charge/optiga/externals/mbedtls/library\x509_crt.c **** /*
 176:C:/Users/Yushev/git/wpcqi-optiga-trust-charge/optiga/externals/mbedtls/library\x509_crt.c ****  * Check pk_alg against profile
 177:C:/Users/Yushev/git/wpcqi-optiga-trust-charge/optiga/externals/mbedtls/library\x509_crt.c ****  * Return 0 if pk_alg is acceptable for this profile, -1 otherwise
 178:C:/Users/Yushev/git/wpcqi-optiga-trust-charge/optiga/externals/mbedtls/library\x509_crt.c ****  */
 179:C:/Users/Yushev/git/wpcqi-optiga-trust-charge/optiga/externals/mbedtls/library\x509_crt.c **** static int x509_profile_check_pk_alg( const mbedtls_x509_crt_profile *profile,
 180:C:/Users/Yushev/git/wpcqi-optiga-trust-charge/optiga/externals/mbedtls/library\x509_crt.c ****                                       mbedtls_pk_type_t pk_alg )
 181:C:/Users/Yushev/git/wpcqi-optiga-trust-charge/optiga/externals/mbedtls/library\x509_crt.c **** {
 168              	 .loc 2 181 0
 169              	 .cfi_startproc
 170              	 
 171              	 
 172              	 
 173 0000 80B4     	 push {r7}
 174              	.LCFI12:
 175              	 .cfi_def_cfa_offset 4
 176              	 .cfi_offset 7,-4
 177 0002 83B0     	 sub sp,sp,#12
 178              	.LCFI13:
 179              	 .cfi_def_cfa_offset 16
 180 0004 00AF     	 add r7,sp,#0
 181              	.LCFI14:
 182              	 .cfi_def_cfa_register 7
 183 0006 7860     	 str r0,[r7,#4]
 184 0008 0B46     	 mov r3,r1
 185 000a FB70     	 strb r3,[r7,#3]
 182:C:/Users/Yushev/git/wpcqi-optiga-trust-charge/optiga/externals/mbedtls/library\x509_crt.c ****     if( pk_alg == MBEDTLS_PK_NONE )
 186              	 .loc 2 182 0
 187 000c FB78     	 ldrb r3,[r7,#3]
 188 000e 002B     	 cmp r3,#0
 189 0010 02D1     	 bne .L8
 183:C:/Users/Yushev/git/wpcqi-optiga-trust-charge/optiga/externals/mbedtls/library\x509_crt.c ****         return( -1 );
 190              	 .loc 2 183 0
 191 0012 4FF0FF33 	 mov r3,#-1
 192 0016 0DE0     	 b .L9
 193              	.L8:
 184:C:/Users/Yushev/git/wpcqi-optiga-trust-charge/optiga/externals/mbedtls/library\x509_crt.c **** 
 185:C:/Users/Yushev/git/wpcqi-optiga-trust-charge/optiga/externals/mbedtls/library\x509_crt.c ****     if( ( profile->allowed_pks & MBEDTLS_X509_ID_FLAG( pk_alg ) ) != 0 )
 194              	 .loc 2 185 0
 195 0018 7B68     	 ldr r3,[r7,#4]
 196 001a 5B68     	 ldr r3,[r3,#4]
 197 001c FA78     	 ldrb r2,[r7,#3]
 198 001e 013A     	 subs r2,r2,#1
 199 0020 0121     	 movs r1,#1
 200 0022 01FA02F2 	 lsl r2,r1,r2
 201 0026 1340     	 ands r3,r3,r2
 202 0028 002B     	 cmp r3,#0
 203 002a 01D0     	 beq .L10
 186:C:/Users/Yushev/git/wpcqi-optiga-trust-charge/optiga/externals/mbedtls/library\x509_crt.c ****         return( 0 );
 204              	 .loc 2 186 0
 205 002c 0023     	 movs r3,#0
 206 002e 01E0     	 b .L9
 207              	.L10:
 187:C:/Users/Yushev/git/wpcqi-optiga-trust-charge/optiga/externals/mbedtls/library\x509_crt.c **** 
 188:C:/Users/Yushev/git/wpcqi-optiga-trust-charge/optiga/externals/mbedtls/library\x509_crt.c ****     return( -1 );
 208              	 .loc 2 188 0
 209 0030 4FF0FF33 	 mov r3,#-1
 210              	.L9:
 189:C:/Users/Yushev/git/wpcqi-optiga-trust-charge/optiga/externals/mbedtls/library\x509_crt.c **** }
 211              	 .loc 2 189 0
 212 0034 1846     	 mov r0,r3
 213 0036 0C37     	 adds r7,r7,#12
 214              	.LCFI15:
 215              	 .cfi_def_cfa_offset 4
 216 0038 BD46     	 mov sp,r7
 217              	.LCFI16:
 218              	 .cfi_def_cfa_register 13
 219              	 
 220 003a 5DF8047B 	 ldr r7,[sp],#4
 221              	.LCFI17:
 222              	 .cfi_restore 7
 223              	 .cfi_def_cfa_offset 0
 224 003e 7047     	 bx lr
 225              	 .cfi_endproc
 226              	.LFE10:
 228              	 .section .text.x509_profile_check_key,"ax",%progbits
 229              	 .align 2
 230              	 .thumb
 231              	 .thumb_func
 233              	x509_profile_check_key:
 234              	.LFB11:
 190:C:/Users/Yushev/git/wpcqi-optiga-trust-charge/optiga/externals/mbedtls/library\x509_crt.c **** 
 191:C:/Users/Yushev/git/wpcqi-optiga-trust-charge/optiga/externals/mbedtls/library\x509_crt.c **** /*
 192:C:/Users/Yushev/git/wpcqi-optiga-trust-charge/optiga/externals/mbedtls/library\x509_crt.c ****  * Check key against profile
 193:C:/Users/Yushev/git/wpcqi-optiga-trust-charge/optiga/externals/mbedtls/library\x509_crt.c ****  * Return 0 if pk is acceptable for this profile, -1 otherwise
 194:C:/Users/Yushev/git/wpcqi-optiga-trust-charge/optiga/externals/mbedtls/library\x509_crt.c ****  */
 195:C:/Users/Yushev/git/wpcqi-optiga-trust-charge/optiga/externals/mbedtls/library\x509_crt.c **** static int x509_profile_check_key( const mbedtls_x509_crt_profile *profile,
 196:C:/Users/Yushev/git/wpcqi-optiga-trust-charge/optiga/externals/mbedtls/library\x509_crt.c ****                                    const mbedtls_pk_context *pk )
 197:C:/Users/Yushev/git/wpcqi-optiga-trust-charge/optiga/externals/mbedtls/library\x509_crt.c **** {
 235              	 .loc 2 197 0
 236              	 .cfi_startproc
 237              	 
 238              	 
 239 0000 80B5     	 push {r7,lr}
 240              	.LCFI18:
 241              	 .cfi_def_cfa_offset 8
 242              	 .cfi_offset 7,-8
 243              	 .cfi_offset 14,-4
 244 0002 84B0     	 sub sp,sp,#16
 245              	.LCFI19:
 246              	 .cfi_def_cfa_offset 24
 247 0004 00AF     	 add r7,sp,#0
 248              	.LCFI20:
 249              	 .cfi_def_cfa_register 7
 250 0006 7860     	 str r0,[r7,#4]
 251 0008 3960     	 str r1,[r7]
 198:C:/Users/Yushev/git/wpcqi-optiga-trust-charge/optiga/externals/mbedtls/library\x509_crt.c ****     const mbedtls_pk_type_t pk_alg = mbedtls_pk_get_type( pk );
 252              	 .loc 2 198 0
 253 000a 3868     	 ldr r0,[r7]
 254 000c FFF7FEFF 	 bl mbedtls_pk_get_type
 255 0010 0346     	 mov r3,r0
 256 0012 FB73     	 strb r3,[r7,#15]
 199:C:/Users/Yushev/git/wpcqi-optiga-trust-charge/optiga/externals/mbedtls/library\x509_crt.c **** 
 200:C:/Users/Yushev/git/wpcqi-optiga-trust-charge/optiga/externals/mbedtls/library\x509_crt.c **** #if defined(MBEDTLS_RSA_C)
 201:C:/Users/Yushev/git/wpcqi-optiga-trust-charge/optiga/externals/mbedtls/library\x509_crt.c ****     if( pk_alg == MBEDTLS_PK_RSA || pk_alg == MBEDTLS_PK_RSASSA_PSS )
 202:C:/Users/Yushev/git/wpcqi-optiga-trust-charge/optiga/externals/mbedtls/library\x509_crt.c ****     {
 203:C:/Users/Yushev/git/wpcqi-optiga-trust-charge/optiga/externals/mbedtls/library\x509_crt.c ****         if( mbedtls_pk_get_bitlen( pk ) >= profile->rsa_min_bitlen )
 204:C:/Users/Yushev/git/wpcqi-optiga-trust-charge/optiga/externals/mbedtls/library\x509_crt.c ****             return( 0 );
 205:C:/Users/Yushev/git/wpcqi-optiga-trust-charge/optiga/externals/mbedtls/library\x509_crt.c **** 
 206:C:/Users/Yushev/git/wpcqi-optiga-trust-charge/optiga/externals/mbedtls/library\x509_crt.c ****         return( -1 );
 207:C:/Users/Yushev/git/wpcqi-optiga-trust-charge/optiga/externals/mbedtls/library\x509_crt.c ****     }
 208:C:/Users/Yushev/git/wpcqi-optiga-trust-charge/optiga/externals/mbedtls/library\x509_crt.c **** #endif
 209:C:/Users/Yushev/git/wpcqi-optiga-trust-charge/optiga/externals/mbedtls/library\x509_crt.c **** 
 210:C:/Users/Yushev/git/wpcqi-optiga-trust-charge/optiga/externals/mbedtls/library\x509_crt.c **** #if defined(MBEDTLS_ECP_C)
 211:C:/Users/Yushev/git/wpcqi-optiga-trust-charge/optiga/externals/mbedtls/library\x509_crt.c ****     if( pk_alg == MBEDTLS_PK_ECDSA ||
 257              	 .loc 2 211 0
 258 0014 FB7B     	 ldrb r3,[r7,#15]
 259 0016 042B     	 cmp r3,#4
 260 0018 05D0     	 beq .L12
 261              	 .loc 2 211 0 is_stmt 0 discriminator 1
 262 001a FB7B     	 ldrb r3,[r7,#15]
 263 001c 022B     	 cmp r3,#2
 264 001e 02D0     	 beq .L12
 212:C:/Users/Yushev/git/wpcqi-optiga-trust-charge/optiga/externals/mbedtls/library\x509_crt.c ****         pk_alg == MBEDTLS_PK_ECKEY ||
 265              	 .loc 2 212 0 is_stmt 1
 266 0020 FB7B     	 ldrb r3,[r7,#15]
 267 0022 032B     	 cmp r3,#3
 268 0024 1CD1     	 bne .L13
 269              	.L12:
 270              	.LBB2:
 213:C:/Users/Yushev/git/wpcqi-optiga-trust-charge/optiga/externals/mbedtls/library\x509_crt.c ****         pk_alg == MBEDTLS_PK_ECKEY_DH )
 214:C:/Users/Yushev/git/wpcqi-optiga-trust-charge/optiga/externals/mbedtls/library\x509_crt.c ****     {
 215:C:/Users/Yushev/git/wpcqi-optiga-trust-charge/optiga/externals/mbedtls/library\x509_crt.c ****         const mbedtls_ecp_group_id gid = mbedtls_pk_ec( *pk )->grp.id;
 271              	 .loc 2 215 0
 272 0026 3B68     	 ldr r3,[r7]
 273 0028 93E80300 	 ldmia r3,{r0,r1}
 274 002c FFF7FEFF 	 bl mbedtls_pk_ec
 275 0030 0346     	 mov r3,r0
 276 0032 1B78     	 ldrb r3,[r3]
 277 0034 BB73     	 strb r3,[r7,#14]
 216:C:/Users/Yushev/git/wpcqi-optiga-trust-charge/optiga/externals/mbedtls/library\x509_crt.c **** 
 217:C:/Users/Yushev/git/wpcqi-optiga-trust-charge/optiga/externals/mbedtls/library\x509_crt.c ****         if( gid == MBEDTLS_ECP_DP_NONE )
 278              	 .loc 2 217 0
 279 0036 BB7B     	 ldrb r3,[r7,#14]
 280 0038 002B     	 cmp r3,#0
 281 003a 02D1     	 bne .L14
 218:C:/Users/Yushev/git/wpcqi-optiga-trust-charge/optiga/externals/mbedtls/library\x509_crt.c ****             return( -1 );
 282              	 .loc 2 218 0
 283 003c 4FF0FF33 	 mov r3,#-1
 284 0040 10E0     	 b .L15
 285              	.L14:
 219:C:/Users/Yushev/git/wpcqi-optiga-trust-charge/optiga/externals/mbedtls/library\x509_crt.c **** 
 220:C:/Users/Yushev/git/wpcqi-optiga-trust-charge/optiga/externals/mbedtls/library\x509_crt.c ****         if( ( profile->allowed_curves & MBEDTLS_X509_ID_FLAG( gid ) ) != 0 )
 286              	 .loc 2 220 0
 287 0042 7B68     	 ldr r3,[r7,#4]
 288 0044 9B68     	 ldr r3,[r3,#8]
 289 0046 BA7B     	 ldrb r2,[r7,#14]
 290 0048 013A     	 subs r2,r2,#1
 291 004a 0121     	 movs r1,#1
 292 004c 01FA02F2 	 lsl r2,r1,r2
 293 0050 1340     	 ands r3,r3,r2
 294 0052 002B     	 cmp r3,#0
 295 0054 01D0     	 beq .L16
 221:C:/Users/Yushev/git/wpcqi-optiga-trust-charge/optiga/externals/mbedtls/library\x509_crt.c ****             return( 0 );
 296              	 .loc 2 221 0
 297 0056 0023     	 movs r3,#0
 298 0058 04E0     	 b .L15
 299              	.L16:
 222:C:/Users/Yushev/git/wpcqi-optiga-trust-charge/optiga/externals/mbedtls/library\x509_crt.c **** 
 223:C:/Users/Yushev/git/wpcqi-optiga-trust-charge/optiga/externals/mbedtls/library\x509_crt.c ****         return( -1 );
 300              	 .loc 2 223 0
 301 005a 4FF0FF33 	 mov r3,#-1
 302 005e 01E0     	 b .L15
 303              	.L13:
 304              	.LBE2:
 224:C:/Users/Yushev/git/wpcqi-optiga-trust-charge/optiga/externals/mbedtls/library\x509_crt.c ****     }
 225:C:/Users/Yushev/git/wpcqi-optiga-trust-charge/optiga/externals/mbedtls/library\x509_crt.c **** #endif
 226:C:/Users/Yushev/git/wpcqi-optiga-trust-charge/optiga/externals/mbedtls/library\x509_crt.c **** 
 227:C:/Users/Yushev/git/wpcqi-optiga-trust-charge/optiga/externals/mbedtls/library\x509_crt.c ****     return( -1 );
 305              	 .loc 2 227 0
 306 0060 4FF0FF33 	 mov r3,#-1
 307              	.L15:
 228:C:/Users/Yushev/git/wpcqi-optiga-trust-charge/optiga/externals/mbedtls/library\x509_crt.c **** }
 308              	 .loc 2 228 0
 309 0064 1846     	 mov r0,r3
 310 0066 1037     	 adds r7,r7,#16
 311              	.LCFI21:
 312              	 .cfi_def_cfa_offset 8
 313 0068 BD46     	 mov sp,r7
 314              	.LCFI22:
 315              	 .cfi_def_cfa_register 13
 316              	 
 317 006a 80BD     	 pop {r7,pc}
 318              	 .cfi_endproc
 319              	.LFE11:
 321              	 .section .text.x509_memcasecmp,"ax",%progbits
 322              	 .align 2
 323              	 .thumb
 324              	 .thumb_func
 326              	x509_memcasecmp:
 327              	.LFB12:
 229:C:/Users/Yushev/git/wpcqi-optiga-trust-charge/optiga/externals/mbedtls/library\x509_crt.c **** 
 230:C:/Users/Yushev/git/wpcqi-optiga-trust-charge/optiga/externals/mbedtls/library\x509_crt.c **** /*
 231:C:/Users/Yushev/git/wpcqi-optiga-trust-charge/optiga/externals/mbedtls/library\x509_crt.c ****  * Like memcmp, but case-insensitive and always returns -1 if different
 232:C:/Users/Yushev/git/wpcqi-optiga-trust-charge/optiga/externals/mbedtls/library\x509_crt.c ****  */
 233:C:/Users/Yushev/git/wpcqi-optiga-trust-charge/optiga/externals/mbedtls/library\x509_crt.c **** static int x509_memcasecmp( const void *s1, const void *s2, size_t len )
 234:C:/Users/Yushev/git/wpcqi-optiga-trust-charge/optiga/externals/mbedtls/library\x509_crt.c **** {
 328              	 .loc 2 234 0
 329              	 .cfi_startproc
 330              	 
 331              	 
 332              	 
 333 0000 80B4     	 push {r7}
 334              	.LCFI23:
 335              	 .cfi_def_cfa_offset 4
 336              	 .cfi_offset 7,-4
 337 0002 89B0     	 sub sp,sp,#36
 338              	.LCFI24:
 339              	 .cfi_def_cfa_offset 40
 340 0004 00AF     	 add r7,sp,#0
 341              	.LCFI25:
 342              	 .cfi_def_cfa_register 7
 343 0006 F860     	 str r0,[r7,#12]
 344 0008 B960     	 str r1,[r7,#8]
 345 000a 7A60     	 str r2,[r7,#4]
 235:C:/Users/Yushev/git/wpcqi-optiga-trust-charge/optiga/externals/mbedtls/library\x509_crt.c ****     size_t i;
 236:C:/Users/Yushev/git/wpcqi-optiga-trust-charge/optiga/externals/mbedtls/library\x509_crt.c ****     unsigned char diff;
 237:C:/Users/Yushev/git/wpcqi-optiga-trust-charge/optiga/externals/mbedtls/library\x509_crt.c ****     const unsigned char *n1 = s1, *n2 = s2;
 346              	 .loc 2 237 0
 347 000c FB68     	 ldr r3,[r7,#12]
 348 000e BB61     	 str r3,[r7,#24]
 349 0010 BB68     	 ldr r3,[r7,#8]
 350 0012 7B61     	 str r3,[r7,#20]
 238:C:/Users/Yushev/git/wpcqi-optiga-trust-charge/optiga/externals/mbedtls/library\x509_crt.c **** 
 239:C:/Users/Yushev/git/wpcqi-optiga-trust-charge/optiga/externals/mbedtls/library\x509_crt.c ****     for( i = 0; i < len; i++ )
 351              	 .loc 2 239 0
 352 0014 0023     	 movs r3,#0
 353 0016 FB61     	 str r3,[r7,#28]
 354 0018 2FE0     	 b .L18
 355              	.L25:
 240:C:/Users/Yushev/git/wpcqi-optiga-trust-charge/optiga/externals/mbedtls/library\x509_crt.c ****     {
 241:C:/Users/Yushev/git/wpcqi-optiga-trust-charge/optiga/externals/mbedtls/library\x509_crt.c ****         diff = n1[i] ^ n2[i];
 356              	 .loc 2 241 0
 357 001a BA69     	 ldr r2,[r7,#24]
 358 001c FB69     	 ldr r3,[r7,#28]
 359 001e 1344     	 add r3,r3,r2
 360 0020 1A78     	 ldrb r2,[r3]
 361 0022 7969     	 ldr r1,[r7,#20]
 362 0024 FB69     	 ldr r3,[r7,#28]
 363 0026 0B44     	 add r3,r3,r1
 364 0028 1B78     	 ldrb r3,[r3]
 365 002a 5340     	 eors r3,r3,r2
 366 002c FB74     	 strb r3,[r7,#19]
 242:C:/Users/Yushev/git/wpcqi-optiga-trust-charge/optiga/externals/mbedtls/library\x509_crt.c **** 
 243:C:/Users/Yushev/git/wpcqi-optiga-trust-charge/optiga/externals/mbedtls/library\x509_crt.c ****         if( diff == 0 )
 367              	 .loc 2 243 0
 368 002e FB7C     	 ldrb r3,[r7,#19]
 369 0030 002B     	 cmp r3,#0
 370 0032 00D1     	 bne .L19
 244:C:/Users/Yushev/git/wpcqi-optiga-trust-charge/optiga/externals/mbedtls/library\x509_crt.c ****             continue;
 371              	 .loc 2 244 0
 372 0034 1EE0     	 b .L20
 373              	.L19:
 245:C:/Users/Yushev/git/wpcqi-optiga-trust-charge/optiga/externals/mbedtls/library\x509_crt.c **** 
 246:C:/Users/Yushev/git/wpcqi-optiga-trust-charge/optiga/externals/mbedtls/library\x509_crt.c ****         if( diff == 32 &&
 374              	 .loc 2 246 0
 375 0036 FB7C     	 ldrb r3,[r7,#19]
 376 0038 202B     	 cmp r3,#32
 377 003a 18D1     	 bne .L21
 247:C:/Users/Yushev/git/wpcqi-optiga-trust-charge/optiga/externals/mbedtls/library\x509_crt.c ****             ( ( n1[i] >= 'a' && n1[i] <= 'z' ) ||
 378              	 .loc 2 247 0 discriminator 1
 379 003c BA69     	 ldr r2,[r7,#24]
 380 003e FB69     	 ldr r3,[r7,#28]
 381 0040 1344     	 add r3,r3,r2
 382 0042 1B78     	 ldrb r3,[r3]
 246:C:/Users/Yushev/git/wpcqi-optiga-trust-charge/optiga/externals/mbedtls/library\x509_crt.c ****             ( ( n1[i] >= 'a' && n1[i] <= 'z' ) ||
 383              	 .loc 2 246 0 discriminator 1
 384 0044 602B     	 cmp r3,#96
 385 0046 05D9     	 bls .L22
 386              	 .loc 2 247 0
 387 0048 BA69     	 ldr r2,[r7,#24]
 388 004a FB69     	 ldr r3,[r7,#28]
 389 004c 1344     	 add r3,r3,r2
 390 004e 1B78     	 ldrb r3,[r3]
 391 0050 7A2B     	 cmp r3,#122
 392 0052 0BD9     	 bls .L23
 393              	.L22:
 248:C:/Users/Yushev/git/wpcqi-optiga-trust-charge/optiga/externals/mbedtls/library\x509_crt.c ****               ( n1[i] >= 'A' && n1[i] <= 'Z' ) ) )
 394              	 .loc 2 248 0 discriminator 1
 395 0054 BA69     	 ldr r2,[r7,#24]
 396 0056 FB69     	 ldr r3,[r7,#28]
 397 0058 1344     	 add r3,r3,r2
 398 005a 1B78     	 ldrb r3,[r3]
 247:C:/Users/Yushev/git/wpcqi-optiga-trust-charge/optiga/externals/mbedtls/library\x509_crt.c ****             ( ( n1[i] >= 'a' && n1[i] <= 'z' ) ||
 399              	 .loc 2 247 0 discriminator 1
 400 005c 402B     	 cmp r3,#64
 401 005e 06D9     	 bls .L21
 402              	 .loc 2 248 0
 403 0060 BA69     	 ldr r2,[r7,#24]
 404 0062 FB69     	 ldr r3,[r7,#28]
 405 0064 1344     	 add r3,r3,r2
 406 0066 1B78     	 ldrb r3,[r3]
 407 0068 5A2B     	 cmp r3,#90
 408 006a 00D8     	 bhi .L21
 409              	.L23:
 249:C:/Users/Yushev/git/wpcqi-optiga-trust-charge/optiga/externals/mbedtls/library\x509_crt.c ****         {
 250:C:/Users/Yushev/git/wpcqi-optiga-trust-charge/optiga/externals/mbedtls/library\x509_crt.c ****             continue;
 410              	 .loc 2 250 0
 411 006c 02E0     	 b .L20
 412              	.L21:
 251:C:/Users/Yushev/git/wpcqi-optiga-trust-charge/optiga/externals/mbedtls/library\x509_crt.c ****         }
 252:C:/Users/Yushev/git/wpcqi-optiga-trust-charge/optiga/externals/mbedtls/library\x509_crt.c **** 
 253:C:/Users/Yushev/git/wpcqi-optiga-trust-charge/optiga/externals/mbedtls/library\x509_crt.c ****         return( -1 );
 413              	 .loc 2 253 0
 414 006e 4FF0FF33 	 mov r3,#-1
 415 0072 07E0     	 b .L24
 416              	.L20:
 239:C:/Users/Yushev/git/wpcqi-optiga-trust-charge/optiga/externals/mbedtls/library\x509_crt.c ****     {
 417              	 .loc 2 239 0 discriminator 2
 418 0074 FB69     	 ldr r3,[r7,#28]
 419 0076 0133     	 adds r3,r3,#1
 420 0078 FB61     	 str r3,[r7,#28]
 421              	.L18:
 239:C:/Users/Yushev/git/wpcqi-optiga-trust-charge/optiga/externals/mbedtls/library\x509_crt.c ****     {
 422              	 .loc 2 239 0 is_stmt 0 discriminator 1
 423 007a FA69     	 ldr r2,[r7,#28]
 424 007c 7B68     	 ldr r3,[r7,#4]
 425 007e 9A42     	 cmp r2,r3
 426 0080 CBD3     	 bcc .L25
 254:C:/Users/Yushev/git/wpcqi-optiga-trust-charge/optiga/externals/mbedtls/library\x509_crt.c ****     }
 255:C:/Users/Yushev/git/wpcqi-optiga-trust-charge/optiga/externals/mbedtls/library\x509_crt.c **** 
 256:C:/Users/Yushev/git/wpcqi-optiga-trust-charge/optiga/externals/mbedtls/library\x509_crt.c ****     return( 0 );
 427              	 .loc 2 256 0 is_stmt 1
 428 0082 0023     	 movs r3,#0
 429              	.L24:
 257:C:/Users/Yushev/git/wpcqi-optiga-trust-charge/optiga/externals/mbedtls/library\x509_crt.c **** }
 430              	 .loc 2 257 0
 431 0084 1846     	 mov r0,r3
 432 0086 2437     	 adds r7,r7,#36
 433              	.LCFI26:
 434              	 .cfi_def_cfa_offset 4
 435 0088 BD46     	 mov sp,r7
 436              	.LCFI27:
 437              	 .cfi_def_cfa_register 13
 438              	 
 439 008a 5DF8047B 	 ldr r7,[sp],#4
 440              	.LCFI28:
 441              	 .cfi_restore 7
 442              	 .cfi_def_cfa_offset 0
 443 008e 7047     	 bx lr
 444              	 .cfi_endproc
 445              	.LFE12:
 447              	 .section .text.x509_check_wildcard,"ax",%progbits
 448              	 .align 2
 449              	 .thumb
 450              	 .thumb_func
 452              	x509_check_wildcard:
 453              	.LFB13:
 258:C:/Users/Yushev/git/wpcqi-optiga-trust-charge/optiga/externals/mbedtls/library\x509_crt.c **** 
 259:C:/Users/Yushev/git/wpcqi-optiga-trust-charge/optiga/externals/mbedtls/library\x509_crt.c **** /*
 260:C:/Users/Yushev/git/wpcqi-optiga-trust-charge/optiga/externals/mbedtls/library\x509_crt.c ****  * Return 0 if name matches wildcard, -1 otherwise
 261:C:/Users/Yushev/git/wpcqi-optiga-trust-charge/optiga/externals/mbedtls/library\x509_crt.c ****  */
 262:C:/Users/Yushev/git/wpcqi-optiga-trust-charge/optiga/externals/mbedtls/library\x509_crt.c **** static int x509_check_wildcard( const char *cn, const mbedtls_x509_buf *name )
 263:C:/Users/Yushev/git/wpcqi-optiga-trust-charge/optiga/externals/mbedtls/library\x509_crt.c **** {
 454              	 .loc 2 263 0
 455              	 .cfi_startproc
 456              	 
 457              	 
 458 0000 80B5     	 push {r7,lr}
 459              	.LCFI29:
 460              	 .cfi_def_cfa_offset 8
 461              	 .cfi_offset 7,-8
 462              	 .cfi_offset 14,-4
 463 0002 86B0     	 sub sp,sp,#24
 464              	.LCFI30:
 465              	 .cfi_def_cfa_offset 32
 466 0004 00AF     	 add r7,sp,#0
 467              	.LCFI31:
 468              	 .cfi_def_cfa_register 7
 469 0006 7860     	 str r0,[r7,#4]
 470 0008 3960     	 str r1,[r7]
 264:C:/Users/Yushev/git/wpcqi-optiga-trust-charge/optiga/externals/mbedtls/library\x509_crt.c ****     size_t i;
 265:C:/Users/Yushev/git/wpcqi-optiga-trust-charge/optiga/externals/mbedtls/library\x509_crt.c ****     size_t cn_idx = 0, cn_len = strlen( cn );
 471              	 .loc 2 265 0
 472 000a 0023     	 movs r3,#0
 473 000c 3B61     	 str r3,[r7,#16]
 474 000e 7868     	 ldr r0,[r7,#4]
 475 0010 FFF7FEFF 	 bl strlen
 476 0014 F860     	 str r0,[r7,#12]
 266:C:/Users/Yushev/git/wpcqi-optiga-trust-charge/optiga/externals/mbedtls/library\x509_crt.c **** 
 267:C:/Users/Yushev/git/wpcqi-optiga-trust-charge/optiga/externals/mbedtls/library\x509_crt.c ****     /* We can't have a match if there is no wildcard to match */
 268:C:/Users/Yushev/git/wpcqi-optiga-trust-charge/optiga/externals/mbedtls/library\x509_crt.c ****     if( name->len < 3 || name->p[0] != '*' || name->p[1] != '.' )
 477              	 .loc 2 268 0
 478 0016 3B68     	 ldr r3,[r7]
 479 0018 5B68     	 ldr r3,[r3,#4]
 480 001a 022B     	 cmp r3,#2
 481 001c 0AD9     	 bls .L27
 482              	 .loc 2 268 0 is_stmt 0 discriminator 1
 483 001e 3B68     	 ldr r3,[r7]
 484 0020 9B68     	 ldr r3,[r3,#8]
 485 0022 1B78     	 ldrb r3,[r3]
 486 0024 2A2B     	 cmp r3,#42
 487 0026 05D1     	 bne .L27
 488              	 .loc 2 268 0 discriminator 2
 489 0028 3B68     	 ldr r3,[r7]
 490 002a 9B68     	 ldr r3,[r3,#8]
 491 002c 0133     	 adds r3,r3,#1
 492 002e 1B78     	 ldrb r3,[r3]
 493 0030 2E2B     	 cmp r3,#46
 494 0032 02D0     	 beq .L28
 495              	.L27:
 269:C:/Users/Yushev/git/wpcqi-optiga-trust-charge/optiga/externals/mbedtls/library\x509_crt.c ****         return( -1 );
 496              	 .loc 2 269 0 is_stmt 1
 497 0034 4FF0FF33 	 mov r3,#-1
 498 0038 35E0     	 b .L29
 499              	.L28:
 270:C:/Users/Yushev/git/wpcqi-optiga-trust-charge/optiga/externals/mbedtls/library\x509_crt.c **** 
 271:C:/Users/Yushev/git/wpcqi-optiga-trust-charge/optiga/externals/mbedtls/library\x509_crt.c ****     for( i = 0; i < cn_len; ++i )
 500              	 .loc 2 271 0
 501 003a 0023     	 movs r3,#0
 502 003c 7B61     	 str r3,[r7,#20]
 503 003e 0BE0     	 b .L30
 504              	.L33:
 272:C:/Users/Yushev/git/wpcqi-optiga-trust-charge/optiga/externals/mbedtls/library\x509_crt.c ****     {
 273:C:/Users/Yushev/git/wpcqi-optiga-trust-charge/optiga/externals/mbedtls/library\x509_crt.c ****         if( cn[i] == '.' )
 505              	 .loc 2 273 0
 506 0040 7A68     	 ldr r2,[r7,#4]
 507 0042 7B69     	 ldr r3,[r7,#20]
 508 0044 1344     	 add r3,r3,r2
 509 0046 1B78     	 ldrb r3,[r3]
 510 0048 2E2B     	 cmp r3,#46
 511 004a 02D1     	 bne .L31
 274:C:/Users/Yushev/git/wpcqi-optiga-trust-charge/optiga/externals/mbedtls/library\x509_crt.c ****         {
 275:C:/Users/Yushev/git/wpcqi-optiga-trust-charge/optiga/externals/mbedtls/library\x509_crt.c ****             cn_idx = i;
 512              	 .loc 2 275 0
 513 004c 7B69     	 ldr r3,[r7,#20]
 514 004e 3B61     	 str r3,[r7,#16]
 276:C:/Users/Yushev/git/wpcqi-optiga-trust-charge/optiga/externals/mbedtls/library\x509_crt.c ****             break;
 515              	 .loc 2 276 0
 516 0050 06E0     	 b .L32
 517              	.L31:
 271:C:/Users/Yushev/git/wpcqi-optiga-trust-charge/optiga/externals/mbedtls/library\x509_crt.c ****     {
 518              	 .loc 2 271 0 discriminator 2
 519 0052 7B69     	 ldr r3,[r7,#20]
 520 0054 0133     	 adds r3,r3,#1
 521 0056 7B61     	 str r3,[r7,#20]
 522              	.L30:
 271:C:/Users/Yushev/git/wpcqi-optiga-trust-charge/optiga/externals/mbedtls/library\x509_crt.c ****     {
 523              	 .loc 2 271 0 is_stmt 0 discriminator 1
 524 0058 7A69     	 ldr r2,[r7,#20]
 525 005a FB68     	 ldr r3,[r7,#12]
 526 005c 9A42     	 cmp r2,r3
 527 005e EFD3     	 bcc .L33
 528              	.L32:
 277:C:/Users/Yushev/git/wpcqi-optiga-trust-charge/optiga/externals/mbedtls/library\x509_crt.c ****         }
 278:C:/Users/Yushev/git/wpcqi-optiga-trust-charge/optiga/externals/mbedtls/library\x509_crt.c ****     }
 279:C:/Users/Yushev/git/wpcqi-optiga-trust-charge/optiga/externals/mbedtls/library\x509_crt.c **** 
 280:C:/Users/Yushev/git/wpcqi-optiga-trust-charge/optiga/externals/mbedtls/library\x509_crt.c ****     if( cn_idx == 0 )
 529              	 .loc 2 280 0 is_stmt 1
 530 0060 3B69     	 ldr r3,[r7,#16]
 531 0062 002B     	 cmp r3,#0
 532 0064 02D1     	 bne .L34
 281:C:/Users/Yushev/git/wpcqi-optiga-trust-charge/optiga/externals/mbedtls/library\x509_crt.c ****         return( -1 );
 533              	 .loc 2 281 0
 534 0066 4FF0FF33 	 mov r3,#-1
 535 006a 1CE0     	 b .L29
 536              	.L34:
 282:C:/Users/Yushev/git/wpcqi-optiga-trust-charge/optiga/externals/mbedtls/library\x509_crt.c **** 
 283:C:/Users/Yushev/git/wpcqi-optiga-trust-charge/optiga/externals/mbedtls/library\x509_crt.c ****     if( cn_len - cn_idx == name->len - 1 &&
 537              	 .loc 2 283 0
 538 006c FA68     	 ldr r2,[r7,#12]
 539 006e 3B69     	 ldr r3,[r7,#16]
 540 0070 D21A     	 subs r2,r2,r3
 541 0072 3B68     	 ldr r3,[r7]
 542 0074 5B68     	 ldr r3,[r3,#4]
 543 0076 013B     	 subs r3,r3,#1
 544 0078 9A42     	 cmp r2,r3
 545 007a 12D1     	 bne .L35
 284:C:/Users/Yushev/git/wpcqi-optiga-trust-charge/optiga/externals/mbedtls/library\x509_crt.c ****         x509_memcasecmp( name->p + 1, cn + cn_idx, name->len - 1 ) == 0 )
 546              	 .loc 2 284 0 discriminator 1
 547 007c 3B68     	 ldr r3,[r7]
 548 007e 9B68     	 ldr r3,[r3,#8]
 549 0080 591C     	 adds r1,r3,#1
 550 0082 7A68     	 ldr r2,[r7,#4]
 551 0084 3B69     	 ldr r3,[r7,#16]
 552 0086 1A44     	 add r2,r2,r3
 553 0088 3B68     	 ldr r3,[r7]
 554 008a 5B68     	 ldr r3,[r3,#4]
 555 008c 013B     	 subs r3,r3,#1
 556 008e 0846     	 mov r0,r1
 557 0090 1146     	 mov r1,r2
 558 0092 1A46     	 mov r2,r3
 559 0094 FFF7FEFF 	 bl x509_memcasecmp
 560 0098 0346     	 mov r3,r0
 283:C:/Users/Yushev/git/wpcqi-optiga-trust-charge/optiga/externals/mbedtls/library\x509_crt.c ****         x509_memcasecmp( name->p + 1, cn + cn_idx, name->len - 1 ) == 0 )
 561              	 .loc 2 283 0 discriminator 1
 562 009a 002B     	 cmp r3,#0
 563 009c 01D1     	 bne .L35
 285:C:/Users/Yushev/git/wpcqi-optiga-trust-charge/optiga/externals/mbedtls/library\x509_crt.c ****     {
 286:C:/Users/Yushev/git/wpcqi-optiga-trust-charge/optiga/externals/mbedtls/library\x509_crt.c ****         return( 0 );
 564              	 .loc 2 286 0
 565 009e 0023     	 movs r3,#0
 566 00a0 01E0     	 b .L29
 567              	.L35:
 287:C:/Users/Yushev/git/wpcqi-optiga-trust-charge/optiga/externals/mbedtls/library\x509_crt.c ****     }
 288:C:/Users/Yushev/git/wpcqi-optiga-trust-charge/optiga/externals/mbedtls/library\x509_crt.c **** 
 289:C:/Users/Yushev/git/wpcqi-optiga-trust-charge/optiga/externals/mbedtls/library\x509_crt.c ****     return( -1 );
 568              	 .loc 2 289 0
 569 00a2 4FF0FF33 	 mov r3,#-1
 570              	.L29:
 290:C:/Users/Yushev/git/wpcqi-optiga-trust-charge/optiga/externals/mbedtls/library\x509_crt.c **** }
 571              	 .loc 2 290 0
 572 00a6 1846     	 mov r0,r3
 573 00a8 1837     	 adds r7,r7,#24
 574              	.LCFI32:
 575              	 .cfi_def_cfa_offset 8
 576 00aa BD46     	 mov sp,r7
 577              	.LCFI33:
 578              	 .cfi_def_cfa_register 13
 579              	 
 580 00ac 80BD     	 pop {r7,pc}
 581              	 .cfi_endproc
 582              	.LFE13:
 584 00ae 00BF     	 .section .text.x509_string_cmp,"ax",%progbits
 585              	 .align 2
 586              	 .thumb
 587              	 .thumb_func
 589              	x509_string_cmp:
 590              	.LFB14:
 291:C:/Users/Yushev/git/wpcqi-optiga-trust-charge/optiga/externals/mbedtls/library\x509_crt.c **** 
 292:C:/Users/Yushev/git/wpcqi-optiga-trust-charge/optiga/externals/mbedtls/library\x509_crt.c **** /*
 293:C:/Users/Yushev/git/wpcqi-optiga-trust-charge/optiga/externals/mbedtls/library\x509_crt.c ****  * Compare two X.509 strings, case-insensitive, and allowing for some encoding
 294:C:/Users/Yushev/git/wpcqi-optiga-trust-charge/optiga/externals/mbedtls/library\x509_crt.c ****  * variations (but not all).
 295:C:/Users/Yushev/git/wpcqi-optiga-trust-charge/optiga/externals/mbedtls/library\x509_crt.c ****  *
 296:C:/Users/Yushev/git/wpcqi-optiga-trust-charge/optiga/externals/mbedtls/library\x509_crt.c ****  * Return 0 if equal, -1 otherwise.
 297:C:/Users/Yushev/git/wpcqi-optiga-trust-charge/optiga/externals/mbedtls/library\x509_crt.c ****  */
 298:C:/Users/Yushev/git/wpcqi-optiga-trust-charge/optiga/externals/mbedtls/library\x509_crt.c **** static int x509_string_cmp( const mbedtls_x509_buf *a, const mbedtls_x509_buf *b )
 299:C:/Users/Yushev/git/wpcqi-optiga-trust-charge/optiga/externals/mbedtls/library\x509_crt.c **** {
 591              	 .loc 2 299 0
 592              	 .cfi_startproc
 593              	 
 594              	 
 595 0000 80B5     	 push {r7,lr}
 596              	.LCFI34:
 597              	 .cfi_def_cfa_offset 8
 598              	 .cfi_offset 7,-8
 599              	 .cfi_offset 14,-4
 600 0002 82B0     	 sub sp,sp,#8
 601              	.LCFI35:
 602              	 .cfi_def_cfa_offset 16
 603 0004 00AF     	 add r7,sp,#0
 604              	.LCFI36:
 605              	 .cfi_def_cfa_register 7
 606 0006 7860     	 str r0,[r7,#4]
 607 0008 3960     	 str r1,[r7]
 300:C:/Users/Yushev/git/wpcqi-optiga-trust-charge/optiga/externals/mbedtls/library\x509_crt.c ****     if( a->tag == b->tag &&
 608              	 .loc 2 300 0
 609 000a 7B68     	 ldr r3,[r7,#4]
 610 000c 1A68     	 ldr r2,[r3]
 611 000e 3B68     	 ldr r3,[r7]
 612 0010 1B68     	 ldr r3,[r3]
 613 0012 9A42     	 cmp r2,r3
 614 0014 15D1     	 bne .L37
 301:C:/Users/Yushev/git/wpcqi-optiga-trust-charge/optiga/externals/mbedtls/library\x509_crt.c ****         a->len == b->len &&
 615              	 .loc 2 301 0 discriminator 1
 616 0016 7B68     	 ldr r3,[r7,#4]
 617 0018 5A68     	 ldr r2,[r3,#4]
 618 001a 3B68     	 ldr r3,[r7]
 619 001c 5B68     	 ldr r3,[r3,#4]
 300:C:/Users/Yushev/git/wpcqi-optiga-trust-charge/optiga/externals/mbedtls/library\x509_crt.c ****     if( a->tag == b->tag &&
 620              	 .loc 2 300 0 discriminator 1
 621 001e 9A42     	 cmp r2,r3
 622 0020 0FD1     	 bne .L37
 302:C:/Users/Yushev/git/wpcqi-optiga-trust-charge/optiga/externals/mbedtls/library\x509_crt.c ****         memcmp( a->p, b->p, b->len ) == 0 )
 623              	 .loc 2 302 0
 624 0022 7B68     	 ldr r3,[r7,#4]
 625 0024 9968     	 ldr r1,[r3,#8]
 626 0026 3B68     	 ldr r3,[r7]
 627 0028 9A68     	 ldr r2,[r3,#8]
 628 002a 3B68     	 ldr r3,[r7]
 629 002c 5B68     	 ldr r3,[r3,#4]
 630 002e 0846     	 mov r0,r1
 631 0030 1146     	 mov r1,r2
 632 0032 1A46     	 mov r2,r3
 633 0034 FFF7FEFF 	 bl memcmp
 634 0038 0346     	 mov r3,r0
 301:C:/Users/Yushev/git/wpcqi-optiga-trust-charge/optiga/externals/mbedtls/library\x509_crt.c ****         a->len == b->len &&
 635              	 .loc 2 301 0
 636 003a 002B     	 cmp r3,#0
 637 003c 01D1     	 bne .L37
 303:C:/Users/Yushev/git/wpcqi-optiga-trust-charge/optiga/externals/mbedtls/library\x509_crt.c ****     {
 304:C:/Users/Yushev/git/wpcqi-optiga-trust-charge/optiga/externals/mbedtls/library\x509_crt.c ****         return( 0 );
 638              	 .loc 2 304 0
 639 003e 0023     	 movs r3,#0
 640 0040 27E0     	 b .L38
 641              	.L37:
 305:C:/Users/Yushev/git/wpcqi-optiga-trust-charge/optiga/externals/mbedtls/library\x509_crt.c ****     }
 306:C:/Users/Yushev/git/wpcqi-optiga-trust-charge/optiga/externals/mbedtls/library\x509_crt.c **** 
 307:C:/Users/Yushev/git/wpcqi-optiga-trust-charge/optiga/externals/mbedtls/library\x509_crt.c ****     if( ( a->tag == MBEDTLS_ASN1_UTF8_STRING || a->tag == MBEDTLS_ASN1_PRINTABLE_STRING ) &&
 642              	 .loc 2 307 0
 643 0042 7B68     	 ldr r3,[r7,#4]
 644 0044 1B68     	 ldr r3,[r3]
 645 0046 0C2B     	 cmp r3,#12
 646 0048 03D0     	 beq .L39
 647              	 .loc 2 307 0 is_stmt 0 discriminator 2
 648 004a 7B68     	 ldr r3,[r7,#4]
 649 004c 1B68     	 ldr r3,[r3]
 650 004e 132B     	 cmp r3,#19
 651 0050 1DD1     	 bne .L40
 652              	.L39:
 308:C:/Users/Yushev/git/wpcqi-optiga-trust-charge/optiga/externals/mbedtls/library\x509_crt.c ****         ( b->tag == MBEDTLS_ASN1_UTF8_STRING || b->tag == MBEDTLS_ASN1_PRINTABLE_STRING ) &&
 653              	 .loc 2 308 0 is_stmt 1 discriminator 3
 654 0052 3B68     	 ldr r3,[r7]
 655 0054 1B68     	 ldr r3,[r3]
 307:C:/Users/Yushev/git/wpcqi-optiga-trust-charge/optiga/externals/mbedtls/library\x509_crt.c ****         ( b->tag == MBEDTLS_ASN1_UTF8_STRING || b->tag == MBEDTLS_ASN1_PRINTABLE_STRING ) &&
 656              	 .loc 2 307 0 discriminator 3
 657 0056 0C2B     	 cmp r3,#12
 658 0058 03D0     	 beq .L41
 659              	 .loc 2 308 0
 660 005a 3B68     	 ldr r3,[r7]
 661 005c 1B68     	 ldr r3,[r3]
 662 005e 132B     	 cmp r3,#19
 663 0060 15D1     	 bne .L40
 664              	.L41:
 309:C:/Users/Yushev/git/wpcqi-optiga-trust-charge/optiga/externals/mbedtls/library\x509_crt.c ****         a->len == b->len &&
 665              	 .loc 2 309 0 discriminator 1
 666 0062 7B68     	 ldr r3,[r7,#4]
 667 0064 5A68     	 ldr r2,[r3,#4]
 668 0066 3B68     	 ldr r3,[r7]
 669 0068 5B68     	 ldr r3,[r3,#4]
 308:C:/Users/Yushev/git/wpcqi-optiga-trust-charge/optiga/externals/mbedtls/library\x509_crt.c ****         ( b->tag == MBEDTLS_ASN1_UTF8_STRING || b->tag == MBEDTLS_ASN1_PRINTABLE_STRING ) &&
 670              	 .loc 2 308 0 discriminator 1
 671 006a 9A42     	 cmp r2,r3
 672 006c 0FD1     	 bne .L40
 310:C:/Users/Yushev/git/wpcqi-optiga-trust-charge/optiga/externals/mbedtls/library\x509_crt.c ****         x509_memcasecmp( a->p, b->p, b->len ) == 0 )
 673              	 .loc 2 310 0
 674 006e 7B68     	 ldr r3,[r7,#4]
 675 0070 9968     	 ldr r1,[r3,#8]
 676 0072 3B68     	 ldr r3,[r7]
 677 0074 9A68     	 ldr r2,[r3,#8]
 678 0076 3B68     	 ldr r3,[r7]
 679 0078 5B68     	 ldr r3,[r3,#4]
 680 007a 0846     	 mov r0,r1
 681 007c 1146     	 mov r1,r2
 682 007e 1A46     	 mov r2,r3
 683 0080 FFF7FEFF 	 bl x509_memcasecmp
 684 0084 0346     	 mov r3,r0
 309:C:/Users/Yushev/git/wpcqi-optiga-trust-charge/optiga/externals/mbedtls/library\x509_crt.c ****         a->len == b->len &&
 685              	 .loc 2 309 0
 686 0086 002B     	 cmp r3,#0
 687 0088 01D1     	 bne .L40
 311:C:/Users/Yushev/git/wpcqi-optiga-trust-charge/optiga/externals/mbedtls/library\x509_crt.c ****     {
 312:C:/Users/Yushev/git/wpcqi-optiga-trust-charge/optiga/externals/mbedtls/library\x509_crt.c ****         return( 0 );
 688              	 .loc 2 312 0
 689 008a 0023     	 movs r3,#0
 690 008c 01E0     	 b .L38
 691              	.L40:
 313:C:/Users/Yushev/git/wpcqi-optiga-trust-charge/optiga/externals/mbedtls/library\x509_crt.c ****     }
 314:C:/Users/Yushev/git/wpcqi-optiga-trust-charge/optiga/externals/mbedtls/library\x509_crt.c **** 
 315:C:/Users/Yushev/git/wpcqi-optiga-trust-charge/optiga/externals/mbedtls/library\x509_crt.c ****     return( -1 );
 692              	 .loc 2 315 0
 693 008e 4FF0FF33 	 mov r3,#-1
 694              	.L38:
 316:C:/Users/Yushev/git/wpcqi-optiga-trust-charge/optiga/externals/mbedtls/library\x509_crt.c **** }
 695              	 .loc 2 316 0
 696 0092 1846     	 mov r0,r3
 697 0094 0837     	 adds r7,r7,#8
 698              	.LCFI37:
 699              	 .cfi_def_cfa_offset 8
 700 0096 BD46     	 mov sp,r7
 701              	.LCFI38:
 702              	 .cfi_def_cfa_register 13
 703              	 
 704 0098 80BD     	 pop {r7,pc}
 705              	 .cfi_endproc
 706              	.LFE14:
 708 009a 00BF     	 .section .text.x509_name_cmp,"ax",%progbits
 709              	 .align 2
 710              	 .thumb
 711              	 .thumb_func
 713              	x509_name_cmp:
 714              	.LFB15:
 317:C:/Users/Yushev/git/wpcqi-optiga-trust-charge/optiga/externals/mbedtls/library\x509_crt.c **** 
 318:C:/Users/Yushev/git/wpcqi-optiga-trust-charge/optiga/externals/mbedtls/library\x509_crt.c **** /*
 319:C:/Users/Yushev/git/wpcqi-optiga-trust-charge/optiga/externals/mbedtls/library\x509_crt.c ****  * Compare two X.509 Names (aka rdnSequence).
 320:C:/Users/Yushev/git/wpcqi-optiga-trust-charge/optiga/externals/mbedtls/library\x509_crt.c ****  *
 321:C:/Users/Yushev/git/wpcqi-optiga-trust-charge/optiga/externals/mbedtls/library\x509_crt.c ****  * See RFC 5280 section 7.1, though we don't implement the whole algorithm:
 322:C:/Users/Yushev/git/wpcqi-optiga-trust-charge/optiga/externals/mbedtls/library\x509_crt.c ****  * we sometimes return unequal when the full algorithm would return equal,
 323:C:/Users/Yushev/git/wpcqi-optiga-trust-charge/optiga/externals/mbedtls/library\x509_crt.c ****  * but never the other way. (In particular, we don't do Unicode normalisation
 324:C:/Users/Yushev/git/wpcqi-optiga-trust-charge/optiga/externals/mbedtls/library\x509_crt.c ****  * or space folding.)
 325:C:/Users/Yushev/git/wpcqi-optiga-trust-charge/optiga/externals/mbedtls/library\x509_crt.c ****  *
 326:C:/Users/Yushev/git/wpcqi-optiga-trust-charge/optiga/externals/mbedtls/library\x509_crt.c ****  * Return 0 if equal, -1 otherwise.
 327:C:/Users/Yushev/git/wpcqi-optiga-trust-charge/optiga/externals/mbedtls/library\x509_crt.c ****  */
 328:C:/Users/Yushev/git/wpcqi-optiga-trust-charge/optiga/externals/mbedtls/library\x509_crt.c **** static int x509_name_cmp( const mbedtls_x509_name *a, const mbedtls_x509_name *b )
 329:C:/Users/Yushev/git/wpcqi-optiga-trust-charge/optiga/externals/mbedtls/library\x509_crt.c **** {
 715              	 .loc 2 329 0
 716              	 .cfi_startproc
 717              	 
 718              	 
 719 0000 80B5     	 push {r7,lr}
 720              	.LCFI39:
 721              	 .cfi_def_cfa_offset 8
 722              	 .cfi_offset 7,-8
 723              	 .cfi_offset 14,-4
 724 0002 82B0     	 sub sp,sp,#8
 725              	.LCFI40:
 726              	 .cfi_def_cfa_offset 16
 727 0004 00AF     	 add r7,sp,#0
 728              	.LCFI41:
 729              	 .cfi_def_cfa_register 7
 730 0006 7860     	 str r0,[r7,#4]
 731 0008 3960     	 str r1,[r7]
 330:C:/Users/Yushev/git/wpcqi-optiga-trust-charge/optiga/externals/mbedtls/library\x509_crt.c ****     /* Avoid recursion, it might not be optimised by the compiler */
 331:C:/Users/Yushev/git/wpcqi-optiga-trust-charge/optiga/externals/mbedtls/library\x509_crt.c ****     while( a != NULL || b != NULL )
 732              	 .loc 2 331 0
 733 000a 43E0     	 b .L43
 734              	.L51:
 332:C:/Users/Yushev/git/wpcqi-optiga-trust-charge/optiga/externals/mbedtls/library\x509_crt.c ****     {
 333:C:/Users/Yushev/git/wpcqi-optiga-trust-charge/optiga/externals/mbedtls/library\x509_crt.c ****         if( a == NULL || b == NULL )
 735              	 .loc 2 333 0
 736 000c 7B68     	 ldr r3,[r7,#4]
 737 000e 002B     	 cmp r3,#0
 738 0010 02D0     	 beq .L44
 739              	 .loc 2 333 0 is_stmt 0 discriminator 1
 740 0012 3B68     	 ldr r3,[r7]
 741 0014 002B     	 cmp r3,#0
 742 0016 02D1     	 bne .L45
 743              	.L44:
 334:C:/Users/Yushev/git/wpcqi-optiga-trust-charge/optiga/externals/mbedtls/library\x509_crt.c ****             return( -1 );
 744              	 .loc 2 334 0 is_stmt 1
 745 0018 4FF0FF33 	 mov r3,#-1
 746 001c 41E0     	 b .L46
 747              	.L45:
 335:C:/Users/Yushev/git/wpcqi-optiga-trust-charge/optiga/externals/mbedtls/library\x509_crt.c **** 
 336:C:/Users/Yushev/git/wpcqi-optiga-trust-charge/optiga/externals/mbedtls/library\x509_crt.c ****         /* type */
 337:C:/Users/Yushev/git/wpcqi-optiga-trust-charge/optiga/externals/mbedtls/library\x509_crt.c ****         if( a->oid.tag != b->oid.tag ||
 748              	 .loc 2 337 0
 749 001e 7B68     	 ldr r3,[r7,#4]
 750 0020 1A68     	 ldr r2,[r3]
 751 0022 3B68     	 ldr r3,[r7]
 752 0024 1B68     	 ldr r3,[r3]
 753 0026 9A42     	 cmp r2,r3
 754 0028 13D1     	 bne .L47
 338:C:/Users/Yushev/git/wpcqi-optiga-trust-charge/optiga/externals/mbedtls/library\x509_crt.c ****             a->oid.len != b->oid.len ||
 755              	 .loc 2 338 0 discriminator 1
 756 002a 7B68     	 ldr r3,[r7,#4]
 757 002c 5A68     	 ldr r2,[r3,#4]
 758 002e 3B68     	 ldr r3,[r7]
 759 0030 5B68     	 ldr r3,[r3,#4]
 337:C:/Users/Yushev/git/wpcqi-optiga-trust-charge/optiga/externals/mbedtls/library\x509_crt.c ****             a->oid.len != b->oid.len ||
 760              	 .loc 2 337 0 discriminator 1
 761 0032 9A42     	 cmp r2,r3
 762 0034 0DD1     	 bne .L47
 339:C:/Users/Yushev/git/wpcqi-optiga-trust-charge/optiga/externals/mbedtls/library\x509_crt.c ****             memcmp( a->oid.p, b->oid.p, b->oid.len ) != 0 )
 763              	 .loc 2 339 0
 764 0036 7B68     	 ldr r3,[r7,#4]
 765 0038 9968     	 ldr r1,[r3,#8]
 766 003a 3B68     	 ldr r3,[r7]
 767 003c 9A68     	 ldr r2,[r3,#8]
 768 003e 3B68     	 ldr r3,[r7]
 769 0040 5B68     	 ldr r3,[r3,#4]
 770 0042 0846     	 mov r0,r1
 771 0044 1146     	 mov r1,r2
 772 0046 1A46     	 mov r2,r3
 773 0048 FFF7FEFF 	 bl memcmp
 774 004c 0346     	 mov r3,r0
 338:C:/Users/Yushev/git/wpcqi-optiga-trust-charge/optiga/externals/mbedtls/library\x509_crt.c ****             a->oid.len != b->oid.len ||
 775              	 .loc 2 338 0
 776 004e 002B     	 cmp r3,#0
 777 0050 02D0     	 beq .L48
 778              	.L47:
 340:C:/Users/Yushev/git/wpcqi-optiga-trust-charge/optiga/externals/mbedtls/library\x509_crt.c ****         {
 341:C:/Users/Yushev/git/wpcqi-optiga-trust-charge/optiga/externals/mbedtls/library\x509_crt.c ****             return( -1 );
 779              	 .loc 2 341 0
 780 0052 4FF0FF33 	 mov r3,#-1
 781 0056 24E0     	 b .L46
 782              	.L48:
 342:C:/Users/Yushev/git/wpcqi-optiga-trust-charge/optiga/externals/mbedtls/library\x509_crt.c ****         }
 343:C:/Users/Yushev/git/wpcqi-optiga-trust-charge/optiga/externals/mbedtls/library\x509_crt.c **** 
 344:C:/Users/Yushev/git/wpcqi-optiga-trust-charge/optiga/externals/mbedtls/library\x509_crt.c ****         /* value */
 345:C:/Users/Yushev/git/wpcqi-optiga-trust-charge/optiga/externals/mbedtls/library\x509_crt.c ****         if( x509_string_cmp( &a->val, &b->val ) != 0 )
 783              	 .loc 2 345 0
 784 0058 7B68     	 ldr r3,[r7,#4]
 785 005a 03F10C02 	 add r2,r3,#12
 786 005e 3B68     	 ldr r3,[r7]
 787 0060 0C33     	 adds r3,r3,#12
 788 0062 1046     	 mov r0,r2
 789 0064 1946     	 mov r1,r3
 790 0066 FFF7FEFF 	 bl x509_string_cmp
 791 006a 0346     	 mov r3,r0
 792 006c 002B     	 cmp r3,#0
 793 006e 02D0     	 beq .L49
 346:C:/Users/Yushev/git/wpcqi-optiga-trust-charge/optiga/externals/mbedtls/library\x509_crt.c ****             return( -1 );
 794              	 .loc 2 346 0
 795 0070 4FF0FF33 	 mov r3,#-1
 796 0074 15E0     	 b .L46
 797              	.L49:
 347:C:/Users/Yushev/git/wpcqi-optiga-trust-charge/optiga/externals/mbedtls/library\x509_crt.c **** 
 348:C:/Users/Yushev/git/wpcqi-optiga-trust-charge/optiga/externals/mbedtls/library\x509_crt.c ****         /* structure of the list of sets */
 349:C:/Users/Yushev/git/wpcqi-optiga-trust-charge/optiga/externals/mbedtls/library\x509_crt.c ****         if( a->next_merged != b->next_merged )
 798              	 .loc 2 349 0
 799 0076 7B68     	 ldr r3,[r7,#4]
 800 0078 1A7F     	 ldrb r2,[r3,#28]
 801 007a 3B68     	 ldr r3,[r7]
 802 007c 1B7F     	 ldrb r3,[r3,#28]
 803 007e 9A42     	 cmp r2,r3
 804 0080 02D0     	 beq .L50
 350:C:/Users/Yushev/git/wpcqi-optiga-trust-charge/optiga/externals/mbedtls/library\x509_crt.c ****             return( -1 );
 805              	 .loc 2 350 0
 806 0082 4FF0FF33 	 mov r3,#-1
 807 0086 0CE0     	 b .L46
 808              	.L50:
 351:C:/Users/Yushev/git/wpcqi-optiga-trust-charge/optiga/externals/mbedtls/library\x509_crt.c **** 
 352:C:/Users/Yushev/git/wpcqi-optiga-trust-charge/optiga/externals/mbedtls/library\x509_crt.c ****         a = a->next;
 809              	 .loc 2 352 0
 810 0088 7B68     	 ldr r3,[r7,#4]
 811 008a 9B69     	 ldr r3,[r3,#24]
 812 008c 7B60     	 str r3,[r7,#4]
 353:C:/Users/Yushev/git/wpcqi-optiga-trust-charge/optiga/externals/mbedtls/library\x509_crt.c ****         b = b->next;
 813              	 .loc 2 353 0
 814 008e 3B68     	 ldr r3,[r7]
 815 0090 9B69     	 ldr r3,[r3,#24]
 816 0092 3B60     	 str r3,[r7]
 817              	.L43:
 331:C:/Users/Yushev/git/wpcqi-optiga-trust-charge/optiga/externals/mbedtls/library\x509_crt.c ****     {
 818              	 .loc 2 331 0
 819 0094 7B68     	 ldr r3,[r7,#4]
 820 0096 002B     	 cmp r3,#0
 821 0098 B8D1     	 bne .L51
 331:C:/Users/Yushev/git/wpcqi-optiga-trust-charge/optiga/externals/mbedtls/library\x509_crt.c ****     {
 822              	 .loc 2 331 0 is_stmt 0 discriminator 1
 823 009a 3B68     	 ldr r3,[r7]
 824 009c 002B     	 cmp r3,#0
 825 009e B5D1     	 bne .L51
 354:C:/Users/Yushev/git/wpcqi-optiga-trust-charge/optiga/externals/mbedtls/library\x509_crt.c ****     }
 355:C:/Users/Yushev/git/wpcqi-optiga-trust-charge/optiga/externals/mbedtls/library\x509_crt.c **** 
 356:C:/Users/Yushev/git/wpcqi-optiga-trust-charge/optiga/externals/mbedtls/library\x509_crt.c ****     /* a == NULL == b */
 357:C:/Users/Yushev/git/wpcqi-optiga-trust-charge/optiga/externals/mbedtls/library\x509_crt.c ****     return( 0 );
 826              	 .loc 2 357 0 is_stmt 1
 827 00a0 0023     	 movs r3,#0
 828              	.L46:
 358:C:/Users/Yushev/git/wpcqi-optiga-trust-charge/optiga/externals/mbedtls/library\x509_crt.c **** }
 829              	 .loc 2 358 0
 830 00a2 1846     	 mov r0,r3
 831 00a4 0837     	 adds r7,r7,#8
 832              	.LCFI42:
 833              	 .cfi_def_cfa_offset 8
 834 00a6 BD46     	 mov sp,r7
 835              	.LCFI43:
 836              	 .cfi_def_cfa_register 13
 837              	 
 838 00a8 80BD     	 pop {r7,pc}
 839              	 .cfi_endproc
 840              	.LFE15:
 842 00aa 00BF     	 .section .text.x509_crt_verify_chain_reset,"ax",%progbits
 843              	 .align 2
 844              	 .thumb
 845              	 .thumb_func
 847              	x509_crt_verify_chain_reset:
 848              	.LFB16:
 359:C:/Users/Yushev/git/wpcqi-optiga-trust-charge/optiga/externals/mbedtls/library\x509_crt.c **** 
 360:C:/Users/Yushev/git/wpcqi-optiga-trust-charge/optiga/externals/mbedtls/library\x509_crt.c **** /*
 361:C:/Users/Yushev/git/wpcqi-optiga-trust-charge/optiga/externals/mbedtls/library\x509_crt.c ****  * Reset (init or clear) a verify_chain
 362:C:/Users/Yushev/git/wpcqi-optiga-trust-charge/optiga/externals/mbedtls/library\x509_crt.c ****  */
 363:C:/Users/Yushev/git/wpcqi-optiga-trust-charge/optiga/externals/mbedtls/library\x509_crt.c **** static void x509_crt_verify_chain_reset(
 364:C:/Users/Yushev/git/wpcqi-optiga-trust-charge/optiga/externals/mbedtls/library\x509_crt.c ****     mbedtls_x509_crt_verify_chain *ver_chain )
 365:C:/Users/Yushev/git/wpcqi-optiga-trust-charge/optiga/externals/mbedtls/library\x509_crt.c **** {
 849              	 .loc 2 365 0
 850              	 .cfi_startproc
 851              	 
 852              	 
 853              	 
 854 0000 80B4     	 push {r7}
 855              	.LCFI44:
 856              	 .cfi_def_cfa_offset 4
 857              	 .cfi_offset 7,-4
 858 0002 85B0     	 sub sp,sp,#20
 859              	.LCFI45:
 860              	 .cfi_def_cfa_offset 24
 861 0004 00AF     	 add r7,sp,#0
 862              	.LCFI46:
 863              	 .cfi_def_cfa_register 7
 864 0006 7860     	 str r0,[r7,#4]
 366:C:/Users/Yushev/git/wpcqi-optiga-trust-charge/optiga/externals/mbedtls/library\x509_crt.c ****     size_t i;
 367:C:/Users/Yushev/git/wpcqi-optiga-trust-charge/optiga/externals/mbedtls/library\x509_crt.c **** 
 368:C:/Users/Yushev/git/wpcqi-optiga-trust-charge/optiga/externals/mbedtls/library\x509_crt.c ****     for( i = 0; i < MBEDTLS_X509_MAX_VERIFY_CHAIN_SIZE; i++ )
 865              	 .loc 2 368 0
 866 0008 0023     	 movs r3,#0
 867 000a FB60     	 str r3,[r7,#12]
 868 000c 0EE0     	 b .L53
 869              	.L54:
 369:C:/Users/Yushev/git/wpcqi-optiga-trust-charge/optiga/externals/mbedtls/library\x509_crt.c ****     {
 370:C:/Users/Yushev/git/wpcqi-optiga-trust-charge/optiga/externals/mbedtls/library\x509_crt.c ****         ver_chain->items[i].crt = NULL;
 870              	 .loc 2 370 0 discriminator 3
 871 000e 7B68     	 ldr r3,[r7,#4]
 872 0010 FA68     	 ldr r2,[r7,#12]
 873 0012 0021     	 movs r1,#0
 874 0014 43F83210 	 str r1,[r3,r2,lsl#3]
 371:C:/Users/Yushev/git/wpcqi-optiga-trust-charge/optiga/externals/mbedtls/library\x509_crt.c ****         ver_chain->items[i].flags = -1;
 875              	 .loc 2 371 0 discriminator 3
 876 0018 7A68     	 ldr r2,[r7,#4]
 877 001a FB68     	 ldr r3,[r7,#12]
 878 001c DB00     	 lsls r3,r3,#3
 879 001e 1344     	 add r3,r3,r2
 880 0020 4FF0FF32 	 mov r2,#-1
 881 0024 5A60     	 str r2,[r3,#4]
 368:C:/Users/Yushev/git/wpcqi-optiga-trust-charge/optiga/externals/mbedtls/library\x509_crt.c ****     {
 882              	 .loc 2 368 0 discriminator 3
 883 0026 FB68     	 ldr r3,[r7,#12]
 884 0028 0133     	 adds r3,r3,#1
 885 002a FB60     	 str r3,[r7,#12]
 886              	.L53:
 368:C:/Users/Yushev/git/wpcqi-optiga-trust-charge/optiga/externals/mbedtls/library\x509_crt.c ****     {
 887              	 .loc 2 368 0 is_stmt 0 discriminator 1
 888 002c FB68     	 ldr r3,[r7,#12]
 889 002e 092B     	 cmp r3,#9
 890 0030 EDD9     	 bls .L54
 372:C:/Users/Yushev/git/wpcqi-optiga-trust-charge/optiga/externals/mbedtls/library\x509_crt.c ****     }
 373:C:/Users/Yushev/git/wpcqi-optiga-trust-charge/optiga/externals/mbedtls/library\x509_crt.c **** 
 374:C:/Users/Yushev/git/wpcqi-optiga-trust-charge/optiga/externals/mbedtls/library\x509_crt.c ****     ver_chain->len = 0;
 891              	 .loc 2 374 0 is_stmt 1
 892 0032 7B68     	 ldr r3,[r7,#4]
 893 0034 0022     	 movs r2,#0
 894 0036 1A65     	 str r2,[r3,#80]
 375:C:/Users/Yushev/git/wpcqi-optiga-trust-charge/optiga/externals/mbedtls/library\x509_crt.c **** }
 895              	 .loc 2 375 0
 896 0038 1437     	 adds r7,r7,#20
 897              	.LCFI47:
 898              	 .cfi_def_cfa_offset 4
 899 003a BD46     	 mov sp,r7
 900              	.LCFI48:
 901              	 .cfi_def_cfa_register 13
 902              	 
 903 003c 5DF8047B 	 ldr r7,[sp],#4
 904              	.LCFI49:
 905              	 .cfi_restore 7
 906              	 .cfi_def_cfa_offset 0
 907 0040 7047     	 bx lr
 908              	 .cfi_endproc
 909              	.LFE16:
 911 0042 00BF     	 .section .text.x509_get_version,"ax",%progbits
 912              	 .align 2
 913              	 .thumb
 914              	 .thumb_func
 916              	x509_get_version:
 917              	.LFB17:
 376:C:/Users/Yushev/git/wpcqi-optiga-trust-charge/optiga/externals/mbedtls/library\x509_crt.c **** 
 377:C:/Users/Yushev/git/wpcqi-optiga-trust-charge/optiga/externals/mbedtls/library\x509_crt.c **** /*
 378:C:/Users/Yushev/git/wpcqi-optiga-trust-charge/optiga/externals/mbedtls/library\x509_crt.c ****  *  Version  ::=  INTEGER  {  v1(0), v2(1), v3(2)  }
 379:C:/Users/Yushev/git/wpcqi-optiga-trust-charge/optiga/externals/mbedtls/library\x509_crt.c ****  */
 380:C:/Users/Yushev/git/wpcqi-optiga-trust-charge/optiga/externals/mbedtls/library\x509_crt.c **** static int x509_get_version( unsigned char **p,
 381:C:/Users/Yushev/git/wpcqi-optiga-trust-charge/optiga/externals/mbedtls/library\x509_crt.c ****                              const unsigned char *end,
 382:C:/Users/Yushev/git/wpcqi-optiga-trust-charge/optiga/externals/mbedtls/library\x509_crt.c ****                              int *ver )
 383:C:/Users/Yushev/git/wpcqi-optiga-trust-charge/optiga/externals/mbedtls/library\x509_crt.c **** {
 918              	 .loc 2 383 0
 919              	 .cfi_startproc
 920              	 
 921              	 
 922 0000 80B5     	 push {r7,lr}
 923              	.LCFI50:
 924              	 .cfi_def_cfa_offset 8
 925              	 .cfi_offset 7,-8
 926              	 .cfi_offset 14,-4
 927 0002 86B0     	 sub sp,sp,#24
 928              	.LCFI51:
 929              	 .cfi_def_cfa_offset 32
 930 0004 00AF     	 add r7,sp,#0
 931              	.LCFI52:
 932              	 .cfi_def_cfa_register 7
 933 0006 F860     	 str r0,[r7,#12]
 934 0008 B960     	 str r1,[r7,#8]
 935 000a 7A60     	 str r2,[r7,#4]
 384:C:/Users/Yushev/git/wpcqi-optiga-trust-charge/optiga/externals/mbedtls/library\x509_crt.c ****     int ret;
 385:C:/Users/Yushev/git/wpcqi-optiga-trust-charge/optiga/externals/mbedtls/library\x509_crt.c ****     size_t len;
 386:C:/Users/Yushev/git/wpcqi-optiga-trust-charge/optiga/externals/mbedtls/library\x509_crt.c **** 
 387:C:/Users/Yushev/git/wpcqi-optiga-trust-charge/optiga/externals/mbedtls/library\x509_crt.c ****     if( ( ret = mbedtls_asn1_get_tag( p, end, &len,
 936              	 .loc 2 387 0
 937 000c 07F11003 	 add r3,r7,#16
 938 0010 F868     	 ldr r0,[r7,#12]
 939 0012 B968     	 ldr r1,[r7,#8]
 940 0014 1A46     	 mov r2,r3
 941 0016 A023     	 movs r3,#160
 942 0018 FFF7FEFF 	 bl mbedtls_asn1_get_tag
 943 001c 7861     	 str r0,[r7,#20]
 944 001e 7B69     	 ldr r3,[r7,#20]
 945 0020 002B     	 cmp r3,#0
 946 0022 0AD0     	 beq .L56
 388:C:/Users/Yushev/git/wpcqi-optiga-trust-charge/optiga/externals/mbedtls/library\x509_crt.c ****             MBEDTLS_ASN1_CONTEXT_SPECIFIC | MBEDTLS_ASN1_CONSTRUCTED | 0 ) ) != 0 )
 389:C:/Users/Yushev/git/wpcqi-optiga-trust-charge/optiga/externals/mbedtls/library\x509_crt.c ****     {
 390:C:/Users/Yushev/git/wpcqi-optiga-trust-charge/optiga/externals/mbedtls/library\x509_crt.c ****         if( ret == MBEDTLS_ERR_ASN1_UNEXPECTED_TAG )
 947              	 .loc 2 390 0
 948 0024 7B69     	 ldr r3,[r7,#20]
 949 0026 13F1620F 	 cmn r3,#98
 950 002a 04D1     	 bne .L57
 391:C:/Users/Yushev/git/wpcqi-optiga-trust-charge/optiga/externals/mbedtls/library\x509_crt.c ****         {
 392:C:/Users/Yushev/git/wpcqi-optiga-trust-charge/optiga/externals/mbedtls/library\x509_crt.c ****             *ver = 0;
 951              	 .loc 2 392 0
 952 002c 7B68     	 ldr r3,[r7,#4]
 953 002e 0022     	 movs r2,#0
 954 0030 1A60     	 str r2,[r3]
 393:C:/Users/Yushev/git/wpcqi-optiga-trust-charge/optiga/externals/mbedtls/library\x509_crt.c ****             return( 0 );
 955              	 .loc 2 393 0
 956 0032 0023     	 movs r3,#0
 957 0034 1BE0     	 b .L61
 958              	.L57:
 394:C:/Users/Yushev/git/wpcqi-optiga-trust-charge/optiga/externals/mbedtls/library\x509_crt.c ****         }
 395:C:/Users/Yushev/git/wpcqi-optiga-trust-charge/optiga/externals/mbedtls/library\x509_crt.c **** 
 396:C:/Users/Yushev/git/wpcqi-optiga-trust-charge/optiga/externals/mbedtls/library\x509_crt.c ****         return( ret );
 959              	 .loc 2 396 0
 960 0036 7B69     	 ldr r3,[r7,#20]
 961 0038 19E0     	 b .L61
 962              	.L56:
 397:C:/Users/Yushev/git/wpcqi-optiga-trust-charge/optiga/externals/mbedtls/library\x509_crt.c ****     }
 398:C:/Users/Yushev/git/wpcqi-optiga-trust-charge/optiga/externals/mbedtls/library\x509_crt.c **** 
 399:C:/Users/Yushev/git/wpcqi-optiga-trust-charge/optiga/externals/mbedtls/library\x509_crt.c ****     end = *p + len;
 963              	 .loc 2 399 0
 964 003a FB68     	 ldr r3,[r7,#12]
 965 003c 1A68     	 ldr r2,[r3]
 966 003e 3B69     	 ldr r3,[r7,#16]
 967 0040 1344     	 add r3,r3,r2
 968 0042 BB60     	 str r3,[r7,#8]
 400:C:/Users/Yushev/git/wpcqi-optiga-trust-charge/optiga/externals/mbedtls/library\x509_crt.c **** 
 401:C:/Users/Yushev/git/wpcqi-optiga-trust-charge/optiga/externals/mbedtls/library\x509_crt.c ****     if( ( ret = mbedtls_asn1_get_int( p, end, ver ) ) != 0 )
 969              	 .loc 2 401 0
 970 0044 F868     	 ldr r0,[r7,#12]
 971 0046 B968     	 ldr r1,[r7,#8]
 972 0048 7A68     	 ldr r2,[r7,#4]
 973 004a FFF7FEFF 	 bl mbedtls_asn1_get_int
 974 004e 7861     	 str r0,[r7,#20]
 975 0050 7B69     	 ldr r3,[r7,#20]
 976 0052 002B     	 cmp r3,#0
 977 0054 03D0     	 beq .L59
 402:C:/Users/Yushev/git/wpcqi-optiga-trust-charge/optiga/externals/mbedtls/library\x509_crt.c ****         return( MBEDTLS_ERR_X509_INVALID_VERSION + ret );
 978              	 .loc 2 402 0
 979 0056 7B69     	 ldr r3,[r7,#20]
 980 0058 A3F50853 	 sub r3,r3,#8704
 981 005c 07E0     	 b .L61
 982              	.L59:
 403:C:/Users/Yushev/git/wpcqi-optiga-trust-charge/optiga/externals/mbedtls/library\x509_crt.c **** 
 404:C:/Users/Yushev/git/wpcqi-optiga-trust-charge/optiga/externals/mbedtls/library\x509_crt.c ****     if( *p != end )
 983              	 .loc 2 404 0
 984 005e FB68     	 ldr r3,[r7,#12]
 985 0060 1A68     	 ldr r2,[r3]
 986 0062 BB68     	 ldr r3,[r7,#8]
 987 0064 9A42     	 cmp r2,r3
 988 0066 01D0     	 beq .L60
 405:C:/Users/Yushev/git/wpcqi-optiga-trust-charge/optiga/externals/mbedtls/library\x509_crt.c ****         return( MBEDTLS_ERR_X509_INVALID_VERSION +
 989              	 .loc 2 405 0
 990 0068 034B     	 ldr r3,.L62
 991 006a 00E0     	 b .L61
 992              	.L60:
 406:C:/Users/Yushev/git/wpcqi-optiga-trust-charge/optiga/externals/mbedtls/library\x509_crt.c ****                 MBEDTLS_ERR_ASN1_LENGTH_MISMATCH );
 407:C:/Users/Yushev/git/wpcqi-optiga-trust-charge/optiga/externals/mbedtls/library\x509_crt.c **** 
 408:C:/Users/Yushev/git/wpcqi-optiga-trust-charge/optiga/externals/mbedtls/library\x509_crt.c ****     return( 0 );
 993              	 .loc 2 408 0
 994 006c 0023     	 movs r3,#0
 995              	.L61:
 409:C:/Users/Yushev/git/wpcqi-optiga-trust-charge/optiga/externals/mbedtls/library\x509_crt.c **** }
 996              	 .loc 2 409 0 discriminator 1
 997 006e 1846     	 mov r0,r3
 998 0070 1837     	 adds r7,r7,#24
 999              	.LCFI53:
 1000              	 .cfi_def_cfa_offset 8
 1001 0072 BD46     	 mov sp,r7
 1002              	.LCFI54:
 1003              	 .cfi_def_cfa_register 13
 1004              	 
 1005 0074 80BD     	 pop {r7,pc}
 1006              	.L63:
 1007 0076 00BF     	 .align 2
 1008              	.L62:
 1009 0078 9ADDFFFF 	 .word -8806
 1010              	 .cfi_endproc
 1011              	.LFE17:
 1013              	 .section .text.x509_get_dates,"ax",%progbits
 1014              	 .align 2
 1015              	 .thumb
 1016              	 .thumb_func
 1018              	x509_get_dates:
 1019              	.LFB18:
 410:C:/Users/Yushev/git/wpcqi-optiga-trust-charge/optiga/externals/mbedtls/library\x509_crt.c **** 
 411:C:/Users/Yushev/git/wpcqi-optiga-trust-charge/optiga/externals/mbedtls/library\x509_crt.c **** /*
 412:C:/Users/Yushev/git/wpcqi-optiga-trust-charge/optiga/externals/mbedtls/library\x509_crt.c ****  *  Validity ::= SEQUENCE {
 413:C:/Users/Yushev/git/wpcqi-optiga-trust-charge/optiga/externals/mbedtls/library\x509_crt.c ****  *       notBefore      Time,
 414:C:/Users/Yushev/git/wpcqi-optiga-trust-charge/optiga/externals/mbedtls/library\x509_crt.c ****  *       notAfter       Time }
 415:C:/Users/Yushev/git/wpcqi-optiga-trust-charge/optiga/externals/mbedtls/library\x509_crt.c ****  */
 416:C:/Users/Yushev/git/wpcqi-optiga-trust-charge/optiga/externals/mbedtls/library\x509_crt.c **** static int x509_get_dates( unsigned char **p,
 417:C:/Users/Yushev/git/wpcqi-optiga-trust-charge/optiga/externals/mbedtls/library\x509_crt.c ****                            const unsigned char *end,
 418:C:/Users/Yushev/git/wpcqi-optiga-trust-charge/optiga/externals/mbedtls/library\x509_crt.c ****                            mbedtls_x509_time *from,
 419:C:/Users/Yushev/git/wpcqi-optiga-trust-charge/optiga/externals/mbedtls/library\x509_crt.c ****                            mbedtls_x509_time *to )
 420:C:/Users/Yushev/git/wpcqi-optiga-trust-charge/optiga/externals/mbedtls/library\x509_crt.c **** {
 1020              	 .loc 2 420 0
 1021              	 .cfi_startproc
 1022              	 
 1023              	 
 1024 0000 80B5     	 push {r7,lr}
 1025              	.LCFI55:
 1026              	 .cfi_def_cfa_offset 8
 1027              	 .cfi_offset 7,-8
 1028              	 .cfi_offset 14,-4
 1029 0002 86B0     	 sub sp,sp,#24
 1030              	.LCFI56:
 1031              	 .cfi_def_cfa_offset 32
 1032 0004 00AF     	 add r7,sp,#0
 1033              	.LCFI57:
 1034              	 .cfi_def_cfa_register 7
 1035 0006 F860     	 str r0,[r7,#12]
 1036 0008 B960     	 str r1,[r7,#8]
 1037 000a 7A60     	 str r2,[r7,#4]
 1038 000c 3B60     	 str r3,[r7]
 421:C:/Users/Yushev/git/wpcqi-optiga-trust-charge/optiga/externals/mbedtls/library\x509_crt.c ****     int ret;
 422:C:/Users/Yushev/git/wpcqi-optiga-trust-charge/optiga/externals/mbedtls/library\x509_crt.c ****     size_t len;
 423:C:/Users/Yushev/git/wpcqi-optiga-trust-charge/optiga/externals/mbedtls/library\x509_crt.c **** 
 424:C:/Users/Yushev/git/wpcqi-optiga-trust-charge/optiga/externals/mbedtls/library\x509_crt.c ****     if( ( ret = mbedtls_asn1_get_tag( p, end, &len,
 1039              	 .loc 2 424 0
 1040 000e 07F11003 	 add r3,r7,#16
 1041 0012 F868     	 ldr r0,[r7,#12]
 1042 0014 B968     	 ldr r1,[r7,#8]
 1043 0016 1A46     	 mov r2,r3
 1044 0018 3023     	 movs r3,#48
 1045 001a FFF7FEFF 	 bl mbedtls_asn1_get_tag
 1046 001e 7861     	 str r0,[r7,#20]
 1047 0020 7B69     	 ldr r3,[r7,#20]
 1048 0022 002B     	 cmp r3,#0
 1049 0024 03D0     	 beq .L65
 425:C:/Users/Yushev/git/wpcqi-optiga-trust-charge/optiga/externals/mbedtls/library\x509_crt.c ****             MBEDTLS_ASN1_CONSTRUCTED | MBEDTLS_ASN1_SEQUENCE ) ) != 0 )
 426:C:/Users/Yushev/git/wpcqi-optiga-trust-charge/optiga/externals/mbedtls/library\x509_crt.c ****         return( MBEDTLS_ERR_X509_INVALID_DATE + ret );
 1050              	 .loc 2 426 0
 1051 0026 7B69     	 ldr r3,[r7,#20]
 1052 0028 A3F51053 	 sub r3,r3,#9216
 1053 002c 22E0     	 b .L70
 1054              	.L65:
 427:C:/Users/Yushev/git/wpcqi-optiga-trust-charge/optiga/externals/mbedtls/library\x509_crt.c **** 
 428:C:/Users/Yushev/git/wpcqi-optiga-trust-charge/optiga/externals/mbedtls/library\x509_crt.c ****     end = *p + len;
 1055              	 .loc 2 428 0
 1056 002e FB68     	 ldr r3,[r7,#12]
 1057 0030 1A68     	 ldr r2,[r3]
 1058 0032 3B69     	 ldr r3,[r7,#16]
 1059 0034 1344     	 add r3,r3,r2
 1060 0036 BB60     	 str r3,[r7,#8]
 429:C:/Users/Yushev/git/wpcqi-optiga-trust-charge/optiga/externals/mbedtls/library\x509_crt.c **** 
 430:C:/Users/Yushev/git/wpcqi-optiga-trust-charge/optiga/externals/mbedtls/library\x509_crt.c ****     if( ( ret = mbedtls_x509_get_time( p, end, from ) ) != 0 )
 1061              	 .loc 2 430 0
 1062 0038 F868     	 ldr r0,[r7,#12]
 1063 003a B968     	 ldr r1,[r7,#8]
 1064 003c 7A68     	 ldr r2,[r7,#4]
 1065 003e FFF7FEFF 	 bl mbedtls_x509_get_time
 1066 0042 7861     	 str r0,[r7,#20]
 1067 0044 7B69     	 ldr r3,[r7,#20]
 1068 0046 002B     	 cmp r3,#0
 1069 0048 01D0     	 beq .L67
 431:C:/Users/Yushev/git/wpcqi-optiga-trust-charge/optiga/externals/mbedtls/library\x509_crt.c ****         return( ret );
 1070              	 .loc 2 431 0
 1071 004a 7B69     	 ldr r3,[r7,#20]
 1072 004c 12E0     	 b .L70
 1073              	.L67:
 432:C:/Users/Yushev/git/wpcqi-optiga-trust-charge/optiga/externals/mbedtls/library\x509_crt.c **** 
 433:C:/Users/Yushev/git/wpcqi-optiga-trust-charge/optiga/externals/mbedtls/library\x509_crt.c ****     if( ( ret = mbedtls_x509_get_time( p, end, to ) ) != 0 )
 1074              	 .loc 2 433 0
 1075 004e F868     	 ldr r0,[r7,#12]
 1076 0050 B968     	 ldr r1,[r7,#8]
 1077 0052 3A68     	 ldr r2,[r7]
 1078 0054 FFF7FEFF 	 bl mbedtls_x509_get_time
 1079 0058 7861     	 str r0,[r7,#20]
 1080 005a 7B69     	 ldr r3,[r7,#20]
 1081 005c 002B     	 cmp r3,#0
 1082 005e 01D0     	 beq .L68
 434:C:/Users/Yushev/git/wpcqi-optiga-trust-charge/optiga/externals/mbedtls/library\x509_crt.c ****         return( ret );
 1083              	 .loc 2 434 0
 1084 0060 7B69     	 ldr r3,[r7,#20]
 1085 0062 07E0     	 b .L70
 1086              	.L68:
 435:C:/Users/Yushev/git/wpcqi-optiga-trust-charge/optiga/externals/mbedtls/library\x509_crt.c **** 
 436:C:/Users/Yushev/git/wpcqi-optiga-trust-charge/optiga/externals/mbedtls/library\x509_crt.c ****     if( *p != end )
 1087              	 .loc 2 436 0
 1088 0064 FB68     	 ldr r3,[r7,#12]
 1089 0066 1A68     	 ldr r2,[r3]
 1090 0068 BB68     	 ldr r3,[r7,#8]
 1091 006a 9A42     	 cmp r2,r3
 1092 006c 01D0     	 beq .L69
 437:C:/Users/Yushev/git/wpcqi-optiga-trust-charge/optiga/externals/mbedtls/library\x509_crt.c ****         return( MBEDTLS_ERR_X509_INVALID_DATE +
 1093              	 .loc 2 437 0
 1094 006e 034B     	 ldr r3,.L71
 1095 0070 00E0     	 b .L70
 1096              	.L69:
 438:C:/Users/Yushev/git/wpcqi-optiga-trust-charge/optiga/externals/mbedtls/library\x509_crt.c ****                 MBEDTLS_ERR_ASN1_LENGTH_MISMATCH );
 439:C:/Users/Yushev/git/wpcqi-optiga-trust-charge/optiga/externals/mbedtls/library\x509_crt.c **** 
 440:C:/Users/Yushev/git/wpcqi-optiga-trust-charge/optiga/externals/mbedtls/library\x509_crt.c ****     return( 0 );
 1097              	 .loc 2 440 0
 1098 0072 0023     	 movs r3,#0
 1099              	.L70:
 441:C:/Users/Yushev/git/wpcqi-optiga-trust-charge/optiga/externals/mbedtls/library\x509_crt.c **** }
 1100              	 .loc 2 441 0 discriminator 1
 1101 0074 1846     	 mov r0,r3
 1102 0076 1837     	 adds r7,r7,#24
 1103              	.LCFI58:
 1104              	 .cfi_def_cfa_offset 8
 1105 0078 BD46     	 mov sp,r7
 1106              	.LCFI59:
 1107              	 .cfi_def_cfa_register 13
 1108              	 
 1109 007a 80BD     	 pop {r7,pc}
 1110              	.L72:
 1111              	 .align 2
 1112              	.L71:
 1113 007c 9ADBFFFF 	 .word -9318
 1114              	 .cfi_endproc
 1115              	.LFE18:
 1117              	 .section .text.x509_get_uid,"ax",%progbits
 1118              	 .align 2
 1119              	 .thumb
 1120              	 .thumb_func
 1122              	x509_get_uid:
 1123              	.LFB19:
 442:C:/Users/Yushev/git/wpcqi-optiga-trust-charge/optiga/externals/mbedtls/library\x509_crt.c **** 
 443:C:/Users/Yushev/git/wpcqi-optiga-trust-charge/optiga/externals/mbedtls/library\x509_crt.c **** /*
 444:C:/Users/Yushev/git/wpcqi-optiga-trust-charge/optiga/externals/mbedtls/library\x509_crt.c ****  * X.509 v2/v3 unique identifier (not parsed)
 445:C:/Users/Yushev/git/wpcqi-optiga-trust-charge/optiga/externals/mbedtls/library\x509_crt.c ****  */
 446:C:/Users/Yushev/git/wpcqi-optiga-trust-charge/optiga/externals/mbedtls/library\x509_crt.c **** static int x509_get_uid( unsigned char **p,
 447:C:/Users/Yushev/git/wpcqi-optiga-trust-charge/optiga/externals/mbedtls/library\x509_crt.c ****                          const unsigned char *end,
 448:C:/Users/Yushev/git/wpcqi-optiga-trust-charge/optiga/externals/mbedtls/library\x509_crt.c ****                          mbedtls_x509_buf *uid, int n )
 449:C:/Users/Yushev/git/wpcqi-optiga-trust-charge/optiga/externals/mbedtls/library\x509_crt.c **** {
 1124              	 .loc 2 449 0
 1125              	 .cfi_startproc
 1126              	 
 1127              	 
 1128 0000 80B5     	 push {r7,lr}
 1129              	.LCFI60:
 1130              	 .cfi_def_cfa_offset 8
 1131              	 .cfi_offset 7,-8
 1132              	 .cfi_offset 14,-4
 1133 0002 86B0     	 sub sp,sp,#24
 1134              	.LCFI61:
 1135              	 .cfi_def_cfa_offset 32
 1136 0004 00AF     	 add r7,sp,#0
 1137              	.LCFI62:
 1138              	 .cfi_def_cfa_register 7
 1139 0006 F860     	 str r0,[r7,#12]
 1140 0008 B960     	 str r1,[r7,#8]
 1141 000a 7A60     	 str r2,[r7,#4]
 1142 000c 3B60     	 str r3,[r7]
 450:C:/Users/Yushev/git/wpcqi-optiga-trust-charge/optiga/externals/mbedtls/library\x509_crt.c ****     int ret;
 451:C:/Users/Yushev/git/wpcqi-optiga-trust-charge/optiga/externals/mbedtls/library\x509_crt.c **** 
 452:C:/Users/Yushev/git/wpcqi-optiga-trust-charge/optiga/externals/mbedtls/library\x509_crt.c ****     if( *p == end )
 1143              	 .loc 2 452 0
 1144 000e FB68     	 ldr r3,[r7,#12]
 1145 0010 1A68     	 ldr r2,[r3]
 1146 0012 BB68     	 ldr r3,[r7,#8]
 1147 0014 9A42     	 cmp r2,r3
 1148 0016 01D1     	 bne .L74
 453:C:/Users/Yushev/git/wpcqi-optiga-trust-charge/optiga/externals/mbedtls/library\x509_crt.c ****         return( 0 );
 1149              	 .loc 2 453 0
 1150 0018 0023     	 movs r3,#0
 1151 001a 26E0     	 b .L75
 1152              	.L74:
 454:C:/Users/Yushev/git/wpcqi-optiga-trust-charge/optiga/externals/mbedtls/library\x509_crt.c **** 
 455:C:/Users/Yushev/git/wpcqi-optiga-trust-charge/optiga/externals/mbedtls/library\x509_crt.c ****     uid->tag = **p;
 1153              	 .loc 2 455 0
 1154 001c FB68     	 ldr r3,[r7,#12]
 1155 001e 1B68     	 ldr r3,[r3]
 1156 0020 1B78     	 ldrb r3,[r3]
 1157 0022 1A46     	 mov r2,r3
 1158 0024 7B68     	 ldr r3,[r7,#4]
 1159 0026 1A60     	 str r2,[r3]
 456:C:/Users/Yushev/git/wpcqi-optiga-trust-charge/optiga/externals/mbedtls/library\x509_crt.c **** 
 457:C:/Users/Yushev/git/wpcqi-optiga-trust-charge/optiga/externals/mbedtls/library\x509_crt.c ****     if( ( ret = mbedtls_asn1_get_tag( p, end, &uid->len,
 1160              	 .loc 2 457 0
 1161 0028 7B68     	 ldr r3,[r7,#4]
 1162 002a 1A1D     	 adds r2,r3,#4
 1163 002c 3B68     	 ldr r3,[r7]
 1164 002e 43F0A003 	 orr r3,r3,#160
 1165 0032 F868     	 ldr r0,[r7,#12]
 1166 0034 B968     	 ldr r1,[r7,#8]
 1167 0036 FFF7FEFF 	 bl mbedtls_asn1_get_tag
 1168 003a 7861     	 str r0,[r7,#20]
 1169 003c 7B69     	 ldr r3,[r7,#20]
 1170 003e 002B     	 cmp r3,#0
 1171 0040 07D0     	 beq .L76
 458:C:/Users/Yushev/git/wpcqi-optiga-trust-charge/optiga/externals/mbedtls/library\x509_crt.c ****             MBEDTLS_ASN1_CONTEXT_SPECIFIC | MBEDTLS_ASN1_CONSTRUCTED | n ) ) != 0 )
 459:C:/Users/Yushev/git/wpcqi-optiga-trust-charge/optiga/externals/mbedtls/library\x509_crt.c ****     {
 460:C:/Users/Yushev/git/wpcqi-optiga-trust-charge/optiga/externals/mbedtls/library\x509_crt.c ****         if( ret == MBEDTLS_ERR_ASN1_UNEXPECTED_TAG )
 1172              	 .loc 2 460 0
 1173 0042 7B69     	 ldr r3,[r7,#20]
 1174 0044 13F1620F 	 cmn r3,#98
 1175 0048 01D1     	 bne .L77
 461:C:/Users/Yushev/git/wpcqi-optiga-trust-charge/optiga/externals/mbedtls/library\x509_crt.c ****             return( 0 );
 1176              	 .loc 2 461 0
 1177 004a 0023     	 movs r3,#0
 1178 004c 0DE0     	 b .L75
 1179              	.L77:
 462:C:/Users/Yushev/git/wpcqi-optiga-trust-charge/optiga/externals/mbedtls/library\x509_crt.c **** 
 463:C:/Users/Yushev/git/wpcqi-optiga-trust-charge/optiga/externals/mbedtls/library\x509_crt.c ****         return( ret );
 1180              	 .loc 2 463 0
 1181 004e 7B69     	 ldr r3,[r7,#20]
 1182 0050 0BE0     	 b .L75
 1183              	.L76:
 464:C:/Users/Yushev/git/wpcqi-optiga-trust-charge/optiga/externals/mbedtls/library\x509_crt.c ****     }
 465:C:/Users/Yushev/git/wpcqi-optiga-trust-charge/optiga/externals/mbedtls/library\x509_crt.c **** 
 466:C:/Users/Yushev/git/wpcqi-optiga-trust-charge/optiga/externals/mbedtls/library\x509_crt.c ****     uid->p = *p;
 1184              	 .loc 2 466 0
 1185 0052 FB68     	 ldr r3,[r7,#12]
 1186 0054 1A68     	 ldr r2,[r3]
 1187 0056 7B68     	 ldr r3,[r7,#4]
 1188 0058 9A60     	 str r2,[r3,#8]
 467:C:/Users/Yushev/git/wpcqi-optiga-trust-charge/optiga/externals/mbedtls/library\x509_crt.c ****     *p += uid->len;
 1189              	 .loc 2 467 0
 1190 005a FB68     	 ldr r3,[r7,#12]
 1191 005c 1A68     	 ldr r2,[r3]
 1192 005e 7B68     	 ldr r3,[r7,#4]
 1193 0060 5B68     	 ldr r3,[r3,#4]
 1194 0062 1A44     	 add r2,r2,r3
 1195 0064 FB68     	 ldr r3,[r7,#12]
 1196 0066 1A60     	 str r2,[r3]
 468:C:/Users/Yushev/git/wpcqi-optiga-trust-charge/optiga/externals/mbedtls/library\x509_crt.c **** 
 469:C:/Users/Yushev/git/wpcqi-optiga-trust-charge/optiga/externals/mbedtls/library\x509_crt.c ****     return( 0 );
 1197              	 .loc 2 469 0
 1198 0068 0023     	 movs r3,#0
 1199              	.L75:
 470:C:/Users/Yushev/git/wpcqi-optiga-trust-charge/optiga/externals/mbedtls/library\x509_crt.c **** }
 1200              	 .loc 2 470 0
 1201 006a 1846     	 mov r0,r3
 1202 006c 1837     	 adds r7,r7,#24
 1203              	.LCFI63:
 1204              	 .cfi_def_cfa_offset 8
 1205 006e BD46     	 mov sp,r7
 1206              	.LCFI64:
 1207              	 .cfi_def_cfa_register 13
 1208              	 
 1209 0070 80BD     	 pop {r7,pc}
 1210              	 .cfi_endproc
 1211              	.LFE19:
 1213 0072 00BF     	 .section .text.x509_get_basic_constraints,"ax",%progbits
 1214              	 .align 2
 1215              	 .thumb
 1216              	 .thumb_func
 1218              	x509_get_basic_constraints:
 1219              	.LFB20:
 471:C:/Users/Yushev/git/wpcqi-optiga-trust-charge/optiga/externals/mbedtls/library\x509_crt.c **** 
 472:C:/Users/Yushev/git/wpcqi-optiga-trust-charge/optiga/externals/mbedtls/library\x509_crt.c **** static int x509_get_basic_constraints( unsigned char **p,
 473:C:/Users/Yushev/git/wpcqi-optiga-trust-charge/optiga/externals/mbedtls/library\x509_crt.c ****                                        const unsigned char *end,
 474:C:/Users/Yushev/git/wpcqi-optiga-trust-charge/optiga/externals/mbedtls/library\x509_crt.c ****                                        int *ca_istrue,
 475:C:/Users/Yushev/git/wpcqi-optiga-trust-charge/optiga/externals/mbedtls/library\x509_crt.c ****                                        int *max_pathlen )
 476:C:/Users/Yushev/git/wpcqi-optiga-trust-charge/optiga/externals/mbedtls/library\x509_crt.c **** {
 1220              	 .loc 2 476 0
 1221              	 .cfi_startproc
 1222              	 
 1223              	 
 1224 0000 80B5     	 push {r7,lr}
 1225              	.LCFI65:
 1226              	 .cfi_def_cfa_offset 8
 1227              	 .cfi_offset 7,-8
 1228              	 .cfi_offset 14,-4
 1229 0002 86B0     	 sub sp,sp,#24
 1230              	.LCFI66:
 1231              	 .cfi_def_cfa_offset 32
 1232 0004 00AF     	 add r7,sp,#0
 1233              	.LCFI67:
 1234              	 .cfi_def_cfa_register 7
 1235 0006 F860     	 str r0,[r7,#12]
 1236 0008 B960     	 str r1,[r7,#8]
 1237 000a 7A60     	 str r2,[r7,#4]
 1238 000c 3B60     	 str r3,[r7]
 477:C:/Users/Yushev/git/wpcqi-optiga-trust-charge/optiga/externals/mbedtls/library\x509_crt.c ****     int ret;
 478:C:/Users/Yushev/git/wpcqi-optiga-trust-charge/optiga/externals/mbedtls/library\x509_crt.c ****     size_t len;
 479:C:/Users/Yushev/git/wpcqi-optiga-trust-charge/optiga/externals/mbedtls/library\x509_crt.c **** 
 480:C:/Users/Yushev/git/wpcqi-optiga-trust-charge/optiga/externals/mbedtls/library\x509_crt.c ****     /*
 481:C:/Users/Yushev/git/wpcqi-optiga-trust-charge/optiga/externals/mbedtls/library\x509_crt.c ****      * BasicConstraints ::= SEQUENCE {
 482:C:/Users/Yushev/git/wpcqi-optiga-trust-charge/optiga/externals/mbedtls/library\x509_crt.c ****      *      cA                      BOOLEAN DEFAULT FALSE,
 483:C:/Users/Yushev/git/wpcqi-optiga-trust-charge/optiga/externals/mbedtls/library\x509_crt.c ****      *      pathLenConstraint       INTEGER (0..MAX) OPTIONAL }
 484:C:/Users/Yushev/git/wpcqi-optiga-trust-charge/optiga/externals/mbedtls/library\x509_crt.c ****      */
 485:C:/Users/Yushev/git/wpcqi-optiga-trust-charge/optiga/externals/mbedtls/library\x509_crt.c ****     *ca_istrue = 0; /* DEFAULT FALSE */
 1239              	 .loc 2 485 0
 1240 000e 7B68     	 ldr r3,[r7,#4]
 1241 0010 0022     	 movs r2,#0
 1242 0012 1A60     	 str r2,[r3]
 486:C:/Users/Yushev/git/wpcqi-optiga-trust-charge/optiga/externals/mbedtls/library\x509_crt.c ****     *max_pathlen = 0; /* endless */
 1243              	 .loc 2 486 0
 1244 0014 3B68     	 ldr r3,[r7]
 1245 0016 0022     	 movs r2,#0
 1246 0018 1A60     	 str r2,[r3]
 487:C:/Users/Yushev/git/wpcqi-optiga-trust-charge/optiga/externals/mbedtls/library\x509_crt.c **** 
 488:C:/Users/Yushev/git/wpcqi-optiga-trust-charge/optiga/externals/mbedtls/library\x509_crt.c ****     if( ( ret = mbedtls_asn1_get_tag( p, end, &len,
 1247              	 .loc 2 488 0
 1248 001a 07F11003 	 add r3,r7,#16
 1249 001e F868     	 ldr r0,[r7,#12]
 1250 0020 B968     	 ldr r1,[r7,#8]
 1251 0022 1A46     	 mov r2,r3
 1252 0024 3023     	 movs r3,#48
 1253 0026 FFF7FEFF 	 bl mbedtls_asn1_get_tag
 1254 002a 7861     	 str r0,[r7,#20]
 1255 002c 7B69     	 ldr r3,[r7,#20]
 1256 002e 002B     	 cmp r3,#0
 1257 0030 03D0     	 beq .L79
 489:C:/Users/Yushev/git/wpcqi-optiga-trust-charge/optiga/externals/mbedtls/library\x509_crt.c ****             MBEDTLS_ASN1_CONSTRUCTED | MBEDTLS_ASN1_SEQUENCE ) ) != 0 )
 490:C:/Users/Yushev/git/wpcqi-optiga-trust-charge/optiga/externals/mbedtls/library\x509_crt.c ****         return( MBEDTLS_ERR_X509_INVALID_EXTENSIONS + ret );
 1258              	 .loc 2 490 0
 1259 0032 7B69     	 ldr r3,[r7,#20]
 1260 0034 A3F51453 	 sub r3,r3,#9472
 1261 0038 48E0     	 b .L88
 1262              	.L79:
 491:C:/Users/Yushev/git/wpcqi-optiga-trust-charge/optiga/externals/mbedtls/library\x509_crt.c **** 
 492:C:/Users/Yushev/git/wpcqi-optiga-trust-charge/optiga/externals/mbedtls/library\x509_crt.c ****     if( *p == end )
 1263              	 .loc 2 492 0
 1264 003a FB68     	 ldr r3,[r7,#12]
 1265 003c 1A68     	 ldr r2,[r3]
 1266 003e BB68     	 ldr r3,[r7,#8]
 1267 0040 9A42     	 cmp r2,r3
 1268 0042 01D1     	 bne .L81
 493:C:/Users/Yushev/git/wpcqi-optiga-trust-charge/optiga/externals/mbedtls/library\x509_crt.c ****         return( 0 );
 1269              	 .loc 2 493 0
 1270 0044 0023     	 movs r3,#0
 1271 0046 41E0     	 b .L88
 1272              	.L81:
 494:C:/Users/Yushev/git/wpcqi-optiga-trust-charge/optiga/externals/mbedtls/library\x509_crt.c **** 
 495:C:/Users/Yushev/git/wpcqi-optiga-trust-charge/optiga/externals/mbedtls/library\x509_crt.c ****     if( ( ret = mbedtls_asn1_get_bool( p, end, ca_istrue ) ) != 0 )
 1273              	 .loc 2 495 0
 1274 0048 F868     	 ldr r0,[r7,#12]
 1275 004a B968     	 ldr r1,[r7,#8]
 1276 004c 7A68     	 ldr r2,[r7,#4]
 1277 004e FFF7FEFF 	 bl mbedtls_asn1_get_bool
 1278 0052 7861     	 str r0,[r7,#20]
 1279 0054 7B69     	 ldr r3,[r7,#20]
 1280 0056 002B     	 cmp r3,#0
 1281 0058 17D0     	 beq .L82
 496:C:/Users/Yushev/git/wpcqi-optiga-trust-charge/optiga/externals/mbedtls/library\x509_crt.c ****     {
 497:C:/Users/Yushev/git/wpcqi-optiga-trust-charge/optiga/externals/mbedtls/library\x509_crt.c ****         if( ret == MBEDTLS_ERR_ASN1_UNEXPECTED_TAG )
 1282              	 .loc 2 497 0
 1283 005a 7B69     	 ldr r3,[r7,#20]
 1284 005c 13F1620F 	 cmn r3,#98
 1285 0060 05D1     	 bne .L83
 498:C:/Users/Yushev/git/wpcqi-optiga-trust-charge/optiga/externals/mbedtls/library\x509_crt.c ****             ret = mbedtls_asn1_get_int( p, end, ca_istrue );
 1286              	 .loc 2 498 0
 1287 0062 F868     	 ldr r0,[r7,#12]
 1288 0064 B968     	 ldr r1,[r7,#8]
 1289 0066 7A68     	 ldr r2,[r7,#4]
 1290 0068 FFF7FEFF 	 bl mbedtls_asn1_get_int
 1291 006c 7861     	 str r0,[r7,#20]
 1292              	.L83:
 499:C:/Users/Yushev/git/wpcqi-optiga-trust-charge/optiga/externals/mbedtls/library\x509_crt.c **** 
 500:C:/Users/Yushev/git/wpcqi-optiga-trust-charge/optiga/externals/mbedtls/library\x509_crt.c ****         if( ret != 0 )
 1293              	 .loc 2 500 0
 1294 006e 7B69     	 ldr r3,[r7,#20]
 1295 0070 002B     	 cmp r3,#0
 1296 0072 03D0     	 beq .L84
 501:C:/Users/Yushev/git/wpcqi-optiga-trust-charge/optiga/externals/mbedtls/library\x509_crt.c ****             return( MBEDTLS_ERR_X509_INVALID_EXTENSIONS + ret );
 1297              	 .loc 2 501 0
 1298 0074 7B69     	 ldr r3,[r7,#20]
 1299 0076 A3F51453 	 sub r3,r3,#9472
 1300 007a 27E0     	 b .L88
 1301              	.L84:
 502:C:/Users/Yushev/git/wpcqi-optiga-trust-charge/optiga/externals/mbedtls/library\x509_crt.c **** 
 503:C:/Users/Yushev/git/wpcqi-optiga-trust-charge/optiga/externals/mbedtls/library\x509_crt.c ****         if( *ca_istrue != 0 )
 1302              	 .loc 2 503 0
 1303 007c 7B68     	 ldr r3,[r7,#4]
 1304 007e 1B68     	 ldr r3,[r3]
 1305 0080 002B     	 cmp r3,#0
 1306 0082 02D0     	 beq .L82
 504:C:/Users/Yushev/git/wpcqi-optiga-trust-charge/optiga/externals/mbedtls/library\x509_crt.c ****             *ca_istrue = 1;
 1307              	 .loc 2 504 0
 1308 0084 7B68     	 ldr r3,[r7,#4]
 1309 0086 0122     	 movs r2,#1
 1310 0088 1A60     	 str r2,[r3]
 1311              	.L82:
 505:C:/Users/Yushev/git/wpcqi-optiga-trust-charge/optiga/externals/mbedtls/library\x509_crt.c ****     }
 506:C:/Users/Yushev/git/wpcqi-optiga-trust-charge/optiga/externals/mbedtls/library\x509_crt.c **** 
 507:C:/Users/Yushev/git/wpcqi-optiga-trust-charge/optiga/externals/mbedtls/library\x509_crt.c ****     if( *p == end )
 1312              	 .loc 2 507 0
 1313 008a FB68     	 ldr r3,[r7,#12]
 1314 008c 1A68     	 ldr r2,[r3]
 1315 008e BB68     	 ldr r3,[r7,#8]
 1316 0090 9A42     	 cmp r2,r3
 1317 0092 01D1     	 bne .L85
 508:C:/Users/Yushev/git/wpcqi-optiga-trust-charge/optiga/externals/mbedtls/library\x509_crt.c ****         return( 0 );
 1318              	 .loc 2 508 0
 1319 0094 0023     	 movs r3,#0
 1320 0096 19E0     	 b .L88
 1321              	.L85:
 509:C:/Users/Yushev/git/wpcqi-optiga-trust-charge/optiga/externals/mbedtls/library\x509_crt.c **** 
 510:C:/Users/Yushev/git/wpcqi-optiga-trust-charge/optiga/externals/mbedtls/library\x509_crt.c ****     if( ( ret = mbedtls_asn1_get_int( p, end, max_pathlen ) ) != 0 )
 1322              	 .loc 2 510 0
 1323 0098 F868     	 ldr r0,[r7,#12]
 1324 009a B968     	 ldr r1,[r7,#8]
 1325 009c 3A68     	 ldr r2,[r7]
 1326 009e FFF7FEFF 	 bl mbedtls_asn1_get_int
 1327 00a2 7861     	 str r0,[r7,#20]
 1328 00a4 7B69     	 ldr r3,[r7,#20]
 1329 00a6 002B     	 cmp r3,#0
 1330 00a8 03D0     	 beq .L86
 511:C:/Users/Yushev/git/wpcqi-optiga-trust-charge/optiga/externals/mbedtls/library\x509_crt.c ****         return( MBEDTLS_ERR_X509_INVALID_EXTENSIONS + ret );
 1331              	 .loc 2 511 0
 1332 00aa 7B69     	 ldr r3,[r7,#20]
 1333 00ac A3F51453 	 sub r3,r3,#9472
 1334 00b0 0CE0     	 b .L88
 1335              	.L86:
 512:C:/Users/Yushev/git/wpcqi-optiga-trust-charge/optiga/externals/mbedtls/library\x509_crt.c **** 
 513:C:/Users/Yushev/git/wpcqi-optiga-trust-charge/optiga/externals/mbedtls/library\x509_crt.c ****     if( *p != end )
 1336              	 .loc 2 513 0
 1337 00b2 FB68     	 ldr r3,[r7,#12]
 1338 00b4 1A68     	 ldr r2,[r3]
 1339 00b6 BB68     	 ldr r3,[r7,#8]
 1340 00b8 9A42     	 cmp r2,r3
 1341 00ba 01D0     	 beq .L87
 514:C:/Users/Yushev/git/wpcqi-optiga-trust-charge/optiga/externals/mbedtls/library\x509_crt.c ****         return( MBEDTLS_ERR_X509_INVALID_EXTENSIONS +
 1342              	 .loc 2 514 0
 1343 00bc 054B     	 ldr r3,.L89
 1344 00be 05E0     	 b .L88
 1345              	.L87:
 515:C:/Users/Yushev/git/wpcqi-optiga-trust-charge/optiga/externals/mbedtls/library\x509_crt.c ****                 MBEDTLS_ERR_ASN1_LENGTH_MISMATCH );
 516:C:/Users/Yushev/git/wpcqi-optiga-trust-charge/optiga/externals/mbedtls/library\x509_crt.c **** 
 517:C:/Users/Yushev/git/wpcqi-optiga-trust-charge/optiga/externals/mbedtls/library\x509_crt.c ****     (*max_pathlen)++;
 1346              	 .loc 2 517 0
 1347 00c0 3B68     	 ldr r3,[r7]
 1348 00c2 1B68     	 ldr r3,[r3]
 1349 00c4 5A1C     	 adds r2,r3,#1
 1350 00c6 3B68     	 ldr r3,[r7]
 1351 00c8 1A60     	 str r2,[r3]
 518:C:/Users/Yushev/git/wpcqi-optiga-trust-charge/optiga/externals/mbedtls/library\x509_crt.c **** 
 519:C:/Users/Yushev/git/wpcqi-optiga-trust-charge/optiga/externals/mbedtls/library\x509_crt.c ****     return( 0 );
 1352              	 .loc 2 519 0
 1353 00ca 0023     	 movs r3,#0
 1354              	.L88:
 520:C:/Users/Yushev/git/wpcqi-optiga-trust-charge/optiga/externals/mbedtls/library\x509_crt.c **** }
 1355              	 .loc 2 520 0 discriminator 1
 1356 00cc 1846     	 mov r0,r3
 1357 00ce 1837     	 adds r7,r7,#24
 1358              	.LCFI68:
 1359              	 .cfi_def_cfa_offset 8
 1360 00d0 BD46     	 mov sp,r7
 1361              	.LCFI69:
 1362              	 .cfi_def_cfa_register 13
 1363              	 
 1364 00d2 80BD     	 pop {r7,pc}
 1365              	.L90:
 1366              	 .align 2
 1367              	.L89:
 1368 00d4 9ADAFFFF 	 .word -9574
 1369              	 .cfi_endproc
 1370              	.LFE20:
 1372              	 .section .text.x509_get_ns_cert_type,"ax",%progbits
 1373              	 .align 2
 1374              	 .thumb
 1375              	 .thumb_func
 1377              	x509_get_ns_cert_type:
 1378              	.LFB21:
 521:C:/Users/Yushev/git/wpcqi-optiga-trust-charge/optiga/externals/mbedtls/library\x509_crt.c **** 
 522:C:/Users/Yushev/git/wpcqi-optiga-trust-charge/optiga/externals/mbedtls/library\x509_crt.c **** static int x509_get_ns_cert_type( unsigned char **p,
 523:C:/Users/Yushev/git/wpcqi-optiga-trust-charge/optiga/externals/mbedtls/library\x509_crt.c ****                                        const unsigned char *end,
 524:C:/Users/Yushev/git/wpcqi-optiga-trust-charge/optiga/externals/mbedtls/library\x509_crt.c ****                                        unsigned char *ns_cert_type)
 525:C:/Users/Yushev/git/wpcqi-optiga-trust-charge/optiga/externals/mbedtls/library\x509_crt.c **** {
 1379              	 .loc 2 525 0
 1380              	 .cfi_startproc
 1381              	 
 1382              	 
 1383 0000 80B5     	 push {r7,lr}
 1384              	.LCFI70:
 1385              	 .cfi_def_cfa_offset 8
 1386              	 .cfi_offset 7,-8
 1387              	 .cfi_offset 14,-4
 1388 0002 88B0     	 sub sp,sp,#32
 1389              	.LCFI71:
 1390              	 .cfi_def_cfa_offset 40
 1391 0004 00AF     	 add r7,sp,#0
 1392              	.LCFI72:
 1393              	 .cfi_def_cfa_register 7
 1394 0006 F860     	 str r0,[r7,#12]
 1395 0008 B960     	 str r1,[r7,#8]
 1396 000a 7A60     	 str r2,[r7,#4]
 526:C:/Users/Yushev/git/wpcqi-optiga-trust-charge/optiga/externals/mbedtls/library\x509_crt.c ****     int ret;
 527:C:/Users/Yushev/git/wpcqi-optiga-trust-charge/optiga/externals/mbedtls/library\x509_crt.c ****     mbedtls_x509_bitstring bs = { 0, 0, NULL };
 1397              	 .loc 2 527 0
 1398 000c 0023     	 movs r3,#0
 1399 000e 3B61     	 str r3,[r7,#16]
 1400 0010 0023     	 movs r3,#0
 1401 0012 3B75     	 strb r3,[r7,#20]
 1402 0014 0023     	 movs r3,#0
 1403 0016 BB61     	 str r3,[r7,#24]
 528:C:/Users/Yushev/git/wpcqi-optiga-trust-charge/optiga/externals/mbedtls/library\x509_crt.c **** 
 529:C:/Users/Yushev/git/wpcqi-optiga-trust-charge/optiga/externals/mbedtls/library\x509_crt.c ****     if( ( ret = mbedtls_asn1_get_bitstring( p, end, &bs ) ) != 0 )
 1404              	 .loc 2 529 0
 1405 0018 07F11003 	 add r3,r7,#16
 1406 001c F868     	 ldr r0,[r7,#12]
 1407 001e B968     	 ldr r1,[r7,#8]
 1408 0020 1A46     	 mov r2,r3
 1409 0022 FFF7FEFF 	 bl mbedtls_asn1_get_bitstring
 1410 0026 F861     	 str r0,[r7,#28]
 1411 0028 FB69     	 ldr r3,[r7,#28]
 1412 002a 002B     	 cmp r3,#0
 1413 002c 03D0     	 beq .L92
 530:C:/Users/Yushev/git/wpcqi-optiga-trust-charge/optiga/externals/mbedtls/library\x509_crt.c ****         return( MBEDTLS_ERR_X509_INVALID_EXTENSIONS + ret );
 1414              	 .loc 2 530 0
 1415 002e FB69     	 ldr r3,[r7,#28]
 1416 0030 A3F51453 	 sub r3,r3,#9472
 1417 0034 09E0     	 b .L95
 1418              	.L92:
 531:C:/Users/Yushev/git/wpcqi-optiga-trust-charge/optiga/externals/mbedtls/library\x509_crt.c **** 
 532:C:/Users/Yushev/git/wpcqi-optiga-trust-charge/optiga/externals/mbedtls/library\x509_crt.c ****     if( bs.len != 1 )
 1419              	 .loc 2 532 0
 1420 0036 3B69     	 ldr r3,[r7,#16]
 1421 0038 012B     	 cmp r3,#1
 1422 003a 01D0     	 beq .L94
 533:C:/Users/Yushev/git/wpcqi-optiga-trust-charge/optiga/externals/mbedtls/library\x509_crt.c ****         return( MBEDTLS_ERR_X509_INVALID_EXTENSIONS +
 1423              	 .loc 2 533 0
 1424 003c 054B     	 ldr r3,.L96
 1425 003e 04E0     	 b .L95
 1426              	.L94:
 534:C:/Users/Yushev/git/wpcqi-optiga-trust-charge/optiga/externals/mbedtls/library\x509_crt.c ****                 MBEDTLS_ERR_ASN1_INVALID_LENGTH );
 535:C:/Users/Yushev/git/wpcqi-optiga-trust-charge/optiga/externals/mbedtls/library\x509_crt.c **** 
 536:C:/Users/Yushev/git/wpcqi-optiga-trust-charge/optiga/externals/mbedtls/library\x509_crt.c ****     /* Get actual bitstring */
 537:C:/Users/Yushev/git/wpcqi-optiga-trust-charge/optiga/externals/mbedtls/library\x509_crt.c ****     *ns_cert_type = *bs.p;
 1427              	 .loc 2 537 0
 1428 0040 BB69     	 ldr r3,[r7,#24]
 1429 0042 1A78     	 ldrb r2,[r3]
 1430 0044 7B68     	 ldr r3,[r7,#4]
 1431 0046 1A70     	 strb r2,[r3]
 538:C:/Users/Yushev/git/wpcqi-optiga-trust-charge/optiga/externals/mbedtls/library\x509_crt.c ****     return( 0 );
 1432              	 .loc 2 538 0
 1433 0048 0023     	 movs r3,#0
 1434              	.L95:
 539:C:/Users/Yushev/git/wpcqi-optiga-trust-charge/optiga/externals/mbedtls/library\x509_crt.c **** }
 1435              	 .loc 2 539 0 discriminator 1
 1436 004a 1846     	 mov r0,r3
 1437 004c 2037     	 adds r7,r7,#32
 1438              	.LCFI73:
 1439              	 .cfi_def_cfa_offset 8
 1440 004e BD46     	 mov sp,r7
 1441              	.LCFI74:
 1442              	 .cfi_def_cfa_register 13
 1443              	 
 1444 0050 80BD     	 pop {r7,pc}
 1445              	.L97:
 1446 0052 00BF     	 .align 2
 1447              	.L96:
 1448 0054 9CDAFFFF 	 .word -9572
 1449              	 .cfi_endproc
 1450              	.LFE21:
 1452              	 .section .text.x509_get_key_usage,"ax",%progbits
 1453              	 .align 2
 1454              	 .thumb
 1455              	 .thumb_func
 1457              	x509_get_key_usage:
 1458              	.LFB22:
 540:C:/Users/Yushev/git/wpcqi-optiga-trust-charge/optiga/externals/mbedtls/library\x509_crt.c **** 
 541:C:/Users/Yushev/git/wpcqi-optiga-trust-charge/optiga/externals/mbedtls/library\x509_crt.c **** static int x509_get_key_usage( unsigned char **p,
 542:C:/Users/Yushev/git/wpcqi-optiga-trust-charge/optiga/externals/mbedtls/library\x509_crt.c ****                                const unsigned char *end,
 543:C:/Users/Yushev/git/wpcqi-optiga-trust-charge/optiga/externals/mbedtls/library\x509_crt.c ****                                unsigned int *key_usage)
 544:C:/Users/Yushev/git/wpcqi-optiga-trust-charge/optiga/externals/mbedtls/library\x509_crt.c **** {
 1459              	 .loc 2 544 0
 1460              	 .cfi_startproc
 1461              	 
 1462              	 
 1463 0000 80B5     	 push {r7,lr}
 1464              	.LCFI75:
 1465              	 .cfi_def_cfa_offset 8
 1466              	 .cfi_offset 7,-8
 1467              	 .cfi_offset 14,-4
 1468 0002 8AB0     	 sub sp,sp,#40
 1469              	.LCFI76:
 1470              	 .cfi_def_cfa_offset 48
 1471 0004 00AF     	 add r7,sp,#0
 1472              	.LCFI77:
 1473              	 .cfi_def_cfa_register 7
 1474 0006 F860     	 str r0,[r7,#12]
 1475 0008 B960     	 str r1,[r7,#8]
 1476 000a 7A60     	 str r2,[r7,#4]
 545:C:/Users/Yushev/git/wpcqi-optiga-trust-charge/optiga/externals/mbedtls/library\x509_crt.c ****     int ret;
 546:C:/Users/Yushev/git/wpcqi-optiga-trust-charge/optiga/externals/mbedtls/library\x509_crt.c ****     size_t i;
 547:C:/Users/Yushev/git/wpcqi-optiga-trust-charge/optiga/externals/mbedtls/library\x509_crt.c ****     mbedtls_x509_bitstring bs = { 0, 0, NULL };
 1477              	 .loc 2 547 0
 1478 000c 0023     	 movs r3,#0
 1479 000e 7B61     	 str r3,[r7,#20]
 1480 0010 0023     	 movs r3,#0
 1481 0012 3B76     	 strb r3,[r7,#24]
 1482 0014 0023     	 movs r3,#0
 1483 0016 FB61     	 str r3,[r7,#28]
 548:C:/Users/Yushev/git/wpcqi-optiga-trust-charge/optiga/externals/mbedtls/library\x509_crt.c **** 
 549:C:/Users/Yushev/git/wpcqi-optiga-trust-charge/optiga/externals/mbedtls/library\x509_crt.c ****     if( ( ret = mbedtls_asn1_get_bitstring( p, end, &bs ) ) != 0 )
 1484              	 .loc 2 549 0
 1485 0018 07F11403 	 add r3,r7,#20
 1486 001c F868     	 ldr r0,[r7,#12]
 1487 001e B968     	 ldr r1,[r7,#8]
 1488 0020 1A46     	 mov r2,r3
 1489 0022 FFF7FEFF 	 bl mbedtls_asn1_get_bitstring
 1490 0026 3862     	 str r0,[r7,#32]
 1491 0028 3B6A     	 ldr r3,[r7,#32]
 1492 002a 002B     	 cmp r3,#0
 1493 002c 03D0     	 beq .L99
 550:C:/Users/Yushev/git/wpcqi-optiga-trust-charge/optiga/externals/mbedtls/library\x509_crt.c ****         return( MBEDTLS_ERR_X509_INVALID_EXTENSIONS + ret );
 1494              	 .loc 2 550 0
 1495 002e 3B6A     	 ldr r3,[r7,#32]
 1496 0030 A3F51453 	 sub r3,r3,#9472
 1497 0034 23E0     	 b .L105
 1498              	.L99:
 551:C:/Users/Yushev/git/wpcqi-optiga-trust-charge/optiga/externals/mbedtls/library\x509_crt.c **** 
 552:C:/Users/Yushev/git/wpcqi-optiga-trust-charge/optiga/externals/mbedtls/library\x509_crt.c ****     if( bs.len < 1 )
 1499              	 .loc 2 552 0
 1500 0036 7B69     	 ldr r3,[r7,#20]
 1501 0038 002B     	 cmp r3,#0
 1502 003a 01D1     	 bne .L101
 553:C:/Users/Yushev/git/wpcqi-optiga-trust-charge/optiga/externals/mbedtls/library\x509_crt.c ****         return( MBEDTLS_ERR_X509_INVALID_EXTENSIONS +
 1503              	 .loc 2 553 0
 1504 003c 124B     	 ldr r3,.L106
 1505 003e 1EE0     	 b .L105
 1506              	.L101:
 554:C:/Users/Yushev/git/wpcqi-optiga-trust-charge/optiga/externals/mbedtls/library\x509_crt.c ****                 MBEDTLS_ERR_ASN1_INVALID_LENGTH );
 555:C:/Users/Yushev/git/wpcqi-optiga-trust-charge/optiga/externals/mbedtls/library\x509_crt.c **** 
 556:C:/Users/Yushev/git/wpcqi-optiga-trust-charge/optiga/externals/mbedtls/library\x509_crt.c ****     /* Get actual bitstring */
 557:C:/Users/Yushev/git/wpcqi-optiga-trust-charge/optiga/externals/mbedtls/library\x509_crt.c ****     *key_usage = 0;
 1507              	 .loc 2 557 0
 1508 0040 7B68     	 ldr r3,[r7,#4]
 1509 0042 0022     	 movs r2,#0
 1510 0044 1A60     	 str r2,[r3]
 558:C:/Users/Yushev/git/wpcqi-optiga-trust-charge/optiga/externals/mbedtls/library\x509_crt.c ****     for( i = 0; i < bs.len && i < sizeof( unsigned int ); i++ )
 1511              	 .loc 2 558 0
 1512 0046 0023     	 movs r3,#0
 1513 0048 7B62     	 str r3,[r7,#36]
 1514 004a 10E0     	 b .L102
 1515              	.L104:
 559:C:/Users/Yushev/git/wpcqi-optiga-trust-charge/optiga/externals/mbedtls/library\x509_crt.c ****     {
 560:C:/Users/Yushev/git/wpcqi-optiga-trust-charge/optiga/externals/mbedtls/library\x509_crt.c ****         *key_usage |= (unsigned int) bs.p[i] << (8*i);
 1516              	 .loc 2 560 0 discriminator 4
 1517 004c 7B68     	 ldr r3,[r7,#4]
 1518 004e 1A68     	 ldr r2,[r3]
 1519 0050 F969     	 ldr r1,[r7,#28]
 1520 0052 7B6A     	 ldr r3,[r7,#36]
 1521 0054 0B44     	 add r3,r3,r1
 1522 0056 1B78     	 ldrb r3,[r3]
 1523 0058 1946     	 mov r1,r3
 1524 005a 7B6A     	 ldr r3,[r7,#36]
 1525 005c DB00     	 lsls r3,r3,#3
 1526 005e 01FA03F3 	 lsl r3,r1,r3
 1527 0062 1A43     	 orrs r2,r2,r3
 1528 0064 7B68     	 ldr r3,[r7,#4]
 1529 0066 1A60     	 str r2,[r3]
 558:C:/Users/Yushev/git/wpcqi-optiga-trust-charge/optiga/externals/mbedtls/library\x509_crt.c ****     for( i = 0; i < bs.len && i < sizeof( unsigned int ); i++ )
 1530              	 .loc 2 558 0 discriminator 4
 1531 0068 7B6A     	 ldr r3,[r7,#36]
 1532 006a 0133     	 adds r3,r3,#1
 1533 006c 7B62     	 str r3,[r7,#36]
 1534              	.L102:
 558:C:/Users/Yushev/git/wpcqi-optiga-trust-charge/optiga/externals/mbedtls/library\x509_crt.c ****     for( i = 0; i < bs.len && i < sizeof( unsigned int ); i++ )
 1535              	 .loc 2 558 0 is_stmt 0 discriminator 1
 1536 006e 7A69     	 ldr r2,[r7,#20]
 1537 0070 7B6A     	 ldr r3,[r7,#36]
 1538 0072 9A42     	 cmp r2,r3
 1539 0074 02D9     	 bls .L103
 558:C:/Users/Yushev/git/wpcqi-optiga-trust-charge/optiga/externals/mbedtls/library\x509_crt.c ****     for( i = 0; i < bs.len && i < sizeof( unsigned int ); i++ )
 1540              	 .loc 2 558 0 discriminator 3
 1541 0076 7B6A     	 ldr r3,[r7,#36]
 1542 0078 032B     	 cmp r3,#3
 1543 007a E7D9     	 bls .L104
 1544              	.L103:
 561:C:/Users/Yushev/git/wpcqi-optiga-trust-charge/optiga/externals/mbedtls/library\x509_crt.c ****     }
 562:C:/Users/Yushev/git/wpcqi-optiga-trust-charge/optiga/externals/mbedtls/library\x509_crt.c **** 
 563:C:/Users/Yushev/git/wpcqi-optiga-trust-charge/optiga/externals/mbedtls/library\x509_crt.c ****     return( 0 );
 1545              	 .loc 2 563 0 is_stmt 1
 1546 007c 0023     	 movs r3,#0
 1547              	.L105:
 564:C:/Users/Yushev/git/wpcqi-optiga-trust-charge/optiga/externals/mbedtls/library\x509_crt.c **** }
 1548              	 .loc 2 564 0 discriminator 1
 1549 007e 1846     	 mov r0,r3
 1550 0080 2837     	 adds r7,r7,#40
 1551              	.LCFI78:
 1552              	 .cfi_def_cfa_offset 8
 1553 0082 BD46     	 mov sp,r7
 1554              	.LCFI79:
 1555              	 .cfi_def_cfa_register 13
 1556              	 
 1557 0084 80BD     	 pop {r7,pc}
 1558              	.L107:
 1559 0086 00BF     	 .align 2
 1560              	.L106:
 1561 0088 9CDAFFFF 	 .word -9572
 1562              	 .cfi_endproc
 1563              	.LFE22:
 1565              	 .section .text.x509_get_ext_key_usage,"ax",%progbits
 1566              	 .align 2
 1567              	 .thumb
 1568              	 .thumb_func
 1570              	x509_get_ext_key_usage:
 1571              	.LFB23:
 565:C:/Users/Yushev/git/wpcqi-optiga-trust-charge/optiga/externals/mbedtls/library\x509_crt.c **** 
 566:C:/Users/Yushev/git/wpcqi-optiga-trust-charge/optiga/externals/mbedtls/library\x509_crt.c **** /*
 567:C:/Users/Yushev/git/wpcqi-optiga-trust-charge/optiga/externals/mbedtls/library\x509_crt.c ****  * ExtKeyUsageSyntax ::= SEQUENCE SIZE (1..MAX) OF KeyPurposeId
 568:C:/Users/Yushev/git/wpcqi-optiga-trust-charge/optiga/externals/mbedtls/library\x509_crt.c ****  *
 569:C:/Users/Yushev/git/wpcqi-optiga-trust-charge/optiga/externals/mbedtls/library\x509_crt.c ****  * KeyPurposeId ::= OBJECT IDENTIFIER
 570:C:/Users/Yushev/git/wpcqi-optiga-trust-charge/optiga/externals/mbedtls/library\x509_crt.c ****  */
 571:C:/Users/Yushev/git/wpcqi-optiga-trust-charge/optiga/externals/mbedtls/library\x509_crt.c **** static int x509_get_ext_key_usage( unsigned char **p,
 572:C:/Users/Yushev/git/wpcqi-optiga-trust-charge/optiga/externals/mbedtls/library\x509_crt.c ****                                const unsigned char *end,
 573:C:/Users/Yushev/git/wpcqi-optiga-trust-charge/optiga/externals/mbedtls/library\x509_crt.c ****                                mbedtls_x509_sequence *ext_key_usage)
 574:C:/Users/Yushev/git/wpcqi-optiga-trust-charge/optiga/externals/mbedtls/library\x509_crt.c **** {
 1572              	 .loc 2 574 0
 1573              	 .cfi_startproc
 1574              	 
 1575              	 
 1576 0000 80B5     	 push {r7,lr}
 1577              	.LCFI80:
 1578              	 .cfi_def_cfa_offset 8
 1579              	 .cfi_offset 7,-8
 1580              	 .cfi_offset 14,-4
 1581 0002 86B0     	 sub sp,sp,#24
 1582              	.LCFI81:
 1583              	 .cfi_def_cfa_offset 32
 1584 0004 00AF     	 add r7,sp,#0
 1585              	.LCFI82:
 1586              	 .cfi_def_cfa_register 7
 1587 0006 F860     	 str r0,[r7,#12]
 1588 0008 B960     	 str r1,[r7,#8]
 1589 000a 7A60     	 str r2,[r7,#4]
 575:C:/Users/Yushev/git/wpcqi-optiga-trust-charge/optiga/externals/mbedtls/library\x509_crt.c ****     int ret;
 576:C:/Users/Yushev/git/wpcqi-optiga-trust-charge/optiga/externals/mbedtls/library\x509_crt.c **** 
 577:C:/Users/Yushev/git/wpcqi-optiga-trust-charge/optiga/externals/mbedtls/library\x509_crt.c ****     if( ( ret = mbedtls_asn1_get_sequence_of( p, end, ext_key_usage, MBEDTLS_ASN1_OID ) ) != 0 )
 1590              	 .loc 2 577 0
 1591 000c F868     	 ldr r0,[r7,#12]
 1592 000e B968     	 ldr r1,[r7,#8]
 1593 0010 7A68     	 ldr r2,[r7,#4]
 1594 0012 0623     	 movs r3,#6
 1595 0014 FFF7FEFF 	 bl mbedtls_asn1_get_sequence_of
 1596 0018 7861     	 str r0,[r7,#20]
 1597 001a 7B69     	 ldr r3,[r7,#20]
 1598 001c 002B     	 cmp r3,#0
 1599 001e 03D0     	 beq .L109
 578:C:/Users/Yushev/git/wpcqi-optiga-trust-charge/optiga/externals/mbedtls/library\x509_crt.c ****         return( MBEDTLS_ERR_X509_INVALID_EXTENSIONS + ret );
 1600              	 .loc 2 578 0
 1601 0020 7B69     	 ldr r3,[r7,#20]
 1602 0022 A3F51453 	 sub r3,r3,#9472
 1603 0026 06E0     	 b .L110
 1604              	.L109:
 579:C:/Users/Yushev/git/wpcqi-optiga-trust-charge/optiga/externals/mbedtls/library\x509_crt.c **** 
 580:C:/Users/Yushev/git/wpcqi-optiga-trust-charge/optiga/externals/mbedtls/library\x509_crt.c ****     /* Sequence length must be >= 1 */
 581:C:/Users/Yushev/git/wpcqi-optiga-trust-charge/optiga/externals/mbedtls/library\x509_crt.c ****     if( ext_key_usage->buf.p == NULL )
 1605              	 .loc 2 581 0
 1606 0028 7B68     	 ldr r3,[r7,#4]
 1607 002a 9B68     	 ldr r3,[r3,#8]
 1608 002c 002B     	 cmp r3,#0
 1609 002e 01D1     	 bne .L111
 582:C:/Users/Yushev/git/wpcqi-optiga-trust-charge/optiga/externals/mbedtls/library\x509_crt.c ****         return( MBEDTLS_ERR_X509_INVALID_EXTENSIONS +
 1610              	 .loc 2 582 0
 1611 0030 034B     	 ldr r3,.L112
 1612 0032 00E0     	 b .L110
 1613              	.L111:
 583:C:/Users/Yushev/git/wpcqi-optiga-trust-charge/optiga/externals/mbedtls/library\x509_crt.c ****                 MBEDTLS_ERR_ASN1_INVALID_LENGTH );
 584:C:/Users/Yushev/git/wpcqi-optiga-trust-charge/optiga/externals/mbedtls/library\x509_crt.c **** 
 585:C:/Users/Yushev/git/wpcqi-optiga-trust-charge/optiga/externals/mbedtls/library\x509_crt.c ****     return( 0 );
 1614              	 .loc 2 585 0
 1615 0034 0023     	 movs r3,#0
 1616              	.L110:
 586:C:/Users/Yushev/git/wpcqi-optiga-trust-charge/optiga/externals/mbedtls/library\x509_crt.c **** }
 1617              	 .loc 2 586 0
 1618 0036 1846     	 mov r0,r3
 1619 0038 1837     	 adds r7,r7,#24
 1620              	.LCFI83:
 1621              	 .cfi_def_cfa_offset 8
 1622 003a BD46     	 mov sp,r7
 1623              	.LCFI84:
 1624              	 .cfi_def_cfa_register 13
 1625              	 
 1626 003c 80BD     	 pop {r7,pc}
 1627              	.L113:
 1628 003e 00BF     	 .align 2
 1629              	.L112:
 1630 0040 9CDAFFFF 	 .word -9572
 1631              	 .cfi_endproc
 1632              	.LFE23:
 1634              	 .section .text.x509_get_subject_alt_name,"ax",%progbits
 1635              	 .align 2
 1636              	 .thumb
 1637              	 .thumb_func
 1639              	x509_get_subject_alt_name:
 1640              	.LFB24:
 587:C:/Users/Yushev/git/wpcqi-optiga-trust-charge/optiga/externals/mbedtls/library\x509_crt.c **** 
 588:C:/Users/Yushev/git/wpcqi-optiga-trust-charge/optiga/externals/mbedtls/library\x509_crt.c **** /*
 589:C:/Users/Yushev/git/wpcqi-optiga-trust-charge/optiga/externals/mbedtls/library\x509_crt.c ****  * SubjectAltName ::= GeneralNames
 590:C:/Users/Yushev/git/wpcqi-optiga-trust-charge/optiga/externals/mbedtls/library\x509_crt.c ****  *
 591:C:/Users/Yushev/git/wpcqi-optiga-trust-charge/optiga/externals/mbedtls/library\x509_crt.c ****  * GeneralNames ::= SEQUENCE SIZE (1..MAX) OF GeneralName
 592:C:/Users/Yushev/git/wpcqi-optiga-trust-charge/optiga/externals/mbedtls/library\x509_crt.c ****  *
 593:C:/Users/Yushev/git/wpcqi-optiga-trust-charge/optiga/externals/mbedtls/library\x509_crt.c ****  * GeneralName ::= CHOICE {
 594:C:/Users/Yushev/git/wpcqi-optiga-trust-charge/optiga/externals/mbedtls/library\x509_crt.c ****  *      otherName                       [0]     OtherName,
 595:C:/Users/Yushev/git/wpcqi-optiga-trust-charge/optiga/externals/mbedtls/library\x509_crt.c ****  *      rfc822Name                      [1]     IA5String,
 596:C:/Users/Yushev/git/wpcqi-optiga-trust-charge/optiga/externals/mbedtls/library\x509_crt.c ****  *      dNSName                         [2]     IA5String,
 597:C:/Users/Yushev/git/wpcqi-optiga-trust-charge/optiga/externals/mbedtls/library\x509_crt.c ****  *      x400Address                     [3]     ORAddress,
 598:C:/Users/Yushev/git/wpcqi-optiga-trust-charge/optiga/externals/mbedtls/library\x509_crt.c ****  *      directoryName                   [4]     Name,
 599:C:/Users/Yushev/git/wpcqi-optiga-trust-charge/optiga/externals/mbedtls/library\x509_crt.c ****  *      ediPartyName                    [5]     EDIPartyName,
 600:C:/Users/Yushev/git/wpcqi-optiga-trust-charge/optiga/externals/mbedtls/library\x509_crt.c ****  *      uniformResourceIdentifier       [6]     IA5String,
 601:C:/Users/Yushev/git/wpcqi-optiga-trust-charge/optiga/externals/mbedtls/library\x509_crt.c ****  *      iPAddress                       [7]     OCTET STRING,
 602:C:/Users/Yushev/git/wpcqi-optiga-trust-charge/optiga/externals/mbedtls/library\x509_crt.c ****  *      registeredID                    [8]     OBJECT IDENTIFIER }
 603:C:/Users/Yushev/git/wpcqi-optiga-trust-charge/optiga/externals/mbedtls/library\x509_crt.c ****  *
 604:C:/Users/Yushev/git/wpcqi-optiga-trust-charge/optiga/externals/mbedtls/library\x509_crt.c ****  * OtherName ::= SEQUENCE {
 605:C:/Users/Yushev/git/wpcqi-optiga-trust-charge/optiga/externals/mbedtls/library\x509_crt.c ****  *      type-id    OBJECT IDENTIFIER,
 606:C:/Users/Yushev/git/wpcqi-optiga-trust-charge/optiga/externals/mbedtls/library\x509_crt.c ****  *      value      [0] EXPLICIT ANY DEFINED BY type-id }
 607:C:/Users/Yushev/git/wpcqi-optiga-trust-charge/optiga/externals/mbedtls/library\x509_crt.c ****  *
 608:C:/Users/Yushev/git/wpcqi-optiga-trust-charge/optiga/externals/mbedtls/library\x509_crt.c ****  * EDIPartyName ::= SEQUENCE {
 609:C:/Users/Yushev/git/wpcqi-optiga-trust-charge/optiga/externals/mbedtls/library\x509_crt.c ****  *      nameAssigner            [0]     DirectoryString OPTIONAL,
 610:C:/Users/Yushev/git/wpcqi-optiga-trust-charge/optiga/externals/mbedtls/library\x509_crt.c ****  *      partyName               [1]     DirectoryString }
 611:C:/Users/Yushev/git/wpcqi-optiga-trust-charge/optiga/externals/mbedtls/library\x509_crt.c ****  *
 612:C:/Users/Yushev/git/wpcqi-optiga-trust-charge/optiga/externals/mbedtls/library\x509_crt.c ****  * NOTE: we only parse and use dNSName at this point.
 613:C:/Users/Yushev/git/wpcqi-optiga-trust-charge/optiga/externals/mbedtls/library\x509_crt.c ****  */
 614:C:/Users/Yushev/git/wpcqi-optiga-trust-charge/optiga/externals/mbedtls/library\x509_crt.c **** static int x509_get_subject_alt_name( unsigned char **p,
 615:C:/Users/Yushev/git/wpcqi-optiga-trust-charge/optiga/externals/mbedtls/library\x509_crt.c ****                                       const unsigned char *end,
 616:C:/Users/Yushev/git/wpcqi-optiga-trust-charge/optiga/externals/mbedtls/library\x509_crt.c ****                                       mbedtls_x509_sequence *subject_alt_name )
 617:C:/Users/Yushev/git/wpcqi-optiga-trust-charge/optiga/externals/mbedtls/library\x509_crt.c **** {
 1641              	 .loc 2 617 0
 1642              	 .cfi_startproc
 1643              	 
 1644              	 
 1645 0000 80B5     	 push {r7,lr}
 1646              	.LCFI85:
 1647              	 .cfi_def_cfa_offset 8
 1648              	 .cfi_offset 7,-8
 1649              	 .cfi_offset 14,-4
 1650 0002 8AB0     	 sub sp,sp,#40
 1651              	.LCFI86:
 1652              	 .cfi_def_cfa_offset 48
 1653 0004 00AF     	 add r7,sp,#0
 1654              	.LCFI87:
 1655              	 .cfi_def_cfa_register 7
 1656 0006 F860     	 str r0,[r7,#12]
 1657 0008 B960     	 str r1,[r7,#8]
 1658 000a 7A60     	 str r2,[r7,#4]
 618:C:/Users/Yushev/git/wpcqi-optiga-trust-charge/optiga/externals/mbedtls/library\x509_crt.c ****     int ret;
 619:C:/Users/Yushev/git/wpcqi-optiga-trust-charge/optiga/externals/mbedtls/library\x509_crt.c ****     size_t len, tag_len;
 620:C:/Users/Yushev/git/wpcqi-optiga-trust-charge/optiga/externals/mbedtls/library\x509_crt.c ****     mbedtls_asn1_buf *buf;
 621:C:/Users/Yushev/git/wpcqi-optiga-trust-charge/optiga/externals/mbedtls/library\x509_crt.c ****     unsigned char tag;
 622:C:/Users/Yushev/git/wpcqi-optiga-trust-charge/optiga/externals/mbedtls/library\x509_crt.c ****     mbedtls_asn1_sequence *cur = subject_alt_name;
 1659              	 .loc 2 622 0
 1660 000c 7B68     	 ldr r3,[r7,#4]
 1661 000e 7B62     	 str r3,[r7,#36]
 623:C:/Users/Yushev/git/wpcqi-optiga-trust-charge/optiga/externals/mbedtls/library\x509_crt.c **** 
 624:C:/Users/Yushev/git/wpcqi-optiga-trust-charge/optiga/externals/mbedtls/library\x509_crt.c ****     /* Get main sequence tag */
 625:C:/Users/Yushev/git/wpcqi-optiga-trust-charge/optiga/externals/mbedtls/library\x509_crt.c ****     if( ( ret = mbedtls_asn1_get_tag( p, end, &len,
 1662              	 .loc 2 625 0
 1663 0010 07F11403 	 add r3,r7,#20
 1664 0014 F868     	 ldr r0,[r7,#12]
 1665 0016 B968     	 ldr r1,[r7,#8]
 1666 0018 1A46     	 mov r2,r3
 1667 001a 3023     	 movs r3,#48
 1668 001c FFF7FEFF 	 bl mbedtls_asn1_get_tag
 1669 0020 3862     	 str r0,[r7,#32]
 1670 0022 3B6A     	 ldr r3,[r7,#32]
 1671 0024 002B     	 cmp r3,#0
 1672 0026 03D0     	 beq .L115
 626:C:/Users/Yushev/git/wpcqi-optiga-trust-charge/optiga/externals/mbedtls/library\x509_crt.c ****             MBEDTLS_ASN1_CONSTRUCTED | MBEDTLS_ASN1_SEQUENCE ) ) != 0 )
 627:C:/Users/Yushev/git/wpcqi-optiga-trust-charge/optiga/externals/mbedtls/library\x509_crt.c ****         return( MBEDTLS_ERR_X509_INVALID_EXTENSIONS + ret );
 1673              	 .loc 2 627 0
 1674 0028 3B6A     	 ldr r3,[r7,#32]
 1675 002a A3F51453 	 sub r3,r3,#9472
 1676 002e 78E0     	 b .L128
 1677              	.L115:
 628:C:/Users/Yushev/git/wpcqi-optiga-trust-charge/optiga/externals/mbedtls/library\x509_crt.c **** 
 629:C:/Users/Yushev/git/wpcqi-optiga-trust-charge/optiga/externals/mbedtls/library\x509_crt.c ****     if( *p + len != end )
 1678              	 .loc 2 629 0
 1679 0030 FB68     	 ldr r3,[r7,#12]
 1680 0032 1A68     	 ldr r2,[r3]
 1681 0034 7B69     	 ldr r3,[r7,#20]
 1682 0036 1A44     	 add r2,r2,r3
 1683 0038 BB68     	 ldr r3,[r7,#8]
 1684 003a 9A42     	 cmp r2,r3
 1685 003c 01D0     	 beq .L117
 630:C:/Users/Yushev/git/wpcqi-optiga-trust-charge/optiga/externals/mbedtls/library\x509_crt.c ****         return( MBEDTLS_ERR_X509_INVALID_EXTENSIONS +
 1686              	 .loc 2 630 0
 1687 003e 3B4B     	 ldr r3,.L129
 1688 0040 6FE0     	 b .L128
 1689              	.L117:
 631:C:/Users/Yushev/git/wpcqi-optiga-trust-charge/optiga/externals/mbedtls/library\x509_crt.c ****                 MBEDTLS_ERR_ASN1_LENGTH_MISMATCH );
 632:C:/Users/Yushev/git/wpcqi-optiga-trust-charge/optiga/externals/mbedtls/library\x509_crt.c **** 
 633:C:/Users/Yushev/git/wpcqi-optiga-trust-charge/optiga/externals/mbedtls/library\x509_crt.c ****     while( *p < end )
 1690              	 .loc 2 633 0
 1691 0042 5EE0     	 b .L118
 1692              	.L126:
 634:C:/Users/Yushev/git/wpcqi-optiga-trust-charge/optiga/externals/mbedtls/library\x509_crt.c ****     {
 635:C:/Users/Yushev/git/wpcqi-optiga-trust-charge/optiga/externals/mbedtls/library\x509_crt.c ****         if( ( end - *p ) < 1 )
 1693              	 .loc 2 635 0
 1694 0044 BB68     	 ldr r3,[r7,#8]
 1695 0046 FA68     	 ldr r2,[r7,#12]
 1696 0048 1268     	 ldr r2,[r2]
 1697 004a 9B1A     	 subs r3,r3,r2
 1698 004c 002B     	 cmp r3,#0
 1699 004e 01DC     	 bgt .L119
 636:C:/Users/Yushev/git/wpcqi-optiga-trust-charge/optiga/externals/mbedtls/library\x509_crt.c ****             return( MBEDTLS_ERR_X509_INVALID_EXTENSIONS +
 1700              	 .loc 2 636 0
 1701 0050 374B     	 ldr r3,.L129+4
 1702 0052 66E0     	 b .L128
 1703              	.L119:
 637:C:/Users/Yushev/git/wpcqi-optiga-trust-charge/optiga/externals/mbedtls/library\x509_crt.c ****                     MBEDTLS_ERR_ASN1_OUT_OF_DATA );
 638:C:/Users/Yushev/git/wpcqi-optiga-trust-charge/optiga/externals/mbedtls/library\x509_crt.c **** 
 639:C:/Users/Yushev/git/wpcqi-optiga-trust-charge/optiga/externals/mbedtls/library\x509_crt.c ****         tag = **p;
 1704              	 .loc 2 639 0
 1705 0054 FB68     	 ldr r3,[r7,#12]
 1706 0056 1B68     	 ldr r3,[r3]
 1707 0058 1B78     	 ldrb r3,[r3]
 1708 005a FB77     	 strb r3,[r7,#31]
 640:C:/Users/Yushev/git/wpcqi-optiga-trust-charge/optiga/externals/mbedtls/library\x509_crt.c ****         (*p)++;
 1709              	 .loc 2 640 0
 1710 005c FB68     	 ldr r3,[r7,#12]
 1711 005e 1B68     	 ldr r3,[r3]
 1712 0060 5A1C     	 adds r2,r3,#1
 1713 0062 FB68     	 ldr r3,[r7,#12]
 1714 0064 1A60     	 str r2,[r3]
 641:C:/Users/Yushev/git/wpcqi-optiga-trust-charge/optiga/externals/mbedtls/library\x509_crt.c ****         if( ( ret = mbedtls_asn1_get_len( p, end, &tag_len ) ) != 0 )
 1715              	 .loc 2 641 0
 1716 0066 07F11003 	 add r3,r7,#16
 1717 006a F868     	 ldr r0,[r7,#12]
 1718 006c B968     	 ldr r1,[r7,#8]
 1719 006e 1A46     	 mov r2,r3
 1720 0070 FFF7FEFF 	 bl mbedtls_asn1_get_len
 1721 0074 3862     	 str r0,[r7,#32]
 1722 0076 3B6A     	 ldr r3,[r7,#32]
 1723 0078 002B     	 cmp r3,#0
 1724 007a 03D0     	 beq .L120
 642:C:/Users/Yushev/git/wpcqi-optiga-trust-charge/optiga/externals/mbedtls/library\x509_crt.c ****             return( MBEDTLS_ERR_X509_INVALID_EXTENSIONS + ret );
 1725              	 .loc 2 642 0
 1726 007c 3B6A     	 ldr r3,[r7,#32]
 1727 007e A3F51453 	 sub r3,r3,#9472
 1728 0082 4EE0     	 b .L128
 1729              	.L120:
 643:C:/Users/Yushev/git/wpcqi-optiga-trust-charge/optiga/externals/mbedtls/library\x509_crt.c **** 
 644:C:/Users/Yushev/git/wpcqi-optiga-trust-charge/optiga/externals/mbedtls/library\x509_crt.c ****         if( ( tag & MBEDTLS_ASN1_TAG_CLASS_MASK ) !=
 1730              	 .loc 2 644 0
 1731 0084 FB7F     	 ldrb r3,[r7,#31]
 1732 0086 03F0C003 	 and r3,r3,#192
 1733 008a 802B     	 cmp r3,#128
 1734 008c 01D0     	 beq .L121
 645:C:/Users/Yushev/git/wpcqi-optiga-trust-charge/optiga/externals/mbedtls/library\x509_crt.c ****                 MBEDTLS_ASN1_CONTEXT_SPECIFIC )
 646:C:/Users/Yushev/git/wpcqi-optiga-trust-charge/optiga/externals/mbedtls/library\x509_crt.c ****         {
 647:C:/Users/Yushev/git/wpcqi-optiga-trust-charge/optiga/externals/mbedtls/library\x509_crt.c ****             return( MBEDTLS_ERR_X509_INVALID_EXTENSIONS +
 1735              	 .loc 2 647 0
 1736 008e 294B     	 ldr r3,.L129+8
 1737 0090 47E0     	 b .L128
 1738              	.L121:
 648:C:/Users/Yushev/git/wpcqi-optiga-trust-charge/optiga/externals/mbedtls/library\x509_crt.c ****                     MBEDTLS_ERR_ASN1_UNEXPECTED_TAG );
 649:C:/Users/Yushev/git/wpcqi-optiga-trust-charge/optiga/externals/mbedtls/library\x509_crt.c ****         }
 650:C:/Users/Yushev/git/wpcqi-optiga-trust-charge/optiga/externals/mbedtls/library\x509_crt.c **** 
 651:C:/Users/Yushev/git/wpcqi-optiga-trust-charge/optiga/externals/mbedtls/library\x509_crt.c ****         /* Skip everything but DNS name */
 652:C:/Users/Yushev/git/wpcqi-optiga-trust-charge/optiga/externals/mbedtls/library\x509_crt.c ****         if( tag != ( MBEDTLS_ASN1_CONTEXT_SPECIFIC | 2 ) )
 1739              	 .loc 2 652 0
 1740 0092 FB7F     	 ldrb r3,[r7,#31]
 1741 0094 822B     	 cmp r3,#130
 1742 0096 06D0     	 beq .L122
 653:C:/Users/Yushev/git/wpcqi-optiga-trust-charge/optiga/externals/mbedtls/library\x509_crt.c ****         {
 654:C:/Users/Yushev/git/wpcqi-optiga-trust-charge/optiga/externals/mbedtls/library\x509_crt.c ****             *p += tag_len;
 1743              	 .loc 2 654 0
 1744 0098 FB68     	 ldr r3,[r7,#12]
 1745 009a 1A68     	 ldr r2,[r3]
 1746 009c 3B69     	 ldr r3,[r7,#16]
 1747 009e 1A44     	 add r2,r2,r3
 1748 00a0 FB68     	 ldr r3,[r7,#12]
 1749 00a2 1A60     	 str r2,[r3]
 655:C:/Users/Yushev/git/wpcqi-optiga-trust-charge/optiga/externals/mbedtls/library\x509_crt.c ****             continue;
 1750              	 .loc 2 655 0
 1751 00a4 2DE0     	 b .L118
 1752              	.L122:
 656:C:/Users/Yushev/git/wpcqi-optiga-trust-charge/optiga/externals/mbedtls/library\x509_crt.c ****         }
 657:C:/Users/Yushev/git/wpcqi-optiga-trust-charge/optiga/externals/mbedtls/library\x509_crt.c **** 
 658:C:/Users/Yushev/git/wpcqi-optiga-trust-charge/optiga/externals/mbedtls/library\x509_crt.c ****         /* Allocate and assign next pointer */
 659:C:/Users/Yushev/git/wpcqi-optiga-trust-charge/optiga/externals/mbedtls/library\x509_crt.c ****         if( cur->buf.p != NULL )
 1753              	 .loc 2 659 0
 1754 00a6 7B6A     	 ldr r3,[r7,#36]
 1755 00a8 9B68     	 ldr r3,[r3,#8]
 1756 00aa 002B     	 cmp r3,#0
 1757 00ac 16D0     	 beq .L123
 660:C:/Users/Yushev/git/wpcqi-optiga-trust-charge/optiga/externals/mbedtls/library\x509_crt.c ****         {
 661:C:/Users/Yushev/git/wpcqi-optiga-trust-charge/optiga/externals/mbedtls/library\x509_crt.c ****             if( cur->next != NULL )
 1758              	 .loc 2 661 0
 1759 00ae 7B6A     	 ldr r3,[r7,#36]
 1760 00b0 DB68     	 ldr r3,[r3,#12]
 1761 00b2 002B     	 cmp r3,#0
 1762 00b4 01D0     	 beq .L124
 662:C:/Users/Yushev/git/wpcqi-optiga-trust-charge/optiga/externals/mbedtls/library\x509_crt.c ****                 return( MBEDTLS_ERR_X509_INVALID_EXTENSIONS );
 1763              	 .loc 2 662 0
 1764 00b6 204B     	 ldr r3,.L129+12
 1765 00b8 33E0     	 b .L128
 1766              	.L124:
 663:C:/Users/Yushev/git/wpcqi-optiga-trust-charge/optiga/externals/mbedtls/library\x509_crt.c **** 
 664:C:/Users/Yushev/git/wpcqi-optiga-trust-charge/optiga/externals/mbedtls/library\x509_crt.c ****             cur->next = mbedtls_calloc( 1, sizeof( mbedtls_asn1_sequence ) );
 1767              	 .loc 2 664 0
 1768 00ba 0120     	 movs r0,#1
 1769 00bc 1021     	 movs r1,#16
 1770 00be FFF7FEFF 	 bl calloc
 1771 00c2 0346     	 mov r3,r0
 1772 00c4 1A46     	 mov r2,r3
 1773 00c6 7B6A     	 ldr r3,[r7,#36]
 1774 00c8 DA60     	 str r2,[r3,#12]
 665:C:/Users/Yushev/git/wpcqi-optiga-trust-charge/optiga/externals/mbedtls/library\x509_crt.c **** 
 666:C:/Users/Yushev/git/wpcqi-optiga-trust-charge/optiga/externals/mbedtls/library\x509_crt.c ****             if( cur->next == NULL )
 1775              	 .loc 2 666 0
 1776 00ca 7B6A     	 ldr r3,[r7,#36]
 1777 00cc DB68     	 ldr r3,[r3,#12]
 1778 00ce 002B     	 cmp r3,#0
 1779 00d0 01D1     	 bne .L125
 667:C:/Users/Yushev/git/wpcqi-optiga-trust-charge/optiga/externals/mbedtls/library\x509_crt.c ****                 return( MBEDTLS_ERR_X509_INVALID_EXTENSIONS +
 1780              	 .loc 2 667 0
 1781 00d2 1A4B     	 ldr r3,.L129+16
 1782 00d4 25E0     	 b .L128
 1783              	.L125:
 668:C:/Users/Yushev/git/wpcqi-optiga-trust-charge/optiga/externals/mbedtls/library\x509_crt.c ****                         MBEDTLS_ERR_ASN1_ALLOC_FAILED );
 669:C:/Users/Yushev/git/wpcqi-optiga-trust-charge/optiga/externals/mbedtls/library\x509_crt.c **** 
 670:C:/Users/Yushev/git/wpcqi-optiga-trust-charge/optiga/externals/mbedtls/library\x509_crt.c ****             cur = cur->next;
 1784              	 .loc 2 670 0
 1785 00d6 7B6A     	 ldr r3,[r7,#36]
 1786 00d8 DB68     	 ldr r3,[r3,#12]
 1787 00da 7B62     	 str r3,[r7,#36]
 1788              	.L123:
 671:C:/Users/Yushev/git/wpcqi-optiga-trust-charge/optiga/externals/mbedtls/library\x509_crt.c ****         }
 672:C:/Users/Yushev/git/wpcqi-optiga-trust-charge/optiga/externals/mbedtls/library\x509_crt.c **** 
 673:C:/Users/Yushev/git/wpcqi-optiga-trust-charge/optiga/externals/mbedtls/library\x509_crt.c ****         buf = &(cur->buf);
 1789              	 .loc 2 673 0
 1790 00dc 7B6A     	 ldr r3,[r7,#36]
 1791 00de BB61     	 str r3,[r7,#24]
 674:C:/Users/Yushev/git/wpcqi-optiga-trust-charge/optiga/externals/mbedtls/library\x509_crt.c ****         buf->tag = tag;
 1792              	 .loc 2 674 0
 1793 00e0 FA7F     	 ldrb r2,[r7,#31]
 1794 00e2 BB69     	 ldr r3,[r7,#24]
 1795 00e4 1A60     	 str r2,[r3]
 675:C:/Users/Yushev/git/wpcqi-optiga-trust-charge/optiga/externals/mbedtls/library\x509_crt.c ****         buf->p = *p;
 1796              	 .loc 2 675 0
 1797 00e6 FB68     	 ldr r3,[r7,#12]
 1798 00e8 1A68     	 ldr r2,[r3]
 1799 00ea BB69     	 ldr r3,[r7,#24]
 1800 00ec 9A60     	 str r2,[r3,#8]
 676:C:/Users/Yushev/git/wpcqi-optiga-trust-charge/optiga/externals/mbedtls/library\x509_crt.c ****         buf->len = tag_len;
 1801              	 .loc 2 676 0
 1802 00ee 3A69     	 ldr r2,[r7,#16]
 1803 00f0 BB69     	 ldr r3,[r7,#24]
 1804 00f2 5A60     	 str r2,[r3,#4]
 677:C:/Users/Yushev/git/wpcqi-optiga-trust-charge/optiga/externals/mbedtls/library\x509_crt.c ****         *p += buf->len;
 1805              	 .loc 2 677 0
 1806 00f4 FB68     	 ldr r3,[r7,#12]
 1807 00f6 1A68     	 ldr r2,[r3]
 1808 00f8 BB69     	 ldr r3,[r7,#24]
 1809 00fa 5B68     	 ldr r3,[r3,#4]
 1810 00fc 1A44     	 add r2,r2,r3
 1811 00fe FB68     	 ldr r3,[r7,#12]
 1812 0100 1A60     	 str r2,[r3]
 1813              	.L118:
 633:C:/Users/Yushev/git/wpcqi-optiga-trust-charge/optiga/externals/mbedtls/library\x509_crt.c ****     {
 1814              	 .loc 2 633 0
 1815 0102 FB68     	 ldr r3,[r7,#12]
 1816 0104 1A68     	 ldr r2,[r3]
 1817 0106 BB68     	 ldr r3,[r7,#8]
 1818 0108 9A42     	 cmp r2,r3
 1819 010a 9BD3     	 bcc .L126
 678:C:/Users/Yushev/git/wpcqi-optiga-trust-charge/optiga/externals/mbedtls/library\x509_crt.c ****     }
 679:C:/Users/Yushev/git/wpcqi-optiga-trust-charge/optiga/externals/mbedtls/library\x509_crt.c **** 
 680:C:/Users/Yushev/git/wpcqi-optiga-trust-charge/optiga/externals/mbedtls/library\x509_crt.c ****     /* Set final sequence entry's next pointer to NULL */
 681:C:/Users/Yushev/git/wpcqi-optiga-trust-charge/optiga/externals/mbedtls/library\x509_crt.c ****     cur->next = NULL;
 1820              	 .loc 2 681 0
 1821 010c 7B6A     	 ldr r3,[r7,#36]
 1822 010e 0022     	 movs r2,#0
 1823 0110 DA60     	 str r2,[r3,#12]
 682:C:/Users/Yushev/git/wpcqi-optiga-trust-charge/optiga/externals/mbedtls/library\x509_crt.c **** 
 683:C:/Users/Yushev/git/wpcqi-optiga-trust-charge/optiga/externals/mbedtls/library\x509_crt.c ****     if( *p != end )
 1824              	 .loc 2 683 0
 1825 0112 FB68     	 ldr r3,[r7,#12]
 1826 0114 1A68     	 ldr r2,[r3]
 1827 0116 BB68     	 ldr r3,[r7,#8]
 1828 0118 9A42     	 cmp r2,r3
 1829 011a 01D0     	 beq .L127
 684:C:/Users/Yushev/git/wpcqi-optiga-trust-charge/optiga/externals/mbedtls/library\x509_crt.c ****         return( MBEDTLS_ERR_X509_INVALID_EXTENSIONS +
 1830              	 .loc 2 684 0
 1831 011c 034B     	 ldr r3,.L129
 1832 011e 00E0     	 b .L128
 1833              	.L127:
 685:C:/Users/Yushev/git/wpcqi-optiga-trust-charge/optiga/externals/mbedtls/library\x509_crt.c ****                 MBEDTLS_ERR_ASN1_LENGTH_MISMATCH );
 686:C:/Users/Yushev/git/wpcqi-optiga-trust-charge/optiga/externals/mbedtls/library\x509_crt.c **** 
 687:C:/Users/Yushev/git/wpcqi-optiga-trust-charge/optiga/externals/mbedtls/library\x509_crt.c ****     return( 0 );
 1834              	 .loc 2 687 0
 1835 0120 0023     	 movs r3,#0
 1836              	.L128:
 688:C:/Users/Yushev/git/wpcqi-optiga-trust-charge/optiga/externals/mbedtls/library\x509_crt.c **** }
 1837              	 .loc 2 688 0 discriminator 1
 1838 0122 1846     	 mov r0,r3
 1839 0124 2837     	 adds r7,r7,#40
 1840              	.LCFI88:
 1841              	 .cfi_def_cfa_offset 8
 1842 0126 BD46     	 mov sp,r7
 1843              	.LCFI89:
 1844              	 .cfi_def_cfa_register 13
 1845              	 
 1846 0128 80BD     	 pop {r7,pc}
 1847              	.L130:
 1848 012a 00BF     	 .align 2
 1849              	.L129:
 1850 012c 9ADAFFFF 	 .word -9574
 1851 0130 A0DAFFFF 	 .word -9568
 1852 0134 9EDAFFFF 	 .word -9570
 1853 0138 00DBFFFF 	 .word -9472
 1854 013c 96DAFFFF 	 .word -9578
 1855              	 .cfi_endproc
 1856              	.LFE24:
 1858              	 .section .text.x509_get_crt_ext,"ax",%progbits
 1859              	 .align 2
 1860              	 .thumb
 1861              	 .thumb_func
 1863              	x509_get_crt_ext:
 1864              	.LFB25:
 689:C:/Users/Yushev/git/wpcqi-optiga-trust-charge/optiga/externals/mbedtls/library\x509_crt.c **** 
 690:C:/Users/Yushev/git/wpcqi-optiga-trust-charge/optiga/externals/mbedtls/library\x509_crt.c **** /*
 691:C:/Users/Yushev/git/wpcqi-optiga-trust-charge/optiga/externals/mbedtls/library\x509_crt.c ****  * X.509 v3 extensions
 692:C:/Users/Yushev/git/wpcqi-optiga-trust-charge/optiga/externals/mbedtls/library\x509_crt.c ****  *
 693:C:/Users/Yushev/git/wpcqi-optiga-trust-charge/optiga/externals/mbedtls/library\x509_crt.c ****  */
 694:C:/Users/Yushev/git/wpcqi-optiga-trust-charge/optiga/externals/mbedtls/library\x509_crt.c **** static int x509_get_crt_ext( unsigned char **p,
 695:C:/Users/Yushev/git/wpcqi-optiga-trust-charge/optiga/externals/mbedtls/library\x509_crt.c ****                              const unsigned char *end,
 696:C:/Users/Yushev/git/wpcqi-optiga-trust-charge/optiga/externals/mbedtls/library\x509_crt.c ****                              mbedtls_x509_crt *crt )
 697:C:/Users/Yushev/git/wpcqi-optiga-trust-charge/optiga/externals/mbedtls/library\x509_crt.c **** {
 1865              	 .loc 2 697 0
 1866              	 .cfi_startproc
 1867              	 
 1868              	 
 1869 0000 80B5     	 push {r7,lr}
 1870              	.LCFI90:
 1871              	 .cfi_def_cfa_offset 8
 1872              	 .cfi_offset 7,-8
 1873              	 .cfi_offset 14,-4
 1874 0002 8EB0     	 sub sp,sp,#56
 1875              	.LCFI91:
 1876              	 .cfi_def_cfa_offset 64
 1877 0004 00AF     	 add r7,sp,#0
 1878              	.LCFI92:
 1879              	 .cfi_def_cfa_register 7
 1880 0006 F860     	 str r0,[r7,#12]
 1881 0008 B960     	 str r1,[r7,#8]
 1882 000a 7A60     	 str r2,[r7,#4]
 698:C:/Users/Yushev/git/wpcqi-optiga-trust-charge/optiga/externals/mbedtls/library\x509_crt.c ****     int ret;
 699:C:/Users/Yushev/git/wpcqi-optiga-trust-charge/optiga/externals/mbedtls/library\x509_crt.c ****     size_t len;
 700:C:/Users/Yushev/git/wpcqi-optiga-trust-charge/optiga/externals/mbedtls/library\x509_crt.c ****     unsigned char *end_ext_data, *end_ext_octet;
 701:C:/Users/Yushev/git/wpcqi-optiga-trust-charge/optiga/externals/mbedtls/library\x509_crt.c **** 
 702:C:/Users/Yushev/git/wpcqi-optiga-trust-charge/optiga/externals/mbedtls/library\x509_crt.c ****     if( ( ret = mbedtls_x509_get_ext( p, end, &crt->v3_ext, 3 ) ) != 0 )
 1883              	 .loc 2 702 0
 1884 000c 7B68     	 ldr r3,[r7,#4]
 1885 000e DC33     	 adds r3,r3,#220
 1886 0010 F868     	 ldr r0,[r7,#12]
 1887 0012 B968     	 ldr r1,[r7,#8]
 1888 0014 1A46     	 mov r2,r3
 1889 0016 0323     	 movs r3,#3
 1890 0018 FFF7FEFF 	 bl mbedtls_x509_get_ext
 1891 001c 7863     	 str r0,[r7,#52]
 1892 001e 7B6B     	 ldr r3,[r7,#52]
 1893 0020 002B     	 cmp r3,#0
 1894 0022 07D0     	 beq .L132
 703:C:/Users/Yushev/git/wpcqi-optiga-trust-charge/optiga/externals/mbedtls/library\x509_crt.c ****     {
 704:C:/Users/Yushev/git/wpcqi-optiga-trust-charge/optiga/externals/mbedtls/library\x509_crt.c ****         if( ret == MBEDTLS_ERR_ASN1_UNEXPECTED_TAG )
 1895              	 .loc 2 704 0
 1896 0024 7B6B     	 ldr r3,[r7,#52]
 1897 0026 13F1620F 	 cmn r3,#98
 1898 002a 01D1     	 bne .L133
 705:C:/Users/Yushev/git/wpcqi-optiga-trust-charge/optiga/externals/mbedtls/library\x509_crt.c ****             return( 0 );
 1899              	 .loc 2 705 0
 1900 002c 0023     	 movs r3,#0
 1901 002e FFE0     	 b .L160
 1902              	.L133:
 706:C:/Users/Yushev/git/wpcqi-optiga-trust-charge/optiga/externals/mbedtls/library\x509_crt.c **** 
 707:C:/Users/Yushev/git/wpcqi-optiga-trust-charge/optiga/externals/mbedtls/library\x509_crt.c ****         return( ret );
 1903              	 .loc 2 707 0
 1904 0030 7B6B     	 ldr r3,[r7,#52]
 1905 0032 FDE0     	 b .L160
 1906              	.L132:
 708:C:/Users/Yushev/git/wpcqi-optiga-trust-charge/optiga/externals/mbedtls/library\x509_crt.c ****     }
 709:C:/Users/Yushev/git/wpcqi-optiga-trust-charge/optiga/externals/mbedtls/library\x509_crt.c **** 
 710:C:/Users/Yushev/git/wpcqi-optiga-trust-charge/optiga/externals/mbedtls/library\x509_crt.c ****     while( *p < end )
 1907              	 .loc 2 710 0
 1908 0034 EEE0     	 b .L135
 1909              	.L158:
 1910              	.LBB3:
 711:C:/Users/Yushev/git/wpcqi-optiga-trust-charge/optiga/externals/mbedtls/library\x509_crt.c ****     {
 712:C:/Users/Yushev/git/wpcqi-optiga-trust-charge/optiga/externals/mbedtls/library\x509_crt.c ****         /*
 713:C:/Users/Yushev/git/wpcqi-optiga-trust-charge/optiga/externals/mbedtls/library\x509_crt.c ****          * Extension  ::=  SEQUENCE  {
 714:C:/Users/Yushev/git/wpcqi-optiga-trust-charge/optiga/externals/mbedtls/library\x509_crt.c ****          *      extnID      OBJECT IDENTIFIER,
 715:C:/Users/Yushev/git/wpcqi-optiga-trust-charge/optiga/externals/mbedtls/library\x509_crt.c ****          *      critical    BOOLEAN DEFAULT FALSE,
 716:C:/Users/Yushev/git/wpcqi-optiga-trust-charge/optiga/externals/mbedtls/library\x509_crt.c ****          *      extnValue   OCTET STRING  }
 717:C:/Users/Yushev/git/wpcqi-optiga-trust-charge/optiga/externals/mbedtls/library\x509_crt.c ****          */
 718:C:/Users/Yushev/git/wpcqi-optiga-trust-charge/optiga/externals/mbedtls/library\x509_crt.c ****         mbedtls_x509_buf extn_oid = {0, 0, NULL};
 1911              	 .loc 2 718 0
 1912 0036 0023     	 movs r3,#0
 1913 0038 FB61     	 str r3,[r7,#28]
 1914 003a 0023     	 movs r3,#0
 1915 003c 3B62     	 str r3,[r7,#32]
 1916 003e 0023     	 movs r3,#0
 1917 0040 7B62     	 str r3,[r7,#36]
 719:C:/Users/Yushev/git/wpcqi-optiga-trust-charge/optiga/externals/mbedtls/library\x509_crt.c ****         int is_critical = 0; /* DEFAULT FALSE */
 1918              	 .loc 2 719 0
 1919 0042 0023     	 movs r3,#0
 1920 0044 BB61     	 str r3,[r7,#24]
 720:C:/Users/Yushev/git/wpcqi-optiga-trust-charge/optiga/externals/mbedtls/library\x509_crt.c ****         int ext_type = 0;
 1921              	 .loc 2 720 0
 1922 0046 0023     	 movs r3,#0
 1923 0048 7B61     	 str r3,[r7,#20]
 721:C:/Users/Yushev/git/wpcqi-optiga-trust-charge/optiga/externals/mbedtls/library\x509_crt.c **** 
 722:C:/Users/Yushev/git/wpcqi-optiga-trust-charge/optiga/externals/mbedtls/library\x509_crt.c ****         if( ( ret = mbedtls_asn1_get_tag( p, end, &len,
 1924              	 .loc 2 722 0
 1925 004a 07F12803 	 add r3,r7,#40
 1926 004e F868     	 ldr r0,[r7,#12]
 1927 0050 B968     	 ldr r1,[r7,#8]
 1928 0052 1A46     	 mov r2,r3
 1929 0054 3023     	 movs r3,#48
 1930 0056 FFF7FEFF 	 bl mbedtls_asn1_get_tag
 1931 005a 7863     	 str r0,[r7,#52]
 1932 005c 7B6B     	 ldr r3,[r7,#52]
 1933 005e 002B     	 cmp r3,#0
 1934 0060 03D0     	 beq .L136
 723:C:/Users/Yushev/git/wpcqi-optiga-trust-charge/optiga/externals/mbedtls/library\x509_crt.c ****                 MBEDTLS_ASN1_CONSTRUCTED | MBEDTLS_ASN1_SEQUENCE ) ) != 0 )
 724:C:/Users/Yushev/git/wpcqi-optiga-trust-charge/optiga/externals/mbedtls/library\x509_crt.c ****             return( MBEDTLS_ERR_X509_INVALID_EXTENSIONS + ret );
 1935              	 .loc 2 724 0
 1936 0062 7B6B     	 ldr r3,[r7,#52]
 1937 0064 A3F51453 	 sub r3,r3,#9472
 1938 0068 E2E0     	 b .L160
 1939              	.L136:
 725:C:/Users/Yushev/git/wpcqi-optiga-trust-charge/optiga/externals/mbedtls/library\x509_crt.c **** 
 726:C:/Users/Yushev/git/wpcqi-optiga-trust-charge/optiga/externals/mbedtls/library\x509_crt.c ****         end_ext_data = *p + len;
 1940              	 .loc 2 726 0
 1941 006a FB68     	 ldr r3,[r7,#12]
 1942 006c 1A68     	 ldr r2,[r3]
 1943 006e BB6A     	 ldr r3,[r7,#40]
 1944 0070 1344     	 add r3,r3,r2
 1945 0072 3B63     	 str r3,[r7,#48]
 727:C:/Users/Yushev/git/wpcqi-optiga-trust-charge/optiga/externals/mbedtls/library\x509_crt.c **** 
 728:C:/Users/Yushev/git/wpcqi-optiga-trust-charge/optiga/externals/mbedtls/library\x509_crt.c ****         /* Get extension ID */
 729:C:/Users/Yushev/git/wpcqi-optiga-trust-charge/optiga/externals/mbedtls/library\x509_crt.c ****         if( ( ret = mbedtls_asn1_get_tag( p, end_ext_data, &extn_oid.len,
 1946              	 .loc 2 729 0
 1947 0074 07F11C03 	 add r3,r7,#28
 1948 0078 0433     	 adds r3,r3,#4
 1949 007a F868     	 ldr r0,[r7,#12]
 1950 007c 396B     	 ldr r1,[r7,#48]
 1951 007e 1A46     	 mov r2,r3
 1952 0080 0623     	 movs r3,#6
 1953 0082 FFF7FEFF 	 bl mbedtls_asn1_get_tag
 1954 0086 7863     	 str r0,[r7,#52]
 1955 0088 7B6B     	 ldr r3,[r7,#52]
 1956 008a 002B     	 cmp r3,#0
 1957 008c 03D0     	 beq .L138
 730:C:/Users/Yushev/git/wpcqi-optiga-trust-charge/optiga/externals/mbedtls/library\x509_crt.c ****                                           MBEDTLS_ASN1_OID ) ) != 0 )
 731:C:/Users/Yushev/git/wpcqi-optiga-trust-charge/optiga/externals/mbedtls/library\x509_crt.c ****             return( MBEDTLS_ERR_X509_INVALID_EXTENSIONS + ret );
 1958              	 .loc 2 731 0
 1959 008e 7B6B     	 ldr r3,[r7,#52]
 1960 0090 A3F51453 	 sub r3,r3,#9472
 1961 0094 CCE0     	 b .L160
 1962              	.L138:
 732:C:/Users/Yushev/git/wpcqi-optiga-trust-charge/optiga/externals/mbedtls/library\x509_crt.c **** 
 733:C:/Users/Yushev/git/wpcqi-optiga-trust-charge/optiga/externals/mbedtls/library\x509_crt.c ****         extn_oid.tag = MBEDTLS_ASN1_OID;
 1963              	 .loc 2 733 0
 1964 0096 0623     	 movs r3,#6
 1965 0098 FB61     	 str r3,[r7,#28]
 734:C:/Users/Yushev/git/wpcqi-optiga-trust-charge/optiga/externals/mbedtls/library\x509_crt.c ****         extn_oid.p = *p;
 1966              	 .loc 2 734 0
 1967 009a FB68     	 ldr r3,[r7,#12]
 1968 009c 1B68     	 ldr r3,[r3]
 1969 009e 7B62     	 str r3,[r7,#36]
 735:C:/Users/Yushev/git/wpcqi-optiga-trust-charge/optiga/externals/mbedtls/library\x509_crt.c ****         *p += extn_oid.len;
 1970              	 .loc 2 735 0
 1971 00a0 FB68     	 ldr r3,[r7,#12]
 1972 00a2 1A68     	 ldr r2,[r3]
 1973 00a4 3B6A     	 ldr r3,[r7,#32]
 1974 00a6 1A44     	 add r2,r2,r3
 1975 00a8 FB68     	 ldr r3,[r7,#12]
 1976 00aa 1A60     	 str r2,[r3]
 736:C:/Users/Yushev/git/wpcqi-optiga-trust-charge/optiga/externals/mbedtls/library\x509_crt.c **** 
 737:C:/Users/Yushev/git/wpcqi-optiga-trust-charge/optiga/externals/mbedtls/library\x509_crt.c ****         /* Get optional critical */
 738:C:/Users/Yushev/git/wpcqi-optiga-trust-charge/optiga/externals/mbedtls/library\x509_crt.c ****         if( ( ret = mbedtls_asn1_get_bool( p, end_ext_data, &is_critical ) ) != 0 &&
 1977              	 .loc 2 738 0
 1978 00ac 07F11803 	 add r3,r7,#24
 1979 00b0 F868     	 ldr r0,[r7,#12]
 1980 00b2 396B     	 ldr r1,[r7,#48]
 1981 00b4 1A46     	 mov r2,r3
 1982 00b6 FFF7FEFF 	 bl mbedtls_asn1_get_bool
 1983 00ba 7863     	 str r0,[r7,#52]
 1984 00bc 7B6B     	 ldr r3,[r7,#52]
 1985 00be 002B     	 cmp r3,#0
 1986 00c0 07D0     	 beq .L139
 1987              	 .loc 2 738 0 is_stmt 0 discriminator 1
 1988 00c2 7B6B     	 ldr r3,[r7,#52]
 1989 00c4 13F1620F 	 cmn r3,#98
 1990 00c8 03D0     	 beq .L139
 739:C:/Users/Yushev/git/wpcqi-optiga-trust-charge/optiga/externals/mbedtls/library\x509_crt.c ****             ( ret != MBEDTLS_ERR_ASN1_UNEXPECTED_TAG ) )
 740:C:/Users/Yushev/git/wpcqi-optiga-trust-charge/optiga/externals/mbedtls/library\x509_crt.c ****             return( MBEDTLS_ERR_X509_INVALID_EXTENSIONS + ret );
 1991              	 .loc 2 740 0 is_stmt 1
 1992 00ca 7B6B     	 ldr r3,[r7,#52]
 1993 00cc A3F51453 	 sub r3,r3,#9472
 1994 00d0 AEE0     	 b .L160
 1995              	.L139:
 741:C:/Users/Yushev/git/wpcqi-optiga-trust-charge/optiga/externals/mbedtls/library\x509_crt.c **** 
 742:C:/Users/Yushev/git/wpcqi-optiga-trust-charge/optiga/externals/mbedtls/library\x509_crt.c ****         /* Data should be octet string type */
 743:C:/Users/Yushev/git/wpcqi-optiga-trust-charge/optiga/externals/mbedtls/library\x509_crt.c ****         if( ( ret = mbedtls_asn1_get_tag( p, end_ext_data, &len,
 1996              	 .loc 2 743 0
 1997 00d2 07F12803 	 add r3,r7,#40
 1998 00d6 F868     	 ldr r0,[r7,#12]
 1999 00d8 396B     	 ldr r1,[r7,#48]
 2000 00da 1A46     	 mov r2,r3
 2001 00dc 0423     	 movs r3,#4
 2002 00de FFF7FEFF 	 bl mbedtls_asn1_get_tag
 2003 00e2 7863     	 str r0,[r7,#52]
 2004 00e4 7B6B     	 ldr r3,[r7,#52]
 2005 00e6 002B     	 cmp r3,#0
 2006 00e8 03D0     	 beq .L140
 744:C:/Users/Yushev/git/wpcqi-optiga-trust-charge/optiga/externals/mbedtls/library\x509_crt.c ****                 MBEDTLS_ASN1_OCTET_STRING ) ) != 0 )
 745:C:/Users/Yushev/git/wpcqi-optiga-trust-charge/optiga/externals/mbedtls/library\x509_crt.c ****             return( MBEDTLS_ERR_X509_INVALID_EXTENSIONS + ret );
 2007              	 .loc 2 745 0
 2008 00ea 7B6B     	 ldr r3,[r7,#52]
 2009 00ec A3F51453 	 sub r3,r3,#9472
 2010 00f0 9EE0     	 b .L160
 2011              	.L140:
 746:C:/Users/Yushev/git/wpcqi-optiga-trust-charge/optiga/externals/mbedtls/library\x509_crt.c **** 
 747:C:/Users/Yushev/git/wpcqi-optiga-trust-charge/optiga/externals/mbedtls/library\x509_crt.c ****         end_ext_octet = *p + len;
 2012              	 .loc 2 747 0
 2013 00f2 FB68     	 ldr r3,[r7,#12]
 2014 00f4 1A68     	 ldr r2,[r3]
 2015 00f6 BB6A     	 ldr r3,[r7,#40]
 2016 00f8 1344     	 add r3,r3,r2
 2017 00fa FB62     	 str r3,[r7,#44]
 748:C:/Users/Yushev/git/wpcqi-optiga-trust-charge/optiga/externals/mbedtls/library\x509_crt.c **** 
 749:C:/Users/Yushev/git/wpcqi-optiga-trust-charge/optiga/externals/mbedtls/library\x509_crt.c ****         if( end_ext_octet != end_ext_data )
 2018              	 .loc 2 749 0
 2019 00fc FA6A     	 ldr r2,[r7,#44]
 2020 00fe 3B6B     	 ldr r3,[r7,#48]
 2021 0100 9A42     	 cmp r2,r3
 2022 0102 01D0     	 beq .L141
 750:C:/Users/Yushev/git/wpcqi-optiga-trust-charge/optiga/externals/mbedtls/library\x509_crt.c ****             return( MBEDTLS_ERR_X509_INVALID_EXTENSIONS +
 2023              	 .loc 2 750 0
 2024 0104 4C4B     	 ldr r3,.L161
 2025 0106 93E0     	 b .L160
 2026              	.L141:
 751:C:/Users/Yushev/git/wpcqi-optiga-trust-charge/optiga/externals/mbedtls/library\x509_crt.c ****                     MBEDTLS_ERR_ASN1_LENGTH_MISMATCH );
 752:C:/Users/Yushev/git/wpcqi-optiga-trust-charge/optiga/externals/mbedtls/library\x509_crt.c **** 
 753:C:/Users/Yushev/git/wpcqi-optiga-trust-charge/optiga/externals/mbedtls/library\x509_crt.c ****         /*
 754:C:/Users/Yushev/git/wpcqi-optiga-trust-charge/optiga/externals/mbedtls/library\x509_crt.c ****          * Detect supported extensions
 755:C:/Users/Yushev/git/wpcqi-optiga-trust-charge/optiga/externals/mbedtls/library\x509_crt.c ****          */
 756:C:/Users/Yushev/git/wpcqi-optiga-trust-charge/optiga/externals/mbedtls/library\x509_crt.c ****         ret = mbedtls_oid_get_x509_ext_type( &extn_oid, &ext_type );
 2027              	 .loc 2 756 0
 2028 0108 07F11C02 	 add r2,r7,#28
 2029 010c 07F11403 	 add r3,r7,#20
 2030 0110 1046     	 mov r0,r2
 2031 0112 1946     	 mov r1,r3
 2032 0114 FFF7FEFF 	 bl mbedtls_oid_get_x509_ext_type
 2033 0118 7863     	 str r0,[r7,#52]
 757:C:/Users/Yushev/git/wpcqi-optiga-trust-charge/optiga/externals/mbedtls/library\x509_crt.c **** 
 758:C:/Users/Yushev/git/wpcqi-optiga-trust-charge/optiga/externals/mbedtls/library\x509_crt.c ****         if( ret != 0 )
 2034              	 .loc 2 758 0
 2035 011a 7B6B     	 ldr r3,[r7,#52]
 2036 011c 002B     	 cmp r3,#0
 2037 011e 07D0     	 beq .L142
 759:C:/Users/Yushev/git/wpcqi-optiga-trust-charge/optiga/externals/mbedtls/library\x509_crt.c ****         {
 760:C:/Users/Yushev/git/wpcqi-optiga-trust-charge/optiga/externals/mbedtls/library\x509_crt.c ****             /* No parser found, skip extension */
 761:C:/Users/Yushev/git/wpcqi-optiga-trust-charge/optiga/externals/mbedtls/library\x509_crt.c ****             *p = end_ext_octet;
 2038              	 .loc 2 761 0
 2039 0120 FB68     	 ldr r3,[r7,#12]
 2040 0122 FA6A     	 ldr r2,[r7,#44]
 2041 0124 1A60     	 str r2,[r3]
 762:C:/Users/Yushev/git/wpcqi-optiga-trust-charge/optiga/externals/mbedtls/library\x509_crt.c **** 
 763:C:/Users/Yushev/git/wpcqi-optiga-trust-charge/optiga/externals/mbedtls/library\x509_crt.c **** #if !defined(MBEDTLS_X509_ALLOW_UNSUPPORTED_CRITICAL_EXTENSION)
 764:C:/Users/Yushev/git/wpcqi-optiga-trust-charge/optiga/externals/mbedtls/library\x509_crt.c ****             if( is_critical )
 2042              	 .loc 2 764 0
 2043 0126 BB69     	 ldr r3,[r7,#24]
 2044 0128 002B     	 cmp r3,#0
 2045 012a 73D0     	 beq .L135
 765:C:/Users/Yushev/git/wpcqi-optiga-trust-charge/optiga/externals/mbedtls/library\x509_crt.c ****             {
 766:C:/Users/Yushev/git/wpcqi-optiga-trust-charge/optiga/externals/mbedtls/library\x509_crt.c ****                 /* Data is marked as critical: fail */
 767:C:/Users/Yushev/git/wpcqi-optiga-trust-charge/optiga/externals/mbedtls/library\x509_crt.c ****                 return( MBEDTLS_ERR_X509_INVALID_EXTENSIONS +
 2046              	 .loc 2 767 0
 2047 012c 434B     	 ldr r3,.L161+4
 2048 012e 7FE0     	 b .L160
 2049              	.L142:
 768:C:/Users/Yushev/git/wpcqi-optiga-trust-charge/optiga/externals/mbedtls/library\x509_crt.c ****                         MBEDTLS_ERR_ASN1_UNEXPECTED_TAG );
 769:C:/Users/Yushev/git/wpcqi-optiga-trust-charge/optiga/externals/mbedtls/library\x509_crt.c ****             }
 770:C:/Users/Yushev/git/wpcqi-optiga-trust-charge/optiga/externals/mbedtls/library\x509_crt.c **** #endif
 771:C:/Users/Yushev/git/wpcqi-optiga-trust-charge/optiga/externals/mbedtls/library\x509_crt.c ****             continue;
 772:C:/Users/Yushev/git/wpcqi-optiga-trust-charge/optiga/externals/mbedtls/library\x509_crt.c ****         }
 773:C:/Users/Yushev/git/wpcqi-optiga-trust-charge/optiga/externals/mbedtls/library\x509_crt.c **** 
 774:C:/Users/Yushev/git/wpcqi-optiga-trust-charge/optiga/externals/mbedtls/library\x509_crt.c ****         /* Forbid repeated extensions */
 775:C:/Users/Yushev/git/wpcqi-optiga-trust-charge/optiga/externals/mbedtls/library\x509_crt.c ****         if( ( crt->ext_types & ext_type ) != 0 )
 2050              	 .loc 2 775 0
 2051 0130 7B68     	 ldr r3,[r7,#4]
 2052 0132 D3F8F820 	 ldr r2,[r3,#248]
 2053 0136 7B69     	 ldr r3,[r7,#20]
 2054 0138 1340     	 ands r3,r3,r2
 2055 013a 002B     	 cmp r3,#0
 2056 013c 01D0     	 beq .L144
 776:C:/Users/Yushev/git/wpcqi-optiga-trust-charge/optiga/externals/mbedtls/library\x509_crt.c ****             return( MBEDTLS_ERR_X509_INVALID_EXTENSIONS );
 2057              	 .loc 2 776 0
 2058 013e 404B     	 ldr r3,.L161+8
 2059 0140 76E0     	 b .L160
 2060              	.L144:
 777:C:/Users/Yushev/git/wpcqi-optiga-trust-charge/optiga/externals/mbedtls/library\x509_crt.c **** 
 778:C:/Users/Yushev/git/wpcqi-optiga-trust-charge/optiga/externals/mbedtls/library\x509_crt.c ****         crt->ext_types |= ext_type;
 2061              	 .loc 2 778 0
 2062 0142 7B68     	 ldr r3,[r7,#4]
 2063 0144 D3F8F820 	 ldr r2,[r3,#248]
 2064 0148 7B69     	 ldr r3,[r7,#20]
 2065 014a 1A43     	 orrs r2,r2,r3
 2066 014c 7B68     	 ldr r3,[r7,#4]
 2067 014e C3F8F820 	 str r2,[r3,#248]
 779:C:/Users/Yushev/git/wpcqi-optiga-trust-charge/optiga/externals/mbedtls/library\x509_crt.c **** 
 780:C:/Users/Yushev/git/wpcqi-optiga-trust-charge/optiga/externals/mbedtls/library\x509_crt.c ****         switch( ext_type )
 2068              	 .loc 2 780 0
 2069 0152 7B69     	 ldr r3,[r7,#20]
 2070 0154 B3F5807F 	 cmp r3,#256
 2071 0158 0ED0     	 beq .L146
 2072 015a B3F5807F 	 cmp r3,#256
 2073 015e 04DC     	 bgt .L147
 2074 0160 042B     	 cmp r3,#4
 2075 0162 1AD0     	 beq .L148
 2076 0164 202B     	 cmp r3,#32
 2077 0166 36D0     	 beq .L149
 2078 0168 52E0     	 b .L145
 2079              	.L147:
 2080 016a B3F5006F 	 cmp r3,#2048
 2081 016e 23D0     	 beq .L150
 2082 0170 B3F5803F 	 cmp r3,#65536
 2083 0174 3DD0     	 beq .L151
 2084 0176 4BE0     	 b .L145
 2085              	.L146:
 781:C:/Users/Yushev/git/wpcqi-optiga-trust-charge/optiga/externals/mbedtls/library\x509_crt.c ****         {
 782:C:/Users/Yushev/git/wpcqi-optiga-trust-charge/optiga/externals/mbedtls/library\x509_crt.c ****         case MBEDTLS_X509_EXT_BASIC_CONSTRAINTS:
 783:C:/Users/Yushev/git/wpcqi-optiga-trust-charge/optiga/externals/mbedtls/library\x509_crt.c ****             /* Parse basic constraints */
 784:C:/Users/Yushev/git/wpcqi-optiga-trust-charge/optiga/externals/mbedtls/library\x509_crt.c ****             if( ( ret = x509_get_basic_constraints( p, end_ext_octet,
 2086              	 .loc 2 784 0
 2087 0178 7B68     	 ldr r3,[r7,#4]
 2088 017a 03F1FC02 	 add r2,r3,#252
 2089 017e 7B68     	 ldr r3,[r7,#4]
 2090 0180 03F58073 	 add r3,r3,#256
 2091 0184 F868     	 ldr r0,[r7,#12]
 2092 0186 F96A     	 ldr r1,[r7,#44]
 2093 0188 FFF7FEFF 	 bl x509_get_basic_constraints
 2094 018c 7863     	 str r0,[r7,#52]
 2095 018e 7B6B     	 ldr r3,[r7,#52]
 2096 0190 002B     	 cmp r3,#0
 2097 0192 01D0     	 beq .L152
 785:C:/Users/Yushev/git/wpcqi-optiga-trust-charge/optiga/externals/mbedtls/library\x509_crt.c ****                     &crt->ca_istrue, &crt->max_pathlen ) ) != 0 )
 786:C:/Users/Yushev/git/wpcqi-optiga-trust-charge/optiga/externals/mbedtls/library\x509_crt.c ****                 return( ret );
 2098              	 .loc 2 786 0
 2099 0194 7B6B     	 ldr r3,[r7,#52]
 2100 0196 4BE0     	 b .L160
 2101              	.L152:
 787:C:/Users/Yushev/git/wpcqi-optiga-trust-charge/optiga/externals/mbedtls/library\x509_crt.c ****             break;
 2102              	 .loc 2 787 0
 2103 0198 3CE0     	 b .L153
 2104              	.L148:
 788:C:/Users/Yushev/git/wpcqi-optiga-trust-charge/optiga/externals/mbedtls/library\x509_crt.c **** 
 789:C:/Users/Yushev/git/wpcqi-optiga-trust-charge/optiga/externals/mbedtls/library\x509_crt.c ****         case MBEDTLS_X509_EXT_KEY_USAGE:
 790:C:/Users/Yushev/git/wpcqi-optiga-trust-charge/optiga/externals/mbedtls/library\x509_crt.c ****             /* Parse key usage */
 791:C:/Users/Yushev/git/wpcqi-optiga-trust-charge/optiga/externals/mbedtls/library\x509_crt.c ****             if( ( ret = x509_get_key_usage( p, end_ext_octet,
 2105              	 .loc 2 791 0
 2106 019a 7B68     	 ldr r3,[r7,#4]
 2107 019c 03F58273 	 add r3,r3,#260
 2108 01a0 F868     	 ldr r0,[r7,#12]
 2109 01a2 F96A     	 ldr r1,[r7,#44]
 2110 01a4 1A46     	 mov r2,r3
 2111 01a6 FFF7FEFF 	 bl x509_get_key_usage
 2112 01aa 7863     	 str r0,[r7,#52]
 2113 01ac 7B6B     	 ldr r3,[r7,#52]
 2114 01ae 002B     	 cmp r3,#0
 2115 01b0 01D0     	 beq .L154
 792:C:/Users/Yushev/git/wpcqi-optiga-trust-charge/optiga/externals/mbedtls/library\x509_crt.c ****                     &crt->key_usage ) ) != 0 )
 793:C:/Users/Yushev/git/wpcqi-optiga-trust-charge/optiga/externals/mbedtls/library\x509_crt.c ****                 return( ret );
 2116              	 .loc 2 793 0
 2117 01b2 7B6B     	 ldr r3,[r7,#52]
 2118 01b4 3CE0     	 b .L160
 2119              	.L154:
 794:C:/Users/Yushev/git/wpcqi-optiga-trust-charge/optiga/externals/mbedtls/library\x509_crt.c ****             break;
 2120              	 .loc 2 794 0 discriminator 2
 2121 01b6 2DE0     	 b .L153
 2122              	.L150:
 795:C:/Users/Yushev/git/wpcqi-optiga-trust-charge/optiga/externals/mbedtls/library\x509_crt.c **** 
 796:C:/Users/Yushev/git/wpcqi-optiga-trust-charge/optiga/externals/mbedtls/library\x509_crt.c ****         case MBEDTLS_X509_EXT_EXTENDED_KEY_USAGE:
 797:C:/Users/Yushev/git/wpcqi-optiga-trust-charge/optiga/externals/mbedtls/library\x509_crt.c ****             /* Parse extended key usage */
 798:C:/Users/Yushev/git/wpcqi-optiga-trust-charge/optiga/externals/mbedtls/library\x509_crt.c ****             if( ( ret = x509_get_ext_key_usage( p, end_ext_octet,
 2123              	 .loc 2 798 0
 2124 01b8 7B68     	 ldr r3,[r7,#4]
 2125 01ba 03F58473 	 add r3,r3,#264
 2126 01be F868     	 ldr r0,[r7,#12]
 2127 01c0 F96A     	 ldr r1,[r7,#44]
 2128 01c2 1A46     	 mov r2,r3
 2129 01c4 FFF7FEFF 	 bl x509_get_ext_key_usage
 2130 01c8 7863     	 str r0,[r7,#52]
 2131 01ca 7B6B     	 ldr r3,[r7,#52]
 2132 01cc 002B     	 cmp r3,#0
 2133 01ce 01D0     	 beq .L155
 799:C:/Users/Yushev/git/wpcqi-optiga-trust-charge/optiga/externals/mbedtls/library\x509_crt.c ****                     &crt->ext_key_usage ) ) != 0 )
 800:C:/Users/Yushev/git/wpcqi-optiga-trust-charge/optiga/externals/mbedtls/library\x509_crt.c ****                 return( ret );
 2134              	 .loc 2 800 0
 2135 01d0 7B6B     	 ldr r3,[r7,#52]
 2136 01d2 2DE0     	 b .L160
 2137              	.L155:
 801:C:/Users/Yushev/git/wpcqi-optiga-trust-charge/optiga/externals/mbedtls/library\x509_crt.c ****             break;
 2138              	 .loc 2 801 0 discriminator 3
 2139 01d4 1EE0     	 b .L153
 2140              	.L149:
 802:C:/Users/Yushev/git/wpcqi-optiga-trust-charge/optiga/externals/mbedtls/library\x509_crt.c **** 
 803:C:/Users/Yushev/git/wpcqi-optiga-trust-charge/optiga/externals/mbedtls/library\x509_crt.c ****         case MBEDTLS_X509_EXT_SUBJECT_ALT_NAME:
 804:C:/Users/Yushev/git/wpcqi-optiga-trust-charge/optiga/externals/mbedtls/library\x509_crt.c ****             /* Parse subject alt name */
 805:C:/Users/Yushev/git/wpcqi-optiga-trust-charge/optiga/externals/mbedtls/library\x509_crt.c ****             if( ( ret = x509_get_subject_alt_name( p, end_ext_octet,
 2141              	 .loc 2 805 0
 2142 01d6 7B68     	 ldr r3,[r7,#4]
 2143 01d8 E833     	 adds r3,r3,#232
 2144 01da F868     	 ldr r0,[r7,#12]
 2145 01dc F96A     	 ldr r1,[r7,#44]
 2146 01de 1A46     	 mov r2,r3
 2147 01e0 FFF7FEFF 	 bl x509_get_subject_alt_name
 2148 01e4 7863     	 str r0,[r7,#52]
 2149 01e6 7B6B     	 ldr r3,[r7,#52]
 2150 01e8 002B     	 cmp r3,#0
 2151 01ea 01D0     	 beq .L156
 806:C:/Users/Yushev/git/wpcqi-optiga-trust-charge/optiga/externals/mbedtls/library\x509_crt.c ****                     &crt->subject_alt_names ) ) != 0 )
 807:C:/Users/Yushev/git/wpcqi-optiga-trust-charge/optiga/externals/mbedtls/library\x509_crt.c ****                 return( ret );
 2152              	 .loc 2 807 0
 2153 01ec 7B6B     	 ldr r3,[r7,#52]
 2154 01ee 1FE0     	 b .L160
 2155              	.L156:
 808:C:/Users/Yushev/git/wpcqi-optiga-trust-charge/optiga/externals/mbedtls/library\x509_crt.c ****             break;
 2156              	 .loc 2 808 0 discriminator 4
 2157 01f0 10E0     	 b .L153
 2158              	.L151:
 809:C:/Users/Yushev/git/wpcqi-optiga-trust-charge/optiga/externals/mbedtls/library\x509_crt.c **** 
 810:C:/Users/Yushev/git/wpcqi-optiga-trust-charge/optiga/externals/mbedtls/library\x509_crt.c ****         case MBEDTLS_X509_EXT_NS_CERT_TYPE:
 811:C:/Users/Yushev/git/wpcqi-optiga-trust-charge/optiga/externals/mbedtls/library\x509_crt.c ****             /* Parse netscape certificate type */
 812:C:/Users/Yushev/git/wpcqi-optiga-trust-charge/optiga/externals/mbedtls/library\x509_crt.c ****             if( ( ret = x509_get_ns_cert_type( p, end_ext_octet,
 2159              	 .loc 2 812 0
 2160 01f2 7B68     	 ldr r3,[r7,#4]
 2161 01f4 03F58C73 	 add r3,r3,#280
 2162 01f8 F868     	 ldr r0,[r7,#12]
 2163 01fa F96A     	 ldr r1,[r7,#44]
 2164 01fc 1A46     	 mov r2,r3
 2165 01fe FFF7FEFF 	 bl x509_get_ns_cert_type
 2166 0202 7863     	 str r0,[r7,#52]
 2167 0204 7B6B     	 ldr r3,[r7,#52]
 2168 0206 002B     	 cmp r3,#0
 2169 0208 01D0     	 beq .L157
 813:C:/Users/Yushev/git/wpcqi-optiga-trust-charge/optiga/externals/mbedtls/library\x509_crt.c ****                     &crt->ns_cert_type ) ) != 0 )
 814:C:/Users/Yushev/git/wpcqi-optiga-trust-charge/optiga/externals/mbedtls/library\x509_crt.c ****                 return( ret );
 2170              	 .loc 2 814 0
 2171 020a 7B6B     	 ldr r3,[r7,#52]
 2172 020c 10E0     	 b .L160
 2173              	.L157:
 815:C:/Users/Yushev/git/wpcqi-optiga-trust-charge/optiga/externals/mbedtls/library\x509_crt.c ****             break;
 2174              	 .loc 2 815 0 discriminator 5
 2175 020e 01E0     	 b .L153
 2176              	.L145:
 816:C:/Users/Yushev/git/wpcqi-optiga-trust-charge/optiga/externals/mbedtls/library\x509_crt.c **** 
 817:C:/Users/Yushev/git/wpcqi-optiga-trust-charge/optiga/externals/mbedtls/library\x509_crt.c ****         default:
 818:C:/Users/Yushev/git/wpcqi-optiga-trust-charge/optiga/externals/mbedtls/library\x509_crt.c ****             return( MBEDTLS_ERR_X509_FEATURE_UNAVAILABLE );
 2177              	 .loc 2 818 0
 2178 0210 0C4B     	 ldr r3,.L161+12
 2179 0212 0DE0     	 b .L160
 2180              	.L153:
 2181              	.L135:
 2182              	.LBE3:
 710:C:/Users/Yushev/git/wpcqi-optiga-trust-charge/optiga/externals/mbedtls/library\x509_crt.c ****     {
 2183              	 .loc 2 710 0
 2184 0214 FB68     	 ldr r3,[r7,#12]
 2185 0216 1A68     	 ldr r2,[r3]
 2186 0218 BB68     	 ldr r3,[r7,#8]
 2187 021a 9A42     	 cmp r2,r3
 2188 021c FFF40BAF 	 bcc .L158
 819:C:/Users/Yushev/git/wpcqi-optiga-trust-charge/optiga/externals/mbedtls/library\x509_crt.c ****         }
 820:C:/Users/Yushev/git/wpcqi-optiga-trust-charge/optiga/externals/mbedtls/library\x509_crt.c ****     }
 821:C:/Users/Yushev/git/wpcqi-optiga-trust-charge/optiga/externals/mbedtls/library\x509_crt.c **** 
 822:C:/Users/Yushev/git/wpcqi-optiga-trust-charge/optiga/externals/mbedtls/library\x509_crt.c ****     if( *p != end )
 2189              	 .loc 2 822 0
 2190 0220 FB68     	 ldr r3,[r7,#12]
 2191 0222 1A68     	 ldr r2,[r3]
 2192 0224 BB68     	 ldr r3,[r7,#8]
 2193 0226 9A42     	 cmp r2,r3
 2194 0228 01D0     	 beq .L159
 823:C:/Users/Yushev/git/wpcqi-optiga-trust-charge/optiga/externals/mbedtls/library\x509_crt.c ****         return( MBEDTLS_ERR_X509_INVALID_EXTENSIONS +
 2195              	 .loc 2 823 0
 2196 022a 034B     	 ldr r3,.L161
 2197 022c 00E0     	 b .L160
 2198              	.L159:
 824:C:/Users/Yushev/git/wpcqi-optiga-trust-charge/optiga/externals/mbedtls/library\x509_crt.c ****                 MBEDTLS_ERR_ASN1_LENGTH_MISMATCH );
 825:C:/Users/Yushev/git/wpcqi-optiga-trust-charge/optiga/externals/mbedtls/library\x509_crt.c **** 
 826:C:/Users/Yushev/git/wpcqi-optiga-trust-charge/optiga/externals/mbedtls/library\x509_crt.c ****     return( 0 );
 2199              	 .loc 2 826 0
 2200 022e 0023     	 movs r3,#0
 2201              	.L160:
 827:C:/Users/Yushev/git/wpcqi-optiga-trust-charge/optiga/externals/mbedtls/library\x509_crt.c **** }
 2202              	 .loc 2 827 0 discriminator 6
 2203 0230 1846     	 mov r0,r3
 2204 0232 3837     	 adds r7,r7,#56
 2205              	.LCFI93:
 2206              	 .cfi_def_cfa_offset 8
 2207 0234 BD46     	 mov sp,r7
 2208              	.LCFI94:
 2209              	 .cfi_def_cfa_register 13
 2210              	 
 2211 0236 80BD     	 pop {r7,pc}
 2212              	.L162:
 2213              	 .align 2
 2214              	.L161:
 2215 0238 9ADAFFFF 	 .word -9574
 2216 023c 9EDAFFFF 	 .word -9570
 2217 0240 00DBFFFF 	 .word -9472
 2218 0244 80DFFFFF 	 .word -8320
 2219              	 .cfi_endproc
 2220              	.LFE25:
 2222              	 .section .text.x509_crt_parse_der_core,"ax",%progbits
 2223              	 .align 2
 2224              	 .thumb
 2225              	 .thumb_func
 2227              	x509_crt_parse_der_core:
 2228              	.LFB26:
 828:C:/Users/Yushev/git/wpcqi-optiga-trust-charge/optiga/externals/mbedtls/library\x509_crt.c **** 
 829:C:/Users/Yushev/git/wpcqi-optiga-trust-charge/optiga/externals/mbedtls/library\x509_crt.c **** /*
 830:C:/Users/Yushev/git/wpcqi-optiga-trust-charge/optiga/externals/mbedtls/library\x509_crt.c ****  * Parse and fill a single X.509 certificate in DER format
 831:C:/Users/Yushev/git/wpcqi-optiga-trust-charge/optiga/externals/mbedtls/library\x509_crt.c ****  */
 832:C:/Users/Yushev/git/wpcqi-optiga-trust-charge/optiga/externals/mbedtls/library\x509_crt.c **** static int x509_crt_parse_der_core( mbedtls_x509_crt *crt, const unsigned char *buf,
 833:C:/Users/Yushev/git/wpcqi-optiga-trust-charge/optiga/externals/mbedtls/library\x509_crt.c ****                                     size_t buflen )
 834:C:/Users/Yushev/git/wpcqi-optiga-trust-charge/optiga/externals/mbedtls/library\x509_crt.c **** {
 2229              	 .loc 2 834 0
 2230              	 .cfi_startproc
 2231              	 
 2232              	 
 2233 0000 90B5     	 push {r4,r7,lr}
 2234              	.LCFI95:
 2235              	 .cfi_def_cfa_offset 12
 2236              	 .cfi_offset 4,-12
 2237              	 .cfi_offset 7,-8
 2238              	 .cfi_offset 14,-4
 2239 0002 95B0     	 sub sp,sp,#84
 2240              	.LCFI96:
 2241              	 .cfi_def_cfa_offset 96
 2242 0004 02AF     	 add r7,sp,#8
 2243              	.LCFI97:
 2244              	 .cfi_def_cfa 7,88
 2245 0006 F860     	 str r0,[r7,#12]
 2246 0008 B960     	 str r1,[r7,#8]
 2247 000a 7A60     	 str r2,[r7,#4]
 835:C:/Users/Yushev/git/wpcqi-optiga-trust-charge/optiga/externals/mbedtls/library\x509_crt.c ****     int ret;
 836:C:/Users/Yushev/git/wpcqi-optiga-trust-charge/optiga/externals/mbedtls/library\x509_crt.c ****     size_t len;
 837:C:/Users/Yushev/git/wpcqi-optiga-trust-charge/optiga/externals/mbedtls/library\x509_crt.c ****     unsigned char *p, *end, *crt_end;
 838:C:/Users/Yushev/git/wpcqi-optiga-trust-charge/optiga/externals/mbedtls/library\x509_crt.c ****     mbedtls_x509_buf sig_params1, sig_params2, sig_oid2;
 839:C:/Users/Yushev/git/wpcqi-optiga-trust-charge/optiga/externals/mbedtls/library\x509_crt.c **** 
 840:C:/Users/Yushev/git/wpcqi-optiga-trust-charge/optiga/externals/mbedtls/library\x509_crt.c ****     memset( &sig_params1, 0, sizeof( mbedtls_x509_buf ) );
 2248              	 .loc 2 840 0
 2249 000c 07F12803 	 add r3,r7,#40
 2250 0010 1846     	 mov r0,r3
 2251 0012 0021     	 movs r1,#0
 2252 0014 0C22     	 movs r2,#12
 2253 0016 FFF7FEFF 	 bl memset
 841:C:/Users/Yushev/git/wpcqi-optiga-trust-charge/optiga/externals/mbedtls/library\x509_crt.c ****     memset( &sig_params2, 0, sizeof( mbedtls_x509_buf ) );
 2254              	 .loc 2 841 0
 2255 001a 07F11C03 	 add r3,r7,#28
 2256 001e 1846     	 mov r0,r3
 2257 0020 0021     	 movs r1,#0
 2258 0022 0C22     	 movs r2,#12
 2259 0024 FFF7FEFF 	 bl memset
 842:C:/Users/Yushev/git/wpcqi-optiga-trust-charge/optiga/externals/mbedtls/library\x509_crt.c ****     memset( &sig_oid2, 0, sizeof( mbedtls_x509_buf ) );
 2260              	 .loc 2 842 0
 2261 0028 07F11003 	 add r3,r7,#16
 2262 002c 1846     	 mov r0,r3
 2263 002e 0021     	 movs r1,#0
 2264 0030 0C22     	 movs r2,#12
 2265 0032 FFF7FEFF 	 bl memset
 843:C:/Users/Yushev/git/wpcqi-optiga-trust-charge/optiga/externals/mbedtls/library\x509_crt.c **** 
 844:C:/Users/Yushev/git/wpcqi-optiga-trust-charge/optiga/externals/mbedtls/library\x509_crt.c ****     /*
 845:C:/Users/Yushev/git/wpcqi-optiga-trust-charge/optiga/externals/mbedtls/library\x509_crt.c ****      * Check for valid input
 846:C:/Users/Yushev/git/wpcqi-optiga-trust-charge/optiga/externals/mbedtls/library\x509_crt.c ****      */
 847:C:/Users/Yushev/git/wpcqi-optiga-trust-charge/optiga/externals/mbedtls/library\x509_crt.c ****     if( crt == NULL || buf == NULL )
 2266              	 .loc 2 847 0
 2267 0036 FB68     	 ldr r3,[r7,#12]
 2268 0038 002B     	 cmp r3,#0
 2269 003a 02D0     	 beq .L164
 2270              	 .loc 2 847 0 is_stmt 0 discriminator 1
 2271 003c BB68     	 ldr r3,[r7,#8]
 2272 003e 002B     	 cmp r3,#0
 2273 0040 01D1     	 bne .L165
 2274              	.L164:
 848:C:/Users/Yushev/git/wpcqi-optiga-trust-charge/optiga/externals/mbedtls/library\x509_crt.c ****         return( MBEDTLS_ERR_X509_BAD_INPUT_DATA );
 2275              	 .loc 2 848 0 is_stmt 1
 2276 0042 A74B     	 ldr r3,.L194
 2277 0044 1EE2     	 b .L193
 2278              	.L165:
 849:C:/Users/Yushev/git/wpcqi-optiga-trust-charge/optiga/externals/mbedtls/library\x509_crt.c **** 
 850:C:/Users/Yushev/git/wpcqi-optiga-trust-charge/optiga/externals/mbedtls/library\x509_crt.c ****     // Use the original buffer until we figure out actual length
 851:C:/Users/Yushev/git/wpcqi-optiga-trust-charge/optiga/externals/mbedtls/library\x509_crt.c ****     p = (unsigned char*) buf;
 2279              	 .loc 2 851 0
 2280 0046 BB68     	 ldr r3,[r7,#8]
 2281 0048 7B63     	 str r3,[r7,#52]
 852:C:/Users/Yushev/git/wpcqi-optiga-trust-charge/optiga/externals/mbedtls/library\x509_crt.c ****     len = buflen;
 2282              	 .loc 2 852 0
 2283 004a 7B68     	 ldr r3,[r7,#4]
 2284 004c BB63     	 str r3,[r7,#56]
 853:C:/Users/Yushev/git/wpcqi-optiga-trust-charge/optiga/externals/mbedtls/library\x509_crt.c ****     end = p + len;
 2285              	 .loc 2 853 0
 2286 004e 7A6B     	 ldr r2,[r7,#52]
 2287 0050 BB6B     	 ldr r3,[r7,#56]
 2288 0052 1344     	 add r3,r3,r2
 2289 0054 3B64     	 str r3,[r7,#64]
 854:C:/Users/Yushev/git/wpcqi-optiga-trust-charge/optiga/externals/mbedtls/library\x509_crt.c **** 
 855:C:/Users/Yushev/git/wpcqi-optiga-trust-charge/optiga/externals/mbedtls/library\x509_crt.c ****     /*
 856:C:/Users/Yushev/git/wpcqi-optiga-trust-charge/optiga/externals/mbedtls/library\x509_crt.c ****      * Certificate  ::=  SEQUENCE  {
 857:C:/Users/Yushev/git/wpcqi-optiga-trust-charge/optiga/externals/mbedtls/library\x509_crt.c ****      *      tbsCertificate       TBSCertificate,
 858:C:/Users/Yushev/git/wpcqi-optiga-trust-charge/optiga/externals/mbedtls/library\x509_crt.c ****      *      signatureAlgorithm   AlgorithmIdentifier,
 859:C:/Users/Yushev/git/wpcqi-optiga-trust-charge/optiga/externals/mbedtls/library\x509_crt.c ****      *      signatureValue       BIT STRING  }
 860:C:/Users/Yushev/git/wpcqi-optiga-trust-charge/optiga/externals/mbedtls/library\x509_crt.c ****      */
 861:C:/Users/Yushev/git/wpcqi-optiga-trust-charge/optiga/externals/mbedtls/library\x509_crt.c ****     if( ( ret = mbedtls_asn1_get_tag( &p, end, &len,
 2290              	 .loc 2 861 0
 2291 0056 07F13402 	 add r2,r7,#52
 2292 005a 07F13803 	 add r3,r7,#56
 2293 005e 1046     	 mov r0,r2
 2294 0060 396C     	 ldr r1,[r7,#64]
 2295 0062 1A46     	 mov r2,r3
 2296 0064 3023     	 movs r3,#48
 2297 0066 FFF7FEFF 	 bl mbedtls_asn1_get_tag
 2298 006a 7864     	 str r0,[r7,#68]
 2299 006c 7B6C     	 ldr r3,[r7,#68]
 2300 006e 002B     	 cmp r3,#0
 2301 0070 04D0     	 beq .L167
 862:C:/Users/Yushev/git/wpcqi-optiga-trust-charge/optiga/externals/mbedtls/library\x509_crt.c ****             MBEDTLS_ASN1_CONSTRUCTED | MBEDTLS_ASN1_SEQUENCE ) ) != 0 )
 863:C:/Users/Yushev/git/wpcqi-optiga-trust-charge/optiga/externals/mbedtls/library\x509_crt.c ****     {
 864:C:/Users/Yushev/git/wpcqi-optiga-trust-charge/optiga/externals/mbedtls/library\x509_crt.c ****         mbedtls_x509_crt_free( crt );
 2302              	 .loc 2 864 0
 2303 0072 F868     	 ldr r0,[r7,#12]
 2304 0074 FFF7FEFF 	 bl mbedtls_x509_crt_free
 865:C:/Users/Yushev/git/wpcqi-optiga-trust-charge/optiga/externals/mbedtls/library\x509_crt.c ****         return( MBEDTLS_ERR_X509_INVALID_FORMAT );
 2305              	 .loc 2 865 0
 2306 0078 9A4B     	 ldr r3,.L194+4
 2307 007a 03E2     	 b .L193
 2308              	.L167:
 866:C:/Users/Yushev/git/wpcqi-optiga-trust-charge/optiga/externals/mbedtls/library\x509_crt.c ****     }
 867:C:/Users/Yushev/git/wpcqi-optiga-trust-charge/optiga/externals/mbedtls/library\x509_crt.c **** 
 868:C:/Users/Yushev/git/wpcqi-optiga-trust-charge/optiga/externals/mbedtls/library\x509_crt.c ****     if( len > (size_t) ( end - p ) )
 2309              	 .loc 2 868 0
 2310 007c 3B6C     	 ldr r3,[r7,#64]
 2311 007e 7A6B     	 ldr r2,[r7,#52]
 2312 0080 9B1A     	 subs r3,r3,r2
 2313 0082 1A46     	 mov r2,r3
 2314 0084 BB6B     	 ldr r3,[r7,#56]
 2315 0086 9A42     	 cmp r2,r3
 2316 0088 04D2     	 bcs .L168
 869:C:/Users/Yushev/git/wpcqi-optiga-trust-charge/optiga/externals/mbedtls/library\x509_crt.c ****     {
 870:C:/Users/Yushev/git/wpcqi-optiga-trust-charge/optiga/externals/mbedtls/library\x509_crt.c ****         mbedtls_x509_crt_free( crt );
 2317              	 .loc 2 870 0
 2318 008a F868     	 ldr r0,[r7,#12]
 2319 008c FFF7FEFF 	 bl mbedtls_x509_crt_free
 871:C:/Users/Yushev/git/wpcqi-optiga-trust-charge/optiga/externals/mbedtls/library\x509_crt.c ****         return( MBEDTLS_ERR_X509_INVALID_FORMAT +
 2320              	 .loc 2 871 0
 2321 0090 954B     	 ldr r3,.L194+8
 2322 0092 F7E1     	 b .L193
 2323              	.L168:
 872:C:/Users/Yushev/git/wpcqi-optiga-trust-charge/optiga/externals/mbedtls/library\x509_crt.c ****                 MBEDTLS_ERR_ASN1_LENGTH_MISMATCH );
 873:C:/Users/Yushev/git/wpcqi-optiga-trust-charge/optiga/externals/mbedtls/library\x509_crt.c ****     }
 874:C:/Users/Yushev/git/wpcqi-optiga-trust-charge/optiga/externals/mbedtls/library\x509_crt.c ****     crt_end = p + len;
 2324              	 .loc 2 874 0
 2325 0094 7A6B     	 ldr r2,[r7,#52]
 2326 0096 BB6B     	 ldr r3,[r7,#56]
 2327 0098 1344     	 add r3,r3,r2
 2328 009a FB63     	 str r3,[r7,#60]
 875:C:/Users/Yushev/git/wpcqi-optiga-trust-charge/optiga/externals/mbedtls/library\x509_crt.c **** 
 876:C:/Users/Yushev/git/wpcqi-optiga-trust-charge/optiga/externals/mbedtls/library\x509_crt.c ****     // Create and populate a new buffer for the raw field
 877:C:/Users/Yushev/git/wpcqi-optiga-trust-charge/optiga/externals/mbedtls/library\x509_crt.c ****     crt->raw.len = crt_end - buf;
 2329              	 .loc 2 877 0
 2330 009c FA6B     	 ldr r2,[r7,#60]
 2331 009e BB68     	 ldr r3,[r7,#8]
 2332 00a0 D31A     	 subs r3,r2,r3
 2333 00a2 1A46     	 mov r2,r3
 2334 00a4 FB68     	 ldr r3,[r7,#12]
 2335 00a6 5A60     	 str r2,[r3,#4]
 878:C:/Users/Yushev/git/wpcqi-optiga-trust-charge/optiga/externals/mbedtls/library\x509_crt.c ****     crt->raw.p = p = mbedtls_calloc( 1, crt->raw.len );
 2336              	 .loc 2 878 0
 2337 00a8 FB68     	 ldr r3,[r7,#12]
 2338 00aa 5B68     	 ldr r3,[r3,#4]
 2339 00ac 0120     	 movs r0,#1
 2340 00ae 1946     	 mov r1,r3
 2341 00b0 FFF7FEFF 	 bl calloc
 2342 00b4 0346     	 mov r3,r0
 2343 00b6 7B63     	 str r3,[r7,#52]
 2344 00b8 7A6B     	 ldr r2,[r7,#52]
 2345 00ba FB68     	 ldr r3,[r7,#12]
 2346 00bc 9A60     	 str r2,[r3,#8]
 879:C:/Users/Yushev/git/wpcqi-optiga-trust-charge/optiga/externals/mbedtls/library\x509_crt.c ****     if( p == NULL )
 2347              	 .loc 2 879 0
 2348 00be 7B6B     	 ldr r3,[r7,#52]
 2349 00c0 002B     	 cmp r3,#0
 2350 00c2 01D1     	 bne .L169
 880:C:/Users/Yushev/git/wpcqi-optiga-trust-charge/optiga/externals/mbedtls/library\x509_crt.c ****         return( MBEDTLS_ERR_X509_ALLOC_FAILED );
 2351              	 .loc 2 880 0
 2352 00c4 894B     	 ldr r3,.L194+12
 2353 00c6 DDE1     	 b .L193
 2354              	.L169:
 881:C:/Users/Yushev/git/wpcqi-optiga-trust-charge/optiga/externals/mbedtls/library\x509_crt.c **** 
 882:C:/Users/Yushev/git/wpcqi-optiga-trust-charge/optiga/externals/mbedtls/library\x509_crt.c ****     memcpy( p, buf, crt->raw.len );
 2355              	 .loc 2 882 0
 2356 00c8 7A6B     	 ldr r2,[r7,#52]
 2357 00ca FB68     	 ldr r3,[r7,#12]
 2358 00cc 5B68     	 ldr r3,[r3,#4]
 2359 00ce 1046     	 mov r0,r2
 2360 00d0 B968     	 ldr r1,[r7,#8]
 2361 00d2 1A46     	 mov r2,r3
 2362 00d4 FFF7FEFF 	 bl memcpy
 883:C:/Users/Yushev/git/wpcqi-optiga-trust-charge/optiga/externals/mbedtls/library\x509_crt.c **** 
 884:C:/Users/Yushev/git/wpcqi-optiga-trust-charge/optiga/externals/mbedtls/library\x509_crt.c ****     // Direct pointers to the new buffer
 885:C:/Users/Yushev/git/wpcqi-optiga-trust-charge/optiga/externals/mbedtls/library\x509_crt.c ****     p += crt->raw.len - len;
 2363              	 .loc 2 885 0
 2364 00d8 7A6B     	 ldr r2,[r7,#52]
 2365 00da FB68     	 ldr r3,[r7,#12]
 2366 00dc 5968     	 ldr r1,[r3,#4]
 2367 00de BB6B     	 ldr r3,[r7,#56]
 2368 00e0 CB1A     	 subs r3,r1,r3
 2369 00e2 1344     	 add r3,r3,r2
 2370 00e4 7B63     	 str r3,[r7,#52]
 886:C:/Users/Yushev/git/wpcqi-optiga-trust-charge/optiga/externals/mbedtls/library\x509_crt.c ****     end = crt_end = p + len;
 2371              	 .loc 2 886 0
 2372 00e6 7A6B     	 ldr r2,[r7,#52]
 2373 00e8 BB6B     	 ldr r3,[r7,#56]
 2374 00ea 1344     	 add r3,r3,r2
 2375 00ec FB63     	 str r3,[r7,#60]
 2376 00ee FB6B     	 ldr r3,[r7,#60]
 2377 00f0 3B64     	 str r3,[r7,#64]
 887:C:/Users/Yushev/git/wpcqi-optiga-trust-charge/optiga/externals/mbedtls/library\x509_crt.c **** 
 888:C:/Users/Yushev/git/wpcqi-optiga-trust-charge/optiga/externals/mbedtls/library\x509_crt.c ****     /*
 889:C:/Users/Yushev/git/wpcqi-optiga-trust-charge/optiga/externals/mbedtls/library\x509_crt.c ****      * TBSCertificate  ::=  SEQUENCE  {
 890:C:/Users/Yushev/git/wpcqi-optiga-trust-charge/optiga/externals/mbedtls/library\x509_crt.c ****      */
 891:C:/Users/Yushev/git/wpcqi-optiga-trust-charge/optiga/externals/mbedtls/library\x509_crt.c ****     crt->tbs.p = p;
 2378              	 .loc 2 891 0
 2379 00f2 7A6B     	 ldr r2,[r7,#52]
 2380 00f4 FB68     	 ldr r3,[r7,#12]
 2381 00f6 5A61     	 str r2,[r3,#20]
 892:C:/Users/Yushev/git/wpcqi-optiga-trust-charge/optiga/externals/mbedtls/library\x509_crt.c **** 
 893:C:/Users/Yushev/git/wpcqi-optiga-trust-charge/optiga/externals/mbedtls/library\x509_crt.c ****     if( ( ret = mbedtls_asn1_get_tag( &p, end, &len,
 2382              	 .loc 2 893 0
 2383 00f8 07F13402 	 add r2,r7,#52
 2384 00fc 07F13803 	 add r3,r7,#56
 2385 0100 1046     	 mov r0,r2
 2386 0102 396C     	 ldr r1,[r7,#64]
 2387 0104 1A46     	 mov r2,r3
 2388 0106 3023     	 movs r3,#48
 2389 0108 FFF7FEFF 	 bl mbedtls_asn1_get_tag
 2390 010c 7864     	 str r0,[r7,#68]
 2391 010e 7B6C     	 ldr r3,[r7,#68]
 2392 0110 002B     	 cmp r3,#0
 2393 0112 06D0     	 beq .L170
 894:C:/Users/Yushev/git/wpcqi-optiga-trust-charge/optiga/externals/mbedtls/library\x509_crt.c ****             MBEDTLS_ASN1_CONSTRUCTED | MBEDTLS_ASN1_SEQUENCE ) ) != 0 )
 895:C:/Users/Yushev/git/wpcqi-optiga-trust-charge/optiga/externals/mbedtls/library\x509_crt.c ****     {
 896:C:/Users/Yushev/git/wpcqi-optiga-trust-charge/optiga/externals/mbedtls/library\x509_crt.c ****         mbedtls_x509_crt_free( crt );
 2394              	 .loc 2 896 0
 2395 0114 F868     	 ldr r0,[r7,#12]
 2396 0116 FFF7FEFF 	 bl mbedtls_x509_crt_free
 897:C:/Users/Yushev/git/wpcqi-optiga-trust-charge/optiga/externals/mbedtls/library\x509_crt.c ****         return( MBEDTLS_ERR_X509_INVALID_FORMAT + ret );
 2397              	 .loc 2 897 0
 2398 011a 7B6C     	 ldr r3,[r7,#68]
 2399 011c A3F50653 	 sub r3,r3,#8576
 2400 0120 B0E1     	 b .L193
 2401              	.L170:
 898:C:/Users/Yushev/git/wpcqi-optiga-trust-charge/optiga/externals/mbedtls/library\x509_crt.c ****     }
 899:C:/Users/Yushev/git/wpcqi-optiga-trust-charge/optiga/externals/mbedtls/library\x509_crt.c **** 
 900:C:/Users/Yushev/git/wpcqi-optiga-trust-charge/optiga/externals/mbedtls/library\x509_crt.c ****     end = p + len;
 2402              	 .loc 2 900 0
 2403 0122 7A6B     	 ldr r2,[r7,#52]
 2404 0124 BB6B     	 ldr r3,[r7,#56]
 2405 0126 1344     	 add r3,r3,r2
 2406 0128 3B64     	 str r3,[r7,#64]
 901:C:/Users/Yushev/git/wpcqi-optiga-trust-charge/optiga/externals/mbedtls/library\x509_crt.c ****     crt->tbs.len = end - crt->tbs.p;
 2407              	 .loc 2 901 0
 2408 012a 3B6C     	 ldr r3,[r7,#64]
 2409 012c FA68     	 ldr r2,[r7,#12]
 2410 012e 5269     	 ldr r2,[r2,#20]
 2411 0130 9B1A     	 subs r3,r3,r2
 2412 0132 1A46     	 mov r2,r3
 2413 0134 FB68     	 ldr r3,[r7,#12]
 2414 0136 1A61     	 str r2,[r3,#16]
 902:C:/Users/Yushev/git/wpcqi-optiga-trust-charge/optiga/externals/mbedtls/library\x509_crt.c **** 
 903:C:/Users/Yushev/git/wpcqi-optiga-trust-charge/optiga/externals/mbedtls/library\x509_crt.c ****     /*
 904:C:/Users/Yushev/git/wpcqi-optiga-trust-charge/optiga/externals/mbedtls/library\x509_crt.c ****      * Version  ::=  INTEGER  {  v1(0), v2(1), v3(2)  }
 905:C:/Users/Yushev/git/wpcqi-optiga-trust-charge/optiga/externals/mbedtls/library\x509_crt.c ****      *
 906:C:/Users/Yushev/git/wpcqi-optiga-trust-charge/optiga/externals/mbedtls/library\x509_crt.c ****      * CertificateSerialNumber  ::=  INTEGER
 907:C:/Users/Yushev/git/wpcqi-optiga-trust-charge/optiga/externals/mbedtls/library\x509_crt.c ****      *
 908:C:/Users/Yushev/git/wpcqi-optiga-trust-charge/optiga/externals/mbedtls/library\x509_crt.c ****      * signature            AlgorithmIdentifier
 909:C:/Users/Yushev/git/wpcqi-optiga-trust-charge/optiga/externals/mbedtls/library\x509_crt.c ****      */
 910:C:/Users/Yushev/git/wpcqi-optiga-trust-charge/optiga/externals/mbedtls/library\x509_crt.c ****     if( ( ret = x509_get_version(  &p, end, &crt->version  ) ) != 0 ||
 2415              	 .loc 2 910 0
 2416 0138 FB68     	 ldr r3,[r7,#12]
 2417 013a 1833     	 adds r3,r3,#24
 2418 013c 07F13402 	 add r2,r7,#52
 2419 0140 1046     	 mov r0,r2
 2420 0142 396C     	 ldr r1,[r7,#64]
 2421 0144 1A46     	 mov r2,r3
 2422 0146 FFF7FEFF 	 bl x509_get_version
 2423 014a 7864     	 str r0,[r7,#68]
 2424 014c 7B6C     	 ldr r3,[r7,#68]
 2425 014e 002B     	 cmp r3,#0
 2426 0150 1BD1     	 bne .L171
 911:C:/Users/Yushev/git/wpcqi-optiga-trust-charge/optiga/externals/mbedtls/library\x509_crt.c ****         ( ret = mbedtls_x509_get_serial(   &p, end, &crt->serial   ) ) != 0 ||
 2427              	 .loc 2 911 0 discriminator 1
 2428 0152 FB68     	 ldr r3,[r7,#12]
 2429 0154 1C33     	 adds r3,r3,#28
 910:C:/Users/Yushev/git/wpcqi-optiga-trust-charge/optiga/externals/mbedtls/library\x509_crt.c ****         ( ret = mbedtls_x509_get_serial(   &p, end, &crt->serial   ) ) != 0 ||
 2430              	 .loc 2 910 0 discriminator 1
 2431 0156 07F13402 	 add r2,r7,#52
 2432 015a 1046     	 mov r0,r2
 2433 015c 396C     	 ldr r1,[r7,#64]
 2434 015e 1A46     	 mov r2,r3
 2435 0160 FFF7FEFF 	 bl mbedtls_x509_get_serial
 2436 0164 7864     	 str r0,[r7,#68]
 2437 0166 7B6C     	 ldr r3,[r7,#68]
 2438 0168 002B     	 cmp r3,#0
 2439 016a 0ED1     	 bne .L171
 912:C:/Users/Yushev/git/wpcqi-optiga-trust-charge/optiga/externals/mbedtls/library\x509_crt.c ****         ( ret = mbedtls_x509_get_alg(      &p, end, &crt->sig_oid,
 2440              	 .loc 2 912 0
 2441 016c FB68     	 ldr r3,[r7,#12]
 2442 016e 03F12802 	 add r2,r3,#40
 911:C:/Users/Yushev/git/wpcqi-optiga-trust-charge/optiga/externals/mbedtls/library\x509_crt.c ****         ( ret = mbedtls_x509_get_serial(   &p, end, &crt->serial   ) ) != 0 ||
 2443              	 .loc 2 911 0
 2444 0172 07F13401 	 add r1,r7,#52
 2445 0176 07F12803 	 add r3,r7,#40
 2446 017a 0846     	 mov r0,r1
 2447 017c 396C     	 ldr r1,[r7,#64]
 2448 017e FFF7FEFF 	 bl mbedtls_x509_get_alg
 2449 0182 7864     	 str r0,[r7,#68]
 2450 0184 7B6C     	 ldr r3,[r7,#68]
 2451 0186 002B     	 cmp r3,#0
 2452 0188 04D0     	 beq .L172
 2453              	.L171:
 913:C:/Users/Yushev/git/wpcqi-optiga-trust-charge/optiga/externals/mbedtls/library\x509_crt.c ****                                             &sig_params1 ) ) != 0 )
 914:C:/Users/Yushev/git/wpcqi-optiga-trust-charge/optiga/externals/mbedtls/library\x509_crt.c ****     {
 915:C:/Users/Yushev/git/wpcqi-optiga-trust-charge/optiga/externals/mbedtls/library\x509_crt.c ****         mbedtls_x509_crt_free( crt );
 2454              	 .loc 2 915 0
 2455 018a F868     	 ldr r0,[r7,#12]
 2456 018c FFF7FEFF 	 bl mbedtls_x509_crt_free
 916:C:/Users/Yushev/git/wpcqi-optiga-trust-charge/optiga/externals/mbedtls/library\x509_crt.c ****         return( ret );
 2457              	 .loc 2 916 0
 2458 0190 7B6C     	 ldr r3,[r7,#68]
 2459 0192 77E1     	 b .L193
 2460              	.L172:
 917:C:/Users/Yushev/git/wpcqi-optiga-trust-charge/optiga/externals/mbedtls/library\x509_crt.c ****     }
 918:C:/Users/Yushev/git/wpcqi-optiga-trust-charge/optiga/externals/mbedtls/library\x509_crt.c **** 
 919:C:/Users/Yushev/git/wpcqi-optiga-trust-charge/optiga/externals/mbedtls/library\x509_crt.c ****     if( crt->version < 0 || crt->version > 2 )
 2461              	 .loc 2 919 0
 2462 0194 FB68     	 ldr r3,[r7,#12]
 2463 0196 9B69     	 ldr r3,[r3,#24]
 2464 0198 002B     	 cmp r3,#0
 2465 019a 03DB     	 blt .L173
 2466              	 .loc 2 919 0 is_stmt 0 discriminator 1
 2467 019c FB68     	 ldr r3,[r7,#12]
 2468 019e 9B69     	 ldr r3,[r3,#24]
 2469 01a0 022B     	 cmp r3,#2
 2470 01a2 04DD     	 ble .L174
 2471              	.L173:
 920:C:/Users/Yushev/git/wpcqi-optiga-trust-charge/optiga/externals/mbedtls/library\x509_crt.c ****     {
 921:C:/Users/Yushev/git/wpcqi-optiga-trust-charge/optiga/externals/mbedtls/library\x509_crt.c ****         mbedtls_x509_crt_free( crt );
 2472              	 .loc 2 921 0 is_stmt 1
 2473 01a4 F868     	 ldr r0,[r7,#12]
 2474 01a6 FFF7FEFF 	 bl mbedtls_x509_crt_free
 922:C:/Users/Yushev/git/wpcqi-optiga-trust-charge/optiga/externals/mbedtls/library\x509_crt.c ****         return( MBEDTLS_ERR_X509_UNKNOWN_VERSION );
 2475              	 .loc 2 922 0
 2476 01aa 514B     	 ldr r3,.L194+16
 2477 01ac 6AE1     	 b .L193
 2478              	.L174:
 923:C:/Users/Yushev/git/wpcqi-optiga-trust-charge/optiga/externals/mbedtls/library\x509_crt.c ****     }
 924:C:/Users/Yushev/git/wpcqi-optiga-trust-charge/optiga/externals/mbedtls/library\x509_crt.c **** 
 925:C:/Users/Yushev/git/wpcqi-optiga-trust-charge/optiga/externals/mbedtls/library\x509_crt.c ****     crt->version++;
 2479              	 .loc 2 925 0
 2480 01ae FB68     	 ldr r3,[r7,#12]
 2481 01b0 9B69     	 ldr r3,[r3,#24]
 2482 01b2 5A1C     	 adds r2,r3,#1
 2483 01b4 FB68     	 ldr r3,[r7,#12]
 2484 01b6 9A61     	 str r2,[r3,#24]
 926:C:/Users/Yushev/git/wpcqi-optiga-trust-charge/optiga/externals/mbedtls/library\x509_crt.c **** 
 927:C:/Users/Yushev/git/wpcqi-optiga-trust-charge/optiga/externals/mbedtls/library\x509_crt.c ****     if( ( ret = mbedtls_x509_get_sig_alg( &crt->sig_oid, &sig_params1,
 2485              	 .loc 2 927 0
 2486 01b8 FB68     	 ldr r3,[r7,#12]
 2487 01ba 03F12800 	 add r0,r3,#40
 2488 01be FB68     	 ldr r3,[r7,#12]
 2489 01c0 03F59472 	 add r2,r3,#296
 2490 01c4 FB68     	 ldr r3,[r7,#12]
 2491 01c6 03F22914 	 addw r4,r3,#297
 2492 01ca FB68     	 ldr r3,[r7,#12]
 2493 01cc 03F59673 	 add r3,r3,#300
 2494 01d0 07F12801 	 add r1,r7,#40
 2495 01d4 0093     	 str r3,[sp]
 2496 01d6 2346     	 mov r3,r4
 2497 01d8 FFF7FEFF 	 bl mbedtls_x509_get_sig_alg
 2498 01dc 7864     	 str r0,[r7,#68]
 2499 01de 7B6C     	 ldr r3,[r7,#68]
 2500 01e0 002B     	 cmp r3,#0
 2501 01e2 04D0     	 beq .L175
 928:C:/Users/Yushev/git/wpcqi-optiga-trust-charge/optiga/externals/mbedtls/library\x509_crt.c ****                                   &crt->sig_md, &crt->sig_pk,
 929:C:/Users/Yushev/git/wpcqi-optiga-trust-charge/optiga/externals/mbedtls/library\x509_crt.c ****                                   &crt->sig_opts ) ) != 0 )
 930:C:/Users/Yushev/git/wpcqi-optiga-trust-charge/optiga/externals/mbedtls/library\x509_crt.c ****     {
 931:C:/Users/Yushev/git/wpcqi-optiga-trust-charge/optiga/externals/mbedtls/library\x509_crt.c ****         mbedtls_x509_crt_free( crt );
 2502              	 .loc 2 931 0
 2503 01e4 F868     	 ldr r0,[r7,#12]
 2504 01e6 FFF7FEFF 	 bl mbedtls_x509_crt_free
 932:C:/Users/Yushev/git/wpcqi-optiga-trust-charge/optiga/externals/mbedtls/library\x509_crt.c ****         return( ret );
 2505              	 .loc 2 932 0
 2506 01ea 7B6C     	 ldr r3,[r7,#68]
 2507 01ec 4AE1     	 b .L193
 2508              	.L175:
 933:C:/Users/Yushev/git/wpcqi-optiga-trust-charge/optiga/externals/mbedtls/library\x509_crt.c ****     }
 934:C:/Users/Yushev/git/wpcqi-optiga-trust-charge/optiga/externals/mbedtls/library\x509_crt.c **** 
 935:C:/Users/Yushev/git/wpcqi-optiga-trust-charge/optiga/externals/mbedtls/library\x509_crt.c ****     /*
 936:C:/Users/Yushev/git/wpcqi-optiga-trust-charge/optiga/externals/mbedtls/library\x509_crt.c ****      * issuer               Name
 937:C:/Users/Yushev/git/wpcqi-optiga-trust-charge/optiga/externals/mbedtls/library\x509_crt.c ****      */
 938:C:/Users/Yushev/git/wpcqi-optiga-trust-charge/optiga/externals/mbedtls/library\x509_crt.c ****     crt->issuer_raw.p = p;
 2509              	 .loc 2 938 0
 2510 01ee 7A6B     	 ldr r2,[r7,#52]
 2511 01f0 FB68     	 ldr r3,[r7,#12]
 2512 01f2 DA63     	 str r2,[r3,#60]
 939:C:/Users/Yushev/git/wpcqi-optiga-trust-charge/optiga/externals/mbedtls/library\x509_crt.c **** 
 940:C:/Users/Yushev/git/wpcqi-optiga-trust-charge/optiga/externals/mbedtls/library\x509_crt.c ****     if( ( ret = mbedtls_asn1_get_tag( &p, end, &len,
 2513              	 .loc 2 940 0
 2514 01f4 07F13402 	 add r2,r7,#52
 2515 01f8 07F13803 	 add r3,r7,#56
 2516 01fc 1046     	 mov r0,r2
 2517 01fe 396C     	 ldr r1,[r7,#64]
 2518 0200 1A46     	 mov r2,r3
 2519 0202 3023     	 movs r3,#48
 2520 0204 FFF7FEFF 	 bl mbedtls_asn1_get_tag
 2521 0208 7864     	 str r0,[r7,#68]
 2522 020a 7B6C     	 ldr r3,[r7,#68]
 2523 020c 002B     	 cmp r3,#0
 2524 020e 06D0     	 beq .L176
 941:C:/Users/Yushev/git/wpcqi-optiga-trust-charge/optiga/externals/mbedtls/library\x509_crt.c ****             MBEDTLS_ASN1_CONSTRUCTED | MBEDTLS_ASN1_SEQUENCE ) ) != 0 )
 942:C:/Users/Yushev/git/wpcqi-optiga-trust-charge/optiga/externals/mbedtls/library\x509_crt.c ****     {
 943:C:/Users/Yushev/git/wpcqi-optiga-trust-charge/optiga/externals/mbedtls/library\x509_crt.c ****         mbedtls_x509_crt_free( crt );
 2525              	 .loc 2 943 0
 2526 0210 F868     	 ldr r0,[r7,#12]
 2527 0212 FFF7FEFF 	 bl mbedtls_x509_crt_free
 944:C:/Users/Yushev/git/wpcqi-optiga-trust-charge/optiga/externals/mbedtls/library\x509_crt.c ****         return( MBEDTLS_ERR_X509_INVALID_FORMAT + ret );
 2528              	 .loc 2 944 0
 2529 0216 7B6C     	 ldr r3,[r7,#68]
 2530 0218 A3F50653 	 sub r3,r3,#8576
 2531 021c 32E1     	 b .L193
 2532              	.L176:
 945:C:/Users/Yushev/git/wpcqi-optiga-trust-charge/optiga/externals/mbedtls/library\x509_crt.c ****     }
 946:C:/Users/Yushev/git/wpcqi-optiga-trust-charge/optiga/externals/mbedtls/library\x509_crt.c **** 
 947:C:/Users/Yushev/git/wpcqi-optiga-trust-charge/optiga/externals/mbedtls/library\x509_crt.c ****     if( ( ret = mbedtls_x509_get_name( &p, p + len, &crt->issuer ) ) != 0 )
 2533              	 .loc 2 947 0
 2534 021e 7A6B     	 ldr r2,[r7,#52]
 2535 0220 BB6B     	 ldr r3,[r7,#56]
 2536 0222 1A44     	 add r2,r2,r3
 2537 0224 FB68     	 ldr r3,[r7,#12]
 2538 0226 4C33     	 adds r3,r3,#76
 2539 0228 07F13401 	 add r1,r7,#52
 2540 022c 0846     	 mov r0,r1
 2541 022e 1146     	 mov r1,r2
 2542 0230 1A46     	 mov r2,r3
 2543 0232 FFF7FEFF 	 bl mbedtls_x509_get_name
 2544 0236 7864     	 str r0,[r7,#68]
 2545 0238 7B6C     	 ldr r3,[r7,#68]
 2546 023a 002B     	 cmp r3,#0
 2547 023c 04D0     	 beq .L177
 948:C:/Users/Yushev/git/wpcqi-optiga-trust-charge/optiga/externals/mbedtls/library\x509_crt.c ****     {
 949:C:/Users/Yushev/git/wpcqi-optiga-trust-charge/optiga/externals/mbedtls/library\x509_crt.c ****         mbedtls_x509_crt_free( crt );
 2548              	 .loc 2 949 0
 2549 023e F868     	 ldr r0,[r7,#12]
 2550 0240 FFF7FEFF 	 bl mbedtls_x509_crt_free
 950:C:/Users/Yushev/git/wpcqi-optiga-trust-charge/optiga/externals/mbedtls/library\x509_crt.c ****         return( ret );
 2551              	 .loc 2 950 0
 2552 0244 7B6C     	 ldr r3,[r7,#68]
 2553 0246 1DE1     	 b .L193
 2554              	.L177:
 951:C:/Users/Yushev/git/wpcqi-optiga-trust-charge/optiga/externals/mbedtls/library\x509_crt.c ****     }
 952:C:/Users/Yushev/git/wpcqi-optiga-trust-charge/optiga/externals/mbedtls/library\x509_crt.c **** 
 953:C:/Users/Yushev/git/wpcqi-optiga-trust-charge/optiga/externals/mbedtls/library\x509_crt.c ****     crt->issuer_raw.len = p - crt->issuer_raw.p;
 2555              	 .loc 2 953 0
 2556 0248 7B6B     	 ldr r3,[r7,#52]
 2557 024a 1A46     	 mov r2,r3
 2558 024c FB68     	 ldr r3,[r7,#12]
 2559 024e DB6B     	 ldr r3,[r3,#60]
 2560 0250 D31A     	 subs r3,r2,r3
 2561 0252 1A46     	 mov r2,r3
 2562 0254 FB68     	 ldr r3,[r7,#12]
 2563 0256 9A63     	 str r2,[r3,#56]
 954:C:/Users/Yushev/git/wpcqi-optiga-trust-charge/optiga/externals/mbedtls/library\x509_crt.c **** 
 955:C:/Users/Yushev/git/wpcqi-optiga-trust-charge/optiga/externals/mbedtls/library\x509_crt.c ****     /*
 956:C:/Users/Yushev/git/wpcqi-optiga-trust-charge/optiga/externals/mbedtls/library\x509_crt.c ****      * Validity ::= SEQUENCE {
 957:C:/Users/Yushev/git/wpcqi-optiga-trust-charge/optiga/externals/mbedtls/library\x509_crt.c ****      *      notBefore      Time,
 958:C:/Users/Yushev/git/wpcqi-optiga-trust-charge/optiga/externals/mbedtls/library\x509_crt.c ****      *      notAfter       Time }
 959:C:/Users/Yushev/git/wpcqi-optiga-trust-charge/optiga/externals/mbedtls/library\x509_crt.c ****      *
 960:C:/Users/Yushev/git/wpcqi-optiga-trust-charge/optiga/externals/mbedtls/library\x509_crt.c ****      */
 961:C:/Users/Yushev/git/wpcqi-optiga-trust-charge/optiga/externals/mbedtls/library\x509_crt.c ****     if( ( ret = x509_get_dates( &p, end, &crt->valid_from,
 2564              	 .loc 2 961 0
 2565 0258 FB68     	 ldr r3,[r7,#12]
 2566 025a 03F18C02 	 add r2,r3,#140
 2567 025e FB68     	 ldr r3,[r7,#12]
 2568 0260 A433     	 adds r3,r3,#164
 2569 0262 07F13401 	 add r1,r7,#52
 2570 0266 0846     	 mov r0,r1
 2571 0268 396C     	 ldr r1,[r7,#64]
 2572 026a FFF7FEFF 	 bl x509_get_dates
 2573 026e 7864     	 str r0,[r7,#68]
 2574 0270 7B6C     	 ldr r3,[r7,#68]
 2575 0272 002B     	 cmp r3,#0
 2576 0274 04D0     	 beq .L178
 962:C:/Users/Yushev/git/wpcqi-optiga-trust-charge/optiga/externals/mbedtls/library\x509_crt.c ****                                          &crt->valid_to ) ) != 0 )
 963:C:/Users/Yushev/git/wpcqi-optiga-trust-charge/optiga/externals/mbedtls/library\x509_crt.c ****     {
 964:C:/Users/Yushev/git/wpcqi-optiga-trust-charge/optiga/externals/mbedtls/library\x509_crt.c ****         mbedtls_x509_crt_free( crt );
 2577              	 .loc 2 964 0
 2578 0276 F868     	 ldr r0,[r7,#12]
 2579 0278 FFF7FEFF 	 bl mbedtls_x509_crt_free
 965:C:/Users/Yushev/git/wpcqi-optiga-trust-charge/optiga/externals/mbedtls/library\x509_crt.c ****         return( ret );
 2580              	 .loc 2 965 0
 2581 027c 7B6C     	 ldr r3,[r7,#68]
 2582 027e 01E1     	 b .L193
 2583              	.L178:
 966:C:/Users/Yushev/git/wpcqi-optiga-trust-charge/optiga/externals/mbedtls/library\x509_crt.c ****     }
 967:C:/Users/Yushev/git/wpcqi-optiga-trust-charge/optiga/externals/mbedtls/library\x509_crt.c **** 
 968:C:/Users/Yushev/git/wpcqi-optiga-trust-charge/optiga/externals/mbedtls/library\x509_crt.c ****     /*
 969:C:/Users/Yushev/git/wpcqi-optiga-trust-charge/optiga/externals/mbedtls/library\x509_crt.c ****      * subject              Name
 970:C:/Users/Yushev/git/wpcqi-optiga-trust-charge/optiga/externals/mbedtls/library\x509_crt.c ****      */
 971:C:/Users/Yushev/git/wpcqi-optiga-trust-charge/optiga/externals/mbedtls/library\x509_crt.c ****     crt->subject_raw.p = p;
 2584              	 .loc 2 971 0
 2585 0280 7A6B     	 ldr r2,[r7,#52]
 2586 0282 FB68     	 ldr r3,[r7,#12]
 2587 0284 9A64     	 str r2,[r3,#72]
 972:C:/Users/Yushev/git/wpcqi-optiga-trust-charge/optiga/externals/mbedtls/library\x509_crt.c **** 
 973:C:/Users/Yushev/git/wpcqi-optiga-trust-charge/optiga/externals/mbedtls/library\x509_crt.c ****     if( ( ret = mbedtls_asn1_get_tag( &p, end, &len,
 2588              	 .loc 2 973 0
 2589 0286 07F13402 	 add r2,r7,#52
 2590 028a 07F13803 	 add r3,r7,#56
 2591 028e 1046     	 mov r0,r2
 2592 0290 396C     	 ldr r1,[r7,#64]
 2593 0292 1A46     	 mov r2,r3
 2594 0294 3023     	 movs r3,#48
 2595 0296 FFF7FEFF 	 bl mbedtls_asn1_get_tag
 2596 029a 7864     	 str r0,[r7,#68]
 2597 029c 7B6C     	 ldr r3,[r7,#68]
 2598 029e 002B     	 cmp r3,#0
 2599 02a0 06D0     	 beq .L179
 974:C:/Users/Yushev/git/wpcqi-optiga-trust-charge/optiga/externals/mbedtls/library\x509_crt.c ****             MBEDTLS_ASN1_CONSTRUCTED | MBEDTLS_ASN1_SEQUENCE ) ) != 0 )
 975:C:/Users/Yushev/git/wpcqi-optiga-trust-charge/optiga/externals/mbedtls/library\x509_crt.c ****     {
 976:C:/Users/Yushev/git/wpcqi-optiga-trust-charge/optiga/externals/mbedtls/library\x509_crt.c ****         mbedtls_x509_crt_free( crt );
 2600              	 .loc 2 976 0
 2601 02a2 F868     	 ldr r0,[r7,#12]
 2602 02a4 FFF7FEFF 	 bl mbedtls_x509_crt_free
 977:C:/Users/Yushev/git/wpcqi-optiga-trust-charge/optiga/externals/mbedtls/library\x509_crt.c ****         return( MBEDTLS_ERR_X509_INVALID_FORMAT + ret );
 2603              	 .loc 2 977 0
 2604 02a8 7B6C     	 ldr r3,[r7,#68]
 2605 02aa A3F50653 	 sub r3,r3,#8576
 2606 02ae E9E0     	 b .L193
 2607              	.L179:
 978:C:/Users/Yushev/git/wpcqi-optiga-trust-charge/optiga/externals/mbedtls/library\x509_crt.c ****     }
 979:C:/Users/Yushev/git/wpcqi-optiga-trust-charge/optiga/externals/mbedtls/library\x509_crt.c **** 
 980:C:/Users/Yushev/git/wpcqi-optiga-trust-charge/optiga/externals/mbedtls/library\x509_crt.c ****     if( len && ( ret = mbedtls_x509_get_name( &p, p + len, &crt->subject ) ) != 0 )
 2608              	 .loc 2 980 0
 2609 02b0 BB6B     	 ldr r3,[r7,#56]
 2610 02b2 002B     	 cmp r3,#0
 2611 02b4 1ED0     	 beq .L180
 2612              	 .loc 2 980 0 is_stmt 0 discriminator 1
 2613 02b6 7A6B     	 ldr r2,[r7,#52]
 2614 02b8 BB6B     	 ldr r3,[r7,#56]
 2615 02ba 1A44     	 add r2,r2,r3
 2616 02bc FB68     	 ldr r3,[r7,#12]
 2617 02be 6C33     	 adds r3,r3,#108
 2618 02c0 07F13401 	 add r1,r7,#52
 2619 02c4 0846     	 mov r0,r1
 2620 02c6 1146     	 mov r1,r2
 2621 02c8 1A46     	 mov r2,r3
 2622 02ca FFF7FEFF 	 bl mbedtls_x509_get_name
 2623 02ce 7864     	 str r0,[r7,#68]
 2624 02d0 7B6C     	 ldr r3,[r7,#68]
 2625 02d2 002B     	 cmp r3,#0
 2626 02d4 0ED0     	 beq .L180
 981:C:/Users/Yushev/git/wpcqi-optiga-trust-charge/optiga/externals/mbedtls/library\x509_crt.c ****     {
 982:C:/Users/Yushev/git/wpcqi-optiga-trust-charge/optiga/externals/mbedtls/library\x509_crt.c ****         mbedtls_x509_crt_free( crt );
 2627              	 .loc 2 982 0 is_stmt 1
 2628 02d6 F868     	 ldr r0,[r7,#12]
 2629 02d8 FFF7FEFF 	 bl mbedtls_x509_crt_free
 983:C:/Users/Yushev/git/wpcqi-optiga-trust-charge/optiga/externals/mbedtls/library\x509_crt.c ****         return( ret );
 2630              	 .loc 2 983 0
 2631 02dc 7B6C     	 ldr r3,[r7,#68]
 2632 02de D1E0     	 b .L193
 2633              	.L195:
 2634              	 .align 2
 2635              	.L194:
 2636 02e0 00D8FFFF 	 .word -10240
 2637 02e4 80DEFFFF 	 .word -8576
 2638 02e8 1ADEFFFF 	 .word -8678
 2639 02ec 80D7FFFF 	 .word -10368
 2640 02f0 80DAFFFF 	 .word -9600
 2641              	.L180:
 984:C:/Users/Yushev/git/wpcqi-optiga-trust-charge/optiga/externals/mbedtls/library\x509_crt.c ****     }
 985:C:/Users/Yushev/git/wpcqi-optiga-trust-charge/optiga/externals/mbedtls/library\x509_crt.c **** 
 986:C:/Users/Yushev/git/wpcqi-optiga-trust-charge/optiga/externals/mbedtls/library\x509_crt.c ****     crt->subject_raw.len = p - crt->subject_raw.p;
 2642              	 .loc 2 986 0
 2643 02f4 7B6B     	 ldr r3,[r7,#52]
 2644 02f6 1A46     	 mov r2,r3
 2645 02f8 FB68     	 ldr r3,[r7,#12]
 2646 02fa 9B6C     	 ldr r3,[r3,#72]
 2647 02fc D31A     	 subs r3,r2,r3
 2648 02fe 1A46     	 mov r2,r3
 2649 0300 FB68     	 ldr r3,[r7,#12]
 2650 0302 5A64     	 str r2,[r3,#68]
 987:C:/Users/Yushev/git/wpcqi-optiga-trust-charge/optiga/externals/mbedtls/library\x509_crt.c **** 
 988:C:/Users/Yushev/git/wpcqi-optiga-trust-charge/optiga/externals/mbedtls/library\x509_crt.c ****     /*
 989:C:/Users/Yushev/git/wpcqi-optiga-trust-charge/optiga/externals/mbedtls/library\x509_crt.c ****      * SubjectPublicKeyInfo
 990:C:/Users/Yushev/git/wpcqi-optiga-trust-charge/optiga/externals/mbedtls/library\x509_crt.c ****      */
 991:C:/Users/Yushev/git/wpcqi-optiga-trust-charge/optiga/externals/mbedtls/library\x509_crt.c ****     if( ( ret = mbedtls_pk_parse_subpubkey( &p, end, &crt->pk ) ) != 0 )
 2651              	 .loc 2 991 0
 2652 0304 FB68     	 ldr r3,[r7,#12]
 2653 0306 BC33     	 adds r3,r3,#188
 2654 0308 07F13402 	 add r2,r7,#52
 2655 030c 1046     	 mov r0,r2
 2656 030e 396C     	 ldr r1,[r7,#64]
 2657 0310 1A46     	 mov r2,r3
 2658 0312 FFF7FEFF 	 bl mbedtls_pk_parse_subpubkey
 2659 0316 7864     	 str r0,[r7,#68]
 2660 0318 7B6C     	 ldr r3,[r7,#68]
 2661 031a 002B     	 cmp r3,#0
 2662 031c 04D0     	 beq .L181
 992:C:/Users/Yushev/git/wpcqi-optiga-trust-charge/optiga/externals/mbedtls/library\x509_crt.c ****     {
 993:C:/Users/Yushev/git/wpcqi-optiga-trust-charge/optiga/externals/mbedtls/library\x509_crt.c ****         mbedtls_x509_crt_free( crt );
 2663              	 .loc 2 993 0
 2664 031e F868     	 ldr r0,[r7,#12]
 2665 0320 FFF7FEFF 	 bl mbedtls_x509_crt_free
 994:C:/Users/Yushev/git/wpcqi-optiga-trust-charge/optiga/externals/mbedtls/library\x509_crt.c ****         return( ret );
 2666              	 .loc 2 994 0
 2667 0324 7B6C     	 ldr r3,[r7,#68]
 2668 0326 ADE0     	 b .L193
 2669              	.L181:
 995:C:/Users/Yushev/git/wpcqi-optiga-trust-charge/optiga/externals/mbedtls/library\x509_crt.c ****     }
 996:C:/Users/Yushev/git/wpcqi-optiga-trust-charge/optiga/externals/mbedtls/library\x509_crt.c **** 
 997:C:/Users/Yushev/git/wpcqi-optiga-trust-charge/optiga/externals/mbedtls/library\x509_crt.c ****     /*
 998:C:/Users/Yushev/git/wpcqi-optiga-trust-charge/optiga/externals/mbedtls/library\x509_crt.c ****      *  issuerUniqueID  [1]  IMPLICIT UniqueIdentifier OPTIONAL,
 999:C:/Users/Yushev/git/wpcqi-optiga-trust-charge/optiga/externals/mbedtls/library\x509_crt.c ****      *                       -- If present, version shall be v2 or v3
1000:C:/Users/Yushev/git/wpcqi-optiga-trust-charge/optiga/externals/mbedtls/library\x509_crt.c ****      *  subjectUniqueID [2]  IMPLICIT UniqueIdentifier OPTIONAL,
1001:C:/Users/Yushev/git/wpcqi-optiga-trust-charge/optiga/externals/mbedtls/library\x509_crt.c ****      *                       -- If present, version shall be v2 or v3
1002:C:/Users/Yushev/git/wpcqi-optiga-trust-charge/optiga/externals/mbedtls/library\x509_crt.c ****      *  extensions      [3]  EXPLICIT Extensions OPTIONAL
1003:C:/Users/Yushev/git/wpcqi-optiga-trust-charge/optiga/externals/mbedtls/library\x509_crt.c ****      *                       -- If present, version shall be v3
1004:C:/Users/Yushev/git/wpcqi-optiga-trust-charge/optiga/externals/mbedtls/library\x509_crt.c ****      */
1005:C:/Users/Yushev/git/wpcqi-optiga-trust-charge/optiga/externals/mbedtls/library\x509_crt.c ****     if( crt->version == 2 || crt->version == 3 )
 2670              	 .loc 2 1005 0
 2671 0328 FB68     	 ldr r3,[r7,#12]
 2672 032a 9B69     	 ldr r3,[r3,#24]
 2673 032c 022B     	 cmp r3,#2
 2674 032e 03D0     	 beq .L182
 2675              	 .loc 2 1005 0 is_stmt 0 discriminator 1
 2676 0330 FB68     	 ldr r3,[r7,#12]
 2677 0332 9B69     	 ldr r3,[r3,#24]
 2678 0334 032B     	 cmp r3,#3
 2679 0336 12D1     	 bne .L183
 2680              	.L182:
1006:C:/Users/Yushev/git/wpcqi-optiga-trust-charge/optiga/externals/mbedtls/library\x509_crt.c ****     {
1007:C:/Users/Yushev/git/wpcqi-optiga-trust-charge/optiga/externals/mbedtls/library\x509_crt.c ****         ret = x509_get_uid( &p, end, &crt->issuer_id,  1 );
 2681              	 .loc 2 1007 0 is_stmt 1
 2682 0338 FB68     	 ldr r3,[r7,#12]
 2683 033a C433     	 adds r3,r3,#196
 2684 033c 07F13402 	 add r2,r7,#52
 2685 0340 1046     	 mov r0,r2
 2686 0342 396C     	 ldr r1,[r7,#64]
 2687 0344 1A46     	 mov r2,r3
 2688 0346 0123     	 movs r3,#1
 2689 0348 FFF7FEFF 	 bl x509_get_uid
 2690 034c 7864     	 str r0,[r7,#68]
1008:C:/Users/Yushev/git/wpcqi-optiga-trust-charge/optiga/externals/mbedtls/library\x509_crt.c ****         if( ret != 0 )
 2691              	 .loc 2 1008 0
 2692 034e 7B6C     	 ldr r3,[r7,#68]
 2693 0350 002B     	 cmp r3,#0
 2694 0352 04D0     	 beq .L183
1009:C:/Users/Yushev/git/wpcqi-optiga-trust-charge/optiga/externals/mbedtls/library\x509_crt.c ****         {
1010:C:/Users/Yushev/git/wpcqi-optiga-trust-charge/optiga/externals/mbedtls/library\x509_crt.c ****             mbedtls_x509_crt_free( crt );
 2695              	 .loc 2 1010 0
 2696 0354 F868     	 ldr r0,[r7,#12]
 2697 0356 FFF7FEFF 	 bl mbedtls_x509_crt_free
1011:C:/Users/Yushev/git/wpcqi-optiga-trust-charge/optiga/externals/mbedtls/library\x509_crt.c ****             return( ret );
 2698              	 .loc 2 1011 0
 2699 035a 7B6C     	 ldr r3,[r7,#68]
 2700 035c 92E0     	 b .L193
 2701              	.L183:
1012:C:/Users/Yushev/git/wpcqi-optiga-trust-charge/optiga/externals/mbedtls/library\x509_crt.c ****         }
1013:C:/Users/Yushev/git/wpcqi-optiga-trust-charge/optiga/externals/mbedtls/library\x509_crt.c ****     }
1014:C:/Users/Yushev/git/wpcqi-optiga-trust-charge/optiga/externals/mbedtls/library\x509_crt.c **** 
1015:C:/Users/Yushev/git/wpcqi-optiga-trust-charge/optiga/externals/mbedtls/library\x509_crt.c ****     if( crt->version == 2 || crt->version == 3 )
 2702              	 .loc 2 1015 0
 2703 035e FB68     	 ldr r3,[r7,#12]
 2704 0360 9B69     	 ldr r3,[r3,#24]
 2705 0362 022B     	 cmp r3,#2
 2706 0364 03D0     	 beq .L184
 2707              	 .loc 2 1015 0 is_stmt 0 discriminator 1
 2708 0366 FB68     	 ldr r3,[r7,#12]
 2709 0368 9B69     	 ldr r3,[r3,#24]
 2710 036a 032B     	 cmp r3,#3
 2711 036c 12D1     	 bne .L185
 2712              	.L184:
1016:C:/Users/Yushev/git/wpcqi-optiga-trust-charge/optiga/externals/mbedtls/library\x509_crt.c ****     {
1017:C:/Users/Yushev/git/wpcqi-optiga-trust-charge/optiga/externals/mbedtls/library\x509_crt.c ****         ret = x509_get_uid( &p, end, &crt->subject_id,  2 );
 2713              	 .loc 2 1017 0 is_stmt 1
 2714 036e FB68     	 ldr r3,[r7,#12]
 2715 0370 D033     	 adds r3,r3,#208
 2716 0372 07F13402 	 add r2,r7,#52
 2717 0376 1046     	 mov r0,r2
 2718 0378 396C     	 ldr r1,[r7,#64]
 2719 037a 1A46     	 mov r2,r3
 2720 037c 0223     	 movs r3,#2
 2721 037e FFF7FEFF 	 bl x509_get_uid
 2722 0382 7864     	 str r0,[r7,#68]
1018:C:/Users/Yushev/git/wpcqi-optiga-trust-charge/optiga/externals/mbedtls/library\x509_crt.c ****         if( ret != 0 )
 2723              	 .loc 2 1018 0
 2724 0384 7B6C     	 ldr r3,[r7,#68]
 2725 0386 002B     	 cmp r3,#0
 2726 0388 04D0     	 beq .L185
1019:C:/Users/Yushev/git/wpcqi-optiga-trust-charge/optiga/externals/mbedtls/library\x509_crt.c ****         {
1020:C:/Users/Yushev/git/wpcqi-optiga-trust-charge/optiga/externals/mbedtls/library\x509_crt.c ****             mbedtls_x509_crt_free( crt );
 2727              	 .loc 2 1020 0
 2728 038a F868     	 ldr r0,[r7,#12]
 2729 038c FFF7FEFF 	 bl mbedtls_x509_crt_free
1021:C:/Users/Yushev/git/wpcqi-optiga-trust-charge/optiga/externals/mbedtls/library\x509_crt.c ****             return( ret );
 2730              	 .loc 2 1021 0
 2731 0390 7B6C     	 ldr r3,[r7,#68]
 2732 0392 77E0     	 b .L193
 2733              	.L185:
1022:C:/Users/Yushev/git/wpcqi-optiga-trust-charge/optiga/externals/mbedtls/library\x509_crt.c ****         }
1023:C:/Users/Yushev/git/wpcqi-optiga-trust-charge/optiga/externals/mbedtls/library\x509_crt.c ****     }
1024:C:/Users/Yushev/git/wpcqi-optiga-trust-charge/optiga/externals/mbedtls/library\x509_crt.c **** 
1025:C:/Users/Yushev/git/wpcqi-optiga-trust-charge/optiga/externals/mbedtls/library\x509_crt.c **** #if !defined(MBEDTLS_X509_ALLOW_EXTENSIONS_NON_V3)
1026:C:/Users/Yushev/git/wpcqi-optiga-trust-charge/optiga/externals/mbedtls/library\x509_crt.c ****     if( crt->version == 3 )
 2734              	 .loc 2 1026 0
 2735 0394 FB68     	 ldr r3,[r7,#12]
 2736 0396 9B69     	 ldr r3,[r3,#24]
 2737 0398 032B     	 cmp r3,#3
 2738 039a 0FD1     	 bne .L186
1027:C:/Users/Yushev/git/wpcqi-optiga-trust-charge/optiga/externals/mbedtls/library\x509_crt.c **** #endif
1028:C:/Users/Yushev/git/wpcqi-optiga-trust-charge/optiga/externals/mbedtls/library\x509_crt.c ****     {
1029:C:/Users/Yushev/git/wpcqi-optiga-trust-charge/optiga/externals/mbedtls/library\x509_crt.c ****         ret = x509_get_crt_ext( &p, end, crt );
 2739              	 .loc 2 1029 0
 2740 039c 07F13403 	 add r3,r7,#52
 2741 03a0 1846     	 mov r0,r3
 2742 03a2 396C     	 ldr r1,[r7,#64]
 2743 03a4 FA68     	 ldr r2,[r7,#12]
 2744 03a6 FFF7FEFF 	 bl x509_get_crt_ext
 2745 03aa 7864     	 str r0,[r7,#68]
1030:C:/Users/Yushev/git/wpcqi-optiga-trust-charge/optiga/externals/mbedtls/library\x509_crt.c ****         if( ret != 0 )
 2746              	 .loc 2 1030 0
 2747 03ac 7B6C     	 ldr r3,[r7,#68]
 2748 03ae 002B     	 cmp r3,#0
 2749 03b0 04D0     	 beq .L186
1031:C:/Users/Yushev/git/wpcqi-optiga-trust-charge/optiga/externals/mbedtls/library\x509_crt.c ****         {
1032:C:/Users/Yushev/git/wpcqi-optiga-trust-charge/optiga/externals/mbedtls/library\x509_crt.c ****             mbedtls_x509_crt_free( crt );
 2750              	 .loc 2 1032 0
 2751 03b2 F868     	 ldr r0,[r7,#12]
 2752 03b4 FFF7FEFF 	 bl mbedtls_x509_crt_free
1033:C:/Users/Yushev/git/wpcqi-optiga-trust-charge/optiga/externals/mbedtls/library\x509_crt.c ****             return( ret );
 2753              	 .loc 2 1033 0
 2754 03b8 7B6C     	 ldr r3,[r7,#68]
 2755 03ba 63E0     	 b .L193
 2756              	.L186:
1034:C:/Users/Yushev/git/wpcqi-optiga-trust-charge/optiga/externals/mbedtls/library\x509_crt.c ****         }
1035:C:/Users/Yushev/git/wpcqi-optiga-trust-charge/optiga/externals/mbedtls/library\x509_crt.c ****     }
1036:C:/Users/Yushev/git/wpcqi-optiga-trust-charge/optiga/externals/mbedtls/library\x509_crt.c **** 
1037:C:/Users/Yushev/git/wpcqi-optiga-trust-charge/optiga/externals/mbedtls/library\x509_crt.c ****     if( p != end )
 2757              	 .loc 2 1037 0
 2758 03bc 7A6B     	 ldr r2,[r7,#52]
 2759 03be 3B6C     	 ldr r3,[r7,#64]
 2760 03c0 9A42     	 cmp r2,r3
 2761 03c2 04D0     	 beq .L187
1038:C:/Users/Yushev/git/wpcqi-optiga-trust-charge/optiga/externals/mbedtls/library\x509_crt.c ****     {
1039:C:/Users/Yushev/git/wpcqi-optiga-trust-charge/optiga/externals/mbedtls/library\x509_crt.c ****         mbedtls_x509_crt_free( crt );
 2762              	 .loc 2 1039 0
 2763 03c4 F868     	 ldr r0,[r7,#12]
 2764 03c6 FFF7FEFF 	 bl mbedtls_x509_crt_free
1040:C:/Users/Yushev/git/wpcqi-optiga-trust-charge/optiga/externals/mbedtls/library\x509_crt.c ****         return( MBEDTLS_ERR_X509_INVALID_FORMAT +
 2765              	 .loc 2 1040 0
 2766 03ca 304B     	 ldr r3,.L196
 2767 03cc 5AE0     	 b .L193
 2768              	.L187:
1041:C:/Users/Yushev/git/wpcqi-optiga-trust-charge/optiga/externals/mbedtls/library\x509_crt.c ****                 MBEDTLS_ERR_ASN1_LENGTH_MISMATCH );
1042:C:/Users/Yushev/git/wpcqi-optiga-trust-charge/optiga/externals/mbedtls/library\x509_crt.c ****     }
1043:C:/Users/Yushev/git/wpcqi-optiga-trust-charge/optiga/externals/mbedtls/library\x509_crt.c **** 
1044:C:/Users/Yushev/git/wpcqi-optiga-trust-charge/optiga/externals/mbedtls/library\x509_crt.c ****     end = crt_end;
 2769              	 .loc 2 1044 0
 2770 03ce FB6B     	 ldr r3,[r7,#60]
 2771 03d0 3B64     	 str r3,[r7,#64]
1045:C:/Users/Yushev/git/wpcqi-optiga-trust-charge/optiga/externals/mbedtls/library\x509_crt.c **** 
1046:C:/Users/Yushev/git/wpcqi-optiga-trust-charge/optiga/externals/mbedtls/library\x509_crt.c ****     /*
1047:C:/Users/Yushev/git/wpcqi-optiga-trust-charge/optiga/externals/mbedtls/library\x509_crt.c ****      *  }
1048:C:/Users/Yushev/git/wpcqi-optiga-trust-charge/optiga/externals/mbedtls/library\x509_crt.c ****      *  -- end of TBSCertificate
1049:C:/Users/Yushev/git/wpcqi-optiga-trust-charge/optiga/externals/mbedtls/library\x509_crt.c ****      *
1050:C:/Users/Yushev/git/wpcqi-optiga-trust-charge/optiga/externals/mbedtls/library\x509_crt.c ****      *  signatureAlgorithm   AlgorithmIdentifier,
1051:C:/Users/Yushev/git/wpcqi-optiga-trust-charge/optiga/externals/mbedtls/library\x509_crt.c ****      *  signatureValue       BIT STRING
1052:C:/Users/Yushev/git/wpcqi-optiga-trust-charge/optiga/externals/mbedtls/library\x509_crt.c ****      */
1053:C:/Users/Yushev/git/wpcqi-optiga-trust-charge/optiga/externals/mbedtls/library\x509_crt.c ****     if( ( ret = mbedtls_x509_get_alg( &p, end, &sig_oid2, &sig_params2 ) ) != 0 )
 2772              	 .loc 2 1053 0
 2773 03d2 07F13401 	 add r1,r7,#52
 2774 03d6 07F11002 	 add r2,r7,#16
 2775 03da 07F11C03 	 add r3,r7,#28
 2776 03de 0846     	 mov r0,r1
 2777 03e0 396C     	 ldr r1,[r7,#64]
 2778 03e2 FFF7FEFF 	 bl mbedtls_x509_get_alg
 2779 03e6 7864     	 str r0,[r7,#68]
 2780 03e8 7B6C     	 ldr r3,[r7,#68]
 2781 03ea 002B     	 cmp r3,#0
 2782 03ec 04D0     	 beq .L188
1054:C:/Users/Yushev/git/wpcqi-optiga-trust-charge/optiga/externals/mbedtls/library\x509_crt.c ****     {
1055:C:/Users/Yushev/git/wpcqi-optiga-trust-charge/optiga/externals/mbedtls/library\x509_crt.c ****         mbedtls_x509_crt_free( crt );
 2783              	 .loc 2 1055 0
 2784 03ee F868     	 ldr r0,[r7,#12]
 2785 03f0 FFF7FEFF 	 bl mbedtls_x509_crt_free
1056:C:/Users/Yushev/git/wpcqi-optiga-trust-charge/optiga/externals/mbedtls/library\x509_crt.c ****         return( ret );
 2786              	 .loc 2 1056 0
 2787 03f4 7B6C     	 ldr r3,[r7,#68]
 2788 03f6 45E0     	 b .L193
 2789              	.L188:
1057:C:/Users/Yushev/git/wpcqi-optiga-trust-charge/optiga/externals/mbedtls/library\x509_crt.c ****     }
1058:C:/Users/Yushev/git/wpcqi-optiga-trust-charge/optiga/externals/mbedtls/library\x509_crt.c **** 
1059:C:/Users/Yushev/git/wpcqi-optiga-trust-charge/optiga/externals/mbedtls/library\x509_crt.c ****     if( crt->sig_oid.len != sig_oid2.len ||
 2790              	 .loc 2 1059 0
 2791 03f8 FB68     	 ldr r3,[r7,#12]
 2792 03fa DA6A     	 ldr r2,[r3,#44]
 2793 03fc 7B69     	 ldr r3,[r7,#20]
 2794 03fe 9A42     	 cmp r2,r3
 2795 0400 1ED1     	 bne .L189
1060:C:/Users/Yushev/git/wpcqi-optiga-trust-charge/optiga/externals/mbedtls/library\x509_crt.c ****         memcmp( crt->sig_oid.p, sig_oid2.p, crt->sig_oid.len ) != 0 ||
 2796              	 .loc 2 1060 0 discriminator 1
 2797 0402 FB68     	 ldr r3,[r7,#12]
 2798 0404 196B     	 ldr r1,[r3,#48]
 2799 0406 BA69     	 ldr r2,[r7,#24]
 2800 0408 FB68     	 ldr r3,[r7,#12]
 2801 040a DB6A     	 ldr r3,[r3,#44]
 2802 040c 0846     	 mov r0,r1
 2803 040e 1146     	 mov r1,r2
 2804 0410 1A46     	 mov r2,r3
 2805 0412 FFF7FEFF 	 bl memcmp
 2806 0416 0346     	 mov r3,r0
1059:C:/Users/Yushev/git/wpcqi-optiga-trust-charge/optiga/externals/mbedtls/library\x509_crt.c ****         memcmp( crt->sig_oid.p, sig_oid2.p, crt->sig_oid.len ) != 0 ||
 2807              	 .loc 2 1059 0 discriminator 1
 2808 0418 002B     	 cmp r3,#0
 2809 041a 11D1     	 bne .L189
1061:C:/Users/Yushev/git/wpcqi-optiga-trust-charge/optiga/externals/mbedtls/library\x509_crt.c ****         sig_params1.len != sig_params2.len ||
 2810              	 .loc 2 1061 0
 2811 041c FA6A     	 ldr r2,[r7,#44]
 2812 041e 3B6A     	 ldr r3,[r7,#32]
1060:C:/Users/Yushev/git/wpcqi-optiga-trust-charge/optiga/externals/mbedtls/library\x509_crt.c ****         memcmp( crt->sig_oid.p, sig_oid2.p, crt->sig_oid.len ) != 0 ||
 2813              	 .loc 2 1060 0
 2814 0420 9A42     	 cmp r2,r3
 2815 0422 0DD1     	 bne .L189
1062:C:/Users/Yushev/git/wpcqi-optiga-trust-charge/optiga/externals/mbedtls/library\x509_crt.c ****         ( sig_params1.len != 0 &&
 2816              	 .loc 2 1062 0
 2817 0424 FB6A     	 ldr r3,[r7,#44]
1061:C:/Users/Yushev/git/wpcqi-optiga-trust-charge/optiga/externals/mbedtls/library\x509_crt.c ****         sig_params1.len != sig_params2.len ||
 2818              	 .loc 2 1061 0
 2819 0426 002B     	 cmp r3,#0
 2820 0428 0FD0     	 beq .L190
1063:C:/Users/Yushev/git/wpcqi-optiga-trust-charge/optiga/externals/mbedtls/library\x509_crt.c ****           memcmp( sig_params1.p, sig_params2.p, sig_params1.len ) != 0 ) )
 2821              	 .loc 2 1063 0
 2822 042a 396B     	 ldr r1,[r7,#48]
 2823 042c 7A6A     	 ldr r2,[r7,#36]
 2824 042e FB6A     	 ldr r3,[r7,#44]
 2825 0430 0846     	 mov r0,r1
 2826 0432 1146     	 mov r1,r2
 2827 0434 1A46     	 mov r2,r3
 2828 0436 FFF7FEFF 	 bl memcmp
 2829 043a 0346     	 mov r3,r0
1062:C:/Users/Yushev/git/wpcqi-optiga-trust-charge/optiga/externals/mbedtls/library\x509_crt.c ****         ( sig_params1.len != 0 &&
 2830              	 .loc 2 1062 0
 2831 043c 002B     	 cmp r3,#0
 2832 043e 04D0     	 beq .L190
 2833              	.L189:
1064:C:/Users/Yushev/git/wpcqi-optiga-trust-charge/optiga/externals/mbedtls/library\x509_crt.c ****     {
1065:C:/Users/Yushev/git/wpcqi-optiga-trust-charge/optiga/externals/mbedtls/library\x509_crt.c ****         mbedtls_x509_crt_free( crt );
 2834              	 .loc 2 1065 0
 2835 0440 F868     	 ldr r0,[r7,#12]
 2836 0442 FFF7FEFF 	 bl mbedtls_x509_crt_free
1066:C:/Users/Yushev/git/wpcqi-optiga-trust-charge/optiga/externals/mbedtls/library\x509_crt.c ****         return( MBEDTLS_ERR_X509_SIG_MISMATCH );
 2837              	 .loc 2 1066 0
 2838 0446 124B     	 ldr r3,.L196+4
 2839 0448 1CE0     	 b .L193
 2840              	.L190:
1067:C:/Users/Yushev/git/wpcqi-optiga-trust-charge/optiga/externals/mbedtls/library\x509_crt.c ****     }
1068:C:/Users/Yushev/git/wpcqi-optiga-trust-charge/optiga/externals/mbedtls/library\x509_crt.c **** 
1069:C:/Users/Yushev/git/wpcqi-optiga-trust-charge/optiga/externals/mbedtls/library\x509_crt.c ****     if( ( ret = mbedtls_x509_get_sig( &p, end, &crt->sig ) ) != 0 )
 2841              	 .loc 2 1069 0
 2842 044a FB68     	 ldr r3,[r7,#12]
 2843 044c 03F58E73 	 add r3,r3,#284
 2844 0450 07F13402 	 add r2,r7,#52
 2845 0454 1046     	 mov r0,r2
 2846 0456 396C     	 ldr r1,[r7,#64]
 2847 0458 1A46     	 mov r2,r3
 2848 045a FFF7FEFF 	 bl mbedtls_x509_get_sig
 2849 045e 7864     	 str r0,[r7,#68]
 2850 0460 7B6C     	 ldr r3,[r7,#68]
 2851 0462 002B     	 cmp r3,#0
 2852 0464 04D0     	 beq .L191
1070:C:/Users/Yushev/git/wpcqi-optiga-trust-charge/optiga/externals/mbedtls/library\x509_crt.c ****     {
1071:C:/Users/Yushev/git/wpcqi-optiga-trust-charge/optiga/externals/mbedtls/library\x509_crt.c ****         mbedtls_x509_crt_free( crt );
 2853              	 .loc 2 1071 0
 2854 0466 F868     	 ldr r0,[r7,#12]
 2855 0468 FFF7FEFF 	 bl mbedtls_x509_crt_free
1072:C:/Users/Yushev/git/wpcqi-optiga-trust-charge/optiga/externals/mbedtls/library\x509_crt.c ****         return( ret );
 2856              	 .loc 2 1072 0
 2857 046c 7B6C     	 ldr r3,[r7,#68]
 2858 046e 09E0     	 b .L193
 2859              	.L191:
1073:C:/Users/Yushev/git/wpcqi-optiga-trust-charge/optiga/externals/mbedtls/library\x509_crt.c ****     }
1074:C:/Users/Yushev/git/wpcqi-optiga-trust-charge/optiga/externals/mbedtls/library\x509_crt.c **** 
1075:C:/Users/Yushev/git/wpcqi-optiga-trust-charge/optiga/externals/mbedtls/library\x509_crt.c ****     if( p != end )
 2860              	 .loc 2 1075 0
 2861 0470 7A6B     	 ldr r2,[r7,#52]
 2862 0472 3B6C     	 ldr r3,[r7,#64]
 2863 0474 9A42     	 cmp r2,r3
 2864 0476 04D0     	 beq .L192
1076:C:/Users/Yushev/git/wpcqi-optiga-trust-charge/optiga/externals/mbedtls/library\x509_crt.c ****     {
1077:C:/Users/Yushev/git/wpcqi-optiga-trust-charge/optiga/externals/mbedtls/library\x509_crt.c ****         mbedtls_x509_crt_free( crt );
 2865              	 .loc 2 1077 0
 2866 0478 F868     	 ldr r0,[r7,#12]
 2867 047a FFF7FEFF 	 bl mbedtls_x509_crt_free
1078:C:/Users/Yushev/git/wpcqi-optiga-trust-charge/optiga/externals/mbedtls/library\x509_crt.c ****         return( MBEDTLS_ERR_X509_INVALID_FORMAT +
 2868              	 .loc 2 1078 0
 2869 047e 034B     	 ldr r3,.L196
 2870 0480 00E0     	 b .L193
 2871              	.L192:
1079:C:/Users/Yushev/git/wpcqi-optiga-trust-charge/optiga/externals/mbedtls/library\x509_crt.c ****                 MBEDTLS_ERR_ASN1_LENGTH_MISMATCH );
1080:C:/Users/Yushev/git/wpcqi-optiga-trust-charge/optiga/externals/mbedtls/library\x509_crt.c ****     }
1081:C:/Users/Yushev/git/wpcqi-optiga-trust-charge/optiga/externals/mbedtls/library\x509_crt.c **** 
1082:C:/Users/Yushev/git/wpcqi-optiga-trust-charge/optiga/externals/mbedtls/library\x509_crt.c ****     return( 0 );
 2872              	 .loc 2 1082 0
 2873 0482 0023     	 movs r3,#0
 2874              	.L193:
1083:C:/Users/Yushev/git/wpcqi-optiga-trust-charge/optiga/externals/mbedtls/library\x509_crt.c **** }
 2875              	 .loc 2 1083 0 discriminator 1
 2876 0484 1846     	 mov r0,r3
 2877 0486 4C37     	 adds r7,r7,#76
 2878              	.LCFI98:
 2879              	 .cfi_def_cfa_offset 12
 2880 0488 BD46     	 mov sp,r7
 2881              	.LCFI99:
 2882              	 .cfi_def_cfa_register 13
 2883              	 
 2884 048a 90BD     	 pop {r4,r7,pc}
 2885              	.L197:
 2886              	 .align 2
 2887              	.L196:
 2888 048c 1ADEFFFF 	 .word -8678
 2889 0490 80D9FFFF 	 .word -9856
 2890              	 .cfi_endproc
 2891              	.LFE26:
 2893              	 .section .text.mbedtls_x509_crt_parse_der,"ax",%progbits
 2894              	 .align 2
 2895              	 .global mbedtls_x509_crt_parse_der
 2896              	 .thumb
 2897              	 .thumb_func
 2899              	mbedtls_x509_crt_parse_der:
 2900              	.LFB27:
1084:C:/Users/Yushev/git/wpcqi-optiga-trust-charge/optiga/externals/mbedtls/library\x509_crt.c **** 
1085:C:/Users/Yushev/git/wpcqi-optiga-trust-charge/optiga/externals/mbedtls/library\x509_crt.c **** /*
1086:C:/Users/Yushev/git/wpcqi-optiga-trust-charge/optiga/externals/mbedtls/library\x509_crt.c ****  * Parse one X.509 certificate in DER format from a buffer and add them to a
1087:C:/Users/Yushev/git/wpcqi-optiga-trust-charge/optiga/externals/mbedtls/library\x509_crt.c ****  * chained list
1088:C:/Users/Yushev/git/wpcqi-optiga-trust-charge/optiga/externals/mbedtls/library\x509_crt.c ****  */
1089:C:/Users/Yushev/git/wpcqi-optiga-trust-charge/optiga/externals/mbedtls/library\x509_crt.c **** int mbedtls_x509_crt_parse_der( mbedtls_x509_crt *chain, const unsigned char *buf,
1090:C:/Users/Yushev/git/wpcqi-optiga-trust-charge/optiga/externals/mbedtls/library\x509_crt.c ****                         size_t buflen )
1091:C:/Users/Yushev/git/wpcqi-optiga-trust-charge/optiga/externals/mbedtls/library\x509_crt.c **** {
 2901              	 .loc 2 1091 0
 2902              	 .cfi_startproc
 2903              	 
 2904              	 
 2905 0000 80B5     	 push {r7,lr}
 2906              	.LCFI100:
 2907              	 .cfi_def_cfa_offset 8
 2908              	 .cfi_offset 7,-8
 2909              	 .cfi_offset 14,-4
 2910 0002 88B0     	 sub sp,sp,#32
 2911              	.LCFI101:
 2912              	 .cfi_def_cfa_offset 40
 2913 0004 00AF     	 add r7,sp,#0
 2914              	.LCFI102:
 2915              	 .cfi_def_cfa_register 7
 2916 0006 F860     	 str r0,[r7,#12]
 2917 0008 B960     	 str r1,[r7,#8]
 2918 000a 7A60     	 str r2,[r7,#4]
1092:C:/Users/Yushev/git/wpcqi-optiga-trust-charge/optiga/externals/mbedtls/library\x509_crt.c ****     int ret;
1093:C:/Users/Yushev/git/wpcqi-optiga-trust-charge/optiga/externals/mbedtls/library\x509_crt.c ****     mbedtls_x509_crt *crt = chain, *prev = NULL;
 2919              	 .loc 2 1093 0
 2920 000c FB68     	 ldr r3,[r7,#12]
 2921 000e FB61     	 str r3,[r7,#28]
 2922 0010 0023     	 movs r3,#0
 2923 0012 BB61     	 str r3,[r7,#24]
1094:C:/Users/Yushev/git/wpcqi-optiga-trust-charge/optiga/externals/mbedtls/library\x509_crt.c **** 
1095:C:/Users/Yushev/git/wpcqi-optiga-trust-charge/optiga/externals/mbedtls/library\x509_crt.c ****     /*
1096:C:/Users/Yushev/git/wpcqi-optiga-trust-charge/optiga/externals/mbedtls/library\x509_crt.c ****      * Check for valid input
1097:C:/Users/Yushev/git/wpcqi-optiga-trust-charge/optiga/externals/mbedtls/library\x509_crt.c ****      */
1098:C:/Users/Yushev/git/wpcqi-optiga-trust-charge/optiga/externals/mbedtls/library\x509_crt.c ****     if( crt == NULL || buf == NULL )
 2924              	 .loc 2 1098 0
 2925 0014 FB69     	 ldr r3,[r7,#28]
 2926 0016 002B     	 cmp r3,#0
 2927 0018 02D0     	 beq .L199
 2928              	 .loc 2 1098 0 is_stmt 0 discriminator 1
 2929 001a BB68     	 ldr r3,[r7,#8]
 2930 001c 002B     	 cmp r3,#0
 2931 001e 01D1     	 bne .L200
 2932              	.L199:
1099:C:/Users/Yushev/git/wpcqi-optiga-trust-charge/optiga/externals/mbedtls/library\x509_crt.c ****         return( MBEDTLS_ERR_X509_BAD_INPUT_DATA );
 2933              	 .loc 2 1099 0 is_stmt 1
 2934 0020 2A4B     	 ldr r3,.L210
 2935 0022 4FE0     	 b .L201
 2936              	.L200:
1100:C:/Users/Yushev/git/wpcqi-optiga-trust-charge/optiga/externals/mbedtls/library\x509_crt.c **** 
1101:C:/Users/Yushev/git/wpcqi-optiga-trust-charge/optiga/externals/mbedtls/library\x509_crt.c ****     while( crt->version != 0 && crt->next != NULL )
 2937              	 .loc 2 1101 0
 2938 0024 05E0     	 b .L202
 2939              	.L204:
1102:C:/Users/Yushev/git/wpcqi-optiga-trust-charge/optiga/externals/mbedtls/library\x509_crt.c ****     {
1103:C:/Users/Yushev/git/wpcqi-optiga-trust-charge/optiga/externals/mbedtls/library\x509_crt.c ****         prev = crt;
 2940              	 .loc 2 1103 0
 2941 0026 FB69     	 ldr r3,[r7,#28]
 2942 0028 BB61     	 str r3,[r7,#24]
1104:C:/Users/Yushev/git/wpcqi-optiga-trust-charge/optiga/externals/mbedtls/library\x509_crt.c ****         crt = crt->next;
 2943              	 .loc 2 1104 0
 2944 002a FB69     	 ldr r3,[r7,#28]
 2945 002c D3F83031 	 ldr r3,[r3,#304]
 2946 0030 FB61     	 str r3,[r7,#28]
 2947              	.L202:
1101:C:/Users/Yushev/git/wpcqi-optiga-trust-charge/optiga/externals/mbedtls/library\x509_crt.c ****     {
 2948              	 .loc 2 1101 0
 2949 0032 FB69     	 ldr r3,[r7,#28]
 2950 0034 9B69     	 ldr r3,[r3,#24]
 2951 0036 002B     	 cmp r3,#0
 2952 0038 04D0     	 beq .L203
1101:C:/Users/Yushev/git/wpcqi-optiga-trust-charge/optiga/externals/mbedtls/library\x509_crt.c ****     {
 2953              	 .loc 2 1101 0 is_stmt 0 discriminator 1
 2954 003a FB69     	 ldr r3,[r7,#28]
 2955 003c D3F83031 	 ldr r3,[r3,#304]
 2956 0040 002B     	 cmp r3,#0
 2957 0042 F0D1     	 bne .L204
 2958              	.L203:
1105:C:/Users/Yushev/git/wpcqi-optiga-trust-charge/optiga/externals/mbedtls/library\x509_crt.c ****     }
1106:C:/Users/Yushev/git/wpcqi-optiga-trust-charge/optiga/externals/mbedtls/library\x509_crt.c **** 
1107:C:/Users/Yushev/git/wpcqi-optiga-trust-charge/optiga/externals/mbedtls/library\x509_crt.c ****     /*
1108:C:/Users/Yushev/git/wpcqi-optiga-trust-charge/optiga/externals/mbedtls/library\x509_crt.c ****      * Add new certificate on the end of the chain if needed.
1109:C:/Users/Yushev/git/wpcqi-optiga-trust-charge/optiga/externals/mbedtls/library\x509_crt.c ****      */
1110:C:/Users/Yushev/git/wpcqi-optiga-trust-charge/optiga/externals/mbedtls/library\x509_crt.c ****     if( crt->version != 0 && crt->next == NULL )
 2959              	 .loc 2 1110 0 is_stmt 1
 2960 0044 FB69     	 ldr r3,[r7,#28]
 2961 0046 9B69     	 ldr r3,[r3,#24]
 2962 0048 002B     	 cmp r3,#0
 2963 004a 21D0     	 beq .L205
 2964              	 .loc 2 1110 0 is_stmt 0 discriminator 1
 2965 004c FB69     	 ldr r3,[r7,#28]
 2966 004e D3F83031 	 ldr r3,[r3,#304]
 2967 0052 002B     	 cmp r3,#0
 2968 0054 1CD1     	 bne .L205
1111:C:/Users/Yushev/git/wpcqi-optiga-trust-charge/optiga/externals/mbedtls/library\x509_crt.c ****     {
1112:C:/Users/Yushev/git/wpcqi-optiga-trust-charge/optiga/externals/mbedtls/library\x509_crt.c ****         crt->next = mbedtls_calloc( 1, sizeof( mbedtls_x509_crt ) );
 2969              	 .loc 2 1112 0 is_stmt 1
 2970 0056 0120     	 movs r0,#1
 2971 0058 4FF49A71 	 mov r1,#308
 2972 005c FFF7FEFF 	 bl calloc
 2973 0060 0346     	 mov r3,r0
 2974 0062 1A46     	 mov r2,r3
 2975 0064 FB69     	 ldr r3,[r7,#28]
 2976 0066 C3F83021 	 str r2,[r3,#304]
1113:C:/Users/Yushev/git/wpcqi-optiga-trust-charge/optiga/externals/mbedtls/library\x509_crt.c **** 
1114:C:/Users/Yushev/git/wpcqi-optiga-trust-charge/optiga/externals/mbedtls/library\x509_crt.c ****         if( crt->next == NULL )
 2977              	 .loc 2 1114 0
 2978 006a FB69     	 ldr r3,[r7,#28]
 2979 006c D3F83031 	 ldr r3,[r3,#304]
 2980 0070 002B     	 cmp r3,#0
 2981 0072 01D1     	 bne .L206
1115:C:/Users/Yushev/git/wpcqi-optiga-trust-charge/optiga/externals/mbedtls/library\x509_crt.c ****             return( MBEDTLS_ERR_X509_ALLOC_FAILED );
 2982              	 .loc 2 1115 0
 2983 0074 164B     	 ldr r3,.L210+4
 2984 0076 25E0     	 b .L201
 2985              	.L206:
1116:C:/Users/Yushev/git/wpcqi-optiga-trust-charge/optiga/externals/mbedtls/library\x509_crt.c **** 
1117:C:/Users/Yushev/git/wpcqi-optiga-trust-charge/optiga/externals/mbedtls/library\x509_crt.c ****         prev = crt;
 2986              	 .loc 2 1117 0
 2987 0078 FB69     	 ldr r3,[r7,#28]
 2988 007a BB61     	 str r3,[r7,#24]
1118:C:/Users/Yushev/git/wpcqi-optiga-trust-charge/optiga/externals/mbedtls/library\x509_crt.c ****         mbedtls_x509_crt_init( crt->next );
 2989              	 .loc 2 1118 0
 2990 007c FB69     	 ldr r3,[r7,#28]
 2991 007e D3F83031 	 ldr r3,[r3,#304]
 2992 0082 1846     	 mov r0,r3
 2993 0084 FFF7FEFF 	 bl mbedtls_x509_crt_init
1119:C:/Users/Yushev/git/wpcqi-optiga-trust-charge/optiga/externals/mbedtls/library\x509_crt.c ****         crt = crt->next;
 2994              	 .loc 2 1119 0
 2995 0088 FB69     	 ldr r3,[r7,#28]
 2996 008a D3F83031 	 ldr r3,[r3,#304]
 2997 008e FB61     	 str r3,[r7,#28]
 2998              	.L205:
1120:C:/Users/Yushev/git/wpcqi-optiga-trust-charge/optiga/externals/mbedtls/library\x509_crt.c ****     }
1121:C:/Users/Yushev/git/wpcqi-optiga-trust-charge/optiga/externals/mbedtls/library\x509_crt.c **** 
1122:C:/Users/Yushev/git/wpcqi-optiga-trust-charge/optiga/externals/mbedtls/library\x509_crt.c ****     if( ( ret = x509_crt_parse_der_core( crt, buf, buflen ) ) != 0 )
 2999              	 .loc 2 1122 0
 3000 0090 F869     	 ldr r0,[r7,#28]
 3001 0092 B968     	 ldr r1,[r7,#8]
 3002 0094 7A68     	 ldr r2,[r7,#4]
 3003 0096 FFF7FEFF 	 bl x509_crt_parse_der_core
 3004 009a 7861     	 str r0,[r7,#20]
 3005 009c 7B69     	 ldr r3,[r7,#20]
 3006 009e 002B     	 cmp r3,#0
 3007 00a0 0FD0     	 beq .L207
1123:C:/Users/Yushev/git/wpcqi-optiga-trust-charge/optiga/externals/mbedtls/library\x509_crt.c ****     {
1124:C:/Users/Yushev/git/wpcqi-optiga-trust-charge/optiga/externals/mbedtls/library\x509_crt.c ****         if( prev )
 3008              	 .loc 2 1124 0
 3009 00a2 BB69     	 ldr r3,[r7,#24]
 3010 00a4 002B     	 cmp r3,#0
 3011 00a6 03D0     	 beq .L208
1125:C:/Users/Yushev/git/wpcqi-optiga-trust-charge/optiga/externals/mbedtls/library\x509_crt.c ****             prev->next = NULL;
 3012              	 .loc 2 1125 0
 3013 00a8 BB69     	 ldr r3,[r7,#24]
 3014 00aa 0022     	 movs r2,#0
 3015 00ac C3F83021 	 str r2,[r3,#304]
 3016              	.L208:
1126:C:/Users/Yushev/git/wpcqi-optiga-trust-charge/optiga/externals/mbedtls/library\x509_crt.c **** 
1127:C:/Users/Yushev/git/wpcqi-optiga-trust-charge/optiga/externals/mbedtls/library\x509_crt.c ****         if( crt != chain )
 3017              	 .loc 2 1127 0
 3018 00b0 FA69     	 ldr r2,[r7,#28]
 3019 00b2 FB68     	 ldr r3,[r7,#12]
 3020 00b4 9A42     	 cmp r2,r3
 3021 00b6 02D0     	 beq .L209
1128:C:/Users/Yushev/git/wpcqi-optiga-trust-charge/optiga/externals/mbedtls/library\x509_crt.c ****             mbedtls_free( crt );
 3022              	 .loc 2 1128 0
 3023 00b8 F869     	 ldr r0,[r7,#28]
 3024 00ba FFF7FEFF 	 bl free
 3025              	.L209:
1129:C:/Users/Yushev/git/wpcqi-optiga-trust-charge/optiga/externals/mbedtls/library\x509_crt.c **** 
1130:C:/Users/Yushev/git/wpcqi-optiga-trust-charge/optiga/externals/mbedtls/library\x509_crt.c ****         return( ret );
 3026              	 .loc 2 1130 0
 3027 00be 7B69     	 ldr r3,[r7,#20]
 3028 00c0 00E0     	 b .L201
 3029              	.L207:
1131:C:/Users/Yushev/git/wpcqi-optiga-trust-charge/optiga/externals/mbedtls/library\x509_crt.c ****     }
1132:C:/Users/Yushev/git/wpcqi-optiga-trust-charge/optiga/externals/mbedtls/library\x509_crt.c **** 
1133:C:/Users/Yushev/git/wpcqi-optiga-trust-charge/optiga/externals/mbedtls/library\x509_crt.c ****     return( 0 );
 3030              	 .loc 2 1133 0
 3031 00c2 0023     	 movs r3,#0
 3032              	.L201:
1134:C:/Users/Yushev/git/wpcqi-optiga-trust-charge/optiga/externals/mbedtls/library\x509_crt.c **** }
 3033              	 .loc 2 1134 0
 3034 00c4 1846     	 mov r0,r3
 3035 00c6 2037     	 adds r7,r7,#32
 3036              	.LCFI103:
 3037              	 .cfi_def_cfa_offset 8
 3038 00c8 BD46     	 mov sp,r7
 3039              	.LCFI104:
 3040              	 .cfi_def_cfa_register 13
 3041              	 
 3042 00ca 80BD     	 pop {r7,pc}
 3043              	.L211:
 3044              	 .align 2
 3045              	.L210:
 3046 00cc 00D8FFFF 	 .word -10240
 3047 00d0 80D7FFFF 	 .word -10368
 3048              	 .cfi_endproc
 3049              	.LFE27:
 3051              	 .section .text.mbedtls_x509_crt_parse,"ax",%progbits
 3052              	 .align 2
 3053              	 .global mbedtls_x509_crt_parse
 3054              	 .thumb
 3055              	 .thumb_func
 3057              	mbedtls_x509_crt_parse:
 3058              	.LFB28:
1135:C:/Users/Yushev/git/wpcqi-optiga-trust-charge/optiga/externals/mbedtls/library\x509_crt.c **** 
1136:C:/Users/Yushev/git/wpcqi-optiga-trust-charge/optiga/externals/mbedtls/library\x509_crt.c **** /*
1137:C:/Users/Yushev/git/wpcqi-optiga-trust-charge/optiga/externals/mbedtls/library\x509_crt.c ****  * Parse one or more PEM certificates from a buffer and add them to the chained
1138:C:/Users/Yushev/git/wpcqi-optiga-trust-charge/optiga/externals/mbedtls/library\x509_crt.c ****  * list
1139:C:/Users/Yushev/git/wpcqi-optiga-trust-charge/optiga/externals/mbedtls/library\x509_crt.c ****  */
1140:C:/Users/Yushev/git/wpcqi-optiga-trust-charge/optiga/externals/mbedtls/library\x509_crt.c **** int mbedtls_x509_crt_parse( mbedtls_x509_crt *chain, const unsigned char *buf, size_t buflen )
1141:C:/Users/Yushev/git/wpcqi-optiga-trust-charge/optiga/externals/mbedtls/library\x509_crt.c **** {
 3059              	 .loc 2 1141 0
 3060              	 .cfi_startproc
 3061              	 
 3062              	 
 3063 0000 80B5     	 push {r7,lr}
 3064              	.LCFI105:
 3065              	 .cfi_def_cfa_offset 8
 3066              	 .cfi_offset 7,-8
 3067              	 .cfi_offset 14,-4
 3068 0002 84B0     	 sub sp,sp,#16
 3069              	.LCFI106:
 3070              	 .cfi_def_cfa_offset 24
 3071 0004 00AF     	 add r7,sp,#0
 3072              	.LCFI107:
 3073              	 .cfi_def_cfa_register 7
 3074 0006 F860     	 str r0,[r7,#12]
 3075 0008 B960     	 str r1,[r7,#8]
 3076 000a 7A60     	 str r2,[r7,#4]
1142:C:/Users/Yushev/git/wpcqi-optiga-trust-charge/optiga/externals/mbedtls/library\x509_crt.c **** #if defined(MBEDTLS_PEM_PARSE_C)
1143:C:/Users/Yushev/git/wpcqi-optiga-trust-charge/optiga/externals/mbedtls/library\x509_crt.c ****     int success = 0, first_error = 0, total_failed = 0;
1144:C:/Users/Yushev/git/wpcqi-optiga-trust-charge/optiga/externals/mbedtls/library\x509_crt.c ****     int buf_format = MBEDTLS_X509_FORMAT_DER;
1145:C:/Users/Yushev/git/wpcqi-optiga-trust-charge/optiga/externals/mbedtls/library\x509_crt.c **** #endif
1146:C:/Users/Yushev/git/wpcqi-optiga-trust-charge/optiga/externals/mbedtls/library\x509_crt.c **** 
1147:C:/Users/Yushev/git/wpcqi-optiga-trust-charge/optiga/externals/mbedtls/library\x509_crt.c ****     /*
1148:C:/Users/Yushev/git/wpcqi-optiga-trust-charge/optiga/externals/mbedtls/library\x509_crt.c ****      * Check for valid input
1149:C:/Users/Yushev/git/wpcqi-optiga-trust-charge/optiga/externals/mbedtls/library\x509_crt.c ****      */
1150:C:/Users/Yushev/git/wpcqi-optiga-trust-charge/optiga/externals/mbedtls/library\x509_crt.c ****     if( chain == NULL || buf == NULL )
 3077              	 .loc 2 1150 0
 3078 000c FB68     	 ldr r3,[r7,#12]
 3079 000e 002B     	 cmp r3,#0
 3080 0010 02D0     	 beq .L213
 3081              	 .loc 2 1150 0 is_stmt 0 discriminator 1
 3082 0012 BB68     	 ldr r3,[r7,#8]
 3083 0014 002B     	 cmp r3,#0
 3084 0016 01D1     	 bne .L214
 3085              	.L213:
1151:C:/Users/Yushev/git/wpcqi-optiga-trust-charge/optiga/externals/mbedtls/library\x509_crt.c ****         return( MBEDTLS_ERR_X509_BAD_INPUT_DATA );
 3086              	 .loc 2 1151 0 is_stmt 1
 3087 0018 054B     	 ldr r3,.L216
 3088 001a 05E0     	 b .L215
 3089              	.L214:
1152:C:/Users/Yushev/git/wpcqi-optiga-trust-charge/optiga/externals/mbedtls/library\x509_crt.c **** 
1153:C:/Users/Yushev/git/wpcqi-optiga-trust-charge/optiga/externals/mbedtls/library\x509_crt.c ****     /*
1154:C:/Users/Yushev/git/wpcqi-optiga-trust-charge/optiga/externals/mbedtls/library\x509_crt.c ****      * Determine buffer content. Buffer contains either one DER certificate or
1155:C:/Users/Yushev/git/wpcqi-optiga-trust-charge/optiga/externals/mbedtls/library\x509_crt.c ****      * one or more PEM certificates.
1156:C:/Users/Yushev/git/wpcqi-optiga-trust-charge/optiga/externals/mbedtls/library\x509_crt.c ****      */
1157:C:/Users/Yushev/git/wpcqi-optiga-trust-charge/optiga/externals/mbedtls/library\x509_crt.c **** #if defined(MBEDTLS_PEM_PARSE_C)
1158:C:/Users/Yushev/git/wpcqi-optiga-trust-charge/optiga/externals/mbedtls/library\x509_crt.c ****     if( buflen != 0 && buf[buflen - 1] == '\0' &&
1159:C:/Users/Yushev/git/wpcqi-optiga-trust-charge/optiga/externals/mbedtls/library\x509_crt.c ****         strstr( (const char *) buf, "-----BEGIN CERTIFICATE-----" ) != NULL )
1160:C:/Users/Yushev/git/wpcqi-optiga-trust-charge/optiga/externals/mbedtls/library\x509_crt.c ****     {
1161:C:/Users/Yushev/git/wpcqi-optiga-trust-charge/optiga/externals/mbedtls/library\x509_crt.c ****         buf_format = MBEDTLS_X509_FORMAT_PEM;
1162:C:/Users/Yushev/git/wpcqi-optiga-trust-charge/optiga/externals/mbedtls/library\x509_crt.c ****     }
1163:C:/Users/Yushev/git/wpcqi-optiga-trust-charge/optiga/externals/mbedtls/library\x509_crt.c **** 
1164:C:/Users/Yushev/git/wpcqi-optiga-trust-charge/optiga/externals/mbedtls/library\x509_crt.c ****     if( buf_format == MBEDTLS_X509_FORMAT_DER )
1165:C:/Users/Yushev/git/wpcqi-optiga-trust-charge/optiga/externals/mbedtls/library\x509_crt.c ****         return mbedtls_x509_crt_parse_der( chain, buf, buflen );
1166:C:/Users/Yushev/git/wpcqi-optiga-trust-charge/optiga/externals/mbedtls/library\x509_crt.c **** #else
1167:C:/Users/Yushev/git/wpcqi-optiga-trust-charge/optiga/externals/mbedtls/library\x509_crt.c ****     return mbedtls_x509_crt_parse_der( chain, buf, buflen );
 3090              	 .loc 2 1167 0
 3091 001c F868     	 ldr r0,[r7,#12]
 3092 001e B968     	 ldr r1,[r7,#8]
 3093 0020 7A68     	 ldr r2,[r7,#4]
 3094 0022 FFF7FEFF 	 bl mbedtls_x509_crt_parse_der
 3095 0026 0346     	 mov r3,r0
 3096              	.L215:
1168:C:/Users/Yushev/git/wpcqi-optiga-trust-charge/optiga/externals/mbedtls/library\x509_crt.c **** #endif
1169:C:/Users/Yushev/git/wpcqi-optiga-trust-charge/optiga/externals/mbedtls/library\x509_crt.c **** 
1170:C:/Users/Yushev/git/wpcqi-optiga-trust-charge/optiga/externals/mbedtls/library\x509_crt.c **** #if defined(MBEDTLS_PEM_PARSE_C)
1171:C:/Users/Yushev/git/wpcqi-optiga-trust-charge/optiga/externals/mbedtls/library\x509_crt.c ****     if( buf_format == MBEDTLS_X509_FORMAT_PEM )
1172:C:/Users/Yushev/git/wpcqi-optiga-trust-charge/optiga/externals/mbedtls/library\x509_crt.c ****     {
1173:C:/Users/Yushev/git/wpcqi-optiga-trust-charge/optiga/externals/mbedtls/library\x509_crt.c ****         int ret;
1174:C:/Users/Yushev/git/wpcqi-optiga-trust-charge/optiga/externals/mbedtls/library\x509_crt.c ****         mbedtls_pem_context pem;
1175:C:/Users/Yushev/git/wpcqi-optiga-trust-charge/optiga/externals/mbedtls/library\x509_crt.c **** 
1176:C:/Users/Yushev/git/wpcqi-optiga-trust-charge/optiga/externals/mbedtls/library\x509_crt.c ****         /* 1 rather than 0 since the terminating NULL byte is counted in */
1177:C:/Users/Yushev/git/wpcqi-optiga-trust-charge/optiga/externals/mbedtls/library\x509_crt.c ****         while( buflen > 1 )
1178:C:/Users/Yushev/git/wpcqi-optiga-trust-charge/optiga/externals/mbedtls/library\x509_crt.c ****         {
1179:C:/Users/Yushev/git/wpcqi-optiga-trust-charge/optiga/externals/mbedtls/library\x509_crt.c ****             size_t use_len;
1180:C:/Users/Yushev/git/wpcqi-optiga-trust-charge/optiga/externals/mbedtls/library\x509_crt.c ****             mbedtls_pem_init( &pem );
1181:C:/Users/Yushev/git/wpcqi-optiga-trust-charge/optiga/externals/mbedtls/library\x509_crt.c **** 
1182:C:/Users/Yushev/git/wpcqi-optiga-trust-charge/optiga/externals/mbedtls/library\x509_crt.c ****             /* If we get there, we know the string is null-terminated */
1183:C:/Users/Yushev/git/wpcqi-optiga-trust-charge/optiga/externals/mbedtls/library\x509_crt.c ****             ret = mbedtls_pem_read_buffer( &pem,
1184:C:/Users/Yushev/git/wpcqi-optiga-trust-charge/optiga/externals/mbedtls/library\x509_crt.c ****                            "-----BEGIN CERTIFICATE-----",
1185:C:/Users/Yushev/git/wpcqi-optiga-trust-charge/optiga/externals/mbedtls/library\x509_crt.c ****                            "-----END CERTIFICATE-----",
1186:C:/Users/Yushev/git/wpcqi-optiga-trust-charge/optiga/externals/mbedtls/library\x509_crt.c ****                            buf, NULL, 0, &use_len );
1187:C:/Users/Yushev/git/wpcqi-optiga-trust-charge/optiga/externals/mbedtls/library\x509_crt.c **** 
1188:C:/Users/Yushev/git/wpcqi-optiga-trust-charge/optiga/externals/mbedtls/library\x509_crt.c ****             if( ret == 0 )
1189:C:/Users/Yushev/git/wpcqi-optiga-trust-charge/optiga/externals/mbedtls/library\x509_crt.c ****             {
1190:C:/Users/Yushev/git/wpcqi-optiga-trust-charge/optiga/externals/mbedtls/library\x509_crt.c ****                 /*
1191:C:/Users/Yushev/git/wpcqi-optiga-trust-charge/optiga/externals/mbedtls/library\x509_crt.c ****                  * Was PEM encoded
1192:C:/Users/Yushev/git/wpcqi-optiga-trust-charge/optiga/externals/mbedtls/library\x509_crt.c ****                  */
1193:C:/Users/Yushev/git/wpcqi-optiga-trust-charge/optiga/externals/mbedtls/library\x509_crt.c ****                 buflen -= use_len;
1194:C:/Users/Yushev/git/wpcqi-optiga-trust-charge/optiga/externals/mbedtls/library\x509_crt.c ****                 buf += use_len;
1195:C:/Users/Yushev/git/wpcqi-optiga-trust-charge/optiga/externals/mbedtls/library\x509_crt.c ****             }
1196:C:/Users/Yushev/git/wpcqi-optiga-trust-charge/optiga/externals/mbedtls/library\x509_crt.c ****             else if( ret == MBEDTLS_ERR_PEM_BAD_INPUT_DATA )
1197:C:/Users/Yushev/git/wpcqi-optiga-trust-charge/optiga/externals/mbedtls/library\x509_crt.c ****             {
1198:C:/Users/Yushev/git/wpcqi-optiga-trust-charge/optiga/externals/mbedtls/library\x509_crt.c ****                 return( ret );
1199:C:/Users/Yushev/git/wpcqi-optiga-trust-charge/optiga/externals/mbedtls/library\x509_crt.c ****             }
1200:C:/Users/Yushev/git/wpcqi-optiga-trust-charge/optiga/externals/mbedtls/library\x509_crt.c ****             else if( ret != MBEDTLS_ERR_PEM_NO_HEADER_FOOTER_PRESENT )
1201:C:/Users/Yushev/git/wpcqi-optiga-trust-charge/optiga/externals/mbedtls/library\x509_crt.c ****             {
1202:C:/Users/Yushev/git/wpcqi-optiga-trust-charge/optiga/externals/mbedtls/library\x509_crt.c ****                 mbedtls_pem_free( &pem );
1203:C:/Users/Yushev/git/wpcqi-optiga-trust-charge/optiga/externals/mbedtls/library\x509_crt.c **** 
1204:C:/Users/Yushev/git/wpcqi-optiga-trust-charge/optiga/externals/mbedtls/library\x509_crt.c ****                 /*
1205:C:/Users/Yushev/git/wpcqi-optiga-trust-charge/optiga/externals/mbedtls/library\x509_crt.c ****                  * PEM header and footer were found
1206:C:/Users/Yushev/git/wpcqi-optiga-trust-charge/optiga/externals/mbedtls/library\x509_crt.c ****                  */
1207:C:/Users/Yushev/git/wpcqi-optiga-trust-charge/optiga/externals/mbedtls/library\x509_crt.c ****                 buflen -= use_len;
1208:C:/Users/Yushev/git/wpcqi-optiga-trust-charge/optiga/externals/mbedtls/library\x509_crt.c ****                 buf += use_len;
1209:C:/Users/Yushev/git/wpcqi-optiga-trust-charge/optiga/externals/mbedtls/library\x509_crt.c **** 
1210:C:/Users/Yushev/git/wpcqi-optiga-trust-charge/optiga/externals/mbedtls/library\x509_crt.c ****                 if( first_error == 0 )
1211:C:/Users/Yushev/git/wpcqi-optiga-trust-charge/optiga/externals/mbedtls/library\x509_crt.c ****                     first_error = ret;
1212:C:/Users/Yushev/git/wpcqi-optiga-trust-charge/optiga/externals/mbedtls/library\x509_crt.c **** 
1213:C:/Users/Yushev/git/wpcqi-optiga-trust-charge/optiga/externals/mbedtls/library\x509_crt.c ****                 total_failed++;
1214:C:/Users/Yushev/git/wpcqi-optiga-trust-charge/optiga/externals/mbedtls/library\x509_crt.c ****                 continue;
1215:C:/Users/Yushev/git/wpcqi-optiga-trust-charge/optiga/externals/mbedtls/library\x509_crt.c ****             }
1216:C:/Users/Yushev/git/wpcqi-optiga-trust-charge/optiga/externals/mbedtls/library\x509_crt.c ****             else
1217:C:/Users/Yushev/git/wpcqi-optiga-trust-charge/optiga/externals/mbedtls/library\x509_crt.c ****                 break;
1218:C:/Users/Yushev/git/wpcqi-optiga-trust-charge/optiga/externals/mbedtls/library\x509_crt.c **** 
1219:C:/Users/Yushev/git/wpcqi-optiga-trust-charge/optiga/externals/mbedtls/library\x509_crt.c ****             ret = mbedtls_x509_crt_parse_der( chain, pem.buf, pem.buflen );
1220:C:/Users/Yushev/git/wpcqi-optiga-trust-charge/optiga/externals/mbedtls/library\x509_crt.c **** 
1221:C:/Users/Yushev/git/wpcqi-optiga-trust-charge/optiga/externals/mbedtls/library\x509_crt.c ****             mbedtls_pem_free( &pem );
1222:C:/Users/Yushev/git/wpcqi-optiga-trust-charge/optiga/externals/mbedtls/library\x509_crt.c **** 
1223:C:/Users/Yushev/git/wpcqi-optiga-trust-charge/optiga/externals/mbedtls/library\x509_crt.c ****             if( ret != 0 )
1224:C:/Users/Yushev/git/wpcqi-optiga-trust-charge/optiga/externals/mbedtls/library\x509_crt.c ****             {
1225:C:/Users/Yushev/git/wpcqi-optiga-trust-charge/optiga/externals/mbedtls/library\x509_crt.c ****                 /*
1226:C:/Users/Yushev/git/wpcqi-optiga-trust-charge/optiga/externals/mbedtls/library\x509_crt.c ****                  * Quit parsing on a memory error
1227:C:/Users/Yushev/git/wpcqi-optiga-trust-charge/optiga/externals/mbedtls/library\x509_crt.c ****                  */
1228:C:/Users/Yushev/git/wpcqi-optiga-trust-charge/optiga/externals/mbedtls/library\x509_crt.c ****                 if( ret == MBEDTLS_ERR_X509_ALLOC_FAILED )
1229:C:/Users/Yushev/git/wpcqi-optiga-trust-charge/optiga/externals/mbedtls/library\x509_crt.c ****                     return( ret );
1230:C:/Users/Yushev/git/wpcqi-optiga-trust-charge/optiga/externals/mbedtls/library\x509_crt.c **** 
1231:C:/Users/Yushev/git/wpcqi-optiga-trust-charge/optiga/externals/mbedtls/library\x509_crt.c ****                 if( first_error == 0 )
1232:C:/Users/Yushev/git/wpcqi-optiga-trust-charge/optiga/externals/mbedtls/library\x509_crt.c ****                     first_error = ret;
1233:C:/Users/Yushev/git/wpcqi-optiga-trust-charge/optiga/externals/mbedtls/library\x509_crt.c **** 
1234:C:/Users/Yushev/git/wpcqi-optiga-trust-charge/optiga/externals/mbedtls/library\x509_crt.c ****                 total_failed++;
1235:C:/Users/Yushev/git/wpcqi-optiga-trust-charge/optiga/externals/mbedtls/library\x509_crt.c ****                 continue;
1236:C:/Users/Yushev/git/wpcqi-optiga-trust-charge/optiga/externals/mbedtls/library\x509_crt.c ****             }
1237:C:/Users/Yushev/git/wpcqi-optiga-trust-charge/optiga/externals/mbedtls/library\x509_crt.c **** 
1238:C:/Users/Yushev/git/wpcqi-optiga-trust-charge/optiga/externals/mbedtls/library\x509_crt.c ****             success = 1;
1239:C:/Users/Yushev/git/wpcqi-optiga-trust-charge/optiga/externals/mbedtls/library\x509_crt.c ****         }
1240:C:/Users/Yushev/git/wpcqi-optiga-trust-charge/optiga/externals/mbedtls/library\x509_crt.c ****     }
1241:C:/Users/Yushev/git/wpcqi-optiga-trust-charge/optiga/externals/mbedtls/library\x509_crt.c **** 
1242:C:/Users/Yushev/git/wpcqi-optiga-trust-charge/optiga/externals/mbedtls/library\x509_crt.c ****     if( success )
1243:C:/Users/Yushev/git/wpcqi-optiga-trust-charge/optiga/externals/mbedtls/library\x509_crt.c ****         return( total_failed );
1244:C:/Users/Yushev/git/wpcqi-optiga-trust-charge/optiga/externals/mbedtls/library\x509_crt.c ****     else if( first_error )
1245:C:/Users/Yushev/git/wpcqi-optiga-trust-charge/optiga/externals/mbedtls/library\x509_crt.c ****         return( first_error );
1246:C:/Users/Yushev/git/wpcqi-optiga-trust-charge/optiga/externals/mbedtls/library\x509_crt.c ****     else
1247:C:/Users/Yushev/git/wpcqi-optiga-trust-charge/optiga/externals/mbedtls/library\x509_crt.c ****         return( MBEDTLS_ERR_X509_CERT_UNKNOWN_FORMAT );
1248:C:/Users/Yushev/git/wpcqi-optiga-trust-charge/optiga/externals/mbedtls/library\x509_crt.c **** #endif /* MBEDTLS_PEM_PARSE_C */
1249:C:/Users/Yushev/git/wpcqi-optiga-trust-charge/optiga/externals/mbedtls/library\x509_crt.c **** }
 3097              	 .loc 2 1249 0
 3098 0028 1846     	 mov r0,r3
 3099 002a 1037     	 adds r7,r7,#16
 3100              	.LCFI108:
 3101              	 .cfi_def_cfa_offset 8
 3102 002c BD46     	 mov sp,r7
 3103              	.LCFI109:
 3104              	 .cfi_def_cfa_register 13
 3105              	 
 3106 002e 80BD     	 pop {r7,pc}
 3107              	.L217:
 3108              	 .align 2
 3109              	.L216:
 3110 0030 00D8FFFF 	 .word -10240
 3111              	 .cfi_endproc
 3112              	.LFE28:
 3114              	 .section .rodata
 3115              	 .align 2
 3116              	.LC0:
 3117 0000 00       	 .ascii "\000"
 3118 0001 000000   	 .align 2
 3119              	.LC1:
 3120 0004 2C2000   	 .ascii ", \000"
 3121              	 .section .text.x509_info_subject_alt_name,"ax",%progbits
 3122              	 .align 2
 3123              	 .thumb
 3124              	 .thumb_func
 3126              	x509_info_subject_alt_name:
 3127              	.LFB29:
1250:C:/Users/Yushev/git/wpcqi-optiga-trust-charge/optiga/externals/mbedtls/library\x509_crt.c **** 
1251:C:/Users/Yushev/git/wpcqi-optiga-trust-charge/optiga/externals/mbedtls/library\x509_crt.c **** #if defined(MBEDTLS_FS_IO)
1252:C:/Users/Yushev/git/wpcqi-optiga-trust-charge/optiga/externals/mbedtls/library\x509_crt.c **** /*
1253:C:/Users/Yushev/git/wpcqi-optiga-trust-charge/optiga/externals/mbedtls/library\x509_crt.c ****  * Load one or more certificates and add them to the chained list
1254:C:/Users/Yushev/git/wpcqi-optiga-trust-charge/optiga/externals/mbedtls/library\x509_crt.c ****  */
1255:C:/Users/Yushev/git/wpcqi-optiga-trust-charge/optiga/externals/mbedtls/library\x509_crt.c **** int mbedtls_x509_crt_parse_file( mbedtls_x509_crt *chain, const char *path )
1256:C:/Users/Yushev/git/wpcqi-optiga-trust-charge/optiga/externals/mbedtls/library\x509_crt.c **** {
1257:C:/Users/Yushev/git/wpcqi-optiga-trust-charge/optiga/externals/mbedtls/library\x509_crt.c ****     int ret;
1258:C:/Users/Yushev/git/wpcqi-optiga-trust-charge/optiga/externals/mbedtls/library\x509_crt.c ****     size_t n;
1259:C:/Users/Yushev/git/wpcqi-optiga-trust-charge/optiga/externals/mbedtls/library\x509_crt.c ****     unsigned char *buf;
1260:C:/Users/Yushev/git/wpcqi-optiga-trust-charge/optiga/externals/mbedtls/library\x509_crt.c **** 
1261:C:/Users/Yushev/git/wpcqi-optiga-trust-charge/optiga/externals/mbedtls/library\x509_crt.c ****     if( ( ret = mbedtls_pk_load_file( path, &buf, &n ) ) != 0 )
1262:C:/Users/Yushev/git/wpcqi-optiga-trust-charge/optiga/externals/mbedtls/library\x509_crt.c ****         return( ret );
1263:C:/Users/Yushev/git/wpcqi-optiga-trust-charge/optiga/externals/mbedtls/library\x509_crt.c **** 
1264:C:/Users/Yushev/git/wpcqi-optiga-trust-charge/optiga/externals/mbedtls/library\x509_crt.c ****     ret = mbedtls_x509_crt_parse( chain, buf, n );
1265:C:/Users/Yushev/git/wpcqi-optiga-trust-charge/optiga/externals/mbedtls/library\x509_crt.c **** 
1266:C:/Users/Yushev/git/wpcqi-optiga-trust-charge/optiga/externals/mbedtls/library\x509_crt.c ****     mbedtls_platform_zeroize( buf, n );
1267:C:/Users/Yushev/git/wpcqi-optiga-trust-charge/optiga/externals/mbedtls/library\x509_crt.c ****     mbedtls_free( buf );
1268:C:/Users/Yushev/git/wpcqi-optiga-trust-charge/optiga/externals/mbedtls/library\x509_crt.c **** 
1269:C:/Users/Yushev/git/wpcqi-optiga-trust-charge/optiga/externals/mbedtls/library\x509_crt.c ****     return( ret );
1270:C:/Users/Yushev/git/wpcqi-optiga-trust-charge/optiga/externals/mbedtls/library\x509_crt.c **** }
1271:C:/Users/Yushev/git/wpcqi-optiga-trust-charge/optiga/externals/mbedtls/library\x509_crt.c **** 
1272:C:/Users/Yushev/git/wpcqi-optiga-trust-charge/optiga/externals/mbedtls/library\x509_crt.c **** int mbedtls_x509_crt_parse_path( mbedtls_x509_crt *chain, const char *path )
1273:C:/Users/Yushev/git/wpcqi-optiga-trust-charge/optiga/externals/mbedtls/library\x509_crt.c **** {
1274:C:/Users/Yushev/git/wpcqi-optiga-trust-charge/optiga/externals/mbedtls/library\x509_crt.c ****     int ret = 0;
1275:C:/Users/Yushev/git/wpcqi-optiga-trust-charge/optiga/externals/mbedtls/library\x509_crt.c **** #if defined(_WIN32) && !defined(EFIX64) && !defined(EFI32)
1276:C:/Users/Yushev/git/wpcqi-optiga-trust-charge/optiga/externals/mbedtls/library\x509_crt.c ****     int w_ret;
1277:C:/Users/Yushev/git/wpcqi-optiga-trust-charge/optiga/externals/mbedtls/library\x509_crt.c ****     WCHAR szDir[MAX_PATH];
1278:C:/Users/Yushev/git/wpcqi-optiga-trust-charge/optiga/externals/mbedtls/library\x509_crt.c ****     char filename[MAX_PATH];
1279:C:/Users/Yushev/git/wpcqi-optiga-trust-charge/optiga/externals/mbedtls/library\x509_crt.c ****     char *p;
1280:C:/Users/Yushev/git/wpcqi-optiga-trust-charge/optiga/externals/mbedtls/library\x509_crt.c ****     size_t len = strlen( path );
1281:C:/Users/Yushev/git/wpcqi-optiga-trust-charge/optiga/externals/mbedtls/library\x509_crt.c **** 
1282:C:/Users/Yushev/git/wpcqi-optiga-trust-charge/optiga/externals/mbedtls/library\x509_crt.c ****     WIN32_FIND_DATAW file_data;
1283:C:/Users/Yushev/git/wpcqi-optiga-trust-charge/optiga/externals/mbedtls/library\x509_crt.c ****     HANDLE hFind;
1284:C:/Users/Yushev/git/wpcqi-optiga-trust-charge/optiga/externals/mbedtls/library\x509_crt.c **** 
1285:C:/Users/Yushev/git/wpcqi-optiga-trust-charge/optiga/externals/mbedtls/library\x509_crt.c ****     if( len > MAX_PATH - 3 )
1286:C:/Users/Yushev/git/wpcqi-optiga-trust-charge/optiga/externals/mbedtls/library\x509_crt.c ****         return( MBEDTLS_ERR_X509_BAD_INPUT_DATA );
1287:C:/Users/Yushev/git/wpcqi-optiga-trust-charge/optiga/externals/mbedtls/library\x509_crt.c **** 
1288:C:/Users/Yushev/git/wpcqi-optiga-trust-charge/optiga/externals/mbedtls/library\x509_crt.c ****     memset( szDir, 0, sizeof(szDir) );
1289:C:/Users/Yushev/git/wpcqi-optiga-trust-charge/optiga/externals/mbedtls/library\x509_crt.c ****     memset( filename, 0, MAX_PATH );
1290:C:/Users/Yushev/git/wpcqi-optiga-trust-charge/optiga/externals/mbedtls/library\x509_crt.c ****     memcpy( filename, path, len );
1291:C:/Users/Yushev/git/wpcqi-optiga-trust-charge/optiga/externals/mbedtls/library\x509_crt.c ****     filename[len++] = '\\';
1292:C:/Users/Yushev/git/wpcqi-optiga-trust-charge/optiga/externals/mbedtls/library\x509_crt.c ****     p = filename + len;
1293:C:/Users/Yushev/git/wpcqi-optiga-trust-charge/optiga/externals/mbedtls/library\x509_crt.c ****     filename[len++] = '*';
1294:C:/Users/Yushev/git/wpcqi-optiga-trust-charge/optiga/externals/mbedtls/library\x509_crt.c **** 
1295:C:/Users/Yushev/git/wpcqi-optiga-trust-charge/optiga/externals/mbedtls/library\x509_crt.c ****     w_ret = MultiByteToWideChar( CP_ACP, 0, filename, (int)len, szDir,
1296:C:/Users/Yushev/git/wpcqi-optiga-trust-charge/optiga/externals/mbedtls/library\x509_crt.c ****                                  MAX_PATH - 3 );
1297:C:/Users/Yushev/git/wpcqi-optiga-trust-charge/optiga/externals/mbedtls/library\x509_crt.c ****     if( w_ret == 0 )
1298:C:/Users/Yushev/git/wpcqi-optiga-trust-charge/optiga/externals/mbedtls/library\x509_crt.c ****         return( MBEDTLS_ERR_X509_BAD_INPUT_DATA );
1299:C:/Users/Yushev/git/wpcqi-optiga-trust-charge/optiga/externals/mbedtls/library\x509_crt.c **** 
1300:C:/Users/Yushev/git/wpcqi-optiga-trust-charge/optiga/externals/mbedtls/library\x509_crt.c ****     hFind = FindFirstFileW( szDir, &file_data );
1301:C:/Users/Yushev/git/wpcqi-optiga-trust-charge/optiga/externals/mbedtls/library\x509_crt.c ****     if( hFind == INVALID_HANDLE_VALUE )
1302:C:/Users/Yushev/git/wpcqi-optiga-trust-charge/optiga/externals/mbedtls/library\x509_crt.c ****         return( MBEDTLS_ERR_X509_FILE_IO_ERROR );
1303:C:/Users/Yushev/git/wpcqi-optiga-trust-charge/optiga/externals/mbedtls/library\x509_crt.c **** 
1304:C:/Users/Yushev/git/wpcqi-optiga-trust-charge/optiga/externals/mbedtls/library\x509_crt.c ****     len = MAX_PATH - len;
1305:C:/Users/Yushev/git/wpcqi-optiga-trust-charge/optiga/externals/mbedtls/library\x509_crt.c ****     do
1306:C:/Users/Yushev/git/wpcqi-optiga-trust-charge/optiga/externals/mbedtls/library\x509_crt.c ****     {
1307:C:/Users/Yushev/git/wpcqi-optiga-trust-charge/optiga/externals/mbedtls/library\x509_crt.c ****         memset( p, 0, len );
1308:C:/Users/Yushev/git/wpcqi-optiga-trust-charge/optiga/externals/mbedtls/library\x509_crt.c **** 
1309:C:/Users/Yushev/git/wpcqi-optiga-trust-charge/optiga/externals/mbedtls/library\x509_crt.c ****         if( file_data.dwFileAttributes & FILE_ATTRIBUTE_DIRECTORY )
1310:C:/Users/Yushev/git/wpcqi-optiga-trust-charge/optiga/externals/mbedtls/library\x509_crt.c ****             continue;
1311:C:/Users/Yushev/git/wpcqi-optiga-trust-charge/optiga/externals/mbedtls/library\x509_crt.c **** 
1312:C:/Users/Yushev/git/wpcqi-optiga-trust-charge/optiga/externals/mbedtls/library\x509_crt.c ****         w_ret = WideCharToMultiByte( CP_ACP, 0, file_data.cFileName,
1313:C:/Users/Yushev/git/wpcqi-optiga-trust-charge/optiga/externals/mbedtls/library\x509_crt.c ****                                      lstrlenW( file_data.cFileName ),
1314:C:/Users/Yushev/git/wpcqi-optiga-trust-charge/optiga/externals/mbedtls/library\x509_crt.c ****                                      p, (int) len - 1,
1315:C:/Users/Yushev/git/wpcqi-optiga-trust-charge/optiga/externals/mbedtls/library\x509_crt.c ****                                      NULL, NULL );
1316:C:/Users/Yushev/git/wpcqi-optiga-trust-charge/optiga/externals/mbedtls/library\x509_crt.c ****         if( w_ret == 0 )
1317:C:/Users/Yushev/git/wpcqi-optiga-trust-charge/optiga/externals/mbedtls/library\x509_crt.c ****         {
1318:C:/Users/Yushev/git/wpcqi-optiga-trust-charge/optiga/externals/mbedtls/library\x509_crt.c ****             ret = MBEDTLS_ERR_X509_FILE_IO_ERROR;
1319:C:/Users/Yushev/git/wpcqi-optiga-trust-charge/optiga/externals/mbedtls/library\x509_crt.c ****             goto cleanup;
1320:C:/Users/Yushev/git/wpcqi-optiga-trust-charge/optiga/externals/mbedtls/library\x509_crt.c ****         }
1321:C:/Users/Yushev/git/wpcqi-optiga-trust-charge/optiga/externals/mbedtls/library\x509_crt.c **** 
1322:C:/Users/Yushev/git/wpcqi-optiga-trust-charge/optiga/externals/mbedtls/library\x509_crt.c ****         w_ret = mbedtls_x509_crt_parse_file( chain, filename );
1323:C:/Users/Yushev/git/wpcqi-optiga-trust-charge/optiga/externals/mbedtls/library\x509_crt.c ****         if( w_ret < 0 )
1324:C:/Users/Yushev/git/wpcqi-optiga-trust-charge/optiga/externals/mbedtls/library\x509_crt.c ****             ret++;
1325:C:/Users/Yushev/git/wpcqi-optiga-trust-charge/optiga/externals/mbedtls/library\x509_crt.c ****         else
1326:C:/Users/Yushev/git/wpcqi-optiga-trust-charge/optiga/externals/mbedtls/library\x509_crt.c ****             ret += w_ret;
1327:C:/Users/Yushev/git/wpcqi-optiga-trust-charge/optiga/externals/mbedtls/library\x509_crt.c ****     }
1328:C:/Users/Yushev/git/wpcqi-optiga-trust-charge/optiga/externals/mbedtls/library\x509_crt.c ****     while( FindNextFileW( hFind, &file_data ) != 0 );
1329:C:/Users/Yushev/git/wpcqi-optiga-trust-charge/optiga/externals/mbedtls/library\x509_crt.c **** 
1330:C:/Users/Yushev/git/wpcqi-optiga-trust-charge/optiga/externals/mbedtls/library\x509_crt.c ****     if( GetLastError() != ERROR_NO_MORE_FILES )
1331:C:/Users/Yushev/git/wpcqi-optiga-trust-charge/optiga/externals/mbedtls/library\x509_crt.c ****         ret = MBEDTLS_ERR_X509_FILE_IO_ERROR;
1332:C:/Users/Yushev/git/wpcqi-optiga-trust-charge/optiga/externals/mbedtls/library\x509_crt.c **** 
1333:C:/Users/Yushev/git/wpcqi-optiga-trust-charge/optiga/externals/mbedtls/library\x509_crt.c **** cleanup:
1334:C:/Users/Yushev/git/wpcqi-optiga-trust-charge/optiga/externals/mbedtls/library\x509_crt.c ****     FindClose( hFind );
1335:C:/Users/Yushev/git/wpcqi-optiga-trust-charge/optiga/externals/mbedtls/library\x509_crt.c **** #else /* _WIN32 */
1336:C:/Users/Yushev/git/wpcqi-optiga-trust-charge/optiga/externals/mbedtls/library\x509_crt.c ****     int t_ret;
1337:C:/Users/Yushev/git/wpcqi-optiga-trust-charge/optiga/externals/mbedtls/library\x509_crt.c ****     int snp_ret;
1338:C:/Users/Yushev/git/wpcqi-optiga-trust-charge/optiga/externals/mbedtls/library\x509_crt.c ****     struct stat sb;
1339:C:/Users/Yushev/git/wpcqi-optiga-trust-charge/optiga/externals/mbedtls/library\x509_crt.c ****     struct dirent *entry;
1340:C:/Users/Yushev/git/wpcqi-optiga-trust-charge/optiga/externals/mbedtls/library\x509_crt.c ****     char entry_name[MBEDTLS_X509_MAX_FILE_PATH_LEN];
1341:C:/Users/Yushev/git/wpcqi-optiga-trust-charge/optiga/externals/mbedtls/library\x509_crt.c ****     DIR *dir = opendir( path );
1342:C:/Users/Yushev/git/wpcqi-optiga-trust-charge/optiga/externals/mbedtls/library\x509_crt.c **** 
1343:C:/Users/Yushev/git/wpcqi-optiga-trust-charge/optiga/externals/mbedtls/library\x509_crt.c ****     if( dir == NULL )
1344:C:/Users/Yushev/git/wpcqi-optiga-trust-charge/optiga/externals/mbedtls/library\x509_crt.c ****         return( MBEDTLS_ERR_X509_FILE_IO_ERROR );
1345:C:/Users/Yushev/git/wpcqi-optiga-trust-charge/optiga/externals/mbedtls/library\x509_crt.c **** 
1346:C:/Users/Yushev/git/wpcqi-optiga-trust-charge/optiga/externals/mbedtls/library\x509_crt.c **** #if defined(MBEDTLS_THREADING_C)
1347:C:/Users/Yushev/git/wpcqi-optiga-trust-charge/optiga/externals/mbedtls/library\x509_crt.c ****     if( ( ret = mbedtls_mutex_lock( &mbedtls_threading_readdir_mutex ) ) != 0 )
1348:C:/Users/Yushev/git/wpcqi-optiga-trust-charge/optiga/externals/mbedtls/library\x509_crt.c ****     {
1349:C:/Users/Yushev/git/wpcqi-optiga-trust-charge/optiga/externals/mbedtls/library\x509_crt.c ****         closedir( dir );
1350:C:/Users/Yushev/git/wpcqi-optiga-trust-charge/optiga/externals/mbedtls/library\x509_crt.c ****         return( ret );
1351:C:/Users/Yushev/git/wpcqi-optiga-trust-charge/optiga/externals/mbedtls/library\x509_crt.c ****     }
1352:C:/Users/Yushev/git/wpcqi-optiga-trust-charge/optiga/externals/mbedtls/library\x509_crt.c **** #endif /* MBEDTLS_THREADING_C */
1353:C:/Users/Yushev/git/wpcqi-optiga-trust-charge/optiga/externals/mbedtls/library\x509_crt.c **** 
1354:C:/Users/Yushev/git/wpcqi-optiga-trust-charge/optiga/externals/mbedtls/library\x509_crt.c ****     while( ( entry = readdir( dir ) ) != NULL )
1355:C:/Users/Yushev/git/wpcqi-optiga-trust-charge/optiga/externals/mbedtls/library\x509_crt.c ****     {
1356:C:/Users/Yushev/git/wpcqi-optiga-trust-charge/optiga/externals/mbedtls/library\x509_crt.c ****         snp_ret = mbedtls_snprintf( entry_name, sizeof entry_name,
1357:C:/Users/Yushev/git/wpcqi-optiga-trust-charge/optiga/externals/mbedtls/library\x509_crt.c ****                                     "%s/%s", path, entry->d_name );
1358:C:/Users/Yushev/git/wpcqi-optiga-trust-charge/optiga/externals/mbedtls/library\x509_crt.c **** 
1359:C:/Users/Yushev/git/wpcqi-optiga-trust-charge/optiga/externals/mbedtls/library\x509_crt.c ****         if( snp_ret < 0 || (size_t)snp_ret >= sizeof entry_name )
1360:C:/Users/Yushev/git/wpcqi-optiga-trust-charge/optiga/externals/mbedtls/library\x509_crt.c ****         {
1361:C:/Users/Yushev/git/wpcqi-optiga-trust-charge/optiga/externals/mbedtls/library\x509_crt.c ****             ret = MBEDTLS_ERR_X509_BUFFER_TOO_SMALL;
1362:C:/Users/Yushev/git/wpcqi-optiga-trust-charge/optiga/externals/mbedtls/library\x509_crt.c ****             goto cleanup;
1363:C:/Users/Yushev/git/wpcqi-optiga-trust-charge/optiga/externals/mbedtls/library\x509_crt.c ****         }
1364:C:/Users/Yushev/git/wpcqi-optiga-trust-charge/optiga/externals/mbedtls/library\x509_crt.c ****         else if( stat( entry_name, &sb ) == -1 )
1365:C:/Users/Yushev/git/wpcqi-optiga-trust-charge/optiga/externals/mbedtls/library\x509_crt.c ****         {
1366:C:/Users/Yushev/git/wpcqi-optiga-trust-charge/optiga/externals/mbedtls/library\x509_crt.c ****             ret = MBEDTLS_ERR_X509_FILE_IO_ERROR;
1367:C:/Users/Yushev/git/wpcqi-optiga-trust-charge/optiga/externals/mbedtls/library\x509_crt.c ****             goto cleanup;
1368:C:/Users/Yushev/git/wpcqi-optiga-trust-charge/optiga/externals/mbedtls/library\x509_crt.c ****         }
1369:C:/Users/Yushev/git/wpcqi-optiga-trust-charge/optiga/externals/mbedtls/library\x509_crt.c **** 
1370:C:/Users/Yushev/git/wpcqi-optiga-trust-charge/optiga/externals/mbedtls/library\x509_crt.c ****         if( !S_ISREG( sb.st_mode ) )
1371:C:/Users/Yushev/git/wpcqi-optiga-trust-charge/optiga/externals/mbedtls/library\x509_crt.c ****             continue;
1372:C:/Users/Yushev/git/wpcqi-optiga-trust-charge/optiga/externals/mbedtls/library\x509_crt.c **** 
1373:C:/Users/Yushev/git/wpcqi-optiga-trust-charge/optiga/externals/mbedtls/library\x509_crt.c ****         // Ignore parse errors
1374:C:/Users/Yushev/git/wpcqi-optiga-trust-charge/optiga/externals/mbedtls/library\x509_crt.c ****         //
1375:C:/Users/Yushev/git/wpcqi-optiga-trust-charge/optiga/externals/mbedtls/library\x509_crt.c ****         t_ret = mbedtls_x509_crt_parse_file( chain, entry_name );
1376:C:/Users/Yushev/git/wpcqi-optiga-trust-charge/optiga/externals/mbedtls/library\x509_crt.c ****         if( t_ret < 0 )
1377:C:/Users/Yushev/git/wpcqi-optiga-trust-charge/optiga/externals/mbedtls/library\x509_crt.c ****             ret++;
1378:C:/Users/Yushev/git/wpcqi-optiga-trust-charge/optiga/externals/mbedtls/library\x509_crt.c ****         else
1379:C:/Users/Yushev/git/wpcqi-optiga-trust-charge/optiga/externals/mbedtls/library\x509_crt.c ****             ret += t_ret;
1380:C:/Users/Yushev/git/wpcqi-optiga-trust-charge/optiga/externals/mbedtls/library\x509_crt.c ****     }
1381:C:/Users/Yushev/git/wpcqi-optiga-trust-charge/optiga/externals/mbedtls/library\x509_crt.c **** 
1382:C:/Users/Yushev/git/wpcqi-optiga-trust-charge/optiga/externals/mbedtls/library\x509_crt.c **** cleanup:
1383:C:/Users/Yushev/git/wpcqi-optiga-trust-charge/optiga/externals/mbedtls/library\x509_crt.c ****     closedir( dir );
1384:C:/Users/Yushev/git/wpcqi-optiga-trust-charge/optiga/externals/mbedtls/library\x509_crt.c **** 
1385:C:/Users/Yushev/git/wpcqi-optiga-trust-charge/optiga/externals/mbedtls/library\x509_crt.c **** #if defined(MBEDTLS_THREADING_C)
1386:C:/Users/Yushev/git/wpcqi-optiga-trust-charge/optiga/externals/mbedtls/library\x509_crt.c ****     if( mbedtls_mutex_unlock( &mbedtls_threading_readdir_mutex ) != 0 )
1387:C:/Users/Yushev/git/wpcqi-optiga-trust-charge/optiga/externals/mbedtls/library\x509_crt.c ****         ret = MBEDTLS_ERR_THREADING_MUTEX_ERROR;
1388:C:/Users/Yushev/git/wpcqi-optiga-trust-charge/optiga/externals/mbedtls/library\x509_crt.c **** #endif /* MBEDTLS_THREADING_C */
1389:C:/Users/Yushev/git/wpcqi-optiga-trust-charge/optiga/externals/mbedtls/library\x509_crt.c **** 
1390:C:/Users/Yushev/git/wpcqi-optiga-trust-charge/optiga/externals/mbedtls/library\x509_crt.c **** #endif /* _WIN32 */
1391:C:/Users/Yushev/git/wpcqi-optiga-trust-charge/optiga/externals/mbedtls/library\x509_crt.c **** 
1392:C:/Users/Yushev/git/wpcqi-optiga-trust-charge/optiga/externals/mbedtls/library\x509_crt.c ****     return( ret );
1393:C:/Users/Yushev/git/wpcqi-optiga-trust-charge/optiga/externals/mbedtls/library\x509_crt.c **** }
1394:C:/Users/Yushev/git/wpcqi-optiga-trust-charge/optiga/externals/mbedtls/library\x509_crt.c **** #endif /* MBEDTLS_FS_IO */
1395:C:/Users/Yushev/git/wpcqi-optiga-trust-charge/optiga/externals/mbedtls/library\x509_crt.c **** 
1396:C:/Users/Yushev/git/wpcqi-optiga-trust-charge/optiga/externals/mbedtls/library\x509_crt.c **** static int x509_info_subject_alt_name( char **buf, size_t *size,
1397:C:/Users/Yushev/git/wpcqi-optiga-trust-charge/optiga/externals/mbedtls/library\x509_crt.c ****                                        const mbedtls_x509_sequence *subject_alt_name )
1398:C:/Users/Yushev/git/wpcqi-optiga-trust-charge/optiga/externals/mbedtls/library\x509_crt.c **** {
 3128              	 .loc 2 1398 0
 3129              	 .cfi_startproc
 3130              	 
 3131              	 
 3132              	 
 3133 0000 80B4     	 push {r7}
 3134              	.LCFI110:
 3135              	 .cfi_def_cfa_offset 4
 3136              	 .cfi_offset 7,-4
 3137 0002 8BB0     	 sub sp,sp,#44
 3138              	.LCFI111:
 3139              	 .cfi_def_cfa_offset 48
 3140 0004 00AF     	 add r7,sp,#0
 3141              	.LCFI112:
 3142              	 .cfi_def_cfa_register 7
 3143 0006 F860     	 str r0,[r7,#12]
 3144 0008 B960     	 str r1,[r7,#8]
 3145 000a 7A60     	 str r2,[r7,#4]
1399:C:/Users/Yushev/git/wpcqi-optiga-trust-charge/optiga/externals/mbedtls/library\x509_crt.c ****     size_t i;
1400:C:/Users/Yushev/git/wpcqi-optiga-trust-charge/optiga/externals/mbedtls/library\x509_crt.c ****     size_t n = *size;
 3146              	 .loc 2 1400 0
 3147 000c BB68     	 ldr r3,[r7,#8]
 3148 000e 1B68     	 ldr r3,[r3]
 3149 0010 3B62     	 str r3,[r7,#32]
1401:C:/Users/Yushev/git/wpcqi-optiga-trust-charge/optiga/externals/mbedtls/library\x509_crt.c ****     char *p = *buf;
 3150              	 .loc 2 1401 0
 3151 0012 FB68     	 ldr r3,[r7,#12]
 3152 0014 1B68     	 ldr r3,[r3]
 3153 0016 FB61     	 str r3,[r7,#28]
1402:C:/Users/Yushev/git/wpcqi-optiga-trust-charge/optiga/externals/mbedtls/library\x509_crt.c ****     const mbedtls_x509_sequence *cur = subject_alt_name;
 3154              	 .loc 2 1402 0
 3155 0018 7B68     	 ldr r3,[r7,#4]
 3156 001a BB61     	 str r3,[r7,#24]
1403:C:/Users/Yushev/git/wpcqi-optiga-trust-charge/optiga/externals/mbedtls/library\x509_crt.c ****     const char *sep = "";
 3157              	 .loc 2 1403 0
 3158 001c 2B4B     	 ldr r3,.L227
 3159 001e 7B61     	 str r3,[r7,#20]
1404:C:/Users/Yushev/git/wpcqi-optiga-trust-charge/optiga/externals/mbedtls/library\x509_crt.c ****     size_t sep_len = 0;
 3160              	 .loc 2 1404 0
 3161 0020 0023     	 movs r3,#0
 3162 0022 3B61     	 str r3,[r7,#16]
1405:C:/Users/Yushev/git/wpcqi-optiga-trust-charge/optiga/externals/mbedtls/library\x509_crt.c **** 
1406:C:/Users/Yushev/git/wpcqi-optiga-trust-charge/optiga/externals/mbedtls/library\x509_crt.c ****     while( cur != NULL )
 3163              	 .loc 2 1406 0
 3164 0024 3FE0     	 b .L219
 3165              	.L226:
1407:C:/Users/Yushev/git/wpcqi-optiga-trust-charge/optiga/externals/mbedtls/library\x509_crt.c ****     {
1408:C:/Users/Yushev/git/wpcqi-optiga-trust-charge/optiga/externals/mbedtls/library\x509_crt.c ****         if( cur->buf.len + sep_len >= n )
 3166              	 .loc 2 1408 0
 3167 0026 BB69     	 ldr r3,[r7,#24]
 3168 0028 5A68     	 ldr r2,[r3,#4]
 3169 002a 3B69     	 ldr r3,[r7,#16]
 3170 002c 1A44     	 add r2,r2,r3
 3171 002e 3B6A     	 ldr r3,[r7,#32]
 3172 0030 9A42     	 cmp r2,r3
 3173 0032 04D3     	 bcc .L220
1409:C:/Users/Yushev/git/wpcqi-optiga-trust-charge/optiga/externals/mbedtls/library\x509_crt.c ****         {
1410:C:/Users/Yushev/git/wpcqi-optiga-trust-charge/optiga/externals/mbedtls/library\x509_crt.c ****             *p = '\0';
 3174              	 .loc 2 1410 0
 3175 0034 FB69     	 ldr r3,[r7,#28]
 3176 0036 0022     	 movs r2,#0
 3177 0038 1A70     	 strb r2,[r3]
1411:C:/Users/Yushev/git/wpcqi-optiga-trust-charge/optiga/externals/mbedtls/library\x509_crt.c ****             return( MBEDTLS_ERR_X509_BUFFER_TOO_SMALL );
 3178              	 .loc 2 1411 0
 3179 003a 254B     	 ldr r3,.L227+4
 3180 003c 40E0     	 b .L221
 3181              	.L220:
1412:C:/Users/Yushev/git/wpcqi-optiga-trust-charge/optiga/externals/mbedtls/library\x509_crt.c ****         }
1413:C:/Users/Yushev/git/wpcqi-optiga-trust-charge/optiga/externals/mbedtls/library\x509_crt.c **** 
1414:C:/Users/Yushev/git/wpcqi-optiga-trust-charge/optiga/externals/mbedtls/library\x509_crt.c ****         n -= cur->buf.len + sep_len;
 3182              	 .loc 2 1414 0
 3183 003e BB69     	 ldr r3,[r7,#24]
 3184 0040 5A68     	 ldr r2,[r3,#4]
 3185 0042 3B69     	 ldr r3,[r7,#16]
 3186 0044 1344     	 add r3,r3,r2
 3187 0046 3A6A     	 ldr r2,[r7,#32]
 3188 0048 D31A     	 subs r3,r2,r3
 3189 004a 3B62     	 str r3,[r7,#32]
1415:C:/Users/Yushev/git/wpcqi-optiga-trust-charge/optiga/externals/mbedtls/library\x509_crt.c ****         for( i = 0; i < sep_len; i++ )
 3190              	 .loc 2 1415 0
 3191 004c 0023     	 movs r3,#0
 3192 004e 7B62     	 str r3,[r7,#36]
 3193 0050 0AE0     	 b .L222
 3194              	.L223:
1416:C:/Users/Yushev/git/wpcqi-optiga-trust-charge/optiga/externals/mbedtls/library\x509_crt.c ****             *p++ = sep[i];
 3195              	 .loc 2 1416 0 discriminator 3
 3196 0052 FB69     	 ldr r3,[r7,#28]
 3197 0054 5A1C     	 adds r2,r3,#1
 3198 0056 FA61     	 str r2,[r7,#28]
 3199 0058 7969     	 ldr r1,[r7,#20]
 3200 005a 7A6A     	 ldr r2,[r7,#36]
 3201 005c 0A44     	 add r2,r2,r1
 3202 005e 1278     	 ldrb r2,[r2]
 3203 0060 1A70     	 strb r2,[r3]
1415:C:/Users/Yushev/git/wpcqi-optiga-trust-charge/optiga/externals/mbedtls/library\x509_crt.c ****         for( i = 0; i < sep_len; i++ )
 3204              	 .loc 2 1415 0 discriminator 3
 3205 0062 7B6A     	 ldr r3,[r7,#36]
 3206 0064 0133     	 adds r3,r3,#1
 3207 0066 7B62     	 str r3,[r7,#36]
 3208              	.L222:
1415:C:/Users/Yushev/git/wpcqi-optiga-trust-charge/optiga/externals/mbedtls/library\x509_crt.c ****         for( i = 0; i < sep_len; i++ )
 3209              	 .loc 2 1415 0 is_stmt 0 discriminator 1
 3210 0068 7A6A     	 ldr r2,[r7,#36]
 3211 006a 3B69     	 ldr r3,[r7,#16]
 3212 006c 9A42     	 cmp r2,r3
 3213 006e F0D3     	 bcc .L223
1417:C:/Users/Yushev/git/wpcqi-optiga-trust-charge/optiga/externals/mbedtls/library\x509_crt.c ****         for( i = 0; i < cur->buf.len; i++ )
 3214              	 .loc 2 1417 0 is_stmt 1
 3215 0070 0023     	 movs r3,#0
 3216 0072 7B62     	 str r3,[r7,#36]
 3217 0074 0BE0     	 b .L224
 3218              	.L225:
1418:C:/Users/Yushev/git/wpcqi-optiga-trust-charge/optiga/externals/mbedtls/library\x509_crt.c ****             *p++ = cur->buf.p[i];
 3219              	 .loc 2 1418 0 discriminator 3
 3220 0076 FB69     	 ldr r3,[r7,#28]
 3221 0078 5A1C     	 adds r2,r3,#1
 3222 007a FA61     	 str r2,[r7,#28]
 3223 007c BA69     	 ldr r2,[r7,#24]
 3224 007e 9168     	 ldr r1,[r2,#8]
 3225 0080 7A6A     	 ldr r2,[r7,#36]
 3226 0082 0A44     	 add r2,r2,r1
 3227 0084 1278     	 ldrb r2,[r2]
 3228 0086 1A70     	 strb r2,[r3]
1417:C:/Users/Yushev/git/wpcqi-optiga-trust-charge/optiga/externals/mbedtls/library\x509_crt.c ****         for( i = 0; i < cur->buf.len; i++ )
 3229              	 .loc 2 1417 0 discriminator 3
 3230 0088 7B6A     	 ldr r3,[r7,#36]
 3231 008a 0133     	 adds r3,r3,#1
 3232 008c 7B62     	 str r3,[r7,#36]
 3233              	.L224:
1417:C:/Users/Yushev/git/wpcqi-optiga-trust-charge/optiga/externals/mbedtls/library\x509_crt.c ****         for( i = 0; i < cur->buf.len; i++ )
 3234              	 .loc 2 1417 0 is_stmt 0 discriminator 1
 3235 008e BB69     	 ldr r3,[r7,#24]
 3236 0090 5A68     	 ldr r2,[r3,#4]
 3237 0092 7B6A     	 ldr r3,[r7,#36]
 3238 0094 9A42     	 cmp r2,r3
 3239 0096 EED8     	 bhi .L225
1419:C:/Users/Yushev/git/wpcqi-optiga-trust-charge/optiga/externals/mbedtls/library\x509_crt.c **** 
1420:C:/Users/Yushev/git/wpcqi-optiga-trust-charge/optiga/externals/mbedtls/library\x509_crt.c ****         sep = ", ";
 3240              	 .loc 2 1420 0 is_stmt 1
 3241 0098 0E4B     	 ldr r3,.L227+8
 3242 009a 7B61     	 str r3,[r7,#20]
1421:C:/Users/Yushev/git/wpcqi-optiga-trust-charge/optiga/externals/mbedtls/library\x509_crt.c ****         sep_len = 2;
 3243              	 .loc 2 1421 0
 3244 009c 0223     	 movs r3,#2
 3245 009e 3B61     	 str r3,[r7,#16]
1422:C:/Users/Yushev/git/wpcqi-optiga-trust-charge/optiga/externals/mbedtls/library\x509_crt.c **** 
1423:C:/Users/Yushev/git/wpcqi-optiga-trust-charge/optiga/externals/mbedtls/library\x509_crt.c ****         cur = cur->next;
 3246              	 .loc 2 1423 0
 3247 00a0 BB69     	 ldr r3,[r7,#24]
 3248 00a2 DB68     	 ldr r3,[r3,#12]
 3249 00a4 BB61     	 str r3,[r7,#24]
 3250              	.L219:
1406:C:/Users/Yushev/git/wpcqi-optiga-trust-charge/optiga/externals/mbedtls/library\x509_crt.c ****     {
 3251              	 .loc 2 1406 0
 3252 00a6 BB69     	 ldr r3,[r7,#24]
 3253 00a8 002B     	 cmp r3,#0
 3254 00aa BCD1     	 bne .L226
1424:C:/Users/Yushev/git/wpcqi-optiga-trust-charge/optiga/externals/mbedtls/library\x509_crt.c ****     }
1425:C:/Users/Yushev/git/wpcqi-optiga-trust-charge/optiga/externals/mbedtls/library\x509_crt.c **** 
1426:C:/Users/Yushev/git/wpcqi-optiga-trust-charge/optiga/externals/mbedtls/library\x509_crt.c ****     *p = '\0';
 3255              	 .loc 2 1426 0
 3256 00ac FB69     	 ldr r3,[r7,#28]
 3257 00ae 0022     	 movs r2,#0
 3258 00b0 1A70     	 strb r2,[r3]
1427:C:/Users/Yushev/git/wpcqi-optiga-trust-charge/optiga/externals/mbedtls/library\x509_crt.c **** 
1428:C:/Users/Yushev/git/wpcqi-optiga-trust-charge/optiga/externals/mbedtls/library\x509_crt.c ****     *size = n;
 3259              	 .loc 2 1428 0
 3260 00b2 BB68     	 ldr r3,[r7,#8]
 3261 00b4 3A6A     	 ldr r2,[r7,#32]
 3262 00b6 1A60     	 str r2,[r3]
1429:C:/Users/Yushev/git/wpcqi-optiga-trust-charge/optiga/externals/mbedtls/library\x509_crt.c ****     *buf = p;
 3263              	 .loc 2 1429 0
 3264 00b8 FB68     	 ldr r3,[r7,#12]
 3265 00ba FA69     	 ldr r2,[r7,#28]
 3266 00bc 1A60     	 str r2,[r3]
1430:C:/Users/Yushev/git/wpcqi-optiga-trust-charge/optiga/externals/mbedtls/library\x509_crt.c **** 
1431:C:/Users/Yushev/git/wpcqi-optiga-trust-charge/optiga/externals/mbedtls/library\x509_crt.c ****     return( 0 );
 3267              	 .loc 2 1431 0
 3268 00be 0023     	 movs r3,#0
 3269              	.L221:
1432:C:/Users/Yushev/git/wpcqi-optiga-trust-charge/optiga/externals/mbedtls/library\x509_crt.c **** }
 3270              	 .loc 2 1432 0
 3271 00c0 1846     	 mov r0,r3
 3272 00c2 2C37     	 adds r7,r7,#44
 3273              	.LCFI113:
 3274              	 .cfi_def_cfa_offset 4
 3275 00c4 BD46     	 mov sp,r7
 3276              	.LCFI114:
 3277              	 .cfi_def_cfa_register 13
 3278              	 
 3279 00c6 5DF8047B 	 ldr r7,[sp],#4
 3280              	.LCFI115:
 3281              	 .cfi_restore 7
 3282              	 .cfi_def_cfa_offset 0
 3283 00ca 7047     	 bx lr
 3284              	.L228:
 3285              	 .align 2
 3286              	.L227:
 3287 00cc 00000000 	 .word .LC0
 3288 00d0 80D6FFFF 	 .word -10624
 3289 00d4 04000000 	 .word .LC1
 3290              	 .cfi_endproc
 3291              	.LFE29:
 3293              	 .section .rodata
 3294 0007 00       	 .align 2
 3295              	.LC2:
 3296 0008 25735353 	 .ascii "%sSSL Client\000"
 3296      4C20436C 
 3296      69656E74 
 3296      00
 3297 0015 000000   	 .align 2
 3298              	.LC3:
 3299 0018 25735353 	 .ascii "%sSSL Server\000"
 3299      4C205365 
 3299      72766572 
 3299      00
 3300 0025 000000   	 .align 2
 3301              	.LC4:
 3302 0028 2573456D 	 .ascii "%sEmail\000"
 3302      61696C00 
 3303              	 .align 2
 3304              	.LC5:
 3305 0030 25734F62 	 .ascii "%sObject Signing\000"
 3305      6A656374 
 3305      20536967 
 3305      6E696E67 
 3305      00
 3306 0041 000000   	 .align 2
 3307              	.LC6:
 3308 0044 25735265 	 .ascii "%sReserved\000"
 3308      73657276 
 3308      656400
 3309 004f 00       	 .align 2
 3310              	.LC7:
 3311 0050 25735353 	 .ascii "%sSSL CA\000"
 3311      4C204341 
 3311      00
 3312 0059 000000   	 .align 2
 3313              	.LC8:
 3314 005c 2573456D 	 .ascii "%sEmail CA\000"
 3314      61696C20 
 3314      434100
 3315 0067 00       	 .align 2
 3316              	.LC9:
 3317 0068 25734F62 	 .ascii "%sObject Signing CA\000"
 3317      6A656374 
 3317      20536967 
 3317      6E696E67 
 3317      20434100 
 3318              	 .section .text.x509_info_cert_type,"ax",%progbits
 3319              	 .align 2
 3320              	 .thumb
 3321              	 .thumb_func
 3323              	x509_info_cert_type:
 3324              	.LFB30:
1433:C:/Users/Yushev/git/wpcqi-optiga-trust-charge/optiga/externals/mbedtls/library\x509_crt.c **** 
1434:C:/Users/Yushev/git/wpcqi-optiga-trust-charge/optiga/externals/mbedtls/library\x509_crt.c **** #define PRINT_ITEM(i)                           \
1435:C:/Users/Yushev/git/wpcqi-optiga-trust-charge/optiga/externals/mbedtls/library\x509_crt.c ****     {                                           \
1436:C:/Users/Yushev/git/wpcqi-optiga-trust-charge/optiga/externals/mbedtls/library\x509_crt.c ****         ret = mbedtls_snprintf( p, n, "%s" i, sep );    \
1437:C:/Users/Yushev/git/wpcqi-optiga-trust-charge/optiga/externals/mbedtls/library\x509_crt.c ****         MBEDTLS_X509_SAFE_SNPRINTF;                        \
1438:C:/Users/Yushev/git/wpcqi-optiga-trust-charge/optiga/externals/mbedtls/library\x509_crt.c ****         sep = ", ";                             \
1439:C:/Users/Yushev/git/wpcqi-optiga-trust-charge/optiga/externals/mbedtls/library\x509_crt.c ****     }
1440:C:/Users/Yushev/git/wpcqi-optiga-trust-charge/optiga/externals/mbedtls/library\x509_crt.c **** 
1441:C:/Users/Yushev/git/wpcqi-optiga-trust-charge/optiga/externals/mbedtls/library\x509_crt.c **** #define CERT_TYPE(type,name)                    \
1442:C:/Users/Yushev/git/wpcqi-optiga-trust-charge/optiga/externals/mbedtls/library\x509_crt.c ****     if( ns_cert_type & type )                   \
1443:C:/Users/Yushev/git/wpcqi-optiga-trust-charge/optiga/externals/mbedtls/library\x509_crt.c ****         PRINT_ITEM( name );
1444:C:/Users/Yushev/git/wpcqi-optiga-trust-charge/optiga/externals/mbedtls/library\x509_crt.c **** 
1445:C:/Users/Yushev/git/wpcqi-optiga-trust-charge/optiga/externals/mbedtls/library\x509_crt.c **** static int x509_info_cert_type( char **buf, size_t *size,
1446:C:/Users/Yushev/git/wpcqi-optiga-trust-charge/optiga/externals/mbedtls/library\x509_crt.c ****                                 unsigned char ns_cert_type )
1447:C:/Users/Yushev/git/wpcqi-optiga-trust-charge/optiga/externals/mbedtls/library\x509_crt.c **** {
 3325              	 .loc 2 1447 0
 3326              	 .cfi_startproc
 3327              	 
 3328              	 
 3329 0000 80B5     	 push {r7,lr}
 3330              	.LCFI116:
 3331              	 .cfi_def_cfa_offset 8
 3332              	 .cfi_offset 7,-8
 3333              	 .cfi_offset 14,-4
 3334 0002 88B0     	 sub sp,sp,#32
 3335              	.LCFI117:
 3336              	 .cfi_def_cfa_offset 40
 3337 0004 00AF     	 add r7,sp,#0
 3338              	.LCFI118:
 3339              	 .cfi_def_cfa_register 7
 3340 0006 F860     	 str r0,[r7,#12]
 3341 0008 B960     	 str r1,[r7,#8]
 3342 000a 1346     	 mov r3,r2
 3343 000c FB71     	 strb r3,[r7,#7]
1448:C:/Users/Yushev/git/wpcqi-optiga-trust-charge/optiga/externals/mbedtls/library\x509_crt.c ****     int ret;
1449:C:/Users/Yushev/git/wpcqi-optiga-trust-charge/optiga/externals/mbedtls/library\x509_crt.c ****     size_t n = *size;
 3344              	 .loc 2 1449 0
 3345 000e BB68     	 ldr r3,[r7,#8]
 3346 0010 1B68     	 ldr r3,[r3]
 3347 0012 FB61     	 str r3,[r7,#28]
1450:C:/Users/Yushev/git/wpcqi-optiga-trust-charge/optiga/externals/mbedtls/library\x509_crt.c ****     char *p = *buf;
 3348              	 .loc 2 1450 0
 3349 0014 FB68     	 ldr r3,[r7,#12]
 3350 0016 1B68     	 ldr r3,[r3]
 3351 0018 BB61     	 str r3,[r7,#24]
1451:C:/Users/Yushev/git/wpcqi-optiga-trust-charge/optiga/externals/mbedtls/library\x509_crt.c ****     const char *sep = "";
 3352              	 .loc 2 1451 0
 3353 001a 824B     	 ldr r3,.L255
 3354 001c 7B61     	 str r3,[r7,#20]
1452:C:/Users/Yushev/git/wpcqi-optiga-trust-charge/optiga/externals/mbedtls/library\x509_crt.c **** 
1453:C:/Users/Yushev/git/wpcqi-optiga-trust-charge/optiga/externals/mbedtls/library\x509_crt.c ****     CERT_TYPE( MBEDTLS_X509_NS_CERT_TYPE_SSL_CLIENT,         "SSL Client" );
 3355              	 .loc 2 1453 0
 3356 001e FB79     	 ldrb r3,[r7,#7]
 3357 0020 5BB2     	 sxtb r3,r3
 3358 0022 002B     	 cmp r3,#0
 3359 0024 19DA     	 bge .L230
 3360              	 .loc 2 1453 0 is_stmt 0 discriminator 1
 3361 0026 B869     	 ldr r0,[r7,#24]
 3362 0028 F969     	 ldr r1,[r7,#28]
 3363 002a 7F4A     	 ldr r2,.L255+4
 3364 002c 7B69     	 ldr r3,[r7,#20]
 3365 002e FFF7FEFF 	 bl snprintf
 3366 0032 3861     	 str r0,[r7,#16]
 3367 0034 3B69     	 ldr r3,[r7,#16]
 3368 0036 002B     	 cmp r3,#0
 3369 0038 03DB     	 blt .L231
 3370              	 .loc 2 1453 0 discriminator 3
 3371 003a 3A69     	 ldr r2,[r7,#16]
 3372 003c FB69     	 ldr r3,[r7,#28]
 3373 003e 9A42     	 cmp r2,r3
 3374 0040 01D3     	 bcc .L232
 3375              	.L231:
 3376              	 .loc 2 1453 0 discriminator 4
 3377 0042 7A4B     	 ldr r3,.L255+8
 3378 0044 E9E0     	 b .L233
 3379              	.L232:
 3380              	 .loc 2 1453 0 discriminator 5
 3381 0046 3B69     	 ldr r3,[r7,#16]
 3382 0048 FA69     	 ldr r2,[r7,#28]
 3383 004a D31A     	 subs r3,r2,r3
 3384 004c FB61     	 str r3,[r7,#28]
 3385 004e 3B69     	 ldr r3,[r7,#16]
 3386 0050 BA69     	 ldr r2,[r7,#24]
 3387 0052 1344     	 add r3,r3,r2
 3388 0054 BB61     	 str r3,[r7,#24]
 3389 0056 764B     	 ldr r3,.L255+12
 3390 0058 7B61     	 str r3,[r7,#20]
 3391              	.L230:
1454:C:/Users/Yushev/git/wpcqi-optiga-trust-charge/optiga/externals/mbedtls/library\x509_crt.c ****     CERT_TYPE( MBEDTLS_X509_NS_CERT_TYPE_SSL_SERVER,         "SSL Server" );
 3392              	 .loc 2 1454 0 is_stmt 1
 3393 005a FB79     	 ldrb r3,[r7,#7]
 3394 005c 03F04003 	 and r3,r3,#64
 3395 0060 002B     	 cmp r3,#0
 3396 0062 19D0     	 beq .L234
 3397              	 .loc 2 1454 0 is_stmt 0 discriminator 1
 3398 0064 B869     	 ldr r0,[r7,#24]
 3399 0066 F969     	 ldr r1,[r7,#28]
 3400 0068 724A     	 ldr r2,.L255+16
 3401 006a 7B69     	 ldr r3,[r7,#20]
 3402 006c FFF7FEFF 	 bl snprintf
 3403 0070 3861     	 str r0,[r7,#16]
 3404 0072 3B69     	 ldr r3,[r7,#16]
 3405 0074 002B     	 cmp r3,#0
 3406 0076 03DB     	 blt .L235
 3407              	 .loc 2 1454 0 discriminator 3
 3408 0078 3A69     	 ldr r2,[r7,#16]
 3409 007a FB69     	 ldr r3,[r7,#28]
 3410 007c 9A42     	 cmp r2,r3
 3411 007e 01D3     	 bcc .L236
 3412              	.L235:
 3413              	 .loc 2 1454 0 discriminator 4
 3414 0080 6A4B     	 ldr r3,.L255+8
 3415 0082 CAE0     	 b .L233
 3416              	.L236:
 3417              	 .loc 2 1454 0 discriminator 5
 3418 0084 3B69     	 ldr r3,[r7,#16]
 3419 0086 FA69     	 ldr r2,[r7,#28]
 3420 0088 D31A     	 subs r3,r2,r3
 3421 008a FB61     	 str r3,[r7,#28]
 3422 008c 3B69     	 ldr r3,[r7,#16]
 3423 008e BA69     	 ldr r2,[r7,#24]
 3424 0090 1344     	 add r3,r3,r2
 3425 0092 BB61     	 str r3,[r7,#24]
 3426 0094 664B     	 ldr r3,.L255+12
 3427 0096 7B61     	 str r3,[r7,#20]
 3428              	.L234:
1455:C:/Users/Yushev/git/wpcqi-optiga-trust-charge/optiga/externals/mbedtls/library\x509_crt.c ****     CERT_TYPE( MBEDTLS_X509_NS_CERT_TYPE_EMAIL,              "Email" );
 3429              	 .loc 2 1455 0 is_stmt 1
 3430 0098 FB79     	 ldrb r3,[r7,#7]
 3431 009a 03F02003 	 and r3,r3,#32
 3432 009e 002B     	 cmp r3,#0
 3433 00a0 19D0     	 beq .L237
 3434              	 .loc 2 1455 0 is_stmt 0 discriminator 1
 3435 00a2 B869     	 ldr r0,[r7,#24]
 3436 00a4 F969     	 ldr r1,[r7,#28]
 3437 00a6 644A     	 ldr r2,.L255+20
 3438 00a8 7B69     	 ldr r3,[r7,#20]
 3439 00aa FFF7FEFF 	 bl snprintf
 3440 00ae 3861     	 str r0,[r7,#16]
 3441 00b0 3B69     	 ldr r3,[r7,#16]
 3442 00b2 002B     	 cmp r3,#0
 3443 00b4 03DB     	 blt .L238
 3444              	 .loc 2 1455 0 discriminator 3
 3445 00b6 3A69     	 ldr r2,[r7,#16]
 3446 00b8 FB69     	 ldr r3,[r7,#28]
 3447 00ba 9A42     	 cmp r2,r3
 3448 00bc 01D3     	 bcc .L239
 3449              	.L238:
 3450              	 .loc 2 1455 0 discriminator 4
 3451 00be 5B4B     	 ldr r3,.L255+8
 3452 00c0 ABE0     	 b .L233
 3453              	.L239:
 3454              	 .loc 2 1455 0 discriminator 5
 3455 00c2 3B69     	 ldr r3,[r7,#16]
 3456 00c4 FA69     	 ldr r2,[r7,#28]
 3457 00c6 D31A     	 subs r3,r2,r3
 3458 00c8 FB61     	 str r3,[r7,#28]
 3459 00ca 3B69     	 ldr r3,[r7,#16]
 3460 00cc BA69     	 ldr r2,[r7,#24]
 3461 00ce 1344     	 add r3,r3,r2
 3462 00d0 BB61     	 str r3,[r7,#24]
 3463 00d2 574B     	 ldr r3,.L255+12
 3464 00d4 7B61     	 str r3,[r7,#20]
 3465              	.L237:
1456:C:/Users/Yushev/git/wpcqi-optiga-trust-charge/optiga/externals/mbedtls/library\x509_crt.c ****     CERT_TYPE( MBEDTLS_X509_NS_CERT_TYPE_OBJECT_SIGNING,     "Object Signing" );
 3466              	 .loc 2 1456 0 is_stmt 1
 3467 00d6 FB79     	 ldrb r3,[r7,#7]
 3468 00d8 03F01003 	 and r3,r3,#16
 3469 00dc 002B     	 cmp r3,#0
 3470 00de 19D0     	 beq .L240
 3471              	 .loc 2 1456 0 is_stmt 0 discriminator 1
 3472 00e0 B869     	 ldr r0,[r7,#24]
 3473 00e2 F969     	 ldr r1,[r7,#28]
 3474 00e4 554A     	 ldr r2,.L255+24
 3475 00e6 7B69     	 ldr r3,[r7,#20]
 3476 00e8 FFF7FEFF 	 bl snprintf
 3477 00ec 3861     	 str r0,[r7,#16]
 3478 00ee 3B69     	 ldr r3,[r7,#16]
 3479 00f0 002B     	 cmp r3,#0
 3480 00f2 03DB     	 blt .L241
 3481              	 .loc 2 1456 0 discriminator 3
 3482 00f4 3A69     	 ldr r2,[r7,#16]
 3483 00f6 FB69     	 ldr r3,[r7,#28]
 3484 00f8 9A42     	 cmp r2,r3
 3485 00fa 01D3     	 bcc .L242
 3486              	.L241:
 3487              	 .loc 2 1456 0 discriminator 4
 3488 00fc 4B4B     	 ldr r3,.L255+8
 3489 00fe 8CE0     	 b .L233
 3490              	.L242:
 3491              	 .loc 2 1456 0 discriminator 5
 3492 0100 3B69     	 ldr r3,[r7,#16]
 3493 0102 FA69     	 ldr r2,[r7,#28]
 3494 0104 D31A     	 subs r3,r2,r3
 3495 0106 FB61     	 str r3,[r7,#28]
 3496 0108 3B69     	 ldr r3,[r7,#16]
 3497 010a BA69     	 ldr r2,[r7,#24]
 3498 010c 1344     	 add r3,r3,r2
 3499 010e BB61     	 str r3,[r7,#24]
 3500 0110 474B     	 ldr r3,.L255+12
 3501 0112 7B61     	 str r3,[r7,#20]
 3502              	.L240:
1457:C:/Users/Yushev/git/wpcqi-optiga-trust-charge/optiga/externals/mbedtls/library\x509_crt.c ****     CERT_TYPE( MBEDTLS_X509_NS_CERT_TYPE_RESERVED,           "Reserved" );
 3503              	 .loc 2 1457 0 is_stmt 1
 3504 0114 FB79     	 ldrb r3,[r7,#7]
 3505 0116 03F00803 	 and r3,r3,#8
 3506 011a 002B     	 cmp r3,#0
 3507 011c 19D0     	 beq .L243
 3508              	 .loc 2 1457 0 is_stmt 0 discriminator 1
 3509 011e B869     	 ldr r0,[r7,#24]
 3510 0120 F969     	 ldr r1,[r7,#28]
 3511 0122 474A     	 ldr r2,.L255+28
 3512 0124 7B69     	 ldr r3,[r7,#20]
 3513 0126 FFF7FEFF 	 bl snprintf
 3514 012a 3861     	 str r0,[r7,#16]
 3515 012c 3B69     	 ldr r3,[r7,#16]
 3516 012e 002B     	 cmp r3,#0
 3517 0130 03DB     	 blt .L244
 3518              	 .loc 2 1457 0 discriminator 3
 3519 0132 3A69     	 ldr r2,[r7,#16]
 3520 0134 FB69     	 ldr r3,[r7,#28]
 3521 0136 9A42     	 cmp r2,r3
 3522 0138 01D3     	 bcc .L245
 3523              	.L244:
 3524              	 .loc 2 1457 0 discriminator 4
 3525 013a 3C4B     	 ldr r3,.L255+8
 3526 013c 6DE0     	 b .L233
 3527              	.L245:
 3528              	 .loc 2 1457 0 discriminator 5
 3529 013e 3B69     	 ldr r3,[r7,#16]
 3530 0140 FA69     	 ldr r2,[r7,#28]
 3531 0142 D31A     	 subs r3,r2,r3
 3532 0144 FB61     	 str r3,[r7,#28]
 3533 0146 3B69     	 ldr r3,[r7,#16]
 3534 0148 BA69     	 ldr r2,[r7,#24]
 3535 014a 1344     	 add r3,r3,r2
 3536 014c BB61     	 str r3,[r7,#24]
 3537 014e 384B     	 ldr r3,.L255+12
 3538 0150 7B61     	 str r3,[r7,#20]
 3539              	.L243:
1458:C:/Users/Yushev/git/wpcqi-optiga-trust-charge/optiga/externals/mbedtls/library\x509_crt.c ****     CERT_TYPE( MBEDTLS_X509_NS_CERT_TYPE_SSL_CA,             "SSL CA" );
 3540              	 .loc 2 1458 0 is_stmt 1
 3541 0152 FB79     	 ldrb r3,[r7,#7]
 3542 0154 03F00403 	 and r3,r3,#4
 3543 0158 002B     	 cmp r3,#0
 3544 015a 19D0     	 beq .L246
 3545              	 .loc 2 1458 0 is_stmt 0 discriminator 1
 3546 015c B869     	 ldr r0,[r7,#24]
 3547 015e F969     	 ldr r1,[r7,#28]
 3548 0160 384A     	 ldr r2,.L255+32
 3549 0162 7B69     	 ldr r3,[r7,#20]
 3550 0164 FFF7FEFF 	 bl snprintf
 3551 0168 3861     	 str r0,[r7,#16]
 3552 016a 3B69     	 ldr r3,[r7,#16]
 3553 016c 002B     	 cmp r3,#0
 3554 016e 03DB     	 blt .L247
 3555              	 .loc 2 1458 0 discriminator 3
 3556 0170 3A69     	 ldr r2,[r7,#16]
 3557 0172 FB69     	 ldr r3,[r7,#28]
 3558 0174 9A42     	 cmp r2,r3
 3559 0176 01D3     	 bcc .L248
 3560              	.L247:
 3561              	 .loc 2 1458 0 discriminator 4
 3562 0178 2C4B     	 ldr r3,.L255+8
 3563 017a 4EE0     	 b .L233
 3564              	.L248:
 3565              	 .loc 2 1458 0 discriminator 5
 3566 017c 3B69     	 ldr r3,[r7,#16]
 3567 017e FA69     	 ldr r2,[r7,#28]
 3568 0180 D31A     	 subs r3,r2,r3
 3569 0182 FB61     	 str r3,[r7,#28]
 3570 0184 3B69     	 ldr r3,[r7,#16]
 3571 0186 BA69     	 ldr r2,[r7,#24]
 3572 0188 1344     	 add r3,r3,r2
 3573 018a BB61     	 str r3,[r7,#24]
 3574 018c 284B     	 ldr r3,.L255+12
 3575 018e 7B61     	 str r3,[r7,#20]
 3576              	.L246:
1459:C:/Users/Yushev/git/wpcqi-optiga-trust-charge/optiga/externals/mbedtls/library\x509_crt.c ****     CERT_TYPE( MBEDTLS_X509_NS_CERT_TYPE_EMAIL_CA,           "Email CA" );
 3577              	 .loc 2 1459 0 is_stmt 1
 3578 0190 FB79     	 ldrb r3,[r7,#7]
 3579 0192 03F00203 	 and r3,r3,#2
 3580 0196 002B     	 cmp r3,#0
 3581 0198 19D0     	 beq .L249
 3582              	 .loc 2 1459 0 is_stmt 0 discriminator 1
 3583 019a B869     	 ldr r0,[r7,#24]
 3584 019c F969     	 ldr r1,[r7,#28]
 3585 019e 2A4A     	 ldr r2,.L255+36
 3586 01a0 7B69     	 ldr r3,[r7,#20]
 3587 01a2 FFF7FEFF 	 bl snprintf
 3588 01a6 3861     	 str r0,[r7,#16]
 3589 01a8 3B69     	 ldr r3,[r7,#16]
 3590 01aa 002B     	 cmp r3,#0
 3591 01ac 03DB     	 blt .L250
 3592              	 .loc 2 1459 0 discriminator 3
 3593 01ae 3A69     	 ldr r2,[r7,#16]
 3594 01b0 FB69     	 ldr r3,[r7,#28]
 3595 01b2 9A42     	 cmp r2,r3
 3596 01b4 01D3     	 bcc .L251
 3597              	.L250:
 3598              	 .loc 2 1459 0 discriminator 4
 3599 01b6 1D4B     	 ldr r3,.L255+8
 3600 01b8 2FE0     	 b .L233
 3601              	.L251:
 3602              	 .loc 2 1459 0 discriminator 5
 3603 01ba 3B69     	 ldr r3,[r7,#16]
 3604 01bc FA69     	 ldr r2,[r7,#28]
 3605 01be D31A     	 subs r3,r2,r3
 3606 01c0 FB61     	 str r3,[r7,#28]
 3607 01c2 3B69     	 ldr r3,[r7,#16]
 3608 01c4 BA69     	 ldr r2,[r7,#24]
 3609 01c6 1344     	 add r3,r3,r2
 3610 01c8 BB61     	 str r3,[r7,#24]
 3611 01ca 194B     	 ldr r3,.L255+12
 3612 01cc 7B61     	 str r3,[r7,#20]
 3613              	.L249:
1460:C:/Users/Yushev/git/wpcqi-optiga-trust-charge/optiga/externals/mbedtls/library\x509_crt.c ****     CERT_TYPE( MBEDTLS_X509_NS_CERT_TYPE_OBJECT_SIGNING_CA,  "Object Signing CA" );
 3614              	 .loc 2 1460 0 is_stmt 1
 3615 01ce FB79     	 ldrb r3,[r7,#7]
 3616 01d0 03F00103 	 and r3,r3,#1
 3617 01d4 002B     	 cmp r3,#0
 3618 01d6 19D0     	 beq .L252
 3619              	 .loc 2 1460 0 is_stmt 0 discriminator 1
 3620 01d8 B869     	 ldr r0,[r7,#24]
 3621 01da F969     	 ldr r1,[r7,#28]
 3622 01dc 1B4A     	 ldr r2,.L255+40
 3623 01de 7B69     	 ldr r3,[r7,#20]
 3624 01e0 FFF7FEFF 	 bl snprintf
 3625 01e4 3861     	 str r0,[r7,#16]
 3626 01e6 3B69     	 ldr r3,[r7,#16]
 3627 01e8 002B     	 cmp r3,#0
 3628 01ea 03DB     	 blt .L253
 3629              	 .loc 2 1460 0 discriminator 3
 3630 01ec 3A69     	 ldr r2,[r7,#16]
 3631 01ee FB69     	 ldr r3,[r7,#28]
 3632 01f0 9A42     	 cmp r2,r3
 3633 01f2 01D3     	 bcc .L254
 3634              	.L253:
 3635              	 .loc 2 1460 0 discriminator 4
 3636 01f4 0D4B     	 ldr r3,.L255+8
 3637 01f6 10E0     	 b .L233
 3638              	.L254:
 3639              	 .loc 2 1460 0 discriminator 5
 3640 01f8 3B69     	 ldr r3,[r7,#16]
 3641 01fa FA69     	 ldr r2,[r7,#28]
 3642 01fc D31A     	 subs r3,r2,r3
 3643 01fe FB61     	 str r3,[r7,#28]
 3644 0200 3B69     	 ldr r3,[r7,#16]
 3645 0202 BA69     	 ldr r2,[r7,#24]
 3646 0204 1344     	 add r3,r3,r2
 3647 0206 BB61     	 str r3,[r7,#24]
 3648 0208 094B     	 ldr r3,.L255+12
 3649 020a 7B61     	 str r3,[r7,#20]
 3650              	.L252:
1461:C:/Users/Yushev/git/wpcqi-optiga-trust-charge/optiga/externals/mbedtls/library\x509_crt.c **** 
1462:C:/Users/Yushev/git/wpcqi-optiga-trust-charge/optiga/externals/mbedtls/library\x509_crt.c ****     *size = n;
 3651              	 .loc 2 1462 0 is_stmt 1
 3652 020c BB68     	 ldr r3,[r7,#8]
 3653 020e FA69     	 ldr r2,[r7,#28]
 3654 0210 1A60     	 str r2,[r3]
1463:C:/Users/Yushev/git/wpcqi-optiga-trust-charge/optiga/externals/mbedtls/library\x509_crt.c ****     *buf = p;
 3655              	 .loc 2 1463 0
 3656 0212 FB68     	 ldr r3,[r7,#12]
 3657 0214 BA69     	 ldr r2,[r7,#24]
 3658 0216 1A60     	 str r2,[r3]
1464:C:/Users/Yushev/git/wpcqi-optiga-trust-charge/optiga/externals/mbedtls/library\x509_crt.c **** 
1465:C:/Users/Yushev/git/wpcqi-optiga-trust-charge/optiga/externals/mbedtls/library\x509_crt.c ****     return( 0 );
 3659              	 .loc 2 1465 0
 3660 0218 0023     	 movs r3,#0
 3661              	.L233:
1466:C:/Users/Yushev/git/wpcqi-optiga-trust-charge/optiga/externals/mbedtls/library\x509_crt.c **** }
 3662              	 .loc 2 1466 0
 3663 021a 1846     	 mov r0,r3
 3664 021c 2037     	 adds r7,r7,#32
 3665              	.LCFI119:
 3666              	 .cfi_def_cfa_offset 8
 3667 021e BD46     	 mov sp,r7
 3668              	.LCFI120:
 3669              	 .cfi_def_cfa_register 13
 3670              	 
 3671 0220 80BD     	 pop {r7,pc}
 3672              	.L256:
 3673 0222 00BF     	 .align 2
 3674              	.L255:
 3675 0224 00000000 	 .word .LC0
 3676 0228 08000000 	 .word .LC2
 3677 022c 80D6FFFF 	 .word -10624
 3678 0230 04000000 	 .word .LC1
 3679 0234 18000000 	 .word .LC3
 3680 0238 28000000 	 .word .LC4
 3681 023c 30000000 	 .word .LC5
 3682 0240 44000000 	 .word .LC6
 3683 0244 50000000 	 .word .LC7
 3684 0248 5C000000 	 .word .LC8
 3685 024c 68000000 	 .word .LC9
 3686              	 .cfi_endproc
 3687              	.LFE30:
 3689              	 .section .rodata
 3690              	 .align 2
 3691              	.LC10:
 3692 007c 25734469 	 .ascii "%sDigital Signature\000"
 3692      67697461 
 3692      6C205369 
 3692      676E6174 
 3692      75726500 
 3693              	 .align 2
 3694              	.LC11:
 3695 0090 25734E6F 	 .ascii "%sNon Repudiation\000"
 3695      6E205265 
 3695      70756469 
 3695      6174696F 
 3695      6E00
 3696 00a2 0000     	 .align 2
 3697              	.LC12:
 3698 00a4 25734B65 	 .ascii "%sKey Encipherment\000"
 3698      7920456E 
 3698      63697068 
 3698      65726D65 
 3698      6E7400
 3699 00b7 00       	 .align 2
 3700              	.LC13:
 3701 00b8 25734461 	 .ascii "%sData Encipherment\000"
 3701      74612045 
 3701      6E636970 
 3701      6865726D 
 3701      656E7400 
 3702              	 .align 2
 3703              	.LC14:
 3704 00cc 25734B65 	 .ascii "%sKey Agreement\000"
 3704      79204167 
 3704      7265656D 
 3704      656E7400 
 3705              	 .align 2
 3706              	.LC15:
 3707 00dc 25734B65 	 .ascii "%sKey Cert Sign\000"
 3707      79204365 
 3707      72742053 
 3707      69676E00 
 3708              	 .align 2
 3709              	.LC16:
 3710 00ec 25734352 	 .ascii "%sCRL Sign\000"
 3710      4C205369 
 3710      676E00
 3711 00f7 00       	 .align 2
 3712              	.LC17:
 3713 00f8 2573456E 	 .ascii "%sEncipher Only\000"
 3713      63697068 
 3713      6572204F 
 3713      6E6C7900 
 3714              	 .align 2
 3715              	.LC18:
 3716 0108 25734465 	 .ascii "%sDecipher Only\000"
 3716      63697068 
 3716      6572204F 
 3716      6E6C7900 
 3717              	 .section .text.x509_info_key_usage,"ax",%progbits
 3718              	 .align 2
 3719              	 .thumb
 3720              	 .thumb_func
 3722              	x509_info_key_usage:
 3723              	.LFB31:
1467:C:/Users/Yushev/git/wpcqi-optiga-trust-charge/optiga/externals/mbedtls/library\x509_crt.c **** 
1468:C:/Users/Yushev/git/wpcqi-optiga-trust-charge/optiga/externals/mbedtls/library\x509_crt.c **** #define KEY_USAGE(code,name)    \
1469:C:/Users/Yushev/git/wpcqi-optiga-trust-charge/optiga/externals/mbedtls/library\x509_crt.c ****     if( key_usage & code )      \
1470:C:/Users/Yushev/git/wpcqi-optiga-trust-charge/optiga/externals/mbedtls/library\x509_crt.c ****         PRINT_ITEM( name );
1471:C:/Users/Yushev/git/wpcqi-optiga-trust-charge/optiga/externals/mbedtls/library\x509_crt.c **** 
1472:C:/Users/Yushev/git/wpcqi-optiga-trust-charge/optiga/externals/mbedtls/library\x509_crt.c **** static int x509_info_key_usage( char **buf, size_t *size,
1473:C:/Users/Yushev/git/wpcqi-optiga-trust-charge/optiga/externals/mbedtls/library\x509_crt.c ****                                 unsigned int key_usage )
1474:C:/Users/Yushev/git/wpcqi-optiga-trust-charge/optiga/externals/mbedtls/library\x509_crt.c **** {
 3724              	 .loc 2 1474 0
 3725              	 .cfi_startproc
 3726              	 
 3727              	 
 3728 0000 80B5     	 push {r7,lr}
 3729              	.LCFI121:
 3730              	 .cfi_def_cfa_offset 8
 3731              	 .cfi_offset 7,-8
 3732              	 .cfi_offset 14,-4
 3733 0002 88B0     	 sub sp,sp,#32
 3734              	.LCFI122:
 3735              	 .cfi_def_cfa_offset 40
 3736 0004 00AF     	 add r7,sp,#0
 3737              	.LCFI123:
 3738              	 .cfi_def_cfa_register 7
 3739 0006 F860     	 str r0,[r7,#12]
 3740 0008 B960     	 str r1,[r7,#8]
 3741 000a 7A60     	 str r2,[r7,#4]
1475:C:/Users/Yushev/git/wpcqi-optiga-trust-charge/optiga/externals/mbedtls/library\x509_crt.c ****     int ret;
1476:C:/Users/Yushev/git/wpcqi-optiga-trust-charge/optiga/externals/mbedtls/library\x509_crt.c ****     size_t n = *size;
 3742              	 .loc 2 1476 0
 3743 000c BB68     	 ldr r3,[r7,#8]
 3744 000e 1B68     	 ldr r3,[r3]
 3745 0010 FB61     	 str r3,[r7,#28]
1477:C:/Users/Yushev/git/wpcqi-optiga-trust-charge/optiga/externals/mbedtls/library\x509_crt.c ****     char *p = *buf;
 3746              	 .loc 2 1477 0
 3747 0012 FB68     	 ldr r3,[r7,#12]
 3748 0014 1B68     	 ldr r3,[r3]
 3749 0016 BB61     	 str r3,[r7,#24]
1478:C:/Users/Yushev/git/wpcqi-optiga-trust-charge/optiga/externals/mbedtls/library\x509_crt.c ****     const char *sep = "";
 3750              	 .loc 2 1478 0
 3751 0018 914B     	 ldr r3,.L286
 3752 001a 7B61     	 str r3,[r7,#20]
1479:C:/Users/Yushev/git/wpcqi-optiga-trust-charge/optiga/externals/mbedtls/library\x509_crt.c **** 
1480:C:/Users/Yushev/git/wpcqi-optiga-trust-charge/optiga/externals/mbedtls/library\x509_crt.c ****     KEY_USAGE( MBEDTLS_X509_KU_DIGITAL_SIGNATURE,    "Digital Signature" );
 3753              	 .loc 2 1480 0
 3754 001c 7B68     	 ldr r3,[r7,#4]
 3755 001e 03F08003 	 and r3,r3,#128
 3756 0022 002B     	 cmp r3,#0
 3757 0024 19D0     	 beq .L258
 3758              	 .loc 2 1480 0 is_stmt 0 discriminator 1
 3759 0026 B869     	 ldr r0,[r7,#24]
 3760 0028 F969     	 ldr r1,[r7,#28]
 3761 002a 8E4A     	 ldr r2,.L286+4
 3762 002c 7B69     	 ldr r3,[r7,#20]
 3763 002e FFF7FEFF 	 bl snprintf
 3764 0032 3861     	 str r0,[r7,#16]
 3765 0034 3B69     	 ldr r3,[r7,#16]
 3766 0036 002B     	 cmp r3,#0
 3767 0038 03DB     	 blt .L259
 3768              	 .loc 2 1480 0 discriminator 3
 3769 003a 3A69     	 ldr r2,[r7,#16]
 3770 003c FB69     	 ldr r3,[r7,#28]
 3771 003e 9A42     	 cmp r2,r3
 3772 0040 01D3     	 bcc .L260
 3773              	.L259:
 3774              	 .loc 2 1480 0 discriminator 4
 3775 0042 894B     	 ldr r3,.L286+8
 3776 0044 08E1     	 b .L261
 3777              	.L260:
 3778              	 .loc 2 1480 0 discriminator 5
 3779 0046 3B69     	 ldr r3,[r7,#16]
 3780 0048 FA69     	 ldr r2,[r7,#28]
 3781 004a D31A     	 subs r3,r2,r3
 3782 004c FB61     	 str r3,[r7,#28]
 3783 004e 3B69     	 ldr r3,[r7,#16]
 3784 0050 BA69     	 ldr r2,[r7,#24]
 3785 0052 1344     	 add r3,r3,r2
 3786 0054 BB61     	 str r3,[r7,#24]
 3787 0056 854B     	 ldr r3,.L286+12
 3788 0058 7B61     	 str r3,[r7,#20]
 3789              	.L258:
1481:C:/Users/Yushev/git/wpcqi-optiga-trust-charge/optiga/externals/mbedtls/library\x509_crt.c ****     KEY_USAGE( MBEDTLS_X509_KU_NON_REPUDIATION,      "Non Repudiation" );
 3790              	 .loc 2 1481 0 is_stmt 1
 3791 005a 7B68     	 ldr r3,[r7,#4]
 3792 005c 03F04003 	 and r3,r3,#64
 3793 0060 002B     	 cmp r3,#0
 3794 0062 19D0     	 beq .L262
 3795              	 .loc 2 1481 0 is_stmt 0 discriminator 1
 3796 0064 B869     	 ldr r0,[r7,#24]
 3797 0066 F969     	 ldr r1,[r7,#28]
 3798 0068 814A     	 ldr r2,.L286+16
 3799 006a 7B69     	 ldr r3,[r7,#20]
 3800 006c FFF7FEFF 	 bl snprintf
 3801 0070 3861     	 str r0,[r7,#16]
 3802 0072 3B69     	 ldr r3,[r7,#16]
 3803 0074 002B     	 cmp r3,#0
 3804 0076 03DB     	 blt .L263
 3805              	 .loc 2 1481 0 discriminator 3
 3806 0078 3A69     	 ldr r2,[r7,#16]
 3807 007a FB69     	 ldr r3,[r7,#28]
 3808 007c 9A42     	 cmp r2,r3
 3809 007e 01D3     	 bcc .L264
 3810              	.L263:
 3811              	 .loc 2 1481 0 discriminator 4
 3812 0080 794B     	 ldr r3,.L286+8
 3813 0082 E9E0     	 b .L261
 3814              	.L264:
 3815              	 .loc 2 1481 0 discriminator 5
 3816 0084 3B69     	 ldr r3,[r7,#16]
 3817 0086 FA69     	 ldr r2,[r7,#28]
 3818 0088 D31A     	 subs r3,r2,r3
 3819 008a FB61     	 str r3,[r7,#28]
 3820 008c 3B69     	 ldr r3,[r7,#16]
 3821 008e BA69     	 ldr r2,[r7,#24]
 3822 0090 1344     	 add r3,r3,r2
 3823 0092 BB61     	 str r3,[r7,#24]
 3824 0094 754B     	 ldr r3,.L286+12
 3825 0096 7B61     	 str r3,[r7,#20]
 3826              	.L262:
1482:C:/Users/Yushev/git/wpcqi-optiga-trust-charge/optiga/externals/mbedtls/library\x509_crt.c ****     KEY_USAGE( MBEDTLS_X509_KU_KEY_ENCIPHERMENT,     "Key Encipherment" );
 3827              	 .loc 2 1482 0 is_stmt 1
 3828 0098 7B68     	 ldr r3,[r7,#4]
 3829 009a 03F02003 	 and r3,r3,#32
 3830 009e 002B     	 cmp r3,#0
 3831 00a0 19D0     	 beq .L265
 3832              	 .loc 2 1482 0 is_stmt 0 discriminator 1
 3833 00a2 B869     	 ldr r0,[r7,#24]
 3834 00a4 F969     	 ldr r1,[r7,#28]
 3835 00a6 734A     	 ldr r2,.L286+20
 3836 00a8 7B69     	 ldr r3,[r7,#20]
 3837 00aa FFF7FEFF 	 bl snprintf
 3838 00ae 3861     	 str r0,[r7,#16]
 3839 00b0 3B69     	 ldr r3,[r7,#16]
 3840 00b2 002B     	 cmp r3,#0
 3841 00b4 03DB     	 blt .L266
 3842              	 .loc 2 1482 0 discriminator 3
 3843 00b6 3A69     	 ldr r2,[r7,#16]
 3844 00b8 FB69     	 ldr r3,[r7,#28]
 3845 00ba 9A42     	 cmp r2,r3
 3846 00bc 01D3     	 bcc .L267
 3847              	.L266:
 3848              	 .loc 2 1482 0 discriminator 4
 3849 00be 6A4B     	 ldr r3,.L286+8
 3850 00c0 CAE0     	 b .L261
 3851              	.L267:
 3852              	 .loc 2 1482 0 discriminator 5
 3853 00c2 3B69     	 ldr r3,[r7,#16]
 3854 00c4 FA69     	 ldr r2,[r7,#28]
 3855 00c6 D31A     	 subs r3,r2,r3
 3856 00c8 FB61     	 str r3,[r7,#28]
 3857 00ca 3B69     	 ldr r3,[r7,#16]
 3858 00cc BA69     	 ldr r2,[r7,#24]
 3859 00ce 1344     	 add r3,r3,r2
 3860 00d0 BB61     	 str r3,[r7,#24]
 3861 00d2 664B     	 ldr r3,.L286+12
 3862 00d4 7B61     	 str r3,[r7,#20]
 3863              	.L265:
1483:C:/Users/Yushev/git/wpcqi-optiga-trust-charge/optiga/externals/mbedtls/library\x509_crt.c ****     KEY_USAGE( MBEDTLS_X509_KU_DATA_ENCIPHERMENT,    "Data Encipherment" );
 3864              	 .loc 2 1483 0 is_stmt 1
 3865 00d6 7B68     	 ldr r3,[r7,#4]
 3866 00d8 03F01003 	 and r3,r3,#16
 3867 00dc 002B     	 cmp r3,#0
 3868 00de 19D0     	 beq .L268
 3869              	 .loc 2 1483 0 is_stmt 0 discriminator 1
 3870 00e0 B869     	 ldr r0,[r7,#24]
 3871 00e2 F969     	 ldr r1,[r7,#28]
 3872 00e4 644A     	 ldr r2,.L286+24
 3873 00e6 7B69     	 ldr r3,[r7,#20]
 3874 00e8 FFF7FEFF 	 bl snprintf
 3875 00ec 3861     	 str r0,[r7,#16]
 3876 00ee 3B69     	 ldr r3,[r7,#16]
 3877 00f0 002B     	 cmp r3,#0
 3878 00f2 03DB     	 blt .L269
 3879              	 .loc 2 1483 0 discriminator 3
 3880 00f4 3A69     	 ldr r2,[r7,#16]
 3881 00f6 FB69     	 ldr r3,[r7,#28]
 3882 00f8 9A42     	 cmp r2,r3
 3883 00fa 01D3     	 bcc .L270
 3884              	.L269:
 3885              	 .loc 2 1483 0 discriminator 4
 3886 00fc 5A4B     	 ldr r3,.L286+8
 3887 00fe ABE0     	 b .L261
 3888              	.L270:
 3889              	 .loc 2 1483 0 discriminator 5
 3890 0100 3B69     	 ldr r3,[r7,#16]
 3891 0102 FA69     	 ldr r2,[r7,#28]
 3892 0104 D31A     	 subs r3,r2,r3
 3893 0106 FB61     	 str r3,[r7,#28]
 3894 0108 3B69     	 ldr r3,[r7,#16]
 3895 010a BA69     	 ldr r2,[r7,#24]
 3896 010c 1344     	 add r3,r3,r2
 3897 010e BB61     	 str r3,[r7,#24]
 3898 0110 564B     	 ldr r3,.L286+12
 3899 0112 7B61     	 str r3,[r7,#20]
 3900              	.L268:
1484:C:/Users/Yushev/git/wpcqi-optiga-trust-charge/optiga/externals/mbedtls/library\x509_crt.c ****     KEY_USAGE( MBEDTLS_X509_KU_KEY_AGREEMENT,        "Key Agreement" );
 3901              	 .loc 2 1484 0 is_stmt 1
 3902 0114 7B68     	 ldr r3,[r7,#4]
 3903 0116 03F00803 	 and r3,r3,#8
 3904 011a 002B     	 cmp r3,#0
 3905 011c 19D0     	 beq .L271
 3906              	 .loc 2 1484 0 is_stmt 0 discriminator 1
 3907 011e B869     	 ldr r0,[r7,#24]
 3908 0120 F969     	 ldr r1,[r7,#28]
 3909 0122 564A     	 ldr r2,.L286+28
 3910 0124 7B69     	 ldr r3,[r7,#20]
 3911 0126 FFF7FEFF 	 bl snprintf
 3912 012a 3861     	 str r0,[r7,#16]
 3913 012c 3B69     	 ldr r3,[r7,#16]
 3914 012e 002B     	 cmp r3,#0
 3915 0130 03DB     	 blt .L272
 3916              	 .loc 2 1484 0 discriminator 3
 3917 0132 3A69     	 ldr r2,[r7,#16]
 3918 0134 FB69     	 ldr r3,[r7,#28]
 3919 0136 9A42     	 cmp r2,r3
 3920 0138 01D3     	 bcc .L273
 3921              	.L272:
 3922              	 .loc 2 1484 0 discriminator 4
 3923 013a 4B4B     	 ldr r3,.L286+8
 3924 013c 8CE0     	 b .L261
 3925              	.L273:
 3926              	 .loc 2 1484 0 discriminator 5
 3927 013e 3B69     	 ldr r3,[r7,#16]
 3928 0140 FA69     	 ldr r2,[r7,#28]
 3929 0142 D31A     	 subs r3,r2,r3
 3930 0144 FB61     	 str r3,[r7,#28]
 3931 0146 3B69     	 ldr r3,[r7,#16]
 3932 0148 BA69     	 ldr r2,[r7,#24]
 3933 014a 1344     	 add r3,r3,r2
 3934 014c BB61     	 str r3,[r7,#24]
 3935 014e 474B     	 ldr r3,.L286+12
 3936 0150 7B61     	 str r3,[r7,#20]
 3937              	.L271:
1485:C:/Users/Yushev/git/wpcqi-optiga-trust-charge/optiga/externals/mbedtls/library\x509_crt.c ****     KEY_USAGE( MBEDTLS_X509_KU_KEY_CERT_SIGN,        "Key Cert Sign" );
 3938              	 .loc 2 1485 0 is_stmt 1
 3939 0152 7B68     	 ldr r3,[r7,#4]
 3940 0154 03F00403 	 and r3,r3,#4
 3941 0158 002B     	 cmp r3,#0
 3942 015a 19D0     	 beq .L274
 3943              	 .loc 2 1485 0 is_stmt 0 discriminator 1
 3944 015c B869     	 ldr r0,[r7,#24]
 3945 015e F969     	 ldr r1,[r7,#28]
 3946 0160 474A     	 ldr r2,.L286+32
 3947 0162 7B69     	 ldr r3,[r7,#20]
 3948 0164 FFF7FEFF 	 bl snprintf
 3949 0168 3861     	 str r0,[r7,#16]
 3950 016a 3B69     	 ldr r3,[r7,#16]
 3951 016c 002B     	 cmp r3,#0
 3952 016e 03DB     	 blt .L275
 3953              	 .loc 2 1485 0 discriminator 3
 3954 0170 3A69     	 ldr r2,[r7,#16]
 3955 0172 FB69     	 ldr r3,[r7,#28]
 3956 0174 9A42     	 cmp r2,r3
 3957 0176 01D3     	 bcc .L276
 3958              	.L275:
 3959              	 .loc 2 1485 0 discriminator 4
 3960 0178 3B4B     	 ldr r3,.L286+8
 3961 017a 6DE0     	 b .L261
 3962              	.L276:
 3963              	 .loc 2 1485 0 discriminator 5
 3964 017c 3B69     	 ldr r3,[r7,#16]
 3965 017e FA69     	 ldr r2,[r7,#28]
 3966 0180 D31A     	 subs r3,r2,r3
 3967 0182 FB61     	 str r3,[r7,#28]
 3968 0184 3B69     	 ldr r3,[r7,#16]
 3969 0186 BA69     	 ldr r2,[r7,#24]
 3970 0188 1344     	 add r3,r3,r2
 3971 018a BB61     	 str r3,[r7,#24]
 3972 018c 374B     	 ldr r3,.L286+12
 3973 018e 7B61     	 str r3,[r7,#20]
 3974              	.L274:
1486:C:/Users/Yushev/git/wpcqi-optiga-trust-charge/optiga/externals/mbedtls/library\x509_crt.c ****     KEY_USAGE( MBEDTLS_X509_KU_CRL_SIGN,             "CRL Sign" );
 3975              	 .loc 2 1486 0 is_stmt 1
 3976 0190 7B68     	 ldr r3,[r7,#4]
 3977 0192 03F00203 	 and r3,r3,#2
 3978 0196 002B     	 cmp r3,#0
 3979 0198 19D0     	 beq .L277
 3980              	 .loc 2 1486 0 is_stmt 0 discriminator 1
 3981 019a B869     	 ldr r0,[r7,#24]
 3982 019c F969     	 ldr r1,[r7,#28]
 3983 019e 394A     	 ldr r2,.L286+36
 3984 01a0 7B69     	 ldr r3,[r7,#20]
 3985 01a2 FFF7FEFF 	 bl snprintf
 3986 01a6 3861     	 str r0,[r7,#16]
 3987 01a8 3B69     	 ldr r3,[r7,#16]
 3988 01aa 002B     	 cmp r3,#0
 3989 01ac 03DB     	 blt .L278
 3990              	 .loc 2 1486 0 discriminator 3
 3991 01ae 3A69     	 ldr r2,[r7,#16]
 3992 01b0 FB69     	 ldr r3,[r7,#28]
 3993 01b2 9A42     	 cmp r2,r3
 3994 01b4 01D3     	 bcc .L279
 3995              	.L278:
 3996              	 .loc 2 1486 0 discriminator 4
 3997 01b6 2C4B     	 ldr r3,.L286+8
 3998 01b8 4EE0     	 b .L261
 3999              	.L279:
 4000              	 .loc 2 1486 0 discriminator 5
 4001 01ba 3B69     	 ldr r3,[r7,#16]
 4002 01bc FA69     	 ldr r2,[r7,#28]
 4003 01be D31A     	 subs r3,r2,r3
 4004 01c0 FB61     	 str r3,[r7,#28]
 4005 01c2 3B69     	 ldr r3,[r7,#16]
 4006 01c4 BA69     	 ldr r2,[r7,#24]
 4007 01c6 1344     	 add r3,r3,r2
 4008 01c8 BB61     	 str r3,[r7,#24]
 4009 01ca 284B     	 ldr r3,.L286+12
 4010 01cc 7B61     	 str r3,[r7,#20]
 4011              	.L277:
1487:C:/Users/Yushev/git/wpcqi-optiga-trust-charge/optiga/externals/mbedtls/library\x509_crt.c ****     KEY_USAGE( MBEDTLS_X509_KU_ENCIPHER_ONLY,        "Encipher Only" );
 4012              	 .loc 2 1487 0 is_stmt 1
 4013 01ce 7B68     	 ldr r3,[r7,#4]
 4014 01d0 03F00103 	 and r3,r3,#1
 4015 01d4 002B     	 cmp r3,#0
 4016 01d6 19D0     	 beq .L280
 4017              	 .loc 2 1487 0 is_stmt 0 discriminator 1
 4018 01d8 B869     	 ldr r0,[r7,#24]
 4019 01da F969     	 ldr r1,[r7,#28]
 4020 01dc 2A4A     	 ldr r2,.L286+40
 4021 01de 7B69     	 ldr r3,[r7,#20]
 4022 01e0 FFF7FEFF 	 bl snprintf
 4023 01e4 3861     	 str r0,[r7,#16]
 4024 01e6 3B69     	 ldr r3,[r7,#16]
 4025 01e8 002B     	 cmp r3,#0
 4026 01ea 03DB     	 blt .L281
 4027              	 .loc 2 1487 0 discriminator 3
 4028 01ec 3A69     	 ldr r2,[r7,#16]
 4029 01ee FB69     	 ldr r3,[r7,#28]
 4030 01f0 9A42     	 cmp r2,r3
 4031 01f2 01D3     	 bcc .L282
 4032              	.L281:
 4033              	 .loc 2 1487 0 discriminator 4
 4034 01f4 1C4B     	 ldr r3,.L286+8
 4035 01f6 2FE0     	 b .L261
 4036              	.L282:
 4037              	 .loc 2 1487 0 discriminator 5
 4038 01f8 3B69     	 ldr r3,[r7,#16]
 4039 01fa FA69     	 ldr r2,[r7,#28]
 4040 01fc D31A     	 subs r3,r2,r3
 4041 01fe FB61     	 str r3,[r7,#28]
 4042 0200 3B69     	 ldr r3,[r7,#16]
 4043 0202 BA69     	 ldr r2,[r7,#24]
 4044 0204 1344     	 add r3,r3,r2
 4045 0206 BB61     	 str r3,[r7,#24]
 4046 0208 184B     	 ldr r3,.L286+12
 4047 020a 7B61     	 str r3,[r7,#20]
 4048              	.L280:
1488:C:/Users/Yushev/git/wpcqi-optiga-trust-charge/optiga/externals/mbedtls/library\x509_crt.c ****     KEY_USAGE( MBEDTLS_X509_KU_DECIPHER_ONLY,        "Decipher Only" );
 4049              	 .loc 2 1488 0 is_stmt 1
 4050 020c 7B68     	 ldr r3,[r7,#4]
 4051 020e 03F40043 	 and r3,r3,#32768
 4052 0212 002B     	 cmp r3,#0
 4053 0214 19D0     	 beq .L283
 4054              	 .loc 2 1488 0 is_stmt 0 discriminator 1
 4055 0216 B869     	 ldr r0,[r7,#24]
 4056 0218 F969     	 ldr r1,[r7,#28]
 4057 021a 1C4A     	 ldr r2,.L286+44
 4058 021c 7B69     	 ldr r3,[r7,#20]
 4059 021e FFF7FEFF 	 bl snprintf
 4060 0222 3861     	 str r0,[r7,#16]
 4061 0224 3B69     	 ldr r3,[r7,#16]
 4062 0226 002B     	 cmp r3,#0
 4063 0228 03DB     	 blt .L284
 4064              	 .loc 2 1488 0 discriminator 3
 4065 022a 3A69     	 ldr r2,[r7,#16]
 4066 022c FB69     	 ldr r3,[r7,#28]
 4067 022e 9A42     	 cmp r2,r3
 4068 0230 01D3     	 bcc .L285
 4069              	.L284:
 4070              	 .loc 2 1488 0 discriminator 4
 4071 0232 0D4B     	 ldr r3,.L286+8
 4072 0234 10E0     	 b .L261
 4073              	.L285:
 4074              	 .loc 2 1488 0 discriminator 5
 4075 0236 3B69     	 ldr r3,[r7,#16]
 4076 0238 FA69     	 ldr r2,[r7,#28]
 4077 023a D31A     	 subs r3,r2,r3
 4078 023c FB61     	 str r3,[r7,#28]
 4079 023e 3B69     	 ldr r3,[r7,#16]
 4080 0240 BA69     	 ldr r2,[r7,#24]
 4081 0242 1344     	 add r3,r3,r2
 4082 0244 BB61     	 str r3,[r7,#24]
 4083 0246 094B     	 ldr r3,.L286+12
 4084 0248 7B61     	 str r3,[r7,#20]
 4085              	.L283:
1489:C:/Users/Yushev/git/wpcqi-optiga-trust-charge/optiga/externals/mbedtls/library\x509_crt.c **** 
1490:C:/Users/Yushev/git/wpcqi-optiga-trust-charge/optiga/externals/mbedtls/library\x509_crt.c ****     *size = n;
 4086              	 .loc 2 1490 0 is_stmt 1
 4087 024a BB68     	 ldr r3,[r7,#8]
 4088 024c FA69     	 ldr r2,[r7,#28]
 4089 024e 1A60     	 str r2,[r3]
1491:C:/Users/Yushev/git/wpcqi-optiga-trust-charge/optiga/externals/mbedtls/library\x509_crt.c ****     *buf = p;
 4090              	 .loc 2 1491 0
 4091 0250 FB68     	 ldr r3,[r7,#12]
 4092 0252 BA69     	 ldr r2,[r7,#24]
 4093 0254 1A60     	 str r2,[r3]
1492:C:/Users/Yushev/git/wpcqi-optiga-trust-charge/optiga/externals/mbedtls/library\x509_crt.c **** 
1493:C:/Users/Yushev/git/wpcqi-optiga-trust-charge/optiga/externals/mbedtls/library\x509_crt.c ****     return( 0 );
 4094              	 .loc 2 1493 0
 4095 0256 0023     	 movs r3,#0
 4096              	.L261:
1494:C:/Users/Yushev/git/wpcqi-optiga-trust-charge/optiga/externals/mbedtls/library\x509_crt.c **** }
 4097              	 .loc 2 1494 0
 4098 0258 1846     	 mov r0,r3
 4099 025a 2037     	 adds r7,r7,#32
 4100              	.LCFI124:
 4101              	 .cfi_def_cfa_offset 8
 4102 025c BD46     	 mov sp,r7
 4103              	.LCFI125:
 4104              	 .cfi_def_cfa_register 13
 4105              	 
 4106 025e 80BD     	 pop {r7,pc}
 4107              	.L287:
 4108              	 .align 2
 4109              	.L286:
 4110 0260 00000000 	 .word .LC0
 4111 0264 7C000000 	 .word .LC10
 4112 0268 80D6FFFF 	 .word -10624
 4113 026c 04000000 	 .word .LC1
 4114 0270 90000000 	 .word .LC11
 4115 0274 A4000000 	 .word .LC12
 4116 0278 B8000000 	 .word .LC13
 4117 027c CC000000 	 .word .LC14
 4118 0280 DC000000 	 .word .LC15
 4119 0284 EC000000 	 .word .LC16
 4120 0288 F8000000 	 .word .LC17
 4121 028c 08010000 	 .word .LC18
 4122              	 .cfi_endproc
 4123              	.LFE31:
 4125              	 .section .rodata
 4126              	 .align 2
 4127              	.LC19:
 4128 0118 3F3F3F00 	 .ascii "???\000"
 4129              	 .align 2
 4130              	.LC20:
 4131 011c 25732573 	 .ascii "%s%s\000"
 4131      00
 4132              	 .section .text.x509_info_ext_key_usage,"ax",%progbits
 4133              	 .align 2
 4134              	 .thumb
 4135              	 .thumb_func
 4137              	x509_info_ext_key_usage:
 4138              	.LFB32:
1495:C:/Users/Yushev/git/wpcqi-optiga-trust-charge/optiga/externals/mbedtls/library\x509_crt.c **** 
1496:C:/Users/Yushev/git/wpcqi-optiga-trust-charge/optiga/externals/mbedtls/library\x509_crt.c **** static int x509_info_ext_key_usage( char **buf, size_t *size,
1497:C:/Users/Yushev/git/wpcqi-optiga-trust-charge/optiga/externals/mbedtls/library\x509_crt.c ****                                     const mbedtls_x509_sequence *extended_key_usage )
1498:C:/Users/Yushev/git/wpcqi-optiga-trust-charge/optiga/externals/mbedtls/library\x509_crt.c **** {
 4139              	 .loc 2 1498 0
 4140              	 .cfi_startproc
 4141              	 
 4142              	 
 4143 0000 80B5     	 push {r7,lr}
 4144              	.LCFI126:
 4145              	 .cfi_def_cfa_offset 8
 4146              	 .cfi_offset 7,-8
 4147              	 .cfi_offset 14,-4
 4148 0002 8CB0     	 sub sp,sp,#48
 4149              	.LCFI127:
 4150              	 .cfi_def_cfa_offset 56
 4151 0004 02AF     	 add r7,sp,#8
 4152              	.LCFI128:
 4153              	 .cfi_def_cfa 7,48
 4154 0006 F860     	 str r0,[r7,#12]
 4155 0008 B960     	 str r1,[r7,#8]
 4156 000a 7A60     	 str r2,[r7,#4]
1499:C:/Users/Yushev/git/wpcqi-optiga-trust-charge/optiga/externals/mbedtls/library\x509_crt.c ****     int ret;
1500:C:/Users/Yushev/git/wpcqi-optiga-trust-charge/optiga/externals/mbedtls/library\x509_crt.c ****     const char *desc;
1501:C:/Users/Yushev/git/wpcqi-optiga-trust-charge/optiga/externals/mbedtls/library\x509_crt.c ****     size_t n = *size;
 4157              	 .loc 2 1501 0
 4158 000c BB68     	 ldr r3,[r7,#8]
 4159 000e 1B68     	 ldr r3,[r3]
 4160 0010 7B62     	 str r3,[r7,#36]
1502:C:/Users/Yushev/git/wpcqi-optiga-trust-charge/optiga/externals/mbedtls/library\x509_crt.c ****     char *p = *buf;
 4161              	 .loc 2 1502 0
 4162 0012 FB68     	 ldr r3,[r7,#12]
 4163 0014 1B68     	 ldr r3,[r3]
 4164 0016 3B62     	 str r3,[r7,#32]
1503:C:/Users/Yushev/git/wpcqi-optiga-trust-charge/optiga/externals/mbedtls/library\x509_crt.c ****     const mbedtls_x509_sequence *cur = extended_key_usage;
 4165              	 .loc 2 1503 0
 4166 0018 7B68     	 ldr r3,[r7,#4]
 4167 001a FB61     	 str r3,[r7,#28]
1504:C:/Users/Yushev/git/wpcqi-optiga-trust-charge/optiga/externals/mbedtls/library\x509_crt.c ****     const char *sep = "";
 4168              	 .loc 2 1504 0
 4169 001c 1D4B     	 ldr r3,.L296
 4170 001e BB61     	 str r3,[r7,#24]
1505:C:/Users/Yushev/git/wpcqi-optiga-trust-charge/optiga/externals/mbedtls/library\x509_crt.c **** 
1506:C:/Users/Yushev/git/wpcqi-optiga-trust-charge/optiga/externals/mbedtls/library\x509_crt.c ****     while( cur != NULL )
 4171              	 .loc 2 1506 0
 4172 0020 2AE0     	 b .L289
 4173              	.L294:
1507:C:/Users/Yushev/git/wpcqi-optiga-trust-charge/optiga/externals/mbedtls/library\x509_crt.c ****     {
1508:C:/Users/Yushev/git/wpcqi-optiga-trust-charge/optiga/externals/mbedtls/library\x509_crt.c ****         if( mbedtls_oid_get_extended_key_usage( &cur->buf, &desc ) != 0 )
 4174              	 .loc 2 1508 0
 4175 0022 FA69     	 ldr r2,[r7,#28]
 4176 0024 07F11003 	 add r3,r7,#16
 4177 0028 1046     	 mov r0,r2
 4178 002a 1946     	 mov r1,r3
 4179 002c FFF7FEFF 	 bl mbedtls_oid_get_extended_key_usage
 4180 0030 0346     	 mov r3,r0
 4181 0032 002B     	 cmp r3,#0
 4182 0034 01D0     	 beq .L290
1509:C:/Users/Yushev/git/wpcqi-optiga-trust-charge/optiga/externals/mbedtls/library\x509_crt.c ****             desc = "???";
 4183              	 .loc 2 1509 0
 4184 0036 184B     	 ldr r3,.L296+4
 4185 0038 3B61     	 str r3,[r7,#16]
 4186              	.L290:
1510:C:/Users/Yushev/git/wpcqi-optiga-trust-charge/optiga/externals/mbedtls/library\x509_crt.c **** 
1511:C:/Users/Yushev/git/wpcqi-optiga-trust-charge/optiga/externals/mbedtls/library\x509_crt.c ****         ret = mbedtls_snprintf( p, n, "%s%s", sep, desc );
 4187              	 .loc 2 1511 0
 4188 003a 3B69     	 ldr r3,[r7,#16]
 4189 003c 0093     	 str r3,[sp]
 4190 003e 386A     	 ldr r0,[r7,#32]
 4191 0040 796A     	 ldr r1,[r7,#36]
 4192 0042 164A     	 ldr r2,.L296+8
 4193 0044 BB69     	 ldr r3,[r7,#24]
 4194 0046 FFF7FEFF 	 bl snprintf
 4195 004a 7861     	 str r0,[r7,#20]
1512:C:/Users/Yushev/git/wpcqi-optiga-trust-charge/optiga/externals/mbedtls/library\x509_crt.c ****         MBEDTLS_X509_SAFE_SNPRINTF;
 4196              	 .loc 2 1512 0
 4197 004c 7B69     	 ldr r3,[r7,#20]
 4198 004e 002B     	 cmp r3,#0
 4199 0050 03DB     	 blt .L291
 4200              	 .loc 2 1512 0 is_stmt 0 discriminator 2
 4201 0052 7A69     	 ldr r2,[r7,#20]
 4202 0054 7B6A     	 ldr r3,[r7,#36]
 4203 0056 9A42     	 cmp r2,r3
 4204 0058 01D3     	 bcc .L292
 4205              	.L291:
 4206              	 .loc 2 1512 0 discriminator 3
 4207 005a 114B     	 ldr r3,.L296+12
 4208 005c 16E0     	 b .L295
 4209              	.L292:
 4210              	 .loc 2 1512 0 discriminator 4
 4211 005e 7B69     	 ldr r3,[r7,#20]
 4212 0060 7A6A     	 ldr r2,[r7,#36]
 4213 0062 D31A     	 subs r3,r2,r3
 4214 0064 7B62     	 str r3,[r7,#36]
 4215 0066 7B69     	 ldr r3,[r7,#20]
 4216 0068 3A6A     	 ldr r2,[r7,#32]
 4217 006a 1344     	 add r3,r3,r2
 4218 006c 3B62     	 str r3,[r7,#32]
1513:C:/Users/Yushev/git/wpcqi-optiga-trust-charge/optiga/externals/mbedtls/library\x509_crt.c **** 
1514:C:/Users/Yushev/git/wpcqi-optiga-trust-charge/optiga/externals/mbedtls/library\x509_crt.c ****         sep = ", ";
 4219              	 .loc 2 1514 0 is_stmt 1 discriminator 4
 4220 006e 0D4B     	 ldr r3,.L296+16
 4221 0070 BB61     	 str r3,[r7,#24]
1515:C:/Users/Yushev/git/wpcqi-optiga-trust-charge/optiga/externals/mbedtls/library\x509_crt.c **** 
1516:C:/Users/Yushev/git/wpcqi-optiga-trust-charge/optiga/externals/mbedtls/library\x509_crt.c ****         cur = cur->next;
 4222              	 .loc 2 1516 0 discriminator 4
 4223 0072 FB69     	 ldr r3,[r7,#28]
 4224 0074 DB68     	 ldr r3,[r3,#12]
 4225 0076 FB61     	 str r3,[r7,#28]
 4226              	.L289:
1506:C:/Users/Yushev/git/wpcqi-optiga-trust-charge/optiga/externals/mbedtls/library\x509_crt.c ****     {
 4227              	 .loc 2 1506 0
 4228 0078 FB69     	 ldr r3,[r7,#28]
 4229 007a 002B     	 cmp r3,#0
 4230 007c D1D1     	 bne .L294
1517:C:/Users/Yushev/git/wpcqi-optiga-trust-charge/optiga/externals/mbedtls/library\x509_crt.c ****     }
1518:C:/Users/Yushev/git/wpcqi-optiga-trust-charge/optiga/externals/mbedtls/library\x509_crt.c **** 
1519:C:/Users/Yushev/git/wpcqi-optiga-trust-charge/optiga/externals/mbedtls/library\x509_crt.c ****     *size = n;
 4231              	 .loc 2 1519 0
 4232 007e BB68     	 ldr r3,[r7,#8]
 4233 0080 7A6A     	 ldr r2,[r7,#36]
 4234 0082 1A60     	 str r2,[r3]
1520:C:/Users/Yushev/git/wpcqi-optiga-trust-charge/optiga/externals/mbedtls/library\x509_crt.c ****     *buf = p;
 4235              	 .loc 2 1520 0
 4236 0084 FB68     	 ldr r3,[r7,#12]
 4237 0086 3A6A     	 ldr r2,[r7,#32]
 4238 0088 1A60     	 str r2,[r3]
1521:C:/Users/Yushev/git/wpcqi-optiga-trust-charge/optiga/externals/mbedtls/library\x509_crt.c **** 
1522:C:/Users/Yushev/git/wpcqi-optiga-trust-charge/optiga/externals/mbedtls/library\x509_crt.c ****     return( 0 );
 4239              	 .loc 2 1522 0
 4240 008a 0023     	 movs r3,#0
 4241              	.L295:
1523:C:/Users/Yushev/git/wpcqi-optiga-trust-charge/optiga/externals/mbedtls/library\x509_crt.c **** }
 4242              	 .loc 2 1523 0 discriminator 1
 4243 008c 1846     	 mov r0,r3
 4244 008e 2837     	 adds r7,r7,#40
 4245              	.LCFI129:
 4246              	 .cfi_def_cfa_offset 8
 4247 0090 BD46     	 mov sp,r7
 4248              	.LCFI130:
 4249              	 .cfi_def_cfa_register 13
 4250              	 
 4251 0092 80BD     	 pop {r7,pc}
 4252              	.L297:
 4253              	 .align 2
 4254              	.L296:
 4255 0094 00000000 	 .word .LC0
 4256 0098 18010000 	 .word .LC19
 4257 009c 1C010000 	 .word .LC20
 4258 00a0 80D6FFFF 	 .word -10624
 4259 00a4 04000000 	 .word .LC1
 4260              	 .cfi_endproc
 4261              	.LFE32:
 4263              	 .section .rodata
 4264 0121 000000   	 .align 2
 4265              	.LC21:
 4266 0124 0A436572 	 .ascii "\012Certificate is uninitialised!\012\000"
 4266      74696669 
 4266      63617465 
 4266      20697320 
 4266      756E696E 
 4267              	 .align 2
 4268              	.LC22:
 4269 0144 25736365 	 .ascii "%scert. version     : %d\012\000"
 4269      72742E20 
 4269      76657273 
 4269      696F6E20 
 4269      20202020 
 4270 015e 0000     	 .align 2
 4271              	.LC23:
 4272 0160 25737365 	 .ascii "%sserial number     : \000"
 4272      7269616C 
 4272      206E756D 
 4272      62657220 
 4272      20202020 
 4273 0177 00       	 .align 2
 4274              	.LC24:
 4275 0178 0A257369 	 .ascii "\012%sissuer name       : \000"
 4275      73737565 
 4275      72206E61 
 4275      6D652020 
 4275      20202020 
 4276              	 .align 2
 4277              	.LC25:
 4278 0190 0A257373 	 .ascii "\012%ssubject name      : \000"
 4278      75626A65 
 4278      6374206E 
 4278      616D6520 
 4278      20202020 
 4279              	 .align 2
 4280              	.LC26:
 4281 01a8 0A257369 	 .ascii "\012%sissued  on        : %04d-%02d-%02d %02d:%02d:"
 4281      73737565 
 4281      6420206F 
 4281      6E202020 
 4281      20202020 
 4282 01d8 25303264 	 .ascii "%02d\000"
 4282      00
 4283 01dd 000000   	 .align 2
 4284              	.LC27:
 4285 01e0 0A257365 	 .ascii "\012%sexpires on        : %04d-%02d-%02d %02d:%02d:"
 4285      78706972 
 4285      6573206F 
 4285      6E202020 
 4285      20202020 
 4286 0210 25303264 	 .ascii "%02d\000"
 4286      00
 4287 0215 000000   	 .align 2
 4288              	.LC28:
 4289 0218 0A257373 	 .ascii "\012%ssigned using      : \000"
 4289      69676E65 
 4289      64207573 
 4289      696E6720 
 4289      20202020 
 4290              	 .align 2
 4291              	.LC29:
 4292 0230 0A257325 	 .ascii "\012%s%-18s: %d bits\000"
 4292      2D313873 
 4292      3A202564 
 4292      20626974 
 4292      7300
 4293 0242 0000     	 .align 2
 4294              	.LC30:
 4295 0244 74727565 	 .ascii "true\000"
 4295      00
 4296 0249 000000   	 .align 2
 4297              	.LC31:
 4298 024c 66616C73 	 .ascii "false\000"
 4298      6500
 4299 0252 0000     	 .align 2
 4300              	.LC32:
 4301 0254 0A257362 	 .ascii "\012%sbasic constraints : CA=%s\000"
 4301      61736963 
 4301      20636F6E 
 4301      73747261 
 4301      696E7473 
 4302 0271 000000   	 .align 2
 4303              	.LC33:
 4304 0274 2C206D61 	 .ascii ", max_pathlen=%d\000"
 4304      785F7061 
 4304      74686C65 
 4304      6E3D2564 
 4304      00
 4305 0285 000000   	 .align 2
 4306              	.LC34:
 4307 0288 0A257373 	 .ascii "\012%ssubject alt name  : \000"
 4307      75626A65 
 4307      63742061 
 4307      6C74206E 
 4307      616D6520 
 4308              	 .align 2
 4309              	.LC35:
 4310 02a0 0A257363 	 .ascii "\012%scert. type        : \000"
 4310      6572742E 
 4310      20747970 
 4310      65202020 
 4310      20202020 
 4311              	 .align 2
 4312              	.LC36:
 4313 02b8 0A25736B 	 .ascii "\012%skey usage         : \000"
 4313      65792075 
 4313      73616765 
 4313      20202020 
 4313      20202020 
 4314              	 .align 2
 4315              	.LC37:
 4316 02d0 0A257365 	 .ascii "\012%sext key usage     : \000"
 4316      7874206B 
 4316      65792075 
 4316      73616765 
 4316      20202020 
 4317              	 .align 2
 4318              	.LC38:
 4319 02e8 0A00     	 .ascii "\012\000"
 4320              	 .section .text.mbedtls_x509_crt_info,"ax",%progbits
 4321              	 .align 2
 4322              	 .global mbedtls_x509_crt_info
 4323              	 .thumb
 4324              	 .thumb_func
 4326              	mbedtls_x509_crt_info:
 4327              	.LFB33:
1524:C:/Users/Yushev/git/wpcqi-optiga-trust-charge/optiga/externals/mbedtls/library\x509_crt.c **** 
1525:C:/Users/Yushev/git/wpcqi-optiga-trust-charge/optiga/externals/mbedtls/library\x509_crt.c **** /*
1526:C:/Users/Yushev/git/wpcqi-optiga-trust-charge/optiga/externals/mbedtls/library\x509_crt.c ****  * Return an informational string about the certificate.
1527:C:/Users/Yushev/git/wpcqi-optiga-trust-charge/optiga/externals/mbedtls/library\x509_crt.c ****  */
1528:C:/Users/Yushev/git/wpcqi-optiga-trust-charge/optiga/externals/mbedtls/library\x509_crt.c **** #define BEFORE_COLON    18
1529:C:/Users/Yushev/git/wpcqi-optiga-trust-charge/optiga/externals/mbedtls/library\x509_crt.c **** #define BC              "18"
1530:C:/Users/Yushev/git/wpcqi-optiga-trust-charge/optiga/externals/mbedtls/library\x509_crt.c **** int mbedtls_x509_crt_info( char *buf, size_t size, const char *prefix,
1531:C:/Users/Yushev/git/wpcqi-optiga-trust-charge/optiga/externals/mbedtls/library\x509_crt.c ****                    const mbedtls_x509_crt *crt )
1532:C:/Users/Yushev/git/wpcqi-optiga-trust-charge/optiga/externals/mbedtls/library\x509_crt.c **** {
 4328              	 .loc 2 1532 0
 4329              	 .cfi_startproc
 4330              	 
 4331              	 
 4332 0000 F0B5     	 push {r4,r5,r6,r7,lr}
 4333              	.LCFI131:
 4334              	 .cfi_def_cfa_offset 20
 4335              	 .cfi_offset 4,-20
 4336              	 .cfi_offset 5,-16
 4337              	 .cfi_offset 6,-12
 4338              	 .cfi_offset 7,-8
 4339              	 .cfi_offset 14,-4
 4340 0002 93B0     	 sub sp,sp,#76
 4341              	.LCFI132:
 4342              	 .cfi_def_cfa_offset 96
 4343 0004 06AF     	 add r7,sp,#24
 4344              	.LCFI133:
 4345              	 .cfi_def_cfa 7,72
 4346 0006 F860     	 str r0,[r7,#12]
 4347 0008 B960     	 str r1,[r7,#8]
 4348 000a 7A60     	 str r2,[r7,#4]
 4349 000c 3B60     	 str r3,[r7]
1533:C:/Users/Yushev/git/wpcqi-optiga-trust-charge/optiga/externals/mbedtls/library\x509_crt.c ****     int ret;
1534:C:/Users/Yushev/git/wpcqi-optiga-trust-charge/optiga/externals/mbedtls/library\x509_crt.c ****     size_t n;
1535:C:/Users/Yushev/git/wpcqi-optiga-trust-charge/optiga/externals/mbedtls/library\x509_crt.c ****     char *p;
1536:C:/Users/Yushev/git/wpcqi-optiga-trust-charge/optiga/externals/mbedtls/library\x509_crt.c ****     char key_size_str[BEFORE_COLON];
1537:C:/Users/Yushev/git/wpcqi-optiga-trust-charge/optiga/externals/mbedtls/library\x509_crt.c **** 
1538:C:/Users/Yushev/git/wpcqi-optiga-trust-charge/optiga/externals/mbedtls/library\x509_crt.c ****     p = buf;
 4350              	 .loc 2 1538 0
 4351 000e FB68     	 ldr r3,[r7,#12]
 4352 0010 7B62     	 str r3,[r7,#36]
1539:C:/Users/Yushev/git/wpcqi-optiga-trust-charge/optiga/externals/mbedtls/library\x509_crt.c ****     n = size;
 4353              	 .loc 2 1539 0
 4354 0012 BB68     	 ldr r3,[r7,#8]
 4355 0014 BB62     	 str r3,[r7,#40]
1540:C:/Users/Yushev/git/wpcqi-optiga-trust-charge/optiga/externals/mbedtls/library\x509_crt.c **** 
1541:C:/Users/Yushev/git/wpcqi-optiga-trust-charge/optiga/externals/mbedtls/library\x509_crt.c ****     if( NULL == crt )
 4356              	 .loc 2 1541 0
 4357 0016 3B68     	 ldr r3,[r7]
 4358 0018 002B     	 cmp r3,#0
 4359 001a 1CD1     	 bne .L299
1542:C:/Users/Yushev/git/wpcqi-optiga-trust-charge/optiga/externals/mbedtls/library\x509_crt.c ****     {
1543:C:/Users/Yushev/git/wpcqi-optiga-trust-charge/optiga/externals/mbedtls/library\x509_crt.c ****         ret = mbedtls_snprintf( p, n, "\nCertificate is uninitialised!\n" );
 4360              	 .loc 2 1543 0
 4361 001c 7A6A     	 ldr r2,[r7,#36]
 4362 001e BB6A     	 ldr r3,[r7,#40]
 4363 0020 1046     	 mov r0,r2
 4364 0022 1946     	 mov r1,r3
 4365 0024 994A     	 ldr r2,.L350
 4366 0026 FFF7FEFF 	 bl snprintf
 4367 002a F862     	 str r0,[r7,#44]
1544:C:/Users/Yushev/git/wpcqi-optiga-trust-charge/optiga/externals/mbedtls/library\x509_crt.c ****         MBEDTLS_X509_SAFE_SNPRINTF;
 4368              	 .loc 2 1544 0
 4369 002c FB6A     	 ldr r3,[r7,#44]
 4370 002e 002B     	 cmp r3,#0
 4371 0030 03DB     	 blt .L300
 4372              	 .loc 2 1544 0 is_stmt 0 discriminator 2
 4373 0032 FA6A     	 ldr r2,[r7,#44]
 4374 0034 BB6A     	 ldr r3,[r7,#40]
 4375 0036 9A42     	 cmp r2,r3
 4376 0038 01D3     	 bcc .L301
 4377              	.L300:
 4378              	 .loc 2 1544 0 discriminator 3
 4379 003a 954B     	 ldr r3,.L350+4
 4380 003c FDE2     	 b .L349
 4381              	.L301:
 4382              	 .loc 2 1544 0 discriminator 4
 4383 003e BA6A     	 ldr r2,[r7,#40]
 4384 0040 FB6A     	 ldr r3,[r7,#44]
 4385 0042 D31A     	 subs r3,r2,r3
 4386 0044 BB62     	 str r3,[r7,#40]
 4387 0046 7A6A     	 ldr r2,[r7,#36]
 4388 0048 FB6A     	 ldr r3,[r7,#44]
 4389 004a 1344     	 add r3,r3,r2
 4390 004c 7B62     	 str r3,[r7,#36]
1545:C:/Users/Yushev/git/wpcqi-optiga-trust-charge/optiga/externals/mbedtls/library\x509_crt.c **** 
1546:C:/Users/Yushev/git/wpcqi-optiga-trust-charge/optiga/externals/mbedtls/library\x509_crt.c ****         return( (int) ( size - n ) );
 4391              	 .loc 2 1546 0 is_stmt 1 discriminator 4
 4392 004e BB6A     	 ldr r3,[r7,#40]
 4393 0050 BA68     	 ldr r2,[r7,#8]
 4394 0052 D31A     	 subs r3,r2,r3
 4395 0054 F1E2     	 b .L349
 4396              	.L299:
1547:C:/Users/Yushev/git/wpcqi-optiga-trust-charge/optiga/externals/mbedtls/library\x509_crt.c ****     }
1548:C:/Users/Yushev/git/wpcqi-optiga-trust-charge/optiga/externals/mbedtls/library\x509_crt.c **** 
1549:C:/Users/Yushev/git/wpcqi-optiga-trust-charge/optiga/externals/mbedtls/library\x509_crt.c ****     ret = mbedtls_snprintf( p, n, "%scert. version     : %d\n",
 4397              	 .loc 2 1549 0
 4398 0056 796A     	 ldr r1,[r7,#36]
 4399 0058 BA6A     	 ldr r2,[r7,#40]
 4400 005a 3B68     	 ldr r3,[r7]
 4401 005c 9B69     	 ldr r3,[r3,#24]
 4402 005e 0093     	 str r3,[sp]
 4403 0060 0846     	 mov r0,r1
 4404 0062 1146     	 mov r1,r2
 4405 0064 8B4A     	 ldr r2,.L350+8
 4406 0066 7B68     	 ldr r3,[r7,#4]
 4407 0068 FFF7FEFF 	 bl snprintf
 4408 006c F862     	 str r0,[r7,#44]
1550:C:/Users/Yushev/git/wpcqi-optiga-trust-charge/optiga/externals/mbedtls/library\x509_crt.c ****                                prefix, crt->version );
1551:C:/Users/Yushev/git/wpcqi-optiga-trust-charge/optiga/externals/mbedtls/library\x509_crt.c ****     MBEDTLS_X509_SAFE_SNPRINTF;
 4409              	 .loc 2 1551 0
 4410 006e FB6A     	 ldr r3,[r7,#44]
 4411 0070 002B     	 cmp r3,#0
 4412 0072 03DB     	 blt .L303
 4413              	 .loc 2 1551 0 is_stmt 0 discriminator 2
 4414 0074 FA6A     	 ldr r2,[r7,#44]
 4415 0076 BB6A     	 ldr r3,[r7,#40]
 4416 0078 9A42     	 cmp r2,r3
 4417 007a 01D3     	 bcc .L304
 4418              	.L303:
 4419              	 .loc 2 1551 0 discriminator 3
 4420 007c 844B     	 ldr r3,.L350+4
 4421 007e DCE2     	 b .L349
 4422              	.L304:
 4423              	 .loc 2 1551 0 discriminator 4
 4424 0080 BA6A     	 ldr r2,[r7,#40]
 4425 0082 FB6A     	 ldr r3,[r7,#44]
 4426 0084 D31A     	 subs r3,r2,r3
 4427 0086 BB62     	 str r3,[r7,#40]
 4428 0088 7A6A     	 ldr r2,[r7,#36]
 4429 008a FB6A     	 ldr r3,[r7,#44]
 4430 008c 1344     	 add r3,r3,r2
 4431 008e 7B62     	 str r3,[r7,#36]
1552:C:/Users/Yushev/git/wpcqi-optiga-trust-charge/optiga/externals/mbedtls/library\x509_crt.c ****     ret = mbedtls_snprintf( p, n, "%sserial number     : ",
 4432              	 .loc 2 1552 0 is_stmt 1 discriminator 4
 4433 0090 7A6A     	 ldr r2,[r7,#36]
 4434 0092 BB6A     	 ldr r3,[r7,#40]
 4435 0094 1046     	 mov r0,r2
 4436 0096 1946     	 mov r1,r3
 4437 0098 7F4A     	 ldr r2,.L350+12
 4438 009a 7B68     	 ldr r3,[r7,#4]
 4439 009c FFF7FEFF 	 bl snprintf
 4440 00a0 F862     	 str r0,[r7,#44]
1553:C:/Users/Yushev/git/wpcqi-optiga-trust-charge/optiga/externals/mbedtls/library\x509_crt.c ****                                prefix );
1554:C:/Users/Yushev/git/wpcqi-optiga-trust-charge/optiga/externals/mbedtls/library\x509_crt.c ****     MBEDTLS_X509_SAFE_SNPRINTF;
 4441              	 .loc 2 1554 0 discriminator 4
 4442 00a2 FB6A     	 ldr r3,[r7,#44]
 4443 00a4 002B     	 cmp r3,#0
 4444 00a6 03DB     	 blt .L305
 4445              	 .loc 2 1554 0 is_stmt 0 discriminator 2
 4446 00a8 FA6A     	 ldr r2,[r7,#44]
 4447 00aa BB6A     	 ldr r3,[r7,#40]
 4448 00ac 9A42     	 cmp r2,r3
 4449 00ae 01D3     	 bcc .L306
 4450              	.L305:
 4451              	 .loc 2 1554 0 discriminator 3
 4452 00b0 774B     	 ldr r3,.L350+4
 4453 00b2 C2E2     	 b .L349
 4454              	.L306:
 4455              	 .loc 2 1554 0 discriminator 4
 4456 00b4 BA6A     	 ldr r2,[r7,#40]
 4457 00b6 FB6A     	 ldr r3,[r7,#44]
 4458 00b8 D31A     	 subs r3,r2,r3
 4459 00ba BB62     	 str r3,[r7,#40]
 4460 00bc 7A6A     	 ldr r2,[r7,#36]
 4461 00be FB6A     	 ldr r3,[r7,#44]
 4462 00c0 1344     	 add r3,r3,r2
 4463 00c2 7B62     	 str r3,[r7,#36]
1555:C:/Users/Yushev/git/wpcqi-optiga-trust-charge/optiga/externals/mbedtls/library\x509_crt.c **** 
1556:C:/Users/Yushev/git/wpcqi-optiga-trust-charge/optiga/externals/mbedtls/library\x509_crt.c ****     ret = mbedtls_x509_serial_gets( p, n, &crt->serial );
 4464              	 .loc 2 1556 0 is_stmt 1 discriminator 4
 4465 00c4 796A     	 ldr r1,[r7,#36]
 4466 00c6 BA6A     	 ldr r2,[r7,#40]
 4467 00c8 3B68     	 ldr r3,[r7]
 4468 00ca 1C33     	 adds r3,r3,#28
 4469 00cc 0846     	 mov r0,r1
 4470 00ce 1146     	 mov r1,r2
 4471 00d0 1A46     	 mov r2,r3
 4472 00d2 FFF7FEFF 	 bl mbedtls_x509_serial_gets
 4473 00d6 F862     	 str r0,[r7,#44]
1557:C:/Users/Yushev/git/wpcqi-optiga-trust-charge/optiga/externals/mbedtls/library\x509_crt.c ****     MBEDTLS_X509_SAFE_SNPRINTF;
 4474              	 .loc 2 1557 0 discriminator 4
 4475 00d8 FB6A     	 ldr r3,[r7,#44]
 4476 00da 002B     	 cmp r3,#0
 4477 00dc 03DB     	 blt .L307
 4478              	 .loc 2 1557 0 is_stmt 0 discriminator 2
 4479 00de FA6A     	 ldr r2,[r7,#44]
 4480 00e0 BB6A     	 ldr r3,[r7,#40]
 4481 00e2 9A42     	 cmp r2,r3
 4482 00e4 01D3     	 bcc .L308
 4483              	.L307:
 4484              	 .loc 2 1557 0 discriminator 3
 4485 00e6 6A4B     	 ldr r3,.L350+4
 4486 00e8 A7E2     	 b .L349
 4487              	.L308:
 4488              	 .loc 2 1557 0 discriminator 4
 4489 00ea BA6A     	 ldr r2,[r7,#40]
 4490 00ec FB6A     	 ldr r3,[r7,#44]
 4491 00ee D31A     	 subs r3,r2,r3
 4492 00f0 BB62     	 str r3,[r7,#40]
 4493 00f2 7A6A     	 ldr r2,[r7,#36]
 4494 00f4 FB6A     	 ldr r3,[r7,#44]
 4495 00f6 1344     	 add r3,r3,r2
 4496 00f8 7B62     	 str r3,[r7,#36]
1558:C:/Users/Yushev/git/wpcqi-optiga-trust-charge/optiga/externals/mbedtls/library\x509_crt.c **** 
1559:C:/Users/Yushev/git/wpcqi-optiga-trust-charge/optiga/externals/mbedtls/library\x509_crt.c ****     ret = mbedtls_snprintf( p, n, "\n%sissuer name       : ", prefix );
 4497              	 .loc 2 1559 0 is_stmt 1 discriminator 4
 4498 00fa 7A6A     	 ldr r2,[r7,#36]
 4499 00fc BB6A     	 ldr r3,[r7,#40]
 4500 00fe 1046     	 mov r0,r2
 4501 0100 1946     	 mov r1,r3
 4502 0102 664A     	 ldr r2,.L350+16
 4503 0104 7B68     	 ldr r3,[r7,#4]
 4504 0106 FFF7FEFF 	 bl snprintf
 4505 010a F862     	 str r0,[r7,#44]
1560:C:/Users/Yushev/git/wpcqi-optiga-trust-charge/optiga/externals/mbedtls/library\x509_crt.c ****     MBEDTLS_X509_SAFE_SNPRINTF;
 4506              	 .loc 2 1560 0 discriminator 4
 4507 010c FB6A     	 ldr r3,[r7,#44]
 4508 010e 002B     	 cmp r3,#0
 4509 0110 03DB     	 blt .L309
 4510              	 .loc 2 1560 0 is_stmt 0 discriminator 2
 4511 0112 FA6A     	 ldr r2,[r7,#44]
 4512 0114 BB6A     	 ldr r3,[r7,#40]
 4513 0116 9A42     	 cmp r2,r3
 4514 0118 01D3     	 bcc .L310
 4515              	.L309:
 4516              	 .loc 2 1560 0 discriminator 3
 4517 011a 5D4B     	 ldr r3,.L350+4
 4518 011c 8DE2     	 b .L349
 4519              	.L310:
 4520              	 .loc 2 1560 0 discriminator 4
 4521 011e BA6A     	 ldr r2,[r7,#40]
 4522 0120 FB6A     	 ldr r3,[r7,#44]
 4523 0122 D31A     	 subs r3,r2,r3
 4524 0124 BB62     	 str r3,[r7,#40]
 4525 0126 7A6A     	 ldr r2,[r7,#36]
 4526 0128 FB6A     	 ldr r3,[r7,#44]
 4527 012a 1344     	 add r3,r3,r2
 4528 012c 7B62     	 str r3,[r7,#36]
1561:C:/Users/Yushev/git/wpcqi-optiga-trust-charge/optiga/externals/mbedtls/library\x509_crt.c ****     ret = mbedtls_x509_dn_gets( p, n, &crt->issuer  );
 4529              	 .loc 2 1561 0 is_stmt 1 discriminator 4
 4530 012e 796A     	 ldr r1,[r7,#36]
 4531 0130 BA6A     	 ldr r2,[r7,#40]
 4532 0132 3B68     	 ldr r3,[r7]
 4533 0134 4C33     	 adds r3,r3,#76
 4534 0136 0846     	 mov r0,r1
 4535 0138 1146     	 mov r1,r2
 4536 013a 1A46     	 mov r2,r3
 4537 013c FFF7FEFF 	 bl mbedtls_x509_dn_gets
 4538 0140 F862     	 str r0,[r7,#44]
1562:C:/Users/Yushev/git/wpcqi-optiga-trust-charge/optiga/externals/mbedtls/library\x509_crt.c ****     MBEDTLS_X509_SAFE_SNPRINTF;
 4539              	 .loc 2 1562 0 discriminator 4
 4540 0142 FB6A     	 ldr r3,[r7,#44]
 4541 0144 002B     	 cmp r3,#0
 4542 0146 03DB     	 blt .L311
 4543              	 .loc 2 1562 0 is_stmt 0 discriminator 2
 4544 0148 FA6A     	 ldr r2,[r7,#44]
 4545 014a BB6A     	 ldr r3,[r7,#40]
 4546 014c 9A42     	 cmp r2,r3
 4547 014e 01D3     	 bcc .L312
 4548              	.L311:
 4549              	 .loc 2 1562 0 discriminator 3
 4550 0150 4F4B     	 ldr r3,.L350+4
 4551 0152 72E2     	 b .L349
 4552              	.L312:
 4553              	 .loc 2 1562 0 discriminator 4
 4554 0154 BA6A     	 ldr r2,[r7,#40]
 4555 0156 FB6A     	 ldr r3,[r7,#44]
 4556 0158 D31A     	 subs r3,r2,r3
 4557 015a BB62     	 str r3,[r7,#40]
 4558 015c 7A6A     	 ldr r2,[r7,#36]
 4559 015e FB6A     	 ldr r3,[r7,#44]
 4560 0160 1344     	 add r3,r3,r2
 4561 0162 7B62     	 str r3,[r7,#36]
1563:C:/Users/Yushev/git/wpcqi-optiga-trust-charge/optiga/externals/mbedtls/library\x509_crt.c **** 
1564:C:/Users/Yushev/git/wpcqi-optiga-trust-charge/optiga/externals/mbedtls/library\x509_crt.c ****     ret = mbedtls_snprintf( p, n, "\n%ssubject name      : ", prefix );
 4562              	 .loc 2 1564 0 is_stmt 1 discriminator 4
 4563 0164 7A6A     	 ldr r2,[r7,#36]
 4564 0166 BB6A     	 ldr r3,[r7,#40]
 4565 0168 1046     	 mov r0,r2
 4566 016a 1946     	 mov r1,r3
 4567 016c 4C4A     	 ldr r2,.L350+20
 4568 016e 7B68     	 ldr r3,[r7,#4]
 4569 0170 FFF7FEFF 	 bl snprintf
 4570 0174 F862     	 str r0,[r7,#44]
1565:C:/Users/Yushev/git/wpcqi-optiga-trust-charge/optiga/externals/mbedtls/library\x509_crt.c ****     MBEDTLS_X509_SAFE_SNPRINTF;
 4571              	 .loc 2 1565 0 discriminator 4
 4572 0176 FB6A     	 ldr r3,[r7,#44]
 4573 0178 002B     	 cmp r3,#0
 4574 017a 03DB     	 blt .L313
 4575              	 .loc 2 1565 0 is_stmt 0 discriminator 2
 4576 017c FA6A     	 ldr r2,[r7,#44]
 4577 017e BB6A     	 ldr r3,[r7,#40]
 4578 0180 9A42     	 cmp r2,r3
 4579 0182 01D3     	 bcc .L314
 4580              	.L313:
 4581              	 .loc 2 1565 0 discriminator 3
 4582 0184 424B     	 ldr r3,.L350+4
 4583 0186 58E2     	 b .L349
 4584              	.L314:
 4585              	 .loc 2 1565 0 discriminator 4
 4586 0188 BA6A     	 ldr r2,[r7,#40]
 4587 018a FB6A     	 ldr r3,[r7,#44]
 4588 018c D31A     	 subs r3,r2,r3
 4589 018e BB62     	 str r3,[r7,#40]
 4590 0190 7A6A     	 ldr r2,[r7,#36]
 4591 0192 FB6A     	 ldr r3,[r7,#44]
 4592 0194 1344     	 add r3,r3,r2
 4593 0196 7B62     	 str r3,[r7,#36]
1566:C:/Users/Yushev/git/wpcqi-optiga-trust-charge/optiga/externals/mbedtls/library\x509_crt.c ****     ret = mbedtls_x509_dn_gets( p, n, &crt->subject );
 4594              	 .loc 2 1566 0 is_stmt 1 discriminator 4
 4595 0198 796A     	 ldr r1,[r7,#36]
 4596 019a BA6A     	 ldr r2,[r7,#40]
 4597 019c 3B68     	 ldr r3,[r7]
 4598 019e 6C33     	 adds r3,r3,#108
 4599 01a0 0846     	 mov r0,r1
 4600 01a2 1146     	 mov r1,r2
 4601 01a4 1A46     	 mov r2,r3
 4602 01a6 FFF7FEFF 	 bl mbedtls_x509_dn_gets
 4603 01aa F862     	 str r0,[r7,#44]
1567:C:/Users/Yushev/git/wpcqi-optiga-trust-charge/optiga/externals/mbedtls/library\x509_crt.c ****     MBEDTLS_X509_SAFE_SNPRINTF;
 4604              	 .loc 2 1567 0 discriminator 4
 4605 01ac FB6A     	 ldr r3,[r7,#44]
 4606 01ae 002B     	 cmp r3,#0
 4607 01b0 03DB     	 blt .L315
 4608              	 .loc 2 1567 0 is_stmt 0 discriminator 2
 4609 01b2 FA6A     	 ldr r2,[r7,#44]
 4610 01b4 BB6A     	 ldr r3,[r7,#40]
 4611 01b6 9A42     	 cmp r2,r3
 4612 01b8 01D3     	 bcc .L316
 4613              	.L315:
 4614              	 .loc 2 1567 0 discriminator 3
 4615 01ba 354B     	 ldr r3,.L350+4
 4616 01bc 3DE2     	 b .L349
 4617              	.L316:
 4618              	 .loc 2 1567 0 discriminator 4
 4619 01be BA6A     	 ldr r2,[r7,#40]
 4620 01c0 FB6A     	 ldr r3,[r7,#44]
 4621 01c2 D31A     	 subs r3,r2,r3
 4622 01c4 BB62     	 str r3,[r7,#40]
 4623 01c6 7A6A     	 ldr r2,[r7,#36]
 4624 01c8 FB6A     	 ldr r3,[r7,#44]
 4625 01ca 1344     	 add r3,r3,r2
 4626 01cc 7B62     	 str r3,[r7,#36]
1568:C:/Users/Yushev/git/wpcqi-optiga-trust-charge/optiga/externals/mbedtls/library\x509_crt.c **** 
1569:C:/Users/Yushev/git/wpcqi-optiga-trust-charge/optiga/externals/mbedtls/library\x509_crt.c ****     ret = mbedtls_snprintf( p, n, "\n%sissued  on        : " \
 4627              	 .loc 2 1569 0 is_stmt 1 discriminator 4
 4628 01ce D7F824E0 	 ldr lr,[r7,#36]
 4629 01d2 BE6A     	 ldr r6,[r7,#40]
 4630 01d4 3B68     	 ldr r3,[r7]
 4631 01d6 D3F88C50 	 ldr r5,[r3,#140]
 4632 01da 3B68     	 ldr r3,[r7]
 4633 01dc D3F89040 	 ldr r4,[r3,#144]
 4634 01e0 3B68     	 ldr r3,[r7]
 4635 01e2 D3F89400 	 ldr r0,[r3,#148]
 4636 01e6 3B68     	 ldr r3,[r7]
 4637 01e8 D3F89810 	 ldr r1,[r3,#152]
 4638 01ec 3B68     	 ldr r3,[r7]
 4639 01ee D3F89C20 	 ldr r2,[r3,#156]
 4640 01f2 3B68     	 ldr r3,[r7]
 4641 01f4 D3F8A030 	 ldr r3,[r3,#160]
 4642 01f8 0095     	 str r5,[sp]
 4643 01fa 0194     	 str r4,[sp,#4]
 4644 01fc 0290     	 str r0,[sp,#8]
 4645 01fe 0391     	 str r1,[sp,#12]
 4646 0200 0492     	 str r2,[sp,#16]
 4647 0202 0593     	 str r3,[sp,#20]
 4648 0204 7046     	 mov r0,lr
 4649 0206 3146     	 mov r1,r6
 4650 0208 264A     	 ldr r2,.L350+24
 4651 020a 7B68     	 ldr r3,[r7,#4]
 4652 020c FFF7FEFF 	 bl snprintf
 4653 0210 F862     	 str r0,[r7,#44]
1570:C:/Users/Yushev/git/wpcqi-optiga-trust-charge/optiga/externals/mbedtls/library\x509_crt.c ****                    "%04d-%02d-%02d %02d:%02d:%02d", prefix,
1571:C:/Users/Yushev/git/wpcqi-optiga-trust-charge/optiga/externals/mbedtls/library\x509_crt.c ****                    crt->valid_from.year, crt->valid_from.mon,
1572:C:/Users/Yushev/git/wpcqi-optiga-trust-charge/optiga/externals/mbedtls/library\x509_crt.c ****                    crt->valid_from.day,  crt->valid_from.hour,
1573:C:/Users/Yushev/git/wpcqi-optiga-trust-charge/optiga/externals/mbedtls/library\x509_crt.c ****                    crt->valid_from.min,  crt->valid_from.sec );
1574:C:/Users/Yushev/git/wpcqi-optiga-trust-charge/optiga/externals/mbedtls/library\x509_crt.c ****     MBEDTLS_X509_SAFE_SNPRINTF;
 4654              	 .loc 2 1574 0 discriminator 4
 4655 0212 FB6A     	 ldr r3,[r7,#44]
 4656 0214 002B     	 cmp r3,#0
 4657 0216 03DB     	 blt .L317
 4658              	 .loc 2 1574 0 is_stmt 0 discriminator 2
 4659 0218 FA6A     	 ldr r2,[r7,#44]
 4660 021a BB6A     	 ldr r3,[r7,#40]
 4661 021c 9A42     	 cmp r2,r3
 4662 021e 01D3     	 bcc .L318
 4663              	.L317:
 4664              	 .loc 2 1574 0 discriminator 3
 4665 0220 1B4B     	 ldr r3,.L350+4
 4666 0222 0AE2     	 b .L349
 4667              	.L318:
 4668              	 .loc 2 1574 0 discriminator 4
 4669 0224 BA6A     	 ldr r2,[r7,#40]
 4670 0226 FB6A     	 ldr r3,[r7,#44]
 4671 0228 D31A     	 subs r3,r2,r3
 4672 022a BB62     	 str r3,[r7,#40]
 4673 022c 7A6A     	 ldr r2,[r7,#36]
 4674 022e FB6A     	 ldr r3,[r7,#44]
 4675 0230 1344     	 add r3,r3,r2
 4676 0232 7B62     	 str r3,[r7,#36]
1575:C:/Users/Yushev/git/wpcqi-optiga-trust-charge/optiga/externals/mbedtls/library\x509_crt.c **** 
1576:C:/Users/Yushev/git/wpcqi-optiga-trust-charge/optiga/externals/mbedtls/library\x509_crt.c ****     ret = mbedtls_snprintf( p, n, "\n%sexpires on        : " \
 4677              	 .loc 2 1576 0 is_stmt 1 discriminator 4
 4678 0234 D7F824E0 	 ldr lr,[r7,#36]
 4679 0238 BE6A     	 ldr r6,[r7,#40]
 4680 023a 3B68     	 ldr r3,[r7]
 4681 023c D3F8A450 	 ldr r5,[r3,#164]
 4682 0240 3B68     	 ldr r3,[r7]
 4683 0242 D3F8A840 	 ldr r4,[r3,#168]
 4684 0246 3B68     	 ldr r3,[r7]
 4685 0248 D3F8AC00 	 ldr r0,[r3,#172]
 4686 024c 3B68     	 ldr r3,[r7]
 4687 024e D3F8B010 	 ldr r1,[r3,#176]
 4688 0252 3B68     	 ldr r3,[r7]
 4689 0254 D3F8B420 	 ldr r2,[r3,#180]
 4690 0258 3B68     	 ldr r3,[r7]
 4691 025a D3F8B830 	 ldr r3,[r3,#184]
 4692 025e 0095     	 str r5,[sp]
 4693 0260 0194     	 str r4,[sp,#4]
 4694 0262 0290     	 str r0,[sp,#8]
 4695 0264 0391     	 str r1,[sp,#12]
 4696 0266 0492     	 str r2,[sp,#16]
 4697 0268 0593     	 str r3,[sp,#20]
 4698 026a 7046     	 mov r0,lr
 4699 026c 3146     	 mov r1,r6
 4700 026e 0E4A     	 ldr r2,.L350+28
 4701 0270 7B68     	 ldr r3,[r7,#4]
 4702 0272 FFF7FEFF 	 bl snprintf
 4703 0276 F862     	 str r0,[r7,#44]
1577:C:/Users/Yushev/git/wpcqi-optiga-trust-charge/optiga/externals/mbedtls/library\x509_crt.c ****                    "%04d-%02d-%02d %02d:%02d:%02d", prefix,
1578:C:/Users/Yushev/git/wpcqi-optiga-trust-charge/optiga/externals/mbedtls/library\x509_crt.c ****                    crt->valid_to.year, crt->valid_to.mon,
1579:C:/Users/Yushev/git/wpcqi-optiga-trust-charge/optiga/externals/mbedtls/library\x509_crt.c ****                    crt->valid_to.day,  crt->valid_to.hour,
1580:C:/Users/Yushev/git/wpcqi-optiga-trust-charge/optiga/externals/mbedtls/library\x509_crt.c ****                    crt->valid_to.min,  crt->valid_to.sec );
1581:C:/Users/Yushev/git/wpcqi-optiga-trust-charge/optiga/externals/mbedtls/library\x509_crt.c ****     MBEDTLS_X509_SAFE_SNPRINTF;
 4704              	 .loc 2 1581 0 discriminator 4
 4705 0278 FB6A     	 ldr r3,[r7,#44]
 4706 027a 002B     	 cmp r3,#0
 4707 027c 03DB     	 blt .L319
 4708              	 .loc 2 1581 0 is_stmt 0 discriminator 2
 4709 027e FA6A     	 ldr r2,[r7,#44]
 4710 0280 BB6A     	 ldr r3,[r7,#40]
 4711 0282 9A42     	 cmp r2,r3
 4712 0284 12D3     	 bcc .L320
 4713              	.L319:
 4714              	 .loc 2 1581 0 discriminator 3
 4715 0286 024B     	 ldr r3,.L350+4
 4716 0288 D7E1     	 b .L349
 4717              	.L351:
 4718 028a 00BF     	 .align 2
 4719              	.L350:
 4720 028c 24010000 	 .word .LC21
 4721 0290 80D6FFFF 	 .word -10624
 4722 0294 44010000 	 .word .LC22
 4723 0298 60010000 	 .word .LC23
 4724 029c 78010000 	 .word .LC24
 4725 02a0 90010000 	 .word .LC25
 4726 02a4 A8010000 	 .word .LC26
 4727 02a8 E0010000 	 .word .LC27
 4728              	.L320:
 4729              	 .loc 2 1581 0 discriminator 4
 4730 02ac BA6A     	 ldr r2,[r7,#40]
 4731 02ae FB6A     	 ldr r3,[r7,#44]
 4732 02b0 D31A     	 subs r3,r2,r3
 4733 02b2 BB62     	 str r3,[r7,#40]
 4734 02b4 7A6A     	 ldr r2,[r7,#36]
 4735 02b6 FB6A     	 ldr r3,[r7,#44]
 4736 02b8 1344     	 add r3,r3,r2
 4737 02ba 7B62     	 str r3,[r7,#36]
1582:C:/Users/Yushev/git/wpcqi-optiga-trust-charge/optiga/externals/mbedtls/library\x509_crt.c **** 
1583:C:/Users/Yushev/git/wpcqi-optiga-trust-charge/optiga/externals/mbedtls/library\x509_crt.c ****     ret = mbedtls_snprintf( p, n, "\n%ssigned using      : ", prefix );
 4738              	 .loc 2 1583 0 is_stmt 1 discriminator 4
 4739 02bc 7A6A     	 ldr r2,[r7,#36]
 4740 02be BB6A     	 ldr r3,[r7,#40]
 4741 02c0 1046     	 mov r0,r2
 4742 02c2 1946     	 mov r1,r3
 4743 02c4 9E4A     	 ldr r2,.L352
 4744 02c6 7B68     	 ldr r3,[r7,#4]
 4745 02c8 FFF7FEFF 	 bl snprintf
 4746 02cc F862     	 str r0,[r7,#44]
1584:C:/Users/Yushev/git/wpcqi-optiga-trust-charge/optiga/externals/mbedtls/library\x509_crt.c ****     MBEDTLS_X509_SAFE_SNPRINTF;
 4747              	 .loc 2 1584 0 discriminator 4
 4748 02ce FB6A     	 ldr r3,[r7,#44]
 4749 02d0 002B     	 cmp r3,#0
 4750 02d2 03DB     	 blt .L321
 4751              	 .loc 2 1584 0 is_stmt 0 discriminator 2
 4752 02d4 FA6A     	 ldr r2,[r7,#44]
 4753 02d6 BB6A     	 ldr r3,[r7,#40]
 4754 02d8 9A42     	 cmp r2,r3
 4755 02da 01D3     	 bcc .L322
 4756              	.L321:
 4757              	 .loc 2 1584 0 discriminator 3
 4758 02dc 994B     	 ldr r3,.L352+4
 4759 02de ACE1     	 b .L349
 4760              	.L322:
 4761              	 .loc 2 1584 0 discriminator 4
 4762 02e0 BA6A     	 ldr r2,[r7,#40]
 4763 02e2 FB6A     	 ldr r3,[r7,#44]
 4764 02e4 D31A     	 subs r3,r2,r3
 4765 02e6 BB62     	 str r3,[r7,#40]
 4766 02e8 7A6A     	 ldr r2,[r7,#36]
 4767 02ea FB6A     	 ldr r3,[r7,#44]
 4768 02ec 1344     	 add r3,r3,r2
 4769 02ee 7B62     	 str r3,[r7,#36]
1585:C:/Users/Yushev/git/wpcqi-optiga-trust-charge/optiga/externals/mbedtls/library\x509_crt.c **** 
1586:C:/Users/Yushev/git/wpcqi-optiga-trust-charge/optiga/externals/mbedtls/library\x509_crt.c ****     ret = mbedtls_x509_sig_alg_gets( p, n, &crt->sig_oid, crt->sig_pk,
 4770              	 .loc 2 1586 0 is_stmt 1 discriminator 4
 4771 02f0 786A     	 ldr r0,[r7,#36]
 4772 02f2 B96A     	 ldr r1,[r7,#40]
 4773 02f4 3B68     	 ldr r3,[r7]
 4774 02f6 03F12805 	 add r5,r3,#40
 4775 02fa 3B68     	 ldr r3,[r7]
 4776 02fc 93F82941 	 ldrb r4,[r3,#297]
 4777 0300 3B68     	 ldr r3,[r7]
 4778 0302 93F82821 	 ldrb r2,[r3,#296]
1587:C:/Users/Yushev/git/wpcqi-optiga-trust-charge/optiga/externals/mbedtls/library\x509_crt.c ****                              crt->sig_md, crt->sig_opts );
 4779              	 .loc 2 1587 0 discriminator 4
 4780 0306 3B68     	 ldr r3,[r7]
 4781 0308 D3F82C31 	 ldr r3,[r3,#300]
1586:C:/Users/Yushev/git/wpcqi-optiga-trust-charge/optiga/externals/mbedtls/library\x509_crt.c ****                              crt->sig_md, crt->sig_opts );
 4782              	 .loc 2 1586 0 discriminator 4
 4783 030c 0092     	 str r2,[sp]
 4784 030e 0193     	 str r3,[sp,#4]
 4785 0310 2A46     	 mov r2,r5
 4786 0312 2346     	 mov r3,r4
 4787 0314 FFF7FEFF 	 bl mbedtls_x509_sig_alg_gets
 4788 0318 F862     	 str r0,[r7,#44]
1588:C:/Users/Yushev/git/wpcqi-optiga-trust-charge/optiga/externals/mbedtls/library\x509_crt.c ****     MBEDTLS_X509_SAFE_SNPRINTF;
 4789              	 .loc 2 1588 0 discriminator 4
 4790 031a FB6A     	 ldr r3,[r7,#44]
 4791 031c 002B     	 cmp r3,#0
 4792 031e 03DB     	 blt .L323
 4793              	 .loc 2 1588 0 is_stmt 0 discriminator 2
 4794 0320 FA6A     	 ldr r2,[r7,#44]
 4795 0322 BB6A     	 ldr r3,[r7,#40]
 4796 0324 9A42     	 cmp r2,r3
 4797 0326 01D3     	 bcc .L324
 4798              	.L323:
 4799              	 .loc 2 1588 0 discriminator 3
 4800 0328 864B     	 ldr r3,.L352+4
 4801 032a 86E1     	 b .L349
 4802              	.L324:
 4803              	 .loc 2 1588 0 discriminator 4
 4804 032c BA6A     	 ldr r2,[r7,#40]
 4805 032e FB6A     	 ldr r3,[r7,#44]
 4806 0330 D31A     	 subs r3,r2,r3
 4807 0332 BB62     	 str r3,[r7,#40]
 4808 0334 7A6A     	 ldr r2,[r7,#36]
 4809 0336 FB6A     	 ldr r3,[r7,#44]
 4810 0338 1344     	 add r3,r3,r2
 4811 033a 7B62     	 str r3,[r7,#36]
1589:C:/Users/Yushev/git/wpcqi-optiga-trust-charge/optiga/externals/mbedtls/library\x509_crt.c **** 
1590:C:/Users/Yushev/git/wpcqi-optiga-trust-charge/optiga/externals/mbedtls/library\x509_crt.c ****     /* Key size */
1591:C:/Users/Yushev/git/wpcqi-optiga-trust-charge/optiga/externals/mbedtls/library\x509_crt.c ****     if( ( ret = mbedtls_x509_key_size_helper( key_size_str, BEFORE_COLON,
 4812              	 .loc 2 1591 0 is_stmt 1 discriminator 4
 4813 033c 3B68     	 ldr r3,[r7]
 4814 033e BC33     	 adds r3,r3,#188
 4815 0340 1846     	 mov r0,r3
 4816 0342 FFF7FEFF 	 bl mbedtls_pk_get_name
 4817 0346 0246     	 mov r2,r0
 4818 0348 07F11003 	 add r3,r7,#16
 4819 034c 1846     	 mov r0,r3
 4820 034e 1221     	 movs r1,#18
 4821 0350 FFF7FEFF 	 bl mbedtls_x509_key_size_helper
 4822 0354 F862     	 str r0,[r7,#44]
 4823 0356 FB6A     	 ldr r3,[r7,#44]
 4824 0358 002B     	 cmp r3,#0
 4825 035a 01D0     	 beq .L325
1592:C:/Users/Yushev/git/wpcqi-optiga-trust-charge/optiga/externals/mbedtls/library\x509_crt.c ****                                       mbedtls_pk_get_name( &crt->pk ) ) ) != 0 )
1593:C:/Users/Yushev/git/wpcqi-optiga-trust-charge/optiga/externals/mbedtls/library\x509_crt.c ****     {
1594:C:/Users/Yushev/git/wpcqi-optiga-trust-charge/optiga/externals/mbedtls/library\x509_crt.c ****         return( ret );
 4826              	 .loc 2 1594 0
 4827 035c FB6A     	 ldr r3,[r7,#44]
 4828 035e 6CE1     	 b .L349
 4829              	.L325:
1595:C:/Users/Yushev/git/wpcqi-optiga-trust-charge/optiga/externals/mbedtls/library\x509_crt.c ****     }
1596:C:/Users/Yushev/git/wpcqi-optiga-trust-charge/optiga/externals/mbedtls/library\x509_crt.c **** 
1597:C:/Users/Yushev/git/wpcqi-optiga-trust-charge/optiga/externals/mbedtls/library\x509_crt.c ****     ret = mbedtls_snprintf( p, n, "\n%s%-" BC "s: %d bits", prefix, key_size_str,
 4830              	 .loc 2 1597 0
 4831 0360 7D6A     	 ldr r5,[r7,#36]
 4832 0362 BC6A     	 ldr r4,[r7,#40]
1598:C:/Users/Yushev/git/wpcqi-optiga-trust-charge/optiga/externals/mbedtls/library\x509_crt.c ****                           (int) mbedtls_pk_get_bitlen( &crt->pk ) );
 4833              	 .loc 2 1598 0
 4834 0364 3B68     	 ldr r3,[r7]
 4835 0366 BC33     	 adds r3,r3,#188
 4836 0368 1846     	 mov r0,r3
 4837 036a FFF7FEFF 	 bl mbedtls_pk_get_bitlen
 4838 036e 0346     	 mov r3,r0
1597:C:/Users/Yushev/git/wpcqi-optiga-trust-charge/optiga/externals/mbedtls/library\x509_crt.c ****                           (int) mbedtls_pk_get_bitlen( &crt->pk ) );
 4839              	 .loc 2 1597 0
 4840 0370 1A46     	 mov r2,r3
 4841 0372 07F11003 	 add r3,r7,#16
 4842 0376 0093     	 str r3,[sp]
 4843 0378 0192     	 str r2,[sp,#4]
 4844 037a 2846     	 mov r0,r5
 4845 037c 2146     	 mov r1,r4
 4846 037e 724A     	 ldr r2,.L352+8
 4847 0380 7B68     	 ldr r3,[r7,#4]
 4848 0382 FFF7FEFF 	 bl snprintf
 4849 0386 F862     	 str r0,[r7,#44]
1599:C:/Users/Yushev/git/wpcqi-optiga-trust-charge/optiga/externals/mbedtls/library\x509_crt.c ****     MBEDTLS_X509_SAFE_SNPRINTF;
 4850              	 .loc 2 1599 0
 4851 0388 FB6A     	 ldr r3,[r7,#44]
 4852 038a 002B     	 cmp r3,#0
 4853 038c 03DB     	 blt .L326
 4854              	 .loc 2 1599 0 is_stmt 0 discriminator 2
 4855 038e FA6A     	 ldr r2,[r7,#44]
 4856 0390 BB6A     	 ldr r3,[r7,#40]
 4857 0392 9A42     	 cmp r2,r3
 4858 0394 01D3     	 bcc .L327
 4859              	.L326:
 4860              	 .loc 2 1599 0 discriminator 3
 4861 0396 6B4B     	 ldr r3,.L352+4
 4862 0398 4FE1     	 b .L349
 4863              	.L327:
 4864              	 .loc 2 1599 0 discriminator 4
 4865 039a BA6A     	 ldr r2,[r7,#40]
 4866 039c FB6A     	 ldr r3,[r7,#44]
 4867 039e D31A     	 subs r3,r2,r3
 4868 03a0 BB62     	 str r3,[r7,#40]
 4869 03a2 7A6A     	 ldr r2,[r7,#36]
 4870 03a4 FB6A     	 ldr r3,[r7,#44]
 4871 03a6 1344     	 add r3,r3,r2
 4872 03a8 7B62     	 str r3,[r7,#36]
1600:C:/Users/Yushev/git/wpcqi-optiga-trust-charge/optiga/externals/mbedtls/library\x509_crt.c **** 
1601:C:/Users/Yushev/git/wpcqi-optiga-trust-charge/optiga/externals/mbedtls/library\x509_crt.c ****     /*
1602:C:/Users/Yushev/git/wpcqi-optiga-trust-charge/optiga/externals/mbedtls/library\x509_crt.c ****      * Optional extensions
1603:C:/Users/Yushev/git/wpcqi-optiga-trust-charge/optiga/externals/mbedtls/library\x509_crt.c ****      */
1604:C:/Users/Yushev/git/wpcqi-optiga-trust-charge/optiga/externals/mbedtls/library\x509_crt.c **** 
1605:C:/Users/Yushev/git/wpcqi-optiga-trust-charge/optiga/externals/mbedtls/library\x509_crt.c ****     if( crt->ext_types & MBEDTLS_X509_EXT_BASIC_CONSTRAINTS )
 4873              	 .loc 2 1605 0 is_stmt 1 discriminator 4
 4874 03aa 3B68     	 ldr r3,[r7]
 4875 03ac D3F8F830 	 ldr r3,[r3,#248]
 4876 03b0 03F48073 	 and r3,r3,#256
 4877 03b4 002B     	 cmp r3,#0
 4878 03b6 44D0     	 beq .L328
1606:C:/Users/Yushev/git/wpcqi-optiga-trust-charge/optiga/externals/mbedtls/library\x509_crt.c ****     {
1607:C:/Users/Yushev/git/wpcqi-optiga-trust-charge/optiga/externals/mbedtls/library\x509_crt.c ****         ret = mbedtls_snprintf( p, n, "\n%sbasic constraints : CA=%s", prefix,
 4879              	 .loc 2 1607 0
 4880 03b8 796A     	 ldr r1,[r7,#36]
 4881 03ba BA6A     	 ldr r2,[r7,#40]
1608:C:/Users/Yushev/git/wpcqi-optiga-trust-charge/optiga/externals/mbedtls/library\x509_crt.c ****                         crt->ca_istrue ? "true" : "false" );
 4882              	 .loc 2 1608 0
 4883 03bc 3B68     	 ldr r3,[r7]
 4884 03be D3F8FC30 	 ldr r3,[r3,#252]
1607:C:/Users/Yushev/git/wpcqi-optiga-trust-charge/optiga/externals/mbedtls/library\x509_crt.c ****                         crt->ca_istrue ? "true" : "false" );
 4885              	 .loc 2 1607 0
 4886 03c2 002B     	 cmp r3,#0
 4887 03c4 01D0     	 beq .L329
1607:C:/Users/Yushev/git/wpcqi-optiga-trust-charge/optiga/externals/mbedtls/library\x509_crt.c ****                         crt->ca_istrue ? "true" : "false" );
 4888              	 .loc 2 1607 0 is_stmt 0 discriminator 1
 4889 03c6 614B     	 ldr r3,.L352+12
 4890 03c8 00E0     	 b .L330
 4891              	.L329:
1607:C:/Users/Yushev/git/wpcqi-optiga-trust-charge/optiga/externals/mbedtls/library\x509_crt.c ****                         crt->ca_istrue ? "true" : "false" );
 4892              	 .loc 2 1607 0 discriminator 2
 4893 03ca 614B     	 ldr r3,.L352+16
 4894              	.L330:
1607:C:/Users/Yushev/git/wpcqi-optiga-trust-charge/optiga/externals/mbedtls/library\x509_crt.c ****                         crt->ca_istrue ? "true" : "false" );
 4895              	 .loc 2 1607 0 discriminator 4
 4896 03cc 0093     	 str r3,[sp]
 4897 03ce 0846     	 mov r0,r1
 4898 03d0 1146     	 mov r1,r2
 4899 03d2 604A     	 ldr r2,.L352+20
 4900 03d4 7B68     	 ldr r3,[r7,#4]
 4901 03d6 FFF7FEFF 	 bl snprintf
 4902 03da F862     	 str r0,[r7,#44]
1609:C:/Users/Yushev/git/wpcqi-optiga-trust-charge/optiga/externals/mbedtls/library\x509_crt.c ****         MBEDTLS_X509_SAFE_SNPRINTF;
 4903              	 .loc 2 1609 0 is_stmt 1 discriminator 4
 4904 03dc FB6A     	 ldr r3,[r7,#44]
 4905 03de 002B     	 cmp r3,#0
 4906 03e0 03DB     	 blt .L331
 4907              	 .loc 2 1609 0 is_stmt 0 discriminator 2
 4908 03e2 FA6A     	 ldr r2,[r7,#44]
 4909 03e4 BB6A     	 ldr r3,[r7,#40]
 4910 03e6 9A42     	 cmp r2,r3
 4911 03e8 01D3     	 bcc .L332
 4912              	.L331:
 4913              	 .loc 2 1609 0 discriminator 3
 4914 03ea 564B     	 ldr r3,.L352+4
 4915 03ec 25E1     	 b .L349
 4916              	.L332:
 4917              	 .loc 2 1609 0 discriminator 4
 4918 03ee BA6A     	 ldr r2,[r7,#40]
 4919 03f0 FB6A     	 ldr r3,[r7,#44]
 4920 03f2 D31A     	 subs r3,r2,r3
 4921 03f4 BB62     	 str r3,[r7,#40]
 4922 03f6 7A6A     	 ldr r2,[r7,#36]
 4923 03f8 FB6A     	 ldr r3,[r7,#44]
 4924 03fa 1344     	 add r3,r3,r2
 4925 03fc 7B62     	 str r3,[r7,#36]
1610:C:/Users/Yushev/git/wpcqi-optiga-trust-charge/optiga/externals/mbedtls/library\x509_crt.c **** 
1611:C:/Users/Yushev/git/wpcqi-optiga-trust-charge/optiga/externals/mbedtls/library\x509_crt.c ****         if( crt->max_pathlen > 0 )
 4926              	 .loc 2 1611 0 is_stmt 1 discriminator 4
 4927 03fe 3B68     	 ldr r3,[r7]
 4928 0400 D3F80031 	 ldr r3,[r3,#256]
 4929 0404 002B     	 cmp r3,#0
 4930 0406 1CDD     	 ble .L328
1612:C:/Users/Yushev/git/wpcqi-optiga-trust-charge/optiga/externals/mbedtls/library\x509_crt.c ****         {
1613:C:/Users/Yushev/git/wpcqi-optiga-trust-charge/optiga/externals/mbedtls/library\x509_crt.c ****             ret = mbedtls_snprintf( p, n, ", max_pathlen=%d", crt->max_pathlen - 1 );
 4931              	 .loc 2 1613 0
 4932 0408 796A     	 ldr r1,[r7,#36]
 4933 040a BA6A     	 ldr r2,[r7,#40]
 4934 040c 3B68     	 ldr r3,[r7]
 4935 040e D3F80031 	 ldr r3,[r3,#256]
 4936 0412 013B     	 subs r3,r3,#1
 4937 0414 0846     	 mov r0,r1
 4938 0416 1146     	 mov r1,r2
 4939 0418 4F4A     	 ldr r2,.L352+24
 4940 041a FFF7FEFF 	 bl snprintf
 4941 041e F862     	 str r0,[r7,#44]
1614:C:/Users/Yushev/git/wpcqi-optiga-trust-charge/optiga/externals/mbedtls/library\x509_crt.c ****             MBEDTLS_X509_SAFE_SNPRINTF;
 4942              	 .loc 2 1614 0
 4943 0420 FB6A     	 ldr r3,[r7,#44]
 4944 0422 002B     	 cmp r3,#0
 4945 0424 03DB     	 blt .L333
 4946              	 .loc 2 1614 0 is_stmt 0 discriminator 2
 4947 0426 FA6A     	 ldr r2,[r7,#44]
 4948 0428 BB6A     	 ldr r3,[r7,#40]
 4949 042a 9A42     	 cmp r2,r3
 4950 042c 01D3     	 bcc .L334
 4951              	.L333:
 4952              	 .loc 2 1614 0 discriminator 3
 4953 042e 454B     	 ldr r3,.L352+4
 4954 0430 03E1     	 b .L349
 4955              	.L334:
 4956              	 .loc 2 1614 0 discriminator 4
 4957 0432 BA6A     	 ldr r2,[r7,#40]
 4958 0434 FB6A     	 ldr r3,[r7,#44]
 4959 0436 D31A     	 subs r3,r2,r3
 4960 0438 BB62     	 str r3,[r7,#40]
 4961 043a 7A6A     	 ldr r2,[r7,#36]
 4962 043c FB6A     	 ldr r3,[r7,#44]
 4963 043e 1344     	 add r3,r3,r2
 4964 0440 7B62     	 str r3,[r7,#36]
 4965              	.L328:
1615:C:/Users/Yushev/git/wpcqi-optiga-trust-charge/optiga/externals/mbedtls/library\x509_crt.c ****         }
1616:C:/Users/Yushev/git/wpcqi-optiga-trust-charge/optiga/externals/mbedtls/library\x509_crt.c ****     }
1617:C:/Users/Yushev/git/wpcqi-optiga-trust-charge/optiga/externals/mbedtls/library\x509_crt.c **** 
1618:C:/Users/Yushev/git/wpcqi-optiga-trust-charge/optiga/externals/mbedtls/library\x509_crt.c ****     if( crt->ext_types & MBEDTLS_X509_EXT_SUBJECT_ALT_NAME )
 4966              	 .loc 2 1618 0 is_stmt 1
 4967 0442 3B68     	 ldr r3,[r7]
 4968 0444 D3F8F830 	 ldr r3,[r3,#248]
 4969 0448 03F02003 	 and r3,r3,#32
 4970 044c 002B     	 cmp r3,#0
 4971 044e 2AD0     	 beq .L335
1619:C:/Users/Yushev/git/wpcqi-optiga-trust-charge/optiga/externals/mbedtls/library\x509_crt.c ****     {
1620:C:/Users/Yushev/git/wpcqi-optiga-trust-charge/optiga/externals/mbedtls/library\x509_crt.c ****         ret = mbedtls_snprintf( p, n, "\n%ssubject alt name  : ", prefix );
 4972              	 .loc 2 1620 0
 4973 0450 7A6A     	 ldr r2,[r7,#36]
 4974 0452 BB6A     	 ldr r3,[r7,#40]
 4975 0454 1046     	 mov r0,r2
 4976 0456 1946     	 mov r1,r3
 4977 0458 404A     	 ldr r2,.L352+28
 4978 045a 7B68     	 ldr r3,[r7,#4]
 4979 045c FFF7FEFF 	 bl snprintf
 4980 0460 F862     	 str r0,[r7,#44]
1621:C:/Users/Yushev/git/wpcqi-optiga-trust-charge/optiga/externals/mbedtls/library\x509_crt.c ****         MBEDTLS_X509_SAFE_SNPRINTF;
 4981              	 .loc 2 1621 0
 4982 0462 FB6A     	 ldr r3,[r7,#44]
 4983 0464 002B     	 cmp r3,#0
 4984 0466 03DB     	 blt .L336
 4985              	 .loc 2 1621 0 is_stmt 0 discriminator 2
 4986 0468 FA6A     	 ldr r2,[r7,#44]
 4987 046a BB6A     	 ldr r3,[r7,#40]
 4988 046c 9A42     	 cmp r2,r3
 4989 046e 01D3     	 bcc .L337
 4990              	.L336:
 4991              	 .loc 2 1621 0 discriminator 3
 4992 0470 344B     	 ldr r3,.L352+4
 4993 0472 E2E0     	 b .L349
 4994              	.L337:
 4995              	 .loc 2 1621 0 discriminator 4
 4996 0474 BA6A     	 ldr r2,[r7,#40]
 4997 0476 FB6A     	 ldr r3,[r7,#44]
 4998 0478 D31A     	 subs r3,r2,r3
 4999 047a BB62     	 str r3,[r7,#40]
 5000 047c 7A6A     	 ldr r2,[r7,#36]
 5001 047e FB6A     	 ldr r3,[r7,#44]
 5002 0480 1344     	 add r3,r3,r2
 5003 0482 7B62     	 str r3,[r7,#36]
1622:C:/Users/Yushev/git/wpcqi-optiga-trust-charge/optiga/externals/mbedtls/library\x509_crt.c **** 
1623:C:/Users/Yushev/git/wpcqi-optiga-trust-charge/optiga/externals/mbedtls/library\x509_crt.c ****         if( ( ret = x509_info_subject_alt_name( &p, &n,
 5004              	 .loc 2 1623 0 is_stmt 1 discriminator 4
 5005 0484 3B68     	 ldr r3,[r7]
 5006 0486 E833     	 adds r3,r3,#232
 5007 0488 07F12401 	 add r1,r7,#36
 5008 048c 07F12802 	 add r2,r7,#40
 5009 0490 0846     	 mov r0,r1
 5010 0492 1146     	 mov r1,r2
 5011 0494 1A46     	 mov r2,r3
 5012 0496 FFF7FEFF 	 bl x509_info_subject_alt_name
 5013 049a F862     	 str r0,[r7,#44]
 5014 049c FB6A     	 ldr r3,[r7,#44]
 5015 049e 002B     	 cmp r3,#0
 5016 04a0 01D0     	 beq .L335
1624:C:/Users/Yushev/git/wpcqi-optiga-trust-charge/optiga/externals/mbedtls/library\x509_crt.c ****                                             &crt->subject_alt_names ) ) != 0 )
1625:C:/Users/Yushev/git/wpcqi-optiga-trust-charge/optiga/externals/mbedtls/library\x509_crt.c ****             return( ret );
 5017              	 .loc 2 1625 0
 5018 04a2 FB6A     	 ldr r3,[r7,#44]
 5019 04a4 C9E0     	 b .L349
 5020              	.L335:
1626:C:/Users/Yushev/git/wpcqi-optiga-trust-charge/optiga/externals/mbedtls/library\x509_crt.c ****     }
1627:C:/Users/Yushev/git/wpcqi-optiga-trust-charge/optiga/externals/mbedtls/library\x509_crt.c **** 
1628:C:/Users/Yushev/git/wpcqi-optiga-trust-charge/optiga/externals/mbedtls/library\x509_crt.c ****     if( crt->ext_types & MBEDTLS_X509_EXT_NS_CERT_TYPE )
 5021              	 .loc 2 1628 0
 5022 04a6 3B68     	 ldr r3,[r7]
 5023 04a8 D3F8F830 	 ldr r3,[r3,#248]
 5024 04ac 03F48033 	 and r3,r3,#65536
 5025 04b0 002B     	 cmp r3,#0
 5026 04b2 2BD0     	 beq .L338
1629:C:/Users/Yushev/git/wpcqi-optiga-trust-charge/optiga/externals/mbedtls/library\x509_crt.c ****     {
1630:C:/Users/Yushev/git/wpcqi-optiga-trust-charge/optiga/externals/mbedtls/library\x509_crt.c ****         ret = mbedtls_snprintf( p, n, "\n%scert. type        : ", prefix );
 5027              	 .loc 2 1630 0
 5028 04b4 7A6A     	 ldr r2,[r7,#36]
 5029 04b6 BB6A     	 ldr r3,[r7,#40]
 5030 04b8 1046     	 mov r0,r2
 5031 04ba 1946     	 mov r1,r3
 5032 04bc 284A     	 ldr r2,.L352+32
 5033 04be 7B68     	 ldr r3,[r7,#4]
 5034 04c0 FFF7FEFF 	 bl snprintf
 5035 04c4 F862     	 str r0,[r7,#44]
1631:C:/Users/Yushev/git/wpcqi-optiga-trust-charge/optiga/externals/mbedtls/library\x509_crt.c ****         MBEDTLS_X509_SAFE_SNPRINTF;
 5036              	 .loc 2 1631 0
 5037 04c6 FB6A     	 ldr r3,[r7,#44]
 5038 04c8 002B     	 cmp r3,#0
 5039 04ca 03DB     	 blt .L339
 5040              	 .loc 2 1631 0 is_stmt 0 discriminator 2
 5041 04cc FA6A     	 ldr r2,[r7,#44]
 5042 04ce BB6A     	 ldr r3,[r7,#40]
 5043 04d0 9A42     	 cmp r2,r3
 5044 04d2 01D3     	 bcc .L340
 5045              	.L339:
 5046              	 .loc 2 1631 0 discriminator 3
 5047 04d4 1B4B     	 ldr r3,.L352+4
 5048 04d6 B0E0     	 b .L349
 5049              	.L340:
 5050              	 .loc 2 1631 0 discriminator 4
 5051 04d8 BA6A     	 ldr r2,[r7,#40]
 5052 04da FB6A     	 ldr r3,[r7,#44]
 5053 04dc D31A     	 subs r3,r2,r3
 5054 04de BB62     	 str r3,[r7,#40]
 5055 04e0 7A6A     	 ldr r2,[r7,#36]
 5056 04e2 FB6A     	 ldr r3,[r7,#44]
 5057 04e4 1344     	 add r3,r3,r2
 5058 04e6 7B62     	 str r3,[r7,#36]
1632:C:/Users/Yushev/git/wpcqi-optiga-trust-charge/optiga/externals/mbedtls/library\x509_crt.c **** 
1633:C:/Users/Yushev/git/wpcqi-optiga-trust-charge/optiga/externals/mbedtls/library\x509_crt.c ****         if( ( ret = x509_info_cert_type( &p, &n, crt->ns_cert_type ) ) != 0 )
 5059              	 .loc 2 1633 0 is_stmt 1 discriminator 4
 5060 04e8 3B68     	 ldr r3,[r7]
 5061 04ea 93F81831 	 ldrb r3,[r3,#280]
 5062 04ee 07F12401 	 add r1,r7,#36
 5063 04f2 07F12802 	 add r2,r7,#40
 5064 04f6 0846     	 mov r0,r1
 5065 04f8 1146     	 mov r1,r2
 5066 04fa 1A46     	 mov r2,r3
 5067 04fc FFF7FEFF 	 bl x509_info_cert_type
 5068 0500 F862     	 str r0,[r7,#44]
 5069 0502 FB6A     	 ldr r3,[r7,#44]
 5070 0504 002B     	 cmp r3,#0
 5071 0506 01D0     	 beq .L338
1634:C:/Users/Yushev/git/wpcqi-optiga-trust-charge/optiga/externals/mbedtls/library\x509_crt.c ****             return( ret );
 5072              	 .loc 2 1634 0
 5073 0508 FB6A     	 ldr r3,[r7,#44]
 5074 050a 96E0     	 b .L349
 5075              	.L338:
1635:C:/Users/Yushev/git/wpcqi-optiga-trust-charge/optiga/externals/mbedtls/library\x509_crt.c ****     }
1636:C:/Users/Yushev/git/wpcqi-optiga-trust-charge/optiga/externals/mbedtls/library\x509_crt.c **** 
1637:C:/Users/Yushev/git/wpcqi-optiga-trust-charge/optiga/externals/mbedtls/library\x509_crt.c ****     if( crt->ext_types & MBEDTLS_X509_EXT_KEY_USAGE )
 5076              	 .loc 2 1637 0
 5077 050c 3B68     	 ldr r3,[r7]
 5078 050e D3F8F830 	 ldr r3,[r3,#248]
 5079 0512 03F00403 	 and r3,r3,#4
 5080 0516 002B     	 cmp r3,#0
 5081 0518 40D0     	 beq .L341
1638:C:/Users/Yushev/git/wpcqi-optiga-trust-charge/optiga/externals/mbedtls/library\x509_crt.c ****     {
1639:C:/Users/Yushev/git/wpcqi-optiga-trust-charge/optiga/externals/mbedtls/library\x509_crt.c ****         ret = mbedtls_snprintf( p, n, "\n%skey usage         : ", prefix );
 5082              	 .loc 2 1639 0
 5083 051a 7A6A     	 ldr r2,[r7,#36]
 5084 051c BB6A     	 ldr r3,[r7,#40]
 5085 051e 1046     	 mov r0,r2
 5086 0520 1946     	 mov r1,r3
 5087 0522 104A     	 ldr r2,.L352+36
 5088 0524 7B68     	 ldr r3,[r7,#4]
 5089 0526 FFF7FEFF 	 bl snprintf
 5090 052a F862     	 str r0,[r7,#44]
1640:C:/Users/Yushev/git/wpcqi-optiga-trust-charge/optiga/externals/mbedtls/library\x509_crt.c ****         MBEDTLS_X509_SAFE_SNPRINTF;
 5091              	 .loc 2 1640 0
 5092 052c FB6A     	 ldr r3,[r7,#44]
 5093 052e 002B     	 cmp r3,#0
 5094 0530 03DB     	 blt .L342
 5095              	 .loc 2 1640 0 is_stmt 0 discriminator 2
 5096 0532 FA6A     	 ldr r2,[r7,#44]
 5097 0534 BB6A     	 ldr r3,[r7,#40]
 5098 0536 9A42     	 cmp r2,r3
 5099 0538 16D3     	 bcc .L343
 5100              	.L342:
 5101              	 .loc 2 1640 0 discriminator 3
 5102 053a 024B     	 ldr r3,.L352+4
 5103 053c 7DE0     	 b .L349
 5104              	.L353:
 5105 053e 00BF     	 .align 2
 5106              	.L352:
 5107 0540 18020000 	 .word .LC28
 5108 0544 80D6FFFF 	 .word -10624
 5109 0548 30020000 	 .word .LC29
 5110 054c 44020000 	 .word .LC30
 5111 0550 4C020000 	 .word .LC31
 5112 0554 54020000 	 .word .LC32
 5113 0558 74020000 	 .word .LC33
 5114 055c 88020000 	 .word .LC34
 5115 0560 A0020000 	 .word .LC35
 5116 0564 B8020000 	 .word .LC36
 5117              	.L343:
 5118              	 .loc 2 1640 0 discriminator 4
 5119 0568 BA6A     	 ldr r2,[r7,#40]
 5120 056a FB6A     	 ldr r3,[r7,#44]
 5121 056c D31A     	 subs r3,r2,r3
 5122 056e BB62     	 str r3,[r7,#40]
 5123 0570 7A6A     	 ldr r2,[r7,#36]
 5124 0572 FB6A     	 ldr r3,[r7,#44]
 5125 0574 1344     	 add r3,r3,r2
 5126 0576 7B62     	 str r3,[r7,#36]
1641:C:/Users/Yushev/git/wpcqi-optiga-trust-charge/optiga/externals/mbedtls/library\x509_crt.c **** 
1642:C:/Users/Yushev/git/wpcqi-optiga-trust-charge/optiga/externals/mbedtls/library\x509_crt.c ****         if( ( ret = x509_info_key_usage( &p, &n, crt->key_usage ) ) != 0 )
 5127              	 .loc 2 1642 0 is_stmt 1 discriminator 4
 5128 0578 3B68     	 ldr r3,[r7]
 5129 057a D3F80431 	 ldr r3,[r3,#260]
 5130 057e 07F12401 	 add r1,r7,#36
 5131 0582 07F12802 	 add r2,r7,#40
 5132 0586 0846     	 mov r0,r1
 5133 0588 1146     	 mov r1,r2
 5134 058a 1A46     	 mov r2,r3
 5135 058c FFF7FEFF 	 bl x509_info_key_usage
 5136 0590 F862     	 str r0,[r7,#44]
 5137 0592 FB6A     	 ldr r3,[r7,#44]
 5138 0594 002B     	 cmp r3,#0
 5139 0596 01D0     	 beq .L341
1643:C:/Users/Yushev/git/wpcqi-optiga-trust-charge/optiga/externals/mbedtls/library\x509_crt.c ****             return( ret );
 5140              	 .loc 2 1643 0
 5141 0598 FB6A     	 ldr r3,[r7,#44]
 5142 059a 4EE0     	 b .L349
 5143              	.L341:
1644:C:/Users/Yushev/git/wpcqi-optiga-trust-charge/optiga/externals/mbedtls/library\x509_crt.c ****     }
1645:C:/Users/Yushev/git/wpcqi-optiga-trust-charge/optiga/externals/mbedtls/library\x509_crt.c **** 
1646:C:/Users/Yushev/git/wpcqi-optiga-trust-charge/optiga/externals/mbedtls/library\x509_crt.c ****     if( crt->ext_types & MBEDTLS_X509_EXT_EXTENDED_KEY_USAGE )
 5144              	 .loc 2 1646 0
 5145 059c 3B68     	 ldr r3,[r7]
 5146 059e D3F8F830 	 ldr r3,[r3,#248]
 5147 05a2 03F40063 	 and r3,r3,#2048
 5148 05a6 002B     	 cmp r3,#0
 5149 05a8 2BD0     	 beq .L344
1647:C:/Users/Yushev/git/wpcqi-optiga-trust-charge/optiga/externals/mbedtls/library\x509_crt.c ****     {
1648:C:/Users/Yushev/git/wpcqi-optiga-trust-charge/optiga/externals/mbedtls/library\x509_crt.c ****         ret = mbedtls_snprintf( p, n, "\n%sext key usage     : ", prefix );
 5150              	 .loc 2 1648 0
 5151 05aa 7A6A     	 ldr r2,[r7,#36]
 5152 05ac BB6A     	 ldr r3,[r7,#40]
 5153 05ae 1046     	 mov r0,r2
 5154 05b0 1946     	 mov r1,r3
 5155 05b2 244A     	 ldr r2,.L354
 5156 05b4 7B68     	 ldr r3,[r7,#4]
 5157 05b6 FFF7FEFF 	 bl snprintf
 5158 05ba F862     	 str r0,[r7,#44]
1649:C:/Users/Yushev/git/wpcqi-optiga-trust-charge/optiga/externals/mbedtls/library\x509_crt.c ****         MBEDTLS_X509_SAFE_SNPRINTF;
 5159              	 .loc 2 1649 0
 5160 05bc FB6A     	 ldr r3,[r7,#44]
 5161 05be 002B     	 cmp r3,#0
 5162 05c0 03DB     	 blt .L345
 5163              	 .loc 2 1649 0 is_stmt 0 discriminator 2
 5164 05c2 FA6A     	 ldr r2,[r7,#44]
 5165 05c4 BB6A     	 ldr r3,[r7,#40]
 5166 05c6 9A42     	 cmp r2,r3
 5167 05c8 01D3     	 bcc .L346
 5168              	.L345:
 5169              	 .loc 2 1649 0 discriminator 3
 5170 05ca 1F4B     	 ldr r3,.L354+4
 5171 05cc 35E0     	 b .L349
 5172              	.L346:
 5173              	 .loc 2 1649 0 discriminator 4
 5174 05ce BA6A     	 ldr r2,[r7,#40]
 5175 05d0 FB6A     	 ldr r3,[r7,#44]
 5176 05d2 D31A     	 subs r3,r2,r3
 5177 05d4 BB62     	 str r3,[r7,#40]
 5178 05d6 7A6A     	 ldr r2,[r7,#36]
 5179 05d8 FB6A     	 ldr r3,[r7,#44]
 5180 05da 1344     	 add r3,r3,r2
 5181 05dc 7B62     	 str r3,[r7,#36]
1650:C:/Users/Yushev/git/wpcqi-optiga-trust-charge/optiga/externals/mbedtls/library\x509_crt.c **** 
1651:C:/Users/Yushev/git/wpcqi-optiga-trust-charge/optiga/externals/mbedtls/library\x509_crt.c ****         if( ( ret = x509_info_ext_key_usage( &p, &n,
 5182              	 .loc 2 1651 0 is_stmt 1 discriminator 4
 5183 05de 3B68     	 ldr r3,[r7]
 5184 05e0 03F58473 	 add r3,r3,#264
 5185 05e4 07F12401 	 add r1,r7,#36
 5186 05e8 07F12802 	 add r2,r7,#40
 5187 05ec 0846     	 mov r0,r1
 5188 05ee 1146     	 mov r1,r2
 5189 05f0 1A46     	 mov r2,r3
 5190 05f2 FFF7FEFF 	 bl x509_info_ext_key_usage
 5191 05f6 F862     	 str r0,[r7,#44]
 5192 05f8 FB6A     	 ldr r3,[r7,#44]
 5193 05fa 002B     	 cmp r3,#0
 5194 05fc 01D0     	 beq .L344
1652:C:/Users/Yushev/git/wpcqi-optiga-trust-charge/optiga/externals/mbedtls/library\x509_crt.c ****                                              &crt->ext_key_usage ) ) != 0 )
1653:C:/Users/Yushev/git/wpcqi-optiga-trust-charge/optiga/externals/mbedtls/library\x509_crt.c ****             return( ret );
 5195              	 .loc 2 1653 0
 5196 05fe FB6A     	 ldr r3,[r7,#44]
 5197 0600 1BE0     	 b .L349
 5198              	.L344:
1654:C:/Users/Yushev/git/wpcqi-optiga-trust-charge/optiga/externals/mbedtls/library\x509_crt.c ****     }
1655:C:/Users/Yushev/git/wpcqi-optiga-trust-charge/optiga/externals/mbedtls/library\x509_crt.c **** 
1656:C:/Users/Yushev/git/wpcqi-optiga-trust-charge/optiga/externals/mbedtls/library\x509_crt.c ****     ret = mbedtls_snprintf( p, n, "\n" );
 5199              	 .loc 2 1656 0
 5200 0602 7A6A     	 ldr r2,[r7,#36]
 5201 0604 BB6A     	 ldr r3,[r7,#40]
 5202 0606 1046     	 mov r0,r2
 5203 0608 1946     	 mov r1,r3
 5204 060a 104A     	 ldr r2,.L354+8
 5205 060c FFF7FEFF 	 bl snprintf
 5206 0610 F862     	 str r0,[r7,#44]
1657:C:/Users/Yushev/git/wpcqi-optiga-trust-charge/optiga/externals/mbedtls/library\x509_crt.c ****     MBEDTLS_X509_SAFE_SNPRINTF;
 5207              	 .loc 2 1657 0
 5208 0612 FB6A     	 ldr r3,[r7,#44]
 5209 0614 002B     	 cmp r3,#0
 5210 0616 03DB     	 blt .L347
 5211              	 .loc 2 1657 0 is_stmt 0 discriminator 2
 5212 0618 FA6A     	 ldr r2,[r7,#44]
 5213 061a BB6A     	 ldr r3,[r7,#40]
 5214 061c 9A42     	 cmp r2,r3
 5215 061e 01D3     	 bcc .L348
 5216              	.L347:
 5217              	 .loc 2 1657 0 discriminator 3
 5218 0620 094B     	 ldr r3,.L354+4
 5219 0622 0AE0     	 b .L349
 5220              	.L348:
 5221              	 .loc 2 1657 0 discriminator 4
 5222 0624 BA6A     	 ldr r2,[r7,#40]
 5223 0626 FB6A     	 ldr r3,[r7,#44]
 5224 0628 D31A     	 subs r3,r2,r3
 5225 062a BB62     	 str r3,[r7,#40]
 5226 062c 7A6A     	 ldr r2,[r7,#36]
 5227 062e FB6A     	 ldr r3,[r7,#44]
 5228 0630 1344     	 add r3,r3,r2
 5229 0632 7B62     	 str r3,[r7,#36]
1658:C:/Users/Yushev/git/wpcqi-optiga-trust-charge/optiga/externals/mbedtls/library\x509_crt.c **** 
1659:C:/Users/Yushev/git/wpcqi-optiga-trust-charge/optiga/externals/mbedtls/library\x509_crt.c ****     return( (int) ( size - n ) );
 5230              	 .loc 2 1659 0 is_stmt 1 discriminator 4
 5231 0634 BB6A     	 ldr r3,[r7,#40]
 5232 0636 BA68     	 ldr r2,[r7,#8]
 5233 0638 D31A     	 subs r3,r2,r3
 5234              	.L349:
1660:C:/Users/Yushev/git/wpcqi-optiga-trust-charge/optiga/externals/mbedtls/library\x509_crt.c **** }
 5235              	 .loc 2 1660 0 discriminator 1
 5236 063a 1846     	 mov r0,r3
 5237 063c 3437     	 adds r7,r7,#52
 5238              	.LCFI134:
 5239              	 .cfi_def_cfa_offset 20
 5240 063e BD46     	 mov sp,r7
 5241              	.LCFI135:
 5242              	 .cfi_def_cfa_register 13
 5243              	 
 5244 0640 F0BD     	 pop {r4,r5,r6,r7,pc}
 5245              	.L355:
 5246 0642 00BF     	 .align 2
 5247              	.L354:
 5248 0644 D0020000 	 .word .LC37
 5249 0648 80D6FFFF 	 .word -10624
 5250 064c E8020000 	 .word .LC38
 5251              	 .cfi_endproc
 5252              	.LFE33:
 5254              	 .section .rodata
 5255 02ea 0000     	 .align 2
 5256              	.LC39:
 5257 02ec 54686520 	 .ascii "The certificate validity has expired\000"
 5257      63657274 
 5257      69666963 
 5257      61746520 
 5257      76616C69 
 5258 0311 000000   	 .align 2
 5259              	.LC40:
 5260 0314 54686520 	 .ascii "The certificate has been revoked (is on a CRL)\000"
 5260      63657274 
 5260      69666963 
 5260      61746520 
 5260      68617320 
 5261 0343 00       	 .align 2
 5262              	.LC41:
 5263 0344 54686520 	 .ascii "The certificate Common Name (CN) does not match wit"
 5263      63657274 
 5263      69666963 
 5263      61746520 
 5263      436F6D6D 
 5264 0377 68207468 	 .ascii "h the expected CN\000"
 5264      65206578 
 5264      70656374 
 5264      65642043 
 5264      4E00
 5265 0389 000000   	 .align 2
 5266              	.LC42:
 5267 038c 54686520 	 .ascii "The certificate is not correctly signed by the trus"
 5267      63657274 
 5267      69666963 
 5267      61746520 
 5267      6973206E 
 5268 03bf 74656420 	 .ascii "ted CA\000"
 5268      434100
 5269 03c6 0000     	 .align 2
 5270              	.LC43:
 5271 03c8 54686520 	 .ascii "The CRL is not correctly signed by the trusted CA\000"
 5271      43524C20 
 5271      6973206E 
 5271      6F742063 
 5271      6F727265 
 5272 03fa 0000     	 .align 2
 5273              	.LC44:
 5274 03fc 54686520 	 .ascii "The CRL is expired\000"
 5274      43524C20 
 5274      69732065 
 5274      78706972 
 5274      656400
 5275 040f 00       	 .align 2
 5276              	.LC45:
 5277 0410 43657274 	 .ascii "Certificate was missing\000"
 5277      69666963 
 5277      61746520 
 5277      77617320 
 5277      6D697373 
 5278              	 .align 2
 5279              	.LC46:
 5280 0428 43657274 	 .ascii "Certificate verification was skipped\000"
 5280      69666963 
 5280      61746520 
 5280      76657269 
 5280      66696361 
 5281 044d 000000   	 .align 2
 5282              	.LC47:
 5283 0450 4F746865 	 .ascii "Other reason (can be used by verify callback)\000"
 5283      72207265 
 5283      61736F6E 
 5283      20286361 
 5283      6E206265 
 5284 047e 0000     	 .align 2
 5285              	.LC48:
 5286 0480 54686520 	 .ascii "The certificate validity starts in the future\000"
 5286      63657274 
 5286      69666963 
 5286      61746520 
 5286      76616C69 
 5287 04ae 0000     	 .align 2
 5288              	.LC49:
 5289 04b0 54686520 	 .ascii "The CRL is from the future\000"
 5289      43524C20 
 5289      69732066 
 5289      726F6D20 
 5289      74686520 
 5290 04cb 00       	 .align 2
 5291              	.LC50:
 5292 04cc 55736167 	 .ascii "Usage does not match the keyUsage extension\000"
 5292      6520646F 
 5292      6573206E 
 5292      6F74206D 
 5292      61746368 
 5293              	 .align 2
 5294              	.LC51:
 5295 04f8 55736167 	 .ascii "Usage does not match the extendedKeyUsage extension"
 5295      6520646F 
 5295      6573206E 
 5295      6F74206D 
 5295      61746368 
 5296 052b 00       	 .ascii "\000"
 5297              	 .align 2
 5298              	.LC52:
 5299 052c 55736167 	 .ascii "Usage does not match the nsCertType extension\000"
 5299      6520646F 
 5299      6573206E 
 5299      6F74206D 
 5299      61746368 
 5300 055a 0000     	 .align 2
 5301              	.LC53:
 5302 055c 54686520 	 .ascii "The certificate is signed with an unacceptable hash"
 5302      63657274 
 5302      69666963 
 5302      61746520 
 5302      69732073 
 5303 058f 2E00     	 .ascii ".\000"
 5304 0591 000000   	 .align 2
 5305              	.LC54:
 5306 0594 54686520 	 .ascii "The certificate is signed with an unacceptable PK a"
 5306      63657274 
 5306      69666963 
 5306      61746520 
 5306      69732073 
 5307 05c7 6C672028 	 .ascii "lg (eg RSA vs ECDSA).\000"
 5307      65672052 
 5307      53412076 
 5307      73204543 
 5307      44534129 
 5308 05dd 000000   	 .align 2
 5309              	.LC55:
 5310 05e0 54686520 	 .ascii "The certificate is signed with an unacceptable key "
 5310      63657274 
 5310      69666963 
 5310      61746520 
 5310      69732073 
 5311 0613 28656720 	 .ascii "(eg bad curve, RSA too short).\000"
 5311      62616420 
 5311      63757276 
 5311      652C2052 
 5311      53412074 
 5312 0632 0000     	 .align 2
 5313              	.LC56:
 5314 0634 54686520 	 .ascii "The CRL is signed with an unacceptable hash.\000"
 5314      43524C20 
 5314      69732073 
 5314      69676E65 
 5314      64207769 
 5315 0661 000000   	 .align 2
 5316              	.LC57:
 5317 0664 54686520 	 .ascii "The CRL is signed with an unacceptable PK alg (eg R"
 5317      43524C20 
 5317      69732073 
 5317      69676E65 
 5317      64207769 
 5318 0697 53412076 	 .ascii "SA vs ECDSA).\000"
 5318      73204543 
 5318      44534129 
 5318      2E00
 5319 06a5 000000   	 .align 2
 5320              	.LC58:
 5321 06a8 54686520 	 .ascii "The CRL is signed with an unacceptable key (eg bad "
 5321      43524C20 
 5321      69732073 
 5321      69676E65 
 5321      64207769 
 5322 06db 63757276 	 .ascii "curve, RSA too short).\000"
 5322      652C2052 
 5322      53412074 
 5322      6F6F2073 
 5322      686F7274 
 5323              	 .section .rodata.x509_crt_verify_strings,"a",%progbits
 5324              	 .align 2
 5327              	x509_crt_verify_strings:
 5328 0000 01000000 	 .word 1
 5329 0004 EC020000 	 .word .LC39
 5330 0008 02000000 	 .word 2
 5331 000c 14030000 	 .word .LC40
 5332 0010 04000000 	 .word 4
 5333 0014 44030000 	 .word .LC41
 5334 0018 08000000 	 .word 8
 5335 001c 8C030000 	 .word .LC42
 5336 0020 10000000 	 .word 16
 5337 0024 C8030000 	 .word .LC43
 5338 0028 20000000 	 .word 32
 5339 002c FC030000 	 .word .LC44
 5340 0030 40000000 	 .word 64
 5341 0034 10040000 	 .word .LC45
 5342 0038 80000000 	 .word 128
 5343 003c 28040000 	 .word .LC46
 5344 0040 00010000 	 .word 256
 5345 0044 50040000 	 .word .LC47
 5346 0048 00020000 	 .word 512
 5347 004c 80040000 	 .word .LC48
 5348 0050 00040000 	 .word 1024
 5349 0054 B0040000 	 .word .LC49
 5350 0058 00080000 	 .word 2048
 5351 005c CC040000 	 .word .LC50
 5352 0060 00100000 	 .word 4096
 5353 0064 F8040000 	 .word .LC51
 5354 0068 00200000 	 .word 8192
 5355 006c 2C050000 	 .word .LC52
 5356 0070 00400000 	 .word 16384
 5357 0074 5C050000 	 .word .LC53
 5358 0078 00800000 	 .word 32768
 5359 007c 94050000 	 .word .LC54
 5360 0080 00000100 	 .word 65536
 5361 0084 E0050000 	 .word .LC55
 5362 0088 00000200 	 .word 131072
 5363 008c 34060000 	 .word .LC56
 5364 0090 00000400 	 .word 262144
 5365 0094 64060000 	 .word .LC57
 5366 0098 00000800 	 .word 524288
 5367 009c A8060000 	 .word .LC58
 5368 00a0 00000000 	 .word 0
 5369 00a4 00000000 	 .word 0
 5370              	 .section .rodata
 5371 06f2 0000     	 .align 2
 5372              	.LC59:
 5373 06f4 25732573 	 .ascii "%s%s\012\000"
 5373      0A00
 5374 06fa 0000     	 .align 2
 5375              	.LC60:
 5376 06fc 2573556E 	 .ascii "%sUnknown reason (this should not happen)\012\000"
 5376      6B6E6F77 
 5376      6E207265 
 5376      61736F6E 
 5376      20287468 
 5377              	 .section .text.mbedtls_x509_crt_verify_info,"ax",%progbits
 5378              	 .align 2
 5379              	 .global mbedtls_x509_crt_verify_info
 5380              	 .thumb
 5381              	 .thumb_func
 5383              	mbedtls_x509_crt_verify_info:
 5384              	.LFB34:
1661:C:/Users/Yushev/git/wpcqi-optiga-trust-charge/optiga/externals/mbedtls/library\x509_crt.c **** 
1662:C:/Users/Yushev/git/wpcqi-optiga-trust-charge/optiga/externals/mbedtls/library\x509_crt.c **** struct x509_crt_verify_string {
1663:C:/Users/Yushev/git/wpcqi-optiga-trust-charge/optiga/externals/mbedtls/library\x509_crt.c ****     int code;
1664:C:/Users/Yushev/git/wpcqi-optiga-trust-charge/optiga/externals/mbedtls/library\x509_crt.c ****     const char *string;
1665:C:/Users/Yushev/git/wpcqi-optiga-trust-charge/optiga/externals/mbedtls/library\x509_crt.c **** };
1666:C:/Users/Yushev/git/wpcqi-optiga-trust-charge/optiga/externals/mbedtls/library\x509_crt.c **** 
1667:C:/Users/Yushev/git/wpcqi-optiga-trust-charge/optiga/externals/mbedtls/library\x509_crt.c **** static const struct x509_crt_verify_string x509_crt_verify_strings[] = {
1668:C:/Users/Yushev/git/wpcqi-optiga-trust-charge/optiga/externals/mbedtls/library\x509_crt.c ****     { MBEDTLS_X509_BADCERT_EXPIRED,       "The certificate validity has expired" },
1669:C:/Users/Yushev/git/wpcqi-optiga-trust-charge/optiga/externals/mbedtls/library\x509_crt.c ****     { MBEDTLS_X509_BADCERT_REVOKED,       "The certificate has been revoked (is on a CRL)" },
1670:C:/Users/Yushev/git/wpcqi-optiga-trust-charge/optiga/externals/mbedtls/library\x509_crt.c ****     { MBEDTLS_X509_BADCERT_CN_MISMATCH,   "The certificate Common Name (CN) does not match with the
1671:C:/Users/Yushev/git/wpcqi-optiga-trust-charge/optiga/externals/mbedtls/library\x509_crt.c ****     { MBEDTLS_X509_BADCERT_NOT_TRUSTED,   "The certificate is not correctly signed by the trusted C
1672:C:/Users/Yushev/git/wpcqi-optiga-trust-charge/optiga/externals/mbedtls/library\x509_crt.c ****     { MBEDTLS_X509_BADCRL_NOT_TRUSTED,    "The CRL is not correctly signed by the trusted CA" },
1673:C:/Users/Yushev/git/wpcqi-optiga-trust-charge/optiga/externals/mbedtls/library\x509_crt.c ****     { MBEDTLS_X509_BADCRL_EXPIRED,        "The CRL is expired" },
1674:C:/Users/Yushev/git/wpcqi-optiga-trust-charge/optiga/externals/mbedtls/library\x509_crt.c ****     { MBEDTLS_X509_BADCERT_MISSING,       "Certificate was missing" },
1675:C:/Users/Yushev/git/wpcqi-optiga-trust-charge/optiga/externals/mbedtls/library\x509_crt.c ****     { MBEDTLS_X509_BADCERT_SKIP_VERIFY,   "Certificate verification was skipped" },
1676:C:/Users/Yushev/git/wpcqi-optiga-trust-charge/optiga/externals/mbedtls/library\x509_crt.c ****     { MBEDTLS_X509_BADCERT_OTHER,         "Other reason (can be used by verify callback)" },
1677:C:/Users/Yushev/git/wpcqi-optiga-trust-charge/optiga/externals/mbedtls/library\x509_crt.c ****     { MBEDTLS_X509_BADCERT_FUTURE,        "The certificate validity starts in the future" },
1678:C:/Users/Yushev/git/wpcqi-optiga-trust-charge/optiga/externals/mbedtls/library\x509_crt.c ****     { MBEDTLS_X509_BADCRL_FUTURE,         "The CRL is from the future" },
1679:C:/Users/Yushev/git/wpcqi-optiga-trust-charge/optiga/externals/mbedtls/library\x509_crt.c ****     { MBEDTLS_X509_BADCERT_KEY_USAGE,     "Usage does not match the keyUsage extension" },
1680:C:/Users/Yushev/git/wpcqi-optiga-trust-charge/optiga/externals/mbedtls/library\x509_crt.c ****     { MBEDTLS_X509_BADCERT_EXT_KEY_USAGE, "Usage does not match the extendedKeyUsage extension" },
1681:C:/Users/Yushev/git/wpcqi-optiga-trust-charge/optiga/externals/mbedtls/library\x509_crt.c ****     { MBEDTLS_X509_BADCERT_NS_CERT_TYPE,  "Usage does not match the nsCertType extension" },
1682:C:/Users/Yushev/git/wpcqi-optiga-trust-charge/optiga/externals/mbedtls/library\x509_crt.c ****     { MBEDTLS_X509_BADCERT_BAD_MD,        "The certificate is signed with an unacceptable hash." },
1683:C:/Users/Yushev/git/wpcqi-optiga-trust-charge/optiga/externals/mbedtls/library\x509_crt.c ****     { MBEDTLS_X509_BADCERT_BAD_PK,        "The certificate is signed with an unacceptable PK alg (e
1684:C:/Users/Yushev/git/wpcqi-optiga-trust-charge/optiga/externals/mbedtls/library\x509_crt.c ****     { MBEDTLS_X509_BADCERT_BAD_KEY,       "The certificate is signed with an unacceptable key (eg b
1685:C:/Users/Yushev/git/wpcqi-optiga-trust-charge/optiga/externals/mbedtls/library\x509_crt.c ****     { MBEDTLS_X509_BADCRL_BAD_MD,         "The CRL is signed with an unacceptable hash." },
1686:C:/Users/Yushev/git/wpcqi-optiga-trust-charge/optiga/externals/mbedtls/library\x509_crt.c ****     { MBEDTLS_X509_BADCRL_BAD_PK,         "The CRL is signed with an unacceptable PK alg (eg RSA vs
1687:C:/Users/Yushev/git/wpcqi-optiga-trust-charge/optiga/externals/mbedtls/library\x509_crt.c ****     { MBEDTLS_X509_BADCRL_BAD_KEY,        "The CRL is signed with an unacceptable key (eg bad curve
1688:C:/Users/Yushev/git/wpcqi-optiga-trust-charge/optiga/externals/mbedtls/library\x509_crt.c ****     { 0, NULL }
1689:C:/Users/Yushev/git/wpcqi-optiga-trust-charge/optiga/externals/mbedtls/library\x509_crt.c **** };
1690:C:/Users/Yushev/git/wpcqi-optiga-trust-charge/optiga/externals/mbedtls/library\x509_crt.c **** 
1691:C:/Users/Yushev/git/wpcqi-optiga-trust-charge/optiga/externals/mbedtls/library\x509_crt.c **** int mbedtls_x509_crt_verify_info( char *buf, size_t size, const char *prefix,
1692:C:/Users/Yushev/git/wpcqi-optiga-trust-charge/optiga/externals/mbedtls/library\x509_crt.c ****                           uint32_t flags )
1693:C:/Users/Yushev/git/wpcqi-optiga-trust-charge/optiga/externals/mbedtls/library\x509_crt.c **** {
 5385              	 .loc 2 1693 0
 5386              	 .cfi_startproc
 5387              	 
 5388              	 
 5389 0000 80B5     	 push {r7,lr}
 5390              	.LCFI136:
 5391              	 .cfi_def_cfa_offset 8
 5392              	 .cfi_offset 7,-8
 5393              	 .cfi_offset 14,-4
 5394 0002 8AB0     	 sub sp,sp,#40
 5395              	.LCFI137:
 5396              	 .cfi_def_cfa_offset 48
 5397 0004 02AF     	 add r7,sp,#8
 5398              	.LCFI138:
 5399              	 .cfi_def_cfa 7,40
 5400 0006 F860     	 str r0,[r7,#12]
 5401 0008 B960     	 str r1,[r7,#8]
 5402 000a 7A60     	 str r2,[r7,#4]
 5403 000c 3B60     	 str r3,[r7]
1694:C:/Users/Yushev/git/wpcqi-optiga-trust-charge/optiga/externals/mbedtls/library\x509_crt.c ****     int ret;
1695:C:/Users/Yushev/git/wpcqi-optiga-trust-charge/optiga/externals/mbedtls/library\x509_crt.c ****     const struct x509_crt_verify_string *cur;
1696:C:/Users/Yushev/git/wpcqi-optiga-trust-charge/optiga/externals/mbedtls/library\x509_crt.c ****     char *p = buf;
 5404              	 .loc 2 1696 0
 5405 000e FB68     	 ldr r3,[r7,#12]
 5406 0010 BB61     	 str r3,[r7,#24]
1697:C:/Users/Yushev/git/wpcqi-optiga-trust-charge/optiga/externals/mbedtls/library\x509_crt.c ****     size_t n = size;
 5407              	 .loc 2 1697 0
 5408 0012 BB68     	 ldr r3,[r7,#8]
 5409 0014 7B61     	 str r3,[r7,#20]
1698:C:/Users/Yushev/git/wpcqi-optiga-trust-charge/optiga/externals/mbedtls/library\x509_crt.c **** 
1699:C:/Users/Yushev/git/wpcqi-optiga-trust-charge/optiga/externals/mbedtls/library\x509_crt.c ****     for( cur = x509_crt_verify_strings; cur->string != NULL ; cur++ )
 5410              	 .loc 2 1699 0
 5411 0016 2A4B     	 ldr r3,.L367
 5412 0018 FB61     	 str r3,[r7,#28]
 5413 001a 2BE0     	 b .L357
 5414              	.L363:
1700:C:/Users/Yushev/git/wpcqi-optiga-trust-charge/optiga/externals/mbedtls/library\x509_crt.c ****     {
1701:C:/Users/Yushev/git/wpcqi-optiga-trust-charge/optiga/externals/mbedtls/library\x509_crt.c ****         if( ( flags & cur->code ) == 0 )
 5415              	 .loc 2 1701 0
 5416 001c FB69     	 ldr r3,[r7,#28]
 5417 001e 1B68     	 ldr r3,[r3]
 5418 0020 1A46     	 mov r2,r3
 5419 0022 3B68     	 ldr r3,[r7]
 5420 0024 1340     	 ands r3,r3,r2
 5421 0026 002B     	 cmp r3,#0
 5422 0028 00D1     	 bne .L358
1702:C:/Users/Yushev/git/wpcqi-optiga-trust-charge/optiga/externals/mbedtls/library\x509_crt.c ****             continue;
 5423              	 .loc 2 1702 0
 5424 002a 20E0     	 b .L359
 5425              	.L358:
1703:C:/Users/Yushev/git/wpcqi-optiga-trust-charge/optiga/externals/mbedtls/library\x509_crt.c **** 
1704:C:/Users/Yushev/git/wpcqi-optiga-trust-charge/optiga/externals/mbedtls/library\x509_crt.c ****         ret = mbedtls_snprintf( p, n, "%s%s\n", prefix, cur->string );
 5426              	 .loc 2 1704 0
 5427 002c FB69     	 ldr r3,[r7,#28]
 5428 002e 5B68     	 ldr r3,[r3,#4]
 5429 0030 0093     	 str r3,[sp]
 5430 0032 B869     	 ldr r0,[r7,#24]
 5431 0034 7969     	 ldr r1,[r7,#20]
 5432 0036 234A     	 ldr r2,.L367+4
 5433 0038 7B68     	 ldr r3,[r7,#4]
 5434 003a FFF7FEFF 	 bl snprintf
 5435 003e 3861     	 str r0,[r7,#16]
1705:C:/Users/Yushev/git/wpcqi-optiga-trust-charge/optiga/externals/mbedtls/library\x509_crt.c ****         MBEDTLS_X509_SAFE_SNPRINTF;
 5436              	 .loc 2 1705 0
 5437 0040 3B69     	 ldr r3,[r7,#16]
 5438 0042 002B     	 cmp r3,#0
 5439 0044 03DB     	 blt .L360
 5440              	 .loc 2 1705 0 is_stmt 0 discriminator 2
 5441 0046 3A69     	 ldr r2,[r7,#16]
 5442 0048 7B69     	 ldr r3,[r7,#20]
 5443 004a 9A42     	 cmp r2,r3
 5444 004c 01D3     	 bcc .L361
 5445              	.L360:
 5446              	 .loc 2 1705 0 discriminator 3
 5447 004e 1E4B     	 ldr r3,.L367+8
 5448 0050 32E0     	 b .L362
 5449              	.L361:
 5450              	 .loc 2 1705 0 discriminator 4
 5451 0052 3B69     	 ldr r3,[r7,#16]
 5452 0054 7A69     	 ldr r2,[r7,#20]
 5453 0056 D31A     	 subs r3,r2,r3
 5454 0058 7B61     	 str r3,[r7,#20]
 5455 005a 3B69     	 ldr r3,[r7,#16]
 5456 005c BA69     	 ldr r2,[r7,#24]
 5457 005e 1344     	 add r3,r3,r2
 5458 0060 BB61     	 str r3,[r7,#24]
1706:C:/Users/Yushev/git/wpcqi-optiga-trust-charge/optiga/externals/mbedtls/library\x509_crt.c ****         flags ^= cur->code;
 5459              	 .loc 2 1706 0 is_stmt 1 discriminator 4
 5460 0062 FB69     	 ldr r3,[r7,#28]
 5461 0064 1B68     	 ldr r3,[r3]
 5462 0066 1A46     	 mov r2,r3
 5463 0068 3B68     	 ldr r3,[r7]
 5464 006a 5340     	 eors r3,r3,r2
 5465 006c 3B60     	 str r3,[r7]
 5466              	.L359:
1699:C:/Users/Yushev/git/wpcqi-optiga-trust-charge/optiga/externals/mbedtls/library\x509_crt.c ****     {
 5467              	 .loc 2 1699 0 discriminator 2
 5468 006e FB69     	 ldr r3,[r7,#28]
 5469 0070 0833     	 adds r3,r3,#8
 5470 0072 FB61     	 str r3,[r7,#28]
 5471              	.L357:
1699:C:/Users/Yushev/git/wpcqi-optiga-trust-charge/optiga/externals/mbedtls/library\x509_crt.c ****     {
 5472              	 .loc 2 1699 0 is_stmt 0 discriminator 1
 5473 0074 FB69     	 ldr r3,[r7,#28]
 5474 0076 5B68     	 ldr r3,[r3,#4]
 5475 0078 002B     	 cmp r3,#0
 5476 007a CFD1     	 bne .L363
1707:C:/Users/Yushev/git/wpcqi-optiga-trust-charge/optiga/externals/mbedtls/library\x509_crt.c ****     }
1708:C:/Users/Yushev/git/wpcqi-optiga-trust-charge/optiga/externals/mbedtls/library\x509_crt.c **** 
1709:C:/Users/Yushev/git/wpcqi-optiga-trust-charge/optiga/externals/mbedtls/library\x509_crt.c ****     if( flags != 0 )
 5477              	 .loc 2 1709 0 is_stmt 1
 5478 007c 3B68     	 ldr r3,[r7]
 5479 007e 002B     	 cmp r3,#0
 5480 0080 17D0     	 beq .L364
1710:C:/Users/Yushev/git/wpcqi-optiga-trust-charge/optiga/externals/mbedtls/library\x509_crt.c ****     {
1711:C:/Users/Yushev/git/wpcqi-optiga-trust-charge/optiga/externals/mbedtls/library\x509_crt.c ****         ret = mbedtls_snprintf( p, n, "%sUnknown reason "
 5481              	 .loc 2 1711 0
 5482 0082 B869     	 ldr r0,[r7,#24]
 5483 0084 7969     	 ldr r1,[r7,#20]
 5484 0086 114A     	 ldr r2,.L367+12
 5485 0088 7B68     	 ldr r3,[r7,#4]
 5486 008a FFF7FEFF 	 bl snprintf
 5487 008e 3861     	 str r0,[r7,#16]
1712:C:/Users/Yushev/git/wpcqi-optiga-trust-charge/optiga/externals/mbedtls/library\x509_crt.c ****                                        "(this should not happen)\n", prefix );
1713:C:/Users/Yushev/git/wpcqi-optiga-trust-charge/optiga/externals/mbedtls/library\x509_crt.c ****         MBEDTLS_X509_SAFE_SNPRINTF;
 5488              	 .loc 2 1713 0
 5489 0090 3B69     	 ldr r3,[r7,#16]
 5490 0092 002B     	 cmp r3,#0
 5491 0094 03DB     	 blt .L365
 5492              	 .loc 2 1713 0 is_stmt 0 discriminator 2
 5493 0096 3A69     	 ldr r2,[r7,#16]
 5494 0098 7B69     	 ldr r3,[r7,#20]
 5495 009a 9A42     	 cmp r2,r3
 5496 009c 01D3     	 bcc .L366
 5497              	.L365:
 5498              	 .loc 2 1713 0 discriminator 3
 5499 009e 0A4B     	 ldr r3,.L367+8
 5500 00a0 0AE0     	 b .L362
 5501              	.L366:
 5502              	 .loc 2 1713 0 discriminator 4
 5503 00a2 3B69     	 ldr r3,[r7,#16]
 5504 00a4 7A69     	 ldr r2,[r7,#20]
 5505 00a6 D31A     	 subs r3,r2,r3
 5506 00a8 7B61     	 str r3,[r7,#20]
 5507 00aa 3B69     	 ldr r3,[r7,#16]
 5508 00ac BA69     	 ldr r2,[r7,#24]
 5509 00ae 1344     	 add r3,r3,r2
 5510 00b0 BB61     	 str r3,[r7,#24]
 5511              	.L364:
1714:C:/Users/Yushev/git/wpcqi-optiga-trust-charge/optiga/externals/mbedtls/library\x509_crt.c ****     }
1715:C:/Users/Yushev/git/wpcqi-optiga-trust-charge/optiga/externals/mbedtls/library\x509_crt.c **** 
1716:C:/Users/Yushev/git/wpcqi-optiga-trust-charge/optiga/externals/mbedtls/library\x509_crt.c ****     return( (int) ( size - n ) );
 5512              	 .loc 2 1716 0 is_stmt 1
 5513 00b2 BA68     	 ldr r2,[r7,#8]
 5514 00b4 7B69     	 ldr r3,[r7,#20]
 5515 00b6 D31A     	 subs r3,r2,r3
 5516              	.L362:
1717:C:/Users/Yushev/git/wpcqi-optiga-trust-charge/optiga/externals/mbedtls/library\x509_crt.c **** }
 5517              	 .loc 2 1717 0
 5518 00b8 1846     	 mov r0,r3
 5519 00ba 2037     	 adds r7,r7,#32
 5520              	.LCFI139:
 5521              	 .cfi_def_cfa_offset 8
 5522 00bc BD46     	 mov sp,r7
 5523              	.LCFI140:
 5524              	 .cfi_def_cfa_register 13
 5525              	 
 5526 00be 80BD     	 pop {r7,pc}
 5527              	.L368:
 5528              	 .align 2
 5529              	.L367:
 5530 00c0 00000000 	 .word x509_crt_verify_strings
 5531 00c4 F4060000 	 .word .LC59
 5532 00c8 80D6FFFF 	 .word -10624
 5533 00cc FC060000 	 .word .LC60
 5534              	 .cfi_endproc
 5535              	.LFE34:
 5537              	 .section .text.x509_crt_check_signature,"ax",%progbits
 5538              	 .align 2
 5539              	 .thumb
 5540              	 .thumb_func
 5542              	x509_crt_check_signature:
 5543              	.LFB35:
1718:C:/Users/Yushev/git/wpcqi-optiga-trust-charge/optiga/externals/mbedtls/library\x509_crt.c **** 
1719:C:/Users/Yushev/git/wpcqi-optiga-trust-charge/optiga/externals/mbedtls/library\x509_crt.c **** #if defined(MBEDTLS_X509_CHECK_KEY_USAGE)
1720:C:/Users/Yushev/git/wpcqi-optiga-trust-charge/optiga/externals/mbedtls/library\x509_crt.c **** int mbedtls_x509_crt_check_key_usage( const mbedtls_x509_crt *crt,
1721:C:/Users/Yushev/git/wpcqi-optiga-trust-charge/optiga/externals/mbedtls/library\x509_crt.c ****                                       unsigned int usage )
1722:C:/Users/Yushev/git/wpcqi-optiga-trust-charge/optiga/externals/mbedtls/library\x509_crt.c **** {
1723:C:/Users/Yushev/git/wpcqi-optiga-trust-charge/optiga/externals/mbedtls/library\x509_crt.c ****     unsigned int usage_must, usage_may;
1724:C:/Users/Yushev/git/wpcqi-optiga-trust-charge/optiga/externals/mbedtls/library\x509_crt.c ****     unsigned int may_mask = MBEDTLS_X509_KU_ENCIPHER_ONLY
1725:C:/Users/Yushev/git/wpcqi-optiga-trust-charge/optiga/externals/mbedtls/library\x509_crt.c ****                           | MBEDTLS_X509_KU_DECIPHER_ONLY;
1726:C:/Users/Yushev/git/wpcqi-optiga-trust-charge/optiga/externals/mbedtls/library\x509_crt.c **** 
1727:C:/Users/Yushev/git/wpcqi-optiga-trust-charge/optiga/externals/mbedtls/library\x509_crt.c ****     if( ( crt->ext_types & MBEDTLS_X509_EXT_KEY_USAGE ) == 0 )
1728:C:/Users/Yushev/git/wpcqi-optiga-trust-charge/optiga/externals/mbedtls/library\x509_crt.c ****         return( 0 );
1729:C:/Users/Yushev/git/wpcqi-optiga-trust-charge/optiga/externals/mbedtls/library\x509_crt.c **** 
1730:C:/Users/Yushev/git/wpcqi-optiga-trust-charge/optiga/externals/mbedtls/library\x509_crt.c ****     usage_must = usage & ~may_mask;
1731:C:/Users/Yushev/git/wpcqi-optiga-trust-charge/optiga/externals/mbedtls/library\x509_crt.c **** 
1732:C:/Users/Yushev/git/wpcqi-optiga-trust-charge/optiga/externals/mbedtls/library\x509_crt.c ****     if( ( ( crt->key_usage & ~may_mask ) & usage_must ) != usage_must )
1733:C:/Users/Yushev/git/wpcqi-optiga-trust-charge/optiga/externals/mbedtls/library\x509_crt.c ****         return( MBEDTLS_ERR_X509_BAD_INPUT_DATA );
1734:C:/Users/Yushev/git/wpcqi-optiga-trust-charge/optiga/externals/mbedtls/library\x509_crt.c **** 
1735:C:/Users/Yushev/git/wpcqi-optiga-trust-charge/optiga/externals/mbedtls/library\x509_crt.c ****     usage_may = usage & may_mask;
1736:C:/Users/Yushev/git/wpcqi-optiga-trust-charge/optiga/externals/mbedtls/library\x509_crt.c **** 
1737:C:/Users/Yushev/git/wpcqi-optiga-trust-charge/optiga/externals/mbedtls/library\x509_crt.c ****     if( ( ( crt->key_usage & may_mask ) | usage_may ) != usage_may )
1738:C:/Users/Yushev/git/wpcqi-optiga-trust-charge/optiga/externals/mbedtls/library\x509_crt.c ****         return( MBEDTLS_ERR_X509_BAD_INPUT_DATA );
1739:C:/Users/Yushev/git/wpcqi-optiga-trust-charge/optiga/externals/mbedtls/library\x509_crt.c **** 
1740:C:/Users/Yushev/git/wpcqi-optiga-trust-charge/optiga/externals/mbedtls/library\x509_crt.c ****     return( 0 );
1741:C:/Users/Yushev/git/wpcqi-optiga-trust-charge/optiga/externals/mbedtls/library\x509_crt.c **** }
1742:C:/Users/Yushev/git/wpcqi-optiga-trust-charge/optiga/externals/mbedtls/library\x509_crt.c **** #endif
1743:C:/Users/Yushev/git/wpcqi-optiga-trust-charge/optiga/externals/mbedtls/library\x509_crt.c **** 
1744:C:/Users/Yushev/git/wpcqi-optiga-trust-charge/optiga/externals/mbedtls/library\x509_crt.c **** #if defined(MBEDTLS_X509_CHECK_EXTENDED_KEY_USAGE)
1745:C:/Users/Yushev/git/wpcqi-optiga-trust-charge/optiga/externals/mbedtls/library\x509_crt.c **** int mbedtls_x509_crt_check_extended_key_usage( const mbedtls_x509_crt *crt,
1746:C:/Users/Yushev/git/wpcqi-optiga-trust-charge/optiga/externals/mbedtls/library\x509_crt.c ****                                        const char *usage_oid,
1747:C:/Users/Yushev/git/wpcqi-optiga-trust-charge/optiga/externals/mbedtls/library\x509_crt.c ****                                        size_t usage_len )
1748:C:/Users/Yushev/git/wpcqi-optiga-trust-charge/optiga/externals/mbedtls/library\x509_crt.c **** {
1749:C:/Users/Yushev/git/wpcqi-optiga-trust-charge/optiga/externals/mbedtls/library\x509_crt.c ****     const mbedtls_x509_sequence *cur;
1750:C:/Users/Yushev/git/wpcqi-optiga-trust-charge/optiga/externals/mbedtls/library\x509_crt.c **** 
1751:C:/Users/Yushev/git/wpcqi-optiga-trust-charge/optiga/externals/mbedtls/library\x509_crt.c ****     /* Extension is not mandatory, absent means no restriction */
1752:C:/Users/Yushev/git/wpcqi-optiga-trust-charge/optiga/externals/mbedtls/library\x509_crt.c ****     if( ( crt->ext_types & MBEDTLS_X509_EXT_EXTENDED_KEY_USAGE ) == 0 )
1753:C:/Users/Yushev/git/wpcqi-optiga-trust-charge/optiga/externals/mbedtls/library\x509_crt.c ****         return( 0 );
1754:C:/Users/Yushev/git/wpcqi-optiga-trust-charge/optiga/externals/mbedtls/library\x509_crt.c **** 
1755:C:/Users/Yushev/git/wpcqi-optiga-trust-charge/optiga/externals/mbedtls/library\x509_crt.c ****     /*
1756:C:/Users/Yushev/git/wpcqi-optiga-trust-charge/optiga/externals/mbedtls/library\x509_crt.c ****      * Look for the requested usage (or wildcard ANY) in our list
1757:C:/Users/Yushev/git/wpcqi-optiga-trust-charge/optiga/externals/mbedtls/library\x509_crt.c ****      */
1758:C:/Users/Yushev/git/wpcqi-optiga-trust-charge/optiga/externals/mbedtls/library\x509_crt.c ****     for( cur = &crt->ext_key_usage; cur != NULL; cur = cur->next )
1759:C:/Users/Yushev/git/wpcqi-optiga-trust-charge/optiga/externals/mbedtls/library\x509_crt.c ****     {
1760:C:/Users/Yushev/git/wpcqi-optiga-trust-charge/optiga/externals/mbedtls/library\x509_crt.c ****         const mbedtls_x509_buf *cur_oid = &cur->buf;
1761:C:/Users/Yushev/git/wpcqi-optiga-trust-charge/optiga/externals/mbedtls/library\x509_crt.c **** 
1762:C:/Users/Yushev/git/wpcqi-optiga-trust-charge/optiga/externals/mbedtls/library\x509_crt.c ****         if( cur_oid->len == usage_len &&
1763:C:/Users/Yushev/git/wpcqi-optiga-trust-charge/optiga/externals/mbedtls/library\x509_crt.c ****             memcmp( cur_oid->p, usage_oid, usage_len ) == 0 )
1764:C:/Users/Yushev/git/wpcqi-optiga-trust-charge/optiga/externals/mbedtls/library\x509_crt.c ****         {
1765:C:/Users/Yushev/git/wpcqi-optiga-trust-charge/optiga/externals/mbedtls/library\x509_crt.c ****             return( 0 );
1766:C:/Users/Yushev/git/wpcqi-optiga-trust-charge/optiga/externals/mbedtls/library\x509_crt.c ****         }
1767:C:/Users/Yushev/git/wpcqi-optiga-trust-charge/optiga/externals/mbedtls/library\x509_crt.c **** 
1768:C:/Users/Yushev/git/wpcqi-optiga-trust-charge/optiga/externals/mbedtls/library\x509_crt.c ****         if( MBEDTLS_OID_CMP( MBEDTLS_OID_ANY_EXTENDED_KEY_USAGE, cur_oid ) == 0 )
1769:C:/Users/Yushev/git/wpcqi-optiga-trust-charge/optiga/externals/mbedtls/library\x509_crt.c ****             return( 0 );
1770:C:/Users/Yushev/git/wpcqi-optiga-trust-charge/optiga/externals/mbedtls/library\x509_crt.c ****     }
1771:C:/Users/Yushev/git/wpcqi-optiga-trust-charge/optiga/externals/mbedtls/library\x509_crt.c **** 
1772:C:/Users/Yushev/git/wpcqi-optiga-trust-charge/optiga/externals/mbedtls/library\x509_crt.c ****     return( MBEDTLS_ERR_X509_BAD_INPUT_DATA );
1773:C:/Users/Yushev/git/wpcqi-optiga-trust-charge/optiga/externals/mbedtls/library\x509_crt.c **** }
1774:C:/Users/Yushev/git/wpcqi-optiga-trust-charge/optiga/externals/mbedtls/library\x509_crt.c **** #endif /* MBEDTLS_X509_CHECK_EXTENDED_KEY_USAGE */
1775:C:/Users/Yushev/git/wpcqi-optiga-trust-charge/optiga/externals/mbedtls/library\x509_crt.c **** 
1776:C:/Users/Yushev/git/wpcqi-optiga-trust-charge/optiga/externals/mbedtls/library\x509_crt.c **** #if defined(MBEDTLS_X509_CRL_PARSE_C)
1777:C:/Users/Yushev/git/wpcqi-optiga-trust-charge/optiga/externals/mbedtls/library\x509_crt.c **** /*
1778:C:/Users/Yushev/git/wpcqi-optiga-trust-charge/optiga/externals/mbedtls/library\x509_crt.c ****  * Return 1 if the certificate is revoked, or 0 otherwise.
1779:C:/Users/Yushev/git/wpcqi-optiga-trust-charge/optiga/externals/mbedtls/library\x509_crt.c ****  */
1780:C:/Users/Yushev/git/wpcqi-optiga-trust-charge/optiga/externals/mbedtls/library\x509_crt.c **** int mbedtls_x509_crt_is_revoked( const mbedtls_x509_crt *crt, const mbedtls_x509_crl *crl )
1781:C:/Users/Yushev/git/wpcqi-optiga-trust-charge/optiga/externals/mbedtls/library\x509_crt.c **** {
1782:C:/Users/Yushev/git/wpcqi-optiga-trust-charge/optiga/externals/mbedtls/library\x509_crt.c ****     const mbedtls_x509_crl_entry *cur = &crl->entry;
1783:C:/Users/Yushev/git/wpcqi-optiga-trust-charge/optiga/externals/mbedtls/library\x509_crt.c **** 
1784:C:/Users/Yushev/git/wpcqi-optiga-trust-charge/optiga/externals/mbedtls/library\x509_crt.c ****     while( cur != NULL && cur->serial.len != 0 )
1785:C:/Users/Yushev/git/wpcqi-optiga-trust-charge/optiga/externals/mbedtls/library\x509_crt.c ****     {
1786:C:/Users/Yushev/git/wpcqi-optiga-trust-charge/optiga/externals/mbedtls/library\x509_crt.c ****         if( crt->serial.len == cur->serial.len &&
1787:C:/Users/Yushev/git/wpcqi-optiga-trust-charge/optiga/externals/mbedtls/library\x509_crt.c ****             memcmp( crt->serial.p, cur->serial.p, crt->serial.len ) == 0 )
1788:C:/Users/Yushev/git/wpcqi-optiga-trust-charge/optiga/externals/mbedtls/library\x509_crt.c ****         {
1789:C:/Users/Yushev/git/wpcqi-optiga-trust-charge/optiga/externals/mbedtls/library\x509_crt.c ****             if( mbedtls_x509_time_is_past( &cur->revocation_date ) )
1790:C:/Users/Yushev/git/wpcqi-optiga-trust-charge/optiga/externals/mbedtls/library\x509_crt.c ****                 return( 1 );
1791:C:/Users/Yushev/git/wpcqi-optiga-trust-charge/optiga/externals/mbedtls/library\x509_crt.c ****         }
1792:C:/Users/Yushev/git/wpcqi-optiga-trust-charge/optiga/externals/mbedtls/library\x509_crt.c **** 
1793:C:/Users/Yushev/git/wpcqi-optiga-trust-charge/optiga/externals/mbedtls/library\x509_crt.c ****         cur = cur->next;
1794:C:/Users/Yushev/git/wpcqi-optiga-trust-charge/optiga/externals/mbedtls/library\x509_crt.c ****     }
1795:C:/Users/Yushev/git/wpcqi-optiga-trust-charge/optiga/externals/mbedtls/library\x509_crt.c **** 
1796:C:/Users/Yushev/git/wpcqi-optiga-trust-charge/optiga/externals/mbedtls/library\x509_crt.c ****     return( 0 );
1797:C:/Users/Yushev/git/wpcqi-optiga-trust-charge/optiga/externals/mbedtls/library\x509_crt.c **** }
1798:C:/Users/Yushev/git/wpcqi-optiga-trust-charge/optiga/externals/mbedtls/library\x509_crt.c **** 
1799:C:/Users/Yushev/git/wpcqi-optiga-trust-charge/optiga/externals/mbedtls/library\x509_crt.c **** /*
1800:C:/Users/Yushev/git/wpcqi-optiga-trust-charge/optiga/externals/mbedtls/library\x509_crt.c ****  * Check that the given certificate is not revoked according to the CRL.
1801:C:/Users/Yushev/git/wpcqi-optiga-trust-charge/optiga/externals/mbedtls/library\x509_crt.c ****  * Skip validation if no CRL for the given CA is present.
1802:C:/Users/Yushev/git/wpcqi-optiga-trust-charge/optiga/externals/mbedtls/library\x509_crt.c ****  */
1803:C:/Users/Yushev/git/wpcqi-optiga-trust-charge/optiga/externals/mbedtls/library\x509_crt.c **** static int x509_crt_verifycrl( mbedtls_x509_crt *crt, mbedtls_x509_crt *ca,
1804:C:/Users/Yushev/git/wpcqi-optiga-trust-charge/optiga/externals/mbedtls/library\x509_crt.c ****                                mbedtls_x509_crl *crl_list,
1805:C:/Users/Yushev/git/wpcqi-optiga-trust-charge/optiga/externals/mbedtls/library\x509_crt.c ****                                const mbedtls_x509_crt_profile *profile )
1806:C:/Users/Yushev/git/wpcqi-optiga-trust-charge/optiga/externals/mbedtls/library\x509_crt.c **** {
1807:C:/Users/Yushev/git/wpcqi-optiga-trust-charge/optiga/externals/mbedtls/library\x509_crt.c ****     int flags = 0;
1808:C:/Users/Yushev/git/wpcqi-optiga-trust-charge/optiga/externals/mbedtls/library\x509_crt.c ****     unsigned char hash[MBEDTLS_MD_MAX_SIZE];
1809:C:/Users/Yushev/git/wpcqi-optiga-trust-charge/optiga/externals/mbedtls/library\x509_crt.c ****     const mbedtls_md_info_t *md_info;
1810:C:/Users/Yushev/git/wpcqi-optiga-trust-charge/optiga/externals/mbedtls/library\x509_crt.c **** 
1811:C:/Users/Yushev/git/wpcqi-optiga-trust-charge/optiga/externals/mbedtls/library\x509_crt.c ****     if( ca == NULL )
1812:C:/Users/Yushev/git/wpcqi-optiga-trust-charge/optiga/externals/mbedtls/library\x509_crt.c ****         return( flags );
1813:C:/Users/Yushev/git/wpcqi-optiga-trust-charge/optiga/externals/mbedtls/library\x509_crt.c **** 
1814:C:/Users/Yushev/git/wpcqi-optiga-trust-charge/optiga/externals/mbedtls/library\x509_crt.c ****     while( crl_list != NULL )
1815:C:/Users/Yushev/git/wpcqi-optiga-trust-charge/optiga/externals/mbedtls/library\x509_crt.c ****     {
1816:C:/Users/Yushev/git/wpcqi-optiga-trust-charge/optiga/externals/mbedtls/library\x509_crt.c ****         if( crl_list->version == 0 ||
1817:C:/Users/Yushev/git/wpcqi-optiga-trust-charge/optiga/externals/mbedtls/library\x509_crt.c ****             x509_name_cmp( &crl_list->issuer, &ca->subject ) != 0 )
1818:C:/Users/Yushev/git/wpcqi-optiga-trust-charge/optiga/externals/mbedtls/library\x509_crt.c ****         {
1819:C:/Users/Yushev/git/wpcqi-optiga-trust-charge/optiga/externals/mbedtls/library\x509_crt.c ****             crl_list = crl_list->next;
1820:C:/Users/Yushev/git/wpcqi-optiga-trust-charge/optiga/externals/mbedtls/library\x509_crt.c ****             continue;
1821:C:/Users/Yushev/git/wpcqi-optiga-trust-charge/optiga/externals/mbedtls/library\x509_crt.c ****         }
1822:C:/Users/Yushev/git/wpcqi-optiga-trust-charge/optiga/externals/mbedtls/library\x509_crt.c **** 
1823:C:/Users/Yushev/git/wpcqi-optiga-trust-charge/optiga/externals/mbedtls/library\x509_crt.c ****         /*
1824:C:/Users/Yushev/git/wpcqi-optiga-trust-charge/optiga/externals/mbedtls/library\x509_crt.c ****          * Check if the CA is configured to sign CRLs
1825:C:/Users/Yushev/git/wpcqi-optiga-trust-charge/optiga/externals/mbedtls/library\x509_crt.c ****          */
1826:C:/Users/Yushev/git/wpcqi-optiga-trust-charge/optiga/externals/mbedtls/library\x509_crt.c **** #if defined(MBEDTLS_X509_CHECK_KEY_USAGE)
1827:C:/Users/Yushev/git/wpcqi-optiga-trust-charge/optiga/externals/mbedtls/library\x509_crt.c ****         if( mbedtls_x509_crt_check_key_usage( ca,
1828:C:/Users/Yushev/git/wpcqi-optiga-trust-charge/optiga/externals/mbedtls/library\x509_crt.c ****                                               MBEDTLS_X509_KU_CRL_SIGN ) != 0 )
1829:C:/Users/Yushev/git/wpcqi-optiga-trust-charge/optiga/externals/mbedtls/library\x509_crt.c ****         {
1830:C:/Users/Yushev/git/wpcqi-optiga-trust-charge/optiga/externals/mbedtls/library\x509_crt.c ****             flags |= MBEDTLS_X509_BADCRL_NOT_TRUSTED;
1831:C:/Users/Yushev/git/wpcqi-optiga-trust-charge/optiga/externals/mbedtls/library\x509_crt.c ****             break;
1832:C:/Users/Yushev/git/wpcqi-optiga-trust-charge/optiga/externals/mbedtls/library\x509_crt.c ****         }
1833:C:/Users/Yushev/git/wpcqi-optiga-trust-charge/optiga/externals/mbedtls/library\x509_crt.c **** #endif
1834:C:/Users/Yushev/git/wpcqi-optiga-trust-charge/optiga/externals/mbedtls/library\x509_crt.c **** 
1835:C:/Users/Yushev/git/wpcqi-optiga-trust-charge/optiga/externals/mbedtls/library\x509_crt.c ****         /*
1836:C:/Users/Yushev/git/wpcqi-optiga-trust-charge/optiga/externals/mbedtls/library\x509_crt.c ****          * Check if CRL is correctly signed by the trusted CA
1837:C:/Users/Yushev/git/wpcqi-optiga-trust-charge/optiga/externals/mbedtls/library\x509_crt.c ****          */
1838:C:/Users/Yushev/git/wpcqi-optiga-trust-charge/optiga/externals/mbedtls/library\x509_crt.c ****         if( x509_profile_check_md_alg( profile, crl_list->sig_md ) != 0 )
1839:C:/Users/Yushev/git/wpcqi-optiga-trust-charge/optiga/externals/mbedtls/library\x509_crt.c ****             flags |= MBEDTLS_X509_BADCRL_BAD_MD;
1840:C:/Users/Yushev/git/wpcqi-optiga-trust-charge/optiga/externals/mbedtls/library\x509_crt.c **** 
1841:C:/Users/Yushev/git/wpcqi-optiga-trust-charge/optiga/externals/mbedtls/library\x509_crt.c ****         if( x509_profile_check_pk_alg( profile, crl_list->sig_pk ) != 0 )
1842:C:/Users/Yushev/git/wpcqi-optiga-trust-charge/optiga/externals/mbedtls/library\x509_crt.c ****             flags |= MBEDTLS_X509_BADCRL_BAD_PK;
1843:C:/Users/Yushev/git/wpcqi-optiga-trust-charge/optiga/externals/mbedtls/library\x509_crt.c **** 
1844:C:/Users/Yushev/git/wpcqi-optiga-trust-charge/optiga/externals/mbedtls/library\x509_crt.c ****         md_info = mbedtls_md_info_from_type( crl_list->sig_md );
1845:C:/Users/Yushev/git/wpcqi-optiga-trust-charge/optiga/externals/mbedtls/library\x509_crt.c ****         if( mbedtls_md( md_info, crl_list->tbs.p, crl_list->tbs.len, hash ) != 0 )
1846:C:/Users/Yushev/git/wpcqi-optiga-trust-charge/optiga/externals/mbedtls/library\x509_crt.c ****         {
1847:C:/Users/Yushev/git/wpcqi-optiga-trust-charge/optiga/externals/mbedtls/library\x509_crt.c ****             /* Note: this can't happen except after an internal error */
1848:C:/Users/Yushev/git/wpcqi-optiga-trust-charge/optiga/externals/mbedtls/library\x509_crt.c ****             flags |= MBEDTLS_X509_BADCRL_NOT_TRUSTED;
1849:C:/Users/Yushev/git/wpcqi-optiga-trust-charge/optiga/externals/mbedtls/library\x509_crt.c ****             break;
1850:C:/Users/Yushev/git/wpcqi-optiga-trust-charge/optiga/externals/mbedtls/library\x509_crt.c ****         }
1851:C:/Users/Yushev/git/wpcqi-optiga-trust-charge/optiga/externals/mbedtls/library\x509_crt.c **** 
1852:C:/Users/Yushev/git/wpcqi-optiga-trust-charge/optiga/externals/mbedtls/library\x509_crt.c ****         if( x509_profile_check_key( profile, &ca->pk ) != 0 )
1853:C:/Users/Yushev/git/wpcqi-optiga-trust-charge/optiga/externals/mbedtls/library\x509_crt.c ****             flags |= MBEDTLS_X509_BADCERT_BAD_KEY;
1854:C:/Users/Yushev/git/wpcqi-optiga-trust-charge/optiga/externals/mbedtls/library\x509_crt.c **** 
1855:C:/Users/Yushev/git/wpcqi-optiga-trust-charge/optiga/externals/mbedtls/library\x509_crt.c ****         if( mbedtls_pk_verify_ext( crl_list->sig_pk, crl_list->sig_opts, &ca->pk,
1856:C:/Users/Yushev/git/wpcqi-optiga-trust-charge/optiga/externals/mbedtls/library\x509_crt.c ****                            crl_list->sig_md, hash, mbedtls_md_get_size( md_info ),
1857:C:/Users/Yushev/git/wpcqi-optiga-trust-charge/optiga/externals/mbedtls/library\x509_crt.c ****                            crl_list->sig.p, crl_list->sig.len ) != 0 )
1858:C:/Users/Yushev/git/wpcqi-optiga-trust-charge/optiga/externals/mbedtls/library\x509_crt.c ****         {
1859:C:/Users/Yushev/git/wpcqi-optiga-trust-charge/optiga/externals/mbedtls/library\x509_crt.c ****             flags |= MBEDTLS_X509_BADCRL_NOT_TRUSTED;
1860:C:/Users/Yushev/git/wpcqi-optiga-trust-charge/optiga/externals/mbedtls/library\x509_crt.c ****             break;
1861:C:/Users/Yushev/git/wpcqi-optiga-trust-charge/optiga/externals/mbedtls/library\x509_crt.c ****         }
1862:C:/Users/Yushev/git/wpcqi-optiga-trust-charge/optiga/externals/mbedtls/library\x509_crt.c **** 
1863:C:/Users/Yushev/git/wpcqi-optiga-trust-charge/optiga/externals/mbedtls/library\x509_crt.c ****         /*
1864:C:/Users/Yushev/git/wpcqi-optiga-trust-charge/optiga/externals/mbedtls/library\x509_crt.c ****          * Check for validity of CRL (Do not drop out)
1865:C:/Users/Yushev/git/wpcqi-optiga-trust-charge/optiga/externals/mbedtls/library\x509_crt.c ****          */
1866:C:/Users/Yushev/git/wpcqi-optiga-trust-charge/optiga/externals/mbedtls/library\x509_crt.c ****         if( mbedtls_x509_time_is_past( &crl_list->next_update ) )
1867:C:/Users/Yushev/git/wpcqi-optiga-trust-charge/optiga/externals/mbedtls/library\x509_crt.c ****             flags |= MBEDTLS_X509_BADCRL_EXPIRED;
1868:C:/Users/Yushev/git/wpcqi-optiga-trust-charge/optiga/externals/mbedtls/library\x509_crt.c **** 
1869:C:/Users/Yushev/git/wpcqi-optiga-trust-charge/optiga/externals/mbedtls/library\x509_crt.c ****         if( mbedtls_x509_time_is_future( &crl_list->this_update ) )
1870:C:/Users/Yushev/git/wpcqi-optiga-trust-charge/optiga/externals/mbedtls/library\x509_crt.c ****             flags |= MBEDTLS_X509_BADCRL_FUTURE;
1871:C:/Users/Yushev/git/wpcqi-optiga-trust-charge/optiga/externals/mbedtls/library\x509_crt.c **** 
1872:C:/Users/Yushev/git/wpcqi-optiga-trust-charge/optiga/externals/mbedtls/library\x509_crt.c ****         /*
1873:C:/Users/Yushev/git/wpcqi-optiga-trust-charge/optiga/externals/mbedtls/library\x509_crt.c ****          * Check if certificate is revoked
1874:C:/Users/Yushev/git/wpcqi-optiga-trust-charge/optiga/externals/mbedtls/library\x509_crt.c ****          */
1875:C:/Users/Yushev/git/wpcqi-optiga-trust-charge/optiga/externals/mbedtls/library\x509_crt.c ****         if( mbedtls_x509_crt_is_revoked( crt, crl_list ) )
1876:C:/Users/Yushev/git/wpcqi-optiga-trust-charge/optiga/externals/mbedtls/library\x509_crt.c ****         {
1877:C:/Users/Yushev/git/wpcqi-optiga-trust-charge/optiga/externals/mbedtls/library\x509_crt.c ****             flags |= MBEDTLS_X509_BADCERT_REVOKED;
1878:C:/Users/Yushev/git/wpcqi-optiga-trust-charge/optiga/externals/mbedtls/library\x509_crt.c ****             break;
1879:C:/Users/Yushev/git/wpcqi-optiga-trust-charge/optiga/externals/mbedtls/library\x509_crt.c ****         }
1880:C:/Users/Yushev/git/wpcqi-optiga-trust-charge/optiga/externals/mbedtls/library\x509_crt.c **** 
1881:C:/Users/Yushev/git/wpcqi-optiga-trust-charge/optiga/externals/mbedtls/library\x509_crt.c ****         crl_list = crl_list->next;
1882:C:/Users/Yushev/git/wpcqi-optiga-trust-charge/optiga/externals/mbedtls/library\x509_crt.c ****     }
1883:C:/Users/Yushev/git/wpcqi-optiga-trust-charge/optiga/externals/mbedtls/library\x509_crt.c **** 
1884:C:/Users/Yushev/git/wpcqi-optiga-trust-charge/optiga/externals/mbedtls/library\x509_crt.c ****     return( flags );
1885:C:/Users/Yushev/git/wpcqi-optiga-trust-charge/optiga/externals/mbedtls/library\x509_crt.c **** }
1886:C:/Users/Yushev/git/wpcqi-optiga-trust-charge/optiga/externals/mbedtls/library\x509_crt.c **** #endif /* MBEDTLS_X509_CRL_PARSE_C */
1887:C:/Users/Yushev/git/wpcqi-optiga-trust-charge/optiga/externals/mbedtls/library\x509_crt.c **** 
1888:C:/Users/Yushev/git/wpcqi-optiga-trust-charge/optiga/externals/mbedtls/library\x509_crt.c **** /*
1889:C:/Users/Yushev/git/wpcqi-optiga-trust-charge/optiga/externals/mbedtls/library\x509_crt.c ****  * Check the signature of a certificate by its parent
1890:C:/Users/Yushev/git/wpcqi-optiga-trust-charge/optiga/externals/mbedtls/library\x509_crt.c ****  */
1891:C:/Users/Yushev/git/wpcqi-optiga-trust-charge/optiga/externals/mbedtls/library\x509_crt.c **** static int x509_crt_check_signature( const mbedtls_x509_crt *child,
1892:C:/Users/Yushev/git/wpcqi-optiga-trust-charge/optiga/externals/mbedtls/library\x509_crt.c ****                                      mbedtls_x509_crt *parent,
1893:C:/Users/Yushev/git/wpcqi-optiga-trust-charge/optiga/externals/mbedtls/library\x509_crt.c ****                                      mbedtls_x509_crt_restart_ctx *rs_ctx )
1894:C:/Users/Yushev/git/wpcqi-optiga-trust-charge/optiga/externals/mbedtls/library\x509_crt.c **** {
 5544              	 .loc 2 1894 0
 5545              	 .cfi_startproc
 5546              	 
 5547              	 
 5548 0000 2DE9F041 	 push {r4,r5,r6,r7,r8,lr}
 5549              	.LCFI141:
 5550              	 .cfi_def_cfa_offset 24
 5551              	 .cfi_offset 4,-24
 5552              	 .cfi_offset 5,-20
 5553              	 .cfi_offset 6,-16
 5554              	 .cfi_offset 7,-12
 5555              	 .cfi_offset 8,-8
 5556              	 .cfi_offset 14,-4
 5557 0004 92B0     	 sub sp,sp,#72
 5558              	.LCFI142:
 5559              	 .cfi_def_cfa_offset 96
 5560 0006 04AF     	 add r7,sp,#16
 5561              	.LCFI143:
 5562              	 .cfi_def_cfa 7,80
 5563 0008 F860     	 str r0,[r7,#12]
 5564 000a B960     	 str r1,[r7,#8]
 5565 000c 7A60     	 str r2,[r7,#4]
1895:C:/Users/Yushev/git/wpcqi-optiga-trust-charge/optiga/externals/mbedtls/library\x509_crt.c ****     const mbedtls_md_info_t *md_info;
1896:C:/Users/Yushev/git/wpcqi-optiga-trust-charge/optiga/externals/mbedtls/library\x509_crt.c ****     unsigned char hash[MBEDTLS_MD_MAX_SIZE];
1897:C:/Users/Yushev/git/wpcqi-optiga-trust-charge/optiga/externals/mbedtls/library\x509_crt.c **** 
1898:C:/Users/Yushev/git/wpcqi-optiga-trust-charge/optiga/externals/mbedtls/library\x509_crt.c ****     md_info = mbedtls_md_info_from_type( child->sig_md );
 5566              	 .loc 2 1898 0
 5567 000e FB68     	 ldr r3,[r7,#12]
 5568 0010 93F82831 	 ldrb r3,[r3,#296]
 5569 0014 1846     	 mov r0,r3
 5570 0016 FFF7FEFF 	 bl mbedtls_md_info_from_type
 5571 001a 7863     	 str r0,[r7,#52]
1899:C:/Users/Yushev/git/wpcqi-optiga-trust-charge/optiga/externals/mbedtls/library\x509_crt.c ****     if( mbedtls_md( md_info, child->tbs.p, child->tbs.len, hash ) != 0 )
 5572              	 .loc 2 1899 0
 5573 001c FB68     	 ldr r3,[r7,#12]
 5574 001e 5969     	 ldr r1,[r3,#20]
 5575 0020 FB68     	 ldr r3,[r7,#12]
 5576 0022 1A69     	 ldr r2,[r3,#16]
 5577 0024 07F11403 	 add r3,r7,#20
 5578 0028 786B     	 ldr r0,[r7,#52]
 5579 002a FFF7FEFF 	 bl mbedtls_md
 5580 002e 0346     	 mov r3,r0
 5581 0030 002B     	 cmp r3,#0
 5582 0032 02D0     	 beq .L370
1900:C:/Users/Yushev/git/wpcqi-optiga-trust-charge/optiga/externals/mbedtls/library\x509_crt.c ****     {
1901:C:/Users/Yushev/git/wpcqi-optiga-trust-charge/optiga/externals/mbedtls/library\x509_crt.c ****         /* Note: this can't happen except after an internal error */
1902:C:/Users/Yushev/git/wpcqi-optiga-trust-charge/optiga/externals/mbedtls/library\x509_crt.c ****         return( -1 );
 5583              	 .loc 2 1902 0
 5584 0034 4FF0FF33 	 mov r3,#-1
 5585 0038 33E0     	 b .L373
 5586              	.L370:
1903:C:/Users/Yushev/git/wpcqi-optiga-trust-charge/optiga/externals/mbedtls/library\x509_crt.c ****     }
1904:C:/Users/Yushev/git/wpcqi-optiga-trust-charge/optiga/externals/mbedtls/library\x509_crt.c **** 
1905:C:/Users/Yushev/git/wpcqi-optiga-trust-charge/optiga/externals/mbedtls/library\x509_crt.c ****     /* Skip expensive computation on obvious mismatch */
1906:C:/Users/Yushev/git/wpcqi-optiga-trust-charge/optiga/externals/mbedtls/library\x509_crt.c ****     if( ! mbedtls_pk_can_do( &parent->pk, child->sig_pk ) )
 5587              	 .loc 2 1906 0
 5588 003a BB68     	 ldr r3,[r7,#8]
 5589 003c 03F1BC02 	 add r2,r3,#188
 5590 0040 FB68     	 ldr r3,[r7,#12]
 5591 0042 93F82931 	 ldrb r3,[r3,#297]
 5592 0046 1046     	 mov r0,r2
 5593 0048 1946     	 mov r1,r3
 5594 004a FFF7FEFF 	 bl mbedtls_pk_can_do
 5595 004e 0346     	 mov r3,r0
 5596 0050 002B     	 cmp r3,#0
 5597 0052 02D1     	 bne .L372
1907:C:/Users/Yushev/git/wpcqi-optiga-trust-charge/optiga/externals/mbedtls/library\x509_crt.c ****         return( -1 );
 5598              	 .loc 2 1907 0
 5599 0054 4FF0FF33 	 mov r3,#-1
 5600 0058 23E0     	 b .L373
 5601              	.L372:
1908:C:/Users/Yushev/git/wpcqi-optiga-trust-charge/optiga/externals/mbedtls/library\x509_crt.c **** 
1909:C:/Users/Yushev/git/wpcqi-optiga-trust-charge/optiga/externals/mbedtls/library\x509_crt.c **** #if defined(MBEDTLS_ECDSA_C) && defined(MBEDTLS_ECP_RESTARTABLE)
1910:C:/Users/Yushev/git/wpcqi-optiga-trust-charge/optiga/externals/mbedtls/library\x509_crt.c ****     if( rs_ctx != NULL && child->sig_pk == MBEDTLS_PK_ECDSA )
1911:C:/Users/Yushev/git/wpcqi-optiga-trust-charge/optiga/externals/mbedtls/library\x509_crt.c ****     {
1912:C:/Users/Yushev/git/wpcqi-optiga-trust-charge/optiga/externals/mbedtls/library\x509_crt.c ****         return( mbedtls_pk_verify_restartable( &parent->pk,
1913:C:/Users/Yushev/git/wpcqi-optiga-trust-charge/optiga/externals/mbedtls/library\x509_crt.c ****                     child->sig_md, hash, mbedtls_md_get_size( md_info ),
1914:C:/Users/Yushev/git/wpcqi-optiga-trust-charge/optiga/externals/mbedtls/library\x509_crt.c ****                     child->sig.p, child->sig.len, &rs_ctx->pk ) );
1915:C:/Users/Yushev/git/wpcqi-optiga-trust-charge/optiga/externals/mbedtls/library\x509_crt.c ****     }
1916:C:/Users/Yushev/git/wpcqi-optiga-trust-charge/optiga/externals/mbedtls/library\x509_crt.c **** #else
1917:C:/Users/Yushev/git/wpcqi-optiga-trust-charge/optiga/externals/mbedtls/library\x509_crt.c ****     (void) rs_ctx;
1918:C:/Users/Yushev/git/wpcqi-optiga-trust-charge/optiga/externals/mbedtls/library\x509_crt.c **** #endif
1919:C:/Users/Yushev/git/wpcqi-optiga-trust-charge/optiga/externals/mbedtls/library\x509_crt.c **** 
1920:C:/Users/Yushev/git/wpcqi-optiga-trust-charge/optiga/externals/mbedtls/library\x509_crt.c ****     return( mbedtls_pk_verify_ext( child->sig_pk, child->sig_opts, &parent->pk,
 5602              	 .loc 2 1920 0
 5603 005a FB68     	 ldr r3,[r7,#12]
 5604 005c 93F82981 	 ldrb r8,[r3,#297]
 5605 0060 FB68     	 ldr r3,[r7,#12]
 5606 0062 D3F82C61 	 ldr r6,[r3,#300]
 5607 0066 BB68     	 ldr r3,[r7,#8]
 5608 0068 03F1BC05 	 add r5,r3,#188
 5609 006c FB68     	 ldr r3,[r7,#12]
 5610 006e 93F82841 	 ldrb r4,[r3,#296]
1921:C:/Users/Yushev/git/wpcqi-optiga-trust-charge/optiga/externals/mbedtls/library\x509_crt.c ****                 child->sig_md, hash, mbedtls_md_get_size( md_info ),
 5611              	 .loc 2 1921 0
 5612 0072 786B     	 ldr r0,[r7,#52]
 5613 0074 FFF7FEFF 	 bl mbedtls_md_get_size
 5614 0078 0346     	 mov r3,r0
1920:C:/Users/Yushev/git/wpcqi-optiga-trust-charge/optiga/externals/mbedtls/library\x509_crt.c ****                 child->sig_md, hash, mbedtls_md_get_size( md_info ),
 5615              	 .loc 2 1920 0
 5616 007a 1846     	 mov r0,r3
1922:C:/Users/Yushev/git/wpcqi-optiga-trust-charge/optiga/externals/mbedtls/library\x509_crt.c ****                 child->sig.p, child->sig.len ) );
 5617              	 .loc 2 1922 0
 5618 007c FB68     	 ldr r3,[r7,#12]
 5619 007e D3F82421 	 ldr r2,[r3,#292]
1920:C:/Users/Yushev/git/wpcqi-optiga-trust-charge/optiga/externals/mbedtls/library\x509_crt.c ****                 child->sig_md, hash, mbedtls_md_get_size( md_info ),
 5620              	 .loc 2 1920 0
 5621 0082 FB68     	 ldr r3,[r7,#12]
 5622 0084 D3F82031 	 ldr r3,[r3,#288]
 5623 0088 07F11401 	 add r1,r7,#20
 5624 008c 0091     	 str r1,[sp]
 5625 008e 0190     	 str r0,[sp,#4]
 5626 0090 0292     	 str r2,[sp,#8]
 5627 0092 0393     	 str r3,[sp,#12]
 5628 0094 4046     	 mov r0,r8
 5629 0096 3146     	 mov r1,r6
 5630 0098 2A46     	 mov r2,r5
 5631 009a 2346     	 mov r3,r4
 5632 009c FFF7FEFF 	 bl mbedtls_pk_verify_ext
 5633 00a0 0346     	 mov r3,r0
 5634              	.L373:
1923:C:/Users/Yushev/git/wpcqi-optiga-trust-charge/optiga/externals/mbedtls/library\x509_crt.c **** }
 5635              	 .loc 2 1923 0 discriminator 1
 5636 00a2 1846     	 mov r0,r3
 5637 00a4 3837     	 adds r7,r7,#56
 5638              	.LCFI144:
 5639              	 .cfi_def_cfa_offset 24
 5640 00a6 BD46     	 mov sp,r7
 5641              	.LCFI145:
 5642              	 .cfi_def_cfa_register 13
 5643              	 
 5644 00a8 BDE8F081 	 pop {r4,r5,r6,r7,r8,pc}
 5645              	 .cfi_endproc
 5646              	.LFE35:
 5648              	 .section .text.x509_crt_check_parent,"ax",%progbits
 5649              	 .align 2
 5650              	 .thumb
 5651              	 .thumb_func
 5653              	x509_crt_check_parent:
 5654              	.LFB36:
1924:C:/Users/Yushev/git/wpcqi-optiga-trust-charge/optiga/externals/mbedtls/library\x509_crt.c **** 
1925:C:/Users/Yushev/git/wpcqi-optiga-trust-charge/optiga/externals/mbedtls/library\x509_crt.c **** /*
1926:C:/Users/Yushev/git/wpcqi-optiga-trust-charge/optiga/externals/mbedtls/library\x509_crt.c ****  * Check if 'parent' is a suitable parent (signing CA) for 'child'.
1927:C:/Users/Yushev/git/wpcqi-optiga-trust-charge/optiga/externals/mbedtls/library\x509_crt.c ****  * Return 0 if yes, -1 if not.
1928:C:/Users/Yushev/git/wpcqi-optiga-trust-charge/optiga/externals/mbedtls/library\x509_crt.c ****  *
1929:C:/Users/Yushev/git/wpcqi-optiga-trust-charge/optiga/externals/mbedtls/library\x509_crt.c ****  * top means parent is a locally-trusted certificate
1930:C:/Users/Yushev/git/wpcqi-optiga-trust-charge/optiga/externals/mbedtls/library\x509_crt.c ****  */
1931:C:/Users/Yushev/git/wpcqi-optiga-trust-charge/optiga/externals/mbedtls/library\x509_crt.c **** static int x509_crt_check_parent( const mbedtls_x509_crt *child,
1932:C:/Users/Yushev/git/wpcqi-optiga-trust-charge/optiga/externals/mbedtls/library\x509_crt.c ****                                   const mbedtls_x509_crt *parent,
1933:C:/Users/Yushev/git/wpcqi-optiga-trust-charge/optiga/externals/mbedtls/library\x509_crt.c ****                                   int top )
1934:C:/Users/Yushev/git/wpcqi-optiga-trust-charge/optiga/externals/mbedtls/library\x509_crt.c **** {
 5655              	 .loc 2 1934 0
 5656              	 .cfi_startproc
 5657              	 
 5658              	 
 5659 0000 80B5     	 push {r7,lr}
 5660              	.LCFI146:
 5661              	 .cfi_def_cfa_offset 8
 5662              	 .cfi_offset 7,-8
 5663              	 .cfi_offset 14,-4
 5664 0002 86B0     	 sub sp,sp,#24
 5665              	.LCFI147:
 5666              	 .cfi_def_cfa_offset 32
 5667 0004 00AF     	 add r7,sp,#0
 5668              	.LCFI148:
 5669              	 .cfi_def_cfa_register 7
 5670 0006 F860     	 str r0,[r7,#12]
 5671 0008 B960     	 str r1,[r7,#8]
 5672 000a 7A60     	 str r2,[r7,#4]
1935:C:/Users/Yushev/git/wpcqi-optiga-trust-charge/optiga/externals/mbedtls/library\x509_crt.c ****     int need_ca_bit;
1936:C:/Users/Yushev/git/wpcqi-optiga-trust-charge/optiga/externals/mbedtls/library\x509_crt.c **** 
1937:C:/Users/Yushev/git/wpcqi-optiga-trust-charge/optiga/externals/mbedtls/library\x509_crt.c ****     /* Parent must be the issuer */
1938:C:/Users/Yushev/git/wpcqi-optiga-trust-charge/optiga/externals/mbedtls/library\x509_crt.c ****     if( x509_name_cmp( &child->issuer, &parent->subject ) != 0 )
 5673              	 .loc 2 1938 0
 5674 000c FB68     	 ldr r3,[r7,#12]
 5675 000e 03F14C02 	 add r2,r3,#76
 5676 0012 BB68     	 ldr r3,[r7,#8]
 5677 0014 6C33     	 adds r3,r3,#108
 5678 0016 1046     	 mov r0,r2
 5679 0018 1946     	 mov r1,r3
 5680 001a FFF7FEFF 	 bl x509_name_cmp
 5681 001e 0346     	 mov r3,r0
 5682 0020 002B     	 cmp r3,#0
 5683 0022 02D0     	 beq .L375
1939:C:/Users/Yushev/git/wpcqi-optiga-trust-charge/optiga/externals/mbedtls/library\x509_crt.c ****         return( -1 );
 5684              	 .loc 2 1939 0
 5685 0024 4FF0FF33 	 mov r3,#-1
 5686 0028 16E0     	 b .L376
 5687              	.L375:
1940:C:/Users/Yushev/git/wpcqi-optiga-trust-charge/optiga/externals/mbedtls/library\x509_crt.c **** 
1941:C:/Users/Yushev/git/wpcqi-optiga-trust-charge/optiga/externals/mbedtls/library\x509_crt.c ****     /* Parent must have the basicConstraints CA bit set as a general rule */
1942:C:/Users/Yushev/git/wpcqi-optiga-trust-charge/optiga/externals/mbedtls/library\x509_crt.c ****     need_ca_bit = 1;
 5688              	 .loc 2 1942 0
 5689 002a 0123     	 movs r3,#1
 5690 002c 7B61     	 str r3,[r7,#20]
1943:C:/Users/Yushev/git/wpcqi-optiga-trust-charge/optiga/externals/mbedtls/library\x509_crt.c **** 
1944:C:/Users/Yushev/git/wpcqi-optiga-trust-charge/optiga/externals/mbedtls/library\x509_crt.c ****     /* Exception: v1/v2 certificates that are locally trusted. */
1945:C:/Users/Yushev/git/wpcqi-optiga-trust-charge/optiga/externals/mbedtls/library\x509_crt.c ****     if( top && parent->version < 3 )
 5691              	 .loc 2 1945 0
 5692 002e 7B68     	 ldr r3,[r7,#4]
 5693 0030 002B     	 cmp r3,#0
 5694 0032 05D0     	 beq .L377
 5695              	 .loc 2 1945 0 is_stmt 0 discriminator 1
 5696 0034 BB68     	 ldr r3,[r7,#8]
 5697 0036 9B69     	 ldr r3,[r3,#24]
 5698 0038 022B     	 cmp r3,#2
 5699 003a 01DC     	 bgt .L377
1946:C:/Users/Yushev/git/wpcqi-optiga-trust-charge/optiga/externals/mbedtls/library\x509_crt.c ****         need_ca_bit = 0;
 5700              	 .loc 2 1946 0 is_stmt 1
 5701 003c 0023     	 movs r3,#0
 5702 003e 7B61     	 str r3,[r7,#20]
 5703              	.L377:
1947:C:/Users/Yushev/git/wpcqi-optiga-trust-charge/optiga/externals/mbedtls/library\x509_crt.c **** 
1948:C:/Users/Yushev/git/wpcqi-optiga-trust-charge/optiga/externals/mbedtls/library\x509_crt.c ****     if( need_ca_bit && ! parent->ca_istrue )
 5704              	 .loc 2 1948 0
 5705 0040 7B69     	 ldr r3,[r7,#20]
 5706 0042 002B     	 cmp r3,#0
 5707 0044 07D0     	 beq .L378
 5708              	 .loc 2 1948 0 is_stmt 0 discriminator 1
 5709 0046 BB68     	 ldr r3,[r7,#8]
 5710 0048 D3F8FC30 	 ldr r3,[r3,#252]
 5711 004c 002B     	 cmp r3,#0
 5712 004e 02D1     	 bne .L378
1949:C:/Users/Yushev/git/wpcqi-optiga-trust-charge/optiga/externals/mbedtls/library\x509_crt.c ****         return( -1 );
 5713              	 .loc 2 1949 0 is_stmt 1
 5714 0050 4FF0FF33 	 mov r3,#-1
 5715 0054 00E0     	 b .L376
 5716              	.L378:
1950:C:/Users/Yushev/git/wpcqi-optiga-trust-charge/optiga/externals/mbedtls/library\x509_crt.c **** 
1951:C:/Users/Yushev/git/wpcqi-optiga-trust-charge/optiga/externals/mbedtls/library\x509_crt.c **** #if defined(MBEDTLS_X509_CHECK_KEY_USAGE)
1952:C:/Users/Yushev/git/wpcqi-optiga-trust-charge/optiga/externals/mbedtls/library\x509_crt.c ****     if( need_ca_bit &&
1953:C:/Users/Yushev/git/wpcqi-optiga-trust-charge/optiga/externals/mbedtls/library\x509_crt.c ****         mbedtls_x509_crt_check_key_usage( parent, MBEDTLS_X509_KU_KEY_CERT_SIGN ) != 0 )
1954:C:/Users/Yushev/git/wpcqi-optiga-trust-charge/optiga/externals/mbedtls/library\x509_crt.c ****     {
1955:C:/Users/Yushev/git/wpcqi-optiga-trust-charge/optiga/externals/mbedtls/library\x509_crt.c ****         return( -1 );
1956:C:/Users/Yushev/git/wpcqi-optiga-trust-charge/optiga/externals/mbedtls/library\x509_crt.c ****     }
1957:C:/Users/Yushev/git/wpcqi-optiga-trust-charge/optiga/externals/mbedtls/library\x509_crt.c **** #endif
1958:C:/Users/Yushev/git/wpcqi-optiga-trust-charge/optiga/externals/mbedtls/library\x509_crt.c **** 
1959:C:/Users/Yushev/git/wpcqi-optiga-trust-charge/optiga/externals/mbedtls/library\x509_crt.c ****     return( 0 );
 5717              	 .loc 2 1959 0
 5718 0056 0023     	 movs r3,#0
 5719              	.L376:
1960:C:/Users/Yushev/git/wpcqi-optiga-trust-charge/optiga/externals/mbedtls/library\x509_crt.c **** }
 5720              	 .loc 2 1960 0
 5721 0058 1846     	 mov r0,r3
 5722 005a 1837     	 adds r7,r7,#24
 5723              	.LCFI149:
 5724              	 .cfi_def_cfa_offset 8
 5725 005c BD46     	 mov sp,r7
 5726              	.LCFI150:
 5727              	 .cfi_def_cfa_register 13
 5728              	 
 5729 005e 80BD     	 pop {r7,pc}
 5730              	 .cfi_endproc
 5731              	.LFE36:
 5733              	 .section .text.x509_crt_find_parent_in,"ax",%progbits
 5734              	 .align 2
 5735              	 .thumb
 5736              	 .thumb_func
 5738              	x509_crt_find_parent_in:
 5739              	.LFB37:
1961:C:/Users/Yushev/git/wpcqi-optiga-trust-charge/optiga/externals/mbedtls/library\x509_crt.c **** 
1962:C:/Users/Yushev/git/wpcqi-optiga-trust-charge/optiga/externals/mbedtls/library\x509_crt.c **** /*
1963:C:/Users/Yushev/git/wpcqi-optiga-trust-charge/optiga/externals/mbedtls/library\x509_crt.c ****  * Find a suitable parent for child in candidates, or return NULL.
1964:C:/Users/Yushev/git/wpcqi-optiga-trust-charge/optiga/externals/mbedtls/library\x509_crt.c ****  *
1965:C:/Users/Yushev/git/wpcqi-optiga-trust-charge/optiga/externals/mbedtls/library\x509_crt.c ****  * Here suitable is defined as:
1966:C:/Users/Yushev/git/wpcqi-optiga-trust-charge/optiga/externals/mbedtls/library\x509_crt.c ****  *  1. subject name matches child's issuer
1967:C:/Users/Yushev/git/wpcqi-optiga-trust-charge/optiga/externals/mbedtls/library\x509_crt.c ****  *  2. if necessary, the CA bit is set and key usage allows signing certs
1968:C:/Users/Yushev/git/wpcqi-optiga-trust-charge/optiga/externals/mbedtls/library\x509_crt.c ****  *  3. for trusted roots, the signature is correct
1969:C:/Users/Yushev/git/wpcqi-optiga-trust-charge/optiga/externals/mbedtls/library\x509_crt.c ****  *     (for intermediates, the signature is checked and the result reported)
1970:C:/Users/Yushev/git/wpcqi-optiga-trust-charge/optiga/externals/mbedtls/library\x509_crt.c ****  *  4. pathlen constraints are satisfied
1971:C:/Users/Yushev/git/wpcqi-optiga-trust-charge/optiga/externals/mbedtls/library\x509_crt.c ****  *
1972:C:/Users/Yushev/git/wpcqi-optiga-trust-charge/optiga/externals/mbedtls/library\x509_crt.c ****  * If there's a suitable candidate which is also time-valid, return the first
1973:C:/Users/Yushev/git/wpcqi-optiga-trust-charge/optiga/externals/mbedtls/library\x509_crt.c ****  * such. Otherwise, return the first suitable candidate (or NULL if there is
1974:C:/Users/Yushev/git/wpcqi-optiga-trust-charge/optiga/externals/mbedtls/library\x509_crt.c ****  * none).
1975:C:/Users/Yushev/git/wpcqi-optiga-trust-charge/optiga/externals/mbedtls/library\x509_crt.c ****  *
1976:C:/Users/Yushev/git/wpcqi-optiga-trust-charge/optiga/externals/mbedtls/library\x509_crt.c ****  * The rationale for this rule is that someone could have a list of trusted
1977:C:/Users/Yushev/git/wpcqi-optiga-trust-charge/optiga/externals/mbedtls/library\x509_crt.c ****  * roots with two versions on the same root with different validity periods.
1978:C:/Users/Yushev/git/wpcqi-optiga-trust-charge/optiga/externals/mbedtls/library\x509_crt.c ****  * (At least one user reported having such a list and wanted it to just work.)
1979:C:/Users/Yushev/git/wpcqi-optiga-trust-charge/optiga/externals/mbedtls/library\x509_crt.c ****  * The reason we don't just require time-validity is that generally there is
1980:C:/Users/Yushev/git/wpcqi-optiga-trust-charge/optiga/externals/mbedtls/library\x509_crt.c ****  * only one version, and if it's expired we want the flags to state that
1981:C:/Users/Yushev/git/wpcqi-optiga-trust-charge/optiga/externals/mbedtls/library\x509_crt.c ****  * rather than NOT_TRUSTED, as would be the case if we required it here.
1982:C:/Users/Yushev/git/wpcqi-optiga-trust-charge/optiga/externals/mbedtls/library\x509_crt.c ****  *
1983:C:/Users/Yushev/git/wpcqi-optiga-trust-charge/optiga/externals/mbedtls/library\x509_crt.c ****  * The rationale for rule 3 (signature for trusted roots) is that users might
1984:C:/Users/Yushev/git/wpcqi-optiga-trust-charge/optiga/externals/mbedtls/library\x509_crt.c ****  * have two versions of the same CA with different keys in their list, and the
1985:C:/Users/Yushev/git/wpcqi-optiga-trust-charge/optiga/externals/mbedtls/library\x509_crt.c ****  * way we select the correct one is by checking the signature (as we don't
1986:C:/Users/Yushev/git/wpcqi-optiga-trust-charge/optiga/externals/mbedtls/library\x509_crt.c ****  * rely on key identifier extensions). (This is one way users might choose to
1987:C:/Users/Yushev/git/wpcqi-optiga-trust-charge/optiga/externals/mbedtls/library\x509_crt.c ****  * handle key rollover, another relies on self-issued certs, see [SIRO].)
1988:C:/Users/Yushev/git/wpcqi-optiga-trust-charge/optiga/externals/mbedtls/library\x509_crt.c ****  *
1989:C:/Users/Yushev/git/wpcqi-optiga-trust-charge/optiga/externals/mbedtls/library\x509_crt.c ****  * Arguments:
1990:C:/Users/Yushev/git/wpcqi-optiga-trust-charge/optiga/externals/mbedtls/library\x509_crt.c ****  *  - [in] child: certificate for which we're looking for a parent
1991:C:/Users/Yushev/git/wpcqi-optiga-trust-charge/optiga/externals/mbedtls/library\x509_crt.c ****  *  - [in] candidates: chained list of potential parents
1992:C:/Users/Yushev/git/wpcqi-optiga-trust-charge/optiga/externals/mbedtls/library\x509_crt.c ****  *  - [out] r_parent: parent found (or NULL)
1993:C:/Users/Yushev/git/wpcqi-optiga-trust-charge/optiga/externals/mbedtls/library\x509_crt.c ****  *  - [out] r_signature_is_good: 1 if child signature by parent is valid, or 0
1994:C:/Users/Yushev/git/wpcqi-optiga-trust-charge/optiga/externals/mbedtls/library\x509_crt.c ****  *  - [in] top: 1 if candidates consists of trusted roots, ie we're at the top
1995:C:/Users/Yushev/git/wpcqi-optiga-trust-charge/optiga/externals/mbedtls/library\x509_crt.c ****  *         of the chain, 0 otherwise
1996:C:/Users/Yushev/git/wpcqi-optiga-trust-charge/optiga/externals/mbedtls/library\x509_crt.c ****  *  - [in] path_cnt: number of intermediates seen so far
1997:C:/Users/Yushev/git/wpcqi-optiga-trust-charge/optiga/externals/mbedtls/library\x509_crt.c ****  *  - [in] self_cnt: number of self-signed intermediates seen so far
1998:C:/Users/Yushev/git/wpcqi-optiga-trust-charge/optiga/externals/mbedtls/library\x509_crt.c ****  *         (will never be greater than path_cnt)
1999:C:/Users/Yushev/git/wpcqi-optiga-trust-charge/optiga/externals/mbedtls/library\x509_crt.c ****  *  - [in-out] rs_ctx: context for restarting operations
2000:C:/Users/Yushev/git/wpcqi-optiga-trust-charge/optiga/externals/mbedtls/library\x509_crt.c ****  *
2001:C:/Users/Yushev/git/wpcqi-optiga-trust-charge/optiga/externals/mbedtls/library\x509_crt.c ****  * Return value:
2002:C:/Users/Yushev/git/wpcqi-optiga-trust-charge/optiga/externals/mbedtls/library\x509_crt.c ****  *  - 0 on success
2003:C:/Users/Yushev/git/wpcqi-optiga-trust-charge/optiga/externals/mbedtls/library\x509_crt.c ****  *  - MBEDTLS_ERR_ECP_IN_PROGRESS otherwise
2004:C:/Users/Yushev/git/wpcqi-optiga-trust-charge/optiga/externals/mbedtls/library\x509_crt.c ****  */
2005:C:/Users/Yushev/git/wpcqi-optiga-trust-charge/optiga/externals/mbedtls/library\x509_crt.c **** static int x509_crt_find_parent_in(
2006:C:/Users/Yushev/git/wpcqi-optiga-trust-charge/optiga/externals/mbedtls/library\x509_crt.c ****                         mbedtls_x509_crt *child,
2007:C:/Users/Yushev/git/wpcqi-optiga-trust-charge/optiga/externals/mbedtls/library\x509_crt.c ****                         mbedtls_x509_crt *candidates,
2008:C:/Users/Yushev/git/wpcqi-optiga-trust-charge/optiga/externals/mbedtls/library\x509_crt.c ****                         mbedtls_x509_crt **r_parent,
2009:C:/Users/Yushev/git/wpcqi-optiga-trust-charge/optiga/externals/mbedtls/library\x509_crt.c ****                         int *r_signature_is_good,
2010:C:/Users/Yushev/git/wpcqi-optiga-trust-charge/optiga/externals/mbedtls/library\x509_crt.c ****                         int top,
2011:C:/Users/Yushev/git/wpcqi-optiga-trust-charge/optiga/externals/mbedtls/library\x509_crt.c ****                         unsigned path_cnt,
2012:C:/Users/Yushev/git/wpcqi-optiga-trust-charge/optiga/externals/mbedtls/library\x509_crt.c ****                         unsigned self_cnt,
2013:C:/Users/Yushev/git/wpcqi-optiga-trust-charge/optiga/externals/mbedtls/library\x509_crt.c ****                         mbedtls_x509_crt_restart_ctx *rs_ctx )
2014:C:/Users/Yushev/git/wpcqi-optiga-trust-charge/optiga/externals/mbedtls/library\x509_crt.c **** {
 5740              	 .loc 2 2014 0
 5741              	 .cfi_startproc
 5742              	 
 5743              	 
 5744 0000 80B5     	 push {r7,lr}
 5745              	.LCFI151:
 5746              	 .cfi_def_cfa_offset 8
 5747              	 .cfi_offset 7,-8
 5748              	 .cfi_offset 14,-4
 5749 0002 8AB0     	 sub sp,sp,#40
 5750              	.LCFI152:
 5751              	 .cfi_def_cfa_offset 48
 5752 0004 00AF     	 add r7,sp,#0
 5753              	.LCFI153:
 5754              	 .cfi_def_cfa_register 7
 5755 0006 F860     	 str r0,[r7,#12]
 5756 0008 B960     	 str r1,[r7,#8]
 5757 000a 7A60     	 str r2,[r7,#4]
 5758 000c 3B60     	 str r3,[r7]
2015:C:/Users/Yushev/git/wpcqi-optiga-trust-charge/optiga/externals/mbedtls/library\x509_crt.c ****     int ret;
2016:C:/Users/Yushev/git/wpcqi-optiga-trust-charge/optiga/externals/mbedtls/library\x509_crt.c ****     mbedtls_x509_crt *parent, *fallback_parent;
2017:C:/Users/Yushev/git/wpcqi-optiga-trust-charge/optiga/externals/mbedtls/library\x509_crt.c ****     int signature_is_good, fallback_signature_is_good;
2018:C:/Users/Yushev/git/wpcqi-optiga-trust-charge/optiga/externals/mbedtls/library\x509_crt.c **** 
2019:C:/Users/Yushev/git/wpcqi-optiga-trust-charge/optiga/externals/mbedtls/library\x509_crt.c **** #if defined(MBEDTLS_ECDSA_C) && defined(MBEDTLS_ECP_RESTARTABLE)
2020:C:/Users/Yushev/git/wpcqi-optiga-trust-charge/optiga/externals/mbedtls/library\x509_crt.c ****     /* did we have something in progress? */
2021:C:/Users/Yushev/git/wpcqi-optiga-trust-charge/optiga/externals/mbedtls/library\x509_crt.c ****     if( rs_ctx != NULL && rs_ctx->parent != NULL )
2022:C:/Users/Yushev/git/wpcqi-optiga-trust-charge/optiga/externals/mbedtls/library\x509_crt.c ****     {
2023:C:/Users/Yushev/git/wpcqi-optiga-trust-charge/optiga/externals/mbedtls/library\x509_crt.c ****         /* restore saved state */
2024:C:/Users/Yushev/git/wpcqi-optiga-trust-charge/optiga/externals/mbedtls/library\x509_crt.c ****         parent = rs_ctx->parent;
2025:C:/Users/Yushev/git/wpcqi-optiga-trust-charge/optiga/externals/mbedtls/library\x509_crt.c ****         fallback_parent = rs_ctx->fallback_parent;
2026:C:/Users/Yushev/git/wpcqi-optiga-trust-charge/optiga/externals/mbedtls/library\x509_crt.c ****         fallback_signature_is_good = rs_ctx->fallback_signature_is_good;
2027:C:/Users/Yushev/git/wpcqi-optiga-trust-charge/optiga/externals/mbedtls/library\x509_crt.c **** 
2028:C:/Users/Yushev/git/wpcqi-optiga-trust-charge/optiga/externals/mbedtls/library\x509_crt.c ****         /* clear saved state */
2029:C:/Users/Yushev/git/wpcqi-optiga-trust-charge/optiga/externals/mbedtls/library\x509_crt.c ****         rs_ctx->parent = NULL;
2030:C:/Users/Yushev/git/wpcqi-optiga-trust-charge/optiga/externals/mbedtls/library\x509_crt.c ****         rs_ctx->fallback_parent = NULL;
2031:C:/Users/Yushev/git/wpcqi-optiga-trust-charge/optiga/externals/mbedtls/library\x509_crt.c ****         rs_ctx->fallback_signature_is_good = 0;
2032:C:/Users/Yushev/git/wpcqi-optiga-trust-charge/optiga/externals/mbedtls/library\x509_crt.c **** 
2033:C:/Users/Yushev/git/wpcqi-optiga-trust-charge/optiga/externals/mbedtls/library\x509_crt.c ****         /* resume where we left */
2034:C:/Users/Yushev/git/wpcqi-optiga-trust-charge/optiga/externals/mbedtls/library\x509_crt.c ****         goto check_signature;
2035:C:/Users/Yushev/git/wpcqi-optiga-trust-charge/optiga/externals/mbedtls/library\x509_crt.c ****     }
2036:C:/Users/Yushev/git/wpcqi-optiga-trust-charge/optiga/externals/mbedtls/library\x509_crt.c **** #endif
2037:C:/Users/Yushev/git/wpcqi-optiga-trust-charge/optiga/externals/mbedtls/library\x509_crt.c **** 
2038:C:/Users/Yushev/git/wpcqi-optiga-trust-charge/optiga/externals/mbedtls/library\x509_crt.c ****     fallback_parent = NULL;
 5759              	 .loc 2 2038 0
 5760 000e 0023     	 movs r3,#0
 5761 0010 3B62     	 str r3,[r7,#32]
2039:C:/Users/Yushev/git/wpcqi-optiga-trust-charge/optiga/externals/mbedtls/library\x509_crt.c ****     fallback_signature_is_good = 0;
 5762              	 .loc 2 2039 0
 5763 0012 0023     	 movs r3,#0
 5764 0014 BB61     	 str r3,[r7,#24]
2040:C:/Users/Yushev/git/wpcqi-optiga-trust-charge/optiga/externals/mbedtls/library\x509_crt.c **** 
2041:C:/Users/Yushev/git/wpcqi-optiga-trust-charge/optiga/externals/mbedtls/library\x509_crt.c ****     for( parent = candidates; parent != NULL; parent = parent->next )
 5765              	 .loc 2 2041 0
 5766 0016 BB68     	 ldr r3,[r7,#8]
 5767 0018 7B62     	 str r3,[r7,#36]
 5768 001a 4AE0     	 b .L380
 5769              	.L389:
2042:C:/Users/Yushev/git/wpcqi-optiga-trust-charge/optiga/externals/mbedtls/library\x509_crt.c ****     {
2043:C:/Users/Yushev/git/wpcqi-optiga-trust-charge/optiga/externals/mbedtls/library\x509_crt.c ****         /* basic parenting skills (name, CA bit, key usage) */
2044:C:/Users/Yushev/git/wpcqi-optiga-trust-charge/optiga/externals/mbedtls/library\x509_crt.c ****         if( x509_crt_check_parent( child, parent, top ) != 0 )
 5770              	 .loc 2 2044 0
 5771 001c F868     	 ldr r0,[r7,#12]
 5772 001e 796A     	 ldr r1,[r7,#36]
 5773 0020 3A6B     	 ldr r2,[r7,#48]
 5774 0022 FFF7FEFF 	 bl x509_crt_check_parent
 5775 0026 0346     	 mov r3,r0
 5776 0028 002B     	 cmp r3,#0
 5777 002a 00D0     	 beq .L381
2045:C:/Users/Yushev/git/wpcqi-optiga-trust-charge/optiga/externals/mbedtls/library\x509_crt.c ****             continue;
 5778              	 .loc 2 2045 0
 5779 002c 3DE0     	 b .L382
 5780              	.L381:
2046:C:/Users/Yushev/git/wpcqi-optiga-trust-charge/optiga/externals/mbedtls/library\x509_crt.c **** 
2047:C:/Users/Yushev/git/wpcqi-optiga-trust-charge/optiga/externals/mbedtls/library\x509_crt.c ****         /* +1 because stored max_pathlen is 1 higher that the actual value */
2048:C:/Users/Yushev/git/wpcqi-optiga-trust-charge/optiga/externals/mbedtls/library\x509_crt.c ****         if( parent->max_pathlen > 0 &&
 5781              	 .loc 2 2048 0
 5782 002e 7B6A     	 ldr r3,[r7,#36]
 5783 0030 D3F80031 	 ldr r3,[r3,#256]
 5784 0034 002B     	 cmp r3,#0
 5785 0036 0ADD     	 ble .L383
2049:C:/Users/Yushev/git/wpcqi-optiga-trust-charge/optiga/externals/mbedtls/library\x509_crt.c ****             (size_t) parent->max_pathlen < 1 + path_cnt - self_cnt )
 5786              	 .loc 2 2049 0 discriminator 1
 5787 0038 7B6A     	 ldr r3,[r7,#36]
 5788 003a D3F80031 	 ldr r3,[r3,#256]
 5789 003e 1946     	 mov r1,r3
 5790 0040 7A6B     	 ldr r2,[r7,#52]
 5791 0042 BB6B     	 ldr r3,[r7,#56]
 5792 0044 D31A     	 subs r3,r2,r3
 5793 0046 0133     	 adds r3,r3,#1
2048:C:/Users/Yushev/git/wpcqi-optiga-trust-charge/optiga/externals/mbedtls/library\x509_crt.c ****             (size_t) parent->max_pathlen < 1 + path_cnt - self_cnt )
 5794              	 .loc 2 2048 0 discriminator 1
 5795 0048 9942     	 cmp r1,r3
 5796 004a 00D2     	 bcs .L383
2050:C:/Users/Yushev/git/wpcqi-optiga-trust-charge/optiga/externals/mbedtls/library\x509_crt.c ****         {
2051:C:/Users/Yushev/git/wpcqi-optiga-trust-charge/optiga/externals/mbedtls/library\x509_crt.c ****             continue;
 5797              	 .loc 2 2051 0
 5798 004c 2DE0     	 b .L382
 5799              	.L383:
2052:C:/Users/Yushev/git/wpcqi-optiga-trust-charge/optiga/externals/mbedtls/library\x509_crt.c ****         }
2053:C:/Users/Yushev/git/wpcqi-optiga-trust-charge/optiga/externals/mbedtls/library\x509_crt.c **** 
2054:C:/Users/Yushev/git/wpcqi-optiga-trust-charge/optiga/externals/mbedtls/library\x509_crt.c ****         /* Signature */
2055:C:/Users/Yushev/git/wpcqi-optiga-trust-charge/optiga/externals/mbedtls/library\x509_crt.c **** #if defined(MBEDTLS_ECDSA_C) && defined(MBEDTLS_ECP_RESTARTABLE)
2056:C:/Users/Yushev/git/wpcqi-optiga-trust-charge/optiga/externals/mbedtls/library\x509_crt.c **** check_signature:
2057:C:/Users/Yushev/git/wpcqi-optiga-trust-charge/optiga/externals/mbedtls/library\x509_crt.c **** #endif
2058:C:/Users/Yushev/git/wpcqi-optiga-trust-charge/optiga/externals/mbedtls/library\x509_crt.c ****         ret = x509_crt_check_signature( child, parent, rs_ctx );
 5800              	 .loc 2 2058 0
 5801 004e F868     	 ldr r0,[r7,#12]
 5802 0050 796A     	 ldr r1,[r7,#36]
 5803 0052 FA6B     	 ldr r2,[r7,#60]
 5804 0054 FFF7FEFF 	 bl x509_crt_check_signature
 5805 0058 7861     	 str r0,[r7,#20]
2059:C:/Users/Yushev/git/wpcqi-optiga-trust-charge/optiga/externals/mbedtls/library\x509_crt.c **** 
2060:C:/Users/Yushev/git/wpcqi-optiga-trust-charge/optiga/externals/mbedtls/library\x509_crt.c **** #if defined(MBEDTLS_ECDSA_C) && defined(MBEDTLS_ECP_RESTARTABLE)
2061:C:/Users/Yushev/git/wpcqi-optiga-trust-charge/optiga/externals/mbedtls/library\x509_crt.c ****         if( rs_ctx != NULL && ret == MBEDTLS_ERR_ECP_IN_PROGRESS )
2062:C:/Users/Yushev/git/wpcqi-optiga-trust-charge/optiga/externals/mbedtls/library\x509_crt.c ****         {
2063:C:/Users/Yushev/git/wpcqi-optiga-trust-charge/optiga/externals/mbedtls/library\x509_crt.c ****             /* save state */
2064:C:/Users/Yushev/git/wpcqi-optiga-trust-charge/optiga/externals/mbedtls/library\x509_crt.c ****             rs_ctx->parent = parent;
2065:C:/Users/Yushev/git/wpcqi-optiga-trust-charge/optiga/externals/mbedtls/library\x509_crt.c ****             rs_ctx->fallback_parent = fallback_parent;
2066:C:/Users/Yushev/git/wpcqi-optiga-trust-charge/optiga/externals/mbedtls/library\x509_crt.c ****             rs_ctx->fallback_signature_is_good = fallback_signature_is_good;
2067:C:/Users/Yushev/git/wpcqi-optiga-trust-charge/optiga/externals/mbedtls/library\x509_crt.c **** 
2068:C:/Users/Yushev/git/wpcqi-optiga-trust-charge/optiga/externals/mbedtls/library\x509_crt.c ****             return( ret );
2069:C:/Users/Yushev/git/wpcqi-optiga-trust-charge/optiga/externals/mbedtls/library\x509_crt.c ****         }
2070:C:/Users/Yushev/git/wpcqi-optiga-trust-charge/optiga/externals/mbedtls/library\x509_crt.c **** #else
2071:C:/Users/Yushev/git/wpcqi-optiga-trust-charge/optiga/externals/mbedtls/library\x509_crt.c ****         (void) ret;
2072:C:/Users/Yushev/git/wpcqi-optiga-trust-charge/optiga/externals/mbedtls/library\x509_crt.c **** #endif
2073:C:/Users/Yushev/git/wpcqi-optiga-trust-charge/optiga/externals/mbedtls/library\x509_crt.c **** 
2074:C:/Users/Yushev/git/wpcqi-optiga-trust-charge/optiga/externals/mbedtls/library\x509_crt.c ****         signature_is_good = ret == 0;
 5806              	 .loc 2 2074 0
 5807 005a 7B69     	 ldr r3,[r7,#20]
 5808 005c 002B     	 cmp r3,#0
 5809 005e 0CBF     	 ite eq
 5810 0060 0123     	 moveq r3,#1
 5811 0062 0023     	 movne r3,#0
 5812 0064 DBB2     	 uxtb r3,r3
 5813 0066 FB61     	 str r3,[r7,#28]
2075:C:/Users/Yushev/git/wpcqi-optiga-trust-charge/optiga/externals/mbedtls/library\x509_crt.c ****         if( top && ! signature_is_good )
 5814              	 .loc 2 2075 0
 5815 0068 3B6B     	 ldr r3,[r7,#48]
 5816 006a 002B     	 cmp r3,#0
 5817 006c 03D0     	 beq .L384
 5818              	 .loc 2 2075 0 is_stmt 0 discriminator 1
 5819 006e FB69     	 ldr r3,[r7,#28]
 5820 0070 002B     	 cmp r3,#0
 5821 0072 00D1     	 bne .L384
2076:C:/Users/Yushev/git/wpcqi-optiga-trust-charge/optiga/externals/mbedtls/library\x509_crt.c ****             continue;
 5822              	 .loc 2 2076 0 is_stmt 1
 5823 0074 19E0     	 b .L382
 5824              	.L384:
2077:C:/Users/Yushev/git/wpcqi-optiga-trust-charge/optiga/externals/mbedtls/library\x509_crt.c **** 
2078:C:/Users/Yushev/git/wpcqi-optiga-trust-charge/optiga/externals/mbedtls/library\x509_crt.c ****         /* optional time check */
2079:C:/Users/Yushev/git/wpcqi-optiga-trust-charge/optiga/externals/mbedtls/library\x509_crt.c ****         if( mbedtls_x509_time_is_past( &parent->valid_to ) ||
 5825              	 .loc 2 2079 0
 5826 0076 7B6A     	 ldr r3,[r7,#36]
 5827 0078 A433     	 adds r3,r3,#164
 5828 007a 1846     	 mov r0,r3
 5829 007c FFF7FEFF 	 bl mbedtls_x509_time_is_past
 5830 0080 0346     	 mov r3,r0
 5831 0082 002B     	 cmp r3,#0
 5832 0084 07D1     	 bne .L385
2080:C:/Users/Yushev/git/wpcqi-optiga-trust-charge/optiga/externals/mbedtls/library\x509_crt.c ****             mbedtls_x509_time_is_future( &parent->valid_from ) )
 5833              	 .loc 2 2080 0 discriminator 1
 5834 0086 7B6A     	 ldr r3,[r7,#36]
 5835 0088 8C33     	 adds r3,r3,#140
 5836 008a 1846     	 mov r0,r3
 5837 008c FFF7FEFF 	 bl mbedtls_x509_time_is_future
 5838 0090 0346     	 mov r3,r0
2079:C:/Users/Yushev/git/wpcqi-optiga-trust-charge/optiga/externals/mbedtls/library\x509_crt.c ****             mbedtls_x509_time_is_future( &parent->valid_from ) )
 5839              	 .loc 2 2079 0 discriminator 1
 5840 0092 002B     	 cmp r3,#0
 5841 0094 08D0     	 beq .L386
 5842              	.L385:
2081:C:/Users/Yushev/git/wpcqi-optiga-trust-charge/optiga/externals/mbedtls/library\x509_crt.c ****         {
2082:C:/Users/Yushev/git/wpcqi-optiga-trust-charge/optiga/externals/mbedtls/library\x509_crt.c ****             if( fallback_parent == NULL )
 5843              	 .loc 2 2082 0
 5844 0096 3B6A     	 ldr r3,[r7,#32]
 5845 0098 002B     	 cmp r3,#0
 5846 009a 04D1     	 bne .L387
2083:C:/Users/Yushev/git/wpcqi-optiga-trust-charge/optiga/externals/mbedtls/library\x509_crt.c ****             {
2084:C:/Users/Yushev/git/wpcqi-optiga-trust-charge/optiga/externals/mbedtls/library\x509_crt.c ****                 fallback_parent = parent;
 5847              	 .loc 2 2084 0
 5848 009c 7B6A     	 ldr r3,[r7,#36]
 5849 009e 3B62     	 str r3,[r7,#32]
2085:C:/Users/Yushev/git/wpcqi-optiga-trust-charge/optiga/externals/mbedtls/library\x509_crt.c ****                 fallback_signature_is_good = signature_is_good;
 5850              	 .loc 2 2085 0
 5851 00a0 FB69     	 ldr r3,[r7,#28]
 5852 00a2 BB61     	 str r3,[r7,#24]
2086:C:/Users/Yushev/git/wpcqi-optiga-trust-charge/optiga/externals/mbedtls/library\x509_crt.c ****             }
2087:C:/Users/Yushev/git/wpcqi-optiga-trust-charge/optiga/externals/mbedtls/library\x509_crt.c **** 
2088:C:/Users/Yushev/git/wpcqi-optiga-trust-charge/optiga/externals/mbedtls/library\x509_crt.c ****             continue;
 5853              	 .loc 2 2088 0
 5854 00a4 01E0     	 b .L382
 5855              	.L387:
 5856 00a6 00E0     	 b .L382
 5857              	.L386:
2089:C:/Users/Yushev/git/wpcqi-optiga-trust-charge/optiga/externals/mbedtls/library\x509_crt.c ****         }
2090:C:/Users/Yushev/git/wpcqi-optiga-trust-charge/optiga/externals/mbedtls/library\x509_crt.c **** 
2091:C:/Users/Yushev/git/wpcqi-optiga-trust-charge/optiga/externals/mbedtls/library\x509_crt.c ****         break;
 5858              	 .loc 2 2091 0
 5859 00a8 06E0     	 b .L388
 5860              	.L382:
2041:C:/Users/Yushev/git/wpcqi-optiga-trust-charge/optiga/externals/mbedtls/library\x509_crt.c ****     {
 5861              	 .loc 2 2041 0 discriminator 2
 5862 00aa 7B6A     	 ldr r3,[r7,#36]
 5863 00ac D3F83031 	 ldr r3,[r3,#304]
 5864 00b0 7B62     	 str r3,[r7,#36]
 5865              	.L380:
2041:C:/Users/Yushev/git/wpcqi-optiga-trust-charge/optiga/externals/mbedtls/library\x509_crt.c ****     {
 5866              	 .loc 2 2041 0 is_stmt 0 discriminator 1
 5867 00b2 7B6A     	 ldr r3,[r7,#36]
 5868 00b4 002B     	 cmp r3,#0
 5869 00b6 B1D1     	 bne .L389
 5870              	.L388:
2092:C:/Users/Yushev/git/wpcqi-optiga-trust-charge/optiga/externals/mbedtls/library\x509_crt.c ****     }
2093:C:/Users/Yushev/git/wpcqi-optiga-trust-charge/optiga/externals/mbedtls/library\x509_crt.c **** 
2094:C:/Users/Yushev/git/wpcqi-optiga-trust-charge/optiga/externals/mbedtls/library\x509_crt.c ****     if( parent != NULL )
 5871              	 .loc 2 2094 0 is_stmt 1
 5872 00b8 7B6A     	 ldr r3,[r7,#36]
 5873 00ba 002B     	 cmp r3,#0
 5874 00bc 06D0     	 beq .L390
2095:C:/Users/Yushev/git/wpcqi-optiga-trust-charge/optiga/externals/mbedtls/library\x509_crt.c ****     {
2096:C:/Users/Yushev/git/wpcqi-optiga-trust-charge/optiga/externals/mbedtls/library\x509_crt.c ****         *r_parent = parent;
 5875              	 .loc 2 2096 0
 5876 00be 7B68     	 ldr r3,[r7,#4]
 5877 00c0 7A6A     	 ldr r2,[r7,#36]
 5878 00c2 1A60     	 str r2,[r3]
2097:C:/Users/Yushev/git/wpcqi-optiga-trust-charge/optiga/externals/mbedtls/library\x509_crt.c ****         *r_signature_is_good = signature_is_good;
 5879              	 .loc 2 2097 0
 5880 00c4 3B68     	 ldr r3,[r7]
 5881 00c6 FA69     	 ldr r2,[r7,#28]
 5882 00c8 1A60     	 str r2,[r3]
 5883 00ca 05E0     	 b .L391
 5884              	.L390:
2098:C:/Users/Yushev/git/wpcqi-optiga-trust-charge/optiga/externals/mbedtls/library\x509_crt.c ****     }
2099:C:/Users/Yushev/git/wpcqi-optiga-trust-charge/optiga/externals/mbedtls/library\x509_crt.c ****     else
2100:C:/Users/Yushev/git/wpcqi-optiga-trust-charge/optiga/externals/mbedtls/library\x509_crt.c ****     {
2101:C:/Users/Yushev/git/wpcqi-optiga-trust-charge/optiga/externals/mbedtls/library\x509_crt.c ****         *r_parent = fallback_parent;
 5885              	 .loc 2 2101 0
 5886 00cc 7B68     	 ldr r3,[r7,#4]
 5887 00ce 3A6A     	 ldr r2,[r7,#32]
 5888 00d0 1A60     	 str r2,[r3]
2102:C:/Users/Yushev/git/wpcqi-optiga-trust-charge/optiga/externals/mbedtls/library\x509_crt.c ****         *r_signature_is_good = fallback_signature_is_good;
 5889              	 .loc 2 2102 0
 5890 00d2 3B68     	 ldr r3,[r7]
 5891 00d4 BA69     	 ldr r2,[r7,#24]
 5892 00d6 1A60     	 str r2,[r3]
 5893              	.L391:
2103:C:/Users/Yushev/git/wpcqi-optiga-trust-charge/optiga/externals/mbedtls/library\x509_crt.c ****     }
2104:C:/Users/Yushev/git/wpcqi-optiga-trust-charge/optiga/externals/mbedtls/library\x509_crt.c **** 
2105:C:/Users/Yushev/git/wpcqi-optiga-trust-charge/optiga/externals/mbedtls/library\x509_crt.c ****     return( 0 );
 5894              	 .loc 2 2105 0
 5895 00d8 0023     	 movs r3,#0
2106:C:/Users/Yushev/git/wpcqi-optiga-trust-charge/optiga/externals/mbedtls/library\x509_crt.c **** }
 5896              	 .loc 2 2106 0
 5897 00da 1846     	 mov r0,r3
 5898 00dc 2837     	 adds r7,r7,#40
 5899              	.LCFI154:
 5900              	 .cfi_def_cfa_offset 8
 5901 00de BD46     	 mov sp,r7
 5902              	.LCFI155:
 5903              	 .cfi_def_cfa_register 13
 5904              	 
 5905 00e0 80BD     	 pop {r7,pc}
 5906              	 .cfi_endproc
 5907              	.LFE37:
 5909 00e2 00BF     	 .section .text.x509_crt_find_parent,"ax",%progbits
 5910              	 .align 2
 5911              	 .thumb
 5912              	 .thumb_func
 5914              	x509_crt_find_parent:
 5915              	.LFB38:
2107:C:/Users/Yushev/git/wpcqi-optiga-trust-charge/optiga/externals/mbedtls/library\x509_crt.c **** 
2108:C:/Users/Yushev/git/wpcqi-optiga-trust-charge/optiga/externals/mbedtls/library\x509_crt.c **** /*
2109:C:/Users/Yushev/git/wpcqi-optiga-trust-charge/optiga/externals/mbedtls/library\x509_crt.c ****  * Find a parent in trusted CAs or the provided chain, or return NULL.
2110:C:/Users/Yushev/git/wpcqi-optiga-trust-charge/optiga/externals/mbedtls/library\x509_crt.c ****  *
2111:C:/Users/Yushev/git/wpcqi-optiga-trust-charge/optiga/externals/mbedtls/library\x509_crt.c ****  * Searches in trusted CAs first, and return the first suitable parent found
2112:C:/Users/Yushev/git/wpcqi-optiga-trust-charge/optiga/externals/mbedtls/library\x509_crt.c ****  * (see find_parent_in() for definition of suitable).
2113:C:/Users/Yushev/git/wpcqi-optiga-trust-charge/optiga/externals/mbedtls/library\x509_crt.c ****  *
2114:C:/Users/Yushev/git/wpcqi-optiga-trust-charge/optiga/externals/mbedtls/library\x509_crt.c ****  * Arguments:
2115:C:/Users/Yushev/git/wpcqi-optiga-trust-charge/optiga/externals/mbedtls/library\x509_crt.c ****  *  - [in] child: certificate for which we're looking for a parent, followed
2116:C:/Users/Yushev/git/wpcqi-optiga-trust-charge/optiga/externals/mbedtls/library\x509_crt.c ****  *         by a chain of possible intermediates
2117:C:/Users/Yushev/git/wpcqi-optiga-trust-charge/optiga/externals/mbedtls/library\x509_crt.c ****  *  - [in] trust_ca: list of locally trusted certificates
2118:C:/Users/Yushev/git/wpcqi-optiga-trust-charge/optiga/externals/mbedtls/library\x509_crt.c ****  *  - [out] parent: parent found (or NULL)
2119:C:/Users/Yushev/git/wpcqi-optiga-trust-charge/optiga/externals/mbedtls/library\x509_crt.c ****  *  - [out] parent_is_trusted: 1 if returned `parent` is trusted, or 0
2120:C:/Users/Yushev/git/wpcqi-optiga-trust-charge/optiga/externals/mbedtls/library\x509_crt.c ****  *  - [out] signature_is_good: 1 if child signature by parent is valid, or 0
2121:C:/Users/Yushev/git/wpcqi-optiga-trust-charge/optiga/externals/mbedtls/library\x509_crt.c ****  *  - [in] path_cnt: number of links in the chain so far (EE -> ... -> child)
2122:C:/Users/Yushev/git/wpcqi-optiga-trust-charge/optiga/externals/mbedtls/library\x509_crt.c ****  *  - [in] self_cnt: number of self-signed certs in the chain so far
2123:C:/Users/Yushev/git/wpcqi-optiga-trust-charge/optiga/externals/mbedtls/library\x509_crt.c ****  *         (will always be no greater than path_cnt)
2124:C:/Users/Yushev/git/wpcqi-optiga-trust-charge/optiga/externals/mbedtls/library\x509_crt.c ****  *  - [in-out] rs_ctx: context for restarting operations
2125:C:/Users/Yushev/git/wpcqi-optiga-trust-charge/optiga/externals/mbedtls/library\x509_crt.c ****  *
2126:C:/Users/Yushev/git/wpcqi-optiga-trust-charge/optiga/externals/mbedtls/library\x509_crt.c ****  * Return value:
2127:C:/Users/Yushev/git/wpcqi-optiga-trust-charge/optiga/externals/mbedtls/library\x509_crt.c ****  *  - 0 on success
2128:C:/Users/Yushev/git/wpcqi-optiga-trust-charge/optiga/externals/mbedtls/library\x509_crt.c ****  *  - MBEDTLS_ERR_ECP_IN_PROGRESS otherwise
2129:C:/Users/Yushev/git/wpcqi-optiga-trust-charge/optiga/externals/mbedtls/library\x509_crt.c ****  */
2130:C:/Users/Yushev/git/wpcqi-optiga-trust-charge/optiga/externals/mbedtls/library\x509_crt.c **** static int x509_crt_find_parent(
2131:C:/Users/Yushev/git/wpcqi-optiga-trust-charge/optiga/externals/mbedtls/library\x509_crt.c ****                         mbedtls_x509_crt *child,
2132:C:/Users/Yushev/git/wpcqi-optiga-trust-charge/optiga/externals/mbedtls/library\x509_crt.c ****                         mbedtls_x509_crt *trust_ca,
2133:C:/Users/Yushev/git/wpcqi-optiga-trust-charge/optiga/externals/mbedtls/library\x509_crt.c ****                         mbedtls_x509_crt **parent,
2134:C:/Users/Yushev/git/wpcqi-optiga-trust-charge/optiga/externals/mbedtls/library\x509_crt.c ****                         int *parent_is_trusted,
2135:C:/Users/Yushev/git/wpcqi-optiga-trust-charge/optiga/externals/mbedtls/library\x509_crt.c ****                         int *signature_is_good,
2136:C:/Users/Yushev/git/wpcqi-optiga-trust-charge/optiga/externals/mbedtls/library\x509_crt.c ****                         unsigned path_cnt,
2137:C:/Users/Yushev/git/wpcqi-optiga-trust-charge/optiga/externals/mbedtls/library\x509_crt.c ****                         unsigned self_cnt,
2138:C:/Users/Yushev/git/wpcqi-optiga-trust-charge/optiga/externals/mbedtls/library\x509_crt.c ****                         mbedtls_x509_crt_restart_ctx *rs_ctx )
2139:C:/Users/Yushev/git/wpcqi-optiga-trust-charge/optiga/externals/mbedtls/library\x509_crt.c **** {
 5916              	 .loc 2 2139 0
 5917              	 .cfi_startproc
 5918              	 
 5919              	 
 5920 0000 80B5     	 push {r7,lr}
 5921              	.LCFI156:
 5922              	 .cfi_def_cfa_offset 8
 5923              	 .cfi_offset 7,-8
 5924              	 .cfi_offset 14,-4
 5925 0002 8AB0     	 sub sp,sp,#40
 5926              	.LCFI157:
 5927              	 .cfi_def_cfa_offset 48
 5928 0004 04AF     	 add r7,sp,#16
 5929              	.LCFI158:
 5930              	 .cfi_def_cfa 7,32
 5931 0006 F860     	 str r0,[r7,#12]
 5932 0008 B960     	 str r1,[r7,#8]
 5933 000a 7A60     	 str r2,[r7,#4]
 5934 000c 3B60     	 str r3,[r7]
2140:C:/Users/Yushev/git/wpcqi-optiga-trust-charge/optiga/externals/mbedtls/library\x509_crt.c ****     int ret;
2141:C:/Users/Yushev/git/wpcqi-optiga-trust-charge/optiga/externals/mbedtls/library\x509_crt.c ****     mbedtls_x509_crt *search_list;
2142:C:/Users/Yushev/git/wpcqi-optiga-trust-charge/optiga/externals/mbedtls/library\x509_crt.c **** 
2143:C:/Users/Yushev/git/wpcqi-optiga-trust-charge/optiga/externals/mbedtls/library\x509_crt.c ****     *parent_is_trusted = 1;
 5935              	 .loc 2 2143 0
 5936 000e 3B68     	 ldr r3,[r7]
 5937 0010 0122     	 movs r2,#1
 5938 0012 1A60     	 str r2,[r3]
 5939              	.L397:
2144:C:/Users/Yushev/git/wpcqi-optiga-trust-charge/optiga/externals/mbedtls/library\x509_crt.c **** 
2145:C:/Users/Yushev/git/wpcqi-optiga-trust-charge/optiga/externals/mbedtls/library\x509_crt.c **** #if defined(MBEDTLS_ECDSA_C) && defined(MBEDTLS_ECP_RESTARTABLE)
2146:C:/Users/Yushev/git/wpcqi-optiga-trust-charge/optiga/externals/mbedtls/library\x509_crt.c ****     /* restore then clear saved state if we have some stored */
2147:C:/Users/Yushev/git/wpcqi-optiga-trust-charge/optiga/externals/mbedtls/library\x509_crt.c ****     if( rs_ctx != NULL && rs_ctx->parent_is_trusted != -1 )
2148:C:/Users/Yushev/git/wpcqi-optiga-trust-charge/optiga/externals/mbedtls/library\x509_crt.c ****     {
2149:C:/Users/Yushev/git/wpcqi-optiga-trust-charge/optiga/externals/mbedtls/library\x509_crt.c ****         *parent_is_trusted = rs_ctx->parent_is_trusted;
2150:C:/Users/Yushev/git/wpcqi-optiga-trust-charge/optiga/externals/mbedtls/library\x509_crt.c ****         rs_ctx->parent_is_trusted = -1;
2151:C:/Users/Yushev/git/wpcqi-optiga-trust-charge/optiga/externals/mbedtls/library\x509_crt.c ****     }
2152:C:/Users/Yushev/git/wpcqi-optiga-trust-charge/optiga/externals/mbedtls/library\x509_crt.c **** #endif
2153:C:/Users/Yushev/git/wpcqi-optiga-trust-charge/optiga/externals/mbedtls/library\x509_crt.c **** 
2154:C:/Users/Yushev/git/wpcqi-optiga-trust-charge/optiga/externals/mbedtls/library\x509_crt.c ****     while( 1 ) {
2155:C:/Users/Yushev/git/wpcqi-optiga-trust-charge/optiga/externals/mbedtls/library\x509_crt.c ****         search_list = *parent_is_trusted ? trust_ca : child->next;
 5940              	 .loc 2 2155 0
 5941 0014 3B68     	 ldr r3,[r7]
 5942 0016 1B68     	 ldr r3,[r3]
 5943 0018 002B     	 cmp r3,#0
 5944 001a 03D1     	 bne .L394
 5945              	 .loc 2 2155 0 is_stmt 0 discriminator 1
 5946 001c FB68     	 ldr r3,[r7,#12]
 5947 001e D3F83031 	 ldr r3,[r3,#304]
 5948 0022 00E0     	 b .L395
 5949              	.L394:
 5950              	 .loc 2 2155 0 discriminator 2
 5951 0024 BB68     	 ldr r3,[r7,#8]
 5952              	.L395:
 5953              	 .loc 2 2155 0 discriminator 4
 5954 0026 7B61     	 str r3,[r7,#20]
2156:C:/Users/Yushev/git/wpcqi-optiga-trust-charge/optiga/externals/mbedtls/library\x509_crt.c **** 
2157:C:/Users/Yushev/git/wpcqi-optiga-trust-charge/optiga/externals/mbedtls/library\x509_crt.c ****         ret = x509_crt_find_parent_in( child, search_list,
 5955              	 .loc 2 2157 0 is_stmt 1 discriminator 4
 5956 0028 3B68     	 ldr r3,[r7]
 5957 002a 1B68     	 ldr r3,[r3]
 5958 002c 0093     	 str r3,[sp]
 5959 002e 7B6A     	 ldr r3,[r7,#36]
 5960 0030 0193     	 str r3,[sp,#4]
 5961 0032 BB6A     	 ldr r3,[r7,#40]
 5962 0034 0293     	 str r3,[sp,#8]
 5963 0036 FB6A     	 ldr r3,[r7,#44]
 5964 0038 0393     	 str r3,[sp,#12]
 5965 003a F868     	 ldr r0,[r7,#12]
 5966 003c 7969     	 ldr r1,[r7,#20]
 5967 003e 7A68     	 ldr r2,[r7,#4]
 5968 0040 3B6A     	 ldr r3,[r7,#32]
 5969 0042 FFF7FEFF 	 bl x509_crt_find_parent_in
 5970 0046 3861     	 str r0,[r7,#16]
2158:C:/Users/Yushev/git/wpcqi-optiga-trust-charge/optiga/externals/mbedtls/library\x509_crt.c ****                                        parent, signature_is_good,
2159:C:/Users/Yushev/git/wpcqi-optiga-trust-charge/optiga/externals/mbedtls/library\x509_crt.c ****                                        *parent_is_trusted,
2160:C:/Users/Yushev/git/wpcqi-optiga-trust-charge/optiga/externals/mbedtls/library\x509_crt.c ****                                        path_cnt, self_cnt, rs_ctx );
2161:C:/Users/Yushev/git/wpcqi-optiga-trust-charge/optiga/externals/mbedtls/library\x509_crt.c **** 
2162:C:/Users/Yushev/git/wpcqi-optiga-trust-charge/optiga/externals/mbedtls/library\x509_crt.c **** #if defined(MBEDTLS_ECDSA_C) && defined(MBEDTLS_ECP_RESTARTABLE)
2163:C:/Users/Yushev/git/wpcqi-optiga-trust-charge/optiga/externals/mbedtls/library\x509_crt.c ****         if( rs_ctx != NULL && ret == MBEDTLS_ERR_ECP_IN_PROGRESS )
2164:C:/Users/Yushev/git/wpcqi-optiga-trust-charge/optiga/externals/mbedtls/library\x509_crt.c ****         {
2165:C:/Users/Yushev/git/wpcqi-optiga-trust-charge/optiga/externals/mbedtls/library\x509_crt.c ****             /* save state */
2166:C:/Users/Yushev/git/wpcqi-optiga-trust-charge/optiga/externals/mbedtls/library\x509_crt.c ****             rs_ctx->parent_is_trusted = *parent_is_trusted;
2167:C:/Users/Yushev/git/wpcqi-optiga-trust-charge/optiga/externals/mbedtls/library\x509_crt.c ****             return( ret );
2168:C:/Users/Yushev/git/wpcqi-optiga-trust-charge/optiga/externals/mbedtls/library\x509_crt.c ****         }
2169:C:/Users/Yushev/git/wpcqi-optiga-trust-charge/optiga/externals/mbedtls/library\x509_crt.c **** #else
2170:C:/Users/Yushev/git/wpcqi-optiga-trust-charge/optiga/externals/mbedtls/library\x509_crt.c ****         (void) ret;
2171:C:/Users/Yushev/git/wpcqi-optiga-trust-charge/optiga/externals/mbedtls/library\x509_crt.c **** #endif
2172:C:/Users/Yushev/git/wpcqi-optiga-trust-charge/optiga/externals/mbedtls/library\x509_crt.c **** 
2173:C:/Users/Yushev/git/wpcqi-optiga-trust-charge/optiga/externals/mbedtls/library\x509_crt.c ****         /* stop here if found or already in second iteration */
2174:C:/Users/Yushev/git/wpcqi-optiga-trust-charge/optiga/externals/mbedtls/library\x509_crt.c ****         if( *parent != NULL || *parent_is_trusted == 0 )
 5971              	 .loc 2 2174 0 discriminator 4
 5972 0048 7B68     	 ldr r3,[r7,#4]
 5973 004a 1B68     	 ldr r3,[r3]
 5974 004c 002B     	 cmp r3,#0
 5975 004e 07D1     	 bne .L396
 5976              	 .loc 2 2174 0 is_stmt 0 discriminator 1
 5977 0050 3B68     	 ldr r3,[r7]
 5978 0052 1B68     	 ldr r3,[r3]
 5979 0054 002B     	 cmp r3,#0
 5980 0056 03D0     	 beq .L396
2175:C:/Users/Yushev/git/wpcqi-optiga-trust-charge/optiga/externals/mbedtls/library\x509_crt.c ****             break;
2176:C:/Users/Yushev/git/wpcqi-optiga-trust-charge/optiga/externals/mbedtls/library\x509_crt.c **** 
2177:C:/Users/Yushev/git/wpcqi-optiga-trust-charge/optiga/externals/mbedtls/library\x509_crt.c ****         /* prepare second iteration */
2178:C:/Users/Yushev/git/wpcqi-optiga-trust-charge/optiga/externals/mbedtls/library\x509_crt.c ****         *parent_is_trusted = 0;
 5981              	 .loc 2 2178 0 is_stmt 1
 5982 0058 3B68     	 ldr r3,[r7]
 5983 005a 0022     	 movs r2,#0
 5984 005c 1A60     	 str r2,[r3]
2179:C:/Users/Yushev/git/wpcqi-optiga-trust-charge/optiga/externals/mbedtls/library\x509_crt.c ****     }
 5985              	 .loc 2 2179 0
 5986 005e D9E7     	 b .L397
 5987              	.L396:
2180:C:/Users/Yushev/git/wpcqi-optiga-trust-charge/optiga/externals/mbedtls/library\x509_crt.c **** 
2181:C:/Users/Yushev/git/wpcqi-optiga-trust-charge/optiga/externals/mbedtls/library\x509_crt.c ****     /* extra precaution against mistakes in the caller */
2182:C:/Users/Yushev/git/wpcqi-optiga-trust-charge/optiga/externals/mbedtls/library\x509_crt.c ****     if( *parent == NULL )
 5988              	 .loc 2 2182 0
 5989 0060 7B68     	 ldr r3,[r7,#4]
 5990 0062 1B68     	 ldr r3,[r3]
 5991 0064 002B     	 cmp r3,#0
 5992 0066 05D1     	 bne .L398
2183:C:/Users/Yushev/git/wpcqi-optiga-trust-charge/optiga/externals/mbedtls/library\x509_crt.c ****     {
2184:C:/Users/Yushev/git/wpcqi-optiga-trust-charge/optiga/externals/mbedtls/library\x509_crt.c ****         *parent_is_trusted = 0;
 5993              	 .loc 2 2184 0
 5994 0068 3B68     	 ldr r3,[r7]
 5995 006a 0022     	 movs r2,#0
 5996 006c 1A60     	 str r2,[r3]
2185:C:/Users/Yushev/git/wpcqi-optiga-trust-charge/optiga/externals/mbedtls/library\x509_crt.c ****         *signature_is_good = 0;
 5997              	 .loc 2 2185 0
 5998 006e 3B6A     	 ldr r3,[r7,#32]
 5999 0070 0022     	 movs r2,#0
 6000 0072 1A60     	 str r2,[r3]
 6001              	.L398:
2186:C:/Users/Yushev/git/wpcqi-optiga-trust-charge/optiga/externals/mbedtls/library\x509_crt.c ****     }
2187:C:/Users/Yushev/git/wpcqi-optiga-trust-charge/optiga/externals/mbedtls/library\x509_crt.c **** 
2188:C:/Users/Yushev/git/wpcqi-optiga-trust-charge/optiga/externals/mbedtls/library\x509_crt.c ****     return( 0 );
 6002              	 .loc 2 2188 0
 6003 0074 0023     	 movs r3,#0
2189:C:/Users/Yushev/git/wpcqi-optiga-trust-charge/optiga/externals/mbedtls/library\x509_crt.c **** }
 6004              	 .loc 2 2189 0
 6005 0076 1846     	 mov r0,r3
 6006 0078 1837     	 adds r7,r7,#24
 6007              	.LCFI159:
 6008              	 .cfi_def_cfa_offset 8
 6009 007a BD46     	 mov sp,r7
 6010              	.LCFI160:
 6011              	 .cfi_def_cfa_register 13
 6012              	 
 6013 007c 80BD     	 pop {r7,pc}
 6014              	 .cfi_endproc
 6015              	.LFE38:
 6017 007e 00BF     	 .section .text.x509_crt_check_ee_locally_trusted,"ax",%progbits
 6018              	 .align 2
 6019              	 .thumb
 6020              	 .thumb_func
 6022              	x509_crt_check_ee_locally_trusted:
 6023              	.LFB39:
2190:C:/Users/Yushev/git/wpcqi-optiga-trust-charge/optiga/externals/mbedtls/library\x509_crt.c **** 
2191:C:/Users/Yushev/git/wpcqi-optiga-trust-charge/optiga/externals/mbedtls/library\x509_crt.c **** /*
2192:C:/Users/Yushev/git/wpcqi-optiga-trust-charge/optiga/externals/mbedtls/library\x509_crt.c ****  * Check if an end-entity certificate is locally trusted
2193:C:/Users/Yushev/git/wpcqi-optiga-trust-charge/optiga/externals/mbedtls/library\x509_crt.c ****  *
2194:C:/Users/Yushev/git/wpcqi-optiga-trust-charge/optiga/externals/mbedtls/library\x509_crt.c ****  * Currently we require such certificates to be self-signed (actually only
2195:C:/Users/Yushev/git/wpcqi-optiga-trust-charge/optiga/externals/mbedtls/library\x509_crt.c ****  * check for self-issued as self-signatures are not checked)
2196:C:/Users/Yushev/git/wpcqi-optiga-trust-charge/optiga/externals/mbedtls/library\x509_crt.c ****  */
2197:C:/Users/Yushev/git/wpcqi-optiga-trust-charge/optiga/externals/mbedtls/library\x509_crt.c **** static int x509_crt_check_ee_locally_trusted(
2198:C:/Users/Yushev/git/wpcqi-optiga-trust-charge/optiga/externals/mbedtls/library\x509_crt.c ****                     mbedtls_x509_crt *crt,
2199:C:/Users/Yushev/git/wpcqi-optiga-trust-charge/optiga/externals/mbedtls/library\x509_crt.c ****                     mbedtls_x509_crt *trust_ca )
2200:C:/Users/Yushev/git/wpcqi-optiga-trust-charge/optiga/externals/mbedtls/library\x509_crt.c **** {
 6024              	 .loc 2 2200 0
 6025              	 .cfi_startproc
 6026              	 
 6027              	 
 6028 0000 80B5     	 push {r7,lr}
 6029              	.LCFI161:
 6030              	 .cfi_def_cfa_offset 8
 6031              	 .cfi_offset 7,-8
 6032              	 .cfi_offset 14,-4
 6033 0002 84B0     	 sub sp,sp,#16
 6034              	.LCFI162:
 6035              	 .cfi_def_cfa_offset 24
 6036 0004 00AF     	 add r7,sp,#0
 6037              	.LCFI163:
 6038              	 .cfi_def_cfa_register 7
 6039 0006 7860     	 str r0,[r7,#4]
 6040 0008 3960     	 str r1,[r7]
2201:C:/Users/Yushev/git/wpcqi-optiga-trust-charge/optiga/externals/mbedtls/library\x509_crt.c ****     mbedtls_x509_crt *cur;
2202:C:/Users/Yushev/git/wpcqi-optiga-trust-charge/optiga/externals/mbedtls/library\x509_crt.c **** 
2203:C:/Users/Yushev/git/wpcqi-optiga-trust-charge/optiga/externals/mbedtls/library\x509_crt.c ****     /* must be self-issued */
2204:C:/Users/Yushev/git/wpcqi-optiga-trust-charge/optiga/externals/mbedtls/library\x509_crt.c ****     if( x509_name_cmp( &crt->issuer, &crt->subject ) != 0 )
 6041              	 .loc 2 2204 0
 6042 000a 7B68     	 ldr r3,[r7,#4]
 6043 000c 03F14C02 	 add r2,r3,#76
 6044 0010 7B68     	 ldr r3,[r7,#4]
 6045 0012 6C33     	 adds r3,r3,#108
 6046 0014 1046     	 mov r0,r2
 6047 0016 1946     	 mov r1,r3
 6048 0018 FFF7FEFF 	 bl x509_name_cmp
 6049 001c 0346     	 mov r3,r0
 6050 001e 002B     	 cmp r3,#0
 6051 0020 02D0     	 beq .L401
2205:C:/Users/Yushev/git/wpcqi-optiga-trust-charge/optiga/externals/mbedtls/library\x509_crt.c ****         return( -1 );
 6052              	 .loc 2 2205 0
 6053 0022 4FF0FF33 	 mov r3,#-1
 6054 0026 21E0     	 b .L402
 6055              	.L401:
2206:C:/Users/Yushev/git/wpcqi-optiga-trust-charge/optiga/externals/mbedtls/library\x509_crt.c **** 
2207:C:/Users/Yushev/git/wpcqi-optiga-trust-charge/optiga/externals/mbedtls/library\x509_crt.c ****     /* look for an exact match with trusted cert */
2208:C:/Users/Yushev/git/wpcqi-optiga-trust-charge/optiga/externals/mbedtls/library\x509_crt.c ****     for( cur = trust_ca; cur != NULL; cur = cur->next )
 6056              	 .loc 2 2208 0
 6057 0028 3B68     	 ldr r3,[r7]
 6058 002a FB60     	 str r3,[r7,#12]
 6059 002c 19E0     	 b .L403
 6060              	.L405:
2209:C:/Users/Yushev/git/wpcqi-optiga-trust-charge/optiga/externals/mbedtls/library\x509_crt.c ****     {
2210:C:/Users/Yushev/git/wpcqi-optiga-trust-charge/optiga/externals/mbedtls/library\x509_crt.c ****         if( crt->raw.len == cur->raw.len &&
 6061              	 .loc 2 2210 0
 6062 002e 7B68     	 ldr r3,[r7,#4]
 6063 0030 5A68     	 ldr r2,[r3,#4]
 6064 0032 FB68     	 ldr r3,[r7,#12]
 6065 0034 5B68     	 ldr r3,[r3,#4]
 6066 0036 9A42     	 cmp r2,r3
 6067 0038 0FD1     	 bne .L404
2211:C:/Users/Yushev/git/wpcqi-optiga-trust-charge/optiga/externals/mbedtls/library\x509_crt.c ****             memcmp( crt->raw.p, cur->raw.p, crt->raw.len ) == 0 )
 6068              	 .loc 2 2211 0 discriminator 1
 6069 003a 7B68     	 ldr r3,[r7,#4]
 6070 003c 9968     	 ldr r1,[r3,#8]
 6071 003e FB68     	 ldr r3,[r7,#12]
 6072 0040 9A68     	 ldr r2,[r3,#8]
 6073 0042 7B68     	 ldr r3,[r7,#4]
 6074 0044 5B68     	 ldr r3,[r3,#4]
 6075 0046 0846     	 mov r0,r1
 6076 0048 1146     	 mov r1,r2
 6077 004a 1A46     	 mov r2,r3
 6078 004c FFF7FEFF 	 bl memcmp
 6079 0050 0346     	 mov r3,r0
2210:C:/Users/Yushev/git/wpcqi-optiga-trust-charge/optiga/externals/mbedtls/library\x509_crt.c ****             memcmp( crt->raw.p, cur->raw.p, crt->raw.len ) == 0 )
 6080              	 .loc 2 2210 0 discriminator 1
 6081 0052 002B     	 cmp r3,#0
 6082 0054 01D1     	 bne .L404
2212:C:/Users/Yushev/git/wpcqi-optiga-trust-charge/optiga/externals/mbedtls/library\x509_crt.c ****         {
2213:C:/Users/Yushev/git/wpcqi-optiga-trust-charge/optiga/externals/mbedtls/library\x509_crt.c ****             return( 0 );
 6083              	 .loc 2 2213 0
 6084 0056 0023     	 movs r3,#0
 6085 0058 08E0     	 b .L402
 6086              	.L404:
2208:C:/Users/Yushev/git/wpcqi-optiga-trust-charge/optiga/externals/mbedtls/library\x509_crt.c ****     {
 6087              	 .loc 2 2208 0 discriminator 2
 6088 005a FB68     	 ldr r3,[r7,#12]
 6089 005c D3F83031 	 ldr r3,[r3,#304]
 6090 0060 FB60     	 str r3,[r7,#12]
 6091              	.L403:
2208:C:/Users/Yushev/git/wpcqi-optiga-trust-charge/optiga/externals/mbedtls/library\x509_crt.c ****     {
 6092              	 .loc 2 2208 0 is_stmt 0 discriminator 1
 6093 0062 FB68     	 ldr r3,[r7,#12]
 6094 0064 002B     	 cmp r3,#0
 6095 0066 E2D1     	 bne .L405
2214:C:/Users/Yushev/git/wpcqi-optiga-trust-charge/optiga/externals/mbedtls/library\x509_crt.c ****         }
2215:C:/Users/Yushev/git/wpcqi-optiga-trust-charge/optiga/externals/mbedtls/library\x509_crt.c ****     }
2216:C:/Users/Yushev/git/wpcqi-optiga-trust-charge/optiga/externals/mbedtls/library\x509_crt.c **** 
2217:C:/Users/Yushev/git/wpcqi-optiga-trust-charge/optiga/externals/mbedtls/library\x509_crt.c ****     /* too bad */
2218:C:/Users/Yushev/git/wpcqi-optiga-trust-charge/optiga/externals/mbedtls/library\x509_crt.c ****     return( -1 );
 6096              	 .loc 2 2218 0 is_stmt 1
 6097 0068 4FF0FF33 	 mov r3,#-1
 6098              	.L402:
2219:C:/Users/Yushev/git/wpcqi-optiga-trust-charge/optiga/externals/mbedtls/library\x509_crt.c **** }
 6099              	 .loc 2 2219 0
 6100 006c 1846     	 mov r0,r3
 6101 006e 1037     	 adds r7,r7,#16
 6102              	.LCFI164:
 6103              	 .cfi_def_cfa_offset 8
 6104 0070 BD46     	 mov sp,r7
 6105              	.LCFI165:
 6106              	 .cfi_def_cfa_register 13
 6107              	 
 6108 0072 80BD     	 pop {r7,pc}
 6109              	 .cfi_endproc
 6110              	.LFE39:
 6112              	 .section .text.x509_crt_verify_chain,"ax",%progbits
 6113              	 .align 2
 6114              	 .thumb
 6115              	 .thumb_func
 6117              	x509_crt_verify_chain:
 6118              	.LFB40:
2220:C:/Users/Yushev/git/wpcqi-optiga-trust-charge/optiga/externals/mbedtls/library\x509_crt.c **** 
2221:C:/Users/Yushev/git/wpcqi-optiga-trust-charge/optiga/externals/mbedtls/library\x509_crt.c **** /*
2222:C:/Users/Yushev/git/wpcqi-optiga-trust-charge/optiga/externals/mbedtls/library\x509_crt.c ****  * Build and verify a certificate chain
2223:C:/Users/Yushev/git/wpcqi-optiga-trust-charge/optiga/externals/mbedtls/library\x509_crt.c ****  *
2224:C:/Users/Yushev/git/wpcqi-optiga-trust-charge/optiga/externals/mbedtls/library\x509_crt.c ****  * Given a peer-provided list of certificates EE, C1, ..., Cn and
2225:C:/Users/Yushev/git/wpcqi-optiga-trust-charge/optiga/externals/mbedtls/library\x509_crt.c ****  * a list of trusted certs R1, ... Rp, try to build and verify a chain
2226:C:/Users/Yushev/git/wpcqi-optiga-trust-charge/optiga/externals/mbedtls/library\x509_crt.c ****  *      EE, Ci1, ... Ciq [, Rj]
2227:C:/Users/Yushev/git/wpcqi-optiga-trust-charge/optiga/externals/mbedtls/library\x509_crt.c ****  * such that every cert in the chain is a child of the next one,
2228:C:/Users/Yushev/git/wpcqi-optiga-trust-charge/optiga/externals/mbedtls/library\x509_crt.c ****  * jumping to a trusted root as early as possible.
2229:C:/Users/Yushev/git/wpcqi-optiga-trust-charge/optiga/externals/mbedtls/library\x509_crt.c ****  *
2230:C:/Users/Yushev/git/wpcqi-optiga-trust-charge/optiga/externals/mbedtls/library\x509_crt.c ****  * Verify that chain and return it with flags for all issues found.
2231:C:/Users/Yushev/git/wpcqi-optiga-trust-charge/optiga/externals/mbedtls/library\x509_crt.c ****  *
2232:C:/Users/Yushev/git/wpcqi-optiga-trust-charge/optiga/externals/mbedtls/library\x509_crt.c ****  * Special cases:
2233:C:/Users/Yushev/git/wpcqi-optiga-trust-charge/optiga/externals/mbedtls/library\x509_crt.c ****  * - EE == Rj -> return a one-element list containing it
2234:C:/Users/Yushev/git/wpcqi-optiga-trust-charge/optiga/externals/mbedtls/library\x509_crt.c ****  * - EE, Ci1, ..., Ciq cannot be continued with a trusted root
2235:C:/Users/Yushev/git/wpcqi-optiga-trust-charge/optiga/externals/mbedtls/library\x509_crt.c ****  *   -> return that chain with NOT_TRUSTED set on Ciq
2236:C:/Users/Yushev/git/wpcqi-optiga-trust-charge/optiga/externals/mbedtls/library\x509_crt.c ****  *
2237:C:/Users/Yushev/git/wpcqi-optiga-trust-charge/optiga/externals/mbedtls/library\x509_crt.c ****  * Tests for (aspects of) this function should include at least:
2238:C:/Users/Yushev/git/wpcqi-optiga-trust-charge/optiga/externals/mbedtls/library\x509_crt.c ****  * - trusted EE
2239:C:/Users/Yushev/git/wpcqi-optiga-trust-charge/optiga/externals/mbedtls/library\x509_crt.c ****  * - EE -> trusted root
2240:C:/Users/Yushev/git/wpcqi-optiga-trust-charge/optiga/externals/mbedtls/library\x509_crt.c ****  * - EE -> intermedate CA -> trusted root
2241:C:/Users/Yushev/git/wpcqi-optiga-trust-charge/optiga/externals/mbedtls/library\x509_crt.c ****  * - if relevant: EE untrusted
2242:C:/Users/Yushev/git/wpcqi-optiga-trust-charge/optiga/externals/mbedtls/library\x509_crt.c ****  * - if relevant: EE -> intermediate, untrusted
2243:C:/Users/Yushev/git/wpcqi-optiga-trust-charge/optiga/externals/mbedtls/library\x509_crt.c ****  * with the aspect under test checked at each relevant level (EE, int, root).
2244:C:/Users/Yushev/git/wpcqi-optiga-trust-charge/optiga/externals/mbedtls/library\x509_crt.c ****  * For some aspects longer chains are required, but usually length 2 is
2245:C:/Users/Yushev/git/wpcqi-optiga-trust-charge/optiga/externals/mbedtls/library\x509_crt.c ****  * enough (but length 1 is not in general).
2246:C:/Users/Yushev/git/wpcqi-optiga-trust-charge/optiga/externals/mbedtls/library\x509_crt.c ****  *
2247:C:/Users/Yushev/git/wpcqi-optiga-trust-charge/optiga/externals/mbedtls/library\x509_crt.c ****  * Arguments:
2248:C:/Users/Yushev/git/wpcqi-optiga-trust-charge/optiga/externals/mbedtls/library\x509_crt.c ****  *  - [in] crt: the cert list EE, C1, ..., Cn
2249:C:/Users/Yushev/git/wpcqi-optiga-trust-charge/optiga/externals/mbedtls/library\x509_crt.c ****  *  - [in] trust_ca: the trusted list R1, ..., Rp
2250:C:/Users/Yushev/git/wpcqi-optiga-trust-charge/optiga/externals/mbedtls/library\x509_crt.c ****  *  - [in] ca_crl, profile: as in verify_with_profile()
2251:C:/Users/Yushev/git/wpcqi-optiga-trust-charge/optiga/externals/mbedtls/library\x509_crt.c ****  *  - [out] ver_chain: the built and verified chain
2252:C:/Users/Yushev/git/wpcqi-optiga-trust-charge/optiga/externals/mbedtls/library\x509_crt.c ****  *      Only valid when return value is 0, may contain garbage otherwise!
2253:C:/Users/Yushev/git/wpcqi-optiga-trust-charge/optiga/externals/mbedtls/library\x509_crt.c ****  *      Restart note: need not be the same when calling again to resume.
2254:C:/Users/Yushev/git/wpcqi-optiga-trust-charge/optiga/externals/mbedtls/library\x509_crt.c ****  *  - [in-out] rs_ctx: context for restarting operations
2255:C:/Users/Yushev/git/wpcqi-optiga-trust-charge/optiga/externals/mbedtls/library\x509_crt.c ****  *
2256:C:/Users/Yushev/git/wpcqi-optiga-trust-charge/optiga/externals/mbedtls/library\x509_crt.c ****  * Return value:
2257:C:/Users/Yushev/git/wpcqi-optiga-trust-charge/optiga/externals/mbedtls/library\x509_crt.c ****  *  - non-zero if the chain could not be fully built and examined
2258:C:/Users/Yushev/git/wpcqi-optiga-trust-charge/optiga/externals/mbedtls/library\x509_crt.c ****  *  - 0 is the chain was successfully built and examined,
2259:C:/Users/Yushev/git/wpcqi-optiga-trust-charge/optiga/externals/mbedtls/library\x509_crt.c ****  *      even if it was found to be invalid
2260:C:/Users/Yushev/git/wpcqi-optiga-trust-charge/optiga/externals/mbedtls/library\x509_crt.c ****  */
2261:C:/Users/Yushev/git/wpcqi-optiga-trust-charge/optiga/externals/mbedtls/library\x509_crt.c **** static int x509_crt_verify_chain(
2262:C:/Users/Yushev/git/wpcqi-optiga-trust-charge/optiga/externals/mbedtls/library\x509_crt.c ****                 mbedtls_x509_crt *crt,
2263:C:/Users/Yushev/git/wpcqi-optiga-trust-charge/optiga/externals/mbedtls/library\x509_crt.c ****                 mbedtls_x509_crt *trust_ca,
2264:C:/Users/Yushev/git/wpcqi-optiga-trust-charge/optiga/externals/mbedtls/library\x509_crt.c ****                 mbedtls_x509_crl *ca_crl,
2265:C:/Users/Yushev/git/wpcqi-optiga-trust-charge/optiga/externals/mbedtls/library\x509_crt.c ****                 const mbedtls_x509_crt_profile *profile,
2266:C:/Users/Yushev/git/wpcqi-optiga-trust-charge/optiga/externals/mbedtls/library\x509_crt.c ****                 mbedtls_x509_crt_verify_chain *ver_chain,
2267:C:/Users/Yushev/git/wpcqi-optiga-trust-charge/optiga/externals/mbedtls/library\x509_crt.c ****                 mbedtls_x509_crt_restart_ctx *rs_ctx )
2268:C:/Users/Yushev/git/wpcqi-optiga-trust-charge/optiga/externals/mbedtls/library\x509_crt.c **** {
 6119              	 .loc 2 2268 0
 6120              	 .cfi_startproc
 6121              	 
 6122              	 
 6123 0000 B0B5     	 push {r4,r5,r7,lr}
 6124              	.LCFI166:
 6125              	 .cfi_def_cfa_offset 16
 6126              	 .cfi_offset 4,-16
 6127              	 .cfi_offset 5,-12
 6128              	 .cfi_offset 7,-8
 6129              	 .cfi_offset 14,-4
 6130 0002 92B0     	 sub sp,sp,#72
 6131              	.LCFI167:
 6132              	 .cfi_def_cfa_offset 88
 6133 0004 04AF     	 add r7,sp,#16
 6134              	.LCFI168:
 6135              	 .cfi_def_cfa 7,72
 6136 0006 F860     	 str r0,[r7,#12]
 6137 0008 B960     	 str r1,[r7,#8]
 6138 000a 7A60     	 str r2,[r7,#4]
 6139 000c 3B60     	 str r3,[r7]
2269:C:/Users/Yushev/git/wpcqi-optiga-trust-charge/optiga/externals/mbedtls/library\x509_crt.c ****     /* Don't initialize any of those variables here, so that the compiler can
2270:C:/Users/Yushev/git/wpcqi-optiga-trust-charge/optiga/externals/mbedtls/library\x509_crt.c ****      * catch potential issues with jumping ahead when restarting */
2271:C:/Users/Yushev/git/wpcqi-optiga-trust-charge/optiga/externals/mbedtls/library\x509_crt.c ****     int ret;
2272:C:/Users/Yushev/git/wpcqi-optiga-trust-charge/optiga/externals/mbedtls/library\x509_crt.c ****     uint32_t *flags;
2273:C:/Users/Yushev/git/wpcqi-optiga-trust-charge/optiga/externals/mbedtls/library\x509_crt.c ****     mbedtls_x509_crt_verify_chain_item *cur;
2274:C:/Users/Yushev/git/wpcqi-optiga-trust-charge/optiga/externals/mbedtls/library\x509_crt.c ****     mbedtls_x509_crt *child;
2275:C:/Users/Yushev/git/wpcqi-optiga-trust-charge/optiga/externals/mbedtls/library\x509_crt.c ****     mbedtls_x509_crt *parent;
2276:C:/Users/Yushev/git/wpcqi-optiga-trust-charge/optiga/externals/mbedtls/library\x509_crt.c ****     int parent_is_trusted;
2277:C:/Users/Yushev/git/wpcqi-optiga-trust-charge/optiga/externals/mbedtls/library\x509_crt.c ****     int child_is_trusted;
2278:C:/Users/Yushev/git/wpcqi-optiga-trust-charge/optiga/externals/mbedtls/library\x509_crt.c ****     int signature_is_good;
2279:C:/Users/Yushev/git/wpcqi-optiga-trust-charge/optiga/externals/mbedtls/library\x509_crt.c ****     unsigned self_cnt;
2280:C:/Users/Yushev/git/wpcqi-optiga-trust-charge/optiga/externals/mbedtls/library\x509_crt.c **** 
2281:C:/Users/Yushev/git/wpcqi-optiga-trust-charge/optiga/externals/mbedtls/library\x509_crt.c **** #if defined(MBEDTLS_ECDSA_C) && defined(MBEDTLS_ECP_RESTARTABLE)
2282:C:/Users/Yushev/git/wpcqi-optiga-trust-charge/optiga/externals/mbedtls/library\x509_crt.c ****     /* resume if we had an operation in progress */
2283:C:/Users/Yushev/git/wpcqi-optiga-trust-charge/optiga/externals/mbedtls/library\x509_crt.c ****     if( rs_ctx != NULL && rs_ctx->in_progress == x509_crt_rs_find_parent )
2284:C:/Users/Yushev/git/wpcqi-optiga-trust-charge/optiga/externals/mbedtls/library\x509_crt.c ****     {
2285:C:/Users/Yushev/git/wpcqi-optiga-trust-charge/optiga/externals/mbedtls/library\x509_crt.c ****         /* restore saved state */
2286:C:/Users/Yushev/git/wpcqi-optiga-trust-charge/optiga/externals/mbedtls/library\x509_crt.c ****         *ver_chain = rs_ctx->ver_chain; /* struct copy */
2287:C:/Users/Yushev/git/wpcqi-optiga-trust-charge/optiga/externals/mbedtls/library\x509_crt.c ****         self_cnt = rs_ctx->self_cnt;
2288:C:/Users/Yushev/git/wpcqi-optiga-trust-charge/optiga/externals/mbedtls/library\x509_crt.c **** 
2289:C:/Users/Yushev/git/wpcqi-optiga-trust-charge/optiga/externals/mbedtls/library\x509_crt.c ****         /* restore derived state */
2290:C:/Users/Yushev/git/wpcqi-optiga-trust-charge/optiga/externals/mbedtls/library\x509_crt.c ****         cur = &ver_chain->items[ver_chain->len - 1];
2291:C:/Users/Yushev/git/wpcqi-optiga-trust-charge/optiga/externals/mbedtls/library\x509_crt.c ****         child = cur->crt;
2292:C:/Users/Yushev/git/wpcqi-optiga-trust-charge/optiga/externals/mbedtls/library\x509_crt.c ****         flags = &cur->flags;
2293:C:/Users/Yushev/git/wpcqi-optiga-trust-charge/optiga/externals/mbedtls/library\x509_crt.c **** 
2294:C:/Users/Yushev/git/wpcqi-optiga-trust-charge/optiga/externals/mbedtls/library\x509_crt.c ****         goto find_parent;
2295:C:/Users/Yushev/git/wpcqi-optiga-trust-charge/optiga/externals/mbedtls/library\x509_crt.c ****     }
2296:C:/Users/Yushev/git/wpcqi-optiga-trust-charge/optiga/externals/mbedtls/library\x509_crt.c **** #endif /* MBEDTLS_ECDSA_C && MBEDTLS_ECP_RESTARTABLE */
2297:C:/Users/Yushev/git/wpcqi-optiga-trust-charge/optiga/externals/mbedtls/library\x509_crt.c **** 
2298:C:/Users/Yushev/git/wpcqi-optiga-trust-charge/optiga/externals/mbedtls/library\x509_crt.c ****     child = crt;
 6140              	 .loc 2 2298 0
 6141 000e FB68     	 ldr r3,[r7,#12]
 6142 0010 7B63     	 str r3,[r7,#52]
2299:C:/Users/Yushev/git/wpcqi-optiga-trust-charge/optiga/externals/mbedtls/library\x509_crt.c ****     self_cnt = 0;
 6143              	 .loc 2 2299 0
 6144 0012 0023     	 movs r3,#0
 6145 0014 FB62     	 str r3,[r7,#44]
2300:C:/Users/Yushev/git/wpcqi-optiga-trust-charge/optiga/externals/mbedtls/library\x509_crt.c ****     parent_is_trusted = 0;
 6146              	 .loc 2 2300 0
 6147 0016 0023     	 movs r3,#0
 6148 0018 BB61     	 str r3,[r7,#24]
2301:C:/Users/Yushev/git/wpcqi-optiga-trust-charge/optiga/externals/mbedtls/library\x509_crt.c ****     child_is_trusted = 0;
 6149              	 .loc 2 2301 0
 6150 001a 0023     	 movs r3,#0
 6151 001c 3B63     	 str r3,[r7,#48]
 6152              	.L419:
2302:C:/Users/Yushev/git/wpcqi-optiga-trust-charge/optiga/externals/mbedtls/library\x509_crt.c **** 
2303:C:/Users/Yushev/git/wpcqi-optiga-trust-charge/optiga/externals/mbedtls/library\x509_crt.c ****     while( 1 ) {
2304:C:/Users/Yushev/git/wpcqi-optiga-trust-charge/optiga/externals/mbedtls/library\x509_crt.c ****         /* Add certificate to the verification chain */
2305:C:/Users/Yushev/git/wpcqi-optiga-trust-charge/optiga/externals/mbedtls/library\x509_crt.c ****         cur = &ver_chain->items[ver_chain->len];
 6153              	 .loc 2 2305 0
 6154 001e BB6C     	 ldr r3,[r7,#72]
 6155 0020 1B6D     	 ldr r3,[r3,#80]
 6156 0022 DB00     	 lsls r3,r3,#3
 6157 0024 BA6C     	 ldr r2,[r7,#72]
 6158 0026 1344     	 add r3,r3,r2
 6159 0028 BB62     	 str r3,[r7,#40]
2306:C:/Users/Yushev/git/wpcqi-optiga-trust-charge/optiga/externals/mbedtls/library\x509_crt.c ****         cur->crt = child;
 6160              	 .loc 2 2306 0
 6161 002a BB6A     	 ldr r3,[r7,#40]
 6162 002c 7A6B     	 ldr r2,[r7,#52]
 6163 002e 1A60     	 str r2,[r3]
2307:C:/Users/Yushev/git/wpcqi-optiga-trust-charge/optiga/externals/mbedtls/library\x509_crt.c ****         cur->flags = 0;
 6164              	 .loc 2 2307 0
 6165 0030 BB6A     	 ldr r3,[r7,#40]
 6166 0032 0022     	 movs r2,#0
 6167 0034 5A60     	 str r2,[r3,#4]
2308:C:/Users/Yushev/git/wpcqi-optiga-trust-charge/optiga/externals/mbedtls/library\x509_crt.c ****         ver_chain->len++;
 6168              	 .loc 2 2308 0
 6169 0036 BB6C     	 ldr r3,[r7,#72]
 6170 0038 1B6D     	 ldr r3,[r3,#80]
 6171 003a 5A1C     	 adds r2,r3,#1
 6172 003c BB6C     	 ldr r3,[r7,#72]
 6173 003e 1A65     	 str r2,[r3,#80]
2309:C:/Users/Yushev/git/wpcqi-optiga-trust-charge/optiga/externals/mbedtls/library\x509_crt.c ****         flags = &cur->flags;
 6174              	 .loc 2 2309 0
 6175 0040 BB6A     	 ldr r3,[r7,#40]
 6176 0042 0433     	 adds r3,r3,#4
 6177 0044 7B62     	 str r3,[r7,#36]
2310:C:/Users/Yushev/git/wpcqi-optiga-trust-charge/optiga/externals/mbedtls/library\x509_crt.c **** 
2311:C:/Users/Yushev/git/wpcqi-optiga-trust-charge/optiga/externals/mbedtls/library\x509_crt.c ****         /* Check time-validity (all certificates) */
2312:C:/Users/Yushev/git/wpcqi-optiga-trust-charge/optiga/externals/mbedtls/library\x509_crt.c ****         if( mbedtls_x509_time_is_past( &child->valid_to ) )
 6178              	 .loc 2 2312 0
 6179 0046 7B6B     	 ldr r3,[r7,#52]
 6180 0048 A433     	 adds r3,r3,#164
 6181 004a 1846     	 mov r0,r3
 6182 004c FFF7FEFF 	 bl mbedtls_x509_time_is_past
 6183 0050 0346     	 mov r3,r0
 6184 0052 002B     	 cmp r3,#0
 6185 0054 05D0     	 beq .L407
2313:C:/Users/Yushev/git/wpcqi-optiga-trust-charge/optiga/externals/mbedtls/library\x509_crt.c ****             *flags |= MBEDTLS_X509_BADCERT_EXPIRED;
 6186              	 .loc 2 2313 0
 6187 0056 7B6A     	 ldr r3,[r7,#36]
 6188 0058 1B68     	 ldr r3,[r3]
 6189 005a 43F00102 	 orr r2,r3,#1
 6190 005e 7B6A     	 ldr r3,[r7,#36]
 6191 0060 1A60     	 str r2,[r3]
 6192              	.L407:
2314:C:/Users/Yushev/git/wpcqi-optiga-trust-charge/optiga/externals/mbedtls/library\x509_crt.c **** 
2315:C:/Users/Yushev/git/wpcqi-optiga-trust-charge/optiga/externals/mbedtls/library\x509_crt.c ****         if( mbedtls_x509_time_is_future( &child->valid_from ) )
 6193              	 .loc 2 2315 0
 6194 0062 7B6B     	 ldr r3,[r7,#52]
 6195 0064 8C33     	 adds r3,r3,#140
 6196 0066 1846     	 mov r0,r3
 6197 0068 FFF7FEFF 	 bl mbedtls_x509_time_is_future
 6198 006c 0346     	 mov r3,r0
 6199 006e 002B     	 cmp r3,#0
 6200 0070 05D0     	 beq .L408
2316:C:/Users/Yushev/git/wpcqi-optiga-trust-charge/optiga/externals/mbedtls/library\x509_crt.c ****             *flags |= MBEDTLS_X509_BADCERT_FUTURE;
 6201              	 .loc 2 2316 0
 6202 0072 7B6A     	 ldr r3,[r7,#36]
 6203 0074 1B68     	 ldr r3,[r3]
 6204 0076 43F40072 	 orr r2,r3,#512
 6205 007a 7B6A     	 ldr r3,[r7,#36]
 6206 007c 1A60     	 str r2,[r3]
 6207              	.L408:
2317:C:/Users/Yushev/git/wpcqi-optiga-trust-charge/optiga/externals/mbedtls/library\x509_crt.c **** 
2318:C:/Users/Yushev/git/wpcqi-optiga-trust-charge/optiga/externals/mbedtls/library\x509_crt.c ****         /* Stop here for trusted roots (but not for trusted EE certs) */
2319:C:/Users/Yushev/git/wpcqi-optiga-trust-charge/optiga/externals/mbedtls/library\x509_crt.c ****         if( child_is_trusted )
 6208              	 .loc 2 2319 0
 6209 007e 3B6B     	 ldr r3,[r7,#48]
 6210 0080 002B     	 cmp r3,#0
 6211 0082 01D0     	 beq .L409
2320:C:/Users/Yushev/git/wpcqi-optiga-trust-charge/optiga/externals/mbedtls/library\x509_crt.c ****             return( 0 );
 6212              	 .loc 2 2320 0
 6213 0084 0023     	 movs r3,#0
 6214 0086 8AE0     	 b .L420
 6215              	.L409:
2321:C:/Users/Yushev/git/wpcqi-optiga-trust-charge/optiga/externals/mbedtls/library\x509_crt.c **** 
2322:C:/Users/Yushev/git/wpcqi-optiga-trust-charge/optiga/externals/mbedtls/library\x509_crt.c ****         /* Check signature algorithm: MD & PK algs */
2323:C:/Users/Yushev/git/wpcqi-optiga-trust-charge/optiga/externals/mbedtls/library\x509_crt.c ****         if( x509_profile_check_md_alg( profile, child->sig_md ) != 0 )
 6216              	 .loc 2 2323 0
 6217 0088 7B6B     	 ldr r3,[r7,#52]
 6218 008a 93F82831 	 ldrb r3,[r3,#296]
 6219 008e 3868     	 ldr r0,[r7]
 6220 0090 1946     	 mov r1,r3
 6221 0092 FFF7FEFF 	 bl x509_profile_check_md_alg
 6222 0096 0346     	 mov r3,r0
 6223 0098 002B     	 cmp r3,#0
 6224 009a 05D0     	 beq .L411
2324:C:/Users/Yushev/git/wpcqi-optiga-trust-charge/optiga/externals/mbedtls/library\x509_crt.c ****             *flags |= MBEDTLS_X509_BADCERT_BAD_MD;
 6225              	 .loc 2 2324 0
 6226 009c 7B6A     	 ldr r3,[r7,#36]
 6227 009e 1B68     	 ldr r3,[r3]
 6228 00a0 43F48042 	 orr r2,r3,#16384
 6229 00a4 7B6A     	 ldr r3,[r7,#36]
 6230 00a6 1A60     	 str r2,[r3]
 6231              	.L411:
2325:C:/Users/Yushev/git/wpcqi-optiga-trust-charge/optiga/externals/mbedtls/library\x509_crt.c **** 
2326:C:/Users/Yushev/git/wpcqi-optiga-trust-charge/optiga/externals/mbedtls/library\x509_crt.c ****         if( x509_profile_check_pk_alg( profile, child->sig_pk ) != 0 )
 6232              	 .loc 2 2326 0
 6233 00a8 7B6B     	 ldr r3,[r7,#52]
 6234 00aa 93F82931 	 ldrb r3,[r3,#297]
 6235 00ae 3868     	 ldr r0,[r7]
 6236 00b0 1946     	 mov r1,r3
 6237 00b2 FFF7FEFF 	 bl x509_profile_check_pk_alg
 6238 00b6 0346     	 mov r3,r0
 6239 00b8 002B     	 cmp r3,#0
 6240 00ba 05D0     	 beq .L412
2327:C:/Users/Yushev/git/wpcqi-optiga-trust-charge/optiga/externals/mbedtls/library\x509_crt.c ****             *flags |= MBEDTLS_X509_BADCERT_BAD_PK;
 6241              	 .loc 2 2327 0
 6242 00bc 7B6A     	 ldr r3,[r7,#36]
 6243 00be 1B68     	 ldr r3,[r3]
 6244 00c0 43F40042 	 orr r2,r3,#32768
 6245 00c4 7B6A     	 ldr r3,[r7,#36]
 6246 00c6 1A60     	 str r2,[r3]
 6247              	.L412:
2328:C:/Users/Yushev/git/wpcqi-optiga-trust-charge/optiga/externals/mbedtls/library\x509_crt.c **** 
2329:C:/Users/Yushev/git/wpcqi-optiga-trust-charge/optiga/externals/mbedtls/library\x509_crt.c ****         /* Special case: EE certs that are locally trusted */
2330:C:/Users/Yushev/git/wpcqi-optiga-trust-charge/optiga/externals/mbedtls/library\x509_crt.c ****         if( ver_chain->len == 1 &&
 6248              	 .loc 2 2330 0
 6249 00c8 BB6C     	 ldr r3,[r7,#72]
 6250 00ca 1B6D     	 ldr r3,[r3,#80]
 6251 00cc 012B     	 cmp r3,#1
 6252 00ce 08D1     	 bne .L413
2331:C:/Users/Yushev/git/wpcqi-optiga-trust-charge/optiga/externals/mbedtls/library\x509_crt.c ****             x509_crt_check_ee_locally_trusted( child, trust_ca ) == 0 )
 6253              	 .loc 2 2331 0 discriminator 1
 6254 00d0 786B     	 ldr r0,[r7,#52]
 6255 00d2 B968     	 ldr r1,[r7,#8]
 6256 00d4 FFF7FEFF 	 bl x509_crt_check_ee_locally_trusted
 6257 00d8 0346     	 mov r3,r0
2330:C:/Users/Yushev/git/wpcqi-optiga-trust-charge/optiga/externals/mbedtls/library\x509_crt.c ****             x509_crt_check_ee_locally_trusted( child, trust_ca ) == 0 )
 6258              	 .loc 2 2330 0 discriminator 1
 6259 00da 002B     	 cmp r3,#0
 6260 00dc 01D1     	 bne .L413
2332:C:/Users/Yushev/git/wpcqi-optiga-trust-charge/optiga/externals/mbedtls/library\x509_crt.c ****         {
2333:C:/Users/Yushev/git/wpcqi-optiga-trust-charge/optiga/externals/mbedtls/library\x509_crt.c ****             return( 0 );
 6261              	 .loc 2 2333 0
 6262 00de 0023     	 movs r3,#0
 6263 00e0 5DE0     	 b .L420
 6264              	.L413:
2334:C:/Users/Yushev/git/wpcqi-optiga-trust-charge/optiga/externals/mbedtls/library\x509_crt.c ****         }
2335:C:/Users/Yushev/git/wpcqi-optiga-trust-charge/optiga/externals/mbedtls/library\x509_crt.c **** 
2336:C:/Users/Yushev/git/wpcqi-optiga-trust-charge/optiga/externals/mbedtls/library\x509_crt.c **** #if defined(MBEDTLS_ECDSA_C) && defined(MBEDTLS_ECP_RESTARTABLE)
2337:C:/Users/Yushev/git/wpcqi-optiga-trust-charge/optiga/externals/mbedtls/library\x509_crt.c **** find_parent:
2338:C:/Users/Yushev/git/wpcqi-optiga-trust-charge/optiga/externals/mbedtls/library\x509_crt.c **** #endif
2339:C:/Users/Yushev/git/wpcqi-optiga-trust-charge/optiga/externals/mbedtls/library\x509_crt.c ****         /* Look for a parent in trusted CAs or up the chain */
2340:C:/Users/Yushev/git/wpcqi-optiga-trust-charge/optiga/externals/mbedtls/library\x509_crt.c ****         ret = x509_crt_find_parent( child, trust_ca, &parent,
2341:C:/Users/Yushev/git/wpcqi-optiga-trust-charge/optiga/externals/mbedtls/library\x509_crt.c ****                                        &parent_is_trusted, &signature_is_good,
2342:C:/Users/Yushev/git/wpcqi-optiga-trust-charge/optiga/externals/mbedtls/library\x509_crt.c ****                                        ver_chain->len - 1, self_cnt, rs_ctx );
 6265              	 .loc 2 2342 0
 6266 00e2 BB6C     	 ldr r3,[r7,#72]
 6267 00e4 1B6D     	 ldr r3,[r3,#80]
2340:C:/Users/Yushev/git/wpcqi-optiga-trust-charge/optiga/externals/mbedtls/library\x509_crt.c ****                                        &parent_is_trusted, &signature_is_good,
 6268              	 .loc 2 2340 0
 6269 00e6 013B     	 subs r3,r3,#1
 6270 00e8 07F11C05 	 add r5,r7,#28
 6271 00ec 07F11804 	 add r4,r7,#24
 6272 00f0 07F11402 	 add r2,r7,#20
 6273 00f4 0092     	 str r2,[sp]
 6274 00f6 0193     	 str r3,[sp,#4]
 6275 00f8 FB6A     	 ldr r3,[r7,#44]
 6276 00fa 0293     	 str r3,[sp,#8]
 6277 00fc FB6C     	 ldr r3,[r7,#76]
 6278 00fe 0393     	 str r3,[sp,#12]
 6279 0100 786B     	 ldr r0,[r7,#52]
 6280 0102 B968     	 ldr r1,[r7,#8]
 6281 0104 2A46     	 mov r2,r5
 6282 0106 2346     	 mov r3,r4
 6283 0108 FFF7FEFF 	 bl x509_crt_find_parent
 6284 010c 3862     	 str r0,[r7,#32]
2343:C:/Users/Yushev/git/wpcqi-optiga-trust-charge/optiga/externals/mbedtls/library\x509_crt.c **** 
2344:C:/Users/Yushev/git/wpcqi-optiga-trust-charge/optiga/externals/mbedtls/library\x509_crt.c **** #if defined(MBEDTLS_ECDSA_C) && defined(MBEDTLS_ECP_RESTARTABLE)
2345:C:/Users/Yushev/git/wpcqi-optiga-trust-charge/optiga/externals/mbedtls/library\x509_crt.c ****         if( rs_ctx != NULL && ret == MBEDTLS_ERR_ECP_IN_PROGRESS )
2346:C:/Users/Yushev/git/wpcqi-optiga-trust-charge/optiga/externals/mbedtls/library\x509_crt.c ****         {
2347:C:/Users/Yushev/git/wpcqi-optiga-trust-charge/optiga/externals/mbedtls/library\x509_crt.c ****             /* save state */
2348:C:/Users/Yushev/git/wpcqi-optiga-trust-charge/optiga/externals/mbedtls/library\x509_crt.c ****             rs_ctx->in_progress = x509_crt_rs_find_parent;
2349:C:/Users/Yushev/git/wpcqi-optiga-trust-charge/optiga/externals/mbedtls/library\x509_crt.c ****             rs_ctx->self_cnt = self_cnt;
2350:C:/Users/Yushev/git/wpcqi-optiga-trust-charge/optiga/externals/mbedtls/library\x509_crt.c ****             rs_ctx->ver_chain = *ver_chain; /* struct copy */
2351:C:/Users/Yushev/git/wpcqi-optiga-trust-charge/optiga/externals/mbedtls/library\x509_crt.c **** 
2352:C:/Users/Yushev/git/wpcqi-optiga-trust-charge/optiga/externals/mbedtls/library\x509_crt.c ****             return( ret );
2353:C:/Users/Yushev/git/wpcqi-optiga-trust-charge/optiga/externals/mbedtls/library\x509_crt.c ****         }
2354:C:/Users/Yushev/git/wpcqi-optiga-trust-charge/optiga/externals/mbedtls/library\x509_crt.c **** #else
2355:C:/Users/Yushev/git/wpcqi-optiga-trust-charge/optiga/externals/mbedtls/library\x509_crt.c ****         (void) ret;
2356:C:/Users/Yushev/git/wpcqi-optiga-trust-charge/optiga/externals/mbedtls/library\x509_crt.c **** #endif
2357:C:/Users/Yushev/git/wpcqi-optiga-trust-charge/optiga/externals/mbedtls/library\x509_crt.c **** 
2358:C:/Users/Yushev/git/wpcqi-optiga-trust-charge/optiga/externals/mbedtls/library\x509_crt.c ****         /* No parent? We're done here */
2359:C:/Users/Yushev/git/wpcqi-optiga-trust-charge/optiga/externals/mbedtls/library\x509_crt.c ****         if( parent == NULL )
 6285              	 .loc 2 2359 0
 6286 010e FB69     	 ldr r3,[r7,#28]
 6287 0110 002B     	 cmp r3,#0
 6288 0112 07D1     	 bne .L414
2360:C:/Users/Yushev/git/wpcqi-optiga-trust-charge/optiga/externals/mbedtls/library\x509_crt.c ****         {
2361:C:/Users/Yushev/git/wpcqi-optiga-trust-charge/optiga/externals/mbedtls/library\x509_crt.c ****             *flags |= MBEDTLS_X509_BADCERT_NOT_TRUSTED;
 6289              	 .loc 2 2361 0
 6290 0114 7B6A     	 ldr r3,[r7,#36]
 6291 0116 1B68     	 ldr r3,[r3]
 6292 0118 43F00802 	 orr r2,r3,#8
 6293 011c 7B6A     	 ldr r3,[r7,#36]
 6294 011e 1A60     	 str r2,[r3]
2362:C:/Users/Yushev/git/wpcqi-optiga-trust-charge/optiga/externals/mbedtls/library\x509_crt.c ****             return( 0 );
 6295              	 .loc 2 2362 0
 6296 0120 0023     	 movs r3,#0
 6297 0122 3CE0     	 b .L420
 6298              	.L414:
2363:C:/Users/Yushev/git/wpcqi-optiga-trust-charge/optiga/externals/mbedtls/library\x509_crt.c ****         }
2364:C:/Users/Yushev/git/wpcqi-optiga-trust-charge/optiga/externals/mbedtls/library\x509_crt.c **** 
2365:C:/Users/Yushev/git/wpcqi-optiga-trust-charge/optiga/externals/mbedtls/library\x509_crt.c ****         /* Count intermediate self-issued (not necessarily self-signed) certs.
2366:C:/Users/Yushev/git/wpcqi-optiga-trust-charge/optiga/externals/mbedtls/library\x509_crt.c ****          * These can occur with some strategies for key rollover, see [SIRO],
2367:C:/Users/Yushev/git/wpcqi-optiga-trust-charge/optiga/externals/mbedtls/library\x509_crt.c ****          * and should be excluded from max_pathlen checks. */
2368:C:/Users/Yushev/git/wpcqi-optiga-trust-charge/optiga/externals/mbedtls/library\x509_crt.c ****         if( ver_chain->len != 1 &&
 6299              	 .loc 2 2368 0
 6300 0124 BB6C     	 ldr r3,[r7,#72]
 6301 0126 1B6D     	 ldr r3,[r3,#80]
 6302 0128 012B     	 cmp r3,#1
 6303 012a 0ED0     	 beq .L415
2369:C:/Users/Yushev/git/wpcqi-optiga-trust-charge/optiga/externals/mbedtls/library\x509_crt.c ****             x509_name_cmp( &child->issuer, &child->subject ) == 0 )
 6304              	 .loc 2 2369 0 discriminator 1
 6305 012c 7B6B     	 ldr r3,[r7,#52]
 6306 012e 03F14C02 	 add r2,r3,#76
 6307 0132 7B6B     	 ldr r3,[r7,#52]
 6308 0134 6C33     	 adds r3,r3,#108
 6309 0136 1046     	 mov r0,r2
 6310 0138 1946     	 mov r1,r3
 6311 013a FFF7FEFF 	 bl x509_name_cmp
 6312 013e 0346     	 mov r3,r0
2368:C:/Users/Yushev/git/wpcqi-optiga-trust-charge/optiga/externals/mbedtls/library\x509_crt.c ****             x509_name_cmp( &child->issuer, &child->subject ) == 0 )
 6313              	 .loc 2 2368 0 discriminator 1
 6314 0140 002B     	 cmp r3,#0
 6315 0142 02D1     	 bne .L415
2370:C:/Users/Yushev/git/wpcqi-optiga-trust-charge/optiga/externals/mbedtls/library\x509_crt.c ****         {
2371:C:/Users/Yushev/git/wpcqi-optiga-trust-charge/optiga/externals/mbedtls/library\x509_crt.c ****             self_cnt++;
 6316              	 .loc 2 2371 0
 6317 0144 FB6A     	 ldr r3,[r7,#44]
 6318 0146 0133     	 adds r3,r3,#1
 6319 0148 FB62     	 str r3,[r7,#44]
 6320              	.L415:
2372:C:/Users/Yushev/git/wpcqi-optiga-trust-charge/optiga/externals/mbedtls/library\x509_crt.c ****         }
2373:C:/Users/Yushev/git/wpcqi-optiga-trust-charge/optiga/externals/mbedtls/library\x509_crt.c **** 
2374:C:/Users/Yushev/git/wpcqi-optiga-trust-charge/optiga/externals/mbedtls/library\x509_crt.c ****         /* path_cnt is 0 for the first intermediate CA,
2375:C:/Users/Yushev/git/wpcqi-optiga-trust-charge/optiga/externals/mbedtls/library\x509_crt.c ****          * and if parent is trusted it's not an intermediate CA */
2376:C:/Users/Yushev/git/wpcqi-optiga-trust-charge/optiga/externals/mbedtls/library\x509_crt.c ****         if( ! parent_is_trusted &&
 6321              	 .loc 2 2376 0
 6322 014a BB69     	 ldr r3,[r7,#24]
 6323 014c 002B     	 cmp r3,#0
 6324 014e 05D1     	 bne .L416
2377:C:/Users/Yushev/git/wpcqi-optiga-trust-charge/optiga/externals/mbedtls/library\x509_crt.c ****             ver_chain->len > MBEDTLS_X509_MAX_INTERMEDIATE_CA )
 6325              	 .loc 2 2377 0 discriminator 1
 6326 0150 BB6C     	 ldr r3,[r7,#72]
 6327 0152 1B6D     	 ldr r3,[r3,#80]
2376:C:/Users/Yushev/git/wpcqi-optiga-trust-charge/optiga/externals/mbedtls/library\x509_crt.c ****             ver_chain->len > MBEDTLS_X509_MAX_INTERMEDIATE_CA )
 6328              	 .loc 2 2376 0 discriminator 1
 6329 0154 082B     	 cmp r3,#8
 6330 0156 01D9     	 bls .L416
2378:C:/Users/Yushev/git/wpcqi-optiga-trust-charge/optiga/externals/mbedtls/library\x509_crt.c ****         {
2379:C:/Users/Yushev/git/wpcqi-optiga-trust-charge/optiga/externals/mbedtls/library\x509_crt.c ****             /* return immediately to avoid overflow the chain array */
2380:C:/Users/Yushev/git/wpcqi-optiga-trust-charge/optiga/externals/mbedtls/library\x509_crt.c ****             return( MBEDTLS_ERR_X509_FATAL_ERROR );
 6331              	 .loc 2 2380 0
 6332 0158 134B     	 ldr r3,.L421
 6333 015a 20E0     	 b .L420
 6334              	.L416:
2381:C:/Users/Yushev/git/wpcqi-optiga-trust-charge/optiga/externals/mbedtls/library\x509_crt.c ****         }
2382:C:/Users/Yushev/git/wpcqi-optiga-trust-charge/optiga/externals/mbedtls/library\x509_crt.c **** 
2383:C:/Users/Yushev/git/wpcqi-optiga-trust-charge/optiga/externals/mbedtls/library\x509_crt.c ****         /* signature was checked while searching parent */
2384:C:/Users/Yushev/git/wpcqi-optiga-trust-charge/optiga/externals/mbedtls/library\x509_crt.c ****         if( ! signature_is_good )
 6335              	 .loc 2 2384 0
 6336 015c 7B69     	 ldr r3,[r7,#20]
 6337 015e 002B     	 cmp r3,#0
 6338 0160 05D1     	 bne .L417
2385:C:/Users/Yushev/git/wpcqi-optiga-trust-charge/optiga/externals/mbedtls/library\x509_crt.c ****             *flags |= MBEDTLS_X509_BADCERT_NOT_TRUSTED;
 6339              	 .loc 2 2385 0
 6340 0162 7B6A     	 ldr r3,[r7,#36]
 6341 0164 1B68     	 ldr r3,[r3]
 6342 0166 43F00802 	 orr r2,r3,#8
 6343 016a 7B6A     	 ldr r3,[r7,#36]
 6344 016c 1A60     	 str r2,[r3]
 6345              	.L417:
2386:C:/Users/Yushev/git/wpcqi-optiga-trust-charge/optiga/externals/mbedtls/library\x509_crt.c **** 
2387:C:/Users/Yushev/git/wpcqi-optiga-trust-charge/optiga/externals/mbedtls/library\x509_crt.c ****         /* check size of signing key */
2388:C:/Users/Yushev/git/wpcqi-optiga-trust-charge/optiga/externals/mbedtls/library\x509_crt.c ****         if( x509_profile_check_key( profile, &parent->pk ) != 0 )
 6346              	 .loc 2 2388 0
 6347 016e FB69     	 ldr r3,[r7,#28]
 6348 0170 BC33     	 adds r3,r3,#188
 6349 0172 3868     	 ldr r0,[r7]
 6350 0174 1946     	 mov r1,r3
 6351 0176 FFF7FEFF 	 bl x509_profile_check_key
 6352 017a 0346     	 mov r3,r0
 6353 017c 002B     	 cmp r3,#0
 6354 017e 05D0     	 beq .L418
2389:C:/Users/Yushev/git/wpcqi-optiga-trust-charge/optiga/externals/mbedtls/library\x509_crt.c ****             *flags |= MBEDTLS_X509_BADCERT_BAD_KEY;
 6355              	 .loc 2 2389 0
 6356 0180 7B6A     	 ldr r3,[r7,#36]
 6357 0182 1B68     	 ldr r3,[r3]
 6358 0184 43F48032 	 orr r2,r3,#65536
 6359 0188 7B6A     	 ldr r3,[r7,#36]
 6360 018a 1A60     	 str r2,[r3]
 6361              	.L418:
2390:C:/Users/Yushev/git/wpcqi-optiga-trust-charge/optiga/externals/mbedtls/library\x509_crt.c **** 
2391:C:/Users/Yushev/git/wpcqi-optiga-trust-charge/optiga/externals/mbedtls/library\x509_crt.c **** #if defined(MBEDTLS_X509_CRL_PARSE_C)
2392:C:/Users/Yushev/git/wpcqi-optiga-trust-charge/optiga/externals/mbedtls/library\x509_crt.c ****         /* Check trusted CA's CRL for the given crt */
2393:C:/Users/Yushev/git/wpcqi-optiga-trust-charge/optiga/externals/mbedtls/library\x509_crt.c ****         *flags |= x509_crt_verifycrl( child, parent, ca_crl, profile );
2394:C:/Users/Yushev/git/wpcqi-optiga-trust-charge/optiga/externals/mbedtls/library\x509_crt.c **** #else
2395:C:/Users/Yushev/git/wpcqi-optiga-trust-charge/optiga/externals/mbedtls/library\x509_crt.c ****         (void) ca_crl;
2396:C:/Users/Yushev/git/wpcqi-optiga-trust-charge/optiga/externals/mbedtls/library\x509_crt.c **** #endif
2397:C:/Users/Yushev/git/wpcqi-optiga-trust-charge/optiga/externals/mbedtls/library\x509_crt.c **** 
2398:C:/Users/Yushev/git/wpcqi-optiga-trust-charge/optiga/externals/mbedtls/library\x509_crt.c ****         /* prepare for next iteration */
2399:C:/Users/Yushev/git/wpcqi-optiga-trust-charge/optiga/externals/mbedtls/library\x509_crt.c ****         child = parent;
 6362              	 .loc 2 2399 0
 6363 018c FB69     	 ldr r3,[r7,#28]
 6364 018e 7B63     	 str r3,[r7,#52]
2400:C:/Users/Yushev/git/wpcqi-optiga-trust-charge/optiga/externals/mbedtls/library\x509_crt.c ****         parent = NULL;
 6365              	 .loc 2 2400 0
 6366 0190 0023     	 movs r3,#0
 6367 0192 FB61     	 str r3,[r7,#28]
2401:C:/Users/Yushev/git/wpcqi-optiga-trust-charge/optiga/externals/mbedtls/library\x509_crt.c ****         child_is_trusted = parent_is_trusted;
 6368              	 .loc 2 2401 0
 6369 0194 BB69     	 ldr r3,[r7,#24]
 6370 0196 3B63     	 str r3,[r7,#48]
2402:C:/Users/Yushev/git/wpcqi-optiga-trust-charge/optiga/externals/mbedtls/library\x509_crt.c ****         signature_is_good = 0;
 6371              	 .loc 2 2402 0
 6372 0198 0023     	 movs r3,#0
 6373 019a 7B61     	 str r3,[r7,#20]
2403:C:/Users/Yushev/git/wpcqi-optiga-trust-charge/optiga/externals/mbedtls/library\x509_crt.c ****     }
 6374              	 .loc 2 2403 0
 6375 019c 3FE7     	 b .L419
 6376              	.L420:
2404:C:/Users/Yushev/git/wpcqi-optiga-trust-charge/optiga/externals/mbedtls/library\x509_crt.c **** }
 6377              	 .loc 2 2404 0 discriminator 1
 6378 019e 1846     	 mov r0,r3
 6379 01a0 3837     	 adds r7,r7,#56
 6380              	.LCFI169:
 6381              	 .cfi_def_cfa_offset 16
 6382 01a2 BD46     	 mov sp,r7
 6383              	.LCFI170:
 6384              	 .cfi_def_cfa_register 13
 6385              	 
 6386 01a4 B0BD     	 pop {r4,r5,r7,pc}
 6387              	.L422:
 6388 01a6 00BF     	 .align 2
 6389              	.L421:
 6390 01a8 00D0FFFF 	 .word -12288
 6391              	 .cfi_endproc
 6392              	.LFE40:
 6394              	 .section .text.x509_crt_check_cn,"ax",%progbits
 6395              	 .align 2
 6396              	 .thumb
 6397              	 .thumb_func
 6399              	x509_crt_check_cn:
 6400              	.LFB41:
2405:C:/Users/Yushev/git/wpcqi-optiga-trust-charge/optiga/externals/mbedtls/library\x509_crt.c **** 
2406:C:/Users/Yushev/git/wpcqi-optiga-trust-charge/optiga/externals/mbedtls/library\x509_crt.c **** /*
2407:C:/Users/Yushev/git/wpcqi-optiga-trust-charge/optiga/externals/mbedtls/library\x509_crt.c ****  * Check for CN match
2408:C:/Users/Yushev/git/wpcqi-optiga-trust-charge/optiga/externals/mbedtls/library\x509_crt.c ****  */
2409:C:/Users/Yushev/git/wpcqi-optiga-trust-charge/optiga/externals/mbedtls/library\x509_crt.c **** static int x509_crt_check_cn( const mbedtls_x509_buf *name,
2410:C:/Users/Yushev/git/wpcqi-optiga-trust-charge/optiga/externals/mbedtls/library\x509_crt.c ****                               const char *cn, size_t cn_len )
2411:C:/Users/Yushev/git/wpcqi-optiga-trust-charge/optiga/externals/mbedtls/library\x509_crt.c **** {
 6401              	 .loc 2 2411 0
 6402              	 .cfi_startproc
 6403              	 
 6404              	 
 6405 0000 80B5     	 push {r7,lr}
 6406              	.LCFI171:
 6407              	 .cfi_def_cfa_offset 8
 6408              	 .cfi_offset 7,-8
 6409              	 .cfi_offset 14,-4
 6410 0002 84B0     	 sub sp,sp,#16
 6411              	.LCFI172:
 6412              	 .cfi_def_cfa_offset 24
 6413 0004 00AF     	 add r7,sp,#0
 6414              	.LCFI173:
 6415              	 .cfi_def_cfa_register 7
 6416 0006 F860     	 str r0,[r7,#12]
 6417 0008 B960     	 str r1,[r7,#8]
 6418 000a 7A60     	 str r2,[r7,#4]
2412:C:/Users/Yushev/git/wpcqi-optiga-trust-charge/optiga/externals/mbedtls/library\x509_crt.c ****     /* try exact match */
2413:C:/Users/Yushev/git/wpcqi-optiga-trust-charge/optiga/externals/mbedtls/library\x509_crt.c ****     if( name->len == cn_len &&
 6419              	 .loc 2 2413 0
 6420 000c FB68     	 ldr r3,[r7,#12]
 6421 000e 5A68     	 ldr r2,[r3,#4]
 6422 0010 7B68     	 ldr r3,[r7,#4]
 6423 0012 9A42     	 cmp r2,r3
 6424 0014 0BD1     	 bne .L424
2414:C:/Users/Yushev/git/wpcqi-optiga-trust-charge/optiga/externals/mbedtls/library\x509_crt.c ****         x509_memcasecmp( cn, name->p, cn_len ) == 0 )
 6425              	 .loc 2 2414 0 discriminator 1
 6426 0016 FB68     	 ldr r3,[r7,#12]
 6427 0018 9B68     	 ldr r3,[r3,#8]
 6428 001a B868     	 ldr r0,[r7,#8]
 6429 001c 1946     	 mov r1,r3
 6430 001e 7A68     	 ldr r2,[r7,#4]
 6431 0020 FFF7FEFF 	 bl x509_memcasecmp
 6432 0024 0346     	 mov r3,r0
2413:C:/Users/Yushev/git/wpcqi-optiga-trust-charge/optiga/externals/mbedtls/library\x509_crt.c ****         x509_memcasecmp( cn, name->p, cn_len ) == 0 )
 6433              	 .loc 2 2413 0 discriminator 1
 6434 0026 002B     	 cmp r3,#0
 6435 0028 01D1     	 bne .L424
2415:C:/Users/Yushev/git/wpcqi-optiga-trust-charge/optiga/externals/mbedtls/library\x509_crt.c ****     {
2416:C:/Users/Yushev/git/wpcqi-optiga-trust-charge/optiga/externals/mbedtls/library\x509_crt.c ****         return( 0 );
 6436              	 .loc 2 2416 0
 6437 002a 0023     	 movs r3,#0
 6438 002c 0AE0     	 b .L425
 6439              	.L424:
2417:C:/Users/Yushev/git/wpcqi-optiga-trust-charge/optiga/externals/mbedtls/library\x509_crt.c ****     }
2418:C:/Users/Yushev/git/wpcqi-optiga-trust-charge/optiga/externals/mbedtls/library\x509_crt.c **** 
2419:C:/Users/Yushev/git/wpcqi-optiga-trust-charge/optiga/externals/mbedtls/library\x509_crt.c ****     /* try wildcard match */
2420:C:/Users/Yushev/git/wpcqi-optiga-trust-charge/optiga/externals/mbedtls/library\x509_crt.c ****     if( x509_check_wildcard( cn, name ) == 0 )
 6440              	 .loc 2 2420 0
 6441 002e B868     	 ldr r0,[r7,#8]
 6442 0030 F968     	 ldr r1,[r7,#12]
 6443 0032 FFF7FEFF 	 bl x509_check_wildcard
 6444 0036 0346     	 mov r3,r0
 6445 0038 002B     	 cmp r3,#0
 6446 003a 01D1     	 bne .L426
2421:C:/Users/Yushev/git/wpcqi-optiga-trust-charge/optiga/externals/mbedtls/library\x509_crt.c ****     {
2422:C:/Users/Yushev/git/wpcqi-optiga-trust-charge/optiga/externals/mbedtls/library\x509_crt.c ****         return( 0 );
 6447              	 .loc 2 2422 0
 6448 003c 0023     	 movs r3,#0
 6449 003e 01E0     	 b .L425
 6450              	.L426:
2423:C:/Users/Yushev/git/wpcqi-optiga-trust-charge/optiga/externals/mbedtls/library\x509_crt.c ****     }
2424:C:/Users/Yushev/git/wpcqi-optiga-trust-charge/optiga/externals/mbedtls/library\x509_crt.c **** 
2425:C:/Users/Yushev/git/wpcqi-optiga-trust-charge/optiga/externals/mbedtls/library\x509_crt.c ****     return( -1 );
 6451              	 .loc 2 2425 0
 6452 0040 4FF0FF33 	 mov r3,#-1
 6453              	.L425:
2426:C:/Users/Yushev/git/wpcqi-optiga-trust-charge/optiga/externals/mbedtls/library\x509_crt.c **** }
 6454              	 .loc 2 2426 0
 6455 0044 1846     	 mov r0,r3
 6456 0046 1037     	 adds r7,r7,#16
 6457              	.LCFI174:
 6458              	 .cfi_def_cfa_offset 8
 6459 0048 BD46     	 mov sp,r7
 6460              	.LCFI175:
 6461              	 .cfi_def_cfa_register 13
 6462              	 
 6463 004a 80BD     	 pop {r7,pc}
 6464              	 .cfi_endproc
 6465              	.LFE41:
 6467              	 .section .rodata
 6468 0727 00       	 .align 2
 6469              	.LC61:
 6470 0728 55040300 	 .ascii "U\004\003\000"
 6471              	 .section .text.x509_crt_verify_name,"ax",%progbits
 6472              	 .align 2
 6473              	 .thumb
 6474              	 .thumb_func
 6476              	x509_crt_verify_name:
 6477              	.LFB42:
2427:C:/Users/Yushev/git/wpcqi-optiga-trust-charge/optiga/externals/mbedtls/library\x509_crt.c **** 
2428:C:/Users/Yushev/git/wpcqi-optiga-trust-charge/optiga/externals/mbedtls/library\x509_crt.c **** /*
2429:C:/Users/Yushev/git/wpcqi-optiga-trust-charge/optiga/externals/mbedtls/library\x509_crt.c ****  * Verify the requested CN - only call this if cn is not NULL!
2430:C:/Users/Yushev/git/wpcqi-optiga-trust-charge/optiga/externals/mbedtls/library\x509_crt.c ****  */
2431:C:/Users/Yushev/git/wpcqi-optiga-trust-charge/optiga/externals/mbedtls/library\x509_crt.c **** static void x509_crt_verify_name( const mbedtls_x509_crt *crt,
2432:C:/Users/Yushev/git/wpcqi-optiga-trust-charge/optiga/externals/mbedtls/library\x509_crt.c ****                                   const char *cn,
2433:C:/Users/Yushev/git/wpcqi-optiga-trust-charge/optiga/externals/mbedtls/library\x509_crt.c ****                                   uint32_t *flags )
2434:C:/Users/Yushev/git/wpcqi-optiga-trust-charge/optiga/externals/mbedtls/library\x509_crt.c **** {
 6478              	 .loc 2 2434 0
 6479              	 .cfi_startproc
 6480              	 
 6481              	 
 6482 0000 80B5     	 push {r7,lr}
 6483              	.LCFI176:
 6484              	 .cfi_def_cfa_offset 8
 6485              	 .cfi_offset 7,-8
 6486              	 .cfi_offset 14,-4
 6487 0002 88B0     	 sub sp,sp,#32
 6488              	.LCFI177:
 6489              	 .cfi_def_cfa_offset 40
 6490 0004 00AF     	 add r7,sp,#0
 6491              	.LCFI178:
 6492              	 .cfi_def_cfa_register 7
 6493 0006 F860     	 str r0,[r7,#12]
 6494 0008 B960     	 str r1,[r7,#8]
 6495 000a 7A60     	 str r2,[r7,#4]
2435:C:/Users/Yushev/git/wpcqi-optiga-trust-charge/optiga/externals/mbedtls/library\x509_crt.c ****     const mbedtls_x509_name *name;
2436:C:/Users/Yushev/git/wpcqi-optiga-trust-charge/optiga/externals/mbedtls/library\x509_crt.c ****     const mbedtls_x509_sequence *cur;
2437:C:/Users/Yushev/git/wpcqi-optiga-trust-charge/optiga/externals/mbedtls/library\x509_crt.c ****     size_t cn_len = strlen( cn );
 6496              	 .loc 2 2437 0
 6497 000c B868     	 ldr r0,[r7,#8]
 6498 000e FFF7FEFF 	 bl strlen
 6499 0012 7861     	 str r0,[r7,#20]
2438:C:/Users/Yushev/git/wpcqi-optiga-trust-charge/optiga/externals/mbedtls/library\x509_crt.c **** 
2439:C:/Users/Yushev/git/wpcqi-optiga-trust-charge/optiga/externals/mbedtls/library\x509_crt.c ****     if( crt->ext_types & MBEDTLS_X509_EXT_SUBJECT_ALT_NAME )
 6500              	 .loc 2 2439 0
 6501 0014 FB68     	 ldr r3,[r7,#12]
 6502 0016 D3F8F830 	 ldr r3,[r3,#248]
 6503 001a 03F02003 	 and r3,r3,#32
 6504 001e 002B     	 cmp r3,#0
 6505 0020 1DD0     	 beq .L428
2440:C:/Users/Yushev/git/wpcqi-optiga-trust-charge/optiga/externals/mbedtls/library\x509_crt.c ****     {
2441:C:/Users/Yushev/git/wpcqi-optiga-trust-charge/optiga/externals/mbedtls/library\x509_crt.c ****         for( cur = &crt->subject_alt_names; cur != NULL; cur = cur->next )
 6506              	 .loc 2 2441 0
 6507 0022 FB68     	 ldr r3,[r7,#12]
 6508 0024 E833     	 adds r3,r3,#232
 6509 0026 BB61     	 str r3,[r7,#24]
 6510 0028 0CE0     	 b .L429
 6511              	.L432:
2442:C:/Users/Yushev/git/wpcqi-optiga-trust-charge/optiga/externals/mbedtls/library\x509_crt.c ****         {
2443:C:/Users/Yushev/git/wpcqi-optiga-trust-charge/optiga/externals/mbedtls/library\x509_crt.c ****             if( x509_crt_check_cn( &cur->buf, cn, cn_len ) == 0 )
 6512              	 .loc 2 2443 0
 6513 002a BB69     	 ldr r3,[r7,#24]
 6514 002c 1846     	 mov r0,r3
 6515 002e B968     	 ldr r1,[r7,#8]
 6516 0030 7A69     	 ldr r2,[r7,#20]
 6517 0032 FFF7FEFF 	 bl x509_crt_check_cn
 6518 0036 0346     	 mov r3,r0
 6519 0038 002B     	 cmp r3,#0
 6520 003a 00D1     	 bne .L430
2444:C:/Users/Yushev/git/wpcqi-optiga-trust-charge/optiga/externals/mbedtls/library\x509_crt.c ****                 break;
 6521              	 .loc 2 2444 0
 6522 003c 05E0     	 b .L431
 6523              	.L430:
2441:C:/Users/Yushev/git/wpcqi-optiga-trust-charge/optiga/externals/mbedtls/library\x509_crt.c ****         {
 6524              	 .loc 2 2441 0 discriminator 2
 6525 003e BB69     	 ldr r3,[r7,#24]
 6526 0040 DB68     	 ldr r3,[r3,#12]
 6527 0042 BB61     	 str r3,[r7,#24]
 6528              	.L429:
2441:C:/Users/Yushev/git/wpcqi-optiga-trust-charge/optiga/externals/mbedtls/library\x509_crt.c ****         {
 6529              	 .loc 2 2441 0 is_stmt 0 discriminator 1
 6530 0044 BB69     	 ldr r3,[r7,#24]
 6531 0046 002B     	 cmp r3,#0
 6532 0048 EFD1     	 bne .L432
 6533              	.L431:
2445:C:/Users/Yushev/git/wpcqi-optiga-trust-charge/optiga/externals/mbedtls/library\x509_crt.c ****         }
2446:C:/Users/Yushev/git/wpcqi-optiga-trust-charge/optiga/externals/mbedtls/library\x509_crt.c **** 
2447:C:/Users/Yushev/git/wpcqi-optiga-trust-charge/optiga/externals/mbedtls/library\x509_crt.c ****         if( cur == NULL )
 6534              	 .loc 2 2447 0 is_stmt 1
 6535 004a BB69     	 ldr r3,[r7,#24]
 6536 004c 002B     	 cmp r3,#0
 6537 004e 39D1     	 bne .L427
2448:C:/Users/Yushev/git/wpcqi-optiga-trust-charge/optiga/externals/mbedtls/library\x509_crt.c ****             *flags |= MBEDTLS_X509_BADCERT_CN_MISMATCH;
 6538              	 .loc 2 2448 0
 6539 0050 7B68     	 ldr r3,[r7,#4]
 6540 0052 1B68     	 ldr r3,[r3]
 6541 0054 43F00402 	 orr r2,r3,#4
 6542 0058 7B68     	 ldr r3,[r7,#4]
 6543 005a 1A60     	 str r2,[r3]
 6544 005c 32E0     	 b .L427
 6545              	.L428:
2449:C:/Users/Yushev/git/wpcqi-optiga-trust-charge/optiga/externals/mbedtls/library\x509_crt.c ****     }
2450:C:/Users/Yushev/git/wpcqi-optiga-trust-charge/optiga/externals/mbedtls/library\x509_crt.c ****     else
2451:C:/Users/Yushev/git/wpcqi-optiga-trust-charge/optiga/externals/mbedtls/library\x509_crt.c ****     {
2452:C:/Users/Yushev/git/wpcqi-optiga-trust-charge/optiga/externals/mbedtls/library\x509_crt.c ****         for( name = &crt->subject; name != NULL; name = name->next )
 6546              	 .loc 2 2452 0
 6547 005e FB68     	 ldr r3,[r7,#12]
 6548 0060 6C33     	 adds r3,r3,#108
 6549 0062 FB61     	 str r3,[r7,#28]
 6550 0064 22E0     	 b .L435
 6551              	.L441:
2453:C:/Users/Yushev/git/wpcqi-optiga-trust-charge/optiga/externals/mbedtls/library\x509_crt.c ****         {
2454:C:/Users/Yushev/git/wpcqi-optiga-trust-charge/optiga/externals/mbedtls/library\x509_crt.c ****             if( MBEDTLS_OID_CMP( MBEDTLS_OID_AT_CN, &name->oid ) == 0 &&
 6552              	 .loc 2 2454 0
 6553 0066 FB69     	 ldr r3,[r7,#28]
 6554 0068 5B68     	 ldr r3,[r3,#4]
 6555 006a 032B     	 cmp r3,#3
 6556 006c 0BD1     	 bne .L436
 6557              	 .loc 2 2454 0 is_stmt 0 discriminator 2
 6558 006e FB69     	 ldr r3,[r7,#28]
 6559 0070 9A68     	 ldr r2,[r3,#8]
 6560 0072 FB69     	 ldr r3,[r7,#28]
 6561 0074 5B68     	 ldr r3,[r3,#4]
 6562 0076 1548     	 ldr r0,.L442
 6563 0078 1146     	 mov r1,r2
 6564 007a 1A46     	 mov r2,r3
 6565 007c FFF7FEFF 	 bl memcmp
 6566 0080 0346     	 mov r3,r0
 6567 0082 002B     	 cmp r3,#0
 6568 0084 01D0     	 beq .L437
 6569              	.L436:
 6570              	 .loc 2 2454 0 discriminator 3
 6571 0086 0123     	 movs r3,#1
 6572 0088 00E0     	 b .L438
 6573              	.L437:
 6574              	 .loc 2 2454 0 discriminator 4
 6575 008a 0023     	 movs r3,#0
 6576              	.L438:
 6577              	 .loc 2 2454 0 discriminator 6
 6578 008c 002B     	 cmp r3,#0
 6579 008e 0AD1     	 bne .L439
2455:C:/Users/Yushev/git/wpcqi-optiga-trust-charge/optiga/externals/mbedtls/library\x509_crt.c ****                 x509_crt_check_cn( &name->val, cn, cn_len ) == 0 )
 6580              	 .loc 2 2455 0 is_stmt 1 discriminator 7
 6581 0090 FB69     	 ldr r3,[r7,#28]
 6582 0092 0C33     	 adds r3,r3,#12
 6583 0094 1846     	 mov r0,r3
 6584 0096 B968     	 ldr r1,[r7,#8]
 6585 0098 7A69     	 ldr r2,[r7,#20]
 6586 009a FFF7FEFF 	 bl x509_crt_check_cn
 6587 009e 0346     	 mov r3,r0
2454:C:/Users/Yushev/git/wpcqi-optiga-trust-charge/optiga/externals/mbedtls/library\x509_crt.c ****                 x509_crt_check_cn( &name->val, cn, cn_len ) == 0 )
 6588              	 .loc 2 2454 0 discriminator 7
 6589 00a0 002B     	 cmp r3,#0
 6590 00a2 00D1     	 bne .L439
2456:C:/Users/Yushev/git/wpcqi-optiga-trust-charge/optiga/externals/mbedtls/library\x509_crt.c ****             {
2457:C:/Users/Yushev/git/wpcqi-optiga-trust-charge/optiga/externals/mbedtls/library\x509_crt.c ****                 break;
 6591              	 .loc 2 2457 0
 6592 00a4 05E0     	 b .L440
 6593              	.L439:
2452:C:/Users/Yushev/git/wpcqi-optiga-trust-charge/optiga/externals/mbedtls/library\x509_crt.c ****         {
 6594              	 .loc 2 2452 0 discriminator 2
 6595 00a6 FB69     	 ldr r3,[r7,#28]
 6596 00a8 9B69     	 ldr r3,[r3,#24]
 6597 00aa FB61     	 str r3,[r7,#28]
 6598              	.L435:
2452:C:/Users/Yushev/git/wpcqi-optiga-trust-charge/optiga/externals/mbedtls/library\x509_crt.c ****         {
 6599              	 .loc 2 2452 0 is_stmt 0 discriminator 1
 6600 00ac FB69     	 ldr r3,[r7,#28]
 6601 00ae 002B     	 cmp r3,#0
 6602 00b0 D9D1     	 bne .L441
 6603              	.L440:
2458:C:/Users/Yushev/git/wpcqi-optiga-trust-charge/optiga/externals/mbedtls/library\x509_crt.c ****             }
2459:C:/Users/Yushev/git/wpcqi-optiga-trust-charge/optiga/externals/mbedtls/library\x509_crt.c ****         }
2460:C:/Users/Yushev/git/wpcqi-optiga-trust-charge/optiga/externals/mbedtls/library\x509_crt.c **** 
2461:C:/Users/Yushev/git/wpcqi-optiga-trust-charge/optiga/externals/mbedtls/library\x509_crt.c ****         if( name == NULL )
 6604              	 .loc 2 2461 0 is_stmt 1
 6605 00b2 FB69     	 ldr r3,[r7,#28]
 6606 00b4 002B     	 cmp r3,#0
 6607 00b6 05D1     	 bne .L427
2462:C:/Users/Yushev/git/wpcqi-optiga-trust-charge/optiga/externals/mbedtls/library\x509_crt.c ****             *flags |= MBEDTLS_X509_BADCERT_CN_MISMATCH;
 6608              	 .loc 2 2462 0
 6609 00b8 7B68     	 ldr r3,[r7,#4]
 6610 00ba 1B68     	 ldr r3,[r3]
 6611 00bc 43F00402 	 orr r2,r3,#4
 6612 00c0 7B68     	 ldr r3,[r7,#4]
 6613 00c2 1A60     	 str r2,[r3]
 6614              	.L427:
2463:C:/Users/Yushev/git/wpcqi-optiga-trust-charge/optiga/externals/mbedtls/library\x509_crt.c ****     }
2464:C:/Users/Yushev/git/wpcqi-optiga-trust-charge/optiga/externals/mbedtls/library\x509_crt.c **** }
 6615              	 .loc 2 2464 0
 6616 00c4 2037     	 adds r7,r7,#32
 6617              	.LCFI179:
 6618              	 .cfi_def_cfa_offset 8
 6619 00c6 BD46     	 mov sp,r7
 6620              	.LCFI180:
 6621              	 .cfi_def_cfa_register 13
 6622              	 
 6623 00c8 80BD     	 pop {r7,pc}
 6624              	.L443:
 6625 00ca 00BF     	 .align 2
 6626              	.L442:
 6627 00cc 28070000 	 .word .LC61
 6628              	 .cfi_endproc
 6629              	.LFE42:
 6631              	 .section .text.x509_crt_merge_flags_with_cb,"ax",%progbits
 6632              	 .align 2
 6633              	 .thumb
 6634              	 .thumb_func
 6636              	x509_crt_merge_flags_with_cb:
 6637              	.LFB43:
2465:C:/Users/Yushev/git/wpcqi-optiga-trust-charge/optiga/externals/mbedtls/library\x509_crt.c **** 
2466:C:/Users/Yushev/git/wpcqi-optiga-trust-charge/optiga/externals/mbedtls/library\x509_crt.c **** /*
2467:C:/Users/Yushev/git/wpcqi-optiga-trust-charge/optiga/externals/mbedtls/library\x509_crt.c ****  * Merge the flags for all certs in the chain, after calling callback
2468:C:/Users/Yushev/git/wpcqi-optiga-trust-charge/optiga/externals/mbedtls/library\x509_crt.c ****  */
2469:C:/Users/Yushev/git/wpcqi-optiga-trust-charge/optiga/externals/mbedtls/library\x509_crt.c **** static int x509_crt_merge_flags_with_cb(
2470:C:/Users/Yushev/git/wpcqi-optiga-trust-charge/optiga/externals/mbedtls/library\x509_crt.c ****            uint32_t *flags,
2471:C:/Users/Yushev/git/wpcqi-optiga-trust-charge/optiga/externals/mbedtls/library\x509_crt.c ****            const mbedtls_x509_crt_verify_chain *ver_chain,
2472:C:/Users/Yushev/git/wpcqi-optiga-trust-charge/optiga/externals/mbedtls/library\x509_crt.c ****            int (*f_vrfy)(void *, mbedtls_x509_crt *, int, uint32_t *),
2473:C:/Users/Yushev/git/wpcqi-optiga-trust-charge/optiga/externals/mbedtls/library\x509_crt.c ****            void *p_vrfy )
2474:C:/Users/Yushev/git/wpcqi-optiga-trust-charge/optiga/externals/mbedtls/library\x509_crt.c **** {
 6638              	 .loc 2 2474 0
 6639              	 .cfi_startproc
 6640              	 
 6641              	 
 6642 0000 90B5     	 push {r4,r7,lr}
 6643              	.LCFI181:
 6644              	 .cfi_def_cfa_offset 12
 6645              	 .cfi_offset 4,-12
 6646              	 .cfi_offset 7,-8
 6647              	 .cfi_offset 14,-4
 6648 0002 89B0     	 sub sp,sp,#36
 6649              	.LCFI182:
 6650              	 .cfi_def_cfa_offset 48
 6651 0004 00AF     	 add r7,sp,#0
 6652              	.LCFI183:
 6653              	 .cfi_def_cfa_register 7
 6654 0006 F860     	 str r0,[r7,#12]
 6655 0008 B960     	 str r1,[r7,#8]
 6656 000a 7A60     	 str r2,[r7,#4]
 6657 000c 3B60     	 str r3,[r7]
2475:C:/Users/Yushev/git/wpcqi-optiga-trust-charge/optiga/externals/mbedtls/library\x509_crt.c ****     int ret;
2476:C:/Users/Yushev/git/wpcqi-optiga-trust-charge/optiga/externals/mbedtls/library\x509_crt.c ****     unsigned i;
2477:C:/Users/Yushev/git/wpcqi-optiga-trust-charge/optiga/externals/mbedtls/library\x509_crt.c ****     uint32_t cur_flags;
2478:C:/Users/Yushev/git/wpcqi-optiga-trust-charge/optiga/externals/mbedtls/library\x509_crt.c ****     const mbedtls_x509_crt_verify_chain_item *cur;
2479:C:/Users/Yushev/git/wpcqi-optiga-trust-charge/optiga/externals/mbedtls/library\x509_crt.c **** 
2480:C:/Users/Yushev/git/wpcqi-optiga-trust-charge/optiga/externals/mbedtls/library\x509_crt.c ****     for( i = ver_chain->len; i != 0; --i )
 6658              	 .loc 2 2480 0
 6659 000e BB68     	 ldr r3,[r7,#8]
 6660 0010 1B6D     	 ldr r3,[r3,#80]
 6661 0012 FB61     	 str r3,[r7,#28]
 6662 0014 23E0     	 b .L445
 6663              	.L448:
2481:C:/Users/Yushev/git/wpcqi-optiga-trust-charge/optiga/externals/mbedtls/library\x509_crt.c ****     {
2482:C:/Users/Yushev/git/wpcqi-optiga-trust-charge/optiga/externals/mbedtls/library\x509_crt.c ****         cur = &ver_chain->items[i-1];
 6664              	 .loc 2 2482 0
 6665 0016 FB69     	 ldr r3,[r7,#28]
 6666 0018 013B     	 subs r3,r3,#1
 6667 001a DB00     	 lsls r3,r3,#3
 6668 001c BA68     	 ldr r2,[r7,#8]
 6669 001e 1344     	 add r3,r3,r2
 6670 0020 BB61     	 str r3,[r7,#24]
2483:C:/Users/Yushev/git/wpcqi-optiga-trust-charge/optiga/externals/mbedtls/library\x509_crt.c ****         cur_flags = cur->flags;
 6671              	 .loc 2 2483 0
 6672 0022 BB69     	 ldr r3,[r7,#24]
 6673 0024 5B68     	 ldr r3,[r3,#4]
 6674 0026 3B61     	 str r3,[r7,#16]
2484:C:/Users/Yushev/git/wpcqi-optiga-trust-charge/optiga/externals/mbedtls/library\x509_crt.c **** 
2485:C:/Users/Yushev/git/wpcqi-optiga-trust-charge/optiga/externals/mbedtls/library\x509_crt.c ****         if( NULL != f_vrfy )
 6675              	 .loc 2 2485 0
 6676 0028 7B68     	 ldr r3,[r7,#4]
 6677 002a 002B     	 cmp r3,#0
 6678 002c 0ED0     	 beq .L446
2486:C:/Users/Yushev/git/wpcqi-optiga-trust-charge/optiga/externals/mbedtls/library\x509_crt.c ****             if( ( ret = f_vrfy( p_vrfy, cur->crt, (int) i-1, &cur_flags ) ) != 0 )
 6679              	 .loc 2 2486 0
 6680 002e BB69     	 ldr r3,[r7,#24]
 6681 0030 1968     	 ldr r1,[r3]
 6682 0032 FB69     	 ldr r3,[r7,#28]
 6683 0034 5A1E     	 subs r2,r3,#1
 6684 0036 07F11003 	 add r3,r7,#16
 6685 003a 7C68     	 ldr r4,[r7,#4]
 6686 003c 3868     	 ldr r0,[r7]
 6687 003e A047     	 blx r4
 6688 0040 7861     	 str r0,[r7,#20]
 6689 0042 7B69     	 ldr r3,[r7,#20]
 6690 0044 002B     	 cmp r3,#0
 6691 0046 01D0     	 beq .L446
2487:C:/Users/Yushev/git/wpcqi-optiga-trust-charge/optiga/externals/mbedtls/library\x509_crt.c ****                 return( ret );
 6692              	 .loc 2 2487 0
 6693 0048 7B69     	 ldr r3,[r7,#20]
 6694 004a 0CE0     	 b .L449
 6695              	.L446:
2488:C:/Users/Yushev/git/wpcqi-optiga-trust-charge/optiga/externals/mbedtls/library\x509_crt.c **** 
2489:C:/Users/Yushev/git/wpcqi-optiga-trust-charge/optiga/externals/mbedtls/library\x509_crt.c ****         *flags |= cur_flags;
 6696              	 .loc 2 2489 0 discriminator 2
 6697 004c FB68     	 ldr r3,[r7,#12]
 6698 004e 1A68     	 ldr r2,[r3]
 6699 0050 3B69     	 ldr r3,[r7,#16]
 6700 0052 1A43     	 orrs r2,r2,r3
 6701 0054 FB68     	 ldr r3,[r7,#12]
 6702 0056 1A60     	 str r2,[r3]
2480:C:/Users/Yushev/git/wpcqi-optiga-trust-charge/optiga/externals/mbedtls/library\x509_crt.c ****     {
 6703              	 .loc 2 2480 0 discriminator 2
 6704 0058 FB69     	 ldr r3,[r7,#28]
 6705 005a 013B     	 subs r3,r3,#1
 6706 005c FB61     	 str r3,[r7,#28]
 6707              	.L445:
2480:C:/Users/Yushev/git/wpcqi-optiga-trust-charge/optiga/externals/mbedtls/library\x509_crt.c ****     {
 6708              	 .loc 2 2480 0 is_stmt 0 discriminator 1
 6709 005e FB69     	 ldr r3,[r7,#28]
 6710 0060 002B     	 cmp r3,#0
 6711 0062 D8D1     	 bne .L448
2490:C:/Users/Yushev/git/wpcqi-optiga-trust-charge/optiga/externals/mbedtls/library\x509_crt.c ****     }
2491:C:/Users/Yushev/git/wpcqi-optiga-trust-charge/optiga/externals/mbedtls/library\x509_crt.c **** 
2492:C:/Users/Yushev/git/wpcqi-optiga-trust-charge/optiga/externals/mbedtls/library\x509_crt.c ****     return( 0 );
 6712              	 .loc 2 2492 0 is_stmt 1
 6713 0064 0023     	 movs r3,#0
 6714              	.L449:
2493:C:/Users/Yushev/git/wpcqi-optiga-trust-charge/optiga/externals/mbedtls/library\x509_crt.c **** }
 6715              	 .loc 2 2493 0 discriminator 1
 6716 0066 1846     	 mov r0,r3
 6717 0068 2437     	 adds r7,r7,#36
 6718              	.LCFI184:
 6719              	 .cfi_def_cfa_offset 12
 6720 006a BD46     	 mov sp,r7
 6721              	.LCFI185:
 6722              	 .cfi_def_cfa_register 13
 6723              	 
 6724 006c 90BD     	 pop {r4,r7,pc}
 6725              	 .cfi_endproc
 6726              	.LFE43:
 6728 006e 00BF     	 .section .text.mbedtls_x509_crt_verify,"ax",%progbits
 6729              	 .align 2
 6730              	 .global mbedtls_x509_crt_verify
 6731              	 .thumb
 6732              	 .thumb_func
 6734              	mbedtls_x509_crt_verify:
 6735              	.LFB44:
2494:C:/Users/Yushev/git/wpcqi-optiga-trust-charge/optiga/externals/mbedtls/library\x509_crt.c **** 
2495:C:/Users/Yushev/git/wpcqi-optiga-trust-charge/optiga/externals/mbedtls/library\x509_crt.c **** /*
2496:C:/Users/Yushev/git/wpcqi-optiga-trust-charge/optiga/externals/mbedtls/library\x509_crt.c ****  * Verify the certificate validity (default profile, not restartable)
2497:C:/Users/Yushev/git/wpcqi-optiga-trust-charge/optiga/externals/mbedtls/library\x509_crt.c ****  */
2498:C:/Users/Yushev/git/wpcqi-optiga-trust-charge/optiga/externals/mbedtls/library\x509_crt.c **** int mbedtls_x509_crt_verify( mbedtls_x509_crt *crt,
2499:C:/Users/Yushev/git/wpcqi-optiga-trust-charge/optiga/externals/mbedtls/library\x509_crt.c ****                      mbedtls_x509_crt *trust_ca,
2500:C:/Users/Yushev/git/wpcqi-optiga-trust-charge/optiga/externals/mbedtls/library\x509_crt.c ****                      mbedtls_x509_crl *ca_crl,
2501:C:/Users/Yushev/git/wpcqi-optiga-trust-charge/optiga/externals/mbedtls/library\x509_crt.c ****                      const char *cn, uint32_t *flags,
2502:C:/Users/Yushev/git/wpcqi-optiga-trust-charge/optiga/externals/mbedtls/library\x509_crt.c ****                      int (*f_vrfy)(void *, mbedtls_x509_crt *, int, uint32_t *),
2503:C:/Users/Yushev/git/wpcqi-optiga-trust-charge/optiga/externals/mbedtls/library\x509_crt.c ****                      void *p_vrfy )
2504:C:/Users/Yushev/git/wpcqi-optiga-trust-charge/optiga/externals/mbedtls/library\x509_crt.c **** {
 6736              	 .loc 2 2504 0
 6737              	 .cfi_startproc
 6738              	 
 6739              	 
 6740 0000 80B5     	 push {r7,lr}
 6741              	.LCFI186:
 6742              	 .cfi_def_cfa_offset 8
 6743              	 .cfi_offset 7,-8
 6744              	 .cfi_offset 14,-4
 6745 0002 8AB0     	 sub sp,sp,#40
 6746              	.LCFI187:
 6747              	 .cfi_def_cfa_offset 48
 6748 0004 06AF     	 add r7,sp,#24
 6749              	.LCFI188:
 6750              	 .cfi_def_cfa 7,24
 6751 0006 F860     	 str r0,[r7,#12]
 6752 0008 B960     	 str r1,[r7,#8]
 6753 000a 7A60     	 str r2,[r7,#4]
 6754 000c 3B60     	 str r3,[r7]
2505:C:/Users/Yushev/git/wpcqi-optiga-trust-charge/optiga/externals/mbedtls/library\x509_crt.c ****     return( mbedtls_x509_crt_verify_restartable( crt, trust_ca, ca_crl,
 6755              	 .loc 2 2505 0
 6756 000e 3B68     	 ldr r3,[r7]
 6757 0010 0093     	 str r3,[sp]
 6758 0012 BB69     	 ldr r3,[r7,#24]
 6759 0014 0193     	 str r3,[sp,#4]
 6760 0016 FB69     	 ldr r3,[r7,#28]
 6761 0018 0293     	 str r3,[sp,#8]
 6762 001a 3B6A     	 ldr r3,[r7,#32]
 6763 001c 0393     	 str r3,[sp,#12]
 6764 001e 0023     	 movs r3,#0
 6765 0020 0493     	 str r3,[sp,#16]
 6766 0022 F868     	 ldr r0,[r7,#12]
 6767 0024 B968     	 ldr r1,[r7,#8]
 6768 0026 7A68     	 ldr r2,[r7,#4]
 6769 0028 034B     	 ldr r3,.L452
 6770 002a FFF7FEFF 	 bl mbedtls_x509_crt_verify_restartable
 6771 002e 0346     	 mov r3,r0
2506:C:/Users/Yushev/git/wpcqi-optiga-trust-charge/optiga/externals/mbedtls/library\x509_crt.c ****                 &mbedtls_x509_crt_profile_default, cn, flags,
2507:C:/Users/Yushev/git/wpcqi-optiga-trust-charge/optiga/externals/mbedtls/library\x509_crt.c ****                 f_vrfy, p_vrfy, NULL ) );
2508:C:/Users/Yushev/git/wpcqi-optiga-trust-charge/optiga/externals/mbedtls/library\x509_crt.c **** }
 6772              	 .loc 2 2508 0
 6773 0030 1846     	 mov r0,r3
 6774 0032 1037     	 adds r7,r7,#16
 6775              	.LCFI189:
 6776              	 .cfi_def_cfa_offset 8
 6777 0034 BD46     	 mov sp,r7
 6778              	.LCFI190:
 6779              	 .cfi_def_cfa_register 13
 6780              	 
 6781 0036 80BD     	 pop {r7,pc}
 6782              	.L453:
 6783              	 .align 2
 6784              	.L452:
 6785 0038 00000000 	 .word mbedtls_x509_crt_profile_default
 6786              	 .cfi_endproc
 6787              	.LFE44:
 6789              	 .section .text.mbedtls_x509_crt_verify_with_profile,"ax",%progbits
 6790              	 .align 2
 6791              	 .global mbedtls_x509_crt_verify_with_profile
 6792              	 .thumb
 6793              	 .thumb_func
 6795              	mbedtls_x509_crt_verify_with_profile:
 6796              	.LFB45:
2509:C:/Users/Yushev/git/wpcqi-optiga-trust-charge/optiga/externals/mbedtls/library\x509_crt.c **** 
2510:C:/Users/Yushev/git/wpcqi-optiga-trust-charge/optiga/externals/mbedtls/library\x509_crt.c **** /*
2511:C:/Users/Yushev/git/wpcqi-optiga-trust-charge/optiga/externals/mbedtls/library\x509_crt.c ****  * Verify the certificate validity (user-chosen profile, not restartable)
2512:C:/Users/Yushev/git/wpcqi-optiga-trust-charge/optiga/externals/mbedtls/library\x509_crt.c ****  */
2513:C:/Users/Yushev/git/wpcqi-optiga-trust-charge/optiga/externals/mbedtls/library\x509_crt.c **** int mbedtls_x509_crt_verify_with_profile( mbedtls_x509_crt *crt,
2514:C:/Users/Yushev/git/wpcqi-optiga-trust-charge/optiga/externals/mbedtls/library\x509_crt.c ****                      mbedtls_x509_crt *trust_ca,
2515:C:/Users/Yushev/git/wpcqi-optiga-trust-charge/optiga/externals/mbedtls/library\x509_crt.c ****                      mbedtls_x509_crl *ca_crl,
2516:C:/Users/Yushev/git/wpcqi-optiga-trust-charge/optiga/externals/mbedtls/library\x509_crt.c ****                      const mbedtls_x509_crt_profile *profile,
2517:C:/Users/Yushev/git/wpcqi-optiga-trust-charge/optiga/externals/mbedtls/library\x509_crt.c ****                      const char *cn, uint32_t *flags,
2518:C:/Users/Yushev/git/wpcqi-optiga-trust-charge/optiga/externals/mbedtls/library\x509_crt.c ****                      int (*f_vrfy)(void *, mbedtls_x509_crt *, int, uint32_t *),
2519:C:/Users/Yushev/git/wpcqi-optiga-trust-charge/optiga/externals/mbedtls/library\x509_crt.c ****                      void *p_vrfy )
2520:C:/Users/Yushev/git/wpcqi-optiga-trust-charge/optiga/externals/mbedtls/library\x509_crt.c **** {
 6797              	 .loc 2 2520 0
 6798              	 .cfi_startproc
 6799              	 
 6800              	 
 6801 0000 80B5     	 push {r7,lr}
 6802              	.LCFI191:
 6803              	 .cfi_def_cfa_offset 8
 6804              	 .cfi_offset 7,-8
 6805              	 .cfi_offset 14,-4
 6806 0002 8AB0     	 sub sp,sp,#40
 6807              	.LCFI192:
 6808              	 .cfi_def_cfa_offset 48
 6809 0004 06AF     	 add r7,sp,#24
 6810              	.LCFI193:
 6811              	 .cfi_def_cfa 7,24
 6812 0006 F860     	 str r0,[r7,#12]
 6813 0008 B960     	 str r1,[r7,#8]
 6814 000a 7A60     	 str r2,[r7,#4]
 6815 000c 3B60     	 str r3,[r7]
2521:C:/Users/Yushev/git/wpcqi-optiga-trust-charge/optiga/externals/mbedtls/library\x509_crt.c ****     return( mbedtls_x509_crt_verify_restartable( crt, trust_ca, ca_crl,
 6816              	 .loc 2 2521 0
 6817 000e BB69     	 ldr r3,[r7,#24]
 6818 0010 0093     	 str r3,[sp]
 6819 0012 FB69     	 ldr r3,[r7,#28]
 6820 0014 0193     	 str r3,[sp,#4]
 6821 0016 3B6A     	 ldr r3,[r7,#32]
 6822 0018 0293     	 str r3,[sp,#8]
 6823 001a 7B6A     	 ldr r3,[r7,#36]
 6824 001c 0393     	 str r3,[sp,#12]
 6825 001e 0023     	 movs r3,#0
 6826 0020 0493     	 str r3,[sp,#16]
 6827 0022 F868     	 ldr r0,[r7,#12]
 6828 0024 B968     	 ldr r1,[r7,#8]
 6829 0026 7A68     	 ldr r2,[r7,#4]
 6830 0028 3B68     	 ldr r3,[r7]
 6831 002a FFF7FEFF 	 bl mbedtls_x509_crt_verify_restartable
 6832 002e 0346     	 mov r3,r0
2522:C:/Users/Yushev/git/wpcqi-optiga-trust-charge/optiga/externals/mbedtls/library\x509_crt.c ****                 profile, cn, flags, f_vrfy, p_vrfy, NULL ) );
2523:C:/Users/Yushev/git/wpcqi-optiga-trust-charge/optiga/externals/mbedtls/library\x509_crt.c **** }
 6833              	 .loc 2 2523 0
 6834 0030 1846     	 mov r0,r3
 6835 0032 1037     	 adds r7,r7,#16
 6836              	.LCFI194:
 6837              	 .cfi_def_cfa_offset 8
 6838 0034 BD46     	 mov sp,r7
 6839              	.LCFI195:
 6840              	 .cfi_def_cfa_register 13
 6841              	 
 6842 0036 80BD     	 pop {r7,pc}
 6843              	 .cfi_endproc
 6844              	.LFE45:
 6846              	 .section .text.mbedtls_x509_crt_verify_restartable,"ax",%progbits
 6847              	 .align 2
 6848              	 .global mbedtls_x509_crt_verify_restartable
 6849              	 .thumb
 6850              	 .thumb_func
 6852              	mbedtls_x509_crt_verify_restartable:
 6853              	.LFB46:
2524:C:/Users/Yushev/git/wpcqi-optiga-trust-charge/optiga/externals/mbedtls/library\x509_crt.c **** 
2525:C:/Users/Yushev/git/wpcqi-optiga-trust-charge/optiga/externals/mbedtls/library\x509_crt.c **** /*
2526:C:/Users/Yushev/git/wpcqi-optiga-trust-charge/optiga/externals/mbedtls/library\x509_crt.c ****  * Verify the certificate validity, with profile, restartable version
2527:C:/Users/Yushev/git/wpcqi-optiga-trust-charge/optiga/externals/mbedtls/library\x509_crt.c ****  *
2528:C:/Users/Yushev/git/wpcqi-optiga-trust-charge/optiga/externals/mbedtls/library\x509_crt.c ****  * This function:
2529:C:/Users/Yushev/git/wpcqi-optiga-trust-charge/optiga/externals/mbedtls/library\x509_crt.c ****  *  - checks the requested CN (if any)
2530:C:/Users/Yushev/git/wpcqi-optiga-trust-charge/optiga/externals/mbedtls/library\x509_crt.c ****  *  - checks the type and size of the EE cert's key,
2531:C:/Users/Yushev/git/wpcqi-optiga-trust-charge/optiga/externals/mbedtls/library\x509_crt.c ****  *    as that isn't done as part of chain building/verification currently
2532:C:/Users/Yushev/git/wpcqi-optiga-trust-charge/optiga/externals/mbedtls/library\x509_crt.c ****  *  - builds and verifies the chain
2533:C:/Users/Yushev/git/wpcqi-optiga-trust-charge/optiga/externals/mbedtls/library\x509_crt.c ****  *  - then calls the callback and merges the flags
2534:C:/Users/Yushev/git/wpcqi-optiga-trust-charge/optiga/externals/mbedtls/library\x509_crt.c ****  */
2535:C:/Users/Yushev/git/wpcqi-optiga-trust-charge/optiga/externals/mbedtls/library\x509_crt.c **** int mbedtls_x509_crt_verify_restartable( mbedtls_x509_crt *crt,
2536:C:/Users/Yushev/git/wpcqi-optiga-trust-charge/optiga/externals/mbedtls/library\x509_crt.c ****                      mbedtls_x509_crt *trust_ca,
2537:C:/Users/Yushev/git/wpcqi-optiga-trust-charge/optiga/externals/mbedtls/library\x509_crt.c ****                      mbedtls_x509_crl *ca_crl,
2538:C:/Users/Yushev/git/wpcqi-optiga-trust-charge/optiga/externals/mbedtls/library\x509_crt.c ****                      const mbedtls_x509_crt_profile *profile,
2539:C:/Users/Yushev/git/wpcqi-optiga-trust-charge/optiga/externals/mbedtls/library\x509_crt.c ****                      const char *cn, uint32_t *flags,
2540:C:/Users/Yushev/git/wpcqi-optiga-trust-charge/optiga/externals/mbedtls/library\x509_crt.c ****                      int (*f_vrfy)(void *, mbedtls_x509_crt *, int, uint32_t *),
2541:C:/Users/Yushev/git/wpcqi-optiga-trust-charge/optiga/externals/mbedtls/library\x509_crt.c ****                      void *p_vrfy,
2542:C:/Users/Yushev/git/wpcqi-optiga-trust-charge/optiga/externals/mbedtls/library\x509_crt.c ****                      mbedtls_x509_crt_restart_ctx *rs_ctx )
2543:C:/Users/Yushev/git/wpcqi-optiga-trust-charge/optiga/externals/mbedtls/library\x509_crt.c **** {
 6854              	 .loc 2 2543 0
 6855              	 .cfi_startproc
 6856              	 
 6857              	 
 6858 0000 80B5     	 push {r7,lr}
 6859              	.LCFI196:
 6860              	 .cfi_def_cfa_offset 8
 6861              	 .cfi_offset 7,-8
 6862              	 .cfi_offset 14,-4
 6863 0002 9EB0     	 sub sp,sp,#120
 6864              	.LCFI197:
 6865              	 .cfi_def_cfa_offset 128
 6866 0004 02AF     	 add r7,sp,#8
 6867              	.LCFI198:
 6868              	 .cfi_def_cfa 7,120
 6869 0006 F860     	 str r0,[r7,#12]
 6870 0008 B960     	 str r1,[r7,#8]
 6871 000a 7A60     	 str r2,[r7,#4]
 6872 000c 3B60     	 str r3,[r7]
2544:C:/Users/Yushev/git/wpcqi-optiga-trust-charge/optiga/externals/mbedtls/library\x509_crt.c ****     int ret;
2545:C:/Users/Yushev/git/wpcqi-optiga-trust-charge/optiga/externals/mbedtls/library\x509_crt.c ****     mbedtls_pk_type_t pk_type;
2546:C:/Users/Yushev/git/wpcqi-optiga-trust-charge/optiga/externals/mbedtls/library\x509_crt.c ****     mbedtls_x509_crt_verify_chain ver_chain;
2547:C:/Users/Yushev/git/wpcqi-optiga-trust-charge/optiga/externals/mbedtls/library\x509_crt.c ****     uint32_t ee_flags;
2548:C:/Users/Yushev/git/wpcqi-optiga-trust-charge/optiga/externals/mbedtls/library\x509_crt.c **** 
2549:C:/Users/Yushev/git/wpcqi-optiga-trust-charge/optiga/externals/mbedtls/library\x509_crt.c ****     *flags = 0;
 6873              	 .loc 2 2549 0
 6874 000e FB6F     	 ldr r3,[r7,#124]
 6875 0010 0022     	 movs r2,#0
 6876 0012 1A60     	 str r2,[r3]
2550:C:/Users/Yushev/git/wpcqi-optiga-trust-charge/optiga/externals/mbedtls/library\x509_crt.c ****     ee_flags = 0;
 6877              	 .loc 2 2550 0
 6878 0014 0023     	 movs r3,#0
 6879 0016 3B61     	 str r3,[r7,#16]
2551:C:/Users/Yushev/git/wpcqi-optiga-trust-charge/optiga/externals/mbedtls/library\x509_crt.c ****     x509_crt_verify_chain_reset( &ver_chain );
 6880              	 .loc 2 2551 0
 6881 0018 07F11403 	 add r3,r7,#20
 6882 001c 1846     	 mov r0,r3
 6883 001e FFF7FEFF 	 bl x509_crt_verify_chain_reset
2552:C:/Users/Yushev/git/wpcqi-optiga-trust-charge/optiga/externals/mbedtls/library\x509_crt.c **** 
2553:C:/Users/Yushev/git/wpcqi-optiga-trust-charge/optiga/externals/mbedtls/library\x509_crt.c ****     if( profile == NULL )
 6884              	 .loc 2 2553 0
 6885 0022 3B68     	 ldr r3,[r7]
 6886 0024 002B     	 cmp r3,#0
 6887 0026 02D1     	 bne .L457
2554:C:/Users/Yushev/git/wpcqi-optiga-trust-charge/optiga/externals/mbedtls/library\x509_crt.c ****     {
2555:C:/Users/Yushev/git/wpcqi-optiga-trust-charge/optiga/externals/mbedtls/library\x509_crt.c ****         ret = MBEDTLS_ERR_X509_BAD_INPUT_DATA;
 6888              	 .loc 2 2555 0
 6889 0028 344B     	 ldr r3,.L468
 6890 002a FB66     	 str r3,[r7,#108]
2556:C:/Users/Yushev/git/wpcqi-optiga-trust-charge/optiga/externals/mbedtls/library\x509_crt.c ****         goto exit;
 6891              	 .loc 2 2556 0
 6892 002c 4BE0     	 b .L458
 6893              	.L457:
2557:C:/Users/Yushev/git/wpcqi-optiga-trust-charge/optiga/externals/mbedtls/library\x509_crt.c ****     }
2558:C:/Users/Yushev/git/wpcqi-optiga-trust-charge/optiga/externals/mbedtls/library\x509_crt.c **** 
2559:C:/Users/Yushev/git/wpcqi-optiga-trust-charge/optiga/externals/mbedtls/library\x509_crt.c ****     /* check name if requested */
2560:C:/Users/Yushev/git/wpcqi-optiga-trust-charge/optiga/externals/mbedtls/library\x509_crt.c ****     if( cn != NULL )
 6894              	 .loc 2 2560 0
 6895 002e BB6F     	 ldr r3,[r7,#120]
 6896 0030 002B     	 cmp r3,#0
 6897 0032 06D0     	 beq .L459
2561:C:/Users/Yushev/git/wpcqi-optiga-trust-charge/optiga/externals/mbedtls/library\x509_crt.c ****         x509_crt_verify_name( crt, cn, &ee_flags );
 6898              	 .loc 2 2561 0
 6899 0034 07F11003 	 add r3,r7,#16
 6900 0038 F868     	 ldr r0,[r7,#12]
 6901 003a B96F     	 ldr r1,[r7,#120]
 6902 003c 1A46     	 mov r2,r3
 6903 003e FFF7FEFF 	 bl x509_crt_verify_name
 6904              	.L459:
2562:C:/Users/Yushev/git/wpcqi-optiga-trust-charge/optiga/externals/mbedtls/library\x509_crt.c **** 
2563:C:/Users/Yushev/git/wpcqi-optiga-trust-charge/optiga/externals/mbedtls/library\x509_crt.c ****     /* Check the type and size of the key */
2564:C:/Users/Yushev/git/wpcqi-optiga-trust-charge/optiga/externals/mbedtls/library\x509_crt.c ****     pk_type = mbedtls_pk_get_type( &crt->pk );
 6905              	 .loc 2 2564 0
 6906 0042 FB68     	 ldr r3,[r7,#12]
 6907 0044 BC33     	 adds r3,r3,#188
 6908 0046 1846     	 mov r0,r3
 6909 0048 FFF7FEFF 	 bl mbedtls_pk_get_type
 6910 004c 0346     	 mov r3,r0
 6911 004e 87F86B30 	 strb r3,[r7,#107]
2565:C:/Users/Yushev/git/wpcqi-optiga-trust-charge/optiga/externals/mbedtls/library\x509_crt.c **** 
2566:C:/Users/Yushev/git/wpcqi-optiga-trust-charge/optiga/externals/mbedtls/library\x509_crt.c ****     if( x509_profile_check_pk_alg( profile, pk_type ) != 0 )
 6912              	 .loc 2 2566 0
 6913 0052 97F86B30 	 ldrb r3,[r7,#107]
 6914 0056 3868     	 ldr r0,[r7]
 6915 0058 1946     	 mov r1,r3
 6916 005a FFF7FEFF 	 bl x509_profile_check_pk_alg
 6917 005e 0346     	 mov r3,r0
 6918 0060 002B     	 cmp r3,#0
 6919 0062 03D0     	 beq .L460
2567:C:/Users/Yushev/git/wpcqi-optiga-trust-charge/optiga/externals/mbedtls/library\x509_crt.c ****         ee_flags |= MBEDTLS_X509_BADCERT_BAD_PK;
 6920              	 .loc 2 2567 0
 6921 0064 3B69     	 ldr r3,[r7,#16]
 6922 0066 43F40043 	 orr r3,r3,#32768
 6923 006a 3B61     	 str r3,[r7,#16]
 6924              	.L460:
2568:C:/Users/Yushev/git/wpcqi-optiga-trust-charge/optiga/externals/mbedtls/library\x509_crt.c **** 
2569:C:/Users/Yushev/git/wpcqi-optiga-trust-charge/optiga/externals/mbedtls/library\x509_crt.c ****     if( x509_profile_check_key( profile, &crt->pk ) != 0 )
 6925              	 .loc 2 2569 0
 6926 006c FB68     	 ldr r3,[r7,#12]
 6927 006e BC33     	 adds r3,r3,#188
 6928 0070 3868     	 ldr r0,[r7]
 6929 0072 1946     	 mov r1,r3
 6930 0074 FFF7FEFF 	 bl x509_profile_check_key
 6931 0078 0346     	 mov r3,r0
 6932 007a 002B     	 cmp r3,#0
 6933 007c 03D0     	 beq .L461
2570:C:/Users/Yushev/git/wpcqi-optiga-trust-charge/optiga/externals/mbedtls/library\x509_crt.c ****         ee_flags |= MBEDTLS_X509_BADCERT_BAD_KEY;
 6934              	 .loc 2 2570 0
 6935 007e 3B69     	 ldr r3,[r7,#16]
 6936 0080 43F48033 	 orr r3,r3,#65536
 6937 0084 3B61     	 str r3,[r7,#16]
 6938              	.L461:
2571:C:/Users/Yushev/git/wpcqi-optiga-trust-charge/optiga/externals/mbedtls/library\x509_crt.c **** 
2572:C:/Users/Yushev/git/wpcqi-optiga-trust-charge/optiga/externals/mbedtls/library\x509_crt.c ****     /* Check the chain */
2573:C:/Users/Yushev/git/wpcqi-optiga-trust-charge/optiga/externals/mbedtls/library\x509_crt.c ****     ret = x509_crt_verify_chain( crt, trust_ca, ca_crl, profile,
 6939              	 .loc 2 2573 0
 6940 0086 07F11403 	 add r3,r7,#20
 6941 008a 0093     	 str r3,[sp]
 6942 008c D7F88830 	 ldr r3,[r7,#136]
 6943 0090 0193     	 str r3,[sp,#4]
 6944 0092 F868     	 ldr r0,[r7,#12]
 6945 0094 B968     	 ldr r1,[r7,#8]
 6946 0096 7A68     	 ldr r2,[r7,#4]
 6947 0098 3B68     	 ldr r3,[r7]
 6948 009a FFF7FEFF 	 bl x509_crt_verify_chain
 6949 009e F866     	 str r0,[r7,#108]
2574:C:/Users/Yushev/git/wpcqi-optiga-trust-charge/optiga/externals/mbedtls/library\x509_crt.c ****                                  &ver_chain, rs_ctx );
2575:C:/Users/Yushev/git/wpcqi-optiga-trust-charge/optiga/externals/mbedtls/library\x509_crt.c **** 
2576:C:/Users/Yushev/git/wpcqi-optiga-trust-charge/optiga/externals/mbedtls/library\x509_crt.c ****     if( ret != 0 )
 6950              	 .loc 2 2576 0
 6951 00a0 FB6E     	 ldr r3,[r7,#108]
 6952 00a2 002B     	 cmp r3,#0
 6953 00a4 00D0     	 beq .L462
2577:C:/Users/Yushev/git/wpcqi-optiga-trust-charge/optiga/externals/mbedtls/library\x509_crt.c ****         goto exit;
 6954              	 .loc 2 2577 0
 6955 00a6 0EE0     	 b .L458
 6956              	.L462:
2578:C:/Users/Yushev/git/wpcqi-optiga-trust-charge/optiga/externals/mbedtls/library\x509_crt.c **** 
2579:C:/Users/Yushev/git/wpcqi-optiga-trust-charge/optiga/externals/mbedtls/library\x509_crt.c ****     /* Merge end-entity flags */
2580:C:/Users/Yushev/git/wpcqi-optiga-trust-charge/optiga/externals/mbedtls/library\x509_crt.c ****     ver_chain.items[0].flags |= ee_flags;
 6957              	 .loc 2 2580 0
 6958 00a8 BA69     	 ldr r2,[r7,#24]
 6959 00aa 3B69     	 ldr r3,[r7,#16]
 6960 00ac 1343     	 orrs r3,r3,r2
 6961 00ae BB61     	 str r3,[r7,#24]
2581:C:/Users/Yushev/git/wpcqi-optiga-trust-charge/optiga/externals/mbedtls/library\x509_crt.c **** 
2582:C:/Users/Yushev/git/wpcqi-optiga-trust-charge/optiga/externals/mbedtls/library\x509_crt.c ****     /* Build final flags, calling callback on the way if any */
2583:C:/Users/Yushev/git/wpcqi-optiga-trust-charge/optiga/externals/mbedtls/library\x509_crt.c ****     ret = x509_crt_merge_flags_with_cb( flags, &ver_chain, f_vrfy, p_vrfy );
 6962              	 .loc 2 2583 0
 6963 00b0 07F11403 	 add r3,r7,#20
 6964 00b4 F86F     	 ldr r0,[r7,#124]
 6965 00b6 1946     	 mov r1,r3
 6966 00b8 D7F88020 	 ldr r2,[r7,#128]
 6967 00bc D7F88430 	 ldr r3,[r7,#132]
 6968 00c0 FFF7FEFF 	 bl x509_crt_merge_flags_with_cb
 6969 00c4 F866     	 str r0,[r7,#108]
 6970              	.L458:
2584:C:/Users/Yushev/git/wpcqi-optiga-trust-charge/optiga/externals/mbedtls/library\x509_crt.c **** 
2585:C:/Users/Yushev/git/wpcqi-optiga-trust-charge/optiga/externals/mbedtls/library\x509_crt.c **** exit:
2586:C:/Users/Yushev/git/wpcqi-optiga-trust-charge/optiga/externals/mbedtls/library\x509_crt.c **** #if defined(MBEDTLS_ECDSA_C) && defined(MBEDTLS_ECP_RESTARTABLE)
2587:C:/Users/Yushev/git/wpcqi-optiga-trust-charge/optiga/externals/mbedtls/library\x509_crt.c ****     if( rs_ctx != NULL && ret != MBEDTLS_ERR_ECP_IN_PROGRESS )
2588:C:/Users/Yushev/git/wpcqi-optiga-trust-charge/optiga/externals/mbedtls/library\x509_crt.c ****         mbedtls_x509_crt_restart_free( rs_ctx );
2589:C:/Users/Yushev/git/wpcqi-optiga-trust-charge/optiga/externals/mbedtls/library\x509_crt.c **** #endif
2590:C:/Users/Yushev/git/wpcqi-optiga-trust-charge/optiga/externals/mbedtls/library\x509_crt.c **** 
2591:C:/Users/Yushev/git/wpcqi-optiga-trust-charge/optiga/externals/mbedtls/library\x509_crt.c ****     /* prevent misuse of the vrfy callback - VERIFY_FAILED would be ignored by
2592:C:/Users/Yushev/git/wpcqi-optiga-trust-charge/optiga/externals/mbedtls/library\x509_crt.c ****      * the SSL module for authmode optional, but non-zero return from the
2593:C:/Users/Yushev/git/wpcqi-optiga-trust-charge/optiga/externals/mbedtls/library\x509_crt.c ****      * callback means a fatal error so it shouldn't be ignored */
2594:C:/Users/Yushev/git/wpcqi-optiga-trust-charge/optiga/externals/mbedtls/library\x509_crt.c ****     if( ret == MBEDTLS_ERR_X509_CERT_VERIFY_FAILED )
 6971              	 .loc 2 2594 0
 6972 00c6 FB6E     	 ldr r3,[r7,#108]
 6973 00c8 13F51C5F 	 cmn r3,#9984
 6974 00cc 01D1     	 bne .L463
2595:C:/Users/Yushev/git/wpcqi-optiga-trust-charge/optiga/externals/mbedtls/library\x509_crt.c ****         ret = MBEDTLS_ERR_X509_FATAL_ERROR;
 6975              	 .loc 2 2595 0
 6976 00ce 0C4B     	 ldr r3,.L468+4
 6977 00d0 FB66     	 str r3,[r7,#108]
 6978              	.L463:
2596:C:/Users/Yushev/git/wpcqi-optiga-trust-charge/optiga/externals/mbedtls/library\x509_crt.c **** 
2597:C:/Users/Yushev/git/wpcqi-optiga-trust-charge/optiga/externals/mbedtls/library\x509_crt.c ****     if( ret != 0 )
 6979              	 .loc 2 2597 0
 6980 00d2 FB6E     	 ldr r3,[r7,#108]
 6981 00d4 002B     	 cmp r3,#0
 6982 00d6 05D0     	 beq .L464
2598:C:/Users/Yushev/git/wpcqi-optiga-trust-charge/optiga/externals/mbedtls/library\x509_crt.c ****     {
2599:C:/Users/Yushev/git/wpcqi-optiga-trust-charge/optiga/externals/mbedtls/library\x509_crt.c ****         *flags = (uint32_t) -1;
 6983              	 .loc 2 2599 0
 6984 00d8 FB6F     	 ldr r3,[r7,#124]
 6985 00da 4FF0FF32 	 mov r2,#-1
 6986 00de 1A60     	 str r2,[r3]
2600:C:/Users/Yushev/git/wpcqi-optiga-trust-charge/optiga/externals/mbedtls/library\x509_crt.c ****         return( ret );
 6987              	 .loc 2 2600 0
 6988 00e0 FB6E     	 ldr r3,[r7,#108]
 6989 00e2 06E0     	 b .L467
 6990              	.L464:
2601:C:/Users/Yushev/git/wpcqi-optiga-trust-charge/optiga/externals/mbedtls/library\x509_crt.c ****     }
2602:C:/Users/Yushev/git/wpcqi-optiga-trust-charge/optiga/externals/mbedtls/library\x509_crt.c **** 
2603:C:/Users/Yushev/git/wpcqi-optiga-trust-charge/optiga/externals/mbedtls/library\x509_crt.c ****     if( *flags != 0 )
 6991              	 .loc 2 2603 0
 6992 00e4 FB6F     	 ldr r3,[r7,#124]
 6993 00e6 1B68     	 ldr r3,[r3]
 6994 00e8 002B     	 cmp r3,#0
 6995 00ea 01D0     	 beq .L466
2604:C:/Users/Yushev/git/wpcqi-optiga-trust-charge/optiga/externals/mbedtls/library\x509_crt.c ****         return( MBEDTLS_ERR_X509_CERT_VERIFY_FAILED );
 6996              	 .loc 2 2604 0
 6997 00ec 054B     	 ldr r3,.L468+8
 6998 00ee 00E0     	 b .L467
 6999              	.L466:
2605:C:/Users/Yushev/git/wpcqi-optiga-trust-charge/optiga/externals/mbedtls/library\x509_crt.c **** 
2606:C:/Users/Yushev/git/wpcqi-optiga-trust-charge/optiga/externals/mbedtls/library\x509_crt.c ****     return( 0 );
 7000              	 .loc 2 2606 0
 7001 00f0 0023     	 movs r3,#0
 7002              	.L467:
2607:C:/Users/Yushev/git/wpcqi-optiga-trust-charge/optiga/externals/mbedtls/library\x509_crt.c **** }
 7003              	 .loc 2 2607 0 discriminator 1
 7004 00f2 1846     	 mov r0,r3
 7005 00f4 7037     	 adds r7,r7,#112
 7006              	.LCFI199:
 7007              	 .cfi_def_cfa_offset 8
 7008 00f6 BD46     	 mov sp,r7
 7009              	.LCFI200:
 7010              	 .cfi_def_cfa_register 13
 7011              	 
 7012 00f8 80BD     	 pop {r7,pc}
 7013              	.L469:
 7014 00fa 00BF     	 .align 2
 7015              	.L468:
 7016 00fc 00D8FFFF 	 .word -10240
 7017 0100 00D0FFFF 	 .word -12288
 7018 0104 00D9FFFF 	 .word -9984
 7019              	 .cfi_endproc
 7020              	.LFE46:
 7022              	 .section .text.mbedtls_x509_crt_init,"ax",%progbits
 7023              	 .align 2
 7024              	 .global mbedtls_x509_crt_init
 7025              	 .thumb
 7026              	 .thumb_func
 7028              	mbedtls_x509_crt_init:
 7029              	.LFB47:
2608:C:/Users/Yushev/git/wpcqi-optiga-trust-charge/optiga/externals/mbedtls/library\x509_crt.c **** 
2609:C:/Users/Yushev/git/wpcqi-optiga-trust-charge/optiga/externals/mbedtls/library\x509_crt.c **** /*
2610:C:/Users/Yushev/git/wpcqi-optiga-trust-charge/optiga/externals/mbedtls/library\x509_crt.c ****  * Initialize a certificate chain
2611:C:/Users/Yushev/git/wpcqi-optiga-trust-charge/optiga/externals/mbedtls/library\x509_crt.c ****  */
2612:C:/Users/Yushev/git/wpcqi-optiga-trust-charge/optiga/externals/mbedtls/library\x509_crt.c **** void mbedtls_x509_crt_init( mbedtls_x509_crt *crt )
2613:C:/Users/Yushev/git/wpcqi-optiga-trust-charge/optiga/externals/mbedtls/library\x509_crt.c **** {
 7030              	 .loc 2 2613 0
 7031              	 .cfi_startproc
 7032              	 
 7033              	 
 7034 0000 80B5     	 push {r7,lr}
 7035              	.LCFI201:
 7036              	 .cfi_def_cfa_offset 8
 7037              	 .cfi_offset 7,-8
 7038              	 .cfi_offset 14,-4
 7039 0002 82B0     	 sub sp,sp,#8
 7040              	.LCFI202:
 7041              	 .cfi_def_cfa_offset 16
 7042 0004 00AF     	 add r7,sp,#0
 7043              	.LCFI203:
 7044              	 .cfi_def_cfa_register 7
 7045 0006 7860     	 str r0,[r7,#4]
2614:C:/Users/Yushev/git/wpcqi-optiga-trust-charge/optiga/externals/mbedtls/library\x509_crt.c ****     memset( crt, 0, sizeof(mbedtls_x509_crt) );
 7046              	 .loc 2 2614 0
 7047 0008 7868     	 ldr r0,[r7,#4]
 7048 000a 0021     	 movs r1,#0
 7049 000c 4FF49A72 	 mov r2,#308
 7050 0010 FFF7FEFF 	 bl memset
2615:C:/Users/Yushev/git/wpcqi-optiga-trust-charge/optiga/externals/mbedtls/library\x509_crt.c **** }
 7051              	 .loc 2 2615 0
 7052 0014 0837     	 adds r7,r7,#8
 7053              	.LCFI204:
 7054              	 .cfi_def_cfa_offset 8
 7055 0016 BD46     	 mov sp,r7
 7056              	.LCFI205:
 7057              	 .cfi_def_cfa_register 13
 7058              	 
 7059 0018 80BD     	 pop {r7,pc}
 7060              	 .cfi_endproc
 7061              	.LFE47:
 7063 001a 00BF     	 .section .text.mbedtls_x509_crt_free,"ax",%progbits
 7064              	 .align 2
 7065              	 .global mbedtls_x509_crt_free
 7066              	 .thumb
 7067              	 .thumb_func
 7069              	mbedtls_x509_crt_free:
 7070              	.LFB48:
2616:C:/Users/Yushev/git/wpcqi-optiga-trust-charge/optiga/externals/mbedtls/library\x509_crt.c **** 
2617:C:/Users/Yushev/git/wpcqi-optiga-trust-charge/optiga/externals/mbedtls/library\x509_crt.c **** /*
2618:C:/Users/Yushev/git/wpcqi-optiga-trust-charge/optiga/externals/mbedtls/library\x509_crt.c ****  * Unallocate all certificate data
2619:C:/Users/Yushev/git/wpcqi-optiga-trust-charge/optiga/externals/mbedtls/library\x509_crt.c ****  */
2620:C:/Users/Yushev/git/wpcqi-optiga-trust-charge/optiga/externals/mbedtls/library\x509_crt.c **** void mbedtls_x509_crt_free( mbedtls_x509_crt *crt )
2621:C:/Users/Yushev/git/wpcqi-optiga-trust-charge/optiga/externals/mbedtls/library\x509_crt.c **** {
 7071              	 .loc 2 2621 0
 7072              	 .cfi_startproc
 7073              	 
 7074              	 
 7075 0000 80B5     	 push {r7,lr}
 7076              	.LCFI206:
 7077              	 .cfi_def_cfa_offset 8
 7078              	 .cfi_offset 7,-8
 7079              	 .cfi_offset 14,-4
 7080 0002 88B0     	 sub sp,sp,#32
 7081              	.LCFI207:
 7082              	 .cfi_def_cfa_offset 40
 7083 0004 00AF     	 add r7,sp,#0
 7084              	.LCFI208:
 7085              	 .cfi_def_cfa_register 7
 7086 0006 7860     	 str r0,[r7,#4]
2622:C:/Users/Yushev/git/wpcqi-optiga-trust-charge/optiga/externals/mbedtls/library\x509_crt.c ****     mbedtls_x509_crt *cert_cur = crt;
 7087              	 .loc 2 2622 0
 7088 0008 7B68     	 ldr r3,[r7,#4]
 7089 000a FB61     	 str r3,[r7,#28]
2623:C:/Users/Yushev/git/wpcqi-optiga-trust-charge/optiga/externals/mbedtls/library\x509_crt.c ****     mbedtls_x509_crt *cert_prv;
2624:C:/Users/Yushev/git/wpcqi-optiga-trust-charge/optiga/externals/mbedtls/library\x509_crt.c ****     mbedtls_x509_name *name_cur;
2625:C:/Users/Yushev/git/wpcqi-optiga-trust-charge/optiga/externals/mbedtls/library\x509_crt.c ****     mbedtls_x509_name *name_prv;
2626:C:/Users/Yushev/git/wpcqi-optiga-trust-charge/optiga/externals/mbedtls/library\x509_crt.c ****     mbedtls_x509_sequence *seq_cur;
2627:C:/Users/Yushev/git/wpcqi-optiga-trust-charge/optiga/externals/mbedtls/library\x509_crt.c ****     mbedtls_x509_sequence *seq_prv;
2628:C:/Users/Yushev/git/wpcqi-optiga-trust-charge/optiga/externals/mbedtls/library\x509_crt.c **** 
2629:C:/Users/Yushev/git/wpcqi-optiga-trust-charge/optiga/externals/mbedtls/library\x509_crt.c ****     if( crt == NULL )
 7090              	 .loc 2 2629 0
 7091 000c 7B68     	 ldr r3,[r7,#4]
 7092 000e 002B     	 cmp r3,#0
 7093 0010 00D1     	 bne .L472
2630:C:/Users/Yushev/git/wpcqi-optiga-trust-charge/optiga/externals/mbedtls/library\x509_crt.c ****         return;
 7094              	 .loc 2 2630 0
 7095 0012 82E0     	 b .L471
 7096              	.L472:
2631:C:/Users/Yushev/git/wpcqi-optiga-trust-charge/optiga/externals/mbedtls/library\x509_crt.c **** 
2632:C:/Users/Yushev/git/wpcqi-optiga-trust-charge/optiga/externals/mbedtls/library\x509_crt.c ****     do
2633:C:/Users/Yushev/git/wpcqi-optiga-trust-charge/optiga/externals/mbedtls/library\x509_crt.c ****     {
2634:C:/Users/Yushev/git/wpcqi-optiga-trust-charge/optiga/externals/mbedtls/library\x509_crt.c ****         mbedtls_pk_free( &cert_cur->pk );
 7097              	 .loc 2 2634 0
 7098 0014 FB69     	 ldr r3,[r7,#28]
 7099 0016 BC33     	 adds r3,r3,#188
 7100 0018 1846     	 mov r0,r3
 7101 001a FFF7FEFF 	 bl mbedtls_pk_free
2635:C:/Users/Yushev/git/wpcqi-optiga-trust-charge/optiga/externals/mbedtls/library\x509_crt.c **** 
2636:C:/Users/Yushev/git/wpcqi-optiga-trust-charge/optiga/externals/mbedtls/library\x509_crt.c **** #if defined(MBEDTLS_X509_RSASSA_PSS_SUPPORT)
2637:C:/Users/Yushev/git/wpcqi-optiga-trust-charge/optiga/externals/mbedtls/library\x509_crt.c ****         mbedtls_free( cert_cur->sig_opts );
2638:C:/Users/Yushev/git/wpcqi-optiga-trust-charge/optiga/externals/mbedtls/library\x509_crt.c **** #endif
2639:C:/Users/Yushev/git/wpcqi-optiga-trust-charge/optiga/externals/mbedtls/library\x509_crt.c **** 
2640:C:/Users/Yushev/git/wpcqi-optiga-trust-charge/optiga/externals/mbedtls/library\x509_crt.c ****         name_cur = cert_cur->issuer.next;
 7102              	 .loc 2 2640 0
 7103 001e FB69     	 ldr r3,[r7,#28]
 7104 0020 5B6E     	 ldr r3,[r3,#100]
 7105 0022 BB61     	 str r3,[r7,#24]
2641:C:/Users/Yushev/git/wpcqi-optiga-trust-charge/optiga/externals/mbedtls/library\x509_crt.c ****         while( name_cur != NULL )
 7106              	 .loc 2 2641 0
 7107 0024 0BE0     	 b .L474
 7108              	.L475:
2642:C:/Users/Yushev/git/wpcqi-optiga-trust-charge/optiga/externals/mbedtls/library\x509_crt.c ****         {
2643:C:/Users/Yushev/git/wpcqi-optiga-trust-charge/optiga/externals/mbedtls/library\x509_crt.c ****             name_prv = name_cur;
 7109              	 .loc 2 2643 0
 7110 0026 BB69     	 ldr r3,[r7,#24]
 7111 0028 3B61     	 str r3,[r7,#16]
2644:C:/Users/Yushev/git/wpcqi-optiga-trust-charge/optiga/externals/mbedtls/library\x509_crt.c ****             name_cur = name_cur->next;
 7112              	 .loc 2 2644 0
 7113 002a BB69     	 ldr r3,[r7,#24]
 7114 002c 9B69     	 ldr r3,[r3,#24]
 7115 002e BB61     	 str r3,[r7,#24]
2645:C:/Users/Yushev/git/wpcqi-optiga-trust-charge/optiga/externals/mbedtls/library\x509_crt.c ****             mbedtls_platform_zeroize( name_prv, sizeof( mbedtls_x509_name ) );
 7116              	 .loc 2 2645 0
 7117 0030 3869     	 ldr r0,[r7,#16]
 7118 0032 2021     	 movs r1,#32
 7119 0034 FFF7FEFF 	 bl mbedtls_platform_zeroize
2646:C:/Users/Yushev/git/wpcqi-optiga-trust-charge/optiga/externals/mbedtls/library\x509_crt.c ****             mbedtls_free( name_prv );
 7120              	 .loc 2 2646 0
 7121 0038 3869     	 ldr r0,[r7,#16]
 7122 003a FFF7FEFF 	 bl free
 7123              	.L474:
2641:C:/Users/Yushev/git/wpcqi-optiga-trust-charge/optiga/externals/mbedtls/library\x509_crt.c ****         {
 7124              	 .loc 2 2641 0
 7125 003e BB69     	 ldr r3,[r7,#24]
 7126 0040 002B     	 cmp r3,#0
 7127 0042 F0D1     	 bne .L475
2647:C:/Users/Yushev/git/wpcqi-optiga-trust-charge/optiga/externals/mbedtls/library\x509_crt.c ****         }
2648:C:/Users/Yushev/git/wpcqi-optiga-trust-charge/optiga/externals/mbedtls/library\x509_crt.c **** 
2649:C:/Users/Yushev/git/wpcqi-optiga-trust-charge/optiga/externals/mbedtls/library\x509_crt.c ****         name_cur = cert_cur->subject.next;
 7128              	 .loc 2 2649 0
 7129 0044 FB69     	 ldr r3,[r7,#28]
 7130 0046 D3F88430 	 ldr r3,[r3,#132]
 7131 004a BB61     	 str r3,[r7,#24]
2650:C:/Users/Yushev/git/wpcqi-optiga-trust-charge/optiga/externals/mbedtls/library\x509_crt.c ****         while( name_cur != NULL )
 7132              	 .loc 2 2650 0
 7133 004c 0BE0     	 b .L476
 7134              	.L477:
2651:C:/Users/Yushev/git/wpcqi-optiga-trust-charge/optiga/externals/mbedtls/library\x509_crt.c ****         {
2652:C:/Users/Yushev/git/wpcqi-optiga-trust-charge/optiga/externals/mbedtls/library\x509_crt.c ****             name_prv = name_cur;
 7135              	 .loc 2 2652 0
 7136 004e BB69     	 ldr r3,[r7,#24]
 7137 0050 3B61     	 str r3,[r7,#16]
2653:C:/Users/Yushev/git/wpcqi-optiga-trust-charge/optiga/externals/mbedtls/library\x509_crt.c ****             name_cur = name_cur->next;
 7138              	 .loc 2 2653 0
 7139 0052 BB69     	 ldr r3,[r7,#24]
 7140 0054 9B69     	 ldr r3,[r3,#24]
 7141 0056 BB61     	 str r3,[r7,#24]
2654:C:/Users/Yushev/git/wpcqi-optiga-trust-charge/optiga/externals/mbedtls/library\x509_crt.c ****             mbedtls_platform_zeroize( name_prv, sizeof( mbedtls_x509_name ) );
 7142              	 .loc 2 2654 0
 7143 0058 3869     	 ldr r0,[r7,#16]
 7144 005a 2021     	 movs r1,#32
 7145 005c FFF7FEFF 	 bl mbedtls_platform_zeroize
2655:C:/Users/Yushev/git/wpcqi-optiga-trust-charge/optiga/externals/mbedtls/library\x509_crt.c ****             mbedtls_free( name_prv );
 7146              	 .loc 2 2655 0
 7147 0060 3869     	 ldr r0,[r7,#16]
 7148 0062 FFF7FEFF 	 bl free
 7149              	.L476:
2650:C:/Users/Yushev/git/wpcqi-optiga-trust-charge/optiga/externals/mbedtls/library\x509_crt.c ****         {
 7150              	 .loc 2 2650 0
 7151 0066 BB69     	 ldr r3,[r7,#24]
 7152 0068 002B     	 cmp r3,#0
 7153 006a F0D1     	 bne .L477
2656:C:/Users/Yushev/git/wpcqi-optiga-trust-charge/optiga/externals/mbedtls/library\x509_crt.c ****         }
2657:C:/Users/Yushev/git/wpcqi-optiga-trust-charge/optiga/externals/mbedtls/library\x509_crt.c **** 
2658:C:/Users/Yushev/git/wpcqi-optiga-trust-charge/optiga/externals/mbedtls/library\x509_crt.c ****         seq_cur = cert_cur->ext_key_usage.next;
 7154              	 .loc 2 2658 0
 7155 006c FB69     	 ldr r3,[r7,#28]
 7156 006e D3F81431 	 ldr r3,[r3,#276]
 7157 0072 7B61     	 str r3,[r7,#20]
2659:C:/Users/Yushev/git/wpcqi-optiga-trust-charge/optiga/externals/mbedtls/library\x509_crt.c ****         while( seq_cur != NULL )
 7158              	 .loc 2 2659 0
 7159 0074 0BE0     	 b .L478
 7160              	.L479:
2660:C:/Users/Yushev/git/wpcqi-optiga-trust-charge/optiga/externals/mbedtls/library\x509_crt.c ****         {
2661:C:/Users/Yushev/git/wpcqi-optiga-trust-charge/optiga/externals/mbedtls/library\x509_crt.c ****             seq_prv = seq_cur;
 7161              	 .loc 2 2661 0
 7162 0076 7B69     	 ldr r3,[r7,#20]
 7163 0078 FB60     	 str r3,[r7,#12]
2662:C:/Users/Yushev/git/wpcqi-optiga-trust-charge/optiga/externals/mbedtls/library\x509_crt.c ****             seq_cur = seq_cur->next;
 7164              	 .loc 2 2662 0
 7165 007a 7B69     	 ldr r3,[r7,#20]
 7166 007c DB68     	 ldr r3,[r3,#12]
 7167 007e 7B61     	 str r3,[r7,#20]
2663:C:/Users/Yushev/git/wpcqi-optiga-trust-charge/optiga/externals/mbedtls/library\x509_crt.c ****             mbedtls_platform_zeroize( seq_prv,
 7168              	 .loc 2 2663 0
 7169 0080 F868     	 ldr r0,[r7,#12]
 7170 0082 1021     	 movs r1,#16
 7171 0084 FFF7FEFF 	 bl mbedtls_platform_zeroize
2664:C:/Users/Yushev/git/wpcqi-optiga-trust-charge/optiga/externals/mbedtls/library\x509_crt.c ****                                       sizeof( mbedtls_x509_sequence ) );
2665:C:/Users/Yushev/git/wpcqi-optiga-trust-charge/optiga/externals/mbedtls/library\x509_crt.c ****             mbedtls_free( seq_prv );
 7172              	 .loc 2 2665 0
 7173 0088 F868     	 ldr r0,[r7,#12]
 7174 008a FFF7FEFF 	 bl free
 7175              	.L478:
2659:C:/Users/Yushev/git/wpcqi-optiga-trust-charge/optiga/externals/mbedtls/library\x509_crt.c ****         {
 7176              	 .loc 2 2659 0
 7177 008e 7B69     	 ldr r3,[r7,#20]
 7178 0090 002B     	 cmp r3,#0
 7179 0092 F0D1     	 bne .L479
2666:C:/Users/Yushev/git/wpcqi-optiga-trust-charge/optiga/externals/mbedtls/library\x509_crt.c ****         }
2667:C:/Users/Yushev/git/wpcqi-optiga-trust-charge/optiga/externals/mbedtls/library\x509_crt.c **** 
2668:C:/Users/Yushev/git/wpcqi-optiga-trust-charge/optiga/externals/mbedtls/library\x509_crt.c ****         seq_cur = cert_cur->subject_alt_names.next;
 7180              	 .loc 2 2668 0
 7181 0094 FB69     	 ldr r3,[r7,#28]
 7182 0096 D3F8F430 	 ldr r3,[r3,#244]
 7183 009a 7B61     	 str r3,[r7,#20]
2669:C:/Users/Yushev/git/wpcqi-optiga-trust-charge/optiga/externals/mbedtls/library\x509_crt.c ****         while( seq_cur != NULL )
 7184              	 .loc 2 2669 0
 7185 009c 0BE0     	 b .L480
 7186              	.L481:
2670:C:/Users/Yushev/git/wpcqi-optiga-trust-charge/optiga/externals/mbedtls/library\x509_crt.c ****         {
2671:C:/Users/Yushev/git/wpcqi-optiga-trust-charge/optiga/externals/mbedtls/library\x509_crt.c ****             seq_prv = seq_cur;
 7187              	 .loc 2 2671 0
 7188 009e 7B69     	 ldr r3,[r7,#20]
 7189 00a0 FB60     	 str r3,[r7,#12]
2672:C:/Users/Yushev/git/wpcqi-optiga-trust-charge/optiga/externals/mbedtls/library\x509_crt.c ****             seq_cur = seq_cur->next;
 7190              	 .loc 2 2672 0
 7191 00a2 7B69     	 ldr r3,[r7,#20]
 7192 00a4 DB68     	 ldr r3,[r3,#12]
 7193 00a6 7B61     	 str r3,[r7,#20]
2673:C:/Users/Yushev/git/wpcqi-optiga-trust-charge/optiga/externals/mbedtls/library\x509_crt.c ****             mbedtls_platform_zeroize( seq_prv,
 7194              	 .loc 2 2673 0
 7195 00a8 F868     	 ldr r0,[r7,#12]
 7196 00aa 1021     	 movs r1,#16
 7197 00ac FFF7FEFF 	 bl mbedtls_platform_zeroize
2674:C:/Users/Yushev/git/wpcqi-optiga-trust-charge/optiga/externals/mbedtls/library\x509_crt.c ****                                       sizeof( mbedtls_x509_sequence ) );
2675:C:/Users/Yushev/git/wpcqi-optiga-trust-charge/optiga/externals/mbedtls/library\x509_crt.c ****             mbedtls_free( seq_prv );
 7198              	 .loc 2 2675 0
 7199 00b0 F868     	 ldr r0,[r7,#12]
 7200 00b2 FFF7FEFF 	 bl free
 7201              	.L480:
2669:C:/Users/Yushev/git/wpcqi-optiga-trust-charge/optiga/externals/mbedtls/library\x509_crt.c ****         {
 7202              	 .loc 2 2669 0
 7203 00b6 7B69     	 ldr r3,[r7,#20]
 7204 00b8 002B     	 cmp r3,#0
 7205 00ba F0D1     	 bne .L481
2676:C:/Users/Yushev/git/wpcqi-optiga-trust-charge/optiga/externals/mbedtls/library\x509_crt.c ****         }
2677:C:/Users/Yushev/git/wpcqi-optiga-trust-charge/optiga/externals/mbedtls/library\x509_crt.c **** 
2678:C:/Users/Yushev/git/wpcqi-optiga-trust-charge/optiga/externals/mbedtls/library\x509_crt.c ****         if( cert_cur->raw.p != NULL )
 7206              	 .loc 2 2678 0
 7207 00bc FB69     	 ldr r3,[r7,#28]
 7208 00be 9B68     	 ldr r3,[r3,#8]
 7209 00c0 002B     	 cmp r3,#0
 7210 00c2 0CD0     	 beq .L482
2679:C:/Users/Yushev/git/wpcqi-optiga-trust-charge/optiga/externals/mbedtls/library\x509_crt.c ****         {
2680:C:/Users/Yushev/git/wpcqi-optiga-trust-charge/optiga/externals/mbedtls/library\x509_crt.c ****             mbedtls_platform_zeroize( cert_cur->raw.p, cert_cur->raw.len );
 7211              	 .loc 2 2680 0
 7212 00c4 FB69     	 ldr r3,[r7,#28]
 7213 00c6 9A68     	 ldr r2,[r3,#8]
 7214 00c8 FB69     	 ldr r3,[r7,#28]
 7215 00ca 5B68     	 ldr r3,[r3,#4]
 7216 00cc 1046     	 mov r0,r2
 7217 00ce 1946     	 mov r1,r3
 7218 00d0 FFF7FEFF 	 bl mbedtls_platform_zeroize
2681:C:/Users/Yushev/git/wpcqi-optiga-trust-charge/optiga/externals/mbedtls/library\x509_crt.c ****             mbedtls_free( cert_cur->raw.p );
 7219              	 .loc 2 2681 0
 7220 00d4 FB69     	 ldr r3,[r7,#28]
 7221 00d6 9B68     	 ldr r3,[r3,#8]
 7222 00d8 1846     	 mov r0,r3
 7223 00da FFF7FEFF 	 bl free
 7224              	.L482:
2682:C:/Users/Yushev/git/wpcqi-optiga-trust-charge/optiga/externals/mbedtls/library\x509_crt.c ****         }
2683:C:/Users/Yushev/git/wpcqi-optiga-trust-charge/optiga/externals/mbedtls/library\x509_crt.c **** 
2684:C:/Users/Yushev/git/wpcqi-optiga-trust-charge/optiga/externals/mbedtls/library\x509_crt.c ****         cert_cur = cert_cur->next;
 7225              	 .loc 2 2684 0
 7226 00de FB69     	 ldr r3,[r7,#28]
 7227 00e0 D3F83031 	 ldr r3,[r3,#304]
 7228 00e4 FB61     	 str r3,[r7,#28]
2685:C:/Users/Yushev/git/wpcqi-optiga-trust-charge/optiga/externals/mbedtls/library\x509_crt.c ****     }
2686:C:/Users/Yushev/git/wpcqi-optiga-trust-charge/optiga/externals/mbedtls/library\x509_crt.c ****     while( cert_cur != NULL );
 7229              	 .loc 2 2686 0
 7230 00e6 FB69     	 ldr r3,[r7,#28]
 7231 00e8 002B     	 cmp r3,#0
 7232 00ea 93D1     	 bne .L472
2687:C:/Users/Yushev/git/wpcqi-optiga-trust-charge/optiga/externals/mbedtls/library\x509_crt.c **** 
2688:C:/Users/Yushev/git/wpcqi-optiga-trust-charge/optiga/externals/mbedtls/library\x509_crt.c ****     cert_cur = crt;
 7233              	 .loc 2 2688 0
 7234 00ec 7B68     	 ldr r3,[r7,#4]
 7235 00ee FB61     	 str r3,[r7,#28]
 7236              	.L484:
2689:C:/Users/Yushev/git/wpcqi-optiga-trust-charge/optiga/externals/mbedtls/library\x509_crt.c ****     do
2690:C:/Users/Yushev/git/wpcqi-optiga-trust-charge/optiga/externals/mbedtls/library\x509_crt.c ****     {
2691:C:/Users/Yushev/git/wpcqi-optiga-trust-charge/optiga/externals/mbedtls/library\x509_crt.c ****         cert_prv = cert_cur;
 7237              	 .loc 2 2691 0
 7238 00f0 FB69     	 ldr r3,[r7,#28]
 7239 00f2 BB60     	 str r3,[r7,#8]
2692:C:/Users/Yushev/git/wpcqi-optiga-trust-charge/optiga/externals/mbedtls/library\x509_crt.c ****         cert_cur = cert_cur->next;
 7240              	 .loc 2 2692 0
 7241 00f4 FB69     	 ldr r3,[r7,#28]
 7242 00f6 D3F83031 	 ldr r3,[r3,#304]
 7243 00fa FB61     	 str r3,[r7,#28]
2693:C:/Users/Yushev/git/wpcqi-optiga-trust-charge/optiga/externals/mbedtls/library\x509_crt.c **** 
2694:C:/Users/Yushev/git/wpcqi-optiga-trust-charge/optiga/externals/mbedtls/library\x509_crt.c ****         mbedtls_platform_zeroize( cert_prv, sizeof( mbedtls_x509_crt ) );
 7244              	 .loc 2 2694 0
 7245 00fc B868     	 ldr r0,[r7,#8]
 7246 00fe 4FF49A71 	 mov r1,#308
 7247 0102 FFF7FEFF 	 bl mbedtls_platform_zeroize
2695:C:/Users/Yushev/git/wpcqi-optiga-trust-charge/optiga/externals/mbedtls/library\x509_crt.c ****         if( cert_prv != crt )
 7248              	 .loc 2 2695 0
 7249 0106 BA68     	 ldr r2,[r7,#8]
 7250 0108 7B68     	 ldr r3,[r7,#4]
 7251 010a 9A42     	 cmp r2,r3
 7252 010c 02D0     	 beq .L483
2696:C:/Users/Yushev/git/wpcqi-optiga-trust-charge/optiga/externals/mbedtls/library\x509_crt.c ****             mbedtls_free( cert_prv );
 7253              	 .loc 2 2696 0
 7254 010e B868     	 ldr r0,[r7,#8]
 7255 0110 FFF7FEFF 	 bl free
 7256              	.L483:
2697:C:/Users/Yushev/git/wpcqi-optiga-trust-charge/optiga/externals/mbedtls/library\x509_crt.c ****     }
2698:C:/Users/Yushev/git/wpcqi-optiga-trust-charge/optiga/externals/mbedtls/library\x509_crt.c ****     while( cert_cur != NULL );
 7257              	 .loc 2 2698 0
 7258 0114 FB69     	 ldr r3,[r7,#28]
 7259 0116 002B     	 cmp r3,#0
 7260 0118 EAD1     	 bne .L484
 7261              	.L471:
2699:C:/Users/Yushev/git/wpcqi-optiga-trust-charge/optiga/externals/mbedtls/library\x509_crt.c **** }
 7262              	 .loc 2 2699 0
 7263 011a 2037     	 adds r7,r7,#32
 7264              	.LCFI209:
 7265              	 .cfi_def_cfa_offset 8
 7266 011c BD46     	 mov sp,r7
 7267              	.LCFI210:
 7268              	 .cfi_def_cfa_register 13
 7269              	 
 7270 011e 80BD     	 pop {r7,pc}
 7271              	 .cfi_endproc
 7272              	.LFE48:
 7274              	 .text
 7275              	.Letext0:
 7276              	 .file 3 "c:\\users\\yushev\\dave_4-4-2_32bit_2018-02-23\\dave-ide-4.4.2-32bit\\eclipse\\arm-gcc-49\\lib\\gcc\\arm-none-eabi\\4.9.3\\include\\stddef.h"
 7277              	 .file 4 "c:\\users\\yushev\\dave_4-4-2_32bit_2018-02-23\\dave-ide-4.4.2-32bit\\eclipse\\arm-gcc-49\\arm-none-eabi\\include\\machine\\_default_types.h"
 7278              	 .file 5 "c:\\users\\yushev\\dave_4-4-2_32bit_2018-02-23\\dave-ide-4.4.2-32bit\\eclipse\\arm-gcc-49\\arm-none-eabi\\include\\stdint.h"
 7279              	 .file 6 "C:/Users/Yushev/git/wpcqi-optiga-trust-charge/optiga/externals/mbedtls/include/mbedtls/bignum.h"
 7280              	 .file 7 "C:/Users/Yushev/git/wpcqi-optiga-trust-charge/optiga/externals/mbedtls/include/mbedtls/asn1.h"
 7281              	 .file 8 "C:/Users/Yushev/git/wpcqi-optiga-trust-charge/optiga/externals/mbedtls/include/mbedtls/md.h"
 7282              	 .file 9 "C:/Users/Yushev/git/wpcqi-optiga-trust-charge/optiga/externals/mbedtls/include/mbedtls/ecp.h"
 7283              	 .file 10 "C:/Users/Yushev/git/wpcqi-optiga-trust-charge/optiga/externals/mbedtls/include/mbedtls/x509.h"
 7284              	 .file 11 "C:/Users/Yushev/git/wpcqi-optiga-trust-charge/optiga/externals/mbedtls/include/mbedtls/x509_crl.h"
 7285              	 .file 12 "C:/Users/Yushev/git/wpcqi-optiga-trust-charge/optiga/externals/mbedtls/include/mbedtls/x509_crt.h"
DEFINED SYMBOLS
                            *ABS*:00000000 x509_crt.c
    {standard input}:20     .text.mbedtls_pk_ec:00000000 $t
    {standard input}:24     .text.mbedtls_pk_ec:00000000 mbedtls_pk_ec
    {standard input}:68     .rodata.mbedtls_x509_crt_profile_default:00000000 mbedtls_x509_crt_profile_default
    {standard input}:65     .rodata.mbedtls_x509_crt_profile_default:00000000 $d
    {standard input}:78     .rodata.mbedtls_x509_crt_profile_next:00000000 mbedtls_x509_crt_profile_next
    {standard input}:75     .rodata.mbedtls_x509_crt_profile_next:00000000 $d
    {standard input}:88     .rodata.mbedtls_x509_crt_profile_suiteb:00000000 mbedtls_x509_crt_profile_suiteb
    {standard input}:85     .rodata.mbedtls_x509_crt_profile_suiteb:00000000 $d
    {standard input}:94     .text.x509_profile_check_md_alg:00000000 $t
    {standard input}:98     .text.x509_profile_check_md_alg:00000000 x509_profile_check_md_alg
    {standard input}:162    .text.x509_profile_check_pk_alg:00000000 $t
    {standard input}:166    .text.x509_profile_check_pk_alg:00000000 x509_profile_check_pk_alg
    {standard input}:229    .text.x509_profile_check_key:00000000 $t
    {standard input}:233    .text.x509_profile_check_key:00000000 x509_profile_check_key
    {standard input}:322    .text.x509_memcasecmp:00000000 $t
    {standard input}:326    .text.x509_memcasecmp:00000000 x509_memcasecmp
    {standard input}:448    .text.x509_check_wildcard:00000000 $t
    {standard input}:452    .text.x509_check_wildcard:00000000 x509_check_wildcard
    {standard input}:585    .text.x509_string_cmp:00000000 $t
    {standard input}:589    .text.x509_string_cmp:00000000 x509_string_cmp
    {standard input}:709    .text.x509_name_cmp:00000000 $t
    {standard input}:713    .text.x509_name_cmp:00000000 x509_name_cmp
    {standard input}:843    .text.x509_crt_verify_chain_reset:00000000 $t
    {standard input}:847    .text.x509_crt_verify_chain_reset:00000000 x509_crt_verify_chain_reset
    {standard input}:912    .text.x509_get_version:00000000 $t
    {standard input}:916    .text.x509_get_version:00000000 x509_get_version
    {standard input}:1009   .text.x509_get_version:00000078 $d
    {standard input}:1014   .text.x509_get_dates:00000000 $t
    {standard input}:1018   .text.x509_get_dates:00000000 x509_get_dates
    {standard input}:1113   .text.x509_get_dates:0000007c $d
    {standard input}:1118   .text.x509_get_uid:00000000 $t
    {standard input}:1122   .text.x509_get_uid:00000000 x509_get_uid
    {standard input}:1214   .text.x509_get_basic_constraints:00000000 $t
    {standard input}:1218   .text.x509_get_basic_constraints:00000000 x509_get_basic_constraints
    {standard input}:1368   .text.x509_get_basic_constraints:000000d4 $d
    {standard input}:1373   .text.x509_get_ns_cert_type:00000000 $t
    {standard input}:1377   .text.x509_get_ns_cert_type:00000000 x509_get_ns_cert_type
    {standard input}:1448   .text.x509_get_ns_cert_type:00000054 $d
    {standard input}:1453   .text.x509_get_key_usage:00000000 $t
    {standard input}:1457   .text.x509_get_key_usage:00000000 x509_get_key_usage
    {standard input}:1561   .text.x509_get_key_usage:00000088 $d
    {standard input}:1566   .text.x509_get_ext_key_usage:00000000 $t
    {standard input}:1570   .text.x509_get_ext_key_usage:00000000 x509_get_ext_key_usage
    {standard input}:1630   .text.x509_get_ext_key_usage:00000040 $d
    {standard input}:1635   .text.x509_get_subject_alt_name:00000000 $t
    {standard input}:1639   .text.x509_get_subject_alt_name:00000000 x509_get_subject_alt_name
    {standard input}:1850   .text.x509_get_subject_alt_name:0000012c $d
    {standard input}:1859   .text.x509_get_crt_ext:00000000 $t
    {standard input}:1863   .text.x509_get_crt_ext:00000000 x509_get_crt_ext
    {standard input}:2215   .text.x509_get_crt_ext:00000238 $d
    {standard input}:2223   .text.x509_crt_parse_der_core:00000000 $t
    {standard input}:2227   .text.x509_crt_parse_der_core:00000000 x509_crt_parse_der_core
    {standard input}:7069   .text.mbedtls_x509_crt_free:00000000 mbedtls_x509_crt_free
    {standard input}:2636   .text.x509_crt_parse_der_core:000002e0 $d
    {standard input}:2643   .text.x509_crt_parse_der_core:000002f4 $t
    {standard input}:2888   .text.x509_crt_parse_der_core:0000048c $d
    {standard input}:2894   .text.mbedtls_x509_crt_parse_der:00000000 $t
    {standard input}:2899   .text.mbedtls_x509_crt_parse_der:00000000 mbedtls_x509_crt_parse_der
    {standard input}:7028   .text.mbedtls_x509_crt_init:00000000 mbedtls_x509_crt_init
    {standard input}:3046   .text.mbedtls_x509_crt_parse_der:000000cc $d
    {standard input}:3052   .text.mbedtls_x509_crt_parse:00000000 $t
    {standard input}:3057   .text.mbedtls_x509_crt_parse:00000000 mbedtls_x509_crt_parse
    {standard input}:3110   .text.mbedtls_x509_crt_parse:00000030 $d
    {standard input}:3115   .rodata:00000000 $d
    {standard input}:3122   .text.x509_info_subject_alt_name:00000000 $t
    {standard input}:3126   .text.x509_info_subject_alt_name:00000000 x509_info_subject_alt_name
    {standard input}:3287   .text.x509_info_subject_alt_name:000000cc $d
    {standard input}:3319   .text.x509_info_cert_type:00000000 $t
    {standard input}:3323   .text.x509_info_cert_type:00000000 x509_info_cert_type
    {standard input}:3675   .text.x509_info_cert_type:00000224 $d
    {standard input}:3718   .text.x509_info_key_usage:00000000 $t
    {standard input}:3722   .text.x509_info_key_usage:00000000 x509_info_key_usage
    {standard input}:4110   .text.x509_info_key_usage:00000260 $d
    {standard input}:4133   .text.x509_info_ext_key_usage:00000000 $t
    {standard input}:4137   .text.x509_info_ext_key_usage:00000000 x509_info_ext_key_usage
    {standard input}:4255   .text.x509_info_ext_key_usage:00000094 $d
    {standard input}:4321   .text.mbedtls_x509_crt_info:00000000 $t
    {standard input}:4326   .text.mbedtls_x509_crt_info:00000000 mbedtls_x509_crt_info
    {standard input}:4720   .text.mbedtls_x509_crt_info:0000028c $d
    {standard input}:4730   .text.mbedtls_x509_crt_info:000002ac $t
    {standard input}:5107   .text.mbedtls_x509_crt_info:00000540 $d
    {standard input}:5119   .text.mbedtls_x509_crt_info:00000568 $t
    {standard input}:5248   .text.mbedtls_x509_crt_info:00000644 $d
    {standard input}:5324   .rodata.x509_crt_verify_strings:00000000 $d
    {standard input}:5327   .rodata.x509_crt_verify_strings:00000000 x509_crt_verify_strings
    {standard input}:5378   .text.mbedtls_x509_crt_verify_info:00000000 $t
    {standard input}:5383   .text.mbedtls_x509_crt_verify_info:00000000 mbedtls_x509_crt_verify_info
    {standard input}:5530   .text.mbedtls_x509_crt_verify_info:000000c0 $d
    {standard input}:5538   .text.x509_crt_check_signature:00000000 $t
    {standard input}:5542   .text.x509_crt_check_signature:00000000 x509_crt_check_signature
    {standard input}:5649   .text.x509_crt_check_parent:00000000 $t
    {standard input}:5653   .text.x509_crt_check_parent:00000000 x509_crt_check_parent
    {standard input}:5734   .text.x509_crt_find_parent_in:00000000 $t
    {standard input}:5738   .text.x509_crt_find_parent_in:00000000 x509_crt_find_parent_in
    {standard input}:5910   .text.x509_crt_find_parent:00000000 $t
    {standard input}:5914   .text.x509_crt_find_parent:00000000 x509_crt_find_parent
    {standard input}:6018   .text.x509_crt_check_ee_locally_trusted:00000000 $t
    {standard input}:6022   .text.x509_crt_check_ee_locally_trusted:00000000 x509_crt_check_ee_locally_trusted
    {standard input}:6113   .text.x509_crt_verify_chain:00000000 $t
    {standard input}:6117   .text.x509_crt_verify_chain:00000000 x509_crt_verify_chain
    {standard input}:6390   .text.x509_crt_verify_chain:000001a8 $d
    {standard input}:6395   .text.x509_crt_check_cn:00000000 $t
    {standard input}:6399   .text.x509_crt_check_cn:00000000 x509_crt_check_cn
    {standard input}:6472   .text.x509_crt_verify_name:00000000 $t
    {standard input}:6476   .text.x509_crt_verify_name:00000000 x509_crt_verify_name
    {standard input}:6627   .text.x509_crt_verify_name:000000cc $d
    {standard input}:6632   .text.x509_crt_merge_flags_with_cb:00000000 $t
    {standard input}:6636   .text.x509_crt_merge_flags_with_cb:00000000 x509_crt_merge_flags_with_cb
    {standard input}:6729   .text.mbedtls_x509_crt_verify:00000000 $t
    {standard input}:6734   .text.mbedtls_x509_crt_verify:00000000 mbedtls_x509_crt_verify
    {standard input}:6852   .text.mbedtls_x509_crt_verify_restartable:00000000 mbedtls_x509_crt_verify_restartable
    {standard input}:6785   .text.mbedtls_x509_crt_verify:00000038 $d
    {standard input}:6790   .text.mbedtls_x509_crt_verify_with_profile:00000000 $t
    {standard input}:6795   .text.mbedtls_x509_crt_verify_with_profile:00000000 mbedtls_x509_crt_verify_with_profile
    {standard input}:6847   .text.mbedtls_x509_crt_verify_restartable:00000000 $t
    {standard input}:7016   .text.mbedtls_x509_crt_verify_restartable:000000fc $d
    {standard input}:7023   .text.mbedtls_x509_crt_init:00000000 $t
    {standard input}:7064   .text.mbedtls_x509_crt_free:00000000 $t
                     .debug_frame:00000010 $d

UNDEFINED SYMBOLS
mbedtls_pk_get_type
strlen
memcmp
mbedtls_asn1_get_tag
mbedtls_asn1_get_int
mbedtls_x509_get_time
mbedtls_asn1_get_bool
mbedtls_asn1_get_bitstring
mbedtls_asn1_get_sequence_of
mbedtls_asn1_get_len
calloc
mbedtls_x509_get_ext
mbedtls_oid_get_x509_ext_type
memset
memcpy
mbedtls_x509_get_serial
mbedtls_x509_get_alg
mbedtls_x509_get_sig_alg
mbedtls_x509_get_name
mbedtls_pk_parse_subpubkey
mbedtls_x509_get_sig
free
snprintf
mbedtls_oid_get_extended_key_usage
mbedtls_x509_serial_gets
mbedtls_x509_dn_gets
mbedtls_x509_sig_alg_gets
mbedtls_pk_get_name
mbedtls_x509_key_size_helper
mbedtls_pk_get_bitlen
mbedtls_md_info_from_type
mbedtls_md
mbedtls_pk_can_do
mbedtls_md_get_size
mbedtls_pk_verify_ext
mbedtls_x509_time_is_past
mbedtls_x509_time_is_future
mbedtls_pk_free
mbedtls_platform_zeroize
