   1              	 .syntax unified
   2              	 .cpu cortex-m4
   3              	 .eabi_attribute 27,3
   4              	 .fpu fpv4-sp-d16
   5              	 .eabi_attribute 20,1
   6              	 .eabi_attribute 21,1
   7              	 .eabi_attribute 23,3
   8              	 .eabi_attribute 24,1
   9              	 .eabi_attribute 25,1
  10              	 .eabi_attribute 26,1
  11              	 .eabi_attribute 30,6
  12              	 .eabi_attribute 34,1
  13              	 .eabi_attribute 18,4
  14              	 .thumb
  15              	 .file "x509.c"
  16              	 .text
  17              	.Ltext0:
  18              	 .cfi_sections .debug_frame
  19              	 .section .text.mbedtls_x509_get_serial,"ax",%progbits
  20              	 .align 2
  21              	 .global mbedtls_x509_get_serial
  22              	 .thumb
  23              	 .thumb_func
  25              	mbedtls_x509_get_serial:
  26              	.LFB9:
  27              	 .file 1 "C:/Users/Yushev/git/wpcqi-optiga-trust-charge/optiga/externals/mbedtls/library/x509.c"
   1:C:/Users/Yushev/git/wpcqi-optiga-trust-charge/optiga/externals/mbedtls/library\x509.c **** /*
   2:C:/Users/Yushev/git/wpcqi-optiga-trust-charge/optiga/externals/mbedtls/library\x509.c ****  *  X.509 common functions for parsing and verification
   3:C:/Users/Yushev/git/wpcqi-optiga-trust-charge/optiga/externals/mbedtls/library\x509.c ****  *
   4:C:/Users/Yushev/git/wpcqi-optiga-trust-charge/optiga/externals/mbedtls/library\x509.c ****  *  Copyright (C) 2006-2015, ARM Limited, All Rights Reserved
   5:C:/Users/Yushev/git/wpcqi-optiga-trust-charge/optiga/externals/mbedtls/library\x509.c ****  *  SPDX-License-Identifier: Apache-2.0
   6:C:/Users/Yushev/git/wpcqi-optiga-trust-charge/optiga/externals/mbedtls/library\x509.c ****  *
   7:C:/Users/Yushev/git/wpcqi-optiga-trust-charge/optiga/externals/mbedtls/library\x509.c ****  *  Licensed under the Apache License, Version 2.0 (the "License"); you may
   8:C:/Users/Yushev/git/wpcqi-optiga-trust-charge/optiga/externals/mbedtls/library\x509.c ****  *  not use this file except in compliance with the License.
   9:C:/Users/Yushev/git/wpcqi-optiga-trust-charge/optiga/externals/mbedtls/library\x509.c ****  *  You may obtain a copy of the License at
  10:C:/Users/Yushev/git/wpcqi-optiga-trust-charge/optiga/externals/mbedtls/library\x509.c ****  *
  11:C:/Users/Yushev/git/wpcqi-optiga-trust-charge/optiga/externals/mbedtls/library\x509.c ****  *  http://www.apache.org/licenses/LICENSE-2.0
  12:C:/Users/Yushev/git/wpcqi-optiga-trust-charge/optiga/externals/mbedtls/library\x509.c ****  *
  13:C:/Users/Yushev/git/wpcqi-optiga-trust-charge/optiga/externals/mbedtls/library\x509.c ****  *  Unless required by applicable law or agreed to in writing, software
  14:C:/Users/Yushev/git/wpcqi-optiga-trust-charge/optiga/externals/mbedtls/library\x509.c ****  *  distributed under the License is distributed on an "AS IS" BASIS, WITHOUT
  15:C:/Users/Yushev/git/wpcqi-optiga-trust-charge/optiga/externals/mbedtls/library\x509.c ****  *  WARRANTIES OR CONDITIONS OF ANY KIND, either express or implied.
  16:C:/Users/Yushev/git/wpcqi-optiga-trust-charge/optiga/externals/mbedtls/library\x509.c ****  *  See the License for the specific language governing permissions and
  17:C:/Users/Yushev/git/wpcqi-optiga-trust-charge/optiga/externals/mbedtls/library\x509.c ****  *  limitations under the License.
  18:C:/Users/Yushev/git/wpcqi-optiga-trust-charge/optiga/externals/mbedtls/library\x509.c ****  *
  19:C:/Users/Yushev/git/wpcqi-optiga-trust-charge/optiga/externals/mbedtls/library\x509.c ****  *  This file is part of mbed TLS (https://tls.mbed.org)
  20:C:/Users/Yushev/git/wpcqi-optiga-trust-charge/optiga/externals/mbedtls/library\x509.c ****  */
  21:C:/Users/Yushev/git/wpcqi-optiga-trust-charge/optiga/externals/mbedtls/library\x509.c **** /*
  22:C:/Users/Yushev/git/wpcqi-optiga-trust-charge/optiga/externals/mbedtls/library\x509.c ****  *  The ITU-T X.509 standard defines a certificate format for PKI.
  23:C:/Users/Yushev/git/wpcqi-optiga-trust-charge/optiga/externals/mbedtls/library\x509.c ****  *
  24:C:/Users/Yushev/git/wpcqi-optiga-trust-charge/optiga/externals/mbedtls/library\x509.c ****  *  http://www.ietf.org/rfc/rfc5280.txt (Certificates and CRLs)
  25:C:/Users/Yushev/git/wpcqi-optiga-trust-charge/optiga/externals/mbedtls/library\x509.c ****  *  http://www.ietf.org/rfc/rfc3279.txt (Alg IDs for CRLs)
  26:C:/Users/Yushev/git/wpcqi-optiga-trust-charge/optiga/externals/mbedtls/library\x509.c ****  *  http://www.ietf.org/rfc/rfc2986.txt (CSRs, aka PKCS#10)
  27:C:/Users/Yushev/git/wpcqi-optiga-trust-charge/optiga/externals/mbedtls/library\x509.c ****  *
  28:C:/Users/Yushev/git/wpcqi-optiga-trust-charge/optiga/externals/mbedtls/library\x509.c ****  *  http://www.itu.int/ITU-T/studygroups/com17/languages/X.680-0207.pdf
  29:C:/Users/Yushev/git/wpcqi-optiga-trust-charge/optiga/externals/mbedtls/library\x509.c ****  *  http://www.itu.int/ITU-T/studygroups/com17/languages/X.690-0207.pdf
  30:C:/Users/Yushev/git/wpcqi-optiga-trust-charge/optiga/externals/mbedtls/library\x509.c ****  */
  31:C:/Users/Yushev/git/wpcqi-optiga-trust-charge/optiga/externals/mbedtls/library\x509.c **** 
  32:C:/Users/Yushev/git/wpcqi-optiga-trust-charge/optiga/externals/mbedtls/library\x509.c **** #if !defined(MBEDTLS_CONFIG_FILE)
  33:C:/Users/Yushev/git/wpcqi-optiga-trust-charge/optiga/externals/mbedtls/library\x509.c **** #include "mbedtls/config.h"
  34:C:/Users/Yushev/git/wpcqi-optiga-trust-charge/optiga/externals/mbedtls/library\x509.c **** #else
  35:C:/Users/Yushev/git/wpcqi-optiga-trust-charge/optiga/externals/mbedtls/library\x509.c **** #include MBEDTLS_CONFIG_FILE
  36:C:/Users/Yushev/git/wpcqi-optiga-trust-charge/optiga/externals/mbedtls/library\x509.c **** #endif
  37:C:/Users/Yushev/git/wpcqi-optiga-trust-charge/optiga/externals/mbedtls/library\x509.c **** 
  38:C:/Users/Yushev/git/wpcqi-optiga-trust-charge/optiga/externals/mbedtls/library\x509.c **** #if defined(MBEDTLS_X509_USE_C)
  39:C:/Users/Yushev/git/wpcqi-optiga-trust-charge/optiga/externals/mbedtls/library\x509.c **** 
  40:C:/Users/Yushev/git/wpcqi-optiga-trust-charge/optiga/externals/mbedtls/library\x509.c **** #include "mbedtls/x509.h"
  41:C:/Users/Yushev/git/wpcqi-optiga-trust-charge/optiga/externals/mbedtls/library\x509.c **** #include "mbedtls/asn1.h"
  42:C:/Users/Yushev/git/wpcqi-optiga-trust-charge/optiga/externals/mbedtls/library\x509.c **** #include "mbedtls/oid.h"
  43:C:/Users/Yushev/git/wpcqi-optiga-trust-charge/optiga/externals/mbedtls/library\x509.c **** 
  44:C:/Users/Yushev/git/wpcqi-optiga-trust-charge/optiga/externals/mbedtls/library\x509.c **** #include <stdio.h>
  45:C:/Users/Yushev/git/wpcqi-optiga-trust-charge/optiga/externals/mbedtls/library\x509.c **** #include <string.h>
  46:C:/Users/Yushev/git/wpcqi-optiga-trust-charge/optiga/externals/mbedtls/library\x509.c **** 
  47:C:/Users/Yushev/git/wpcqi-optiga-trust-charge/optiga/externals/mbedtls/library\x509.c **** #if defined(MBEDTLS_PEM_PARSE_C)
  48:C:/Users/Yushev/git/wpcqi-optiga-trust-charge/optiga/externals/mbedtls/library\x509.c **** #include "mbedtls/pem.h"
  49:C:/Users/Yushev/git/wpcqi-optiga-trust-charge/optiga/externals/mbedtls/library\x509.c **** #endif
  50:C:/Users/Yushev/git/wpcqi-optiga-trust-charge/optiga/externals/mbedtls/library\x509.c **** 
  51:C:/Users/Yushev/git/wpcqi-optiga-trust-charge/optiga/externals/mbedtls/library\x509.c **** #if defined(MBEDTLS_PLATFORM_C)
  52:C:/Users/Yushev/git/wpcqi-optiga-trust-charge/optiga/externals/mbedtls/library\x509.c **** #include "mbedtls/platform.h"
  53:C:/Users/Yushev/git/wpcqi-optiga-trust-charge/optiga/externals/mbedtls/library\x509.c **** #else
  54:C:/Users/Yushev/git/wpcqi-optiga-trust-charge/optiga/externals/mbedtls/library\x509.c **** #include <stdio.h>
  55:C:/Users/Yushev/git/wpcqi-optiga-trust-charge/optiga/externals/mbedtls/library\x509.c **** #include <stdlib.h>
  56:C:/Users/Yushev/git/wpcqi-optiga-trust-charge/optiga/externals/mbedtls/library\x509.c **** #define mbedtls_free      free
  57:C:/Users/Yushev/git/wpcqi-optiga-trust-charge/optiga/externals/mbedtls/library\x509.c **** #define mbedtls_calloc    calloc
  58:C:/Users/Yushev/git/wpcqi-optiga-trust-charge/optiga/externals/mbedtls/library\x509.c **** #define mbedtls_printf    printf
  59:C:/Users/Yushev/git/wpcqi-optiga-trust-charge/optiga/externals/mbedtls/library\x509.c **** #define mbedtls_snprintf  snprintf
  60:C:/Users/Yushev/git/wpcqi-optiga-trust-charge/optiga/externals/mbedtls/library\x509.c **** #endif
  61:C:/Users/Yushev/git/wpcqi-optiga-trust-charge/optiga/externals/mbedtls/library\x509.c **** 
  62:C:/Users/Yushev/git/wpcqi-optiga-trust-charge/optiga/externals/mbedtls/library\x509.c **** #if defined(MBEDTLS_HAVE_TIME)
  63:C:/Users/Yushev/git/wpcqi-optiga-trust-charge/optiga/externals/mbedtls/library\x509.c **** #include "mbedtls/platform_time.h"
  64:C:/Users/Yushev/git/wpcqi-optiga-trust-charge/optiga/externals/mbedtls/library\x509.c **** #endif
  65:C:/Users/Yushev/git/wpcqi-optiga-trust-charge/optiga/externals/mbedtls/library\x509.c **** #if defined(MBEDTLS_HAVE_TIME_DATE)
  66:C:/Users/Yushev/git/wpcqi-optiga-trust-charge/optiga/externals/mbedtls/library\x509.c **** #include "mbedtls/platform_util.h"
  67:C:/Users/Yushev/git/wpcqi-optiga-trust-charge/optiga/externals/mbedtls/library\x509.c **** #include <time.h>
  68:C:/Users/Yushev/git/wpcqi-optiga-trust-charge/optiga/externals/mbedtls/library\x509.c **** #endif
  69:C:/Users/Yushev/git/wpcqi-optiga-trust-charge/optiga/externals/mbedtls/library\x509.c **** 
  70:C:/Users/Yushev/git/wpcqi-optiga-trust-charge/optiga/externals/mbedtls/library\x509.c **** #define CHECK(code) if( ( ret = code ) != 0 ){ return( ret ); }
  71:C:/Users/Yushev/git/wpcqi-optiga-trust-charge/optiga/externals/mbedtls/library\x509.c **** #define CHECK_RANGE(min, max, val) if( val < min || val > max ){ return( ret ); }
  72:C:/Users/Yushev/git/wpcqi-optiga-trust-charge/optiga/externals/mbedtls/library\x509.c **** 
  73:C:/Users/Yushev/git/wpcqi-optiga-trust-charge/optiga/externals/mbedtls/library\x509.c **** /*
  74:C:/Users/Yushev/git/wpcqi-optiga-trust-charge/optiga/externals/mbedtls/library\x509.c ****  *  CertificateSerialNumber  ::=  INTEGER
  75:C:/Users/Yushev/git/wpcqi-optiga-trust-charge/optiga/externals/mbedtls/library\x509.c ****  */
  76:C:/Users/Yushev/git/wpcqi-optiga-trust-charge/optiga/externals/mbedtls/library\x509.c **** int mbedtls_x509_get_serial( unsigned char **p, const unsigned char *end,
  77:C:/Users/Yushev/git/wpcqi-optiga-trust-charge/optiga/externals/mbedtls/library\x509.c ****                      mbedtls_x509_buf *serial )
  78:C:/Users/Yushev/git/wpcqi-optiga-trust-charge/optiga/externals/mbedtls/library\x509.c **** {
  28              	 .loc 1 78 0
  29              	 .cfi_startproc
  30              	 
  31              	 
  32 0000 80B5     	 push {r7,lr}
  33              	.LCFI0:
  34              	 .cfi_def_cfa_offset 8
  35              	 .cfi_offset 7,-8
  36              	 .cfi_offset 14,-4
  37 0002 86B0     	 sub sp,sp,#24
  38              	.LCFI1:
  39              	 .cfi_def_cfa_offset 32
  40 0004 00AF     	 add r7,sp,#0
  41              	.LCFI2:
  42              	 .cfi_def_cfa_register 7
  43 0006 F860     	 str r0,[r7,#12]
  44 0008 B960     	 str r1,[r7,#8]
  45 000a 7A60     	 str r2,[r7,#4]
  79:C:/Users/Yushev/git/wpcqi-optiga-trust-charge/optiga/externals/mbedtls/library\x509.c ****     int ret;
  80:C:/Users/Yushev/git/wpcqi-optiga-trust-charge/optiga/externals/mbedtls/library\x509.c **** 
  81:C:/Users/Yushev/git/wpcqi-optiga-trust-charge/optiga/externals/mbedtls/library\x509.c ****     if( ( end - *p ) < 1 )
  46              	 .loc 1 81 0
  47 000c BB68     	 ldr r3,[r7,#8]
  48 000e FA68     	 ldr r2,[r7,#12]
  49 0010 1268     	 ldr r2,[r2]
  50 0012 9B1A     	 subs r3,r3,r2
  51 0014 002B     	 cmp r3,#0
  52 0016 01DC     	 bgt .L2
  82:C:/Users/Yushev/git/wpcqi-optiga-trust-charge/optiga/externals/mbedtls/library\x509.c ****         return( MBEDTLS_ERR_X509_INVALID_SERIAL +
  53              	 .loc 1 82 0
  54 0018 1A4B     	 ldr r3,.L6
  55 001a 2FE0     	 b .L3
  56              	.L2:
  83:C:/Users/Yushev/git/wpcqi-optiga-trust-charge/optiga/externals/mbedtls/library\x509.c ****                 MBEDTLS_ERR_ASN1_OUT_OF_DATA );
  84:C:/Users/Yushev/git/wpcqi-optiga-trust-charge/optiga/externals/mbedtls/library\x509.c **** 
  85:C:/Users/Yushev/git/wpcqi-optiga-trust-charge/optiga/externals/mbedtls/library\x509.c ****     if( **p != ( MBEDTLS_ASN1_CONTEXT_SPECIFIC | MBEDTLS_ASN1_PRIMITIVE | 2 ) &&
  57              	 .loc 1 85 0
  58 001c FB68     	 ldr r3,[r7,#12]
  59 001e 1B68     	 ldr r3,[r3]
  60 0020 1B78     	 ldrb r3,[r3]
  61 0022 822B     	 cmp r3,#130
  62 0024 06D0     	 beq .L4
  86:C:/Users/Yushev/git/wpcqi-optiga-trust-charge/optiga/externals/mbedtls/library\x509.c ****         **p !=   MBEDTLS_ASN1_INTEGER )
  63              	 .loc 1 86 0 discriminator 1
  64 0026 FB68     	 ldr r3,[r7,#12]
  65 0028 1B68     	 ldr r3,[r3]
  66 002a 1B78     	 ldrb r3,[r3]
  85:C:/Users/Yushev/git/wpcqi-optiga-trust-charge/optiga/externals/mbedtls/library\x509.c ****         **p !=   MBEDTLS_ASN1_INTEGER )
  67              	 .loc 1 85 0 discriminator 1
  68 002c 022B     	 cmp r3,#2
  69 002e 01D0     	 beq .L4
  87:C:/Users/Yushev/git/wpcqi-optiga-trust-charge/optiga/externals/mbedtls/library\x509.c ****         return( MBEDTLS_ERR_X509_INVALID_SERIAL +
  70              	 .loc 1 87 0
  71 0030 154B     	 ldr r3,.L6+4
  72 0032 23E0     	 b .L3
  73              	.L4:
  88:C:/Users/Yushev/git/wpcqi-optiga-trust-charge/optiga/externals/mbedtls/library\x509.c ****                 MBEDTLS_ERR_ASN1_UNEXPECTED_TAG );
  89:C:/Users/Yushev/git/wpcqi-optiga-trust-charge/optiga/externals/mbedtls/library\x509.c **** 
  90:C:/Users/Yushev/git/wpcqi-optiga-trust-charge/optiga/externals/mbedtls/library\x509.c ****     serial->tag = *(*p)++;
  74              	 .loc 1 90 0
  75 0034 FB68     	 ldr r3,[r7,#12]
  76 0036 1B68     	 ldr r3,[r3]
  77 0038 591C     	 adds r1,r3,#1
  78 003a FA68     	 ldr r2,[r7,#12]
  79 003c 1160     	 str r1,[r2]
  80 003e 1B78     	 ldrb r3,[r3]
  81 0040 1A46     	 mov r2,r3
  82 0042 7B68     	 ldr r3,[r7,#4]
  83 0044 1A60     	 str r2,[r3]
  91:C:/Users/Yushev/git/wpcqi-optiga-trust-charge/optiga/externals/mbedtls/library\x509.c **** 
  92:C:/Users/Yushev/git/wpcqi-optiga-trust-charge/optiga/externals/mbedtls/library\x509.c ****     if( ( ret = mbedtls_asn1_get_len( p, end, &serial->len ) ) != 0 )
  84              	 .loc 1 92 0
  85 0046 7B68     	 ldr r3,[r7,#4]
  86 0048 0433     	 adds r3,r3,#4
  87 004a F868     	 ldr r0,[r7,#12]
  88 004c B968     	 ldr r1,[r7,#8]
  89 004e 1A46     	 mov r2,r3
  90 0050 FFF7FEFF 	 bl mbedtls_asn1_get_len
  91 0054 7861     	 str r0,[r7,#20]
  92 0056 7B69     	 ldr r3,[r7,#20]
  93 0058 002B     	 cmp r3,#0
  94 005a 03D0     	 beq .L5
  93:C:/Users/Yushev/git/wpcqi-optiga-trust-charge/optiga/externals/mbedtls/library\x509.c ****         return( MBEDTLS_ERR_X509_INVALID_SERIAL + ret );
  95              	 .loc 1 93 0
  96 005c 7B69     	 ldr r3,[r7,#20]
  97 005e A3F50A53 	 sub r3,r3,#8832
  98 0062 0BE0     	 b .L3
  99              	.L5:
  94:C:/Users/Yushev/git/wpcqi-optiga-trust-charge/optiga/externals/mbedtls/library\x509.c **** 
  95:C:/Users/Yushev/git/wpcqi-optiga-trust-charge/optiga/externals/mbedtls/library\x509.c ****     serial->p = *p;
 100              	 .loc 1 95 0
 101 0064 FB68     	 ldr r3,[r7,#12]
 102 0066 1A68     	 ldr r2,[r3]
 103 0068 7B68     	 ldr r3,[r7,#4]
 104 006a 9A60     	 str r2,[r3,#8]
  96:C:/Users/Yushev/git/wpcqi-optiga-trust-charge/optiga/externals/mbedtls/library\x509.c ****     *p += serial->len;
 105              	 .loc 1 96 0
 106 006c FB68     	 ldr r3,[r7,#12]
 107 006e 1A68     	 ldr r2,[r3]
 108 0070 7B68     	 ldr r3,[r7,#4]
 109 0072 5B68     	 ldr r3,[r3,#4]
 110 0074 1A44     	 add r2,r2,r3
 111 0076 FB68     	 ldr r3,[r7,#12]
 112 0078 1A60     	 str r2,[r3]
  97:C:/Users/Yushev/git/wpcqi-optiga-trust-charge/optiga/externals/mbedtls/library\x509.c **** 
  98:C:/Users/Yushev/git/wpcqi-optiga-trust-charge/optiga/externals/mbedtls/library\x509.c ****     return( 0 );
 113              	 .loc 1 98 0
 114 007a 0023     	 movs r3,#0
 115              	.L3:
  99:C:/Users/Yushev/git/wpcqi-optiga-trust-charge/optiga/externals/mbedtls/library\x509.c **** }
 116              	 .loc 1 99 0
 117 007c 1846     	 mov r0,r3
 118 007e 1837     	 adds r7,r7,#24
 119              	.LCFI3:
 120              	 .cfi_def_cfa_offset 8
 121 0080 BD46     	 mov sp,r7
 122              	.LCFI4:
 123              	 .cfi_def_cfa_register 13
 124              	 
 125 0082 80BD     	 pop {r7,pc}
 126              	.L7:
 127              	 .align 2
 128              	.L6:
 129 0084 20DDFFFF 	 .word -8928
 130 0088 1EDDFFFF 	 .word -8930
 131              	 .cfi_endproc
 132              	.LFE9:
 134              	 .section .text.mbedtls_x509_get_alg_null,"ax",%progbits
 135              	 .align 2
 136              	 .global mbedtls_x509_get_alg_null
 137              	 .thumb
 138              	 .thumb_func
 140              	mbedtls_x509_get_alg_null:
 141              	.LFB10:
 100:C:/Users/Yushev/git/wpcqi-optiga-trust-charge/optiga/externals/mbedtls/library\x509.c **** 
 101:C:/Users/Yushev/git/wpcqi-optiga-trust-charge/optiga/externals/mbedtls/library\x509.c **** /* Get an algorithm identifier without parameters (eg for signatures)
 102:C:/Users/Yushev/git/wpcqi-optiga-trust-charge/optiga/externals/mbedtls/library\x509.c ****  *
 103:C:/Users/Yushev/git/wpcqi-optiga-trust-charge/optiga/externals/mbedtls/library\x509.c ****  *  AlgorithmIdentifier  ::=  SEQUENCE  {
 104:C:/Users/Yushev/git/wpcqi-optiga-trust-charge/optiga/externals/mbedtls/library\x509.c ****  *       algorithm               OBJECT IDENTIFIER,
 105:C:/Users/Yushev/git/wpcqi-optiga-trust-charge/optiga/externals/mbedtls/library\x509.c ****  *       parameters              ANY DEFINED BY algorithm OPTIONAL  }
 106:C:/Users/Yushev/git/wpcqi-optiga-trust-charge/optiga/externals/mbedtls/library\x509.c ****  */
 107:C:/Users/Yushev/git/wpcqi-optiga-trust-charge/optiga/externals/mbedtls/library\x509.c **** int mbedtls_x509_get_alg_null( unsigned char **p, const unsigned char *end,
 108:C:/Users/Yushev/git/wpcqi-optiga-trust-charge/optiga/externals/mbedtls/library\x509.c ****                        mbedtls_x509_buf *alg )
 109:C:/Users/Yushev/git/wpcqi-optiga-trust-charge/optiga/externals/mbedtls/library\x509.c **** {
 142              	 .loc 1 109 0
 143              	 .cfi_startproc
 144              	 
 145              	 
 146 0000 80B5     	 push {r7,lr}
 147              	.LCFI5:
 148              	 .cfi_def_cfa_offset 8
 149              	 .cfi_offset 7,-8
 150              	 .cfi_offset 14,-4
 151 0002 86B0     	 sub sp,sp,#24
 152              	.LCFI6:
 153              	 .cfi_def_cfa_offset 32
 154 0004 00AF     	 add r7,sp,#0
 155              	.LCFI7:
 156              	 .cfi_def_cfa_register 7
 157 0006 F860     	 str r0,[r7,#12]
 158 0008 B960     	 str r1,[r7,#8]
 159 000a 7A60     	 str r2,[r7,#4]
 110:C:/Users/Yushev/git/wpcqi-optiga-trust-charge/optiga/externals/mbedtls/library\x509.c ****     int ret;
 111:C:/Users/Yushev/git/wpcqi-optiga-trust-charge/optiga/externals/mbedtls/library\x509.c **** 
 112:C:/Users/Yushev/git/wpcqi-optiga-trust-charge/optiga/externals/mbedtls/library\x509.c ****     if( ( ret = mbedtls_asn1_get_alg_null( p, end, alg ) ) != 0 )
 160              	 .loc 1 112 0
 161 000c F868     	 ldr r0,[r7,#12]
 162 000e B968     	 ldr r1,[r7,#8]
 163 0010 7A68     	 ldr r2,[r7,#4]
 164 0012 FFF7FEFF 	 bl mbedtls_asn1_get_alg_null
 165 0016 7861     	 str r0,[r7,#20]
 166 0018 7B69     	 ldr r3,[r7,#20]
 167 001a 002B     	 cmp r3,#0
 168 001c 03D0     	 beq .L9
 113:C:/Users/Yushev/git/wpcqi-optiga-trust-charge/optiga/externals/mbedtls/library\x509.c ****         return( MBEDTLS_ERR_X509_INVALID_ALG + ret );
 169              	 .loc 1 113 0
 170 001e 7B69     	 ldr r3,[r7,#20]
 171 0020 A3F50C53 	 sub r3,r3,#8960
 172 0024 00E0     	 b .L10
 173              	.L9:
 114:C:/Users/Yushev/git/wpcqi-optiga-trust-charge/optiga/externals/mbedtls/library\x509.c **** 
 115:C:/Users/Yushev/git/wpcqi-optiga-trust-charge/optiga/externals/mbedtls/library\x509.c ****     return( 0 );
 174              	 .loc 1 115 0
 175 0026 0023     	 movs r3,#0
 176              	.L10:
 116:C:/Users/Yushev/git/wpcqi-optiga-trust-charge/optiga/externals/mbedtls/library\x509.c **** }
 177              	 .loc 1 116 0
 178 0028 1846     	 mov r0,r3
 179 002a 1837     	 adds r7,r7,#24
 180              	.LCFI8:
 181              	 .cfi_def_cfa_offset 8
 182 002c BD46     	 mov sp,r7
 183              	.LCFI9:
 184              	 .cfi_def_cfa_register 13
 185              	 
 186 002e 80BD     	 pop {r7,pc}
 187              	 .cfi_endproc
 188              	.LFE10:
 190              	 .section .text.mbedtls_x509_get_alg,"ax",%progbits
 191              	 .align 2
 192              	 .global mbedtls_x509_get_alg
 193              	 .thumb
 194              	 .thumb_func
 196              	mbedtls_x509_get_alg:
 197              	.LFB11:
 117:C:/Users/Yushev/git/wpcqi-optiga-trust-charge/optiga/externals/mbedtls/library\x509.c **** 
 118:C:/Users/Yushev/git/wpcqi-optiga-trust-charge/optiga/externals/mbedtls/library\x509.c **** /*
 119:C:/Users/Yushev/git/wpcqi-optiga-trust-charge/optiga/externals/mbedtls/library\x509.c ****  * Parse an algorithm identifier with (optional) paramaters
 120:C:/Users/Yushev/git/wpcqi-optiga-trust-charge/optiga/externals/mbedtls/library\x509.c ****  */
 121:C:/Users/Yushev/git/wpcqi-optiga-trust-charge/optiga/externals/mbedtls/library\x509.c **** int mbedtls_x509_get_alg( unsigned char **p, const unsigned char *end,
 122:C:/Users/Yushev/git/wpcqi-optiga-trust-charge/optiga/externals/mbedtls/library\x509.c ****                   mbedtls_x509_buf *alg, mbedtls_x509_buf *params )
 123:C:/Users/Yushev/git/wpcqi-optiga-trust-charge/optiga/externals/mbedtls/library\x509.c **** {
 198              	 .loc 1 123 0
 199              	 .cfi_startproc
 200              	 
 201              	 
 202 0000 80B5     	 push {r7,lr}
 203              	.LCFI10:
 204              	 .cfi_def_cfa_offset 8
 205              	 .cfi_offset 7,-8
 206              	 .cfi_offset 14,-4
 207 0002 86B0     	 sub sp,sp,#24
 208              	.LCFI11:
 209              	 .cfi_def_cfa_offset 32
 210 0004 00AF     	 add r7,sp,#0
 211              	.LCFI12:
 212              	 .cfi_def_cfa_register 7
 213 0006 F860     	 str r0,[r7,#12]
 214 0008 B960     	 str r1,[r7,#8]
 215 000a 7A60     	 str r2,[r7,#4]
 216 000c 3B60     	 str r3,[r7]
 124:C:/Users/Yushev/git/wpcqi-optiga-trust-charge/optiga/externals/mbedtls/library\x509.c ****     int ret;
 125:C:/Users/Yushev/git/wpcqi-optiga-trust-charge/optiga/externals/mbedtls/library\x509.c **** 
 126:C:/Users/Yushev/git/wpcqi-optiga-trust-charge/optiga/externals/mbedtls/library\x509.c ****     if( ( ret = mbedtls_asn1_get_alg( p, end, alg, params ) ) != 0 )
 217              	 .loc 1 126 0
 218 000e F868     	 ldr r0,[r7,#12]
 219 0010 B968     	 ldr r1,[r7,#8]
 220 0012 7A68     	 ldr r2,[r7,#4]
 221 0014 3B68     	 ldr r3,[r7]
 222 0016 FFF7FEFF 	 bl mbedtls_asn1_get_alg
 223 001a 7861     	 str r0,[r7,#20]
 224 001c 7B69     	 ldr r3,[r7,#20]
 225 001e 002B     	 cmp r3,#0
 226 0020 03D0     	 beq .L12
 127:C:/Users/Yushev/git/wpcqi-optiga-trust-charge/optiga/externals/mbedtls/library\x509.c ****         return( MBEDTLS_ERR_X509_INVALID_ALG + ret );
 227              	 .loc 1 127 0
 228 0022 7B69     	 ldr r3,[r7,#20]
 229 0024 A3F50C53 	 sub r3,r3,#8960
 230 0028 00E0     	 b .L13
 231              	.L12:
 128:C:/Users/Yushev/git/wpcqi-optiga-trust-charge/optiga/externals/mbedtls/library\x509.c **** 
 129:C:/Users/Yushev/git/wpcqi-optiga-trust-charge/optiga/externals/mbedtls/library\x509.c ****     return( 0 );
 232              	 .loc 1 129 0
 233 002a 0023     	 movs r3,#0
 234              	.L13:
 130:C:/Users/Yushev/git/wpcqi-optiga-trust-charge/optiga/externals/mbedtls/library\x509.c **** }
 235              	 .loc 1 130 0
 236 002c 1846     	 mov r0,r3
 237 002e 1837     	 adds r7,r7,#24
 238              	.LCFI13:
 239              	 .cfi_def_cfa_offset 8
 240 0030 BD46     	 mov sp,r7
 241              	.LCFI14:
 242              	 .cfi_def_cfa_register 13
 243              	 
 244 0032 80BD     	 pop {r7,pc}
 245              	 .cfi_endproc
 246              	.LFE11:
 248              	 .section .text.x509_get_attr_type_value,"ax",%progbits
 249              	 .align 2
 250              	 .thumb
 251              	 .thumb_func
 253              	x509_get_attr_type_value:
 254              	.LFB12:
 131:C:/Users/Yushev/git/wpcqi-optiga-trust-charge/optiga/externals/mbedtls/library\x509.c **** 
 132:C:/Users/Yushev/git/wpcqi-optiga-trust-charge/optiga/externals/mbedtls/library\x509.c **** #if defined(MBEDTLS_X509_RSASSA_PSS_SUPPORT)
 133:C:/Users/Yushev/git/wpcqi-optiga-trust-charge/optiga/externals/mbedtls/library\x509.c **** /*
 134:C:/Users/Yushev/git/wpcqi-optiga-trust-charge/optiga/externals/mbedtls/library\x509.c ****  * HashAlgorithm ::= AlgorithmIdentifier
 135:C:/Users/Yushev/git/wpcqi-optiga-trust-charge/optiga/externals/mbedtls/library\x509.c ****  *
 136:C:/Users/Yushev/git/wpcqi-optiga-trust-charge/optiga/externals/mbedtls/library\x509.c ****  * AlgorithmIdentifier  ::=  SEQUENCE  {
 137:C:/Users/Yushev/git/wpcqi-optiga-trust-charge/optiga/externals/mbedtls/library\x509.c ****  *      algorithm               OBJECT IDENTIFIER,
 138:C:/Users/Yushev/git/wpcqi-optiga-trust-charge/optiga/externals/mbedtls/library\x509.c ****  *      parameters              ANY DEFINED BY algorithm OPTIONAL  }
 139:C:/Users/Yushev/git/wpcqi-optiga-trust-charge/optiga/externals/mbedtls/library\x509.c ****  *
 140:C:/Users/Yushev/git/wpcqi-optiga-trust-charge/optiga/externals/mbedtls/library\x509.c ****  * For HashAlgorithm, parameters MUST be NULL or absent.
 141:C:/Users/Yushev/git/wpcqi-optiga-trust-charge/optiga/externals/mbedtls/library\x509.c ****  */
 142:C:/Users/Yushev/git/wpcqi-optiga-trust-charge/optiga/externals/mbedtls/library\x509.c **** static int x509_get_hash_alg( const mbedtls_x509_buf *alg, mbedtls_md_type_t *md_alg )
 143:C:/Users/Yushev/git/wpcqi-optiga-trust-charge/optiga/externals/mbedtls/library\x509.c **** {
 144:C:/Users/Yushev/git/wpcqi-optiga-trust-charge/optiga/externals/mbedtls/library\x509.c ****     int ret;
 145:C:/Users/Yushev/git/wpcqi-optiga-trust-charge/optiga/externals/mbedtls/library\x509.c ****     unsigned char *p;
 146:C:/Users/Yushev/git/wpcqi-optiga-trust-charge/optiga/externals/mbedtls/library\x509.c ****     const unsigned char *end;
 147:C:/Users/Yushev/git/wpcqi-optiga-trust-charge/optiga/externals/mbedtls/library\x509.c ****     mbedtls_x509_buf md_oid;
 148:C:/Users/Yushev/git/wpcqi-optiga-trust-charge/optiga/externals/mbedtls/library\x509.c ****     size_t len;
 149:C:/Users/Yushev/git/wpcqi-optiga-trust-charge/optiga/externals/mbedtls/library\x509.c **** 
 150:C:/Users/Yushev/git/wpcqi-optiga-trust-charge/optiga/externals/mbedtls/library\x509.c ****     /* Make sure we got a SEQUENCE and setup bounds */
 151:C:/Users/Yushev/git/wpcqi-optiga-trust-charge/optiga/externals/mbedtls/library\x509.c ****     if( alg->tag != ( MBEDTLS_ASN1_CONSTRUCTED | MBEDTLS_ASN1_SEQUENCE ) )
 152:C:/Users/Yushev/git/wpcqi-optiga-trust-charge/optiga/externals/mbedtls/library\x509.c ****         return( MBEDTLS_ERR_X509_INVALID_ALG +
 153:C:/Users/Yushev/git/wpcqi-optiga-trust-charge/optiga/externals/mbedtls/library\x509.c ****                 MBEDTLS_ERR_ASN1_UNEXPECTED_TAG );
 154:C:/Users/Yushev/git/wpcqi-optiga-trust-charge/optiga/externals/mbedtls/library\x509.c **** 
 155:C:/Users/Yushev/git/wpcqi-optiga-trust-charge/optiga/externals/mbedtls/library\x509.c ****     p = (unsigned char *) alg->p;
 156:C:/Users/Yushev/git/wpcqi-optiga-trust-charge/optiga/externals/mbedtls/library\x509.c ****     end = p + alg->len;
 157:C:/Users/Yushev/git/wpcqi-optiga-trust-charge/optiga/externals/mbedtls/library\x509.c **** 
 158:C:/Users/Yushev/git/wpcqi-optiga-trust-charge/optiga/externals/mbedtls/library\x509.c ****     if( p >= end )
 159:C:/Users/Yushev/git/wpcqi-optiga-trust-charge/optiga/externals/mbedtls/library\x509.c ****         return( MBEDTLS_ERR_X509_INVALID_ALG +
 160:C:/Users/Yushev/git/wpcqi-optiga-trust-charge/optiga/externals/mbedtls/library\x509.c ****                 MBEDTLS_ERR_ASN1_OUT_OF_DATA );
 161:C:/Users/Yushev/git/wpcqi-optiga-trust-charge/optiga/externals/mbedtls/library\x509.c **** 
 162:C:/Users/Yushev/git/wpcqi-optiga-trust-charge/optiga/externals/mbedtls/library\x509.c ****     /* Parse md_oid */
 163:C:/Users/Yushev/git/wpcqi-optiga-trust-charge/optiga/externals/mbedtls/library\x509.c ****     md_oid.tag = *p;
 164:C:/Users/Yushev/git/wpcqi-optiga-trust-charge/optiga/externals/mbedtls/library\x509.c **** 
 165:C:/Users/Yushev/git/wpcqi-optiga-trust-charge/optiga/externals/mbedtls/library\x509.c ****     if( ( ret = mbedtls_asn1_get_tag( &p, end, &md_oid.len, MBEDTLS_ASN1_OID ) ) != 0 )
 166:C:/Users/Yushev/git/wpcqi-optiga-trust-charge/optiga/externals/mbedtls/library\x509.c ****         return( MBEDTLS_ERR_X509_INVALID_ALG + ret );
 167:C:/Users/Yushev/git/wpcqi-optiga-trust-charge/optiga/externals/mbedtls/library\x509.c **** 
 168:C:/Users/Yushev/git/wpcqi-optiga-trust-charge/optiga/externals/mbedtls/library\x509.c ****     md_oid.p = p;
 169:C:/Users/Yushev/git/wpcqi-optiga-trust-charge/optiga/externals/mbedtls/library\x509.c ****     p += md_oid.len;
 170:C:/Users/Yushev/git/wpcqi-optiga-trust-charge/optiga/externals/mbedtls/library\x509.c **** 
 171:C:/Users/Yushev/git/wpcqi-optiga-trust-charge/optiga/externals/mbedtls/library\x509.c ****     /* Get md_alg from md_oid */
 172:C:/Users/Yushev/git/wpcqi-optiga-trust-charge/optiga/externals/mbedtls/library\x509.c ****     if( ( ret = mbedtls_oid_get_md_alg( &md_oid, md_alg ) ) != 0 )
 173:C:/Users/Yushev/git/wpcqi-optiga-trust-charge/optiga/externals/mbedtls/library\x509.c ****         return( MBEDTLS_ERR_X509_INVALID_ALG + ret );
 174:C:/Users/Yushev/git/wpcqi-optiga-trust-charge/optiga/externals/mbedtls/library\x509.c **** 
 175:C:/Users/Yushev/git/wpcqi-optiga-trust-charge/optiga/externals/mbedtls/library\x509.c ****     /* Make sure params is absent of NULL */
 176:C:/Users/Yushev/git/wpcqi-optiga-trust-charge/optiga/externals/mbedtls/library\x509.c ****     if( p == end )
 177:C:/Users/Yushev/git/wpcqi-optiga-trust-charge/optiga/externals/mbedtls/library\x509.c ****         return( 0 );
 178:C:/Users/Yushev/git/wpcqi-optiga-trust-charge/optiga/externals/mbedtls/library\x509.c **** 
 179:C:/Users/Yushev/git/wpcqi-optiga-trust-charge/optiga/externals/mbedtls/library\x509.c ****     if( ( ret = mbedtls_asn1_get_tag( &p, end, &len, MBEDTLS_ASN1_NULL ) ) != 0 || len != 0 )
 180:C:/Users/Yushev/git/wpcqi-optiga-trust-charge/optiga/externals/mbedtls/library\x509.c ****         return( MBEDTLS_ERR_X509_INVALID_ALG + ret );
 181:C:/Users/Yushev/git/wpcqi-optiga-trust-charge/optiga/externals/mbedtls/library\x509.c **** 
 182:C:/Users/Yushev/git/wpcqi-optiga-trust-charge/optiga/externals/mbedtls/library\x509.c ****     if( p != end )
 183:C:/Users/Yushev/git/wpcqi-optiga-trust-charge/optiga/externals/mbedtls/library\x509.c ****         return( MBEDTLS_ERR_X509_INVALID_ALG +
 184:C:/Users/Yushev/git/wpcqi-optiga-trust-charge/optiga/externals/mbedtls/library\x509.c ****                 MBEDTLS_ERR_ASN1_LENGTH_MISMATCH );
 185:C:/Users/Yushev/git/wpcqi-optiga-trust-charge/optiga/externals/mbedtls/library\x509.c **** 
 186:C:/Users/Yushev/git/wpcqi-optiga-trust-charge/optiga/externals/mbedtls/library\x509.c ****     return( 0 );
 187:C:/Users/Yushev/git/wpcqi-optiga-trust-charge/optiga/externals/mbedtls/library\x509.c **** }
 188:C:/Users/Yushev/git/wpcqi-optiga-trust-charge/optiga/externals/mbedtls/library\x509.c **** 
 189:C:/Users/Yushev/git/wpcqi-optiga-trust-charge/optiga/externals/mbedtls/library\x509.c **** /*
 190:C:/Users/Yushev/git/wpcqi-optiga-trust-charge/optiga/externals/mbedtls/library\x509.c ****  *    RSASSA-PSS-params  ::=  SEQUENCE  {
 191:C:/Users/Yushev/git/wpcqi-optiga-trust-charge/optiga/externals/mbedtls/library\x509.c ****  *       hashAlgorithm     [0] HashAlgorithm DEFAULT sha1Identifier,
 192:C:/Users/Yushev/git/wpcqi-optiga-trust-charge/optiga/externals/mbedtls/library\x509.c ****  *       maskGenAlgorithm  [1] MaskGenAlgorithm DEFAULT mgf1SHA1Identifier,
 193:C:/Users/Yushev/git/wpcqi-optiga-trust-charge/optiga/externals/mbedtls/library\x509.c ****  *       saltLength        [2] INTEGER DEFAULT 20,
 194:C:/Users/Yushev/git/wpcqi-optiga-trust-charge/optiga/externals/mbedtls/library\x509.c ****  *       trailerField      [3] INTEGER DEFAULT 1  }
 195:C:/Users/Yushev/git/wpcqi-optiga-trust-charge/optiga/externals/mbedtls/library\x509.c ****  *    -- Note that the tags in this Sequence are explicit.
 196:C:/Users/Yushev/git/wpcqi-optiga-trust-charge/optiga/externals/mbedtls/library\x509.c ****  *
 197:C:/Users/Yushev/git/wpcqi-optiga-trust-charge/optiga/externals/mbedtls/library\x509.c ****  * RFC 4055 (which defines use of RSASSA-PSS in PKIX) states that the value
 198:C:/Users/Yushev/git/wpcqi-optiga-trust-charge/optiga/externals/mbedtls/library\x509.c ****  * of trailerField MUST be 1, and PKCS#1 v2.2 doesn't even define any other
 199:C:/Users/Yushev/git/wpcqi-optiga-trust-charge/optiga/externals/mbedtls/library\x509.c ****  * option. Enfore this at parsing time.
 200:C:/Users/Yushev/git/wpcqi-optiga-trust-charge/optiga/externals/mbedtls/library\x509.c ****  */
 201:C:/Users/Yushev/git/wpcqi-optiga-trust-charge/optiga/externals/mbedtls/library\x509.c **** int mbedtls_x509_get_rsassa_pss_params( const mbedtls_x509_buf *params,
 202:C:/Users/Yushev/git/wpcqi-optiga-trust-charge/optiga/externals/mbedtls/library\x509.c ****                                 mbedtls_md_type_t *md_alg, mbedtls_md_type_t *mgf_md,
 203:C:/Users/Yushev/git/wpcqi-optiga-trust-charge/optiga/externals/mbedtls/library\x509.c ****                                 int *salt_len )
 204:C:/Users/Yushev/git/wpcqi-optiga-trust-charge/optiga/externals/mbedtls/library\x509.c **** {
 205:C:/Users/Yushev/git/wpcqi-optiga-trust-charge/optiga/externals/mbedtls/library\x509.c ****     int ret;
 206:C:/Users/Yushev/git/wpcqi-optiga-trust-charge/optiga/externals/mbedtls/library\x509.c ****     unsigned char *p;
 207:C:/Users/Yushev/git/wpcqi-optiga-trust-charge/optiga/externals/mbedtls/library\x509.c ****     const unsigned char *end, *end2;
 208:C:/Users/Yushev/git/wpcqi-optiga-trust-charge/optiga/externals/mbedtls/library\x509.c ****     size_t len;
 209:C:/Users/Yushev/git/wpcqi-optiga-trust-charge/optiga/externals/mbedtls/library\x509.c ****     mbedtls_x509_buf alg_id, alg_params;
 210:C:/Users/Yushev/git/wpcqi-optiga-trust-charge/optiga/externals/mbedtls/library\x509.c **** 
 211:C:/Users/Yushev/git/wpcqi-optiga-trust-charge/optiga/externals/mbedtls/library\x509.c ****     /* First set everything to defaults */
 212:C:/Users/Yushev/git/wpcqi-optiga-trust-charge/optiga/externals/mbedtls/library\x509.c ****     *md_alg = MBEDTLS_MD_SHA1;
 213:C:/Users/Yushev/git/wpcqi-optiga-trust-charge/optiga/externals/mbedtls/library\x509.c ****     *mgf_md = MBEDTLS_MD_SHA1;
 214:C:/Users/Yushev/git/wpcqi-optiga-trust-charge/optiga/externals/mbedtls/library\x509.c ****     *salt_len = 20;
 215:C:/Users/Yushev/git/wpcqi-optiga-trust-charge/optiga/externals/mbedtls/library\x509.c **** 
 216:C:/Users/Yushev/git/wpcqi-optiga-trust-charge/optiga/externals/mbedtls/library\x509.c ****     /* Make sure params is a SEQUENCE and setup bounds */
 217:C:/Users/Yushev/git/wpcqi-optiga-trust-charge/optiga/externals/mbedtls/library\x509.c ****     if( params->tag != ( MBEDTLS_ASN1_CONSTRUCTED | MBEDTLS_ASN1_SEQUENCE ) )
 218:C:/Users/Yushev/git/wpcqi-optiga-trust-charge/optiga/externals/mbedtls/library\x509.c ****         return( MBEDTLS_ERR_X509_INVALID_ALG +
 219:C:/Users/Yushev/git/wpcqi-optiga-trust-charge/optiga/externals/mbedtls/library\x509.c ****                 MBEDTLS_ERR_ASN1_UNEXPECTED_TAG );
 220:C:/Users/Yushev/git/wpcqi-optiga-trust-charge/optiga/externals/mbedtls/library\x509.c **** 
 221:C:/Users/Yushev/git/wpcqi-optiga-trust-charge/optiga/externals/mbedtls/library\x509.c ****     p = (unsigned char *) params->p;
 222:C:/Users/Yushev/git/wpcqi-optiga-trust-charge/optiga/externals/mbedtls/library\x509.c ****     end = p + params->len;
 223:C:/Users/Yushev/git/wpcqi-optiga-trust-charge/optiga/externals/mbedtls/library\x509.c **** 
 224:C:/Users/Yushev/git/wpcqi-optiga-trust-charge/optiga/externals/mbedtls/library\x509.c ****     if( p == end )
 225:C:/Users/Yushev/git/wpcqi-optiga-trust-charge/optiga/externals/mbedtls/library\x509.c ****         return( 0 );
 226:C:/Users/Yushev/git/wpcqi-optiga-trust-charge/optiga/externals/mbedtls/library\x509.c **** 
 227:C:/Users/Yushev/git/wpcqi-optiga-trust-charge/optiga/externals/mbedtls/library\x509.c ****     /*
 228:C:/Users/Yushev/git/wpcqi-optiga-trust-charge/optiga/externals/mbedtls/library\x509.c ****      * HashAlgorithm
 229:C:/Users/Yushev/git/wpcqi-optiga-trust-charge/optiga/externals/mbedtls/library\x509.c ****      */
 230:C:/Users/Yushev/git/wpcqi-optiga-trust-charge/optiga/externals/mbedtls/library\x509.c ****     if( ( ret = mbedtls_asn1_get_tag( &p, end, &len,
 231:C:/Users/Yushev/git/wpcqi-optiga-trust-charge/optiga/externals/mbedtls/library\x509.c ****                     MBEDTLS_ASN1_CONTEXT_SPECIFIC | MBEDTLS_ASN1_CONSTRUCTED | 0 ) ) == 0 )
 232:C:/Users/Yushev/git/wpcqi-optiga-trust-charge/optiga/externals/mbedtls/library\x509.c ****     {
 233:C:/Users/Yushev/git/wpcqi-optiga-trust-charge/optiga/externals/mbedtls/library\x509.c ****         end2 = p + len;
 234:C:/Users/Yushev/git/wpcqi-optiga-trust-charge/optiga/externals/mbedtls/library\x509.c **** 
 235:C:/Users/Yushev/git/wpcqi-optiga-trust-charge/optiga/externals/mbedtls/library\x509.c ****         /* HashAlgorithm ::= AlgorithmIdentifier (without parameters) */
 236:C:/Users/Yushev/git/wpcqi-optiga-trust-charge/optiga/externals/mbedtls/library\x509.c ****         if( ( ret = mbedtls_x509_get_alg_null( &p, end2, &alg_id ) ) != 0 )
 237:C:/Users/Yushev/git/wpcqi-optiga-trust-charge/optiga/externals/mbedtls/library\x509.c ****             return( ret );
 238:C:/Users/Yushev/git/wpcqi-optiga-trust-charge/optiga/externals/mbedtls/library\x509.c **** 
 239:C:/Users/Yushev/git/wpcqi-optiga-trust-charge/optiga/externals/mbedtls/library\x509.c ****         if( ( ret = mbedtls_oid_get_md_alg( &alg_id, md_alg ) ) != 0 )
 240:C:/Users/Yushev/git/wpcqi-optiga-trust-charge/optiga/externals/mbedtls/library\x509.c ****             return( MBEDTLS_ERR_X509_INVALID_ALG + ret );
 241:C:/Users/Yushev/git/wpcqi-optiga-trust-charge/optiga/externals/mbedtls/library\x509.c **** 
 242:C:/Users/Yushev/git/wpcqi-optiga-trust-charge/optiga/externals/mbedtls/library\x509.c ****         if( p != end2 )
 243:C:/Users/Yushev/git/wpcqi-optiga-trust-charge/optiga/externals/mbedtls/library\x509.c ****             return( MBEDTLS_ERR_X509_INVALID_ALG +
 244:C:/Users/Yushev/git/wpcqi-optiga-trust-charge/optiga/externals/mbedtls/library\x509.c ****                     MBEDTLS_ERR_ASN1_LENGTH_MISMATCH );
 245:C:/Users/Yushev/git/wpcqi-optiga-trust-charge/optiga/externals/mbedtls/library\x509.c ****     }
 246:C:/Users/Yushev/git/wpcqi-optiga-trust-charge/optiga/externals/mbedtls/library\x509.c ****     else if( ret != MBEDTLS_ERR_ASN1_UNEXPECTED_TAG )
 247:C:/Users/Yushev/git/wpcqi-optiga-trust-charge/optiga/externals/mbedtls/library\x509.c ****         return( MBEDTLS_ERR_X509_INVALID_ALG + ret );
 248:C:/Users/Yushev/git/wpcqi-optiga-trust-charge/optiga/externals/mbedtls/library\x509.c **** 
 249:C:/Users/Yushev/git/wpcqi-optiga-trust-charge/optiga/externals/mbedtls/library\x509.c ****     if( p == end )
 250:C:/Users/Yushev/git/wpcqi-optiga-trust-charge/optiga/externals/mbedtls/library\x509.c ****         return( 0 );
 251:C:/Users/Yushev/git/wpcqi-optiga-trust-charge/optiga/externals/mbedtls/library\x509.c **** 
 252:C:/Users/Yushev/git/wpcqi-optiga-trust-charge/optiga/externals/mbedtls/library\x509.c ****     /*
 253:C:/Users/Yushev/git/wpcqi-optiga-trust-charge/optiga/externals/mbedtls/library\x509.c ****      * MaskGenAlgorithm
 254:C:/Users/Yushev/git/wpcqi-optiga-trust-charge/optiga/externals/mbedtls/library\x509.c ****      */
 255:C:/Users/Yushev/git/wpcqi-optiga-trust-charge/optiga/externals/mbedtls/library\x509.c ****     if( ( ret = mbedtls_asn1_get_tag( &p, end, &len,
 256:C:/Users/Yushev/git/wpcqi-optiga-trust-charge/optiga/externals/mbedtls/library\x509.c ****                     MBEDTLS_ASN1_CONTEXT_SPECIFIC | MBEDTLS_ASN1_CONSTRUCTED | 1 ) ) == 0 )
 257:C:/Users/Yushev/git/wpcqi-optiga-trust-charge/optiga/externals/mbedtls/library\x509.c ****     {
 258:C:/Users/Yushev/git/wpcqi-optiga-trust-charge/optiga/externals/mbedtls/library\x509.c ****         end2 = p + len;
 259:C:/Users/Yushev/git/wpcqi-optiga-trust-charge/optiga/externals/mbedtls/library\x509.c **** 
 260:C:/Users/Yushev/git/wpcqi-optiga-trust-charge/optiga/externals/mbedtls/library\x509.c ****         /* MaskGenAlgorithm ::= AlgorithmIdentifier (params = HashAlgorithm) */
 261:C:/Users/Yushev/git/wpcqi-optiga-trust-charge/optiga/externals/mbedtls/library\x509.c ****         if( ( ret = mbedtls_x509_get_alg( &p, end2, &alg_id, &alg_params ) ) != 0 )
 262:C:/Users/Yushev/git/wpcqi-optiga-trust-charge/optiga/externals/mbedtls/library\x509.c ****             return( ret );
 263:C:/Users/Yushev/git/wpcqi-optiga-trust-charge/optiga/externals/mbedtls/library\x509.c **** 
 264:C:/Users/Yushev/git/wpcqi-optiga-trust-charge/optiga/externals/mbedtls/library\x509.c ****         /* Only MFG1 is recognised for now */
 265:C:/Users/Yushev/git/wpcqi-optiga-trust-charge/optiga/externals/mbedtls/library\x509.c ****         if( MBEDTLS_OID_CMP( MBEDTLS_OID_MGF1, &alg_id ) != 0 )
 266:C:/Users/Yushev/git/wpcqi-optiga-trust-charge/optiga/externals/mbedtls/library\x509.c ****             return( MBEDTLS_ERR_X509_FEATURE_UNAVAILABLE +
 267:C:/Users/Yushev/git/wpcqi-optiga-trust-charge/optiga/externals/mbedtls/library\x509.c ****                     MBEDTLS_ERR_OID_NOT_FOUND );
 268:C:/Users/Yushev/git/wpcqi-optiga-trust-charge/optiga/externals/mbedtls/library\x509.c **** 
 269:C:/Users/Yushev/git/wpcqi-optiga-trust-charge/optiga/externals/mbedtls/library\x509.c ****         /* Parse HashAlgorithm */
 270:C:/Users/Yushev/git/wpcqi-optiga-trust-charge/optiga/externals/mbedtls/library\x509.c ****         if( ( ret = x509_get_hash_alg( &alg_params, mgf_md ) ) != 0 )
 271:C:/Users/Yushev/git/wpcqi-optiga-trust-charge/optiga/externals/mbedtls/library\x509.c ****             return( ret );
 272:C:/Users/Yushev/git/wpcqi-optiga-trust-charge/optiga/externals/mbedtls/library\x509.c **** 
 273:C:/Users/Yushev/git/wpcqi-optiga-trust-charge/optiga/externals/mbedtls/library\x509.c ****         if( p != end2 )
 274:C:/Users/Yushev/git/wpcqi-optiga-trust-charge/optiga/externals/mbedtls/library\x509.c ****             return( MBEDTLS_ERR_X509_INVALID_ALG +
 275:C:/Users/Yushev/git/wpcqi-optiga-trust-charge/optiga/externals/mbedtls/library\x509.c ****                     MBEDTLS_ERR_ASN1_LENGTH_MISMATCH );
 276:C:/Users/Yushev/git/wpcqi-optiga-trust-charge/optiga/externals/mbedtls/library\x509.c ****     }
 277:C:/Users/Yushev/git/wpcqi-optiga-trust-charge/optiga/externals/mbedtls/library\x509.c ****     else if( ret != MBEDTLS_ERR_ASN1_UNEXPECTED_TAG )
 278:C:/Users/Yushev/git/wpcqi-optiga-trust-charge/optiga/externals/mbedtls/library\x509.c ****         return( MBEDTLS_ERR_X509_INVALID_ALG + ret );
 279:C:/Users/Yushev/git/wpcqi-optiga-trust-charge/optiga/externals/mbedtls/library\x509.c **** 
 280:C:/Users/Yushev/git/wpcqi-optiga-trust-charge/optiga/externals/mbedtls/library\x509.c ****     if( p == end )
 281:C:/Users/Yushev/git/wpcqi-optiga-trust-charge/optiga/externals/mbedtls/library\x509.c ****         return( 0 );
 282:C:/Users/Yushev/git/wpcqi-optiga-trust-charge/optiga/externals/mbedtls/library\x509.c **** 
 283:C:/Users/Yushev/git/wpcqi-optiga-trust-charge/optiga/externals/mbedtls/library\x509.c ****     /*
 284:C:/Users/Yushev/git/wpcqi-optiga-trust-charge/optiga/externals/mbedtls/library\x509.c ****      * salt_len
 285:C:/Users/Yushev/git/wpcqi-optiga-trust-charge/optiga/externals/mbedtls/library\x509.c ****      */
 286:C:/Users/Yushev/git/wpcqi-optiga-trust-charge/optiga/externals/mbedtls/library\x509.c ****     if( ( ret = mbedtls_asn1_get_tag( &p, end, &len,
 287:C:/Users/Yushev/git/wpcqi-optiga-trust-charge/optiga/externals/mbedtls/library\x509.c ****                     MBEDTLS_ASN1_CONTEXT_SPECIFIC | MBEDTLS_ASN1_CONSTRUCTED | 2 ) ) == 0 )
 288:C:/Users/Yushev/git/wpcqi-optiga-trust-charge/optiga/externals/mbedtls/library\x509.c ****     {
 289:C:/Users/Yushev/git/wpcqi-optiga-trust-charge/optiga/externals/mbedtls/library\x509.c ****         end2 = p + len;
 290:C:/Users/Yushev/git/wpcqi-optiga-trust-charge/optiga/externals/mbedtls/library\x509.c **** 
 291:C:/Users/Yushev/git/wpcqi-optiga-trust-charge/optiga/externals/mbedtls/library\x509.c ****         if( ( ret = mbedtls_asn1_get_int( &p, end2, salt_len ) ) != 0 )
 292:C:/Users/Yushev/git/wpcqi-optiga-trust-charge/optiga/externals/mbedtls/library\x509.c ****             return( MBEDTLS_ERR_X509_INVALID_ALG + ret );
 293:C:/Users/Yushev/git/wpcqi-optiga-trust-charge/optiga/externals/mbedtls/library\x509.c **** 
 294:C:/Users/Yushev/git/wpcqi-optiga-trust-charge/optiga/externals/mbedtls/library\x509.c ****         if( p != end2 )
 295:C:/Users/Yushev/git/wpcqi-optiga-trust-charge/optiga/externals/mbedtls/library\x509.c ****             return( MBEDTLS_ERR_X509_INVALID_ALG +
 296:C:/Users/Yushev/git/wpcqi-optiga-trust-charge/optiga/externals/mbedtls/library\x509.c ****                     MBEDTLS_ERR_ASN1_LENGTH_MISMATCH );
 297:C:/Users/Yushev/git/wpcqi-optiga-trust-charge/optiga/externals/mbedtls/library\x509.c ****     }
 298:C:/Users/Yushev/git/wpcqi-optiga-trust-charge/optiga/externals/mbedtls/library\x509.c ****     else if( ret != MBEDTLS_ERR_ASN1_UNEXPECTED_TAG )
 299:C:/Users/Yushev/git/wpcqi-optiga-trust-charge/optiga/externals/mbedtls/library\x509.c ****         return( MBEDTLS_ERR_X509_INVALID_ALG + ret );
 300:C:/Users/Yushev/git/wpcqi-optiga-trust-charge/optiga/externals/mbedtls/library\x509.c **** 
 301:C:/Users/Yushev/git/wpcqi-optiga-trust-charge/optiga/externals/mbedtls/library\x509.c ****     if( p == end )
 302:C:/Users/Yushev/git/wpcqi-optiga-trust-charge/optiga/externals/mbedtls/library\x509.c ****         return( 0 );
 303:C:/Users/Yushev/git/wpcqi-optiga-trust-charge/optiga/externals/mbedtls/library\x509.c **** 
 304:C:/Users/Yushev/git/wpcqi-optiga-trust-charge/optiga/externals/mbedtls/library\x509.c ****     /*
 305:C:/Users/Yushev/git/wpcqi-optiga-trust-charge/optiga/externals/mbedtls/library\x509.c ****      * trailer_field (if present, must be 1)
 306:C:/Users/Yushev/git/wpcqi-optiga-trust-charge/optiga/externals/mbedtls/library\x509.c ****      */
 307:C:/Users/Yushev/git/wpcqi-optiga-trust-charge/optiga/externals/mbedtls/library\x509.c ****     if( ( ret = mbedtls_asn1_get_tag( &p, end, &len,
 308:C:/Users/Yushev/git/wpcqi-optiga-trust-charge/optiga/externals/mbedtls/library\x509.c ****                     MBEDTLS_ASN1_CONTEXT_SPECIFIC | MBEDTLS_ASN1_CONSTRUCTED | 3 ) ) == 0 )
 309:C:/Users/Yushev/git/wpcqi-optiga-trust-charge/optiga/externals/mbedtls/library\x509.c ****     {
 310:C:/Users/Yushev/git/wpcqi-optiga-trust-charge/optiga/externals/mbedtls/library\x509.c ****         int trailer_field;
 311:C:/Users/Yushev/git/wpcqi-optiga-trust-charge/optiga/externals/mbedtls/library\x509.c **** 
 312:C:/Users/Yushev/git/wpcqi-optiga-trust-charge/optiga/externals/mbedtls/library\x509.c ****         end2 = p + len;
 313:C:/Users/Yushev/git/wpcqi-optiga-trust-charge/optiga/externals/mbedtls/library\x509.c **** 
 314:C:/Users/Yushev/git/wpcqi-optiga-trust-charge/optiga/externals/mbedtls/library\x509.c ****         if( ( ret = mbedtls_asn1_get_int( &p, end2, &trailer_field ) ) != 0 )
 315:C:/Users/Yushev/git/wpcqi-optiga-trust-charge/optiga/externals/mbedtls/library\x509.c ****             return( MBEDTLS_ERR_X509_INVALID_ALG + ret );
 316:C:/Users/Yushev/git/wpcqi-optiga-trust-charge/optiga/externals/mbedtls/library\x509.c **** 
 317:C:/Users/Yushev/git/wpcqi-optiga-trust-charge/optiga/externals/mbedtls/library\x509.c ****         if( p != end2 )
 318:C:/Users/Yushev/git/wpcqi-optiga-trust-charge/optiga/externals/mbedtls/library\x509.c ****             return( MBEDTLS_ERR_X509_INVALID_ALG +
 319:C:/Users/Yushev/git/wpcqi-optiga-trust-charge/optiga/externals/mbedtls/library\x509.c ****                     MBEDTLS_ERR_ASN1_LENGTH_MISMATCH );
 320:C:/Users/Yushev/git/wpcqi-optiga-trust-charge/optiga/externals/mbedtls/library\x509.c **** 
 321:C:/Users/Yushev/git/wpcqi-optiga-trust-charge/optiga/externals/mbedtls/library\x509.c ****         if( trailer_field != 1 )
 322:C:/Users/Yushev/git/wpcqi-optiga-trust-charge/optiga/externals/mbedtls/library\x509.c ****             return( MBEDTLS_ERR_X509_INVALID_ALG );
 323:C:/Users/Yushev/git/wpcqi-optiga-trust-charge/optiga/externals/mbedtls/library\x509.c ****     }
 324:C:/Users/Yushev/git/wpcqi-optiga-trust-charge/optiga/externals/mbedtls/library\x509.c ****     else if( ret != MBEDTLS_ERR_ASN1_UNEXPECTED_TAG )
 325:C:/Users/Yushev/git/wpcqi-optiga-trust-charge/optiga/externals/mbedtls/library\x509.c ****         return( MBEDTLS_ERR_X509_INVALID_ALG + ret );
 326:C:/Users/Yushev/git/wpcqi-optiga-trust-charge/optiga/externals/mbedtls/library\x509.c **** 
 327:C:/Users/Yushev/git/wpcqi-optiga-trust-charge/optiga/externals/mbedtls/library\x509.c ****     if( p != end )
 328:C:/Users/Yushev/git/wpcqi-optiga-trust-charge/optiga/externals/mbedtls/library\x509.c ****         return( MBEDTLS_ERR_X509_INVALID_ALG +
 329:C:/Users/Yushev/git/wpcqi-optiga-trust-charge/optiga/externals/mbedtls/library\x509.c ****                 MBEDTLS_ERR_ASN1_LENGTH_MISMATCH );
 330:C:/Users/Yushev/git/wpcqi-optiga-trust-charge/optiga/externals/mbedtls/library\x509.c **** 
 331:C:/Users/Yushev/git/wpcqi-optiga-trust-charge/optiga/externals/mbedtls/library\x509.c ****     return( 0 );
 332:C:/Users/Yushev/git/wpcqi-optiga-trust-charge/optiga/externals/mbedtls/library\x509.c **** }
 333:C:/Users/Yushev/git/wpcqi-optiga-trust-charge/optiga/externals/mbedtls/library\x509.c **** #endif /* MBEDTLS_X509_RSASSA_PSS_SUPPORT */
 334:C:/Users/Yushev/git/wpcqi-optiga-trust-charge/optiga/externals/mbedtls/library\x509.c **** 
 335:C:/Users/Yushev/git/wpcqi-optiga-trust-charge/optiga/externals/mbedtls/library\x509.c **** /*
 336:C:/Users/Yushev/git/wpcqi-optiga-trust-charge/optiga/externals/mbedtls/library\x509.c ****  *  AttributeTypeAndValue ::= SEQUENCE {
 337:C:/Users/Yushev/git/wpcqi-optiga-trust-charge/optiga/externals/mbedtls/library\x509.c ****  *    type     AttributeType,
 338:C:/Users/Yushev/git/wpcqi-optiga-trust-charge/optiga/externals/mbedtls/library\x509.c ****  *    value    AttributeValue }
 339:C:/Users/Yushev/git/wpcqi-optiga-trust-charge/optiga/externals/mbedtls/library\x509.c ****  *
 340:C:/Users/Yushev/git/wpcqi-optiga-trust-charge/optiga/externals/mbedtls/library\x509.c ****  *  AttributeType ::= OBJECT IDENTIFIER
 341:C:/Users/Yushev/git/wpcqi-optiga-trust-charge/optiga/externals/mbedtls/library\x509.c ****  *
 342:C:/Users/Yushev/git/wpcqi-optiga-trust-charge/optiga/externals/mbedtls/library\x509.c ****  *  AttributeValue ::= ANY DEFINED BY AttributeType
 343:C:/Users/Yushev/git/wpcqi-optiga-trust-charge/optiga/externals/mbedtls/library\x509.c ****  */
 344:C:/Users/Yushev/git/wpcqi-optiga-trust-charge/optiga/externals/mbedtls/library\x509.c **** static int x509_get_attr_type_value( unsigned char **p,
 345:C:/Users/Yushev/git/wpcqi-optiga-trust-charge/optiga/externals/mbedtls/library\x509.c ****                                      const unsigned char *end,
 346:C:/Users/Yushev/git/wpcqi-optiga-trust-charge/optiga/externals/mbedtls/library\x509.c ****                                      mbedtls_x509_name *cur )
 347:C:/Users/Yushev/git/wpcqi-optiga-trust-charge/optiga/externals/mbedtls/library\x509.c **** {
 255              	 .loc 1 347 0
 256              	 .cfi_startproc
 257              	 
 258              	 
 259 0000 80B5     	 push {r7,lr}
 260              	.LCFI15:
 261              	 .cfi_def_cfa_offset 8
 262              	 .cfi_offset 7,-8
 263              	 .cfi_offset 14,-4
 264 0002 88B0     	 sub sp,sp,#32
 265              	.LCFI16:
 266              	 .cfi_def_cfa_offset 40
 267 0004 00AF     	 add r7,sp,#0
 268              	.LCFI17:
 269              	 .cfi_def_cfa_register 7
 270 0006 F860     	 str r0,[r7,#12]
 271 0008 B960     	 str r1,[r7,#8]
 272 000a 7A60     	 str r2,[r7,#4]
 348:C:/Users/Yushev/git/wpcqi-optiga-trust-charge/optiga/externals/mbedtls/library\x509.c ****     int ret;
 349:C:/Users/Yushev/git/wpcqi-optiga-trust-charge/optiga/externals/mbedtls/library\x509.c ****     size_t len;
 350:C:/Users/Yushev/git/wpcqi-optiga-trust-charge/optiga/externals/mbedtls/library\x509.c ****     mbedtls_x509_buf *oid;
 351:C:/Users/Yushev/git/wpcqi-optiga-trust-charge/optiga/externals/mbedtls/library\x509.c ****     mbedtls_x509_buf *val;
 352:C:/Users/Yushev/git/wpcqi-optiga-trust-charge/optiga/externals/mbedtls/library\x509.c **** 
 353:C:/Users/Yushev/git/wpcqi-optiga-trust-charge/optiga/externals/mbedtls/library\x509.c ****     if( ( ret = mbedtls_asn1_get_tag( p, end, &len,
 273              	 .loc 1 353 0
 274 000c 07F11003 	 add r3,r7,#16
 275 0010 F868     	 ldr r0,[r7,#12]
 276 0012 B968     	 ldr r1,[r7,#8]
 277 0014 1A46     	 mov r2,r3
 278 0016 3023     	 movs r3,#48
 279 0018 FFF7FEFF 	 bl mbedtls_asn1_get_tag
 280 001c F861     	 str r0,[r7,#28]
 281 001e FB69     	 ldr r3,[r7,#28]
 282 0020 002B     	 cmp r3,#0
 283 0022 03D0     	 beq .L15
 354:C:/Users/Yushev/git/wpcqi-optiga-trust-charge/optiga/externals/mbedtls/library\x509.c ****             MBEDTLS_ASN1_CONSTRUCTED | MBEDTLS_ASN1_SEQUENCE ) ) != 0 )
 355:C:/Users/Yushev/git/wpcqi-optiga-trust-charge/optiga/externals/mbedtls/library\x509.c ****         return( MBEDTLS_ERR_X509_INVALID_NAME + ret );
 284              	 .loc 1 355 0
 285 0024 FB69     	 ldr r3,[r7,#28]
 286 0026 A3F50E53 	 sub r3,r3,#9088
 287 002a 81E0     	 b .L22
 288              	.L15:
 356:C:/Users/Yushev/git/wpcqi-optiga-trust-charge/optiga/externals/mbedtls/library\x509.c **** 
 357:C:/Users/Yushev/git/wpcqi-optiga-trust-charge/optiga/externals/mbedtls/library\x509.c ****     if( ( end - *p ) < 1 )
 289              	 .loc 1 357 0
 290 002c BB68     	 ldr r3,[r7,#8]
 291 002e FA68     	 ldr r2,[r7,#12]
 292 0030 1268     	 ldr r2,[r2]
 293 0032 9B1A     	 subs r3,r3,r2
 294 0034 002B     	 cmp r3,#0
 295 0036 01DC     	 bgt .L17
 358:C:/Users/Yushev/git/wpcqi-optiga-trust-charge/optiga/externals/mbedtls/library\x509.c ****         return( MBEDTLS_ERR_X509_INVALID_NAME +
 296              	 .loc 1 358 0
 297 0038 3F4B     	 ldr r3,.L23
 298 003a 79E0     	 b .L22
 299              	.L17:
 359:C:/Users/Yushev/git/wpcqi-optiga-trust-charge/optiga/externals/mbedtls/library\x509.c ****                 MBEDTLS_ERR_ASN1_OUT_OF_DATA );
 360:C:/Users/Yushev/git/wpcqi-optiga-trust-charge/optiga/externals/mbedtls/library\x509.c **** 
 361:C:/Users/Yushev/git/wpcqi-optiga-trust-charge/optiga/externals/mbedtls/library\x509.c ****     oid = &cur->oid;
 300              	 .loc 1 361 0
 301 003c 7B68     	 ldr r3,[r7,#4]
 302 003e BB61     	 str r3,[r7,#24]
 362:C:/Users/Yushev/git/wpcqi-optiga-trust-charge/optiga/externals/mbedtls/library\x509.c ****     oid->tag = **p;
 303              	 .loc 1 362 0
 304 0040 FB68     	 ldr r3,[r7,#12]
 305 0042 1B68     	 ldr r3,[r3]
 306 0044 1B78     	 ldrb r3,[r3]
 307 0046 1A46     	 mov r2,r3
 308 0048 BB69     	 ldr r3,[r7,#24]
 309 004a 1A60     	 str r2,[r3]
 363:C:/Users/Yushev/git/wpcqi-optiga-trust-charge/optiga/externals/mbedtls/library\x509.c **** 
 364:C:/Users/Yushev/git/wpcqi-optiga-trust-charge/optiga/externals/mbedtls/library\x509.c ****     if( ( ret = mbedtls_asn1_get_tag( p, end, &oid->len, MBEDTLS_ASN1_OID ) ) != 0 )
 310              	 .loc 1 364 0
 311 004c BB69     	 ldr r3,[r7,#24]
 312 004e 0433     	 adds r3,r3,#4
 313 0050 F868     	 ldr r0,[r7,#12]
 314 0052 B968     	 ldr r1,[r7,#8]
 315 0054 1A46     	 mov r2,r3
 316 0056 0623     	 movs r3,#6
 317 0058 FFF7FEFF 	 bl mbedtls_asn1_get_tag
 318 005c F861     	 str r0,[r7,#28]
 319 005e FB69     	 ldr r3,[r7,#28]
 320 0060 002B     	 cmp r3,#0
 321 0062 03D0     	 beq .L18
 365:C:/Users/Yushev/git/wpcqi-optiga-trust-charge/optiga/externals/mbedtls/library\x509.c ****         return( MBEDTLS_ERR_X509_INVALID_NAME + ret );
 322              	 .loc 1 365 0
 323 0064 FB69     	 ldr r3,[r7,#28]
 324 0066 A3F50E53 	 sub r3,r3,#9088
 325 006a 61E0     	 b .L22
 326              	.L18:
 366:C:/Users/Yushev/git/wpcqi-optiga-trust-charge/optiga/externals/mbedtls/library\x509.c **** 
 367:C:/Users/Yushev/git/wpcqi-optiga-trust-charge/optiga/externals/mbedtls/library\x509.c ****     oid->p = *p;
 327              	 .loc 1 367 0
 328 006c FB68     	 ldr r3,[r7,#12]
 329 006e 1A68     	 ldr r2,[r3]
 330 0070 BB69     	 ldr r3,[r7,#24]
 331 0072 9A60     	 str r2,[r3,#8]
 368:C:/Users/Yushev/git/wpcqi-optiga-trust-charge/optiga/externals/mbedtls/library\x509.c ****     *p += oid->len;
 332              	 .loc 1 368 0
 333 0074 FB68     	 ldr r3,[r7,#12]
 334 0076 1A68     	 ldr r2,[r3]
 335 0078 BB69     	 ldr r3,[r7,#24]
 336 007a 5B68     	 ldr r3,[r3,#4]
 337 007c 1A44     	 add r2,r2,r3
 338 007e FB68     	 ldr r3,[r7,#12]
 339 0080 1A60     	 str r2,[r3]
 369:C:/Users/Yushev/git/wpcqi-optiga-trust-charge/optiga/externals/mbedtls/library\x509.c **** 
 370:C:/Users/Yushev/git/wpcqi-optiga-trust-charge/optiga/externals/mbedtls/library\x509.c ****     if( ( end - *p ) < 1 )
 340              	 .loc 1 370 0
 341 0082 BB68     	 ldr r3,[r7,#8]
 342 0084 FA68     	 ldr r2,[r7,#12]
 343 0086 1268     	 ldr r2,[r2]
 344 0088 9B1A     	 subs r3,r3,r2
 345 008a 002B     	 cmp r3,#0
 346 008c 01DC     	 bgt .L19
 371:C:/Users/Yushev/git/wpcqi-optiga-trust-charge/optiga/externals/mbedtls/library\x509.c ****         return( MBEDTLS_ERR_X509_INVALID_NAME +
 347              	 .loc 1 371 0
 348 008e 2A4B     	 ldr r3,.L23
 349 0090 4EE0     	 b .L22
 350              	.L19:
 372:C:/Users/Yushev/git/wpcqi-optiga-trust-charge/optiga/externals/mbedtls/library\x509.c ****                 MBEDTLS_ERR_ASN1_OUT_OF_DATA );
 373:C:/Users/Yushev/git/wpcqi-optiga-trust-charge/optiga/externals/mbedtls/library\x509.c **** 
 374:C:/Users/Yushev/git/wpcqi-optiga-trust-charge/optiga/externals/mbedtls/library\x509.c ****     if( **p != MBEDTLS_ASN1_BMP_STRING && **p != MBEDTLS_ASN1_UTF8_STRING      &&
 351              	 .loc 1 374 0
 352 0092 FB68     	 ldr r3,[r7,#12]
 353 0094 1B68     	 ldr r3,[r3]
 354 0096 1B78     	 ldrb r3,[r3]
 355 0098 1E2B     	 cmp r3,#30
 356 009a 1FD0     	 beq .L20
 357              	 .loc 1 374 0 is_stmt 0 discriminator 1
 358 009c FB68     	 ldr r3,[r7,#12]
 359 009e 1B68     	 ldr r3,[r3]
 360 00a0 1B78     	 ldrb r3,[r3]
 361 00a2 0C2B     	 cmp r3,#12
 362 00a4 1AD0     	 beq .L20
 375:C:/Users/Yushev/git/wpcqi-optiga-trust-charge/optiga/externals/mbedtls/library\x509.c ****         **p != MBEDTLS_ASN1_T61_STRING && **p != MBEDTLS_ASN1_PRINTABLE_STRING &&
 363              	 .loc 1 375 0 is_stmt 1 discriminator 2
 364 00a6 FB68     	 ldr r3,[r7,#12]
 365 00a8 1B68     	 ldr r3,[r3]
 366 00aa 1B78     	 ldrb r3,[r3]
 374:C:/Users/Yushev/git/wpcqi-optiga-trust-charge/optiga/externals/mbedtls/library\x509.c ****         **p != MBEDTLS_ASN1_T61_STRING && **p != MBEDTLS_ASN1_PRINTABLE_STRING &&
 367              	 .loc 1 374 0 discriminator 2
 368 00ac 142B     	 cmp r3,#20
 369 00ae 15D0     	 beq .L20
 370              	 .loc 1 375 0
 371 00b0 FB68     	 ldr r3,[r7,#12]
 372 00b2 1B68     	 ldr r3,[r3]
 373 00b4 1B78     	 ldrb r3,[r3]
 374 00b6 132B     	 cmp r3,#19
 375 00b8 10D0     	 beq .L20
 376:C:/Users/Yushev/git/wpcqi-optiga-trust-charge/optiga/externals/mbedtls/library\x509.c ****         **p != MBEDTLS_ASN1_IA5_STRING && **p != MBEDTLS_ASN1_UNIVERSAL_STRING &&
 376              	 .loc 1 376 0 discriminator 1
 377 00ba FB68     	 ldr r3,[r7,#12]
 378 00bc 1B68     	 ldr r3,[r3]
 379 00be 1B78     	 ldrb r3,[r3]
 375:C:/Users/Yushev/git/wpcqi-optiga-trust-charge/optiga/externals/mbedtls/library\x509.c ****         **p != MBEDTLS_ASN1_T61_STRING && **p != MBEDTLS_ASN1_PRINTABLE_STRING &&
 380              	 .loc 1 375 0 discriminator 1
 381 00c0 162B     	 cmp r3,#22
 382 00c2 0BD0     	 beq .L20
 383              	 .loc 1 376 0
 384 00c4 FB68     	 ldr r3,[r7,#12]
 385 00c6 1B68     	 ldr r3,[r3]
 386 00c8 1B78     	 ldrb r3,[r3]
 387 00ca 1C2B     	 cmp r3,#28
 388 00cc 06D0     	 beq .L20
 377:C:/Users/Yushev/git/wpcqi-optiga-trust-charge/optiga/externals/mbedtls/library\x509.c ****         **p != MBEDTLS_ASN1_BIT_STRING )
 389              	 .loc 1 377 0 discriminator 1
 390 00ce FB68     	 ldr r3,[r7,#12]
 391 00d0 1B68     	 ldr r3,[r3]
 392 00d2 1B78     	 ldrb r3,[r3]
 376:C:/Users/Yushev/git/wpcqi-optiga-trust-charge/optiga/externals/mbedtls/library\x509.c ****         **p != MBEDTLS_ASN1_IA5_STRING && **p != MBEDTLS_ASN1_UNIVERSAL_STRING &&
 393              	 .loc 1 376 0 discriminator 1
 394 00d4 032B     	 cmp r3,#3
 395 00d6 01D0     	 beq .L20
 378:C:/Users/Yushev/git/wpcqi-optiga-trust-charge/optiga/externals/mbedtls/library\x509.c ****         return( MBEDTLS_ERR_X509_INVALID_NAME +
 396              	 .loc 1 378 0
 397 00d8 184B     	 ldr r3,.L23+4
 398 00da 29E0     	 b .L22
 399              	.L20:
 379:C:/Users/Yushev/git/wpcqi-optiga-trust-charge/optiga/externals/mbedtls/library\x509.c ****                 MBEDTLS_ERR_ASN1_UNEXPECTED_TAG );
 380:C:/Users/Yushev/git/wpcqi-optiga-trust-charge/optiga/externals/mbedtls/library\x509.c **** 
 381:C:/Users/Yushev/git/wpcqi-optiga-trust-charge/optiga/externals/mbedtls/library\x509.c ****     val = &cur->val;
 400              	 .loc 1 381 0
 401 00dc 7B68     	 ldr r3,[r7,#4]
 402 00de 0C33     	 adds r3,r3,#12
 403 00e0 7B61     	 str r3,[r7,#20]
 382:C:/Users/Yushev/git/wpcqi-optiga-trust-charge/optiga/externals/mbedtls/library\x509.c ****     val->tag = *(*p)++;
 404              	 .loc 1 382 0
 405 00e2 FB68     	 ldr r3,[r7,#12]
 406 00e4 1B68     	 ldr r3,[r3]
 407 00e6 591C     	 adds r1,r3,#1
 408 00e8 FA68     	 ldr r2,[r7,#12]
 409 00ea 1160     	 str r1,[r2]
 410 00ec 1B78     	 ldrb r3,[r3]
 411 00ee 1A46     	 mov r2,r3
 412 00f0 7B69     	 ldr r3,[r7,#20]
 413 00f2 1A60     	 str r2,[r3]
 383:C:/Users/Yushev/git/wpcqi-optiga-trust-charge/optiga/externals/mbedtls/library\x509.c **** 
 384:C:/Users/Yushev/git/wpcqi-optiga-trust-charge/optiga/externals/mbedtls/library\x509.c ****     if( ( ret = mbedtls_asn1_get_len( p, end, &val->len ) ) != 0 )
 414              	 .loc 1 384 0
 415 00f4 7B69     	 ldr r3,[r7,#20]
 416 00f6 0433     	 adds r3,r3,#4
 417 00f8 F868     	 ldr r0,[r7,#12]
 418 00fa B968     	 ldr r1,[r7,#8]
 419 00fc 1A46     	 mov r2,r3
 420 00fe FFF7FEFF 	 bl mbedtls_asn1_get_len
 421 0102 F861     	 str r0,[r7,#28]
 422 0104 FB69     	 ldr r3,[r7,#28]
 423 0106 002B     	 cmp r3,#0
 424 0108 03D0     	 beq .L21
 385:C:/Users/Yushev/git/wpcqi-optiga-trust-charge/optiga/externals/mbedtls/library\x509.c ****         return( MBEDTLS_ERR_X509_INVALID_NAME + ret );
 425              	 .loc 1 385 0
 426 010a FB69     	 ldr r3,[r7,#28]
 427 010c A3F50E53 	 sub r3,r3,#9088
 428 0110 0EE0     	 b .L22
 429              	.L21:
 386:C:/Users/Yushev/git/wpcqi-optiga-trust-charge/optiga/externals/mbedtls/library\x509.c **** 
 387:C:/Users/Yushev/git/wpcqi-optiga-trust-charge/optiga/externals/mbedtls/library\x509.c ****     val->p = *p;
 430              	 .loc 1 387 0
 431 0112 FB68     	 ldr r3,[r7,#12]
 432 0114 1A68     	 ldr r2,[r3]
 433 0116 7B69     	 ldr r3,[r7,#20]
 434 0118 9A60     	 str r2,[r3,#8]
 388:C:/Users/Yushev/git/wpcqi-optiga-trust-charge/optiga/externals/mbedtls/library\x509.c ****     *p += val->len;
 435              	 .loc 1 388 0
 436 011a FB68     	 ldr r3,[r7,#12]
 437 011c 1A68     	 ldr r2,[r3]
 438 011e 7B69     	 ldr r3,[r7,#20]
 439 0120 5B68     	 ldr r3,[r3,#4]
 440 0122 1A44     	 add r2,r2,r3
 441 0124 FB68     	 ldr r3,[r7,#12]
 442 0126 1A60     	 str r2,[r3]
 389:C:/Users/Yushev/git/wpcqi-optiga-trust-charge/optiga/externals/mbedtls/library\x509.c **** 
 390:C:/Users/Yushev/git/wpcqi-optiga-trust-charge/optiga/externals/mbedtls/library\x509.c ****     cur->next = NULL;
 443              	 .loc 1 390 0
 444 0128 7B68     	 ldr r3,[r7,#4]
 445 012a 0022     	 movs r2,#0
 446 012c 9A61     	 str r2,[r3,#24]
 391:C:/Users/Yushev/git/wpcqi-optiga-trust-charge/optiga/externals/mbedtls/library\x509.c **** 
 392:C:/Users/Yushev/git/wpcqi-optiga-trust-charge/optiga/externals/mbedtls/library\x509.c ****     return( 0 );
 447              	 .loc 1 392 0
 448 012e 0023     	 movs r3,#0
 449              	.L22:
 393:C:/Users/Yushev/git/wpcqi-optiga-trust-charge/optiga/externals/mbedtls/library\x509.c **** }
 450              	 .loc 1 393 0 discriminator 1
 451 0130 1846     	 mov r0,r3
 452 0132 2037     	 adds r7,r7,#32
 453              	.LCFI18:
 454              	 .cfi_def_cfa_offset 8
 455 0134 BD46     	 mov sp,r7
 456              	.LCFI19:
 457              	 .cfi_def_cfa_register 13
 458              	 
 459 0136 80BD     	 pop {r7,pc}
 460              	.L24:
 461              	 .align 2
 462              	.L23:
 463 0138 20DCFFFF 	 .word -9184
 464 013c 1EDCFFFF 	 .word -9186
 465              	 .cfi_endproc
 466              	.LFE12:
 468              	 .section .text.mbedtls_x509_get_name,"ax",%progbits
 469              	 .align 2
 470              	 .global mbedtls_x509_get_name
 471              	 .thumb
 472              	 .thumb_func
 474              	mbedtls_x509_get_name:
 475              	.LFB13:
 394:C:/Users/Yushev/git/wpcqi-optiga-trust-charge/optiga/externals/mbedtls/library\x509.c **** 
 395:C:/Users/Yushev/git/wpcqi-optiga-trust-charge/optiga/externals/mbedtls/library\x509.c **** /*
 396:C:/Users/Yushev/git/wpcqi-optiga-trust-charge/optiga/externals/mbedtls/library\x509.c ****  *  Name ::= CHOICE { -- only one possibility for now --
 397:C:/Users/Yushev/git/wpcqi-optiga-trust-charge/optiga/externals/mbedtls/library\x509.c ****  *       rdnSequence  RDNSequence }
 398:C:/Users/Yushev/git/wpcqi-optiga-trust-charge/optiga/externals/mbedtls/library\x509.c ****  *
 399:C:/Users/Yushev/git/wpcqi-optiga-trust-charge/optiga/externals/mbedtls/library\x509.c ****  *  RDNSequence ::= SEQUENCE OF RelativeDistinguishedName
 400:C:/Users/Yushev/git/wpcqi-optiga-trust-charge/optiga/externals/mbedtls/library\x509.c ****  *
 401:C:/Users/Yushev/git/wpcqi-optiga-trust-charge/optiga/externals/mbedtls/library\x509.c ****  *  RelativeDistinguishedName ::=
 402:C:/Users/Yushev/git/wpcqi-optiga-trust-charge/optiga/externals/mbedtls/library\x509.c ****  *    SET OF AttributeTypeAndValue
 403:C:/Users/Yushev/git/wpcqi-optiga-trust-charge/optiga/externals/mbedtls/library\x509.c ****  *
 404:C:/Users/Yushev/git/wpcqi-optiga-trust-charge/optiga/externals/mbedtls/library\x509.c ****  *  AttributeTypeAndValue ::= SEQUENCE {
 405:C:/Users/Yushev/git/wpcqi-optiga-trust-charge/optiga/externals/mbedtls/library\x509.c ****  *    type     AttributeType,
 406:C:/Users/Yushev/git/wpcqi-optiga-trust-charge/optiga/externals/mbedtls/library\x509.c ****  *    value    AttributeValue }
 407:C:/Users/Yushev/git/wpcqi-optiga-trust-charge/optiga/externals/mbedtls/library\x509.c ****  *
 408:C:/Users/Yushev/git/wpcqi-optiga-trust-charge/optiga/externals/mbedtls/library\x509.c ****  *  AttributeType ::= OBJECT IDENTIFIER
 409:C:/Users/Yushev/git/wpcqi-optiga-trust-charge/optiga/externals/mbedtls/library\x509.c ****  *
 410:C:/Users/Yushev/git/wpcqi-optiga-trust-charge/optiga/externals/mbedtls/library\x509.c ****  *  AttributeValue ::= ANY DEFINED BY AttributeType
 411:C:/Users/Yushev/git/wpcqi-optiga-trust-charge/optiga/externals/mbedtls/library\x509.c ****  *
 412:C:/Users/Yushev/git/wpcqi-optiga-trust-charge/optiga/externals/mbedtls/library\x509.c ****  * The data structure is optimized for the common case where each RDN has only
 413:C:/Users/Yushev/git/wpcqi-optiga-trust-charge/optiga/externals/mbedtls/library\x509.c ****  * one element, which is represented as a list of AttributeTypeAndValue.
 414:C:/Users/Yushev/git/wpcqi-optiga-trust-charge/optiga/externals/mbedtls/library\x509.c ****  * For the general case we still use a flat list, but we mark elements of the
 415:C:/Users/Yushev/git/wpcqi-optiga-trust-charge/optiga/externals/mbedtls/library\x509.c ****  * same set so that they are "merged" together in the functions that consume
 416:C:/Users/Yushev/git/wpcqi-optiga-trust-charge/optiga/externals/mbedtls/library\x509.c ****  * this list, eg mbedtls_x509_dn_gets().
 417:C:/Users/Yushev/git/wpcqi-optiga-trust-charge/optiga/externals/mbedtls/library\x509.c ****  */
 418:C:/Users/Yushev/git/wpcqi-optiga-trust-charge/optiga/externals/mbedtls/library\x509.c **** int mbedtls_x509_get_name( unsigned char **p, const unsigned char *end,
 419:C:/Users/Yushev/git/wpcqi-optiga-trust-charge/optiga/externals/mbedtls/library\x509.c ****                    mbedtls_x509_name *cur )
 420:C:/Users/Yushev/git/wpcqi-optiga-trust-charge/optiga/externals/mbedtls/library\x509.c **** {
 476              	 .loc 1 420 0
 477              	 .cfi_startproc
 478              	 
 479              	 
 480 0000 80B5     	 push {r7,lr}
 481              	.LCFI20:
 482              	 .cfi_def_cfa_offset 8
 483              	 .cfi_offset 7,-8
 484              	 .cfi_offset 14,-4
 485 0002 88B0     	 sub sp,sp,#32
 486              	.LCFI21:
 487              	 .cfi_def_cfa_offset 40
 488 0004 00AF     	 add r7,sp,#0
 489              	.LCFI22:
 490              	 .cfi_def_cfa_register 7
 491 0006 F860     	 str r0,[r7,#12]
 492 0008 B960     	 str r1,[r7,#8]
 493 000a 7A60     	 str r2,[r7,#4]
 494              	.L35:
 421:C:/Users/Yushev/git/wpcqi-optiga-trust-charge/optiga/externals/mbedtls/library\x509.c ****     int ret;
 422:C:/Users/Yushev/git/wpcqi-optiga-trust-charge/optiga/externals/mbedtls/library\x509.c ****     size_t set_len;
 423:C:/Users/Yushev/git/wpcqi-optiga-trust-charge/optiga/externals/mbedtls/library\x509.c ****     const unsigned char *end_set;
 424:C:/Users/Yushev/git/wpcqi-optiga-trust-charge/optiga/externals/mbedtls/library\x509.c **** 
 425:C:/Users/Yushev/git/wpcqi-optiga-trust-charge/optiga/externals/mbedtls/library\x509.c ****     /* don't use recursion, we'd risk stack overflow if not optimized */
 426:C:/Users/Yushev/git/wpcqi-optiga-trust-charge/optiga/externals/mbedtls/library\x509.c ****     while( 1 )
 427:C:/Users/Yushev/git/wpcqi-optiga-trust-charge/optiga/externals/mbedtls/library\x509.c ****     {
 428:C:/Users/Yushev/git/wpcqi-optiga-trust-charge/optiga/externals/mbedtls/library\x509.c ****         /*
 429:C:/Users/Yushev/git/wpcqi-optiga-trust-charge/optiga/externals/mbedtls/library\x509.c ****          * parse SET
 430:C:/Users/Yushev/git/wpcqi-optiga-trust-charge/optiga/externals/mbedtls/library\x509.c ****          */
 431:C:/Users/Yushev/git/wpcqi-optiga-trust-charge/optiga/externals/mbedtls/library\x509.c ****         if( ( ret = mbedtls_asn1_get_tag( p, end, &set_len,
 495              	 .loc 1 431 0
 496 000c 07F11403 	 add r3,r7,#20
 497 0010 F868     	 ldr r0,[r7,#12]
 498 0012 B968     	 ldr r1,[r7,#8]
 499 0014 1A46     	 mov r2,r3
 500 0016 3123     	 movs r3,#49
 501 0018 FFF7FEFF 	 bl mbedtls_asn1_get_tag
 502 001c F861     	 str r0,[r7,#28]
 503 001e FB69     	 ldr r3,[r7,#28]
 504 0020 002B     	 cmp r3,#0
 505 0022 03D0     	 beq .L26
 432:C:/Users/Yushev/git/wpcqi-optiga-trust-charge/optiga/externals/mbedtls/library\x509.c ****                 MBEDTLS_ASN1_CONSTRUCTED | MBEDTLS_ASN1_SET ) ) != 0 )
 433:C:/Users/Yushev/git/wpcqi-optiga-trust-charge/optiga/externals/mbedtls/library\x509.c ****             return( MBEDTLS_ERR_X509_INVALID_NAME + ret );
 506              	 .loc 1 433 0
 507 0024 FB69     	 ldr r3,[r7,#28]
 508 0026 A3F50E53 	 sub r3,r3,#9088
 509 002a 44E0     	 b .L36
 510              	.L26:
 434:C:/Users/Yushev/git/wpcqi-optiga-trust-charge/optiga/externals/mbedtls/library\x509.c **** 
 435:C:/Users/Yushev/git/wpcqi-optiga-trust-charge/optiga/externals/mbedtls/library\x509.c ****         end_set  = *p + set_len;
 511              	 .loc 1 435 0
 512 002c FB68     	 ldr r3,[r7,#12]
 513 002e 1A68     	 ldr r2,[r3]
 514 0030 7B69     	 ldr r3,[r7,#20]
 515 0032 1344     	 add r3,r3,r2
 516 0034 BB61     	 str r3,[r7,#24]
 517              	.L32:
 436:C:/Users/Yushev/git/wpcqi-optiga-trust-charge/optiga/externals/mbedtls/library\x509.c **** 
 437:C:/Users/Yushev/git/wpcqi-optiga-trust-charge/optiga/externals/mbedtls/library\x509.c ****         while( 1 )
 438:C:/Users/Yushev/git/wpcqi-optiga-trust-charge/optiga/externals/mbedtls/library\x509.c ****         {
 439:C:/Users/Yushev/git/wpcqi-optiga-trust-charge/optiga/externals/mbedtls/library\x509.c ****             if( ( ret = x509_get_attr_type_value( p, end_set, cur ) ) != 0 )
 518              	 .loc 1 439 0
 519 0036 F868     	 ldr r0,[r7,#12]
 520 0038 B969     	 ldr r1,[r7,#24]
 521 003a 7A68     	 ldr r2,[r7,#4]
 522 003c FFF7FEFF 	 bl x509_get_attr_type_value
 523 0040 F861     	 str r0,[r7,#28]
 524 0042 FB69     	 ldr r3,[r7,#28]
 525 0044 002B     	 cmp r3,#0
 526 0046 01D0     	 beq .L28
 440:C:/Users/Yushev/git/wpcqi-optiga-trust-charge/optiga/externals/mbedtls/library\x509.c ****                 return( ret );
 527              	 .loc 1 440 0
 528 0048 FB69     	 ldr r3,[r7,#28]
 529 004a 34E0     	 b .L36
 530              	.L28:
 441:C:/Users/Yushev/git/wpcqi-optiga-trust-charge/optiga/externals/mbedtls/library\x509.c **** 
 442:C:/Users/Yushev/git/wpcqi-optiga-trust-charge/optiga/externals/mbedtls/library\x509.c ****             if( *p == end_set )
 531              	 .loc 1 442 0
 532 004c FB68     	 ldr r3,[r7,#12]
 533 004e 1A68     	 ldr r2,[r3]
 534 0050 BB69     	 ldr r3,[r7,#24]
 535 0052 9A42     	 cmp r2,r3
 536 0054 06D1     	 bne .L29
 443:C:/Users/Yushev/git/wpcqi-optiga-trust-charge/optiga/externals/mbedtls/library\x509.c ****                 break;
 537              	 .loc 1 443 0
 538 0056 00BF     	 nop
 444:C:/Users/Yushev/git/wpcqi-optiga-trust-charge/optiga/externals/mbedtls/library\x509.c **** 
 445:C:/Users/Yushev/git/wpcqi-optiga-trust-charge/optiga/externals/mbedtls/library\x509.c ****             /* Mark this item as being no the only one in a set */
 446:C:/Users/Yushev/git/wpcqi-optiga-trust-charge/optiga/externals/mbedtls/library\x509.c ****             cur->next_merged = 1;
 447:C:/Users/Yushev/git/wpcqi-optiga-trust-charge/optiga/externals/mbedtls/library\x509.c **** 
 448:C:/Users/Yushev/git/wpcqi-optiga-trust-charge/optiga/externals/mbedtls/library\x509.c ****             cur->next = mbedtls_calloc( 1, sizeof( mbedtls_x509_name ) );
 449:C:/Users/Yushev/git/wpcqi-optiga-trust-charge/optiga/externals/mbedtls/library\x509.c **** 
 450:C:/Users/Yushev/git/wpcqi-optiga-trust-charge/optiga/externals/mbedtls/library\x509.c ****             if( cur->next == NULL )
 451:C:/Users/Yushev/git/wpcqi-optiga-trust-charge/optiga/externals/mbedtls/library\x509.c ****                 return( MBEDTLS_ERR_X509_ALLOC_FAILED );
 452:C:/Users/Yushev/git/wpcqi-optiga-trust-charge/optiga/externals/mbedtls/library\x509.c **** 
 453:C:/Users/Yushev/git/wpcqi-optiga-trust-charge/optiga/externals/mbedtls/library\x509.c ****             cur = cur->next;
 454:C:/Users/Yushev/git/wpcqi-optiga-trust-charge/optiga/externals/mbedtls/library\x509.c ****         }
 455:C:/Users/Yushev/git/wpcqi-optiga-trust-charge/optiga/externals/mbedtls/library\x509.c **** 
 456:C:/Users/Yushev/git/wpcqi-optiga-trust-charge/optiga/externals/mbedtls/library\x509.c ****         /*
 457:C:/Users/Yushev/git/wpcqi-optiga-trust-charge/optiga/externals/mbedtls/library\x509.c ****          * continue until end of SEQUENCE is reached
 458:C:/Users/Yushev/git/wpcqi-optiga-trust-charge/optiga/externals/mbedtls/library\x509.c ****          */
 459:C:/Users/Yushev/git/wpcqi-optiga-trust-charge/optiga/externals/mbedtls/library\x509.c ****         if( *p == end )
 539              	 .loc 1 459 0
 540 0058 FB68     	 ldr r3,[r7,#12]
 541 005a 1A68     	 ldr r2,[r3]
 542 005c BB68     	 ldr r3,[r7,#8]
 543 005e 9A42     	 cmp r2,r3
 544 0060 17D1     	 bne .L33
 545 0062 14E0     	 b .L37
 546              	.L29:
 446:C:/Users/Yushev/git/wpcqi-optiga-trust-charge/optiga/externals/mbedtls/library\x509.c **** 
 547              	 .loc 1 446 0
 548 0064 7B68     	 ldr r3,[r7,#4]
 549 0066 0122     	 movs r2,#1
 550 0068 1A77     	 strb r2,[r3,#28]
 448:C:/Users/Yushev/git/wpcqi-optiga-trust-charge/optiga/externals/mbedtls/library\x509.c **** 
 551              	 .loc 1 448 0
 552 006a 0120     	 movs r0,#1
 553 006c 2021     	 movs r1,#32
 554 006e FFF7FEFF 	 bl calloc
 555 0072 0346     	 mov r3,r0
 556 0074 1A46     	 mov r2,r3
 557 0076 7B68     	 ldr r3,[r7,#4]
 558 0078 9A61     	 str r2,[r3,#24]
 450:C:/Users/Yushev/git/wpcqi-optiga-trust-charge/optiga/externals/mbedtls/library\x509.c ****                 return( MBEDTLS_ERR_X509_ALLOC_FAILED );
 559              	 .loc 1 450 0
 560 007a 7B68     	 ldr r3,[r7,#4]
 561 007c 9B69     	 ldr r3,[r3,#24]
 562 007e 002B     	 cmp r3,#0
 563 0080 01D1     	 bne .L31
 451:C:/Users/Yushev/git/wpcqi-optiga-trust-charge/optiga/externals/mbedtls/library\x509.c **** 
 564              	 .loc 1 451 0
 565 0082 0F4B     	 ldr r3,.L38
 566 0084 17E0     	 b .L36
 567              	.L31:
 453:C:/Users/Yushev/git/wpcqi-optiga-trust-charge/optiga/externals/mbedtls/library\x509.c ****         }
 568              	 .loc 1 453 0
 569 0086 7B68     	 ldr r3,[r7,#4]
 570 0088 9B69     	 ldr r3,[r3,#24]
 571 008a 7B60     	 str r3,[r7,#4]
 454:C:/Users/Yushev/git/wpcqi-optiga-trust-charge/optiga/externals/mbedtls/library\x509.c **** 
 572              	 .loc 1 454 0
 573 008c D3E7     	 b .L32
 574              	.L37:
 460:C:/Users/Yushev/git/wpcqi-optiga-trust-charge/optiga/externals/mbedtls/library\x509.c ****             return( 0 );
 575              	 .loc 1 460 0
 576 008e 0023     	 movs r3,#0
 577 0090 11E0     	 b .L36
 578              	.L33:
 461:C:/Users/Yushev/git/wpcqi-optiga-trust-charge/optiga/externals/mbedtls/library\x509.c **** 
 462:C:/Users/Yushev/git/wpcqi-optiga-trust-charge/optiga/externals/mbedtls/library\x509.c ****         cur->next = mbedtls_calloc( 1, sizeof( mbedtls_x509_name ) );
 579              	 .loc 1 462 0
 580 0092 0120     	 movs r0,#1
 581 0094 2021     	 movs r1,#32
 582 0096 FFF7FEFF 	 bl calloc
 583 009a 0346     	 mov r3,r0
 584 009c 1A46     	 mov r2,r3
 585 009e 7B68     	 ldr r3,[r7,#4]
 586 00a0 9A61     	 str r2,[r3,#24]
 463:C:/Users/Yushev/git/wpcqi-optiga-trust-charge/optiga/externals/mbedtls/library\x509.c **** 
 464:C:/Users/Yushev/git/wpcqi-optiga-trust-charge/optiga/externals/mbedtls/library\x509.c ****         if( cur->next == NULL )
 587              	 .loc 1 464 0
 588 00a2 7B68     	 ldr r3,[r7,#4]
 589 00a4 9B69     	 ldr r3,[r3,#24]
 590 00a6 002B     	 cmp r3,#0
 591 00a8 01D1     	 bne .L34
 465:C:/Users/Yushev/git/wpcqi-optiga-trust-charge/optiga/externals/mbedtls/library\x509.c ****             return( MBEDTLS_ERR_X509_ALLOC_FAILED );
 592              	 .loc 1 465 0
 593 00aa 054B     	 ldr r3,.L38
 594 00ac 03E0     	 b .L36
 595              	.L34:
 466:C:/Users/Yushev/git/wpcqi-optiga-trust-charge/optiga/externals/mbedtls/library\x509.c **** 
 467:C:/Users/Yushev/git/wpcqi-optiga-trust-charge/optiga/externals/mbedtls/library\x509.c ****         cur = cur->next;
 596              	 .loc 1 467 0
 597 00ae 7B68     	 ldr r3,[r7,#4]
 598 00b0 9B69     	 ldr r3,[r3,#24]
 599 00b2 7B60     	 str r3,[r7,#4]
 468:C:/Users/Yushev/git/wpcqi-optiga-trust-charge/optiga/externals/mbedtls/library\x509.c ****     }
 600              	 .loc 1 468 0
 601 00b4 AAE7     	 b .L35
 602              	.L36:
 469:C:/Users/Yushev/git/wpcqi-optiga-trust-charge/optiga/externals/mbedtls/library\x509.c **** }
 603              	 .loc 1 469 0 discriminator 1
 604 00b6 1846     	 mov r0,r3
 605 00b8 2037     	 adds r7,r7,#32
 606              	.LCFI23:
 607              	 .cfi_def_cfa_offset 8
 608 00ba BD46     	 mov sp,r7
 609              	.LCFI24:
 610              	 .cfi_def_cfa_register 13
 611              	 
 612 00bc 80BD     	 pop {r7,pc}
 613              	.L39:
 614 00be 00BF     	 .align 2
 615              	.L38:
 616 00c0 80D7FFFF 	 .word -10368
 617              	 .cfi_endproc
 618              	.LFE13:
 620              	 .section .text.x509_parse_int,"ax",%progbits
 621              	 .align 2
 622              	 .thumb
 623              	 .thumb_func
 625              	x509_parse_int:
 626              	.LFB14:
 470:C:/Users/Yushev/git/wpcqi-optiga-trust-charge/optiga/externals/mbedtls/library\x509.c **** 
 471:C:/Users/Yushev/git/wpcqi-optiga-trust-charge/optiga/externals/mbedtls/library\x509.c **** static int x509_parse_int( unsigned char **p, size_t n, int *res )
 472:C:/Users/Yushev/git/wpcqi-optiga-trust-charge/optiga/externals/mbedtls/library\x509.c **** {
 627              	 .loc 1 472 0
 628              	 .cfi_startproc
 629              	 
 630              	 
 631              	 
 632 0000 80B4     	 push {r7}
 633              	.LCFI25:
 634              	 .cfi_def_cfa_offset 4
 635              	 .cfi_offset 7,-4
 636 0002 85B0     	 sub sp,sp,#20
 637              	.LCFI26:
 638              	 .cfi_def_cfa_offset 24
 639 0004 00AF     	 add r7,sp,#0
 640              	.LCFI27:
 641              	 .cfi_def_cfa_register 7
 642 0006 F860     	 str r0,[r7,#12]
 643 0008 B960     	 str r1,[r7,#8]
 644 000a 7A60     	 str r2,[r7,#4]
 473:C:/Users/Yushev/git/wpcqi-optiga-trust-charge/optiga/externals/mbedtls/library\x509.c ****     *res = 0;
 645              	 .loc 1 473 0
 646 000c 7B68     	 ldr r3,[r7,#4]
 647 000e 0022     	 movs r2,#0
 648 0010 1A60     	 str r2,[r3]
 474:C:/Users/Yushev/git/wpcqi-optiga-trust-charge/optiga/externals/mbedtls/library\x509.c **** 
 475:C:/Users/Yushev/git/wpcqi-optiga-trust-charge/optiga/externals/mbedtls/library\x509.c ****     for( ; n > 0; --n )
 649              	 .loc 1 475 0
 650 0012 23E0     	 b .L41
 651              	.L45:
 476:C:/Users/Yushev/git/wpcqi-optiga-trust-charge/optiga/externals/mbedtls/library\x509.c ****     {
 477:C:/Users/Yushev/git/wpcqi-optiga-trust-charge/optiga/externals/mbedtls/library\x509.c ****         if( ( **p < '0') || ( **p > '9' ) )
 652              	 .loc 1 477 0
 653 0014 FB68     	 ldr r3,[r7,#12]
 654 0016 1B68     	 ldr r3,[r3]
 655 0018 1B78     	 ldrb r3,[r3]
 656 001a 2F2B     	 cmp r3,#47
 657 001c 04D9     	 bls .L42
 658              	 .loc 1 477 0 is_stmt 0 discriminator 1
 659 001e FB68     	 ldr r3,[r7,#12]
 660 0020 1B68     	 ldr r3,[r3]
 661 0022 1B78     	 ldrb r3,[r3]
 662 0024 392B     	 cmp r3,#57
 663 0026 01D9     	 bls .L43
 664              	.L42:
 478:C:/Users/Yushev/git/wpcqi-optiga-trust-charge/optiga/externals/mbedtls/library\x509.c ****             return ( MBEDTLS_ERR_X509_INVALID_DATE );
 665              	 .loc 1 478 0 is_stmt 1
 666 0028 114B     	 ldr r3,.L46
 667 002a 1BE0     	 b .L44
 668              	.L43:
 479:C:/Users/Yushev/git/wpcqi-optiga-trust-charge/optiga/externals/mbedtls/library\x509.c **** 
 480:C:/Users/Yushev/git/wpcqi-optiga-trust-charge/optiga/externals/mbedtls/library\x509.c ****         *res *= 10;
 669              	 .loc 1 480 0
 670 002c 7B68     	 ldr r3,[r7,#4]
 671 002e 1A68     	 ldr r2,[r3]
 672 0030 1346     	 mov r3,r2
 673 0032 9B00     	 lsls r3,r3,#2
 674 0034 1344     	 add r3,r3,r2
 675 0036 5B00     	 lsls r3,r3,#1
 676 0038 1A46     	 mov r2,r3
 677 003a 7B68     	 ldr r3,[r7,#4]
 678 003c 1A60     	 str r2,[r3]
 481:C:/Users/Yushev/git/wpcqi-optiga-trust-charge/optiga/externals/mbedtls/library\x509.c ****         *res += ( *(*p)++ - '0' );
 679              	 .loc 1 481 0
 680 003e FB68     	 ldr r3,[r7,#12]
 681 0040 1B68     	 ldr r3,[r3]
 682 0042 591C     	 adds r1,r3,#1
 683 0044 FA68     	 ldr r2,[r7,#12]
 684 0046 1160     	 str r1,[r2]
 685 0048 1B78     	 ldrb r3,[r3]
 686 004a 303B     	 subs r3,r3,#48
 687 004c 7A68     	 ldr r2,[r7,#4]
 688 004e 1268     	 ldr r2,[r2]
 689 0050 1A44     	 add r2,r2,r3
 690 0052 7B68     	 ldr r3,[r7,#4]
 691 0054 1A60     	 str r2,[r3]
 475:C:/Users/Yushev/git/wpcqi-optiga-trust-charge/optiga/externals/mbedtls/library\x509.c ****     {
 692              	 .loc 1 475 0
 693 0056 BB68     	 ldr r3,[r7,#8]
 694 0058 013B     	 subs r3,r3,#1
 695 005a BB60     	 str r3,[r7,#8]
 696              	.L41:
 475:C:/Users/Yushev/git/wpcqi-optiga-trust-charge/optiga/externals/mbedtls/library\x509.c ****     {
 697              	 .loc 1 475 0 is_stmt 0 discriminator 1
 698 005c BB68     	 ldr r3,[r7,#8]
 699 005e 002B     	 cmp r3,#0
 700 0060 D8D1     	 bne .L45
 482:C:/Users/Yushev/git/wpcqi-optiga-trust-charge/optiga/externals/mbedtls/library\x509.c ****     }
 483:C:/Users/Yushev/git/wpcqi-optiga-trust-charge/optiga/externals/mbedtls/library\x509.c **** 
 484:C:/Users/Yushev/git/wpcqi-optiga-trust-charge/optiga/externals/mbedtls/library\x509.c ****     return( 0 );
 701              	 .loc 1 484 0 is_stmt 1
 702 0062 0023     	 movs r3,#0
 703              	.L44:
 485:C:/Users/Yushev/git/wpcqi-optiga-trust-charge/optiga/externals/mbedtls/library\x509.c **** }
 704              	 .loc 1 485 0
 705 0064 1846     	 mov r0,r3
 706 0066 1437     	 adds r7,r7,#20
 707              	.LCFI28:
 708              	 .cfi_def_cfa_offset 4
 709 0068 BD46     	 mov sp,r7
 710              	.LCFI29:
 711              	 .cfi_def_cfa_register 13
 712              	 
 713 006a 5DF8047B 	 ldr r7,[sp],#4
 714              	.LCFI30:
 715              	 .cfi_restore 7
 716              	 .cfi_def_cfa_offset 0
 717 006e 7047     	 bx lr
 718              	.L47:
 719              	 .align 2
 720              	.L46:
 721 0070 00DCFFFF 	 .word -9216
 722              	 .cfi_endproc
 723              	.LFE14:
 725              	 .section .text.x509_date_is_valid,"ax",%progbits
 726              	 .align 2
 727              	 .thumb
 728              	 .thumb_func
 730              	x509_date_is_valid:
 731              	.LFB15:
 486:C:/Users/Yushev/git/wpcqi-optiga-trust-charge/optiga/externals/mbedtls/library\x509.c **** 
 487:C:/Users/Yushev/git/wpcqi-optiga-trust-charge/optiga/externals/mbedtls/library\x509.c **** static int x509_date_is_valid(const mbedtls_x509_time *t )
 488:C:/Users/Yushev/git/wpcqi-optiga-trust-charge/optiga/externals/mbedtls/library\x509.c **** {
 732              	 .loc 1 488 0
 733              	 .cfi_startproc
 734              	 
 735              	 
 736              	 
 737 0000 80B4     	 push {r7}
 738              	.LCFI31:
 739              	 .cfi_def_cfa_offset 4
 740              	 .cfi_offset 7,-4
 741 0002 85B0     	 sub sp,sp,#20
 742              	.LCFI32:
 743              	 .cfi_def_cfa_offset 24
 744 0004 00AF     	 add r7,sp,#0
 745              	.LCFI33:
 746              	 .cfi_def_cfa_register 7
 747 0006 7860     	 str r0,[r7,#4]
 489:C:/Users/Yushev/git/wpcqi-optiga-trust-charge/optiga/externals/mbedtls/library\x509.c ****     int ret = MBEDTLS_ERR_X509_INVALID_DATE;
 748              	 .loc 1 489 0
 749 0008 474B     	 ldr r3,.L70
 750 000a BB60     	 str r3,[r7,#8]
 490:C:/Users/Yushev/git/wpcqi-optiga-trust-charge/optiga/externals/mbedtls/library\x509.c ****     int month_len;
 491:C:/Users/Yushev/git/wpcqi-optiga-trust-charge/optiga/externals/mbedtls/library\x509.c **** 
 492:C:/Users/Yushev/git/wpcqi-optiga-trust-charge/optiga/externals/mbedtls/library\x509.c ****     CHECK_RANGE( 0, 9999, t->year );
 751              	 .loc 1 492 0
 752 000c 7B68     	 ldr r3,[r7,#4]
 753 000e 1B68     	 ldr r3,[r3]
 754 0010 002B     	 cmp r3,#0
 755 0012 05DB     	 blt .L49
 756              	 .loc 1 492 0 is_stmt 0 discriminator 2
 757 0014 7B68     	 ldr r3,[r7,#4]
 758 0016 1B68     	 ldr r3,[r3]
 759 0018 42F20F72 	 movw r2,#9999
 760 001c 9342     	 cmp r3,r2
 761 001e 01DD     	 ble .L50
 762              	.L49:
 763              	 .loc 1 492 0 discriminator 3
 764 0020 BB68     	 ldr r3,[r7,#8]
 765 0022 7AE0     	 b .L51
 766              	.L50:
 493:C:/Users/Yushev/git/wpcqi-optiga-trust-charge/optiga/externals/mbedtls/library\x509.c ****     CHECK_RANGE( 0, 23,   t->hour );
 767              	 .loc 1 493 0 is_stmt 1
 768 0024 7B68     	 ldr r3,[r7,#4]
 769 0026 DB68     	 ldr r3,[r3,#12]
 770 0028 002B     	 cmp r3,#0
 771 002a 03DB     	 blt .L52
 772              	 .loc 1 493 0 is_stmt 0 discriminator 2
 773 002c 7B68     	 ldr r3,[r7,#4]
 774 002e DB68     	 ldr r3,[r3,#12]
 775 0030 172B     	 cmp r3,#23
 776 0032 01DD     	 ble .L53
 777              	.L52:
 778              	 .loc 1 493 0 discriminator 3
 779 0034 BB68     	 ldr r3,[r7,#8]
 780 0036 70E0     	 b .L51
 781              	.L53:
 494:C:/Users/Yushev/git/wpcqi-optiga-trust-charge/optiga/externals/mbedtls/library\x509.c ****     CHECK_RANGE( 0, 59,   t->min  );
 782              	 .loc 1 494 0 is_stmt 1
 783 0038 7B68     	 ldr r3,[r7,#4]
 784 003a 1B69     	 ldr r3,[r3,#16]
 785 003c 002B     	 cmp r3,#0
 786 003e 03DB     	 blt .L54
 787              	 .loc 1 494 0 is_stmt 0 discriminator 2
 788 0040 7B68     	 ldr r3,[r7,#4]
 789 0042 1B69     	 ldr r3,[r3,#16]
 790 0044 3B2B     	 cmp r3,#59
 791 0046 01DD     	 ble .L55
 792              	.L54:
 793              	 .loc 1 494 0 discriminator 3
 794 0048 BB68     	 ldr r3,[r7,#8]
 795 004a 66E0     	 b .L51
 796              	.L55:
 495:C:/Users/Yushev/git/wpcqi-optiga-trust-charge/optiga/externals/mbedtls/library\x509.c ****     CHECK_RANGE( 0, 59,   t->sec  );
 797              	 .loc 1 495 0 is_stmt 1
 798 004c 7B68     	 ldr r3,[r7,#4]
 799 004e 5B69     	 ldr r3,[r3,#20]
 800 0050 002B     	 cmp r3,#0
 801 0052 03DB     	 blt .L56
 802              	 .loc 1 495 0 is_stmt 0 discriminator 2
 803 0054 7B68     	 ldr r3,[r7,#4]
 804 0056 5B69     	 ldr r3,[r3,#20]
 805 0058 3B2B     	 cmp r3,#59
 806 005a 01DD     	 ble .L57
 807              	.L56:
 808              	 .loc 1 495 0 discriminator 3
 809 005c BB68     	 ldr r3,[r7,#8]
 810 005e 5CE0     	 b .L51
 811              	.L57:
 496:C:/Users/Yushev/git/wpcqi-optiga-trust-charge/optiga/externals/mbedtls/library\x509.c **** 
 497:C:/Users/Yushev/git/wpcqi-optiga-trust-charge/optiga/externals/mbedtls/library\x509.c ****     switch( t->mon )
 812              	 .loc 1 497 0 is_stmt 1
 813 0060 7B68     	 ldr r3,[r7,#4]
 814 0062 5B68     	 ldr r3,[r3,#4]
 815 0064 013B     	 subs r3,r3,#1
 816 0066 0B2B     	 cmp r3,#11
 817 0068 49D8     	 bhi .L58
 818 006a 01A2     	 adr r2,.L60
 819 006c 52F823F0 	 ldr pc,[r2,r3,lsl#2]
 820              	 .p2align 2
 821              	.L60:
 822 0070 A1000000 	 .word .L59+1
 823 0074 AD000000 	 .word .L61+1
 824 0078 A1000000 	 .word .L59+1
 825 007c A7000000 	 .word .L62+1
 826 0080 A1000000 	 .word .L59+1
 827 0084 A7000000 	 .word .L62+1
 828 0088 A1000000 	 .word .L59+1
 829 008c A1000000 	 .word .L59+1
 830 0090 A7000000 	 .word .L62+1
 831 0094 A1000000 	 .word .L59+1
 832 0098 A7000000 	 .word .L62+1
 833 009c A1000000 	 .word .L59+1
 834              	 .p2align 1
 835              	.L59:
 498:C:/Users/Yushev/git/wpcqi-optiga-trust-charge/optiga/externals/mbedtls/library\x509.c ****     {
 499:C:/Users/Yushev/git/wpcqi-optiga-trust-charge/optiga/externals/mbedtls/library\x509.c ****         case 1: case 3: case 5: case 7: case 8: case 10: case 12:
 500:C:/Users/Yushev/git/wpcqi-optiga-trust-charge/optiga/externals/mbedtls/library\x509.c ****             month_len = 31;
 836              	 .loc 1 500 0
 837 00a0 1F23     	 movs r3,#31
 838 00a2 FB60     	 str r3,[r7,#12]
 501:C:/Users/Yushev/git/wpcqi-optiga-trust-charge/optiga/externals/mbedtls/library\x509.c ****             break;
 839              	 .loc 1 501 0
 840 00a4 2DE0     	 b .L63
 841              	.L62:
 502:C:/Users/Yushev/git/wpcqi-optiga-trust-charge/optiga/externals/mbedtls/library\x509.c ****         case 4: case 6: case 9: case 11:
 503:C:/Users/Yushev/git/wpcqi-optiga-trust-charge/optiga/externals/mbedtls/library\x509.c ****             month_len = 30;
 842              	 .loc 1 503 0
 843 00a6 1E23     	 movs r3,#30
 844 00a8 FB60     	 str r3,[r7,#12]
 504:C:/Users/Yushev/git/wpcqi-optiga-trust-charge/optiga/externals/mbedtls/library\x509.c ****             break;
 845              	 .loc 1 504 0
 846 00aa 2AE0     	 b .L63
 847              	.L61:
 505:C:/Users/Yushev/git/wpcqi-optiga-trust-charge/optiga/externals/mbedtls/library\x509.c ****         case 2:
 506:C:/Users/Yushev/git/wpcqi-optiga-trust-charge/optiga/externals/mbedtls/library\x509.c ****             if( ( !( t->year % 4 ) && t->year % 100 ) ||
 848              	 .loc 1 506 0
 849 00ac 7B68     	 ldr r3,[r7,#4]
 850 00ae 1B68     	 ldr r3,[r3]
 851 00b0 03F00303 	 and r3,r3,#3
 852 00b4 002B     	 cmp r3,#0
 853 00b6 0DD1     	 bne .L64
 854              	 .loc 1 506 0 is_stmt 0 discriminator 1
 855 00b8 7B68     	 ldr r3,[r7,#4]
 856 00ba 1A68     	 ldr r2,[r3]
 857 00bc 1B4B     	 ldr r3,.L70+4
 858 00be 83FB0213 	 smull r1,r3,r3,r2
 859 00c2 5911     	 asrs r1,r3,#5
 860 00c4 D317     	 asrs r3,r2,#31
 861 00c6 CB1A     	 subs r3,r1,r3
 862 00c8 6421     	 movs r1,#100
 863 00ca 01FB03F3 	 mul r3,r1,r3
 864 00ce D31A     	 subs r3,r2,r3
 865 00d0 002B     	 cmp r3,#0
 866 00d2 0ED1     	 bne .L65
 867              	.L64:
 507:C:/Users/Yushev/git/wpcqi-optiga-trust-charge/optiga/externals/mbedtls/library\x509.c ****                 !( t->year % 400 ) )
 868              	 .loc 1 507 0 is_stmt 1 discriminator 3
 869 00d4 7B68     	 ldr r3,[r7,#4]
 870 00d6 1A68     	 ldr r2,[r3]
 871 00d8 144B     	 ldr r3,.L70+4
 872 00da 83FB0213 	 smull r1,r3,r3,r2
 873 00de D911     	 asrs r1,r3,#7
 874 00e0 D317     	 asrs r3,r2,#31
 875 00e2 CB1A     	 subs r3,r1,r3
 876 00e4 4FF4C871 	 mov r1,#400
 877 00e8 01FB03F3 	 mul r3,r1,r3
 878 00ec D31A     	 subs r3,r2,r3
 506:C:/Users/Yushev/git/wpcqi-optiga-trust-charge/optiga/externals/mbedtls/library\x509.c ****                 !( t->year % 400 ) )
 879              	 .loc 1 506 0 discriminator 3
 880 00ee 002B     	 cmp r3,#0
 881 00f0 02D1     	 bne .L66
 882              	.L65:
 508:C:/Users/Yushev/git/wpcqi-optiga-trust-charge/optiga/externals/mbedtls/library\x509.c ****                 month_len = 29;
 883              	 .loc 1 508 0
 884 00f2 1D23     	 movs r3,#29
 885 00f4 FB60     	 str r3,[r7,#12]
 509:C:/Users/Yushev/git/wpcqi-optiga-trust-charge/optiga/externals/mbedtls/library\x509.c ****             else
 510:C:/Users/Yushev/git/wpcqi-optiga-trust-charge/optiga/externals/mbedtls/library\x509.c ****                 month_len = 28;
 511:C:/Users/Yushev/git/wpcqi-optiga-trust-charge/optiga/externals/mbedtls/library\x509.c ****             break;
 886              	 .loc 1 511 0
 887 00f6 04E0     	 b .L63
 888              	.L66:
 510:C:/Users/Yushev/git/wpcqi-optiga-trust-charge/optiga/externals/mbedtls/library\x509.c ****             break;
 889              	 .loc 1 510 0
 890 00f8 1C23     	 movs r3,#28
 891 00fa FB60     	 str r3,[r7,#12]
 892              	 .loc 1 511 0
 893 00fc 01E0     	 b .L63
 894              	.L58:
 512:C:/Users/Yushev/git/wpcqi-optiga-trust-charge/optiga/externals/mbedtls/library\x509.c ****         default:
 513:C:/Users/Yushev/git/wpcqi-optiga-trust-charge/optiga/externals/mbedtls/library\x509.c ****             return( ret );
 895              	 .loc 1 513 0
 896 00fe BB68     	 ldr r3,[r7,#8]
 897 0100 0BE0     	 b .L51
 898              	.L63:
 514:C:/Users/Yushev/git/wpcqi-optiga-trust-charge/optiga/externals/mbedtls/library\x509.c ****     }
 515:C:/Users/Yushev/git/wpcqi-optiga-trust-charge/optiga/externals/mbedtls/library\x509.c ****     CHECK_RANGE( 1, month_len, t->day );
 899              	 .loc 1 515 0
 900 0102 7B68     	 ldr r3,[r7,#4]
 901 0104 9B68     	 ldr r3,[r3,#8]
 902 0106 002B     	 cmp r3,#0
 903 0108 04DD     	 ble .L68
 904              	 .loc 1 515 0 is_stmt 0 discriminator 2
 905 010a 7B68     	 ldr r3,[r7,#4]
 906 010c 9A68     	 ldr r2,[r3,#8]
 907 010e FB68     	 ldr r3,[r7,#12]
 908 0110 9A42     	 cmp r2,r3
 909 0112 01DD     	 ble .L69
 910              	.L68:
 911              	 .loc 1 515 0 discriminator 3
 912 0114 BB68     	 ldr r3,[r7,#8]
 913 0116 00E0     	 b .L51
 914              	.L69:
 516:C:/Users/Yushev/git/wpcqi-optiga-trust-charge/optiga/externals/mbedtls/library\x509.c **** 
 517:C:/Users/Yushev/git/wpcqi-optiga-trust-charge/optiga/externals/mbedtls/library\x509.c ****     return( 0 );
 915              	 .loc 1 517 0 is_stmt 1
 916 0118 0023     	 movs r3,#0
 917              	.L51:
 518:C:/Users/Yushev/git/wpcqi-optiga-trust-charge/optiga/externals/mbedtls/library\x509.c **** }
 918              	 .loc 1 518 0
 919 011a 1846     	 mov r0,r3
 920 011c 1437     	 adds r7,r7,#20
 921              	.LCFI34:
 922              	 .cfi_def_cfa_offset 4
 923 011e BD46     	 mov sp,r7
 924              	.LCFI35:
 925              	 .cfi_def_cfa_register 13
 926              	 
 927 0120 5DF8047B 	 ldr r7,[sp],#4
 928              	.LCFI36:
 929              	 .cfi_restore 7
 930              	 .cfi_def_cfa_offset 0
 931 0124 7047     	 bx lr
 932              	.L71:
 933 0126 00BF     	 .align 2
 934              	.L70:
 935 0128 00DCFFFF 	 .word -9216
 936 012c 1F85EB51 	 .word 1374389535
 937              	 .cfi_endproc
 938              	.LFE15:
 940              	 .section .text.x509_parse_time,"ax",%progbits
 941              	 .align 2
 942              	 .thumb
 943              	 .thumb_func
 945              	x509_parse_time:
 946              	.LFB16:
 519:C:/Users/Yushev/git/wpcqi-optiga-trust-charge/optiga/externals/mbedtls/library\x509.c **** 
 520:C:/Users/Yushev/git/wpcqi-optiga-trust-charge/optiga/externals/mbedtls/library\x509.c **** /*
 521:C:/Users/Yushev/git/wpcqi-optiga-trust-charge/optiga/externals/mbedtls/library\x509.c ****  * Parse an ASN1_UTC_TIME (yearlen=2) or ASN1_GENERALIZED_TIME (yearlen=4)
 522:C:/Users/Yushev/git/wpcqi-optiga-trust-charge/optiga/externals/mbedtls/library\x509.c ****  * field.
 523:C:/Users/Yushev/git/wpcqi-optiga-trust-charge/optiga/externals/mbedtls/library\x509.c ****  */
 524:C:/Users/Yushev/git/wpcqi-optiga-trust-charge/optiga/externals/mbedtls/library\x509.c **** static int x509_parse_time( unsigned char **p, size_t len, size_t yearlen,
 525:C:/Users/Yushev/git/wpcqi-optiga-trust-charge/optiga/externals/mbedtls/library\x509.c ****                             mbedtls_x509_time *tm )
 526:C:/Users/Yushev/git/wpcqi-optiga-trust-charge/optiga/externals/mbedtls/library\x509.c **** {
 947              	 .loc 1 526 0
 948              	 .cfi_startproc
 949              	 
 950              	 
 951 0000 80B5     	 push {r7,lr}
 952              	.LCFI37:
 953              	 .cfi_def_cfa_offset 8
 954              	 .cfi_offset 7,-8
 955              	 .cfi_offset 14,-4
 956 0002 86B0     	 sub sp,sp,#24
 957              	.LCFI38:
 958              	 .cfi_def_cfa_offset 32
 959 0004 00AF     	 add r7,sp,#0
 960              	.LCFI39:
 961              	 .cfi_def_cfa_register 7
 962 0006 F860     	 str r0,[r7,#12]
 963 0008 B960     	 str r1,[r7,#8]
 964 000a 7A60     	 str r2,[r7,#4]
 965 000c 3B60     	 str r3,[r7]
 527:C:/Users/Yushev/git/wpcqi-optiga-trust-charge/optiga/externals/mbedtls/library\x509.c ****     int ret;
 528:C:/Users/Yushev/git/wpcqi-optiga-trust-charge/optiga/externals/mbedtls/library\x509.c **** 
 529:C:/Users/Yushev/git/wpcqi-optiga-trust-charge/optiga/externals/mbedtls/library\x509.c ****     /*
 530:C:/Users/Yushev/git/wpcqi-optiga-trust-charge/optiga/externals/mbedtls/library\x509.c ****      * Minimum length is 10 or 12 depending on yearlen
 531:C:/Users/Yushev/git/wpcqi-optiga-trust-charge/optiga/externals/mbedtls/library\x509.c ****      */
 532:C:/Users/Yushev/git/wpcqi-optiga-trust-charge/optiga/externals/mbedtls/library\x509.c ****     if ( len < yearlen + 8 )
 966              	 .loc 1 532 0
 967 000e 7B68     	 ldr r3,[r7,#4]
 968 0010 03F10802 	 add r2,r3,#8
 969 0014 BB68     	 ldr r3,[r7,#8]
 970 0016 9A42     	 cmp r2,r3
 971 0018 01D9     	 bls .L73
 533:C:/Users/Yushev/git/wpcqi-optiga-trust-charge/optiga/externals/mbedtls/library\x509.c ****         return ( MBEDTLS_ERR_X509_INVALID_DATE );
 972              	 .loc 1 533 0
 973 001a 494B     	 ldr r3,.L89
 974 001c 8CE0     	 b .L74
 975              	.L73:
 534:C:/Users/Yushev/git/wpcqi-optiga-trust-charge/optiga/externals/mbedtls/library\x509.c ****     len -= yearlen + 8;
 976              	 .loc 1 534 0
 977 001e BA68     	 ldr r2,[r7,#8]
 978 0020 7B68     	 ldr r3,[r7,#4]
 979 0022 D31A     	 subs r3,r2,r3
 980 0024 083B     	 subs r3,r3,#8
 981 0026 BB60     	 str r3,[r7,#8]
 535:C:/Users/Yushev/git/wpcqi-optiga-trust-charge/optiga/externals/mbedtls/library\x509.c **** 
 536:C:/Users/Yushev/git/wpcqi-optiga-trust-charge/optiga/externals/mbedtls/library\x509.c ****     /*
 537:C:/Users/Yushev/git/wpcqi-optiga-trust-charge/optiga/externals/mbedtls/library\x509.c ****      * Parse year, month, day, hour, minute
 538:C:/Users/Yushev/git/wpcqi-optiga-trust-charge/optiga/externals/mbedtls/library\x509.c ****      */
 539:C:/Users/Yushev/git/wpcqi-optiga-trust-charge/optiga/externals/mbedtls/library\x509.c ****     CHECK( x509_parse_int( p, yearlen, &tm->year ) );
 982              	 .loc 1 539 0
 983 0028 3B68     	 ldr r3,[r7]
 984 002a F868     	 ldr r0,[r7,#12]
 985 002c 7968     	 ldr r1,[r7,#4]
 986 002e 1A46     	 mov r2,r3
 987 0030 FFF7FEFF 	 bl x509_parse_int
 988 0034 7861     	 str r0,[r7,#20]
 989 0036 7B69     	 ldr r3,[r7,#20]
 990 0038 002B     	 cmp r3,#0
 991 003a 01D0     	 beq .L75
 992              	 .loc 1 539 0 is_stmt 0 discriminator 1
 993 003c 7B69     	 ldr r3,[r7,#20]
 994 003e 7BE0     	 b .L74
 995              	.L75:
 540:C:/Users/Yushev/git/wpcqi-optiga-trust-charge/optiga/externals/mbedtls/library\x509.c ****     if ( 2 == yearlen )
 996              	 .loc 1 540 0 is_stmt 1
 997 0040 7B68     	 ldr r3,[r7,#4]
 998 0042 022B     	 cmp r3,#2
 999 0044 0FD1     	 bne .L76
 541:C:/Users/Yushev/git/wpcqi-optiga-trust-charge/optiga/externals/mbedtls/library\x509.c ****     {
 542:C:/Users/Yushev/git/wpcqi-optiga-trust-charge/optiga/externals/mbedtls/library\x509.c ****         if ( tm->year < 50 )
 1000              	 .loc 1 542 0
 1001 0046 3B68     	 ldr r3,[r7]
 1002 0048 1B68     	 ldr r3,[r3]
 1003 004a 312B     	 cmp r3,#49
 1004 004c 05DC     	 bgt .L77
 543:C:/Users/Yushev/git/wpcqi-optiga-trust-charge/optiga/externals/mbedtls/library\x509.c ****             tm->year += 100;
 1005              	 .loc 1 543 0
 1006 004e 3B68     	 ldr r3,[r7]
 1007 0050 1B68     	 ldr r3,[r3]
 1008 0052 03F16402 	 add r2,r3,#100
 1009 0056 3B68     	 ldr r3,[r7]
 1010 0058 1A60     	 str r2,[r3]
 1011              	.L77:
 544:C:/Users/Yushev/git/wpcqi-optiga-trust-charge/optiga/externals/mbedtls/library\x509.c **** 
 545:C:/Users/Yushev/git/wpcqi-optiga-trust-charge/optiga/externals/mbedtls/library\x509.c ****         tm->year += 1900;
 1012              	 .loc 1 545 0
 1013 005a 3B68     	 ldr r3,[r7]
 1014 005c 1B68     	 ldr r3,[r3]
 1015 005e 03F26C72 	 addw r2,r3,#1900
 1016 0062 3B68     	 ldr r3,[r7]
 1017 0064 1A60     	 str r2,[r3]
 1018              	.L76:
 546:C:/Users/Yushev/git/wpcqi-optiga-trust-charge/optiga/externals/mbedtls/library\x509.c ****     }
 547:C:/Users/Yushev/git/wpcqi-optiga-trust-charge/optiga/externals/mbedtls/library\x509.c **** 
 548:C:/Users/Yushev/git/wpcqi-optiga-trust-charge/optiga/externals/mbedtls/library\x509.c ****     CHECK( x509_parse_int( p, 2, &tm->mon ) );
 1019              	 .loc 1 548 0
 1020 0066 3B68     	 ldr r3,[r7]
 1021 0068 0433     	 adds r3,r3,#4
 1022 006a F868     	 ldr r0,[r7,#12]
 1023 006c 0221     	 movs r1,#2
 1024 006e 1A46     	 mov r2,r3
 1025 0070 FFF7FEFF 	 bl x509_parse_int
 1026 0074 7861     	 str r0,[r7,#20]
 1027 0076 7B69     	 ldr r3,[r7,#20]
 1028 0078 002B     	 cmp r3,#0
 1029 007a 01D0     	 beq .L78
 1030              	 .loc 1 548 0 is_stmt 0 discriminator 1
 1031 007c 7B69     	 ldr r3,[r7,#20]
 1032 007e 5BE0     	 b .L74
 1033              	.L78:
 549:C:/Users/Yushev/git/wpcqi-optiga-trust-charge/optiga/externals/mbedtls/library\x509.c ****     CHECK( x509_parse_int( p, 2, &tm->day ) );
 1034              	 .loc 1 549 0 is_stmt 1
 1035 0080 3B68     	 ldr r3,[r7]
 1036 0082 0833     	 adds r3,r3,#8
 1037 0084 F868     	 ldr r0,[r7,#12]
 1038 0086 0221     	 movs r1,#2
 1039 0088 1A46     	 mov r2,r3
 1040 008a FFF7FEFF 	 bl x509_parse_int
 1041 008e 7861     	 str r0,[r7,#20]
 1042 0090 7B69     	 ldr r3,[r7,#20]
 1043 0092 002B     	 cmp r3,#0
 1044 0094 01D0     	 beq .L79
 1045              	 .loc 1 549 0 is_stmt 0 discriminator 1
 1046 0096 7B69     	 ldr r3,[r7,#20]
 1047 0098 4EE0     	 b .L74
 1048              	.L79:
 550:C:/Users/Yushev/git/wpcqi-optiga-trust-charge/optiga/externals/mbedtls/library\x509.c ****     CHECK( x509_parse_int( p, 2, &tm->hour ) );
 1049              	 .loc 1 550 0 is_stmt 1
 1050 009a 3B68     	 ldr r3,[r7]
 1051 009c 0C33     	 adds r3,r3,#12
 1052 009e F868     	 ldr r0,[r7,#12]
 1053 00a0 0221     	 movs r1,#2
 1054 00a2 1A46     	 mov r2,r3
 1055 00a4 FFF7FEFF 	 bl x509_parse_int
 1056 00a8 7861     	 str r0,[r7,#20]
 1057 00aa 7B69     	 ldr r3,[r7,#20]
 1058 00ac 002B     	 cmp r3,#0
 1059 00ae 01D0     	 beq .L80
 1060              	 .loc 1 550 0 is_stmt 0 discriminator 1
 1061 00b0 7B69     	 ldr r3,[r7,#20]
 1062 00b2 41E0     	 b .L74
 1063              	.L80:
 551:C:/Users/Yushev/git/wpcqi-optiga-trust-charge/optiga/externals/mbedtls/library\x509.c ****     CHECK( x509_parse_int( p, 2, &tm->min ) );
 1064              	 .loc 1 551 0 is_stmt 1
 1065 00b4 3B68     	 ldr r3,[r7]
 1066 00b6 1033     	 adds r3,r3,#16
 1067 00b8 F868     	 ldr r0,[r7,#12]
 1068 00ba 0221     	 movs r1,#2
 1069 00bc 1A46     	 mov r2,r3
 1070 00be FFF7FEFF 	 bl x509_parse_int
 1071 00c2 7861     	 str r0,[r7,#20]
 1072 00c4 7B69     	 ldr r3,[r7,#20]
 1073 00c6 002B     	 cmp r3,#0
 1074 00c8 01D0     	 beq .L81
 1075              	 .loc 1 551 0 is_stmt 0 discriminator 1
 1076 00ca 7B69     	 ldr r3,[r7,#20]
 1077 00cc 34E0     	 b .L74
 1078              	.L81:
 552:C:/Users/Yushev/git/wpcqi-optiga-trust-charge/optiga/externals/mbedtls/library\x509.c **** 
 553:C:/Users/Yushev/git/wpcqi-optiga-trust-charge/optiga/externals/mbedtls/library\x509.c ****     /*
 554:C:/Users/Yushev/git/wpcqi-optiga-trust-charge/optiga/externals/mbedtls/library\x509.c ****      * Parse seconds if present
 555:C:/Users/Yushev/git/wpcqi-optiga-trust-charge/optiga/externals/mbedtls/library\x509.c ****      */
 556:C:/Users/Yushev/git/wpcqi-optiga-trust-charge/optiga/externals/mbedtls/library\x509.c ****     if ( len >= 2 )
 1079              	 .loc 1 556 0 is_stmt 1
 1080 00ce BB68     	 ldr r3,[r7,#8]
 1081 00d0 012B     	 cmp r3,#1
 1082 00d2 13D9     	 bls .L82
 557:C:/Users/Yushev/git/wpcqi-optiga-trust-charge/optiga/externals/mbedtls/library\x509.c ****     {
 558:C:/Users/Yushev/git/wpcqi-optiga-trust-charge/optiga/externals/mbedtls/library\x509.c ****         CHECK( x509_parse_int( p, 2, &tm->sec ) );
 1083              	 .loc 1 558 0
 1084 00d4 3B68     	 ldr r3,[r7]
 1085 00d6 1433     	 adds r3,r3,#20
 1086 00d8 F868     	 ldr r0,[r7,#12]
 1087 00da 0221     	 movs r1,#2
 1088 00dc 1A46     	 mov r2,r3
 1089 00de FFF7FEFF 	 bl x509_parse_int
 1090 00e2 7861     	 str r0,[r7,#20]
 1091 00e4 7B69     	 ldr r3,[r7,#20]
 1092 00e6 002B     	 cmp r3,#0
 1093 00e8 01D0     	 beq .L83
 1094              	 .loc 1 558 0 is_stmt 0 discriminator 1
 1095 00ea 7B69     	 ldr r3,[r7,#20]
 1096 00ec 24E0     	 b .L74
 1097              	.L83:
 559:C:/Users/Yushev/git/wpcqi-optiga-trust-charge/optiga/externals/mbedtls/library\x509.c ****         len -= 2;
 1098              	 .loc 1 559 0 is_stmt 1
 1099 00ee BB68     	 ldr r3,[r7,#8]
 1100 00f0 023B     	 subs r3,r3,#2
 1101 00f2 BB60     	 str r3,[r7,#8]
 560:C:/Users/Yushev/git/wpcqi-optiga-trust-charge/optiga/externals/mbedtls/library\x509.c ****     }
 561:C:/Users/Yushev/git/wpcqi-optiga-trust-charge/optiga/externals/mbedtls/library\x509.c ****     else
 562:C:/Users/Yushev/git/wpcqi-optiga-trust-charge/optiga/externals/mbedtls/library\x509.c ****         return ( MBEDTLS_ERR_X509_INVALID_DATE );
 563:C:/Users/Yushev/git/wpcqi-optiga-trust-charge/optiga/externals/mbedtls/library\x509.c **** 
 564:C:/Users/Yushev/git/wpcqi-optiga-trust-charge/optiga/externals/mbedtls/library\x509.c ****     /*
 565:C:/Users/Yushev/git/wpcqi-optiga-trust-charge/optiga/externals/mbedtls/library\x509.c ****      * Parse trailing 'Z' if present
 566:C:/Users/Yushev/git/wpcqi-optiga-trust-charge/optiga/externals/mbedtls/library\x509.c ****      */
 567:C:/Users/Yushev/git/wpcqi-optiga-trust-charge/optiga/externals/mbedtls/library\x509.c ****     if ( 1 == len && 'Z' == **p )
 1102              	 .loc 1 567 0
 1103 00f4 BB68     	 ldr r3,[r7,#8]
 1104 00f6 012B     	 cmp r3,#1
 1105 00f8 0FD1     	 bne .L85
 1106 00fa 01E0     	 b .L88
 1107              	.L82:
 562:C:/Users/Yushev/git/wpcqi-optiga-trust-charge/optiga/externals/mbedtls/library\x509.c **** 
 1108              	 .loc 1 562 0
 1109 00fc 104B     	 ldr r3,.L89
 1110 00fe 1BE0     	 b .L74
 1111              	.L88:
 1112              	 .loc 1 567 0 discriminator 1
 1113 0100 FB68     	 ldr r3,[r7,#12]
 1114 0102 1B68     	 ldr r3,[r3]
 1115 0104 1B78     	 ldrb r3,[r3]
 1116 0106 5A2B     	 cmp r3,#90
 1117 0108 07D1     	 bne .L85
 568:C:/Users/Yushev/git/wpcqi-optiga-trust-charge/optiga/externals/mbedtls/library\x509.c ****     {
 569:C:/Users/Yushev/git/wpcqi-optiga-trust-charge/optiga/externals/mbedtls/library\x509.c ****         (*p)++;
 1118              	 .loc 1 569 0
 1119 010a FB68     	 ldr r3,[r7,#12]
 1120 010c 1B68     	 ldr r3,[r3]
 1121 010e 5A1C     	 adds r2,r3,#1
 1122 0110 FB68     	 ldr r3,[r7,#12]
 1123 0112 1A60     	 str r2,[r3]
 570:C:/Users/Yushev/git/wpcqi-optiga-trust-charge/optiga/externals/mbedtls/library\x509.c ****         len--;
 1124              	 .loc 1 570 0
 1125 0114 BB68     	 ldr r3,[r7,#8]
 1126 0116 013B     	 subs r3,r3,#1
 1127 0118 BB60     	 str r3,[r7,#8]
 1128              	.L85:
 571:C:/Users/Yushev/git/wpcqi-optiga-trust-charge/optiga/externals/mbedtls/library\x509.c ****     }
 572:C:/Users/Yushev/git/wpcqi-optiga-trust-charge/optiga/externals/mbedtls/library\x509.c **** 
 573:C:/Users/Yushev/git/wpcqi-optiga-trust-charge/optiga/externals/mbedtls/library\x509.c ****     /*
 574:C:/Users/Yushev/git/wpcqi-optiga-trust-charge/optiga/externals/mbedtls/library\x509.c ****      * We should have parsed all characters at this point
 575:C:/Users/Yushev/git/wpcqi-optiga-trust-charge/optiga/externals/mbedtls/library\x509.c ****      */
 576:C:/Users/Yushev/git/wpcqi-optiga-trust-charge/optiga/externals/mbedtls/library\x509.c ****     if ( 0 != len )
 1129              	 .loc 1 576 0
 1130 011a BB68     	 ldr r3,[r7,#8]
 1131 011c 002B     	 cmp r3,#0
 1132 011e 01D0     	 beq .L86
 577:C:/Users/Yushev/git/wpcqi-optiga-trust-charge/optiga/externals/mbedtls/library\x509.c ****         return ( MBEDTLS_ERR_X509_INVALID_DATE );
 1133              	 .loc 1 577 0
 1134 0120 074B     	 ldr r3,.L89
 1135 0122 09E0     	 b .L74
 1136              	.L86:
 578:C:/Users/Yushev/git/wpcqi-optiga-trust-charge/optiga/externals/mbedtls/library\x509.c **** 
 579:C:/Users/Yushev/git/wpcqi-optiga-trust-charge/optiga/externals/mbedtls/library\x509.c ****     CHECK( x509_date_is_valid( tm ) );
 1137              	 .loc 1 579 0
 1138 0124 3868     	 ldr r0,[r7]
 1139 0126 FFF7FEFF 	 bl x509_date_is_valid
 1140 012a 7861     	 str r0,[r7,#20]
 1141 012c 7B69     	 ldr r3,[r7,#20]
 1142 012e 002B     	 cmp r3,#0
 1143 0130 01D0     	 beq .L87
 1144              	 .loc 1 579 0 is_stmt 0 discriminator 1
 1145 0132 7B69     	 ldr r3,[r7,#20]
 1146 0134 00E0     	 b .L74
 1147              	.L87:
 580:C:/Users/Yushev/git/wpcqi-optiga-trust-charge/optiga/externals/mbedtls/library\x509.c **** 
 581:C:/Users/Yushev/git/wpcqi-optiga-trust-charge/optiga/externals/mbedtls/library\x509.c ****     return ( 0 );
 1148              	 .loc 1 581 0 is_stmt 1
 1149 0136 0023     	 movs r3,#0
 1150              	.L74:
 582:C:/Users/Yushev/git/wpcqi-optiga-trust-charge/optiga/externals/mbedtls/library\x509.c **** }
 1151              	 .loc 1 582 0
 1152 0138 1846     	 mov r0,r3
 1153 013a 1837     	 adds r7,r7,#24
 1154              	.LCFI40:
 1155              	 .cfi_def_cfa_offset 8
 1156 013c BD46     	 mov sp,r7
 1157              	.LCFI41:
 1158              	 .cfi_def_cfa_register 13
 1159              	 
 1160 013e 80BD     	 pop {r7,pc}
 1161              	.L90:
 1162              	 .align 2
 1163              	.L89:
 1164 0140 00DCFFFF 	 .word -9216
 1165              	 .cfi_endproc
 1166              	.LFE16:
 1168              	 .section .text.mbedtls_x509_get_time,"ax",%progbits
 1169              	 .align 2
 1170              	 .global mbedtls_x509_get_time
 1171              	 .thumb
 1172              	 .thumb_func
 1174              	mbedtls_x509_get_time:
 1175              	.LFB17:
 583:C:/Users/Yushev/git/wpcqi-optiga-trust-charge/optiga/externals/mbedtls/library\x509.c **** 
 584:C:/Users/Yushev/git/wpcqi-optiga-trust-charge/optiga/externals/mbedtls/library\x509.c **** /*
 585:C:/Users/Yushev/git/wpcqi-optiga-trust-charge/optiga/externals/mbedtls/library\x509.c ****  *  Time ::= CHOICE {
 586:C:/Users/Yushev/git/wpcqi-optiga-trust-charge/optiga/externals/mbedtls/library\x509.c ****  *       utcTime        UTCTime,
 587:C:/Users/Yushev/git/wpcqi-optiga-trust-charge/optiga/externals/mbedtls/library\x509.c ****  *       generalTime    GeneralizedTime }
 588:C:/Users/Yushev/git/wpcqi-optiga-trust-charge/optiga/externals/mbedtls/library\x509.c ****  */
 589:C:/Users/Yushev/git/wpcqi-optiga-trust-charge/optiga/externals/mbedtls/library\x509.c **** int mbedtls_x509_get_time( unsigned char **p, const unsigned char *end,
 590:C:/Users/Yushev/git/wpcqi-optiga-trust-charge/optiga/externals/mbedtls/library\x509.c ****                            mbedtls_x509_time *tm )
 591:C:/Users/Yushev/git/wpcqi-optiga-trust-charge/optiga/externals/mbedtls/library\x509.c **** {
 1176              	 .loc 1 591 0
 1177              	 .cfi_startproc
 1178              	 
 1179              	 
 1180 0000 80B5     	 push {r7,lr}
 1181              	.LCFI42:
 1182              	 .cfi_def_cfa_offset 8
 1183              	 .cfi_offset 7,-8
 1184              	 .cfi_offset 14,-4
 1185 0002 88B0     	 sub sp,sp,#32
 1186              	.LCFI43:
 1187              	 .cfi_def_cfa_offset 40
 1188 0004 00AF     	 add r7,sp,#0
 1189              	.LCFI44:
 1190              	 .cfi_def_cfa_register 7
 1191 0006 F860     	 str r0,[r7,#12]
 1192 0008 B960     	 str r1,[r7,#8]
 1193 000a 7A60     	 str r2,[r7,#4]
 592:C:/Users/Yushev/git/wpcqi-optiga-trust-charge/optiga/externals/mbedtls/library\x509.c ****     int ret;
 593:C:/Users/Yushev/git/wpcqi-optiga-trust-charge/optiga/externals/mbedtls/library\x509.c ****     size_t len, year_len;
 594:C:/Users/Yushev/git/wpcqi-optiga-trust-charge/optiga/externals/mbedtls/library\x509.c ****     unsigned char tag;
 595:C:/Users/Yushev/git/wpcqi-optiga-trust-charge/optiga/externals/mbedtls/library\x509.c **** 
 596:C:/Users/Yushev/git/wpcqi-optiga-trust-charge/optiga/externals/mbedtls/library\x509.c ****     if( ( end - *p ) < 1 )
 1194              	 .loc 1 596 0
 1195 000c BB68     	 ldr r3,[r7,#8]
 1196 000e FA68     	 ldr r2,[r7,#12]
 1197 0010 1268     	 ldr r2,[r2]
 1198 0012 9B1A     	 subs r3,r3,r2
 1199 0014 002B     	 cmp r3,#0
 1200 0016 01DC     	 bgt .L92
 597:C:/Users/Yushev/git/wpcqi-optiga-trust-charge/optiga/externals/mbedtls/library\x509.c ****         return( MBEDTLS_ERR_X509_INVALID_DATE +
 1201              	 .loc 1 597 0
 1202 0018 194B     	 ldr r3,.L99
 1203 001a 2DE0     	 b .L98
 1204              	.L92:
 598:C:/Users/Yushev/git/wpcqi-optiga-trust-charge/optiga/externals/mbedtls/library\x509.c ****                 MBEDTLS_ERR_ASN1_OUT_OF_DATA );
 599:C:/Users/Yushev/git/wpcqi-optiga-trust-charge/optiga/externals/mbedtls/library\x509.c **** 
 600:C:/Users/Yushev/git/wpcqi-optiga-trust-charge/optiga/externals/mbedtls/library\x509.c ****     tag = **p;
 1205              	 .loc 1 600 0
 1206 001c FB68     	 ldr r3,[r7,#12]
 1207 001e 1B68     	 ldr r3,[r3]
 1208 0020 1B78     	 ldrb r3,[r3]
 1209 0022 FB76     	 strb r3,[r7,#27]
 601:C:/Users/Yushev/git/wpcqi-optiga-trust-charge/optiga/externals/mbedtls/library\x509.c **** 
 602:C:/Users/Yushev/git/wpcqi-optiga-trust-charge/optiga/externals/mbedtls/library\x509.c ****     if( tag == MBEDTLS_ASN1_UTC_TIME )
 1210              	 .loc 1 602 0
 1211 0024 FB7E     	 ldrb r3,[r7,#27]
 1212 0026 172B     	 cmp r3,#23
 1213 0028 02D1     	 bne .L94
 603:C:/Users/Yushev/git/wpcqi-optiga-trust-charge/optiga/externals/mbedtls/library\x509.c ****         year_len = 2;
 1214              	 .loc 1 603 0
 1215 002a 0223     	 movs r3,#2
 1216 002c FB61     	 str r3,[r7,#28]
 1217 002e 07E0     	 b .L95
 1218              	.L94:
 604:C:/Users/Yushev/git/wpcqi-optiga-trust-charge/optiga/externals/mbedtls/library\x509.c ****     else if( tag == MBEDTLS_ASN1_GENERALIZED_TIME )
 1219              	 .loc 1 604 0
 1220 0030 FB7E     	 ldrb r3,[r7,#27]
 1221 0032 182B     	 cmp r3,#24
 1222 0034 02D1     	 bne .L96
 605:C:/Users/Yushev/git/wpcqi-optiga-trust-charge/optiga/externals/mbedtls/library\x509.c ****         year_len = 4;
 1223              	 .loc 1 605 0
 1224 0036 0423     	 movs r3,#4
 1225 0038 FB61     	 str r3,[r7,#28]
 1226 003a 01E0     	 b .L95
 1227              	.L96:
 606:C:/Users/Yushev/git/wpcqi-optiga-trust-charge/optiga/externals/mbedtls/library\x509.c ****     else
 607:C:/Users/Yushev/git/wpcqi-optiga-trust-charge/optiga/externals/mbedtls/library\x509.c ****         return( MBEDTLS_ERR_X509_INVALID_DATE +
 1228              	 .loc 1 607 0
 1229 003c 114B     	 ldr r3,.L99+4
 1230 003e 1BE0     	 b .L98
 1231              	.L95:
 608:C:/Users/Yushev/git/wpcqi-optiga-trust-charge/optiga/externals/mbedtls/library\x509.c ****                 MBEDTLS_ERR_ASN1_UNEXPECTED_TAG );
 609:C:/Users/Yushev/git/wpcqi-optiga-trust-charge/optiga/externals/mbedtls/library\x509.c **** 
 610:C:/Users/Yushev/git/wpcqi-optiga-trust-charge/optiga/externals/mbedtls/library\x509.c ****     (*p)++;
 1232              	 .loc 1 610 0
 1233 0040 FB68     	 ldr r3,[r7,#12]
 1234 0042 1B68     	 ldr r3,[r3]
 1235 0044 5A1C     	 adds r2,r3,#1
 1236 0046 FB68     	 ldr r3,[r7,#12]
 1237 0048 1A60     	 str r2,[r3]
 611:C:/Users/Yushev/git/wpcqi-optiga-trust-charge/optiga/externals/mbedtls/library\x509.c ****     ret = mbedtls_asn1_get_len( p, end, &len );
 1238              	 .loc 1 611 0
 1239 004a 07F11003 	 add r3,r7,#16
 1240 004e F868     	 ldr r0,[r7,#12]
 1241 0050 B968     	 ldr r1,[r7,#8]
 1242 0052 1A46     	 mov r2,r3
 1243 0054 FFF7FEFF 	 bl mbedtls_asn1_get_len
 1244 0058 7861     	 str r0,[r7,#20]
 612:C:/Users/Yushev/git/wpcqi-optiga-trust-charge/optiga/externals/mbedtls/library\x509.c **** 
 613:C:/Users/Yushev/git/wpcqi-optiga-trust-charge/optiga/externals/mbedtls/library\x509.c ****     if( ret != 0 )
 1245              	 .loc 1 613 0
 1246 005a 7B69     	 ldr r3,[r7,#20]
 1247 005c 002B     	 cmp r3,#0
 1248 005e 03D0     	 beq .L97
 614:C:/Users/Yushev/git/wpcqi-optiga-trust-charge/optiga/externals/mbedtls/library\x509.c ****         return( MBEDTLS_ERR_X509_INVALID_DATE + ret );
 1249              	 .loc 1 614 0
 1250 0060 7B69     	 ldr r3,[r7,#20]
 1251 0062 A3F51053 	 sub r3,r3,#9216
 1252 0066 07E0     	 b .L98
 1253              	.L97:
 615:C:/Users/Yushev/git/wpcqi-optiga-trust-charge/optiga/externals/mbedtls/library\x509.c **** 
 616:C:/Users/Yushev/git/wpcqi-optiga-trust-charge/optiga/externals/mbedtls/library\x509.c ****     return x509_parse_time( p, len, year_len, tm );
 1254              	 .loc 1 616 0
 1255 0068 3B69     	 ldr r3,[r7,#16]
 1256 006a F868     	 ldr r0,[r7,#12]
 1257 006c 1946     	 mov r1,r3
 1258 006e FA69     	 ldr r2,[r7,#28]
 1259 0070 7B68     	 ldr r3,[r7,#4]
 1260 0072 FFF7FEFF 	 bl x509_parse_time
 1261 0076 0346     	 mov r3,r0
 1262              	.L98:
 617:C:/Users/Yushev/git/wpcqi-optiga-trust-charge/optiga/externals/mbedtls/library\x509.c **** }
 1263              	 .loc 1 617 0 discriminator 1
 1264 0078 1846     	 mov r0,r3
 1265 007a 2037     	 adds r7,r7,#32
 1266              	.LCFI45:
 1267              	 .cfi_def_cfa_offset 8
 1268 007c BD46     	 mov sp,r7
 1269              	.LCFI46:
 1270              	 .cfi_def_cfa_register 13
 1271              	 
 1272 007e 80BD     	 pop {r7,pc}
 1273              	.L100:
 1274              	 .align 2
 1275              	.L99:
 1276 0080 A0DBFFFF 	 .word -9312
 1277 0084 9EDBFFFF 	 .word -9314
 1278              	 .cfi_endproc
 1279              	.LFE17:
 1281              	 .section .text.mbedtls_x509_get_sig,"ax",%progbits
 1282              	 .align 2
 1283              	 .global mbedtls_x509_get_sig
 1284              	 .thumb
 1285              	 .thumb_func
 1287              	mbedtls_x509_get_sig:
 1288              	.LFB18:
 618:C:/Users/Yushev/git/wpcqi-optiga-trust-charge/optiga/externals/mbedtls/library\x509.c **** 
 619:C:/Users/Yushev/git/wpcqi-optiga-trust-charge/optiga/externals/mbedtls/library\x509.c **** int mbedtls_x509_get_sig( unsigned char **p, const unsigned char *end, mbedtls_x509_buf *sig )
 620:C:/Users/Yushev/git/wpcqi-optiga-trust-charge/optiga/externals/mbedtls/library\x509.c **** {
 1289              	 .loc 1 620 0
 1290              	 .cfi_startproc
 1291              	 
 1292              	 
 1293 0000 80B5     	 push {r7,lr}
 1294              	.LCFI47:
 1295              	 .cfi_def_cfa_offset 8
 1296              	 .cfi_offset 7,-8
 1297              	 .cfi_offset 14,-4
 1298 0002 88B0     	 sub sp,sp,#32
 1299              	.LCFI48:
 1300              	 .cfi_def_cfa_offset 40
 1301 0004 00AF     	 add r7,sp,#0
 1302              	.LCFI49:
 1303              	 .cfi_def_cfa_register 7
 1304 0006 F860     	 str r0,[r7,#12]
 1305 0008 B960     	 str r1,[r7,#8]
 1306 000a 7A60     	 str r2,[r7,#4]
 621:C:/Users/Yushev/git/wpcqi-optiga-trust-charge/optiga/externals/mbedtls/library\x509.c ****     int ret;
 622:C:/Users/Yushev/git/wpcqi-optiga-trust-charge/optiga/externals/mbedtls/library\x509.c ****     size_t len;
 623:C:/Users/Yushev/git/wpcqi-optiga-trust-charge/optiga/externals/mbedtls/library\x509.c ****     int tag_type;
 624:C:/Users/Yushev/git/wpcqi-optiga-trust-charge/optiga/externals/mbedtls/library\x509.c **** 
 625:C:/Users/Yushev/git/wpcqi-optiga-trust-charge/optiga/externals/mbedtls/library\x509.c ****     if( ( end - *p ) < 1 )
 1307              	 .loc 1 625 0
 1308 000c BB68     	 ldr r3,[r7,#8]
 1309 000e FA68     	 ldr r2,[r7,#12]
 1310 0010 1268     	 ldr r2,[r2]
 1311 0012 9B1A     	 subs r3,r3,r2
 1312 0014 002B     	 cmp r3,#0
 1313 0016 01DC     	 bgt .L102
 626:C:/Users/Yushev/git/wpcqi-optiga-trust-charge/optiga/externals/mbedtls/library\x509.c ****         return( MBEDTLS_ERR_X509_INVALID_SIGNATURE +
 1314              	 .loc 1 626 0
 1315 0018 144B     	 ldr r3,.L106
 1316 001a 23E0     	 b .L105
 1317              	.L102:
 627:C:/Users/Yushev/git/wpcqi-optiga-trust-charge/optiga/externals/mbedtls/library\x509.c ****                 MBEDTLS_ERR_ASN1_OUT_OF_DATA );
 628:C:/Users/Yushev/git/wpcqi-optiga-trust-charge/optiga/externals/mbedtls/library\x509.c **** 
 629:C:/Users/Yushev/git/wpcqi-optiga-trust-charge/optiga/externals/mbedtls/library\x509.c ****     tag_type = **p;
 1318              	 .loc 1 629 0
 1319 001c FB68     	 ldr r3,[r7,#12]
 1320 001e 1B68     	 ldr r3,[r3]
 1321 0020 1B78     	 ldrb r3,[r3]
 1322 0022 FB61     	 str r3,[r7,#28]
 630:C:/Users/Yushev/git/wpcqi-optiga-trust-charge/optiga/externals/mbedtls/library\x509.c **** 
 631:C:/Users/Yushev/git/wpcqi-optiga-trust-charge/optiga/externals/mbedtls/library\x509.c ****     if( ( ret = mbedtls_asn1_get_bitstring_null( p, end, &len ) ) != 0 )
 1323              	 .loc 1 631 0
 1324 0024 07F11403 	 add r3,r7,#20
 1325 0028 F868     	 ldr r0,[r7,#12]
 1326 002a B968     	 ldr r1,[r7,#8]
 1327 002c 1A46     	 mov r2,r3
 1328 002e FFF7FEFF 	 bl mbedtls_asn1_get_bitstring_null
 1329 0032 B861     	 str r0,[r7,#24]
 1330 0034 BB69     	 ldr r3,[r7,#24]
 1331 0036 002B     	 cmp r3,#0
 1332 0038 03D0     	 beq .L104
 632:C:/Users/Yushev/git/wpcqi-optiga-trust-charge/optiga/externals/mbedtls/library\x509.c ****         return( MBEDTLS_ERR_X509_INVALID_SIGNATURE + ret );
 1333              	 .loc 1 632 0
 1334 003a BB69     	 ldr r3,[r7,#24]
 1335 003c A3F51253 	 sub r3,r3,#9344
 1336 0040 10E0     	 b .L105
 1337              	.L104:
 633:C:/Users/Yushev/git/wpcqi-optiga-trust-charge/optiga/externals/mbedtls/library\x509.c **** 
 634:C:/Users/Yushev/git/wpcqi-optiga-trust-charge/optiga/externals/mbedtls/library\x509.c ****     sig->tag = tag_type;
 1338              	 .loc 1 634 0
 1339 0042 7B68     	 ldr r3,[r7,#4]
 1340 0044 FA69     	 ldr r2,[r7,#28]
 1341 0046 1A60     	 str r2,[r3]
 635:C:/Users/Yushev/git/wpcqi-optiga-trust-charge/optiga/externals/mbedtls/library\x509.c ****     sig->len = len;
 1342              	 .loc 1 635 0
 1343 0048 7A69     	 ldr r2,[r7,#20]
 1344 004a 7B68     	 ldr r3,[r7,#4]
 1345 004c 5A60     	 str r2,[r3,#4]
 636:C:/Users/Yushev/git/wpcqi-optiga-trust-charge/optiga/externals/mbedtls/library\x509.c ****     sig->p = *p;
 1346              	 .loc 1 636 0
 1347 004e FB68     	 ldr r3,[r7,#12]
 1348 0050 1A68     	 ldr r2,[r3]
 1349 0052 7B68     	 ldr r3,[r7,#4]
 1350 0054 9A60     	 str r2,[r3,#8]
 637:C:/Users/Yushev/git/wpcqi-optiga-trust-charge/optiga/externals/mbedtls/library\x509.c **** 
 638:C:/Users/Yushev/git/wpcqi-optiga-trust-charge/optiga/externals/mbedtls/library\x509.c ****     *p += len;
 1351              	 .loc 1 638 0
 1352 0056 FB68     	 ldr r3,[r7,#12]
 1353 0058 1A68     	 ldr r2,[r3]
 1354 005a 7B69     	 ldr r3,[r7,#20]
 1355 005c 1A44     	 add r2,r2,r3
 1356 005e FB68     	 ldr r3,[r7,#12]
 1357 0060 1A60     	 str r2,[r3]
 639:C:/Users/Yushev/git/wpcqi-optiga-trust-charge/optiga/externals/mbedtls/library\x509.c **** 
 640:C:/Users/Yushev/git/wpcqi-optiga-trust-charge/optiga/externals/mbedtls/library\x509.c ****     return( 0 );
 1358              	 .loc 1 640 0
 1359 0062 0023     	 movs r3,#0
 1360              	.L105:
 641:C:/Users/Yushev/git/wpcqi-optiga-trust-charge/optiga/externals/mbedtls/library\x509.c **** }
 1361              	 .loc 1 641 0 discriminator 1
 1362 0064 1846     	 mov r0,r3
 1363 0066 2037     	 adds r7,r7,#32
 1364              	.LCFI50:
 1365              	 .cfi_def_cfa_offset 8
 1366 0068 BD46     	 mov sp,r7
 1367              	.LCFI51:
 1368              	 .cfi_def_cfa_register 13
 1369              	 
 1370 006a 80BD     	 pop {r7,pc}
 1371              	.L107:
 1372              	 .align 2
 1373              	.L106:
 1374 006c 20DBFFFF 	 .word -9440
 1375              	 .cfi_endproc
 1376              	.LFE18:
 1378              	 .section .text.mbedtls_x509_get_sig_alg,"ax",%progbits
 1379              	 .align 2
 1380              	 .global mbedtls_x509_get_sig_alg
 1381              	 .thumb
 1382              	 .thumb_func
 1384              	mbedtls_x509_get_sig_alg:
 1385              	.LFB19:
 642:C:/Users/Yushev/git/wpcqi-optiga-trust-charge/optiga/externals/mbedtls/library\x509.c **** 
 643:C:/Users/Yushev/git/wpcqi-optiga-trust-charge/optiga/externals/mbedtls/library\x509.c **** /*
 644:C:/Users/Yushev/git/wpcqi-optiga-trust-charge/optiga/externals/mbedtls/library\x509.c ****  * Get signature algorithm from alg OID and optional parameters
 645:C:/Users/Yushev/git/wpcqi-optiga-trust-charge/optiga/externals/mbedtls/library\x509.c ****  */
 646:C:/Users/Yushev/git/wpcqi-optiga-trust-charge/optiga/externals/mbedtls/library\x509.c **** int mbedtls_x509_get_sig_alg( const mbedtls_x509_buf *sig_oid, const mbedtls_x509_buf *sig_params,
 647:C:/Users/Yushev/git/wpcqi-optiga-trust-charge/optiga/externals/mbedtls/library\x509.c ****                       mbedtls_md_type_t *md_alg, mbedtls_pk_type_t *pk_alg,
 648:C:/Users/Yushev/git/wpcqi-optiga-trust-charge/optiga/externals/mbedtls/library\x509.c ****                       void **sig_opts )
 649:C:/Users/Yushev/git/wpcqi-optiga-trust-charge/optiga/externals/mbedtls/library\x509.c **** {
 1386              	 .loc 1 649 0
 1387              	 .cfi_startproc
 1388              	 
 1389              	 
 1390 0000 80B5     	 push {r7,lr}
 1391              	.LCFI52:
 1392              	 .cfi_def_cfa_offset 8
 1393              	 .cfi_offset 7,-8
 1394              	 .cfi_offset 14,-4
 1395 0002 86B0     	 sub sp,sp,#24
 1396              	.LCFI53:
 1397              	 .cfi_def_cfa_offset 32
 1398 0004 00AF     	 add r7,sp,#0
 1399              	.LCFI54:
 1400              	 .cfi_def_cfa_register 7
 1401 0006 F860     	 str r0,[r7,#12]
 1402 0008 B960     	 str r1,[r7,#8]
 1403 000a 7A60     	 str r2,[r7,#4]
 1404 000c 3B60     	 str r3,[r7]
 650:C:/Users/Yushev/git/wpcqi-optiga-trust-charge/optiga/externals/mbedtls/library\x509.c ****     int ret;
 651:C:/Users/Yushev/git/wpcqi-optiga-trust-charge/optiga/externals/mbedtls/library\x509.c **** 
 652:C:/Users/Yushev/git/wpcqi-optiga-trust-charge/optiga/externals/mbedtls/library\x509.c ****     if( *sig_opts != NULL )
 1405              	 .loc 1 652 0
 1406 000e 3B6A     	 ldr r3,[r7,#32]
 1407 0010 1B68     	 ldr r3,[r3]
 1408 0012 002B     	 cmp r3,#0
 1409 0014 01D0     	 beq .L109
 653:C:/Users/Yushev/git/wpcqi-optiga-trust-charge/optiga/externals/mbedtls/library\x509.c ****         return( MBEDTLS_ERR_X509_BAD_INPUT_DATA );
 1410              	 .loc 1 653 0
 1411 0016 114B     	 ldr r3,.L115
 1412 0018 1BE0     	 b .L110
 1413              	.L109:
 654:C:/Users/Yushev/git/wpcqi-optiga-trust-charge/optiga/externals/mbedtls/library\x509.c **** 
 655:C:/Users/Yushev/git/wpcqi-optiga-trust-charge/optiga/externals/mbedtls/library\x509.c ****     if( ( ret = mbedtls_oid_get_sig_alg( sig_oid, md_alg, pk_alg ) ) != 0 )
 1414              	 .loc 1 655 0
 1415 001a F868     	 ldr r0,[r7,#12]
 1416 001c 7968     	 ldr r1,[r7,#4]
 1417 001e 3A68     	 ldr r2,[r7]
 1418 0020 FFF7FEFF 	 bl mbedtls_oid_get_sig_alg
 1419 0024 7861     	 str r0,[r7,#20]
 1420 0026 7B69     	 ldr r3,[r7,#20]
 1421 0028 002B     	 cmp r3,#0
 1422 002a 03D0     	 beq .L111
 656:C:/Users/Yushev/git/wpcqi-optiga-trust-charge/optiga/externals/mbedtls/library\x509.c ****         return( MBEDTLS_ERR_X509_UNKNOWN_SIG_ALG + ret );
 1423              	 .loc 1 656 0
 1424 002c 7B69     	 ldr r3,[r7,#20]
 1425 002e A3F51853 	 sub r3,r3,#9728
 1426 0032 0EE0     	 b .L110
 1427              	.L111:
 657:C:/Users/Yushev/git/wpcqi-optiga-trust-charge/optiga/externals/mbedtls/library\x509.c **** 
 658:C:/Users/Yushev/git/wpcqi-optiga-trust-charge/optiga/externals/mbedtls/library\x509.c **** #if defined(MBEDTLS_X509_RSASSA_PSS_SUPPORT)
 659:C:/Users/Yushev/git/wpcqi-optiga-trust-charge/optiga/externals/mbedtls/library\x509.c ****     if( *pk_alg == MBEDTLS_PK_RSASSA_PSS )
 660:C:/Users/Yushev/git/wpcqi-optiga-trust-charge/optiga/externals/mbedtls/library\x509.c ****     {
 661:C:/Users/Yushev/git/wpcqi-optiga-trust-charge/optiga/externals/mbedtls/library\x509.c ****         mbedtls_pk_rsassa_pss_options *pss_opts;
 662:C:/Users/Yushev/git/wpcqi-optiga-trust-charge/optiga/externals/mbedtls/library\x509.c **** 
 663:C:/Users/Yushev/git/wpcqi-optiga-trust-charge/optiga/externals/mbedtls/library\x509.c ****         pss_opts = mbedtls_calloc( 1, sizeof( mbedtls_pk_rsassa_pss_options ) );
 664:C:/Users/Yushev/git/wpcqi-optiga-trust-charge/optiga/externals/mbedtls/library\x509.c ****         if( pss_opts == NULL )
 665:C:/Users/Yushev/git/wpcqi-optiga-trust-charge/optiga/externals/mbedtls/library\x509.c ****             return( MBEDTLS_ERR_X509_ALLOC_FAILED );
 666:C:/Users/Yushev/git/wpcqi-optiga-trust-charge/optiga/externals/mbedtls/library\x509.c **** 
 667:C:/Users/Yushev/git/wpcqi-optiga-trust-charge/optiga/externals/mbedtls/library\x509.c ****         ret = mbedtls_x509_get_rsassa_pss_params( sig_params,
 668:C:/Users/Yushev/git/wpcqi-optiga-trust-charge/optiga/externals/mbedtls/library\x509.c ****                                           md_alg,
 669:C:/Users/Yushev/git/wpcqi-optiga-trust-charge/optiga/externals/mbedtls/library\x509.c ****                                           &pss_opts->mgf1_hash_id,
 670:C:/Users/Yushev/git/wpcqi-optiga-trust-charge/optiga/externals/mbedtls/library\x509.c ****                                           &pss_opts->expected_salt_len );
 671:C:/Users/Yushev/git/wpcqi-optiga-trust-charge/optiga/externals/mbedtls/library\x509.c ****         if( ret != 0 )
 672:C:/Users/Yushev/git/wpcqi-optiga-trust-charge/optiga/externals/mbedtls/library\x509.c ****         {
 673:C:/Users/Yushev/git/wpcqi-optiga-trust-charge/optiga/externals/mbedtls/library\x509.c ****             mbedtls_free( pss_opts );
 674:C:/Users/Yushev/git/wpcqi-optiga-trust-charge/optiga/externals/mbedtls/library\x509.c ****             return( ret );
 675:C:/Users/Yushev/git/wpcqi-optiga-trust-charge/optiga/externals/mbedtls/library\x509.c ****         }
 676:C:/Users/Yushev/git/wpcqi-optiga-trust-charge/optiga/externals/mbedtls/library\x509.c **** 
 677:C:/Users/Yushev/git/wpcqi-optiga-trust-charge/optiga/externals/mbedtls/library\x509.c ****         *sig_opts = (void *) pss_opts;
 678:C:/Users/Yushev/git/wpcqi-optiga-trust-charge/optiga/externals/mbedtls/library\x509.c ****     }
 679:C:/Users/Yushev/git/wpcqi-optiga-trust-charge/optiga/externals/mbedtls/library\x509.c ****     else
 680:C:/Users/Yushev/git/wpcqi-optiga-trust-charge/optiga/externals/mbedtls/library\x509.c **** #endif /* MBEDTLS_X509_RSASSA_PSS_SUPPORT */
 681:C:/Users/Yushev/git/wpcqi-optiga-trust-charge/optiga/externals/mbedtls/library\x509.c ****     {
 682:C:/Users/Yushev/git/wpcqi-optiga-trust-charge/optiga/externals/mbedtls/library\x509.c ****         /* Make sure parameters are absent or NULL */
 683:C:/Users/Yushev/git/wpcqi-optiga-trust-charge/optiga/externals/mbedtls/library\x509.c ****         if( ( sig_params->tag != MBEDTLS_ASN1_NULL && sig_params->tag != 0 ) ||
 1428              	 .loc 1 683 0
 1429 0034 BB68     	 ldr r3,[r7,#8]
 1430 0036 1B68     	 ldr r3,[r3]
 1431 0038 052B     	 cmp r3,#5
 1432 003a 03D0     	 beq .L112
 1433              	 .loc 1 683 0 is_stmt 0 discriminator 1
 1434 003c BB68     	 ldr r3,[r7,#8]
 1435 003e 1B68     	 ldr r3,[r3]
 1436 0040 002B     	 cmp r3,#0
 1437 0042 03D1     	 bne .L113
 1438              	.L112:
 684:C:/Users/Yushev/git/wpcqi-optiga-trust-charge/optiga/externals/mbedtls/library\x509.c ****               sig_params->len != 0 )
 1439              	 .loc 1 684 0 is_stmt 1 discriminator 3
 1440 0044 BB68     	 ldr r3,[r7,#8]
 1441 0046 5B68     	 ldr r3,[r3,#4]
 683:C:/Users/Yushev/git/wpcqi-optiga-trust-charge/optiga/externals/mbedtls/library\x509.c ****               sig_params->len != 0 )
 1442              	 .loc 1 683 0 discriminator 3
 1443 0048 002B     	 cmp r3,#0
 1444 004a 01D0     	 beq .L114
 1445              	.L113:
 685:C:/Users/Yushev/git/wpcqi-optiga-trust-charge/optiga/externals/mbedtls/library\x509.c ****         return( MBEDTLS_ERR_X509_INVALID_ALG );
 1446              	 .loc 1 685 0
 1447 004c 044B     	 ldr r3,.L115+4
 1448 004e 00E0     	 b .L110
 1449              	.L114:
 686:C:/Users/Yushev/git/wpcqi-optiga-trust-charge/optiga/externals/mbedtls/library\x509.c ****     }
 687:C:/Users/Yushev/git/wpcqi-optiga-trust-charge/optiga/externals/mbedtls/library\x509.c **** 
 688:C:/Users/Yushev/git/wpcqi-optiga-trust-charge/optiga/externals/mbedtls/library\x509.c ****     return( 0 );
 1450              	 .loc 1 688 0
 1451 0050 0023     	 movs r3,#0
 1452              	.L110:
 689:C:/Users/Yushev/git/wpcqi-optiga-trust-charge/optiga/externals/mbedtls/library\x509.c **** }
 1453              	 .loc 1 689 0
 1454 0052 1846     	 mov r0,r3
 1455 0054 1837     	 adds r7,r7,#24
 1456              	.LCFI55:
 1457              	 .cfi_def_cfa_offset 8
 1458 0056 BD46     	 mov sp,r7
 1459              	.LCFI56:
 1460              	 .cfi_def_cfa_register 13
 1461              	 
 1462 0058 80BD     	 pop {r7,pc}
 1463              	.L116:
 1464 005a 00BF     	 .align 2
 1465              	.L115:
 1466 005c 00D8FFFF 	 .word -10240
 1467 0060 00DDFFFF 	 .word -8960
 1468              	 .cfi_endproc
 1469              	.LFE19:
 1471              	 .section .text.mbedtls_x509_get_ext,"ax",%progbits
 1472              	 .align 2
 1473              	 .global mbedtls_x509_get_ext
 1474              	 .thumb
 1475              	 .thumb_func
 1477              	mbedtls_x509_get_ext:
 1478              	.LFB20:
 690:C:/Users/Yushev/git/wpcqi-optiga-trust-charge/optiga/externals/mbedtls/library\x509.c **** 
 691:C:/Users/Yushev/git/wpcqi-optiga-trust-charge/optiga/externals/mbedtls/library\x509.c **** /*
 692:C:/Users/Yushev/git/wpcqi-optiga-trust-charge/optiga/externals/mbedtls/library\x509.c ****  * X.509 Extensions (No parsing of extensions, pointer should
 693:C:/Users/Yushev/git/wpcqi-optiga-trust-charge/optiga/externals/mbedtls/library\x509.c ****  * be either manually updated or extensions should be parsed!)
 694:C:/Users/Yushev/git/wpcqi-optiga-trust-charge/optiga/externals/mbedtls/library\x509.c ****  */
 695:C:/Users/Yushev/git/wpcqi-optiga-trust-charge/optiga/externals/mbedtls/library\x509.c **** int mbedtls_x509_get_ext( unsigned char **p, const unsigned char *end,
 696:C:/Users/Yushev/git/wpcqi-optiga-trust-charge/optiga/externals/mbedtls/library\x509.c ****                   mbedtls_x509_buf *ext, int tag )
 697:C:/Users/Yushev/git/wpcqi-optiga-trust-charge/optiga/externals/mbedtls/library\x509.c **** {
 1479              	 .loc 1 697 0
 1480              	 .cfi_startproc
 1481              	 
 1482              	 
 1483 0000 80B5     	 push {r7,lr}
 1484              	.LCFI57:
 1485              	 .cfi_def_cfa_offset 8
 1486              	 .cfi_offset 7,-8
 1487              	 .cfi_offset 14,-4
 1488 0002 86B0     	 sub sp,sp,#24
 1489              	.LCFI58:
 1490              	 .cfi_def_cfa_offset 32
 1491 0004 00AF     	 add r7,sp,#0
 1492              	.LCFI59:
 1493              	 .cfi_def_cfa_register 7
 1494 0006 F860     	 str r0,[r7,#12]
 1495 0008 B960     	 str r1,[r7,#8]
 1496 000a 7A60     	 str r2,[r7,#4]
 1497 000c 3B60     	 str r3,[r7]
 698:C:/Users/Yushev/git/wpcqi-optiga-trust-charge/optiga/externals/mbedtls/library\x509.c ****     int ret;
 699:C:/Users/Yushev/git/wpcqi-optiga-trust-charge/optiga/externals/mbedtls/library\x509.c ****     size_t len;
 700:C:/Users/Yushev/git/wpcqi-optiga-trust-charge/optiga/externals/mbedtls/library\x509.c **** 
 701:C:/Users/Yushev/git/wpcqi-optiga-trust-charge/optiga/externals/mbedtls/library\x509.c ****     if( *p == end )
 1498              	 .loc 1 701 0
 1499 000e FB68     	 ldr r3,[r7,#12]
 1500 0010 1A68     	 ldr r2,[r3]
 1501 0012 BB68     	 ldr r3,[r7,#8]
 1502 0014 9A42     	 cmp r2,r3
 1503 0016 01D1     	 bne .L118
 702:C:/Users/Yushev/git/wpcqi-optiga-trust-charge/optiga/externals/mbedtls/library\x509.c ****         return( 0 );
 1504              	 .loc 1 702 0
 1505 0018 0023     	 movs r3,#0
 1506 001a 38E0     	 b .L123
 1507              	.L118:
 703:C:/Users/Yushev/git/wpcqi-optiga-trust-charge/optiga/externals/mbedtls/library\x509.c **** 
 704:C:/Users/Yushev/git/wpcqi-optiga-trust-charge/optiga/externals/mbedtls/library\x509.c ****     ext->tag = **p;
 1508              	 .loc 1 704 0
 1509 001c FB68     	 ldr r3,[r7,#12]
 1510 001e 1B68     	 ldr r3,[r3]
 1511 0020 1B78     	 ldrb r3,[r3]
 1512 0022 1A46     	 mov r2,r3
 1513 0024 7B68     	 ldr r3,[r7,#4]
 1514 0026 1A60     	 str r2,[r3]
 705:C:/Users/Yushev/git/wpcqi-optiga-trust-charge/optiga/externals/mbedtls/library\x509.c **** 
 706:C:/Users/Yushev/git/wpcqi-optiga-trust-charge/optiga/externals/mbedtls/library\x509.c ****     if( ( ret = mbedtls_asn1_get_tag( p, end, &ext->len,
 1515              	 .loc 1 706 0
 1516 0028 7B68     	 ldr r3,[r7,#4]
 1517 002a 1A1D     	 adds r2,r3,#4
 1518 002c 3B68     	 ldr r3,[r7]
 1519 002e 43F0A003 	 orr r3,r3,#160
 1520 0032 F868     	 ldr r0,[r7,#12]
 1521 0034 B968     	 ldr r1,[r7,#8]
 1522 0036 FFF7FEFF 	 bl mbedtls_asn1_get_tag
 1523 003a 7861     	 str r0,[r7,#20]
 1524 003c 7B69     	 ldr r3,[r7,#20]
 1525 003e 002B     	 cmp r3,#0
 1526 0040 01D0     	 beq .L120
 707:C:/Users/Yushev/git/wpcqi-optiga-trust-charge/optiga/externals/mbedtls/library\x509.c ****             MBEDTLS_ASN1_CONTEXT_SPECIFIC | MBEDTLS_ASN1_CONSTRUCTED | tag ) ) != 0 )
 708:C:/Users/Yushev/git/wpcqi-optiga-trust-charge/optiga/externals/mbedtls/library\x509.c ****         return( ret );
 1527              	 .loc 1 708 0
 1528 0042 7B69     	 ldr r3,[r7,#20]
 1529 0044 23E0     	 b .L123
 1530              	.L120:
 709:C:/Users/Yushev/git/wpcqi-optiga-trust-charge/optiga/externals/mbedtls/library\x509.c **** 
 710:C:/Users/Yushev/git/wpcqi-optiga-trust-charge/optiga/externals/mbedtls/library\x509.c ****     ext->p = *p;
 1531              	 .loc 1 710 0
 1532 0046 FB68     	 ldr r3,[r7,#12]
 1533 0048 1A68     	 ldr r2,[r3]
 1534 004a 7B68     	 ldr r3,[r7,#4]
 1535 004c 9A60     	 str r2,[r3,#8]
 711:C:/Users/Yushev/git/wpcqi-optiga-trust-charge/optiga/externals/mbedtls/library\x509.c ****     end = *p + ext->len;
 1536              	 .loc 1 711 0
 1537 004e FB68     	 ldr r3,[r7,#12]
 1538 0050 1A68     	 ldr r2,[r3]
 1539 0052 7B68     	 ldr r3,[r7,#4]
 1540 0054 5B68     	 ldr r3,[r3,#4]
 1541 0056 1344     	 add r3,r3,r2
 1542 0058 BB60     	 str r3,[r7,#8]
 712:C:/Users/Yushev/git/wpcqi-optiga-trust-charge/optiga/externals/mbedtls/library\x509.c **** 
 713:C:/Users/Yushev/git/wpcqi-optiga-trust-charge/optiga/externals/mbedtls/library\x509.c ****     /*
 714:C:/Users/Yushev/git/wpcqi-optiga-trust-charge/optiga/externals/mbedtls/library\x509.c ****      * Extensions  ::=  SEQUENCE SIZE (1..MAX) OF Extension
 715:C:/Users/Yushev/git/wpcqi-optiga-trust-charge/optiga/externals/mbedtls/library\x509.c ****      *
 716:C:/Users/Yushev/git/wpcqi-optiga-trust-charge/optiga/externals/mbedtls/library\x509.c ****      * Extension  ::=  SEQUENCE  {
 717:C:/Users/Yushev/git/wpcqi-optiga-trust-charge/optiga/externals/mbedtls/library\x509.c ****      *      extnID      OBJECT IDENTIFIER,
 718:C:/Users/Yushev/git/wpcqi-optiga-trust-charge/optiga/externals/mbedtls/library\x509.c ****      *      critical    BOOLEAN DEFAULT FALSE,
 719:C:/Users/Yushev/git/wpcqi-optiga-trust-charge/optiga/externals/mbedtls/library\x509.c ****      *      extnValue   OCTET STRING  }
 720:C:/Users/Yushev/git/wpcqi-optiga-trust-charge/optiga/externals/mbedtls/library\x509.c ****      */
 721:C:/Users/Yushev/git/wpcqi-optiga-trust-charge/optiga/externals/mbedtls/library\x509.c ****     if( ( ret = mbedtls_asn1_get_tag( p, end, &len,
 1543              	 .loc 1 721 0
 1544 005a 07F11003 	 add r3,r7,#16
 1545 005e F868     	 ldr r0,[r7,#12]
 1546 0060 B968     	 ldr r1,[r7,#8]
 1547 0062 1A46     	 mov r2,r3
 1548 0064 3023     	 movs r3,#48
 1549 0066 FFF7FEFF 	 bl mbedtls_asn1_get_tag
 1550 006a 7861     	 str r0,[r7,#20]
 1551 006c 7B69     	 ldr r3,[r7,#20]
 1552 006e 002B     	 cmp r3,#0
 1553 0070 03D0     	 beq .L121
 722:C:/Users/Yushev/git/wpcqi-optiga-trust-charge/optiga/externals/mbedtls/library\x509.c ****             MBEDTLS_ASN1_CONSTRUCTED | MBEDTLS_ASN1_SEQUENCE ) ) != 0 )
 723:C:/Users/Yushev/git/wpcqi-optiga-trust-charge/optiga/externals/mbedtls/library\x509.c ****         return( MBEDTLS_ERR_X509_INVALID_EXTENSIONS + ret );
 1554              	 .loc 1 723 0
 1555 0072 7B69     	 ldr r3,[r7,#20]
 1556 0074 A3F51453 	 sub r3,r3,#9472
 1557 0078 09E0     	 b .L123
 1558              	.L121:
 724:C:/Users/Yushev/git/wpcqi-optiga-trust-charge/optiga/externals/mbedtls/library\x509.c **** 
 725:C:/Users/Yushev/git/wpcqi-optiga-trust-charge/optiga/externals/mbedtls/library\x509.c ****     if( end != *p + len )
 1559              	 .loc 1 725 0
 1560 007a FB68     	 ldr r3,[r7,#12]
 1561 007c 1A68     	 ldr r2,[r3]
 1562 007e 3B69     	 ldr r3,[r7,#16]
 1563 0080 1A44     	 add r2,r2,r3
 1564 0082 BB68     	 ldr r3,[r7,#8]
 1565 0084 9A42     	 cmp r2,r3
 1566 0086 01D0     	 beq .L122
 726:C:/Users/Yushev/git/wpcqi-optiga-trust-charge/optiga/externals/mbedtls/library\x509.c ****         return( MBEDTLS_ERR_X509_INVALID_EXTENSIONS +
 1567              	 .loc 1 726 0
 1568 0088 034B     	 ldr r3,.L124
 1569 008a 00E0     	 b .L123
 1570              	.L122:
 727:C:/Users/Yushev/git/wpcqi-optiga-trust-charge/optiga/externals/mbedtls/library\x509.c ****                 MBEDTLS_ERR_ASN1_LENGTH_MISMATCH );
 728:C:/Users/Yushev/git/wpcqi-optiga-trust-charge/optiga/externals/mbedtls/library\x509.c **** 
 729:C:/Users/Yushev/git/wpcqi-optiga-trust-charge/optiga/externals/mbedtls/library\x509.c ****     return( 0 );
 1571              	 .loc 1 729 0
 1572 008c 0023     	 movs r3,#0
 1573              	.L123:
 730:C:/Users/Yushev/git/wpcqi-optiga-trust-charge/optiga/externals/mbedtls/library\x509.c **** }
 1574              	 .loc 1 730 0 discriminator 1
 1575 008e 1846     	 mov r0,r3
 1576 0090 1837     	 adds r7,r7,#24
 1577              	.LCFI60:
 1578              	 .cfi_def_cfa_offset 8
 1579 0092 BD46     	 mov sp,r7
 1580              	.LCFI61:
 1581              	 .cfi_def_cfa_register 13
 1582              	 
 1583 0094 80BD     	 pop {r7,pc}
 1584              	.L125:
 1585 0096 00BF     	 .align 2
 1586              	.L124:
 1587 0098 9ADAFFFF 	 .word -9574
 1588              	 .cfi_endproc
 1589              	.LFE20:
 1591              	 .section .rodata
 1592              	 .align 2
 1593              	.LC0:
 1594 0000 202B2000 	 .ascii " + \000"
 1595              	 .align 2
 1596              	.LC1:
 1597 0004 2C2000   	 .ascii ", \000"
 1598 0007 00       	 .align 2
 1599              	.LC2:
 1600 0008 25733D00 	 .ascii "%s=\000"
 1601              	 .align 2
 1602              	.LC3:
 1603 000c 3F3F3D00 	 .ascii "??=\000"
 1604              	 .align 2
 1605              	.LC4:
 1606 0010 257300   	 .ascii "%s\000"
 1607              	 .section .text.mbedtls_x509_dn_gets,"ax",%progbits
 1608              	 .align 2
 1609              	 .global mbedtls_x509_dn_gets
 1610              	 .thumb
 1611              	 .thumb_func
 1613              	mbedtls_x509_dn_gets:
 1614              	.LFB21:
 731:C:/Users/Yushev/git/wpcqi-optiga-trust-charge/optiga/externals/mbedtls/library\x509.c **** 
 732:C:/Users/Yushev/git/wpcqi-optiga-trust-charge/optiga/externals/mbedtls/library\x509.c **** /*
 733:C:/Users/Yushev/git/wpcqi-optiga-trust-charge/optiga/externals/mbedtls/library\x509.c ****  * Store the name in printable form into buf; no more
 734:C:/Users/Yushev/git/wpcqi-optiga-trust-charge/optiga/externals/mbedtls/library\x509.c ****  * than size characters will be written
 735:C:/Users/Yushev/git/wpcqi-optiga-trust-charge/optiga/externals/mbedtls/library\x509.c ****  */
 736:C:/Users/Yushev/git/wpcqi-optiga-trust-charge/optiga/externals/mbedtls/library\x509.c **** int mbedtls_x509_dn_gets( char *buf, size_t size, const mbedtls_x509_name *dn )
 737:C:/Users/Yushev/git/wpcqi-optiga-trust-charge/optiga/externals/mbedtls/library\x509.c **** {
 1615              	 .loc 1 737 0
 1616              	 .cfi_startproc
 1617              	 
 1618              	 
 1619 0000 80B5     	 push {r7,lr}
 1620              	.LCFI62:
 1621              	 .cfi_def_cfa_offset 8
 1622              	 .cfi_offset 7,-8
 1623              	 .cfi_offset 14,-4
 1624 0002 CCB0     	 sub sp,sp,#304
 1625              	.LCFI63:
 1626              	 .cfi_def_cfa_offset 312
 1627 0004 00AF     	 add r7,sp,#0
 1628              	.LCFI64:
 1629              	 .cfi_def_cfa_register 7
 1630 0006 07F10C03 	 add r3,r7,#12
 1631 000a 1860     	 str r0,[r3]
 1632 000c 07F10803 	 add r3,r7,#8
 1633 0010 1960     	 str r1,[r3]
 1634 0012 3B1D     	 adds r3,r7,#4
 1635 0014 1A60     	 str r2,[r3]
 738:C:/Users/Yushev/git/wpcqi-optiga-trust-charge/optiga/externals/mbedtls/library\x509.c ****     int ret;
 739:C:/Users/Yushev/git/wpcqi-optiga-trust-charge/optiga/externals/mbedtls/library\x509.c ****     size_t i, n;
 740:C:/Users/Yushev/git/wpcqi-optiga-trust-charge/optiga/externals/mbedtls/library\x509.c ****     unsigned char c, merge = 0;
 1636              	 .loc 1 740 0
 1637 0016 0023     	 movs r3,#0
 1638 0018 87F82331 	 strb r3,[r7,#291]
 741:C:/Users/Yushev/git/wpcqi-optiga-trust-charge/optiga/externals/mbedtls/library\x509.c ****     const mbedtls_x509_name *name;
 742:C:/Users/Yushev/git/wpcqi-optiga-trust-charge/optiga/externals/mbedtls/library\x509.c ****     const char *short_name = NULL;
 1639              	 .loc 1 742 0
 1640 001c 0023     	 movs r3,#0
 1641 001e C7F81031 	 str r3,[r7,#272]
 743:C:/Users/Yushev/git/wpcqi-optiga-trust-charge/optiga/externals/mbedtls/library\x509.c ****     char s[MBEDTLS_X509_MAX_DN_NAME_SIZE], *p;
 744:C:/Users/Yushev/git/wpcqi-optiga-trust-charge/optiga/externals/mbedtls/library\x509.c **** 
 745:C:/Users/Yushev/git/wpcqi-optiga-trust-charge/optiga/externals/mbedtls/library\x509.c ****     memset( s, 0, sizeof( s ) );
 1642              	 .loc 1 745 0
 1643 0022 07F11003 	 add r3,r7,#16
 1644 0026 1846     	 mov r0,r3
 1645 0028 0021     	 movs r1,#0
 1646 002a 4FF48072 	 mov r2,#256
 1647 002e FFF7FEFF 	 bl memset
 746:C:/Users/Yushev/git/wpcqi-optiga-trust-charge/optiga/externals/mbedtls/library\x509.c **** 
 747:C:/Users/Yushev/git/wpcqi-optiga-trust-charge/optiga/externals/mbedtls/library\x509.c ****     name = dn;
 1648              	 .loc 1 747 0
 1649 0032 3B1D     	 adds r3,r7,#4
 1650 0034 1B68     	 ldr r3,[r3]
 1651 0036 C7F81C31 	 str r3,[r7,#284]
 748:C:/Users/Yushev/git/wpcqi-optiga-trust-charge/optiga/externals/mbedtls/library\x509.c ****     p = buf;
 1652              	 .loc 1 748 0
 1653 003a 07F10C03 	 add r3,r7,#12
 1654 003e 1B68     	 ldr r3,[r3]
 1655 0040 C7F81831 	 str r3,[r7,#280]
 749:C:/Users/Yushev/git/wpcqi-optiga-trust-charge/optiga/externals/mbedtls/library\x509.c ****     n = size;
 1656              	 .loc 1 749 0
 1657 0044 07F10803 	 add r3,r7,#8
 1658 0048 1B68     	 ldr r3,[r3]
 1659 004a C7F82431 	 str r3,[r7,#292]
 750:C:/Users/Yushev/git/wpcqi-optiga-trust-charge/optiga/externals/mbedtls/library\x509.c **** 
 751:C:/Users/Yushev/git/wpcqi-optiga-trust-charge/optiga/externals/mbedtls/library\x509.c ****     while( name != NULL )
 1660              	 .loc 1 751 0
 1661 004e EBE0     	 b .L127
 1662              	.L148:
 752:C:/Users/Yushev/git/wpcqi-optiga-trust-charge/optiga/externals/mbedtls/library\x509.c ****     {
 753:C:/Users/Yushev/git/wpcqi-optiga-trust-charge/optiga/externals/mbedtls/library\x509.c ****         if( !name->oid.p )
 1663              	 .loc 1 753 0
 1664 0050 D7F81C31 	 ldr r3,[r7,#284]
 1665 0054 9B68     	 ldr r3,[r3,#8]
 1666 0056 002B     	 cmp r3,#0
 1667 0058 05D1     	 bne .L128
 754:C:/Users/Yushev/git/wpcqi-optiga-trust-charge/optiga/externals/mbedtls/library\x509.c ****         {
 755:C:/Users/Yushev/git/wpcqi-optiga-trust-charge/optiga/externals/mbedtls/library\x509.c ****             name = name->next;
 1668              	 .loc 1 755 0
 1669 005a D7F81C31 	 ldr r3,[r7,#284]
 1670 005e 9B69     	 ldr r3,[r3,#24]
 1671 0060 C7F81C31 	 str r3,[r7,#284]
 756:C:/Users/Yushev/git/wpcqi-optiga-trust-charge/optiga/externals/mbedtls/library\x509.c ****             continue;
 1672              	 .loc 1 756 0
 1673 0064 E0E0     	 b .L127
 1674              	.L128:
 757:C:/Users/Yushev/git/wpcqi-optiga-trust-charge/optiga/externals/mbedtls/library\x509.c ****         }
 758:C:/Users/Yushev/git/wpcqi-optiga-trust-charge/optiga/externals/mbedtls/library\x509.c **** 
 759:C:/Users/Yushev/git/wpcqi-optiga-trust-charge/optiga/externals/mbedtls/library\x509.c ****         if( name != dn )
 1675              	 .loc 1 759 0
 1676 0066 3B1D     	 adds r3,r7,#4
 1677 0068 D7F81C21 	 ldr r2,[r7,#284]
 1678 006c 1B68     	 ldr r3,[r3]
 1679 006e 9A42     	 cmp r2,r3
 1680 0070 29D0     	 beq .L129
 760:C:/Users/Yushev/git/wpcqi-optiga-trust-charge/optiga/externals/mbedtls/library\x509.c ****         {
 761:C:/Users/Yushev/git/wpcqi-optiga-trust-charge/optiga/externals/mbedtls/library\x509.c ****             ret = mbedtls_snprintf( p, n, merge ? " + " : ", " );
 1681              	 .loc 1 761 0
 1682 0072 97F82331 	 ldrb r3,[r7,#291]
 1683 0076 002B     	 cmp r3,#0
 1684 0078 01D0     	 beq .L130
 1685              	 .loc 1 761 0 is_stmt 0 discriminator 1
 1686 007a 734B     	 ldr r3,.L150
 1687 007c 00E0     	 b .L131
 1688              	.L130:
 1689              	 .loc 1 761 0 discriminator 2
 1690 007e 734B     	 ldr r3,.L150+4
 1691              	.L131:
 1692              	 .loc 1 761 0 discriminator 4
 1693 0080 D7F81801 	 ldr r0,[r7,#280]
 1694 0084 D7F82411 	 ldr r1,[r7,#292]
 1695 0088 1A46     	 mov r2,r3
 1696 008a FFF7FEFF 	 bl snprintf
 1697 008e C7F82C01 	 str r0,[r7,#300]
 762:C:/Users/Yushev/git/wpcqi-optiga-trust-charge/optiga/externals/mbedtls/library\x509.c ****             MBEDTLS_X509_SAFE_SNPRINTF;
 1698              	 .loc 1 762 0 is_stmt 1 discriminator 4
 1699 0092 D7F82C31 	 ldr r3,[r7,#300]
 1700 0096 002B     	 cmp r3,#0
 1701 0098 05DB     	 blt .L132
 1702              	 .loc 1 762 0 is_stmt 0 discriminator 2
 1703 009a D7F82C21 	 ldr r2,[r7,#300]
 1704 009e D7F82431 	 ldr r3,[r7,#292]
 1705 00a2 9A42     	 cmp r2,r3
 1706 00a4 01D3     	 bcc .L133
 1707              	.L132:
 1708              	 .loc 1 762 0 discriminator 3
 1709 00a6 6A4B     	 ldr r3,.L150+8
 1710 00a8 C9E0     	 b .L149
 1711              	.L133:
 1712              	 .loc 1 762 0 discriminator 4
 1713 00aa D7F82C31 	 ldr r3,[r7,#300]
 1714 00ae D7F82421 	 ldr r2,[r7,#292]
 1715 00b2 D31A     	 subs r3,r2,r3
 1716 00b4 C7F82431 	 str r3,[r7,#292]
 1717 00b8 D7F82C31 	 ldr r3,[r7,#300]
 1718 00bc D7F81821 	 ldr r2,[r7,#280]
 1719 00c0 1344     	 add r3,r3,r2
 1720 00c2 C7F81831 	 str r3,[r7,#280]
 1721              	.L129:
 763:C:/Users/Yushev/git/wpcqi-optiga-trust-charge/optiga/externals/mbedtls/library\x509.c ****         }
 764:C:/Users/Yushev/git/wpcqi-optiga-trust-charge/optiga/externals/mbedtls/library\x509.c **** 
 765:C:/Users/Yushev/git/wpcqi-optiga-trust-charge/optiga/externals/mbedtls/library\x509.c ****         ret = mbedtls_oid_get_attr_short_name( &name->oid, &short_name );
 1722              	 .loc 1 765 0 is_stmt 1
 1723 00c6 D7F81C21 	 ldr r2,[r7,#284]
 1724 00ca 07F58873 	 add r3,r7,#272
 1725 00ce 1046     	 mov r0,r2
 1726 00d0 1946     	 mov r1,r3
 1727 00d2 FFF7FEFF 	 bl mbedtls_oid_get_attr_short_name
 1728 00d6 C7F82C01 	 str r0,[r7,#300]
 766:C:/Users/Yushev/git/wpcqi-optiga-trust-charge/optiga/externals/mbedtls/library\x509.c **** 
 767:C:/Users/Yushev/git/wpcqi-optiga-trust-charge/optiga/externals/mbedtls/library\x509.c ****         if( ret == 0 )
 1729              	 .loc 1 767 0
 1730 00da D7F82C31 	 ldr r3,[r7,#300]
 1731 00de 002B     	 cmp r3,#0
 1732 00e0 0BD1     	 bne .L135
 768:C:/Users/Yushev/git/wpcqi-optiga-trust-charge/optiga/externals/mbedtls/library\x509.c ****             ret = mbedtls_snprintf( p, n, "%s=", short_name );
 1733              	 .loc 1 768 0
 1734 00e2 D7F81031 	 ldr r3,[r7,#272]
 1735 00e6 D7F81801 	 ldr r0,[r7,#280]
 1736 00ea D7F82411 	 ldr r1,[r7,#292]
 1737 00ee 594A     	 ldr r2,.L150+12
 1738 00f0 FFF7FEFF 	 bl snprintf
 1739 00f4 C7F82C01 	 str r0,[r7,#300]
 1740 00f8 08E0     	 b .L136
 1741              	.L135:
 769:C:/Users/Yushev/git/wpcqi-optiga-trust-charge/optiga/externals/mbedtls/library\x509.c ****         else
 770:C:/Users/Yushev/git/wpcqi-optiga-trust-charge/optiga/externals/mbedtls/library\x509.c ****             ret = mbedtls_snprintf( p, n, "\?\?=" );
 1742              	 .loc 1 770 0
 1743 00fa D7F81801 	 ldr r0,[r7,#280]
 1744 00fe D7F82411 	 ldr r1,[r7,#292]
 1745 0102 554A     	 ldr r2,.L150+16
 1746 0104 FFF7FEFF 	 bl snprintf
 1747 0108 C7F82C01 	 str r0,[r7,#300]
 1748              	.L136:
 771:C:/Users/Yushev/git/wpcqi-optiga-trust-charge/optiga/externals/mbedtls/library\x509.c ****         MBEDTLS_X509_SAFE_SNPRINTF;
 1749              	 .loc 1 771 0
 1750 010c D7F82C31 	 ldr r3,[r7,#300]
 1751 0110 002B     	 cmp r3,#0
 1752 0112 05DB     	 blt .L137
 1753              	 .loc 1 771 0 is_stmt 0 discriminator 2
 1754 0114 D7F82C21 	 ldr r2,[r7,#300]
 1755 0118 D7F82431 	 ldr r3,[r7,#292]
 1756 011c 9A42     	 cmp r2,r3
 1757 011e 01D3     	 bcc .L138
 1758              	.L137:
 1759              	 .loc 1 771 0 discriminator 3
 1760 0120 4B4B     	 ldr r3,.L150+8
 1761 0122 8CE0     	 b .L149
 1762              	.L138:
 1763              	 .loc 1 771 0 discriminator 4
 1764 0124 D7F82C31 	 ldr r3,[r7,#300]
 1765 0128 D7F82421 	 ldr r2,[r7,#292]
 1766 012c D31A     	 subs r3,r2,r3
 1767 012e C7F82431 	 str r3,[r7,#292]
 1768 0132 D7F82C31 	 ldr r3,[r7,#300]
 1769 0136 D7F81821 	 ldr r2,[r7,#280]
 1770 013a 1344     	 add r3,r3,r2
 1771 013c C7F81831 	 str r3,[r7,#280]
 772:C:/Users/Yushev/git/wpcqi-optiga-trust-charge/optiga/externals/mbedtls/library\x509.c **** 
 773:C:/Users/Yushev/git/wpcqi-optiga-trust-charge/optiga/externals/mbedtls/library\x509.c ****         for( i = 0; i < name->val.len; i++ )
 1772              	 .loc 1 773 0 is_stmt 1 discriminator 4
 1773 0140 0023     	 movs r3,#0
 1774 0142 C7F82831 	 str r3,[r7,#296]
 1775 0146 32E0     	 b .L139
 1776              	.L145:
 774:C:/Users/Yushev/git/wpcqi-optiga-trust-charge/optiga/externals/mbedtls/library\x509.c ****         {
 775:C:/Users/Yushev/git/wpcqi-optiga-trust-charge/optiga/externals/mbedtls/library\x509.c ****             if( i >= sizeof( s ) - 1 )
 1777              	 .loc 1 775 0
 1778 0148 D7F82831 	 ldr r3,[r7,#296]
 1779 014c FE2B     	 cmp r3,#254
 1780 014e 00D9     	 bls .L140
 776:C:/Users/Yushev/git/wpcqi-optiga-trust-charge/optiga/externals/mbedtls/library\x509.c ****                 break;
 1781              	 .loc 1 776 0
 1782 0150 34E0     	 b .L141
 1783              	.L140:
 777:C:/Users/Yushev/git/wpcqi-optiga-trust-charge/optiga/externals/mbedtls/library\x509.c **** 
 778:C:/Users/Yushev/git/wpcqi-optiga-trust-charge/optiga/externals/mbedtls/library\x509.c ****             c = name->val.p[i];
 1784              	 .loc 1 778 0
 1785 0152 D7F81C31 	 ldr r3,[r7,#284]
 1786 0156 5A69     	 ldr r2,[r3,#20]
 1787 0158 D7F82831 	 ldr r3,[r7,#296]
 1788 015c 1344     	 add r3,r3,r2
 1789 015e 1B78     	 ldrb r3,[r3]
 1790 0160 87F81731 	 strb r3,[r7,#279]
 779:C:/Users/Yushev/git/wpcqi-optiga-trust-charge/optiga/externals/mbedtls/library\x509.c ****             if( c < 32 || c == 127 || ( c > 128 && c < 160 ) )
 1791              	 .loc 1 779 0
 1792 0164 97F81731 	 ldrb r3,[r7,#279]
 1793 0168 1F2B     	 cmp r3,#31
 1794 016a 0BD9     	 bls .L142
 1795              	 .loc 1 779 0 is_stmt 0 discriminator 1
 1796 016c 97F81731 	 ldrb r3,[r7,#279]
 1797 0170 7F2B     	 cmp r3,#127
 1798 0172 07D0     	 beq .L142
 1799              	 .loc 1 779 0 discriminator 2
 1800 0174 97F81731 	 ldrb r3,[r7,#279]
 1801 0178 802B     	 cmp r3,#128
 1802 017a 0BD9     	 bls .L143
 1803              	 .loc 1 779 0 discriminator 3
 1804 017c 97F81731 	 ldrb r3,[r7,#279]
 1805 0180 9F2B     	 cmp r3,#159
 1806 0182 07D8     	 bhi .L143
 1807              	.L142:
 780:C:/Users/Yushev/git/wpcqi-optiga-trust-charge/optiga/externals/mbedtls/library\x509.c ****                  s[i] = '?';
 1808              	 .loc 1 780 0 is_stmt 1
 1809 0184 07F11002 	 add r2,r7,#16
 1810 0188 D7F82831 	 ldr r3,[r7,#296]
 1811 018c 1344     	 add r3,r3,r2
 1812 018e 3F22     	 movs r2,#63
 1813 0190 1A70     	 strb r2,[r3]
 1814 0192 07E0     	 b .L144
 1815              	.L143:
 781:C:/Users/Yushev/git/wpcqi-optiga-trust-charge/optiga/externals/mbedtls/library\x509.c ****             else s[i] = c;
 1816              	 .loc 1 781 0
 1817 0194 07F11002 	 add r2,r7,#16
 1818 0198 D7F82831 	 ldr r3,[r7,#296]
 1819 019c 1344     	 add r3,r3,r2
 1820 019e 97F81721 	 ldrb r2,[r7,#279]
 1821 01a2 1A70     	 strb r2,[r3]
 1822              	.L144:
 773:C:/Users/Yushev/git/wpcqi-optiga-trust-charge/optiga/externals/mbedtls/library\x509.c ****         {
 1823              	 .loc 1 773 0 discriminator 2
 1824 01a4 D7F82831 	 ldr r3,[r7,#296]
 1825 01a8 0133     	 adds r3,r3,#1
 1826 01aa C7F82831 	 str r3,[r7,#296]
 1827              	.L139:
 773:C:/Users/Yushev/git/wpcqi-optiga-trust-charge/optiga/externals/mbedtls/library\x509.c ****         {
 1828              	 .loc 1 773 0 is_stmt 0 discriminator 1
 1829 01ae D7F81C31 	 ldr r3,[r7,#284]
 1830 01b2 1A69     	 ldr r2,[r3,#16]
 1831 01b4 D7F82831 	 ldr r3,[r7,#296]
 1832 01b8 9A42     	 cmp r2,r3
 1833 01ba C5D8     	 bhi .L145
 1834              	.L141:
 782:C:/Users/Yushev/git/wpcqi-optiga-trust-charge/optiga/externals/mbedtls/library\x509.c ****         }
 783:C:/Users/Yushev/git/wpcqi-optiga-trust-charge/optiga/externals/mbedtls/library\x509.c ****         s[i] = '\0';
 1835              	 .loc 1 783 0 is_stmt 1
 1836 01bc 07F11002 	 add r2,r7,#16
 1837 01c0 D7F82831 	 ldr r3,[r7,#296]
 1838 01c4 1344     	 add r3,r3,r2
 1839 01c6 0022     	 movs r2,#0
 1840 01c8 1A70     	 strb r2,[r3]
 784:C:/Users/Yushev/git/wpcqi-optiga-trust-charge/optiga/externals/mbedtls/library\x509.c ****         ret = mbedtls_snprintf( p, n, "%s", s );
 1841              	 .loc 1 784 0
 1842 01ca 07F11003 	 add r3,r7,#16
 1843 01ce D7F81801 	 ldr r0,[r7,#280]
 1844 01d2 D7F82411 	 ldr r1,[r7,#292]
 1845 01d6 214A     	 ldr r2,.L150+20
 1846 01d8 FFF7FEFF 	 bl snprintf
 1847 01dc C7F82C01 	 str r0,[r7,#300]
 785:C:/Users/Yushev/git/wpcqi-optiga-trust-charge/optiga/externals/mbedtls/library\x509.c ****         MBEDTLS_X509_SAFE_SNPRINTF;
 1848              	 .loc 1 785 0
 1849 01e0 D7F82C31 	 ldr r3,[r7,#300]
 1850 01e4 002B     	 cmp r3,#0
 1851 01e6 05DB     	 blt .L146
 1852              	 .loc 1 785 0 is_stmt 0 discriminator 2
 1853 01e8 D7F82C21 	 ldr r2,[r7,#300]
 1854 01ec D7F82431 	 ldr r3,[r7,#292]
 1855 01f0 9A42     	 cmp r2,r3
 1856 01f2 01D3     	 bcc .L147
 1857              	.L146:
 1858              	 .loc 1 785 0 discriminator 3
 1859 01f4 164B     	 ldr r3,.L150+8
 1860 01f6 22E0     	 b .L149
 1861              	.L147:
 1862              	 .loc 1 785 0 discriminator 4
 1863 01f8 D7F82C31 	 ldr r3,[r7,#300]
 1864 01fc D7F82421 	 ldr r2,[r7,#292]
 1865 0200 D31A     	 subs r3,r2,r3
 1866 0202 C7F82431 	 str r3,[r7,#292]
 1867 0206 D7F82C31 	 ldr r3,[r7,#300]
 1868 020a D7F81821 	 ldr r2,[r7,#280]
 1869 020e 1344     	 add r3,r3,r2
 1870 0210 C7F81831 	 str r3,[r7,#280]
 786:C:/Users/Yushev/git/wpcqi-optiga-trust-charge/optiga/externals/mbedtls/library\x509.c **** 
 787:C:/Users/Yushev/git/wpcqi-optiga-trust-charge/optiga/externals/mbedtls/library\x509.c ****         merge = name->next_merged;
 1871              	 .loc 1 787 0 is_stmt 1 discriminator 4
 1872 0214 D7F81C31 	 ldr r3,[r7,#284]
 1873 0218 1B7F     	 ldrb r3,[r3,#28]
 1874 021a 87F82331 	 strb r3,[r7,#291]
 788:C:/Users/Yushev/git/wpcqi-optiga-trust-charge/optiga/externals/mbedtls/library\x509.c ****         name = name->next;
 1875              	 .loc 1 788 0 discriminator 4
 1876 021e D7F81C31 	 ldr r3,[r7,#284]
 1877 0222 9B69     	 ldr r3,[r3,#24]
 1878 0224 C7F81C31 	 str r3,[r7,#284]
 1879              	.L127:
 751:C:/Users/Yushev/git/wpcqi-optiga-trust-charge/optiga/externals/mbedtls/library\x509.c ****     {
 1880              	 .loc 1 751 0
 1881 0228 D7F81C31 	 ldr r3,[r7,#284]
 1882 022c 002B     	 cmp r3,#0
 1883 022e 7FF40FAF 	 bne .L148
 789:C:/Users/Yushev/git/wpcqi-optiga-trust-charge/optiga/externals/mbedtls/library\x509.c ****     }
 790:C:/Users/Yushev/git/wpcqi-optiga-trust-charge/optiga/externals/mbedtls/library\x509.c **** 
 791:C:/Users/Yushev/git/wpcqi-optiga-trust-charge/optiga/externals/mbedtls/library\x509.c ****     return( (int) ( size - n ) );
 1884              	 .loc 1 791 0
 1885 0232 07F10803 	 add r3,r7,#8
 1886 0236 1A68     	 ldr r2,[r3]
 1887 0238 D7F82431 	 ldr r3,[r7,#292]
 1888 023c D31A     	 subs r3,r2,r3
 1889              	.L149:
 792:C:/Users/Yushev/git/wpcqi-optiga-trust-charge/optiga/externals/mbedtls/library\x509.c **** }
 1890              	 .loc 1 792 0 discriminator 1
 1891 023e 1846     	 mov r0,r3
 1892 0240 07F59877 	 add r7,r7,#304
 1893              	.LCFI65:
 1894              	 .cfi_def_cfa_offset 8
 1895 0244 BD46     	 mov sp,r7
 1896              	.LCFI66:
 1897              	 .cfi_def_cfa_register 13
 1898              	 
 1899 0246 80BD     	 pop {r7,pc}
 1900              	.L151:
 1901              	 .align 2
 1902              	.L150:
 1903 0248 00000000 	 .word .LC0
 1904 024c 04000000 	 .word .LC1
 1905 0250 80D6FFFF 	 .word -10624
 1906 0254 08000000 	 .word .LC2
 1907 0258 0C000000 	 .word .LC3
 1908 025c 10000000 	 .word .LC4
 1909              	 .cfi_endproc
 1910              	.LFE21:
 1912              	 .section .rodata
 1913 0013 00       	 .align 2
 1914              	.LC5:
 1915 0014 3A00     	 .ascii ":\000"
 1916 0016 0000     	 .align 2
 1917              	.LC6:
 1918 0018 00       	 .ascii "\000"
 1919 0019 000000   	 .align 2
 1920              	.LC7:
 1921 001c 25303258 	 .ascii "%02X%s\000"
 1921      257300
 1922 0023 00       	 .align 2
 1923              	.LC8:
 1924 0024 2E2E2E2E 	 .ascii "....\000"
 1924      00
 1925              	 .section .text.mbedtls_x509_serial_gets,"ax",%progbits
 1926              	 .align 2
 1927              	 .global mbedtls_x509_serial_gets
 1928              	 .thumb
 1929              	 .thumb_func
 1931              	mbedtls_x509_serial_gets:
 1932              	.LFB22:
 793:C:/Users/Yushev/git/wpcqi-optiga-trust-charge/optiga/externals/mbedtls/library\x509.c **** 
 794:C:/Users/Yushev/git/wpcqi-optiga-trust-charge/optiga/externals/mbedtls/library\x509.c **** /*
 795:C:/Users/Yushev/git/wpcqi-optiga-trust-charge/optiga/externals/mbedtls/library\x509.c ****  * Store the serial in printable form into buf; no more
 796:C:/Users/Yushev/git/wpcqi-optiga-trust-charge/optiga/externals/mbedtls/library\x509.c ****  * than size characters will be written
 797:C:/Users/Yushev/git/wpcqi-optiga-trust-charge/optiga/externals/mbedtls/library\x509.c ****  */
 798:C:/Users/Yushev/git/wpcqi-optiga-trust-charge/optiga/externals/mbedtls/library\x509.c **** int mbedtls_x509_serial_gets( char *buf, size_t size, const mbedtls_x509_buf *serial )
 799:C:/Users/Yushev/git/wpcqi-optiga-trust-charge/optiga/externals/mbedtls/library\x509.c **** {
 1933              	 .loc 1 799 0
 1934              	 .cfi_startproc
 1935              	 
 1936              	 
 1937 0000 90B5     	 push {r4,r7,lr}
 1938              	.LCFI67:
 1939              	 .cfi_def_cfa_offset 12
 1940              	 .cfi_offset 4,-12
 1941              	 .cfi_offset 7,-8
 1942              	 .cfi_offset 14,-4
 1943 0002 8DB0     	 sub sp,sp,#52
 1944              	.LCFI68:
 1945              	 .cfi_def_cfa_offset 64
 1946 0004 02AF     	 add r7,sp,#8
 1947              	.LCFI69:
 1948              	 .cfi_def_cfa 7,56
 1949 0006 F860     	 str r0,[r7,#12]
 1950 0008 B960     	 str r1,[r7,#8]
 1951 000a 7A60     	 str r2,[r7,#4]
 800:C:/Users/Yushev/git/wpcqi-optiga-trust-charge/optiga/externals/mbedtls/library\x509.c ****     int ret;
 801:C:/Users/Yushev/git/wpcqi-optiga-trust-charge/optiga/externals/mbedtls/library\x509.c ****     size_t i, n, nr;
 802:C:/Users/Yushev/git/wpcqi-optiga-trust-charge/optiga/externals/mbedtls/library\x509.c ****     char *p;
 803:C:/Users/Yushev/git/wpcqi-optiga-trust-charge/optiga/externals/mbedtls/library\x509.c **** 
 804:C:/Users/Yushev/git/wpcqi-optiga-trust-charge/optiga/externals/mbedtls/library\x509.c ****     p = buf;
 1952              	 .loc 1 804 0
 1953 000c FB68     	 ldr r3,[r7,#12]
 1954 000e FB61     	 str r3,[r7,#28]
 805:C:/Users/Yushev/git/wpcqi-optiga-trust-charge/optiga/externals/mbedtls/library\x509.c ****     n = size;
 1955              	 .loc 1 805 0
 1956 0010 BB68     	 ldr r3,[r7,#8]
 1957 0012 3B62     	 str r3,[r7,#32]
 806:C:/Users/Yushev/git/wpcqi-optiga-trust-charge/optiga/externals/mbedtls/library\x509.c **** 
 807:C:/Users/Yushev/git/wpcqi-optiga-trust-charge/optiga/externals/mbedtls/library\x509.c ****     nr = ( serial->len <= 32 )
 1958              	 .loc 1 807 0
 1959 0014 7B68     	 ldr r3,[r7,#4]
 1960 0016 5B68     	 ldr r3,[r3,#4]
 808:C:/Users/Yushev/git/wpcqi-optiga-trust-charge/optiga/externals/mbedtls/library\x509.c ****         ? serial->len  : 28;
 1961              	 .loc 1 808 0
 1962 0018 202B     	 cmp r3,#32
 1963 001a 02D8     	 bhi .L153
 1964              	 .loc 1 808 0 is_stmt 0 discriminator 1
 1965 001c 7B68     	 ldr r3,[r7,#4]
 1966 001e 5B68     	 ldr r3,[r3,#4]
 1967 0020 00E0     	 b .L154
 1968              	.L153:
 1969              	 .loc 1 808 0 discriminator 2
 1970 0022 1C23     	 movs r3,#28
 1971              	.L154:
 807:C:/Users/Yushev/git/wpcqi-optiga-trust-charge/optiga/externals/mbedtls/library\x509.c ****         ? serial->len  : 28;
 1972              	 .loc 1 807 0 is_stmt 1
 1973 0024 BB61     	 str r3,[r7,#24]
 809:C:/Users/Yushev/git/wpcqi-optiga-trust-charge/optiga/externals/mbedtls/library\x509.c **** 
 810:C:/Users/Yushev/git/wpcqi-optiga-trust-charge/optiga/externals/mbedtls/library\x509.c ****     for( i = 0; i < nr; i++ )
 1974              	 .loc 1 810 0
 1975 0026 0023     	 movs r3,#0
 1976 0028 7B62     	 str r3,[r7,#36]
 1977 002a 37E0     	 b .L155
 1978              	.L163:
 811:C:/Users/Yushev/git/wpcqi-optiga-trust-charge/optiga/externals/mbedtls/library\x509.c ****     {
 812:C:/Users/Yushev/git/wpcqi-optiga-trust-charge/optiga/externals/mbedtls/library\x509.c ****         if( i == 0 && nr > 1 && serial->p[i] == 0x0 )
 1979              	 .loc 1 812 0
 1980 002c 7B6A     	 ldr r3,[r7,#36]
 1981 002e 002B     	 cmp r3,#0
 1982 0030 0AD1     	 bne .L156
 1983              	 .loc 1 812 0 is_stmt 0 discriminator 1
 1984 0032 BB69     	 ldr r3,[r7,#24]
 1985 0034 012B     	 cmp r3,#1
 1986 0036 07D9     	 bls .L156
 1987              	 .loc 1 812 0 discriminator 2
 1988 0038 7B68     	 ldr r3,[r7,#4]
 1989 003a 9A68     	 ldr r2,[r3,#8]
 1990 003c 7B6A     	 ldr r3,[r7,#36]
 1991 003e 1344     	 add r3,r3,r2
 1992 0040 1B78     	 ldrb r3,[r3]
 1993 0042 002B     	 cmp r3,#0
 1994 0044 00D1     	 bne .L156
 813:C:/Users/Yushev/git/wpcqi-optiga-trust-charge/optiga/externals/mbedtls/library\x509.c ****             continue;
 1995              	 .loc 1 813 0 is_stmt 1
 1996 0046 26E0     	 b .L157
 1997              	.L156:
 814:C:/Users/Yushev/git/wpcqi-optiga-trust-charge/optiga/externals/mbedtls/library\x509.c **** 
 815:C:/Users/Yushev/git/wpcqi-optiga-trust-charge/optiga/externals/mbedtls/library\x509.c ****         ret = mbedtls_snprintf( p, n, "%02X%s",
 816:C:/Users/Yushev/git/wpcqi-optiga-trust-charge/optiga/externals/mbedtls/library\x509.c ****                 serial->p[i], ( i < nr - 1 ) ? ":" : "" );
 1998              	 .loc 1 816 0
 1999 0048 7B68     	 ldr r3,[r7,#4]
 2000 004a 9A68     	 ldr r2,[r3,#8]
 2001 004c 7B6A     	 ldr r3,[r7,#36]
 2002 004e 1344     	 add r3,r3,r2
 2003 0050 1B78     	 ldrb r3,[r3]
 815:C:/Users/Yushev/git/wpcqi-optiga-trust-charge/optiga/externals/mbedtls/library\x509.c ****                 serial->p[i], ( i < nr - 1 ) ? ":" : "" );
 2004              	 .loc 1 815 0
 2005 0052 1C46     	 mov r4,r3
 2006              	 .loc 1 816 0
 2007 0054 BB69     	 ldr r3,[r7,#24]
 2008 0056 5A1E     	 subs r2,r3,#1
 815:C:/Users/Yushev/git/wpcqi-optiga-trust-charge/optiga/externals/mbedtls/library\x509.c ****                 serial->p[i], ( i < nr - 1 ) ? ":" : "" );
 2009              	 .loc 1 815 0
 2010 0058 7B6A     	 ldr r3,[r7,#36]
 2011 005a 9A42     	 cmp r2,r3
 2012 005c 01D9     	 bls .L158
 815:C:/Users/Yushev/git/wpcqi-optiga-trust-charge/optiga/externals/mbedtls/library\x509.c ****                 serial->p[i], ( i < nr - 1 ) ? ":" : "" );
 2013              	 .loc 1 815 0 is_stmt 0 discriminator 1
 2014 005e 234B     	 ldr r3,.L167
 2015 0060 00E0     	 b .L159
 2016              	.L158:
 815:C:/Users/Yushev/git/wpcqi-optiga-trust-charge/optiga/externals/mbedtls/library\x509.c ****                 serial->p[i], ( i < nr - 1 ) ? ":" : "" );
 2017              	 .loc 1 815 0 discriminator 2
 2018 0062 234B     	 ldr r3,.L167+4
 2019              	.L159:
 815:C:/Users/Yushev/git/wpcqi-optiga-trust-charge/optiga/externals/mbedtls/library\x509.c ****                 serial->p[i], ( i < nr - 1 ) ? ":" : "" );
 2020              	 .loc 1 815 0 discriminator 4
 2021 0064 0093     	 str r3,[sp]
 2022 0066 F869     	 ldr r0,[r7,#28]
 2023 0068 396A     	 ldr r1,[r7,#32]
 2024 006a 224A     	 ldr r2,.L167+8
 2025 006c 2346     	 mov r3,r4
 2026 006e FFF7FEFF 	 bl snprintf
 2027 0072 7861     	 str r0,[r7,#20]
 817:C:/Users/Yushev/git/wpcqi-optiga-trust-charge/optiga/externals/mbedtls/library\x509.c ****         MBEDTLS_X509_SAFE_SNPRINTF;
 2028              	 .loc 1 817 0 is_stmt 1 discriminator 4
 2029 0074 7B69     	 ldr r3,[r7,#20]
 2030 0076 002B     	 cmp r3,#0
 2031 0078 03DB     	 blt .L160
 2032              	 .loc 1 817 0 is_stmt 0 discriminator 2
 2033 007a 7A69     	 ldr r2,[r7,#20]
 2034 007c 3B6A     	 ldr r3,[r7,#32]
 2035 007e 9A42     	 cmp r2,r3
 2036 0080 01D3     	 bcc .L161
 2037              	.L160:
 2038              	 .loc 1 817 0 discriminator 3
 2039 0082 1D4B     	 ldr r3,.L167+12
 2040 0084 2DE0     	 b .L162
 2041              	.L161:
 2042              	 .loc 1 817 0 discriminator 4
 2043 0086 7B69     	 ldr r3,[r7,#20]
 2044 0088 3A6A     	 ldr r2,[r7,#32]
 2045 008a D31A     	 subs r3,r2,r3
 2046 008c 3B62     	 str r3,[r7,#32]
 2047 008e 7B69     	 ldr r3,[r7,#20]
 2048 0090 FA69     	 ldr r2,[r7,#28]
 2049 0092 1344     	 add r3,r3,r2
 2050 0094 FB61     	 str r3,[r7,#28]
 2051              	.L157:
 810:C:/Users/Yushev/git/wpcqi-optiga-trust-charge/optiga/externals/mbedtls/library\x509.c ****     {
 2052              	 .loc 1 810 0 is_stmt 1 discriminator 2
 2053 0096 7B6A     	 ldr r3,[r7,#36]
 2054 0098 0133     	 adds r3,r3,#1
 2055 009a 7B62     	 str r3,[r7,#36]
 2056              	.L155:
 810:C:/Users/Yushev/git/wpcqi-optiga-trust-charge/optiga/externals/mbedtls/library\x509.c ****     {
 2057              	 .loc 1 810 0 is_stmt 0 discriminator 1
 2058 009c 7A6A     	 ldr r2,[r7,#36]
 2059 009e BB69     	 ldr r3,[r7,#24]
 2060 00a0 9A42     	 cmp r2,r3
 2061 00a2 C3D3     	 bcc .L163
 818:C:/Users/Yushev/git/wpcqi-optiga-trust-charge/optiga/externals/mbedtls/library\x509.c ****     }
 819:C:/Users/Yushev/git/wpcqi-optiga-trust-charge/optiga/externals/mbedtls/library\x509.c **** 
 820:C:/Users/Yushev/git/wpcqi-optiga-trust-charge/optiga/externals/mbedtls/library\x509.c ****     if( nr != serial->len )
 2062              	 .loc 1 820 0 is_stmt 1
 2063 00a4 7B68     	 ldr r3,[r7,#4]
 2064 00a6 5A68     	 ldr r2,[r3,#4]
 2065 00a8 BB69     	 ldr r3,[r7,#24]
 2066 00aa 9A42     	 cmp r2,r3
 2067 00ac 16D0     	 beq .L164
 821:C:/Users/Yushev/git/wpcqi-optiga-trust-charge/optiga/externals/mbedtls/library\x509.c ****     {
 822:C:/Users/Yushev/git/wpcqi-optiga-trust-charge/optiga/externals/mbedtls/library\x509.c ****         ret = mbedtls_snprintf( p, n, "...." );
 2068              	 .loc 1 822 0
 2069 00ae F869     	 ldr r0,[r7,#28]
 2070 00b0 396A     	 ldr r1,[r7,#32]
 2071 00b2 124A     	 ldr r2,.L167+16
 2072 00b4 FFF7FEFF 	 bl snprintf
 2073 00b8 7861     	 str r0,[r7,#20]
 823:C:/Users/Yushev/git/wpcqi-optiga-trust-charge/optiga/externals/mbedtls/library\x509.c ****         MBEDTLS_X509_SAFE_SNPRINTF;
 2074              	 .loc 1 823 0
 2075 00ba 7B69     	 ldr r3,[r7,#20]
 2076 00bc 002B     	 cmp r3,#0
 2077 00be 03DB     	 blt .L165
 2078              	 .loc 1 823 0 is_stmt 0 discriminator 2
 2079 00c0 7A69     	 ldr r2,[r7,#20]
 2080 00c2 3B6A     	 ldr r3,[r7,#32]
 2081 00c4 9A42     	 cmp r2,r3
 2082 00c6 01D3     	 bcc .L166
 2083              	.L165:
 2084              	 .loc 1 823 0 discriminator 3
 2085 00c8 0B4B     	 ldr r3,.L167+12
 2086 00ca 0AE0     	 b .L162
 2087              	.L166:
 2088              	 .loc 1 823 0 discriminator 4
 2089 00cc 7B69     	 ldr r3,[r7,#20]
 2090 00ce 3A6A     	 ldr r2,[r7,#32]
 2091 00d0 D31A     	 subs r3,r2,r3
 2092 00d2 3B62     	 str r3,[r7,#32]
 2093 00d4 7B69     	 ldr r3,[r7,#20]
 2094 00d6 FA69     	 ldr r2,[r7,#28]
 2095 00d8 1344     	 add r3,r3,r2
 2096 00da FB61     	 str r3,[r7,#28]
 2097              	.L164:
 824:C:/Users/Yushev/git/wpcqi-optiga-trust-charge/optiga/externals/mbedtls/library\x509.c ****     }
 825:C:/Users/Yushev/git/wpcqi-optiga-trust-charge/optiga/externals/mbedtls/library\x509.c **** 
 826:C:/Users/Yushev/git/wpcqi-optiga-trust-charge/optiga/externals/mbedtls/library\x509.c ****     return( (int) ( size - n ) );
 2098              	 .loc 1 826 0 is_stmt 1
 2099 00dc BA68     	 ldr r2,[r7,#8]
 2100 00de 3B6A     	 ldr r3,[r7,#32]
 2101 00e0 D31A     	 subs r3,r2,r3
 2102              	.L162:
 827:C:/Users/Yushev/git/wpcqi-optiga-trust-charge/optiga/externals/mbedtls/library\x509.c **** }
 2103              	 .loc 1 827 0
 2104 00e2 1846     	 mov r0,r3
 2105 00e4 2C37     	 adds r7,r7,#44
 2106              	.LCFI70:
 2107              	 .cfi_def_cfa_offset 12
 2108 00e6 BD46     	 mov sp,r7
 2109              	.LCFI71:
 2110              	 .cfi_def_cfa_register 13
 2111              	 
 2112 00e8 90BD     	 pop {r4,r7,pc}
 2113              	.L168:
 2114 00ea 00BF     	 .align 2
 2115              	.L167:
 2116 00ec 14000000 	 .word .LC5
 2117 00f0 18000000 	 .word .LC6
 2118 00f4 1C000000 	 .word .LC7
 2119 00f8 80D6FFFF 	 .word -10624
 2120 00fc 24000000 	 .word .LC8
 2121              	 .cfi_endproc
 2122              	.LFE22:
 2124              	 .section .rodata
 2125 0029 000000   	 .align 2
 2126              	.LC9:
 2127 002c 3F3F3F00 	 .ascii "???\000"
 2128              	 .section .text.mbedtls_x509_sig_alg_gets,"ax",%progbits
 2129              	 .align 2
 2130              	 .global mbedtls_x509_sig_alg_gets
 2131              	 .thumb
 2132              	 .thumb_func
 2134              	mbedtls_x509_sig_alg_gets:
 2135              	.LFB23:
 828:C:/Users/Yushev/git/wpcqi-optiga-trust-charge/optiga/externals/mbedtls/library\x509.c **** 
 829:C:/Users/Yushev/git/wpcqi-optiga-trust-charge/optiga/externals/mbedtls/library\x509.c **** /*
 830:C:/Users/Yushev/git/wpcqi-optiga-trust-charge/optiga/externals/mbedtls/library\x509.c ****  * Helper for writing signature algorithms
 831:C:/Users/Yushev/git/wpcqi-optiga-trust-charge/optiga/externals/mbedtls/library\x509.c ****  */
 832:C:/Users/Yushev/git/wpcqi-optiga-trust-charge/optiga/externals/mbedtls/library\x509.c **** int mbedtls_x509_sig_alg_gets( char *buf, size_t size, const mbedtls_x509_buf *sig_oid,
 833:C:/Users/Yushev/git/wpcqi-optiga-trust-charge/optiga/externals/mbedtls/library\x509.c ****                        mbedtls_pk_type_t pk_alg, mbedtls_md_type_t md_alg,
 834:C:/Users/Yushev/git/wpcqi-optiga-trust-charge/optiga/externals/mbedtls/library\x509.c ****                        const void *sig_opts )
 835:C:/Users/Yushev/git/wpcqi-optiga-trust-charge/optiga/externals/mbedtls/library\x509.c **** {
 2136              	 .loc 1 835 0
 2137              	 .cfi_startproc
 2138              	 
 2139              	 
 2140 0000 80B5     	 push {r7,lr}
 2141              	.LCFI72:
 2142              	 .cfi_def_cfa_offset 8
 2143              	 .cfi_offset 7,-8
 2144              	 .cfi_offset 14,-4
 2145 0002 88B0     	 sub sp,sp,#32
 2146              	.LCFI73:
 2147              	 .cfi_def_cfa_offset 40
 2148 0004 00AF     	 add r7,sp,#0
 2149              	.LCFI74:
 2150              	 .cfi_def_cfa_register 7
 2151 0006 F860     	 str r0,[r7,#12]
 2152 0008 B960     	 str r1,[r7,#8]
 2153 000a 7A60     	 str r2,[r7,#4]
 2154 000c FB70     	 strb r3,[r7,#3]
 836:C:/Users/Yushev/git/wpcqi-optiga-trust-charge/optiga/externals/mbedtls/library\x509.c ****     int ret;
 837:C:/Users/Yushev/git/wpcqi-optiga-trust-charge/optiga/externals/mbedtls/library\x509.c ****     char *p = buf;
 2155              	 .loc 1 837 0
 2156 000e FB68     	 ldr r3,[r7,#12]
 2157 0010 BB61     	 str r3,[r7,#24]
 838:C:/Users/Yushev/git/wpcqi-optiga-trust-charge/optiga/externals/mbedtls/library\x509.c ****     size_t n = size;
 2158              	 .loc 1 838 0
 2159 0012 BB68     	 ldr r3,[r7,#8]
 2160 0014 7B61     	 str r3,[r7,#20]
 839:C:/Users/Yushev/git/wpcqi-optiga-trust-charge/optiga/externals/mbedtls/library\x509.c ****     const char *desc = NULL;
 2161              	 .loc 1 839 0
 2162 0016 0023     	 movs r3,#0
 2163 0018 3B61     	 str r3,[r7,#16]
 840:C:/Users/Yushev/git/wpcqi-optiga-trust-charge/optiga/externals/mbedtls/library\x509.c **** 
 841:C:/Users/Yushev/git/wpcqi-optiga-trust-charge/optiga/externals/mbedtls/library\x509.c ****     ret = mbedtls_oid_get_sig_alg_desc( sig_oid, &desc );
 2164              	 .loc 1 841 0
 2165 001a 07F11003 	 add r3,r7,#16
 2166 001e 7868     	 ldr r0,[r7,#4]
 2167 0020 1946     	 mov r1,r3
 2168 0022 FFF7FEFF 	 bl mbedtls_oid_get_sig_alg_desc
 2169 0026 F861     	 str r0,[r7,#28]
 842:C:/Users/Yushev/git/wpcqi-optiga-trust-charge/optiga/externals/mbedtls/library\x509.c ****     if( ret != 0 )
 2170              	 .loc 1 842 0
 2171 0028 FB69     	 ldr r3,[r7,#28]
 2172 002a 002B     	 cmp r3,#0
 2173 002c 06D0     	 beq .L170
 843:C:/Users/Yushev/git/wpcqi-optiga-trust-charge/optiga/externals/mbedtls/library\x509.c ****         ret = mbedtls_snprintf( p, n, "???"  );
 2174              	 .loc 1 843 0
 2175 002e B869     	 ldr r0,[r7,#24]
 2176 0030 7969     	 ldr r1,[r7,#20]
 2177 0032 124A     	 ldr r2,.L176
 2178 0034 FFF7FEFF 	 bl snprintf
 2179 0038 F861     	 str r0,[r7,#28]
 2180 003a 06E0     	 b .L171
 2181              	.L170:
 844:C:/Users/Yushev/git/wpcqi-optiga-trust-charge/optiga/externals/mbedtls/library\x509.c ****     else
 845:C:/Users/Yushev/git/wpcqi-optiga-trust-charge/optiga/externals/mbedtls/library\x509.c ****         ret = mbedtls_snprintf( p, n, "%s", desc );
 2182              	 .loc 1 845 0
 2183 003c 3B69     	 ldr r3,[r7,#16]
 2184 003e B869     	 ldr r0,[r7,#24]
 2185 0040 7969     	 ldr r1,[r7,#20]
 2186 0042 0F4A     	 ldr r2,.L176+4
 2187 0044 FFF7FEFF 	 bl snprintf
 2188 0048 F861     	 str r0,[r7,#28]
 2189              	.L171:
 846:C:/Users/Yushev/git/wpcqi-optiga-trust-charge/optiga/externals/mbedtls/library\x509.c ****     MBEDTLS_X509_SAFE_SNPRINTF;
 2190              	 .loc 1 846 0
 2191 004a FB69     	 ldr r3,[r7,#28]
 2192 004c 002B     	 cmp r3,#0
 2193 004e 03DB     	 blt .L172
 2194              	 .loc 1 846 0 is_stmt 0 discriminator 2
 2195 0050 FA69     	 ldr r2,[r7,#28]
 2196 0052 7B69     	 ldr r3,[r7,#20]
 2197 0054 9A42     	 cmp r2,r3
 2198 0056 01D3     	 bcc .L173
 2199              	.L172:
 2200              	 .loc 1 846 0 discriminator 3
 2201 0058 0A4B     	 ldr r3,.L176+8
 2202 005a 0AE0     	 b .L175
 2203              	.L173:
 2204              	 .loc 1 846 0 discriminator 4
 2205 005c FB69     	 ldr r3,[r7,#28]
 2206 005e 7A69     	 ldr r2,[r7,#20]
 2207 0060 D31A     	 subs r3,r2,r3
 2208 0062 7B61     	 str r3,[r7,#20]
 2209 0064 FB69     	 ldr r3,[r7,#28]
 2210 0066 BA69     	 ldr r2,[r7,#24]
 2211 0068 1344     	 add r3,r3,r2
 2212 006a BB61     	 str r3,[r7,#24]
 847:C:/Users/Yushev/git/wpcqi-optiga-trust-charge/optiga/externals/mbedtls/library\x509.c **** 
 848:C:/Users/Yushev/git/wpcqi-optiga-trust-charge/optiga/externals/mbedtls/library\x509.c **** #if defined(MBEDTLS_X509_RSASSA_PSS_SUPPORT)
 849:C:/Users/Yushev/git/wpcqi-optiga-trust-charge/optiga/externals/mbedtls/library\x509.c ****     if( pk_alg == MBEDTLS_PK_RSASSA_PSS )
 850:C:/Users/Yushev/git/wpcqi-optiga-trust-charge/optiga/externals/mbedtls/library\x509.c ****     {
 851:C:/Users/Yushev/git/wpcqi-optiga-trust-charge/optiga/externals/mbedtls/library\x509.c ****         const mbedtls_pk_rsassa_pss_options *pss_opts;
 852:C:/Users/Yushev/git/wpcqi-optiga-trust-charge/optiga/externals/mbedtls/library\x509.c ****         const mbedtls_md_info_t *md_info, *mgf_md_info;
 853:C:/Users/Yushev/git/wpcqi-optiga-trust-charge/optiga/externals/mbedtls/library\x509.c **** 
 854:C:/Users/Yushev/git/wpcqi-optiga-trust-charge/optiga/externals/mbedtls/library\x509.c ****         pss_opts = (const mbedtls_pk_rsassa_pss_options *) sig_opts;
 855:C:/Users/Yushev/git/wpcqi-optiga-trust-charge/optiga/externals/mbedtls/library\x509.c **** 
 856:C:/Users/Yushev/git/wpcqi-optiga-trust-charge/optiga/externals/mbedtls/library\x509.c ****         md_info = mbedtls_md_info_from_type( md_alg );
 857:C:/Users/Yushev/git/wpcqi-optiga-trust-charge/optiga/externals/mbedtls/library\x509.c ****         mgf_md_info = mbedtls_md_info_from_type( pss_opts->mgf1_hash_id );
 858:C:/Users/Yushev/git/wpcqi-optiga-trust-charge/optiga/externals/mbedtls/library\x509.c **** 
 859:C:/Users/Yushev/git/wpcqi-optiga-trust-charge/optiga/externals/mbedtls/library\x509.c ****         ret = mbedtls_snprintf( p, n, " (%s, MGF1-%s, 0x%02X)",
 860:C:/Users/Yushev/git/wpcqi-optiga-trust-charge/optiga/externals/mbedtls/library\x509.c ****                               md_info ? mbedtls_md_get_name( md_info ) : "???",
 861:C:/Users/Yushev/git/wpcqi-optiga-trust-charge/optiga/externals/mbedtls/library\x509.c ****                               mgf_md_info ? mbedtls_md_get_name( mgf_md_info ) : "???",
 862:C:/Users/Yushev/git/wpcqi-optiga-trust-charge/optiga/externals/mbedtls/library\x509.c ****                               pss_opts->expected_salt_len );
 863:C:/Users/Yushev/git/wpcqi-optiga-trust-charge/optiga/externals/mbedtls/library\x509.c ****         MBEDTLS_X509_SAFE_SNPRINTF;
 864:C:/Users/Yushev/git/wpcqi-optiga-trust-charge/optiga/externals/mbedtls/library\x509.c ****     }
 865:C:/Users/Yushev/git/wpcqi-optiga-trust-charge/optiga/externals/mbedtls/library\x509.c **** #else
 866:C:/Users/Yushev/git/wpcqi-optiga-trust-charge/optiga/externals/mbedtls/library\x509.c ****     ((void) pk_alg);
 867:C:/Users/Yushev/git/wpcqi-optiga-trust-charge/optiga/externals/mbedtls/library\x509.c ****     ((void) md_alg);
 868:C:/Users/Yushev/git/wpcqi-optiga-trust-charge/optiga/externals/mbedtls/library\x509.c ****     ((void) sig_opts);
 869:C:/Users/Yushev/git/wpcqi-optiga-trust-charge/optiga/externals/mbedtls/library\x509.c **** #endif /* MBEDTLS_X509_RSASSA_PSS_SUPPORT */
 870:C:/Users/Yushev/git/wpcqi-optiga-trust-charge/optiga/externals/mbedtls/library\x509.c **** 
 871:C:/Users/Yushev/git/wpcqi-optiga-trust-charge/optiga/externals/mbedtls/library\x509.c ****     return( (int)( size - n ) );
 2213              	 .loc 1 871 0 is_stmt 1 discriminator 4
 2214 006c BA68     	 ldr r2,[r7,#8]
 2215 006e 7B69     	 ldr r3,[r7,#20]
 2216 0070 D31A     	 subs r3,r2,r3
 2217              	.L175:
 872:C:/Users/Yushev/git/wpcqi-optiga-trust-charge/optiga/externals/mbedtls/library\x509.c **** }
 2218              	 .loc 1 872 0 discriminator 1
 2219 0072 1846     	 mov r0,r3
 2220 0074 2037     	 adds r7,r7,#32
 2221              	.LCFI75:
 2222              	 .cfi_def_cfa_offset 8
 2223 0076 BD46     	 mov sp,r7
 2224              	.LCFI76:
 2225              	 .cfi_def_cfa_register 13
 2226              	 
 2227 0078 80BD     	 pop {r7,pc}
 2228              	.L177:
 2229 007a 00BF     	 .align 2
 2230              	.L176:
 2231 007c 2C000000 	 .word .LC9
 2232 0080 10000000 	 .word .LC4
 2233 0084 80D6FFFF 	 .word -10624
 2234              	 .cfi_endproc
 2235              	.LFE23:
 2237              	 .section .rodata
 2238              	 .align 2
 2239              	.LC10:
 2240 0030 2573206B 	 .ascii "%s key size\000"
 2240      65792073 
 2240      697A6500 
 2241              	 .section .text.mbedtls_x509_key_size_helper,"ax",%progbits
 2242              	 .align 2
 2243              	 .global mbedtls_x509_key_size_helper
 2244              	 .thumb
 2245              	 .thumb_func
 2247              	mbedtls_x509_key_size_helper:
 2248              	.LFB24:
 873:C:/Users/Yushev/git/wpcqi-optiga-trust-charge/optiga/externals/mbedtls/library\x509.c **** 
 874:C:/Users/Yushev/git/wpcqi-optiga-trust-charge/optiga/externals/mbedtls/library\x509.c **** /*
 875:C:/Users/Yushev/git/wpcqi-optiga-trust-charge/optiga/externals/mbedtls/library\x509.c ****  * Helper for writing "RSA key size", "EC key size", etc
 876:C:/Users/Yushev/git/wpcqi-optiga-trust-charge/optiga/externals/mbedtls/library\x509.c ****  */
 877:C:/Users/Yushev/git/wpcqi-optiga-trust-charge/optiga/externals/mbedtls/library\x509.c **** int mbedtls_x509_key_size_helper( char *buf, size_t buf_size, const char *name )
 878:C:/Users/Yushev/git/wpcqi-optiga-trust-charge/optiga/externals/mbedtls/library\x509.c **** {
 2249              	 .loc 1 878 0
 2250              	 .cfi_startproc
 2251              	 
 2252              	 
 2253 0000 80B5     	 push {r7,lr}
 2254              	.LCFI77:
 2255              	 .cfi_def_cfa_offset 8
 2256              	 .cfi_offset 7,-8
 2257              	 .cfi_offset 14,-4
 2258 0002 88B0     	 sub sp,sp,#32
 2259              	.LCFI78:
 2260              	 .cfi_def_cfa_offset 40
 2261 0004 00AF     	 add r7,sp,#0
 2262              	.LCFI79:
 2263              	 .cfi_def_cfa_register 7
 2264 0006 F860     	 str r0,[r7,#12]
 2265 0008 B960     	 str r1,[r7,#8]
 2266 000a 7A60     	 str r2,[r7,#4]
 879:C:/Users/Yushev/git/wpcqi-optiga-trust-charge/optiga/externals/mbedtls/library\x509.c ****     char *p = buf;
 2267              	 .loc 1 879 0
 2268 000c FB68     	 ldr r3,[r7,#12]
 2269 000e FB61     	 str r3,[r7,#28]
 880:C:/Users/Yushev/git/wpcqi-optiga-trust-charge/optiga/externals/mbedtls/library\x509.c ****     size_t n = buf_size;
 2270              	 .loc 1 880 0
 2271 0010 BB68     	 ldr r3,[r7,#8]
 2272 0012 BB61     	 str r3,[r7,#24]
 881:C:/Users/Yushev/git/wpcqi-optiga-trust-charge/optiga/externals/mbedtls/library\x509.c ****     int ret;
 882:C:/Users/Yushev/git/wpcqi-optiga-trust-charge/optiga/externals/mbedtls/library\x509.c **** 
 883:C:/Users/Yushev/git/wpcqi-optiga-trust-charge/optiga/externals/mbedtls/library\x509.c ****     ret = mbedtls_snprintf( p, n, "%s key size", name );
 2273              	 .loc 1 883 0
 2274 0014 F869     	 ldr r0,[r7,#28]
 2275 0016 B969     	 ldr r1,[r7,#24]
 2276 0018 0D4A     	 ldr r2,.L182
 2277 001a 7B68     	 ldr r3,[r7,#4]
 2278 001c FFF7FEFF 	 bl snprintf
 2279 0020 7861     	 str r0,[r7,#20]
 884:C:/Users/Yushev/git/wpcqi-optiga-trust-charge/optiga/externals/mbedtls/library\x509.c ****     MBEDTLS_X509_SAFE_SNPRINTF;
 2280              	 .loc 1 884 0
 2281 0022 7B69     	 ldr r3,[r7,#20]
 2282 0024 002B     	 cmp r3,#0
 2283 0026 03DB     	 blt .L179
 2284              	 .loc 1 884 0 is_stmt 0 discriminator 2
 2285 0028 7A69     	 ldr r2,[r7,#20]
 2286 002a BB69     	 ldr r3,[r7,#24]
 2287 002c 9A42     	 cmp r2,r3
 2288 002e 01D3     	 bcc .L180
 2289              	.L179:
 2290              	 .loc 1 884 0 discriminator 3
 2291 0030 084B     	 ldr r3,.L182+4
 2292 0032 08E0     	 b .L181
 2293              	.L180:
 2294              	 .loc 1 884 0 discriminator 4
 2295 0034 7B69     	 ldr r3,[r7,#20]
 2296 0036 BA69     	 ldr r2,[r7,#24]
 2297 0038 D31A     	 subs r3,r2,r3
 2298 003a BB61     	 str r3,[r7,#24]
 2299 003c 7B69     	 ldr r3,[r7,#20]
 2300 003e FA69     	 ldr r2,[r7,#28]
 2301 0040 1344     	 add r3,r3,r2
 2302 0042 FB61     	 str r3,[r7,#28]
 885:C:/Users/Yushev/git/wpcqi-optiga-trust-charge/optiga/externals/mbedtls/library\x509.c **** 
 886:C:/Users/Yushev/git/wpcqi-optiga-trust-charge/optiga/externals/mbedtls/library\x509.c ****     return( 0 );
 2303              	 .loc 1 886 0 is_stmt 1 discriminator 4
 2304 0044 0023     	 movs r3,#0
 2305              	.L181:
 887:C:/Users/Yushev/git/wpcqi-optiga-trust-charge/optiga/externals/mbedtls/library\x509.c **** }
 2306              	 .loc 1 887 0
 2307 0046 1846     	 mov r0,r3
 2308 0048 2037     	 adds r7,r7,#32
 2309              	.LCFI80:
 2310              	 .cfi_def_cfa_offset 8
 2311 004a BD46     	 mov sp,r7
 2312              	.LCFI81:
 2313              	 .cfi_def_cfa_register 13
 2314              	 
 2315 004c 80BD     	 pop {r7,pc}
 2316              	.L183:
 2317 004e 00BF     	 .align 2
 2318              	.L182:
 2319 0050 30000000 	 .word .LC10
 2320 0054 80D6FFFF 	 .word -10624
 2321              	 .cfi_endproc
 2322              	.LFE24:
 2324              	 .section .text.mbedtls_x509_time_is_past,"ax",%progbits
 2325              	 .align 2
 2326              	 .global mbedtls_x509_time_is_past
 2327              	 .thumb
 2328              	 .thumb_func
 2330              	mbedtls_x509_time_is_past:
 2331              	.LFB25:
 888:C:/Users/Yushev/git/wpcqi-optiga-trust-charge/optiga/externals/mbedtls/library\x509.c **** 
 889:C:/Users/Yushev/git/wpcqi-optiga-trust-charge/optiga/externals/mbedtls/library\x509.c **** #if defined(MBEDTLS_HAVE_TIME_DATE)
 890:C:/Users/Yushev/git/wpcqi-optiga-trust-charge/optiga/externals/mbedtls/library\x509.c **** /*
 891:C:/Users/Yushev/git/wpcqi-optiga-trust-charge/optiga/externals/mbedtls/library\x509.c ****  * Set the time structure to the current time.
 892:C:/Users/Yushev/git/wpcqi-optiga-trust-charge/optiga/externals/mbedtls/library\x509.c ****  * Return 0 on success, non-zero on failure.
 893:C:/Users/Yushev/git/wpcqi-optiga-trust-charge/optiga/externals/mbedtls/library\x509.c ****  */
 894:C:/Users/Yushev/git/wpcqi-optiga-trust-charge/optiga/externals/mbedtls/library\x509.c **** static int x509_get_current_time( mbedtls_x509_time *now )
 895:C:/Users/Yushev/git/wpcqi-optiga-trust-charge/optiga/externals/mbedtls/library\x509.c **** {
 896:C:/Users/Yushev/git/wpcqi-optiga-trust-charge/optiga/externals/mbedtls/library\x509.c ****     struct tm *lt, tm_buf;
 897:C:/Users/Yushev/git/wpcqi-optiga-trust-charge/optiga/externals/mbedtls/library\x509.c ****     mbedtls_time_t tt;
 898:C:/Users/Yushev/git/wpcqi-optiga-trust-charge/optiga/externals/mbedtls/library\x509.c ****     int ret = 0;
 899:C:/Users/Yushev/git/wpcqi-optiga-trust-charge/optiga/externals/mbedtls/library\x509.c **** 
 900:C:/Users/Yushev/git/wpcqi-optiga-trust-charge/optiga/externals/mbedtls/library\x509.c ****     tt = mbedtls_time( NULL );
 901:C:/Users/Yushev/git/wpcqi-optiga-trust-charge/optiga/externals/mbedtls/library\x509.c ****     lt = mbedtls_platform_gmtime_r( &tt, &tm_buf );
 902:C:/Users/Yushev/git/wpcqi-optiga-trust-charge/optiga/externals/mbedtls/library\x509.c **** 
 903:C:/Users/Yushev/git/wpcqi-optiga-trust-charge/optiga/externals/mbedtls/library\x509.c ****     if( lt == NULL )
 904:C:/Users/Yushev/git/wpcqi-optiga-trust-charge/optiga/externals/mbedtls/library\x509.c ****         ret = -1;
 905:C:/Users/Yushev/git/wpcqi-optiga-trust-charge/optiga/externals/mbedtls/library\x509.c ****     else
 906:C:/Users/Yushev/git/wpcqi-optiga-trust-charge/optiga/externals/mbedtls/library\x509.c ****     {
 907:C:/Users/Yushev/git/wpcqi-optiga-trust-charge/optiga/externals/mbedtls/library\x509.c ****         now->year = lt->tm_year + 1900;
 908:C:/Users/Yushev/git/wpcqi-optiga-trust-charge/optiga/externals/mbedtls/library\x509.c ****         now->mon  = lt->tm_mon  + 1;
 909:C:/Users/Yushev/git/wpcqi-optiga-trust-charge/optiga/externals/mbedtls/library\x509.c ****         now->day  = lt->tm_mday;
 910:C:/Users/Yushev/git/wpcqi-optiga-trust-charge/optiga/externals/mbedtls/library\x509.c ****         now->hour = lt->tm_hour;
 911:C:/Users/Yushev/git/wpcqi-optiga-trust-charge/optiga/externals/mbedtls/library\x509.c ****         now->min  = lt->tm_min;
 912:C:/Users/Yushev/git/wpcqi-optiga-trust-charge/optiga/externals/mbedtls/library\x509.c ****         now->sec  = lt->tm_sec;
 913:C:/Users/Yushev/git/wpcqi-optiga-trust-charge/optiga/externals/mbedtls/library\x509.c ****     }
 914:C:/Users/Yushev/git/wpcqi-optiga-trust-charge/optiga/externals/mbedtls/library\x509.c **** 
 915:C:/Users/Yushev/git/wpcqi-optiga-trust-charge/optiga/externals/mbedtls/library\x509.c ****     return( ret );
 916:C:/Users/Yushev/git/wpcqi-optiga-trust-charge/optiga/externals/mbedtls/library\x509.c **** }
 917:C:/Users/Yushev/git/wpcqi-optiga-trust-charge/optiga/externals/mbedtls/library\x509.c **** 
 918:C:/Users/Yushev/git/wpcqi-optiga-trust-charge/optiga/externals/mbedtls/library\x509.c **** /*
 919:C:/Users/Yushev/git/wpcqi-optiga-trust-charge/optiga/externals/mbedtls/library\x509.c ****  * Return 0 if before <= after, 1 otherwise
 920:C:/Users/Yushev/git/wpcqi-optiga-trust-charge/optiga/externals/mbedtls/library\x509.c ****  */
 921:C:/Users/Yushev/git/wpcqi-optiga-trust-charge/optiga/externals/mbedtls/library\x509.c **** static int x509_check_time( const mbedtls_x509_time *before, const mbedtls_x509_time *after )
 922:C:/Users/Yushev/git/wpcqi-optiga-trust-charge/optiga/externals/mbedtls/library\x509.c **** {
 923:C:/Users/Yushev/git/wpcqi-optiga-trust-charge/optiga/externals/mbedtls/library\x509.c ****     if( before->year  > after->year )
 924:C:/Users/Yushev/git/wpcqi-optiga-trust-charge/optiga/externals/mbedtls/library\x509.c ****         return( 1 );
 925:C:/Users/Yushev/git/wpcqi-optiga-trust-charge/optiga/externals/mbedtls/library\x509.c **** 
 926:C:/Users/Yushev/git/wpcqi-optiga-trust-charge/optiga/externals/mbedtls/library\x509.c ****     if( before->year == after->year &&
 927:C:/Users/Yushev/git/wpcqi-optiga-trust-charge/optiga/externals/mbedtls/library\x509.c ****         before->mon   > after->mon )
 928:C:/Users/Yushev/git/wpcqi-optiga-trust-charge/optiga/externals/mbedtls/library\x509.c ****         return( 1 );
 929:C:/Users/Yushev/git/wpcqi-optiga-trust-charge/optiga/externals/mbedtls/library\x509.c **** 
 930:C:/Users/Yushev/git/wpcqi-optiga-trust-charge/optiga/externals/mbedtls/library\x509.c ****     if( before->year == after->year &&
 931:C:/Users/Yushev/git/wpcqi-optiga-trust-charge/optiga/externals/mbedtls/library\x509.c ****         before->mon  == after->mon  &&
 932:C:/Users/Yushev/git/wpcqi-optiga-trust-charge/optiga/externals/mbedtls/library\x509.c ****         before->day   > after->day )
 933:C:/Users/Yushev/git/wpcqi-optiga-trust-charge/optiga/externals/mbedtls/library\x509.c ****         return( 1 );
 934:C:/Users/Yushev/git/wpcqi-optiga-trust-charge/optiga/externals/mbedtls/library\x509.c **** 
 935:C:/Users/Yushev/git/wpcqi-optiga-trust-charge/optiga/externals/mbedtls/library\x509.c ****     if( before->year == after->year &&
 936:C:/Users/Yushev/git/wpcqi-optiga-trust-charge/optiga/externals/mbedtls/library\x509.c ****         before->mon  == after->mon  &&
 937:C:/Users/Yushev/git/wpcqi-optiga-trust-charge/optiga/externals/mbedtls/library\x509.c ****         before->day  == after->day  &&
 938:C:/Users/Yushev/git/wpcqi-optiga-trust-charge/optiga/externals/mbedtls/library\x509.c ****         before->hour  > after->hour )
 939:C:/Users/Yushev/git/wpcqi-optiga-trust-charge/optiga/externals/mbedtls/library\x509.c ****         return( 1 );
 940:C:/Users/Yushev/git/wpcqi-optiga-trust-charge/optiga/externals/mbedtls/library\x509.c **** 
 941:C:/Users/Yushev/git/wpcqi-optiga-trust-charge/optiga/externals/mbedtls/library\x509.c ****     if( before->year == after->year &&
 942:C:/Users/Yushev/git/wpcqi-optiga-trust-charge/optiga/externals/mbedtls/library\x509.c ****         before->mon  == after->mon  &&
 943:C:/Users/Yushev/git/wpcqi-optiga-trust-charge/optiga/externals/mbedtls/library\x509.c ****         before->day  == after->day  &&
 944:C:/Users/Yushev/git/wpcqi-optiga-trust-charge/optiga/externals/mbedtls/library\x509.c ****         before->hour == after->hour &&
 945:C:/Users/Yushev/git/wpcqi-optiga-trust-charge/optiga/externals/mbedtls/library\x509.c ****         before->min   > after->min  )
 946:C:/Users/Yushev/git/wpcqi-optiga-trust-charge/optiga/externals/mbedtls/library\x509.c ****         return( 1 );
 947:C:/Users/Yushev/git/wpcqi-optiga-trust-charge/optiga/externals/mbedtls/library\x509.c **** 
 948:C:/Users/Yushev/git/wpcqi-optiga-trust-charge/optiga/externals/mbedtls/library\x509.c ****     if( before->year == after->year &&
 949:C:/Users/Yushev/git/wpcqi-optiga-trust-charge/optiga/externals/mbedtls/library\x509.c ****         before->mon  == after->mon  &&
 950:C:/Users/Yushev/git/wpcqi-optiga-trust-charge/optiga/externals/mbedtls/library\x509.c ****         before->day  == after->day  &&
 951:C:/Users/Yushev/git/wpcqi-optiga-trust-charge/optiga/externals/mbedtls/library\x509.c ****         before->hour == after->hour &&
 952:C:/Users/Yushev/git/wpcqi-optiga-trust-charge/optiga/externals/mbedtls/library\x509.c ****         before->min  == after->min  &&
 953:C:/Users/Yushev/git/wpcqi-optiga-trust-charge/optiga/externals/mbedtls/library\x509.c ****         before->sec   > after->sec  )
 954:C:/Users/Yushev/git/wpcqi-optiga-trust-charge/optiga/externals/mbedtls/library\x509.c ****         return( 1 );
 955:C:/Users/Yushev/git/wpcqi-optiga-trust-charge/optiga/externals/mbedtls/library\x509.c **** 
 956:C:/Users/Yushev/git/wpcqi-optiga-trust-charge/optiga/externals/mbedtls/library\x509.c ****     return( 0 );
 957:C:/Users/Yushev/git/wpcqi-optiga-trust-charge/optiga/externals/mbedtls/library\x509.c **** }
 958:C:/Users/Yushev/git/wpcqi-optiga-trust-charge/optiga/externals/mbedtls/library\x509.c **** 
 959:C:/Users/Yushev/git/wpcqi-optiga-trust-charge/optiga/externals/mbedtls/library\x509.c **** int mbedtls_x509_time_is_past( const mbedtls_x509_time *to )
 960:C:/Users/Yushev/git/wpcqi-optiga-trust-charge/optiga/externals/mbedtls/library\x509.c **** {
 961:C:/Users/Yushev/git/wpcqi-optiga-trust-charge/optiga/externals/mbedtls/library\x509.c ****     mbedtls_x509_time now;
 962:C:/Users/Yushev/git/wpcqi-optiga-trust-charge/optiga/externals/mbedtls/library\x509.c **** 
 963:C:/Users/Yushev/git/wpcqi-optiga-trust-charge/optiga/externals/mbedtls/library\x509.c ****     if( x509_get_current_time( &now ) != 0 )
 964:C:/Users/Yushev/git/wpcqi-optiga-trust-charge/optiga/externals/mbedtls/library\x509.c ****         return( 1 );
 965:C:/Users/Yushev/git/wpcqi-optiga-trust-charge/optiga/externals/mbedtls/library\x509.c **** 
 966:C:/Users/Yushev/git/wpcqi-optiga-trust-charge/optiga/externals/mbedtls/library\x509.c ****     return( x509_check_time( &now, to ) );
 967:C:/Users/Yushev/git/wpcqi-optiga-trust-charge/optiga/externals/mbedtls/library\x509.c **** }
 968:C:/Users/Yushev/git/wpcqi-optiga-trust-charge/optiga/externals/mbedtls/library\x509.c **** 
 969:C:/Users/Yushev/git/wpcqi-optiga-trust-charge/optiga/externals/mbedtls/library\x509.c **** int mbedtls_x509_time_is_future( const mbedtls_x509_time *from )
 970:C:/Users/Yushev/git/wpcqi-optiga-trust-charge/optiga/externals/mbedtls/library\x509.c **** {
 971:C:/Users/Yushev/git/wpcqi-optiga-trust-charge/optiga/externals/mbedtls/library\x509.c ****     mbedtls_x509_time now;
 972:C:/Users/Yushev/git/wpcqi-optiga-trust-charge/optiga/externals/mbedtls/library\x509.c **** 
 973:C:/Users/Yushev/git/wpcqi-optiga-trust-charge/optiga/externals/mbedtls/library\x509.c ****     if( x509_get_current_time( &now ) != 0 )
 974:C:/Users/Yushev/git/wpcqi-optiga-trust-charge/optiga/externals/mbedtls/library\x509.c ****         return( 1 );
 975:C:/Users/Yushev/git/wpcqi-optiga-trust-charge/optiga/externals/mbedtls/library\x509.c **** 
 976:C:/Users/Yushev/git/wpcqi-optiga-trust-charge/optiga/externals/mbedtls/library\x509.c ****     return( x509_check_time( from, &now ) );
 977:C:/Users/Yushev/git/wpcqi-optiga-trust-charge/optiga/externals/mbedtls/library\x509.c **** }
 978:C:/Users/Yushev/git/wpcqi-optiga-trust-charge/optiga/externals/mbedtls/library\x509.c **** 
 979:C:/Users/Yushev/git/wpcqi-optiga-trust-charge/optiga/externals/mbedtls/library\x509.c **** #else  /* MBEDTLS_HAVE_TIME_DATE */
 980:C:/Users/Yushev/git/wpcqi-optiga-trust-charge/optiga/externals/mbedtls/library\x509.c **** 
 981:C:/Users/Yushev/git/wpcqi-optiga-trust-charge/optiga/externals/mbedtls/library\x509.c **** int mbedtls_x509_time_is_past( const mbedtls_x509_time *to )
 982:C:/Users/Yushev/git/wpcqi-optiga-trust-charge/optiga/externals/mbedtls/library\x509.c **** {
 2332              	 .loc 1 982 0
 2333              	 .cfi_startproc
 2334              	 
 2335              	 
 2336              	 
 2337 0000 80B4     	 push {r7}
 2338              	.LCFI82:
 2339              	 .cfi_def_cfa_offset 4
 2340              	 .cfi_offset 7,-4
 2341 0002 83B0     	 sub sp,sp,#12
 2342              	.LCFI83:
 2343              	 .cfi_def_cfa_offset 16
 2344 0004 00AF     	 add r7,sp,#0
 2345              	.LCFI84:
 2346              	 .cfi_def_cfa_register 7
 2347 0006 7860     	 str r0,[r7,#4]
 983:C:/Users/Yushev/git/wpcqi-optiga-trust-charge/optiga/externals/mbedtls/library\x509.c ****     ((void) to);
 984:C:/Users/Yushev/git/wpcqi-optiga-trust-charge/optiga/externals/mbedtls/library\x509.c ****     return( 0 );
 2348              	 .loc 1 984 0
 2349 0008 0023     	 movs r3,#0
 985:C:/Users/Yushev/git/wpcqi-optiga-trust-charge/optiga/externals/mbedtls/library\x509.c **** }
 2350              	 .loc 1 985 0
 2351 000a 1846     	 mov r0,r3
 2352 000c 0C37     	 adds r7,r7,#12
 2353              	.LCFI85:
 2354              	 .cfi_def_cfa_offset 4
 2355 000e BD46     	 mov sp,r7
 2356              	.LCFI86:
 2357              	 .cfi_def_cfa_register 13
 2358              	 
 2359 0010 5DF8047B 	 ldr r7,[sp],#4
 2360              	.LCFI87:
 2361              	 .cfi_restore 7
 2362              	 .cfi_def_cfa_offset 0
 2363 0014 7047     	 bx lr
 2364              	 .cfi_endproc
 2365              	.LFE25:
 2367 0016 00BF     	 .section .text.mbedtls_x509_time_is_future,"ax",%progbits
 2368              	 .align 2
 2369              	 .global mbedtls_x509_time_is_future
 2370              	 .thumb
 2371              	 .thumb_func
 2373              	mbedtls_x509_time_is_future:
 2374              	.LFB26:
 986:C:/Users/Yushev/git/wpcqi-optiga-trust-charge/optiga/externals/mbedtls/library\x509.c **** 
 987:C:/Users/Yushev/git/wpcqi-optiga-trust-charge/optiga/externals/mbedtls/library\x509.c **** int mbedtls_x509_time_is_future( const mbedtls_x509_time *from )
 988:C:/Users/Yushev/git/wpcqi-optiga-trust-charge/optiga/externals/mbedtls/library\x509.c **** {
 2375              	 .loc 1 988 0
 2376              	 .cfi_startproc
 2377              	 
 2378              	 
 2379              	 
 2380 0000 80B4     	 push {r7}
 2381              	.LCFI88:
 2382              	 .cfi_def_cfa_offset 4
 2383              	 .cfi_offset 7,-4
 2384 0002 83B0     	 sub sp,sp,#12
 2385              	.LCFI89:
 2386              	 .cfi_def_cfa_offset 16
 2387 0004 00AF     	 add r7,sp,#0
 2388              	.LCFI90:
 2389              	 .cfi_def_cfa_register 7
 2390 0006 7860     	 str r0,[r7,#4]
 989:C:/Users/Yushev/git/wpcqi-optiga-trust-charge/optiga/externals/mbedtls/library\x509.c ****     ((void) from);
 990:C:/Users/Yushev/git/wpcqi-optiga-trust-charge/optiga/externals/mbedtls/library\x509.c ****     return( 0 );
 2391              	 .loc 1 990 0
 2392 0008 0023     	 movs r3,#0
 991:C:/Users/Yushev/git/wpcqi-optiga-trust-charge/optiga/externals/mbedtls/library\x509.c **** }
 2393              	 .loc 1 991 0
 2394 000a 1846     	 mov r0,r3
 2395 000c 0C37     	 adds r7,r7,#12
 2396              	.LCFI91:
 2397              	 .cfi_def_cfa_offset 4
 2398 000e BD46     	 mov sp,r7
 2399              	.LCFI92:
 2400              	 .cfi_def_cfa_register 13
 2401              	 
 2402 0010 5DF8047B 	 ldr r7,[sp],#4
 2403              	.LCFI93:
 2404              	 .cfi_restore 7
 2405              	 .cfi_def_cfa_offset 0
 2406 0014 7047     	 bx lr
 2407              	 .cfi_endproc
 2408              	.LFE26:
 2410 0016 00BF     	 .text
 2411              	.Letext0:
 2412              	 .file 2 "C:/Users/Yushev/git/wpcqi-optiga-trust-charge/optiga/externals/mbedtls/include/mbedtls/asn1.h"
 2413              	 .file 3 "c:\\users\\yushev\\dave_4-4-2_32bit_2018-02-23\\dave-ide-4.4.2-32bit\\eclipse\\arm-gcc-49\\lib\\gcc\\arm-none-eabi\\4.9.3\\include\\stddef.h"
 2414              	 .file 4 "C:/Users/Yushev/git/wpcqi-optiga-trust-charge/optiga/externals/mbedtls/include/mbedtls/md.h"
 2415              	 .file 5 "C:/Users/Yushev/git/wpcqi-optiga-trust-charge/optiga/externals/mbedtls/include/mbedtls/pk.h"
 2416              	 .file 6 "C:/Users/Yushev/git/wpcqi-optiga-trust-charge/optiga/externals/mbedtls/include/mbedtls/x509.h"