   1              	 .syntax unified
   2              	 .cpu cortex-m4
   3              	 .eabi_attribute 27,3
   4              	 .fpu fpv4-sp-d16
   5              	 .eabi_attribute 20,1
   6              	 .eabi_attribute 21,1
   7              	 .eabi_attribute 23,3
   8              	 .eabi_attribute 24,1
   9              	 .eabi_attribute 25,1
  10              	 .eabi_attribute 26,1
  11              	 .eabi_attribute 30,6
  12              	 .eabi_attribute 34,1
  13              	 .eabi_attribute 18,4
  14              	 .thumb
  15              	 .file "optiga_comms_ifx_i2c.c"
  16              	 .text
  17              	.Ltext0:
  18              	 .cfi_sections .debug_frame
  19              	 .global optiga_comms
  20              	 .section .data.optiga_comms,"aw",%progbits
  21              	 .align 2
  24              	optiga_comms:
  25 0000 00000000 	 .word ifx_i2c_context_0
  26 0004 00000000 	 .word 0
  27 0008 00000000 	 .word 0
  28 000c 00       	 .byte 0
  29 000d 00       	 .byte 0
  30 000e 0000     	 .space 2
  31 0010 00000000 	 .word 0
  32              	 .section .text.optiga_comms_create,"ax",%progbits
  33              	 .align 2
  34              	 .global optiga_comms_create
  35              	 .thumb
  36              	 .thumb_func
  38              	optiga_comms_create:
  39              	.LFB0:
  40              	 .file 1 "C:/Users/Yushev/git/wpcqi-optiga-trust-charge/optiga/optiga/comms/optiga_comms_ifx_i2c.c"
   1:C:/Users/Yushev/git/wpcqi-optiga-trust-charge/optiga/optiga/comms\optiga_comms_ifx_i2c.c **** /**
   2:C:/Users/Yushev/git/wpcqi-optiga-trust-charge/optiga/optiga/comms\optiga_comms_ifx_i2c.c **** * \copyright
   3:C:/Users/Yushev/git/wpcqi-optiga-trust-charge/optiga/optiga/comms\optiga_comms_ifx_i2c.c **** * MIT License
   4:C:/Users/Yushev/git/wpcqi-optiga-trust-charge/optiga/optiga/comms\optiga_comms_ifx_i2c.c **** *
   5:C:/Users/Yushev/git/wpcqi-optiga-trust-charge/optiga/optiga/comms\optiga_comms_ifx_i2c.c **** * Copyright (c) 2020 Infineon Technologies AG
   6:C:/Users/Yushev/git/wpcqi-optiga-trust-charge/optiga/optiga/comms\optiga_comms_ifx_i2c.c **** *
   7:C:/Users/Yushev/git/wpcqi-optiga-trust-charge/optiga/optiga/comms\optiga_comms_ifx_i2c.c **** * Permission is hereby granted, free of charge, to any person obtaining a copy
   8:C:/Users/Yushev/git/wpcqi-optiga-trust-charge/optiga/optiga/comms\optiga_comms_ifx_i2c.c **** * of this software and associated documentation files (the "Software"), to deal
   9:C:/Users/Yushev/git/wpcqi-optiga-trust-charge/optiga/optiga/comms\optiga_comms_ifx_i2c.c **** * in the Software without restriction, including without limitation the rights
  10:C:/Users/Yushev/git/wpcqi-optiga-trust-charge/optiga/optiga/comms\optiga_comms_ifx_i2c.c **** * to use, copy, modify, merge, publish, distribute, sublicense, and/or sell
  11:C:/Users/Yushev/git/wpcqi-optiga-trust-charge/optiga/optiga/comms\optiga_comms_ifx_i2c.c **** * copies of the Software, and to permit persons to whom the Software is
  12:C:/Users/Yushev/git/wpcqi-optiga-trust-charge/optiga/optiga/comms\optiga_comms_ifx_i2c.c **** * furnished to do so, subject to the following conditions:
  13:C:/Users/Yushev/git/wpcqi-optiga-trust-charge/optiga/optiga/comms\optiga_comms_ifx_i2c.c **** *
  14:C:/Users/Yushev/git/wpcqi-optiga-trust-charge/optiga/optiga/comms\optiga_comms_ifx_i2c.c **** * The above copyright notice and this permission notice shall be included in all
  15:C:/Users/Yushev/git/wpcqi-optiga-trust-charge/optiga/optiga/comms\optiga_comms_ifx_i2c.c **** * copies or substantial portions of the Software.
  16:C:/Users/Yushev/git/wpcqi-optiga-trust-charge/optiga/optiga/comms\optiga_comms_ifx_i2c.c **** *
  17:C:/Users/Yushev/git/wpcqi-optiga-trust-charge/optiga/optiga/comms\optiga_comms_ifx_i2c.c **** * THE SOFTWARE IS PROVIDED "AS IS", WITHOUT WARRANTY OF ANY KIND, EXPRESS OR
  18:C:/Users/Yushev/git/wpcqi-optiga-trust-charge/optiga/optiga/comms\optiga_comms_ifx_i2c.c **** * IMPLIED, INCLUDING BUT NOT LIMITED TO THE WARRANTIES OF MERCHANTABILITY,
  19:C:/Users/Yushev/git/wpcqi-optiga-trust-charge/optiga/optiga/comms\optiga_comms_ifx_i2c.c **** * FITNESS FOR A PARTICULAR PURPOSE AND NONINFRINGEMENT. IN NO EVENT SHALL THE
  20:C:/Users/Yushev/git/wpcqi-optiga-trust-charge/optiga/optiga/comms\optiga_comms_ifx_i2c.c **** * AUTHORS OR COPYRIGHT HOLDERS BE LIABLE FOR ANY CLAIM, DAMAGES OR OTHER
  21:C:/Users/Yushev/git/wpcqi-optiga-trust-charge/optiga/optiga/comms\optiga_comms_ifx_i2c.c **** * LIABILITY, WHETHER IN AN ACTION OF CONTRACT, TORT OR OTHERWISE, ARISING FROM,
  22:C:/Users/Yushev/git/wpcqi-optiga-trust-charge/optiga/optiga/comms\optiga_comms_ifx_i2c.c **** * OUT OF OR IN CONNECTION WITH THE SOFTWARE OR THE USE OR OTHER DEALINGS IN THE
  23:C:/Users/Yushev/git/wpcqi-optiga-trust-charge/optiga/optiga/comms\optiga_comms_ifx_i2c.c **** * SOFTWARE
  24:C:/Users/Yushev/git/wpcqi-optiga-trust-charge/optiga/optiga/comms\optiga_comms_ifx_i2c.c **** *
  25:C:/Users/Yushev/git/wpcqi-optiga-trust-charge/optiga/optiga/comms\optiga_comms_ifx_i2c.c **** * \endcopyright
  26:C:/Users/Yushev/git/wpcqi-optiga-trust-charge/optiga/optiga/comms\optiga_comms_ifx_i2c.c **** *
  27:C:/Users/Yushev/git/wpcqi-optiga-trust-charge/optiga/optiga/comms\optiga_comms_ifx_i2c.c **** * \author Infineon Technologies AG
  28:C:/Users/Yushev/git/wpcqi-optiga-trust-charge/optiga/optiga/comms\optiga_comms_ifx_i2c.c **** *
  29:C:/Users/Yushev/git/wpcqi-optiga-trust-charge/optiga/optiga/comms\optiga_comms_ifx_i2c.c **** * \file optiga_comms_ifx_i2c.c
  30:C:/Users/Yushev/git/wpcqi-optiga-trust-charge/optiga/optiga/comms\optiga_comms_ifx_i2c.c **** *
  31:C:/Users/Yushev/git/wpcqi-optiga-trust-charge/optiga/optiga/comms\optiga_comms_ifx_i2c.c **** * \brief   This file implements optiga comms abstraction layer for IFX I2C Protocol.
  32:C:/Users/Yushev/git/wpcqi-optiga-trust-charge/optiga/optiga/comms\optiga_comms_ifx_i2c.c **** *
  33:C:/Users/Yushev/git/wpcqi-optiga-trust-charge/optiga/optiga/comms\optiga_comms_ifx_i2c.c **** * \ingroup  grOptigaComms
  34:C:/Users/Yushev/git/wpcqi-optiga-trust-charge/optiga/optiga/comms\optiga_comms_ifx_i2c.c **** *
  35:C:/Users/Yushev/git/wpcqi-optiga-trust-charge/optiga/optiga/comms\optiga_comms_ifx_i2c.c **** * @{
  36:C:/Users/Yushev/git/wpcqi-optiga-trust-charge/optiga/optiga/comms\optiga_comms_ifx_i2c.c **** */
  37:C:/Users/Yushev/git/wpcqi-optiga-trust-charge/optiga/optiga/comms\optiga_comms_ifx_i2c.c **** 
  38:C:/Users/Yushev/git/wpcqi-optiga-trust-charge/optiga/optiga/comms\optiga_comms_ifx_i2c.c **** #include "optiga/comms/optiga_comms.h"
  39:C:/Users/Yushev/git/wpcqi-optiga-trust-charge/optiga/optiga/comms\optiga_comms_ifx_i2c.c **** #include "optiga/common/optiga_lib_logger.h"
  40:C:/Users/Yushev/git/wpcqi-optiga-trust-charge/optiga/optiga/comms\optiga_comms_ifx_i2c.c **** #include "optiga/ifx_i2c/ifx_i2c.h"
  41:C:/Users/Yushev/git/wpcqi-optiga-trust-charge/optiga/optiga/comms\optiga_comms_ifx_i2c.c **** #include "optiga/pal/pal_os_event.h"
  42:C:/Users/Yushev/git/wpcqi-optiga-trust-charge/optiga/optiga/comms\optiga_comms_ifx_i2c.c **** 
  43:C:/Users/Yushev/git/wpcqi-optiga-trust-charge/optiga/optiga/comms\optiga_comms_ifx_i2c.c **** /// @cond hidden
  44:C:/Users/Yushev/git/wpcqi-optiga-trust-charge/optiga/optiga/comms\optiga_comms_ifx_i2c.c **** 
  45:C:/Users/Yushev/git/wpcqi-optiga-trust-charge/optiga/optiga/comms\optiga_comms_ifx_i2c.c ****  /// Optiga comms is in use
  46:C:/Users/Yushev/git/wpcqi-optiga-trust-charge/optiga/optiga/comms\optiga_comms_ifx_i2c.c ****  #define OPTIGA_COMMS_INUSE     (0x01)
  47:C:/Users/Yushev/git/wpcqi-optiga-trust-charge/optiga/optiga/comms\optiga_comms_ifx_i2c.c ****  /// Optiga comms is free
  48:C:/Users/Yushev/git/wpcqi-optiga-trust-charge/optiga/optiga/comms\optiga_comms_ifx_i2c.c ****  #define OPTIGA_COMMS_FREE      (0x00)
  49:C:/Users/Yushev/git/wpcqi-optiga-trust-charge/optiga/optiga/comms\optiga_comms_ifx_i2c.c **** 
  50:C:/Users/Yushev/git/wpcqi-optiga-trust-charge/optiga/optiga/comms\optiga_comms_ifx_i2c.c **** optiga_comms_t optiga_comms = {
  51:C:/Users/Yushev/git/wpcqi-optiga-trust-charge/optiga/optiga/comms\optiga_comms_ifx_i2c.c ****                                (void *)&ifx_i2c_context_0,
  52:C:/Users/Yushev/git/wpcqi-optiga-trust-charge/optiga/optiga/comms\optiga_comms_ifx_i2c.c ****                                NULL,
  53:C:/Users/Yushev/git/wpcqi-optiga-trust-charge/optiga/optiga/comms\optiga_comms_ifx_i2c.c ****                                NULL,
  54:C:/Users/Yushev/git/wpcqi-optiga-trust-charge/optiga/optiga/comms\optiga_comms_ifx_i2c.c ****                                0,
  55:C:/Users/Yushev/git/wpcqi-optiga-trust-charge/optiga/optiga/comms\optiga_comms_ifx_i2c.c ****                                0,
  56:C:/Users/Yushev/git/wpcqi-optiga-trust-charge/optiga/optiga/comms\optiga_comms_ifx_i2c.c **** #ifdef OPTIGA_COMMS_SHIELDED_CONNECTION
  57:C:/Users/Yushev/git/wpcqi-optiga-trust-charge/optiga/optiga/comms\optiga_comms_ifx_i2c.c ****                                0,
  58:C:/Users/Yushev/git/wpcqi-optiga-trust-charge/optiga/optiga/comms\optiga_comms_ifx_i2c.c ****                                0,
  59:C:/Users/Yushev/git/wpcqi-optiga-trust-charge/optiga/optiga/comms\optiga_comms_ifx_i2c.c ****                                0,
  60:C:/Users/Yushev/git/wpcqi-optiga-trust-charge/optiga/optiga/comms\optiga_comms_ifx_i2c.c **** #endif
  61:C:/Users/Yushev/git/wpcqi-optiga-trust-charge/optiga/optiga/comms\optiga_comms_ifx_i2c.c ****                                NULL};
  62:C:/Users/Yushev/git/wpcqi-optiga-trust-charge/optiga/optiga/comms\optiga_comms_ifx_i2c.c **** 
  63:C:/Users/Yushev/git/wpcqi-optiga-trust-charge/optiga/optiga/comms\optiga_comms_ifx_i2c.c **** _STATIC_H optiga_lib_status_t check_optiga_comms_state(optiga_comms_t *p_ctx);
  64:C:/Users/Yushev/git/wpcqi-optiga-trust-charge/optiga/optiga/comms\optiga_comms_ifx_i2c.c **** _STATIC_H void ifx_i2c_event_handler(void* p_ctx, optiga_lib_status_t event);
  65:C:/Users/Yushev/git/wpcqi-optiga-trust-charge/optiga/optiga/comms\optiga_comms_ifx_i2c.c **** 
  66:C:/Users/Yushev/git/wpcqi-optiga-trust-charge/optiga/optiga/comms\optiga_comms_ifx_i2c.c **** optiga_comms_t * optiga_comms_create(callback_handler_t callback, void * context)
  67:C:/Users/Yushev/git/wpcqi-optiga-trust-charge/optiga/optiga/comms\optiga_comms_ifx_i2c.c **** {
  41              	 .loc 1 67 0
  42              	 .cfi_startproc
  43              	 
  44              	 
  45 0000 80B5     	 push {r7,lr}
  46              	.LCFI0:
  47              	 .cfi_def_cfa_offset 8
  48              	 .cfi_offset 7,-8
  49              	 .cfi_offset 14,-4
  50 0002 84B0     	 sub sp,sp,#16
  51              	.LCFI1:
  52              	 .cfi_def_cfa_offset 24
  53 0004 00AF     	 add r7,sp,#0
  54              	.LCFI2:
  55              	 .cfi_def_cfa_register 7
  56 0006 7860     	 str r0,[r7,#4]
  57 0008 3960     	 str r1,[r7]
  68:C:/Users/Yushev/git/wpcqi-optiga-trust-charge/optiga/optiga/comms\optiga_comms_ifx_i2c.c ****     optiga_comms_t * p_optiga_comms = NULL;
  58              	 .loc 1 68 0
  59 000a 0023     	 movs r3,#0
  60 000c FB60     	 str r3,[r7,#12]
  69:C:/Users/Yushev/git/wpcqi-optiga-trust-charge/optiga/optiga/comms\optiga_comms_ifx_i2c.c **** 
  70:C:/Users/Yushev/git/wpcqi-optiga-trust-charge/optiga/optiga/comms\optiga_comms_ifx_i2c.c ****     do
  71:C:/Users/Yushev/git/wpcqi-optiga-trust-charge/optiga/optiga/comms\optiga_comms_ifx_i2c.c ****     {
  72:C:/Users/Yushev/git/wpcqi-optiga-trust-charge/optiga/optiga/comms\optiga_comms_ifx_i2c.c ****         p_optiga_comms = &optiga_comms;
  61              	 .loc 1 72 0
  62 000e 0E4B     	 ldr r3,.L5
  63 0010 FB60     	 str r3,[r7,#12]
  73:C:/Users/Yushev/git/wpcqi-optiga-trust-charge/optiga/optiga/comms\optiga_comms_ifx_i2c.c **** 
  74:C:/Users/Yushev/git/wpcqi-optiga-trust-charge/optiga/optiga/comms\optiga_comms_ifx_i2c.c ****         if (FALSE == p_optiga_comms->instance_init_state)
  64              	 .loc 1 74 0
  65 0012 FB68     	 ldr r3,[r7,#12]
  66 0014 1B7B     	 ldrb r3,[r3,#12]
  67 0016 002B     	 cmp r3,#0
  68 0018 10D1     	 bne .L2
  75:C:/Users/Yushev/git/wpcqi-optiga-trust-charge/optiga/optiga/comms\optiga_comms_ifx_i2c.c ****         {
  76:C:/Users/Yushev/git/wpcqi-optiga-trust-charge/optiga/optiga/comms\optiga_comms_ifx_i2c.c **** #ifdef OPTIGA_PAL_INIT_ENABLED
  77:C:/Users/Yushev/git/wpcqi-optiga-trust-charge/optiga/optiga/comms\optiga_comms_ifx_i2c.c ****             if (PAL_STATUS_SUCCESS != pal_init())
  69              	 .loc 1 77 0
  70 001a FFF7FEFF 	 bl pal_init
  71 001e 0346     	 mov r3,r0
  72 0020 002B     	 cmp r3,#0
  73 0022 02D0     	 beq .L3
  78:C:/Users/Yushev/git/wpcqi-optiga-trust-charge/optiga/optiga/comms\optiga_comms_ifx_i2c.c ****             {
  79:C:/Users/Yushev/git/wpcqi-optiga-trust-charge/optiga/optiga/comms\optiga_comms_ifx_i2c.c ****                 p_optiga_comms = NULL;
  74              	 .loc 1 79 0
  75 0024 0023     	 movs r3,#0
  76 0026 FB60     	 str r3,[r7,#12]
  80:C:/Users/Yushev/git/wpcqi-optiga-trust-charge/optiga/optiga/comms\optiga_comms_ifx_i2c.c ****                 break;
  77              	 .loc 1 80 0
  78 0028 08E0     	 b .L2
  79              	.L3:
  81:C:/Users/Yushev/git/wpcqi-optiga-trust-charge/optiga/optiga/comms\optiga_comms_ifx_i2c.c ****             }
  82:C:/Users/Yushev/git/wpcqi-optiga-trust-charge/optiga/optiga/comms\optiga_comms_ifx_i2c.c **** #endif
  83:C:/Users/Yushev/git/wpcqi-optiga-trust-charge/optiga/optiga/comms\optiga_comms_ifx_i2c.c ****             p_optiga_comms->upper_layer_handler = callback;
  80              	 .loc 1 83 0
  81 002a FB68     	 ldr r3,[r7,#12]
  82 002c 7A68     	 ldr r2,[r7,#4]
  83 002e 9A60     	 str r2,[r3,#8]
  84:C:/Users/Yushev/git/wpcqi-optiga-trust-charge/optiga/optiga/comms\optiga_comms_ifx_i2c.c ****             p_optiga_comms->p_upper_layer_ctx = context;
  84              	 .loc 1 84 0
  85 0030 FB68     	 ldr r3,[r7,#12]
  86 0032 3A68     	 ldr r2,[r7]
  87 0034 5A60     	 str r2,[r3,#4]
  85:C:/Users/Yushev/git/wpcqi-optiga-trust-charge/optiga/optiga/comms\optiga_comms_ifx_i2c.c ****             p_optiga_comms->instance_init_state = TRUE;
  88              	 .loc 1 85 0
  89 0036 FB68     	 ldr r3,[r7,#12]
  90 0038 0122     	 movs r2,#1
  91 003a 1A73     	 strb r2,[r3,#12]
  92              	.L2:
  86:C:/Users/Yushev/git/wpcqi-optiga-trust-charge/optiga/optiga/comms\optiga_comms_ifx_i2c.c ****         }
  87:C:/Users/Yushev/git/wpcqi-optiga-trust-charge/optiga/optiga/comms\optiga_comms_ifx_i2c.c ****     } while (FALSE);
  88:C:/Users/Yushev/git/wpcqi-optiga-trust-charge/optiga/optiga/comms\optiga_comms_ifx_i2c.c ****     return (p_optiga_comms);
  93              	 .loc 1 88 0
  94 003c FB68     	 ldr r3,[r7,#12]
  89:C:/Users/Yushev/git/wpcqi-optiga-trust-charge/optiga/optiga/comms\optiga_comms_ifx_i2c.c **** }
  95              	 .loc 1 89 0
  96 003e 1846     	 mov r0,r3
  97 0040 1037     	 adds r7,r7,#16
  98              	.LCFI3:
  99              	 .cfi_def_cfa_offset 8
 100 0042 BD46     	 mov sp,r7
 101              	.LCFI4:
 102              	 .cfi_def_cfa_register 13
 103              	 
 104 0044 80BD     	 pop {r7,pc}
 105              	.L6:
 106 0046 00BF     	 .align 2
 107              	.L5:
 108 0048 00000000 	 .word optiga_comms
 109              	 .cfi_endproc
 110              	.LFE0:
 112              	 .section .text.optiga_comms_destroy,"ax",%progbits
 113              	 .align 2
 114              	 .global optiga_comms_destroy
 115              	 .thumb
 116              	 .thumb_func
 118              	optiga_comms_destroy:
 119              	.LFB1:
  90:C:/Users/Yushev/git/wpcqi-optiga-trust-charge/optiga/optiga/comms\optiga_comms_ifx_i2c.c **** 
  91:C:/Users/Yushev/git/wpcqi-optiga-trust-charge/optiga/optiga/comms\optiga_comms_ifx_i2c.c **** //lint --e{715} suppress "p_optiga_cmd is not used here as it is placeholder for future."
  92:C:/Users/Yushev/git/wpcqi-optiga-trust-charge/optiga/optiga/comms\optiga_comms_ifx_i2c.c **** //lint --e{818} suppress "Not declared as pointer as nothing needs to be updated in the pointer."
  93:C:/Users/Yushev/git/wpcqi-optiga-trust-charge/optiga/optiga/comms\optiga_comms_ifx_i2c.c **** void optiga_comms_destroy(optiga_comms_t * p_optiga_cmd)
  94:C:/Users/Yushev/git/wpcqi-optiga-trust-charge/optiga/optiga/comms\optiga_comms_ifx_i2c.c **** {
 120              	 .loc 1 94 0
 121              	 .cfi_startproc
 122              	 
 123              	 
 124              	 
 125 0000 80B4     	 push {r7}
 126              	.LCFI5:
 127              	 .cfi_def_cfa_offset 4
 128              	 .cfi_offset 7,-4
 129 0002 83B0     	 sub sp,sp,#12
 130              	.LCFI6:
 131              	 .cfi_def_cfa_offset 16
 132 0004 00AF     	 add r7,sp,#0
 133              	.LCFI7:
 134              	 .cfi_def_cfa_register 7
 135 0006 7860     	 str r0,[r7,#4]
  95:C:/Users/Yushev/git/wpcqi-optiga-trust-charge/optiga/optiga/comms\optiga_comms_ifx_i2c.c **** }
 136              	 .loc 1 95 0
 137 0008 0C37     	 adds r7,r7,#12
 138              	.LCFI8:
 139              	 .cfi_def_cfa_offset 4
 140 000a BD46     	 mov sp,r7
 141              	.LCFI9:
 142              	 .cfi_def_cfa_register 13
 143              	 
 144 000c 5DF8047B 	 ldr r7,[sp],#4
 145              	.LCFI10:
 146              	 .cfi_restore 7
 147              	 .cfi_def_cfa_offset 0
 148 0010 7047     	 bx lr
 149              	 .cfi_endproc
 150              	.LFE1:
 152 0012 00BF     	 .section .text.optiga_comms_set_callback_handler,"ax",%progbits
 153              	 .align 2
 154              	 .global optiga_comms_set_callback_handler
 155              	 .thumb
 156              	 .thumb_func
 158              	optiga_comms_set_callback_handler:
 159              	.LFB2:
  96:C:/Users/Yushev/git/wpcqi-optiga-trust-charge/optiga/optiga/comms\optiga_comms_ifx_i2c.c **** 
  97:C:/Users/Yushev/git/wpcqi-optiga-trust-charge/optiga/optiga/comms\optiga_comms_ifx_i2c.c **** optiga_lib_status_t optiga_comms_set_callback_handler(optiga_comms_t * p_optiga_comms, callback_han
  98:C:/Users/Yushev/git/wpcqi-optiga-trust-charge/optiga/optiga/comms\optiga_comms_ifx_i2c.c **** {
 160              	 .loc 1 98 0
 161              	 .cfi_startproc
 162              	 
 163              	 
 164              	 
 165 0000 80B4     	 push {r7}
 166              	.LCFI11:
 167              	 .cfi_def_cfa_offset 4
 168              	 .cfi_offset 7,-4
 169 0002 83B0     	 sub sp,sp,#12
 170              	.LCFI12:
 171              	 .cfi_def_cfa_offset 16
 172 0004 00AF     	 add r7,sp,#0
 173              	.LCFI13:
 174              	 .cfi_def_cfa_register 7
 175 0006 7860     	 str r0,[r7,#4]
 176 0008 3960     	 str r1,[r7]
  99:C:/Users/Yushev/git/wpcqi-optiga-trust-charge/optiga/optiga/comms\optiga_comms_ifx_i2c.c ****     p_optiga_comms->upper_layer_handler = handler;
 177              	 .loc 1 99 0
 178 000a 7B68     	 ldr r3,[r7,#4]
 179 000c 3A68     	 ldr r2,[r7]
 180 000e 9A60     	 str r2,[r3,#8]
 100:C:/Users/Yushev/git/wpcqi-optiga-trust-charge/optiga/optiga/comms\optiga_comms_ifx_i2c.c ****     return (0);
 181              	 .loc 1 100 0
 182 0010 0023     	 movs r3,#0
 101:C:/Users/Yushev/git/wpcqi-optiga-trust-charge/optiga/optiga/comms\optiga_comms_ifx_i2c.c **** }
 183              	 .loc 1 101 0
 184 0012 1846     	 mov r0,r3
 185 0014 0C37     	 adds r7,r7,#12
 186              	.LCFI14:
 187              	 .cfi_def_cfa_offset 4
 188 0016 BD46     	 mov sp,r7
 189              	.LCFI15:
 190              	 .cfi_def_cfa_register 13
 191              	 
 192 0018 5DF8047B 	 ldr r7,[sp],#4
 193              	.LCFI16:
 194              	 .cfi_restore 7
 195              	 .cfi_def_cfa_offset 0
 196 001c 7047     	 bx lr
 197              	 .cfi_endproc
 198              	.LFE2:
 200 001e 00BF     	 .section .text.optiga_comms_set_callback_context,"ax",%progbits
 201              	 .align 2
 202              	 .global optiga_comms_set_callback_context
 203              	 .thumb
 204              	 .thumb_func
 206              	optiga_comms_set_callback_context:
 207              	.LFB3:
 102:C:/Users/Yushev/git/wpcqi-optiga-trust-charge/optiga/optiga/comms\optiga_comms_ifx_i2c.c **** 
 103:C:/Users/Yushev/git/wpcqi-optiga-trust-charge/optiga/optiga/comms\optiga_comms_ifx_i2c.c **** optiga_lib_status_t optiga_comms_set_callback_context(optiga_comms_t * p_optiga_comms, void * conte
 104:C:/Users/Yushev/git/wpcqi-optiga-trust-charge/optiga/optiga/comms\optiga_comms_ifx_i2c.c **** {
 208              	 .loc 1 104 0
 209              	 .cfi_startproc
 210              	 
 211              	 
 212              	 
 213 0000 80B4     	 push {r7}
 214              	.LCFI17:
 215              	 .cfi_def_cfa_offset 4
 216              	 .cfi_offset 7,-4
 217 0002 83B0     	 sub sp,sp,#12
 218              	.LCFI18:
 219              	 .cfi_def_cfa_offset 16
 220 0004 00AF     	 add r7,sp,#0
 221              	.LCFI19:
 222              	 .cfi_def_cfa_register 7
 223 0006 7860     	 str r0,[r7,#4]
 224 0008 3960     	 str r1,[r7]
 105:C:/Users/Yushev/git/wpcqi-optiga-trust-charge/optiga/optiga/comms\optiga_comms_ifx_i2c.c ****     p_optiga_comms->p_upper_layer_ctx = context;
 225              	 .loc 1 105 0
 226 000a 7B68     	 ldr r3,[r7,#4]
 227 000c 3A68     	 ldr r2,[r7]
 228 000e 5A60     	 str r2,[r3,#4]
 106:C:/Users/Yushev/git/wpcqi-optiga-trust-charge/optiga/optiga/comms\optiga_comms_ifx_i2c.c ****     return (0);
 229              	 .loc 1 106 0
 230 0010 0023     	 movs r3,#0
 107:C:/Users/Yushev/git/wpcqi-optiga-trust-charge/optiga/optiga/comms\optiga_comms_ifx_i2c.c **** }
 231              	 .loc 1 107 0
 232 0012 1846     	 mov r0,r3
 233 0014 0C37     	 adds r7,r7,#12
 234              	.LCFI20:
 235              	 .cfi_def_cfa_offset 4
 236 0016 BD46     	 mov sp,r7
 237              	.LCFI21:
 238              	 .cfi_def_cfa_register 13
 239              	 
 240 0018 5DF8047B 	 ldr r7,[sp],#4
 241              	.LCFI22:
 242              	 .cfi_restore 7
 243              	 .cfi_def_cfa_offset 0
 244 001c 7047     	 bx lr
 245              	 .cfi_endproc
 246              	.LFE3:
 248 001e 00BF     	 .section .text.optiga_comms_open,"ax",%progbits
 249              	 .align 2
 250              	 .global optiga_comms_open
 251              	 .thumb
 252              	 .thumb_func
 254              	optiga_comms_open:
 255              	.LFB4:
 108:C:/Users/Yushev/git/wpcqi-optiga-trust-charge/optiga/optiga/comms\optiga_comms_ifx_i2c.c **** 
 109:C:/Users/Yushev/git/wpcqi-optiga-trust-charge/optiga/optiga/comms\optiga_comms_ifx_i2c.c **** 
 110:C:/Users/Yushev/git/wpcqi-optiga-trust-charge/optiga/optiga/comms\optiga_comms_ifx_i2c.c **** /// @endcond
 111:C:/Users/Yushev/git/wpcqi-optiga-trust-charge/optiga/optiga/comms\optiga_comms_ifx_i2c.c **** 
 112:C:/Users/Yushev/git/wpcqi-optiga-trust-charge/optiga/optiga/comms\optiga_comms_ifx_i2c.c **** optiga_lib_status_t optiga_comms_open(optiga_comms_t * p_ctx)
 113:C:/Users/Yushev/git/wpcqi-optiga-trust-charge/optiga/optiga/comms\optiga_comms_ifx_i2c.c **** {
 256              	 .loc 1 113 0
 257              	 .cfi_startproc
 258              	 
 259              	 
 260 0000 80B5     	 push {r7,lr}
 261              	.LCFI23:
 262              	 .cfi_def_cfa_offset 8
 263              	 .cfi_offset 7,-8
 264              	 .cfi_offset 14,-4
 265 0002 84B0     	 sub sp,sp,#16
 266              	.LCFI24:
 267              	 .cfi_def_cfa_offset 24
 268 0004 00AF     	 add r7,sp,#0
 269              	.LCFI25:
 270              	 .cfi_def_cfa_register 7
 271 0006 7860     	 str r0,[r7,#4]
 114:C:/Users/Yushev/git/wpcqi-optiga-trust-charge/optiga/optiga/comms\optiga_comms_ifx_i2c.c ****     optiga_lib_status_t status = OPTIGA_COMMS_ERROR;
 272              	 .loc 1 114 0
 273 0008 4FF48173 	 mov r3,#258
 274 000c FB81     	 strh r3,[r7,#14]
 115:C:/Users/Yushev/git/wpcqi-optiga-trust-charge/optiga/optiga/comms\optiga_comms_ifx_i2c.c ****     if (OPTIGA_COMMS_SUCCESS == check_optiga_comms_state(p_ctx))
 275              	 .loc 1 115 0
 276 000e 7868     	 ldr r0,[r7,#4]
 277 0010 FFF7FEFF 	 bl check_optiga_comms_state
 278 0014 0346     	 mov r3,r0
 279 0016 002B     	 cmp r3,#0
 280 0018 1AD1     	 bne .L13
 116:C:/Users/Yushev/git/wpcqi-optiga-trust-charge/optiga/optiga/comms\optiga_comms_ifx_i2c.c ****     {
 117:C:/Users/Yushev/git/wpcqi-optiga-trust-charge/optiga/optiga/comms\optiga_comms_ifx_i2c.c ****         ((ifx_i2c_context_t * )(p_ctx->p_comms_ctx))->p_upper_layer_ctx = (void * )p_ctx;
 281              	 .loc 1 117 0
 282 001a 7B68     	 ldr r3,[r7,#4]
 283 001c 1B68     	 ldr r3,[r3]
 284 001e 7A68     	 ldr r2,[r7,#4]
 285 0020 9A61     	 str r2,[r3,#24]
 118:C:/Users/Yushev/git/wpcqi-optiga-trust-charge/optiga/optiga/comms\optiga_comms_ifx_i2c.c ****         ((ifx_i2c_context_t * )(p_ctx->p_comms_ctx))->upper_layer_event_handler = ifx_i2c_event_han
 286              	 .loc 1 118 0
 287 0022 7B68     	 ldr r3,[r7,#4]
 288 0024 1B68     	 ldr r3,[r3]
 289 0026 0D4A     	 ldr r2,.L15
 290 0028 5A61     	 str r2,[r3,#20]
 119:C:/Users/Yushev/git/wpcqi-optiga-trust-charge/optiga/optiga/comms\optiga_comms_ifx_i2c.c **** #ifdef OPTIGA_COMMS_SHIELDED_CONNECTION
 120:C:/Users/Yushev/git/wpcqi-optiga-trust-charge/optiga/optiga/comms\optiga_comms_ifx_i2c.c ****         ((ifx_i2c_context_t * )(p_ctx->p_comms_ctx))->manage_context_operation = p_ctx->manage_cont
 121:C:/Users/Yushev/git/wpcqi-optiga-trust-charge/optiga/optiga/comms\optiga_comms_ifx_i2c.c **** #endif
 122:C:/Users/Yushev/git/wpcqi-optiga-trust-charge/optiga/optiga/comms\optiga_comms_ifx_i2c.c ****         ((ifx_i2c_context_t * )(p_ctx->p_comms_ctx))->pal_os_event_ctx = p_ctx->p_pal_os_event_ctx;
 291              	 .loc 1 122 0
 292 002a 7B68     	 ldr r3,[r7,#4]
 293 002c 1B68     	 ldr r3,[r3]
 294 002e 7A68     	 ldr r2,[r7,#4]
 295 0030 1269     	 ldr r2,[r2,#16]
 296 0032 C3F8D423 	 str r2,[r3,#980]
 123:C:/Users/Yushev/git/wpcqi-optiga-trust-charge/optiga/optiga/comms\optiga_comms_ifx_i2c.c **** 
 124:C:/Users/Yushev/git/wpcqi-optiga-trust-charge/optiga/optiga/comms\optiga_comms_ifx_i2c.c ****         status = ifx_i2c_open((ifx_i2c_context_t * )(p_ctx->p_comms_ctx));
 297              	 .loc 1 124 0
 298 0036 7B68     	 ldr r3,[r7,#4]
 299 0038 1B68     	 ldr r3,[r3]
 300 003a 1846     	 mov r0,r3
 301 003c FFF7FEFF 	 bl ifx_i2c_open
 302 0040 0346     	 mov r3,r0
 303 0042 FB81     	 strh r3,[r7,#14]
 125:C:/Users/Yushev/git/wpcqi-optiga-trust-charge/optiga/optiga/comms\optiga_comms_ifx_i2c.c ****         if (IFX_I2C_STACK_SUCCESS != status)
 304              	 .loc 1 125 0
 305 0044 FB89     	 ldrh r3,[r7,#14]
 306 0046 002B     	 cmp r3,#0
 307 0048 02D0     	 beq .L13
 126:C:/Users/Yushev/git/wpcqi-optiga-trust-charge/optiga/optiga/comms\optiga_comms_ifx_i2c.c ****         {
 127:C:/Users/Yushev/git/wpcqi-optiga-trust-charge/optiga/optiga/comms\optiga_comms_ifx_i2c.c ****             p_ctx->state = OPTIGA_COMMS_FREE;
 308              	 .loc 1 127 0
 309 004a 7B68     	 ldr r3,[r7,#4]
 310 004c 0022     	 movs r2,#0
 311 004e 5A73     	 strb r2,[r3,#13]
 312              	.L13:
 128:C:/Users/Yushev/git/wpcqi-optiga-trust-charge/optiga/optiga/comms\optiga_comms_ifx_i2c.c ****         }
 129:C:/Users/Yushev/git/wpcqi-optiga-trust-charge/optiga/optiga/comms\optiga_comms_ifx_i2c.c ****     }
 130:C:/Users/Yushev/git/wpcqi-optiga-trust-charge/optiga/optiga/comms\optiga_comms_ifx_i2c.c ****     return (status);
 313              	 .loc 1 130 0
 314 0050 FB89     	 ldrh r3,[r7,#14]
 131:C:/Users/Yushev/git/wpcqi-optiga-trust-charge/optiga/optiga/comms\optiga_comms_ifx_i2c.c **** }
 315              	 .loc 1 131 0
 316 0052 1846     	 mov r0,r3
 317 0054 1037     	 adds r7,r7,#16
 318              	.LCFI26:
 319              	 .cfi_def_cfa_offset 8
 320 0056 BD46     	 mov sp,r7
 321              	.LCFI27:
 322              	 .cfi_def_cfa_register 13
 323              	 
 324 0058 80BD     	 pop {r7,pc}
 325              	.L16:
 326 005a 00BF     	 .align 2
 327              	.L15:
 328 005c 00000000 	 .word ifx_i2c_event_handler
 329              	 .cfi_endproc
 330              	.LFE4:
 332              	 .section .text.optiga_comms_reset,"ax",%progbits
 333              	 .align 2
 334              	 .global optiga_comms_reset
 335              	 .thumb
 336              	 .thumb_func
 338              	optiga_comms_reset:
 339              	.LFB5:
 132:C:/Users/Yushev/git/wpcqi-optiga-trust-charge/optiga/optiga/comms\optiga_comms_ifx_i2c.c **** 
 133:C:/Users/Yushev/git/wpcqi-optiga-trust-charge/optiga/optiga/comms\optiga_comms_ifx_i2c.c **** optiga_lib_status_t optiga_comms_reset(optiga_comms_t * p_ctx, uint8_t reset_type)
 134:C:/Users/Yushev/git/wpcqi-optiga-trust-charge/optiga/optiga/comms\optiga_comms_ifx_i2c.c **** {
 340              	 .loc 1 134 0
 341              	 .cfi_startproc
 342              	 
 343              	 
 344 0000 80B5     	 push {r7,lr}
 345              	.LCFI28:
 346              	 .cfi_def_cfa_offset 8
 347              	 .cfi_offset 7,-8
 348              	 .cfi_offset 14,-4
 349 0002 84B0     	 sub sp,sp,#16
 350              	.LCFI29:
 351              	 .cfi_def_cfa_offset 24
 352 0004 00AF     	 add r7,sp,#0
 353              	.LCFI30:
 354              	 .cfi_def_cfa_register 7
 355 0006 7860     	 str r0,[r7,#4]
 356 0008 0B46     	 mov r3,r1
 357 000a FB70     	 strb r3,[r7,#3]
 135:C:/Users/Yushev/git/wpcqi-optiga-trust-charge/optiga/optiga/comms\optiga_comms_ifx_i2c.c ****     optiga_lib_status_t status = OPTIGA_COMMS_ERROR;
 358              	 .loc 1 135 0
 359 000c 4FF48173 	 mov r3,#258
 360 0010 FB81     	 strh r3,[r7,#14]
 136:C:/Users/Yushev/git/wpcqi-optiga-trust-charge/optiga/optiga/comms\optiga_comms_ifx_i2c.c ****     if (OPTIGA_COMMS_SUCCESS == check_optiga_comms_state(p_ctx))
 361              	 .loc 1 136 0
 362 0012 7868     	 ldr r0,[r7,#4]
 363 0014 FFF7FEFF 	 bl check_optiga_comms_state
 364 0018 0346     	 mov r3,r0
 365 001a 002B     	 cmp r3,#0
 366 001c 16D1     	 bne .L18
 137:C:/Users/Yushev/git/wpcqi-optiga-trust-charge/optiga/optiga/comms\optiga_comms_ifx_i2c.c ****     {
 138:C:/Users/Yushev/git/wpcqi-optiga-trust-charge/optiga/optiga/comms\optiga_comms_ifx_i2c.c ****         ((ifx_i2c_context_t * )(p_ctx->p_comms_ctx))->p_upper_layer_ctx = (void * )p_ctx;
 367              	 .loc 1 138 0
 368 001e 7B68     	 ldr r3,[r7,#4]
 369 0020 1B68     	 ldr r3,[r3]
 370 0022 7A68     	 ldr r2,[r7,#4]
 371 0024 9A61     	 str r2,[r3,#24]
 139:C:/Users/Yushev/git/wpcqi-optiga-trust-charge/optiga/optiga/comms\optiga_comms_ifx_i2c.c ****         ((ifx_i2c_context_t * )(p_ctx->p_comms_ctx))->upper_layer_event_handler = ifx_i2c_event_han
 372              	 .loc 1 139 0
 373 0026 7B68     	 ldr r3,[r7,#4]
 374 0028 1B68     	 ldr r3,[r3]
 375 002a 0B4A     	 ldr r2,.L20
 376 002c 5A61     	 str r2,[r3,#20]
 140:C:/Users/Yushev/git/wpcqi-optiga-trust-charge/optiga/optiga/comms\optiga_comms_ifx_i2c.c ****         status = ifx_i2c_reset((ifx_i2c_context_t * )(p_ctx->p_comms_ctx), (ifx_i2c_reset_type_t)re
 377              	 .loc 1 140 0
 378 002e 7B68     	 ldr r3,[r7,#4]
 379 0030 1A68     	 ldr r2,[r3]
 380 0032 FB78     	 ldrb r3,[r7,#3]
 381 0034 1046     	 mov r0,r2
 382 0036 1946     	 mov r1,r3
 383 0038 FFF7FEFF 	 bl ifx_i2c_reset
 384 003c 0346     	 mov r3,r0
 385 003e FB81     	 strh r3,[r7,#14]
 141:C:/Users/Yushev/git/wpcqi-optiga-trust-charge/optiga/optiga/comms\optiga_comms_ifx_i2c.c ****         if (IFX_I2C_STACK_SUCCESS != status)
 386              	 .loc 1 141 0
 387 0040 FB89     	 ldrh r3,[r7,#14]
 388 0042 002B     	 cmp r3,#0
 389 0044 02D0     	 beq .L18
 142:C:/Users/Yushev/git/wpcqi-optiga-trust-charge/optiga/optiga/comms\optiga_comms_ifx_i2c.c ****         {
 143:C:/Users/Yushev/git/wpcqi-optiga-trust-charge/optiga/optiga/comms\optiga_comms_ifx_i2c.c ****             p_ctx->state = OPTIGA_COMMS_FREE;
 390              	 .loc 1 143 0
 391 0046 7B68     	 ldr r3,[r7,#4]
 392 0048 0022     	 movs r2,#0
 393 004a 5A73     	 strb r2,[r3,#13]
 394              	.L18:
 144:C:/Users/Yushev/git/wpcqi-optiga-trust-charge/optiga/optiga/comms\optiga_comms_ifx_i2c.c ****         }
 145:C:/Users/Yushev/git/wpcqi-optiga-trust-charge/optiga/optiga/comms\optiga_comms_ifx_i2c.c ****     }
 146:C:/Users/Yushev/git/wpcqi-optiga-trust-charge/optiga/optiga/comms\optiga_comms_ifx_i2c.c ****     return (status);
 395              	 .loc 1 146 0
 396 004c FB89     	 ldrh r3,[r7,#14]
 147:C:/Users/Yushev/git/wpcqi-optiga-trust-charge/optiga/optiga/comms\optiga_comms_ifx_i2c.c **** }
 397              	 .loc 1 147 0
 398 004e 1846     	 mov r0,r3
 399 0050 1037     	 adds r7,r7,#16
 400              	.LCFI31:
 401              	 .cfi_def_cfa_offset 8
 402 0052 BD46     	 mov sp,r7
 403              	.LCFI32:
 404              	 .cfi_def_cfa_register 13
 405              	 
 406 0054 80BD     	 pop {r7,pc}
 407              	.L21:
 408 0056 00BF     	 .align 2
 409              	.L20:
 410 0058 00000000 	 .word ifx_i2c_event_handler
 411              	 .cfi_endproc
 412              	.LFE5:
 414              	 .section .text.optiga_comms_transceive,"ax",%progbits
 415              	 .align 2
 416              	 .global optiga_comms_transceive
 417              	 .thumb
 418              	 .thumb_func
 420              	optiga_comms_transceive:
 421              	.LFB6:
 148:C:/Users/Yushev/git/wpcqi-optiga-trust-charge/optiga/optiga/comms\optiga_comms_ifx_i2c.c **** 
 149:C:/Users/Yushev/git/wpcqi-optiga-trust-charge/optiga/optiga/comms\optiga_comms_ifx_i2c.c **** 
 150:C:/Users/Yushev/git/wpcqi-optiga-trust-charge/optiga/optiga/comms\optiga_comms_ifx_i2c.c **** optiga_lib_status_t optiga_comms_transceive(optiga_comms_t * p_ctx,
 151:C:/Users/Yushev/git/wpcqi-optiga-trust-charge/optiga/optiga/comms\optiga_comms_ifx_i2c.c ****                                             const uint8_t * p_tx_data,
 152:C:/Users/Yushev/git/wpcqi-optiga-trust-charge/optiga/optiga/comms\optiga_comms_ifx_i2c.c ****                                             uint16_t tx_data_length,
 153:C:/Users/Yushev/git/wpcqi-optiga-trust-charge/optiga/optiga/comms\optiga_comms_ifx_i2c.c ****                                             uint8_t * p_rx_data,
 154:C:/Users/Yushev/git/wpcqi-optiga-trust-charge/optiga/optiga/comms\optiga_comms_ifx_i2c.c ****                                             uint16_t * p_rx_data_len)
 155:C:/Users/Yushev/git/wpcqi-optiga-trust-charge/optiga/optiga/comms\optiga_comms_ifx_i2c.c **** {
 422              	 .loc 1 155 0
 423              	 .cfi_startproc
 424              	 
 425              	 
 426 0000 80B5     	 push {r7,lr}
 427              	.LCFI33:
 428              	 .cfi_def_cfa_offset 8
 429              	 .cfi_offset 7,-8
 430              	 .cfi_offset 14,-4
 431 0002 88B0     	 sub sp,sp,#32
 432              	.LCFI34:
 433              	 .cfi_def_cfa_offset 40
 434 0004 02AF     	 add r7,sp,#8
 435              	.LCFI35:
 436              	 .cfi_def_cfa 7,32
 437 0006 F860     	 str r0,[r7,#12]
 438 0008 B960     	 str r1,[r7,#8]
 439 000a 3B60     	 str r3,[r7]
 440 000c 1346     	 mov r3,r2
 441 000e FB80     	 strh r3,[r7,#6]
 156:C:/Users/Yushev/git/wpcqi-optiga-trust-charge/optiga/optiga/comms\optiga_comms_ifx_i2c.c ****     optiga_lib_status_t status = OPTIGA_COMMS_ERROR;
 442              	 .loc 1 156 0
 443 0010 4FF48173 	 mov r3,#258
 444 0014 FB82     	 strh r3,[r7,#22]
 157:C:/Users/Yushev/git/wpcqi-optiga-trust-charge/optiga/optiga/comms\optiga_comms_ifx_i2c.c ****     if (OPTIGA_COMMS_SUCCESS == check_optiga_comms_state(p_ctx))
 445              	 .loc 1 157 0
 446 0016 F868     	 ldr r0,[r7,#12]
 447 0018 FFF7FEFF 	 bl check_optiga_comms_state
 448 001c 0346     	 mov r3,r0
 449 001e 002B     	 cmp r3,#0
 450 0020 19D1     	 bne .L23
 158:C:/Users/Yushev/git/wpcqi-optiga-trust-charge/optiga/optiga/comms\optiga_comms_ifx_i2c.c ****     {
 159:C:/Users/Yushev/git/wpcqi-optiga-trust-charge/optiga/optiga/comms\optiga_comms_ifx_i2c.c ****         ((ifx_i2c_context_t * )(p_ctx->p_comms_ctx))->p_upper_layer_ctx = (void * )p_ctx;
 451              	 .loc 1 159 0
 452 0022 FB68     	 ldr r3,[r7,#12]
 453 0024 1B68     	 ldr r3,[r3]
 454 0026 FA68     	 ldr r2,[r7,#12]
 455 0028 9A61     	 str r2,[r3,#24]
 160:C:/Users/Yushev/git/wpcqi-optiga-trust-charge/optiga/optiga/comms\optiga_comms_ifx_i2c.c ****         ((ifx_i2c_context_t * )(p_ctx->p_comms_ctx))->upper_layer_event_handler = ifx_i2c_event_han
 456              	 .loc 1 160 0
 457 002a FB68     	 ldr r3,[r7,#12]
 458 002c 1B68     	 ldr r3,[r3]
 459 002e 0C4A     	 ldr r2,.L25
 460 0030 5A61     	 str r2,[r3,#20]
 161:C:/Users/Yushev/git/wpcqi-optiga-trust-charge/optiga/optiga/comms\optiga_comms_ifx_i2c.c **** #ifdef OPTIGA_COMMS_SHIELDED_CONNECTION
 162:C:/Users/Yushev/git/wpcqi-optiga-trust-charge/optiga/optiga/comms\optiga_comms_ifx_i2c.c ****         ((ifx_i2c_context_t * )(p_ctx->p_comms_ctx))->protection_level = p_ctx->protection_level;
 163:C:/Users/Yushev/git/wpcqi-optiga-trust-charge/optiga/optiga/comms\optiga_comms_ifx_i2c.c ****         ((ifx_i2c_context_t * )(p_ctx->p_comms_ctx))->protocol_version = p_ctx->protocol_version;
 164:C:/Users/Yushev/git/wpcqi-optiga-trust-charge/optiga/optiga/comms\optiga_comms_ifx_i2c.c ****         ((ifx_i2c_context_t * )(p_ctx->p_comms_ctx))->manage_context_operation = p_ctx->manage_cont
 165:C:/Users/Yushev/git/wpcqi-optiga-trust-charge/optiga/optiga/comms\optiga_comms_ifx_i2c.c **** #endif
 166:C:/Users/Yushev/git/wpcqi-optiga-trust-charge/optiga/optiga/comms\optiga_comms_ifx_i2c.c ****         status = (ifx_i2c_transceive((ifx_i2c_context_t * )(p_ctx->p_comms_ctx),
 461              	 .loc 1 166 0
 462 0032 FB68     	 ldr r3,[r7,#12]
 463 0034 1968     	 ldr r1,[r3]
 464 0036 FA88     	 ldrh r2,[r7,#6]
 465 0038 3B6A     	 ldr r3,[r7,#32]
 466 003a 0093     	 str r3,[sp]
 467 003c 0846     	 mov r0,r1
 468 003e B968     	 ldr r1,[r7,#8]
 469 0040 3B68     	 ldr r3,[r7]
 470 0042 FFF7FEFF 	 bl ifx_i2c_transceive
 471 0046 0346     	 mov r3,r0
 472 0048 FB82     	 strh r3,[r7,#22]
 167:C:/Users/Yushev/git/wpcqi-optiga-trust-charge/optiga/optiga/comms\optiga_comms_ifx_i2c.c ****                                      p_tx_data,
 168:C:/Users/Yushev/git/wpcqi-optiga-trust-charge/optiga/optiga/comms\optiga_comms_ifx_i2c.c ****                                      tx_data_length,
 169:C:/Users/Yushev/git/wpcqi-optiga-trust-charge/optiga/optiga/comms\optiga_comms_ifx_i2c.c ****                                      p_rx_data,
 170:C:/Users/Yushev/git/wpcqi-optiga-trust-charge/optiga/optiga/comms\optiga_comms_ifx_i2c.c ****                                      p_rx_data_len));
 171:C:/Users/Yushev/git/wpcqi-optiga-trust-charge/optiga/optiga/comms\optiga_comms_ifx_i2c.c ****         if (IFX_I2C_STACK_SUCCESS != status)
 473              	 .loc 1 171 0
 474 004a FB8A     	 ldrh r3,[r7,#22]
 475 004c 002B     	 cmp r3,#0
 476 004e 02D0     	 beq .L23
 172:C:/Users/Yushev/git/wpcqi-optiga-trust-charge/optiga/optiga/comms\optiga_comms_ifx_i2c.c ****         {
 173:C:/Users/Yushev/git/wpcqi-optiga-trust-charge/optiga/optiga/comms\optiga_comms_ifx_i2c.c ****             p_ctx->state = OPTIGA_COMMS_FREE;
 477              	 .loc 1 173 0
 478 0050 FB68     	 ldr r3,[r7,#12]
 479 0052 0022     	 movs r2,#0
 480 0054 5A73     	 strb r2,[r3,#13]
 481              	.L23:
 174:C:/Users/Yushev/git/wpcqi-optiga-trust-charge/optiga/optiga/comms\optiga_comms_ifx_i2c.c ****         }
 175:C:/Users/Yushev/git/wpcqi-optiga-trust-charge/optiga/optiga/comms\optiga_comms_ifx_i2c.c ****     }
 176:C:/Users/Yushev/git/wpcqi-optiga-trust-charge/optiga/optiga/comms\optiga_comms_ifx_i2c.c ****     return (status);
 482              	 .loc 1 176 0
 483 0056 FB8A     	 ldrh r3,[r7,#22]
 177:C:/Users/Yushev/git/wpcqi-optiga-trust-charge/optiga/optiga/comms\optiga_comms_ifx_i2c.c **** }
 484              	 .loc 1 177 0
 485 0058 1846     	 mov r0,r3
 486 005a 1837     	 adds r7,r7,#24
 487              	.LCFI36:
 488              	 .cfi_def_cfa_offset 8
 489 005c BD46     	 mov sp,r7
 490              	.LCFI37:
 491              	 .cfi_def_cfa_register 13
 492              	 
 493 005e 80BD     	 pop {r7,pc}
 494              	.L26:
 495              	 .align 2
 496              	.L25:
 497 0060 00000000 	 .word ifx_i2c_event_handler
 498              	 .cfi_endproc
 499              	.LFE6:
 501              	 .section .text.optiga_comms_close,"ax",%progbits
 502              	 .align 2
 503              	 .global optiga_comms_close
 504              	 .thumb
 505              	 .thumb_func
 507              	optiga_comms_close:
 508              	.LFB7:
 178:C:/Users/Yushev/git/wpcqi-optiga-trust-charge/optiga/optiga/comms\optiga_comms_ifx_i2c.c **** 
 179:C:/Users/Yushev/git/wpcqi-optiga-trust-charge/optiga/optiga/comms\optiga_comms_ifx_i2c.c **** 
 180:C:/Users/Yushev/git/wpcqi-optiga-trust-charge/optiga/optiga/comms\optiga_comms_ifx_i2c.c **** optiga_lib_status_t optiga_comms_close(optiga_comms_t * p_ctx)
 181:C:/Users/Yushev/git/wpcqi-optiga-trust-charge/optiga/optiga/comms\optiga_comms_ifx_i2c.c **** {
 509              	 .loc 1 181 0
 510              	 .cfi_startproc
 511              	 
 512              	 
 513 0000 80B5     	 push {r7,lr}
 514              	.LCFI38:
 515              	 .cfi_def_cfa_offset 8
 516              	 .cfi_offset 7,-8
 517              	 .cfi_offset 14,-4
 518 0002 84B0     	 sub sp,sp,#16
 519              	.LCFI39:
 520              	 .cfi_def_cfa_offset 24
 521 0004 00AF     	 add r7,sp,#0
 522              	.LCFI40:
 523              	 .cfi_def_cfa_register 7
 524 0006 7860     	 str r0,[r7,#4]
 182:C:/Users/Yushev/git/wpcqi-optiga-trust-charge/optiga/optiga/comms\optiga_comms_ifx_i2c.c ****     optiga_lib_status_t status = OPTIGA_COMMS_ERROR;
 525              	 .loc 1 182 0
 526 0008 4FF48173 	 mov r3,#258
 527 000c FB81     	 strh r3,[r7,#14]
 183:C:/Users/Yushev/git/wpcqi-optiga-trust-charge/optiga/optiga/comms\optiga_comms_ifx_i2c.c ****     if (OPTIGA_COMMS_SUCCESS == check_optiga_comms_state(p_ctx))
 528              	 .loc 1 183 0
 529 000e 7868     	 ldr r0,[r7,#4]
 530 0010 FFF7FEFF 	 bl check_optiga_comms_state
 531 0014 0346     	 mov r3,r0
 532 0016 002B     	 cmp r3,#0
 533 0018 14D1     	 bne .L28
 184:C:/Users/Yushev/git/wpcqi-optiga-trust-charge/optiga/optiga/comms\optiga_comms_ifx_i2c.c ****     {
 185:C:/Users/Yushev/git/wpcqi-optiga-trust-charge/optiga/optiga/comms\optiga_comms_ifx_i2c.c ****         ((ifx_i2c_context_t * )(p_ctx->p_comms_ctx))->p_upper_layer_ctx = (void * )p_ctx;
 534              	 .loc 1 185 0
 535 001a 7B68     	 ldr r3,[r7,#4]
 536 001c 1B68     	 ldr r3,[r3]
 537 001e 7A68     	 ldr r2,[r7,#4]
 538 0020 9A61     	 str r2,[r3,#24]
 186:C:/Users/Yushev/git/wpcqi-optiga-trust-charge/optiga/optiga/comms\optiga_comms_ifx_i2c.c ****         ((ifx_i2c_context_t * )(p_ctx->p_comms_ctx))->upper_layer_event_handler = ifx_i2c_event_han
 539              	 .loc 1 186 0
 540 0022 7B68     	 ldr r3,[r7,#4]
 541 0024 1B68     	 ldr r3,[r3]
 542 0026 0A4A     	 ldr r2,.L30
 543 0028 5A61     	 str r2,[r3,#20]
 187:C:/Users/Yushev/git/wpcqi-optiga-trust-charge/optiga/optiga/comms\optiga_comms_ifx_i2c.c **** #ifdef OPTIGA_COMMS_SHIELDED_CONNECTION
 188:C:/Users/Yushev/git/wpcqi-optiga-trust-charge/optiga/optiga/comms\optiga_comms_ifx_i2c.c ****         ((ifx_i2c_context_t * )(p_ctx->p_comms_ctx))->manage_context_operation = p_ctx->manage_cont
 189:C:/Users/Yushev/git/wpcqi-optiga-trust-charge/optiga/optiga/comms\optiga_comms_ifx_i2c.c **** #endif
 190:C:/Users/Yushev/git/wpcqi-optiga-trust-charge/optiga/optiga/comms\optiga_comms_ifx_i2c.c ****         status = ifx_i2c_close((ifx_i2c_context_t * )(p_ctx->p_comms_ctx));
 544              	 .loc 1 190 0
 545 002a 7B68     	 ldr r3,[r7,#4]
 546 002c 1B68     	 ldr r3,[r3]
 547 002e 1846     	 mov r0,r3
 548 0030 FFF7FEFF 	 bl ifx_i2c_close
 549 0034 0346     	 mov r3,r0
 550 0036 FB81     	 strh r3,[r7,#14]
 191:C:/Users/Yushev/git/wpcqi-optiga-trust-charge/optiga/optiga/comms\optiga_comms_ifx_i2c.c ****         if (IFX_I2C_STACK_SUCCESS != status)
 551              	 .loc 1 191 0
 552 0038 FB89     	 ldrh r3,[r7,#14]
 553 003a 002B     	 cmp r3,#0
 554 003c 02D0     	 beq .L28
 192:C:/Users/Yushev/git/wpcqi-optiga-trust-charge/optiga/optiga/comms\optiga_comms_ifx_i2c.c ****         {
 193:C:/Users/Yushev/git/wpcqi-optiga-trust-charge/optiga/optiga/comms\optiga_comms_ifx_i2c.c ****             p_ctx->state = OPTIGA_COMMS_FREE;
 555              	 .loc 1 193 0
 556 003e 7B68     	 ldr r3,[r7,#4]
 557 0040 0022     	 movs r2,#0
 558 0042 5A73     	 strb r2,[r3,#13]
 559              	.L28:
 194:C:/Users/Yushev/git/wpcqi-optiga-trust-charge/optiga/optiga/comms\optiga_comms_ifx_i2c.c ****         }
 195:C:/Users/Yushev/git/wpcqi-optiga-trust-charge/optiga/optiga/comms\optiga_comms_ifx_i2c.c ****     }
 196:C:/Users/Yushev/git/wpcqi-optiga-trust-charge/optiga/optiga/comms\optiga_comms_ifx_i2c.c ****     return (status);
 560              	 .loc 1 196 0
 561 0044 FB89     	 ldrh r3,[r7,#14]
 197:C:/Users/Yushev/git/wpcqi-optiga-trust-charge/optiga/optiga/comms\optiga_comms_ifx_i2c.c **** }
 562              	 .loc 1 197 0
 563 0046 1846     	 mov r0,r3
 564 0048 1037     	 adds r7,r7,#16
 565              	.LCFI41:
 566              	 .cfi_def_cfa_offset 8
 567 004a BD46     	 mov sp,r7
 568              	.LCFI42:
 569              	 .cfi_def_cfa_register 13
 570              	 
 571 004c 80BD     	 pop {r7,pc}
 572              	.L31:
 573 004e 00BF     	 .align 2
 574              	.L30:
 575 0050 00000000 	 .word ifx_i2c_event_handler
 576              	 .cfi_endproc
 577              	.LFE7:
 579              	 .section .text.check_optiga_comms_state,"ax",%progbits
 580              	 .align 2
 581              	 .thumb
 582              	 .thumb_func
 584              	check_optiga_comms_state:
 585              	.LFB8:
 198:C:/Users/Yushev/git/wpcqi-optiga-trust-charge/optiga/optiga/comms\optiga_comms_ifx_i2c.c **** 
 199:C:/Users/Yushev/git/wpcqi-optiga-trust-charge/optiga/optiga/comms\optiga_comms_ifx_i2c.c **** /// @cond hidden
 200:C:/Users/Yushev/git/wpcqi-optiga-trust-charge/optiga/optiga/comms\optiga_comms_ifx_i2c.c **** _STATIC_H optiga_lib_status_t check_optiga_comms_state(optiga_comms_t * p_ctx)
 201:C:/Users/Yushev/git/wpcqi-optiga-trust-charge/optiga/optiga/comms\optiga_comms_ifx_i2c.c **** {
 586              	 .loc 1 201 0
 587              	 .cfi_startproc
 588              	 
 589              	 
 590              	 
 591 0000 80B4     	 push {r7}
 592              	.LCFI43:
 593              	 .cfi_def_cfa_offset 4
 594              	 .cfi_offset 7,-4
 595 0002 85B0     	 sub sp,sp,#20
 596              	.LCFI44:
 597              	 .cfi_def_cfa_offset 24
 598 0004 00AF     	 add r7,sp,#0
 599              	.LCFI45:
 600              	 .cfi_def_cfa_register 7
 601 0006 7860     	 str r0,[r7,#4]
 202:C:/Users/Yushev/git/wpcqi-optiga-trust-charge/optiga/optiga/comms\optiga_comms_ifx_i2c.c ****     optiga_lib_status_t status = OPTIGA_COMMS_ERROR;
 602              	 .loc 1 202 0
 603 0008 4FF48173 	 mov r3,#258
 604 000c FB81     	 strh r3,[r7,#14]
 203:C:/Users/Yushev/git/wpcqi-optiga-trust-charge/optiga/optiga/comms\optiga_comms_ifx_i2c.c ****     if ((NULL != p_ctx) && (OPTIGA_COMMS_INUSE != p_ctx->state))
 605              	 .loc 1 203 0
 606 000e 7B68     	 ldr r3,[r7,#4]
 607 0010 002B     	 cmp r3,#0
 608 0012 08D0     	 beq .L33
 609              	 .loc 1 203 0 is_stmt 0 discriminator 1
 610 0014 7B68     	 ldr r3,[r7,#4]
 611 0016 5B7B     	 ldrb r3,[r3,#13]
 612 0018 012B     	 cmp r3,#1
 613 001a 04D0     	 beq .L33
 204:C:/Users/Yushev/git/wpcqi-optiga-trust-charge/optiga/optiga/comms\optiga_comms_ifx_i2c.c ****     {
 205:C:/Users/Yushev/git/wpcqi-optiga-trust-charge/optiga/optiga/comms\optiga_comms_ifx_i2c.c ****         p_ctx->state = OPTIGA_COMMS_INUSE;
 614              	 .loc 1 205 0 is_stmt 1
 615 001c 7B68     	 ldr r3,[r7,#4]
 616 001e 0122     	 movs r2,#1
 617 0020 5A73     	 strb r2,[r3,#13]
 206:C:/Users/Yushev/git/wpcqi-optiga-trust-charge/optiga/optiga/comms\optiga_comms_ifx_i2c.c ****         status = OPTIGA_COMMS_SUCCESS;
 618              	 .loc 1 206 0
 619 0022 0023     	 movs r3,#0
 620 0024 FB81     	 strh r3,[r7,#14]
 621              	.L33:
 207:C:/Users/Yushev/git/wpcqi-optiga-trust-charge/optiga/optiga/comms\optiga_comms_ifx_i2c.c ****     }
 208:C:/Users/Yushev/git/wpcqi-optiga-trust-charge/optiga/optiga/comms\optiga_comms_ifx_i2c.c ****     return (status);
 622              	 .loc 1 208 0
 623 0026 FB89     	 ldrh r3,[r7,#14]
 209:C:/Users/Yushev/git/wpcqi-optiga-trust-charge/optiga/optiga/comms\optiga_comms_ifx_i2c.c **** }
 624              	 .loc 1 209 0
 625 0028 1846     	 mov r0,r3
 626 002a 1437     	 adds r7,r7,#20
 627              	.LCFI46:
 628              	 .cfi_def_cfa_offset 4
 629 002c BD46     	 mov sp,r7
 630              	.LCFI47:
 631              	 .cfi_def_cfa_register 13
 632              	 
 633 002e 5DF8047B 	 ldr r7,[sp],#4
 634              	.LCFI48:
 635              	 .cfi_restore 7
 636              	 .cfi_def_cfa_offset 0
 637 0032 7047     	 bx lr
 638              	 .cfi_endproc
 639              	.LFE8:
 641              	 .section .text.ifx_i2c_event_handler,"ax",%progbits
 642              	 .align 2
 643              	 .thumb
 644              	 .thumb_func
 646              	ifx_i2c_event_handler:
 647              	.LFB9:
 210:C:/Users/Yushev/git/wpcqi-optiga-trust-charge/optiga/optiga/comms\optiga_comms_ifx_i2c.c **** 
 211:C:/Users/Yushev/git/wpcqi-optiga-trust-charge/optiga/optiga/comms\optiga_comms_ifx_i2c.c **** //lint --e{818} suppress "This is ignored as upper layer handler function prototype requires this a
 212:C:/Users/Yushev/git/wpcqi-optiga-trust-charge/optiga/optiga/comms\optiga_comms_ifx_i2c.c **** _STATIC_H void ifx_i2c_event_handler(void * p_upper_layer_ctx, optiga_lib_status_t event)
 213:C:/Users/Yushev/git/wpcqi-optiga-trust-charge/optiga/optiga/comms\optiga_comms_ifx_i2c.c **** {
 648              	 .loc 1 213 0
 649              	 .cfi_startproc
 650              	 
 651              	 
 652 0000 80B5     	 push {r7,lr}
 653              	.LCFI49:
 654              	 .cfi_def_cfa_offset 8
 655              	 .cfi_offset 7,-8
 656              	 .cfi_offset 14,-4
 657 0002 84B0     	 sub sp,sp,#16
 658              	.LCFI50:
 659              	 .cfi_def_cfa_offset 24
 660 0004 00AF     	 add r7,sp,#0
 661              	.LCFI51:
 662              	 .cfi_def_cfa_register 7
 663 0006 7860     	 str r0,[r7,#4]
 664 0008 0B46     	 mov r3,r1
 665 000a 7B80     	 strh r3,[r7,#2]
 214:C:/Users/Yushev/git/wpcqi-optiga-trust-charge/optiga/optiga/comms\optiga_comms_ifx_i2c.c ****     void * ctx = ((optiga_comms_t * )p_upper_layer_ctx)->p_upper_layer_ctx;
 666              	 .loc 1 214 0
 667 000c 7B68     	 ldr r3,[r7,#4]
 668 000e 5B68     	 ldr r3,[r3,#4]
 669 0010 FB60     	 str r3,[r7,#12]
 215:C:/Users/Yushev/git/wpcqi-optiga-trust-charge/optiga/optiga/comms\optiga_comms_ifx_i2c.c ****     ((optiga_comms_t * )p_upper_layer_ctx)->upper_layer_handler(ctx, event);
 670              	 .loc 1 215 0
 671 0012 7B68     	 ldr r3,[r7,#4]
 672 0014 9B68     	 ldr r3,[r3,#8]
 673 0016 7A88     	 ldrh r2,[r7,#2]
 674 0018 F868     	 ldr r0,[r7,#12]
 675 001a 1146     	 mov r1,r2
 676 001c 9847     	 blx r3
 216:C:/Users/Yushev/git/wpcqi-optiga-trust-charge/optiga/optiga/comms\optiga_comms_ifx_i2c.c ****     ((optiga_comms_t * )p_upper_layer_ctx)->state = OPTIGA_COMMS_FREE;
 677              	 .loc 1 216 0
 678 001e 7B68     	 ldr r3,[r7,#4]
 679 0020 0022     	 movs r2,#0
 680 0022 5A73     	 strb r2,[r3,#13]
 217:C:/Users/Yushev/git/wpcqi-optiga-trust-charge/optiga/optiga/comms\optiga_comms_ifx_i2c.c **** }
 681              	 .loc 1 217 0
 682 0024 1037     	 adds r7,r7,#16
 683              	.LCFI52:
 684              	 .cfi_def_cfa_offset 8
 685 0026 BD46     	 mov sp,r7
 686              	.LCFI53:
 687              	 .cfi_def_cfa_register 13
 688              	 
 689 0028 80BD     	 pop {r7,pc}
 690              	 .cfi_endproc
 691              	.LFE9:
 693 002a 00BF     	 .text
 694              	.Letext0:
 695              	 .file 2 "c:\\users\\yushev\\dave_4-4-2_32bit_2018-02-23\\dave-ide-4.4.2-32bit\\eclipse\\arm-gcc-49\\arm-none-eabi\\include\\machine\\_default_types.h"
 696              	 .file 3 "c:\\users\\yushev\\dave_4-4-2_32bit_2018-02-23\\dave-ide-4.4.2-32bit\\eclipse\\arm-gcc-49\\arm-none-eabi\\include\\stdint.h"
 697              	 .file 4 "C:/Users/Yushev/git/wpcqi-optiga-trust-charge/optiga/optiga/include/optiga/common/optiga_lib_types.h"
 698              	 .file 5 "C:/Users/Yushev/git/wpcqi-optiga-trust-charge/optiga/optiga/include/optiga/comms/optiga_comms.h"
 699              	 .file 6 "C:/Users/Yushev/git/wpcqi-optiga-trust-charge/optiga/optiga/include/optiga/pal/pal_i2c.h"
 700              	 .file 7 "C:/Users/Yushev/git/wpcqi-optiga-trust-charge/optiga/optiga/include/optiga/pal/pal_gpio.h"
 701              	 .file 8 "C:/Users/Yushev/git/wpcqi-optiga-trust-charge/optiga/optiga/include/optiga/ifx_i2c/ifx_i2c_config.h"
 702              	 .file 9 "C:/Users/Yushev/git/wpcqi-optiga-trust-charge/optiga/optiga/include/optiga/ifx_i2c/ifx_i2c.h"