   1              	 .syntax unified
   2              	 .cpu cortex-m4
   3              	 .eabi_attribute 27,3
   4              	 .fpu fpv4-sp-d16
   5              	 .eabi_attribute 20,1
   6              	 .eabi_attribute 21,1
   7              	 .eabi_attribute 23,3
   8              	 .eabi_attribute 24,1
   9              	 .eabi_attribute 25,1
  10              	 .eabi_attribute 26,1
  11              	 .eabi_attribute 30,4
  12              	 .eabi_attribute 34,1
  13              	 .eabi_attribute 18,4
  14              	 .thumb
  15              	 .file "clock_xmc4_conf.c"
  16              	 .text
  17              	.Ltext0:
  18              	 .cfi_sections .debug_frame
  19              	 .section .text.SystemCoreClockSetup,"ax",%progbits
  20              	 .align 1
  21              	 .global SystemCoreClockSetup
  22              	 .thumb
  23              	 .thumb_func
  25              	SystemCoreClockSetup:
  26              	.LFB179:
  27              	 .file 1 "C:/Users/Yushev/git/optiga-trust-qi/projects/xmc4700_relax_kit/common/Dave/Generated/CLOCK_XMC4/clock_xmc4_conf.c"
   1:C:/Users/Yushev/git/optiga-trust-qi/projects/xmc4700_relax_kit/common/Dave/Generated/CLOCK_XMC4\clock_xmc4_conf.c **** /**************************************************************************************************
   2:C:/Users/Yushev/git/optiga-trust-qi/projects/xmc4700_relax_kit/common/Dave/Generated/CLOCK_XMC4\clock_xmc4_conf.c **** * DAVE APP Name : CLOCK_XMC4       APP Version: 4.0.22
   3:C:/Users/Yushev/git/optiga-trust-qi/projects/xmc4700_relax_kit/common/Dave/Generated/CLOCK_XMC4\clock_xmc4_conf.c **** *
   4:C:/Users/Yushev/git/optiga-trust-qi/projects/xmc4700_relax_kit/common/Dave/Generated/CLOCK_XMC4\clock_xmc4_conf.c **** * NOTE:
   5:C:/Users/Yushev/git/optiga-trust-qi/projects/xmc4700_relax_kit/common/Dave/Generated/CLOCK_XMC4\clock_xmc4_conf.c **** * This file is generated by DAVE. Any manual modification done to this file will be lost when the c
   6:C:/Users/Yushev/git/optiga-trust-qi/projects/xmc4700_relax_kit/common/Dave/Generated/CLOCK_XMC4\clock_xmc4_conf.c **** ***************************************************************************************************
   7:C:/Users/Yushev/git/optiga-trust-qi/projects/xmc4700_relax_kit/common/Dave/Generated/CLOCK_XMC4\clock_xmc4_conf.c **** 
   8:C:/Users/Yushev/git/optiga-trust-qi/projects/xmc4700_relax_kit/common/Dave/Generated/CLOCK_XMC4\clock_xmc4_conf.c **** /**
   9:C:/Users/Yushev/git/optiga-trust-qi/projects/xmc4700_relax_kit/common/Dave/Generated/CLOCK_XMC4\clock_xmc4_conf.c ****  * @cond
  10:C:/Users/Yushev/git/optiga-trust-qi/projects/xmc4700_relax_kit/common/Dave/Generated/CLOCK_XMC4\clock_xmc4_conf.c ****  **************************************************************************************************
  11:C:/Users/Yushev/git/optiga-trust-qi/projects/xmc4700_relax_kit/common/Dave/Generated/CLOCK_XMC4\clock_xmc4_conf.c ****  *
  12:C:/Users/Yushev/git/optiga-trust-qi/projects/xmc4700_relax_kit/common/Dave/Generated/CLOCK_XMC4\clock_xmc4_conf.c ****  * Copyright (c) 2015-2016, Infineon Technologies AG
  13:C:/Users/Yushev/git/optiga-trust-qi/projects/xmc4700_relax_kit/common/Dave/Generated/CLOCK_XMC4\clock_xmc4_conf.c ****  * All rights reserved.
  14:C:/Users/Yushev/git/optiga-trust-qi/projects/xmc4700_relax_kit/common/Dave/Generated/CLOCK_XMC4\clock_xmc4_conf.c ****  *
  15:C:/Users/Yushev/git/optiga-trust-qi/projects/xmc4700_relax_kit/common/Dave/Generated/CLOCK_XMC4\clock_xmc4_conf.c ****  * Redistribution and use in source and binary forms, with or without modification,are permitted pr
  16:C:/Users/Yushev/git/optiga-trust-qi/projects/xmc4700_relax_kit/common/Dave/Generated/CLOCK_XMC4\clock_xmc4_conf.c ****  * following conditions are met:
  17:C:/Users/Yushev/git/optiga-trust-qi/projects/xmc4700_relax_kit/common/Dave/Generated/CLOCK_XMC4\clock_xmc4_conf.c ****  *
  18:C:/Users/Yushev/git/optiga-trust-qi/projects/xmc4700_relax_kit/common/Dave/Generated/CLOCK_XMC4\clock_xmc4_conf.c ****  *   Redistributions of source code must retain the above copyright notice, this list of conditions
  19:C:/Users/Yushev/git/optiga-trust-qi/projects/xmc4700_relax_kit/common/Dave/Generated/CLOCK_XMC4\clock_xmc4_conf.c ****  *   disclaimer.
  20:C:/Users/Yushev/git/optiga-trust-qi/projects/xmc4700_relax_kit/common/Dave/Generated/CLOCK_XMC4\clock_xmc4_conf.c ****  *
  21:C:/Users/Yushev/git/optiga-trust-qi/projects/xmc4700_relax_kit/common/Dave/Generated/CLOCK_XMC4\clock_xmc4_conf.c ****  *   Redistributions in binary form must reproduce the above copyright notice, this list of conditi
  22:C:/Users/Yushev/git/optiga-trust-qi/projects/xmc4700_relax_kit/common/Dave/Generated/CLOCK_XMC4\clock_xmc4_conf.c ****  *   following disclaimer in the documentation and/or other materials provided with the distributio
  23:C:/Users/Yushev/git/optiga-trust-qi/projects/xmc4700_relax_kit/common/Dave/Generated/CLOCK_XMC4\clock_xmc4_conf.c ****  *
  24:C:/Users/Yushev/git/optiga-trust-qi/projects/xmc4700_relax_kit/common/Dave/Generated/CLOCK_XMC4\clock_xmc4_conf.c ****  *   Neither the name of the copyright holders nor the names of its contributors may be used to end
  25:C:/Users/Yushev/git/optiga-trust-qi/projects/xmc4700_relax_kit/common/Dave/Generated/CLOCK_XMC4\clock_xmc4_conf.c ****  *   products derived from this software without specific prior written permission.
  26:C:/Users/Yushev/git/optiga-trust-qi/projects/xmc4700_relax_kit/common/Dave/Generated/CLOCK_XMC4\clock_xmc4_conf.c ****  *
  27:C:/Users/Yushev/git/optiga-trust-qi/projects/xmc4700_relax_kit/common/Dave/Generated/CLOCK_XMC4\clock_xmc4_conf.c ****  * THIS SOFTWARE IS PROVIDED BY THE COPYRIGHT HOLDERS AND CONTRIBUTORS "AS IS" AND ANY EXPRESS OR I
  28:C:/Users/Yushev/git/optiga-trust-qi/projects/xmc4700_relax_kit/common/Dave/Generated/CLOCK_XMC4\clock_xmc4_conf.c ****  * INCLUDING, BUT NOT LIMITED TO, THE IMPLIED WARRANTIES OF MERCHANTABILITY AND FITNESS FOR A PARTI
  29:C:/Users/Yushev/git/optiga-trust-qi/projects/xmc4700_relax_kit/common/Dave/Generated/CLOCK_XMC4\clock_xmc4_conf.c ****  * DISCLAIMED. IN NO EVENT SHALL THE COPYRIGHT HOLDER OR CONTRIBUTORS BE LIABLE  FOR ANY DIRECT, IN
  30:C:/Users/Yushev/git/optiga-trust-qi/projects/xmc4700_relax_kit/common/Dave/Generated/CLOCK_XMC4\clock_xmc4_conf.c ****  * SPECIAL, EXEMPLARY, OR CONSEQUENTIAL DAMAGES (INCLUDING, BUT NOT LIMITED TO, PROCUREMENT OF SUBS
  31:C:/Users/Yushev/git/optiga-trust-qi/projects/xmc4700_relax_kit/common/Dave/Generated/CLOCK_XMC4\clock_xmc4_conf.c ****  * SERVICES; LOSS OF USE, DATA, OR PROFITS; OR BUSINESS INTERRUPTION) HOWEVER CAUSED AND ON ANY THE
  32:C:/Users/Yushev/git/optiga-trust-qi/projects/xmc4700_relax_kit/common/Dave/Generated/CLOCK_XMC4\clock_xmc4_conf.c ****  * WHETHER IN CONTRACT, STRICT LIABILITY,OR TORT (INCLUDING NEGLIGENCE OR OTHERWISE) ARISING IN ANY
  33:C:/Users/Yushev/git/optiga-trust-qi/projects/xmc4700_relax_kit/common/Dave/Generated/CLOCK_XMC4\clock_xmc4_conf.c ****  * USE OF THIS SOFTWARE, EVEN IF ADVISED OF THE POSSIBILITY OF SUCH DAMAGE.
  34:C:/Users/Yushev/git/optiga-trust-qi/projects/xmc4700_relax_kit/common/Dave/Generated/CLOCK_XMC4\clock_xmc4_conf.c ****  *
  35:C:/Users/Yushev/git/optiga-trust-qi/projects/xmc4700_relax_kit/common/Dave/Generated/CLOCK_XMC4\clock_xmc4_conf.c ****  * To improve the quality of the software, users are encouraged to share modifications, enhancement
  36:C:/Users/Yushev/git/optiga-trust-qi/projects/xmc4700_relax_kit/common/Dave/Generated/CLOCK_XMC4\clock_xmc4_conf.c ****  * with Infineon Technologies AG (dave@infineon.com).
  37:C:/Users/Yushev/git/optiga-trust-qi/projects/xmc4700_relax_kit/common/Dave/Generated/CLOCK_XMC4\clock_xmc4_conf.c ****  **************************************************************************************************
  38:C:/Users/Yushev/git/optiga-trust-qi/projects/xmc4700_relax_kit/common/Dave/Generated/CLOCK_XMC4\clock_xmc4_conf.c ****  *
  39:C:/Users/Yushev/git/optiga-trust-qi/projects/xmc4700_relax_kit/common/Dave/Generated/CLOCK_XMC4\clock_xmc4_conf.c ****  * Change History
  40:C:/Users/Yushev/git/optiga-trust-qi/projects/xmc4700_relax_kit/common/Dave/Generated/CLOCK_XMC4\clock_xmc4_conf.c ****  * --------------
  41:C:/Users/Yushev/git/optiga-trust-qi/projects/xmc4700_relax_kit/common/Dave/Generated/CLOCK_XMC4\clock_xmc4_conf.c ****  * 2015-02-16:
  42:C:/Users/Yushev/git/optiga-trust-qi/projects/xmc4700_relax_kit/common/Dave/Generated/CLOCK_XMC4\clock_xmc4_conf.c ****  *     - Initial version for DAVEv4. <BR>
  43:C:/Users/Yushev/git/optiga-trust-qi/projects/xmc4700_relax_kit/common/Dave/Generated/CLOCK_XMC4\clock_xmc4_conf.c ****  * 2015-05-08:
  44:C:/Users/Yushev/git/optiga-trust-qi/projects/xmc4700_relax_kit/common/Dave/Generated/CLOCK_XMC4\clock_xmc4_conf.c ****  *     - No functional change; Updated to adhere latest guidelines <br>
  45:C:/Users/Yushev/git/optiga-trust-qi/projects/xmc4700_relax_kit/common/Dave/Generated/CLOCK_XMC4\clock_xmc4_conf.c ****  * 2015-10-08:
  46:C:/Users/Yushev/git/optiga-trust-qi/projects/xmc4700_relax_kit/common/Dave/Generated/CLOCK_XMC4\clock_xmc4_conf.c ****  *     - Ensured Trap status bit clearing for XMC48 and XMC47 device.<br>
  47:C:/Users/Yushev/git/optiga-trust-qi/projects/xmc4700_relax_kit/common/Dave/Generated/CLOCK_XMC4\clock_xmc4_conf.c ****  *     - USB PLL Configuration made based on user configuration.<br>
  48:C:/Users/Yushev/git/optiga-trust-qi/projects/xmc4700_relax_kit/common/Dave/Generated/CLOCK_XMC4\clock_xmc4_conf.c ****  *     - ECAT Configuration supported for XMC48 device.<br>
  49:C:/Users/Yushev/git/optiga-trust-qi/projects/xmc4700_relax_kit/common/Dave/Generated/CLOCK_XMC4\clock_xmc4_conf.c ****  * 2015-10-20:
  50:C:/Users/Yushev/git/optiga-trust-qi/projects/xmc4700_relax_kit/common/Dave/Generated/CLOCK_XMC4\clock_xmc4_conf.c ****  *     - High Precision Oscillator Settings are enabled only when it is required.<br>
  51:C:/Users/Yushev/git/optiga-trust-qi/projects/xmc4700_relax_kit/common/Dave/Generated/CLOCK_XMC4\clock_xmc4_conf.c ****  * 2015-12-01:
  52:C:/Users/Yushev/git/optiga-trust-qi/projects/xmc4700_relax_kit/common/Dave/Generated/CLOCK_XMC4\clock_xmc4_conf.c ****  *     - Ensured Trap status bit clearing for XMC43 device.<br>
  53:C:/Users/Yushev/git/optiga-trust-qi/projects/xmc4700_relax_kit/common/Dave/Generated/CLOCK_XMC4\clock_xmc4_conf.c ****  * 2015-12-20:
  54:C:/Users/Yushev/git/optiga-trust-qi/projects/xmc4700_relax_kit/common/Dave/Generated/CLOCK_XMC4\clock_xmc4_conf.c ****  *     - Disabled option supported in combo box for High Precision Oscillator Settings.<br>
  55:C:/Users/Yushev/git/optiga-trust-qi/projects/xmc4700_relax_kit/common/Dave/Generated/CLOCK_XMC4\clock_xmc4_conf.c ****  * 2015-12-24:
  56:C:/Users/Yushev/git/optiga-trust-qi/projects/xmc4700_relax_kit/common/Dave/Generated/CLOCK_XMC4\clock_xmc4_conf.c ****  *     - TRAP event settings are moved to SystemCoreClockSetup API from CLOCK_XMC4_Init. <BR>
  57:C:/Users/Yushev/git/optiga-trust-qi/projects/xmc4700_relax_kit/common/Dave/Generated/CLOCK_XMC4\clock_xmc4_conf.c ****  *     - Code size is improved. <BR>
  58:C:/Users/Yushev/git/optiga-trust-qi/projects/xmc4700_relax_kit/common/Dave/Generated/CLOCK_XMC4\clock_xmc4_conf.c ****  *     - OSCHP_GetFrequency API is made to available to user only when high precision oscillator is
  59:C:/Users/Yushev/git/optiga-trust-qi/projects/xmc4700_relax_kit/common/Dave/Generated/CLOCK_XMC4\clock_xmc4_conf.c ****  * 2016-01-08:
  60:C:/Users/Yushev/git/optiga-trust-qi/projects/xmc4700_relax_kit/common/Dave/Generated/CLOCK_XMC4\clock_xmc4_conf.c ****  *     - Removed clear trap status settings at the end of the clock initialization which was redund
  61:C:/Users/Yushev/git/optiga-trust-qi/projects/xmc4700_relax_kit/common/Dave/Generated/CLOCK_XMC4\clock_xmc4_conf.c ****  * 2016-05-25:
  62:C:/Users/Yushev/git/optiga-trust-qi/projects/xmc4700_relax_kit/common/Dave/Generated/CLOCK_XMC4\clock_xmc4_conf.c ****  *     - Ensured main PLL and USBPLL dependencies based on its checkbox enable via CLOCK_XMC4 APP G
  63:C:/Users/Yushev/git/optiga-trust-qi/projects/xmc4700_relax_kit/common/Dave/Generated/CLOCK_XMC4\clock_xmc4_conf.c ****  * 2016-07-08:
  64:C:/Users/Yushev/git/optiga-trust-qi/projects/xmc4700_relax_kit/common/Dave/Generated/CLOCK_XMC4\clock_xmc4_conf.c ****  *     - Fixed incorrect case for an included header.<br>
  65:C:/Users/Yushev/git/optiga-trust-qi/projects/xmc4700_relax_kit/common/Dave/Generated/CLOCK_XMC4\clock_xmc4_conf.c ****  *
  66:C:/Users/Yushev/git/optiga-trust-qi/projects/xmc4700_relax_kit/common/Dave/Generated/CLOCK_XMC4\clock_xmc4_conf.c ****  * @endcond
  67:C:/Users/Yushev/git/optiga-trust-qi/projects/xmc4700_relax_kit/common/Dave/Generated/CLOCK_XMC4\clock_xmc4_conf.c ****  *
  68:C:/Users/Yushev/git/optiga-trust-qi/projects/xmc4700_relax_kit/common/Dave/Generated/CLOCK_XMC4\clock_xmc4_conf.c ****  */
  69:C:/Users/Yushev/git/optiga-trust-qi/projects/xmc4700_relax_kit/common/Dave/Generated/CLOCK_XMC4\clock_xmc4_conf.c **** 
  70:C:/Users/Yushev/git/optiga-trust-qi/projects/xmc4700_relax_kit/common/Dave/Generated/CLOCK_XMC4\clock_xmc4_conf.c **** /**************************************************************************************************
  71:C:/Users/Yushev/git/optiga-trust-qi/projects/xmc4700_relax_kit/common/Dave/Generated/CLOCK_XMC4\clock_xmc4_conf.c ****  * HEADER FILES
  72:C:/Users/Yushev/git/optiga-trust-qi/projects/xmc4700_relax_kit/common/Dave/Generated/CLOCK_XMC4\clock_xmc4_conf.c ****  **************************************************************************************************
  73:C:/Users/Yushev/git/optiga-trust-qi/projects/xmc4700_relax_kit/common/Dave/Generated/CLOCK_XMC4\clock_xmc4_conf.c **** #include "clock_xmc4.h"
  74:C:/Users/Yushev/git/optiga-trust-qi/projects/xmc4700_relax_kit/common/Dave/Generated/CLOCK_XMC4\clock_xmc4_conf.c **** 
  75:C:/Users/Yushev/git/optiga-trust-qi/projects/xmc4700_relax_kit/common/Dave/Generated/CLOCK_XMC4\clock_xmc4_conf.c **** /**************************************************************************************************
  76:C:/Users/Yushev/git/optiga-trust-qi/projects/xmc4700_relax_kit/common/Dave/Generated/CLOCK_XMC4\clock_xmc4_conf.c ****  * DATA STRUCTURES
  77:C:/Users/Yushev/git/optiga-trust-qi/projects/xmc4700_relax_kit/common/Dave/Generated/CLOCK_XMC4\clock_xmc4_conf.c ****  **************************************************************************************************
  78:C:/Users/Yushev/git/optiga-trust-qi/projects/xmc4700_relax_kit/common/Dave/Generated/CLOCK_XMC4\clock_xmc4_conf.c **** CLOCK_XMC4_t CLOCK_XMC4_0 =
  79:C:/Users/Yushev/git/optiga-trust-qi/projects/xmc4700_relax_kit/common/Dave/Generated/CLOCK_XMC4\clock_xmc4_conf.c **** {
  80:C:/Users/Yushev/git/optiga-trust-qi/projects/xmc4700_relax_kit/common/Dave/Generated/CLOCK_XMC4\clock_xmc4_conf.c ****   .init_status = false
  81:C:/Users/Yushev/git/optiga-trust-qi/projects/xmc4700_relax_kit/common/Dave/Generated/CLOCK_XMC4\clock_xmc4_conf.c **** };
  82:C:/Users/Yushev/git/optiga-trust-qi/projects/xmc4700_relax_kit/common/Dave/Generated/CLOCK_XMC4\clock_xmc4_conf.c **** 
  83:C:/Users/Yushev/git/optiga-trust-qi/projects/xmc4700_relax_kit/common/Dave/Generated/CLOCK_XMC4\clock_xmc4_conf.c ****  /*************************************************************************************************
  84:C:/Users/Yushev/git/optiga-trust-qi/projects/xmc4700_relax_kit/common/Dave/Generated/CLOCK_XMC4\clock_xmc4_conf.c ****  * API IMPLEMENTATION
  85:C:/Users/Yushev/git/optiga-trust-qi/projects/xmc4700_relax_kit/common/Dave/Generated/CLOCK_XMC4\clock_xmc4_conf.c ****  **************************************************************************************************
  86:C:/Users/Yushev/git/optiga-trust-qi/projects/xmc4700_relax_kit/common/Dave/Generated/CLOCK_XMC4\clock_xmc4_conf.c **** /**
  87:C:/Users/Yushev/git/optiga-trust-qi/projects/xmc4700_relax_kit/common/Dave/Generated/CLOCK_XMC4\clock_xmc4_conf.c **** * @brief  Function to initialize the Clock Tree based on UI configuration
  88:C:/Users/Yushev/git/optiga-trust-qi/projects/xmc4700_relax_kit/common/Dave/Generated/CLOCK_XMC4\clock_xmc4_conf.c **** * @note   -
  89:C:/Users/Yushev/git/optiga-trust-qi/projects/xmc4700_relax_kit/common/Dave/Generated/CLOCK_XMC4\clock_xmc4_conf.c **** * @param  None
  90:C:/Users/Yushev/git/optiga-trust-qi/projects/xmc4700_relax_kit/common/Dave/Generated/CLOCK_XMC4\clock_xmc4_conf.c **** * @retval None
  91:C:/Users/Yushev/git/optiga-trust-qi/projects/xmc4700_relax_kit/common/Dave/Generated/CLOCK_XMC4\clock_xmc4_conf.c **** */
  92:C:/Users/Yushev/git/optiga-trust-qi/projects/xmc4700_relax_kit/common/Dave/Generated/CLOCK_XMC4\clock_xmc4_conf.c **** void SystemCoreClockSetup(void)
  93:C:/Users/Yushev/git/optiga-trust-qi/projects/xmc4700_relax_kit/common/Dave/Generated/CLOCK_XMC4\clock_xmc4_conf.c **** {
  28              	 .loc 1 93 0
  29              	 .cfi_startproc
  30              	 
  31              	 
  32 0000 30B5     	 push {r4,r5,lr}
  33              	.LCFI0:
  34              	 .cfi_def_cfa_offset 12
  35              	 .cfi_offset 4,-12
  36              	 .cfi_offset 5,-8
  37              	 .cfi_offset 14,-4
  94:C:/Users/Yushev/git/optiga-trust-qi/projects/xmc4700_relax_kit/common/Dave/Generated/CLOCK_XMC4\clock_xmc4_conf.c ****   /* Local data structure for initializing the clock functional block */
  95:C:/Users/Yushev/git/optiga-trust-qi/projects/xmc4700_relax_kit/common/Dave/Generated/CLOCK_XMC4\clock_xmc4_conf.c ****   const XMC_SCU_CLOCK_CONFIG_t CLOCK_XMC4_0_CONFIG =
  38              	 .loc 1 95 0
  39 0002 114D     	 ldr r5,.L2
  40 0004 0FCD     	 ldmia r5!,{r0,r1,r2,r3}
  93:C:/Users/Yushev/git/optiga-trust-qi/projects/xmc4700_relax_kit/common/Dave/Generated/CLOCK_XMC4\clock_xmc4_conf.c ****   /* Local data structure for initializing the clock functional block */
  41              	 .loc 1 93 0
  42 0006 87B0     	 sub sp,sp,#28
  43              	.LCFI1:
  44              	 .cfi_def_cfa_offset 40
  45              	 .loc 1 95 0
  46 0008 01AC     	 add r4,sp,#4
  47 000a 0FC4     	 stmia r4!,{r0,r1,r2,r3}
  48 000c 2B68     	 ldr r3,[r5]
  49 000e 2360     	 str r3,[r4]
  96:C:/Users/Yushev/git/optiga-trust-qi/projects/xmc4700_relax_kit/common/Dave/Generated/CLOCK_XMC4\clock_xmc4_conf.c ****   {
  97:C:/Users/Yushev/git/optiga-trust-qi/projects/xmc4700_relax_kit/common/Dave/Generated/CLOCK_XMC4\clock_xmc4_conf.c ****     /* N-Divider Value */
  98:C:/Users/Yushev/git/optiga-trust-qi/projects/xmc4700_relax_kit/common/Dave/Generated/CLOCK_XMC4\clock_xmc4_conf.c ****     .syspll_config.n_div = 48U,
  99:C:/Users/Yushev/git/optiga-trust-qi/projects/xmc4700_relax_kit/common/Dave/Generated/CLOCK_XMC4\clock_xmc4_conf.c ****     /* P-Divider Value */
 100:C:/Users/Yushev/git/optiga-trust-qi/projects/xmc4700_relax_kit/common/Dave/Generated/CLOCK_XMC4\clock_xmc4_conf.c ****     .syspll_config.p_div = 2U,
 101:C:/Users/Yushev/git/optiga-trust-qi/projects/xmc4700_relax_kit/common/Dave/Generated/CLOCK_XMC4\clock_xmc4_conf.c ****     /* K2-Divider Value */
 102:C:/Users/Yushev/git/optiga-trust-qi/projects/xmc4700_relax_kit/common/Dave/Generated/CLOCK_XMC4\clock_xmc4_conf.c ****     .syspll_config.k_div = 1U,
 103:C:/Users/Yushev/git/optiga-trust-qi/projects/xmc4700_relax_kit/common/Dave/Generated/CLOCK_XMC4\clock_xmc4_conf.c ****     /* PLL Operating Mode */
 104:C:/Users/Yushev/git/optiga-trust-qi/projects/xmc4700_relax_kit/common/Dave/Generated/CLOCK_XMC4\clock_xmc4_conf.c ****     .syspll_config.mode = XMC_SCU_CLOCK_SYSPLL_MODE_NORMAL,
 105:C:/Users/Yushev/git/optiga-trust-qi/projects/xmc4700_relax_kit/common/Dave/Generated/CLOCK_XMC4\clock_xmc4_conf.c ****     /* PLL Clock Source */
 106:C:/Users/Yushev/git/optiga-trust-qi/projects/xmc4700_relax_kit/common/Dave/Generated/CLOCK_XMC4\clock_xmc4_conf.c ****     .syspll_config.clksrc = XMC_SCU_CLOCK_SYSPLLCLKSRC_OSCHP,
 107:C:/Users/Yushev/git/optiga-trust-qi/projects/xmc4700_relax_kit/common/Dave/Generated/CLOCK_XMC4\clock_xmc4_conf.c ****     /* High Precision Oscillator Operating Mode */
 108:C:/Users/Yushev/git/optiga-trust-qi/projects/xmc4700_relax_kit/common/Dave/Generated/CLOCK_XMC4\clock_xmc4_conf.c ****     .enable_oschp = true,
 109:C:/Users/Yushev/git/optiga-trust-qi/projects/xmc4700_relax_kit/common/Dave/Generated/CLOCK_XMC4\clock_xmc4_conf.c ****     /* Ultra Low Power Oscillator Setting */
 110:C:/Users/Yushev/git/optiga-trust-qi/projects/xmc4700_relax_kit/common/Dave/Generated/CLOCK_XMC4\clock_xmc4_conf.c ****     .enable_osculp = false,
 111:C:/Users/Yushev/git/optiga-trust-qi/projects/xmc4700_relax_kit/common/Dave/Generated/CLOCK_XMC4\clock_xmc4_conf.c ****     /* Calibration Mode */
 112:C:/Users/Yushev/git/optiga-trust-qi/projects/xmc4700_relax_kit/common/Dave/Generated/CLOCK_XMC4\clock_xmc4_conf.c ****     .calibration_mode = XMC_SCU_CLOCK_FOFI_CALIBRATION_MODE_FACTORY,
 113:C:/Users/Yushev/git/optiga-trust-qi/projects/xmc4700_relax_kit/common/Dave/Generated/CLOCK_XMC4\clock_xmc4_conf.c ****     /* Standby Clock Source */
 114:C:/Users/Yushev/git/optiga-trust-qi/projects/xmc4700_relax_kit/common/Dave/Generated/CLOCK_XMC4\clock_xmc4_conf.c ****     .fstdby_clksrc = XMC_SCU_HIB_STDBYCLKSRC_OSI,
 115:C:/Users/Yushev/git/optiga-trust-qi/projects/xmc4700_relax_kit/common/Dave/Generated/CLOCK_XMC4\clock_xmc4_conf.c ****     /* System Clock Source */
 116:C:/Users/Yushev/git/optiga-trust-qi/projects/xmc4700_relax_kit/common/Dave/Generated/CLOCK_XMC4\clock_xmc4_conf.c ****     .fsys_clksrc = XMC_SCU_CLOCK_SYSCLKSRC_PLL,
 117:C:/Users/Yushev/git/optiga-trust-qi/projects/xmc4700_relax_kit/common/Dave/Generated/CLOCK_XMC4\clock_xmc4_conf.c ****     /* System Clock Divider Value */
 118:C:/Users/Yushev/git/optiga-trust-qi/projects/xmc4700_relax_kit/common/Dave/Generated/CLOCK_XMC4\clock_xmc4_conf.c ****     .fsys_clkdiv = 2U,
 119:C:/Users/Yushev/git/optiga-trust-qi/projects/xmc4700_relax_kit/common/Dave/Generated/CLOCK_XMC4\clock_xmc4_conf.c ****     /* CPU Clock Divider Value */
 120:C:/Users/Yushev/git/optiga-trust-qi/projects/xmc4700_relax_kit/common/Dave/Generated/CLOCK_XMC4\clock_xmc4_conf.c ****     .fcpu_clkdiv = 1U,
 121:C:/Users/Yushev/git/optiga-trust-qi/projects/xmc4700_relax_kit/common/Dave/Generated/CLOCK_XMC4\clock_xmc4_conf.c **** #ifdef CLOCK_XMC4_CCUCLK_ENABLED  
 122:C:/Users/Yushev/git/optiga-trust-qi/projects/xmc4700_relax_kit/common/Dave/Generated/CLOCK_XMC4\clock_xmc4_conf.c ****     /* CCU Clock Divider Value */
 123:C:/Users/Yushev/git/optiga-trust-qi/projects/xmc4700_relax_kit/common/Dave/Generated/CLOCK_XMC4\clock_xmc4_conf.c ****     .fccu_clkdiv = 1U,
 124:C:/Users/Yushev/git/optiga-trust-qi/projects/xmc4700_relax_kit/common/Dave/Generated/CLOCK_XMC4\clock_xmc4_conf.c **** #endif
 125:C:/Users/Yushev/git/optiga-trust-qi/projects/xmc4700_relax_kit/common/Dave/Generated/CLOCK_XMC4\clock_xmc4_conf.c ****     /* Peripheral Clock Divider Value */
 126:C:/Users/Yushev/git/optiga-trust-qi/projects/xmc4700_relax_kit/common/Dave/Generated/CLOCK_XMC4\clock_xmc4_conf.c ****     .fperipheral_clkdiv = 1U
 127:C:/Users/Yushev/git/optiga-trust-qi/projects/xmc4700_relax_kit/common/Dave/Generated/CLOCK_XMC4\clock_xmc4_conf.c ****   };
 128:C:/Users/Yushev/git/optiga-trust-qi/projects/xmc4700_relax_kit/common/Dave/Generated/CLOCK_XMC4\clock_xmc4_conf.c ****   /* Initialize the SCU clock */
 129:C:/Users/Yushev/git/optiga-trust-qi/projects/xmc4700_relax_kit/common/Dave/Generated/CLOCK_XMC4\clock_xmc4_conf.c ****   XMC_SCU_CLOCK_Init(&CLOCK_XMC4_0_CONFIG);
  50              	 .loc 1 129 0
  51 0010 01A8     	 add r0,sp,#4
  52 0012 FFF7FEFF 	 bl XMC_SCU_CLOCK_Init
  53              	.LVL0:
 130:C:/Users/Yushev/git/optiga-trust-qi/projects/xmc4700_relax_kit/common/Dave/Generated/CLOCK_XMC4\clock_xmc4_conf.c ****   /* RTC source clock */
 131:C:/Users/Yushev/git/optiga-trust-qi/projects/xmc4700_relax_kit/common/Dave/Generated/CLOCK_XMC4\clock_xmc4_conf.c ****   XMC_SCU_HIB_SetRtcClockSource(XMC_SCU_HIB_RTCCLKSRC_OSI);
  54              	 .loc 1 131 0
  55 0016 0020     	 movs r0,#0
  56 0018 FFF7FEFF 	 bl XMC_SCU_HIB_SetRtcClockSource
  57              	.LVL1:
 132:C:/Users/Yushev/git/optiga-trust-qi/projects/xmc4700_relax_kit/common/Dave/Generated/CLOCK_XMC4\clock_xmc4_conf.c ****   
 133:C:/Users/Yushev/git/optiga-trust-qi/projects/xmc4700_relax_kit/common/Dave/Generated/CLOCK_XMC4\clock_xmc4_conf.c **** #ifdef CLOCK_XMC4_USBCLK_ENABLED  
 134:C:/Users/Yushev/git/optiga-trust-qi/projects/xmc4700_relax_kit/common/Dave/Generated/CLOCK_XMC4\clock_xmc4_conf.c ****   /* USB/SDMMC source clock */
 135:C:/Users/Yushev/git/optiga-trust-qi/projects/xmc4700_relax_kit/common/Dave/Generated/CLOCK_XMC4\clock_xmc4_conf.c ****   XMC_SCU_CLOCK_SetUsbClockSource(XMC_SCU_CLOCK_USBCLKSRC_USBPLL);
  58              	 .loc 1 135 0
  59 001c 0020     	 movs r0,#0
  60 001e FFF7FEFF 	 bl XMC_SCU_CLOCK_SetUsbClockSource
  61              	.LVL2:
 136:C:/Users/Yushev/git/optiga-trust-qi/projects/xmc4700_relax_kit/common/Dave/Generated/CLOCK_XMC4\clock_xmc4_conf.c ****   /* USB/SDMMC divider setting */
 137:C:/Users/Yushev/git/optiga-trust-qi/projects/xmc4700_relax_kit/common/Dave/Generated/CLOCK_XMC4\clock_xmc4_conf.c ****   XMC_SCU_CLOCK_SetUsbClockDivider(4U);
  62              	 .loc 1 137 0
  63 0022 0420     	 movs r0,#4
  64 0024 FFF7FEFF 	 bl XMC_SCU_CLOCK_SetUsbClockDivider
  65              	.LVL3:
 138:C:/Users/Yushev/git/optiga-trust-qi/projects/xmc4700_relax_kit/common/Dave/Generated/CLOCK_XMC4\clock_xmc4_conf.c **** #endif
 139:C:/Users/Yushev/git/optiga-trust-qi/projects/xmc4700_relax_kit/common/Dave/Generated/CLOCK_XMC4\clock_xmc4_conf.c ****   /* Start USB PLL */
 140:C:/Users/Yushev/git/optiga-trust-qi/projects/xmc4700_relax_kit/common/Dave/Generated/CLOCK_XMC4\clock_xmc4_conf.c ****   XMC_SCU_CLOCK_StartUsbPll(1U, 32U);
  66              	 .loc 1 140 0
  67 0028 2021     	 movs r1,#32
  68 002a 0120     	 movs r0,#1
  69 002c FFF7FEFF 	 bl XMC_SCU_CLOCK_StartUsbPll
  70              	.LVL4:
 141:C:/Users/Yushev/git/optiga-trust-qi/projects/xmc4700_relax_kit/common/Dave/Generated/CLOCK_XMC4\clock_xmc4_conf.c **** 
 142:C:/Users/Yushev/git/optiga-trust-qi/projects/xmc4700_relax_kit/common/Dave/Generated/CLOCK_XMC4\clock_xmc4_conf.c **** #ifdef CLOCK_XMC4_WDTCLK_ENABLED    
 143:C:/Users/Yushev/git/optiga-trust-qi/projects/xmc4700_relax_kit/common/Dave/Generated/CLOCK_XMC4\clock_xmc4_conf.c ****   /* WDT source clock */
 144:C:/Users/Yushev/git/optiga-trust-qi/projects/xmc4700_relax_kit/common/Dave/Generated/CLOCK_XMC4\clock_xmc4_conf.c ****   XMC_SCU_CLOCK_SetWdtClockSource(XMC_SCU_CLOCK_WDTCLKSRC_OFI);
  71              	 .loc 1 144 0
  72 0030 0020     	 movs r0,#0
  73 0032 FFF7FEFF 	 bl XMC_SCU_CLOCK_SetWdtClockSource
  74              	.LVL5:
 145:C:/Users/Yushev/git/optiga-trust-qi/projects/xmc4700_relax_kit/common/Dave/Generated/CLOCK_XMC4\clock_xmc4_conf.c ****   /* WDT divider setting */
 146:C:/Users/Yushev/git/optiga-trust-qi/projects/xmc4700_relax_kit/common/Dave/Generated/CLOCK_XMC4\clock_xmc4_conf.c ****   XMC_SCU_CLOCK_SetWdtClockDivider(1U);
  75              	 .loc 1 146 0
  76 0036 0120     	 movs r0,#1
  77 0038 FFF7FEFF 	 bl XMC_SCU_CLOCK_SetWdtClockDivider
  78              	.LVL6:
 147:C:/Users/Yushev/git/optiga-trust-qi/projects/xmc4700_relax_kit/common/Dave/Generated/CLOCK_XMC4\clock_xmc4_conf.c **** #endif
 148:C:/Users/Yushev/git/optiga-trust-qi/projects/xmc4700_relax_kit/common/Dave/Generated/CLOCK_XMC4\clock_xmc4_conf.c **** 
 149:C:/Users/Yushev/git/optiga-trust-qi/projects/xmc4700_relax_kit/common/Dave/Generated/CLOCK_XMC4\clock_xmc4_conf.c **** #ifdef CLOCK_XMC4_EBUCLK_ENABLED 
 150:C:/Users/Yushev/git/optiga-trust-qi/projects/xmc4700_relax_kit/common/Dave/Generated/CLOCK_XMC4\clock_xmc4_conf.c ****   /* EBU divider setting */
 151:C:/Users/Yushev/git/optiga-trust-qi/projects/xmc4700_relax_kit/common/Dave/Generated/CLOCK_XMC4\clock_xmc4_conf.c ****   XMC_SCU_CLOCK_SetEbuClockDivider(1U);
  79              	 .loc 1 151 0
  80 003c 0120     	 movs r0,#1
  81 003e FFF7FEFF 	 bl XMC_SCU_CLOCK_SetEbuClockDivider
  82              	.LVL7:
 152:C:/Users/Yushev/git/optiga-trust-qi/projects/xmc4700_relax_kit/common/Dave/Generated/CLOCK_XMC4\clock_xmc4_conf.c **** #endif
 153:C:/Users/Yushev/git/optiga-trust-qi/projects/xmc4700_relax_kit/common/Dave/Generated/CLOCK_XMC4\clock_xmc4_conf.c **** 
 154:C:/Users/Yushev/git/optiga-trust-qi/projects/xmc4700_relax_kit/common/Dave/Generated/CLOCK_XMC4\clock_xmc4_conf.c **** }
  83              	 .loc 1 154 0
  84 0042 07B0     	 add sp,sp,#28
  85              	.LCFI2:
  86              	 .cfi_def_cfa_offset 12
  87              	 
  88 0044 30BD     	 pop {r4,r5,pc}
  89              	.L3:
  90 0046 00BF     	 .align 2
  91              	.L2:
  92 0048 00000000 	 .word .LANCHOR0
  93              	 .cfi_endproc
  94              	.LFE179:
  96              	 .global CLOCK_XMC4_0
  97              	 .section .rodata
  98              	 .align 2
  99              	 .set .LANCHOR0,.+0
 100              	.LC0:
 101 0000 30       	 .byte 48
 102 0001 02       	 .byte 2
 103 0002 01       	 .byte 1
 104 0003 01       	 .byte 1
 105 0004 0000     	 .short 0
 106 0006 01       	 .byte 1
 107 0007 00       	 .byte 0
 108 0008 00       	 .byte 0
 109 0009 00       	 .byte 0
 110 000a 0000     	 .space 2
 111 000c 00000100 	 .word 65536
 112 0010 02       	 .byte 2
 113 0011 01       	 .byte 1
 114 0012 01       	 .byte 1
 115 0013 01       	 .byte 1
 116              	 .section .bss.CLOCK_XMC4_0,"aw",%nobits
 119              	CLOCK_XMC4_0:
 120 0000 00       	 .space 1
 121              	 .text
 122              	.Letext0:
 123              	 .file 2 "c:\\users\\yushev\\dave_4-4-2_32bit_2018-02-23\\dave-ide-4.4.2-32bit\\eclipse\\arm-gcc-49\\arm-none-eabi\\include\\machine\\_default_types.h"
 124              	 .file 3 "c:\\users\\yushev\\dave_4-4-2_32bit_2018-02-23\\dave-ide-4.4.2-32bit\\eclipse\\arm-gcc-49\\arm-none-eabi\\include\\stdint.h"
 125              	 .file 4 "C:/Users/Yushev/git/optiga-trust-qi/projects/xmc4700_relax_kit/common/Libraries/XMCLib/inc/xmc4_scu.h"
 126              	 .file 5 "C:/Users/Yushev/git/optiga-trust-qi/projects/xmc4700_relax_kit/common/Dave/Generated/CLOCK_XMC4/clock_xmc4.h"
 127              	 .file 6 "C:/Users/Yushev/git/optiga-trust-qi/projects/xmc4700_relax_kit/common/Libraries/CMSIS/Include/core_cm4.h"
 128              	 .file 7 "C:/Users/Yushev/git/optiga-trust-qi/projects/xmc4700_relax_kit/common/Libraries/CMSIS/Infineon/XMC4700_series/Include/system_XMC4700.h"
 129              	 .file 8 "C:/Users/Yushev/git/optiga-trust-qi/projects/xmc4700_relax_kit/common/Libraries/XMCLib/inc/xmc_scu.h"