Certificate:
    Data:
        Version: 3 (0x2)
        Serial Number: 305419896 (0x12345678)
    Signature Algorithm: ecdsa-with-SHA256
        Issuer: CN=WPCCA1
        Validity
            Not Before: Jan  1 00:00:00 1970 GMT
            Not After : Dec 31 23:59:59 9999 GMT
        Subject: CN=WPCCA1
        Subject Public Key Info:
            Public Key Algorithm: id-ecPublicKey
                Public-Key: (256 bit)
                pub:
                    02:46:b2:51:95:9f:01:3b:85:38:14:4f:62:ff:a4:
                    b7:06:17:ca:9e:bb:41:d6:40:f0:8e:a1:61:1e:f0:
                    93:2d:86
                ASN1 OID: prime256v1
                NIST CURVE: P-256
        X509v3 extensions:
            X509v3 Basic Constraints: critical
                CA:TRUE
    Signature Algorithm: ecdsa-with-SHA256
         30:45:02:21:00:d4:06:4d:93:22:7a:3b:c6:72:f5:b0:59:79:
         6a:ad:2e:88:13:4d:84:9d:d8:97:b0:ad:f3:c2:e6:9b:42:bd:
         ed:02:20:68:79:0d:e9:0b:57:72:90:f1:6d:67:8b:cf:65:53:
         11:ff:1f:03:84:a9:b7:ff:7a:23:ff:f6:f7:47:fd:6a:f2
-----BEGIN CERTIFICATE-----
MIIBCDCBr6ADAgECAgQSNFZ4MAoGCCqGSM49BAMCMBExDzANBgNVBAMMBldQQ0NB
MTAgFw03MDAxMDEwMDAwMDBaGA85OTk5MTIzMTIzNTk1OVowETEPMA0GA1UEAwwG
V1BDQ0ExMDkwEwYHKoZIzj0CAQYIKoZIzj0DAQcDIgACRrJRlZ8BO4U4FE9i/6S3
BhfKnrtB1kDwjqFhHvCTLYajEzARMA8GA1UdEwEB/wQFMAMBAf8wCgYIKoZIzj0E
AwIDSAAwRQIhANQGTZMiejvGcvWwWXlqrS6IE02EndiXsK3zwuabQr3tAiBoeQ3p
C1dykPFtZ4vPZVMR/x8DhKm3/3oj//b3R/1q8g==
-----END CERTIFICATE-----
