   1              	 .syntax unified
   2              	 .cpu cortex-m4
   3              	 .eabi_attribute 27,3
   4              	 .fpu fpv4-sp-d16
   5              	 .eabi_attribute 20,1
   6              	 .eabi_attribute 21,1
   7              	 .eabi_attribute 23,3
   8              	 .eabi_attribute 24,1
   9              	 .eabi_attribute 25,1
  10              	 .eabi_attribute 26,1
  11              	 .eabi_attribute 30,6
  12              	 .eabi_attribute 34,1
  13              	 .eabi_attribute 18,4
  14              	 .thumb
  15              	 .file "pal_os_lock.c"
  16              	 .text
  17              	.Ltext0:
  18              	 .cfi_sections .debug_frame
  19              	 .section .text.pal_os_lock_create,"ax",%progbits
  20              	 .align 2
  21              	 .global pal_os_lock_create
  22              	 .thumb
  23              	 .thumb_func
  25              	pal_os_lock_create:
  26              	.LFB0:
  27              	 .file 1 "C:/Users/Yushev/git/wpcqi-optiga-trust-charge/optiga/pal/xmc4700/pal_os_lock.c"
   1:C:/Users/Yushev/git/wpcqi-optiga-trust-charge/optiga/pal/xmc4700\pal_os_lock.c **** /**
   2:C:/Users/Yushev/git/wpcqi-optiga-trust-charge/optiga/pal/xmc4700\pal_os_lock.c **** * \copyright
   3:C:/Users/Yushev/git/wpcqi-optiga-trust-charge/optiga/pal/xmc4700\pal_os_lock.c **** * MIT License
   4:C:/Users/Yushev/git/wpcqi-optiga-trust-charge/optiga/pal/xmc4700\pal_os_lock.c **** *
   5:C:/Users/Yushev/git/wpcqi-optiga-trust-charge/optiga/pal/xmc4700\pal_os_lock.c **** * Copyright (c) 2020 Infineon Technologies AG
   6:C:/Users/Yushev/git/wpcqi-optiga-trust-charge/optiga/pal/xmc4700\pal_os_lock.c **** *
   7:C:/Users/Yushev/git/wpcqi-optiga-trust-charge/optiga/pal/xmc4700\pal_os_lock.c **** * Permission is hereby granted, free of charge, to any person obtaining a copy
   8:C:/Users/Yushev/git/wpcqi-optiga-trust-charge/optiga/pal/xmc4700\pal_os_lock.c **** * of this software and associated documentation files (the "Software"), to deal
   9:C:/Users/Yushev/git/wpcqi-optiga-trust-charge/optiga/pal/xmc4700\pal_os_lock.c **** * in the Software without restriction, including without limitation the rights
  10:C:/Users/Yushev/git/wpcqi-optiga-trust-charge/optiga/pal/xmc4700\pal_os_lock.c **** * to use, copy, modify, merge, publish, distribute, sublicense, and/or sell
  11:C:/Users/Yushev/git/wpcqi-optiga-trust-charge/optiga/pal/xmc4700\pal_os_lock.c **** * copies of the Software, and to permit persons to whom the Software is
  12:C:/Users/Yushev/git/wpcqi-optiga-trust-charge/optiga/pal/xmc4700\pal_os_lock.c **** * furnished to do so, subject to the following conditions:
  13:C:/Users/Yushev/git/wpcqi-optiga-trust-charge/optiga/pal/xmc4700\pal_os_lock.c **** *
  14:C:/Users/Yushev/git/wpcqi-optiga-trust-charge/optiga/pal/xmc4700\pal_os_lock.c **** * The above copyright notice and this permission notice shall be included in all
  15:C:/Users/Yushev/git/wpcqi-optiga-trust-charge/optiga/pal/xmc4700\pal_os_lock.c **** * copies or substantial portions of the Software.
  16:C:/Users/Yushev/git/wpcqi-optiga-trust-charge/optiga/pal/xmc4700\pal_os_lock.c **** *
  17:C:/Users/Yushev/git/wpcqi-optiga-trust-charge/optiga/pal/xmc4700\pal_os_lock.c **** * THE SOFTWARE IS PROVIDED "AS IS", WITHOUT WARRANTY OF ANY KIND, EXPRESS OR
  18:C:/Users/Yushev/git/wpcqi-optiga-trust-charge/optiga/pal/xmc4700\pal_os_lock.c **** * IMPLIED, INCLUDING BUT NOT LIMITED TO THE WARRANTIES OF MERCHANTABILITY,
  19:C:/Users/Yushev/git/wpcqi-optiga-trust-charge/optiga/pal/xmc4700\pal_os_lock.c **** * FITNESS FOR A PARTICULAR PURPOSE AND NONINFRINGEMENT. IN NO EVENT SHALL THE
  20:C:/Users/Yushev/git/wpcqi-optiga-trust-charge/optiga/pal/xmc4700\pal_os_lock.c **** * AUTHORS OR COPYRIGHT HOLDERS BE LIABLE FOR ANY CLAIM, DAMAGES OR OTHER
  21:C:/Users/Yushev/git/wpcqi-optiga-trust-charge/optiga/pal/xmc4700\pal_os_lock.c **** * LIABILITY, WHETHER IN AN ACTION OF CONTRACT, TORT OR OTHERWISE, ARISING FROM,
  22:C:/Users/Yushev/git/wpcqi-optiga-trust-charge/optiga/pal/xmc4700\pal_os_lock.c **** * OUT OF OR IN CONNECTION WITH THE SOFTWARE OR THE USE OR OTHER DEALINGS IN THE
  23:C:/Users/Yushev/git/wpcqi-optiga-trust-charge/optiga/pal/xmc4700\pal_os_lock.c **** * SOFTWARE
  24:C:/Users/Yushev/git/wpcqi-optiga-trust-charge/optiga/pal/xmc4700\pal_os_lock.c **** *
  25:C:/Users/Yushev/git/wpcqi-optiga-trust-charge/optiga/pal/xmc4700\pal_os_lock.c **** * \endcopyright
  26:C:/Users/Yushev/git/wpcqi-optiga-trust-charge/optiga/pal/xmc4700\pal_os_lock.c **** *
  27:C:/Users/Yushev/git/wpcqi-optiga-trust-charge/optiga/pal/xmc4700\pal_os_lock.c **** * \author Infineon Technologies AG
  28:C:/Users/Yushev/git/wpcqi-optiga-trust-charge/optiga/pal/xmc4700\pal_os_lock.c **** *
  29:C:/Users/Yushev/git/wpcqi-optiga-trust-charge/optiga/pal/xmc4700\pal_os_lock.c **** * \file pal_os_lock.c
  30:C:/Users/Yushev/git/wpcqi-optiga-trust-charge/optiga/pal/xmc4700\pal_os_lock.c **** *
  31:C:/Users/Yushev/git/wpcqi-optiga-trust-charge/optiga/pal/xmc4700\pal_os_lock.c **** * \brief   This file implements the platform abstraction layer APIs for os locks (e.g. semaphore).
  32:C:/Users/Yushev/git/wpcqi-optiga-trust-charge/optiga/pal/xmc4700\pal_os_lock.c **** *
  33:C:/Users/Yushev/git/wpcqi-optiga-trust-charge/optiga/pal/xmc4700\pal_os_lock.c **** * \ingroup  grPAL
  34:C:/Users/Yushev/git/wpcqi-optiga-trust-charge/optiga/pal/xmc4700\pal_os_lock.c **** *
  35:C:/Users/Yushev/git/wpcqi-optiga-trust-charge/optiga/pal/xmc4700\pal_os_lock.c **** * @{
  36:C:/Users/Yushev/git/wpcqi-optiga-trust-charge/optiga/pal/xmc4700\pal_os_lock.c **** */
  37:C:/Users/Yushev/git/wpcqi-optiga-trust-charge/optiga/pal/xmc4700\pal_os_lock.c **** 
  38:C:/Users/Yushev/git/wpcqi-optiga-trust-charge/optiga/pal/xmc4700\pal_os_lock.c **** #include "optiga/pal/pal_os_lock.h"
  39:C:/Users/Yushev/git/wpcqi-optiga-trust-charge/optiga/pal/xmc4700\pal_os_lock.c **** 
  40:C:/Users/Yushev/git/wpcqi-optiga-trust-charge/optiga/pal/xmc4700\pal_os_lock.c **** void pal_os_lock_create(pal_os_lock_t * p_lock, uint8_t lock_type)
  41:C:/Users/Yushev/git/wpcqi-optiga-trust-charge/optiga/pal/xmc4700\pal_os_lock.c **** {
  28              	 .loc 1 41 0
  29              	 .cfi_startproc
  30              	 
  31              	 
  32              	 
  33 0000 80B4     	 push {r7}
  34              	.LCFI0:
  35              	 .cfi_def_cfa_offset 4
  36              	 .cfi_offset 7,-4
  37 0002 83B0     	 sub sp,sp,#12
  38              	.LCFI1:
  39              	 .cfi_def_cfa_offset 16
  40 0004 00AF     	 add r7,sp,#0
  41              	.LCFI2:
  42              	 .cfi_def_cfa_register 7
  43 0006 7860     	 str r0,[r7,#4]
  44 0008 0B46     	 mov r3,r1
  45 000a FB70     	 strb r3,[r7,#3]
  42:C:/Users/Yushev/git/wpcqi-optiga-trust-charge/optiga/pal/xmc4700\pal_os_lock.c ****     p_lock->type = lock_type;
  46              	 .loc 1 42 0
  47 000c 7B68     	 ldr r3,[r7,#4]
  48 000e FA78     	 ldrb r2,[r7,#3]
  49 0010 5A70     	 strb r2,[r3,#1]
  43:C:/Users/Yushev/git/wpcqi-optiga-trust-charge/optiga/pal/xmc4700\pal_os_lock.c ****     p_lock->lock = 0;
  50              	 .loc 1 43 0
  51 0012 7B68     	 ldr r3,[r7,#4]
  52 0014 0022     	 movs r2,#0
  53 0016 1A70     	 strb r2,[r3]
  44:C:/Users/Yushev/git/wpcqi-optiga-trust-charge/optiga/pal/xmc4700\pal_os_lock.c **** }
  54              	 .loc 1 44 0
  55 0018 0C37     	 adds r7,r7,#12
  56              	.LCFI3:
  57              	 .cfi_def_cfa_offset 4
  58 001a BD46     	 mov sp,r7
  59              	.LCFI4:
  60              	 .cfi_def_cfa_register 13
  61              	 
  62 001c 5DF8047B 	 ldr r7,[sp],#4
  63              	.LCFI5:
  64              	 .cfi_restore 7
  65              	 .cfi_def_cfa_offset 0
  66 0020 7047     	 bx lr
  67              	 .cfi_endproc
  68              	.LFE0:
  70 0022 00BF     	 .section .text.pal_os_lock_destroy,"ax",%progbits
  71              	 .align 2
  72              	 .global pal_os_lock_destroy
  73              	 .thumb
  74              	 .thumb_func
  76              	pal_os_lock_destroy:
  77              	.LFB1:
  45:C:/Users/Yushev/git/wpcqi-optiga-trust-charge/optiga/pal/xmc4700\pal_os_lock.c **** 
  46:C:/Users/Yushev/git/wpcqi-optiga-trust-charge/optiga/pal/xmc4700\pal_os_lock.c **** //lint --e{715} suppress "p_lock is not used here as it is placeholder for future." 
  47:C:/Users/Yushev/git/wpcqi-optiga-trust-charge/optiga/pal/xmc4700\pal_os_lock.c **** //lint --e{818} suppress "Not declared as pointer as nothing needs to be updated in the pointer."
  48:C:/Users/Yushev/git/wpcqi-optiga-trust-charge/optiga/pal/xmc4700\pal_os_lock.c **** void pal_os_lock_destroy(pal_os_lock_t * p_lock)
  49:C:/Users/Yushev/git/wpcqi-optiga-trust-charge/optiga/pal/xmc4700\pal_os_lock.c **** {
  78              	 .loc 1 49 0
  79              	 .cfi_startproc
  80              	 
  81              	 
  82              	 
  83 0000 80B4     	 push {r7}
  84              	.LCFI6:
  85              	 .cfi_def_cfa_offset 4
  86              	 .cfi_offset 7,-4
  87 0002 83B0     	 sub sp,sp,#12
  88              	.LCFI7:
  89              	 .cfi_def_cfa_offset 16
  90 0004 00AF     	 add r7,sp,#0
  91              	.LCFI8:
  92              	 .cfi_def_cfa_register 7
  93 0006 7860     	 str r0,[r7,#4]
  50:C:/Users/Yushev/git/wpcqi-optiga-trust-charge/optiga/pal/xmc4700\pal_os_lock.c ****     
  51:C:/Users/Yushev/git/wpcqi-optiga-trust-charge/optiga/pal/xmc4700\pal_os_lock.c **** }
  94              	 .loc 1 51 0
  95 0008 0C37     	 adds r7,r7,#12
  96              	.LCFI9:
  97              	 .cfi_def_cfa_offset 4
  98 000a BD46     	 mov sp,r7
  99              	.LCFI10:
 100              	 .cfi_def_cfa_register 13
 101              	 
 102 000c 5DF8047B 	 ldr r7,[sp],#4
 103              	.LCFI11:
 104              	 .cfi_restore 7
 105              	 .cfi_def_cfa_offset 0
 106 0010 7047     	 bx lr
 107              	 .cfi_endproc
 108              	.LFE1:
 110 0012 00BF     	 .section .text.pal_os_lock_acquire,"ax",%progbits
 111              	 .align 2
 112              	 .global pal_os_lock_acquire
 113              	 .thumb
 114              	 .thumb_func
 116              	pal_os_lock_acquire:
 117              	.LFB2:
  52:C:/Users/Yushev/git/wpcqi-optiga-trust-charge/optiga/pal/xmc4700\pal_os_lock.c **** 
  53:C:/Users/Yushev/git/wpcqi-optiga-trust-charge/optiga/pal/xmc4700\pal_os_lock.c **** pal_status_t pal_os_lock_acquire(pal_os_lock_t * p_lock)
  54:C:/Users/Yushev/git/wpcqi-optiga-trust-charge/optiga/pal/xmc4700\pal_os_lock.c **** {
 118              	 .loc 1 54 0
 119              	 .cfi_startproc
 120              	 
 121              	 
 122              	 
 123 0000 80B4     	 push {r7}
 124              	.LCFI12:
 125              	 .cfi_def_cfa_offset 4
 126              	 .cfi_offset 7,-4
 127 0002 85B0     	 sub sp,sp,#20
 128              	.LCFI13:
 129              	 .cfi_def_cfa_offset 24
 130 0004 00AF     	 add r7,sp,#0
 131              	.LCFI14:
 132              	 .cfi_def_cfa_register 7
 133 0006 7860     	 str r0,[r7,#4]
  55:C:/Users/Yushev/git/wpcqi-optiga-trust-charge/optiga/pal/xmc4700\pal_os_lock.c ****     pal_status_t return_status = PAL_STATUS_FAILURE;
 134              	 .loc 1 55 0
 135 0008 0123     	 movs r3,#1
 136 000a FB81     	 strh r3,[r7,#14]
  56:C:/Users/Yushev/git/wpcqi-optiga-trust-charge/optiga/pal/xmc4700\pal_os_lock.c **** 
  57:C:/Users/Yushev/git/wpcqi-optiga-trust-charge/optiga/pal/xmc4700\pal_os_lock.c ****     if (!(p_lock->lock))
 137              	 .loc 1 57 0
 138 000c 7B68     	 ldr r3,[r7,#4]
 139 000e 1B78     	 ldrb r3,[r3]
 140 0010 002B     	 cmp r3,#0
 141 0012 11D1     	 bne .L4
  58:C:/Users/Yushev/git/wpcqi-optiga-trust-charge/optiga/pal/xmc4700\pal_os_lock.c ****     {
  59:C:/Users/Yushev/git/wpcqi-optiga-trust-charge/optiga/pal/xmc4700\pal_os_lock.c ****         p_lock->lock++;
 142              	 .loc 1 59 0
 143 0014 7B68     	 ldr r3,[r7,#4]
 144 0016 1B78     	 ldrb r3,[r3]
 145 0018 0133     	 adds r3,r3,#1
 146 001a DAB2     	 uxtb r2,r3
 147 001c 7B68     	 ldr r3,[r7,#4]
 148 001e 1A70     	 strb r2,[r3]
  60:C:/Users/Yushev/git/wpcqi-optiga-trust-charge/optiga/pal/xmc4700\pal_os_lock.c ****         if (1 != p_lock->lock)
 149              	 .loc 1 60 0
 150 0020 7B68     	 ldr r3,[r7,#4]
 151 0022 1B78     	 ldrb r3,[r3]
 152 0024 012B     	 cmp r3,#1
 153 0026 05D0     	 beq .L5
  61:C:/Users/Yushev/git/wpcqi-optiga-trust-charge/optiga/pal/xmc4700\pal_os_lock.c ****         {
  62:C:/Users/Yushev/git/wpcqi-optiga-trust-charge/optiga/pal/xmc4700\pal_os_lock.c ****             p_lock->lock--;
 154              	 .loc 1 62 0
 155 0028 7B68     	 ldr r3,[r7,#4]
 156 002a 1B78     	 ldrb r3,[r3]
 157 002c 013B     	 subs r3,r3,#1
 158 002e DAB2     	 uxtb r2,r3
 159 0030 7B68     	 ldr r3,[r7,#4]
 160 0032 1A70     	 strb r2,[r3]
 161              	.L5:
  63:C:/Users/Yushev/git/wpcqi-optiga-trust-charge/optiga/pal/xmc4700\pal_os_lock.c ****         }
  64:C:/Users/Yushev/git/wpcqi-optiga-trust-charge/optiga/pal/xmc4700\pal_os_lock.c ****         return_status = PAL_STATUS_SUCCESS;
 162              	 .loc 1 64 0
 163 0034 0023     	 movs r3,#0
 164 0036 FB81     	 strh r3,[r7,#14]
 165              	.L4:
  65:C:/Users/Yushev/git/wpcqi-optiga-trust-charge/optiga/pal/xmc4700\pal_os_lock.c ****     }
  66:C:/Users/Yushev/git/wpcqi-optiga-trust-charge/optiga/pal/xmc4700\pal_os_lock.c ****     return return_status;
 166              	 .loc 1 66 0
 167 0038 FB89     	 ldrh r3,[r7,#14]
  67:C:/Users/Yushev/git/wpcqi-optiga-trust-charge/optiga/pal/xmc4700\pal_os_lock.c **** }
 168              	 .loc 1 67 0
 169 003a 1846     	 mov r0,r3
 170 003c 1437     	 adds r7,r7,#20
 171              	.LCFI15:
 172              	 .cfi_def_cfa_offset 4
 173 003e BD46     	 mov sp,r7
 174              	.LCFI16:
 175              	 .cfi_def_cfa_register 13
 176              	 
 177 0040 5DF8047B 	 ldr r7,[sp],#4
 178              	.LCFI17:
 179              	 .cfi_restore 7
 180              	 .cfi_def_cfa_offset 0
 181 0044 7047     	 bx lr
 182              	 .cfi_endproc
 183              	.LFE2:
 185 0046 00BF     	 .section .text.pal_os_lock_release,"ax",%progbits
 186              	 .align 2
 187              	 .global pal_os_lock_release
 188              	 .thumb
 189              	 .thumb_func
 191              	pal_os_lock_release:
 192              	.LFB3:
  68:C:/Users/Yushev/git/wpcqi-optiga-trust-charge/optiga/pal/xmc4700\pal_os_lock.c **** 
  69:C:/Users/Yushev/git/wpcqi-optiga-trust-charge/optiga/pal/xmc4700\pal_os_lock.c **** void pal_os_lock_release(pal_os_lock_t * p_lock)
  70:C:/Users/Yushev/git/wpcqi-optiga-trust-charge/optiga/pal/xmc4700\pal_os_lock.c **** {
 193              	 .loc 1 70 0
 194              	 .cfi_startproc
 195              	 
 196              	 
 197              	 
 198 0000 80B4     	 push {r7}
 199              	.LCFI18:
 200              	 .cfi_def_cfa_offset 4
 201              	 .cfi_offset 7,-4
 202 0002 83B0     	 sub sp,sp,#12
 203              	.LCFI19:
 204              	 .cfi_def_cfa_offset 16
 205 0004 00AF     	 add r7,sp,#0
 206              	.LCFI20:
 207              	 .cfi_def_cfa_register 7
 208 0006 7860     	 str r0,[r7,#4]
  71:C:/Users/Yushev/git/wpcqi-optiga-trust-charge/optiga/pal/xmc4700\pal_os_lock.c ****     if (0 != p_lock->lock)
 209              	 .loc 1 71 0
 210 0008 7B68     	 ldr r3,[r7,#4]
 211 000a 1B78     	 ldrb r3,[r3]
 212 000c 002B     	 cmp r3,#0
 213 000e 05D0     	 beq .L7
  72:C:/Users/Yushev/git/wpcqi-optiga-trust-charge/optiga/pal/xmc4700\pal_os_lock.c ****     {
  73:C:/Users/Yushev/git/wpcqi-optiga-trust-charge/optiga/pal/xmc4700\pal_os_lock.c ****         p_lock->lock--;
 214              	 .loc 1 73 0
 215 0010 7B68     	 ldr r3,[r7,#4]
 216 0012 1B78     	 ldrb r3,[r3]
 217 0014 013B     	 subs r3,r3,#1
 218 0016 DAB2     	 uxtb r2,r3
 219 0018 7B68     	 ldr r3,[r7,#4]
 220 001a 1A70     	 strb r2,[r3]
 221              	.L7:
  74:C:/Users/Yushev/git/wpcqi-optiga-trust-charge/optiga/pal/xmc4700\pal_os_lock.c ****     }
  75:C:/Users/Yushev/git/wpcqi-optiga-trust-charge/optiga/pal/xmc4700\pal_os_lock.c **** }
 222              	 .loc 1 75 0
 223 001c 0C37     	 adds r7,r7,#12
 224              	.LCFI21:
 225              	 .cfi_def_cfa_offset 4
 226 001e BD46     	 mov sp,r7
 227              	.LCFI22:
 228              	 .cfi_def_cfa_register 13
 229              	 
 230 0020 5DF8047B 	 ldr r7,[sp],#4
 231              	.LCFI23:
 232              	 .cfi_restore 7
 233              	 .cfi_def_cfa_offset 0
 234 0024 7047     	 bx lr
 235              	 .cfi_endproc
 236              	.LFE3:
 238 0026 00BF     	 .section .text.pal_os_lock_enter_critical_section,"ax",%progbits
 239              	 .align 2
 240              	 .global pal_os_lock_enter_critical_section
 241              	 .thumb
 242              	 .thumb_func
 244              	pal_os_lock_enter_critical_section:
 245              	.LFB4:
  76:C:/Users/Yushev/git/wpcqi-optiga-trust-charge/optiga/pal/xmc4700\pal_os_lock.c **** 
  77:C:/Users/Yushev/git/wpcqi-optiga-trust-charge/optiga/pal/xmc4700\pal_os_lock.c **** void pal_os_lock_enter_critical_section()
  78:C:/Users/Yushev/git/wpcqi-optiga-trust-charge/optiga/pal/xmc4700\pal_os_lock.c **** {
 246              	 .loc 1 78 0
 247              	 .cfi_startproc
 248              	 
 249              	 
 250              	 
 251 0000 80B4     	 push {r7}
 252              	.LCFI24:
 253              	 .cfi_def_cfa_offset 4
 254              	 .cfi_offset 7,-4
 255 0002 00AF     	 add r7,sp,#0
 256              	.LCFI25:
 257              	 .cfi_def_cfa_register 7
  79:C:/Users/Yushev/git/wpcqi-optiga-trust-charge/optiga/pal/xmc4700\pal_os_lock.c **** }
 258              	 .loc 1 79 0
 259 0004 BD46     	 mov sp,r7
 260              	.LCFI26:
 261              	 .cfi_def_cfa_register 13
 262              	 
 263 0006 5DF8047B 	 ldr r7,[sp],#4
 264              	.LCFI27:
 265              	 .cfi_restore 7
 266              	 .cfi_def_cfa_offset 0
 267 000a 7047     	 bx lr
 268              	 .cfi_endproc
 269              	.LFE4:
 271              	 .section .text.pal_os_lock_exit_critical_section,"ax",%progbits
 272              	 .align 2
 273              	 .global pal_os_lock_exit_critical_section
 274              	 .thumb
 275              	 .thumb_func
 277              	pal_os_lock_exit_critical_section:
 278              	.LFB5:
  80:C:/Users/Yushev/git/wpcqi-optiga-trust-charge/optiga/pal/xmc4700\pal_os_lock.c **** 
  81:C:/Users/Yushev/git/wpcqi-optiga-trust-charge/optiga/pal/xmc4700\pal_os_lock.c **** void pal_os_lock_exit_critical_section()
  82:C:/Users/Yushev/git/wpcqi-optiga-trust-charge/optiga/pal/xmc4700\pal_os_lock.c **** {
 279              	 .loc 1 82 0
 280              	 .cfi_startproc
 281              	 
 282              	 
 283              	 
 284 0000 80B4     	 push {r7}
 285              	.LCFI28:
 286              	 .cfi_def_cfa_offset 4
 287              	 .cfi_offset 7,-4
 288 0002 00AF     	 add r7,sp,#0
 289              	.LCFI29:
 290              	 .cfi_def_cfa_register 7
  83:C:/Users/Yushev/git/wpcqi-optiga-trust-charge/optiga/pal/xmc4700\pal_os_lock.c **** }
 291              	 .loc 1 83 0
 292 0004 BD46     	 mov sp,r7
 293              	.LCFI30:
 294              	 .cfi_def_cfa_register 13
 295              	 
 296 0006 5DF8047B 	 ldr r7,[sp],#4
 297              	.LCFI31:
 298              	 .cfi_restore 7
 299              	 .cfi_def_cfa_offset 0
 300 000a 7047     	 bx lr
 301              	 .cfi_endproc
 302              	.LFE5:
 304              	 .text
 305              	.Letext0:
 306              	 .file 2 "c:\\users\\yushev\\dave_4-4-2_32bit_2018-02-23\\dave-ide-4.4.2-32bit\\eclipse\\arm-gcc-49\\arm-none-eabi\\include\\machine\\_default_types.h"
 307              	 .file 3 "c:\\users\\yushev\\dave_4-4-2_32bit_2018-02-23\\dave-ide-4.4.2-32bit\\eclipse\\arm-gcc-49\\arm-none-eabi\\include\\stdint.h"
 308              	 .file 4 "C:/Users/Yushev/git/wpcqi-optiga-trust-charge/optiga/optiga/include/optiga/pal/pal.h"
 309              	 .file 5 "C:/Users/Yushev/git/wpcqi-optiga-trust-charge/optiga/optiga/include/optiga/pal/pal_os_lock.h"