   1              	 .syntax unified
   2              	 .cpu cortex-m4
   3              	 .eabi_attribute 27,3
   4              	 .fpu fpv4-sp-d16
   5              	 .eabi_attribute 20,1
   6              	 .eabi_attribute 21,1
   7              	 .eabi_attribute 23,3
   8              	 .eabi_attribute 24,1
   9              	 .eabi_attribute 25,1
  10              	 .eabi_attribute 26,1
  11              	 .eabi_attribute 30,6
  12              	 .eabi_attribute 34,1
  13              	 .eabi_attribute 18,4
  14              	 .thumb
  15              	 .file "pal_os_memory.c"
  16              	 .text
  17              	.Ltext0:
  18              	 .cfi_sections .debug_frame
  19              	 .section .text.pal_os_malloc,"ax",%progbits
  20              	 .align 2
  21              	 .global pal_os_malloc
  22              	 .thumb
  23              	 .thumb_func
  25              	pal_os_malloc:
  26              	.LFB387:
  27              	 .file 1 "C:/Users/Yushev/git/wpcqi-optiga-trust-charge/optiga/pal/xmc4700/pal_os_memory.c"
   1:C:/Users/Yushev/git/wpcqi-optiga-trust-charge/optiga/pal/xmc4700\pal_os_memory.c **** /**
   2:C:/Users/Yushev/git/wpcqi-optiga-trust-charge/optiga/pal/xmc4700\pal_os_memory.c **** * \copyright
   3:C:/Users/Yushev/git/wpcqi-optiga-trust-charge/optiga/pal/xmc4700\pal_os_memory.c **** * MIT License
   4:C:/Users/Yushev/git/wpcqi-optiga-trust-charge/optiga/pal/xmc4700\pal_os_memory.c **** *
   5:C:/Users/Yushev/git/wpcqi-optiga-trust-charge/optiga/pal/xmc4700\pal_os_memory.c **** * Copyright (c) 2020 Infineon Technologies AG
   6:C:/Users/Yushev/git/wpcqi-optiga-trust-charge/optiga/pal/xmc4700\pal_os_memory.c **** *
   7:C:/Users/Yushev/git/wpcqi-optiga-trust-charge/optiga/pal/xmc4700\pal_os_memory.c **** * Permission is hereby granted, free of charge, to any person obtaining a copy
   8:C:/Users/Yushev/git/wpcqi-optiga-trust-charge/optiga/pal/xmc4700\pal_os_memory.c **** * of this software and associated documentation files (the "Software"), to deal
   9:C:/Users/Yushev/git/wpcqi-optiga-trust-charge/optiga/pal/xmc4700\pal_os_memory.c **** * in the Software without restriction, including without limitation the rights
  10:C:/Users/Yushev/git/wpcqi-optiga-trust-charge/optiga/pal/xmc4700\pal_os_memory.c **** * to use, copy, modify, merge, publish, distribute, sublicense, and/or sell
  11:C:/Users/Yushev/git/wpcqi-optiga-trust-charge/optiga/pal/xmc4700\pal_os_memory.c **** * copies of the Software, and to permit persons to whom the Software is
  12:C:/Users/Yushev/git/wpcqi-optiga-trust-charge/optiga/pal/xmc4700\pal_os_memory.c **** * furnished to do so, subject to the following conditions:
  13:C:/Users/Yushev/git/wpcqi-optiga-trust-charge/optiga/pal/xmc4700\pal_os_memory.c **** *
  14:C:/Users/Yushev/git/wpcqi-optiga-trust-charge/optiga/pal/xmc4700\pal_os_memory.c **** * The above copyright notice and this permission notice shall be included in all
  15:C:/Users/Yushev/git/wpcqi-optiga-trust-charge/optiga/pal/xmc4700\pal_os_memory.c **** * copies or substantial portions of the Software.
  16:C:/Users/Yushev/git/wpcqi-optiga-trust-charge/optiga/pal/xmc4700\pal_os_memory.c **** *
  17:C:/Users/Yushev/git/wpcqi-optiga-trust-charge/optiga/pal/xmc4700\pal_os_memory.c **** * THE SOFTWARE IS PROVIDED "AS IS", WITHOUT WARRANTY OF ANY KIND, EXPRESS OR
  18:C:/Users/Yushev/git/wpcqi-optiga-trust-charge/optiga/pal/xmc4700\pal_os_memory.c **** * IMPLIED, INCLUDING BUT NOT LIMITED TO THE WARRANTIES OF MERCHANTABILITY,
  19:C:/Users/Yushev/git/wpcqi-optiga-trust-charge/optiga/pal/xmc4700\pal_os_memory.c **** * FITNESS FOR A PARTICULAR PURPOSE AND NONINFRINGEMENT. IN NO EVENT SHALL THE
  20:C:/Users/Yushev/git/wpcqi-optiga-trust-charge/optiga/pal/xmc4700\pal_os_memory.c **** * AUTHORS OR COPYRIGHT HOLDERS BE LIABLE FOR ANY CLAIM, DAMAGES OR OTHER
  21:C:/Users/Yushev/git/wpcqi-optiga-trust-charge/optiga/pal/xmc4700\pal_os_memory.c **** * LIABILITY, WHETHER IN AN ACTION OF CONTRACT, TORT OR OTHERWISE, ARISING FROM,
  22:C:/Users/Yushev/git/wpcqi-optiga-trust-charge/optiga/pal/xmc4700\pal_os_memory.c **** * OUT OF OR IN CONNECTION WITH THE SOFTWARE OR THE USE OR OTHER DEALINGS IN THE
  23:C:/Users/Yushev/git/wpcqi-optiga-trust-charge/optiga/pal/xmc4700\pal_os_memory.c **** * SOFTWARE
  24:C:/Users/Yushev/git/wpcqi-optiga-trust-charge/optiga/pal/xmc4700\pal_os_memory.c **** *
  25:C:/Users/Yushev/git/wpcqi-optiga-trust-charge/optiga/pal/xmc4700\pal_os_memory.c **** * \endcopyright
  26:C:/Users/Yushev/git/wpcqi-optiga-trust-charge/optiga/pal/xmc4700\pal_os_memory.c **** *
  27:C:/Users/Yushev/git/wpcqi-optiga-trust-charge/optiga/pal/xmc4700\pal_os_memory.c **** * \author Infineon Technologies AG
  28:C:/Users/Yushev/git/wpcqi-optiga-trust-charge/optiga/pal/xmc4700\pal_os_memory.c **** *
  29:C:/Users/Yushev/git/wpcqi-optiga-trust-charge/optiga/pal/xmc4700\pal_os_memory.c **** * \file pal_gpio.c
  30:C:/Users/Yushev/git/wpcqi-optiga-trust-charge/optiga/pal/xmc4700\pal_os_memory.c **** *
  31:C:/Users/Yushev/git/wpcqi-optiga-trust-charge/optiga/pal/xmc4700\pal_os_memory.c **** * \brief   This file implements the platform abstraction layer APIs for GPIO.
  32:C:/Users/Yushev/git/wpcqi-optiga-trust-charge/optiga/pal/xmc4700\pal_os_memory.c **** *
  33:C:/Users/Yushev/git/wpcqi-optiga-trust-charge/optiga/pal/xmc4700\pal_os_memory.c **** * \ingroup  grPAL
  34:C:/Users/Yushev/git/wpcqi-optiga-trust-charge/optiga/pal/xmc4700\pal_os_memory.c **** *
  35:C:/Users/Yushev/git/wpcqi-optiga-trust-charge/optiga/pal/xmc4700\pal_os_memory.c **** * @{
  36:C:/Users/Yushev/git/wpcqi-optiga-trust-charge/optiga/pal/xmc4700\pal_os_memory.c **** */
  37:C:/Users/Yushev/git/wpcqi-optiga-trust-charge/optiga/pal/xmc4700\pal_os_memory.c **** 
  38:C:/Users/Yushev/git/wpcqi-optiga-trust-charge/optiga/pal/xmc4700\pal_os_memory.c **** #include <DAVE.h>
  39:C:/Users/Yushev/git/wpcqi-optiga-trust-charge/optiga/pal/xmc4700\pal_os_memory.c **** #include "optiga/pal/pal_os_memory.h"
  40:C:/Users/Yushev/git/wpcqi-optiga-trust-charge/optiga/pal/xmc4700\pal_os_memory.c **** 
  41:C:/Users/Yushev/git/wpcqi-optiga-trust-charge/optiga/pal/xmc4700\pal_os_memory.c **** void * pal_os_malloc(uint32_t block_size)
  42:C:/Users/Yushev/git/wpcqi-optiga-trust-charge/optiga/pal/xmc4700\pal_os_memory.c **** {
  28              	 .loc 1 42 0
  29              	 .cfi_startproc
  30              	 
  31              	 
  32 0000 80B5     	 push {r7,lr}
  33              	.LCFI0:
  34              	 .cfi_def_cfa_offset 8
  35              	 .cfi_offset 7,-8
  36              	 .cfi_offset 14,-4
  37 0002 82B0     	 sub sp,sp,#8
  38              	.LCFI1:
  39              	 .cfi_def_cfa_offset 16
  40 0004 00AF     	 add r7,sp,#0
  41              	.LCFI2:
  42              	 .cfi_def_cfa_register 7
  43 0006 7860     	 str r0,[r7,#4]
  43:C:/Users/Yushev/git/wpcqi-optiga-trust-charge/optiga/pal/xmc4700\pal_os_memory.c ****     return (malloc(block_size));
  44              	 .loc 1 43 0
  45 0008 7868     	 ldr r0,[r7,#4]
  46 000a FFF7FEFF 	 bl malloc
  47 000e 0346     	 mov r3,r0
  44:C:/Users/Yushev/git/wpcqi-optiga-trust-charge/optiga/pal/xmc4700\pal_os_memory.c **** }
  48              	 .loc 1 44 0
  49 0010 1846     	 mov r0,r3
  50 0012 0837     	 adds r7,r7,#8
  51              	.LCFI3:
  52              	 .cfi_def_cfa_offset 8
  53 0014 BD46     	 mov sp,r7
  54              	.LCFI4:
  55              	 .cfi_def_cfa_register 13
  56              	 
  57 0016 80BD     	 pop {r7,pc}
  58              	 .cfi_endproc
  59              	.LFE387:
  61              	 .section .text.pal_os_calloc,"ax",%progbits
  62              	 .align 2
  63              	 .global pal_os_calloc
  64              	 .thumb
  65              	 .thumb_func
  67              	pal_os_calloc:
  68              	.LFB388:
  45:C:/Users/Yushev/git/wpcqi-optiga-trust-charge/optiga/pal/xmc4700\pal_os_memory.c **** 
  46:C:/Users/Yushev/git/wpcqi-optiga-trust-charge/optiga/pal/xmc4700\pal_os_memory.c **** void * pal_os_calloc(uint32_t number_of_blocks , uint32_t block_size)
  47:C:/Users/Yushev/git/wpcqi-optiga-trust-charge/optiga/pal/xmc4700\pal_os_memory.c **** {
  69              	 .loc 1 47 0
  70              	 .cfi_startproc
  71              	 
  72              	 
  73 0000 80B5     	 push {r7,lr}
  74              	.LCFI5:
  75              	 .cfi_def_cfa_offset 8
  76              	 .cfi_offset 7,-8
  77              	 .cfi_offset 14,-4
  78 0002 82B0     	 sub sp,sp,#8
  79              	.LCFI6:
  80              	 .cfi_def_cfa_offset 16
  81 0004 00AF     	 add r7,sp,#0
  82              	.LCFI7:
  83              	 .cfi_def_cfa_register 7
  84 0006 7860     	 str r0,[r7,#4]
  85 0008 3960     	 str r1,[r7]
  48:C:/Users/Yushev/git/wpcqi-optiga-trust-charge/optiga/pal/xmc4700\pal_os_memory.c ****     return (calloc(number_of_blocks, block_size));
  86              	 .loc 1 48 0
  87 000a 7868     	 ldr r0,[r7,#4]
  88 000c 3968     	 ldr r1,[r7]
  89 000e FFF7FEFF 	 bl calloc
  90 0012 0346     	 mov r3,r0
  49:C:/Users/Yushev/git/wpcqi-optiga-trust-charge/optiga/pal/xmc4700\pal_os_memory.c **** }
  91              	 .loc 1 49 0
  92 0014 1846     	 mov r0,r3
  93 0016 0837     	 adds r7,r7,#8
  94              	.LCFI8:
  95              	 .cfi_def_cfa_offset 8
  96 0018 BD46     	 mov sp,r7
  97              	.LCFI9:
  98              	 .cfi_def_cfa_register 13
  99              	 
 100 001a 80BD     	 pop {r7,pc}
 101              	 .cfi_endproc
 102              	.LFE388:
 104              	 .section .text.pal_os_free,"ax",%progbits
 105              	 .align 2
 106              	 .global pal_os_free
 107              	 .thumb
 108              	 .thumb_func
 110              	pal_os_free:
 111              	.LFB389:
  50:C:/Users/Yushev/git/wpcqi-optiga-trust-charge/optiga/pal/xmc4700\pal_os_memory.c **** 
  51:C:/Users/Yushev/git/wpcqi-optiga-trust-charge/optiga/pal/xmc4700\pal_os_memory.c **** void pal_os_free(void * p_block)
  52:C:/Users/Yushev/git/wpcqi-optiga-trust-charge/optiga/pal/xmc4700\pal_os_memory.c **** {
 112              	 .loc 1 52 0
 113              	 .cfi_startproc
 114              	 
 115              	 
 116 0000 80B5     	 push {r7,lr}
 117              	.LCFI10:
 118              	 .cfi_def_cfa_offset 8
 119              	 .cfi_offset 7,-8
 120              	 .cfi_offset 14,-4
 121 0002 82B0     	 sub sp,sp,#8
 122              	.LCFI11:
 123              	 .cfi_def_cfa_offset 16
 124 0004 00AF     	 add r7,sp,#0
 125              	.LCFI12:
 126              	 .cfi_def_cfa_register 7
 127 0006 7860     	 str r0,[r7,#4]
  53:C:/Users/Yushev/git/wpcqi-optiga-trust-charge/optiga/pal/xmc4700\pal_os_memory.c ****     free(p_block);
 128              	 .loc 1 53 0
 129 0008 7868     	 ldr r0,[r7,#4]
 130 000a FFF7FEFF 	 bl free
  54:C:/Users/Yushev/git/wpcqi-optiga-trust-charge/optiga/pal/xmc4700\pal_os_memory.c **** }
 131              	 .loc 1 54 0
 132 000e 0837     	 adds r7,r7,#8
 133              	.LCFI13:
 134              	 .cfi_def_cfa_offset 8
 135 0010 BD46     	 mov sp,r7
 136              	.LCFI14:
 137              	 .cfi_def_cfa_register 13
 138              	 
 139 0012 80BD     	 pop {r7,pc}
 140              	 .cfi_endproc
 141              	.LFE389:
 143              	 .section .text.pal_os_memcpy,"ax",%progbits
 144              	 .align 2
 145              	 .global pal_os_memcpy
 146              	 .thumb
 147              	 .thumb_func
 149              	pal_os_memcpy:
 150              	.LFB390:
  55:C:/Users/Yushev/git/wpcqi-optiga-trust-charge/optiga/pal/xmc4700\pal_os_memory.c **** 
  56:C:/Users/Yushev/git/wpcqi-optiga-trust-charge/optiga/pal/xmc4700\pal_os_memory.c **** void pal_os_memcpy(void * p_destination, const void * p_source, uint32_t size)
  57:C:/Users/Yushev/git/wpcqi-optiga-trust-charge/optiga/pal/xmc4700\pal_os_memory.c **** {
 151              	 .loc 1 57 0
 152              	 .cfi_startproc
 153              	 
 154              	 
 155 0000 80B5     	 push {r7,lr}
 156              	.LCFI15:
 157              	 .cfi_def_cfa_offset 8
 158              	 .cfi_offset 7,-8
 159              	 .cfi_offset 14,-4
 160 0002 84B0     	 sub sp,sp,#16
 161              	.LCFI16:
 162              	 .cfi_def_cfa_offset 24
 163 0004 00AF     	 add r7,sp,#0
 164              	.LCFI17:
 165              	 .cfi_def_cfa_register 7
 166 0006 F860     	 str r0,[r7,#12]
 167 0008 B960     	 str r1,[r7,#8]
 168 000a 7A60     	 str r2,[r7,#4]
  58:C:/Users/Yushev/git/wpcqi-optiga-trust-charge/optiga/pal/xmc4700\pal_os_memory.c ****     memcpy(p_destination, p_source, size);
 169              	 .loc 1 58 0
 170 000c F868     	 ldr r0,[r7,#12]
 171 000e B968     	 ldr r1,[r7,#8]
 172 0010 7A68     	 ldr r2,[r7,#4]
 173 0012 FFF7FEFF 	 bl memcpy
  59:C:/Users/Yushev/git/wpcqi-optiga-trust-charge/optiga/pal/xmc4700\pal_os_memory.c **** }
 174              	 .loc 1 59 0
 175 0016 1037     	 adds r7,r7,#16
 176              	.LCFI18:
 177              	 .cfi_def_cfa_offset 8
 178 0018 BD46     	 mov sp,r7
 179              	.LCFI19:
 180              	 .cfi_def_cfa_register 13
 181              	 
 182 001a 80BD     	 pop {r7,pc}
 183              	 .cfi_endproc
 184              	.LFE390:
 186              	 .section .text.pal_os_memset,"ax",%progbits
 187              	 .align 2
 188              	 .global pal_os_memset
 189              	 .thumb
 190              	 .thumb_func
 192              	pal_os_memset:
 193              	.LFB391:
  60:C:/Users/Yushev/git/wpcqi-optiga-trust-charge/optiga/pal/xmc4700\pal_os_memory.c **** 
  61:C:/Users/Yushev/git/wpcqi-optiga-trust-charge/optiga/pal/xmc4700\pal_os_memory.c **** void pal_os_memset(void * p_buffer, uint32_t value, uint32_t size)
  62:C:/Users/Yushev/git/wpcqi-optiga-trust-charge/optiga/pal/xmc4700\pal_os_memory.c **** {
 194              	 .loc 1 62 0
 195              	 .cfi_startproc
 196              	 
 197              	 
 198 0000 80B5     	 push {r7,lr}
 199              	.LCFI20:
 200              	 .cfi_def_cfa_offset 8
 201              	 .cfi_offset 7,-8
 202              	 .cfi_offset 14,-4
 203 0002 84B0     	 sub sp,sp,#16
 204              	.LCFI21:
 205              	 .cfi_def_cfa_offset 24
 206 0004 00AF     	 add r7,sp,#0
 207              	.LCFI22:
 208              	 .cfi_def_cfa_register 7
 209 0006 F860     	 str r0,[r7,#12]
 210 0008 B960     	 str r1,[r7,#8]
 211 000a 7A60     	 str r2,[r7,#4]
  63:C:/Users/Yushev/git/wpcqi-optiga-trust-charge/optiga/pal/xmc4700\pal_os_memory.c ****     memset(p_buffer, (int32_t)value, size);
 212              	 .loc 1 63 0
 213 000c BB68     	 ldr r3,[r7,#8]
 214 000e F868     	 ldr r0,[r7,#12]
 215 0010 1946     	 mov r1,r3
 216 0012 7A68     	 ldr r2,[r7,#4]
 217 0014 FFF7FEFF 	 bl memset
  64:C:/Users/Yushev/git/wpcqi-optiga-trust-charge/optiga/pal/xmc4700\pal_os_memory.c **** }
 218              	 .loc 1 64 0
 219 0018 1037     	 adds r7,r7,#16
 220              	.LCFI23:
 221              	 .cfi_def_cfa_offset 8
 222 001a BD46     	 mov sp,r7
 223              	.LCFI24:
 224              	 .cfi_def_cfa_register 13
 225              	 
 226 001c 80BD     	 pop {r7,pc}
 227              	 .cfi_endproc
 228              	.LFE391:
 230 001e 00BF     	 .text
 231              	.Letext0:
 232              	 .file 2 "c:\\users\\yushev\\dave_4-4-2_32bit_2018-02-23\\dave-ide-4.4.2-32bit\\eclipse\\arm-gcc-49\\arm-none-eabi\\include\\machine\\_default_types.h"
 233              	 .file 3 "c:\\users\\yushev\\dave_4-4-2_32bit_2018-02-23\\dave-ide-4.4.2-32bit\\eclipse\\arm-gcc-49\\arm-none-eabi\\include\\stdint.h"
 234              	 .file 4 "C:/Users/Yushev/git/wpcqi-optiga-trust-charge/projects/xmc4700_relax_kit_qi_auth_example/common/Libraries/CMSIS/Infineon/XMC4700_series/Include/XMC4700.h"
 235              	 .file 5 "C:/Users/Yushev/git/wpcqi-optiga-trust-charge/projects/xmc4700_relax_kit_qi_auth_example/common/Libraries/XMCLib/inc/xmc_usbd_regs.h"
 236              	 .file 6 "C:/Users/Yushev/git/wpcqi-optiga-trust-charge/projects/xmc4700_relax_kit_qi_auth_example/common/Libraries/XMCLib/inc/xmc_usbd.h"
 237              	 .file 7 "C:/Users/Yushev/git/wpcqi-optiga-trust-charge/projects/xmc4700_relax_kit_qi_auth_example/common/Dave/Generated/USBD/usbd.h"
 238              	 .file 8 "C:/Users/Yushev/git/wpcqi-optiga-trust-charge/projects/xmc4700_relax_kit_qi_auth_example/common/Libraries/CMSIS/Include/core_cm4.h"
 239              	 .file 9 "C:/Users/Yushev/git/wpcqi-optiga-trust-charge/projects/xmc4700_relax_kit_qi_auth_example/common/Libraries/CMSIS/Infineon/XMC4700_series/Include/system_XMC4700.h"
 240              	 .file 10 "C:/Users/Yushev/git/wpcqi-optiga-trust-charge/projects/xmc4700_relax_kit_qi_auth_example/common/Dave/Generated/USBD/usbd_extern.h"