   1              	 .syntax unified
   2              	 .cpu cortex-m4
   3              	 .eabi_attribute 27,3
   4              	 .fpu fpv4-sp-d16
   5              	 .eabi_attribute 20,1
   6              	 .eabi_attribute 21,1
   7              	 .eabi_attribute 23,3
   8              	 .eabi_attribute 24,1
   9              	 .eabi_attribute 25,1
  10              	 .eabi_attribute 26,1
  11              	 .eabi_attribute 30,4
  12              	 .eabi_attribute 34,1
  13              	 .eabi_attribute 18,4
  14              	 .thumb
  15              	 .file "optiga_lib_logger.c"
  16              	 .text
  17              	.Ltext0:
  18              	 .cfi_sections .debug_frame
  19              	 .section .text.optiga_lib_word_to_hex_string,"ax",%progbits
  20              	 .align 1
  21              	 .thumb
  22              	 .thumb_func
  24              	optiga_lib_word_to_hex_string:
  25              	.LFB1:
  26              	 .file 1 "C:/Users/Yushev/git/optiga-trust-qi/optiga/common/optiga_lib_logger.c"
   1:C:/Users/Yushev/git/optiga-trust-qi/optiga/common\optiga_lib_logger.c **** /**
   2:C:/Users/Yushev/git/optiga-trust-qi/optiga/common\optiga_lib_logger.c **** * \copyright
   3:C:/Users/Yushev/git/optiga-trust-qi/optiga/common\optiga_lib_logger.c **** * MIT License
   4:C:/Users/Yushev/git/optiga-trust-qi/optiga/common\optiga_lib_logger.c **** *
   5:C:/Users/Yushev/git/optiga-trust-qi/optiga/common\optiga_lib_logger.c **** * Copyright (c) 2020 Infineon Technologies AG
   6:C:/Users/Yushev/git/optiga-trust-qi/optiga/common\optiga_lib_logger.c **** *
   7:C:/Users/Yushev/git/optiga-trust-qi/optiga/common\optiga_lib_logger.c **** * Permission is hereby granted, free of charge, to any person obtaining a copy
   8:C:/Users/Yushev/git/optiga-trust-qi/optiga/common\optiga_lib_logger.c **** * of this software and associated documentation files (the "Software"), to deal
   9:C:/Users/Yushev/git/optiga-trust-qi/optiga/common\optiga_lib_logger.c **** * in the Software without restriction, including without limitation the rights
  10:C:/Users/Yushev/git/optiga-trust-qi/optiga/common\optiga_lib_logger.c **** * to use, copy, modify, merge, publish, distribute, sublicense, and/or sell
  11:C:/Users/Yushev/git/optiga-trust-qi/optiga/common\optiga_lib_logger.c **** * copies of the Software, and to permit persons to whom the Software is
  12:C:/Users/Yushev/git/optiga-trust-qi/optiga/common\optiga_lib_logger.c **** * furnished to do so, subject to the following conditions:
  13:C:/Users/Yushev/git/optiga-trust-qi/optiga/common\optiga_lib_logger.c **** *
  14:C:/Users/Yushev/git/optiga-trust-qi/optiga/common\optiga_lib_logger.c **** * The above copyright notice and this permission notice shall be included in all
  15:C:/Users/Yushev/git/optiga-trust-qi/optiga/common\optiga_lib_logger.c **** * copies or substantial portions of the Software.
  16:C:/Users/Yushev/git/optiga-trust-qi/optiga/common\optiga_lib_logger.c **** *
  17:C:/Users/Yushev/git/optiga-trust-qi/optiga/common\optiga_lib_logger.c **** * THE SOFTWARE IS PROVIDED "AS IS", WITHOUT WARRANTY OF ANY KIND, EXPRESS OR
  18:C:/Users/Yushev/git/optiga-trust-qi/optiga/common\optiga_lib_logger.c **** * IMPLIED, INCLUDING BUT NOT LIMITED TO THE WARRANTIES OF MERCHANTABILITY,
  19:C:/Users/Yushev/git/optiga-trust-qi/optiga/common\optiga_lib_logger.c **** * FITNESS FOR A PARTICULAR PURPOSE AND NONINFRINGEMENT. IN NO EVENT SHALL THE
  20:C:/Users/Yushev/git/optiga-trust-qi/optiga/common\optiga_lib_logger.c **** * AUTHORS OR COPYRIGHT HOLDERS BE LIABLE FOR ANY CLAIM, DAMAGES OR OTHER
  21:C:/Users/Yushev/git/optiga-trust-qi/optiga/common\optiga_lib_logger.c **** * LIABILITY, WHETHER IN AN ACTION OF CONTRACT, TORT OR OTHERWISE, ARISING FROM,
  22:C:/Users/Yushev/git/optiga-trust-qi/optiga/common\optiga_lib_logger.c **** * OUT OF OR IN CONNECTION WITH THE SOFTWARE OR THE USE OR OTHER DEALINGS IN THE
  23:C:/Users/Yushev/git/optiga-trust-qi/optiga/common\optiga_lib_logger.c **** * SOFTWARE
  24:C:/Users/Yushev/git/optiga-trust-qi/optiga/common\optiga_lib_logger.c **** *
  25:C:/Users/Yushev/git/optiga-trust-qi/optiga/common\optiga_lib_logger.c **** * \endcopyright
  26:C:/Users/Yushev/git/optiga-trust-qi/optiga/common\optiga_lib_logger.c **** *
  27:C:/Users/Yushev/git/optiga-trust-qi/optiga/common\optiga_lib_logger.c **** * \author Infineon Technologies AG
  28:C:/Users/Yushev/git/optiga-trust-qi/optiga/common\optiga_lib_logger.c **** *
  29:C:/Users/Yushev/git/optiga-trust-qi/optiga/common\optiga_lib_logger.c **** * \file optiga_lib_logger.c
  30:C:/Users/Yushev/git/optiga-trust-qi/optiga/common\optiga_lib_logger.c **** *
  31:C:/Users/Yushev/git/optiga-trust-qi/optiga/common\optiga_lib_logger.c **** * \brief   This file implements the APIs for the OPTIGA library logger.
  32:C:/Users/Yushev/git/optiga-trust-qi/optiga/common\optiga_lib_logger.c **** *
  33:C:/Users/Yushev/git/optiga-trust-qi/optiga/common\optiga_lib_logger.c **** * \ingroup  grOptigaLibCommon
  34:C:/Users/Yushev/git/optiga-trust-qi/optiga/common\optiga_lib_logger.c **** *
  35:C:/Users/Yushev/git/optiga-trust-qi/optiga/common\optiga_lib_logger.c **** * @{
  36:C:/Users/Yushev/git/optiga-trust-qi/optiga/common\optiga_lib_logger.c **** */
  37:C:/Users/Yushev/git/optiga-trust-qi/optiga/common\optiga_lib_logger.c **** 
  38:C:/Users/Yushev/git/optiga-trust-qi/optiga/common\optiga_lib_logger.c **** #include "optiga/common/optiga_lib_common.h"
  39:C:/Users/Yushev/git/optiga-trust-qi/optiga/common\optiga_lib_logger.c **** #include "optiga/common/optiga_lib_logger.h"
  40:C:/Users/Yushev/git/optiga-trust-qi/optiga/common\optiga_lib_logger.c **** #include "optiga/pal/pal_logger.h"
  41:C:/Users/Yushev/git/optiga-trust-qi/optiga/common\optiga_lib_logger.c **** #include "optiga/pal/pal_os_memory.h"
  42:C:/Users/Yushev/git/optiga-trust-qi/optiga/common\optiga_lib_logger.c **** 
  43:C:/Users/Yushev/git/optiga-trust-qi/optiga/common\optiga_lib_logger.c **** 
  44:C:/Users/Yushev/git/optiga-trust-qi/optiga/common\optiga_lib_logger.c **** #define OPTIGA_LOGGER_NEW_LINE_CHAR          0x0D, 0x0A
  45:C:/Users/Yushev/git/optiga-trust-qi/optiga/common\optiga_lib_logger.c **** 
  46:C:/Users/Yushev/git/optiga-trust-qi/optiga/common\optiga_lib_logger.c **** extern pal_logger_t logger_console;
  47:C:/Users/Yushev/git/optiga-trust-qi/optiga/common\optiga_lib_logger.c **** 
  48:C:/Users/Yushev/git/optiga-trust-qi/optiga/common\optiga_lib_logger.c **** /*Convert Byte to HexString */
  49:C:/Users/Yushev/git/optiga-trust-qi/optiga/common\optiga_lib_logger.c **** #define OPTIGA_LOGGER_CONVERT_BYTE_TO_HEX(hex_byte, p_hex_string, index) \
  50:C:/Users/Yushev/git/optiga-trust-qi/optiga/common\optiga_lib_logger.c **** { \
  51:C:/Users/Yushev/git/optiga-trust-qi/optiga/common\optiga_lib_logger.c ****     uint8_t nibble;                       \
  52:C:/Users/Yushev/git/optiga-trust-qi/optiga/common\optiga_lib_logger.c ****     nibble = (hex_byte & 0xF0)>>4;         \
  53:C:/Users/Yushev/git/optiga-trust-qi/optiga/common\optiga_lib_logger.c ****     p_hex_string [index++] = ((nibble > 0x09)) ? (nibble + 0x37) : (nibble + 0x30); \
  54:C:/Users/Yushev/git/optiga-trust-qi/optiga/common\optiga_lib_logger.c ****     nibble = hex_byte & 0x0F;         \
  55:C:/Users/Yushev/git/optiga-trust-qi/optiga/common\optiga_lib_logger.c ****     p_hex_string [index++] = ((nibble > 0x09)) ? (nibble + 0x37) : (nibble + 0x30); \
  56:C:/Users/Yushev/git/optiga-trust-qi/optiga/common\optiga_lib_logger.c **** }
  57:C:/Users/Yushev/git/optiga-trust-qi/optiga/common\optiga_lib_logger.c **** 
  58:C:/Users/Yushev/git/optiga-trust-qi/optiga/common\optiga_lib_logger.c **** /* Converts the uint8 array to hex string format */
  59:C:/Users/Yushev/git/optiga-trust-qi/optiga/common\optiga_lib_logger.c **** _STATIC_H void optiga_lib_byte_to_hex_string(const uint8_t * p_array_buffer,
  60:C:/Users/Yushev/git/optiga-trust-qi/optiga/common\optiga_lib_logger.c ****                                              uint8_t * p_hex_string,
  61:C:/Users/Yushev/git/optiga-trust-qi/optiga/common\optiga_lib_logger.c ****                                              uint32_t length,
  62:C:/Users/Yushev/git/optiga-trust-qi/optiga/common\optiga_lib_logger.c ****                                              bool_t is_input_byte_array)
  63:C:/Users/Yushev/git/optiga-trust-qi/optiga/common\optiga_lib_logger.c **** {
  64:C:/Users/Yushev/git/optiga-trust-qi/optiga/common\optiga_lib_logger.c ****     uint32_t loop = 0;
  65:C:/Users/Yushev/git/optiga-trust-qi/optiga/common\optiga_lib_logger.c ****     uint8_t hex_byte = 0, index = 0;
  66:C:/Users/Yushev/git/optiga-trust-qi/optiga/common\optiga_lib_logger.c **** 
  67:C:/Users/Yushev/git/optiga-trust-qi/optiga/common\optiga_lib_logger.c ****     do
  68:C:/Users/Yushev/git/optiga-trust-qi/optiga/common\optiga_lib_logger.c ****     {
  69:C:/Users/Yushev/git/optiga-trust-qi/optiga/common\optiga_lib_logger.c ****         if ((NULL == p_array_buffer) || (NULL == p_hex_string))
  70:C:/Users/Yushev/git/optiga-trust-qi/optiga/common\optiga_lib_logger.c ****         {
  71:C:/Users/Yushev/git/optiga-trust-qi/optiga/common\optiga_lib_logger.c ****             return;
  72:C:/Users/Yushev/git/optiga-trust-qi/optiga/common\optiga_lib_logger.c ****         }
  73:C:/Users/Yushev/git/optiga-trust-qi/optiga/common\optiga_lib_logger.c **** 
  74:C:/Users/Yushev/git/optiga-trust-qi/optiga/common\optiga_lib_logger.c ****         for (loop = 0; loop < length; loop++)
  75:C:/Users/Yushev/git/optiga-trust-qi/optiga/common\optiga_lib_logger.c ****         {
  76:C:/Users/Yushev/git/optiga-trust-qi/optiga/common\optiga_lib_logger.c ****             index = 0;
  77:C:/Users/Yushev/git/optiga-trust-qi/optiga/common\optiga_lib_logger.c ****             hex_byte = p_array_buffer[loop];
  78:C:/Users/Yushev/git/optiga-trust-qi/optiga/common\optiga_lib_logger.c ****             if (TRUE == is_input_byte_array)
  79:C:/Users/Yushev/git/optiga-trust-qi/optiga/common\optiga_lib_logger.c ****             {
  80:C:/Users/Yushev/git/optiga-trust-qi/optiga/common\optiga_lib_logger.c ****                 p_hex_string [index++] = '0';
  81:C:/Users/Yushev/git/optiga-trust-qi/optiga/common\optiga_lib_logger.c ****                 p_hex_string [index++] = 'x';
  82:C:/Users/Yushev/git/optiga-trust-qi/optiga/common\optiga_lib_logger.c ****             }
  83:C:/Users/Yushev/git/optiga-trust-qi/optiga/common\optiga_lib_logger.c **** 
  84:C:/Users/Yushev/git/optiga-trust-qi/optiga/common\optiga_lib_logger.c ****             /*Convert Byte to HexString */
  85:C:/Users/Yushev/git/optiga-trust-qi/optiga/common\optiga_lib_logger.c ****             OPTIGA_LOGGER_CONVERT_BYTE_TO_HEX(hex_byte,p_hex_string, index);
  86:C:/Users/Yushev/git/optiga-trust-qi/optiga/common\optiga_lib_logger.c ****             
  87:C:/Users/Yushev/git/optiga-trust-qi/optiga/common\optiga_lib_logger.c ****             p_hex_string [index++] = ' ';
  88:C:/Users/Yushev/git/optiga-trust-qi/optiga/common\optiga_lib_logger.c ****             p_hex_string += index;
  89:C:/Users/Yushev/git/optiga-trust-qi/optiga/common\optiga_lib_logger.c ****         }
  90:C:/Users/Yushev/git/optiga-trust-qi/optiga/common\optiga_lib_logger.c ****         *p_hex_string = 0x00;
  91:C:/Users/Yushev/git/optiga-trust-qi/optiga/common\optiga_lib_logger.c ****     } while(0);
  92:C:/Users/Yushev/git/optiga-trust-qi/optiga/common\optiga_lib_logger.c **** }
  93:C:/Users/Yushev/git/optiga-trust-qi/optiga/common\optiga_lib_logger.c **** /* Converts the uint16 value to hex string format */
  94:C:/Users/Yushev/git/optiga-trust-qi/optiga/common\optiga_lib_logger.c **** _STATIC_H void optiga_lib_word_to_hex_string(uint16_t value,
  95:C:/Users/Yushev/git/optiga-trust-qi/optiga/common\optiga_lib_logger.c ****                                              uint8_t * p_buffer)
  96:C:/Users/Yushev/git/optiga-trust-qi/optiga/common\optiga_lib_logger.c **** {
  27              	 .loc 1 96 0
  28              	 .cfi_startproc
  29              	 
  30              	 
  31              	 
  32              	.LVL0:
  33 0000 82B0     	 sub sp,sp,#8
  34              	.LCFI0:
  35              	 .cfi_def_cfa_offset 8
  97:C:/Users/Yushev/git/optiga-trust-qi/optiga/common\optiga_lib_logger.c ****     uint8_t array_buffer [5] = {0};   
  98:C:/Users/Yushev/git/optiga-trust-qi/optiga/common\optiga_lib_logger.c ****     uint8_t loop, hex_byte = 0, index = 0;
  99:C:/Users/Yushev/git/optiga-trust-qi/optiga/common\optiga_lib_logger.c ****     
 100:C:/Users/Yushev/git/optiga-trust-qi/optiga/common\optiga_lib_logger.c ****     array_buffer [0] = (uint8_t)((value & 0xFF00) >> 8);
 101:C:/Users/Yushev/git/optiga-trust-qi/optiga/common\optiga_lib_logger.c ****     array_buffer [1] = (uint8_t)((value & 0x00FF));
 102:C:/Users/Yushev/git/optiga-trust-qi/optiga/common\optiga_lib_logger.c **** 
 103:C:/Users/Yushev/git/optiga-trust-qi/optiga/common\optiga_lib_logger.c ****     p_buffer [index++] = '0';
  36              	 .loc 1 103 0
  37 0002 3023     	 movs r3,#48
 101:C:/Users/Yushev/git/optiga-trust-qi/optiga/common\optiga_lib_logger.c **** 
  38              	 .loc 1 101 0
  39 0004 8DF80100 	 strb r0,[sp,#1]
  40              	.LVL1:
  41              	 .loc 1 103 0
  42 0008 0B70     	 strb r3,[r1]
  43              	.LVL2:
 104:C:/Users/Yushev/git/optiga-trust-qi/optiga/common\optiga_lib_logger.c ****     p_buffer [index++] = 'x';
 105:C:/Users/Yushev/git/optiga-trust-qi/optiga/common\optiga_lib_logger.c ****     
 106:C:/Users/Yushev/git/optiga-trust-qi/optiga/common\optiga_lib_logger.c ****     for (loop = 0; loop < 2; loop++)
 107:C:/Users/Yushev/git/optiga-trust-qi/optiga/common\optiga_lib_logger.c ****     {
 108:C:/Users/Yushev/git/optiga-trust-qi/optiga/common\optiga_lib_logger.c ****         hex_byte = array_buffer[loop];
  44              	 .loc 1 108 0
  45 000a 000A     	 lsrs r0,r0,#8
  46              	.LVL3:
 104:C:/Users/Yushev/git/optiga-trust-qi/optiga/common\optiga_lib_logger.c ****     p_buffer [index++] = 'x';
  47              	 .loc 1 104 0
  48 000c 7823     	 movs r3,#120
  49 000e 4B70     	 strb r3,[r1,#1]
  50              	.LVL4:
  51              	.LBB3:
 109:C:/Users/Yushev/git/optiga-trust-qi/optiga/common\optiga_lib_logger.c **** 
 110:C:/Users/Yushev/git/optiga-trust-qi/optiga/common\optiga_lib_logger.c ****         /*Convert Byte to HexString */
 111:C:/Users/Yushev/git/optiga-trust-qi/optiga/common\optiga_lib_logger.c ****         OPTIGA_LOGGER_CONVERT_BYTE_TO_HEX(hex_byte,p_buffer, index);
  52              	 .loc 1 111 0
  53 0010 0309     	 lsrs r3,r0,#4
  54              	.LVL5:
  55 0012 092B     	 cmp r3,#9
  56 0014 94BF     	 ite ls
  57 0016 3033     	 addls r3,r3,#48
  58              	.LVL6:
  59 0018 3733     	 addhi r3,r3,#55
  60 001a 8B70     	 strb r3,[r1,#2]
  61              	.LBE3:
 108:C:/Users/Yushev/git/optiga-trust-qi/optiga/common\optiga_lib_logger.c **** 
  62              	 .loc 1 108 0
  63 001c 9DF80130 	 ldrb r3,[sp,#1]
  64              	.LBB4:
  65              	 .loc 1 111 0
  66 0020 00F00F00 	 and r0,r0,#15
  67              	.LVL7:
  68 0024 1A09     	 lsrs r2,r3,#4
  69 0026 0928     	 cmp r0,#9
  70 0028 03F00F03 	 and r3,r3,#15
  71 002c 94BF     	 ite ls
  72 002e 3030     	 addls r0,r0,#48
  73              	.LVL8:
  74 0030 3730     	 addhi r0,r0,#55
  75 0032 092A     	 cmp r2,#9
  76 0034 8CBF     	 ite hi
  77 0036 3732     	 addhi r2,r2,#55
  78 0038 3032     	 addls r2,r2,#48
  79 003a 092B     	 cmp r3,#9
  80 003c 8CBF     	 ite hi
  81 003e 3733     	 addhi r3,r3,#55
  82 0040 3033     	 addls r3,r3,#48
  83 0042 C870     	 strb r0,[r1,#3]
  84              	.LVL9:
  85 0044 0A71     	 strb r2,[r1,#4]
  86 0046 4B71     	 strb r3,[r1,#5]
  87              	.LVL10:
  88              	.LBE4:
 112:C:/Users/Yushev/git/optiga-trust-qi/optiga/common\optiga_lib_logger.c ****     }    
 113:C:/Users/Yushev/git/optiga-trust-qi/optiga/common\optiga_lib_logger.c **** 
 114:C:/Users/Yushev/git/optiga-trust-qi/optiga/common\optiga_lib_logger.c **** }
  89              	 .loc 1 114 0
  90 0048 02B0     	 add sp,sp,#8
  91              	.LCFI1:
  92              	 .cfi_def_cfa_offset 0
  93              	 
  94 004a 7047     	 bx lr
  95              	 .cfi_endproc
  96              	.LFE1:
  98              	 .section .text.optiga_lib_print_string,"ax",%progbits
  99              	 .align 1
 100              	 .global optiga_lib_print_string
 101              	 .thumb
 102              	 .thumb_func
 104              	optiga_lib_print_string:
 105              	.LFB3:
 115:C:/Users/Yushev/git/optiga-trust-qi/optiga/common\optiga_lib_logger.c **** 
 116:C:/Users/Yushev/git/optiga-trust-qi/optiga/common\optiga_lib_logger.c **** /* Converts the uint16 value to hex string format */
 117:C:/Users/Yushev/git/optiga-trust-qi/optiga/common\optiga_lib_logger.c **** _STATIC_H void optiga_lib_print_length_of_data(uint16_t value)
 118:C:/Users/Yushev/git/optiga-trust-qi/optiga/common\optiga_lib_logger.c **** {
 119:C:/Users/Yushev/git/optiga-trust-qi/optiga/common\optiga_lib_logger.c ****     uint8_t uint16t_conv_buffer [10] = {0};
 120:C:/Users/Yushev/git/optiga-trust-qi/optiga/common\optiga_lib_logger.c ****     char_t print_buffer[50];      
 121:C:/Users/Yushev/git/optiga-trust-qi/optiga/common\optiga_lib_logger.c **** 
 122:C:/Users/Yushev/git/optiga-trust-qi/optiga/common\optiga_lib_logger.c ****     sprintf((char_t *)print_buffer, "%37s", "Length of data - ");
 123:C:/Users/Yushev/git/optiga-trust-qi/optiga/common\optiga_lib_logger.c ****     strcat(print_buffer,OPTIGA_HEX_BYTE_SEPERATOR);
 124:C:/Users/Yushev/git/optiga-trust-qi/optiga/common\optiga_lib_logger.c ****     optiga_lib_word_to_hex_string(value,uint16t_conv_buffer);
 125:C:/Users/Yushev/git/optiga-trust-qi/optiga/common\optiga_lib_logger.c ****     strcat(print_buffer,(char_t *)uint16t_conv_buffer); 
 126:C:/Users/Yushev/git/optiga-trust-qi/optiga/common\optiga_lib_logger.c ****     
 127:C:/Users/Yushev/git/optiga-trust-qi/optiga/common\optiga_lib_logger.c ****     optiga_lib_print_string_with_newline(print_buffer);
 128:C:/Users/Yushev/git/optiga-trust-qi/optiga/common\optiga_lib_logger.c **** }
 129:C:/Users/Yushev/git/optiga-trust-qi/optiga/common\optiga_lib_logger.c **** 
 130:C:/Users/Yushev/git/optiga-trust-qi/optiga/common\optiga_lib_logger.c **** void optiga_lib_print_string(const char_t * p_log_string)
 131:C:/Users/Yushev/git/optiga-trust-qi/optiga/common\optiga_lib_logger.c **** {
 106              	 .loc 1 131 0
 107              	 .cfi_startproc
 108              	 
 109              	 
 110              	.LVL11:
 111 0000 10B5     	 push {r4,lr}
 112              	.LCFI2:
 113              	 .cfi_def_cfa_offset 8
 114              	 .cfi_offset 4,-8
 115              	 .cfi_offset 14,-4
 132:C:/Users/Yushev/git/optiga-trust-qi/optiga/common\optiga_lib_logger.c ****     if (NULL == p_log_string)
 116              	 .loc 1 132 0
 117 0002 0446     	 mov r4,r0
 118 0004 40B1     	 cbz r0,.L10
 133:C:/Users/Yushev/git/optiga-trust-qi/optiga/common\optiga_lib_logger.c ****     {
 134:C:/Users/Yushev/git/optiga-trust-qi/optiga/common\optiga_lib_logger.c ****         return;
 135:C:/Users/Yushev/git/optiga-trust-qi/optiga/common\optiga_lib_logger.c ****     }
 136:C:/Users/Yushev/git/optiga-trust-qi/optiga/common\optiga_lib_logger.c **** 
 137:C:/Users/Yushev/git/optiga-trust-qi/optiga/common\optiga_lib_logger.c ****     //lint --e{534} The return value is not used hence not checked*/
 138:C:/Users/Yushev/git/optiga-trust-qi/optiga/common\optiga_lib_logger.c ****     pal_logger_write(&logger_console, (const uint8_t *)p_log_string, strlen(p_log_string));
 119              	 .loc 1 138 0
 120 0006 FFF7FEFF 	 bl strlen
 121              	.LVL12:
 122 000a 2146     	 mov r1,r4
 123 000c 0246     	 mov r2,r0
 139:C:/Users/Yushev/git/optiga-trust-qi/optiga/common\optiga_lib_logger.c **** }
 124              	 .loc 1 139 0
 125 000e BDE81040 	 pop {r4,lr}
 126              	.LCFI3:
 127              	 .cfi_remember_state
 128              	 .cfi_restore 14
 129              	 .cfi_restore 4
 130              	 .cfi_def_cfa_offset 0
 131              	.LVL13:
 138:C:/Users/Yushev/git/optiga-trust-qi/optiga/common\optiga_lib_logger.c **** }
 132              	 .loc 1 138 0
 133 0012 0248     	 ldr r0,.L13
 134 0014 FFF7FEBF 	 b pal_logger_write
 135              	.LVL14:
 136              	.L10:
 137              	.LCFI4:
 138              	 .cfi_restore_state
 139 0018 10BD     	 pop {r4,pc}
 140              	.L14:
 141 001a 00BF     	 .align 2
 142              	.L13:
 143 001c 00000000 	 .word logger_console
 144              	 .cfi_endproc
 145              	.LFE3:
 147              	 .section .text.optiga_lib_print_string_with_newline,"ax",%progbits
 148              	 .align 1
 149              	 .global optiga_lib_print_string_with_newline
 150              	 .thumb
 151              	 .thumb_func
 153              	optiga_lib_print_string_with_newline:
 154              	.LFB4:
 140:C:/Users/Yushev/git/optiga-trust-qi/optiga/common\optiga_lib_logger.c **** 
 141:C:/Users/Yushev/git/optiga-trust-qi/optiga/common\optiga_lib_logger.c **** void optiga_lib_print_string_with_newline(const char_t * p_log_string)
 142:C:/Users/Yushev/git/optiga-trust-qi/optiga/common\optiga_lib_logger.c **** {
 155              	 .loc 1 142 0
 156              	 .cfi_startproc
 157              	 
 158              	 
 159              	.LVL15:
 160 0000 13B5     	 push {r0,r1,r4,lr}
 161              	.LCFI5:
 162              	 .cfi_def_cfa_offset 16
 163              	 .cfi_offset 4,-8
 164              	 .cfi_offset 14,-4
 143:C:/Users/Yushev/git/optiga-trust-qi/optiga/common\optiga_lib_logger.c ****     uint8_t new_line_characters [2] = {OPTIGA_LOGGER_NEW_LINE_CHAR};
 165              	 .loc 1 143 0
 166 0002 0A4B     	 ldr r3,.L21
 167 0004 1B88     	 ldrh r3,[r3]
 168 0006 ADF80430 	 strh r3,[sp,#4]
 144:C:/Users/Yushev/git/optiga-trust-qi/optiga/common\optiga_lib_logger.c **** 
 145:C:/Users/Yushev/git/optiga-trust-qi/optiga/common\optiga_lib_logger.c ****     if (NULL == p_log_string)
 169              	 .loc 1 145 0
 170 000a 0446     	 mov r4,r0
 171 000c 58B1     	 cbz r0,.L15
 146:C:/Users/Yushev/git/optiga-trust-qi/optiga/common\optiga_lib_logger.c ****     {
 147:C:/Users/Yushev/git/optiga-trust-qi/optiga/common\optiga_lib_logger.c ****         return;
 148:C:/Users/Yushev/git/optiga-trust-qi/optiga/common\optiga_lib_logger.c ****     }
 149:C:/Users/Yushev/git/optiga-trust-qi/optiga/common\optiga_lib_logger.c **** 
 150:C:/Users/Yushev/git/optiga-trust-qi/optiga/common\optiga_lib_logger.c ****     //lint --e{534} The return value is not used hence not checked*/
 151:C:/Users/Yushev/git/optiga-trust-qi/optiga/common\optiga_lib_logger.c ****     pal_logger_write(&logger_console, (const uint8_t *)p_log_string, strlen(p_log_string));
 172              	 .loc 1 151 0
 173 000e FFF7FEFF 	 bl strlen
 174              	.LVL16:
 175 0012 2146     	 mov r1,r4
 176 0014 0246     	 mov r2,r0
 177 0016 0648     	 ldr r0,.L21+4
 178 0018 FFF7FEFF 	 bl pal_logger_write
 179              	.LVL17:
 152:C:/Users/Yushev/git/optiga-trust-qi/optiga/common\optiga_lib_logger.c ****     //lint --e{534} The return value is not used hence not checked*/
 153:C:/Users/Yushev/git/optiga-trust-qi/optiga/common\optiga_lib_logger.c ****     pal_logger_write(&logger_console, new_line_characters, 2);
 180              	 .loc 1 153 0
 181 001c 0448     	 ldr r0,.L21+4
 182 001e 01A9     	 add r1,sp,#4
 183 0020 0222     	 movs r2,#2
 184 0022 FFF7FEFF 	 bl pal_logger_write
 185              	.LVL18:
 186              	.L15:
 154:C:/Users/Yushev/git/optiga-trust-qi/optiga/common\optiga_lib_logger.c **** 
 155:C:/Users/Yushev/git/optiga-trust-qi/optiga/common\optiga_lib_logger.c **** }
 187              	 .loc 1 155 0
 188 0026 02B0     	 add sp,sp,#8
 189              	.LCFI6:
 190              	 .cfi_def_cfa_offset 8
 191              	 
 192 0028 10BD     	 pop {r4,pc}
 193              	.LVL19:
 194              	.L22:
 195 002a 00BF     	 .align 2
 196              	.L21:
 197 002c 00000000 	 .word .LANCHOR0
 198 0030 00000000 	 .word logger_console
 199              	 .cfi_endproc
 200              	.LFE4:
 202              	 .section .text.optiga_lib_print_message,"ax",%progbits
 203              	 .align 1
 204              	 .global optiga_lib_print_message
 205              	 .thumb
 206              	 .thumb_func
 208              	optiga_lib_print_message:
 209              	.LFB5:
 156:C:/Users/Yushev/git/optiga-trust-qi/optiga/common\optiga_lib_logger.c **** 
 157:C:/Users/Yushev/git/optiga-trust-qi/optiga/common\optiga_lib_logger.c **** void optiga_lib_print_message(const char_t * p_log_string,
 158:C:/Users/Yushev/git/optiga-trust-qi/optiga/common\optiga_lib_logger.c ****                               const char_t * p_log_layer,
 159:C:/Users/Yushev/git/optiga-trust-qi/optiga/common\optiga_lib_logger.c ****                               const char_t * p_log_color)                                  
 160:C:/Users/Yushev/git/optiga-trust-qi/optiga/common\optiga_lib_logger.c **** {
 210              	 .loc 1 160 0
 211              	 .cfi_startproc
 212              	 
 213              	 
 214              	.LVL20:
 215 0000 10B5     	 push {r4,lr}
 216              	.LCFI7:
 217              	 .cfi_def_cfa_offset 8
 218              	 .cfi_offset 4,-8
 219              	 .cfi_offset 14,-4
 161:C:/Users/Yushev/git/optiga-trust-qi/optiga/common\optiga_lib_logger.c ****     uint8_t new_line_characters[2] = {OPTIGA_LOGGER_NEW_LINE_CHAR};
 220              	 .loc 1 161 0
 221 0002 0F4C     	 ldr r4,.L35
 160:C:/Users/Yushev/git/optiga-trust-qi/optiga/common\optiga_lib_logger.c ****     uint8_t new_line_characters[2] = {OPTIGA_LOGGER_NEW_LINE_CHAR};
 222              	 .loc 1 160 0
 223 0004 E8B0     	 sub sp,sp,#416
 224              	.LCFI8:
 225              	 .cfi_def_cfa_offset 424
 226              	 .loc 1 161 0
 227 0006 2488     	 ldrh r4,[r4]
 228 0008 ADF80C40 	 strh r4,[sp,#12]
 160:C:/Users/Yushev/git/optiga-trust-qi/optiga/common\optiga_lib_logger.c ****     uint8_t new_line_characters[2] = {OPTIGA_LOGGER_NEW_LINE_CHAR};
 229              	 .loc 1 160 0
 230 000c 0B46     	 mov r3,r1
 162:C:/Users/Yushev/git/optiga-trust-qi/optiga/common\optiga_lib_logger.c ****     char_t color_buffer[400];
 163:C:/Users/Yushev/git/optiga-trust-qi/optiga/common\optiga_lib_logger.c **** 
 164:C:/Users/Yushev/git/optiga-trust-qi/optiga/common\optiga_lib_logger.c ****     if ((NULL == p_log_string) || (NULL == p_log_layer) || (NULL == p_log_color))
 231              	 .loc 1 164 0
 232 000e A8B1     	 cbz r0,.L23
 233              	 .loc 1 164 0 is_stmt 0 discriminator 1
 234 0010 A3B1     	 cbz r3,.L23
 235              	 .loc 1 164 0 discriminator 2
 236 0012 9AB1     	 cbz r2,.L23
 165:C:/Users/Yushev/git/optiga-trust-qi/optiga/common\optiga_lib_logger.c ****     {
 166:C:/Users/Yushev/git/optiga-trust-qi/optiga/common\optiga_lib_logger.c ****         return;
 167:C:/Users/Yushev/git/optiga-trust-qi/optiga/common\optiga_lib_logger.c ****     }
 168:C:/Users/Yushev/git/optiga-trust-qi/optiga/common\optiga_lib_logger.c **** 
 169:C:/Users/Yushev/git/optiga-trust-qi/optiga/common\optiga_lib_logger.c ****     OPTIGA_LIB_LOGGER_PRINT_INFO(color_buffer, p_log_string, p_log_layer, p_log_color);
 237              	 .loc 1 169 0 is_stmt 1
 238 0014 0B49     	 ldr r1,.L35+4
 239              	.LVL21:
 240 0016 0090     	 str r0,[sp]
 241 0018 0191     	 str r1,[sp,#4]
 242 001a 04A8     	 add r0,sp,#16
 243              	.LVL22:
 244 001c 0A49     	 ldr r1,.L35+8
 245 001e FFF7FEFF 	 bl sprintf
 246              	.LVL23:
 170:C:/Users/Yushev/git/optiga-trust-qi/optiga/common\optiga_lib_logger.c ****     //lint --e{534} The return value is not used hence not checked*/
 171:C:/Users/Yushev/git/optiga-trust-qi/optiga/common\optiga_lib_logger.c ****     pal_logger_write(&logger_console, (const uint8_t *)color_buffer, strlen(color_buffer));
 247              	 .loc 1 171 0
 248 0022 04A8     	 add r0,sp,#16
 249 0024 FFF7FEFF 	 bl strlen
 250              	.LVL24:
 251 0028 04A9     	 add r1,sp,#16
 252 002a 0246     	 mov r2,r0
 253 002c 0748     	 ldr r0,.L35+12
 254 002e FFF7FEFF 	 bl pal_logger_write
 255              	.LVL25:
 172:C:/Users/Yushev/git/optiga-trust-qi/optiga/common\optiga_lib_logger.c ****     //lint --e{534} The return value is not used hence not checked*/
 173:C:/Users/Yushev/git/optiga-trust-qi/optiga/common\optiga_lib_logger.c ****     pal_logger_write(&logger_console, new_line_characters, 2);
 256              	 .loc 1 173 0
 257 0032 0648     	 ldr r0,.L35+12
 258 0034 03A9     	 add r1,sp,#12
 259 0036 0222     	 movs r2,#2
 260 0038 FFF7FEFF 	 bl pal_logger_write
 261              	.LVL26:
 262              	.L23:
 174:C:/Users/Yushev/git/optiga-trust-qi/optiga/common\optiga_lib_logger.c **** }
 263              	 .loc 1 174 0
 264 003c 68B0     	 add sp,sp,#416
 265              	.LCFI9:
 266              	 .cfi_def_cfa_offset 8
 267              	 
 268 003e 10BD     	 pop {r4,pc}
 269              	.L36:
 270              	 .align 2
 271              	.L35:
 272 0040 00000000 	 .word .LANCHOR0
 273 0044 09000000 	 .word .LC2
 274 0048 00000000 	 .word .LC1
 275 004c 00000000 	 .word logger_console
 276              	 .cfi_endproc
 277              	.LFE5:
 279              	 .section .text.optiga_lib_print_status,"ax",%progbits
 280              	 .align 1
 281              	 .global optiga_lib_print_status
 282              	 .thumb
 283              	 .thumb_func
 285              	optiga_lib_print_status:
 286              	.LFB6:
 175:C:/Users/Yushev/git/optiga-trust-qi/optiga/common\optiga_lib_logger.c **** 
 176:C:/Users/Yushev/git/optiga-trust-qi/optiga/common\optiga_lib_logger.c **** void optiga_lib_print_status(const char_t * p_log_layer,
 177:C:/Users/Yushev/git/optiga-trust-qi/optiga/common\optiga_lib_logger.c ****                              const char_t * p_log_color,
 178:C:/Users/Yushev/git/optiga-trust-qi/optiga/common\optiga_lib_logger.c ****                              uint16_t return_value)
 179:C:/Users/Yushev/git/optiga-trust-qi/optiga/common\optiga_lib_logger.c **** {
 287              	 .loc 1 179 0
 288              	 .cfi_startproc
 289              	 
 290              	 
 291              	.LVL27:
 292 0000 F0B5     	 push {r4,r5,r6,r7,lr}
 293              	.LCFI10:
 294              	 .cfi_def_cfa_offset 20
 295              	 .cfi_offset 4,-20
 296              	 .cfi_offset 5,-16
 297              	 .cfi_offset 6,-12
 298              	 .cfi_offset 7,-8
 299              	 .cfi_offset 14,-4
 180:C:/Users/Yushev/git/optiga-trust-qi/optiga/common\optiga_lib_logger.c ****     uint8_t new_line_characters[2] = {OPTIGA_LOGGER_NEW_LINE_CHAR};
 300              	 .loc 1 180 0
 301 0002 254B     	 ldr r3,.L49
 179:C:/Users/Yushev/git/optiga-trust-qi/optiga/common\optiga_lib_logger.c ****     uint8_t new_line_characters[2] = {OPTIGA_LOGGER_NEW_LINE_CHAR};
 302              	 .loc 1 179 0
 303 0004 ADF5097D 	 sub sp,sp,#548
 304              	.LCFI11:
 305              	 .cfi_def_cfa_offset 568
 306              	 .loc 1 180 0
 307 0008 1B88     	 ldrh r3,[r3]
 308 000a ADF80830 	 strh r3,[sp,#8]
 179:C:/Users/Yushev/git/optiga-trust-qi/optiga/common\optiga_lib_logger.c ****     uint8_t new_line_characters[2] = {OPTIGA_LOGGER_NEW_LINE_CHAR};
 309              	 .loc 1 179 0
 310 000e 0546     	 mov r5,r0
 311 0010 0E46     	 mov r6,r1
 312 0012 1746     	 mov r7,r2
 181:C:/Users/Yushev/git/optiga-trust-qi/optiga/common\optiga_lib_logger.c ****     uint8_t uint16t_conv_buffer[10] = {0};
 313              	 .loc 1 181 0
 314 0014 0021     	 movs r1,#0
 315              	.LVL28:
 316 0016 0A22     	 movs r2,#10
 317              	.LVL29:
 318 0018 03A8     	 add r0,sp,#12
 319              	.LVL30:
 182:C:/Users/Yushev/git/optiga-trust-qi/optiga/common\optiga_lib_logger.c ****     char_t return_value_buffer[20] = {0};
 320              	 .loc 1 182 0
 321 001a 06AC     	 add r4,sp,#24
 181:C:/Users/Yushev/git/optiga-trust-qi/optiga/common\optiga_lib_logger.c ****     uint8_t uint16t_conv_buffer[10] = {0};
 322              	 .loc 1 181 0
 323 001c FFF7FEFF 	 bl memset
 324              	.LVL31:
 325              	 .loc 1 182 0
 326 0020 0021     	 movs r1,#0
 327 0022 1422     	 movs r2,#20
 328 0024 2046     	 mov r0,r4
 329 0026 FFF7FEFF 	 bl memset
 330              	.LVL32:
 183:C:/Users/Yushev/git/optiga-trust-qi/optiga/common\optiga_lib_logger.c ****     char_t string_buffer[100] = {0};
 331              	 .loc 1 183 0
 332 002a 0BA8     	 add r0,sp,#44
 333 002c 0021     	 movs r1,#0
 334 002e 6422     	 movs r2,#100
 335 0030 FFF7FEFF 	 bl memset
 336              	.LVL33:
 184:C:/Users/Yushev/git/optiga-trust-qi/optiga/common\optiga_lib_logger.c ****     char_t color_buffer[400];
 185:C:/Users/Yushev/git/optiga-trust-qi/optiga/common\optiga_lib_logger.c **** 
 186:C:/Users/Yushev/git/optiga-trust-qi/optiga/common\optiga_lib_logger.c ****     if ((NULL == p_log_layer) || (NULL == p_log_color))
 337              	 .loc 1 186 0
 338 0034 65B3     	 cbz r5,.L37
 339              	 .loc 1 186 0 is_stmt 0 discriminator 1
 340 0036 5EB3     	 cbz r6,.L37
 187:C:/Users/Yushev/git/optiga-trust-qi/optiga/common\optiga_lib_logger.c ****     {
 188:C:/Users/Yushev/git/optiga-trust-qi/optiga/common\optiga_lib_logger.c ****         return;
 189:C:/Users/Yushev/git/optiga-trust-qi/optiga/common\optiga_lib_logger.c ****     }
 190:C:/Users/Yushev/git/optiga-trust-qi/optiga/common\optiga_lib_logger.c **** 
 191:C:/Users/Yushev/git/optiga-trust-qi/optiga/common\optiga_lib_logger.c ****     // if return value is successful, log SUCCESS
 192:C:/Users/Yushev/git/optiga-trust-qi/optiga/common\optiga_lib_logger.c ****     if (OPTIGA_LIB_SUCCESS == return_value)
 193:C:/Users/Yushev/git/optiga-trust-qi/optiga/common\optiga_lib_logger.c ****     {
 194:C:/Users/Yushev/git/optiga-trust-qi/optiga/common\optiga_lib_logger.c ****         strcat(string_buffer,p_log_layer);
 341              	 .loc 1 194 0 is_stmt 1
 342 0038 0BA8     	 add r0,sp,#44
 343 003a 2946     	 mov r1,r5
 192:C:/Users/Yushev/git/optiga-trust-qi/optiga/common\optiga_lib_logger.c ****     {
 344              	 .loc 1 192 0
 345 003c 27B9     	 cbnz r7,.L39
 346              	 .loc 1 194 0
 347 003e FFF7FEFF 	 bl strcat
 348              	.LVL34:
 195:C:/Users/Yushev/git/optiga-trust-qi/optiga/common\optiga_lib_logger.c ****         strcat(string_buffer,"Passed");
 349              	 .loc 1 195 0
 350 0042 0BA8     	 add r0,sp,#44
 351 0044 1549     	 ldr r1,.L49+4
 352 0046 0BE0     	 b .L48
 353              	.LVL35:
 354              	.L39:
 196:C:/Users/Yushev/git/optiga-trust-qi/optiga/common\optiga_lib_logger.c ****         strcat(return_value_buffer,"");
 197:C:/Users/Yushev/git/optiga-trust-qi/optiga/common\optiga_lib_logger.c ****     }
 198:C:/Users/Yushev/git/optiga-trust-qi/optiga/common\optiga_lib_logger.c ****     else
 199:C:/Users/Yushev/git/optiga-trust-qi/optiga/common\optiga_lib_logger.c ****     {
 200:C:/Users/Yushev/git/optiga-trust-qi/optiga/common\optiga_lib_logger.c ****         strcat(string_buffer,p_log_layer);
 355              	 .loc 1 200 0
 356 0048 FFF7FEFF 	 bl strcat
 357              	.LVL36:
 201:C:/Users/Yushev/git/optiga-trust-qi/optiga/common\optiga_lib_logger.c ****         strcat(string_buffer,"Failed with return value - ");
 358              	 .loc 1 201 0
 359 004c 1449     	 ldr r1,.L49+8
 360 004e 0BA8     	 add r0,sp,#44
 361 0050 FFF7FEFF 	 bl strcat
 362              	.LVL37:
 202:C:/Users/Yushev/git/optiga-trust-qi/optiga/common\optiga_lib_logger.c ****         strcat(return_value_buffer,OPTIGA_HEX_BYTE_SEPERATOR);
 203:C:/Users/Yushev/git/optiga-trust-qi/optiga/common\optiga_lib_logger.c ****         optiga_lib_word_to_hex_string(return_value,uint16t_conv_buffer);
 363              	 .loc 1 203 0
 364 0054 3846     	 mov r0,r7
 365 0056 03A9     	 add r1,sp,#12
 366 0058 FFF7FEFF 	 bl optiga_lib_word_to_hex_string
 367              	.LVL38:
 204:C:/Users/Yushev/git/optiga-trust-qi/optiga/common\optiga_lib_logger.c ****         strcat(return_value_buffer,(char_t *)uint16t_conv_buffer);
 368              	 .loc 1 204 0
 369 005c 2046     	 mov r0,r4
 370 005e 03A9     	 add r1,sp,#12
 371              	.L48:
 372 0060 FFF7FEFF 	 bl strcat
 373              	.LVL39:
 205:C:/Users/Yushev/git/optiga-trust-qi/optiga/common\optiga_lib_logger.c ****     }
 206:C:/Users/Yushev/git/optiga-trust-qi/optiga/common\optiga_lib_logger.c **** 
 207:C:/Users/Yushev/git/optiga-trust-qi/optiga/common\optiga_lib_logger.c ****     OPTIGA_LIB_LOGGER_PRINT_INFO(color_buffer, (char_t *)return_value_buffer, string_buffer, p_log_
 374              	 .loc 1 207 0
 375 0064 0F4B     	 ldr r3,.L49+12
 376 0066 1049     	 ldr r1,.L49+16
 377 0068 0193     	 str r3,[sp,#4]
 378 006a 3246     	 mov r2,r6
 379 006c 0BAB     	 add r3,sp,#44
 380 006e 0094     	 str r4,[sp]
 381 0070 24A8     	 add r0,sp,#144
 382 0072 FFF7FEFF 	 bl sprintf
 383              	.LVL40:
 208:C:/Users/Yushev/git/optiga-trust-qi/optiga/common\optiga_lib_logger.c **** 
 209:C:/Users/Yushev/git/optiga-trust-qi/optiga/common\optiga_lib_logger.c ****     //lint --e{534} The return value is not used hence not checked*/
 210:C:/Users/Yushev/git/optiga-trust-qi/optiga/common\optiga_lib_logger.c ****     pal_logger_write(&logger_console, (const uint8_t *)color_buffer, strlen(color_buffer));
 384              	 .loc 1 210 0
 385 0076 24A8     	 add r0,sp,#144
 386 0078 FFF7FEFF 	 bl strlen
 387              	.LVL41:
 388 007c 24A9     	 add r1,sp,#144
 389 007e 0246     	 mov r2,r0
 390 0080 0A48     	 ldr r0,.L49+20
 391 0082 FFF7FEFF 	 bl pal_logger_write
 392              	.LVL42:
 211:C:/Users/Yushev/git/optiga-trust-qi/optiga/common\optiga_lib_logger.c ****     //Print new line
 212:C:/Users/Yushev/git/optiga-trust-qi/optiga/common\optiga_lib_logger.c ****     //lint --e{534} The return value is not used hence not checked*/
 213:C:/Users/Yushev/git/optiga-trust-qi/optiga/common\optiga_lib_logger.c ****     pal_logger_write(&logger_console, new_line_characters, 2);
 393              	 .loc 1 213 0
 394 0086 0948     	 ldr r0,.L49+20
 395 0088 02A9     	 add r1,sp,#8
 396 008a 0222     	 movs r2,#2
 397 008c FFF7FEFF 	 bl pal_logger_write
 398              	.LVL43:
 399              	.L37:
 214:C:/Users/Yushev/git/optiga-trust-qi/optiga/common\optiga_lib_logger.c **** }
 400              	 .loc 1 214 0
 401 0090 0DF5097D 	 add sp,sp,#548
 402              	.LCFI12:
 403              	 .cfi_def_cfa_offset 20
 404              	 
 405 0094 F0BD     	 pop {r4,r5,r6,r7,pc}
 406              	.LVL44:
 407              	.L50:
 408 0096 00BF     	 .align 2
 409              	.L49:
 410 0098 00000000 	 .word .LANCHOR0
 411 009c 0E000000 	 .word .LC3
 412 00a0 15000000 	 .word .LC4
 413 00a4 09000000 	 .word .LC2
 414 00a8 00000000 	 .word .LC1
 415 00ac 00000000 	 .word logger_console
 416              	 .cfi_endproc
 417              	.LFE6:
 419              	 .section .text.optiga_lib_print_array_hex_format,"ax",%progbits
 420              	 .align 1
 421              	 .global optiga_lib_print_array_hex_format
 422              	 .thumb
 423              	 .thumb_func
 425              	optiga_lib_print_array_hex_format:
 426              	.LFB7:
 215:C:/Users/Yushev/git/optiga-trust-qi/optiga/common\optiga_lib_logger.c **** 
 216:C:/Users/Yushev/git/optiga-trust-qi/optiga/common\optiga_lib_logger.c **** void optiga_lib_print_array_hex_format(const uint8_t * p_log_string,
 217:C:/Users/Yushev/git/optiga-trust-qi/optiga/common\optiga_lib_logger.c ****                                        uint16_t length,
 218:C:/Users/Yushev/git/optiga-trust-qi/optiga/common\optiga_lib_logger.c ****                                        const char_t * p_log_color)
 219:C:/Users/Yushev/git/optiga-trust-qi/optiga/common\optiga_lib_logger.c **** {
 427              	 .loc 1 219 0
 428              	 .cfi_startproc
 429              	 
 430              	 
 431              	.LVL45:
 432 0000 2DE9F043 	 push {r4,r5,r6,r7,r8,r9,lr}
 433              	.LCFI13:
 434              	 .cfi_def_cfa_offset 28
 435              	 .cfi_offset 4,-28
 436              	 .cfi_offset 5,-24
 437              	 .cfi_offset 6,-20
 438              	 .cfi_offset 7,-16
 439              	 .cfi_offset 8,-12
 440              	 .cfi_offset 9,-8
 441              	 .cfi_offset 14,-4
 442 0004 0E46     	 mov r6,r1
 443 0006 ADF53F7D 	 sub sp,sp,#764
 444              	.LCFI14:
 445              	 .cfi_def_cfa_offset 792
 446              	 .loc 1 219 0
 447 000a 9046     	 mov r8,r2
 220:C:/Users/Yushev/git/optiga-trust-qi/optiga/common\optiga_lib_logger.c ****     uint8_t temp_buffer[350];
 221:C:/Users/Yushev/git/optiga-trust-qi/optiga/common\optiga_lib_logger.c ****     char_t output_buffer[400];
 222:C:/Users/Yushev/git/optiga-trust-qi/optiga/common\optiga_lib_logger.c ****     uint16_t index;
 223:C:/Users/Yushev/git/optiga-trust-qi/optiga/common\optiga_lib_logger.c ****     uint16_t temp_length;
 224:C:/Users/Yushev/git/optiga-trust-qi/optiga/common\optiga_lib_logger.c ****     char_t new_line_characters[2] = {OPTIGA_LOGGER_NEW_LINE_CHAR};
 225:C:/Users/Yushev/git/optiga-trust-qi/optiga/common\optiga_lib_logger.c ****     uint8_t buffer_window = 32; // Alignment of 16 bytes per line
 226:C:/Users/Yushev/git/optiga-trust-qi/optiga/common\optiga_lib_logger.c **** 
 227:C:/Users/Yushev/git/optiga-trust-qi/optiga/common\optiga_lib_logger.c ****     if ((NULL == p_log_string) || (NULL == p_log_color))
 448              	 .loc 1 227 0
 449 000c 0746     	 mov r7,r0
 450 000e 0028     	 cmp r0,#0
 451 0010 7AD0     	 beq .L51
 452              	 .loc 1 227 0 is_stmt 0 discriminator 1
 453 0012 002A     	 cmp r2,#0
 454 0014 78D0     	 beq .L51
 455              	.LVL46:
 456              	.LBB10:
 457              	.LBB11:
 122:C:/Users/Yushev/git/optiga-trust-qi/optiga/common\optiga_lib_logger.c ****     strcat(print_buffer,OPTIGA_HEX_BYTE_SEPERATOR);
 458              	 .loc 1 122 0 is_stmt 1
 459 0016 5AAD     	 add r5,sp,#360
 119:C:/Users/Yushev/git/optiga-trust-qi/optiga/common\optiga_lib_logger.c ****     char_t print_buffer[50];      
 460              	 .loc 1 119 0
 461 0018 0021     	 movs r1,#0
 462              	.LVL47:
 463 001a 0A22     	 movs r2,#10
 464              	.LVL48:
 465 001c 02A8     	 add r0,sp,#8
 466              	.LVL49:
 467 001e FFF7FEFF 	 bl memset
 468              	.LVL50:
 122:C:/Users/Yushev/git/optiga-trust-qi/optiga/common\optiga_lib_logger.c ****     strcat(print_buffer,OPTIGA_HEX_BYTE_SEPERATOR);
 469              	 .loc 1 122 0
 470 0022 3B4A     	 ldr r2,.L75
 471 0024 3B49     	 ldr r1,.L75+4
 472 0026 2846     	 mov r0,r5
 473 0028 FFF7FEFF 	 bl sprintf
 474              	.LVL51:
 124:C:/Users/Yushev/git/optiga-trust-qi/optiga/common\optiga_lib_logger.c ****     strcat(print_buffer,(char_t *)uint16t_conv_buffer); 
 475              	 .loc 1 124 0
 476 002c 3046     	 mov r0,r6
 477 002e 02A9     	 add r1,sp,#8
 478 0030 FFF7FEFF 	 bl optiga_lib_word_to_hex_string
 479              	.LVL52:
 125:C:/Users/Yushev/git/optiga-trust-qi/optiga/common\optiga_lib_logger.c ****     
 480              	 .loc 1 125 0
 481 0034 02A9     	 add r1,sp,#8
 482 0036 2846     	 mov r0,r5
 483 0038 FFF7FEFF 	 bl strcat
 484              	.LVL53:
 127:C:/Users/Yushev/git/optiga-trust-qi/optiga/common\optiga_lib_logger.c **** }
 485              	 .loc 1 127 0
 486 003c 2846     	 mov r0,r5
 487 003e FFF7FEFF 	 bl optiga_lib_print_string_with_newline
 488              	.LVL54:
 489              	.LBE11:
 490              	.LBE10:
 228:C:/Users/Yushev/git/optiga-trust-qi/optiga/common\optiga_lib_logger.c ****     {
 229:C:/Users/Yushev/git/optiga-trust-qi/optiga/common\optiga_lib_logger.c ****         return;
 230:C:/Users/Yushev/git/optiga-trust-qi/optiga/common\optiga_lib_logger.c ****     }
 231:C:/Users/Yushev/git/optiga-trust-qi/optiga/common\optiga_lib_logger.c ****     
 232:C:/Users/Yushev/git/optiga-trust-qi/optiga/common\optiga_lib_logger.c ****     optiga_lib_print_length_of_data(length);
 233:C:/Users/Yushev/git/optiga-trust-qi/optiga/common\optiga_lib_logger.c ****     
 234:C:/Users/Yushev/git/optiga-trust-qi/optiga/common\optiga_lib_logger.c ****     //Logging the arrays in chunks of 16 bytes through chaining
 235:C:/Users/Yushev/git/optiga-trust-qi/optiga/common\optiga_lib_logger.c ****     for (index = 0; index < length; index+=buffer_window)
 491              	 .loc 1 235 0
 492 0042 4FF00009 	 mov r9,#0
 493              	.L53:
 494              	.LVL55:
 495              	 .loc 1 235 0 is_stmt 0 discriminator 1
 496 0046 B145     	 cmp r9,r6
 497 0048 5ED2     	 bcs .L51
 498              	.LVL56:
 236:C:/Users/Yushev/git/optiga-trust-qi/optiga/common\optiga_lib_logger.c ****     {
 237:C:/Users/Yushev/git/optiga-trust-qi/optiga/common\optiga_lib_logger.c ****         temp_length = buffer_window;
 238:C:/Users/Yushev/git/optiga-trust-qi/optiga/common\optiga_lib_logger.c ****         if ((length - index) < buffer_window)
 499              	 .loc 1 238 0 is_stmt 1
 500 004a C9EB0604 	 rsb r4,r9,r6
 501 004e 1F2C     	 cmp r4,#31
 239:C:/Users/Yushev/git/optiga-trust-qi/optiga/common\optiga_lib_logger.c ****         {
 240:C:/Users/Yushev/git/optiga-trust-qi/optiga/common\optiga_lib_logger.c ****             temp_length =  length - index;
 241:C:/Users/Yushev/git/optiga-trust-qi/optiga/common\optiga_lib_logger.c ****         }
 242:C:/Users/Yushev/git/optiga-trust-qi/optiga/common\optiga_lib_logger.c **** 
 243:C:/Users/Yushev/git/optiga-trust-qi/optiga/common\optiga_lib_logger.c ****         pal_os_memset(temp_buffer, 0x00, sizeof(temp_buffer));
 502              	 .loc 1 243 0
 503 0050 02A8     	 add r0,sp,#8
 504 0052 4FF00001 	 mov r1,#0
 505 0056 4FF4AF72 	 mov r2,#350
 240:C:/Users/Yushev/git/optiga-trust-qi/optiga/common\optiga_lib_logger.c ****         }
 506              	 .loc 1 240 0
 507 005a D4BF     	 ite le
 508 005c A4B2     	 uxthle r4,r4
 509              	.LVL57:
 237:C:/Users/Yushev/git/optiga-trust-qi/optiga/common\optiga_lib_logger.c ****         if ((length - index) < buffer_window)
 510              	 .loc 1 237 0
 511 005e 2024     	 movgt r4,#32
 512              	.LVL58:
 513              	 .loc 1 243 0
 514 0060 FFF7FEFF 	 bl pal_os_memset
 515              	.LVL59:
 244:C:/Users/Yushev/git/optiga-trust-qi/optiga/common\optiga_lib_logger.c ****         pal_os_memset(output_buffer, 0x00, sizeof(output_buffer));
 516              	 .loc 1 244 0
 517 0064 2846     	 mov r0,r5
 518 0066 0021     	 movs r1,#0
 519 0068 4FF4C872 	 mov r2,#400
 520 006c FFF7FEFF 	 bl pal_os_memset
 521              	.LVL60:
 522              	.LBB12:
 523              	.LBB13:
  69:C:/Users/Yushev/git/optiga-trust-qi/optiga/common\optiga_lib_logger.c ****         {
 524              	 .loc 1 69 0
 525 0070 17EB0900 	 adds r0,r7,r9
 526              	.LVL61:
 527 0074 28D0     	 beq .L55
 528 0076 631C     	 adds r3,r4,#1
 529 0078 03EB4303 	 add r3,r3,r3,lsl#1
 530 007c 02AA     	 add r2,sp,#8
 531              	.LVL62:
 532 007e 0DF10B01 	 add r1,sp,#11
 533 0082 0138     	 subs r0,r0,#1
 534              	.LVL63:
 535 0084 02EB030E 	 add lr,r2,r3
 536              	.LVL64:
 537              	.L56:
  74:C:/Users/Yushev/git/optiga-trust-qi/optiga/common\optiga_lib_logger.c ****         {
 538              	 .loc 1 74 0
 539 0088 7145     	 cmp r1,lr
 540 008a 15D0     	 beq .L74
 541              	.LVL65:
  77:C:/Users/Yushev/git/optiga-trust-qi/optiga/common\optiga_lib_logger.c ****             if (TRUE == is_input_byte_array)
 542              	 .loc 1 77 0
 543 008c 10F8013F 	 ldrb r3,[r0,#1]!
 544              	.LVL66:
 545              	.LBB14:
  85:C:/Users/Yushev/git/optiga-trust-qi/optiga/common\optiga_lib_logger.c ****             
 546              	 .loc 1 85 0
 547 0090 1A09     	 lsrs r2,r3,#4
 548              	.LVL67:
 549 0092 092A     	 cmp r2,#9
 550 0094 03F00F03 	 and r3,r3,#15
 551              	.LVL68:
 552 0098 8CBF     	 ite hi
 553 009a 3732     	 addhi r2,r2,#55
 554 009c 3032     	 addls r2,r2,#48
 555 009e 092B     	 cmp r3,#9
 556 00a0 8CBF     	 ite hi
 557 00a2 3733     	 addhi r3,r3,#55
 558              	.LVL69:
 559 00a4 3033     	 addls r3,r3,#48
 560 00a6 01F8023C 	 strb r3,[r1,#-2]
 561              	.LVL70:
 562              	.LBE14:
  87:C:/Users/Yushev/git/optiga-trust-qi/optiga/common\optiga_lib_logger.c ****             p_hex_string += index;
 563              	 .loc 1 87 0
 564 00aa 2023     	 movs r3,#32
 565              	.LBB15:
  85:C:/Users/Yushev/git/optiga-trust-qi/optiga/common\optiga_lib_logger.c ****             
 566              	 .loc 1 85 0
 567 00ac 01F8032C 	 strb r2,[r1,#-3]
 568              	.LBE15:
  87:C:/Users/Yushev/git/optiga-trust-qi/optiga/common\optiga_lib_logger.c ****             p_hex_string += index;
 569              	 .loc 1 87 0
 570 00b0 01F8013C 	 strb r3,[r1,#-1]
 571              	.LVL71:
 572 00b4 0331     	 adds r1,r1,#3
 573              	.LVL72:
 574 00b6 E7E7     	 b .L56
 575              	.LVL73:
 576              	.L74:
  90:C:/Users/Yushev/git/optiga-trust-qi/optiga/common\optiga_lib_logger.c ****     } while(0);
 577              	 .loc 1 90 0
 578 00b8 BEAB     	 add r3,sp,#760
 579 00ba 04EB4404 	 add r4,r4,r4,lsl#1
 580              	.LVL74:
 581 00be 1C44     	 add r4,r4,r3
 582 00c0 A4F53C74 	 sub r4,r4,#752
 583 00c4 0023     	 movs r3,#0
 584 00c6 2370     	 strb r3,[r4]
 585              	.LVL75:
 586              	.L55:
 587              	.LBE13:
 588              	.LBE12:
 245:C:/Users/Yushev/git/optiga-trust-qi/optiga/common\optiga_lib_logger.c **** 
 246:C:/Users/Yushev/git/optiga-trust-qi/optiga/common\optiga_lib_logger.c ****         optiga_lib_byte_to_hex_string((uint8_t*)(p_log_string + index), temp_buffer, temp_length, F
 247:C:/Users/Yushev/git/optiga-trust-qi/optiga/common\optiga_lib_logger.c **** 
 248:C:/Users/Yushev/git/optiga-trust-qi/optiga/common\optiga_lib_logger.c ****         OPTIGA_LIB_LOGGER_PRINT_ARRAY(output_buffer,temp_buffer, p_log_color);
 589              	 .loc 1 248 0 discriminator 2
 590 00c8 134B     	 ldr r3,.L75+8
 591 00ca 1449     	 ldr r1,.L75+12
 592 00cc 0093     	 str r3,[sp]
 593 00ce 4246     	 mov r2,r8
 594 00d0 02AB     	 add r3,sp,#8
 595 00d2 2846     	 mov r0,r5
 596 00d4 FFF7FEFF 	 bl sprintf
 597              	.LVL76:
 249:C:/Users/Yushev/git/optiga-trust-qi/optiga/common\optiga_lib_logger.c **** 
 250:C:/Users/Yushev/git/optiga-trust-qi/optiga/common\optiga_lib_logger.c ****         // New line characted entered at the end of each segment
 251:C:/Users/Yushev/git/optiga-trust-qi/optiga/common\optiga_lib_logger.c ****         output_buffer[strlen(output_buffer)] = new_line_characters[0];
 598              	 .loc 1 251 0 discriminator 2
 599 00d8 2846     	 mov r0,r5
 600 00da FFF7FEFF 	 bl strlen
 601              	.LVL77:
 602 00de 0D23     	 movs r3,#13
 603 00e0 2B54     	 strb r3,[r5,r0]
 252:C:/Users/Yushev/git/optiga-trust-qi/optiga/common\optiga_lib_logger.c ****         output_buffer[strlen(output_buffer)+1] = new_line_characters[1];
 604              	 .loc 1 252 0 discriminator 2
 605 00e2 2846     	 mov r0,r5
 606 00e4 FFF7FEFF 	 bl strlen
 607              	.LVL78:
 608 00e8 2844     	 add r0,r0,r5
 609 00ea 0A23     	 movs r3,#10
 610 00ec 4370     	 strb r3,[r0,#1]
 253:C:/Users/Yushev/git/optiga-trust-qi/optiga/common\optiga_lib_logger.c ****         //lint --e{534} The return value is not used hence not checked*/
 254:C:/Users/Yushev/git/optiga-trust-qi/optiga/common\optiga_lib_logger.c ****         pal_logger_write(&logger_console, (const uint8_t *)output_buffer, strlen(output_buffer) + 2
 611              	 .loc 1 254 0 discriminator 2
 612 00ee 2846     	 mov r0,r5
 613 00f0 FFF7FEFF 	 bl strlen
 614              	.LVL79:
 235:C:/Users/Yushev/git/optiga-trust-qi/optiga/common\optiga_lib_logger.c ****     {
 615              	 .loc 1 235 0 discriminator 2
 616 00f4 09F12009 	 add r9,r9,#32
 617              	.LVL80:
 618              	 .loc 1 254 0 discriminator 2
 619 00f8 821C     	 adds r2,r0,#2
 620 00fa 2946     	 mov r1,r5
 621 00fc 0848     	 ldr r0,.L75+16
 622 00fe FFF7FEFF 	 bl pal_logger_write
 623              	.LVL81:
 235:C:/Users/Yushev/git/optiga-trust-qi/optiga/common\optiga_lib_logger.c ****     {
 624              	 .loc 1 235 0 discriminator 2
 625 0102 1FFA89F9 	 uxth r9,r9
 626              	.LVL82:
 627 0106 9EE7     	 b .L53
 628              	.LVL83:
 629              	.L51:
 255:C:/Users/Yushev/git/optiga-trust-qi/optiga/common\optiga_lib_logger.c ****     }
 256:C:/Users/Yushev/git/optiga-trust-qi/optiga/common\optiga_lib_logger.c **** }
 630              	 .loc 1 256 0
 631 0108 0DF53F7D 	 add sp,sp,#764
 632              	.LCFI15:
 633              	 .cfi_def_cfa_offset 28
 634              	 
 635 010c BDE8F083 	 pop {r4,r5,r6,r7,r8,r9,pc}
 636              	.LVL84:
 637              	.L76:
 638              	 .align 2
 639              	.L75:
 640 0110 36000000 	 .word .LC6
 641 0114 31000000 	 .word .LC5
 642 0118 09000000 	 .word .LC2
 643 011c 48000000 	 .word .LC7
 644 0120 00000000 	 .word logger_console
 645              	 .cfi_endproc
 646              	.LFE7:
 648              	 .section .rodata
 649              	 .set .LANCHOR0,.+0
 650              	.LC0:
 651 0000 0D       	 .byte 13
 652 0001 0A       	 .byte 10
 653              	 .section .rodata.str1.1,"aMS",%progbits,1
 654              	.LC1:
 655 0000 25732573 	 .ascii "%s%s%s%s\000"
 655      25732573 
 655      00
 656              	.LC2:
 657 0009 1B5B306D 	 .ascii "\033[0m\000"
 657      00
 658              	.LC3:
 659 000e 50617373 	 .ascii "Passed\000"
 659      656400
 660              	.LC4:
 661 0015 4661696C 	 .ascii "Failed with return value - \000"
 661      65642077 
 661      69746820 
 661      72657475 
 661      726E2076 
 662              	.LC5:
 663 0031 25333773 	 .ascii "%37s\000"
 663      00
 664              	.LC6:
 665 0036 4C656E67 	 .ascii "Length of data - \000"
 665      7468206F 
 665      66206461 
 665      7461202D 
 665      2000
 666              	.LC7:
 667 0048 25323573 	 .ascii "%25s%s%s\000"
 667      25732573 
 667      00
 668              	 .text
 669              	.Letext0:
 670              	 .file 2 "c:\\users\\yushev\\dave_4-4-2_32bit_2018-02-23\\dave-ide-4.4.2-32bit\\eclipse\\arm-gcc-49\\arm-none-eabi\\include\\machine\\_default_types.h"
 671              	 .file 3 "c:\\users\\yushev\\dave_4-4-2_32bit_2018-02-23\\dave-ide-4.4.2-32bit\\eclipse\\arm-gcc-49\\lib\\gcc\\arm-none-eabi\\4.9.3\\include\\stddef.h"
 672              	 .file 4 "c:\\users\\yushev\\dave_4-4-2_32bit_2018-02-23\\dave-ide-4.4.2-32bit\\eclipse\\arm-gcc-49\\arm-none-eabi\\include\\stdint.h"
 673              	 .file 5 "C:/Users/Yushev/git/optiga-trust-qi/optiga/include/optiga/common/optiga_lib_types.h"
 674              	 .file 6 "C:/Users/Yushev/git/optiga-trust-qi/optiga/include/optiga/pal/pal.h"
 675              	 .file 7 "C:/Users/Yushev/git/optiga-trust-qi/optiga/include/optiga/pal/pal_logger.h"
 676              	 .file 8 "c:\\users\\yushev\\dave_4-4-2_32bit_2018-02-23\\dave-ide-4.4.2-32bit\\eclipse\\arm-gcc-49\\arm-none-eabi\\include\\string.h"
 677              	 .file 9 "c:\\users\\yushev\\dave_4-4-2_32bit_2018-02-23\\dave-ide-4.4.2-32bit\\eclipse\\arm-gcc-49\\arm-none-eabi\\include\\stdio.h"
 678              	 .file 10 "C:/Users/Yushev/git/optiga-trust-qi/optiga/include/optiga/pal/pal_os_memory.h"