   1              	 .syntax unified
   2              	 .cpu cortex-m4
   3              	 .eabi_attribute 27,3
   4              	 .fpu fpv4-sp-d16
   5              	 .eabi_attribute 20,1
   6              	 .eabi_attribute 21,1
   7              	 .eabi_attribute 23,3
   8              	 .eabi_attribute 24,1
   9              	 .eabi_attribute 25,1
  10              	 .eabi_attribute 26,1
  11              	 .eabi_attribute 30,6
  12              	 .eabi_attribute 34,1
  13              	 .eabi_attribute 18,4
  14              	 .thumb
  15              	 .file "ifx_i2c_data_link_layer.c"
  16              	 .text
  17              	.Ltext0:
  18              	 .cfi_sections .debug_frame
  19              	 .section .text.ifx_i2c_dl_init,"ax",%progbits
  20              	 .align 2
  21              	 .global ifx_i2c_dl_init
  22              	 .thumb
  23              	 .thumb_func
  25              	ifx_i2c_dl_init:
  26              	.LFB0:
  27              	 .file 1 "C:/Users/Yushev/git/wpcqi-optiga-trust-charge/optiga/optiga/comms/ifx_i2c/ifx_i2c_data_link_layer.c"
   1:C:/Users/Yushev/git/wpcqi-optiga-trust-charge/optiga/optiga/comms/ifx_i2c\ifx_i2c_data_link_layer.c **** /**
   2:C:/Users/Yushev/git/wpcqi-optiga-trust-charge/optiga/optiga/comms/ifx_i2c\ifx_i2c_data_link_layer.c **** * \copyright
   3:C:/Users/Yushev/git/wpcqi-optiga-trust-charge/optiga/optiga/comms/ifx_i2c\ifx_i2c_data_link_layer.c **** * MIT License
   4:C:/Users/Yushev/git/wpcqi-optiga-trust-charge/optiga/optiga/comms/ifx_i2c\ifx_i2c_data_link_layer.c **** *
   5:C:/Users/Yushev/git/wpcqi-optiga-trust-charge/optiga/optiga/comms/ifx_i2c\ifx_i2c_data_link_layer.c **** * Copyright (c) 2020 Infineon Technologies AG
   6:C:/Users/Yushev/git/wpcqi-optiga-trust-charge/optiga/optiga/comms/ifx_i2c\ifx_i2c_data_link_layer.c **** *
   7:C:/Users/Yushev/git/wpcqi-optiga-trust-charge/optiga/optiga/comms/ifx_i2c\ifx_i2c_data_link_layer.c **** * Permission is hereby granted, free of charge, to any person obtaining a copy
   8:C:/Users/Yushev/git/wpcqi-optiga-trust-charge/optiga/optiga/comms/ifx_i2c\ifx_i2c_data_link_layer.c **** * of this software and associated documentation files (the "Software"), to deal
   9:C:/Users/Yushev/git/wpcqi-optiga-trust-charge/optiga/optiga/comms/ifx_i2c\ifx_i2c_data_link_layer.c **** * in the Software without restriction, including without limitation the rights
  10:C:/Users/Yushev/git/wpcqi-optiga-trust-charge/optiga/optiga/comms/ifx_i2c\ifx_i2c_data_link_layer.c **** * to use, copy, modify, merge, publish, distribute, sublicense, and/or sell
  11:C:/Users/Yushev/git/wpcqi-optiga-trust-charge/optiga/optiga/comms/ifx_i2c\ifx_i2c_data_link_layer.c **** * copies of the Software, and to permit persons to whom the Software is
  12:C:/Users/Yushev/git/wpcqi-optiga-trust-charge/optiga/optiga/comms/ifx_i2c\ifx_i2c_data_link_layer.c **** * furnished to do so, subject to the following conditions:
  13:C:/Users/Yushev/git/wpcqi-optiga-trust-charge/optiga/optiga/comms/ifx_i2c\ifx_i2c_data_link_layer.c **** *
  14:C:/Users/Yushev/git/wpcqi-optiga-trust-charge/optiga/optiga/comms/ifx_i2c\ifx_i2c_data_link_layer.c **** * The above copyright notice and this permission notice shall be included in all
  15:C:/Users/Yushev/git/wpcqi-optiga-trust-charge/optiga/optiga/comms/ifx_i2c\ifx_i2c_data_link_layer.c **** * copies or substantial portions of the Software.
  16:C:/Users/Yushev/git/wpcqi-optiga-trust-charge/optiga/optiga/comms/ifx_i2c\ifx_i2c_data_link_layer.c **** *
  17:C:/Users/Yushev/git/wpcqi-optiga-trust-charge/optiga/optiga/comms/ifx_i2c\ifx_i2c_data_link_layer.c **** * THE SOFTWARE IS PROVIDED "AS IS", WITHOUT WARRANTY OF ANY KIND, EXPRESS OR
  18:C:/Users/Yushev/git/wpcqi-optiga-trust-charge/optiga/optiga/comms/ifx_i2c\ifx_i2c_data_link_layer.c **** * IMPLIED, INCLUDING BUT NOT LIMITED TO THE WARRANTIES OF MERCHANTABILITY,
  19:C:/Users/Yushev/git/wpcqi-optiga-trust-charge/optiga/optiga/comms/ifx_i2c\ifx_i2c_data_link_layer.c **** * FITNESS FOR A PARTICULAR PURPOSE AND NONINFRINGEMENT. IN NO EVENT SHALL THE
  20:C:/Users/Yushev/git/wpcqi-optiga-trust-charge/optiga/optiga/comms/ifx_i2c\ifx_i2c_data_link_layer.c **** * AUTHORS OR COPYRIGHT HOLDERS BE LIABLE FOR ANY CLAIM, DAMAGES OR OTHER
  21:C:/Users/Yushev/git/wpcqi-optiga-trust-charge/optiga/optiga/comms/ifx_i2c\ifx_i2c_data_link_layer.c **** * LIABILITY, WHETHER IN AN ACTION OF CONTRACT, TORT OR OTHERWISE, ARISING FROM,
  22:C:/Users/Yushev/git/wpcqi-optiga-trust-charge/optiga/optiga/comms/ifx_i2c\ifx_i2c_data_link_layer.c **** * OUT OF OR IN CONNECTION WITH THE SOFTWARE OR THE USE OR OTHER DEALINGS IN THE
  23:C:/Users/Yushev/git/wpcqi-optiga-trust-charge/optiga/optiga/comms/ifx_i2c\ifx_i2c_data_link_layer.c **** * SOFTWARE
  24:C:/Users/Yushev/git/wpcqi-optiga-trust-charge/optiga/optiga/comms/ifx_i2c\ifx_i2c_data_link_layer.c **** *
  25:C:/Users/Yushev/git/wpcqi-optiga-trust-charge/optiga/optiga/comms/ifx_i2c\ifx_i2c_data_link_layer.c **** * \endcopyright
  26:C:/Users/Yushev/git/wpcqi-optiga-trust-charge/optiga/optiga/comms/ifx_i2c\ifx_i2c_data_link_layer.c **** *
  27:C:/Users/Yushev/git/wpcqi-optiga-trust-charge/optiga/optiga/comms/ifx_i2c\ifx_i2c_data_link_layer.c **** * \author Infineon Technologies AG
  28:C:/Users/Yushev/git/wpcqi-optiga-trust-charge/optiga/optiga/comms/ifx_i2c\ifx_i2c_data_link_layer.c **** *
  29:C:/Users/Yushev/git/wpcqi-optiga-trust-charge/optiga/optiga/comms/ifx_i2c\ifx_i2c_data_link_layer.c **** * \file ifx_i2c_data_link_layer.c
  30:C:/Users/Yushev/git/wpcqi-optiga-trust-charge/optiga/optiga/comms/ifx_i2c\ifx_i2c_data_link_layer.c **** *
  31:C:/Users/Yushev/git/wpcqi-optiga-trust-charge/optiga/optiga/comms/ifx_i2c\ifx_i2c_data_link_layer.c **** * \brief   This file implements the APIs for data link layer of the Infineon I2C Protocol Stack lib
  32:C:/Users/Yushev/git/wpcqi-optiga-trust-charge/optiga/optiga/comms/ifx_i2c\ifx_i2c_data_link_layer.c **** *
  33:C:/Users/Yushev/git/wpcqi-optiga-trust-charge/optiga/optiga/comms/ifx_i2c\ifx_i2c_data_link_layer.c **** * \ingroup  grIFXI2C
  34:C:/Users/Yushev/git/wpcqi-optiga-trust-charge/optiga/optiga/comms/ifx_i2c\ifx_i2c_data_link_layer.c **** *
  35:C:/Users/Yushev/git/wpcqi-optiga-trust-charge/optiga/optiga/comms/ifx_i2c\ifx_i2c_data_link_layer.c **** * @{
  36:C:/Users/Yushev/git/wpcqi-optiga-trust-charge/optiga/optiga/comms/ifx_i2c\ifx_i2c_data_link_layer.c **** */
  37:C:/Users/Yushev/git/wpcqi-optiga-trust-charge/optiga/optiga/comms/ifx_i2c\ifx_i2c_data_link_layer.c **** 
  38:C:/Users/Yushev/git/wpcqi-optiga-trust-charge/optiga/optiga/comms/ifx_i2c\ifx_i2c_data_link_layer.c **** #include "optiga/ifx_i2c/ifx_i2c_data_link_layer.h"
  39:C:/Users/Yushev/git/wpcqi-optiga-trust-charge/optiga/optiga/comms/ifx_i2c\ifx_i2c_data_link_layer.c **** #include "optiga/ifx_i2c/ifx_i2c_physical_layer.h"
  40:C:/Users/Yushev/git/wpcqi-optiga-trust-charge/optiga/optiga/comms/ifx_i2c\ifx_i2c_data_link_layer.c **** 
  41:C:/Users/Yushev/git/wpcqi-optiga-trust-charge/optiga/optiga/comms/ifx_i2c\ifx_i2c_data_link_layer.c **** /// @cond hidden
  42:C:/Users/Yushev/git/wpcqi-optiga-trust-charge/optiga/optiga/comms/ifx_i2c\ifx_i2c_data_link_layer.c **** 
  43:C:/Users/Yushev/git/wpcqi-optiga-trust-charge/optiga/optiga/comms/ifx_i2c\ifx_i2c_data_link_layer.c **** // Data Link layer internal states
  44:C:/Users/Yushev/git/wpcqi-optiga-trust-charge/optiga/optiga/comms/ifx_i2c\ifx_i2c_data_link_layer.c **** #define DL_STATE_UNINIT                 (0x00)
  45:C:/Users/Yushev/git/wpcqi-optiga-trust-charge/optiga/optiga/comms/ifx_i2c\ifx_i2c_data_link_layer.c **** #define DL_STATE_IDLE                   (0x01)
  46:C:/Users/Yushev/git/wpcqi-optiga-trust-charge/optiga/optiga/comms/ifx_i2c\ifx_i2c_data_link_layer.c **** #define DL_STATE_TX                     (0x02)
  47:C:/Users/Yushev/git/wpcqi-optiga-trust-charge/optiga/optiga/comms/ifx_i2c\ifx_i2c_data_link_layer.c **** #define DL_STATE_RX                     (0x03)
  48:C:/Users/Yushev/git/wpcqi-optiga-trust-charge/optiga/optiga/comms/ifx_i2c\ifx_i2c_data_link_layer.c **** #define DL_STATE_ACK                    (0x04)
  49:C:/Users/Yushev/git/wpcqi-optiga-trust-charge/optiga/optiga/comms/ifx_i2c\ifx_i2c_data_link_layer.c **** #define DL_STATE_RESEND                 (0x05)
  50:C:/Users/Yushev/git/wpcqi-optiga-trust-charge/optiga/optiga/comms/ifx_i2c\ifx_i2c_data_link_layer.c **** #define DL_STATE_NACK                   (0x06)
  51:C:/Users/Yushev/git/wpcqi-optiga-trust-charge/optiga/optiga/comms/ifx_i2c\ifx_i2c_data_link_layer.c **** #define DL_STATE_ERROR                  (0x08)
  52:C:/Users/Yushev/git/wpcqi-optiga-trust-charge/optiga/optiga/comms/ifx_i2c\ifx_i2c_data_link_layer.c **** #define DL_STATE_DISCARD                (0x09)
  53:C:/Users/Yushev/git/wpcqi-optiga-trust-charge/optiga/optiga/comms/ifx_i2c\ifx_i2c_data_link_layer.c **** #define DL_STATE_RX_DF                  (0x0A)
  54:C:/Users/Yushev/git/wpcqi-optiga-trust-charge/optiga/optiga/comms/ifx_i2c\ifx_i2c_data_link_layer.c **** #define DL_STATE_RX_CF                  (0x0B)
  55:C:/Users/Yushev/git/wpcqi-optiga-trust-charge/optiga/optiga/comms/ifx_i2c\ifx_i2c_data_link_layer.c **** 
  56:C:/Users/Yushev/git/wpcqi-optiga-trust-charge/optiga/optiga/comms/ifx_i2c\ifx_i2c_data_link_layer.c **** // Data Link Layer Frame Control Constants
  57:C:/Users/Yushev/git/wpcqi-optiga-trust-charge/optiga/optiga/comms/ifx_i2c\ifx_i2c_data_link_layer.c **** #define DL_FCTR_FTYPE_MASK              (0x80)
  58:C:/Users/Yushev/git/wpcqi-optiga-trust-charge/optiga/optiga/comms/ifx_i2c\ifx_i2c_data_link_layer.c **** #define DL_FCTR_FTYPE_OFFSET            (7U)
  59:C:/Users/Yushev/git/wpcqi-optiga-trust-charge/optiga/optiga/comms/ifx_i2c\ifx_i2c_data_link_layer.c **** #define DL_FCTR_VALUE_CONTROL_FRAME     (0x01)
  60:C:/Users/Yushev/git/wpcqi-optiga-trust-charge/optiga/optiga/comms/ifx_i2c\ifx_i2c_data_link_layer.c **** 
  61:C:/Users/Yushev/git/wpcqi-optiga-trust-charge/optiga/optiga/comms/ifx_i2c\ifx_i2c_data_link_layer.c **** #define DL_FCTR_SEQCTR_MASK             (0x60)
  62:C:/Users/Yushev/git/wpcqi-optiga-trust-charge/optiga/optiga/comms/ifx_i2c\ifx_i2c_data_link_layer.c **** #define DL_FCTR_SEQCTR_OFFSET           (5U)
  63:C:/Users/Yushev/git/wpcqi-optiga-trust-charge/optiga/optiga/comms/ifx_i2c\ifx_i2c_data_link_layer.c **** #define DL_FCTR_SEQCTR_VALUE_ACK        (0x00)
  64:C:/Users/Yushev/git/wpcqi-optiga-trust-charge/optiga/optiga/comms/ifx_i2c\ifx_i2c_data_link_layer.c **** #define DL_FCTR_SEQCTR_VALUE_NACK       (0x01)
  65:C:/Users/Yushev/git/wpcqi-optiga-trust-charge/optiga/optiga/comms/ifx_i2c\ifx_i2c_data_link_layer.c **** #define DL_FCTR_SEQCTR_VALUE_RESYNC     (0x02)
  66:C:/Users/Yushev/git/wpcqi-optiga-trust-charge/optiga/optiga/comms/ifx_i2c\ifx_i2c_data_link_layer.c **** #define DL_FCTR_SEQCTR_VALUE_RFU        (0x03)
  67:C:/Users/Yushev/git/wpcqi-optiga-trust-charge/optiga/optiga/comms/ifx_i2c\ifx_i2c_data_link_layer.c **** 
  68:C:/Users/Yushev/git/wpcqi-optiga-trust-charge/optiga/optiga/comms/ifx_i2c\ifx_i2c_data_link_layer.c **** #define DL_FCTR_FRNR_MASK               (0x0C)
  69:C:/Users/Yushev/git/wpcqi-optiga-trust-charge/optiga/optiga/comms/ifx_i2c\ifx_i2c_data_link_layer.c **** #define DL_FCTR_FRNR_OFFSET             (2U)
  70:C:/Users/Yushev/git/wpcqi-optiga-trust-charge/optiga/optiga/comms/ifx_i2c\ifx_i2c_data_link_layer.c **** 
  71:C:/Users/Yushev/git/wpcqi-optiga-trust-charge/optiga/optiga/comms/ifx_i2c\ifx_i2c_data_link_layer.c **** #define DL_FCTR_ACKNR_MASK              (0x03)
  72:C:/Users/Yushev/git/wpcqi-optiga-trust-charge/optiga/optiga/comms/ifx_i2c\ifx_i2c_data_link_layer.c **** #define DL_FCTR_ACKNR_OFFSET            (0U)
  73:C:/Users/Yushev/git/wpcqi-optiga-trust-charge/optiga/optiga/comms/ifx_i2c\ifx_i2c_data_link_layer.c **** 
  74:C:/Users/Yushev/git/wpcqi-optiga-trust-charge/optiga/optiga/comms/ifx_i2c\ifx_i2c_data_link_layer.c **** // Data Link Layer frame counter max value
  75:C:/Users/Yushev/git/wpcqi-optiga-trust-charge/optiga/optiga/comms/ifx_i2c\ifx_i2c_data_link_layer.c **** #define DL_MAX_FRAME_NUM                (0x03)
  76:C:/Users/Yushev/git/wpcqi-optiga-trust-charge/optiga/optiga/comms/ifx_i2c\ifx_i2c_data_link_layer.c **** 
  77:C:/Users/Yushev/git/wpcqi-optiga-trust-charge/optiga/optiga/comms/ifx_i2c\ifx_i2c_data_link_layer.c **** // Data link layer length
  78:C:/Users/Yushev/git/wpcqi-optiga-trust-charge/optiga/optiga/comms/ifx_i2c\ifx_i2c_data_link_layer.c **** #define DL_CONTROL_FRAME_LENGTH         (5U)
  79:C:/Users/Yushev/git/wpcqi-optiga-trust-charge/optiga/optiga/comms/ifx_i2c\ifx_i2c_data_link_layer.c **** 
  80:C:/Users/Yushev/git/wpcqi-optiga-trust-charge/optiga/optiga/comms/ifx_i2c\ifx_i2c_data_link_layer.c **** // Seconds to milliseconds
  81:C:/Users/Yushev/git/wpcqi-optiga-trust-charge/optiga/optiga/comms/ifx_i2c\ifx_i2c_data_link_layer.c **** #define DL_SEC_TO_MSECS                 (1000U)
  82:C:/Users/Yushev/git/wpcqi-optiga-trust-charge/optiga/optiga/comms/ifx_i2c\ifx_i2c_data_link_layer.c **** 
  83:C:/Users/Yushev/git/wpcqi-optiga-trust-charge/optiga/optiga/comms/ifx_i2c\ifx_i2c_data_link_layer.c **** #if defined (OPTIGA_LIB_ENABLE_LOGGING) && defined (OPTIGA_LIB_ENABLE_COMMS_LOGGING)
  84:C:/Users/Yushev/git/wpcqi-optiga-trust-charge/optiga/optiga/comms/ifx_i2c\ifx_i2c_data_link_layer.c **** 
  85:C:/Users/Yushev/git/wpcqi-optiga-trust-charge/optiga/optiga/comms/ifx_i2c\ifx_i2c_data_link_layer.c **** // Logs the message provided from OPTIGA Comms layer
  86:C:/Users/Yushev/git/wpcqi-optiga-trust-charge/optiga/optiga/comms/ifx_i2c\ifx_i2c_data_link_layer.c **** #define OPTIGA_COMMS_LOG_MESSAGE(msg) \
  87:C:/Users/Yushev/git/wpcqi-optiga-trust-charge/optiga/optiga/comms/ifx_i2c\ifx_i2c_data_link_layer.c **** {\
  88:C:/Users/Yushev/git/wpcqi-optiga-trust-charge/optiga/optiga/comms/ifx_i2c\ifx_i2c_data_link_layer.c ****     optiga_lib_print_message(msg,OPTIGA_COMMUNICATION_LAYER,OPTIGA_COMMUNICATION_LAYER_COLOR);\
  89:C:/Users/Yushev/git/wpcqi-optiga-trust-charge/optiga/optiga/comms/ifx_i2c\ifx_i2c_data_link_layer.c **** }
  90:C:/Users/Yushev/git/wpcqi-optiga-trust-charge/optiga/optiga/comms/ifx_i2c\ifx_i2c_data_link_layer.c **** 
  91:C:/Users/Yushev/git/wpcqi-optiga-trust-charge/optiga/optiga/comms/ifx_i2c\ifx_i2c_data_link_layer.c **** // Logs the status info provided from OPTIGA Comms layer
  92:C:/Users/Yushev/git/wpcqi-optiga-trust-charge/optiga/optiga/comms/ifx_i2c\ifx_i2c_data_link_layer.c **** //lint --e{750} suppress "The unused OPTIGA_COMMS_LOG_STATUS macro is kept for future enhancements"
  93:C:/Users/Yushev/git/wpcqi-optiga-trust-charge/optiga/optiga/comms/ifx_i2c\ifx_i2c_data_link_layer.c **** #define OPTIGA_COMMS_LOG_STATUS(return_value)                                 \
  94:C:/Users/Yushev/git/wpcqi-optiga-trust-charge/optiga/optiga/comms/ifx_i2c\ifx_i2c_data_link_layer.c **** {                                                       \
  95:C:/Users/Yushev/git/wpcqi-optiga-trust-charge/optiga/optiga/comms/ifx_i2c\ifx_i2c_data_link_layer.c ****     if (OPTIGA_LIB_SUCCESS != return_value)                                 \
  96:C:/Users/Yushev/git/wpcqi-optiga-trust-charge/optiga/optiga/comms/ifx_i2c\ifx_i2c_data_link_layer.c ****     {                                                     \
  97:C:/Users/Yushev/git/wpcqi-optiga-trust-charge/optiga/optiga/comms/ifx_i2c\ifx_i2c_data_link_layer.c ****         optiga_lib_print_status(OPTIGA_COMMUNICATION_LAYER,OPTIGA_ERROR_COLOR,return_value);       
  98:C:/Users/Yushev/git/wpcqi-optiga-trust-charge/optiga/optiga/comms/ifx_i2c\ifx_i2c_data_link_layer.c ****     }                                                     \
  99:C:/Users/Yushev/git/wpcqi-optiga-trust-charge/optiga/optiga/comms/ifx_i2c\ifx_i2c_data_link_layer.c ****     else                                                  \
 100:C:/Users/Yushev/git/wpcqi-optiga-trust-charge/optiga/optiga/comms/ifx_i2c\ifx_i2c_data_link_layer.c ****     {                                                     \
 101:C:/Users/Yushev/git/wpcqi-optiga-trust-charge/optiga/optiga/comms/ifx_i2c\ifx_i2c_data_link_layer.c ****         optiga_lib_print_status(OPTIGA_COMMUNICATION_LAYER,OPTIGA_COMMUNICATION_LAYER_COLOR,return_
 102:C:/Users/Yushev/git/wpcqi-optiga-trust-charge/optiga/optiga/comms/ifx_i2c\ifx_i2c_data_link_layer.c ****     }                                                     \
 103:C:/Users/Yushev/git/wpcqi-optiga-trust-charge/optiga/optiga/comms/ifx_i2c\ifx_i2c_data_link_layer.c **** }
 104:C:/Users/Yushev/git/wpcqi-optiga-trust-charge/optiga/optiga/comms/ifx_i2c\ifx_i2c_data_link_layer.c **** 
 105:C:/Users/Yushev/git/wpcqi-optiga-trust-charge/optiga/optiga/comms/ifx_i2c\ifx_i2c_data_link_layer.c **** #ifdef OPTIGA_COMMS_SHIELDED_CONNECTION
 106:C:/Users/Yushev/git/wpcqi-optiga-trust-charge/optiga/optiga/comms/ifx_i2c\ifx_i2c_data_link_layer.c **** 
 107:C:/Users/Yushev/git/wpcqi-optiga-trust-charge/optiga/optiga/comms/ifx_i2c\ifx_i2c_data_link_layer.c **** // Logs the transmitted data to OPTIGA from IFXI2C layer in hexadecimal format
 108:C:/Users/Yushev/git/wpcqi-optiga-trust-charge/optiga/optiga/comms/ifx_i2c\ifx_i2c_data_link_layer.c **** #define OPTIGA_IFXI2C_LOG_TRANSMIT_HEX_DATA(array,array_len,p_ifx_i2c_ctx)              \
 109:C:/Users/Yushev/git/wpcqi-optiga-trust-charge/optiga/optiga/comms/ifx_i2c\ifx_i2c_data_link_layer.c **** {                                                 \
 110:C:/Users/Yushev/git/wpcqi-optiga-trust-charge/optiga/optiga/comms/ifx_i2c\ifx_i2c_data_link_layer.c ****   if (0 != frame_len)                                       \
 111:C:/Users/Yushev/git/wpcqi-optiga-trust-charge/optiga/optiga/comms/ifx_i2c\ifx_i2c_data_link_layer.c ****   {                                               \
 112:C:/Users/Yushev/git/wpcqi-optiga-trust-charge/optiga/optiga/comms/ifx_i2c\ifx_i2c_data_link_layer.c ****     if (((((ifx_i2c_context_t * )p_ifx_i2c_ctx)->protection_level & 0x0F) == 0x01) ||       \
 113:C:/Users/Yushev/git/wpcqi-optiga-trust-charge/optiga/optiga/comms/ifx_i2c\ifx_i2c_data_link_layer.c ****       ((((ifx_i2c_context_t * )p_ifx_i2c_ctx)->protection_level & 0x0F) == 0x03))       \
 114:C:/Users/Yushev/git/wpcqi-optiga-trust-charge/optiga/optiga/comms/ifx_i2c\ifx_i2c_data_link_layer.c ****       {                                             \
 115:C:/Users/Yushev/git/wpcqi-optiga-trust-charge/optiga/optiga/comms/ifx_i2c\ifx_i2c_data_link_layer.c ****         optiga_lib_print_array_hex_format(array,array_len,OPTIGA_PROTECTED_DATA_COLOR);  \
 116:C:/Users/Yushev/git/wpcqi-optiga-trust-charge/optiga/optiga/comms/ifx_i2c\ifx_i2c_data_link_layer.c ****       }                                             \
 117:C:/Users/Yushev/git/wpcqi-optiga-trust-charge/optiga/optiga/comms/ifx_i2c\ifx_i2c_data_link_layer.c ****       else                                          \
 118:C:/Users/Yushev/git/wpcqi-optiga-trust-charge/optiga/optiga/comms/ifx_i2c\ifx_i2c_data_link_layer.c ****       {                                             \
 119:C:/Users/Yushev/git/wpcqi-optiga-trust-charge/optiga/optiga/comms/ifx_i2c\ifx_i2c_data_link_layer.c ****         optiga_lib_print_array_hex_format(array,array_len,OPTIGA_UNPROTECTED_DATA_COLOR);\
 120:C:/Users/Yushev/git/wpcqi-optiga-trust-charge/optiga/optiga/comms/ifx_i2c\ifx_i2c_data_link_layer.c ****       }                                             \
 121:C:/Users/Yushev/git/wpcqi-optiga-trust-charge/optiga/optiga/comms/ifx_i2c\ifx_i2c_data_link_layer.c ****   }                                               \
 122:C:/Users/Yushev/git/wpcqi-optiga-trust-charge/optiga/optiga/comms/ifx_i2c\ifx_i2c_data_link_layer.c **** }
 123:C:/Users/Yushev/git/wpcqi-optiga-trust-charge/optiga/optiga/comms/ifx_i2c\ifx_i2c_data_link_layer.c **** 
 124:C:/Users/Yushev/git/wpcqi-optiga-trust-charge/optiga/optiga/comms/ifx_i2c\ifx_i2c_data_link_layer.c **** // Logs the received data from OPTIGA in hexadecimal format
 125:C:/Users/Yushev/git/wpcqi-optiga-trust-charge/optiga/optiga/comms/ifx_i2c\ifx_i2c_data_link_layer.c **** #define OPTIGA_IFXI2C_LOG_RECEIVE_HEX_DATA(array,array_len,p_ifx_i2c_ctx) \
 126:C:/Users/Yushev/git/wpcqi-optiga-trust-charge/optiga/optiga/comms/ifx_i2c\ifx_i2c_data_link_layer.c **** {\
 127:C:/Users/Yushev/git/wpcqi-optiga-trust-charge/optiga/optiga/comms/ifx_i2c\ifx_i2c_data_link_layer.c ****     if (((((ifx_i2c_context_t * )p_ifx_i2c_ctx)->protection_level & 0x0F) == 0x02) || \
 128:C:/Users/Yushev/git/wpcqi-optiga-trust-charge/optiga/optiga/comms/ifx_i2c\ifx_i2c_data_link_layer.c ****         ((((ifx_i2c_context_t * )p_ifx_i2c_ctx)->protection_level & 0x0F) == 0x03)) \
 129:C:/Users/Yushev/git/wpcqi-optiga-trust-charge/optiga/optiga/comms/ifx_i2c\ifx_i2c_data_link_layer.c ****         { \
 130:C:/Users/Yushev/git/wpcqi-optiga-trust-charge/optiga/optiga/comms/ifx_i2c\ifx_i2c_data_link_layer.c ****             optiga_lib_print_array_hex_format(array,array_len,OPTIGA_PROTECTED_DATA_COLOR); \
 131:C:/Users/Yushev/git/wpcqi-optiga-trust-charge/optiga/optiga/comms/ifx_i2c\ifx_i2c_data_link_layer.c ****         } \
 132:C:/Users/Yushev/git/wpcqi-optiga-trust-charge/optiga/optiga/comms/ifx_i2c\ifx_i2c_data_link_layer.c ****         else \
 133:C:/Users/Yushev/git/wpcqi-optiga-trust-charge/optiga/optiga/comms/ifx_i2c\ifx_i2c_data_link_layer.c ****         { \
 134:C:/Users/Yushev/git/wpcqi-optiga-trust-charge/optiga/optiga/comms/ifx_i2c\ifx_i2c_data_link_layer.c ****             optiga_lib_print_array_hex_format(array,array_len,OPTIGA_UNPROTECTED_DATA_COLOR); \
 135:C:/Users/Yushev/git/wpcqi-optiga-trust-charge/optiga/optiga/comms/ifx_i2c\ifx_i2c_data_link_layer.c ****         } \
 136:C:/Users/Yushev/git/wpcqi-optiga-trust-charge/optiga/optiga/comms/ifx_i2c\ifx_i2c_data_link_layer.c **** }
 137:C:/Users/Yushev/git/wpcqi-optiga-trust-charge/optiga/optiga/comms/ifx_i2c\ifx_i2c_data_link_layer.c **** #else
 138:C:/Users/Yushev/git/wpcqi-optiga-trust-charge/optiga/optiga/comms/ifx_i2c\ifx_i2c_data_link_layer.c **** 
 139:C:/Users/Yushev/git/wpcqi-optiga-trust-charge/optiga/optiga/comms/ifx_i2c\ifx_i2c_data_link_layer.c **** // Logs the transmitted data to OPTIGA from IFXI2C layer in hexadecimal format
 140:C:/Users/Yushev/git/wpcqi-optiga-trust-charge/optiga/optiga/comms/ifx_i2c\ifx_i2c_data_link_layer.c **** #define OPTIGA_IFXI2C_LOG_TRANSMIT_HEX_DATA(array,array_len,p_ifx_i2c_ctx) \
 141:C:/Users/Yushev/git/wpcqi-optiga-trust-charge/optiga/optiga/comms/ifx_i2c\ifx_i2c_data_link_layer.c **** {\
 142:C:/Users/Yushev/git/wpcqi-optiga-trust-charge/optiga/optiga/comms/ifx_i2c\ifx_i2c_data_link_layer.c ****     OPTIGA_COMMS_LOG_MESSAGE("");\
 143:C:/Users/Yushev/git/wpcqi-optiga-trust-charge/optiga/optiga/comms/ifx_i2c\ifx_i2c_data_link_layer.c ****     optiga_lib_print_array_hex_format(array,array_len,OPTIGA_UNPROTECTED_DATA_COLOR);\
 144:C:/Users/Yushev/git/wpcqi-optiga-trust-charge/optiga/optiga/comms/ifx_i2c\ifx_i2c_data_link_layer.c **** }
 145:C:/Users/Yushev/git/wpcqi-optiga-trust-charge/optiga/optiga/comms/ifx_i2c\ifx_i2c_data_link_layer.c **** 
 146:C:/Users/Yushev/git/wpcqi-optiga-trust-charge/optiga/optiga/comms/ifx_i2c\ifx_i2c_data_link_layer.c **** // Logs the received data from OPTIGA in hexadecimal format
 147:C:/Users/Yushev/git/wpcqi-optiga-trust-charge/optiga/optiga/comms/ifx_i2c\ifx_i2c_data_link_layer.c **** #define OPTIGA_IFXI2C_LOG_RECEIVE_HEX_DATA(array,array_len,p_ifx_i2c_ctx) \
 148:C:/Users/Yushev/git/wpcqi-optiga-trust-charge/optiga/optiga/comms/ifx_i2c\ifx_i2c_data_link_layer.c **** {\
 149:C:/Users/Yushev/git/wpcqi-optiga-trust-charge/optiga/optiga/comms/ifx_i2c\ifx_i2c_data_link_layer.c ****     OPTIGA_COMMS_LOG_MESSAGE("");\
 150:C:/Users/Yushev/git/wpcqi-optiga-trust-charge/optiga/optiga/comms/ifx_i2c\ifx_i2c_data_link_layer.c ****     optiga_lib_print_array_hex_format(array,array_len,OPTIGA_UNPROTECTED_DATA_COLOR);\
 151:C:/Users/Yushev/git/wpcqi-optiga-trust-charge/optiga/optiga/comms/ifx_i2c\ifx_i2c_data_link_layer.c **** }
 152:C:/Users/Yushev/git/wpcqi-optiga-trust-charge/optiga/optiga/comms/ifx_i2c\ifx_i2c_data_link_layer.c **** 
 153:C:/Users/Yushev/git/wpcqi-optiga-trust-charge/optiga/optiga/comms/ifx_i2c\ifx_i2c_data_link_layer.c **** #endif
 154:C:/Users/Yushev/git/wpcqi-optiga-trust-charge/optiga/optiga/comms/ifx_i2c\ifx_i2c_data_link_layer.c **** 
 155:C:/Users/Yushev/git/wpcqi-optiga-trust-charge/optiga/optiga/comms/ifx_i2c\ifx_i2c_data_link_layer.c **** #else
 156:C:/Users/Yushev/git/wpcqi-optiga-trust-charge/optiga/optiga/comms/ifx_i2c\ifx_i2c_data_link_layer.c **** 
 157:C:/Users/Yushev/git/wpcqi-optiga-trust-charge/optiga/optiga/comms/ifx_i2c\ifx_i2c_data_link_layer.c **** #define OPTIGA_IFXI2C_LOG_TRANSMIT_HEX_DATA(array,array_len,p_ifx_i2c_ctx) {}
 158:C:/Users/Yushev/git/wpcqi-optiga-trust-charge/optiga/optiga/comms/ifx_i2c\ifx_i2c_data_link_layer.c **** #define OPTIGA_IFXI2C_LOG_RECEIVE_HEX_DATA(array,array_len,p_ifx_i2c_ctx) {}
 159:C:/Users/Yushev/git/wpcqi-optiga-trust-charge/optiga/optiga/comms/ifx_i2c\ifx_i2c_data_link_layer.c **** #define OPTIGA_COMMS_LOG_MESSAGE(msg) {}
 160:C:/Users/Yushev/git/wpcqi-optiga-trust-charge/optiga/optiga/comms/ifx_i2c\ifx_i2c_data_link_layer.c **** //lint --e{750} suppress "The unused OPTIGA_COMMS_LOG_STATUS macro is kept for future enhancements"
 161:C:/Users/Yushev/git/wpcqi-optiga-trust-charge/optiga/optiga/comms/ifx_i2c\ifx_i2c_data_link_layer.c **** #define OPTIGA_COMMS_LOG_STATUS(return_value) {}
 162:C:/Users/Yushev/git/wpcqi-optiga-trust-charge/optiga/optiga/comms/ifx_i2c\ifx_i2c_data_link_layer.c **** #endif
 163:C:/Users/Yushev/git/wpcqi-optiga-trust-charge/optiga/optiga/comms/ifx_i2c\ifx_i2c_data_link_layer.c **** 
 164:C:/Users/Yushev/git/wpcqi-optiga-trust-charge/optiga/optiga/comms/ifx_i2c\ifx_i2c_data_link_layer.c **** // Setup debug log statements
 165:C:/Users/Yushev/git/wpcqi-optiga-trust-charge/optiga/optiga/comms/ifx_i2c\ifx_i2c_data_link_layer.c **** #if IFX_I2C_LOG_DL == 1
 166:C:/Users/Yushev/git/wpcqi-optiga-trust-charge/optiga/optiga/comms/ifx_i2c\ifx_i2c_data_link_layer.c **** #define LOG_DL IFX_I2C_LOG
 167:C:/Users/Yushev/git/wpcqi-optiga-trust-charge/optiga/optiga/comms/ifx_i2c\ifx_i2c_data_link_layer.c **** #else
 168:C:/Users/Yushev/git/wpcqi-optiga-trust-charge/optiga/optiga/comms/ifx_i2c\ifx_i2c_data_link_layer.c **** #define LOG_DL(...) //printf(__VA_ARGS__)
 169:C:/Users/Yushev/git/wpcqi-optiga-trust-charge/optiga/optiga/comms/ifx_i2c\ifx_i2c_data_link_layer.c **** #endif
 170:C:/Users/Yushev/git/wpcqi-optiga-trust-charge/optiga/optiga/comms/ifx_i2c\ifx_i2c_data_link_layer.c **** 
 171:C:/Users/Yushev/git/wpcqi-optiga-trust-charge/optiga/optiga/comms/ifx_i2c\ifx_i2c_data_link_layer.c **** /// Helper function to calculate CRC of a byte
 172:C:/Users/Yushev/git/wpcqi-optiga-trust-charge/optiga/optiga/comms/ifx_i2c\ifx_i2c_data_link_layer.c **** _STATIC_H uint16_t ifx_i2c_dl_calc_crc_byte(uint16_t seed,
 173:C:/Users/Yushev/git/wpcqi-optiga-trust-charge/optiga/optiga/comms/ifx_i2c\ifx_i2c_data_link_layer.c ****                                                        uint8_t byte);
 174:C:/Users/Yushev/git/wpcqi-optiga-trust-charge/optiga/optiga/comms/ifx_i2c\ifx_i2c_data_link_layer.c **** /// Helper function to calculate CRC of a frame
 175:C:/Users/Yushev/git/wpcqi-optiga-trust-charge/optiga/optiga/comms/ifx_i2c\ifx_i2c_data_link_layer.c **** _STATIC_H uint16_t ifx_i2c_dl_calc_crc(const uint8_t * p_data,
 176:C:/Users/Yushev/git/wpcqi-optiga-trust-charge/optiga/optiga/comms/ifx_i2c\ifx_i2c_data_link_layer.c ****                                                   uint16_t data_len);
 177:C:/Users/Yushev/git/wpcqi-optiga-trust-charge/optiga/optiga/comms/ifx_i2c\ifx_i2c_data_link_layer.c **** /// Internal function to send frame
 178:C:/Users/Yushev/git/wpcqi-optiga-trust-charge/optiga/optiga/comms/ifx_i2c\ifx_i2c_data_link_layer.c **** _STATIC_H optiga_lib_status_t ifx_i2c_dl_send_frame_internal(ifx_i2c_context_t * p_ctx,
 179:C:/Users/Yushev/git/wpcqi-optiga-trust-charge/optiga/optiga/comms/ifx_i2c\ifx_i2c_data_link_layer.c ****                                                              uint16_t frame_len,
 180:C:/Users/Yushev/git/wpcqi-optiga-trust-charge/optiga/optiga/comms/ifx_i2c\ifx_i2c_data_link_layer.c ****                                                              uint8_t seqctr_value,
 181:C:/Users/Yushev/git/wpcqi-optiga-trust-charge/optiga/optiga/comms/ifx_i2c\ifx_i2c_data_link_layer.c ****                                                              uint8_t resend);
 182:C:/Users/Yushev/git/wpcqi-optiga-trust-charge/optiga/optiga/comms/ifx_i2c\ifx_i2c_data_link_layer.c **** /// Helper function to send resync
 183:C:/Users/Yushev/git/wpcqi-optiga-trust-charge/optiga/optiga/comms/ifx_i2c\ifx_i2c_data_link_layer.c **** _STATIC_H optiga_lib_status_t ifx_i2c_dl_resync(ifx_i2c_context_t * p_ctx);
 184:C:/Users/Yushev/git/wpcqi-optiga-trust-charge/optiga/optiga/comms/ifx_i2c\ifx_i2c_data_link_layer.c **** /// Helper function to resend frame
 185:C:/Users/Yushev/git/wpcqi-optiga-trust-charge/optiga/optiga/comms/ifx_i2c\ifx_i2c_data_link_layer.c **** _STATIC_H void ifx_i2c_dl_resend_frame(ifx_i2c_context_t * p_ctx,
 186:C:/Users/Yushev/git/wpcqi-optiga-trust-charge/optiga/optiga/comms/ifx_i2c\ifx_i2c_data_link_layer.c ****                                        uint8_t seqctr_value);
 187:C:/Users/Yushev/git/wpcqi-optiga-trust-charge/optiga/optiga/comms/ifx_i2c\ifx_i2c_data_link_layer.c **** /// Data Link Layer state machine
 188:C:/Users/Yushev/git/wpcqi-optiga-trust-charge/optiga/optiga/comms/ifx_i2c\ifx_i2c_data_link_layer.c **** _STATIC_H void ifx_i2c_pl_event_handler(ifx_i2c_context_t * p_ctx,
 189:C:/Users/Yushev/git/wpcqi-optiga-trust-charge/optiga/optiga/comms/ifx_i2c\ifx_i2c_data_link_layer.c ****                                         optiga_lib_status_t event,
 190:C:/Users/Yushev/git/wpcqi-optiga-trust-charge/optiga/optiga/comms/ifx_i2c\ifx_i2c_data_link_layer.c ****                                         const uint8_t * p_data,
 191:C:/Users/Yushev/git/wpcqi-optiga-trust-charge/optiga/optiga/comms/ifx_i2c\ifx_i2c_data_link_layer.c ****                                         uint16_t data_len);
 192:C:/Users/Yushev/git/wpcqi-optiga-trust-charge/optiga/optiga/comms/ifx_i2c\ifx_i2c_data_link_layer.c **** 
 193:C:/Users/Yushev/git/wpcqi-optiga-trust-charge/optiga/optiga/comms/ifx_i2c\ifx_i2c_data_link_layer.c **** /// @endcond
 194:C:/Users/Yushev/git/wpcqi-optiga-trust-charge/optiga/optiga/comms/ifx_i2c\ifx_i2c_data_link_layer.c **** 
 195:C:/Users/Yushev/git/wpcqi-optiga-trust-charge/optiga/optiga/comms/ifx_i2c\ifx_i2c_data_link_layer.c **** optiga_lib_status_t ifx_i2c_dl_init(ifx_i2c_context_t * p_ctx, ifx_i2c_event_handler_t handler)
 196:C:/Users/Yushev/git/wpcqi-optiga-trust-charge/optiga/optiga/comms/ifx_i2c\ifx_i2c_data_link_layer.c **** {
  28              	 .loc 1 196 0
  29              	 .cfi_startproc
  30              	 
  31              	 
  32 0000 80B5     	 push {r7,lr}
  33              	.LCFI0:
  34              	 .cfi_def_cfa_offset 8
  35              	 .cfi_offset 7,-8
  36              	 .cfi_offset 14,-4
  37 0002 82B0     	 sub sp,sp,#8
  38              	.LCFI1:
  39              	 .cfi_def_cfa_offset 16
  40 0004 00AF     	 add r7,sp,#0
  41              	.LCFI2:
  42              	 .cfi_def_cfa_register 7
  43 0006 7860     	 str r0,[r7,#4]
  44 0008 3960     	 str r1,[r7]
 197:C:/Users/Yushev/git/wpcqi-optiga-trust-charge/optiga/optiga/comms/ifx_i2c\ifx_i2c_data_link_layer.c ****     LOG_DL("[IFX-DL]: Init\n");
 198:C:/Users/Yushev/git/wpcqi-optiga-trust-charge/optiga/optiga/comms/ifx_i2c\ifx_i2c_data_link_layer.c **** 
 199:C:/Users/Yushev/git/wpcqi-optiga-trust-charge/optiga/optiga/comms/ifx_i2c\ifx_i2c_data_link_layer.c ****     p_ctx->dl.state = DL_STATE_UNINIT;
  45              	 .loc 1 199 0
  46 000a 7B68     	 ldr r3,[r7,#4]
  47 000c 0022     	 movs r2,#0
  48 000e 83F85820 	 strb r2,[r3,#88]
 200:C:/Users/Yushev/git/wpcqi-optiga-trust-charge/optiga/optiga/comms/ifx_i2c\ifx_i2c_data_link_layer.c ****     // Initialize Physical Layer (and register event handler)
 201:C:/Users/Yushev/git/wpcqi-optiga-trust-charge/optiga/optiga/comms/ifx_i2c\ifx_i2c_data_link_layer.c ****     if (IFX_I2C_STACK_SUCCESS != ifx_i2c_pl_init(p_ctx, ifx_i2c_pl_event_handler))
  49              	 .loc 1 201 0
  50 0012 7868     	 ldr r0,[r7,#4]
  51 0014 1749     	 ldr r1,.L4
  52 0016 FFF7FEFF 	 bl ifx_i2c_pl_init
  53 001a 0346     	 mov r3,r0
  54 001c 002B     	 cmp r3,#0
  55 001e 02D0     	 beq .L2
 202:C:/Users/Yushev/git/wpcqi-optiga-trust-charge/optiga/optiga/comms/ifx_i2c\ifx_i2c_data_link_layer.c ****     {
 203:C:/Users/Yushev/git/wpcqi-optiga-trust-charge/optiga/optiga/comms/ifx_i2c\ifx_i2c_data_link_layer.c ****         return (IFX_I2C_STACK_ERROR);
  56              	 .loc 1 203 0
  57 0020 4FF48173 	 mov r3,#258
  58 0024 21E0     	 b .L3
  59              	.L2:
 204:C:/Users/Yushev/git/wpcqi-optiga-trust-charge/optiga/optiga/comms/ifx_i2c\ifx_i2c_data_link_layer.c ****     }
 205:C:/Users/Yushev/git/wpcqi-optiga-trust-charge/optiga/optiga/comms/ifx_i2c\ifx_i2c_data_link_layer.c **** 
 206:C:/Users/Yushev/git/wpcqi-optiga-trust-charge/optiga/optiga/comms/ifx_i2c\ifx_i2c_data_link_layer.c ****     // Initialize internal variables
 207:C:/Users/Yushev/git/wpcqi-optiga-trust-charge/optiga/optiga/comms/ifx_i2c\ifx_i2c_data_link_layer.c ****     p_ctx->dl.upper_layer_event_handler = handler;
  60              	 .loc 1 207 0
  61 0026 7B68     	 ldr r3,[r7,#4]
  62 0028 3A68     	 ldr r2,[r7]
  63 002a 5A67     	 str r2,[r3,#116]
 208:C:/Users/Yushev/git/wpcqi-optiga-trust-charge/optiga/optiga/comms/ifx_i2c\ifx_i2c_data_link_layer.c ****     p_ctx->dl.state = DL_STATE_IDLE;
  64              	 .loc 1 208 0
  65 002c 7B68     	 ldr r3,[r7,#4]
  66 002e 0122     	 movs r2,#1
  67 0030 83F85820 	 strb r2,[r3,#88]
 209:C:/Users/Yushev/git/wpcqi-optiga-trust-charge/optiga/optiga/comms/ifx_i2c\ifx_i2c_data_link_layer.c ****     p_ctx->dl.tx_seq_nr = DL_MAX_FRAME_NUM;
  68              	 .loc 1 209 0
  69 0034 7B68     	 ldr r3,[r7,#4]
  70 0036 0322     	 movs r2,#3
  71 0038 83F85920 	 strb r2,[r3,#89]
 210:C:/Users/Yushev/git/wpcqi-optiga-trust-charge/optiga/optiga/comms/ifx_i2c\ifx_i2c_data_link_layer.c ****     p_ctx->dl.rx_seq_nr = DL_MAX_FRAME_NUM;
  72              	 .loc 1 210 0
  73 003c 7B68     	 ldr r3,[r7,#4]
  74 003e 0322     	 movs r2,#3
  75 0040 83F85A20 	 strb r2,[r3,#90]
 211:C:/Users/Yushev/git/wpcqi-optiga-trust-charge/optiga/optiga/comms/ifx_i2c\ifx_i2c_data_link_layer.c ****     p_ctx->dl.resynced = 0;
  76              	 .loc 1 211 0
  77 0044 7B68     	 ldr r3,[r7,#4]
  78 0046 0022     	 movs r2,#0
  79 0048 83F85E20 	 strb r2,[r3,#94]
 212:C:/Users/Yushev/git/wpcqi-optiga-trust-charge/optiga/optiga/comms/ifx_i2c\ifx_i2c_data_link_layer.c ****     p_ctx->dl.error = 0;
  80              	 .loc 1 212 0
  81 004c 7B68     	 ldr r3,[r7,#4]
  82 004e 0022     	 movs r2,#0
  83 0050 83F85D20 	 strb r2,[r3,#93]
 213:C:/Users/Yushev/git/wpcqi-optiga-trust-charge/optiga/optiga/comms/ifx_i2c\ifx_i2c_data_link_layer.c ****     p_ctx->dl.p_tx_frame_buffer = p_ctx->tx_frame_buffer;
  84              	 .loc 1 213 0
  85 0054 7B68     	 ldr r3,[r7,#4]
  86 0056 03F5D472 	 add r2,r3,#424
  87 005a 7B68     	 ldr r3,[r7,#4]
  88 005c 9A66     	 str r2,[r3,#104]
 214:C:/Users/Yushev/git/wpcqi-optiga-trust-charge/optiga/optiga/comms/ifx_i2c\ifx_i2c_data_link_layer.c ****     p_ctx->dl.p_rx_frame_buffer = p_ctx->rx_frame_buffer;
  89              	 .loc 1 214 0
  90 005e 7B68     	 ldr r3,[r7,#4]
  91 0060 03F2BE22 	 addw r2,r3,#702
  92 0064 7B68     	 ldr r3,[r7,#4]
  93 0066 DA66     	 str r2,[r3,#108]
 215:C:/Users/Yushev/git/wpcqi-optiga-trust-charge/optiga/optiga/comms/ifx_i2c\ifx_i2c_data_link_layer.c **** 
 216:C:/Users/Yushev/git/wpcqi-optiga-trust-charge/optiga/optiga/comms/ifx_i2c\ifx_i2c_data_link_layer.c ****     return IFX_I2C_STACK_SUCCESS;
  94              	 .loc 1 216 0
  95 0068 0023     	 movs r3,#0
  96              	.L3:
 217:C:/Users/Yushev/git/wpcqi-optiga-trust-charge/optiga/optiga/comms/ifx_i2c\ifx_i2c_data_link_layer.c **** }
  97              	 .loc 1 217 0
  98 006a 1846     	 mov r0,r3
  99 006c 0837     	 adds r7,r7,#8
 100              	.LCFI3:
 101              	 .cfi_def_cfa_offset 8
 102 006e BD46     	 mov sp,r7
 103              	.LCFI4:
 104              	 .cfi_def_cfa_register 13
 105              	 
 106 0070 80BD     	 pop {r7,pc}
 107              	.L5:
 108 0072 00BF     	 .align 2
 109              	.L4:
 110 0074 00000000 	 .word ifx_i2c_pl_event_handler
 111              	 .cfi_endproc
 112              	.LFE0:
 114              	 .section .text.ifx_i2c_dl_send_frame,"ax",%progbits
 115              	 .align 2
 116              	 .global ifx_i2c_dl_send_frame
 117              	 .thumb
 118              	 .thumb_func
 120              	ifx_i2c_dl_send_frame:
 121              	.LFB1:
 218:C:/Users/Yushev/git/wpcqi-optiga-trust-charge/optiga/optiga/comms/ifx_i2c\ifx_i2c_data_link_layer.c **** 
 219:C:/Users/Yushev/git/wpcqi-optiga-trust-charge/optiga/optiga/comms/ifx_i2c\ifx_i2c_data_link_layer.c **** optiga_lib_status_t ifx_i2c_dl_send_frame(ifx_i2c_context_t * p_ctx, uint16_t frame_len)
 220:C:/Users/Yushev/git/wpcqi-optiga-trust-charge/optiga/optiga/comms/ifx_i2c\ifx_i2c_data_link_layer.c **** {
 122              	 .loc 1 220 0
 123              	 .cfi_startproc
 124              	 
 125              	 
 126 0000 80B5     	 push {r7,lr}
 127              	.LCFI5:
 128              	 .cfi_def_cfa_offset 8
 129              	 .cfi_offset 7,-8
 130              	 .cfi_offset 14,-4
 131 0002 82B0     	 sub sp,sp,#8
 132              	.LCFI6:
 133              	 .cfi_def_cfa_offset 16
 134 0004 00AF     	 add r7,sp,#0
 135              	.LCFI7:
 136              	 .cfi_def_cfa_register 7
 137 0006 7860     	 str r0,[r7,#4]
 138 0008 0B46     	 mov r3,r1
 139 000a 7B80     	 strh r3,[r7,#2]
 221:C:/Users/Yushev/git/wpcqi-optiga-trust-charge/optiga/optiga/comms/ifx_i2c\ifx_i2c_data_link_layer.c ****     LOG_DL("[IFX-DL]: Start TX Frame\n");
 222:C:/Users/Yushev/git/wpcqi-optiga-trust-charge/optiga/optiga/comms/ifx_i2c\ifx_i2c_data_link_layer.c ****     // State must be idle and payload available
 223:C:/Users/Yushev/git/wpcqi-optiga-trust-charge/optiga/optiga/comms/ifx_i2c\ifx_i2c_data_link_layer.c ****     if (p_ctx->dl.state != DL_STATE_IDLE || (0 == frame_len))
 140              	 .loc 1 223 0
 141 000c 7B68     	 ldr r3,[r7,#4]
 142 000e 93F85830 	 ldrb r3,[r3,#88]
 143 0012 012B     	 cmp r3,#1
 144 0014 02D1     	 bne .L7
 145              	 .loc 1 223 0 is_stmt 0 discriminator 1
 146 0016 7B88     	 ldrh r3,[r7,#2]
 147 0018 002B     	 cmp r3,#0
 148 001a 02D1     	 bne .L8
 149              	.L7:
 224:C:/Users/Yushev/git/wpcqi-optiga-trust-charge/optiga/optiga/comms/ifx_i2c\ifx_i2c_data_link_layer.c ****     {
 225:C:/Users/Yushev/git/wpcqi-optiga-trust-charge/optiga/optiga/comms/ifx_i2c\ifx_i2c_data_link_layer.c ****         return (IFX_I2C_STACK_ERROR);
 150              	 .loc 1 225 0 is_stmt 1
 151 001c 4FF48173 	 mov r3,#258
 152 0020 1AE0     	 b .L9
 153              	.L8:
 226:C:/Users/Yushev/git/wpcqi-optiga-trust-charge/optiga/optiga/comms/ifx_i2c\ifx_i2c_data_link_layer.c ****     }
 227:C:/Users/Yushev/git/wpcqi-optiga-trust-charge/optiga/optiga/comms/ifx_i2c\ifx_i2c_data_link_layer.c **** 
 228:C:/Users/Yushev/git/wpcqi-optiga-trust-charge/optiga/optiga/comms/ifx_i2c\ifx_i2c_data_link_layer.c ****     p_ctx->dl.state = DL_STATE_TX;
 154              	 .loc 1 228 0
 155 0022 7B68     	 ldr r3,[r7,#4]
 156 0024 0222     	 movs r2,#2
 157 0026 83F85820 	 strb r2,[r3,#88]
 229:C:/Users/Yushev/git/wpcqi-optiga-trust-charge/optiga/optiga/comms/ifx_i2c\ifx_i2c_data_link_layer.c ****     p_ctx->dl.retransmit_counter = 0;
 158              	 .loc 1 229 0
 159 002a 7B68     	 ldr r3,[r7,#4]
 160 002c 0022     	 movs r2,#0
 161 002e 83F85C20 	 strb r2,[r3,#92]
 230:C:/Users/Yushev/git/wpcqi-optiga-trust-charge/optiga/optiga/comms/ifx_i2c\ifx_i2c_data_link_layer.c ****     p_ctx->dl.action_rx_only = 0;
 162              	 .loc 1 230 0
 163 0032 7B68     	 ldr r3,[r7,#4]
 164 0034 0022     	 movs r2,#0
 165 0036 83F85B20 	 strb r2,[r3,#91]
 231:C:/Users/Yushev/git/wpcqi-optiga-trust-charge/optiga/optiga/comms/ifx_i2c\ifx_i2c_data_link_layer.c ****     p_ctx->dl.tx_buffer_size = frame_len;
 166              	 .loc 1 231 0
 167 003a 7B68     	 ldr r3,[r7,#4]
 168 003c 7A88     	 ldrh r2,[r7,#2]
 169 003e A3F86420 	 strh r2,[r3,#100]
 232:C:/Users/Yushev/git/wpcqi-optiga-trust-charge/optiga/optiga/comms/ifx_i2c\ifx_i2c_data_link_layer.c ****     p_ctx->dl.data_poll_timeout = PL_TRANS_TIMEOUT_MS;
 170              	 .loc 1 232 0
 171 0042 7B68     	 ldr r3,[r7,#4]
 172 0044 0A22     	 movs r2,#10
 173 0046 1A66     	 str r2,[r3,#96]
 233:C:/Users/Yushev/git/wpcqi-optiga-trust-charge/optiga/optiga/comms/ifx_i2c\ifx_i2c_data_link_layer.c **** 
 234:C:/Users/Yushev/git/wpcqi-optiga-trust-charge/optiga/optiga/comms/ifx_i2c\ifx_i2c_data_link_layer.c ****     return (ifx_i2c_dl_send_frame_internal(p_ctx, frame_len, DL_FCTR_SEQCTR_VALUE_ACK, 0));
 174              	 .loc 1 234 0
 175 0048 7B88     	 ldrh r3,[r7,#2]
 176 004a 7868     	 ldr r0,[r7,#4]
 177 004c 1946     	 mov r1,r3
 178 004e 0022     	 movs r2,#0
 179 0050 0023     	 movs r3,#0
 180 0052 FFF7FEFF 	 bl ifx_i2c_dl_send_frame_internal
 181 0056 0346     	 mov r3,r0
 182              	.L9:
 235:C:/Users/Yushev/git/wpcqi-optiga-trust-charge/optiga/optiga/comms/ifx_i2c\ifx_i2c_data_link_layer.c **** }
 183              	 .loc 1 235 0
 184 0058 1846     	 mov r0,r3
 185 005a 0837     	 adds r7,r7,#8
 186              	.LCFI8:
 187              	 .cfi_def_cfa_offset 8
 188 005c BD46     	 mov sp,r7
 189              	.LCFI9:
 190              	 .cfi_def_cfa_register 13
 191              	 
 192 005e 80BD     	 pop {r7,pc}
 193              	 .cfi_endproc
 194              	.LFE1:
 196              	 .section .text.ifx_i2c_dl_receive_frame,"ax",%progbits
 197              	 .align 2
 198              	 .global ifx_i2c_dl_receive_frame
 199              	 .thumb
 200              	 .thumb_func
 202              	ifx_i2c_dl_receive_frame:
 203              	.LFB2:
 236:C:/Users/Yushev/git/wpcqi-optiga-trust-charge/optiga/optiga/comms/ifx_i2c\ifx_i2c_data_link_layer.c **** 
 237:C:/Users/Yushev/git/wpcqi-optiga-trust-charge/optiga/optiga/comms/ifx_i2c\ifx_i2c_data_link_layer.c **** optiga_lib_status_t ifx_i2c_dl_receive_frame(ifx_i2c_context_t * p_ctx)
 238:C:/Users/Yushev/git/wpcqi-optiga-trust-charge/optiga/optiga/comms/ifx_i2c\ifx_i2c_data_link_layer.c **** {
 204              	 .loc 1 238 0
 205              	 .cfi_startproc
 206              	 
 207              	 
 208 0000 80B5     	 push {r7,lr}
 209              	.LCFI10:
 210              	 .cfi_def_cfa_offset 8
 211              	 .cfi_offset 7,-8
 212              	 .cfi_offset 14,-4
 213 0002 82B0     	 sub sp,sp,#8
 214              	.LCFI11:
 215              	 .cfi_def_cfa_offset 16
 216 0004 00AF     	 add r7,sp,#0
 217              	.LCFI12:
 218              	 .cfi_def_cfa_register 7
 219 0006 7860     	 str r0,[r7,#4]
 239:C:/Users/Yushev/git/wpcqi-optiga-trust-charge/optiga/optiga/comms/ifx_i2c\ifx_i2c_data_link_layer.c ****     LOG_DL("[IFX-DL]: Start RX Frame\n");
 240:C:/Users/Yushev/git/wpcqi-optiga-trust-charge/optiga/optiga/comms/ifx_i2c\ifx_i2c_data_link_layer.c **** 
 241:C:/Users/Yushev/git/wpcqi-optiga-trust-charge/optiga/optiga/comms/ifx_i2c\ifx_i2c_data_link_layer.c ****     if (DL_STATE_IDLE != p_ctx->dl.state)
 220              	 .loc 1 241 0
 221 0008 7B68     	 ldr r3,[r7,#4]
 222 000a 93F85830 	 ldrb r3,[r3,#88]
 223 000e 012B     	 cmp r3,#1
 224 0010 02D0     	 beq .L11
 242:C:/Users/Yushev/git/wpcqi-optiga-trust-charge/optiga/optiga/comms/ifx_i2c\ifx_i2c_data_link_layer.c ****     {
 243:C:/Users/Yushev/git/wpcqi-optiga-trust-charge/optiga/optiga/comms/ifx_i2c\ifx_i2c_data_link_layer.c ****         return (IFX_I2C_STACK_ERROR);
 225              	 .loc 1 243 0
 226 0012 4FF48173 	 mov r3,#258
 227 0016 17E0     	 b .L12
 228              	.L11:
 244:C:/Users/Yushev/git/wpcqi-optiga-trust-charge/optiga/optiga/comms/ifx_i2c\ifx_i2c_data_link_layer.c ****     }
 245:C:/Users/Yushev/git/wpcqi-optiga-trust-charge/optiga/optiga/comms/ifx_i2c\ifx_i2c_data_link_layer.c **** 
 246:C:/Users/Yushev/git/wpcqi-optiga-trust-charge/optiga/optiga/comms/ifx_i2c\ifx_i2c_data_link_layer.c ****     // Set internal state
 247:C:/Users/Yushev/git/wpcqi-optiga-trust-charge/optiga/optiga/comms/ifx_i2c\ifx_i2c_data_link_layer.c ****     p_ctx->dl.state = DL_STATE_RX;
 229              	 .loc 1 247 0
 230 0018 7B68     	 ldr r3,[r7,#4]
 231 001a 0322     	 movs r2,#3
 232 001c 83F85820 	 strb r2,[r3,#88]
 248:C:/Users/Yushev/git/wpcqi-optiga-trust-charge/optiga/optiga/comms/ifx_i2c\ifx_i2c_data_link_layer.c ****     p_ctx->dl.retransmit_counter = 0;
 233              	 .loc 1 248 0
 234 0020 7B68     	 ldr r3,[r7,#4]
 235 0022 0022     	 movs r2,#0
 236 0024 83F85C20 	 strb r2,[r3,#92]
 249:C:/Users/Yushev/git/wpcqi-optiga-trust-charge/optiga/optiga/comms/ifx_i2c\ifx_i2c_data_link_layer.c ****     p_ctx->dl.action_rx_only = 1;
 237              	 .loc 1 249 0
 238 0028 7B68     	 ldr r3,[r7,#4]
 239 002a 0122     	 movs r2,#1
 240 002c 83F85B20 	 strb r2,[r3,#91]
 250:C:/Users/Yushev/git/wpcqi-optiga-trust-charge/optiga/optiga/comms/ifx_i2c\ifx_i2c_data_link_layer.c ****     p_ctx->dl.frame_start_time = pal_os_timer_get_time_in_milliseconds();
 241              	 .loc 1 250 0
 242 0030 FFF7FEFF 	 bl pal_os_timer_get_time_in_milliseconds
 243 0034 0246     	 mov r2,r0
 244 0036 7B68     	 ldr r3,[r7,#4]
 245 0038 1A67     	 str r2,[r3,#112]
 251:C:/Users/Yushev/git/wpcqi-optiga-trust-charge/optiga/optiga/comms/ifx_i2c\ifx_i2c_data_link_layer.c ****     p_ctx->dl.data_poll_timeout = TL_MAX_EXIT_TIMEOUT * DL_SEC_TO_MSECS;
 246              	 .loc 1 251 0
 247 003a 7B68     	 ldr r3,[r7,#4]
 248 003c 044A     	 ldr r2,.L13
 249 003e 1A66     	 str r2,[r3,#96]
 252:C:/Users/Yushev/git/wpcqi-optiga-trust-charge/optiga/optiga/comms/ifx_i2c\ifx_i2c_data_link_layer.c **** 
 253:C:/Users/Yushev/git/wpcqi-optiga-trust-charge/optiga/optiga/comms/ifx_i2c\ifx_i2c_data_link_layer.c ****     return (ifx_i2c_pl_receive_frame(p_ctx));
 250              	 .loc 1 253 0
 251 0040 7868     	 ldr r0,[r7,#4]
 252 0042 FFF7FEFF 	 bl ifx_i2c_pl_receive_frame
 253 0046 0346     	 mov r3,r0
 254              	.L12:
 254:C:/Users/Yushev/git/wpcqi-optiga-trust-charge/optiga/optiga/comms/ifx_i2c\ifx_i2c_data_link_layer.c **** }
 255              	 .loc 1 254 0
 256 0048 1846     	 mov r0,r3
 257 004a 0837     	 adds r7,r7,#8
 258              	.LCFI13:
 259              	 .cfi_def_cfa_offset 8
 260 004c BD46     	 mov sp,r7
 261              	.LCFI14:
 262              	 .cfi_def_cfa_register 13
 263              	 
 264 004e 80BD     	 pop {r7,pc}
 265              	.L14:
 266              	 .align 2
 267              	.L13:
 268 0050 20BF0200 	 .word 180000
 269              	 .cfi_endproc
 270              	.LFE2:
 272              	 .section .text.ifx_i2c_dl_calc_crc_byte,"ax",%progbits
 273              	 .align 2
 274              	 .thumb
 275              	 .thumb_func
 277              	ifx_i2c_dl_calc_crc_byte:
 278              	.LFB3:
 255:C:/Users/Yushev/git/wpcqi-optiga-trust-charge/optiga/optiga/comms/ifx_i2c\ifx_i2c_data_link_layer.c **** 
 256:C:/Users/Yushev/git/wpcqi-optiga-trust-charge/optiga/optiga/comms/ifx_i2c\ifx_i2c_data_link_layer.c **** _STATIC_H uint16_t ifx_i2c_dl_calc_crc_byte(uint16_t seed, uint8_t byte)
 257:C:/Users/Yushev/git/wpcqi-optiga-trust-charge/optiga/optiga/comms/ifx_i2c\ifx_i2c_data_link_layer.c **** {
 279              	 .loc 1 257 0
 280              	 .cfi_startproc
 281              	 
 282              	 
 283              	 
 284 0000 80B4     	 push {r7}
 285              	.LCFI15:
 286              	 .cfi_def_cfa_offset 4
 287              	 .cfi_offset 7,-4
 288 0002 85B0     	 sub sp,sp,#20
 289              	.LCFI16:
 290              	 .cfi_def_cfa_offset 24
 291 0004 00AF     	 add r7,sp,#0
 292              	.LCFI17:
 293              	 .cfi_def_cfa_register 7
 294 0006 0346     	 mov r3,r0
 295 0008 0A46     	 mov r2,r1
 296 000a FB80     	 strh r3,[r7,#6]
 297 000c 1346     	 mov r3,r2
 298 000e 7B71     	 strb r3,[r7,#5]
 258:C:/Users/Yushev/git/wpcqi-optiga-trust-charge/optiga/optiga/comms/ifx_i2c\ifx_i2c_data_link_layer.c ****     uint16_t h1;
 259:C:/Users/Yushev/git/wpcqi-optiga-trust-charge/optiga/optiga/comms/ifx_i2c\ifx_i2c_data_link_layer.c ****     uint16_t h2;
 260:C:/Users/Yushev/git/wpcqi-optiga-trust-charge/optiga/optiga/comms/ifx_i2c\ifx_i2c_data_link_layer.c ****     uint16_t h3;
 261:C:/Users/Yushev/git/wpcqi-optiga-trust-charge/optiga/optiga/comms/ifx_i2c\ifx_i2c_data_link_layer.c ****     uint16_t h4;
 262:C:/Users/Yushev/git/wpcqi-optiga-trust-charge/optiga/optiga/comms/ifx_i2c\ifx_i2c_data_link_layer.c **** 
 263:C:/Users/Yushev/git/wpcqi-optiga-trust-charge/optiga/optiga/comms/ifx_i2c\ifx_i2c_data_link_layer.c ****     h1 = (seed ^ byte) & 0xFF;
 299              	 .loc 1 263 0
 300 0010 7B79     	 ldrb r3,[r7,#5]
 301 0012 9AB2     	 uxth r2,r3
 302 0014 FB88     	 ldrh r3,[r7,#6]
 303 0016 5340     	 eors r3,r3,r2
 304 0018 9BB2     	 uxth r3,r3
 305 001a DBB2     	 uxtb r3,r3
 306 001c FB81     	 strh r3,[r7,#14]
 264:C:/Users/Yushev/git/wpcqi-optiga-trust-charge/optiga/optiga/comms/ifx_i2c\ifx_i2c_data_link_layer.c ****     h2 = h1 & 0x0F;
 307              	 .loc 1 264 0
 308 001e FB89     	 ldrh r3,[r7,#14]
 309 0020 03F00F03 	 and r3,r3,#15
 310 0024 BB81     	 strh r3,[r7,#12]
 265:C:/Users/Yushev/git/wpcqi-optiga-trust-charge/optiga/optiga/comms/ifx_i2c\ifx_i2c_data_link_layer.c ****     h3 = ((uint16_t)(h2 << 4)) ^ h1;
 311              	 .loc 1 265 0
 312 0026 BB89     	 ldrh r3,[r7,#12]
 313 0028 1B01     	 lsls r3,r3,#4
 314 002a 9AB2     	 uxth r2,r3
 315 002c FB89     	 ldrh r3,[r7,#14]
 316 002e 5340     	 eors r3,r3,r2
 317 0030 7B81     	 strh r3,[r7,#10]
 266:C:/Users/Yushev/git/wpcqi-optiga-trust-charge/optiga/optiga/comms/ifx_i2c\ifx_i2c_data_link_layer.c ****     h4 = h3 >> 4;
 318              	 .loc 1 266 0
 319 0032 7B89     	 ldrh r3,[r7,#10]
 320 0034 1B09     	 lsrs r3,r3,#4
 321 0036 3B81     	 strh r3,[r7,#8]
 267:C:/Users/Yushev/git/wpcqi-optiga-trust-charge/optiga/optiga/comms/ifx_i2c\ifx_i2c_data_link_layer.c **** 
 268:C:/Users/Yushev/git/wpcqi-optiga-trust-charge/optiga/optiga/comms/ifx_i2c\ifx_i2c_data_link_layer.c ****     return ((uint16_t)((((uint16_t)((((uint16_t)(h3 << 1)) ^ h4) << 4)) ^ h2) << 3)) ^ h4 ^ (seed >
 322              	 .loc 1 268 0
 323 0038 7B89     	 ldrh r3,[r7,#10]
 324 003a 5B00     	 lsls r3,r3,#1
 325 003c 9AB2     	 uxth r2,r3
 326 003e 3B89     	 ldrh r3,[r7,#8]
 327 0040 5340     	 eors r3,r3,r2
 328 0042 9BB2     	 uxth r3,r3
 329 0044 1B01     	 lsls r3,r3,#4
 330 0046 9AB2     	 uxth r2,r3
 331 0048 BB89     	 ldrh r3,[r7,#12]
 332 004a 5340     	 eors r3,r3,r2
 333 004c 9BB2     	 uxth r3,r3
 334 004e DB00     	 lsls r3,r3,#3
 335 0050 9AB2     	 uxth r2,r3
 336 0052 3B89     	 ldrh r3,[r7,#8]
 337 0054 5340     	 eors r3,r3,r2
 338 0056 9AB2     	 uxth r2,r3
 339 0058 FB88     	 ldrh r3,[r7,#6]
 340 005a 1B0A     	 lsrs r3,r3,#8
 341 005c 9BB2     	 uxth r3,r3
 342 005e 5340     	 eors r3,r3,r2
 343 0060 9BB2     	 uxth r3,r3
 269:C:/Users/Yushev/git/wpcqi-optiga-trust-charge/optiga/optiga/comms/ifx_i2c\ifx_i2c_data_link_layer.c **** }
 344              	 .loc 1 269 0
 345 0062 1846     	 mov r0,r3
 346 0064 1437     	 adds r7,r7,#20
 347              	.LCFI18:
 348              	 .cfi_def_cfa_offset 4
 349 0066 BD46     	 mov sp,r7
 350              	.LCFI19:
 351              	 .cfi_def_cfa_register 13
 352              	 
 353 0068 5DF8047B 	 ldr r7,[sp],#4
 354              	.LCFI20:
 355              	 .cfi_restore 7
 356              	 .cfi_def_cfa_offset 0
 357 006c 7047     	 bx lr
 358              	 .cfi_endproc
 359              	.LFE3:
 361 006e 00BF     	 .section .text.ifx_i2c_dl_calc_crc,"ax",%progbits
 362              	 .align 2
 363              	 .thumb
 364              	 .thumb_func
 366              	ifx_i2c_dl_calc_crc:
 367              	.LFB4:
 270:C:/Users/Yushev/git/wpcqi-optiga-trust-charge/optiga/optiga/comms/ifx_i2c\ifx_i2c_data_link_layer.c **** 
 271:C:/Users/Yushev/git/wpcqi-optiga-trust-charge/optiga/optiga/comms/ifx_i2c\ifx_i2c_data_link_layer.c **** _STATIC_H uint16_t ifx_i2c_dl_calc_crc(const uint8_t * p_data, uint16_t data_len)
 272:C:/Users/Yushev/git/wpcqi-optiga-trust-charge/optiga/optiga/comms/ifx_i2c\ifx_i2c_data_link_layer.c **** {
 368              	 .loc 1 272 0
 369              	 .cfi_startproc
 370              	 
 371              	 
 372 0000 80B5     	 push {r7,lr}
 373              	.LCFI21:
 374              	 .cfi_def_cfa_offset 8
 375              	 .cfi_offset 7,-8
 376              	 .cfi_offset 14,-4
 377 0002 84B0     	 sub sp,sp,#16
 378              	.LCFI22:
 379              	 .cfi_def_cfa_offset 24
 380 0004 00AF     	 add r7,sp,#0
 381              	.LCFI23:
 382              	 .cfi_def_cfa_register 7
 383 0006 7860     	 str r0,[r7,#4]
 384 0008 0B46     	 mov r3,r1
 385 000a 7B80     	 strh r3,[r7,#2]
 273:C:/Users/Yushev/git/wpcqi-optiga-trust-charge/optiga/optiga/comms/ifx_i2c\ifx_i2c_data_link_layer.c ****     uint16_t i;
 274:C:/Users/Yushev/git/wpcqi-optiga-trust-charge/optiga/optiga/comms/ifx_i2c\ifx_i2c_data_link_layer.c ****     uint16_t crc = 0;
 386              	 .loc 1 274 0
 387 000c 0023     	 movs r3,#0
 388 000e BB81     	 strh r3,[r7,#12]
 275:C:/Users/Yushev/git/wpcqi-optiga-trust-charge/optiga/optiga/comms/ifx_i2c\ifx_i2c_data_link_layer.c **** 
 276:C:/Users/Yushev/git/wpcqi-optiga-trust-charge/optiga/optiga/comms/ifx_i2c\ifx_i2c_data_link_layer.c ****     for (i = 0; i < data_len; i++)
 389              	 .loc 1 276 0
 390 0010 0023     	 movs r3,#0
 391 0012 FB81     	 strh r3,[r7,#14]
 392 0014 0DE0     	 b .L18
 393              	.L19:
 277:C:/Users/Yushev/git/wpcqi-optiga-trust-charge/optiga/optiga/comms/ifx_i2c\ifx_i2c_data_link_layer.c ****     {
 278:C:/Users/Yushev/git/wpcqi-optiga-trust-charge/optiga/optiga/comms/ifx_i2c\ifx_i2c_data_link_layer.c ****         crc = ifx_i2c_dl_calc_crc_byte(crc, p_data[i]);
 394              	 .loc 1 278 0 discriminator 3
 395 0016 FB89     	 ldrh r3,[r7,#14]
 396 0018 7A68     	 ldr r2,[r7,#4]
 397 001a 1344     	 add r3,r3,r2
 398 001c 1B78     	 ldrb r3,[r3]
 399 001e BA89     	 ldrh r2,[r7,#12]
 400 0020 1046     	 mov r0,r2
 401 0022 1946     	 mov r1,r3
 402 0024 FFF7FEFF 	 bl ifx_i2c_dl_calc_crc_byte
 403 0028 0346     	 mov r3,r0
 404 002a BB81     	 strh r3,[r7,#12]
 276:C:/Users/Yushev/git/wpcqi-optiga-trust-charge/optiga/optiga/comms/ifx_i2c\ifx_i2c_data_link_layer.c ****     {
 405              	 .loc 1 276 0 discriminator 3
 406 002c FB89     	 ldrh r3,[r7,#14]
 407 002e 0133     	 adds r3,r3,#1
 408 0030 FB81     	 strh r3,[r7,#14]
 409              	.L18:
 276:C:/Users/Yushev/git/wpcqi-optiga-trust-charge/optiga/optiga/comms/ifx_i2c\ifx_i2c_data_link_layer.c ****     {
 410              	 .loc 1 276 0 is_stmt 0 discriminator 1
 411 0032 FA89     	 ldrh r2,[r7,#14]
 412 0034 7B88     	 ldrh r3,[r7,#2]
 413 0036 9A42     	 cmp r2,r3
 414 0038 EDD3     	 bcc .L19
 279:C:/Users/Yushev/git/wpcqi-optiga-trust-charge/optiga/optiga/comms/ifx_i2c\ifx_i2c_data_link_layer.c ****     }
 280:C:/Users/Yushev/git/wpcqi-optiga-trust-charge/optiga/optiga/comms/ifx_i2c\ifx_i2c_data_link_layer.c **** 
 281:C:/Users/Yushev/git/wpcqi-optiga-trust-charge/optiga/optiga/comms/ifx_i2c\ifx_i2c_data_link_layer.c ****     return (crc);
 415              	 .loc 1 281 0 is_stmt 1
 416 003a BB89     	 ldrh r3,[r7,#12]
 282:C:/Users/Yushev/git/wpcqi-optiga-trust-charge/optiga/optiga/comms/ifx_i2c\ifx_i2c_data_link_layer.c **** }
 417              	 .loc 1 282 0
 418 003c 1846     	 mov r0,r3
 419 003e 1037     	 adds r7,r7,#16
 420              	.LCFI24:
 421              	 .cfi_def_cfa_offset 8
 422 0040 BD46     	 mov sp,r7
 423              	.LCFI25:
 424              	 .cfi_def_cfa_register 13
 425              	 
 426 0042 80BD     	 pop {r7,pc}
 427              	 .cfi_endproc
 428              	.LFE4:
 430              	 .section .text.ifx_i2c_dl_send_frame_internal,"ax",%progbits
 431              	 .align 2
 432              	 .thumb
 433              	 .thumb_func
 435              	ifx_i2c_dl_send_frame_internal:
 436              	.LFB5:
 283:C:/Users/Yushev/git/wpcqi-optiga-trust-charge/optiga/optiga/comms/ifx_i2c\ifx_i2c_data_link_layer.c **** 
 284:C:/Users/Yushev/git/wpcqi-optiga-trust-charge/optiga/optiga/comms/ifx_i2c\ifx_i2c_data_link_layer.c **** _STATIC_H optiga_lib_status_t ifx_i2c_dl_send_frame_internal(ifx_i2c_context_t * p_ctx,
 285:C:/Users/Yushev/git/wpcqi-optiga-trust-charge/optiga/optiga/comms/ifx_i2c\ifx_i2c_data_link_layer.c ****                                                              uint16_t frame_len,
 286:C:/Users/Yushev/git/wpcqi-optiga-trust-charge/optiga/optiga/comms/ifx_i2c\ifx_i2c_data_link_layer.c ****                                                              uint8_t seqctr_value,
 287:C:/Users/Yushev/git/wpcqi-optiga-trust-charge/optiga/optiga/comms/ifx_i2c\ifx_i2c_data_link_layer.c ****                                                              uint8_t resend)
 288:C:/Users/Yushev/git/wpcqi-optiga-trust-charge/optiga/optiga/comms/ifx_i2c\ifx_i2c_data_link_layer.c **** {
 437              	 .loc 1 288 0
 438              	 .cfi_startproc
 439              	 
 440              	 
 441 0000 80B5     	 push {r7,lr}
 442              	.LCFI26:
 443              	 .cfi_def_cfa_offset 8
 444              	 .cfi_offset 7,-8
 445              	 .cfi_offset 14,-4
 446 0002 86B0     	 sub sp,sp,#24
 447              	.LCFI27:
 448              	 .cfi_def_cfa_offset 32
 449 0004 00AF     	 add r7,sp,#0
 450              	.LCFI28:
 451              	 .cfi_def_cfa_register 7
 452 0006 7860     	 str r0,[r7,#4]
 453 0008 0846     	 mov r0,r1
 454 000a 1146     	 mov r1,r2
 455 000c 1A46     	 mov r2,r3
 456 000e 0346     	 mov r3,r0
 457 0010 7B80     	 strh r3,[r7,#2]
 458 0012 0B46     	 mov r3,r1
 459 0014 7B70     	 strb r3,[r7,#1]
 460 0016 1346     	 mov r3,r2
 461 0018 3B70     	 strb r3,[r7]
 289:C:/Users/Yushev/git/wpcqi-optiga-trust-charge/optiga/optiga/comms/ifx_i2c\ifx_i2c_data_link_layer.c ****     uint16_t crc;
 290:C:/Users/Yushev/git/wpcqi-optiga-trust-charge/optiga/optiga/comms/ifx_i2c\ifx_i2c_data_link_layer.c ****     uint16_t ack_nr = p_ctx->dl.rx_seq_nr;
 462              	 .loc 1 290 0
 463 001a 7B68     	 ldr r3,[r7,#4]
 464 001c 93F85A30 	 ldrb r3,[r3,#90]
 465 0020 FB82     	 strh r3,[r7,#22]
 291:C:/Users/Yushev/git/wpcqi-optiga-trust-charge/optiga/optiga/comms/ifx_i2c\ifx_i2c_data_link_layer.c ****     uint8_t * p_buffer;
 292:C:/Users/Yushev/git/wpcqi-optiga-trust-charge/optiga/optiga/comms/ifx_i2c\ifx_i2c_data_link_layer.c **** 
 293:C:/Users/Yushev/git/wpcqi-optiga-trust-charge/optiga/optiga/comms/ifx_i2c\ifx_i2c_data_link_layer.c ****     LOG_DL("[IFX-DL]: TX Frame len %d\n", frame_len);
 294:C:/Users/Yushev/git/wpcqi-optiga-trust-charge/optiga/optiga/comms/ifx_i2c\ifx_i2c_data_link_layer.c ****     // In case of sending a NACK the next frame is referenced
 295:C:/Users/Yushev/git/wpcqi-optiga-trust-charge/optiga/optiga/comms/ifx_i2c\ifx_i2c_data_link_layer.c ****     if (DL_FCTR_SEQCTR_VALUE_NACK == seqctr_value)
 466              	 .loc 1 295 0
 467 0022 7B78     	 ldrb r3,[r7,#1]
 468 0024 012B     	 cmp r3,#1
 469 0026 08D1     	 bne .L22
 296:C:/Users/Yushev/git/wpcqi-optiga-trust-charge/optiga/optiga/comms/ifx_i2c\ifx_i2c_data_link_layer.c ****     {
 297:C:/Users/Yushev/git/wpcqi-optiga-trust-charge/optiga/optiga/comms/ifx_i2c\ifx_i2c_data_link_layer.c ****         ack_nr = (p_ctx->dl.rx_seq_nr + 1) & DL_MAX_FRAME_NUM;
 470              	 .loc 1 297 0
 471 0028 7B68     	 ldr r3,[r7,#4]
 472 002a 93F85A30 	 ldrb r3,[r3,#90]
 473 002e 9BB2     	 uxth r3,r3
 474 0030 0133     	 adds r3,r3,#1
 475 0032 9BB2     	 uxth r3,r3
 476 0034 03F00303 	 and r3,r3,#3
 477 0038 FB82     	 strh r3,[r7,#22]
 478              	.L22:
 298:C:/Users/Yushev/git/wpcqi-optiga-trust-charge/optiga/optiga/comms/ifx_i2c\ifx_i2c_data_link_layer.c ****     }
 299:C:/Users/Yushev/git/wpcqi-optiga-trust-charge/optiga/optiga/comms/ifx_i2c\ifx_i2c_data_link_layer.c ****     p_buffer = p_ctx->dl.p_tx_frame_buffer;
 479              	 .loc 1 299 0
 480 003a 7B68     	 ldr r3,[r7,#4]
 481 003c 9B6E     	 ldr r3,[r3,#104]
 482 003e 3B61     	 str r3,[r7,#16]
 300:C:/Users/Yushev/git/wpcqi-optiga-trust-charge/optiga/optiga/comms/ifx_i2c\ifx_i2c_data_link_layer.c ****     if (DL_FCTR_SEQCTR_VALUE_RESYNC == seqctr_value)
 483              	 .loc 1 300 0
 484 0040 7B78     	 ldrb r3,[r7,#1]
 485 0042 022B     	 cmp r3,#2
 486 0044 04D1     	 bne .L23
 301:C:/Users/Yushev/git/wpcqi-optiga-trust-charge/optiga/optiga/comms/ifx_i2c\ifx_i2c_data_link_layer.c ****     {
 302:C:/Users/Yushev/git/wpcqi-optiga-trust-charge/optiga/optiga/comms/ifx_i2c\ifx_i2c_data_link_layer.c ****         ack_nr = 0;
 487              	 .loc 1 302 0
 488 0046 0023     	 movs r3,#0
 489 0048 FB82     	 strh r3,[r7,#22]
 303:C:/Users/Yushev/git/wpcqi-optiga-trust-charge/optiga/optiga/comms/ifx_i2c\ifx_i2c_data_link_layer.c ****         // Use rx buffer to send resync
 304:C:/Users/Yushev/git/wpcqi-optiga-trust-charge/optiga/optiga/comms/ifx_i2c\ifx_i2c_data_link_layer.c ****         p_buffer = p_ctx->dl.p_rx_frame_buffer;
 490              	 .loc 1 304 0
 491 004a 7B68     	 ldr r3,[r7,#4]
 492 004c DB6E     	 ldr r3,[r3,#108]
 493 004e 3B61     	 str r3,[r7,#16]
 494              	.L23:
 305:C:/Users/Yushev/git/wpcqi-optiga-trust-charge/optiga/optiga/comms/ifx_i2c\ifx_i2c_data_link_layer.c ****     }
 306:C:/Users/Yushev/git/wpcqi-optiga-trust-charge/optiga/optiga/comms/ifx_i2c\ifx_i2c_data_link_layer.c ****     // Use tx buffer when discarding a frame and send nakc for later received frame
 307:C:/Users/Yushev/git/wpcqi-optiga-trust-charge/optiga/optiga/comms/ifx_i2c\ifx_i2c_data_link_layer.c ****     if ((DL_FCTR_SEQCTR_VALUE_ACK == seqctr_value) && (DL_STATE_DISCARD == p_ctx->dl.state))
 495              	 .loc 1 307 0
 496 0050 7B78     	 ldrb r3,[r7,#1]
 497 0052 002B     	 cmp r3,#0
 498 0054 07D1     	 bne .L24
 499              	 .loc 1 307 0 is_stmt 0 discriminator 1
 500 0056 7B68     	 ldr r3,[r7,#4]
 501 0058 93F85830 	 ldrb r3,[r3,#88]
 502 005c 092B     	 cmp r3,#9
 503 005e 02D1     	 bne .L24
 308:C:/Users/Yushev/git/wpcqi-optiga-trust-charge/optiga/optiga/comms/ifx_i2c\ifx_i2c_data_link_layer.c ****     {
 309:C:/Users/Yushev/git/wpcqi-optiga-trust-charge/optiga/optiga/comms/ifx_i2c\ifx_i2c_data_link_layer.c ****         p_buffer = p_ctx->dl.p_rx_frame_buffer;
 504              	 .loc 1 309 0 is_stmt 1
 505 0060 7B68     	 ldr r3,[r7,#4]
 506 0062 DB6E     	 ldr r3,[r3,#108]
 507 0064 3B61     	 str r3,[r7,#16]
 508              	.L24:
 310:C:/Users/Yushev/git/wpcqi-optiga-trust-charge/optiga/optiga/comms/ifx_i2c\ifx_i2c_data_link_layer.c ****     }
 311:C:/Users/Yushev/git/wpcqi-optiga-trust-charge/optiga/optiga/comms/ifx_i2c\ifx_i2c_data_link_layer.c **** 
 312:C:/Users/Yushev/git/wpcqi-optiga-trust-charge/optiga/optiga/comms/ifx_i2c\ifx_i2c_data_link_layer.c ****     // Set sequence control value (ACK or NACK) and referenced frame number
 313:C:/Users/Yushev/git/wpcqi-optiga-trust-charge/optiga/optiga/comms/ifx_i2c\ifx_i2c_data_link_layer.c ****     //lint --e{835} suppress "DL_FCTR_ACKNR_OFFSET macro is defined as 0x00 and is kept for future 
 314:C:/Users/Yushev/git/wpcqi-optiga-trust-charge/optiga/optiga/comms/ifx_i2c\ifx_i2c_data_link_layer.c ****     p_buffer[0] = (uint8_t)(ack_nr << DL_FCTR_ACKNR_OFFSET);
 509              	 .loc 1 314 0
 510 0066 FB8A     	 ldrh r3,[r7,#22]
 511 0068 DAB2     	 uxtb r2,r3
 512 006a 3B69     	 ldr r3,[r7,#16]
 513 006c 1A70     	 strb r2,[r3]
 315:C:/Users/Yushev/git/wpcqi-optiga-trust-charge/optiga/optiga/comms/ifx_i2c\ifx_i2c_data_link_layer.c ****     p_buffer[0] |= (uint8_t)(seqctr_value << DL_FCTR_SEQCTR_OFFSET);
 514              	 .loc 1 315 0
 515 006e 3B69     	 ldr r3,[r7,#16]
 516 0070 1A78     	 ldrb r2,[r3]
 517 0072 7B78     	 ldrb r3,[r7,#1]
 518 0074 5B01     	 lsls r3,r3,#5
 519 0076 DBB2     	 uxtb r3,r3
 520 0078 1343     	 orrs r3,r3,r2
 521 007a DAB2     	 uxtb r2,r3
 522 007c 3B69     	 ldr r3,[r7,#16]
 523 007e 1A70     	 strb r2,[r3]
 316:C:/Users/Yushev/git/wpcqi-optiga-trust-charge/optiga/optiga/comms/ifx_i2c\ifx_i2c_data_link_layer.c **** 
 317:C:/Users/Yushev/git/wpcqi-optiga-trust-charge/optiga/optiga/comms/ifx_i2c\ifx_i2c_data_link_layer.c ****     if (0 != frame_len) // Data frame
 524              	 .loc 1 317 0
 525 0080 7B88     	 ldrh r3,[r7,#2]
 526 0082 002B     	 cmp r3,#0
 527 0084 22D0     	 beq .L25
 318:C:/Users/Yushev/git/wpcqi-optiga-trust-charge/optiga/optiga/comms/ifx_i2c\ifx_i2c_data_link_layer.c ****     {
 319:C:/Users/Yushev/git/wpcqi-optiga-trust-charge/optiga/optiga/comms/ifx_i2c\ifx_i2c_data_link_layer.c ****         // Increment and set frame transmit sequence number
 320:C:/Users/Yushev/git/wpcqi-optiga-trust-charge/optiga/optiga/comms/ifx_i2c\ifx_i2c_data_link_layer.c ****         if ((0 == resend) || (0 != p_ctx->dl.resynced))
 528              	 .loc 1 320 0
 529 0086 3B78     	 ldrb r3,[r7]
 530 0088 002B     	 cmp r3,#0
 531 008a 04D0     	 beq .L26
 532              	 .loc 1 320 0 is_stmt 0 discriminator 1
 533 008c 7B68     	 ldr r3,[r7,#4]
 534 008e 93F85E30 	 ldrb r3,[r3,#94]
 535 0092 002B     	 cmp r3,#0
 536 0094 0AD0     	 beq .L27
 537              	.L26:
 321:C:/Users/Yushev/git/wpcqi-optiga-trust-charge/optiga/optiga/comms/ifx_i2c\ifx_i2c_data_link_layer.c ****         {
 322:C:/Users/Yushev/git/wpcqi-optiga-trust-charge/optiga/optiga/comms/ifx_i2c\ifx_i2c_data_link_layer.c ****             p_ctx->dl.tx_seq_nr = (p_ctx->dl.tx_seq_nr + 1) & DL_MAX_FRAME_NUM;
 538              	 .loc 1 322 0 is_stmt 1
 539 0096 7B68     	 ldr r3,[r7,#4]
 540 0098 93F85930 	 ldrb r3,[r3,#89]
 541 009c 0133     	 adds r3,r3,#1
 542 009e DBB2     	 uxtb r3,r3
 543 00a0 03F00303 	 and r3,r3,#3
 544 00a4 DAB2     	 uxtb r2,r3
 545 00a6 7B68     	 ldr r3,[r7,#4]
 546 00a8 83F85920 	 strb r2,[r3,#89]
 547              	.L27:
 323:C:/Users/Yushev/git/wpcqi-optiga-trust-charge/optiga/optiga/comms/ifx_i2c\ifx_i2c_data_link_layer.c ****         }
 324:C:/Users/Yushev/git/wpcqi-optiga-trust-charge/optiga/optiga/comms/ifx_i2c\ifx_i2c_data_link_layer.c ****         p_buffer[0] |= (uint8_t)(p_ctx->dl.tx_seq_nr << DL_FCTR_FRNR_OFFSET);
 548              	 .loc 1 324 0
 549 00ac 3B69     	 ldr r3,[r7,#16]
 550 00ae 1A78     	 ldrb r2,[r3]
 551 00b0 7B68     	 ldr r3,[r7,#4]
 552 00b2 93F85930 	 ldrb r3,[r3,#89]
 553 00b6 9B00     	 lsls r3,r3,#2
 554 00b8 DBB2     	 uxtb r3,r3
 555 00ba 1343     	 orrs r3,r3,r2
 556 00bc DAB2     	 uxtb r2,r3
 557 00be 3B69     	 ldr r3,[r7,#16]
 558 00c0 1A70     	 strb r2,[r3]
 325:C:/Users/Yushev/git/wpcqi-optiga-trust-charge/optiga/optiga/comms/ifx_i2c\ifx_i2c_data_link_layer.c ****         // Reset resync received
 326:C:/Users/Yushev/git/wpcqi-optiga-trust-charge/optiga/optiga/comms/ifx_i2c\ifx_i2c_data_link_layer.c ****         p_ctx->dl.resynced = 0;
 559              	 .loc 1 326 0
 560 00c2 7B68     	 ldr r3,[r7,#4]
 561 00c4 0022     	 movs r2,#0
 562 00c6 83F85E20 	 strb r2,[r3,#94]
 563 00ca 06E0     	 b .L28
 564              	.L25:
 327:C:/Users/Yushev/git/wpcqi-optiga-trust-charge/optiga/optiga/comms/ifx_i2c\ifx_i2c_data_link_layer.c ****         OPTIGA_COMMS_LOG_MESSAGE(">>>>");
 328:C:/Users/Yushev/git/wpcqi-optiga-trust-charge/optiga/optiga/comms/ifx_i2c\ifx_i2c_data_link_layer.c ****     }
 329:C:/Users/Yushev/git/wpcqi-optiga-trust-charge/optiga/optiga/comms/ifx_i2c\ifx_i2c_data_link_layer.c ****     else // Control frame
 330:C:/Users/Yushev/git/wpcqi-optiga-trust-charge/optiga/optiga/comms/ifx_i2c\ifx_i2c_data_link_layer.c ****     {
 331:C:/Users/Yushev/git/wpcqi-optiga-trust-charge/optiga/optiga/comms/ifx_i2c\ifx_i2c_data_link_layer.c ****         p_buffer[0] |= DL_FCTR_FTYPE_MASK;
 565              	 .loc 1 331 0
 566 00cc 3B69     	 ldr r3,[r7,#16]
 567 00ce 1B78     	 ldrb r3,[r3]
 568 00d0 63F07F03 	 orn r3,r3,#127
 569 00d4 DAB2     	 uxtb r2,r3
 570 00d6 3B69     	 ldr r3,[r7,#16]
 571 00d8 1A70     	 strb r2,[r3]
 572              	.L28:
 332:C:/Users/Yushev/git/wpcqi-optiga-trust-charge/optiga/optiga/comms/ifx_i2c\ifx_i2c_data_link_layer.c ****     }
 333:C:/Users/Yushev/git/wpcqi-optiga-trust-charge/optiga/optiga/comms/ifx_i2c\ifx_i2c_data_link_layer.c **** 
 334:C:/Users/Yushev/git/wpcqi-optiga-trust-charge/optiga/optiga/comms/ifx_i2c\ifx_i2c_data_link_layer.c ****     // Set frame length
 335:C:/Users/Yushev/git/wpcqi-optiga-trust-charge/optiga/optiga/comms/ifx_i2c\ifx_i2c_data_link_layer.c ****     p_buffer[1] = (uint8_t)(frame_len >> 8);
 573              	 .loc 1 335 0
 574 00da 3B69     	 ldr r3,[r7,#16]
 575 00dc 0133     	 adds r3,r3,#1
 576 00de 7A88     	 ldrh r2,[r7,#2]
 577 00e0 120A     	 lsrs r2,r2,#8
 578 00e2 92B2     	 uxth r2,r2
 579 00e4 D2B2     	 uxtb r2,r2
 580 00e6 1A70     	 strb r2,[r3]
 336:C:/Users/Yushev/git/wpcqi-optiga-trust-charge/optiga/optiga/comms/ifx_i2c\ifx_i2c_data_link_layer.c ****     p_buffer[2] = (uint8_t)frame_len;
 581              	 .loc 1 336 0
 582 00e8 3B69     	 ldr r3,[r7,#16]
 583 00ea 0233     	 adds r3,r3,#2
 584 00ec 7A88     	 ldrh r2,[r7,#2]
 585 00ee D2B2     	 uxtb r2,r2
 586 00f0 1A70     	 strb r2,[r3]
 337:C:/Users/Yushev/git/wpcqi-optiga-trust-charge/optiga/optiga/comms/ifx_i2c\ifx_i2c_data_link_layer.c **** 
 338:C:/Users/Yushev/git/wpcqi-optiga-trust-charge/optiga/optiga/comms/ifx_i2c\ifx_i2c_data_link_layer.c ****     // Calculate frame CRC
 339:C:/Users/Yushev/git/wpcqi-optiga-trust-charge/optiga/optiga/comms/ifx_i2c\ifx_i2c_data_link_layer.c ****     crc = ifx_i2c_dl_calc_crc(p_buffer, 3 + frame_len);
 587              	 .loc 1 339 0
 588 00f2 7B88     	 ldrh r3,[r7,#2]
 589 00f4 0333     	 adds r3,r3,#3
 590 00f6 9BB2     	 uxth r3,r3
 591 00f8 3869     	 ldr r0,[r7,#16]
 592 00fa 1946     	 mov r1,r3
 593 00fc FFF7FEFF 	 bl ifx_i2c_dl_calc_crc
 594 0100 0346     	 mov r3,r0
 595 0102 FB81     	 strh r3,[r7,#14]
 340:C:/Users/Yushev/git/wpcqi-optiga-trust-charge/optiga/optiga/comms/ifx_i2c\ifx_i2c_data_link_layer.c ****     p_buffer[3 + frame_len] = (uint8_t) (crc >> 8);
 596              	 .loc 1 340 0
 597 0104 7B88     	 ldrh r3,[r7,#2]
 598 0106 0333     	 adds r3,r3,#3
 599 0108 1A46     	 mov r2,r3
 600 010a 3B69     	 ldr r3,[r7,#16]
 601 010c 1344     	 add r3,r3,r2
 602 010e FA89     	 ldrh r2,[r7,#14]
 603 0110 120A     	 lsrs r2,r2,#8
 604 0112 92B2     	 uxth r2,r2
 605 0114 D2B2     	 uxtb r2,r2
 606 0116 1A70     	 strb r2,[r3]
 341:C:/Users/Yushev/git/wpcqi-optiga-trust-charge/optiga/optiga/comms/ifx_i2c\ifx_i2c_data_link_layer.c ****     p_buffer[4 + frame_len] = (uint8_t)crc;
 607              	 .loc 1 341 0
 608 0118 7B88     	 ldrh r3,[r7,#2]
 609 011a 0433     	 adds r3,r3,#4
 610 011c 1A46     	 mov r2,r3
 611 011e 3B69     	 ldr r3,[r7,#16]
 612 0120 1344     	 add r3,r3,r2
 613 0122 FA89     	 ldrh r2,[r7,#14]
 614 0124 D2B2     	 uxtb r2,r2
 615 0126 1A70     	 strb r2,[r3]
 342:C:/Users/Yushev/git/wpcqi-optiga-trust-charge/optiga/optiga/comms/ifx_i2c\ifx_i2c_data_link_layer.c **** 
 343:C:/Users/Yushev/git/wpcqi-optiga-trust-charge/optiga/optiga/comms/ifx_i2c\ifx_i2c_data_link_layer.c ****     // Transmit frame
 344:C:/Users/Yushev/git/wpcqi-optiga-trust-charge/optiga/optiga/comms/ifx_i2c\ifx_i2c_data_link_layer.c ****     OPTIGA_IFXI2C_LOG_TRANSMIT_HEX_DATA(p_buffer,DL_HEADER_SIZE + frame_len,p_ctx)
 345:C:/Users/Yushev/git/wpcqi-optiga-trust-charge/optiga/optiga/comms/ifx_i2c\ifx_i2c_data_link_layer.c ****     return (ifx_i2c_pl_send_frame(p_ctx, p_buffer, DL_HEADER_SIZE + frame_len));
 616              	 .loc 1 345 0
 617 0128 7B88     	 ldrh r3,[r7,#2]
 618 012a 0533     	 adds r3,r3,#5
 619 012c 9BB2     	 uxth r3,r3
 620 012e 7868     	 ldr r0,[r7,#4]
 621 0130 3969     	 ldr r1,[r7,#16]
 622 0132 1A46     	 mov r2,r3
 623 0134 FFF7FEFF 	 bl ifx_i2c_pl_send_frame
 624 0138 0346     	 mov r3,r0
 346:C:/Users/Yushev/git/wpcqi-optiga-trust-charge/optiga/optiga/comms/ifx_i2c\ifx_i2c_data_link_layer.c **** }
 625              	 .loc 1 346 0
 626 013a 1846     	 mov r0,r3
 627 013c 1837     	 adds r7,r7,#24
 628              	.LCFI29:
 629              	 .cfi_def_cfa_offset 8
 630 013e BD46     	 mov sp,r7
 631              	.LCFI30:
 632              	 .cfi_def_cfa_register 13
 633              	 
 634 0140 80BD     	 pop {r7,pc}
 635              	 .cfi_endproc
 636              	.LFE5:
 638 0142 00BF     	 .section .text.ifx_i2c_dl_resync,"ax",%progbits
 639              	 .align 2
 640              	 .thumb
 641              	 .thumb_func
 643              	ifx_i2c_dl_resync:
 644              	.LFB6:
 347:C:/Users/Yushev/git/wpcqi-optiga-trust-charge/optiga/optiga/comms/ifx_i2c\ifx_i2c_data_link_layer.c **** 
 348:C:/Users/Yushev/git/wpcqi-optiga-trust-charge/optiga/optiga/comms/ifx_i2c\ifx_i2c_data_link_layer.c **** _STATIC_H optiga_lib_status_t ifx_i2c_dl_resync(ifx_i2c_context_t * p_ctx)
 349:C:/Users/Yushev/git/wpcqi-optiga-trust-charge/optiga/optiga/comms/ifx_i2c\ifx_i2c_data_link_layer.c **** {
 645              	 .loc 1 349 0
 646              	 .cfi_startproc
 647              	 
 648              	 
 649 0000 80B5     	 push {r7,lr}
 650              	.LCFI31:
 651              	 .cfi_def_cfa_offset 8
 652              	 .cfi_offset 7,-8
 653              	 .cfi_offset 14,-4
 654 0002 84B0     	 sub sp,sp,#16
 655              	.LCFI32:
 656              	 .cfi_def_cfa_offset 24
 657 0004 00AF     	 add r7,sp,#0
 658              	.LCFI33:
 659              	 .cfi_def_cfa_register 7
 660 0006 7860     	 str r0,[r7,#4]
 350:C:/Users/Yushev/git/wpcqi-optiga-trust-charge/optiga/optiga/comms/ifx_i2c\ifx_i2c_data_link_layer.c ****     optiga_lib_status_t api_status;
 351:C:/Users/Yushev/git/wpcqi-optiga-trust-charge/optiga/optiga/comms/ifx_i2c\ifx_i2c_data_link_layer.c ****     // Reset tx and rx counters
 352:C:/Users/Yushev/git/wpcqi-optiga-trust-charge/optiga/optiga/comms/ifx_i2c\ifx_i2c_data_link_layer.c ****     p_ctx->dl.tx_seq_nr = DL_MAX_FRAME_NUM;
 661              	 .loc 1 352 0
 662 0008 7B68     	 ldr r3,[r7,#4]
 663 000a 0322     	 movs r2,#3
 664 000c 83F85920 	 strb r2,[r3,#89]
 353:C:/Users/Yushev/git/wpcqi-optiga-trust-charge/optiga/optiga/comms/ifx_i2c\ifx_i2c_data_link_layer.c ****     p_ctx->dl.rx_seq_nr = DL_MAX_FRAME_NUM;
 665              	 .loc 1 353 0
 666 0010 7B68     	 ldr r3,[r7,#4]
 667 0012 0322     	 movs r2,#3
 668 0014 83F85A20 	 strb r2,[r3,#90]
 354:C:/Users/Yushev/git/wpcqi-optiga-trust-charge/optiga/optiga/comms/ifx_i2c\ifx_i2c_data_link_layer.c ****     p_ctx->dl.resynced = 1;
 669              	 .loc 1 354 0
 670 0018 7B68     	 ldr r3,[r7,#4]
 671 001a 0122     	 movs r2,#1
 672 001c 83F85E20 	 strb r2,[r3,#94]
 355:C:/Users/Yushev/git/wpcqi-optiga-trust-charge/optiga/optiga/comms/ifx_i2c\ifx_i2c_data_link_layer.c ****     LOG_DL("[IFX-DL]: Send Re-Sync Frame\n");
 356:C:/Users/Yushev/git/wpcqi-optiga-trust-charge/optiga/optiga/comms/ifx_i2c\ifx_i2c_data_link_layer.c ****     p_ctx->dl.state = DL_STATE_RESEND;
 673              	 .loc 1 356 0
 674 0020 7B68     	 ldr r3,[r7,#4]
 675 0022 0522     	 movs r2,#5
 676 0024 83F85820 	 strb r2,[r3,#88]
 357:C:/Users/Yushev/git/wpcqi-optiga-trust-charge/optiga/optiga/comms/ifx_i2c\ifx_i2c_data_link_layer.c ****     api_status = ifx_i2c_dl_send_frame_internal(p_ctx, 0, DL_FCTR_SEQCTR_VALUE_RESYNC, 0);
 677              	 .loc 1 357 0
 678 0028 7868     	 ldr r0,[r7,#4]
 679 002a 0021     	 movs r1,#0
 680 002c 0222     	 movs r2,#2
 681 002e 0023     	 movs r3,#0
 682 0030 FFF7FEFF 	 bl ifx_i2c_dl_send_frame_internal
 683 0034 0346     	 mov r3,r0
 684 0036 FB81     	 strh r3,[r7,#14]
 358:C:/Users/Yushev/git/wpcqi-optiga-trust-charge/optiga/optiga/comms/ifx_i2c\ifx_i2c_data_link_layer.c ****     return (api_status);
 685              	 .loc 1 358 0
 686 0038 FB89     	 ldrh r3,[r7,#14]
 359:C:/Users/Yushev/git/wpcqi-optiga-trust-charge/optiga/optiga/comms/ifx_i2c\ifx_i2c_data_link_layer.c **** }
 687              	 .loc 1 359 0
 688 003a 1846     	 mov r0,r3
 689 003c 1037     	 adds r7,r7,#16
 690              	.LCFI34:
 691              	 .cfi_def_cfa_offset 8
 692 003e BD46     	 mov sp,r7
 693              	.LCFI35:
 694              	 .cfi_def_cfa_register 13
 695              	 
 696 0040 80BD     	 pop {r7,pc}
 697              	 .cfi_endproc
 698              	.LFE6:
 700 0042 00BF     	 .section .text.ifx_i2c_dl_resend_frame,"ax",%progbits
 701              	 .align 2
 702              	 .thumb
 703              	 .thumb_func
 705              	ifx_i2c_dl_resend_frame:
 706              	.LFB7:
 360:C:/Users/Yushev/git/wpcqi-optiga-trust-charge/optiga/optiga/comms/ifx_i2c\ifx_i2c_data_link_layer.c **** 
 361:C:/Users/Yushev/git/wpcqi-optiga-trust-charge/optiga/optiga/comms/ifx_i2c\ifx_i2c_data_link_layer.c **** _STATIC_H void ifx_i2c_dl_resend_frame(ifx_i2c_context_t * p_ctx, uint8_t seqctr_value)
 362:C:/Users/Yushev/git/wpcqi-optiga-trust-charge/optiga/optiga/comms/ifx_i2c\ifx_i2c_data_link_layer.c **** {
 707              	 .loc 1 362 0
 708              	 .cfi_startproc
 709              	 
 710              	 
 711 0000 80B5     	 push {r7,lr}
 712              	.LCFI36:
 713              	 .cfi_def_cfa_offset 8
 714              	 .cfi_offset 7,-8
 715              	 .cfi_offset 14,-4
 716 0002 86B0     	 sub sp,sp,#24
 717              	.LCFI37:
 718              	 .cfi_def_cfa_offset 32
 719 0004 00AF     	 add r7,sp,#0
 720              	.LCFI38:
 721              	 .cfi_def_cfa_register 7
 722 0006 7860     	 str r0,[r7,#4]
 723 0008 0B46     	 mov r3,r1
 724 000a FB70     	 strb r3,[r7,#3]
 363:C:/Users/Yushev/git/wpcqi-optiga-trust-charge/optiga/optiga/comms/ifx_i2c\ifx_i2c_data_link_layer.c ****     optiga_lib_status_t status;
 364:C:/Users/Yushev/git/wpcqi-optiga-trust-charge/optiga/optiga/comms/ifx_i2c\ifx_i2c_data_link_layer.c ****     // If exit timeout not violated
 365:C:/Users/Yushev/git/wpcqi-optiga-trust-charge/optiga/optiga/comms/ifx_i2c\ifx_i2c_data_link_layer.c ****     uint32_t current_time_stamp = pal_os_timer_get_time_in_milliseconds();
 725              	 .loc 1 365 0
 726 000c FFF7FEFF 	 bl pal_os_timer_get_time_in_milliseconds
 727 0010 F860     	 str r0,[r7,#12]
 366:C:/Users/Yushev/git/wpcqi-optiga-trust-charge/optiga/optiga/comms/ifx_i2c\ifx_i2c_data_link_layer.c ****     uint32_t time_stamp_diff = current_time_stamp - p_ctx->tl.api_start_time;
 728              	 .loc 1 366 0
 729 0012 7B68     	 ldr r3,[r7,#4]
 730 0014 5B6C     	 ldr r3,[r3,#68]
 731 0016 FA68     	 ldr r2,[r7,#12]
 732 0018 D31A     	 subs r3,r2,r3
 733 001a 3B61     	 str r3,[r7,#16]
 367:C:/Users/Yushev/git/wpcqi-optiga-trust-charge/optiga/optiga/comms/ifx_i2c\ifx_i2c_data_link_layer.c **** 
 368:C:/Users/Yushev/git/wpcqi-optiga-trust-charge/optiga/optiga/comms/ifx_i2c\ifx_i2c_data_link_layer.c ****     if (p_ctx->tl.api_start_time > current_time_stamp)
 734              	 .loc 1 368 0
 735 001c 7B68     	 ldr r3,[r7,#4]
 736 001e 5A6C     	 ldr r2,[r3,#68]
 737 0020 FB68     	 ldr r3,[r7,#12]
 738 0022 9A42     	 cmp r2,r3
 739 0024 04D9     	 bls .L33
 369:C:/Users/Yushev/git/wpcqi-optiga-trust-charge/optiga/optiga/comms/ifx_i2c\ifx_i2c_data_link_layer.c ****     {
 370:C:/Users/Yushev/git/wpcqi-optiga-trust-charge/optiga/optiga/comms/ifx_i2c\ifx_i2c_data_link_layer.c ****         time_stamp_diff = (0xFFFFFFFF + (current_time_stamp - p_ctx->tl.api_start_time)) + 0x01;
 740              	 .loc 1 370 0
 741 0026 7B68     	 ldr r3,[r7,#4]
 742 0028 5B6C     	 ldr r3,[r3,#68]
 743 002a FA68     	 ldr r2,[r7,#12]
 744 002c D31A     	 subs r3,r2,r3
 745 002e 3B61     	 str r3,[r7,#16]
 746              	.L33:
 371:C:/Users/Yushev/git/wpcqi-optiga-trust-charge/optiga/optiga/comms/ifx_i2c\ifx_i2c_data_link_layer.c ****     }
 372:C:/Users/Yushev/git/wpcqi-optiga-trust-charge/optiga/optiga/comms/ifx_i2c\ifx_i2c_data_link_layer.c ****     if (time_stamp_diff < (TL_MAX_EXIT_TIMEOUT * DL_SEC_TO_MSECS))
 747              	 .loc 1 372 0
 748 0030 3B69     	 ldr r3,[r7,#16]
 749 0032 1C4A     	 ldr r2,.L39
 750 0034 9342     	 cmp r3,r2
 751 0036 2ED8     	 bhi .L34
 373:C:/Users/Yushev/git/wpcqi-optiga-trust-charge/optiga/optiga/comms/ifx_i2c\ifx_i2c_data_link_layer.c ****     {
 374:C:/Users/Yushev/git/wpcqi-optiga-trust-charge/optiga/optiga/comms/ifx_i2c\ifx_i2c_data_link_layer.c ****         if (DL_TRANS_REPEAT == p_ctx->dl.retransmit_counter)
 752              	 .loc 1 374 0
 753 0038 7B68     	 ldr r3,[r7,#4]
 754 003a 93F85C30 	 ldrb r3,[r3,#92]
 755 003e 032B     	 cmp r3,#3
 756 0040 09D1     	 bne .L35
 375:C:/Users/Yushev/git/wpcqi-optiga-trust-charge/optiga/optiga/comms/ifx_i2c\ifx_i2c_data_link_layer.c ****         {
 376:C:/Users/Yushev/git/wpcqi-optiga-trust-charge/optiga/optiga/comms/ifx_i2c\ifx_i2c_data_link_layer.c ****             LOG_DL("[IFX-DL]: Re-Sync counters\n");
 377:C:/Users/Yushev/git/wpcqi-optiga-trust-charge/optiga/optiga/comms/ifx_i2c\ifx_i2c_data_link_layer.c ****             p_ctx->dl.retransmit_counter = 0;
 757              	 .loc 1 377 0
 758 0042 7B68     	 ldr r3,[r7,#4]
 759 0044 0022     	 movs r2,#0
 760 0046 83F85C20 	 strb r2,[r3,#92]
 378:C:/Users/Yushev/git/wpcqi-optiga-trust-charge/optiga/optiga/comms/ifx_i2c\ifx_i2c_data_link_layer.c ****             status = ifx_i2c_dl_resync(p_ctx);
 761              	 .loc 1 378 0
 762 004a 7868     	 ldr r0,[r7,#4]
 763 004c FFF7FEFF 	 bl ifx_i2c_dl_resync
 764 0050 0346     	 mov r3,r0
 765 0052 FB82     	 strh r3,[r7,#22]
 766 0054 17E0     	 b .L36
 767              	.L35:
 379:C:/Users/Yushev/git/wpcqi-optiga-trust-charge/optiga/optiga/comms/ifx_i2c\ifx_i2c_data_link_layer.c ****         }
 380:C:/Users/Yushev/git/wpcqi-optiga-trust-charge/optiga/optiga/comms/ifx_i2c\ifx_i2c_data_link_layer.c ****         else
 381:C:/Users/Yushev/git/wpcqi-optiga-trust-charge/optiga/optiga/comms/ifx_i2c\ifx_i2c_data_link_layer.c ****         {
 382:C:/Users/Yushev/git/wpcqi-optiga-trust-charge/optiga/optiga/comms/ifx_i2c\ifx_i2c_data_link_layer.c ****             LOG_DL("[IFX-DL]: Re-TX Frame\n");
 383:C:/Users/Yushev/git/wpcqi-optiga-trust-charge/optiga/optiga/comms/ifx_i2c\ifx_i2c_data_link_layer.c ****             p_ctx->dl.retransmit_counter++;
 768              	 .loc 1 383 0
 769 0056 7B68     	 ldr r3,[r7,#4]
 770 0058 93F85C30 	 ldrb r3,[r3,#92]
 771 005c 0133     	 adds r3,r3,#1
 772 005e DAB2     	 uxtb r2,r3
 773 0060 7B68     	 ldr r3,[r7,#4]
 774 0062 83F85C20 	 strb r2,[r3,#92]
 384:C:/Users/Yushev/git/wpcqi-optiga-trust-charge/optiga/optiga/comms/ifx_i2c\ifx_i2c_data_link_layer.c ****             p_ctx->dl.state = DL_STATE_TX;
 775              	 .loc 1 384 0
 776 0066 7B68     	 ldr r3,[r7,#4]
 777 0068 0222     	 movs r2,#2
 778 006a 83F85820 	 strb r2,[r3,#88]
 385:C:/Users/Yushev/git/wpcqi-optiga-trust-charge/optiga/optiga/comms/ifx_i2c\ifx_i2c_data_link_layer.c ****             status = ifx_i2c_dl_send_frame_internal(p_ctx, p_ctx->dl.tx_buffer_size, seqctr_value, 
 779              	 .loc 1 385 0
 780 006e 7B68     	 ldr r3,[r7,#4]
 781 0070 B3F86420 	 ldrh r2,[r3,#100]
 782 0074 FB78     	 ldrb r3,[r7,#3]
 783 0076 7868     	 ldr r0,[r7,#4]
 784 0078 1146     	 mov r1,r2
 785 007a 1A46     	 mov r2,r3
 786 007c 0123     	 movs r3,#1
 787 007e FFF7FEFF 	 bl ifx_i2c_dl_send_frame_internal
 788 0082 0346     	 mov r3,r0
 789 0084 FB82     	 strh r3,[r7,#22]
 790              	.L36:
 386:C:/Users/Yushev/git/wpcqi-optiga-trust-charge/optiga/optiga/comms/ifx_i2c\ifx_i2c_data_link_layer.c ****         }
 387:C:/Users/Yushev/git/wpcqi-optiga-trust-charge/optiga/optiga/comms/ifx_i2c\ifx_i2c_data_link_layer.c ****         // Handle error in above case by sending NACK
 388:C:/Users/Yushev/git/wpcqi-optiga-trust-charge/optiga/optiga/comms/ifx_i2c\ifx_i2c_data_link_layer.c ****         if (IFX_I2C_STACK_SUCCESS != status)
 791              	 .loc 1 388 0
 792 0086 FB8A     	 ldrh r3,[r7,#22]
 793 0088 002B     	 cmp r3,#0
 794 008a 08D0     	 beq .L32
 389:C:/Users/Yushev/git/wpcqi-optiga-trust-charge/optiga/optiga/comms/ifx_i2c\ifx_i2c_data_link_layer.c ****         {
 390:C:/Users/Yushev/git/wpcqi-optiga-trust-charge/optiga/optiga/comms/ifx_i2c\ifx_i2c_data_link_layer.c ****             p_ctx->dl.state  = DL_STATE_NACK;
 795              	 .loc 1 390 0
 796 008c 7B68     	 ldr r3,[r7,#4]
 797 008e 0622     	 movs r2,#6
 798 0090 83F85820 	 strb r2,[r3,#88]
 799 0094 03E0     	 b .L32
 800              	.L34:
 391:C:/Users/Yushev/git/wpcqi-optiga-trust-charge/optiga/optiga/comms/ifx_i2c\ifx_i2c_data_link_layer.c ****         }
 392:C:/Users/Yushev/git/wpcqi-optiga-trust-charge/optiga/optiga/comms/ifx_i2c\ifx_i2c_data_link_layer.c ****     }
 393:C:/Users/Yushev/git/wpcqi-optiga-trust-charge/optiga/optiga/comms/ifx_i2c\ifx_i2c_data_link_layer.c ****     else
 394:C:/Users/Yushev/git/wpcqi-optiga-trust-charge/optiga/optiga/comms/ifx_i2c\ifx_i2c_data_link_layer.c ****     {
 395:C:/Users/Yushev/git/wpcqi-optiga-trust-charge/optiga/optiga/comms/ifx_i2c\ifx_i2c_data_link_layer.c ****         p_ctx->dl.state = DL_STATE_ERROR;
 801              	 .loc 1 395 0
 802 0096 7B68     	 ldr r3,[r7,#4]
 803 0098 0822     	 movs r2,#8
 804 009a 83F85820 	 strb r2,[r3,#88]
 805              	.L32:
 396:C:/Users/Yushev/git/wpcqi-optiga-trust-charge/optiga/optiga/comms/ifx_i2c\ifx_i2c_data_link_layer.c ****     }
 397:C:/Users/Yushev/git/wpcqi-optiga-trust-charge/optiga/optiga/comms/ifx_i2c\ifx_i2c_data_link_layer.c **** }
 806              	 .loc 1 397 0
 807 009e 1837     	 adds r7,r7,#24
 808              	.LCFI39:
 809              	 .cfi_def_cfa_offset 8
 810 00a0 BD46     	 mov sp,r7
 811              	.LCFI40:
 812              	 .cfi_def_cfa_register 13
 813              	 
 814 00a2 80BD     	 pop {r7,pc}
 815              	.L40:
 816              	 .align 2
 817              	.L39:
 818 00a4 1FBF0200 	 .word 179999
 819              	 .cfi_endproc
 820              	.LFE7:
 822              	 .section .text.ifx_i2c_pl_event_handler,"ax",%progbits
 823              	 .align 2
 824              	 .thumb
 825              	 .thumb_func
 827              	ifx_i2c_pl_event_handler:
 828              	.LFB8:
 398:C:/Users/Yushev/git/wpcqi-optiga-trust-charge/optiga/optiga/comms/ifx_i2c\ifx_i2c_data_link_layer.c **** 
 399:C:/Users/Yushev/git/wpcqi-optiga-trust-charge/optiga/optiga/comms/ifx_i2c\ifx_i2c_data_link_layer.c **** _STATIC_H void ifx_i2c_pl_event_handler(ifx_i2c_context_t * p_ctx,
 400:C:/Users/Yushev/git/wpcqi-optiga-trust-charge/optiga/optiga/comms/ifx_i2c\ifx_i2c_data_link_layer.c ****                                         optiga_lib_status_t event,
 401:C:/Users/Yushev/git/wpcqi-optiga-trust-charge/optiga/optiga/comms/ifx_i2c\ifx_i2c_data_link_layer.c ****                                         const uint8_t * p_data,
 402:C:/Users/Yushev/git/wpcqi-optiga-trust-charge/optiga/optiga/comms/ifx_i2c\ifx_i2c_data_link_layer.c ****                                         uint16_t data_len)
 403:C:/Users/Yushev/git/wpcqi-optiga-trust-charge/optiga/optiga/comms/ifx_i2c\ifx_i2c_data_link_layer.c **** {
 829              	 .loc 1 403 0
 830              	 .cfi_startproc
 831              	 
 832              	 
 833 0000 90B5     	 push {r4,r7,lr}
 834              	.LCFI41:
 835              	 .cfi_def_cfa_offset 12
 836              	 .cfi_offset 4,-12
 837              	 .cfi_offset 7,-8
 838              	 .cfi_offset 14,-4
 839 0002 89B0     	 sub sp,sp,#36
 840              	.LCFI42:
 841              	 .cfi_def_cfa_offset 48
 842 0004 00AF     	 add r7,sp,#0
 843              	.LCFI43:
 844              	 .cfi_def_cfa_register 7
 845 0006 F860     	 str r0,[r7,#12]
 846 0008 7A60     	 str r2,[r7,#4]
 847 000a 1A46     	 mov r2,r3
 848 000c 0B46     	 mov r3,r1
 849 000e 7B81     	 strh r3,[r7,#10]
 850 0010 1346     	 mov r3,r2
 851 0012 3B81     	 strh r3,[r7,#8]
 404:C:/Users/Yushev/git/wpcqi-optiga-trust-charge/optiga/optiga/comms/ifx_i2c\ifx_i2c_data_link_layer.c ****     uint8_t fctr = 0;
 852              	 .loc 1 404 0
 853 0014 0023     	 movs r3,#0
 854 0016 7B75     	 strb r3,[r7,#21]
 405:C:/Users/Yushev/git/wpcqi-optiga-trust-charge/optiga/optiga/comms/ifx_i2c\ifx_i2c_data_link_layer.c ****     uint8_t fr_nr = 0;
 855              	 .loc 1 405 0
 856 0018 0023     	 movs r3,#0
 857 001a FB77     	 strb r3,[r7,#31]
 406:C:/Users/Yushev/git/wpcqi-optiga-trust-charge/optiga/optiga/comms/ifx_i2c\ifx_i2c_data_link_layer.c ****     uint8_t ack_nr = 0;
 858              	 .loc 1 406 0
 859 001c 0023     	 movs r3,#0
 860 001e BB77     	 strb r3,[r7,#30]
 407:C:/Users/Yushev/git/wpcqi-optiga-trust-charge/optiga/optiga/comms/ifx_i2c\ifx_i2c_data_link_layer.c ****     uint8_t seqctr = 0;
 861              	 .loc 1 407 0
 862 0020 0023     	 movs r3,#0
 863 0022 7B77     	 strb r3,[r7,#29]
 408:C:/Users/Yushev/git/wpcqi-optiga-trust-charge/optiga/optiga/comms/ifx_i2c\ifx_i2c_data_link_layer.c ****     uint8_t current_event;
 409:C:/Users/Yushev/git/wpcqi-optiga-trust-charge/optiga/optiga/comms/ifx_i2c\ifx_i2c_data_link_layer.c ****     uint8_t ftype = 0;
 864              	 .loc 1 409 0
 865 0024 0023     	 movs r3,#0
 866 0026 3B75     	 strb r3,[r7,#20]
 410:C:/Users/Yushev/git/wpcqi-optiga-trust-charge/optiga/optiga/comms/ifx_i2c\ifx_i2c_data_link_layer.c ****     uint8_t continue_state_machine = TRUE;
 867              	 .loc 1 410 0
 868 0028 0123     	 movs r3,#1
 869 002a 3B77     	 strb r3,[r7,#28]
 411:C:/Users/Yushev/git/wpcqi-optiga-trust-charge/optiga/optiga/comms/ifx_i2c\ifx_i2c_data_link_layer.c ****     uint16_t packet_len = 0;
 870              	 .loc 1 411 0
 871 002c 0023     	 movs r3,#0
 872 002e 7B83     	 strh r3,[r7,#26]
 412:C:/Users/Yushev/git/wpcqi-optiga-trust-charge/optiga/optiga/comms/ifx_i2c\ifx_i2c_data_link_layer.c ****     uint16_t crc_received = 0;
 873              	 .loc 1 412 0
 874 0030 0023     	 movs r3,#0
 875 0032 3B83     	 strh r3,[r7,#24]
 413:C:/Users/Yushev/git/wpcqi-optiga-trust-charge/optiga/optiga/comms/ifx_i2c\ifx_i2c_data_link_layer.c ****     uint16_t crc_calculated = 0;
 876              	 .loc 1 413 0
 877 0034 0023     	 movs r3,#0
 878 0036 FB82     	 strh r3,[r7,#22]
 879              	.L85:
 414:C:/Users/Yushev/git/wpcqi-optiga-trust-charge/optiga/optiga/comms/ifx_i2c\ifx_i2c_data_link_layer.c ****     LOG_DL("[IFX-DL]: #Enter DL Handler\n");
 415:C:/Users/Yushev/git/wpcqi-optiga-trust-charge/optiga/optiga/comms/ifx_i2c\ifx_i2c_data_link_layer.c ****     do
 416:C:/Users/Yushev/git/wpcqi-optiga-trust-charge/optiga/optiga/comms/ifx_i2c\ifx_i2c_data_link_layer.c ****     {
 417:C:/Users/Yushev/git/wpcqi-optiga-trust-charge/optiga/optiga/comms/ifx_i2c\ifx_i2c_data_link_layer.c ****         if ((IFX_I2C_FATAL_ERROR == event) && (DL_STATE_IDLE != p_ctx->dl.state))
 880              	 .loc 1 417 0
 881 0038 7B89     	 ldrh r3,[r7,#10]
 882 003a B3F5837F 	 cmp r3,#262
 883 003e 08D1     	 bne .L42
 884              	 .loc 1 417 0 is_stmt 0 discriminator 1
 885 0040 FB68     	 ldr r3,[r7,#12]
 886 0042 93F85830 	 ldrb r3,[r3,#88]
 887 0046 012B     	 cmp r3,#1
 888 0048 03D0     	 beq .L42
 418:C:/Users/Yushev/git/wpcqi-optiga-trust-charge/optiga/optiga/comms/ifx_i2c\ifx_i2c_data_link_layer.c ****         {    // Exit in case of fatal error
 419:C:/Users/Yushev/git/wpcqi-optiga-trust-charge/optiga/optiga/comms/ifx_i2c\ifx_i2c_data_link_layer.c ****             LOG_DL("[IFX-DL]: Fatal error received\n");
 420:C:/Users/Yushev/git/wpcqi-optiga-trust-charge/optiga/optiga/comms/ifx_i2c\ifx_i2c_data_link_layer.c ****             p_ctx->dl.state = DL_STATE_ERROR;
 889              	 .loc 1 420 0 is_stmt 1
 890 004a FB68     	 ldr r3,[r7,#12]
 891 004c 0822     	 movs r2,#8
 892 004e 83F85820 	 strb r2,[r3,#88]
 893              	.L42:
 421:C:/Users/Yushev/git/wpcqi-optiga-trust-charge/optiga/optiga/comms/ifx_i2c\ifx_i2c_data_link_layer.c ****         }
 422:C:/Users/Yushev/git/wpcqi-optiga-trust-charge/optiga/optiga/comms/ifx_i2c\ifx_i2c_data_link_layer.c ****         switch (p_ctx->dl.state)
 894              	 .loc 1 422 0
 895 0052 FB68     	 ldr r3,[r7,#12]
 896 0054 93F85830 	 ldrb r3,[r3,#88]
 897 0058 013B     	 subs r3,r3,#1
 898 005a 0A2B     	 cmp r3,#10
 899 005c 00F2E681 	 bhi .L43
 900 0060 01A2     	 adr r2,.L45
 901 0062 52F823F0 	 ldr pc,[r2,r3,lsl#2]
 902 0066 00BF     	 .p2align 2
 903              	.L45:
 904 0068 95000000 	 .word .L44+1
 905 006c BB000000 	 .word .L46+1
 906 0070 FB000000 	 .word .L47+1
 907 0074 49030000 	 .word .L48+1
 908 0078 C3030000 	 .word .L49+1
 909 007c A9030000 	 .word .L50+1
 910 0080 2D040000 	 .word .L43+1
 911 0084 DD030000 	 .word .L51+1
 912 0088 35030000 	 .word .L52+1
 913 008c A5010000 	 .word .L53+1
 914 0090 75020000 	 .word .L54+1
 915              	 .p2align 1
 916              	.L44:
 423:C:/Users/Yushev/git/wpcqi-optiga-trust-charge/optiga/optiga/comms/ifx_i2c\ifx_i2c_data_link_layer.c ****         {
 424:C:/Users/Yushev/git/wpcqi-optiga-trust-charge/optiga/optiga/comms/ifx_i2c\ifx_i2c_data_link_layer.c ****             case DL_STATE_IDLE:
 425:C:/Users/Yushev/git/wpcqi-optiga-trust-charge/optiga/optiga/comms/ifx_i2c\ifx_i2c_data_link_layer.c ****             {
 426:C:/Users/Yushev/git/wpcqi-optiga-trust-charge/optiga/optiga/comms/ifx_i2c\ifx_i2c_data_link_layer.c ****                 current_event = (event != IFX_I2C_STACK_SUCCESS) ? IFX_I2C_DL_EVENT_ERROR : IFX_I2C
 917              	 .loc 1 426 0
 918 0094 7B89     	 ldrh r3,[r7,#10]
 919 0096 002B     	 cmp r3,#0
 920 0098 01D0     	 beq .L55
 921              	 .loc 1 426 0 is_stmt 0 discriminator 1
 922 009a 0123     	 movs r3,#1
 923 009c 00E0     	 b .L56
 924              	.L55:
 925              	 .loc 1 426 0 discriminator 2
 926 009e 0223     	 movs r3,#2
 927              	.L56:
 928              	 .loc 1 426 0 discriminator 4
 929 00a0 FB74     	 strb r3,[r7,#19]
 427:C:/Users/Yushev/git/wpcqi-optiga-trust-charge/optiga/optiga/comms/ifx_i2c\ifx_i2c_data_link_layer.c ****                 continue_state_machine = FALSE;
 930              	 .loc 1 427 0 is_stmt 1 discriminator 4
 931 00a2 0023     	 movs r3,#0
 932 00a4 3B77     	 strb r3,[r7,#28]
 428:C:/Users/Yushev/git/wpcqi-optiga-trust-charge/optiga/optiga/comms/ifx_i2c\ifx_i2c_data_link_layer.c ****                 p_ctx->dl.upper_layer_event_handler(p_ctx,current_event, 0, 0);
 933              	 .loc 1 428 0 discriminator 4
 934 00a6 FB68     	 ldr r3,[r7,#12]
 935 00a8 5C6F     	 ldr r4,[r3,#116]
 936 00aa FB7C     	 ldrb r3,[r7,#19]
 937 00ac 9BB2     	 uxth r3,r3
 938 00ae F868     	 ldr r0,[r7,#12]
 939 00b0 1946     	 mov r1,r3
 940 00b2 0022     	 movs r2,#0
 941 00b4 0023     	 movs r3,#0
 942 00b6 A047     	 blx r4
 429:C:/Users/Yushev/git/wpcqi-optiga-trust-charge/optiga/optiga/comms/ifx_i2c\ifx_i2c_data_link_layer.c ****             }
 430:C:/Users/Yushev/git/wpcqi-optiga-trust-charge/optiga/optiga/comms/ifx_i2c\ifx_i2c_data_link_layer.c ****             break;
 943              	 .loc 1 430 0 discriminator 4
 944 00b8 C6E1     	 b .L57
 945              	.L46:
 431:C:/Users/Yushev/git/wpcqi-optiga-trust-charge/optiga/optiga/comms/ifx_i2c\ifx_i2c_data_link_layer.c ****             case DL_STATE_TX:
 432:C:/Users/Yushev/git/wpcqi-optiga-trust-charge/optiga/optiga/comms/ifx_i2c\ifx_i2c_data_link_layer.c ****             {
 433:C:/Users/Yushev/git/wpcqi-optiga-trust-charge/optiga/optiga/comms/ifx_i2c\ifx_i2c_data_link_layer.c ****                 // If writing a frame failed retry sending
 434:C:/Users/Yushev/git/wpcqi-optiga-trust-charge/optiga/optiga/comms/ifx_i2c\ifx_i2c_data_link_layer.c ****                 if (IFX_I2C_STACK_ERROR == event)
 946              	 .loc 1 434 0
 947 00ba 7B89     	 ldrh r3,[r7,#10]
 948 00bc B3F5817F 	 cmp r3,#258
 949 00c0 04D1     	 bne .L58
 435:C:/Users/Yushev/git/wpcqi-optiga-trust-charge/optiga/optiga/comms/ifx_i2c\ifx_i2c_data_link_layer.c ****                 {
 436:C:/Users/Yushev/git/wpcqi-optiga-trust-charge/optiga/optiga/comms/ifx_i2c\ifx_i2c_data_link_layer.c ****                     p_ctx->dl.state = DL_STATE_RESEND;
 950              	 .loc 1 436 0
 951 00c2 FB68     	 ldr r3,[r7,#12]
 952 00c4 0522     	 movs r2,#5
 953 00c6 83F85820 	 strb r2,[r3,#88]
 437:C:/Users/Yushev/git/wpcqi-optiga-trust-charge/optiga/optiga/comms/ifx_i2c\ifx_i2c_data_link_layer.c ****                     break;
 954              	 .loc 1 437 0
 955 00ca BDE1     	 b .L57
 956              	.L58:
 438:C:/Users/Yushev/git/wpcqi-optiga-trust-charge/optiga/optiga/comms/ifx_i2c\ifx_i2c_data_link_layer.c ****                 }
 439:C:/Users/Yushev/git/wpcqi-optiga-trust-charge/optiga/optiga/comms/ifx_i2c\ifx_i2c_data_link_layer.c ****                 LOG_DL("[IFX-DL]: Frame Sent\n");
 440:C:/Users/Yushev/git/wpcqi-optiga-trust-charge/optiga/optiga/comms/ifx_i2c\ifx_i2c_data_link_layer.c ****                 // Transmission successful, start receiving frame
 441:C:/Users/Yushev/git/wpcqi-optiga-trust-charge/optiga/optiga/comms/ifx_i2c\ifx_i2c_data_link_layer.c ****                 p_ctx->dl.frame_start_time = pal_os_timer_get_time_in_milliseconds();
 957              	 .loc 1 441 0
 958 00cc FFF7FEFF 	 bl pal_os_timer_get_time_in_milliseconds
 959 00d0 0246     	 mov r2,r0
 960 00d2 FB68     	 ldr r3,[r7,#12]
 961 00d4 1A67     	 str r2,[r3,#112]
 442:C:/Users/Yushev/git/wpcqi-optiga-trust-charge/optiga/optiga/comms/ifx_i2c\ifx_i2c_data_link_layer.c ****                 p_ctx->dl.state = DL_STATE_RX;
 962              	 .loc 1 442 0
 963 00d6 FB68     	 ldr r3,[r7,#12]
 964 00d8 0322     	 movs r2,#3
 965 00da 83F85820 	 strb r2,[r3,#88]
 443:C:/Users/Yushev/git/wpcqi-optiga-trust-charge/optiga/optiga/comms/ifx_i2c\ifx_i2c_data_link_layer.c ****                 if (0 != ifx_i2c_pl_receive_frame(p_ctx))
 966              	 .loc 1 443 0
 967 00de F868     	 ldr r0,[r7,#12]
 968 00e0 FFF7FEFF 	 bl ifx_i2c_pl_receive_frame
 969 00e4 0346     	 mov r3,r0
 970 00e6 002B     	 cmp r3,#0
 971 00e8 04D0     	 beq .L59
 444:C:/Users/Yushev/git/wpcqi-optiga-trust-charge/optiga/optiga/comms/ifx_i2c\ifx_i2c_data_link_layer.c ****                 {
 445:C:/Users/Yushev/git/wpcqi-optiga-trust-charge/optiga/optiga/comms/ifx_i2c\ifx_i2c_data_link_layer.c ****                     p_ctx->dl.state  = DL_STATE_NACK;
 972              	 .loc 1 445 0
 973 00ea FB68     	 ldr r3,[r7,#12]
 974 00ec 0622     	 movs r2,#6
 975 00ee 83F85820 	 strb r2,[r3,#88]
 446:C:/Users/Yushev/git/wpcqi-optiga-trust-charge/optiga/optiga/comms/ifx_i2c\ifx_i2c_data_link_layer.c ****                 }
 447:C:/Users/Yushev/git/wpcqi-optiga-trust-charge/optiga/optiga/comms/ifx_i2c\ifx_i2c_data_link_layer.c ****                 else
 448:C:/Users/Yushev/git/wpcqi-optiga-trust-charge/optiga/optiga/comms/ifx_i2c\ifx_i2c_data_link_layer.c ****                 {
 449:C:/Users/Yushev/git/wpcqi-optiga-trust-charge/optiga/optiga/comms/ifx_i2c\ifx_i2c_data_link_layer.c ****                     continue_state_machine = FALSE;
 450:C:/Users/Yushev/git/wpcqi-optiga-trust-charge/optiga/optiga/comms/ifx_i2c\ifx_i2c_data_link_layer.c ****                 }
 451:C:/Users/Yushev/git/wpcqi-optiga-trust-charge/optiga/optiga/comms/ifx_i2c\ifx_i2c_data_link_layer.c ****             }
 452:C:/Users/Yushev/git/wpcqi-optiga-trust-charge/optiga/optiga/comms/ifx_i2c\ifx_i2c_data_link_layer.c ****             break;
 976              	 .loc 1 452 0
 977 00f2 A9E1     	 b .L57
 978              	.L59:
 449:C:/Users/Yushev/git/wpcqi-optiga-trust-charge/optiga/optiga/comms/ifx_i2c\ifx_i2c_data_link_layer.c ****                 }
 979              	 .loc 1 449 0
 980 00f4 0023     	 movs r3,#0
 981 00f6 3B77     	 strb r3,[r7,#28]
 982              	 .loc 1 452 0
 983 00f8 A6E1     	 b .L57
 984              	.L47:
 453:C:/Users/Yushev/git/wpcqi-optiga-trust-charge/optiga/optiga/comms/ifx_i2c\ifx_i2c_data_link_layer.c ****             case DL_STATE_RX:
 454:C:/Users/Yushev/git/wpcqi-optiga-trust-charge/optiga/optiga/comms/ifx_i2c\ifx_i2c_data_link_layer.c ****             {
 455:C:/Users/Yushev/git/wpcqi-optiga-trust-charge/optiga/optiga/comms/ifx_i2c\ifx_i2c_data_link_layer.c ****                 if (IFX_I2C_STACK_ERROR == event)
 985              	 .loc 1 455 0
 986 00fa 7B89     	 ldrh r3,[r7,#10]
 987 00fc B3F5817F 	 cmp r3,#258
 988 0100 04D1     	 bne .L61
 456:C:/Users/Yushev/git/wpcqi-optiga-trust-charge/optiga/optiga/comms/ifx_i2c\ifx_i2c_data_link_layer.c ****                 {    // If no frame was received retry sending
 457:C:/Users/Yushev/git/wpcqi-optiga-trust-charge/optiga/optiga/comms/ifx_i2c\ifx_i2c_data_link_layer.c ****                     p_ctx->dl.state = DL_STATE_RESEND;
 989              	 .loc 1 457 0
 990 0102 FB68     	 ldr r3,[r7,#12]
 991 0104 0522     	 movs r2,#5
 992 0106 83F85820 	 strb r2,[r3,#88]
 458:C:/Users/Yushev/git/wpcqi-optiga-trust-charge/optiga/optiga/comms/ifx_i2c\ifx_i2c_data_link_layer.c ****                     break;
 993              	 .loc 1 458 0
 994 010a 9DE1     	 b .L57
 995              	.L61:
 459:C:/Users/Yushev/git/wpcqi-optiga-trust-charge/optiga/optiga/comms/ifx_i2c\ifx_i2c_data_link_layer.c ****                 }
 460:C:/Users/Yushev/git/wpcqi-optiga-trust-charge/optiga/optiga/comms/ifx_i2c\ifx_i2c_data_link_layer.c ****                 // Received frame from device, start analyzing
 461:C:/Users/Yushev/git/wpcqi-optiga-trust-charge/optiga/optiga/comms/ifx_i2c\ifx_i2c_data_link_layer.c ****                 LOG_DL("[IFX-DL]: Received Frame of length %d\n",data_len);
 462:C:/Users/Yushev/git/wpcqi-optiga-trust-charge/optiga/optiga/comms/ifx_i2c\ifx_i2c_data_link_layer.c **** 
 463:C:/Users/Yushev/git/wpcqi-optiga-trust-charge/optiga/optiga/comms/ifx_i2c\ifx_i2c_data_link_layer.c ****                 if (data_len < DL_HEADER_SIZE)
 996              	 .loc 1 463 0
 997 010c 3B89     	 ldrh r3,[r7,#8]
 998 010e 042B     	 cmp r3,#4
 999 0110 04D8     	 bhi .L62
 464:C:/Users/Yushev/git/wpcqi-optiga-trust-charge/optiga/optiga/comms/ifx_i2c\ifx_i2c_data_link_layer.c ****                 {    // Received length is less than minimum size
 465:C:/Users/Yushev/git/wpcqi-optiga-trust-charge/optiga/optiga/comms/ifx_i2c\ifx_i2c_data_link_layer.c ****                     LOG_DL("[IFX-DL]: received data_len < DL_HEADER_SIZE\n");
 466:C:/Users/Yushev/git/wpcqi-optiga-trust-charge/optiga/optiga/comms/ifx_i2c\ifx_i2c_data_link_layer.c ****                     p_ctx->dl.state  = DL_STATE_NACK;
 1000              	 .loc 1 466 0
 1001 0112 FB68     	 ldr r3,[r7,#12]
 1002 0114 0622     	 movs r2,#6
 1003 0116 83F85820 	 strb r2,[r3,#88]
 467:C:/Users/Yushev/git/wpcqi-optiga-trust-charge/optiga/optiga/comms/ifx_i2c\ifx_i2c_data_link_layer.c ****                     break;
 1004              	 .loc 1 467 0
 1005 011a 95E1     	 b .L57
 1006              	.L62:
 468:C:/Users/Yushev/git/wpcqi-optiga-trust-charge/optiga/optiga/comms/ifx_i2c\ifx_i2c_data_link_layer.c ****                 }
 469:C:/Users/Yushev/git/wpcqi-optiga-trust-charge/optiga/optiga/comms/ifx_i2c\ifx_i2c_data_link_layer.c ****                 // Check transmit frame sequence number
 470:C:/Users/Yushev/git/wpcqi-optiga-trust-charge/optiga/optiga/comms/ifx_i2c\ifx_i2c_data_link_layer.c ****                 fctr = p_data[0];
 1007              	 .loc 1 470 0
 1008 011c 7B68     	 ldr r3,[r7,#4]
 1009 011e 1B78     	 ldrb r3,[r3]
 1010 0120 7B75     	 strb r3,[r7,#21]
 471:C:/Users/Yushev/git/wpcqi-optiga-trust-charge/optiga/optiga/comms/ifx_i2c\ifx_i2c_data_link_layer.c ****                 ftype = (fctr & DL_FCTR_FTYPE_MASK) >> DL_FCTR_FTYPE_OFFSET;
 1011              	 .loc 1 471 0
 1012 0122 7B7D     	 ldrb r3,[r7,#21]
 1013 0124 DB09     	 lsrs r3,r3,#7
 1014 0126 3B75     	 strb r3,[r7,#20]
 472:C:/Users/Yushev/git/wpcqi-optiga-trust-charge/optiga/optiga/comms/ifx_i2c\ifx_i2c_data_link_layer.c ****                 seqctr = (fctr & DL_FCTR_SEQCTR_MASK) >> DL_FCTR_SEQCTR_OFFSET;
 1015              	 .loc 1 472 0
 1016 0128 7B7D     	 ldrb r3,[r7,#21]
 1017 012a 03F06003 	 and r3,r3,#96
 1018 012e 5B11     	 asrs r3,r3,#5
 1019 0130 7B77     	 strb r3,[r7,#29]
 473:C:/Users/Yushev/git/wpcqi-optiga-trust-charge/optiga/optiga/comms/ifx_i2c\ifx_i2c_data_link_layer.c ****                 //lint --e{835} suppress "DL_FCTR_ACKNR_OFFSET is defined as 0x00 and is kept for f
 474:C:/Users/Yushev/git/wpcqi-optiga-trust-charge/optiga/optiga/comms/ifx_i2c\ifx_i2c_data_link_layer.c ****                 ack_nr = (fctr & DL_FCTR_ACKNR_MASK) >> DL_FCTR_ACKNR_OFFSET;
 1020              	 .loc 1 474 0
 1021 0132 7B7D     	 ldrb r3,[r7,#21]
 1022 0134 03F00303 	 and r3,r3,#3
 1023 0138 BB77     	 strb r3,[r7,#30]
 475:C:/Users/Yushev/git/wpcqi-optiga-trust-charge/optiga/optiga/comms/ifx_i2c\ifx_i2c_data_link_layer.c ****                 fr_nr = (fctr & DL_FCTR_FRNR_MASK) >> DL_FCTR_FRNR_OFFSET;
 1024              	 .loc 1 475 0
 1025 013a 7B7D     	 ldrb r3,[r7,#21]
 1026 013c 03F00C03 	 and r3,r3,#12
 1027 0140 9B10     	 asrs r3,r3,#2
 1028 0142 FB77     	 strb r3,[r7,#31]
 476:C:/Users/Yushev/git/wpcqi-optiga-trust-charge/optiga/optiga/comms/ifx_i2c\ifx_i2c_data_link_layer.c ****                 packet_len = (p_data[1] << 8) | p_data[2];
 1029              	 .loc 1 476 0
 1030 0144 7B68     	 ldr r3,[r7,#4]
 1031 0146 0133     	 adds r3,r3,#1
 1032 0148 1B78     	 ldrb r3,[r3]
 1033 014a 1B02     	 lsls r3,r3,#8
 1034 014c 9AB2     	 uxth r2,r3
 1035 014e 7B68     	 ldr r3,[r7,#4]
 1036 0150 0233     	 adds r3,r3,#2
 1037 0152 1B78     	 ldrb r3,[r3]
 1038 0154 9BB2     	 uxth r3,r3
 1039 0156 1343     	 orrs r3,r3,r2
 1040 0158 9BB2     	 uxth r3,r3
 1041 015a 7B83     	 strh r3,[r7,#26]
 477:C:/Users/Yushev/git/wpcqi-optiga-trust-charge/optiga/optiga/comms/ifx_i2c\ifx_i2c_data_link_layer.c **** 
 478:C:/Users/Yushev/git/wpcqi-optiga-trust-charge/optiga/optiga/comms/ifx_i2c\ifx_i2c_data_link_layer.c ****                 // Check frame CRC value
 479:C:/Users/Yushev/git/wpcqi-optiga-trust-charge/optiga/optiga/comms/ifx_i2c\ifx_i2c_data_link_layer.c ****                 crc_received = (p_data[data_len - 2] << 8) | p_data[data_len - 1];
 1042              	 .loc 1 479 0
 1043 015c 3B89     	 ldrh r3,[r7,#8]
 1044 015e 023B     	 subs r3,r3,#2
 1045 0160 7A68     	 ldr r2,[r7,#4]
 1046 0162 1344     	 add r3,r3,r2
 1047 0164 1B78     	 ldrb r3,[r3]
 1048 0166 1B02     	 lsls r3,r3,#8
 1049 0168 99B2     	 uxth r1,r3
 1050 016a 3B89     	 ldrh r3,[r7,#8]
 1051 016c 013B     	 subs r3,r3,#1
 1052 016e 7A68     	 ldr r2,[r7,#4]
 1053 0170 1344     	 add r3,r3,r2
 1054 0172 1B78     	 ldrb r3,[r3]
 1055 0174 9BB2     	 uxth r3,r3
 1056 0176 0A46     	 mov r2,r1
 1057 0178 1343     	 orrs r3,r3,r2
 1058 017a 9BB2     	 uxth r3,r3
 1059 017c 3B83     	 strh r3,[r7,#24]
 480:C:/Users/Yushev/git/wpcqi-optiga-trust-charge/optiga/optiga/comms/ifx_i2c\ifx_i2c_data_link_layer.c ****                 crc_calculated = ifx_i2c_dl_calc_crc(p_data, data_len - 2);
 1060              	 .loc 1 480 0
 1061 017e 3B89     	 ldrh r3,[r7,#8]
 1062 0180 023B     	 subs r3,r3,#2
 1063 0182 9BB2     	 uxth r3,r3
 1064 0184 7868     	 ldr r0,[r7,#4]
 1065 0186 1946     	 mov r1,r3
 1066 0188 FFF7FEFF 	 bl ifx_i2c_dl_calc_crc
 1067 018c 0346     	 mov r3,r0
 1068 018e FB82     	 strh r3,[r7,#22]
 481:C:/Users/Yushev/git/wpcqi-optiga-trust-charge/optiga/optiga/comms/ifx_i2c\ifx_i2c_data_link_layer.c ****                 p_ctx->dl.state = (ftype == DL_FCTR_VALUE_CONTROL_FRAME) ? DL_STATE_RX_CF : DL_STAT
 1069              	 .loc 1 481 0
 1070 0190 3B7D     	 ldrb r3,[r7,#20]
 1071 0192 012B     	 cmp r3,#1
 1072 0194 01D1     	 bne .L63
 1073              	 .loc 1 481 0 is_stmt 0 discriminator 1
 1074 0196 0B22     	 movs r2,#11
 1075 0198 00E0     	 b .L64
 1076              	.L63:
 1077              	 .loc 1 481 0 discriminator 2
 1078 019a 0A22     	 movs r2,#10
 1079              	.L64:
 1080              	 .loc 1 481 0 discriminator 4
 1081 019c FB68     	 ldr r3,[r7,#12]
 1082 019e 83F85820 	 strb r2,[r3,#88]
 482:C:/Users/Yushev/git/wpcqi-optiga-trust-charge/optiga/optiga/comms/ifx_i2c\ifx_i2c_data_link_layer.c ****             }
 483:C:/Users/Yushev/git/wpcqi-optiga-trust-charge/optiga/optiga/comms/ifx_i2c\ifx_i2c_data_link_layer.c ****             break;
 1083              	 .loc 1 483 0 is_stmt 1 discriminator 4
 1084 01a2 51E1     	 b .L57
 1085              	.L53:
 484:C:/Users/Yushev/git/wpcqi-optiga-trust-charge/optiga/optiga/comms/ifx_i2c\ifx_i2c_data_link_layer.c ****             case DL_STATE_RX_DF:
 485:C:/Users/Yushev/git/wpcqi-optiga-trust-charge/optiga/optiga/comms/ifx_i2c\ifx_i2c_data_link_layer.c ****             {
 486:C:/Users/Yushev/git/wpcqi-optiga-trust-charge/optiga/optiga/comms/ifx_i2c\ifx_i2c_data_link_layer.c ****                 LOG_DL("[IFX-DL]: Data Frame Received\n");
 487:C:/Users/Yushev/git/wpcqi-optiga-trust-charge/optiga/optiga/comms/ifx_i2c\ifx_i2c_data_link_layer.c ****                 if ((crc_received != crc_calculated) || (0 == packet_len) ||
 1086              	 .loc 1 487 0
 1087 01a4 3A8B     	 ldrh r2,[r7,#24]
 1088 01a6 FB8A     	 ldrh r3,[r7,#22]
 1089 01a8 9A42     	 cmp r2,r3
 1090 01aa 0DD1     	 bne .L65
 1091              	 .loc 1 487 0 is_stmt 0 discriminator 1
 1092 01ac 7B8B     	 ldrh r3,[r7,#26]
 1093 01ae 002B     	 cmp r3,#0
 1094 01b0 0AD0     	 beq .L65
 488:C:/Users/Yushev/git/wpcqi-optiga-trust-charge/optiga/optiga/comms/ifx_i2c\ifx_i2c_data_link_layer.c ****                     (data_len != (DL_HEADER_SIZE + packet_len)) || (DL_FCTR_SEQCTR_VALUE_RFU == seq
 1095              	 .loc 1 488 0 is_stmt 1 discriminator 2
 1096 01b2 3A89     	 ldrh r2,[r7,#8]
 1097 01b4 7B8B     	 ldrh r3,[r7,#26]
 1098 01b6 0533     	 adds r3,r3,#5
 487:C:/Users/Yushev/git/wpcqi-optiga-trust-charge/optiga/optiga/comms/ifx_i2c\ifx_i2c_data_link_layer.c ****                     (data_len != (DL_HEADER_SIZE + packet_len)) || (DL_FCTR_SEQCTR_VALUE_RFU == seq
 1099              	 .loc 1 487 0 discriminator 2
 1100 01b8 9A42     	 cmp r2,r3
 1101 01ba 05D1     	 bne .L65
 1102              	 .loc 1 488 0
 1103 01bc 7B7F     	 ldrb r3,[r7,#29]
 1104 01be 032B     	 cmp r3,#3
 1105 01c0 02D0     	 beq .L65
 1106              	 .loc 1 488 0 is_stmt 0 discriminator 1
 1107 01c2 7B7F     	 ldrb r3,[r7,#29]
 1108 01c4 022B     	 cmp r3,#2
 1109 01c6 04D1     	 bne .L66
 1110              	.L65:
 489:C:/Users/Yushev/git/wpcqi-optiga-trust-charge/optiga/optiga/comms/ifx_i2c\ifx_i2c_data_link_layer.c ****                     (DL_FCTR_SEQCTR_VALUE_RESYNC == seqctr))
 490:C:/Users/Yushev/git/wpcqi-optiga-trust-charge/optiga/optiga/comms/ifx_i2c\ifx_i2c_data_link_layer.c ****                 {
 491:C:/Users/Yushev/git/wpcqi-optiga-trust-charge/optiga/optiga/comms/ifx_i2c\ifx_i2c_data_link_layer.c ****                     // CRC,Length of data frame is 0/ SEQCTR has RFU/Re-sync in Data frame
 492:C:/Users/Yushev/git/wpcqi-optiga-trust-charge/optiga/optiga/comms/ifx_i2c\ifx_i2c_data_link_layer.c ****                     LOG_DL("[IFX-DL]: NACK for CRC error,Data frame length is not correct,RFU in SE
 493:C:/Users/Yushev/git/wpcqi-optiga-trust-charge/optiga/optiga/comms/ifx_i2c\ifx_i2c_data_link_layer.c ****                     p_ctx->dl.state  = DL_STATE_NACK;
 1111              	 .loc 1 493 0 is_stmt 1
 1112 01c8 FB68     	 ldr r3,[r7,#12]
 1113 01ca 0622     	 movs r2,#6
 1114 01cc 83F85820 	 strb r2,[r3,#88]
 494:C:/Users/Yushev/git/wpcqi-optiga-trust-charge/optiga/optiga/comms/ifx_i2c\ifx_i2c_data_link_layer.c ****                     break;
 1115              	 .loc 1 494 0
 1116 01d0 3AE1     	 b .L57
 1117              	.L66:
 495:C:/Users/Yushev/git/wpcqi-optiga-trust-charge/optiga/optiga/comms/ifx_i2c\ifx_i2c_data_link_layer.c ****                 }
 496:C:/Users/Yushev/git/wpcqi-optiga-trust-charge/optiga/optiga/comms/ifx_i2c\ifx_i2c_data_link_layer.c ****                 if (fr_nr != ((p_ctx->dl.rx_seq_nr + 1) & DL_MAX_FRAME_NUM))
 1118              	 .loc 1 496 0
 1119 01d2 FA7F     	 ldrb r2,[r7,#31]
 1120 01d4 FB68     	 ldr r3,[r7,#12]
 1121 01d6 93F85A30 	 ldrb r3,[r3,#90]
 1122 01da 0133     	 adds r3,r3,#1
 1123 01dc 03F00303 	 and r3,r3,#3
 1124 01e0 9A42     	 cmp r2,r3
 1125 01e2 0CD0     	 beq .L67
 497:C:/Users/Yushev/git/wpcqi-optiga-trust-charge/optiga/optiga/comms/ifx_i2c\ifx_i2c_data_link_layer.c ****                 {
 498:C:/Users/Yushev/git/wpcqi-optiga-trust-charge/optiga/optiga/comms/ifx_i2c\ifx_i2c_data_link_layer.c ****                     LOG_DL("[IFX-DL]: Data frame number not expected\n");
 499:C:/Users/Yushev/git/wpcqi-optiga-trust-charge/optiga/optiga/comms/ifx_i2c\ifx_i2c_data_link_layer.c ****                     p_ctx->dl.state  = DL_STATE_DISCARD;
 1126              	 .loc 1 499 0
 1127 01e4 FB68     	 ldr r3,[r7,#12]
 1128 01e6 0922     	 movs r2,#9
 1129 01e8 83F85820 	 strb r2,[r3,#88]
 500:C:/Users/Yushev/git/wpcqi-optiga-trust-charge/optiga/optiga/comms/ifx_i2c\ifx_i2c_data_link_layer.c ****                     continue_state_machine = FALSE;
 1130              	 .loc 1 500 0
 1131 01ec 0023     	 movs r3,#0
 1132 01ee 3B77     	 strb r3,[r7,#28]
 501:C:/Users/Yushev/git/wpcqi-optiga-trust-charge/optiga/optiga/comms/ifx_i2c\ifx_i2c_data_link_layer.c ****                     //lint --e{534} suppress "Error handling is not required so return value is not
 502:C:/Users/Yushev/git/wpcqi-optiga-trust-charge/optiga/optiga/comms/ifx_i2c\ifx_i2c_data_link_layer.c ****                     ifx_i2c_dl_send_frame_internal(p_ctx, 0, DL_FCTR_SEQCTR_VALUE_ACK, 0);
 1133              	 .loc 1 502 0
 1134 01f0 F868     	 ldr r0,[r7,#12]
 1135 01f2 0021     	 movs r1,#0
 1136 01f4 0022     	 movs r2,#0
 1137 01f6 0023     	 movs r3,#0
 1138 01f8 FFF7FEFF 	 bl ifx_i2c_dl_send_frame_internal
 503:C:/Users/Yushev/git/wpcqi-optiga-trust-charge/optiga/optiga/comms/ifx_i2c\ifx_i2c_data_link_layer.c ****                     break;
 1139              	 .loc 1 503 0
 1140 01fc 24E1     	 b .L57
 1141              	.L67:
 504:C:/Users/Yushev/git/wpcqi-optiga-trust-charge/optiga/optiga/comms/ifx_i2c\ifx_i2c_data_link_layer.c ****                 }
 505:C:/Users/Yushev/git/wpcqi-optiga-trust-charge/optiga/optiga/comms/ifx_i2c\ifx_i2c_data_link_layer.c ****                 if (ack_nr != p_ctx->dl.tx_seq_nr)
 1142              	 .loc 1 505 0
 1143 01fe FB68     	 ldr r3,[r7,#12]
 1144 0200 93F85930 	 ldrb r3,[r3,#89]
 1145 0204 BA7F     	 ldrb r2,[r7,#30]
 1146 0206 9A42     	 cmp r2,r3
 1147 0208 04D0     	 beq .L68
 506:C:/Users/Yushev/git/wpcqi-optiga-trust-charge/optiga/optiga/comms/ifx_i2c\ifx_i2c_data_link_layer.c ****                 {
 507:C:/Users/Yushev/git/wpcqi-optiga-trust-charge/optiga/optiga/comms/ifx_i2c\ifx_i2c_data_link_layer.c ****                     // ack number error
 508:C:/Users/Yushev/git/wpcqi-optiga-trust-charge/optiga/optiga/comms/ifx_i2c\ifx_i2c_data_link_layer.c ****                     LOG_DL("[IFX-DL]: Error in ack number\n");
 509:C:/Users/Yushev/git/wpcqi-optiga-trust-charge/optiga/optiga/comms/ifx_i2c\ifx_i2c_data_link_layer.c ****                     //lint --e{534} suppress "Error handling is not required so return value is not
 510:C:/Users/Yushev/git/wpcqi-optiga-trust-charge/optiga/optiga/comms/ifx_i2c\ifx_i2c_data_link_layer.c ****                     p_ctx->dl.state = DL_STATE_DISCARD;
 1148              	 .loc 1 510 0
 1149 020a FB68     	 ldr r3,[r7,#12]
 1150 020c 0922     	 movs r2,#9
 1151 020e 83F85820 	 strb r2,[r3,#88]
 511:C:/Users/Yushev/git/wpcqi-optiga-trust-charge/optiga/optiga/comms/ifx_i2c\ifx_i2c_data_link_layer.c ****                     break;
 1152              	 .loc 1 511 0
 1153 0212 19E1     	 b .L57
 1154              	.L68:
 512:C:/Users/Yushev/git/wpcqi-optiga-trust-charge/optiga/optiga/comms/ifx_i2c\ifx_i2c_data_link_layer.c ****                 }
 513:C:/Users/Yushev/git/wpcqi-optiga-trust-charge/optiga/optiga/comms/ifx_i2c\ifx_i2c_data_link_layer.c ****                 if (DL_FCTR_SEQCTR_VALUE_NACK == seqctr)
 1155              	 .loc 1 513 0
 1156 0214 7B7F     	 ldrb r3,[r7,#29]
 1157 0216 012B     	 cmp r3,#1
 1158 0218 04D1     	 bne .L69
 514:C:/Users/Yushev/git/wpcqi-optiga-trust-charge/optiga/optiga/comms/ifx_i2c\ifx_i2c_data_link_layer.c ****                 {
 515:C:/Users/Yushev/git/wpcqi-optiga-trust-charge/optiga/optiga/comms/ifx_i2c\ifx_i2c_data_link_layer.c ****                     // NACK for transmitted frame
 516:C:/Users/Yushev/git/wpcqi-optiga-trust-charge/optiga/optiga/comms/ifx_i2c\ifx_i2c_data_link_layer.c ****                     LOG_DL("[IFX-DL]: NACK received in data frame\n");
 517:C:/Users/Yushev/git/wpcqi-optiga-trust-charge/optiga/optiga/comms/ifx_i2c\ifx_i2c_data_link_layer.c ****                     p_ctx->dl.state = DL_STATE_RESEND;
 1159              	 .loc 1 517 0
 1160 021a FB68     	 ldr r3,[r7,#12]
 1161 021c 0522     	 movs r2,#5
 1162 021e 83F85820 	 strb r2,[r3,#88]
 518:C:/Users/Yushev/git/wpcqi-optiga-trust-charge/optiga/optiga/comms/ifx_i2c\ifx_i2c_data_link_layer.c ****                     break;
 1163              	 .loc 1 518 0
 1164 0222 11E1     	 b .L57
 1165              	.L69:
 519:C:/Users/Yushev/git/wpcqi-optiga-trust-charge/optiga/optiga/comms/ifx_i2c\ifx_i2c_data_link_layer.c ****                 }
 520:C:/Users/Yushev/git/wpcqi-optiga-trust-charge/optiga/optiga/comms/ifx_i2c\ifx_i2c_data_link_layer.c ****                 p_ctx->dl.rx_seq_nr = (p_ctx->dl.rx_seq_nr + 1) & DL_MAX_FRAME_NUM;
 1166              	 .loc 1 520 0
 1167 0224 FB68     	 ldr r3,[r7,#12]
 1168 0226 93F85A30 	 ldrb r3,[r3,#90]
 1169 022a 0133     	 adds r3,r3,#1
 1170 022c DBB2     	 uxtb r3,r3
 1171 022e 03F00303 	 and r3,r3,#3
 1172 0232 DAB2     	 uxtb r2,r3
 1173 0234 FB68     	 ldr r3,[r7,#12]
 1174 0236 83F85A20 	 strb r2,[r3,#90]
 521:C:/Users/Yushev/git/wpcqi-optiga-trust-charge/optiga/optiga/comms/ifx_i2c\ifx_i2c_data_link_layer.c ****                 memcpy(p_ctx->dl.p_rx_frame_buffer, p_data, data_len);
 1175              	 .loc 1 521 0
 1176 023a FB68     	 ldr r3,[r7,#12]
 1177 023c DA6E     	 ldr r2,[r3,#108]
 1178 023e 3B89     	 ldrh r3,[r7,#8]
 1179 0240 1046     	 mov r0,r2
 1180 0242 7968     	 ldr r1,[r7,#4]
 1181 0244 1A46     	 mov r2,r3
 1182 0246 FFF7FEFF 	 bl memcpy
 522:C:/Users/Yushev/git/wpcqi-optiga-trust-charge/optiga/optiga/comms/ifx_i2c\ifx_i2c_data_link_layer.c ****                 p_ctx->dl.rx_buffer_size = data_len;
 1183              	 .loc 1 522 0
 1184 024a FB68     	 ldr r3,[r7,#12]
 1185 024c 3A89     	 ldrh r2,[r7,#8]
 1186 024e A3F86620 	 strh r2,[r3,#102]
 523:C:/Users/Yushev/git/wpcqi-optiga-trust-charge/optiga/optiga/comms/ifx_i2c\ifx_i2c_data_link_layer.c **** 
 524:C:/Users/Yushev/git/wpcqi-optiga-trust-charge/optiga/optiga/comms/ifx_i2c\ifx_i2c_data_link_layer.c ****                 // Send control frame to acknowledge reception of this data frame
 525:C:/Users/Yushev/git/wpcqi-optiga-trust-charge/optiga/optiga/comms/ifx_i2c\ifx_i2c_data_link_layer.c ****                 LOG_DL("[IFX-DL]: Read Data Frame -> Send ACK\n");
 526:C:/Users/Yushev/git/wpcqi-optiga-trust-charge/optiga/optiga/comms/ifx_i2c\ifx_i2c_data_link_layer.c ****                 p_ctx->dl.retransmit_counter = 0;
 1187              	 .loc 1 526 0
 1188 0252 FB68     	 ldr r3,[r7,#12]
 1189 0254 0022     	 movs r2,#0
 1190 0256 83F85C20 	 strb r2,[r3,#92]
 527:C:/Users/Yushev/git/wpcqi-optiga-trust-charge/optiga/optiga/comms/ifx_i2c\ifx_i2c_data_link_layer.c ****                 p_ctx->dl.state = DL_STATE_ACK;
 1191              	 .loc 1 527 0
 1192 025a FB68     	 ldr r3,[r7,#12]
 1193 025c 0422     	 movs r2,#4
 1194 025e 83F85820 	 strb r2,[r3,#88]
 528:C:/Users/Yushev/git/wpcqi-optiga-trust-charge/optiga/optiga/comms/ifx_i2c\ifx_i2c_data_link_layer.c ****                 continue_state_machine = FALSE;
 1195              	 .loc 1 528 0
 1196 0262 0023     	 movs r3,#0
 1197 0264 3B77     	 strb r3,[r7,#28]
 529:C:/Users/Yushev/git/wpcqi-optiga-trust-charge/optiga/optiga/comms/ifx_i2c\ifx_i2c_data_link_layer.c **** 
 530:C:/Users/Yushev/git/wpcqi-optiga-trust-charge/optiga/optiga/comms/ifx_i2c\ifx_i2c_data_link_layer.c ****                 OPTIGA_COMMS_LOG_MESSAGE("<<<<");\
 531:C:/Users/Yushev/git/wpcqi-optiga-trust-charge/optiga/optiga/comms/ifx_i2c\ifx_i2c_data_link_layer.c ****                 OPTIGA_IFXI2C_LOG_RECEIVE_HEX_DATA(p_data,data_len,p_ctx);
 532:C:/Users/Yushev/git/wpcqi-optiga-trust-charge/optiga/optiga/comms/ifx_i2c\ifx_i2c_data_link_layer.c ****                 //lint --e{534} suppress "Error handling is not required so return value is not che
 533:C:/Users/Yushev/git/wpcqi-optiga-trust-charge/optiga/optiga/comms/ifx_i2c\ifx_i2c_data_link_layer.c ****                 ifx_i2c_dl_send_frame_internal(p_ctx, 0, DL_FCTR_SEQCTR_VALUE_ACK, 0);
 1198              	 .loc 1 533 0
 1199 0266 F868     	 ldr r0,[r7,#12]
 1200 0268 0021     	 movs r1,#0
 1201 026a 0022     	 movs r2,#0
 1202 026c 0023     	 movs r3,#0
 1203 026e FFF7FEFF 	 bl ifx_i2c_dl_send_frame_internal
 534:C:/Users/Yushev/git/wpcqi-optiga-trust-charge/optiga/optiga/comms/ifx_i2c\ifx_i2c_data_link_layer.c ****             }
 535:C:/Users/Yushev/git/wpcqi-optiga-trust-charge/optiga/optiga/comms/ifx_i2c\ifx_i2c_data_link_layer.c ****             break;
 1204              	 .loc 1 535 0
 1205 0272 E9E0     	 b .L57
 1206              	.L54:
 536:C:/Users/Yushev/git/wpcqi-optiga-trust-charge/optiga/optiga/comms/ifx_i2c\ifx_i2c_data_link_layer.c ****             case DL_STATE_RX_CF:
 537:C:/Users/Yushev/git/wpcqi-optiga-trust-charge/optiga/optiga/comms/ifx_i2c\ifx_i2c_data_link_layer.c ****             {
 538:C:/Users/Yushev/git/wpcqi-optiga-trust-charge/optiga/optiga/comms/ifx_i2c\ifx_i2c_data_link_layer.c ****                 LOG_DL("[IFX-DL]: Control Frame Received\n");
 539:C:/Users/Yushev/git/wpcqi-optiga-trust-charge/optiga/optiga/comms/ifx_i2c\ifx_i2c_data_link_layer.c ****                 // Except Re-Sync, Discard Control frame when in receiver mode
 540:C:/Users/Yushev/git/wpcqi-optiga-trust-charge/optiga/optiga/comms/ifx_i2c\ifx_i2c_data_link_layer.c ****                 // Discard Re-Sync in transmission mode
 541:C:/Users/Yushev/git/wpcqi-optiga-trust-charge/optiga/optiga/comms/ifx_i2c\ifx_i2c_data_link_layer.c ****                 //lint --e{514} suppress "Refer the above comment for the explaination of this chec
 542:C:/Users/Yushev/git/wpcqi-optiga-trust-charge/optiga/optiga/comms/ifx_i2c\ifx_i2c_data_link_layer.c ****                 if ((p_ctx->dl.action_rx_only) ^ (DL_FCTR_SEQCTR_VALUE_RESYNC == seqctr))
 1207              	 .loc 1 542 0
 1208 0274 FB68     	 ldr r3,[r7,#12]
 1209 0276 93F85B30 	 ldrb r3,[r3,#91]
 1210 027a 1A46     	 mov r2,r3
 1211 027c 7B7F     	 ldrb r3,[r7,#29]
 1212 027e 022B     	 cmp r3,#2
 1213 0280 0CBF     	 ite eq
 1214 0282 0123     	 moveq r3,#1
 1215 0284 0023     	 movne r3,#0
 1216 0286 DBB2     	 uxtb r3,r3
 1217 0288 9A42     	 cmp r2,r3
 1218 028a 04D0     	 beq .L70
 543:C:/Users/Yushev/git/wpcqi-optiga-trust-charge/optiga/optiga/comms/ifx_i2c\ifx_i2c_data_link_layer.c ****                 {
 544:C:/Users/Yushev/git/wpcqi-optiga-trust-charge/optiga/optiga/comms/ifx_i2c\ifx_i2c_data_link_layer.c ****                     //If control frame already received for data frame, ignore any received control
 545:C:/Users/Yushev/git/wpcqi-optiga-trust-charge/optiga/optiga/comms/ifx_i2c\ifx_i2c_data_link_layer.c ****                     LOG_DL("[IFX-DL]: CF in receiver mode,Discard\n");
 546:C:/Users/Yushev/git/wpcqi-optiga-trust-charge/optiga/optiga/comms/ifx_i2c\ifx_i2c_data_link_layer.c ****                     p_ctx->dl.state = DL_STATE_DISCARD;
 1219              	 .loc 1 546 0
 1220 028c FB68     	 ldr r3,[r7,#12]
 1221 028e 0922     	 movs r2,#9
 1222 0290 83F85820 	 strb r2,[r3,#88]
 547:C:/Users/Yushev/git/wpcqi-optiga-trust-charge/optiga/optiga/comms/ifx_i2c\ifx_i2c_data_link_layer.c ****                     break;
 1223              	 .loc 1 547 0
 1224 0294 D8E0     	 b .L57
 1225              	.L70:
 548:C:/Users/Yushev/git/wpcqi-optiga-trust-charge/optiga/optiga/comms/ifx_i2c\ifx_i2c_data_link_layer.c ****                 }
 549:C:/Users/Yushev/git/wpcqi-optiga-trust-charge/optiga/optiga/comms/ifx_i2c\ifx_i2c_data_link_layer.c ****                 if (crc_received != crc_calculated)
 1226              	 .loc 1 549 0
 1227 0296 3A8B     	 ldrh r2,[r7,#24]
 1228 0298 FB8A     	 ldrh r3,[r7,#22]
 1229 029a 9A42     	 cmp r2,r3
 1230 029c 04D0     	 beq .L71
 550:C:/Users/Yushev/git/wpcqi-optiga-trust-charge/optiga/optiga/comms/ifx_i2c\ifx_i2c_data_link_layer.c ****                 {
 551:C:/Users/Yushev/git/wpcqi-optiga-trust-charge/optiga/optiga/comms/ifx_i2c\ifx_i2c_data_link_layer.c ****                     // Re-Transmit frame in case of CF CRC error
 552:C:/Users/Yushev/git/wpcqi-optiga-trust-charge/optiga/optiga/comms/ifx_i2c\ifx_i2c_data_link_layer.c ****                     LOG_DL("[IFX-DL]: Retransmit frame for CF CRC error\n");
 553:C:/Users/Yushev/git/wpcqi-optiga-trust-charge/optiga/optiga/comms/ifx_i2c\ifx_i2c_data_link_layer.c ****                     p_ctx->dl.state = DL_STATE_RESEND;
 1231              	 .loc 1 553 0
 1232 029e FB68     	 ldr r3,[r7,#12]
 1233 02a0 0522     	 movs r2,#5
 1234 02a2 83F85820 	 strb r2,[r3,#88]
 554:C:/Users/Yushev/git/wpcqi-optiga-trust-charge/optiga/optiga/comms/ifx_i2c\ifx_i2c_data_link_layer.c ****                     break;
 1235              	 .loc 1 554 0
 1236 02a6 CFE0     	 b .L57
 1237              	.L71:
 555:C:/Users/Yushev/git/wpcqi-optiga-trust-charge/optiga/optiga/comms/ifx_i2c\ifx_i2c_data_link_layer.c ****                 }
 556:C:/Users/Yushev/git/wpcqi-optiga-trust-charge/optiga/optiga/comms/ifx_i2c\ifx_i2c_data_link_layer.c ****                 if ((data_len > DL_CONTROL_FRAME_LENGTH) || (0 != packet_len))
 1238              	 .loc 1 556 0
 1239 02a8 3B89     	 ldrh r3,[r7,#8]
 1240 02aa 052B     	 cmp r3,#5
 1241 02ac 02D8     	 bhi .L72
 1242              	 .loc 1 556 0 is_stmt 0 discriminator 1
 1243 02ae 7B8B     	 ldrh r3,[r7,#26]
 1244 02b0 002B     	 cmp r3,#0
 1245 02b2 04D0     	 beq .L73
 1246              	.L72:
 557:C:/Users/Yushev/git/wpcqi-optiga-trust-charge/optiga/optiga/comms/ifx_i2c\ifx_i2c_data_link_layer.c ****                 {
 558:C:/Users/Yushev/git/wpcqi-optiga-trust-charge/optiga/optiga/comms/ifx_i2c\ifx_i2c_data_link_layer.c ****                     // Control frame is more than 5/Control frame with non-zero FRNR/packet len is 
 559:C:/Users/Yushev/git/wpcqi-optiga-trust-charge/optiga/optiga/comms/ifx_i2c\ifx_i2c_data_link_layer.c ****                     LOG_DL("[IFX-DL]: Errors in control frame\n");
 560:C:/Users/Yushev/git/wpcqi-optiga-trust-charge/optiga/optiga/comms/ifx_i2c\ifx_i2c_data_link_layer.c ****                     p_ctx->dl.state = DL_STATE_DISCARD;
 1247              	 .loc 1 560 0 is_stmt 1
 1248 02b4 FB68     	 ldr r3,[r7,#12]
 1249 02b6 0922     	 movs r2,#9
 1250 02b8 83F85820 	 strb r2,[r3,#88]
 561:C:/Users/Yushev/git/wpcqi-optiga-trust-charge/optiga/optiga/comms/ifx_i2c\ifx_i2c_data_link_layer.c ****                     break;
 1251              	 .loc 1 561 0
 1252 02bc C4E0     	 b .L57
 1253              	.L73:
 562:C:/Users/Yushev/git/wpcqi-optiga-trust-charge/optiga/optiga/comms/ifx_i2c\ifx_i2c_data_link_layer.c ****                 }
 563:C:/Users/Yushev/git/wpcqi-optiga-trust-charge/optiga/optiga/comms/ifx_i2c\ifx_i2c_data_link_layer.c ****                 if (DL_FCTR_SEQCTR_VALUE_RESYNC == seqctr)
 1254              	 .loc 1 563 0
 1255 02be 7B7F     	 ldrb r3,[r7,#29]
 1256 02c0 022B     	 cmp r3,#2
 1257 02c2 10D1     	 bne .L74
 564:C:/Users/Yushev/git/wpcqi-optiga-trust-charge/optiga/optiga/comms/ifx_i2c\ifx_i2c_data_link_layer.c ****                 {    // Re-sync received
 565:C:/Users/Yushev/git/wpcqi-optiga-trust-charge/optiga/optiga/comms/ifx_i2c\ifx_i2c_data_link_layer.c ****                     LOG_DL("[IFX-DL]: Re-Sync received\n");
 566:C:/Users/Yushev/git/wpcqi-optiga-trust-charge/optiga/optiga/comms/ifx_i2c\ifx_i2c_data_link_layer.c ****                     p_ctx->dl.state = DL_STATE_DISCARD;
 1258              	 .loc 1 566 0
 1259 02c4 FB68     	 ldr r3,[r7,#12]
 1260 02c6 0922     	 movs r2,#9
 1261 02c8 83F85820 	 strb r2,[r3,#88]
 567:C:/Users/Yushev/git/wpcqi-optiga-trust-charge/optiga/optiga/comms/ifx_i2c\ifx_i2c_data_link_layer.c ****                     p_ctx->dl.resynced = 1;
 1262              	 .loc 1 567 0
 1263 02cc FB68     	 ldr r3,[r7,#12]
 1264 02ce 0122     	 movs r2,#1
 1265 02d0 83F85E20 	 strb r2,[r3,#94]
 568:C:/Users/Yushev/git/wpcqi-optiga-trust-charge/optiga/optiga/comms/ifx_i2c\ifx_i2c_data_link_layer.c ****                     p_ctx->dl.tx_seq_nr = DL_MAX_FRAME_NUM;
 1266              	 .loc 1 568 0
 1267 02d4 FB68     	 ldr r3,[r7,#12]
 1268 02d6 0322     	 movs r2,#3
 1269 02d8 83F85920 	 strb r2,[r3,#89]
 569:C:/Users/Yushev/git/wpcqi-optiga-trust-charge/optiga/optiga/comms/ifx_i2c\ifx_i2c_data_link_layer.c ****                     p_ctx->dl.rx_seq_nr = DL_MAX_FRAME_NUM;
 1270              	 .loc 1 569 0
 1271 02dc FB68     	 ldr r3,[r7,#12]
 1272 02de 0322     	 movs r2,#3
 1273 02e0 83F85A20 	 strb r2,[r3,#90]
 570:C:/Users/Yushev/git/wpcqi-optiga-trust-charge/optiga/optiga/comms/ifx_i2c\ifx_i2c_data_link_layer.c ****                     break;
 1274              	 .loc 1 570 0
 1275 02e4 B0E0     	 b .L57
 1276              	.L74:
 571:C:/Users/Yushev/git/wpcqi-optiga-trust-charge/optiga/optiga/comms/ifx_i2c\ifx_i2c_data_link_layer.c ****                 }
 572:C:/Users/Yushev/git/wpcqi-optiga-trust-charge/optiga/optiga/comms/ifx_i2c\ifx_i2c_data_link_layer.c ****                 if ((0 != fr_nr) || (DL_FCTR_SEQCTR_VALUE_RFU == seqctr) || (ack_nr != p_ctx->dl.tx
 1277              	 .loc 1 572 0
 1278 02e6 FB7F     	 ldrb r3,[r7,#31]
 1279 02e8 002B     	 cmp r3,#0
 1280 02ea 08D1     	 bne .L75
 1281              	 .loc 1 572 0 is_stmt 0 discriminator 1
 1282 02ec 7B7F     	 ldrb r3,[r7,#29]
 1283 02ee 032B     	 cmp r3,#3
 1284 02f0 05D0     	 beq .L75
 1285              	 .loc 1 572 0 discriminator 2
 1286 02f2 FB68     	 ldr r3,[r7,#12]
 1287 02f4 93F85930 	 ldrb r3,[r3,#89]
 1288 02f8 BA7F     	 ldrb r2,[r7,#30]
 1289 02fa 9A42     	 cmp r2,r3
 1290 02fc 04D0     	 beq .L76
 1291              	.L75:
 573:C:/Users/Yushev/git/wpcqi-optiga-trust-charge/optiga/optiga/comms/ifx_i2c\ifx_i2c_data_link_layer.c ****                 {
 574:C:/Users/Yushev/git/wpcqi-optiga-trust-charge/optiga/optiga/comms/ifx_i2c\ifx_i2c_data_link_layer.c ****                     // Control frame with non-zero FRNR/ ACK not received/ ack number != tx number
 575:C:/Users/Yushev/git/wpcqi-optiga-trust-charge/optiga/optiga/comms/ifx_i2c\ifx_i2c_data_link_layer.c ****                     LOG_DL("[IFX-DL]: Errors in control frame\n");
 576:C:/Users/Yushev/git/wpcqi-optiga-trust-charge/optiga/optiga/comms/ifx_i2c\ifx_i2c_data_link_layer.c ****                     p_ctx->dl.state = DL_STATE_DISCARD;
 1292              	 .loc 1 576 0 is_stmt 1
 1293 02fe FB68     	 ldr r3,[r7,#12]
 1294 0300 0922     	 movs r2,#9
 1295 0302 83F85820 	 strb r2,[r3,#88]
 577:C:/Users/Yushev/git/wpcqi-optiga-trust-charge/optiga/optiga/comms/ifx_i2c\ifx_i2c_data_link_layer.c ****                     break;
 1296              	 .loc 1 577 0
 1297 0306 9FE0     	 b .L57
 1298              	.L76:
 578:C:/Users/Yushev/git/wpcqi-optiga-trust-charge/optiga/optiga/comms/ifx_i2c\ifx_i2c_data_link_layer.c ****                 }
 579:C:/Users/Yushev/git/wpcqi-optiga-trust-charge/optiga/optiga/comms/ifx_i2c\ifx_i2c_data_link_layer.c ****                 if (DL_FCTR_SEQCTR_VALUE_NACK == seqctr)
 1299              	 .loc 1 579 0
 1300 0308 7B7F     	 ldrb r3,[r7,#29]
 1301 030a 012B     	 cmp r3,#1
 1302 030c 04D1     	 bne .L77
 580:C:/Users/Yushev/git/wpcqi-optiga-trust-charge/optiga/optiga/comms/ifx_i2c\ifx_i2c_data_link_layer.c ****                 {
 581:C:/Users/Yushev/git/wpcqi-optiga-trust-charge/optiga/optiga/comms/ifx_i2c\ifx_i2c_data_link_layer.c ****                     // NACK for transmitted frame
 582:C:/Users/Yushev/git/wpcqi-optiga-trust-charge/optiga/optiga/comms/ifx_i2c\ifx_i2c_data_link_layer.c ****                     LOG_DL("[IFX-DL]: NACK received\n");
 583:C:/Users/Yushev/git/wpcqi-optiga-trust-charge/optiga/optiga/comms/ifx_i2c\ifx_i2c_data_link_layer.c ****                     p_ctx->dl.state = DL_STATE_RESEND;
 1303              	 .loc 1 583 0
 1304 030e FB68     	 ldr r3,[r7,#12]
 1305 0310 0522     	 movs r2,#5
 1306 0312 83F85820 	 strb r2,[r3,#88]
 584:C:/Users/Yushev/git/wpcqi-optiga-trust-charge/optiga/optiga/comms/ifx_i2c\ifx_i2c_data_link_layer.c ****                     break;
 1307              	 .loc 1 584 0
 1308 0316 97E0     	 b .L57
 1309              	.L77:
 585:C:/Users/Yushev/git/wpcqi-optiga-trust-charge/optiga/optiga/comms/ifx_i2c\ifx_i2c_data_link_layer.c ****                 }
 586:C:/Users/Yushev/git/wpcqi-optiga-trust-charge/optiga/optiga/comms/ifx_i2c\ifx_i2c_data_link_layer.c **** 
 587:C:/Users/Yushev/git/wpcqi-optiga-trust-charge/optiga/optiga/comms/ifx_i2c\ifx_i2c_data_link_layer.c ****                 LOG_DL("[IFX-DL]: ACK received\n");
 588:C:/Users/Yushev/git/wpcqi-optiga-trust-charge/optiga/optiga/comms/ifx_i2c\ifx_i2c_data_link_layer.c ****                 // Report frame reception to upper layer and go in idle state
 589:C:/Users/Yushev/git/wpcqi-optiga-trust-charge/optiga/optiga/comms/ifx_i2c\ifx_i2c_data_link_layer.c ****                 p_ctx->dl.state = DL_STATE_IDLE;
 1310              	 .loc 1 589 0
 1311 0318 FB68     	 ldr r3,[r7,#12]
 1312 031a 0122     	 movs r2,#1
 1313 031c 83F85820 	 strb r2,[r3,#88]
 590:C:/Users/Yushev/git/wpcqi-optiga-trust-charge/optiga/optiga/comms/ifx_i2c\ifx_i2c_data_link_layer.c ****                 continue_state_machine = FALSE;
 1314              	 .loc 1 590 0
 1315 0320 0023     	 movs r3,#0
 1316 0322 3B77     	 strb r3,[r7,#28]
 591:C:/Users/Yushev/git/wpcqi-optiga-trust-charge/optiga/optiga/comms/ifx_i2c\ifx_i2c_data_link_layer.c ****                 p_ctx->dl.upper_layer_event_handler(p_ctx, IFX_I2C_DL_EVENT_TX_SUCCESS, 0, 0);
 1317              	 .loc 1 591 0
 1318 0324 FB68     	 ldr r3,[r7,#12]
 1319 0326 5C6F     	 ldr r4,[r3,#116]
 1320 0328 F868     	 ldr r0,[r7,#12]
 1321 032a 0221     	 movs r1,#2
 1322 032c 0022     	 movs r2,#0
 1323 032e 0023     	 movs r3,#0
 1324 0330 A047     	 blx r4
 592:C:/Users/Yushev/git/wpcqi-optiga-trust-charge/optiga/optiga/comms/ifx_i2c\ifx_i2c_data_link_layer.c ****             }
 593:C:/Users/Yushev/git/wpcqi-optiga-trust-charge/optiga/optiga/comms/ifx_i2c\ifx_i2c_data_link_layer.c ****             break;
 1325              	 .loc 1 593 0
 1326 0332 89E0     	 b .L57
 1327              	.L52:
 594:C:/Users/Yushev/git/wpcqi-optiga-trust-charge/optiga/optiga/comms/ifx_i2c\ifx_i2c_data_link_layer.c ****             case DL_STATE_DISCARD:
 595:C:/Users/Yushev/git/wpcqi-optiga-trust-charge/optiga/optiga/comms/ifx_i2c\ifx_i2c_data_link_layer.c ****             {
 596:C:/Users/Yushev/git/wpcqi-optiga-trust-charge/optiga/optiga/comms/ifx_i2c\ifx_i2c_data_link_layer.c ****                 LOG_DL("[IFX-DL]: Discard frame\n");
 597:C:/Users/Yushev/git/wpcqi-optiga-trust-charge/optiga/optiga/comms/ifx_i2c\ifx_i2c_data_link_layer.c ****                 p_ctx->dl.state = DL_STATE_RX;
 1328              	 .loc 1 597 0
 1329 0334 FB68     	 ldr r3,[r7,#12]
 1330 0336 0322     	 movs r2,#3
 1331 0338 83F85820 	 strb r2,[r3,#88]
 598:C:/Users/Yushev/git/wpcqi-optiga-trust-charge/optiga/optiga/comms/ifx_i2c\ifx_i2c_data_link_layer.c ****                 continue_state_machine = FALSE;
 1332              	 .loc 1 598 0
 1333 033c 0023     	 movs r3,#0
 1334 033e 3B77     	 strb r3,[r7,#28]
 599:C:/Users/Yushev/git/wpcqi-optiga-trust-charge/optiga/optiga/comms/ifx_i2c\ifx_i2c_data_link_layer.c ****                 //lint --e{534} suppress "Error handling is not required so return value is not che
 600:C:/Users/Yushev/git/wpcqi-optiga-trust-charge/optiga/optiga/comms/ifx_i2c\ifx_i2c_data_link_layer.c ****                 ifx_i2c_pl_receive_frame(p_ctx);
 1335              	 .loc 1 600 0
 1336 0340 F868     	 ldr r0,[r7,#12]
 1337 0342 FFF7FEFF 	 bl ifx_i2c_pl_receive_frame
 601:C:/Users/Yushev/git/wpcqi-optiga-trust-charge/optiga/optiga/comms/ifx_i2c\ifx_i2c_data_link_layer.c ****             }
 602:C:/Users/Yushev/git/wpcqi-optiga-trust-charge/optiga/optiga/comms/ifx_i2c\ifx_i2c_data_link_layer.c ****             break;
 1338              	 .loc 1 602 0
 1339 0346 7FE0     	 b .L57
 1340              	.L48:
 603:C:/Users/Yushev/git/wpcqi-optiga-trust-charge/optiga/optiga/comms/ifx_i2c\ifx_i2c_data_link_layer.c ****             case DL_STATE_ACK:
 604:C:/Users/Yushev/git/wpcqi-optiga-trust-charge/optiga/optiga/comms/ifx_i2c\ifx_i2c_data_link_layer.c ****             {
 605:C:/Users/Yushev/git/wpcqi-optiga-trust-charge/optiga/optiga/comms/ifx_i2c\ifx_i2c_data_link_layer.c ****                 LOG_DL("[IFX-DL]: ACK sent\n");
 606:C:/Users/Yushev/git/wpcqi-optiga-trust-charge/optiga/optiga/comms/ifx_i2c\ifx_i2c_data_link_layer.c ****                 if (IFX_I2C_STACK_ERROR == event)
 1341              	 .loc 1 606 0
 1342 0348 7B89     	 ldrh r3,[r7,#10]
 1343 034a B3F5817F 	 cmp r3,#258
 1344 034e 04D1     	 bne .L78
 607:C:/Users/Yushev/git/wpcqi-optiga-trust-charge/optiga/optiga/comms/ifx_i2c\ifx_i2c_data_link_layer.c ****                 {
 608:C:/Users/Yushev/git/wpcqi-optiga-trust-charge/optiga/optiga/comms/ifx_i2c\ifx_i2c_data_link_layer.c ****                     // If writing the ACK frame failed, Re-Send
 609:C:/Users/Yushev/git/wpcqi-optiga-trust-charge/optiga/optiga/comms/ifx_i2c\ifx_i2c_data_link_layer.c ****                     LOG_DL("[IFX-DL]: Physical Layer error -> Resend ACK\n");
 610:C:/Users/Yushev/git/wpcqi-optiga-trust-charge/optiga/optiga/comms/ifx_i2c\ifx_i2c_data_link_layer.c ****                     p_ctx->dl.state = DL_STATE_RESEND;
 1345              	 .loc 1 610 0
 1346 0350 FB68     	 ldr r3,[r7,#12]
 1347 0352 0522     	 movs r2,#5
 1348 0354 83F85820 	 strb r2,[r3,#88]
 611:C:/Users/Yushev/git/wpcqi-optiga-trust-charge/optiga/optiga/comms/ifx_i2c\ifx_i2c_data_link_layer.c ****                     break;
 1349              	 .loc 1 611 0
 1350 0358 76E0     	 b .L57
 1351              	.L78:
 612:C:/Users/Yushev/git/wpcqi-optiga-trust-charge/optiga/optiga/comms/ifx_i2c\ifx_i2c_data_link_layer.c ****                 }
 613:C:/Users/Yushev/git/wpcqi-optiga-trust-charge/optiga/optiga/comms/ifx_i2c\ifx_i2c_data_link_layer.c ****                 // Control frame successful transmitted
 614:C:/Users/Yushev/git/wpcqi-optiga-trust-charge/optiga/optiga/comms/ifx_i2c\ifx_i2c_data_link_layer.c ****                 p_ctx->dl.state = DL_STATE_IDLE;
 1352              	 .loc 1 614 0
 1353 035a FB68     	 ldr r3,[r7,#12]
 1354 035c 0122     	 movs r2,#1
 1355 035e 83F85820 	 strb r2,[r3,#88]
 615:C:/Users/Yushev/git/wpcqi-optiga-trust-charge/optiga/optiga/comms/ifx_i2c\ifx_i2c_data_link_layer.c ****                 continue_state_machine = FALSE;
 1356              	 .loc 1 615 0
 1357 0362 0023     	 movs r3,#0
 1358 0364 3B77     	 strb r3,[r7,#28]
 616:C:/Users/Yushev/git/wpcqi-optiga-trust-charge/optiga/optiga/comms/ifx_i2c\ifx_i2c_data_link_layer.c ****                 if (0 != p_ctx->dl.action_rx_only)
 1359              	 .loc 1 616 0
 1360 0366 FB68     	 ldr r3,[r7,#12]
 1361 0368 93F85B30 	 ldrb r3,[r3,#91]
 1362 036c 002B     	 cmp r3,#0
 1363 036e 0DD0     	 beq .L79
 617:C:/Users/Yushev/git/wpcqi-optiga-trust-charge/optiga/optiga/comms/ifx_i2c\ifx_i2c_data_link_layer.c ****                 {
 618:C:/Users/Yushev/git/wpcqi-optiga-trust-charge/optiga/optiga/comms/ifx_i2c\ifx_i2c_data_link_layer.c ****                     p_ctx->dl.upper_layer_event_handler(p_ctx,
 1364              	 .loc 1 618 0
 1365 0370 FB68     	 ldr r3,[r7,#12]
 1366 0372 5C6F     	 ldr r4,[r3,#116]
 619:C:/Users/Yushev/git/wpcqi-optiga-trust-charge/optiga/optiga/comms/ifx_i2c\ifx_i2c_data_link_layer.c ****                                                         IFX_I2C_DL_EVENT_RX_SUCCESS,
 620:C:/Users/Yushev/git/wpcqi-optiga-trust-charge/optiga/optiga/comms/ifx_i2c\ifx_i2c_data_link_layer.c ****                                                         p_ctx->dl.p_rx_frame_buffer + 3,
 1367              	 .loc 1 620 0
 1368 0374 FB68     	 ldr r3,[r7,#12]
 1369 0376 DB6E     	 ldr r3,[r3,#108]
 618:C:/Users/Yushev/git/wpcqi-optiga-trust-charge/optiga/optiga/comms/ifx_i2c\ifx_i2c_data_link_layer.c ****                                                         IFX_I2C_DL_EVENT_RX_SUCCESS,
 1370              	 .loc 1 618 0
 1371 0378 DA1C     	 adds r2,r3,#3
 621:C:/Users/Yushev/git/wpcqi-optiga-trust-charge/optiga/optiga/comms/ifx_i2c\ifx_i2c_data_link_layer.c ****                                                         p_ctx->dl.rx_buffer_size - DL_HEADER_SIZE);
 1372              	 .loc 1 621 0
 1373 037a FB68     	 ldr r3,[r7,#12]
 1374 037c B3F86630 	 ldrh r3,[r3,#102]
 618:C:/Users/Yushev/git/wpcqi-optiga-trust-charge/optiga/optiga/comms/ifx_i2c\ifx_i2c_data_link_layer.c ****                                                         IFX_I2C_DL_EVENT_RX_SUCCESS,
 1375              	 .loc 1 618 0
 1376 0380 053B     	 subs r3,r3,#5
 1377 0382 9BB2     	 uxth r3,r3
 1378 0384 F868     	 ldr r0,[r7,#12]
 1379 0386 0421     	 movs r1,#4
 1380 0388 A047     	 blx r4
 622:C:/Users/Yushev/git/wpcqi-optiga-trust-charge/optiga/optiga/comms/ifx_i2c\ifx_i2c_data_link_layer.c ****                 }
 623:C:/Users/Yushev/git/wpcqi-optiga-trust-charge/optiga/optiga/comms/ifx_i2c\ifx_i2c_data_link_layer.c ****                 else
 624:C:/Users/Yushev/git/wpcqi-optiga-trust-charge/optiga/optiga/comms/ifx_i2c\ifx_i2c_data_link_layer.c ****                 {
 625:C:/Users/Yushev/git/wpcqi-optiga-trust-charge/optiga/optiga/comms/ifx_i2c\ifx_i2c_data_link_layer.c ****                     p_ctx->dl.upper_layer_event_handler(p_ctx,
 626:C:/Users/Yushev/git/wpcqi-optiga-trust-charge/optiga/optiga/comms/ifx_i2c\ifx_i2c_data_link_layer.c ****                                                         IFX_I2C_DL_EVENT_TX_SUCCESS | IFX_I2C_DL_EV
 627:C:/Users/Yushev/git/wpcqi-optiga-trust-charge/optiga/optiga/comms/ifx_i2c\ifx_i2c_data_link_layer.c ****                                                         p_ctx->dl.p_rx_frame_buffer + 3,
 628:C:/Users/Yushev/git/wpcqi-optiga-trust-charge/optiga/optiga/comms/ifx_i2c\ifx_i2c_data_link_layer.c ****                                                         p_ctx->dl.rx_buffer_size - DL_HEADER_SIZE);
 629:C:/Users/Yushev/git/wpcqi-optiga-trust-charge/optiga/optiga/comms/ifx_i2c\ifx_i2c_data_link_layer.c ****                 }
 630:C:/Users/Yushev/git/wpcqi-optiga-trust-charge/optiga/optiga/comms/ifx_i2c\ifx_i2c_data_link_layer.c ****             }
 631:C:/Users/Yushev/git/wpcqi-optiga-trust-charge/optiga/optiga/comms/ifx_i2c\ifx_i2c_data_link_layer.c ****             break;
 1381              	 .loc 1 631 0
 1382 038a 5DE0     	 b .L57
 1383              	.L79:
 625:C:/Users/Yushev/git/wpcqi-optiga-trust-charge/optiga/optiga/comms/ifx_i2c\ifx_i2c_data_link_layer.c ****                                                         IFX_I2C_DL_EVENT_TX_SUCCESS | IFX_I2C_DL_EV
 1384              	 .loc 1 625 0
 1385 038c FB68     	 ldr r3,[r7,#12]
 1386 038e 5C6F     	 ldr r4,[r3,#116]
 627:C:/Users/Yushev/git/wpcqi-optiga-trust-charge/optiga/optiga/comms/ifx_i2c\ifx_i2c_data_link_layer.c ****                                                         p_ctx->dl.rx_buffer_size - DL_HEADER_SIZE);
 1387              	 .loc 1 627 0
 1388 0390 FB68     	 ldr r3,[r7,#12]
 1389 0392 DB6E     	 ldr r3,[r3,#108]
 625:C:/Users/Yushev/git/wpcqi-optiga-trust-charge/optiga/optiga/comms/ifx_i2c\ifx_i2c_data_link_layer.c ****                                                         IFX_I2C_DL_EVENT_TX_SUCCESS | IFX_I2C_DL_EV
 1390              	 .loc 1 625 0
 1391 0394 DA1C     	 adds r2,r3,#3
 628:C:/Users/Yushev/git/wpcqi-optiga-trust-charge/optiga/optiga/comms/ifx_i2c\ifx_i2c_data_link_layer.c ****                 }
 1392              	 .loc 1 628 0
 1393 0396 FB68     	 ldr r3,[r7,#12]
 1394 0398 B3F86630 	 ldrh r3,[r3,#102]
 625:C:/Users/Yushev/git/wpcqi-optiga-trust-charge/optiga/optiga/comms/ifx_i2c\ifx_i2c_data_link_layer.c ****                                                         IFX_I2C_DL_EVENT_TX_SUCCESS | IFX_I2C_DL_EV
 1395              	 .loc 1 625 0
 1396 039c 053B     	 subs r3,r3,#5
 1397 039e 9BB2     	 uxth r3,r3
 1398 03a0 F868     	 ldr r0,[r7,#12]
 1399 03a2 0621     	 movs r1,#6
 1400 03a4 A047     	 blx r4
 1401              	 .loc 1 631 0
 1402 03a6 4FE0     	 b .L57
 1403              	.L50:
 632:C:/Users/Yushev/git/wpcqi-optiga-trust-charge/optiga/optiga/comms/ifx_i2c\ifx_i2c_data_link_layer.c ****             case DL_STATE_NACK:
 633:C:/Users/Yushev/git/wpcqi-optiga-trust-charge/optiga/optiga/comms/ifx_i2c\ifx_i2c_data_link_layer.c ****             {
 634:C:/Users/Yushev/git/wpcqi-optiga-trust-charge/optiga/optiga/comms/ifx_i2c\ifx_i2c_data_link_layer.c ****                 // Sending NACK
 635:C:/Users/Yushev/git/wpcqi-optiga-trust-charge/optiga/optiga/comms/ifx_i2c\ifx_i2c_data_link_layer.c ****                 LOG_DL("[IFX-DL]: Sending NACK\n");
 636:C:/Users/Yushev/git/wpcqi-optiga-trust-charge/optiga/optiga/comms/ifx_i2c\ifx_i2c_data_link_layer.c ****                 p_ctx->dl.state = DL_STATE_TX;
 1404              	 .loc 1 636 0
 1405 03a8 FB68     	 ldr r3,[r7,#12]
 1406 03aa 0222     	 movs r2,#2
 1407 03ac 83F85820 	 strb r2,[r3,#88]
 637:C:/Users/Yushev/git/wpcqi-optiga-trust-charge/optiga/optiga/comms/ifx_i2c\ifx_i2c_data_link_layer.c ****                 continue_state_machine = FALSE;
 1408              	 .loc 1 637 0
 1409 03b0 0023     	 movs r3,#0
 1410 03b2 3B77     	 strb r3,[r7,#28]
 638:C:/Users/Yushev/git/wpcqi-optiga-trust-charge/optiga/optiga/comms/ifx_i2c\ifx_i2c_data_link_layer.c ****                 //lint --e{534} suppress "Error handling is not required so return value is not che
 639:C:/Users/Yushev/git/wpcqi-optiga-trust-charge/optiga/optiga/comms/ifx_i2c\ifx_i2c_data_link_layer.c ****                 ifx_i2c_dl_send_frame_internal(p_ctx, 0, DL_FCTR_SEQCTR_VALUE_NACK, 0);
 1411              	 .loc 1 639 0
 1412 03b4 F868     	 ldr r0,[r7,#12]
 1413 03b6 0021     	 movs r1,#0
 1414 03b8 0122     	 movs r2,#1
 1415 03ba 0023     	 movs r3,#0
 1416 03bc FFF7FEFF 	 bl ifx_i2c_dl_send_frame_internal
 640:C:/Users/Yushev/git/wpcqi-optiga-trust-charge/optiga/optiga/comms/ifx_i2c\ifx_i2c_data_link_layer.c ****             }
 641:C:/Users/Yushev/git/wpcqi-optiga-trust-charge/optiga/optiga/comms/ifx_i2c\ifx_i2c_data_link_layer.c ****             break;
 1417              	 .loc 1 641 0
 1418 03c0 42E0     	 b .L57
 1419              	.L49:
 642:C:/Users/Yushev/git/wpcqi-optiga-trust-charge/optiga/optiga/comms/ifx_i2c\ifx_i2c_data_link_layer.c ****             case DL_STATE_RESEND:
 643:C:/Users/Yushev/git/wpcqi-optiga-trust-charge/optiga/optiga/comms/ifx_i2c\ifx_i2c_data_link_layer.c ****             {
 644:C:/Users/Yushev/git/wpcqi-optiga-trust-charge/optiga/optiga/comms/ifx_i2c\ifx_i2c_data_link_layer.c ****                 //Resend frame
 645:C:/Users/Yushev/git/wpcqi-optiga-trust-charge/optiga/optiga/comms/ifx_i2c\ifx_i2c_data_link_layer.c ****                 ifx_i2c_dl_resend_frame(p_ctx, DL_FCTR_SEQCTR_VALUE_ACK);
 1420              	 .loc 1 645 0
 1421 03c2 F868     	 ldr r0,[r7,#12]
 1422 03c4 0021     	 movs r1,#0
 1423 03c6 FFF7FEFF 	 bl ifx_i2c_dl_resend_frame
 646:C:/Users/Yushev/git/wpcqi-optiga-trust-charge/optiga/optiga/comms/ifx_i2c\ifx_i2c_data_link_layer.c ****                 if (DL_STATE_ERROR != p_ctx->dl.state)
 1424              	 .loc 1 646 0
 1425 03ca FB68     	 ldr r3,[r7,#12]
 1426 03cc 93F85830 	 ldrb r3,[r3,#88]
 1427 03d0 082B     	 cmp r3,#8
 1428 03d2 02D0     	 beq .L81
 647:C:/Users/Yushev/git/wpcqi-optiga-trust-charge/optiga/optiga/comms/ifx_i2c\ifx_i2c_data_link_layer.c ****                 {
 648:C:/Users/Yushev/git/wpcqi-optiga-trust-charge/optiga/optiga/comms/ifx_i2c\ifx_i2c_data_link_layer.c ****                     continue_state_machine = FALSE;
 1429              	 .loc 1 648 0
 1430 03d4 0023     	 movs r3,#0
 1431 03d6 3B77     	 strb r3,[r7,#28]
 649:C:/Users/Yushev/git/wpcqi-optiga-trust-charge/optiga/optiga/comms/ifx_i2c\ifx_i2c_data_link_layer.c ****                 }
 650:C:/Users/Yushev/git/wpcqi-optiga-trust-charge/optiga/optiga/comms/ifx_i2c\ifx_i2c_data_link_layer.c ****             }
 651:C:/Users/Yushev/git/wpcqi-optiga-trust-charge/optiga/optiga/comms/ifx_i2c\ifx_i2c_data_link_layer.c ****             break;
 1432              	 .loc 1 651 0
 1433 03d8 36E0     	 b .L57
 1434              	.L81:
 1435 03da 35E0     	 b .L57
 1436              	.L51:
 652:C:/Users/Yushev/git/wpcqi-optiga-trust-charge/optiga/optiga/comms/ifx_i2c\ifx_i2c_data_link_layer.c ****             case DL_STATE_ERROR:
 653:C:/Users/Yushev/git/wpcqi-optiga-trust-charge/optiga/optiga/comms/ifx_i2c\ifx_i2c_data_link_layer.c ****             {
 654:C:/Users/Yushev/git/wpcqi-optiga-trust-charge/optiga/optiga/comms/ifx_i2c\ifx_i2c_data_link_layer.c ****                 if (0 == p_ctx->dl.resynced)
 1437              	 .loc 1 654 0
 1438 03dc FB68     	 ldr r3,[r7,#12]
 1439 03de 93F85E30 	 ldrb r3,[r3,#94]
 1440 03e2 002B     	 cmp r3,#0
 1441 03e4 03D1     	 bne .L82
 655:C:/Users/Yushev/git/wpcqi-optiga-trust-charge/optiga/optiga/comms/ifx_i2c\ifx_i2c_data_link_layer.c ****                 {
 656:C:/Users/Yushev/git/wpcqi-optiga-trust-charge/optiga/optiga/comms/ifx_i2c\ifx_i2c_data_link_layer.c ****                     p_ctx->dl.error = 1;
 1442              	 .loc 1 656 0
 1443 03e6 FB68     	 ldr r3,[r7,#12]
 1444 03e8 0122     	 movs r2,#1
 1445 03ea 83F85D20 	 strb r2,[r3,#93]
 1446              	.L82:
 657:C:/Users/Yushev/git/wpcqi-optiga-trust-charge/optiga/optiga/comms/ifx_i2c\ifx_i2c_data_link_layer.c ****                 }
 658:C:/Users/Yushev/git/wpcqi-optiga-trust-charge/optiga/optiga/comms/ifx_i2c\ifx_i2c_data_link_layer.c ****                 if (0 == p_ctx->dl.error)
 1447              	 .loc 1 658 0
 1448 03ee FB68     	 ldr r3,[r7,#12]
 1449 03f0 93F85D30 	 ldrb r3,[r3,#93]
 1450 03f4 002B     	 cmp r3,#0
 1451 03f6 0BD1     	 bne .L83
 659:C:/Users/Yushev/git/wpcqi-optiga-trust-charge/optiga/optiga/comms/ifx_i2c\ifx_i2c_data_link_layer.c ****                 {
 660:C:/Users/Yushev/git/wpcqi-optiga-trust-charge/optiga/optiga/comms/ifx_i2c\ifx_i2c_data_link_layer.c ****                     LOG_DL("[IFX-DL]: Exit error after fatal error\n");
 661:C:/Users/Yushev/git/wpcqi-optiga-trust-charge/optiga/optiga/comms/ifx_i2c\ifx_i2c_data_link_layer.c ****                     //After sending resync, inform upper layer
 662:C:/Users/Yushev/git/wpcqi-optiga-trust-charge/optiga/optiga/comms/ifx_i2c\ifx_i2c_data_link_layer.c ****                     p_ctx->dl.state = DL_STATE_IDLE;
 1452              	 .loc 1 662 0
 1453 03f8 FB68     	 ldr r3,[r7,#12]
 1454 03fa 0122     	 movs r2,#1
 1455 03fc 83F85820 	 strb r2,[r3,#88]
 663:C:/Users/Yushev/git/wpcqi-optiga-trust-charge/optiga/optiga/comms/ifx_i2c\ifx_i2c_data_link_layer.c ****                     p_ctx->dl.upper_layer_event_handler(p_ctx, IFX_I2C_DL_EVENT_ERROR, 0, 0);
 1456              	 .loc 1 663 0
 1457 0400 FB68     	 ldr r3,[r7,#12]
 1458 0402 5C6F     	 ldr r4,[r3,#116]
 1459 0404 F868     	 ldr r0,[r7,#12]
 1460 0406 0121     	 movs r1,#1
 1461 0408 0022     	 movs r2,#0
 1462 040a 0023     	 movs r3,#0
 1463 040c A047     	 blx r4
 1464 040e 0AE0     	 b .L84
 1465              	.L83:
 664:C:/Users/Yushev/git/wpcqi-optiga-trust-charge/optiga/optiga/comms/ifx_i2c\ifx_i2c_data_link_layer.c ****                 }
 665:C:/Users/Yushev/git/wpcqi-optiga-trust-charge/optiga/optiga/comms/ifx_i2c\ifx_i2c_data_link_layer.c ****                 else
 666:C:/Users/Yushev/git/wpcqi-optiga-trust-charge/optiga/optiga/comms/ifx_i2c\ifx_i2c_data_link_layer.c ****                 {
 667:C:/Users/Yushev/git/wpcqi-optiga-trust-charge/optiga/optiga/comms/ifx_i2c\ifx_i2c_data_link_layer.c ****                     LOG_DL("[IFX-DL]: Sending re-sync after fatal error\n");
 668:C:/Users/Yushev/git/wpcqi-optiga-trust-charge/optiga/optiga/comms/ifx_i2c\ifx_i2c_data_link_layer.c ****                     // Send re-sync to slave on error
 669:C:/Users/Yushev/git/wpcqi-optiga-trust-charge/optiga/optiga/comms/ifx_i2c\ifx_i2c_data_link_layer.c ****                     //lint --e{534} suppress "As this is last step, no effect of checking return co
 670:C:/Users/Yushev/git/wpcqi-optiga-trust-charge/optiga/optiga/comms/ifx_i2c\ifx_i2c_data_link_layer.c ****                     ifx_i2c_dl_resync(p_ctx);
 1466              	 .loc 1 670 0
 1467 0410 F868     	 ldr r0,[r7,#12]
 1468 0412 FFF7FEFF 	 bl ifx_i2c_dl_resync
 671:C:/Users/Yushev/git/wpcqi-optiga-trust-charge/optiga/optiga/comms/ifx_i2c\ifx_i2c_data_link_layer.c ****                     p_ctx->dl.state = DL_STATE_ERROR;
 1469              	 .loc 1 671 0
 1470 0416 FB68     	 ldr r3,[r7,#12]
 1471 0418 0822     	 movs r2,#8
 1472 041a 83F85820 	 strb r2,[r3,#88]
 672:C:/Users/Yushev/git/wpcqi-optiga-trust-charge/optiga/optiga/comms/ifx_i2c\ifx_i2c_data_link_layer.c ****                     p_ctx->dl.error = 0;
 1473              	 .loc 1 672 0
 1474 041e FB68     	 ldr r3,[r7,#12]
 1475 0420 0022     	 movs r2,#0
 1476 0422 83F85D20 	 strb r2,[r3,#93]
 1477              	.L84:
 673:C:/Users/Yushev/git/wpcqi-optiga-trust-charge/optiga/optiga/comms/ifx_i2c\ifx_i2c_data_link_layer.c ****                 }
 674:C:/Users/Yushev/git/wpcqi-optiga-trust-charge/optiga/optiga/comms/ifx_i2c\ifx_i2c_data_link_layer.c ****                 continue_state_machine = FALSE;
 1478              	 .loc 1 674 0
 1479 0426 0023     	 movs r3,#0
 1480 0428 3B77     	 strb r3,[r7,#28]
 675:C:/Users/Yushev/git/wpcqi-optiga-trust-charge/optiga/optiga/comms/ifx_i2c\ifx_i2c_data_link_layer.c ****             }
 676:C:/Users/Yushev/git/wpcqi-optiga-trust-charge/optiga/optiga/comms/ifx_i2c\ifx_i2c_data_link_layer.c ****             break;
 1481              	 .loc 1 676 0
 1482 042a 0DE0     	 b .L57
 1483              	.L43:
 677:C:/Users/Yushev/git/wpcqi-optiga-trust-charge/optiga/optiga/comms/ifx_i2c\ifx_i2c_data_link_layer.c ****             default:
 678:C:/Users/Yushev/git/wpcqi-optiga-trust-charge/optiga/optiga/comms/ifx_i2c\ifx_i2c_data_link_layer.c ****                 LOG_DL("[IFX-DL]: Default condition occurred. Exiting with error\n");
 679:C:/Users/Yushev/git/wpcqi-optiga-trust-charge/optiga/optiga/comms/ifx_i2c\ifx_i2c_data_link_layer.c ****                 p_ctx->dl.state = DL_STATE_IDLE;
 1484              	 .loc 1 679 0
 1485 042c FB68     	 ldr r3,[r7,#12]
 1486 042e 0122     	 movs r2,#1
 1487 0430 83F85820 	 strb r2,[r3,#88]
 680:C:/Users/Yushev/git/wpcqi-optiga-trust-charge/optiga/optiga/comms/ifx_i2c\ifx_i2c_data_link_layer.c ****                 p_ctx->dl.upper_layer_event_handler(p_ctx, IFX_I2C_DL_EVENT_ERROR, 0, 0);
 1488              	 .loc 1 680 0
 1489 0434 FB68     	 ldr r3,[r7,#12]
 1490 0436 5C6F     	 ldr r4,[r3,#116]
 1491 0438 F868     	 ldr r0,[r7,#12]
 1492 043a 0121     	 movs r1,#1
 1493 043c 0022     	 movs r2,#0
 1494 043e 0023     	 movs r3,#0
 1495 0440 A047     	 blx r4
 681:C:/Users/Yushev/git/wpcqi-optiga-trust-charge/optiga/optiga/comms/ifx_i2c\ifx_i2c_data_link_layer.c ****                 continue_state_machine = FALSE;
 1496              	 .loc 1 681 0
 1497 0442 0023     	 movs r3,#0
 1498 0444 3B77     	 strb r3,[r7,#28]
 682:C:/Users/Yushev/git/wpcqi-optiga-trust-charge/optiga/optiga/comms/ifx_i2c\ifx_i2c_data_link_layer.c ****                 break;
 1499              	 .loc 1 682 0
 1500 0446 00BF     	 nop
 1501              	.L57:
 683:C:/Users/Yushev/git/wpcqi-optiga-trust-charge/optiga/optiga/comms/ifx_i2c\ifx_i2c_data_link_layer.c ****         }
 684:C:/Users/Yushev/git/wpcqi-optiga-trust-charge/optiga/optiga/comms/ifx_i2c\ifx_i2c_data_link_layer.c ****     } while (TRUE == continue_state_machine);
 1502              	 .loc 1 684 0
 1503 0448 3B7F     	 ldrb r3,[r7,#28]
 1504 044a 012B     	 cmp r3,#1
 1505 044c 3FF4F4AD 	 beq .L85
 685:C:/Users/Yushev/git/wpcqi-optiga-trust-charge/optiga/optiga/comms/ifx_i2c\ifx_i2c_data_link_layer.c ****     LOG_DL("[IFX-DL]: #Exiting DL Handler\n");
 686:C:/Users/Yushev/git/wpcqi-optiga-trust-charge/optiga/optiga/comms/ifx_i2c\ifx_i2c_data_link_layer.c **** }
 1506              	 .loc 1 686 0
 1507 0450 2437     	 adds r7,r7,#36
 1508              	.LCFI44:
 1509              	 .cfi_def_cfa_offset 12
 1510 0452 BD46     	 mov sp,r7
 1511              	.LCFI45:
 1512              	 .cfi_def_cfa_register 13
 1513              	 
 1514 0454 90BD     	 pop {r4,r7,pc}
 1515              	 .cfi_endproc
 1516              	.LFE8:
 1518 0456 00BF     	 .text
 1519              	.Letext0:
 1520              	 .file 2 "c:\\users\\yushev\\dave_4-4-2_32bit_2018-02-23\\dave-ide-4.4.2-32bit\\eclipse\\arm-gcc-49\\arm-none-eabi\\include\\machine\\_default_types.h"
 1521              	 .file 3 "c:\\users\\yushev\\dave_4-4-2_32bit_2018-02-23\\dave-ide-4.4.2-32bit\\eclipse\\arm-gcc-49\\arm-none-eabi\\include\\stdint.h"
 1522              	 .file 4 "C:/Users/Yushev/git/wpcqi-optiga-trust-charge/optiga/optiga/include/optiga/common/optiga_lib_types.h"
 1523              	 .file 5 "C:/Users/Yushev/git/wpcqi-optiga-trust-charge/optiga/optiga/include/optiga/pal/pal_i2c.h"
 1524              	 .file 6 "C:/Users/Yushev/git/wpcqi-optiga-trust-charge/optiga/optiga/include/optiga/pal/pal_gpio.h"
 1525              	 .file 7 "C:/Users/Yushev/git/wpcqi-optiga-trust-charge/optiga/optiga/include/optiga/ifx_i2c/ifx_i2c_config.h"