   1              	 .syntax unified
   2              	 .cpu cortex-m4
   3              	 .eabi_attribute 27,3
   4              	 .fpu fpv4-sp-d16
   5              	 .eabi_attribute 20,1
   6              	 .eabi_attribute 21,1
   7              	 .eabi_attribute 23,3
   8              	 .eabi_attribute 24,1
   9              	 .eabi_attribute 25,1
  10              	 .eabi_attribute 26,1
  11              	 .eabi_attribute 30,6
  12              	 .eabi_attribute 34,1
  13              	 .eabi_attribute 18,4
  14              	 .thumb
  15              	 .file "ifx_i2c_physical_layer.c"
  16              	 .text
  17              	.Ltext0:
  18              	 .cfi_sections .debug_frame
  19              	 .section .bss.g_pal_event_status,"aw",%nobits
  20              	 .align 1
  23              	g_pal_event_status:
  24 0000 0000     	 .space 2
  25              	 .section .text.ifx_i2c_pl_init,"ax",%progbits
  26              	 .align 2
  27              	 .global ifx_i2c_pl_init
  28              	 .thumb
  29              	 .thumb_func
  31              	ifx_i2c_pl_init:
  32              	.LFB0:
  33              	 .file 1 "C:/Users/Yushev/git/wpcqi-optiga-trust-charge/optiga/optiga/comms/ifx_i2c/ifx_i2c_physical_layer.c"
   1:C:/Users/Yushev/git/wpcqi-optiga-trust-charge/optiga/optiga/comms/ifx_i2c\ifx_i2c_physical_layer.c **** /**
   2:C:/Users/Yushev/git/wpcqi-optiga-trust-charge/optiga/optiga/comms/ifx_i2c\ifx_i2c_physical_layer.c **** * \copyright
   3:C:/Users/Yushev/git/wpcqi-optiga-trust-charge/optiga/optiga/comms/ifx_i2c\ifx_i2c_physical_layer.c **** * MIT License
   4:C:/Users/Yushev/git/wpcqi-optiga-trust-charge/optiga/optiga/comms/ifx_i2c\ifx_i2c_physical_layer.c **** *
   5:C:/Users/Yushev/git/wpcqi-optiga-trust-charge/optiga/optiga/comms/ifx_i2c\ifx_i2c_physical_layer.c **** * Copyright (c) 2020 Infineon Technologies AG
   6:C:/Users/Yushev/git/wpcqi-optiga-trust-charge/optiga/optiga/comms/ifx_i2c\ifx_i2c_physical_layer.c **** *
   7:C:/Users/Yushev/git/wpcqi-optiga-trust-charge/optiga/optiga/comms/ifx_i2c\ifx_i2c_physical_layer.c **** * Permission is hereby granted, free of charge, to any person obtaining a copy
   8:C:/Users/Yushev/git/wpcqi-optiga-trust-charge/optiga/optiga/comms/ifx_i2c\ifx_i2c_physical_layer.c **** * of this software and associated documentation files (the "Software"), to deal
   9:C:/Users/Yushev/git/wpcqi-optiga-trust-charge/optiga/optiga/comms/ifx_i2c\ifx_i2c_physical_layer.c **** * in the Software without restriction, including without limitation the rights
  10:C:/Users/Yushev/git/wpcqi-optiga-trust-charge/optiga/optiga/comms/ifx_i2c\ifx_i2c_physical_layer.c **** * to use, copy, modify, merge, publish, distribute, sublicense, and/or sell
  11:C:/Users/Yushev/git/wpcqi-optiga-trust-charge/optiga/optiga/comms/ifx_i2c\ifx_i2c_physical_layer.c **** * copies of the Software, and to permit persons to whom the Software is
  12:C:/Users/Yushev/git/wpcqi-optiga-trust-charge/optiga/optiga/comms/ifx_i2c\ifx_i2c_physical_layer.c **** * furnished to do so, subject to the following conditions:
  13:C:/Users/Yushev/git/wpcqi-optiga-trust-charge/optiga/optiga/comms/ifx_i2c\ifx_i2c_physical_layer.c **** *
  14:C:/Users/Yushev/git/wpcqi-optiga-trust-charge/optiga/optiga/comms/ifx_i2c\ifx_i2c_physical_layer.c **** * The above copyright notice and this permission notice shall be included in all
  15:C:/Users/Yushev/git/wpcqi-optiga-trust-charge/optiga/optiga/comms/ifx_i2c\ifx_i2c_physical_layer.c **** * copies or substantial portions of the Software.
  16:C:/Users/Yushev/git/wpcqi-optiga-trust-charge/optiga/optiga/comms/ifx_i2c\ifx_i2c_physical_layer.c **** *
  17:C:/Users/Yushev/git/wpcqi-optiga-trust-charge/optiga/optiga/comms/ifx_i2c\ifx_i2c_physical_layer.c **** * THE SOFTWARE IS PROVIDED "AS IS", WITHOUT WARRANTY OF ANY KIND, EXPRESS OR
  18:C:/Users/Yushev/git/wpcqi-optiga-trust-charge/optiga/optiga/comms/ifx_i2c\ifx_i2c_physical_layer.c **** * IMPLIED, INCLUDING BUT NOT LIMITED TO THE WARRANTIES OF MERCHANTABILITY,
  19:C:/Users/Yushev/git/wpcqi-optiga-trust-charge/optiga/optiga/comms/ifx_i2c\ifx_i2c_physical_layer.c **** * FITNESS FOR A PARTICULAR PURPOSE AND NONINFRINGEMENT. IN NO EVENT SHALL THE
  20:C:/Users/Yushev/git/wpcqi-optiga-trust-charge/optiga/optiga/comms/ifx_i2c\ifx_i2c_physical_layer.c **** * AUTHORS OR COPYRIGHT HOLDERS BE LIABLE FOR ANY CLAIM, DAMAGES OR OTHER
  21:C:/Users/Yushev/git/wpcqi-optiga-trust-charge/optiga/optiga/comms/ifx_i2c\ifx_i2c_physical_layer.c **** * LIABILITY, WHETHER IN AN ACTION OF CONTRACT, TORT OR OTHERWISE, ARISING FROM,
  22:C:/Users/Yushev/git/wpcqi-optiga-trust-charge/optiga/optiga/comms/ifx_i2c\ifx_i2c_physical_layer.c **** * OUT OF OR IN CONNECTION WITH THE SOFTWARE OR THE USE OR OTHER DEALINGS IN THE
  23:C:/Users/Yushev/git/wpcqi-optiga-trust-charge/optiga/optiga/comms/ifx_i2c\ifx_i2c_physical_layer.c **** * SOFTWARE
  24:C:/Users/Yushev/git/wpcqi-optiga-trust-charge/optiga/optiga/comms/ifx_i2c\ifx_i2c_physical_layer.c **** *
  25:C:/Users/Yushev/git/wpcqi-optiga-trust-charge/optiga/optiga/comms/ifx_i2c\ifx_i2c_physical_layer.c **** * \endcopyright
  26:C:/Users/Yushev/git/wpcqi-optiga-trust-charge/optiga/optiga/comms/ifx_i2c\ifx_i2c_physical_layer.c **** *
  27:C:/Users/Yushev/git/wpcqi-optiga-trust-charge/optiga/optiga/comms/ifx_i2c\ifx_i2c_physical_layer.c **** * \author Infineon Technologies AG
  28:C:/Users/Yushev/git/wpcqi-optiga-trust-charge/optiga/optiga/comms/ifx_i2c\ifx_i2c_physical_layer.c **** *
  29:C:/Users/Yushev/git/wpcqi-optiga-trust-charge/optiga/optiga/comms/ifx_i2c\ifx_i2c_physical_layer.c **** * \file ifx_i2c_physical_layer.c
  30:C:/Users/Yushev/git/wpcqi-optiga-trust-charge/optiga/optiga/comms/ifx_i2c\ifx_i2c_physical_layer.c **** *
  31:C:/Users/Yushev/git/wpcqi-optiga-trust-charge/optiga/optiga/comms/ifx_i2c\ifx_i2c_physical_layer.c **** * \brief   This file implements the APIs for physical layer of the Infineon I2C Protocol Stack libr
  32:C:/Users/Yushev/git/wpcqi-optiga-trust-charge/optiga/optiga/comms/ifx_i2c\ifx_i2c_physical_layer.c **** *
  33:C:/Users/Yushev/git/wpcqi-optiga-trust-charge/optiga/optiga/comms/ifx_i2c\ifx_i2c_physical_layer.c **** * \ingroup  grIFXI2C
  34:C:/Users/Yushev/git/wpcqi-optiga-trust-charge/optiga/optiga/comms/ifx_i2c\ifx_i2c_physical_layer.c **** *
  35:C:/Users/Yushev/git/wpcqi-optiga-trust-charge/optiga/optiga/comms/ifx_i2c\ifx_i2c_physical_layer.c **** * @{
  36:C:/Users/Yushev/git/wpcqi-optiga-trust-charge/optiga/optiga/comms/ifx_i2c\ifx_i2c_physical_layer.c **** */
  37:C:/Users/Yushev/git/wpcqi-optiga-trust-charge/optiga/optiga/comms/ifx_i2c\ifx_i2c_physical_layer.c **** 
  38:C:/Users/Yushev/git/wpcqi-optiga-trust-charge/optiga/optiga/comms/ifx_i2c\ifx_i2c_physical_layer.c **** #include "optiga/ifx_i2c/ifx_i2c_physical_layer.h"
  39:C:/Users/Yushev/git/wpcqi-optiga-trust-charge/optiga/optiga/comms/ifx_i2c\ifx_i2c_physical_layer.c **** #include "optiga/pal/pal_os_event.h"
  40:C:/Users/Yushev/git/wpcqi-optiga-trust-charge/optiga/optiga/comms/ifx_i2c\ifx_i2c_physical_layer.c **** 
  41:C:/Users/Yushev/git/wpcqi-optiga-trust-charge/optiga/optiga/comms/ifx_i2c\ifx_i2c_physical_layer.c **** /// @cond hidden
  42:C:/Users/Yushev/git/wpcqi-optiga-trust-charge/optiga/optiga/comms/ifx_i2c\ifx_i2c_physical_layer.c **** 
  43:C:/Users/Yushev/git/wpcqi-optiga-trust-charge/optiga/optiga/comms/ifx_i2c\ifx_i2c_physical_layer.c **** // Physical Layer Register addresses
  44:C:/Users/Yushev/git/wpcqi-optiga-trust-charge/optiga/optiga/comms/ifx_i2c\ifx_i2c_physical_layer.c **** #define PL_REG_DATA                     (0x80)
  45:C:/Users/Yushev/git/wpcqi-optiga-trust-charge/optiga/optiga/comms/ifx_i2c\ifx_i2c_physical_layer.c **** #define PL_REG_DATA_REG_LEN             (0x81)
  46:C:/Users/Yushev/git/wpcqi-optiga-trust-charge/optiga/optiga/comms/ifx_i2c\ifx_i2c_physical_layer.c **** #define PL_REG_I2C_STATE                (0x82)
  47:C:/Users/Yushev/git/wpcqi-optiga-trust-charge/optiga/optiga/comms/ifx_i2c\ifx_i2c_physical_layer.c **** #define PL_REG_BASE_ADDR                (0x83)
  48:C:/Users/Yushev/git/wpcqi-optiga-trust-charge/optiga/optiga/comms/ifx_i2c\ifx_i2c_physical_layer.c **** #define PL_REG_MAX_SCL_FREQU            (0x84)
  49:C:/Users/Yushev/git/wpcqi-optiga-trust-charge/optiga/optiga/comms/ifx_i2c\ifx_i2c_physical_layer.c **** #define PL_REG_SOFT_RESET               (0x88)
  50:C:/Users/Yushev/git/wpcqi-optiga-trust-charge/optiga/optiga/comms/ifx_i2c\ifx_i2c_physical_layer.c **** #define PL_REG_I2C_MODE                 (0x89)
  51:C:/Users/Yushev/git/wpcqi-optiga-trust-charge/optiga/optiga/comms/ifx_i2c\ifx_i2c_physical_layer.c **** 
  52:C:/Users/Yushev/git/wpcqi-optiga-trust-charge/optiga/optiga/comms/ifx_i2c\ifx_i2c_physical_layer.c **** // Physical Layer Register lengths
  53:C:/Users/Yushev/git/wpcqi-optiga-trust-charge/optiga/optiga/comms/ifx_i2c\ifx_i2c_physical_layer.c **** #define PL_REG_LEN_I2C_STATE            (4U)
  54:C:/Users/Yushev/git/wpcqi-optiga-trust-charge/optiga/optiga/comms/ifx_i2c\ifx_i2c_physical_layer.c **** #define PL_REG_LEN_MAX_SCL_FREQU        (4U)
  55:C:/Users/Yushev/git/wpcqi-optiga-trust-charge/optiga/optiga/comms/ifx_i2c\ifx_i2c_physical_layer.c **** #define PL_REG_LEN_I2C_MODE             (2U)
  56:C:/Users/Yushev/git/wpcqi-optiga-trust-charge/optiga/optiga/comms/ifx_i2c\ifx_i2c_physical_layer.c **** #define PL_REG_LEN_DATA_REG_LEN         (2U)
  57:C:/Users/Yushev/git/wpcqi-optiga-trust-charge/optiga/optiga/comms/ifx_i2c\ifx_i2c_physical_layer.c **** #define PL_REG_LEN_SOFT_RESET           (2U)
  58:C:/Users/Yushev/git/wpcqi-optiga-trust-charge/optiga/optiga/comms/ifx_i2c\ifx_i2c_physical_layer.c **** #define PL_REG_LEN_BASE_ADDR            (2U)
  59:C:/Users/Yushev/git/wpcqi-optiga-trust-charge/optiga/optiga/comms/ifx_i2c\ifx_i2c_physical_layer.c **** 
  60:C:/Users/Yushev/git/wpcqi-optiga-trust-charge/optiga/optiga/comms/ifx_i2c\ifx_i2c_physical_layer.c **** // Physical Layer State Register masks
  61:C:/Users/Yushev/git/wpcqi-optiga-trust-charge/optiga/optiga/comms/ifx_i2c\ifx_i2c_physical_layer.c **** #define PL_REG_I2C_STATE_RESPONSE_READY (0x40)
  62:C:/Users/Yushev/git/wpcqi-optiga-trust-charge/optiga/optiga/comms/ifx_i2c\ifx_i2c_physical_layer.c **** #define PL_REG_I2C_STATE_SOFT_RESET     (0x08)
  63:C:/Users/Yushev/git/wpcqi-optiga-trust-charge/optiga/optiga/comms/ifx_i2c\ifx_i2c_physical_layer.c **** 
  64:C:/Users/Yushev/git/wpcqi-optiga-trust-charge/optiga/optiga/comms/ifx_i2c\ifx_i2c_physical_layer.c **** // Physical Layer low level interface constants
  65:C:/Users/Yushev/git/wpcqi-optiga-trust-charge/optiga/optiga/comms/ifx_i2c\ifx_i2c_physical_layer.c **** #define PL_ACTION_READ_REGISTER         (0x01)
  66:C:/Users/Yushev/git/wpcqi-optiga-trust-charge/optiga/optiga/comms/ifx_i2c\ifx_i2c_physical_layer.c **** #define PL_ACTION_WRITE_REGISTER        (0x02)
  67:C:/Users/Yushev/git/wpcqi-optiga-trust-charge/optiga/optiga/comms/ifx_i2c\ifx_i2c_physical_layer.c **** #define PL_I2C_CMD_WRITE                (0x01)
  68:C:/Users/Yushev/git/wpcqi-optiga-trust-charge/optiga/optiga/comms/ifx_i2c\ifx_i2c_physical_layer.c **** #define PL_I2C_CMD_READ                 (0x02)
  69:C:/Users/Yushev/git/wpcqi-optiga-trust-charge/optiga/optiga/comms/ifx_i2c\ifx_i2c_physical_layer.c **** 
  70:C:/Users/Yushev/git/wpcqi-optiga-trust-charge/optiga/optiga/comms/ifx_i2c\ifx_i2c_physical_layer.c **** // Physical Layer high level interface constants
  71:C:/Users/Yushev/git/wpcqi-optiga-trust-charge/optiga/optiga/comms/ifx_i2c\ifx_i2c_physical_layer.c **** #define PL_ACTION_WRITE_FRAME           (0x01)
  72:C:/Users/Yushev/git/wpcqi-optiga-trust-charge/optiga/optiga/comms/ifx_i2c\ifx_i2c_physical_layer.c **** #define PL_ACTION_READ_FRAME            (0x02)
  73:C:/Users/Yushev/git/wpcqi-optiga-trust-charge/optiga/optiga/comms/ifx_i2c\ifx_i2c_physical_layer.c **** #define PL_STATE_UNINIT                 (0x00)
  74:C:/Users/Yushev/git/wpcqi-optiga-trust-charge/optiga/optiga/comms/ifx_i2c\ifx_i2c_physical_layer.c **** #define PL_STATE_INIT                   (0x01)
  75:C:/Users/Yushev/git/wpcqi-optiga-trust-charge/optiga/optiga/comms/ifx_i2c\ifx_i2c_physical_layer.c **** #define PL_STATE_READY                  (0x02)
  76:C:/Users/Yushev/git/wpcqi-optiga-trust-charge/optiga/optiga/comms/ifx_i2c\ifx_i2c_physical_layer.c **** #define PL_STATE_DATA_AVAILABLE         (0x03)
  77:C:/Users/Yushev/git/wpcqi-optiga-trust-charge/optiga/optiga/comms/ifx_i2c\ifx_i2c_physical_layer.c **** #define PL_STATE_RXTX                   (0x04)
  78:C:/Users/Yushev/git/wpcqi-optiga-trust-charge/optiga/optiga/comms/ifx_i2c\ifx_i2c_physical_layer.c **** #define PL_STATE_SOFT_RESET             (0x05)
  79:C:/Users/Yushev/git/wpcqi-optiga-trust-charge/optiga/optiga/comms/ifx_i2c\ifx_i2c_physical_layer.c **** 
  80:C:/Users/Yushev/git/wpcqi-optiga-trust-charge/optiga/optiga/comms/ifx_i2c\ifx_i2c_physical_layer.c **** //Physical Layer negotiation constants
  81:C:/Users/Yushev/git/wpcqi-optiga-trust-charge/optiga/optiga/comms/ifx_i2c\ifx_i2c_physical_layer.c **** #define PL_INIT_SET_DATA_REG_LEN        (0x11)
  82:C:/Users/Yushev/git/wpcqi-optiga-trust-charge/optiga/optiga/comms/ifx_i2c\ifx_i2c_physical_layer.c **** #define PL_INIT_GET_DATA_REG_LEN        (0x22)
  83:C:/Users/Yushev/git/wpcqi-optiga-trust-charge/optiga/optiga/comms/ifx_i2c\ifx_i2c_physical_layer.c **** #define PL_INIT_GET_FREQ_REG            (0x33)
  84:C:/Users/Yushev/git/wpcqi-optiga-trust-charge/optiga/optiga/comms/ifx_i2c\ifx_i2c_physical_layer.c **** #define PL_INIT_SET_FREQ_REG            (0x44)
  85:C:/Users/Yushev/git/wpcqi-optiga-trust-charge/optiga/optiga/comms/ifx_i2c\ifx_i2c_physical_layer.c **** #define PL_INIT_READ_FREQ               (0x55)
  86:C:/Users/Yushev/git/wpcqi-optiga-trust-charge/optiga/optiga/comms/ifx_i2c\ifx_i2c_physical_layer.c **** #define PL_INIT_VERIFY_FREQ             (0x66)
  87:C:/Users/Yushev/git/wpcqi-optiga-trust-charge/optiga/optiga/comms/ifx_i2c\ifx_i2c_physical_layer.c **** #define PL_INIT_AGREE_FREQ              (0x77)
  88:C:/Users/Yushev/git/wpcqi-optiga-trust-charge/optiga/optiga/comms/ifx_i2c\ifx_i2c_physical_layer.c **** #define PL_INIT_VERIFY_DATA_REG         (0x88)
  89:C:/Users/Yushev/git/wpcqi-optiga-trust-charge/optiga/optiga/comms/ifx_i2c\ifx_i2c_physical_layer.c **** #define PL_INIT_GET_STATUS_REG          (0x99)
  90:C:/Users/Yushev/git/wpcqi-optiga-trust-charge/optiga/optiga/comms/ifx_i2c\ifx_i2c_physical_layer.c **** #define PL_INIT_DONE                    (0xAA)
  91:C:/Users/Yushev/git/wpcqi-optiga-trust-charge/optiga/optiga/comms/ifx_i2c\ifx_i2c_physical_layer.c **** #define PL_INIT_SET_FREQ_DEFAULT        (0xBB)
  92:C:/Users/Yushev/git/wpcqi-optiga-trust-charge/optiga/optiga/comms/ifx_i2c\ifx_i2c_physical_layer.c **** 
  93:C:/Users/Yushev/git/wpcqi-optiga-trust-charge/optiga/optiga/comms/ifx_i2c\ifx_i2c_physical_layer.c **** //Physical layer soft reset states
  94:C:/Users/Yushev/git/wpcqi-optiga-trust-charge/optiga/optiga/comms/ifx_i2c\ifx_i2c_physical_layer.c **** #define PL_RESET_INIT                   (0xA1)
  95:C:/Users/Yushev/git/wpcqi-optiga-trust-charge/optiga/optiga/comms/ifx_i2c\ifx_i2c_physical_layer.c **** #define PL_RESET_WRITE                  (0xA2)
  96:C:/Users/Yushev/git/wpcqi-optiga-trust-charge/optiga/optiga/comms/ifx_i2c\ifx_i2c_physical_layer.c **** #define PL_RESET_STARTUP                (0xA3)
  97:C:/Users/Yushev/git/wpcqi-optiga-trust-charge/optiga/optiga/comms/ifx_i2c\ifx_i2c_physical_layer.c **** 
  98:C:/Users/Yushev/git/wpcqi-optiga-trust-charge/optiga/optiga/comms/ifx_i2c\ifx_i2c_physical_layer.c **** #define PL_REG_I2C_MODE_PERSISTANT      (0x80)
  99:C:/Users/Yushev/git/wpcqi-optiga-trust-charge/optiga/optiga/comms/ifx_i2c\ifx_i2c_physical_layer.c **** #define PL_REG_I2C_MODE_SM_FM           (0x03)
 100:C:/Users/Yushev/git/wpcqi-optiga-trust-charge/optiga/optiga/comms/ifx_i2c\ifx_i2c_physical_layer.c **** #define PL_REG_I2C_MODE_FM_PLUS         (0x04)
 101:C:/Users/Yushev/git/wpcqi-optiga-trust-charge/optiga/optiga/comms/ifx_i2c\ifx_i2c_physical_layer.c **** #define PL_SM_FM_MAX_FREQUENCY          (0x190)
 102:C:/Users/Yushev/git/wpcqi-optiga-trust-charge/optiga/optiga/comms/ifx_i2c\ifx_i2c_physical_layer.c **** #define PL_DEFAULT_FREQUENCY            (0x64)
 103:C:/Users/Yushev/git/wpcqi-optiga-trust-charge/optiga/optiga/comms/ifx_i2c\ifx_i2c_physical_layer.c **** #define PL_REG_BASE_ADDR_PERSISTANT     (0x80)
 104:C:/Users/Yushev/git/wpcqi-optiga-trust-charge/optiga/optiga/comms/ifx_i2c\ifx_i2c_physical_layer.c **** #define PL_REG_BASE_ADDR_VOLATILE       (0x00)
 105:C:/Users/Yushev/git/wpcqi-optiga-trust-charge/optiga/optiga/comms/ifx_i2c\ifx_i2c_physical_layer.c **** 
 106:C:/Users/Yushev/git/wpcqi-optiga-trust-charge/optiga/optiga/comms/ifx_i2c\ifx_i2c_physical_layer.c **** // Physical Layer Base Address Register mask
 107:C:/Users/Yushev/git/wpcqi-optiga-trust-charge/optiga/optiga/comms/ifx_i2c\ifx_i2c_physical_layer.c **** #define PL_REG_I2C_BASE_ADDRESS_MASK    (0x7F)
 108:C:/Users/Yushev/git/wpcqi-optiga-trust-charge/optiga/optiga/comms/ifx_i2c\ifx_i2c_physical_layer.c **** 
 109:C:/Users/Yushev/git/wpcqi-optiga-trust-charge/optiga/optiga/comms/ifx_i2c\ifx_i2c_physical_layer.c **** // Setup debug log statements
 110:C:/Users/Yushev/git/wpcqi-optiga-trust-charge/optiga/optiga/comms/ifx_i2c\ifx_i2c_physical_layer.c **** #if IFX_I2C_LOG_PL == 1
 111:C:/Users/Yushev/git/wpcqi-optiga-trust-charge/optiga/optiga/comms/ifx_i2c\ifx_i2c_physical_layer.c **** #define LOG_PL IFX_I2C_LOG
 112:C:/Users/Yushev/git/wpcqi-optiga-trust-charge/optiga/optiga/comms/ifx_i2c\ifx_i2c_physical_layer.c **** #else
 113:C:/Users/Yushev/git/wpcqi-optiga-trust-charge/optiga/optiga/comms/ifx_i2c\ifx_i2c_physical_layer.c **** #define LOG_PL(...) //printf(__VA_ARGS__)
 114:C:/Users/Yushev/git/wpcqi-optiga-trust-charge/optiga/optiga/comms/ifx_i2c\ifx_i2c_physical_layer.c **** #endif
 115:C:/Users/Yushev/git/wpcqi-optiga-trust-charge/optiga/optiga/comms/ifx_i2c\ifx_i2c_physical_layer.c **** 
 116:C:/Users/Yushev/git/wpcqi-optiga-trust-charge/optiga/optiga/comms/ifx_i2c\ifx_i2c_physical_layer.c **** _STATIC_H optiga_lib_status_t g_pal_event_status;
 117:C:/Users/Yushev/git/wpcqi-optiga-trust-charge/optiga/optiga/comms/ifx_i2c\ifx_i2c_physical_layer.c **** 
 118:C:/Users/Yushev/git/wpcqi-optiga-trust-charge/optiga/optiga/comms/ifx_i2c\ifx_i2c_physical_layer.c **** 
 119:C:/Users/Yushev/git/wpcqi-optiga-trust-charge/optiga/optiga/comms/ifx_i2c\ifx_i2c_physical_layer.c **** /// Physical Layer low level interface function
 120:C:/Users/Yushev/git/wpcqi-optiga-trust-charge/optiga/optiga/comms/ifx_i2c\ifx_i2c_physical_layer.c **** _STATIC_H void ifx_i2c_pl_read_register(ifx_i2c_context_t * p_ctx, uint8_t reg_addr, uint16_t reg_l
 121:C:/Users/Yushev/git/wpcqi-optiga-trust-charge/optiga/optiga/comms/ifx_i2c\ifx_i2c_physical_layer.c **** /// Physical Layer low level interface function
 122:C:/Users/Yushev/git/wpcqi-optiga-trust-charge/optiga/optiga/comms/ifx_i2c\ifx_i2c_physical_layer.c **** _STATIC_H void ifx_i2c_pl_write_register(ifx_i2c_context_t * p_ctx,
 123:C:/Users/Yushev/git/wpcqi-optiga-trust-charge/optiga/optiga/comms/ifx_i2c\ifx_i2c_physical_layer.c ****                                          uint8_t reg_addr,
 124:C:/Users/Yushev/git/wpcqi-optiga-trust-charge/optiga/optiga/comms/ifx_i2c\ifx_i2c_physical_layer.c ****                                          uint16_t reg_len,
 125:C:/Users/Yushev/git/wpcqi-optiga-trust-charge/optiga/optiga/comms/ifx_i2c\ifx_i2c_physical_layer.c ****                                          const uint8_t * p_content);
 126:C:/Users/Yushev/git/wpcqi-optiga-trust-charge/optiga/optiga/comms/ifx_i2c\ifx_i2c_physical_layer.c **** /// Physical Layer high level interface timer callback (Status register polling)
 127:C:/Users/Yushev/git/wpcqi-optiga-trust-charge/optiga/optiga/comms/ifx_i2c\ifx_i2c_physical_layer.c **** _STATIC_H void ifx_i2c_pl_status_poll_callback(void * p_ctx);
 128:C:/Users/Yushev/git/wpcqi-optiga-trust-charge/optiga/optiga/comms/ifx_i2c\ifx_i2c_physical_layer.c **** /// Physical Layer intermediate state machine (Negotiation with slave)
 129:C:/Users/Yushev/git/wpcqi-optiga-trust-charge/optiga/optiga/comms/ifx_i2c\ifx_i2c_physical_layer.c **** _STATIC_H void ifx_i2c_pl_negotiation_event_handler(void * p_input_ctx);
 130:C:/Users/Yushev/git/wpcqi-optiga-trust-charge/optiga/optiga/comms/ifx_i2c\ifx_i2c_physical_layer.c **** /// Physical Layer intermediate state machine(Set bit rate)
 131:C:/Users/Yushev/git/wpcqi-optiga-trust-charge/optiga/optiga/comms/ifx_i2c\ifx_i2c_physical_layer.c **** _STATIC_H optiga_lib_status_t ifx_i2c_pl_set_bit_rate(ifx_i2c_context_t * p_ctx, uint16_t bitrate);
 132:C:/Users/Yushev/git/wpcqi-optiga-trust-charge/optiga/optiga/comms/ifx_i2c\ifx_i2c_physical_layer.c **** /// Physical Layer intermediate state machine (soft reset)
 133:C:/Users/Yushev/git/wpcqi-optiga-trust-charge/optiga/optiga/comms/ifx_i2c\ifx_i2c_physical_layer.c **** _STATIC_H void ifx_i2c_pl_soft_reset(ifx_i2c_context_t * p_ctx);
 134:C:/Users/Yushev/git/wpcqi-optiga-trust-charge/optiga/optiga/comms/ifx_i2c\ifx_i2c_physical_layer.c **** /// Physical Layer high level interface state machine (read/write frames)
 135:C:/Users/Yushev/git/wpcqi-optiga-trust-charge/optiga/optiga/comms/ifx_i2c\ifx_i2c_physical_layer.c **** _STATIC_H void ifx_i2c_pl_frame_event_handler(ifx_i2c_context_t * p_ctx, optiga_lib_status_t event)
 136:C:/Users/Yushev/git/wpcqi-optiga-trust-charge/optiga/optiga/comms/ifx_i2c\ifx_i2c_physical_layer.c **** /// Physical Layer low level interface timer callback (I2C Nack/Busy polling)
 137:C:/Users/Yushev/git/wpcqi-optiga-trust-charge/optiga/optiga/comms/ifx_i2c\ifx_i2c_physical_layer.c **** _STATIC_H void ifx_i2c_pal_poll_callback(void * p_ctx);
 138:C:/Users/Yushev/git/wpcqi-optiga-trust-charge/optiga/optiga/comms/ifx_i2c\ifx_i2c_physical_layer.c **** /// Physical Layer low level guard time callback
 139:C:/Users/Yushev/git/wpcqi-optiga-trust-charge/optiga/optiga/comms/ifx_i2c\ifx_i2c_physical_layer.c **** _STATIC_H void ifx_i2c_pl_guard_time_callback(void * p_ctx);
 140:C:/Users/Yushev/git/wpcqi-optiga-trust-charge/optiga/optiga/comms/ifx_i2c\ifx_i2c_physical_layer.c **** /// Physical Layer low level interface state machine (read/write registers)
 141:C:/Users/Yushev/git/wpcqi-optiga-trust-charge/optiga/optiga/comms/ifx_i2c\ifx_i2c_physical_layer.c **** _STATIC_H void ifx_i2c_pl_pal_event_handler(void * p_ctx, optiga_lib_status_t event);
 142:C:/Users/Yushev/git/wpcqi-optiga-trust-charge/optiga/optiga/comms/ifx_i2c\ifx_i2c_physical_layer.c **** /// Physical layer low level event handler for set slave address
 143:C:/Users/Yushev/git/wpcqi-optiga-trust-charge/optiga/optiga/comms/ifx_i2c\ifx_i2c_physical_layer.c **** _STATIC_H void ifx_i2c_pl_pal_slave_addr_event_handler(void * p_input_ctx, optiga_lib_status_t even
 144:C:/Users/Yushev/git/wpcqi-optiga-trust-charge/optiga/optiga/comms/ifx_i2c\ifx_i2c_physical_layer.c **** 
 145:C:/Users/Yushev/git/wpcqi-optiga-trust-charge/optiga/optiga/comms/ifx_i2c\ifx_i2c_physical_layer.c **** /// @endcond
 146:C:/Users/Yushev/git/wpcqi-optiga-trust-charge/optiga/optiga/comms/ifx_i2c\ifx_i2c_physical_layer.c **** 
 147:C:/Users/Yushev/git/wpcqi-optiga-trust-charge/optiga/optiga/comms/ifx_i2c\ifx_i2c_physical_layer.c **** optiga_lib_status_t ifx_i2c_pl_init(ifx_i2c_context_t * p_ctx, ifx_i2c_event_handler_t handler)
 148:C:/Users/Yushev/git/wpcqi-optiga-trust-charge/optiga/optiga/comms/ifx_i2c\ifx_i2c_physical_layer.c **** {
  34              	 .loc 1 148 0
  35              	 .cfi_startproc
  36              	 
  37              	 
  38 0000 80B5     	 push {r7,lr}
  39              	.LCFI0:
  40              	 .cfi_def_cfa_offset 8
  41              	 .cfi_offset 7,-8
  42              	 .cfi_offset 14,-4
  43 0002 82B0     	 sub sp,sp,#8
  44              	.LCFI1:
  45              	 .cfi_def_cfa_offset 16
  46 0004 00AF     	 add r7,sp,#0
  47              	.LCFI2:
  48              	 .cfi_def_cfa_register 7
  49 0006 7860     	 str r0,[r7,#4]
  50 0008 3960     	 str r1,[r7]
 149:C:/Users/Yushev/git/wpcqi-optiga-trust-charge/optiga/optiga/comms/ifx_i2c\ifx_i2c_physical_layer.c ****     LOG_PL("[IFX-PL]: Init\n");
 150:C:/Users/Yushev/git/wpcqi-optiga-trust-charge/optiga/optiga/comms/ifx_i2c\ifx_i2c_physical_layer.c **** 
 151:C:/Users/Yushev/git/wpcqi-optiga-trust-charge/optiga/optiga/comms/ifx_i2c\ifx_i2c_physical_layer.c ****     p_ctx->pl.upper_layer_event_handler = handler;
  51              	 .loc 1 151 0
  52 000a 7B68     	 ldr r3,[r7,#4]
  53 000c 3A68     	 ldr r2,[r7]
  54 000e C3F8A021 	 str r2,[r3,#416]
 152:C:/Users/Yushev/git/wpcqi-optiga-trust-charge/optiga/optiga/comms/ifx_i2c\ifx_i2c_physical_layer.c ****     p_ctx->pl.frame_state = PL_STATE_UNINIT;
  55              	 .loc 1 152 0
  56 0012 7B68     	 ldr r3,[r7,#4]
  57 0014 0022     	 movs r2,#0
  58 0016 83F89721 	 strb r2,[r3,#407]
 153:C:/Users/Yushev/git/wpcqi-optiga-trust-charge/optiga/optiga/comms/ifx_i2c\ifx_i2c_physical_layer.c ****     p_ctx->pl.negotiate_state = PL_INIT_SET_FREQ_DEFAULT;
  59              	 .loc 1 153 0
  60 001a 7B68     	 ldr r3,[r7,#4]
  61 001c BB22     	 movs r2,#187
  62 001e 83F8A421 	 strb r2,[r3,#420]
 154:C:/Users/Yushev/git/wpcqi-optiga-trust-charge/optiga/optiga/comms/ifx_i2c\ifx_i2c_physical_layer.c ****     p_ctx->p_pal_i2c_ctx->slave_address = p_ctx->slave_address;
  63              	 .loc 1 154 0
  64 0022 7B68     	 ldr r3,[r7,#4]
  65 0024 1B69     	 ldr r3,[r3,#16]
  66 0026 7A68     	 ldr r2,[r7,#4]
  67 0028 1278     	 ldrb r2,[r2]
  68 002a 1A71     	 strb r2,[r3,#4]
 155:C:/Users/Yushev/git/wpcqi-optiga-trust-charge/optiga/optiga/comms/ifx_i2c\ifx_i2c_physical_layer.c ****     p_ctx->p_pal_i2c_ctx->upper_layer_event_handler = ifx_i2c_pl_pal_event_handler;
  69              	 .loc 1 155 0
  70 002c 7B68     	 ldr r3,[r7,#4]
  71 002e 1B69     	 ldr r3,[r3,#16]
  72 0030 184A     	 ldr r2,.L6
  73 0032 DA60     	 str r2,[r3,#12]
 156:C:/Users/Yushev/git/wpcqi-optiga-trust-charge/optiga/optiga/comms/ifx_i2c\ifx_i2c_physical_layer.c ****     p_ctx->pl.retry_counter = PL_POLLING_MAX_CNT;
  74              	 .loc 1 156 0
  75 0034 7B68     	 ldr r3,[r7,#4]
  76 0036 C822     	 movs r2,#200
  77 0038 A3F89421 	 strh r2,[r3,#404]
 157:C:/Users/Yushev/git/wpcqi-optiga-trust-charge/optiga/optiga/comms/ifx_i2c\ifx_i2c_physical_layer.c ****     if (TRUE == p_ctx->do_pal_init)
  78              	 .loc 1 157 0
  79 003c 7B68     	 ldr r3,[r7,#4]
  80 003e 93F82B30 	 ldrb r3,[r3,#43]
  81 0042 012B     	 cmp r3,#1
  82 0044 0AD1     	 bne .L2
 158:C:/Users/Yushev/git/wpcqi-optiga-trust-charge/optiga/optiga/comms/ifx_i2c\ifx_i2c_physical_layer.c ****     {
 159:C:/Users/Yushev/git/wpcqi-optiga-trust-charge/optiga/optiga/comms/ifx_i2c\ifx_i2c_physical_layer.c ****         // Initialize I2C driver
 160:C:/Users/Yushev/git/wpcqi-optiga-trust-charge/optiga/optiga/comms/ifx_i2c\ifx_i2c_physical_layer.c ****         if (PAL_STATUS_SUCCESS != pal_i2c_init(p_ctx->p_pal_i2c_ctx))
  83              	 .loc 1 160 0
  84 0046 7B68     	 ldr r3,[r7,#4]
  85 0048 1B69     	 ldr r3,[r3,#16]
  86 004a 1846     	 mov r0,r3
  87 004c FFF7FEFF 	 bl pal_i2c_init
  88 0050 0346     	 mov r3,r0
  89 0052 002B     	 cmp r3,#0
  90 0054 02D0     	 beq .L2
 161:C:/Users/Yushev/git/wpcqi-optiga-trust-charge/optiga/optiga/comms/ifx_i2c\ifx_i2c_physical_layer.c ****         {
 162:C:/Users/Yushev/git/wpcqi-optiga-trust-charge/optiga/optiga/comms/ifx_i2c\ifx_i2c_physical_layer.c ****             return (IFX_I2C_STACK_ERROR);
  91              	 .loc 1 162 0
  92 0056 4FF48173 	 mov r3,#258
  93 005a 16E0     	 b .L3
  94              	.L2:
 163:C:/Users/Yushev/git/wpcqi-optiga-trust-charge/optiga/optiga/comms/ifx_i2c\ifx_i2c_physical_layer.c ****         }
 164:C:/Users/Yushev/git/wpcqi-optiga-trust-charge/optiga/optiga/comms/ifx_i2c\ifx_i2c_physical_layer.c ****     }
 165:C:/Users/Yushev/git/wpcqi-optiga-trust-charge/optiga/optiga/comms/ifx_i2c\ifx_i2c_physical_layer.c ****     // Set Physical Layer internal state
 166:C:/Users/Yushev/git/wpcqi-optiga-trust-charge/optiga/optiga/comms/ifx_i2c\ifx_i2c_physical_layer.c ****     if ((uint8_t)TRUE == p_ctx->pl.request_soft_reset)
  95              	 .loc 1 166 0
  96 005c 7B68     	 ldr r3,[r7,#4]
  97 005e 93F8A531 	 ldrb r3,[r3,#421]
  98 0062 012B     	 cmp r3,#1
  99 0064 08D1     	 bne .L4
 167:C:/Users/Yushev/git/wpcqi-optiga-trust-charge/optiga/optiga/comms/ifx_i2c\ifx_i2c_physical_layer.c ****     {
 168:C:/Users/Yushev/git/wpcqi-optiga-trust-charge/optiga/optiga/comms/ifx_i2c\ifx_i2c_physical_layer.c ****         //Set the soft reset request to initial state to read register
 169:C:/Users/Yushev/git/wpcqi-optiga-trust-charge/optiga/optiga/comms/ifx_i2c\ifx_i2c_physical_layer.c ****         p_ctx->pl.request_soft_reset = PL_INIT_GET_STATUS_REG;
 100              	 .loc 1 169 0
 101 0066 7B68     	 ldr r3,[r7,#4]
 102 0068 9922     	 movs r2,#153
 103 006a 83F8A521 	 strb r2,[r3,#421]
 170:C:/Users/Yushev/git/wpcqi-optiga-trust-charge/optiga/optiga/comms/ifx_i2c\ifx_i2c_physical_layer.c ****         p_ctx->pl.frame_state = PL_STATE_SOFT_RESET;
 104              	 .loc 1 170 0
 105 006e 7B68     	 ldr r3,[r7,#4]
 106 0070 0522     	 movs r2,#5
 107 0072 83F89721 	 strb r2,[r3,#407]
 108 0076 03E0     	 b .L5
 109              	.L4:
 171:C:/Users/Yushev/git/wpcqi-optiga-trust-charge/optiga/optiga/comms/ifx_i2c\ifx_i2c_physical_layer.c ****     }
 172:C:/Users/Yushev/git/wpcqi-optiga-trust-charge/optiga/optiga/comms/ifx_i2c\ifx_i2c_physical_layer.c ****     else
 173:C:/Users/Yushev/git/wpcqi-optiga-trust-charge/optiga/optiga/comms/ifx_i2c\ifx_i2c_physical_layer.c ****     {
 174:C:/Users/Yushev/git/wpcqi-optiga-trust-charge/optiga/optiga/comms/ifx_i2c\ifx_i2c_physical_layer.c ****         p_ctx->pl.frame_state = PL_STATE_INIT;
 110              	 .loc 1 174 0
 111 0078 7B68     	 ldr r3,[r7,#4]
 112 007a 0122     	 movs r2,#1
 113 007c 83F89721 	 strb r2,[r3,#407]
 114              	.L5:
 175:C:/Users/Yushev/git/wpcqi-optiga-trust-charge/optiga/optiga/comms/ifx_i2c\ifx_i2c_physical_layer.c ****     }
 176:C:/Users/Yushev/git/wpcqi-optiga-trust-charge/optiga/optiga/comms/ifx_i2c\ifx_i2c_physical_layer.c **** 
 177:C:/Users/Yushev/git/wpcqi-optiga-trust-charge/optiga/optiga/comms/ifx_i2c\ifx_i2c_physical_layer.c ****     ifx_i2c_pl_frame_event_handler(p_ctx, IFX_I2C_STACK_SUCCESS);
 115              	 .loc 1 177 0
 116 0080 7868     	 ldr r0,[r7,#4]
 117 0082 0021     	 movs r1,#0
 118 0084 FFF7FEFF 	 bl ifx_i2c_pl_frame_event_handler
 178:C:/Users/Yushev/git/wpcqi-optiga-trust-charge/optiga/optiga/comms/ifx_i2c\ifx_i2c_physical_layer.c **** 
 179:C:/Users/Yushev/git/wpcqi-optiga-trust-charge/optiga/optiga/comms/ifx_i2c\ifx_i2c_physical_layer.c ****     return (IFX_I2C_STACK_SUCCESS);
 119              	 .loc 1 179 0
 120 0088 0023     	 movs r3,#0
 121              	.L3:
 180:C:/Users/Yushev/git/wpcqi-optiga-trust-charge/optiga/optiga/comms/ifx_i2c\ifx_i2c_physical_layer.c **** }
 122              	 .loc 1 180 0
 123 008a 1846     	 mov r0,r3
 124 008c 0837     	 adds r7,r7,#8
 125              	.LCFI3:
 126              	 .cfi_def_cfa_offset 8
 127 008e BD46     	 mov sp,r7
 128              	.LCFI4:
 129              	 .cfi_def_cfa_register 13
 130              	 
 131 0090 80BD     	 pop {r7,pc}
 132              	.L7:
 133 0092 00BF     	 .align 2
 134              	.L6:
 135 0094 00000000 	 .word ifx_i2c_pl_pal_event_handler
 136              	 .cfi_endproc
 137              	.LFE0:
 139              	 .section .text.ifx_i2c_pl_send_frame,"ax",%progbits
 140              	 .align 2
 141              	 .global ifx_i2c_pl_send_frame
 142              	 .thumb
 143              	 .thumb_func
 145              	ifx_i2c_pl_send_frame:
 146              	.LFB1:
 181:C:/Users/Yushev/git/wpcqi-optiga-trust-charge/optiga/optiga/comms/ifx_i2c\ifx_i2c_physical_layer.c **** 
 182:C:/Users/Yushev/git/wpcqi-optiga-trust-charge/optiga/optiga/comms/ifx_i2c\ifx_i2c_physical_layer.c **** optiga_lib_status_t ifx_i2c_pl_send_frame(ifx_i2c_context_t * p_ctx, uint8_t * p_frame, uint16_t fr
 183:C:/Users/Yushev/git/wpcqi-optiga-trust-charge/optiga/optiga/comms/ifx_i2c\ifx_i2c_physical_layer.c **** {
 147              	 .loc 1 183 0
 148              	 .cfi_startproc
 149              	 
 150              	 
 151 0000 80B5     	 push {r7,lr}
 152              	.LCFI5:
 153              	 .cfi_def_cfa_offset 8
 154              	 .cfi_offset 7,-8
 155              	 .cfi_offset 14,-4
 156 0002 84B0     	 sub sp,sp,#16
 157              	.LCFI6:
 158              	 .cfi_def_cfa_offset 24
 159 0004 00AF     	 add r7,sp,#0
 160              	.LCFI7:
 161              	 .cfi_def_cfa_register 7
 162 0006 F860     	 str r0,[r7,#12]
 163 0008 B960     	 str r1,[r7,#8]
 164 000a 1346     	 mov r3,r2
 165 000c FB80     	 strh r3,[r7,#6]
 184:C:/Users/Yushev/git/wpcqi-optiga-trust-charge/optiga/optiga/comms/ifx_i2c\ifx_i2c_physical_layer.c ****     // Physical Layer must be idle, set requested action
 185:C:/Users/Yushev/git/wpcqi-optiga-trust-charge/optiga/optiga/comms/ifx_i2c\ifx_i2c_physical_layer.c ****     if ((PL_STATE_INIT != p_ctx->pl.frame_state) && (PL_STATE_READY != p_ctx->pl.frame_state))
 166              	 .loc 1 185 0
 167 000e FB68     	 ldr r3,[r7,#12]
 168 0010 93F89731 	 ldrb r3,[r3,#407]
 169 0014 012B     	 cmp r3,#1
 170 0016 07D0     	 beq .L9
 171              	 .loc 1 185 0 is_stmt 0 discriminator 1
 172 0018 FB68     	 ldr r3,[r7,#12]
 173 001a 93F89731 	 ldrb r3,[r3,#407]
 174 001e 022B     	 cmp r3,#2
 175 0020 02D0     	 beq .L9
 186:C:/Users/Yushev/git/wpcqi-optiga-trust-charge/optiga/optiga/comms/ifx_i2c\ifx_i2c_physical_layer.c ****     {
 187:C:/Users/Yushev/git/wpcqi-optiga-trust-charge/optiga/optiga/comms/ifx_i2c\ifx_i2c_physical_layer.c ****         return (IFX_I2C_STACK_ERROR);
 176              	 .loc 1 187 0 is_stmt 1
 177 0022 4FF48173 	 mov r3,#258
 178 0026 10E0     	 b .L10
 179              	.L9:
 188:C:/Users/Yushev/git/wpcqi-optiga-trust-charge/optiga/optiga/comms/ifx_i2c\ifx_i2c_physical_layer.c ****     }
 189:C:/Users/Yushev/git/wpcqi-optiga-trust-charge/optiga/optiga/comms/ifx_i2c\ifx_i2c_physical_layer.c ****     p_ctx->pl.frame_action = PL_ACTION_WRITE_FRAME;
 180              	 .loc 1 189 0
 181 0028 FB68     	 ldr r3,[r7,#12]
 182 002a 0122     	 movs r2,#1
 183 002c 83F89621 	 strb r2,[r3,#406]
 190:C:/Users/Yushev/git/wpcqi-optiga-trust-charge/optiga/optiga/comms/ifx_i2c\ifx_i2c_physical_layer.c **** 
 191:C:/Users/Yushev/git/wpcqi-optiga-trust-charge/optiga/optiga/comms/ifx_i2c\ifx_i2c_physical_layer.c ****     // Store reference to frame for sending it later
 192:C:/Users/Yushev/git/wpcqi-optiga-trust-charge/optiga/optiga/comms/ifx_i2c\ifx_i2c_physical_layer.c ****     p_ctx->pl.p_tx_frame   = p_frame;
 184              	 .loc 1 192 0
 185 0030 FB68     	 ldr r3,[r7,#12]
 186 0032 BA68     	 ldr r2,[r7,#8]
 187 0034 C3F89821 	 str r2,[r3,#408]
 193:C:/Users/Yushev/git/wpcqi-optiga-trust-charge/optiga/optiga/comms/ifx_i2c\ifx_i2c_physical_layer.c ****     p_ctx->pl.tx_frame_len = frame_len;
 188              	 .loc 1 193 0
 189 0038 FB68     	 ldr r3,[r7,#12]
 190 003a FA88     	 ldrh r2,[r7,#6]
 191 003c A3F89C21 	 strh r2,[r3,#412]
 194:C:/Users/Yushev/git/wpcqi-optiga-trust-charge/optiga/optiga/comms/ifx_i2c\ifx_i2c_physical_layer.c **** 
 195:C:/Users/Yushev/git/wpcqi-optiga-trust-charge/optiga/optiga/comms/ifx_i2c\ifx_i2c_physical_layer.c ****     ifx_i2c_pl_frame_event_handler(p_ctx, IFX_I2C_STACK_SUCCESS);
 192              	 .loc 1 195 0
 193 0040 F868     	 ldr r0,[r7,#12]
 194 0042 0021     	 movs r1,#0
 195 0044 FFF7FEFF 	 bl ifx_i2c_pl_frame_event_handler
 196:C:/Users/Yushev/git/wpcqi-optiga-trust-charge/optiga/optiga/comms/ifx_i2c\ifx_i2c_physical_layer.c ****     return (IFX_I2C_STACK_SUCCESS);
 196              	 .loc 1 196 0
 197 0048 0023     	 movs r3,#0
 198              	.L10:
 197:C:/Users/Yushev/git/wpcqi-optiga-trust-charge/optiga/optiga/comms/ifx_i2c\ifx_i2c_physical_layer.c **** }
 199              	 .loc 1 197 0
 200 004a 1846     	 mov r0,r3
 201 004c 1037     	 adds r7,r7,#16
 202              	.LCFI8:
 203              	 .cfi_def_cfa_offset 8
 204 004e BD46     	 mov sp,r7
 205              	.LCFI9:
 206              	 .cfi_def_cfa_register 13
 207              	 
 208 0050 80BD     	 pop {r7,pc}
 209              	 .cfi_endproc
 210              	.LFE1:
 212 0052 00BF     	 .section .text.ifx_i2c_pl_receive_frame,"ax",%progbits
 213              	 .align 2
 214              	 .global ifx_i2c_pl_receive_frame
 215              	 .thumb
 216              	 .thumb_func
 218              	ifx_i2c_pl_receive_frame:
 219              	.LFB2:
 198:C:/Users/Yushev/git/wpcqi-optiga-trust-charge/optiga/optiga/comms/ifx_i2c\ifx_i2c_physical_layer.c **** 
 199:C:/Users/Yushev/git/wpcqi-optiga-trust-charge/optiga/optiga/comms/ifx_i2c\ifx_i2c_physical_layer.c **** optiga_lib_status_t ifx_i2c_pl_receive_frame(ifx_i2c_context_t * p_ctx)
 200:C:/Users/Yushev/git/wpcqi-optiga-trust-charge/optiga/optiga/comms/ifx_i2c\ifx_i2c_physical_layer.c **** {
 220              	 .loc 1 200 0
 221              	 .cfi_startproc
 222              	 
 223              	 
 224 0000 80B5     	 push {r7,lr}
 225              	.LCFI10:
 226              	 .cfi_def_cfa_offset 8
 227              	 .cfi_offset 7,-8
 228              	 .cfi_offset 14,-4
 229 0002 82B0     	 sub sp,sp,#8
 230              	.LCFI11:
 231              	 .cfi_def_cfa_offset 16
 232 0004 00AF     	 add r7,sp,#0
 233              	.LCFI12:
 234              	 .cfi_def_cfa_register 7
 235 0006 7860     	 str r0,[r7,#4]
 201:C:/Users/Yushev/git/wpcqi-optiga-trust-charge/optiga/optiga/comms/ifx_i2c\ifx_i2c_physical_layer.c ****     // Physical Layer must be idle, set requested action
 202:C:/Users/Yushev/git/wpcqi-optiga-trust-charge/optiga/optiga/comms/ifx_i2c\ifx_i2c_physical_layer.c ****     if ((PL_STATE_INIT != p_ctx->pl.frame_state) && (PL_STATE_READY != p_ctx->pl.frame_state))
 236              	 .loc 1 202 0
 237 0008 7B68     	 ldr r3,[r7,#4]
 238 000a 93F89731 	 ldrb r3,[r3,#407]
 239 000e 012B     	 cmp r3,#1
 240 0010 07D0     	 beq .L12
 241              	 .loc 1 202 0 is_stmt 0 discriminator 1
 242 0012 7B68     	 ldr r3,[r7,#4]
 243 0014 93F89731 	 ldrb r3,[r3,#407]
 244 0018 022B     	 cmp r3,#2
 245 001a 02D0     	 beq .L12
 203:C:/Users/Yushev/git/wpcqi-optiga-trust-charge/optiga/optiga/comms/ifx_i2c\ifx_i2c_physical_layer.c ****     {
 204:C:/Users/Yushev/git/wpcqi-optiga-trust-charge/optiga/optiga/comms/ifx_i2c\ifx_i2c_physical_layer.c ****         return (IFX_I2C_STACK_ERROR);
 246              	 .loc 1 204 0 is_stmt 1
 247 001c 4FF48173 	 mov r3,#258
 248 0020 08E0     	 b .L13
 249              	.L12:
 205:C:/Users/Yushev/git/wpcqi-optiga-trust-charge/optiga/optiga/comms/ifx_i2c\ifx_i2c_physical_layer.c ****     }
 206:C:/Users/Yushev/git/wpcqi-optiga-trust-charge/optiga/optiga/comms/ifx_i2c\ifx_i2c_physical_layer.c ****     p_ctx->pl.frame_action = PL_ACTION_READ_FRAME;
 250              	 .loc 1 206 0
 251 0022 7B68     	 ldr r3,[r7,#4]
 252 0024 0222     	 movs r2,#2
 253 0026 83F89621 	 strb r2,[r3,#406]
 207:C:/Users/Yushev/git/wpcqi-optiga-trust-charge/optiga/optiga/comms/ifx_i2c\ifx_i2c_physical_layer.c **** 
 208:C:/Users/Yushev/git/wpcqi-optiga-trust-charge/optiga/optiga/comms/ifx_i2c\ifx_i2c_physical_layer.c ****     ifx_i2c_pl_frame_event_handler(p_ctx, IFX_I2C_STACK_SUCCESS);
 254              	 .loc 1 208 0
 255 002a 7868     	 ldr r0,[r7,#4]
 256 002c 0021     	 movs r1,#0
 257 002e FFF7FEFF 	 bl ifx_i2c_pl_frame_event_handler
 209:C:/Users/Yushev/git/wpcqi-optiga-trust-charge/optiga/optiga/comms/ifx_i2c\ifx_i2c_physical_layer.c ****     return (IFX_I2C_STACK_SUCCESS);
 258              	 .loc 1 209 0
 259 0032 0023     	 movs r3,#0
 260              	.L13:
 210:C:/Users/Yushev/git/wpcqi-optiga-trust-charge/optiga/optiga/comms/ifx_i2c\ifx_i2c_physical_layer.c **** }
 261              	 .loc 1 210 0
 262 0034 1846     	 mov r0,r3
 263 0036 0837     	 adds r7,r7,#8
 264              	.LCFI13:
 265              	 .cfi_def_cfa_offset 8
 266 0038 BD46     	 mov sp,r7
 267              	.LCFI14:
 268              	 .cfi_def_cfa_register 13
 269              	 
 270 003a 80BD     	 pop {r7,pc}
 271              	 .cfi_endproc
 272              	.LFE2:
 274              	 .section .text.ifx_i2c_pl_write_slave_address,"ax",%progbits
 275              	 .align 2
 276              	 .global ifx_i2c_pl_write_slave_address
 277              	 .thumb
 278              	 .thumb_func
 280              	ifx_i2c_pl_write_slave_address:
 281              	.LFB3:
 211:C:/Users/Yushev/git/wpcqi-optiga-trust-charge/optiga/optiga/comms/ifx_i2c\ifx_i2c_physical_layer.c **** 
 212:C:/Users/Yushev/git/wpcqi-optiga-trust-charge/optiga/optiga/comms/ifx_i2c\ifx_i2c_physical_layer.c **** optiga_lib_status_t ifx_i2c_pl_write_slave_address(ifx_i2c_context_t * p_ctx, uint8_t slave_address
 213:C:/Users/Yushev/git/wpcqi-optiga-trust-charge/optiga/optiga/comms/ifx_i2c\ifx_i2c_physical_layer.c **** {
 282              	 .loc 1 213 0
 283              	 .cfi_startproc
 284              	 
 285              	 
 286 0000 80B5     	 push {r7,lr}
 287              	.LCFI15:
 288              	 .cfi_def_cfa_offset 8
 289              	 .cfi_offset 7,-8
 290              	 .cfi_offset 14,-4
 291 0002 84B0     	 sub sp,sp,#16
 292              	.LCFI16:
 293              	 .cfi_def_cfa_offset 24
 294 0004 00AF     	 add r7,sp,#0
 295              	.LCFI17:
 296              	 .cfi_def_cfa_register 7
 297 0006 7860     	 str r0,[r7,#4]
 298 0008 0B46     	 mov r3,r1
 299 000a FB70     	 strb r3,[r7,#3]
 300 000c 1346     	 mov r3,r2
 301 000e BB70     	 strb r3,[r7,#2]
 214:C:/Users/Yushev/git/wpcqi-optiga-trust-charge/optiga/optiga/comms/ifx_i2c\ifx_i2c_physical_layer.c ****     optiga_lib_status_t status = IFX_I2C_STACK_ERROR;
 302              	 .loc 1 214 0
 303 0010 4FF48173 	 mov r3,#258
 304 0014 FB81     	 strh r3,[r7,#14]
 215:C:/Users/Yushev/git/wpcqi-optiga-trust-charge/optiga/optiga/comms/ifx_i2c\ifx_i2c_physical_layer.c ****     upper_layer_callback_t * p_temp_upper_layer_event_handler;
 216:C:/Users/Yushev/git/wpcqi-optiga-trust-charge/optiga/optiga/comms/ifx_i2c\ifx_i2c_physical_layer.c **** 
 217:C:/Users/Yushev/git/wpcqi-optiga-trust-charge/optiga/optiga/comms/ifx_i2c\ifx_i2c_physical_layer.c ****     /// @cond hidden
 218:C:/Users/Yushev/git/wpcqi-optiga-trust-charge/optiga/optiga/comms/ifx_i2c\ifx_i2c_physical_layer.c ****     #define PAL_WRITE_INIT_STATUS       (0x00FF)
 219:C:/Users/Yushev/git/wpcqi-optiga-trust-charge/optiga/optiga/comms/ifx_i2c\ifx_i2c_physical_layer.c ****     #define ADDRESS_OFFSET              (0x02)
 220:C:/Users/Yushev/git/wpcqi-optiga-trust-charge/optiga/optiga/comms/ifx_i2c\ifx_i2c_physical_layer.c ****     #define BASE_ADDRESS_REG_OFFSET     (0x00)
 221:C:/Users/Yushev/git/wpcqi-optiga-trust-charge/optiga/optiga/comms/ifx_i2c\ifx_i2c_physical_layer.c ****     #define MODE_OFFSET                 (0x01)
 222:C:/Users/Yushev/git/wpcqi-optiga-trust-charge/optiga/optiga/comms/ifx_i2c\ifx_i2c_physical_layer.c ****     #define POLLING_INTERVAL            (0x01)
 223:C:/Users/Yushev/git/wpcqi-optiga-trust-charge/optiga/optiga/comms/ifx_i2c\ifx_i2c_physical_layer.c ****     #define DELAY_FOR_COMPLETION        (0x0A)
 224:C:/Users/Yushev/git/wpcqi-optiga-trust-charge/optiga/optiga/comms/ifx_i2c\ifx_i2c_physical_layer.c ****     /// @endcond
 225:C:/Users/Yushev/git/wpcqi-optiga-trust-charge/optiga/optiga/comms/ifx_i2c\ifx_i2c_physical_layer.c **** 
 226:C:/Users/Yushev/git/wpcqi-optiga-trust-charge/optiga/optiga/comms/ifx_i2c\ifx_i2c_physical_layer.c ****     //lint --e{611} suppress "void* function pointer is type casted to upper_layer_callback_t type"
 227:C:/Users/Yushev/git/wpcqi-optiga-trust-charge/optiga/optiga/comms/ifx_i2c\ifx_i2c_physical_layer.c ****     //ifx i2c wrapper api for setting slave address in synchronous. hence the event handler is back
 228:C:/Users/Yushev/git/wpcqi-optiga-trust-charge/optiga/optiga/comms/ifx_i2c\ifx_i2c_physical_layer.c ****     p_temp_upper_layer_event_handler = (upper_layer_callback_t * )(p_ctx->p_pal_i2c_ctx->upper_laye
 305              	 .loc 1 228 0
 306 0016 7B68     	 ldr r3,[r7,#4]
 307 0018 1B69     	 ldr r3,[r3,#16]
 308 001a DB68     	 ldr r3,[r3,#12]
 309 001c BB60     	 str r3,[r7,#8]
 229:C:/Users/Yushev/git/wpcqi-optiga-trust-charge/optiga/optiga/comms/ifx_i2c\ifx_i2c_physical_layer.c ****     //since the lower level APIs are asynchronous, a temporary event handler for set slave address 
 230:C:/Users/Yushev/git/wpcqi-optiga-trust-charge/optiga/optiga/comms/ifx_i2c\ifx_i2c_physical_layer.c ****     p_ctx->p_pal_i2c_ctx->upper_layer_event_handler = ifx_i2c_pl_pal_slave_addr_event_handler;
 310              	 .loc 1 230 0
 311 001e 7B68     	 ldr r3,[r7,#4]
 312 0020 1B69     	 ldr r3,[r3,#16]
 313 0022 354A     	 ldr r2,.L24
 314 0024 DA60     	 str r2,[r3,#12]
 231:C:/Users/Yushev/git/wpcqi-optiga-trust-charge/optiga/optiga/comms/ifx_i2c\ifx_i2c_physical_layer.c **** 
 232:C:/Users/Yushev/git/wpcqi-optiga-trust-charge/optiga/optiga/comms/ifx_i2c\ifx_i2c_physical_layer.c ****     p_ctx->pl.buffer[BASE_ADDRESS_REG_OFFSET] = PL_REG_BASE_ADDR;
 315              	 .loc 1 232 0
 316 0026 7B68     	 ldr r3,[r7,#4]
 317 0028 8322     	 movs r2,#131
 318 002a 83F87820 	 strb r2,[r3,#120]
 233:C:/Users/Yushev/git/wpcqi-optiga-trust-charge/optiga/optiga/comms/ifx_i2c\ifx_i2c_physical_layer.c ****     p_ctx->pl.buffer[MODE_OFFSET] = PL_REG_BASE_ADDR_VOLATILE;
 319              	 .loc 1 233 0
 320 002e 7B68     	 ldr r3,[r7,#4]
 321 0030 0022     	 movs r2,#0
 322 0032 83F87920 	 strb r2,[r3,#121]
 234:C:/Users/Yushev/git/wpcqi-optiga-trust-charge/optiga/optiga/comms/ifx_i2c\ifx_i2c_physical_layer.c ****     //supported base addresses are 0x00 - 0x7F. Hence 8th bit is ignored
 235:C:/Users/Yushev/git/wpcqi-optiga-trust-charge/optiga/optiga/comms/ifx_i2c\ifx_i2c_physical_layer.c ****     p_ctx->pl.buffer[ADDRESS_OFFSET] = slave_address & PL_REG_I2C_BASE_ADDRESS_MASK;
 323              	 .loc 1 235 0
 324 0036 FB78     	 ldrb r3,[r7,#3]
 325 0038 03F07F03 	 and r3,r3,#127
 326 003c DAB2     	 uxtb r2,r3
 327 003e 7B68     	 ldr r3,[r7,#4]
 328 0040 83F87A20 	 strb r2,[r3,#122]
 236:C:/Users/Yushev/git/wpcqi-optiga-trust-charge/optiga/optiga/comms/ifx_i2c\ifx_i2c_physical_layer.c ****     p_ctx->pl.buffer_tx_len = 1 + PL_REG_LEN_BASE_ADDR;
 329              	 .loc 1 236 0
 330 0044 7B68     	 ldr r3,[r7,#4]
 331 0046 0322     	 movs r2,#3
 332 0048 A3F88E21 	 strh r2,[r3,#398]
 237:C:/Users/Yushev/git/wpcqi-optiga-trust-charge/optiga/optiga/comms/ifx_i2c\ifx_i2c_physical_layer.c **** 
 238:C:/Users/Yushev/git/wpcqi-optiga-trust-charge/optiga/optiga/comms/ifx_i2c\ifx_i2c_physical_layer.c ****     if (PL_REG_BASE_ADDR_VOLATILE != persistent)
 333              	 .loc 1 238 0
 334 004c BB78     	 ldrb r3,[r7,#2]
 335 004e 002B     	 cmp r3,#0
 336 0050 03D0     	 beq .L15
 239:C:/Users/Yushev/git/wpcqi-optiga-trust-charge/optiga/optiga/comms/ifx_i2c\ifx_i2c_physical_layer.c ****     {
 240:C:/Users/Yushev/git/wpcqi-optiga-trust-charge/optiga/optiga/comms/ifx_i2c\ifx_i2c_physical_layer.c ****         p_ctx->pl.buffer[MODE_OFFSET] = PL_REG_BASE_ADDR_PERSISTANT;
 337              	 .loc 1 240 0
 338 0052 7B68     	 ldr r3,[r7,#4]
 339 0054 8022     	 movs r2,#128
 340 0056 83F87920 	 strb r2,[r3,#121]
 341              	.L15:
 241:C:/Users/Yushev/git/wpcqi-optiga-trust-charge/optiga/optiga/comms/ifx_i2c\ifx_i2c_physical_layer.c ****     }
 242:C:/Users/Yushev/git/wpcqi-optiga-trust-charge/optiga/optiga/comms/ifx_i2c\ifx_i2c_physical_layer.c **** 
 243:C:/Users/Yushev/git/wpcqi-optiga-trust-charge/optiga/optiga/comms/ifx_i2c\ifx_i2c_physical_layer.c ****     p_ctx->pl.retry_counter   = PL_POLLING_MAX_CNT;
 342              	 .loc 1 243 0
 343 005a 7B68     	 ldr r3,[r7,#4]
 344 005c C822     	 movs r2,#200
 345 005e A3F89421 	 strh r2,[r3,#404]
 244:C:/Users/Yushev/git/wpcqi-optiga-trust-charge/optiga/optiga/comms/ifx_i2c\ifx_i2c_physical_layer.c **** 
 245:C:/Users/Yushev/git/wpcqi-optiga-trust-charge/optiga/optiga/comms/ifx_i2c\ifx_i2c_physical_layer.c ****     while (0 != p_ctx->pl.retry_counter)
 346              	 .loc 1 245 0
 347 0062 24E0     	 b .L16
 348              	.L20:
 246:C:/Users/Yushev/git/wpcqi-optiga-trust-charge/optiga/optiga/comms/ifx_i2c\ifx_i2c_physical_layer.c ****     {
 247:C:/Users/Yushev/git/wpcqi-optiga-trust-charge/optiga/optiga/comms/ifx_i2c\ifx_i2c_physical_layer.c ****         g_pal_event_status = PAL_WRITE_INIT_STATUS;
 349              	 .loc 1 247 0
 350 0064 254B     	 ldr r3,.L24+4
 351 0066 FF22     	 movs r2,#255
 352 0068 1A80     	 strh r2,[r3]
 248:C:/Users/Yushev/git/wpcqi-optiga-trust-charge/optiga/optiga/comms/ifx_i2c\ifx_i2c_physical_layer.c **** 
 249:C:/Users/Yushev/git/wpcqi-optiga-trust-charge/optiga/optiga/comms/ifx_i2c\ifx_i2c_physical_layer.c ****         //lint --e{534} suppress "Error handling is not required so return value is not checked"
 250:C:/Users/Yushev/git/wpcqi-optiga-trust-charge/optiga/optiga/comms/ifx_i2c\ifx_i2c_physical_layer.c ****         pal_i2c_write(p_ctx->p_pal_i2c_ctx, p_ctx->pl.buffer, p_ctx->pl.buffer_tx_len);
 353              	 .loc 1 250 0
 354 006a 7B68     	 ldr r3,[r7,#4]
 355 006c 1969     	 ldr r1,[r3,#16]
 356 006e 7B68     	 ldr r3,[r7,#4]
 357 0070 03F17802 	 add r2,r3,#120
 358 0074 7B68     	 ldr r3,[r7,#4]
 359 0076 B3F88E31 	 ldrh r3,[r3,#398]
 360 007a 0846     	 mov r0,r1
 361 007c 1146     	 mov r1,r2
 362 007e 1A46     	 mov r2,r3
 363 0080 FFF7FEFF 	 bl pal_i2c_write
 251:C:/Users/Yushev/git/wpcqi-optiga-trust-charge/optiga/optiga/comms/ifx_i2c\ifx_i2c_physical_layer.c ****         while (PAL_WRITE_INIT_STATUS == g_pal_event_status){};
 364              	 .loc 1 251 0
 365 0084 00BF     	 nop
 366              	.L17:
 367              	 .loc 1 251 0 is_stmt 0 discriminator 1
 368 0086 1D4B     	 ldr r3,.L24+4
 369 0088 1B88     	 ldrh r3,[r3]
 370 008a FF2B     	 cmp r3,#255
 371 008c FBD0     	 beq .L17
 252:C:/Users/Yushev/git/wpcqi-optiga-trust-charge/optiga/optiga/comms/ifx_i2c\ifx_i2c_physical_layer.c ****         if (PAL_I2C_EVENT_SUCCESS == g_pal_event_status)
 372              	 .loc 1 252 0 is_stmt 1
 373 008e 1B4B     	 ldr r3,.L24+4
 374 0090 1B88     	 ldrh r3,[r3]
 375 0092 002B     	 cmp r3,#0
 376 0094 00D1     	 bne .L18
 253:C:/Users/Yushev/git/wpcqi-optiga-trust-charge/optiga/optiga/comms/ifx_i2c\ifx_i2c_physical_layer.c ****         {
 254:C:/Users/Yushev/git/wpcqi-optiga-trust-charge/optiga/optiga/comms/ifx_i2c\ifx_i2c_physical_layer.c ****             break;
 377              	 .loc 1 254 0
 378 0096 0FE0     	 b .L19
 379              	.L18:
 255:C:/Users/Yushev/git/wpcqi-optiga-trust-charge/optiga/optiga/comms/ifx_i2c\ifx_i2c_physical_layer.c ****         }
 256:C:/Users/Yushev/git/wpcqi-optiga-trust-charge/optiga/optiga/comms/ifx_i2c\ifx_i2c_physical_layer.c ****         p_ctx->pl.retry_counter--;
 380              	 .loc 1 256 0
 381 0098 7B68     	 ldr r3,[r7,#4]
 382 009a B3F89431 	 ldrh r3,[r3,#404]
 383 009e 013B     	 subs r3,r3,#1
 384 00a0 9AB2     	 uxth r2,r3
 385 00a2 7B68     	 ldr r3,[r7,#4]
 386 00a4 A3F89421 	 strh r2,[r3,#404]
 257:C:/Users/Yushev/git/wpcqi-optiga-trust-charge/optiga/optiga/comms/ifx_i2c\ifx_i2c_physical_layer.c ****         pal_os_timer_delay_in_milliseconds(POLLING_INTERVAL);
 387              	 .loc 1 257 0
 388 00a8 0120     	 movs r0,#1
 389 00aa FFF7FEFF 	 bl pal_os_timer_delay_in_milliseconds
 390              	.L16:
 245:C:/Users/Yushev/git/wpcqi-optiga-trust-charge/optiga/optiga/comms/ifx_i2c\ifx_i2c_physical_layer.c ****     {
 391              	 .loc 1 245 0
 392 00ae 7B68     	 ldr r3,[r7,#4]
 393 00b0 B3F89431 	 ldrh r3,[r3,#404]
 394 00b4 002B     	 cmp r3,#0
 395 00b6 D5D1     	 bne .L20
 396              	.L19:
 258:C:/Users/Yushev/git/wpcqi-optiga-trust-charge/optiga/optiga/comms/ifx_i2c\ifx_i2c_physical_layer.c ****     }
 259:C:/Users/Yushev/git/wpcqi-optiga-trust-charge/optiga/optiga/comms/ifx_i2c\ifx_i2c_physical_layer.c **** 
 260:C:/Users/Yushev/git/wpcqi-optiga-trust-charge/optiga/optiga/comms/ifx_i2c\ifx_i2c_physical_layer.c ****     if (PAL_I2C_EVENT_SUCCESS == g_pal_event_status)
 397              	 .loc 1 260 0
 398 00b8 104B     	 ldr r3,.L24+4
 399 00ba 1B88     	 ldrh r3,[r3]
 400 00bc 002B     	 cmp r3,#0
 401 00be 12D1     	 bne .L21
 261:C:/Users/Yushev/git/wpcqi-optiga-trust-charge/optiga/optiga/comms/ifx_i2c\ifx_i2c_physical_layer.c ****     {
 262:C:/Users/Yushev/git/wpcqi-optiga-trust-charge/optiga/optiga/comms/ifx_i2c\ifx_i2c_physical_layer.c ****         p_ctx->p_pal_i2c_ctx->slave_address = p_ctx->pl.buffer[ADDRESS_OFFSET];
 402              	 .loc 1 262 0
 403 00c0 7B68     	 ldr r3,[r7,#4]
 404 00c2 1B69     	 ldr r3,[r3,#16]
 405 00c4 7A68     	 ldr r2,[r7,#4]
 406 00c6 92F87A20 	 ldrb r2,[r2,#122]
 407 00ca 1A71     	 strb r2,[r3,#4]
 263:C:/Users/Yushev/git/wpcqi-optiga-trust-charge/optiga/optiga/comms/ifx_i2c\ifx_i2c_physical_layer.c ****         if (PL_REG_BASE_ADDR_VOLATILE != persistent)
 408              	 .loc 1 263 0
 409 00cc BB78     	 ldrb r3,[r7,#2]
 410 00ce 002B     	 cmp r3,#0
 411 00d0 04D0     	 beq .L22
 264:C:/Users/Yushev/git/wpcqi-optiga-trust-charge/optiga/optiga/comms/ifx_i2c\ifx_i2c_physical_layer.c ****         {
 265:C:/Users/Yushev/git/wpcqi-optiga-trust-charge/optiga/optiga/comms/ifx_i2c\ifx_i2c_physical_layer.c ****             p_ctx->slave_address = p_ctx->pl.buffer[ADDRESS_OFFSET];
 412              	 .loc 1 265 0
 413 00d2 7B68     	 ldr r3,[r7,#4]
 414 00d4 93F87A20 	 ldrb r2,[r3,#122]
 415 00d8 7B68     	 ldr r3,[r7,#4]
 416 00da 1A70     	 strb r2,[r3]
 417              	.L22:
 266:C:/Users/Yushev/git/wpcqi-optiga-trust-charge/optiga/optiga/comms/ifx_i2c\ifx_i2c_physical_layer.c ****         }
 267:C:/Users/Yushev/git/wpcqi-optiga-trust-charge/optiga/optiga/comms/ifx_i2c\ifx_i2c_physical_layer.c ****         pal_os_timer_delay_in_milliseconds(DELAY_FOR_COMPLETION);
 418              	 .loc 1 267 0
 419 00dc 0A20     	 movs r0,#10
 420 00de FFF7FEFF 	 bl pal_os_timer_delay_in_milliseconds
 268:C:/Users/Yushev/git/wpcqi-optiga-trust-charge/optiga/optiga/comms/ifx_i2c\ifx_i2c_physical_layer.c ****         status = IFX_I2C_STACK_SUCCESS;
 421              	 .loc 1 268 0
 422 00e2 0023     	 movs r3,#0
 423 00e4 FB81     	 strh r3,[r7,#14]
 424              	.L21:
 269:C:/Users/Yushev/git/wpcqi-optiga-trust-charge/optiga/optiga/comms/ifx_i2c\ifx_i2c_physical_layer.c ****     }
 270:C:/Users/Yushev/git/wpcqi-optiga-trust-charge/optiga/optiga/comms/ifx_i2c\ifx_i2c_physical_layer.c ****     //restoring the backed up event handler
 271:C:/Users/Yushev/git/wpcqi-optiga-trust-charge/optiga/optiga/comms/ifx_i2c\ifx_i2c_physical_layer.c ****     p_ctx->p_pal_i2c_ctx->upper_layer_event_handler = p_temp_upper_layer_event_handler;
 425              	 .loc 1 271 0
 426 00e6 7B68     	 ldr r3,[r7,#4]
 427 00e8 1B69     	 ldr r3,[r3,#16]
 428 00ea BA68     	 ldr r2,[r7,#8]
 429 00ec DA60     	 str r2,[r3,#12]
 272:C:/Users/Yushev/git/wpcqi-optiga-trust-charge/optiga/optiga/comms/ifx_i2c\ifx_i2c_physical_layer.c **** 
 273:C:/Users/Yushev/git/wpcqi-optiga-trust-charge/optiga/optiga/comms/ifx_i2c\ifx_i2c_physical_layer.c ****     /// @cond hidden
 274:C:/Users/Yushev/git/wpcqi-optiga-trust-charge/optiga/optiga/comms/ifx_i2c\ifx_i2c_physical_layer.c ****     #undef PAL_WRITE_INIT_STATUS
 275:C:/Users/Yushev/git/wpcqi-optiga-trust-charge/optiga/optiga/comms/ifx_i2c\ifx_i2c_physical_layer.c ****     #undef ADDRESS_OFFSET
 276:C:/Users/Yushev/git/wpcqi-optiga-trust-charge/optiga/optiga/comms/ifx_i2c\ifx_i2c_physical_layer.c ****     #undef BASE_ADDRESS_REG_OFFSET
 277:C:/Users/Yushev/git/wpcqi-optiga-trust-charge/optiga/optiga/comms/ifx_i2c\ifx_i2c_physical_layer.c ****     #undef MODE_OFFSET
 278:C:/Users/Yushev/git/wpcqi-optiga-trust-charge/optiga/optiga/comms/ifx_i2c\ifx_i2c_physical_layer.c ****     #undef POLLING_INTERVAL
 279:C:/Users/Yushev/git/wpcqi-optiga-trust-charge/optiga/optiga/comms/ifx_i2c\ifx_i2c_physical_layer.c ****     #undef DELAY_FOR_COMPLETION
 280:C:/Users/Yushev/git/wpcqi-optiga-trust-charge/optiga/optiga/comms/ifx_i2c\ifx_i2c_physical_layer.c ****     /// @endcond
 281:C:/Users/Yushev/git/wpcqi-optiga-trust-charge/optiga/optiga/comms/ifx_i2c\ifx_i2c_physical_layer.c **** 
 282:C:/Users/Yushev/git/wpcqi-optiga-trust-charge/optiga/optiga/comms/ifx_i2c\ifx_i2c_physical_layer.c ****     return (status);
 430              	 .loc 1 282 0
 431 00ee FB89     	 ldrh r3,[r7,#14]
 283:C:/Users/Yushev/git/wpcqi-optiga-trust-charge/optiga/optiga/comms/ifx_i2c\ifx_i2c_physical_layer.c **** }
 432              	 .loc 1 283 0
 433 00f0 1846     	 mov r0,r3
 434 00f2 1037     	 adds r7,r7,#16
 435              	.LCFI18:
 436              	 .cfi_def_cfa_offset 8
 437 00f4 BD46     	 mov sp,r7
 438              	.LCFI19:
 439              	 .cfi_def_cfa_register 13
 440              	 
 441 00f6 80BD     	 pop {r7,pc}
 442              	.L25:
 443              	 .align 2
 444              	.L24:
 445 00f8 00000000 	 .word ifx_i2c_pl_pal_slave_addr_event_handler
 446 00fc 00000000 	 .word g_pal_event_status
 447              	 .cfi_endproc
 448              	.LFE3:
 450              	 .section .text.ifx_i2c_pl_read_register,"ax",%progbits
 451              	 .align 2
 452              	 .thumb
 453              	 .thumb_func
 455              	ifx_i2c_pl_read_register:
 456              	.LFB4:
 284:C:/Users/Yushev/git/wpcqi-optiga-trust-charge/optiga/optiga/comms/ifx_i2c\ifx_i2c_physical_layer.c **** 
 285:C:/Users/Yushev/git/wpcqi-optiga-trust-charge/optiga/optiga/comms/ifx_i2c\ifx_i2c_physical_layer.c **** _STATIC_H void ifx_i2c_pl_read_register(ifx_i2c_context_t * p_ctx, uint8_t reg_addr, uint16_t reg_l
 286:C:/Users/Yushev/git/wpcqi-optiga-trust-charge/optiga/optiga/comms/ifx_i2c\ifx_i2c_physical_layer.c **** {
 457              	 .loc 1 286 0
 458              	 .cfi_startproc
 459              	 
 460              	 
 461 0000 80B5     	 push {r7,lr}
 462              	.LCFI20:
 463              	 .cfi_def_cfa_offset 8
 464              	 .cfi_offset 7,-8
 465              	 .cfi_offset 14,-4
 466 0002 82B0     	 sub sp,sp,#8
 467              	.LCFI21:
 468              	 .cfi_def_cfa_offset 16
 469 0004 00AF     	 add r7,sp,#0
 470              	.LCFI22:
 471              	 .cfi_def_cfa_register 7
 472 0006 7860     	 str r0,[r7,#4]
 473 0008 0B46     	 mov r3,r1
 474 000a FB70     	 strb r3,[r7,#3]
 475 000c 1346     	 mov r3,r2
 476 000e 3B80     	 strh r3,[r7]
 287:C:/Users/Yushev/git/wpcqi-optiga-trust-charge/optiga/optiga/comms/ifx_i2c\ifx_i2c_physical_layer.c ****     LOG_PL("[IFX-PL]: Read register %x len %d\n", reg_addr, reg_len);
 288:C:/Users/Yushev/git/wpcqi-optiga-trust-charge/optiga/optiga/comms/ifx_i2c\ifx_i2c_physical_layer.c **** 
 289:C:/Users/Yushev/git/wpcqi-optiga-trust-charge/optiga/optiga/comms/ifx_i2c\ifx_i2c_physical_layer.c ****     // Prepare transmit buffer to write register address
 290:C:/Users/Yushev/git/wpcqi-optiga-trust-charge/optiga/optiga/comms/ifx_i2c\ifx_i2c_physical_layer.c ****     p_ctx->pl.buffer[0]     = reg_addr;
 477              	 .loc 1 290 0
 478 0010 7B68     	 ldr r3,[r7,#4]
 479 0012 FA78     	 ldrb r2,[r7,#3]
 480 0014 83F87820 	 strb r2,[r3,#120]
 291:C:/Users/Yushev/git/wpcqi-optiga-trust-charge/optiga/optiga/comms/ifx_i2c\ifx_i2c_physical_layer.c ****     p_ctx->pl.buffer_tx_len = 1;
 481              	 .loc 1 291 0
 482 0018 7B68     	 ldr r3,[r7,#4]
 483 001a 0122     	 movs r2,#1
 484 001c A3F88E21 	 strh r2,[r3,#398]
 292:C:/Users/Yushev/git/wpcqi-optiga-trust-charge/optiga/optiga/comms/ifx_i2c\ifx_i2c_physical_layer.c **** 
 293:C:/Users/Yushev/git/wpcqi-optiga-trust-charge/optiga/optiga/comms/ifx_i2c\ifx_i2c_physical_layer.c ****     // Set low level interface variables and start transmission
 294:C:/Users/Yushev/git/wpcqi-optiga-trust-charge/optiga/optiga/comms/ifx_i2c\ifx_i2c_physical_layer.c ****     p_ctx->pl.buffer_rx_len   = reg_len;
 485              	 .loc 1 294 0
 486 0020 7B68     	 ldr r3,[r7,#4]
 487 0022 3A88     	 ldrh r2,[r7]
 488 0024 A3F89021 	 strh r2,[r3,#400]
 295:C:/Users/Yushev/git/wpcqi-optiga-trust-charge/optiga/optiga/comms/ifx_i2c\ifx_i2c_physical_layer.c ****     p_ctx->pl.register_action = PL_ACTION_READ_REGISTER;
 489              	 .loc 1 295 0
 490 0028 7B68     	 ldr r3,[r7,#4]
 491 002a 0122     	 movs r2,#1
 492 002c 83F89221 	 strb r2,[r3,#402]
 296:C:/Users/Yushev/git/wpcqi-optiga-trust-charge/optiga/optiga/comms/ifx_i2c\ifx_i2c_physical_layer.c ****     p_ctx->pl.retry_counter   = PL_POLLING_MAX_CNT;
 493              	 .loc 1 296 0
 494 0030 7B68     	 ldr r3,[r7,#4]
 495 0032 C822     	 movs r2,#200
 496 0034 A3F89421 	 strh r2,[r3,#404]
 297:C:/Users/Yushev/git/wpcqi-optiga-trust-charge/optiga/optiga/comms/ifx_i2c\ifx_i2c_physical_layer.c ****     p_ctx->pl.i2c_cmd         = PL_I2C_CMD_WRITE;
 497              	 .loc 1 297 0
 498 0038 7B68     	 ldr r3,[r7,#4]
 499 003a 0122     	 movs r2,#1
 500 003c 83F89321 	 strb r2,[r3,#403]
 298:C:/Users/Yushev/git/wpcqi-optiga-trust-charge/optiga/optiga/comms/ifx_i2c\ifx_i2c_physical_layer.c **** 
 299:C:/Users/Yushev/git/wpcqi-optiga-trust-charge/optiga/optiga/comms/ifx_i2c\ifx_i2c_physical_layer.c ****     //lint --e{534} suppress "This is the last statement of asynchronous function hence return valu
 300:C:/Users/Yushev/git/wpcqi-optiga-trust-charge/optiga/optiga/comms/ifx_i2c\ifx_i2c_physical_layer.c ****     pal_i2c_write(p_ctx->p_pal_i2c_ctx, p_ctx->pl.buffer, p_ctx->pl.buffer_tx_len);
 501              	 .loc 1 300 0
 502 0040 7B68     	 ldr r3,[r7,#4]
 503 0042 1969     	 ldr r1,[r3,#16]
 504 0044 7B68     	 ldr r3,[r7,#4]
 505 0046 03F17802 	 add r2,r3,#120
 506 004a 7B68     	 ldr r3,[r7,#4]
 507 004c B3F88E31 	 ldrh r3,[r3,#398]
 508 0050 0846     	 mov r0,r1
 509 0052 1146     	 mov r1,r2
 510 0054 1A46     	 mov r2,r3
 511 0056 FFF7FEFF 	 bl pal_i2c_write
 301:C:/Users/Yushev/git/wpcqi-optiga-trust-charge/optiga/optiga/comms/ifx_i2c\ifx_i2c_physical_layer.c **** }
 512              	 .loc 1 301 0
 513 005a 0837     	 adds r7,r7,#8
 514              	.LCFI23:
 515              	 .cfi_def_cfa_offset 8
 516 005c BD46     	 mov sp,r7
 517              	.LCFI24:
 518              	 .cfi_def_cfa_register 13
 519              	 
 520 005e 80BD     	 pop {r7,pc}
 521              	 .cfi_endproc
 522              	.LFE4:
 524              	 .section .text.ifx_i2c_pl_write_register,"ax",%progbits
 525              	 .align 2
 526              	 .thumb
 527              	 .thumb_func
 529              	ifx_i2c_pl_write_register:
 530              	.LFB5:
 302:C:/Users/Yushev/git/wpcqi-optiga-trust-charge/optiga/optiga/comms/ifx_i2c\ifx_i2c_physical_layer.c **** 
 303:C:/Users/Yushev/git/wpcqi-optiga-trust-charge/optiga/optiga/comms/ifx_i2c\ifx_i2c_physical_layer.c **** 
 304:C:/Users/Yushev/git/wpcqi-optiga-trust-charge/optiga/optiga/comms/ifx_i2c\ifx_i2c_physical_layer.c **** _STATIC_H void ifx_i2c_pl_write_register(ifx_i2c_context_t * p_ctx,
 305:C:/Users/Yushev/git/wpcqi-optiga-trust-charge/optiga/optiga/comms/ifx_i2c\ifx_i2c_physical_layer.c ****                                          uint8_t reg_addr,
 306:C:/Users/Yushev/git/wpcqi-optiga-trust-charge/optiga/optiga/comms/ifx_i2c\ifx_i2c_physical_layer.c ****                                          uint16_t reg_len,
 307:C:/Users/Yushev/git/wpcqi-optiga-trust-charge/optiga/optiga/comms/ifx_i2c\ifx_i2c_physical_layer.c ****                                          const uint8_t * p_content)
 308:C:/Users/Yushev/git/wpcqi-optiga-trust-charge/optiga/optiga/comms/ifx_i2c\ifx_i2c_physical_layer.c **** {
 531              	 .loc 1 308 0
 532              	 .cfi_startproc
 533              	 
 534              	 
 535 0000 80B5     	 push {r7,lr}
 536              	.LCFI25:
 537              	 .cfi_def_cfa_offset 8
 538              	 .cfi_offset 7,-8
 539              	 .cfi_offset 14,-4
 540 0002 84B0     	 sub sp,sp,#16
 541              	.LCFI26:
 542              	 .cfi_def_cfa_offset 24
 543 0004 00AF     	 add r7,sp,#0
 544              	.LCFI27:
 545              	 .cfi_def_cfa_register 7
 546 0006 F860     	 str r0,[r7,#12]
 547 0008 7B60     	 str r3,[r7,#4]
 548 000a 0B46     	 mov r3,r1
 549 000c FB72     	 strb r3,[r7,#11]
 550 000e 1346     	 mov r3,r2
 551 0010 3B81     	 strh r3,[r7,#8]
 309:C:/Users/Yushev/git/wpcqi-optiga-trust-charge/optiga/optiga/comms/ifx_i2c\ifx_i2c_physical_layer.c ****     LOG_PL("[IFX-PL]: Write register %x len %d\n", reg_addr, reg_len);
 310:C:/Users/Yushev/git/wpcqi-optiga-trust-charge/optiga/optiga/comms/ifx_i2c\ifx_i2c_physical_layer.c **** 
 311:C:/Users/Yushev/git/wpcqi-optiga-trust-charge/optiga/optiga/comms/ifx_i2c\ifx_i2c_physical_layer.c ****     // Prepare transmit buffer to write register address and content
 312:C:/Users/Yushev/git/wpcqi-optiga-trust-charge/optiga/optiga/comms/ifx_i2c\ifx_i2c_physical_layer.c ****     p_ctx->pl.buffer[0] = reg_addr;
 552              	 .loc 1 312 0
 553 0012 FB68     	 ldr r3,[r7,#12]
 554 0014 FA7A     	 ldrb r2,[r7,#11]
 555 0016 83F87820 	 strb r2,[r3,#120]
 313:C:/Users/Yushev/git/wpcqi-optiga-trust-charge/optiga/optiga/comms/ifx_i2c\ifx_i2c_physical_layer.c ****     memcpy(p_ctx->pl.buffer + 1, p_content, reg_len);
 556              	 .loc 1 313 0
 557 001a FB68     	 ldr r3,[r7,#12]
 558 001c 03F17902 	 add r2,r3,#121
 559 0020 3B89     	 ldrh r3,[r7,#8]
 560 0022 1046     	 mov r0,r2
 561 0024 7968     	 ldr r1,[r7,#4]
 562 0026 1A46     	 mov r2,r3
 563 0028 FFF7FEFF 	 bl memcpy
 314:C:/Users/Yushev/git/wpcqi-optiga-trust-charge/optiga/optiga/comms/ifx_i2c\ifx_i2c_physical_layer.c ****     p_ctx->pl.buffer_tx_len = 1 + reg_len;
 564              	 .loc 1 314 0
 565 002c 3B89     	 ldrh r3,[r7,#8]
 566 002e 0133     	 adds r3,r3,#1
 567 0030 9AB2     	 uxth r2,r3
 568 0032 FB68     	 ldr r3,[r7,#12]
 569 0034 A3F88E21 	 strh r2,[r3,#398]
 315:C:/Users/Yushev/git/wpcqi-optiga-trust-charge/optiga/optiga/comms/ifx_i2c\ifx_i2c_physical_layer.c **** 
 316:C:/Users/Yushev/git/wpcqi-optiga-trust-charge/optiga/optiga/comms/ifx_i2c\ifx_i2c_physical_layer.c ****     // Set Physical Layer low level interface variables and start transmission
 317:C:/Users/Yushev/git/wpcqi-optiga-trust-charge/optiga/optiga/comms/ifx_i2c\ifx_i2c_physical_layer.c ****     p_ctx->pl.register_action = PL_ACTION_WRITE_REGISTER;
 570              	 .loc 1 317 0
 571 0038 FB68     	 ldr r3,[r7,#12]
 572 003a 0222     	 movs r2,#2
 573 003c 83F89221 	 strb r2,[r3,#402]
 318:C:/Users/Yushev/git/wpcqi-optiga-trust-charge/optiga/optiga/comms/ifx_i2c\ifx_i2c_physical_layer.c ****     p_ctx->pl.retry_counter   = PL_POLLING_MAX_CNT;
 574              	 .loc 1 318 0
 575 0040 FB68     	 ldr r3,[r7,#12]
 576 0042 C822     	 movs r2,#200
 577 0044 A3F89421 	 strh r2,[r3,#404]
 319:C:/Users/Yushev/git/wpcqi-optiga-trust-charge/optiga/optiga/comms/ifx_i2c\ifx_i2c_physical_layer.c ****     p_ctx->pl.i2c_cmd         = PL_I2C_CMD_WRITE;
 578              	 .loc 1 319 0
 579 0048 FB68     	 ldr r3,[r7,#12]
 580 004a 0122     	 movs r2,#1
 581 004c 83F89321 	 strb r2,[r3,#403]
 320:C:/Users/Yushev/git/wpcqi-optiga-trust-charge/optiga/optiga/comms/ifx_i2c\ifx_i2c_physical_layer.c ****     //lint --e{534} suppress "This is the last statement of asynchronous function hence return valu
 321:C:/Users/Yushev/git/wpcqi-optiga-trust-charge/optiga/optiga/comms/ifx_i2c\ifx_i2c_physical_layer.c ****     pal_i2c_write(p_ctx->p_pal_i2c_ctx, p_ctx->pl.buffer, p_ctx->pl.buffer_tx_len);
 582              	 .loc 1 321 0
 583 0050 FB68     	 ldr r3,[r7,#12]
 584 0052 1969     	 ldr r1,[r3,#16]
 585 0054 FB68     	 ldr r3,[r7,#12]
 586 0056 03F17802 	 add r2,r3,#120
 587 005a FB68     	 ldr r3,[r7,#12]
 588 005c B3F88E31 	 ldrh r3,[r3,#398]
 589 0060 0846     	 mov r0,r1
 590 0062 1146     	 mov r1,r2
 591 0064 1A46     	 mov r2,r3
 592 0066 FFF7FEFF 	 bl pal_i2c_write
 322:C:/Users/Yushev/git/wpcqi-optiga-trust-charge/optiga/optiga/comms/ifx_i2c\ifx_i2c_physical_layer.c **** }
 593              	 .loc 1 322 0
 594 006a 1037     	 adds r7,r7,#16
 595              	.LCFI28:
 596              	 .cfi_def_cfa_offset 8
 597 006c BD46     	 mov sp,r7
 598              	.LCFI29:
 599              	 .cfi_def_cfa_register 13
 600              	 
 601 006e 80BD     	 pop {r7,pc}
 602              	 .cfi_endproc
 603              	.LFE5:
 605              	 .section .text.ifx_i2c_pl_status_poll_callback,"ax",%progbits
 606              	 .align 2
 607              	 .thumb
 608              	 .thumb_func
 610              	ifx_i2c_pl_status_poll_callback:
 611              	.LFB6:
 323:C:/Users/Yushev/git/wpcqi-optiga-trust-charge/optiga/optiga/comms/ifx_i2c\ifx_i2c_physical_layer.c **** 
 324:C:/Users/Yushev/git/wpcqi-optiga-trust-charge/optiga/optiga/comms/ifx_i2c\ifx_i2c_physical_layer.c **** 
 325:C:/Users/Yushev/git/wpcqi-optiga-trust-charge/optiga/optiga/comms/ifx_i2c\ifx_i2c_physical_layer.c **** _STATIC_H void ifx_i2c_pl_status_poll_callback(void * p_ctx)
 326:C:/Users/Yushev/git/wpcqi-optiga-trust-charge/optiga/optiga/comms/ifx_i2c\ifx_i2c_physical_layer.c **** {
 612              	 .loc 1 326 0
 613              	 .cfi_startproc
 614              	 
 615              	 
 616 0000 80B5     	 push {r7,lr}
 617              	.LCFI30:
 618              	 .cfi_def_cfa_offset 8
 619              	 .cfi_offset 7,-8
 620              	 .cfi_offset 14,-4
 621 0002 82B0     	 sub sp,sp,#8
 622              	.LCFI31:
 623              	 .cfi_def_cfa_offset 16
 624 0004 00AF     	 add r7,sp,#0
 625              	.LCFI32:
 626              	 .cfi_def_cfa_register 7
 627 0006 7860     	 str r0,[r7,#4]
 327:C:/Users/Yushev/git/wpcqi-optiga-trust-charge/optiga/optiga/comms/ifx_i2c\ifx_i2c_physical_layer.c ****     LOG_PL("[IFX-PL]: Status poll Timer elapsed  -> Read STATUS register\n");
 328:C:/Users/Yushev/git/wpcqi-optiga-trust-charge/optiga/optiga/comms/ifx_i2c\ifx_i2c_physical_layer.c ****     ifx_i2c_pl_read_register((ifx_i2c_context_t * )p_ctx, PL_REG_I2C_STATE, PL_REG_LEN_I2C_STATE);
 628              	 .loc 1 328 0
 629 0008 7868     	 ldr r0,[r7,#4]
 630 000a 8221     	 movs r1,#130
 631 000c 0422     	 movs r2,#4
 632 000e FFF7FEFF 	 bl ifx_i2c_pl_read_register
 329:C:/Users/Yushev/git/wpcqi-optiga-trust-charge/optiga/optiga/comms/ifx_i2c\ifx_i2c_physical_layer.c **** }
 633              	 .loc 1 329 0
 634 0012 0837     	 adds r7,r7,#8
 635              	.LCFI33:
 636              	 .cfi_def_cfa_offset 8
 637 0014 BD46     	 mov sp,r7
 638              	.LCFI34:
 639              	 .cfi_def_cfa_register 13
 640              	 
 641 0016 80BD     	 pop {r7,pc}
 642              	 .cfi_endproc
 643              	.LFE6:
 645              	 .section .text.ifx_i2c_pl_set_bit_rate,"ax",%progbits
 646              	 .align 2
 647              	 .thumb
 648              	 .thumb_func
 650              	ifx_i2c_pl_set_bit_rate:
 651              	.LFB7:
 330:C:/Users/Yushev/git/wpcqi-optiga-trust-charge/optiga/optiga/comms/ifx_i2c\ifx_i2c_physical_layer.c **** 
 331:C:/Users/Yushev/git/wpcqi-optiga-trust-charge/optiga/optiga/comms/ifx_i2c\ifx_i2c_physical_layer.c **** _STATIC_H optiga_lib_status_t ifx_i2c_pl_set_bit_rate(ifx_i2c_context_t * p_ctx, uint16_t bitrate)
 332:C:/Users/Yushev/git/wpcqi-optiga-trust-charge/optiga/optiga/comms/ifx_i2c\ifx_i2c_physical_layer.c **** {
 652              	 .loc 1 332 0
 653              	 .cfi_startproc
 654              	 
 655              	 
 656 0000 80B5     	 push {r7,lr}
 657              	.LCFI35:
 658              	 .cfi_def_cfa_offset 8
 659              	 .cfi_offset 7,-8
 660              	 .cfi_offset 14,-4
 661 0002 84B0     	 sub sp,sp,#16
 662              	.LCFI36:
 663              	 .cfi_def_cfa_offset 24
 664 0004 00AF     	 add r7,sp,#0
 665              	.LCFI37:
 666              	 .cfi_def_cfa_register 7
 667 0006 7860     	 str r0,[r7,#4]
 668 0008 0B46     	 mov r3,r1
 669 000a 7B80     	 strh r3,[r7,#2]
 333:C:/Users/Yushev/git/wpcqi-optiga-trust-charge/optiga/optiga/comms/ifx_i2c\ifx_i2c_physical_layer.c ****     optiga_lib_status_t status;
 334:C:/Users/Yushev/git/wpcqi-optiga-trust-charge/optiga/optiga/comms/ifx_i2c\ifx_i2c_physical_layer.c ****     void* p_pal_ctx_upper_layer_handler;
 335:C:/Users/Yushev/git/wpcqi-optiga-trust-charge/optiga/optiga/comms/ifx_i2c\ifx_i2c_physical_layer.c ****     // Save upper layer context in pal
 336:C:/Users/Yushev/git/wpcqi-optiga-trust-charge/optiga/optiga/comms/ifx_i2c\ifx_i2c_physical_layer.c ****     p_pal_ctx_upper_layer_handler = p_ctx->p_pal_i2c_ctx->upper_layer_event_handler;
 670              	 .loc 1 336 0
 671 000c 7B68     	 ldr r3,[r7,#4]
 672 000e 1B69     	 ldr r3,[r3,#16]
 673 0010 DB68     	 ldr r3,[r3,#12]
 674 0012 BB60     	 str r3,[r7,#8]
 337:C:/Users/Yushev/git/wpcqi-optiga-trust-charge/optiga/optiga/comms/ifx_i2c\ifx_i2c_physical_layer.c ****     // Pass context as NULL to avoid callback invocation
 338:C:/Users/Yushev/git/wpcqi-optiga-trust-charge/optiga/optiga/comms/ifx_i2c\ifx_i2c_physical_layer.c ****     p_ctx->p_pal_i2c_ctx->upper_layer_event_handler  = NULL;
 675              	 .loc 1 338 0
 676 0014 7B68     	 ldr r3,[r7,#4]
 677 0016 1B69     	 ldr r3,[r3,#16]
 678 0018 0022     	 movs r2,#0
 679 001a DA60     	 str r2,[r3,#12]
 339:C:/Users/Yushev/git/wpcqi-optiga-trust-charge/optiga/optiga/comms/ifx_i2c\ifx_i2c_physical_layer.c ****     status = pal_i2c_set_bitrate(p_ctx->p_pal_i2c_ctx , bitrate);
 680              	 .loc 1 339 0
 681 001c 7B68     	 ldr r3,[r7,#4]
 682 001e 1A69     	 ldr r2,[r3,#16]
 683 0020 7B88     	 ldrh r3,[r7,#2]
 684 0022 1046     	 mov r0,r2
 685 0024 1946     	 mov r1,r3
 686 0026 FFF7FEFF 	 bl pal_i2c_set_bitrate
 687 002a 0346     	 mov r3,r0
 688 002c FB81     	 strh r3,[r7,#14]
 340:C:/Users/Yushev/git/wpcqi-optiga-trust-charge/optiga/optiga/comms/ifx_i2c\ifx_i2c_physical_layer.c ****     // Restore callback
 341:C:/Users/Yushev/git/wpcqi-optiga-trust-charge/optiga/optiga/comms/ifx_i2c\ifx_i2c_physical_layer.c ****     p_ctx->p_pal_i2c_ctx->upper_layer_event_handler  = p_pal_ctx_upper_layer_handler;
 689              	 .loc 1 341 0
 690 002e 7B68     	 ldr r3,[r7,#4]
 691 0030 1B69     	 ldr r3,[r3,#16]
 692 0032 BA68     	 ldr r2,[r7,#8]
 693 0034 DA60     	 str r2,[r3,#12]
 342:C:/Users/Yushev/git/wpcqi-optiga-trust-charge/optiga/optiga/comms/ifx_i2c\ifx_i2c_physical_layer.c ****     if (PAL_I2C_EVENT_SUCCESS != status)
 694              	 .loc 1 342 0
 695 0036 FB89     	 ldrh r3,[r7,#14]
 696 0038 002B     	 cmp r3,#0
 697 003a 1AD0     	 beq .L30
 343:C:/Users/Yushev/git/wpcqi-optiga-trust-charge/optiga/optiga/comms/ifx_i2c\ifx_i2c_physical_layer.c ****     {
 344:C:/Users/Yushev/git/wpcqi-optiga-trust-charge/optiga/optiga/comms/ifx_i2c\ifx_i2c_physical_layer.c ****         if (0 != (p_ctx->pl.retry_counter--))
 698              	 .loc 1 344 0
 699 003c 7B68     	 ldr r3,[r7,#4]
 700 003e B3F89431 	 ldrh r3,[r3,#404]
 701 0042 5A1E     	 subs r2,r3,#1
 702 0044 91B2     	 uxth r1,r2
 703 0046 7A68     	 ldr r2,[r7,#4]
 704 0048 A2F89411 	 strh r1,[r2,#404]
 705 004c 002B     	 cmp r3,#0
 706 004e 0CD0     	 beq .L31
 345:C:/Users/Yushev/git/wpcqi-optiga-trust-charge/optiga/optiga/comms/ifx_i2c\ifx_i2c_physical_layer.c ****         {
 346:C:/Users/Yushev/git/wpcqi-optiga-trust-charge/optiga/optiga/comms/ifx_i2c\ifx_i2c_physical_layer.c ****             LOG_PL("[IFX-PL]: Set bit rate failed, Retry setting.\n");
 347:C:/Users/Yushev/git/wpcqi-optiga-trust-charge/optiga/optiga/comms/ifx_i2c\ifx_i2c_physical_layer.c ****             pal_os_event_register_callback_oneshot( p_ctx->pal_os_event_ctx,
 707              	 .loc 1 347 0
 708 0050 7B68     	 ldr r3,[r7,#4]
 709 0052 D3F8D433 	 ldr r3,[r3,#980]
 710 0056 1846     	 mov r0,r3
 711 0058 0949     	 ldr r1,.L35
 712 005a 7A68     	 ldr r2,[r7,#4]
 713 005c 4FF47A73 	 mov r3,#1000
 714 0060 FFF7FEFF 	 bl pal_os_event_register_callback_oneshot
 348:C:/Users/Yushev/git/wpcqi-optiga-trust-charge/optiga/optiga/comms/ifx_i2c\ifx_i2c_physical_layer.c ****                                                     ifx_i2c_pl_negotiation_event_handler,
 349:C:/Users/Yushev/git/wpcqi-optiga-trust-charge/optiga/optiga/comms/ifx_i2c\ifx_i2c_physical_layer.c ****                                                    ((void * )p_ctx),
 350:C:/Users/Yushev/git/wpcqi-optiga-trust-charge/optiga/optiga/comms/ifx_i2c\ifx_i2c_physical_layer.c ****                                                    PL_POLLING_INVERVAL_US);
 351:C:/Users/Yushev/git/wpcqi-optiga-trust-charge/optiga/optiga/comms/ifx_i2c\ifx_i2c_physical_layer.c ****             status = IFX_I2C_STACK_BUSY;
 715              	 .loc 1 351 0
 716 0064 0123     	 movs r3,#1
 717 0066 FB81     	 strh r3,[r7,#14]
 718 0068 05E0     	 b .L33
 719              	.L31:
 352:C:/Users/Yushev/git/wpcqi-optiga-trust-charge/optiga/optiga/comms/ifx_i2c\ifx_i2c_physical_layer.c ****         }
 353:C:/Users/Yushev/git/wpcqi-optiga-trust-charge/optiga/optiga/comms/ifx_i2c\ifx_i2c_physical_layer.c ****         else
 354:C:/Users/Yushev/git/wpcqi-optiga-trust-charge/optiga/optiga/comms/ifx_i2c\ifx_i2c_physical_layer.c ****         {
 355:C:/Users/Yushev/git/wpcqi-optiga-trust-charge/optiga/optiga/comms/ifx_i2c\ifx_i2c_physical_layer.c ****            status = IFX_I2C_STACK_ERROR;
 720              	 .loc 1 355 0
 721 006a 4FF48173 	 mov r3,#258
 722 006e FB81     	 strh r3,[r7,#14]
 723 0070 01E0     	 b .L33
 724              	.L30:
 356:C:/Users/Yushev/git/wpcqi-optiga-trust-charge/optiga/optiga/comms/ifx_i2c\ifx_i2c_physical_layer.c ****         }
 357:C:/Users/Yushev/git/wpcqi-optiga-trust-charge/optiga/optiga/comms/ifx_i2c\ifx_i2c_physical_layer.c ****     }
 358:C:/Users/Yushev/git/wpcqi-optiga-trust-charge/optiga/optiga/comms/ifx_i2c\ifx_i2c_physical_layer.c ****     else
 359:C:/Users/Yushev/git/wpcqi-optiga-trust-charge/optiga/optiga/comms/ifx_i2c\ifx_i2c_physical_layer.c ****     {
 360:C:/Users/Yushev/git/wpcqi-optiga-trust-charge/optiga/optiga/comms/ifx_i2c\ifx_i2c_physical_layer.c ****         status = IFX_I2C_STACK_SUCCESS;
 725              	 .loc 1 360 0
 726 0072 0023     	 movs r3,#0
 727 0074 FB81     	 strh r3,[r7,#14]
 728              	.L33:
 361:C:/Users/Yushev/git/wpcqi-optiga-trust-charge/optiga/optiga/comms/ifx_i2c\ifx_i2c_physical_layer.c ****     }
 362:C:/Users/Yushev/git/wpcqi-optiga-trust-charge/optiga/optiga/comms/ifx_i2c\ifx_i2c_physical_layer.c **** 
 363:C:/Users/Yushev/git/wpcqi-optiga-trust-charge/optiga/optiga/comms/ifx_i2c\ifx_i2c_physical_layer.c ****     return (status);
 729              	 .loc 1 363 0
 730 0076 FB89     	 ldrh r3,[r7,#14]
 364:C:/Users/Yushev/git/wpcqi-optiga-trust-charge/optiga/optiga/comms/ifx_i2c\ifx_i2c_physical_layer.c **** 
 365:C:/Users/Yushev/git/wpcqi-optiga-trust-charge/optiga/optiga/comms/ifx_i2c\ifx_i2c_physical_layer.c **** }
 731              	 .loc 1 365 0
 732 0078 1846     	 mov r0,r3
 733 007a 1037     	 adds r7,r7,#16
 734              	.LCFI38:
 735              	 .cfi_def_cfa_offset 8
 736 007c BD46     	 mov sp,r7
 737              	.LCFI39:
 738              	 .cfi_def_cfa_register 13
 739              	 
 740 007e 80BD     	 pop {r7,pc}
 741              	.L36:
 742              	 .align 2
 743              	.L35:
 744 0080 00000000 	 .word ifx_i2c_pl_negotiation_event_handler
 745              	 .cfi_endproc
 746              	.LFE7:
 748              	 .section .text.ifx_i2c_pl_negotiation_event_handler,"ax",%progbits
 749              	 .align 2
 750              	 .thumb
 751              	 .thumb_func
 753              	ifx_i2c_pl_negotiation_event_handler:
 754              	.LFB8:
 366:C:/Users/Yushev/git/wpcqi-optiga-trust-charge/optiga/optiga/comms/ifx_i2c\ifx_i2c_physical_layer.c **** _STATIC_H void ifx_i2c_pl_negotiation_event_handler(void * p_input_ctx)
 367:C:/Users/Yushev/git/wpcqi-optiga-trust-charge/optiga/optiga/comms/ifx_i2c\ifx_i2c_physical_layer.c **** {
 755              	 .loc 1 367 0
 756              	 .cfi_startproc
 757              	 
 758              	 
 759 0000 90B5     	 push {r4,r7,lr}
 760              	.LCFI40:
 761              	 .cfi_def_cfa_offset 12
 762              	 .cfi_offset 4,-12
 763              	 .cfi_offset 7,-8
 764              	 .cfi_offset 14,-4
 765 0002 8BB0     	 sub sp,sp,#44
 766              	.LCFI41:
 767              	 .cfi_def_cfa_offset 56
 768 0004 00AF     	 add r7,sp,#0
 769              	.LCFI42:
 770              	 .cfi_def_cfa_register 7
 771 0006 7860     	 str r0,[r7,#4]
 368:C:/Users/Yushev/git/wpcqi-optiga-trust-charge/optiga/optiga/comms/ifx_i2c\ifx_i2c_physical_layer.c ****     optiga_lib_status_t event = (optiga_lib_status_t)IFX_I2C_STACK_ERROR;
 772              	 .loc 1 368 0
 773 0008 4FF48173 	 mov r3,#258
 774 000c FB84     	 strh r3,[r7,#38]
 369:C:/Users/Yushev/git/wpcqi-optiga-trust-charge/optiga/optiga/comms/ifx_i2c\ifx_i2c_physical_layer.c ****     uint8_t continue_negotiation;
 370:C:/Users/Yushev/git/wpcqi-optiga-trust-charge/optiga/optiga/comms/ifx_i2c\ifx_i2c_physical_layer.c ****     ifx_i2c_context_t * p_ctx = (ifx_i2c_context_t * )p_input_ctx;
 775              	 .loc 1 370 0
 776 000e 7B68     	 ldr r3,[r7,#4]
 777 0010 BB61     	 str r3,[r7,#24]
 371:C:/Users/Yushev/git/wpcqi-optiga-trust-charge/optiga/optiga/comms/ifx_i2c\ifx_i2c_physical_layer.c ****     uint8_t i2c_mode_value[2];
 372:C:/Users/Yushev/git/wpcqi-optiga-trust-charge/optiga/optiga/comms/ifx_i2c\ifx_i2c_physical_layer.c ****     uint8_t max_frame_size[2] = { (uint8_t)(p_ctx->frame_size >> 8), (uint8_t)(p_ctx->frame_size) }
 778              	 .loc 1 372 0
 779 0012 BB69     	 ldr r3,[r7,#24]
 780 0014 9B88     	 ldrh r3,[r3,#4]
 781 0016 1B0A     	 lsrs r3,r3,#8
 782 0018 9BB2     	 uxth r3,r3
 783 001a DBB2     	 uxtb r3,r3
 784 001c 3B73     	 strb r3,[r7,#12]
 785 001e BB69     	 ldr r3,[r7,#24]
 786 0020 9B88     	 ldrh r3,[r3,#4]
 787 0022 DBB2     	 uxtb r3,r3
 788 0024 7B73     	 strb r3,[r7,#13]
 373:C:/Users/Yushev/git/wpcqi-optiga-trust-charge/optiga/optiga/comms/ifx_i2c\ifx_i2c_physical_layer.c ****     uint16_t buffer_len = 0;
 789              	 .loc 1 373 0
 790 0026 0023     	 movs r3,#0
 791 0028 7B84     	 strh r3,[r7,#34]
 374:C:/Users/Yushev/git/wpcqi-optiga-trust-charge/optiga/optiga/comms/ifx_i2c\ifx_i2c_physical_layer.c ****     uint16_t slave_frequency;
 375:C:/Users/Yushev/git/wpcqi-optiga-trust-charge/optiga/optiga/comms/ifx_i2c\ifx_i2c_physical_layer.c ****     uint16_t slave_frame_len;
 376:C:/Users/Yushev/git/wpcqi-optiga-trust-charge/optiga/optiga/comms/ifx_i2c\ifx_i2c_physical_layer.c ****     uint8_t* p_buffer = NULL;
 792              	 .loc 1 376 0
 793 002a 0023     	 movs r3,#0
 794 002c FB61     	 str r3,[r7,#28]
 795              	.L65:
 377:C:/Users/Yushev/git/wpcqi-optiga-trust-charge/optiga/optiga/comms/ifx_i2c\ifx_i2c_physical_layer.c **** 
 378:C:/Users/Yushev/git/wpcqi-optiga-trust-charge/optiga/optiga/comms/ifx_i2c\ifx_i2c_physical_layer.c ****     do
 379:C:/Users/Yushev/git/wpcqi-optiga-trust-charge/optiga/optiga/comms/ifx_i2c\ifx_i2c_physical_layer.c ****     {
 380:C:/Users/Yushev/git/wpcqi-optiga-trust-charge/optiga/optiga/comms/ifx_i2c\ifx_i2c_physical_layer.c ****         continue_negotiation = FALSE;
 796              	 .loc 1 380 0
 797 002e 0023     	 movs r3,#0
 798 0030 87F82530 	 strb r3,[r7,#37]
 381:C:/Users/Yushev/git/wpcqi-optiga-trust-charge/optiga/optiga/comms/ifx_i2c\ifx_i2c_physical_layer.c ****         LOG_PL("[IFX-PL]: Negotiation started\n");
 382:C:/Users/Yushev/git/wpcqi-optiga-trust-charge/optiga/optiga/comms/ifx_i2c\ifx_i2c_physical_layer.c ****         switch (p_ctx->pl.negotiate_state)
 799              	 .loc 1 382 0
 800 0034 BB69     	 ldr r3,[r7,#24]
 801 0036 93F8A431 	 ldrb r3,[r3,#420]
 802 003a 552B     	 cmp r3,#85
 803 003c 00F09A80 	 beq .L39
 804 0040 552B     	 cmp r3,#85
 805 0042 0DDC     	 bgt .L40
 806 0044 222B     	 cmp r3,#34
 807 0046 00F0EE80 	 beq .L41
 808 004a 222B     	 cmp r3,#34
 809 004c 03DC     	 bgt .L42
 810 004e 112B     	 cmp r3,#17
 811 0050 00F0DD80 	 beq .L43
 383:C:/Users/Yushev/git/wpcqi-optiga-trust-charge/optiga/optiga/comms/ifx_i2c\ifx_i2c_physical_layer.c ****         {
 384:C:/Users/Yushev/git/wpcqi-optiga-trust-charge/optiga/optiga/comms/ifx_i2c\ifx_i2c_physical_layer.c ****             // Set initial frequency to PL_DEFAULT_FREQUENCY to be able to negotiate with slave
 385:C:/Users/Yushev/git/wpcqi-optiga-trust-charge/optiga/optiga/comms/ifx_i2c\ifx_i2c_physical_layer.c ****             case PL_INIT_SET_FREQ_DEFAULT:
 386:C:/Users/Yushev/git/wpcqi-optiga-trust-charge/optiga/optiga/comms/ifx_i2c\ifx_i2c_physical_layer.c ****             {
 387:C:/Users/Yushev/git/wpcqi-optiga-trust-charge/optiga/optiga/comms/ifx_i2c\ifx_i2c_physical_layer.c ****                 // Default frequency set to master
 388:C:/Users/Yushev/git/wpcqi-optiga-trust-charge/optiga/optiga/comms/ifx_i2c\ifx_i2c_physical_layer.c ****                 event = ifx_i2c_pl_set_bit_rate(p_input_ctx, PL_DEFAULT_FREQUENCY);
 389:C:/Users/Yushev/git/wpcqi-optiga-trust-charge/optiga/optiga/comms/ifx_i2c\ifx_i2c_physical_layer.c ****                 if (IFX_I2C_STACK_SUCCESS == event)
 390:C:/Users/Yushev/git/wpcqi-optiga-trust-charge/optiga/optiga/comms/ifx_i2c\ifx_i2c_physical_layer.c ****                 {
 391:C:/Users/Yushev/git/wpcqi-optiga-trust-charge/optiga/optiga/comms/ifx_i2c\ifx_i2c_physical_layer.c ****                     p_ctx->pl.negotiate_state = PL_INIT_GET_FREQ_REG;
 392:C:/Users/Yushev/git/wpcqi-optiga-trust-charge/optiga/optiga/comms/ifx_i2c\ifx_i2c_physical_layer.c ****                     continue_negotiation = TRUE;
 393:C:/Users/Yushev/git/wpcqi-optiga-trust-charge/optiga/optiga/comms/ifx_i2c\ifx_i2c_physical_layer.c ****                 }
 394:C:/Users/Yushev/git/wpcqi-optiga-trust-charge/optiga/optiga/comms/ifx_i2c\ifx_i2c_physical_layer.c ****                 else if (IFX_I2C_STACK_ERROR == event)
 395:C:/Users/Yushev/git/wpcqi-optiga-trust-charge/optiga/optiga/comms/ifx_i2c\ifx_i2c_physical_layer.c ****                 {
 396:C:/Users/Yushev/git/wpcqi-optiga-trust-charge/optiga/optiga/comms/ifx_i2c\ifx_i2c_physical_layer.c ****                     p_ctx->pl.negotiate_state = PL_INIT_DONE;
 397:C:/Users/Yushev/git/wpcqi-optiga-trust-charge/optiga/optiga/comms/ifx_i2c\ifx_i2c_physical_layer.c ****                     p_buffer = NULL;
 398:C:/Users/Yushev/git/wpcqi-optiga-trust-charge/optiga/optiga/comms/ifx_i2c\ifx_i2c_physical_layer.c ****                     buffer_len = 0;
 399:C:/Users/Yushev/git/wpcqi-optiga-trust-charge/optiga/optiga/comms/ifx_i2c\ifx_i2c_physical_layer.c ****                     pal_os_event_register_callback_oneshot(p_ctx->pal_os_event_ctx,(register_callba
 400:C:/Users/Yushev/git/wpcqi-optiga-trust-charge/optiga/optiga/comms/ifx_i2c\ifx_i2c_physical_layer.c ****                                                            (void * )p_ctx,
 401:C:/Users/Yushev/git/wpcqi-optiga-trust-charge/optiga/optiga/comms/ifx_i2c\ifx_i2c_physical_layer.c ****                                                            STARTUP_TIME_MSEC);
 402:C:/Users/Yushev/git/wpcqi-optiga-trust-charge/optiga/optiga/comms/ifx_i2c\ifx_i2c_physical_layer.c ****                 }
 403:C:/Users/Yushev/git/wpcqi-optiga-trust-charge/optiga/optiga/comms/ifx_i2c\ifx_i2c_physical_layer.c ****             }
 404:C:/Users/Yushev/git/wpcqi-optiga-trust-charge/optiga/optiga/comms/ifx_i2c\ifx_i2c_physical_layer.c ****             break;
 405:C:/Users/Yushev/git/wpcqi-optiga-trust-charge/optiga/optiga/comms/ifx_i2c\ifx_i2c_physical_layer.c ****             // Read the current Max frequency supported by slave
 406:C:/Users/Yushev/git/wpcqi-optiga-trust-charge/optiga/optiga/comms/ifx_i2c\ifx_i2c_physical_layer.c ****             case PL_INIT_GET_FREQ_REG:
 407:C:/Users/Yushev/git/wpcqi-optiga-trust-charge/optiga/optiga/comms/ifx_i2c\ifx_i2c_physical_layer.c ****             {
 408:C:/Users/Yushev/git/wpcqi-optiga-trust-charge/optiga/optiga/comms/ifx_i2c\ifx_i2c_physical_layer.c ****                 p_ctx->pl.negotiate_state = PL_INIT_SET_FREQ_REG;
 409:C:/Users/Yushev/git/wpcqi-optiga-trust-charge/optiga/optiga/comms/ifx_i2c\ifx_i2c_physical_layer.c ****                 ifx_i2c_pl_read_register(p_ctx, PL_REG_MAX_SCL_FREQU, PL_REG_LEN_MAX_SCL_FREQU);
 410:C:/Users/Yushev/git/wpcqi-optiga-trust-charge/optiga/optiga/comms/ifx_i2c\ifx_i2c_physical_layer.c ****             }
 411:C:/Users/Yushev/git/wpcqi-optiga-trust-charge/optiga/optiga/comms/ifx_i2c\ifx_i2c_physical_layer.c ****             break;
 412:C:/Users/Yushev/git/wpcqi-optiga-trust-charge/optiga/optiga/comms/ifx_i2c\ifx_i2c_physical_layer.c ****             // Set the I2C mode register
 413:C:/Users/Yushev/git/wpcqi-optiga-trust-charge/optiga/optiga/comms/ifx_i2c\ifx_i2c_physical_layer.c ****             case PL_INIT_SET_FREQ_REG:
 414:C:/Users/Yushev/git/wpcqi-optiga-trust-charge/optiga/optiga/comms/ifx_i2c\ifx_i2c_physical_layer.c ****             {
 415:C:/Users/Yushev/git/wpcqi-optiga-trust-charge/optiga/optiga/comms/ifx_i2c\ifx_i2c_physical_layer.c ****                 slave_frequency = (p_ctx->pl.buffer[2] << 8) | p_ctx->pl.buffer[3];
 416:C:/Users/Yushev/git/wpcqi-optiga-trust-charge/optiga/optiga/comms/ifx_i2c\ifx_i2c_physical_layer.c **** 
 417:C:/Users/Yushev/git/wpcqi-optiga-trust-charge/optiga/optiga/comms/ifx_i2c\ifx_i2c_physical_layer.c ****                 i2c_mode_value[0] = PL_REG_I2C_MODE_PERSISTANT;
 418:C:/Users/Yushev/git/wpcqi-optiga-trust-charge/optiga/optiga/comms/ifx_i2c\ifx_i2c_physical_layer.c ****                 if ((p_ctx->frequency > PL_SM_FM_MAX_FREQUENCY) && (slave_frequency <= PL_SM_FM_MAX
 419:C:/Users/Yushev/git/wpcqi-optiga-trust-charge/optiga/optiga/comms/ifx_i2c\ifx_i2c_physical_layer.c ****                 {
 420:C:/Users/Yushev/git/wpcqi-optiga-trust-charge/optiga/optiga/comms/ifx_i2c\ifx_i2c_physical_layer.c ****                     //Change to FM+ mode if slave's current supported frequency is below user's req
 421:C:/Users/Yushev/git/wpcqi-optiga-trust-charge/optiga/optiga/comms/ifx_i2c\ifx_i2c_physical_layer.c ****                     i2c_mode_value[1] = PL_REG_I2C_MODE_FM_PLUS;
 422:C:/Users/Yushev/git/wpcqi-optiga-trust-charge/optiga/optiga/comms/ifx_i2c\ifx_i2c_physical_layer.c ****                     p_ctx->pl.negotiate_state = PL_INIT_READ_FREQ;
 423:C:/Users/Yushev/git/wpcqi-optiga-trust-charge/optiga/optiga/comms/ifx_i2c\ifx_i2c_physical_layer.c ****                     ifx_i2c_pl_write_register(p_ctx, PL_REG_I2C_MODE, PL_REG_LEN_I2C_MODE, i2c_mode
 424:C:/Users/Yushev/git/wpcqi-optiga-trust-charge/optiga/optiga/comms/ifx_i2c\ifx_i2c_physical_layer.c ****                 }
 425:C:/Users/Yushev/git/wpcqi-optiga-trust-charge/optiga/optiga/comms/ifx_i2c\ifx_i2c_physical_layer.c ****                 else if ((p_ctx->frequency <= PL_SM_FM_MAX_FREQUENCY) && (slave_frequency > PL_SM_F
 426:C:/Users/Yushev/git/wpcqi-optiga-trust-charge/optiga/optiga/comms/ifx_i2c\ifx_i2c_physical_layer.c ****                 {
 427:C:/Users/Yushev/git/wpcqi-optiga-trust-charge/optiga/optiga/comms/ifx_i2c\ifx_i2c_physical_layer.c ****                     //Change to SM&FM mode if slave's current supported frequency is above user's r
 428:C:/Users/Yushev/git/wpcqi-optiga-trust-charge/optiga/optiga/comms/ifx_i2c\ifx_i2c_physical_layer.c ****                     i2c_mode_value[1] = PL_REG_I2C_MODE_SM_FM;
 429:C:/Users/Yushev/git/wpcqi-optiga-trust-charge/optiga/optiga/comms/ifx_i2c\ifx_i2c_physical_layer.c ****                     p_ctx->pl.negotiate_state = PL_INIT_READ_FREQ;
 430:C:/Users/Yushev/git/wpcqi-optiga-trust-charge/optiga/optiga/comms/ifx_i2c\ifx_i2c_physical_layer.c ****                     ifx_i2c_pl_write_register(p_ctx, PL_REG_I2C_MODE, PL_REG_LEN_I2C_MODE, i2c_mode
 431:C:/Users/Yushev/git/wpcqi-optiga-trust-charge/optiga/optiga/comms/ifx_i2c\ifx_i2c_physical_layer.c ****                 }
 432:C:/Users/Yushev/git/wpcqi-optiga-trust-charge/optiga/optiga/comms/ifx_i2c\ifx_i2c_physical_layer.c ****                 else
 433:C:/Users/Yushev/git/wpcqi-optiga-trust-charge/optiga/optiga/comms/ifx_i2c\ifx_i2c_physical_layer.c ****                 {
 434:C:/Users/Yushev/git/wpcqi-optiga-trust-charge/optiga/optiga/comms/ifx_i2c\ifx_i2c_physical_layer.c ****                     p_ctx->pl.negotiate_state = PL_INIT_VERIFY_FREQ;
 435:C:/Users/Yushev/git/wpcqi-optiga-trust-charge/optiga/optiga/comms/ifx_i2c\ifx_i2c_physical_layer.c ****                     continue_negotiation = TRUE;
 436:C:/Users/Yushev/git/wpcqi-optiga-trust-charge/optiga/optiga/comms/ifx_i2c\ifx_i2c_physical_layer.c ****                 }
 437:C:/Users/Yushev/git/wpcqi-optiga-trust-charge/optiga/optiga/comms/ifx_i2c\ifx_i2c_physical_layer.c ****             }
 438:C:/Users/Yushev/git/wpcqi-optiga-trust-charge/optiga/optiga/comms/ifx_i2c\ifx_i2c_physical_layer.c ****             break;
 439:C:/Users/Yushev/git/wpcqi-optiga-trust-charge/optiga/optiga/comms/ifx_i2c\ifx_i2c_physical_layer.c ****             // After setting I2C mode register, read the slave's supported frequency
 440:C:/Users/Yushev/git/wpcqi-optiga-trust-charge/optiga/optiga/comms/ifx_i2c\ifx_i2c_physical_layer.c ****             case PL_INIT_READ_FREQ:
 441:C:/Users/Yushev/git/wpcqi-optiga-trust-charge/optiga/optiga/comms/ifx_i2c\ifx_i2c_physical_layer.c ****             {
 442:C:/Users/Yushev/git/wpcqi-optiga-trust-charge/optiga/optiga/comms/ifx_i2c\ifx_i2c_physical_layer.c ****                 p_ctx->pl.negotiate_state = PL_INIT_VERIFY_FREQ;
 443:C:/Users/Yushev/git/wpcqi-optiga-trust-charge/optiga/optiga/comms/ifx_i2c\ifx_i2c_physical_layer.c ****                 ifx_i2c_pl_read_register(p_ctx, PL_REG_MAX_SCL_FREQU, PL_REG_LEN_MAX_SCL_FREQU);
 444:C:/Users/Yushev/git/wpcqi-optiga-trust-charge/optiga/optiga/comms/ifx_i2c\ifx_i2c_physical_layer.c ****             }
 445:C:/Users/Yushev/git/wpcqi-optiga-trust-charge/optiga/optiga/comms/ifx_i2c\ifx_i2c_physical_layer.c ****             break;
 446:C:/Users/Yushev/git/wpcqi-optiga-trust-charge/optiga/optiga/comms/ifx_i2c\ifx_i2c_physical_layer.c ****             // Verify the requested frequency and slave's supported frequency
 447:C:/Users/Yushev/git/wpcqi-optiga-trust-charge/optiga/optiga/comms/ifx_i2c\ifx_i2c_physical_layer.c ****             case PL_INIT_VERIFY_FREQ:
 448:C:/Users/Yushev/git/wpcqi-optiga-trust-charge/optiga/optiga/comms/ifx_i2c\ifx_i2c_physical_layer.c ****             {
 449:C:/Users/Yushev/git/wpcqi-optiga-trust-charge/optiga/optiga/comms/ifx_i2c\ifx_i2c_physical_layer.c ****                 slave_frequency = (p_ctx->pl.buffer[2] << 8) | p_ctx->pl.buffer[3];
 450:C:/Users/Yushev/git/wpcqi-optiga-trust-charge/optiga/optiga/comms/ifx_i2c\ifx_i2c_physical_layer.c ****                 if (p_ctx->frequency > slave_frequency)
 451:C:/Users/Yushev/git/wpcqi-optiga-trust-charge/optiga/optiga/comms/ifx_i2c\ifx_i2c_physical_layer.c ****                 {
 452:C:/Users/Yushev/git/wpcqi-optiga-trust-charge/optiga/optiga/comms/ifx_i2c\ifx_i2c_physical_layer.c ****                     LOG_PL("[IFX-PL]: Unexpected frequency in MAX_SCL_FREQU\n");
 453:C:/Users/Yushev/git/wpcqi-optiga-trust-charge/optiga/optiga/comms/ifx_i2c\ifx_i2c_physical_layer.c ****                     p_buffer = NULL;
 454:C:/Users/Yushev/git/wpcqi-optiga-trust-charge/optiga/optiga/comms/ifx_i2c\ifx_i2c_physical_layer.c ****                     buffer_len = 0;
 455:C:/Users/Yushev/git/wpcqi-optiga-trust-charge/optiga/optiga/comms/ifx_i2c\ifx_i2c_physical_layer.c ****                     p_ctx->pl.negotiate_state = PL_INIT_DONE;
 456:C:/Users/Yushev/git/wpcqi-optiga-trust-charge/optiga/optiga/comms/ifx_i2c\ifx_i2c_physical_layer.c ****                 }
 457:C:/Users/Yushev/git/wpcqi-optiga-trust-charge/optiga/optiga/comms/ifx_i2c\ifx_i2c_physical_layer.c ****                 else
 458:C:/Users/Yushev/git/wpcqi-optiga-trust-charge/optiga/optiga/comms/ifx_i2c\ifx_i2c_physical_layer.c ****                 {
 459:C:/Users/Yushev/git/wpcqi-optiga-trust-charge/optiga/optiga/comms/ifx_i2c\ifx_i2c_physical_layer.c ****                     p_ctx->pl.negotiate_state = PL_INIT_AGREE_FREQ;
 460:C:/Users/Yushev/git/wpcqi-optiga-trust-charge/optiga/optiga/comms/ifx_i2c\ifx_i2c_physical_layer.c ****                 }
 461:C:/Users/Yushev/git/wpcqi-optiga-trust-charge/optiga/optiga/comms/ifx_i2c\ifx_i2c_physical_layer.c ****                 continue_negotiation = TRUE;
 462:C:/Users/Yushev/git/wpcqi-optiga-trust-charge/optiga/optiga/comms/ifx_i2c\ifx_i2c_physical_layer.c ****             }
 463:C:/Users/Yushev/git/wpcqi-optiga-trust-charge/optiga/optiga/comms/ifx_i2c\ifx_i2c_physical_layer.c ****             break;
 464:C:/Users/Yushev/git/wpcqi-optiga-trust-charge/optiga/optiga/comms/ifx_i2c\ifx_i2c_physical_layer.c ****             // Frequency negotiated, Set frequency at master
 465:C:/Users/Yushev/git/wpcqi-optiga-trust-charge/optiga/optiga/comms/ifx_i2c\ifx_i2c_physical_layer.c ****             case PL_INIT_AGREE_FREQ:
 466:C:/Users/Yushev/git/wpcqi-optiga-trust-charge/optiga/optiga/comms/ifx_i2c\ifx_i2c_physical_layer.c ****             {
 467:C:/Users/Yushev/git/wpcqi-optiga-trust-charge/optiga/optiga/comms/ifx_i2c\ifx_i2c_physical_layer.c ****                 // Frequency negotiation between master and slave is complete
 468:C:/Users/Yushev/git/wpcqi-optiga-trust-charge/optiga/optiga/comms/ifx_i2c\ifx_i2c_physical_layer.c ****                 event = ifx_i2c_pl_set_bit_rate(p_input_ctx, p_ctx->frequency);
 469:C:/Users/Yushev/git/wpcqi-optiga-trust-charge/optiga/optiga/comms/ifx_i2c\ifx_i2c_physical_layer.c ****                 if (IFX_I2C_STACK_SUCCESS == event)
 470:C:/Users/Yushev/git/wpcqi-optiga-trust-charge/optiga/optiga/comms/ifx_i2c\ifx_i2c_physical_layer.c ****                 {
 471:C:/Users/Yushev/git/wpcqi-optiga-trust-charge/optiga/optiga/comms/ifx_i2c\ifx_i2c_physical_layer.c ****                     p_ctx->pl.negotiate_state = PL_INIT_SET_DATA_REG_LEN;
 472:C:/Users/Yushev/git/wpcqi-optiga-trust-charge/optiga/optiga/comms/ifx_i2c\ifx_i2c_physical_layer.c ****                     continue_negotiation = TRUE;
 473:C:/Users/Yushev/git/wpcqi-optiga-trust-charge/optiga/optiga/comms/ifx_i2c\ifx_i2c_physical_layer.c ****                 }
 474:C:/Users/Yushev/git/wpcqi-optiga-trust-charge/optiga/optiga/comms/ifx_i2c\ifx_i2c_physical_layer.c ****                 else if (IFX_I2C_STACK_ERROR == event)
 475:C:/Users/Yushev/git/wpcqi-optiga-trust-charge/optiga/optiga/comms/ifx_i2c\ifx_i2c_physical_layer.c ****                 {
 476:C:/Users/Yushev/git/wpcqi-optiga-trust-charge/optiga/optiga/comms/ifx_i2c\ifx_i2c_physical_layer.c ****                     p_ctx->pl.negotiate_state = PL_INIT_DONE;
 477:C:/Users/Yushev/git/wpcqi-optiga-trust-charge/optiga/optiga/comms/ifx_i2c\ifx_i2c_physical_layer.c ****                     p_buffer = NULL;
 478:C:/Users/Yushev/git/wpcqi-optiga-trust-charge/optiga/optiga/comms/ifx_i2c\ifx_i2c_physical_layer.c ****                     buffer_len = 0;
 479:C:/Users/Yushev/git/wpcqi-optiga-trust-charge/optiga/optiga/comms/ifx_i2c\ifx_i2c_physical_layer.c ****                 }
 480:C:/Users/Yushev/git/wpcqi-optiga-trust-charge/optiga/optiga/comms/ifx_i2c\ifx_i2c_physical_layer.c ****             }
 481:C:/Users/Yushev/git/wpcqi-optiga-trust-charge/optiga/optiga/comms/ifx_i2c\ifx_i2c_physical_layer.c ****             break;
 482:C:/Users/Yushev/git/wpcqi-optiga-trust-charge/optiga/optiga/comms/ifx_i2c\ifx_i2c_physical_layer.c ****             // Start frame length negotiation by writing the requested frame length
 483:C:/Users/Yushev/git/wpcqi-optiga-trust-charge/optiga/optiga/comms/ifx_i2c\ifx_i2c_physical_layer.c ****             case PL_INIT_SET_DATA_REG_LEN:
 484:C:/Users/Yushev/git/wpcqi-optiga-trust-charge/optiga/optiga/comms/ifx_i2c\ifx_i2c_physical_layer.c ****             {
 485:C:/Users/Yushev/git/wpcqi-optiga-trust-charge/optiga/optiga/comms/ifx_i2c\ifx_i2c_physical_layer.c ****                 p_ctx->pl.negotiate_state = PL_INIT_GET_DATA_REG_LEN;
 486:C:/Users/Yushev/git/wpcqi-optiga-trust-charge/optiga/optiga/comms/ifx_i2c\ifx_i2c_physical_layer.c ****                 ifx_i2c_pl_write_register(p_ctx, PL_REG_DATA_REG_LEN, sizeof(max_frame_size), max_f
 487:C:/Users/Yushev/git/wpcqi-optiga-trust-charge/optiga/optiga/comms/ifx_i2c\ifx_i2c_physical_layer.c ****             }
 488:C:/Users/Yushev/git/wpcqi-optiga-trust-charge/optiga/optiga/comms/ifx_i2c\ifx_i2c_physical_layer.c ****             break;
 489:C:/Users/Yushev/git/wpcqi-optiga-trust-charge/optiga/optiga/comms/ifx_i2c\ifx_i2c_physical_layer.c ****             // Read the frame length to verify
 490:C:/Users/Yushev/git/wpcqi-optiga-trust-charge/optiga/optiga/comms/ifx_i2c\ifx_i2c_physical_layer.c ****             case PL_INIT_GET_DATA_REG_LEN:
 491:C:/Users/Yushev/git/wpcqi-optiga-trust-charge/optiga/optiga/comms/ifx_i2c\ifx_i2c_physical_layer.c ****             {
 492:C:/Users/Yushev/git/wpcqi-optiga-trust-charge/optiga/optiga/comms/ifx_i2c\ifx_i2c_physical_layer.c ****                 p_ctx->pl.negotiate_state = PL_INIT_VERIFY_DATA_REG;
 493:C:/Users/Yushev/git/wpcqi-optiga-trust-charge/optiga/optiga/comms/ifx_i2c\ifx_i2c_physical_layer.c ****                 ifx_i2c_pl_read_register(p_ctx, PL_REG_DATA_REG_LEN, PL_REG_LEN_DATA_REG_LEN);
 494:C:/Users/Yushev/git/wpcqi-optiga-trust-charge/optiga/optiga/comms/ifx_i2c\ifx_i2c_physical_layer.c ****             }
 495:C:/Users/Yushev/git/wpcqi-optiga-trust-charge/optiga/optiga/comms/ifx_i2c\ifx_i2c_physical_layer.c ****             break;
 496:C:/Users/Yushev/git/wpcqi-optiga-trust-charge/optiga/optiga/comms/ifx_i2c\ifx_i2c_physical_layer.c ****             // Check is slave accepted the new frame length
 497:C:/Users/Yushev/git/wpcqi-optiga-trust-charge/optiga/optiga/comms/ifx_i2c\ifx_i2c_physical_layer.c ****             case PL_INIT_VERIFY_DATA_REG:
 498:C:/Users/Yushev/git/wpcqi-optiga-trust-charge/optiga/optiga/comms/ifx_i2c\ifx_i2c_physical_layer.c ****             {
 499:C:/Users/Yushev/git/wpcqi-optiga-trust-charge/optiga/optiga/comms/ifx_i2c\ifx_i2c_physical_layer.c ****                 p_ctx->pl.negotiate_state = PL_INIT_DONE;
 500:C:/Users/Yushev/git/wpcqi-optiga-trust-charge/optiga/optiga/comms/ifx_i2c\ifx_i2c_physical_layer.c ****                 slave_frame_len = (p_ctx->pl.buffer[0] << 8) | p_ctx->pl.buffer[1];
 501:C:/Users/Yushev/git/wpcqi-optiga-trust-charge/optiga/optiga/comms/ifx_i2c\ifx_i2c_physical_layer.c ****                 // Error if slave's frame length is more than requested frame length
 502:C:/Users/Yushev/git/wpcqi-optiga-trust-charge/optiga/optiga/comms/ifx_i2c\ifx_i2c_physical_layer.c ****                 if (p_ctx->frame_size >= slave_frame_len)
 503:C:/Users/Yushev/git/wpcqi-optiga-trust-charge/optiga/optiga/comms/ifx_i2c\ifx_i2c_physical_layer.c ****                 {
 504:C:/Users/Yushev/git/wpcqi-optiga-trust-charge/optiga/optiga/comms/ifx_i2c\ifx_i2c_physical_layer.c ****                     p_ctx->frame_size = slave_frame_len;
 505:C:/Users/Yushev/git/wpcqi-optiga-trust-charge/optiga/optiga/comms/ifx_i2c\ifx_i2c_physical_layer.c ****                     event = IFX_I2C_STACK_SUCCESS;
 506:C:/Users/Yushev/git/wpcqi-optiga-trust-charge/optiga/optiga/comms/ifx_i2c\ifx_i2c_physical_layer.c ****                 }
 507:C:/Users/Yushev/git/wpcqi-optiga-trust-charge/optiga/optiga/comms/ifx_i2c\ifx_i2c_physical_layer.c ****                 p_buffer = NULL;
 508:C:/Users/Yushev/git/wpcqi-optiga-trust-charge/optiga/optiga/comms/ifx_i2c\ifx_i2c_physical_layer.c ****                 buffer_len = 0;
 509:C:/Users/Yushev/git/wpcqi-optiga-trust-charge/optiga/optiga/comms/ifx_i2c\ifx_i2c_physical_layer.c ****                 continue_negotiation = TRUE;
 510:C:/Users/Yushev/git/wpcqi-optiga-trust-charge/optiga/optiga/comms/ifx_i2c\ifx_i2c_physical_layer.c ****             }
 511:C:/Users/Yushev/git/wpcqi-optiga-trust-charge/optiga/optiga/comms/ifx_i2c\ifx_i2c_physical_layer.c ****             break;
 512:C:/Users/Yushev/git/wpcqi-optiga-trust-charge/optiga/optiga/comms/ifx_i2c\ifx_i2c_physical_layer.c ****             case PL_INIT_DONE:
 513:C:/Users/Yushev/git/wpcqi-optiga-trust-charge/optiga/optiga/comms/ifx_i2c\ifx_i2c_physical_layer.c ****             {
 514:C:/Users/Yushev/git/wpcqi-optiga-trust-charge/optiga/optiga/comms/ifx_i2c\ifx_i2c_physical_layer.c ****                 if (IFX_I2C_STACK_SUCCESS == event)
 515:C:/Users/Yushev/git/wpcqi-optiga-trust-charge/optiga/optiga/comms/ifx_i2c\ifx_i2c_physical_layer.c ****                 {
 516:C:/Users/Yushev/git/wpcqi-optiga-trust-charge/optiga/optiga/comms/ifx_i2c\ifx_i2c_physical_layer.c ****                     p_ctx->pl.frame_state = PL_STATE_READY;
 517:C:/Users/Yushev/git/wpcqi-optiga-trust-charge/optiga/optiga/comms/ifx_i2c\ifx_i2c_physical_layer.c ****                 }
 518:C:/Users/Yushev/git/wpcqi-optiga-trust-charge/optiga/optiga/comms/ifx_i2c\ifx_i2c_physical_layer.c ****                 else
 519:C:/Users/Yushev/git/wpcqi-optiga-trust-charge/optiga/optiga/comms/ifx_i2c\ifx_i2c_physical_layer.c ****                 {
 520:C:/Users/Yushev/git/wpcqi-optiga-trust-charge/optiga/optiga/comms/ifx_i2c\ifx_i2c_physical_layer.c ****                     p_ctx->pl.frame_state = PL_STATE_UNINIT;
 521:C:/Users/Yushev/git/wpcqi-optiga-trust-charge/optiga/optiga/comms/ifx_i2c\ifx_i2c_physical_layer.c ****                 }
 522:C:/Users/Yushev/git/wpcqi-optiga-trust-charge/optiga/optiga/comms/ifx_i2c\ifx_i2c_physical_layer.c ****                 // Negotiation between master and slave is complete
 523:C:/Users/Yushev/git/wpcqi-optiga-trust-charge/optiga/optiga/comms/ifx_i2c\ifx_i2c_physical_layer.c ****                 p_ctx->pl.upper_layer_event_handler(p_ctx,event, p_buffer, buffer_len);
 524:C:/Users/Yushev/git/wpcqi-optiga-trust-charge/optiga/optiga/comms/ifx_i2c\ifx_i2c_physical_layer.c ****             }
 525:C:/Users/Yushev/git/wpcqi-optiga-trust-charge/optiga/optiga/comms/ifx_i2c\ifx_i2c_physical_layer.c ****             break;
 526:C:/Users/Yushev/git/wpcqi-optiga-trust-charge/optiga/optiga/comms/ifx_i2c\ifx_i2c_physical_layer.c ****             default:
 527:C:/Users/Yushev/git/wpcqi-optiga-trust-charge/optiga/optiga/comms/ifx_i2c\ifx_i2c_physical_layer.c ****                 break;
 812              	 .loc 1 527 0
 813 0054 29E1     	 b .L54
 814              	.L42:
 382:C:/Users/Yushev/git/wpcqi-optiga-trust-charge/optiga/optiga/comms/ifx_i2c\ifx_i2c_physical_layer.c ****         {
 815              	 .loc 1 382 0
 816 0056 332B     	 cmp r3,#51
 817 0058 3DD0     	 beq .L44
 818 005a 442B     	 cmp r3,#68
 819 005c 45D0     	 beq .L45
 820              	 .loc 1 527 0
 821 005e 24E1     	 b .L54
 822              	.L40:
 382:C:/Users/Yushev/git/wpcqi-optiga-trust-charge/optiga/optiga/comms/ifx_i2c\ifx_i2c_physical_layer.c ****         {
 823              	 .loc 1 382 0
 824 0060 882B     	 cmp r3,#136
 825 0062 00F0EA80 	 beq .L46
 826 0066 882B     	 cmp r3,#136
 827 0068 06DC     	 bgt .L47
 828 006a 662B     	 cmp r3,#102
 829 006c 00F08C80 	 beq .L48
 830 0070 772B     	 cmp r3,#119
 831 0072 00F0AB80 	 beq .L49
 832              	 .loc 1 527 0
 833 0076 18E1     	 b .L54
 834              	.L47:
 382:C:/Users/Yushev/git/wpcqi-optiga-trust-charge/optiga/optiga/comms/ifx_i2c\ifx_i2c_physical_layer.c ****         {
 835              	 .loc 1 382 0
 836 0078 AA2B     	 cmp r3,#170
 837 007a 00F00081 	 beq .L50
 838 007e BB2B     	 cmp r3,#187
 839 0080 00D0     	 beq .L51
 840              	 .loc 1 527 0
 841 0082 12E1     	 b .L54
 842              	.L51:
 388:C:/Users/Yushev/git/wpcqi-optiga-trust-charge/optiga/optiga/comms/ifx_i2c\ifx_i2c_physical_layer.c ****                 if (IFX_I2C_STACK_SUCCESS == event)
 843              	 .loc 1 388 0
 844 0084 7868     	 ldr r0,[r7,#4]
 845 0086 6421     	 movs r1,#100
 846 0088 FFF7FEFF 	 bl ifx_i2c_pl_set_bit_rate
 847 008c 0346     	 mov r3,r0
 848 008e FB84     	 strh r3,[r7,#38]
 389:C:/Users/Yushev/git/wpcqi-optiga-trust-charge/optiga/optiga/comms/ifx_i2c\ifx_i2c_physical_layer.c ****                 {
 849              	 .loc 1 389 0
 850 0090 FB8C     	 ldrh r3,[r7,#38]
 851 0092 002B     	 cmp r3,#0
 852 0094 07D1     	 bne .L52
 391:C:/Users/Yushev/git/wpcqi-optiga-trust-charge/optiga/optiga/comms/ifx_i2c\ifx_i2c_physical_layer.c ****                     continue_negotiation = TRUE;
 853              	 .loc 1 391 0
 854 0096 BB69     	 ldr r3,[r7,#24]
 855 0098 3322     	 movs r2,#51
 856 009a 83F8A421 	 strb r2,[r3,#420]
 392:C:/Users/Yushev/git/wpcqi-optiga-trust-charge/optiga/optiga/comms/ifx_i2c\ifx_i2c_physical_layer.c ****                 }
 857              	 .loc 1 392 0
 858 009e 0123     	 movs r3,#1
 859 00a0 87F82530 	 strb r3,[r7,#37]
 860 00a4 16E0     	 b .L53
 861              	.L52:
 394:C:/Users/Yushev/git/wpcqi-optiga-trust-charge/optiga/optiga/comms/ifx_i2c\ifx_i2c_physical_layer.c ****                 {
 862              	 .loc 1 394 0
 863 00a6 FB8C     	 ldrh r3,[r7,#38]
 864 00a8 B3F5817F 	 cmp r3,#258
 865 00ac 12D1     	 bne .L53
 396:C:/Users/Yushev/git/wpcqi-optiga-trust-charge/optiga/optiga/comms/ifx_i2c\ifx_i2c_physical_layer.c ****                     p_buffer = NULL;
 866              	 .loc 1 396 0
 867 00ae BB69     	 ldr r3,[r7,#24]
 868 00b0 AA22     	 movs r2,#170
 869 00b2 83F8A421 	 strb r2,[r3,#420]
 397:C:/Users/Yushev/git/wpcqi-optiga-trust-charge/optiga/optiga/comms/ifx_i2c\ifx_i2c_physical_layer.c ****                     buffer_len = 0;
 870              	 .loc 1 397 0
 871 00b6 0023     	 movs r3,#0
 872 00b8 FB61     	 str r3,[r7,#28]
 398:C:/Users/Yushev/git/wpcqi-optiga-trust-charge/optiga/optiga/comms/ifx_i2c\ifx_i2c_physical_layer.c ****                     pal_os_event_register_callback_oneshot(p_ctx->pal_os_event_ctx,(register_callba
 873              	 .loc 1 398 0
 874 00ba 0023     	 movs r3,#0
 875 00bc 7B84     	 strh r3,[r7,#34]
 399:C:/Users/Yushev/git/wpcqi-optiga-trust-charge/optiga/optiga/comms/ifx_i2c\ifx_i2c_physical_layer.c ****                                                            (void * )p_ctx,
 876              	 .loc 1 399 0
 877 00be BB69     	 ldr r3,[r7,#24]
 878 00c0 D3F8D433 	 ldr r3,[r3,#980]
 879 00c4 1846     	 mov r0,r3
 880 00c6 7D49     	 ldr r1,.L66
 881 00c8 BA69     	 ldr r2,[r7,#24]
 882 00ca 42F6E063 	 movw r3,#12000
 883 00ce FFF7FEFF 	 bl pal_os_event_register_callback_oneshot
 404:C:/Users/Yushev/git/wpcqi-optiga-trust-charge/optiga/optiga/comms/ifx_i2c\ifx_i2c_physical_layer.c ****             // Read the current Max frequency supported by slave
 884              	 .loc 1 404 0
 885 00d2 EAE0     	 b .L54
 886              	.L53:
 887 00d4 E9E0     	 b .L54
 888              	.L44:
 408:C:/Users/Yushev/git/wpcqi-optiga-trust-charge/optiga/optiga/comms/ifx_i2c\ifx_i2c_physical_layer.c ****                 ifx_i2c_pl_read_register(p_ctx, PL_REG_MAX_SCL_FREQU, PL_REG_LEN_MAX_SCL_FREQU);
 889              	 .loc 1 408 0
 890 00d6 BB69     	 ldr r3,[r7,#24]
 891 00d8 4422     	 movs r2,#68
 892 00da 83F8A421 	 strb r2,[r3,#420]
 409:C:/Users/Yushev/git/wpcqi-optiga-trust-charge/optiga/optiga/comms/ifx_i2c\ifx_i2c_physical_layer.c ****             }
 893              	 .loc 1 409 0
 894 00de B869     	 ldr r0,[r7,#24]
 895 00e0 8421     	 movs r1,#132
 896 00e2 0422     	 movs r2,#4
 897 00e4 FFF7FEFF 	 bl ifx_i2c_pl_read_register
 411:C:/Users/Yushev/git/wpcqi-optiga-trust-charge/optiga/optiga/comms/ifx_i2c\ifx_i2c_physical_layer.c ****             // Set the I2C mode register
 898              	 .loc 1 411 0
 899 00e8 DFE0     	 b .L54
 900              	.L45:
 415:C:/Users/Yushev/git/wpcqi-optiga-trust-charge/optiga/optiga/comms/ifx_i2c\ifx_i2c_physical_layer.c **** 
 901              	 .loc 1 415 0
 902 00ea BB69     	 ldr r3,[r7,#24]
 903 00ec 93F87A30 	 ldrb r3,[r3,#122]
 904 00f0 1B02     	 lsls r3,r3,#8
 905 00f2 9AB2     	 uxth r2,r3
 906 00f4 BB69     	 ldr r3,[r7,#24]
 907 00f6 93F87B30 	 ldrb r3,[r3,#123]
 908 00fa 9BB2     	 uxth r3,r3
 909 00fc 1343     	 orrs r3,r3,r2
 910 00fe 9BB2     	 uxth r3,r3
 911 0100 FB82     	 strh r3,[r7,#22]
 417:C:/Users/Yushev/git/wpcqi-optiga-trust-charge/optiga/optiga/comms/ifx_i2c\ifx_i2c_physical_layer.c ****                 if ((p_ctx->frequency > PL_SM_FM_MAX_FREQUENCY) && (slave_frequency <= PL_SM_FM_MAX
 912              	 .loc 1 417 0
 913 0102 8023     	 movs r3,#128
 914 0104 3B74     	 strb r3,[r7,#16]
 418:C:/Users/Yushev/git/wpcqi-optiga-trust-charge/optiga/optiga/comms/ifx_i2c\ifx_i2c_physical_layer.c ****                 {
 915              	 .loc 1 418 0
 916 0106 BB69     	 ldr r3,[r7,#24]
 917 0108 5B88     	 ldrh r3,[r3,#2]
 918 010a B3F5C87F 	 cmp r3,#400
 919 010e 11D9     	 bls .L55
 418:C:/Users/Yushev/git/wpcqi-optiga-trust-charge/optiga/optiga/comms/ifx_i2c\ifx_i2c_physical_layer.c ****                 {
 920              	 .loc 1 418 0 is_stmt 0 discriminator 1
 921 0110 FB8A     	 ldrh r3,[r7,#22]
 922 0112 B3F5C87F 	 cmp r3,#400
 923 0116 0DD8     	 bhi .L55
 421:C:/Users/Yushev/git/wpcqi-optiga-trust-charge/optiga/optiga/comms/ifx_i2c\ifx_i2c_physical_layer.c ****                     p_ctx->pl.negotiate_state = PL_INIT_READ_FREQ;
 924              	 .loc 1 421 0 is_stmt 1
 925 0118 0423     	 movs r3,#4
 926 011a 7B74     	 strb r3,[r7,#17]
 422:C:/Users/Yushev/git/wpcqi-optiga-trust-charge/optiga/optiga/comms/ifx_i2c\ifx_i2c_physical_layer.c ****                     ifx_i2c_pl_write_register(p_ctx, PL_REG_I2C_MODE, PL_REG_LEN_I2C_MODE, i2c_mode
 927              	 .loc 1 422 0
 928 011c BB69     	 ldr r3,[r7,#24]
 929 011e 5522     	 movs r2,#85
 930 0120 83F8A421 	 strb r2,[r3,#420]
 423:C:/Users/Yushev/git/wpcqi-optiga-trust-charge/optiga/optiga/comms/ifx_i2c\ifx_i2c_physical_layer.c ****                 }
 931              	 .loc 1 423 0
 932 0124 07F11003 	 add r3,r7,#16
 933 0128 B869     	 ldr r0,[r7,#24]
 934 012a 8921     	 movs r1,#137
 935 012c 0222     	 movs r2,#2
 936 012e FFF7FEFF 	 bl ifx_i2c_pl_write_register
 937 0132 1EE0     	 b .L56
 938              	.L55:
 425:C:/Users/Yushev/git/wpcqi-optiga-trust-charge/optiga/optiga/comms/ifx_i2c\ifx_i2c_physical_layer.c ****                 {
 939              	 .loc 1 425 0
 940 0134 BB69     	 ldr r3,[r7,#24]
 941 0136 5B88     	 ldrh r3,[r3,#2]
 942 0138 B3F5C87F 	 cmp r3,#400
 943 013c 11D8     	 bhi .L57
 425:C:/Users/Yushev/git/wpcqi-optiga-trust-charge/optiga/optiga/comms/ifx_i2c\ifx_i2c_physical_layer.c ****                 {
 944              	 .loc 1 425 0 is_stmt 0 discriminator 1
 945 013e FB8A     	 ldrh r3,[r7,#22]
 946 0140 B3F5C87F 	 cmp r3,#400
 947 0144 0DD9     	 bls .L57
 428:C:/Users/Yushev/git/wpcqi-optiga-trust-charge/optiga/optiga/comms/ifx_i2c\ifx_i2c_physical_layer.c ****                     p_ctx->pl.negotiate_state = PL_INIT_READ_FREQ;
 948              	 .loc 1 428 0 is_stmt 1
 949 0146 0323     	 movs r3,#3
 950 0148 7B74     	 strb r3,[r7,#17]
 429:C:/Users/Yushev/git/wpcqi-optiga-trust-charge/optiga/optiga/comms/ifx_i2c\ifx_i2c_physical_layer.c ****                     ifx_i2c_pl_write_register(p_ctx, PL_REG_I2C_MODE, PL_REG_LEN_I2C_MODE, i2c_mode
 951              	 .loc 1 429 0
 952 014a BB69     	 ldr r3,[r7,#24]
 953 014c 5522     	 movs r2,#85
 954 014e 83F8A421 	 strb r2,[r3,#420]
 430:C:/Users/Yushev/git/wpcqi-optiga-trust-charge/optiga/optiga/comms/ifx_i2c\ifx_i2c_physical_layer.c ****                 }
 955              	 .loc 1 430 0
 956 0152 07F11003 	 add r3,r7,#16
 957 0156 B869     	 ldr r0,[r7,#24]
 958 0158 8921     	 movs r1,#137
 959 015a 0222     	 movs r2,#2
 960 015c FFF7FEFF 	 bl ifx_i2c_pl_write_register
 961 0160 07E0     	 b .L56
 962              	.L57:
 434:C:/Users/Yushev/git/wpcqi-optiga-trust-charge/optiga/optiga/comms/ifx_i2c\ifx_i2c_physical_layer.c ****                     continue_negotiation = TRUE;
 963              	 .loc 1 434 0
 964 0162 BB69     	 ldr r3,[r7,#24]
 965 0164 6622     	 movs r2,#102
 966 0166 83F8A421 	 strb r2,[r3,#420]
 435:C:/Users/Yushev/git/wpcqi-optiga-trust-charge/optiga/optiga/comms/ifx_i2c\ifx_i2c_physical_layer.c ****                 }
 967              	 .loc 1 435 0
 968 016a 0123     	 movs r3,#1
 969 016c 87F82530 	 strb r3,[r7,#37]
 438:C:/Users/Yushev/git/wpcqi-optiga-trust-charge/optiga/optiga/comms/ifx_i2c\ifx_i2c_physical_layer.c ****             // After setting I2C mode register, read the slave's supported frequency
 970              	 .loc 1 438 0
 971 0170 9BE0     	 b .L54
 972              	.L56:
 973 0172 9AE0     	 b .L54
 974              	.L39:
 442:C:/Users/Yushev/git/wpcqi-optiga-trust-charge/optiga/optiga/comms/ifx_i2c\ifx_i2c_physical_layer.c ****                 ifx_i2c_pl_read_register(p_ctx, PL_REG_MAX_SCL_FREQU, PL_REG_LEN_MAX_SCL_FREQU);
 975              	 .loc 1 442 0
 976 0174 BB69     	 ldr r3,[r7,#24]
 977 0176 6622     	 movs r2,#102
 978 0178 83F8A421 	 strb r2,[r3,#420]
 443:C:/Users/Yushev/git/wpcqi-optiga-trust-charge/optiga/optiga/comms/ifx_i2c\ifx_i2c_physical_layer.c ****             }
 979              	 .loc 1 443 0
 980 017c B869     	 ldr r0,[r7,#24]
 981 017e 8421     	 movs r1,#132
 982 0180 0422     	 movs r2,#4
 983 0182 FFF7FEFF 	 bl ifx_i2c_pl_read_register
 445:C:/Users/Yushev/git/wpcqi-optiga-trust-charge/optiga/optiga/comms/ifx_i2c\ifx_i2c_physical_layer.c ****             // Verify the requested frequency and slave's supported frequency
 984              	 .loc 1 445 0
 985 0186 90E0     	 b .L54
 986              	.L48:
 449:C:/Users/Yushev/git/wpcqi-optiga-trust-charge/optiga/optiga/comms/ifx_i2c\ifx_i2c_physical_layer.c ****                 if (p_ctx->frequency > slave_frequency)
 987              	 .loc 1 449 0
 988 0188 BB69     	 ldr r3,[r7,#24]
 989 018a 93F87A30 	 ldrb r3,[r3,#122]
 990 018e 1B02     	 lsls r3,r3,#8
 991 0190 9AB2     	 uxth r2,r3
 992 0192 BB69     	 ldr r3,[r7,#24]
 993 0194 93F87B30 	 ldrb r3,[r3,#123]
 994 0198 9BB2     	 uxth r3,r3
 995 019a 1343     	 orrs r3,r3,r2
 996 019c 9BB2     	 uxth r3,r3
 997 019e FB82     	 strh r3,[r7,#22]
 450:C:/Users/Yushev/git/wpcqi-optiga-trust-charge/optiga/optiga/comms/ifx_i2c\ifx_i2c_physical_layer.c ****                 {
 998              	 .loc 1 450 0
 999 01a0 BB69     	 ldr r3,[r7,#24]
 1000 01a2 5B88     	 ldrh r3,[r3,#2]
 1001 01a4 FA8A     	 ldrh r2,[r7,#22]
 1002 01a6 9A42     	 cmp r2,r3
 1003 01a8 08D2     	 bcs .L58
 453:C:/Users/Yushev/git/wpcqi-optiga-trust-charge/optiga/optiga/comms/ifx_i2c\ifx_i2c_physical_layer.c ****                     buffer_len = 0;
 1004              	 .loc 1 453 0
 1005 01aa 0023     	 movs r3,#0
 1006 01ac FB61     	 str r3,[r7,#28]
 454:C:/Users/Yushev/git/wpcqi-optiga-trust-charge/optiga/optiga/comms/ifx_i2c\ifx_i2c_physical_layer.c ****                     p_ctx->pl.negotiate_state = PL_INIT_DONE;
 1007              	 .loc 1 454 0
 1008 01ae 0023     	 movs r3,#0
 1009 01b0 7B84     	 strh r3,[r7,#34]
 455:C:/Users/Yushev/git/wpcqi-optiga-trust-charge/optiga/optiga/comms/ifx_i2c\ifx_i2c_physical_layer.c ****                 }
 1010              	 .loc 1 455 0
 1011 01b2 BB69     	 ldr r3,[r7,#24]
 1012 01b4 AA22     	 movs r2,#170
 1013 01b6 83F8A421 	 strb r2,[r3,#420]
 1014 01ba 03E0     	 b .L59
 1015              	.L58:
 459:C:/Users/Yushev/git/wpcqi-optiga-trust-charge/optiga/optiga/comms/ifx_i2c\ifx_i2c_physical_layer.c ****                 }
 1016              	 .loc 1 459 0
 1017 01bc BB69     	 ldr r3,[r7,#24]
 1018 01be 7722     	 movs r2,#119
 1019 01c0 83F8A421 	 strb r2,[r3,#420]
 1020              	.L59:
 461:C:/Users/Yushev/git/wpcqi-optiga-trust-charge/optiga/optiga/comms/ifx_i2c\ifx_i2c_physical_layer.c ****             }
 1021              	 .loc 1 461 0
 1022 01c4 0123     	 movs r3,#1
 1023 01c6 87F82530 	 strb r3,[r7,#37]
 463:C:/Users/Yushev/git/wpcqi-optiga-trust-charge/optiga/optiga/comms/ifx_i2c\ifx_i2c_physical_layer.c ****             // Frequency negotiated, Set frequency at master
 1024              	 .loc 1 463 0
 1025 01ca 6EE0     	 b .L54
 1026              	.L49:
 468:C:/Users/Yushev/git/wpcqi-optiga-trust-charge/optiga/optiga/comms/ifx_i2c\ifx_i2c_physical_layer.c ****                 if (IFX_I2C_STACK_SUCCESS == event)
 1027              	 .loc 1 468 0
 1028 01cc BB69     	 ldr r3,[r7,#24]
 1029 01ce 5B88     	 ldrh r3,[r3,#2]
 1030 01d0 7868     	 ldr r0,[r7,#4]
 1031 01d2 1946     	 mov r1,r3
 1032 01d4 FFF7FEFF 	 bl ifx_i2c_pl_set_bit_rate
 1033 01d8 0346     	 mov r3,r0
 1034 01da FB84     	 strh r3,[r7,#38]
 469:C:/Users/Yushev/git/wpcqi-optiga-trust-charge/optiga/optiga/comms/ifx_i2c\ifx_i2c_physical_layer.c ****                 {
 1035              	 .loc 1 469 0
 1036 01dc FB8C     	 ldrh r3,[r7,#38]
 1037 01de 002B     	 cmp r3,#0
 1038 01e0 07D1     	 bne .L60
 471:C:/Users/Yushev/git/wpcqi-optiga-trust-charge/optiga/optiga/comms/ifx_i2c\ifx_i2c_physical_layer.c ****                     continue_negotiation = TRUE;
 1039              	 .loc 1 471 0
 1040 01e2 BB69     	 ldr r3,[r7,#24]
 1041 01e4 1122     	 movs r2,#17
 1042 01e6 83F8A421 	 strb r2,[r3,#420]
 472:C:/Users/Yushev/git/wpcqi-optiga-trust-charge/optiga/optiga/comms/ifx_i2c\ifx_i2c_physical_layer.c ****                 }
 1043              	 .loc 1 472 0
 1044 01ea 0123     	 movs r3,#1
 1045 01ec 87F82530 	 strb r3,[r7,#37]
 1046 01f0 0CE0     	 b .L61
 1047              	.L60:
 474:C:/Users/Yushev/git/wpcqi-optiga-trust-charge/optiga/optiga/comms/ifx_i2c\ifx_i2c_physical_layer.c ****                 {
 1048              	 .loc 1 474 0
 1049 01f2 FB8C     	 ldrh r3,[r7,#38]
 1050 01f4 B3F5817F 	 cmp r3,#258
 1051 01f8 08D1     	 bne .L61
 476:C:/Users/Yushev/git/wpcqi-optiga-trust-charge/optiga/optiga/comms/ifx_i2c\ifx_i2c_physical_layer.c ****                     p_buffer = NULL;
 1052              	 .loc 1 476 0
 1053 01fa BB69     	 ldr r3,[r7,#24]
 1054 01fc AA22     	 movs r2,#170
 1055 01fe 83F8A421 	 strb r2,[r3,#420]
 477:C:/Users/Yushev/git/wpcqi-optiga-trust-charge/optiga/optiga/comms/ifx_i2c\ifx_i2c_physical_layer.c ****                     buffer_len = 0;
 1056              	 .loc 1 477 0
 1057 0202 0023     	 movs r3,#0
 1058 0204 FB61     	 str r3,[r7,#28]
 478:C:/Users/Yushev/git/wpcqi-optiga-trust-charge/optiga/optiga/comms/ifx_i2c\ifx_i2c_physical_layer.c ****                 }
 1059              	 .loc 1 478 0
 1060 0206 0023     	 movs r3,#0
 1061 0208 7B84     	 strh r3,[r7,#34]
 481:C:/Users/Yushev/git/wpcqi-optiga-trust-charge/optiga/optiga/comms/ifx_i2c\ifx_i2c_physical_layer.c ****             // Start frame length negotiation by writing the requested frame length
 1062              	 .loc 1 481 0
 1063 020a 4EE0     	 b .L54
 1064              	.L61:
 1065 020c 4DE0     	 b .L54
 1066              	.L43:
 485:C:/Users/Yushev/git/wpcqi-optiga-trust-charge/optiga/optiga/comms/ifx_i2c\ifx_i2c_physical_layer.c ****                 ifx_i2c_pl_write_register(p_ctx, PL_REG_DATA_REG_LEN, sizeof(max_frame_size), max_f
 1067              	 .loc 1 485 0
 1068 020e BB69     	 ldr r3,[r7,#24]
 1069 0210 2222     	 movs r2,#34
 1070 0212 83F8A421 	 strb r2,[r3,#420]
 486:C:/Users/Yushev/git/wpcqi-optiga-trust-charge/optiga/optiga/comms/ifx_i2c\ifx_i2c_physical_layer.c ****             }
 1071              	 .loc 1 486 0
 1072 0216 07F10C03 	 add r3,r7,#12
 1073 021a B869     	 ldr r0,[r7,#24]
 1074 021c 8121     	 movs r1,#129
 1075 021e 0222     	 movs r2,#2
 1076 0220 FFF7FEFF 	 bl ifx_i2c_pl_write_register
 488:C:/Users/Yushev/git/wpcqi-optiga-trust-charge/optiga/optiga/comms/ifx_i2c\ifx_i2c_physical_layer.c ****             // Read the frame length to verify
 1077              	 .loc 1 488 0
 1078 0224 41E0     	 b .L54
 1079              	.L41:
 492:C:/Users/Yushev/git/wpcqi-optiga-trust-charge/optiga/optiga/comms/ifx_i2c\ifx_i2c_physical_layer.c ****                 ifx_i2c_pl_read_register(p_ctx, PL_REG_DATA_REG_LEN, PL_REG_LEN_DATA_REG_LEN);
 1080              	 .loc 1 492 0
 1081 0226 BB69     	 ldr r3,[r7,#24]
 1082 0228 8822     	 movs r2,#136
 1083 022a 83F8A421 	 strb r2,[r3,#420]
 493:C:/Users/Yushev/git/wpcqi-optiga-trust-charge/optiga/optiga/comms/ifx_i2c\ifx_i2c_physical_layer.c ****             }
 1084              	 .loc 1 493 0
 1085 022e B869     	 ldr r0,[r7,#24]
 1086 0230 8121     	 movs r1,#129
 1087 0232 0222     	 movs r2,#2
 1088 0234 FFF7FEFF 	 bl ifx_i2c_pl_read_register
 495:C:/Users/Yushev/git/wpcqi-optiga-trust-charge/optiga/optiga/comms/ifx_i2c\ifx_i2c_physical_layer.c ****             // Check is slave accepted the new frame length
 1089              	 .loc 1 495 0
 1090 0238 37E0     	 b .L54
 1091              	.L46:
 499:C:/Users/Yushev/git/wpcqi-optiga-trust-charge/optiga/optiga/comms/ifx_i2c\ifx_i2c_physical_layer.c ****                 slave_frame_len = (p_ctx->pl.buffer[0] << 8) | p_ctx->pl.buffer[1];
 1092              	 .loc 1 499 0
 1093 023a BB69     	 ldr r3,[r7,#24]
 1094 023c AA22     	 movs r2,#170
 1095 023e 83F8A421 	 strb r2,[r3,#420]
 500:C:/Users/Yushev/git/wpcqi-optiga-trust-charge/optiga/optiga/comms/ifx_i2c\ifx_i2c_physical_layer.c ****                 // Error if slave's frame length is more than requested frame length
 1096              	 .loc 1 500 0
 1097 0242 BB69     	 ldr r3,[r7,#24]
 1098 0244 93F87830 	 ldrb r3,[r3,#120]
 1099 0248 1B02     	 lsls r3,r3,#8
 1100 024a 9AB2     	 uxth r2,r3
 1101 024c BB69     	 ldr r3,[r7,#24]
 1102 024e 93F87930 	 ldrb r3,[r3,#121]
 1103 0252 9BB2     	 uxth r3,r3
 1104 0254 1343     	 orrs r3,r3,r2
 1105 0256 9BB2     	 uxth r3,r3
 1106 0258 BB82     	 strh r3,[r7,#20]
 502:C:/Users/Yushev/git/wpcqi-optiga-trust-charge/optiga/optiga/comms/ifx_i2c\ifx_i2c_physical_layer.c ****                 {
 1107              	 .loc 1 502 0
 1108 025a BB69     	 ldr r3,[r7,#24]
 1109 025c 9B88     	 ldrh r3,[r3,#4]
 1110 025e BA8A     	 ldrh r2,[r7,#20]
 1111 0260 9A42     	 cmp r2,r3
 1112 0262 04D8     	 bhi .L62
 504:C:/Users/Yushev/git/wpcqi-optiga-trust-charge/optiga/optiga/comms/ifx_i2c\ifx_i2c_physical_layer.c ****                     event = IFX_I2C_STACK_SUCCESS;
 1113              	 .loc 1 504 0
 1114 0264 BB69     	 ldr r3,[r7,#24]
 1115 0266 BA8A     	 ldrh r2,[r7,#20]
 1116 0268 9A80     	 strh r2,[r3,#4]
 505:C:/Users/Yushev/git/wpcqi-optiga-trust-charge/optiga/optiga/comms/ifx_i2c\ifx_i2c_physical_layer.c ****                 }
 1117              	 .loc 1 505 0
 1118 026a 0023     	 movs r3,#0
 1119 026c FB84     	 strh r3,[r7,#38]
 1120              	.L62:
 507:C:/Users/Yushev/git/wpcqi-optiga-trust-charge/optiga/optiga/comms/ifx_i2c\ifx_i2c_physical_layer.c ****                 buffer_len = 0;
 1121              	 .loc 1 507 0
 1122 026e 0023     	 movs r3,#0
 1123 0270 FB61     	 str r3,[r7,#28]
 508:C:/Users/Yushev/git/wpcqi-optiga-trust-charge/optiga/optiga/comms/ifx_i2c\ifx_i2c_physical_layer.c ****                 continue_negotiation = TRUE;
 1124              	 .loc 1 508 0
 1125 0272 0023     	 movs r3,#0
 1126 0274 7B84     	 strh r3,[r7,#34]
 509:C:/Users/Yushev/git/wpcqi-optiga-trust-charge/optiga/optiga/comms/ifx_i2c\ifx_i2c_physical_layer.c ****             }
 1127              	 .loc 1 509 0
 1128 0276 0123     	 movs r3,#1
 1129 0278 87F82530 	 strb r3,[r7,#37]
 511:C:/Users/Yushev/git/wpcqi-optiga-trust-charge/optiga/optiga/comms/ifx_i2c\ifx_i2c_physical_layer.c ****             case PL_INIT_DONE:
 1130              	 .loc 1 511 0
 1131 027c 15E0     	 b .L54
 1132              	.L50:
 514:C:/Users/Yushev/git/wpcqi-optiga-trust-charge/optiga/optiga/comms/ifx_i2c\ifx_i2c_physical_layer.c ****                 {
 1133              	 .loc 1 514 0
 1134 027e FB8C     	 ldrh r3,[r7,#38]
 1135 0280 002B     	 cmp r3,#0
 1136 0282 04D1     	 bne .L63
 516:C:/Users/Yushev/git/wpcqi-optiga-trust-charge/optiga/optiga/comms/ifx_i2c\ifx_i2c_physical_layer.c ****                 }
 1137              	 .loc 1 516 0
 1138 0284 BB69     	 ldr r3,[r7,#24]
 1139 0286 0222     	 movs r2,#2
 1140 0288 83F89721 	 strb r2,[r3,#407]
 1141 028c 03E0     	 b .L64
 1142              	.L63:
 520:C:/Users/Yushev/git/wpcqi-optiga-trust-charge/optiga/optiga/comms/ifx_i2c\ifx_i2c_physical_layer.c ****                 }
 1143              	 .loc 1 520 0
 1144 028e BB69     	 ldr r3,[r7,#24]
 1145 0290 0022     	 movs r2,#0
 1146 0292 83F89721 	 strb r2,[r3,#407]
 1147              	.L64:
 523:C:/Users/Yushev/git/wpcqi-optiga-trust-charge/optiga/optiga/comms/ifx_i2c\ifx_i2c_physical_layer.c ****             }
 1148              	 .loc 1 523 0
 1149 0296 BB69     	 ldr r3,[r7,#24]
 1150 0298 D3F8A041 	 ldr r4,[r3,#416]
 1151 029c FA8C     	 ldrh r2,[r7,#38]
 1152 029e 7B8C     	 ldrh r3,[r7,#34]
 1153 02a0 B869     	 ldr r0,[r7,#24]
 1154 02a2 1146     	 mov r1,r2
 1155 02a4 FA69     	 ldr r2,[r7,#28]
 1156 02a6 A047     	 blx r4
 525:C:/Users/Yushev/git/wpcqi-optiga-trust-charge/optiga/optiga/comms/ifx_i2c\ifx_i2c_physical_layer.c ****             default:
 1157              	 .loc 1 525 0
 1158 02a8 00BF     	 nop
 1159              	.L54:
 528:C:/Users/Yushev/git/wpcqi-optiga-trust-charge/optiga/optiga/comms/ifx_i2c\ifx_i2c_physical_layer.c ****         }
 529:C:/Users/Yushev/git/wpcqi-optiga-trust-charge/optiga/optiga/comms/ifx_i2c\ifx_i2c_physical_layer.c ****     } while (FALSE != continue_negotiation);
 1160              	 .loc 1 529 0
 1161 02aa 97F82530 	 ldrb r3,[r7,#37]
 1162 02ae 002B     	 cmp r3,#0
 1163 02b0 7FF4BDAE 	 bne .L65
 530:C:/Users/Yushev/git/wpcqi-optiga-trust-charge/optiga/optiga/comms/ifx_i2c\ifx_i2c_physical_layer.c **** }
 1164              	 .loc 1 530 0
 1165 02b4 2C37     	 adds r7,r7,#44
 1166              	.LCFI43:
 1167              	 .cfi_def_cfa_offset 12
 1168 02b6 BD46     	 mov sp,r7
 1169              	.LCFI44:
 1170              	 .cfi_def_cfa_register 13
 1171              	 
 1172 02b8 90BD     	 pop {r4,r7,pc}
 1173              	.L67:
 1174 02ba 00BF     	 .align 2
 1175              	.L66:
 1176 02bc 00000000 	 .word ifx_i2c_pl_negotiation_event_handler
 1177              	 .cfi_endproc
 1178              	.LFE8:
 1180              	 .section .text.ifx_i2c_pl_frame_event_handler,"ax",%progbits
 1181              	 .align 2
 1182              	 .thumb
 1183              	 .thumb_func
 1185              	ifx_i2c_pl_frame_event_handler:
 1186              	.LFB9:
 531:C:/Users/Yushev/git/wpcqi-optiga-trust-charge/optiga/optiga/comms/ifx_i2c\ifx_i2c_physical_layer.c **** 
 532:C:/Users/Yushev/git/wpcqi-optiga-trust-charge/optiga/optiga/comms/ifx_i2c\ifx_i2c_physical_layer.c **** 
 533:C:/Users/Yushev/git/wpcqi-optiga-trust-charge/optiga/optiga/comms/ifx_i2c\ifx_i2c_physical_layer.c **** _STATIC_H void ifx_i2c_pl_frame_event_handler(ifx_i2c_context_t * p_ctx, optiga_lib_status_t event)
 534:C:/Users/Yushev/git/wpcqi-optiga-trust-charge/optiga/optiga/comms/ifx_i2c\ifx_i2c_physical_layer.c **** {
 1187              	 .loc 1 534 0
 1188              	 .cfi_startproc
 1189              	 
 1190              	 
 1191 0000 90B5     	 push {r4,r7,lr}
 1192              	.LCFI45:
 1193              	 .cfi_def_cfa_offset 12
 1194              	 .cfi_offset 4,-12
 1195              	 .cfi_offset 7,-8
 1196              	 .cfi_offset 14,-4
 1197 0002 87B0     	 sub sp,sp,#28
 1198              	.LCFI46:
 1199              	 .cfi_def_cfa_offset 40
 1200 0004 00AF     	 add r7,sp,#0
 1201              	.LCFI47:
 1202              	 .cfi_def_cfa_register 7
 1203 0006 7860     	 str r0,[r7,#4]
 1204 0008 0B46     	 mov r3,r1
 1205 000a 7B80     	 strh r3,[r7,#2]
 535:C:/Users/Yushev/git/wpcqi-optiga-trust-charge/optiga/optiga/comms/ifx_i2c\ifx_i2c_physical_layer.c ****     uint32_t time_stamp_diff;
 536:C:/Users/Yushev/git/wpcqi-optiga-trust-charge/optiga/optiga/comms/ifx_i2c\ifx_i2c_physical_layer.c ****     uint32_t current_time;
 537:C:/Users/Yushev/git/wpcqi-optiga-trust-charge/optiga/optiga/comms/ifx_i2c\ifx_i2c_physical_layer.c ****     uint16_t frame_size;
 538:C:/Users/Yushev/git/wpcqi-optiga-trust-charge/optiga/optiga/comms/ifx_i2c\ifx_i2c_physical_layer.c ****     if (IFX_I2C_STACK_SUCCESS != event)
 1206              	 .loc 1 538 0
 1207 000c 7B88     	 ldrh r3,[r7,#2]
 1208 000e 002B     	 cmp r3,#0
 1209 0010 0DD0     	 beq .L69
 539:C:/Users/Yushev/git/wpcqi-optiga-trust-charge/optiga/optiga/comms/ifx_i2c\ifx_i2c_physical_layer.c ****     {
 540:C:/Users/Yushev/git/wpcqi-optiga-trust-charge/optiga/optiga/comms/ifx_i2c\ifx_i2c_physical_layer.c ****         p_ctx->pl.frame_state = PL_STATE_READY;
 1210              	 .loc 1 540 0
 1211 0012 7B68     	 ldr r3,[r7,#4]
 1212 0014 0222     	 movs r2,#2
 1213 0016 83F89721 	 strb r2,[r3,#407]
 541:C:/Users/Yushev/git/wpcqi-optiga-trust-charge/optiga/optiga/comms/ifx_i2c\ifx_i2c_physical_layer.c ****         // I2C read or write failed, report to upper layer
 542:C:/Users/Yushev/git/wpcqi-optiga-trust-charge/optiga/optiga/comms/ifx_i2c\ifx_i2c_physical_layer.c ****         p_ctx->pl.upper_layer_event_handler(p_ctx, event, 0, 0);
 1214              	 .loc 1 542 0
 1215 001a 7B68     	 ldr r3,[r7,#4]
 1216 001c D3F8A041 	 ldr r4,[r3,#416]
 1217 0020 7B88     	 ldrh r3,[r7,#2]
 1218 0022 7868     	 ldr r0,[r7,#4]
 1219 0024 1946     	 mov r1,r3
 1220 0026 0022     	 movs r2,#0
 1221 0028 0023     	 movs r3,#0
 1222 002a A047     	 blx r4
 1223 002c EBE0     	 b .L68
 1224              	.L69:
 543:C:/Users/Yushev/git/wpcqi-optiga-trust-charge/optiga/optiga/comms/ifx_i2c\ifx_i2c_physical_layer.c ****     }
 544:C:/Users/Yushev/git/wpcqi-optiga-trust-charge/optiga/optiga/comms/ifx_i2c\ifx_i2c_physical_layer.c ****     else
 545:C:/Users/Yushev/git/wpcqi-optiga-trust-charge/optiga/optiga/comms/ifx_i2c\ifx_i2c_physical_layer.c ****     {
 546:C:/Users/Yushev/git/wpcqi-optiga-trust-charge/optiga/optiga/comms/ifx_i2c\ifx_i2c_physical_layer.c ****         switch (p_ctx->pl.frame_state)
 1225              	 .loc 1 546 0
 1226 002e 7B68     	 ldr r3,[r7,#4]
 1227 0030 93F89731 	 ldrb r3,[r3,#407]
 1228 0034 013B     	 subs r3,r3,#1
 1229 0036 042B     	 cmp r3,#4
 1230 0038 00F2D780 	 bhi .L71
 1231 003c 01A2     	 adr r2,.L73
 1232 003e 52F823F0 	 ldr pc,[r2,r3,lsl#2]
 1233 0042 00BF     	 .p2align 2
 1234              	.L73:
 1235 0044 61000000 	 .word .L72+1
 1236 0048 69000000 	 .word .L74+1
 1237 004c 87000000 	 .word .L75+1
 1238 0050 C9010000 	 .word .L76+1
 1239 0054 59000000 	 .word .L77+1
 1240              	 .p2align 1
 1241              	.L77:
 547:C:/Users/Yushev/git/wpcqi-optiga-trust-charge/optiga/optiga/comms/ifx_i2c\ifx_i2c_physical_layer.c ****         {
 548:C:/Users/Yushev/git/wpcqi-optiga-trust-charge/optiga/optiga/comms/ifx_i2c\ifx_i2c_physical_layer.c ****             // Perform soft reset
 549:C:/Users/Yushev/git/wpcqi-optiga-trust-charge/optiga/optiga/comms/ifx_i2c\ifx_i2c_physical_layer.c ****             case PL_STATE_SOFT_RESET:
 550:C:/Users/Yushev/git/wpcqi-optiga-trust-charge/optiga/optiga/comms/ifx_i2c\ifx_i2c_physical_layer.c ****             {
 551:C:/Users/Yushev/git/wpcqi-optiga-trust-charge/optiga/optiga/comms/ifx_i2c\ifx_i2c_physical_layer.c ****                 ifx_i2c_pl_soft_reset(p_ctx);
 1242              	 .loc 1 551 0
 1243 0058 7868     	 ldr r0,[r7,#4]
 1244 005a FFF7FEFF 	 bl ifx_i2c_pl_soft_reset
 552:C:/Users/Yushev/git/wpcqi-optiga-trust-charge/optiga/optiga/comms/ifx_i2c\ifx_i2c_physical_layer.c ****             }
 553:C:/Users/Yushev/git/wpcqi-optiga-trust-charge/optiga/optiga/comms/ifx_i2c\ifx_i2c_physical_layer.c ****             break;
 1245              	 .loc 1 553 0
 1246 005e D2E0     	 b .L68
 1247              	.L72:
 554:C:/Users/Yushev/git/wpcqi-optiga-trust-charge/optiga/optiga/comms/ifx_i2c\ifx_i2c_physical_layer.c ****             // Negotiate frame and frequency with slave
 555:C:/Users/Yushev/git/wpcqi-optiga-trust-charge/optiga/optiga/comms/ifx_i2c\ifx_i2c_physical_layer.c ****             case PL_STATE_INIT:
 556:C:/Users/Yushev/git/wpcqi-optiga-trust-charge/optiga/optiga/comms/ifx_i2c\ifx_i2c_physical_layer.c ****             {
 557:C:/Users/Yushev/git/wpcqi-optiga-trust-charge/optiga/optiga/comms/ifx_i2c\ifx_i2c_physical_layer.c ****                 ifx_i2c_pl_negotiation_event_handler(p_ctx);
 1248              	 .loc 1 557 0
 1249 0060 7868     	 ldr r0,[r7,#4]
 1250 0062 FFF7FEFF 	 bl ifx_i2c_pl_negotiation_event_handler
 558:C:/Users/Yushev/git/wpcqi-optiga-trust-charge/optiga/optiga/comms/ifx_i2c\ifx_i2c_physical_layer.c ****             }
 559:C:/Users/Yushev/git/wpcqi-optiga-trust-charge/optiga/optiga/comms/ifx_i2c\ifx_i2c_physical_layer.c ****             break;
 1251              	 .loc 1 559 0
 1252 0066 CEE0     	 b .L68
 1253              	.L74:
 560:C:/Users/Yushev/git/wpcqi-optiga-trust-charge/optiga/optiga/comms/ifx_i2c\ifx_i2c_physical_layer.c ****             // Check status of slave data
 561:C:/Users/Yushev/git/wpcqi-optiga-trust-charge/optiga/optiga/comms/ifx_i2c\ifx_i2c_physical_layer.c ****             case PL_STATE_READY:
 562:C:/Users/Yushev/git/wpcqi-optiga-trust-charge/optiga/optiga/comms/ifx_i2c\ifx_i2c_physical_layer.c ****             {
 563:C:/Users/Yushev/git/wpcqi-optiga-trust-charge/optiga/optiga/comms/ifx_i2c\ifx_i2c_physical_layer.c ****                 // Start polling status register
 564:C:/Users/Yushev/git/wpcqi-optiga-trust-charge/optiga/optiga/comms/ifx_i2c\ifx_i2c_physical_layer.c ****                 p_ctx->pl.frame_state            = PL_STATE_DATA_AVAILABLE;
 1254              	 .loc 1 564 0
 1255 0068 7B68     	 ldr r3,[r7,#4]
 1256 006a 0322     	 movs r2,#3
 1257 006c 83F89721 	 strb r2,[r3,#407]
 565:C:/Users/Yushev/git/wpcqi-optiga-trust-charge/optiga/optiga/comms/ifx_i2c\ifx_i2c_physical_layer.c ****                 if (PL_ACTION_READ_FRAME == p_ctx->pl.frame_action)
 1258              	 .loc 1 565 0
 1259 0070 7B68     	 ldr r3,[r7,#4]
 1260 0072 93F89631 	 ldrb r3,[r3,#406]
 1261 0076 022B     	 cmp r3,#2
 1262 0078 05D1     	 bne .L75
 566:C:/Users/Yushev/git/wpcqi-optiga-trust-charge/optiga/optiga/comms/ifx_i2c\ifx_i2c_physical_layer.c ****                 {
 567:C:/Users/Yushev/git/wpcqi-optiga-trust-charge/optiga/optiga/comms/ifx_i2c\ifx_i2c_physical_layer.c ****                     ifx_i2c_pl_read_register(p_ctx, PL_REG_I2C_STATE, PL_REG_LEN_I2C_STATE);
 1263              	 .loc 1 567 0
 1264 007a 7868     	 ldr r0,[r7,#4]
 1265 007c 8221     	 movs r1,#130
 1266 007e 0422     	 movs r2,#4
 1267 0080 FFF7FEFF 	 bl ifx_i2c_pl_read_register
 568:C:/Users/Yushev/git/wpcqi-optiga-trust-charge/optiga/optiga/comms/ifx_i2c\ifx_i2c_physical_layer.c ****                     break;
 1268              	 .loc 1 568 0
 1269 0084 BFE0     	 b .L68
 1270              	.L75:
 569:C:/Users/Yushev/git/wpcqi-optiga-trust-charge/optiga/optiga/comms/ifx_i2c\ifx_i2c_physical_layer.c ****                 }
 570:C:/Users/Yushev/git/wpcqi-optiga-trust-charge/optiga/optiga/comms/ifx_i2c\ifx_i2c_physical_layer.c ****             }
 571:C:/Users/Yushev/git/wpcqi-optiga-trust-charge/optiga/optiga/comms/ifx_i2c\ifx_i2c_physical_layer.c ****             //lint -fallthrough "For write frame, polling of i2c status register is skipped"
 572:C:/Users/Yushev/git/wpcqi-optiga-trust-charge/optiga/optiga/comms/ifx_i2c\ifx_i2c_physical_layer.c ****             // Do read/write frame
 573:C:/Users/Yushev/git/wpcqi-optiga-trust-charge/optiga/optiga/comms/ifx_i2c\ifx_i2c_physical_layer.c ****             case PL_STATE_DATA_AVAILABLE:
 574:C:/Users/Yushev/git/wpcqi-optiga-trust-charge/optiga/optiga/comms/ifx_i2c\ifx_i2c_physical_layer.c ****             {
 575:C:/Users/Yushev/git/wpcqi-optiga-trust-charge/optiga/optiga/comms/ifx_i2c\ifx_i2c_physical_layer.c ****                 // Read frame, if response is ready. Ignore busy flag
 576:C:/Users/Yushev/git/wpcqi-optiga-trust-charge/optiga/optiga/comms/ifx_i2c\ifx_i2c_physical_layer.c ****                 if ((PL_ACTION_READ_FRAME == p_ctx->pl.frame_action)
 1271              	 .loc 1 576 0
 1272 0086 7B68     	 ldr r3,[r7,#4]
 1273 0088 93F89631 	 ldrb r3,[r3,#406]
 1274 008c 022B     	 cmp r3,#2
 1275 008e 56D1     	 bne .L78
 577:C:/Users/Yushev/git/wpcqi-optiga-trust-charge/optiga/optiga/comms/ifx_i2c\ifx_i2c_physical_layer.c ****                 && (0 != (p_ctx->pl.buffer[0] & PL_REG_I2C_STATE_RESPONSE_READY)))
 1276              	 .loc 1 577 0
 1277 0090 7B68     	 ldr r3,[r7,#4]
 1278 0092 93F87830 	 ldrb r3,[r3,#120]
 1279 0096 03F04003 	 and r3,r3,#64
 1280 009a 002B     	 cmp r3,#0
 1281 009c 4FD0     	 beq .L78
 578:C:/Users/Yushev/git/wpcqi-optiga-trust-charge/optiga/optiga/comms/ifx_i2c\ifx_i2c_physical_layer.c ****                 {
 579:C:/Users/Yushev/git/wpcqi-optiga-trust-charge/optiga/optiga/comms/ifx_i2c\ifx_i2c_physical_layer.c ****                     frame_size = (p_ctx->pl.buffer[2] << 8) | p_ctx->pl.buffer[3];
 1282              	 .loc 1 579 0
 1283 009e 7B68     	 ldr r3,[r7,#4]
 1284 00a0 93F87A30 	 ldrb r3,[r3,#122]
 1285 00a4 1B02     	 lsls r3,r3,#8
 1286 00a6 9AB2     	 uxth r2,r3
 1287 00a8 7B68     	 ldr r3,[r7,#4]
 1288 00aa 93F87B30 	 ldrb r3,[r3,#123]
 1289 00ae 9BB2     	 uxth r3,r3
 1290 00b0 1343     	 orrs r3,r3,r2
 1291 00b2 9BB2     	 uxth r3,r3
 1292 00b4 7B82     	 strh r3,[r7,#18]
 580:C:/Users/Yushev/git/wpcqi-optiga-trust-charge/optiga/optiga/comms/ifx_i2c\ifx_i2c_physical_layer.c ****                     if ((frame_size > 0) && (frame_size <= p_ctx->frame_size))
 1293              	 .loc 1 580 0
 1294 00b6 7B8A     	 ldrh r3,[r7,#18]
 1295 00b8 002B     	 cmp r3,#0
 1296 00ba 0FD0     	 beq .L79
 1297              	 .loc 1 580 0 is_stmt 0 discriminator 1
 1298 00bc 7B68     	 ldr r3,[r7,#4]
 1299 00be 9B88     	 ldrh r3,[r3,#4]
 1300 00c0 7A8A     	 ldrh r2,[r7,#18]
 1301 00c2 9A42     	 cmp r2,r3
 1302 00c4 0AD8     	 bhi .L79
 581:C:/Users/Yushev/git/wpcqi-optiga-trust-charge/optiga/optiga/comms/ifx_i2c\ifx_i2c_physical_layer.c ****                     {
 582:C:/Users/Yushev/git/wpcqi-optiga-trust-charge/optiga/optiga/comms/ifx_i2c\ifx_i2c_physical_layer.c ****                         p_ctx->pl.frame_state = PL_STATE_RXTX;
 1303              	 .loc 1 582 0 is_stmt 1
 1304 00c6 7B68     	 ldr r3,[r7,#4]
 1305 00c8 0422     	 movs r2,#4
 1306 00ca 83F89721 	 strb r2,[r3,#407]
 583:C:/Users/Yushev/git/wpcqi-optiga-trust-charge/optiga/optiga/comms/ifx_i2c\ifx_i2c_physical_layer.c ****                         ifx_i2c_pl_read_register(p_ctx,PL_REG_DATA, frame_size);
 1307              	 .loc 1 583 0
 1308 00ce 7B8A     	 ldrh r3,[r7,#18]
 1309 00d0 7868     	 ldr r0,[r7,#4]
 1310 00d2 8021     	 movs r1,#128
 1311 00d4 1A46     	 mov r2,r3
 1312 00d6 FFF7FEFF 	 bl ifx_i2c_pl_read_register
 1313 00da 2FE0     	 b .L80
 1314              	.L79:
 584:C:/Users/Yushev/git/wpcqi-optiga-trust-charge/optiga/optiga/comms/ifx_i2c\ifx_i2c_physical_layer.c ****                     }
 585:C:/Users/Yushev/git/wpcqi-optiga-trust-charge/optiga/optiga/comms/ifx_i2c\ifx_i2c_physical_layer.c ****                     else
 586:C:/Users/Yushev/git/wpcqi-optiga-trust-charge/optiga/optiga/comms/ifx_i2c\ifx_i2c_physical_layer.c ****                     {
 587:C:/Users/Yushev/git/wpcqi-optiga-trust-charge/optiga/optiga/comms/ifx_i2c\ifx_i2c_physical_layer.c ****                         current_time = pal_os_timer_get_time_in_milliseconds();
 1315              	 .loc 1 587 0
 1316 00dc FFF7FEFF 	 bl pal_os_timer_get_time_in_milliseconds
 1317 00e0 F860     	 str r0,[r7,#12]
 588:C:/Users/Yushev/git/wpcqi-optiga-trust-charge/optiga/optiga/comms/ifx_i2c\ifx_i2c_physical_layer.c ****                         time_stamp_diff = (current_time - p_ctx->dl.frame_start_time);
 1318              	 .loc 1 588 0
 1319 00e2 7B68     	 ldr r3,[r7,#4]
 1320 00e4 1B6F     	 ldr r3,[r3,#112]
 1321 00e6 FA68     	 ldr r2,[r7,#12]
 1322 00e8 D31A     	 subs r3,r2,r3
 1323 00ea 7B61     	 str r3,[r7,#20]
 589:C:/Users/Yushev/git/wpcqi-optiga-trust-charge/optiga/optiga/comms/ifx_i2c\ifx_i2c_physical_layer.c ****                         if (p_ctx->dl.frame_start_time > current_time)
 1324              	 .loc 1 589 0
 1325 00ec 7B68     	 ldr r3,[r7,#4]
 1326 00ee 1A6F     	 ldr r2,[r3,#112]
 1327 00f0 FB68     	 ldr r3,[r7,#12]
 1328 00f2 9A42     	 cmp r2,r3
 1329 00f4 04D9     	 bls .L81
 590:C:/Users/Yushev/git/wpcqi-optiga-trust-charge/optiga/optiga/comms/ifx_i2c\ifx_i2c_physical_layer.c ****                         {
 591:C:/Users/Yushev/git/wpcqi-optiga-trust-charge/optiga/optiga/comms/ifx_i2c\ifx_i2c_physical_layer.c ****                             time_stamp_diff = (0xFFFFFFFF + (current_time -
 592:C:/Users/Yushev/git/wpcqi-optiga-trust-charge/optiga/optiga/comms/ifx_i2c\ifx_i2c_physical_layer.c ****                                                p_ctx->dl.frame_start_time)) + 0x01;
 1330              	 .loc 1 592 0
 1331 00f6 7B68     	 ldr r3,[r7,#4]
 1332 00f8 1B6F     	 ldr r3,[r3,#112]
 591:C:/Users/Yushev/git/wpcqi-optiga-trust-charge/optiga/optiga/comms/ifx_i2c\ifx_i2c_physical_layer.c ****                                                p_ctx->dl.frame_start_time)) + 0x01;
 1333              	 .loc 1 591 0
 1334 00fa FA68     	 ldr r2,[r7,#12]
 1335 00fc D31A     	 subs r3,r2,r3
 1336 00fe 7B61     	 str r3,[r7,#20]
 1337              	.L81:
 593:C:/Users/Yushev/git/wpcqi-optiga-trust-charge/optiga/optiga/comms/ifx_i2c\ifx_i2c_physical_layer.c ****                         }
 594:C:/Users/Yushev/git/wpcqi-optiga-trust-charge/optiga/optiga/comms/ifx_i2c\ifx_i2c_physical_layer.c ****                         // Continue polling STATUS register if retry limit is not reached
 595:C:/Users/Yushev/git/wpcqi-optiga-trust-charge/optiga/optiga/comms/ifx_i2c\ifx_i2c_physical_layer.c ****                         if (time_stamp_diff < p_ctx->dl.data_poll_timeout)
 1338              	 .loc 1 595 0
 1339 0100 7B68     	 ldr r3,[r7,#4]
 1340 0102 1A6E     	 ldr r2,[r3,#96]
 1341 0104 7B69     	 ldr r3,[r7,#20]
 1342 0106 9A42     	 cmp r2,r3
 1343 0108 0AD9     	 bls .L82
 596:C:/Users/Yushev/git/wpcqi-optiga-trust-charge/optiga/optiga/comms/ifx_i2c\ifx_i2c_physical_layer.c ****                         {
 597:C:/Users/Yushev/git/wpcqi-optiga-trust-charge/optiga/optiga/comms/ifx_i2c\ifx_i2c_physical_layer.c ****                             pal_os_event_register_callback_oneshot(p_ctx->pal_os_event_ctx,
 1344              	 .loc 1 597 0
 1345 010a 7B68     	 ldr r3,[r7,#4]
 1346 010c D3F8D433 	 ldr r3,[r3,#980]
 1347 0110 1846     	 mov r0,r3
 1348 0112 3E49     	 ldr r1,.L87
 1349 0114 7A68     	 ldr r2,[r7,#4]
 1350 0116 41F28833 	 movw r3,#5000
 1351 011a FFF7FEFF 	 bl pal_os_event_register_callback_oneshot
 1352 011e 0DE0     	 b .L80
 1353              	.L82:
 598:C:/Users/Yushev/git/wpcqi-optiga-trust-charge/optiga/optiga/comms/ifx_i2c\ifx_i2c_physical_layer.c ****                                                                     ifx_i2c_pl_status_poll_callback
 599:C:/Users/Yushev/git/wpcqi-optiga-trust-charge/optiga/optiga/comms/ifx_i2c\ifx_i2c_physical_layer.c ****                                                                    (void * )p_ctx,
 600:C:/Users/Yushev/git/wpcqi-optiga-trust-charge/optiga/optiga/comms/ifx_i2c\ifx_i2c_physical_layer.c ****                                                                    PL_DATA_POLLING_INVERVAL_US);
 601:C:/Users/Yushev/git/wpcqi-optiga-trust-charge/optiga/optiga/comms/ifx_i2c\ifx_i2c_physical_layer.c ****                         }
 602:C:/Users/Yushev/git/wpcqi-optiga-trust-charge/optiga/optiga/comms/ifx_i2c\ifx_i2c_physical_layer.c ****                         else
 603:C:/Users/Yushev/git/wpcqi-optiga-trust-charge/optiga/optiga/comms/ifx_i2c\ifx_i2c_physical_layer.c ****                         {
 604:C:/Users/Yushev/git/wpcqi-optiga-trust-charge/optiga/optiga/comms/ifx_i2c\ifx_i2c_physical_layer.c ****                             p_ctx->pl.frame_state = PL_STATE_READY;
 1354              	 .loc 1 604 0
 1355 0120 7B68     	 ldr r3,[r7,#4]
 1356 0122 0222     	 movs r2,#2
 1357 0124 83F89721 	 strb r2,[r3,#407]
 605:C:/Users/Yushev/git/wpcqi-optiga-trust-charge/optiga/optiga/comms/ifx_i2c\ifx_i2c_physical_layer.c ****                             p_ctx->pl.upper_layer_event_handler(p_ctx, IFX_I2C_STACK_ERROR, 0, 0);
 1358              	 .loc 1 605 0
 1359 0128 7B68     	 ldr r3,[r7,#4]
 1360 012a D3F8A041 	 ldr r4,[r3,#416]
 1361 012e 7868     	 ldr r0,[r7,#4]
 1362 0130 4FF48171 	 mov r1,#258
 1363 0134 0022     	 movs r2,#0
 1364 0136 0023     	 movs r3,#0
 1365 0138 A047     	 blx r4
 580:C:/Users/Yushev/git/wpcqi-optiga-trust-charge/optiga/optiga/comms/ifx_i2c\ifx_i2c_physical_layer.c ****                     {
 1366              	 .loc 1 580 0
 1367 013a 44E0     	 b .L83
 1368              	.L80:
 1369 013c 43E0     	 b .L83
 1370              	.L78:
 606:C:/Users/Yushev/git/wpcqi-optiga-trust-charge/optiga/optiga/comms/ifx_i2c\ifx_i2c_physical_layer.c ****                         }
 607:C:/Users/Yushev/git/wpcqi-optiga-trust-charge/optiga/optiga/comms/ifx_i2c\ifx_i2c_physical_layer.c ****                     }
 608:C:/Users/Yushev/git/wpcqi-optiga-trust-charge/optiga/optiga/comms/ifx_i2c\ifx_i2c_physical_layer.c ****                 }
 609:C:/Users/Yushev/git/wpcqi-optiga-trust-charge/optiga/optiga/comms/ifx_i2c\ifx_i2c_physical_layer.c ****                 // Write frame is slave is not busy
 610:C:/Users/Yushev/git/wpcqi-optiga-trust-charge/optiga/optiga/comms/ifx_i2c\ifx_i2c_physical_layer.c ****                 else if (PL_ACTION_WRITE_FRAME == p_ctx->pl.frame_action)
 1371              	 .loc 1 610 0
 1372 013e 7B68     	 ldr r3,[r7,#4]
 1373 0140 93F89631 	 ldrb r3,[r3,#406]
 1374 0144 012B     	 cmp r3,#1
 1375 0146 0ED1     	 bne .L84
 611:C:/Users/Yushev/git/wpcqi-optiga-trust-charge/optiga/optiga/comms/ifx_i2c\ifx_i2c_physical_layer.c ****                 {
 612:C:/Users/Yushev/git/wpcqi-optiga-trust-charge/optiga/optiga/comms/ifx_i2c\ifx_i2c_physical_layer.c ****                     // Write frame if device is not busy, otherwise wait and poll STATUS again late
 613:C:/Users/Yushev/git/wpcqi-optiga-trust-charge/optiga/optiga/comms/ifx_i2c\ifx_i2c_physical_layer.c ****                     p_ctx->pl.frame_state = PL_STATE_RXTX;
 1376              	 .loc 1 613 0
 1377 0148 7B68     	 ldr r3,[r7,#4]
 1378 014a 0422     	 movs r2,#4
 1379 014c 83F89721 	 strb r2,[r3,#407]
 614:C:/Users/Yushev/git/wpcqi-optiga-trust-charge/optiga/optiga/comms/ifx_i2c\ifx_i2c_physical_layer.c ****                     ifx_i2c_pl_write_register(p_ctx,
 1380              	 .loc 1 614 0
 1381 0150 7B68     	 ldr r3,[r7,#4]
 1382 0152 B3F89C21 	 ldrh r2,[r3,#412]
 615:C:/Users/Yushev/git/wpcqi-optiga-trust-charge/optiga/optiga/comms/ifx_i2c\ifx_i2c_physical_layer.c ****                                               PL_REG_DATA,
 616:C:/Users/Yushev/git/wpcqi-optiga-trust-charge/optiga/optiga/comms/ifx_i2c\ifx_i2c_physical_layer.c ****                                               p_ctx->pl.tx_frame_len,
 617:C:/Users/Yushev/git/wpcqi-optiga-trust-charge/optiga/optiga/comms/ifx_i2c\ifx_i2c_physical_layer.c ****                                               (uint8_t * )p_ctx->pl.p_tx_frame);
 1383              	 .loc 1 617 0
 1384 0156 7B68     	 ldr r3,[r7,#4]
 1385 0158 D3F89831 	 ldr r3,[r3,#408]
 614:C:/Users/Yushev/git/wpcqi-optiga-trust-charge/optiga/optiga/comms/ifx_i2c\ifx_i2c_physical_layer.c ****                     ifx_i2c_pl_write_register(p_ctx,
 1386              	 .loc 1 614 0
 1387 015c 7868     	 ldr r0,[r7,#4]
 1388 015e 8021     	 movs r1,#128
 1389 0160 FFF7FEFF 	 bl ifx_i2c_pl_write_register
 1390 0164 2FE0     	 b .L83
 1391              	.L84:
 618:C:/Users/Yushev/git/wpcqi-optiga-trust-charge/optiga/optiga/comms/ifx_i2c\ifx_i2c_physical_layer.c ****                 }
 619:C:/Users/Yushev/git/wpcqi-optiga-trust-charge/optiga/optiga/comms/ifx_i2c\ifx_i2c_physical_layer.c ****                 // Continue checking the slave status register
 620:C:/Users/Yushev/git/wpcqi-optiga-trust-charge/optiga/optiga/comms/ifx_i2c\ifx_i2c_physical_layer.c ****                 else
 621:C:/Users/Yushev/git/wpcqi-optiga-trust-charge/optiga/optiga/comms/ifx_i2c\ifx_i2c_physical_layer.c ****                 {
 622:C:/Users/Yushev/git/wpcqi-optiga-trust-charge/optiga/optiga/comms/ifx_i2c\ifx_i2c_physical_layer.c ****                     current_time = pal_os_timer_get_time_in_milliseconds();
 1392              	 .loc 1 622 0
 1393 0166 FFF7FEFF 	 bl pal_os_timer_get_time_in_milliseconds
 1394 016a F860     	 str r0,[r7,#12]
 623:C:/Users/Yushev/git/wpcqi-optiga-trust-charge/optiga/optiga/comms/ifx_i2c\ifx_i2c_physical_layer.c ****                     time_stamp_diff = (current_time - p_ctx->dl.frame_start_time);
 1395              	 .loc 1 623 0
 1396 016c 7B68     	 ldr r3,[r7,#4]
 1397 016e 1B6F     	 ldr r3,[r3,#112]
 1398 0170 FA68     	 ldr r2,[r7,#12]
 1399 0172 D31A     	 subs r3,r2,r3
 1400 0174 7B61     	 str r3,[r7,#20]
 624:C:/Users/Yushev/git/wpcqi-optiga-trust-charge/optiga/optiga/comms/ifx_i2c\ifx_i2c_physical_layer.c ****                     if (p_ctx->dl.frame_start_time > current_time)
 1401              	 .loc 1 624 0
 1402 0176 7B68     	 ldr r3,[r7,#4]
 1403 0178 1A6F     	 ldr r2,[r3,#112]
 1404 017a FB68     	 ldr r3,[r7,#12]
 1405 017c 9A42     	 cmp r2,r3
 1406 017e 04D9     	 bls .L85
 625:C:/Users/Yushev/git/wpcqi-optiga-trust-charge/optiga/optiga/comms/ifx_i2c\ifx_i2c_physical_layer.c ****                     {
 626:C:/Users/Yushev/git/wpcqi-optiga-trust-charge/optiga/optiga/comms/ifx_i2c\ifx_i2c_physical_layer.c ****                         time_stamp_diff = (0xFFFFFFFF + (current_time -
 627:C:/Users/Yushev/git/wpcqi-optiga-trust-charge/optiga/optiga/comms/ifx_i2c\ifx_i2c_physical_layer.c ****                                            p_ctx->dl.frame_start_time)) + 0x01;
 1407              	 .loc 1 627 0
 1408 0180 7B68     	 ldr r3,[r7,#4]
 1409 0182 1B6F     	 ldr r3,[r3,#112]
 626:C:/Users/Yushev/git/wpcqi-optiga-trust-charge/optiga/optiga/comms/ifx_i2c\ifx_i2c_physical_layer.c ****                                            p_ctx->dl.frame_start_time)) + 0x01;
 1410              	 .loc 1 626 0
 1411 0184 FA68     	 ldr r2,[r7,#12]
 1412 0186 D31A     	 subs r3,r2,r3
 1413 0188 7B61     	 str r3,[r7,#20]
 1414              	.L85:
 628:C:/Users/Yushev/git/wpcqi-optiga-trust-charge/optiga/optiga/comms/ifx_i2c\ifx_i2c_physical_layer.c ****                     }
 629:C:/Users/Yushev/git/wpcqi-optiga-trust-charge/optiga/optiga/comms/ifx_i2c\ifx_i2c_physical_layer.c ****                     // Continue polling STATUS register if retry limit is not reached
 630:C:/Users/Yushev/git/wpcqi-optiga-trust-charge/optiga/optiga/comms/ifx_i2c\ifx_i2c_physical_layer.c ****                     if (time_stamp_diff < p_ctx->dl.data_poll_timeout)
 1415              	 .loc 1 630 0
 1416 018a 7B68     	 ldr r3,[r7,#4]
 1417 018c 1A6E     	 ldr r2,[r3,#96]
 1418 018e 7B69     	 ldr r3,[r7,#20]
 1419 0190 9A42     	 cmp r2,r3
 1420 0192 0AD9     	 bls .L86
 631:C:/Users/Yushev/git/wpcqi-optiga-trust-charge/optiga/optiga/comms/ifx_i2c\ifx_i2c_physical_layer.c ****                     {
 632:C:/Users/Yushev/git/wpcqi-optiga-trust-charge/optiga/optiga/comms/ifx_i2c\ifx_i2c_physical_layer.c ****                         pal_os_event_register_callback_oneshot(p_ctx->pal_os_event_ctx,
 1421              	 .loc 1 632 0
 1422 0194 7B68     	 ldr r3,[r7,#4]
 1423 0196 D3F8D433 	 ldr r3,[r3,#980]
 1424 019a 1846     	 mov r0,r3
 1425 019c 1B49     	 ldr r1,.L87
 1426 019e 7A68     	 ldr r2,[r7,#4]
 1427 01a0 41F28833 	 movw r3,#5000
 1428 01a4 FFF7FEFF 	 bl pal_os_event_register_callback_oneshot
 1429 01a8 0DE0     	 b .L83
 1430              	.L86:
 633:C:/Users/Yushev/git/wpcqi-optiga-trust-charge/optiga/optiga/comms/ifx_i2c\ifx_i2c_physical_layer.c ****                                                                ifx_i2c_pl_status_poll_callback,
 634:C:/Users/Yushev/git/wpcqi-optiga-trust-charge/optiga/optiga/comms/ifx_i2c\ifx_i2c_physical_layer.c ****                                                                (void * )p_ctx,
 635:C:/Users/Yushev/git/wpcqi-optiga-trust-charge/optiga/optiga/comms/ifx_i2c\ifx_i2c_physical_layer.c ****                                                                PL_DATA_POLLING_INVERVAL_US);
 636:C:/Users/Yushev/git/wpcqi-optiga-trust-charge/optiga/optiga/comms/ifx_i2c\ifx_i2c_physical_layer.c ****                     }
 637:C:/Users/Yushev/git/wpcqi-optiga-trust-charge/optiga/optiga/comms/ifx_i2c\ifx_i2c_physical_layer.c ****                     else
 638:C:/Users/Yushev/git/wpcqi-optiga-trust-charge/optiga/optiga/comms/ifx_i2c\ifx_i2c_physical_layer.c ****                     {
 639:C:/Users/Yushev/git/wpcqi-optiga-trust-charge/optiga/optiga/comms/ifx_i2c\ifx_i2c_physical_layer.c ****                         p_ctx->pl.frame_state = PL_STATE_READY;
 1431              	 .loc 1 639 0
 1432 01aa 7B68     	 ldr r3,[r7,#4]
 1433 01ac 0222     	 movs r2,#2
 1434 01ae 83F89721 	 strb r2,[r3,#407]
 640:C:/Users/Yushev/git/wpcqi-optiga-trust-charge/optiga/optiga/comms/ifx_i2c\ifx_i2c_physical_layer.c ****                         p_ctx->pl.upper_layer_event_handler(p_ctx, IFX_I2C_STACK_ERROR, 0, 0);
 1435              	 .loc 1 640 0
 1436 01b2 7B68     	 ldr r3,[r7,#4]
 1437 01b4 D3F8A041 	 ldr r4,[r3,#416]
 1438 01b8 7868     	 ldr r0,[r7,#4]
 1439 01ba 4FF48171 	 mov r1,#258
 1440 01be 0022     	 movs r2,#0
 1441 01c0 0023     	 movs r3,#0
 1442 01c2 A047     	 blx r4
 641:C:/Users/Yushev/git/wpcqi-optiga-trust-charge/optiga/optiga/comms/ifx_i2c\ifx_i2c_physical_layer.c ****                     }
 642:C:/Users/Yushev/git/wpcqi-optiga-trust-charge/optiga/optiga/comms/ifx_i2c\ifx_i2c_physical_layer.c ****                 }
 643:C:/Users/Yushev/git/wpcqi-optiga-trust-charge/optiga/optiga/comms/ifx_i2c\ifx_i2c_physical_layer.c ****             }
 644:C:/Users/Yushev/git/wpcqi-optiga-trust-charge/optiga/optiga/comms/ifx_i2c\ifx_i2c_physical_layer.c ****             break;
 1443              	 .loc 1 644 0
 1444 01c4 1FE0     	 b .L68
 1445              	.L83:
 1446              	 .loc 1 644 0 is_stmt 0 discriminator 1
 1447 01c6 1EE0     	 b .L68
 1448              	.L76:
 645:C:/Users/Yushev/git/wpcqi-optiga-trust-charge/optiga/optiga/comms/ifx_i2c\ifx_i2c_physical_layer.c ****             // Frame reading is complete
 646:C:/Users/Yushev/git/wpcqi-optiga-trust-charge/optiga/optiga/comms/ifx_i2c\ifx_i2c_physical_layer.c ****             case PL_STATE_RXTX:
 647:C:/Users/Yushev/git/wpcqi-optiga-trust-charge/optiga/optiga/comms/ifx_i2c\ifx_i2c_physical_layer.c ****             {
 648:C:/Users/Yushev/git/wpcqi-optiga-trust-charge/optiga/optiga/comms/ifx_i2c\ifx_i2c_physical_layer.c ****                 // Writing/reading of frame to/from DATA register complete
 649:C:/Users/Yushev/git/wpcqi-optiga-trust-charge/optiga/optiga/comms/ifx_i2c\ifx_i2c_physical_layer.c ****                 p_ctx->pl.frame_state = PL_STATE_READY;
 1449              	 .loc 1 649 0 is_stmt 1
 1450 01c8 7B68     	 ldr r3,[r7,#4]
 1451 01ca 0222     	 movs r2,#2
 1452 01cc 83F89721 	 strb r2,[r3,#407]
 650:C:/Users/Yushev/git/wpcqi-optiga-trust-charge/optiga/optiga/comms/ifx_i2c\ifx_i2c_physical_layer.c ****                 p_ctx->pl.upper_layer_event_handler(p_ctx,IFX_I2C_STACK_SUCCESS,
 1453              	 .loc 1 650 0
 1454 01d0 7B68     	 ldr r3,[r7,#4]
 1455 01d2 D3F8A041 	 ldr r4,[r3,#416]
 651:C:/Users/Yushev/git/wpcqi-optiga-trust-charge/optiga/optiga/comms/ifx_i2c\ifx_i2c_physical_layer.c ****                                                     p_ctx->pl.buffer,
 1456              	 .loc 1 651 0
 1457 01d6 7B68     	 ldr r3,[r7,#4]
 1458 01d8 03F17802 	 add r2,r3,#120
 650:C:/Users/Yushev/git/wpcqi-optiga-trust-charge/optiga/optiga/comms/ifx_i2c\ifx_i2c_physical_layer.c ****                 p_ctx->pl.upper_layer_event_handler(p_ctx,IFX_I2C_STACK_SUCCESS,
 1459              	 .loc 1 650 0
 1460 01dc 7B68     	 ldr r3,[r7,#4]
 1461 01de B3F89031 	 ldrh r3,[r3,#400]
 1462 01e2 7868     	 ldr r0,[r7,#4]
 1463 01e4 0021     	 movs r1,#0
 1464 01e6 A047     	 blx r4
 652:C:/Users/Yushev/git/wpcqi-optiga-trust-charge/optiga/optiga/comms/ifx_i2c\ifx_i2c_physical_layer.c ****                                                     p_ctx->pl.buffer_rx_len);
 653:C:/Users/Yushev/git/wpcqi-optiga-trust-charge/optiga/optiga/comms/ifx_i2c\ifx_i2c_physical_layer.c ****             }
 654:C:/Users/Yushev/git/wpcqi-optiga-trust-charge/optiga/optiga/comms/ifx_i2c\ifx_i2c_physical_layer.c ****             break;
 1465              	 .loc 1 654 0
 1466 01e8 0DE0     	 b .L68
 1467              	.L71:
 655:C:/Users/Yushev/git/wpcqi-optiga-trust-charge/optiga/optiga/comms/ifx_i2c\ifx_i2c_physical_layer.c ****             default:
 656:C:/Users/Yushev/git/wpcqi-optiga-trust-charge/optiga/optiga/comms/ifx_i2c\ifx_i2c_physical_layer.c ****             {
 657:C:/Users/Yushev/git/wpcqi-optiga-trust-charge/optiga/optiga/comms/ifx_i2c\ifx_i2c_physical_layer.c ****                 // Default condition occurred
 658:C:/Users/Yushev/git/wpcqi-optiga-trust-charge/optiga/optiga/comms/ifx_i2c\ifx_i2c_physical_layer.c ****                 p_ctx->pl.frame_state = PL_STATE_INIT;
 1468              	 .loc 1 658 0
 1469 01ea 7B68     	 ldr r3,[r7,#4]
 1470 01ec 0122     	 movs r2,#1
 1471 01ee 83F89721 	 strb r2,[r3,#407]
 659:C:/Users/Yushev/git/wpcqi-optiga-trust-charge/optiga/optiga/comms/ifx_i2c\ifx_i2c_physical_layer.c ****                 p_ctx->pl.upper_layer_event_handler(p_ctx, IFX_I2C_STACK_ERROR, 0, 0);
 1472              	 .loc 1 659 0
 1473 01f2 7B68     	 ldr r3,[r7,#4]
 1474 01f4 D3F8A041 	 ldr r4,[r3,#416]
 1475 01f8 7868     	 ldr r0,[r7,#4]
 1476 01fa 4FF48171 	 mov r1,#258
 1477 01fe 0022     	 movs r2,#0
 1478 0200 0023     	 movs r3,#0
 1479 0202 A047     	 blx r4
 660:C:/Users/Yushev/git/wpcqi-optiga-trust-charge/optiga/optiga/comms/ifx_i2c\ifx_i2c_physical_layer.c ****             }
 661:C:/Users/Yushev/git/wpcqi-optiga-trust-charge/optiga/optiga/comms/ifx_i2c\ifx_i2c_physical_layer.c ****             break;
 1480              	 .loc 1 661 0
 1481 0204 00BF     	 nop
 1482              	.L68:
 662:C:/Users/Yushev/git/wpcqi-optiga-trust-charge/optiga/optiga/comms/ifx_i2c\ifx_i2c_physical_layer.c ****         }
 663:C:/Users/Yushev/git/wpcqi-optiga-trust-charge/optiga/optiga/comms/ifx_i2c\ifx_i2c_physical_layer.c ****     }
 664:C:/Users/Yushev/git/wpcqi-optiga-trust-charge/optiga/optiga/comms/ifx_i2c\ifx_i2c_physical_layer.c **** }
 1483              	 .loc 1 664 0
 1484 0206 1C37     	 adds r7,r7,#28
 1485              	.LCFI48:
 1486              	 .cfi_def_cfa_offset 12
 1487 0208 BD46     	 mov sp,r7
 1488              	.LCFI49:
 1489              	 .cfi_def_cfa_register 13
 1490              	 
 1491 020a 90BD     	 pop {r4,r7,pc}
 1492              	.L88:
 1493              	 .align 2
 1494              	.L87:
 1495 020c 00000000 	 .word ifx_i2c_pl_status_poll_callback
 1496              	 .cfi_endproc
 1497              	.LFE9:
 1499              	 .section .text.ifx_i2c_pal_poll_callback,"ax",%progbits
 1500              	 .align 2
 1501              	 .thumb
 1502              	 .thumb_func
 1504              	ifx_i2c_pal_poll_callback:
 1505              	.LFB10:
 665:C:/Users/Yushev/git/wpcqi-optiga-trust-charge/optiga/optiga/comms/ifx_i2c\ifx_i2c_physical_layer.c **** 
 666:C:/Users/Yushev/git/wpcqi-optiga-trust-charge/optiga/optiga/comms/ifx_i2c\ifx_i2c_physical_layer.c **** _STATIC_H void ifx_i2c_pal_poll_callback(void * p_ctx)
 667:C:/Users/Yushev/git/wpcqi-optiga-trust-charge/optiga/optiga/comms/ifx_i2c\ifx_i2c_physical_layer.c **** {
 1506              	 .loc 1 667 0
 1507              	 .cfi_startproc
 1508              	 
 1509              	 
 1510 0000 80B5     	 push {r7,lr}
 1511              	.LCFI50:
 1512              	 .cfi_def_cfa_offset 8
 1513              	 .cfi_offset 7,-8
 1514              	 .cfi_offset 14,-4
 1515 0002 84B0     	 sub sp,sp,#16
 1516              	.LCFI51:
 1517              	 .cfi_def_cfa_offset 24
 1518 0004 00AF     	 add r7,sp,#0
 1519              	.LCFI52:
 1520              	 .cfi_def_cfa_register 7
 1521 0006 7860     	 str r0,[r7,#4]
 668:C:/Users/Yushev/git/wpcqi-optiga-trust-charge/optiga/optiga/comms/ifx_i2c\ifx_i2c_physical_layer.c ****     ifx_i2c_context_t * p_local_ctx = (ifx_i2c_context_t * )p_ctx;
 1522              	 .loc 1 668 0
 1523 0008 7B68     	 ldr r3,[r7,#4]
 1524 000a FB60     	 str r3,[r7,#12]
 669:C:/Users/Yushev/git/wpcqi-optiga-trust-charge/optiga/optiga/comms/ifx_i2c\ifx_i2c_physical_layer.c ****     if (PL_I2C_CMD_WRITE == p_local_ctx->pl.i2c_cmd)
 1525              	 .loc 1 669 0
 1526 000c FB68     	 ldr r3,[r7,#12]
 1527 000e 93F89331 	 ldrb r3,[r3,#403]
 1528 0012 012B     	 cmp r3,#1
 1529 0014 0DD1     	 bne .L90
 670:C:/Users/Yushev/git/wpcqi-optiga-trust-charge/optiga/optiga/comms/ifx_i2c\ifx_i2c_physical_layer.c ****     {
 671:C:/Users/Yushev/git/wpcqi-optiga-trust-charge/optiga/optiga/comms/ifx_i2c\ifx_i2c_physical_layer.c ****         LOG_PL("[IFX-PL]: Poll Timer elapsed -> Restart TX\n");
 672:C:/Users/Yushev/git/wpcqi-optiga-trust-charge/optiga/optiga/comms/ifx_i2c\ifx_i2c_physical_layer.c ****         //lint --e{534} suppress "This is the last statement of asynchronous function hence return 
 673:C:/Users/Yushev/git/wpcqi-optiga-trust-charge/optiga/optiga/comms/ifx_i2c\ifx_i2c_physical_layer.c ****         pal_i2c_write(p_local_ctx->p_pal_i2c_ctx, p_local_ctx->pl.buffer, p_local_ctx->pl.buffer_tx
 1530              	 .loc 1 673 0
 1531 0016 FB68     	 ldr r3,[r7,#12]
 1532 0018 1969     	 ldr r1,[r3,#16]
 1533 001a FB68     	 ldr r3,[r7,#12]
 1534 001c 03F17802 	 add r2,r3,#120
 1535 0020 FB68     	 ldr r3,[r7,#12]
 1536 0022 B3F88E31 	 ldrh r3,[r3,#398]
 1537 0026 0846     	 mov r0,r1
 1538 0028 1146     	 mov r1,r2
 1539 002a 1A46     	 mov r2,r3
 1540 002c FFF7FEFF 	 bl pal_i2c_write
 1541 0030 11E0     	 b .L89
 1542              	.L90:
 674:C:/Users/Yushev/git/wpcqi-optiga-trust-charge/optiga/optiga/comms/ifx_i2c\ifx_i2c_physical_layer.c ****     }
 675:C:/Users/Yushev/git/wpcqi-optiga-trust-charge/optiga/optiga/comms/ifx_i2c\ifx_i2c_physical_layer.c ****     else if (PL_I2C_CMD_READ == p_local_ctx->pl.i2c_cmd)
 1543              	 .loc 1 675 0
 1544 0032 FB68     	 ldr r3,[r7,#12]
 1545 0034 93F89331 	 ldrb r3,[r3,#403]
 1546 0038 022B     	 cmp r3,#2
 1547 003a 0CD1     	 bne .L89
 676:C:/Users/Yushev/git/wpcqi-optiga-trust-charge/optiga/optiga/comms/ifx_i2c\ifx_i2c_physical_layer.c ****     {
 677:C:/Users/Yushev/git/wpcqi-optiga-trust-charge/optiga/optiga/comms/ifx_i2c\ifx_i2c_physical_layer.c ****         LOG_PL("[IFX-PL]: Poll Timer elapsed  -> Restart Read Register -> Start TX\n");
 678:C:/Users/Yushev/git/wpcqi-optiga-trust-charge/optiga/optiga/comms/ifx_i2c\ifx_i2c_physical_layer.c ****         //lint --e{534} suppress "This is the last statement of asynchronous function hence return 
 679:C:/Users/Yushev/git/wpcqi-optiga-trust-charge/optiga/optiga/comms/ifx_i2c\ifx_i2c_physical_layer.c ****         pal_i2c_read(p_local_ctx->p_pal_i2c_ctx, p_local_ctx->pl.buffer, p_local_ctx->pl.buffer_rx_
 1548              	 .loc 1 679 0
 1549 003c FB68     	 ldr r3,[r7,#12]
 1550 003e 1969     	 ldr r1,[r3,#16]
 1551 0040 FB68     	 ldr r3,[r7,#12]
 1552 0042 03F17802 	 add r2,r3,#120
 1553 0046 FB68     	 ldr r3,[r7,#12]
 1554 0048 B3F89031 	 ldrh r3,[r3,#400]
 1555 004c 0846     	 mov r0,r1
 1556 004e 1146     	 mov r1,r2
 1557 0050 1A46     	 mov r2,r3
 1558 0052 FFF7FEFF 	 bl pal_i2c_read
 1559              	.L89:
 680:C:/Users/Yushev/git/wpcqi-optiga-trust-charge/optiga/optiga/comms/ifx_i2c\ifx_i2c_physical_layer.c ****     }
 681:C:/Users/Yushev/git/wpcqi-optiga-trust-charge/optiga/optiga/comms/ifx_i2c\ifx_i2c_physical_layer.c **** }
 1560              	 .loc 1 681 0
 1561 0056 1037     	 adds r7,r7,#16
 1562              	.LCFI53:
 1563              	 .cfi_def_cfa_offset 8
 1564 0058 BD46     	 mov sp,r7
 1565              	.LCFI54:
 1566              	 .cfi_def_cfa_register 13
 1567              	 
 1568 005a 80BD     	 pop {r7,pc}
 1569              	 .cfi_endproc
 1570              	.LFE10:
 1572              	 .section .text.ifx_i2c_pl_guard_time_callback,"ax",%progbits
 1573              	 .align 2
 1574              	 .thumb
 1575              	 .thumb_func
 1577              	ifx_i2c_pl_guard_time_callback:
 1578              	.LFB11:
 682:C:/Users/Yushev/git/wpcqi-optiga-trust-charge/optiga/optiga/comms/ifx_i2c\ifx_i2c_physical_layer.c **** 
 683:C:/Users/Yushev/git/wpcqi-optiga-trust-charge/optiga/optiga/comms/ifx_i2c\ifx_i2c_physical_layer.c **** 
 684:C:/Users/Yushev/git/wpcqi-optiga-trust-charge/optiga/optiga/comms/ifx_i2c\ifx_i2c_physical_layer.c **** _STATIC_H void ifx_i2c_pl_guard_time_callback(void * p_ctx)
 685:C:/Users/Yushev/git/wpcqi-optiga-trust-charge/optiga/optiga/comms/ifx_i2c\ifx_i2c_physical_layer.c **** {
 1579              	 .loc 1 685 0
 1580              	 .cfi_startproc
 1581              	 
 1582              	 
 1583 0000 80B5     	 push {r7,lr}
 1584              	.LCFI55:
 1585              	 .cfi_def_cfa_offset 8
 1586              	 .cfi_offset 7,-8
 1587              	 .cfi_offset 14,-4
 1588 0002 84B0     	 sub sp,sp,#16
 1589              	.LCFI56:
 1590              	 .cfi_def_cfa_offset 24
 1591 0004 00AF     	 add r7,sp,#0
 1592              	.LCFI57:
 1593              	 .cfi_def_cfa_register 7
 1594 0006 7860     	 str r0,[r7,#4]
 686:C:/Users/Yushev/git/wpcqi-optiga-trust-charge/optiga/optiga/comms/ifx_i2c\ifx_i2c_physical_layer.c ****     ifx_i2c_context_t * p_local_ctx = (ifx_i2c_context_t * )p_ctx;
 1595              	 .loc 1 686 0
 1596 0008 7B68     	 ldr r3,[r7,#4]
 1597 000a FB60     	 str r3,[r7,#12]
 687:C:/Users/Yushev/git/wpcqi-optiga-trust-charge/optiga/optiga/comms/ifx_i2c\ifx_i2c_physical_layer.c ****     if (PL_ACTION_READ_REGISTER == p_local_ctx->pl.register_action)
 1598              	 .loc 1 687 0
 1599 000c FB68     	 ldr r3,[r7,#12]
 1600 000e 93F89231 	 ldrb r3,[r3,#402]
 1601 0012 012B     	 cmp r3,#1
 1602 0014 20D1     	 bne .L93
 688:C:/Users/Yushev/git/wpcqi-optiga-trust-charge/optiga/optiga/comms/ifx_i2c\ifx_i2c_physical_layer.c ****     {
 689:C:/Users/Yushev/git/wpcqi-optiga-trust-charge/optiga/optiga/comms/ifx_i2c\ifx_i2c_physical_layer.c ****         if (PL_I2C_CMD_WRITE == p_local_ctx->pl.i2c_cmd)
 1603              	 .loc 1 689 0
 1604 0016 FB68     	 ldr r3,[r7,#12]
 1605 0018 93F89331 	 ldrb r3,[r3,#403]
 1606 001c 012B     	 cmp r3,#1
 1607 001e 11D1     	 bne .L94
 690:C:/Users/Yushev/git/wpcqi-optiga-trust-charge/optiga/optiga/comms/ifx_i2c\ifx_i2c_physical_layer.c ****         {
 691:C:/Users/Yushev/git/wpcqi-optiga-trust-charge/optiga/optiga/comms/ifx_i2c\ifx_i2c_physical_layer.c ****             LOG_PL("[IFX-PL]: GT done-> Start RX\n");
 692:C:/Users/Yushev/git/wpcqi-optiga-trust-charge/optiga/optiga/comms/ifx_i2c\ifx_i2c_physical_layer.c ****             p_local_ctx->pl.i2c_cmd = PL_I2C_CMD_READ;
 1608              	 .loc 1 692 0
 1609 0020 FB68     	 ldr r3,[r7,#12]
 1610 0022 0222     	 movs r2,#2
 1611 0024 83F89321 	 strb r2,[r3,#403]
 693:C:/Users/Yushev/git/wpcqi-optiga-trust-charge/optiga/optiga/comms/ifx_i2c\ifx_i2c_physical_layer.c ****             //lint --e{534} suppress "This is the last statement of asynchronous function hence ret
 694:C:/Users/Yushev/git/wpcqi-optiga-trust-charge/optiga/optiga/comms/ifx_i2c\ifx_i2c_physical_layer.c ****             pal_i2c_read(p_local_ctx->p_pal_i2c_ctx, p_local_ctx->pl.buffer, p_local_ctx->pl.buffer
 1612              	 .loc 1 694 0
 1613 0028 FB68     	 ldr r3,[r7,#12]
 1614 002a 1969     	 ldr r1,[r3,#16]
 1615 002c FB68     	 ldr r3,[r7,#12]
 1616 002e 03F17802 	 add r2,r3,#120
 1617 0032 FB68     	 ldr r3,[r7,#12]
 1618 0034 B3F89031 	 ldrh r3,[r3,#400]
 1619 0038 0846     	 mov r0,r1
 1620 003a 1146     	 mov r1,r2
 1621 003c 1A46     	 mov r2,r3
 1622 003e FFF7FEFF 	 bl pal_i2c_read
 1623 0042 12E0     	 b .L92
 1624              	.L94:
 695:C:/Users/Yushev/git/wpcqi-optiga-trust-charge/optiga/optiga/comms/ifx_i2c\ifx_i2c_physical_layer.c ****         }
 696:C:/Users/Yushev/git/wpcqi-optiga-trust-charge/optiga/optiga/comms/ifx_i2c\ifx_i2c_physical_layer.c ****         else if (PL_I2C_CMD_READ == p_local_ctx->pl.i2c_cmd)
 1625              	 .loc 1 696 0
 1626 0044 FB68     	 ldr r3,[r7,#12]
 1627 0046 93F89331 	 ldrb r3,[r3,#403]
 1628 004a 022B     	 cmp r3,#2
 1629 004c 0DD1     	 bne .L92
 697:C:/Users/Yushev/git/wpcqi-optiga-trust-charge/optiga/optiga/comms/ifx_i2c\ifx_i2c_physical_layer.c ****         {
 698:C:/Users/Yushev/git/wpcqi-optiga-trust-charge/optiga/optiga/comms/ifx_i2c\ifx_i2c_physical_layer.c ****             LOG_PL("[IFX-PL]: GT done -> REG is read\n");
 699:C:/Users/Yushev/git/wpcqi-optiga-trust-charge/optiga/optiga/comms/ifx_i2c\ifx_i2c_physical_layer.c ****             ifx_i2c_pl_frame_event_handler(p_local_ctx,IFX_I2C_STACK_SUCCESS);
 1630              	 .loc 1 699 0
 1631 004e F868     	 ldr r0,[r7,#12]
 1632 0050 0021     	 movs r1,#0
 1633 0052 FFF7FEFF 	 bl ifx_i2c_pl_frame_event_handler
 1634 0056 08E0     	 b .L92
 1635              	.L93:
 700:C:/Users/Yushev/git/wpcqi-optiga-trust-charge/optiga/optiga/comms/ifx_i2c\ifx_i2c_physical_layer.c ****         }
 701:C:/Users/Yushev/git/wpcqi-optiga-trust-charge/optiga/optiga/comms/ifx_i2c\ifx_i2c_physical_layer.c ****     }
 702:C:/Users/Yushev/git/wpcqi-optiga-trust-charge/optiga/optiga/comms/ifx_i2c\ifx_i2c_physical_layer.c ****     else if (PL_ACTION_WRITE_REGISTER == p_local_ctx->pl.register_action)
 1636              	 .loc 1 702 0
 1637 0058 FB68     	 ldr r3,[r7,#12]
 1638 005a 93F89231 	 ldrb r3,[r3,#402]
 1639 005e 022B     	 cmp r3,#2
 1640 0060 03D1     	 bne .L92
 703:C:/Users/Yushev/git/wpcqi-optiga-trust-charge/optiga/optiga/comms/ifx_i2c\ifx_i2c_physical_layer.c ****     {
 704:C:/Users/Yushev/git/wpcqi-optiga-trust-charge/optiga/optiga/comms/ifx_i2c\ifx_i2c_physical_layer.c ****         LOG_PL("[IFX-PL]: GT done -> REG written\n");
 705:C:/Users/Yushev/git/wpcqi-optiga-trust-charge/optiga/optiga/comms/ifx_i2c\ifx_i2c_physical_layer.c ****         ifx_i2c_pl_frame_event_handler(p_local_ctx,IFX_I2C_STACK_SUCCESS);
 1641              	 .loc 1 705 0
 1642 0062 F868     	 ldr r0,[r7,#12]
 1643 0064 0021     	 movs r1,#0
 1644 0066 FFF7FEFF 	 bl ifx_i2c_pl_frame_event_handler
 1645              	.L92:
 706:C:/Users/Yushev/git/wpcqi-optiga-trust-charge/optiga/optiga/comms/ifx_i2c\ifx_i2c_physical_layer.c ****     }
 707:C:/Users/Yushev/git/wpcqi-optiga-trust-charge/optiga/optiga/comms/ifx_i2c\ifx_i2c_physical_layer.c **** }
 1646              	 .loc 1 707 0
 1647 006a 1037     	 adds r7,r7,#16
 1648              	.LCFI58:
 1649              	 .cfi_def_cfa_offset 8
 1650 006c BD46     	 mov sp,r7
 1651              	.LCFI59:
 1652              	 .cfi_def_cfa_register 13
 1653              	 
 1654 006e 80BD     	 pop {r7,pc}
 1655              	 .cfi_endproc
 1656              	.LFE11:
 1658              	 .section .text.ifx_i2c_pl_pal_event_handler,"ax",%progbits
 1659              	 .align 2
 1660              	 .thumb
 1661              	 .thumb_func
 1663              	ifx_i2c_pl_pal_event_handler:
 1664              	.LFB12:
 708:C:/Users/Yushev/git/wpcqi-optiga-trust-charge/optiga/optiga/comms/ifx_i2c\ifx_i2c_physical_layer.c **** 
 709:C:/Users/Yushev/git/wpcqi-optiga-trust-charge/optiga/optiga/comms/ifx_i2c\ifx_i2c_physical_layer.c **** _STATIC_H void ifx_i2c_pl_pal_event_handler(void * p_ctx, optiga_lib_status_t event)
 710:C:/Users/Yushev/git/wpcqi-optiga-trust-charge/optiga/optiga/comms/ifx_i2c\ifx_i2c_physical_layer.c **** {
 1665              	 .loc 1 710 0
 1666              	 .cfi_startproc
 1667              	 
 1668              	 
 1669 0000 80B5     	 push {r7,lr}
 1670              	.LCFI60:
 1671              	 .cfi_def_cfa_offset 8
 1672              	 .cfi_offset 7,-8
 1673              	 .cfi_offset 14,-4
 1674 0002 84B0     	 sub sp,sp,#16
 1675              	.LCFI61:
 1676              	 .cfi_def_cfa_offset 24
 1677 0004 00AF     	 add r7,sp,#0
 1678              	.LCFI62:
 1679              	 .cfi_def_cfa_register 7
 1680 0006 7860     	 str r0,[r7,#4]
 1681 0008 0B46     	 mov r3,r1
 1682 000a 7B80     	 strh r3,[r7,#2]
 711:C:/Users/Yushev/git/wpcqi-optiga-trust-charge/optiga/optiga/comms/ifx_i2c\ifx_i2c_physical_layer.c ****     ifx_i2c_context_t * p_local_ctx = (ifx_i2c_context_t * )p_ctx;
 1683              	 .loc 1 711 0
 1684 000c 7B68     	 ldr r3,[r7,#4]
 1685 000e FB60     	 str r3,[r7,#12]
 712:C:/Users/Yushev/git/wpcqi-optiga-trust-charge/optiga/optiga/comms/ifx_i2c\ifx_i2c_physical_layer.c ****     switch (event)
 1686              	 .loc 1 712 0
 1687 0010 7B88     	 ldrh r3,[r7,#2]
 1688 0012 002B     	 cmp r3,#0
 1689 0014 1ED0     	 beq .L99
 1690 0016 002B     	 cmp r3,#0
 1691 0018 26DB     	 blt .L104
 1692 001a 022B     	 cmp r3,#2
 1693 001c 24DC     	 bgt .L104
 713:C:/Users/Yushev/git/wpcqi-optiga-trust-charge/optiga/optiga/comms/ifx_i2c\ifx_i2c_physical_layer.c ****     {
 714:C:/Users/Yushev/git/wpcqi-optiga-trust-charge/optiga/optiga/comms/ifx_i2c\ifx_i2c_physical_layer.c ****         case PAL_I2C_EVENT_ERROR:
 715:C:/Users/Yushev/git/wpcqi-optiga-trust-charge/optiga/optiga/comms/ifx_i2c\ifx_i2c_physical_layer.c ****         case PAL_I2C_EVENT_BUSY:
 716:C:/Users/Yushev/git/wpcqi-optiga-trust-charge/optiga/optiga/comms/ifx_i2c\ifx_i2c_physical_layer.c ****             // Error event usually occurs when the device is in sleep mode and needs time to wake u
 717:C:/Users/Yushev/git/wpcqi-optiga-trust-charge/optiga/optiga/comms/ifx_i2c\ifx_i2c_physical_layer.c ****             if (p_local_ctx->pl.retry_counter--)
 1694              	 .loc 1 717 0
 1695 001e FB68     	 ldr r3,[r7,#12]
 1696 0020 B3F89431 	 ldrh r3,[r3,#404]
 1697 0024 5A1E     	 subs r2,r3,#1
 1698 0026 91B2     	 uxth r1,r2
 1699 0028 FA68     	 ldr r2,[r7,#12]
 1700 002a A2F89411 	 strh r1,[r2,#404]
 1701 002e 002B     	 cmp r3,#0
 1702 0030 0AD0     	 beq .L101
 718:C:/Users/Yushev/git/wpcqi-optiga-trust-charge/optiga/optiga/comms/ifx_i2c\ifx_i2c_physical_layer.c ****             {
 719:C:/Users/Yushev/git/wpcqi-optiga-trust-charge/optiga/optiga/comms/ifx_i2c\ifx_i2c_physical_layer.c ****                 LOG_PL("[IFX-PL]: PAL Error -> Continue polling\n");
 720:C:/Users/Yushev/git/wpcqi-optiga-trust-charge/optiga/optiga/comms/ifx_i2c\ifx_i2c_physical_layer.c ****                 pal_os_event_register_callback_oneshot(p_local_ctx->pal_os_event_ctx,
 1703              	 .loc 1 720 0
 1704 0032 FB68     	 ldr r3,[r7,#12]
 1705 0034 D3F8D433 	 ldr r3,[r3,#980]
 1706 0038 1846     	 mov r0,r3
 1707 003a 0D49     	 ldr r1,.L105
 1708 003c FA68     	 ldr r2,[r7,#12]
 1709 003e 4FF47A73 	 mov r3,#1000
 1710 0042 FFF7FEFF 	 bl pal_os_event_register_callback_oneshot
 721:C:/Users/Yushev/git/wpcqi-optiga-trust-charge/optiga/optiga/comms/ifx_i2c\ifx_i2c_physical_layer.c ****                                                         ifx_i2c_pal_poll_callback, p_local_ctx, PL_
 722:C:/Users/Yushev/git/wpcqi-optiga-trust-charge/optiga/optiga/comms/ifx_i2c\ifx_i2c_physical_layer.c ****             }
 723:C:/Users/Yushev/git/wpcqi-optiga-trust-charge/optiga/optiga/comms/ifx_i2c\ifx_i2c_physical_layer.c ****             else
 724:C:/Users/Yushev/git/wpcqi-optiga-trust-charge/optiga/optiga/comms/ifx_i2c\ifx_i2c_physical_layer.c ****             {
 725:C:/Users/Yushev/git/wpcqi-optiga-trust-charge/optiga/optiga/comms/ifx_i2c\ifx_i2c_physical_layer.c ****                 LOG_PL("[IFX-PL]: PAL Error -> Stop\n");
 726:C:/Users/Yushev/git/wpcqi-optiga-trust-charge/optiga/optiga/comms/ifx_i2c\ifx_i2c_physical_layer.c ****                 ifx_i2c_pl_frame_event_handler(p_local_ctx, IFX_I2C_FATAL_ERROR);
 727:C:/Users/Yushev/git/wpcqi-optiga-trust-charge/optiga/optiga/comms/ifx_i2c\ifx_i2c_physical_layer.c ****             }
 728:C:/Users/Yushev/git/wpcqi-optiga-trust-charge/optiga/optiga/comms/ifx_i2c\ifx_i2c_physical_layer.c ****             break;
 1711              	 .loc 1 728 0
 1712 0046 10E0     	 b .L97
 1713              	.L101:
 726:C:/Users/Yushev/git/wpcqi-optiga-trust-charge/optiga/optiga/comms/ifx_i2c\ifx_i2c_physical_layer.c ****             }
 1714              	 .loc 1 726 0
 1715 0048 F868     	 ldr r0,[r7,#12]
 1716 004a 4FF48371 	 mov r1,#262
 1717 004e FFF7FEFF 	 bl ifx_i2c_pl_frame_event_handler
 1718              	 .loc 1 728 0
 1719 0052 0AE0     	 b .L97
 1720              	.L99:
 729:C:/Users/Yushev/git/wpcqi-optiga-trust-charge/optiga/optiga/comms/ifx_i2c\ifx_i2c_physical_layer.c **** 
 730:C:/Users/Yushev/git/wpcqi-optiga-trust-charge/optiga/optiga/comms/ifx_i2c\ifx_i2c_physical_layer.c ****         case PAL_I2C_EVENT_SUCCESS:
 731:C:/Users/Yushev/git/wpcqi-optiga-trust-charge/optiga/optiga/comms/ifx_i2c\ifx_i2c_physical_layer.c ****             LOG_PL("[IFX-PL]: PAL Success -> Wait Guard Time\n");
 732:C:/Users/Yushev/git/wpcqi-optiga-trust-charge/optiga/optiga/comms/ifx_i2c\ifx_i2c_physical_layer.c ****             pal_os_event_register_callback_oneshot(p_local_ctx->pal_os_event_ctx, ifx_i2c_pl_guard_
 1721              	 .loc 1 732 0
 1722 0054 FB68     	 ldr r3,[r7,#12]
 1723 0056 D3F8D433 	 ldr r3,[r3,#980]
 1724 005a 1846     	 mov r0,r3
 1725 005c 0549     	 ldr r1,.L105+4
 1726 005e FA68     	 ldr r2,[r7,#12]
 1727 0060 3223     	 movs r3,#50
 1728 0062 FFF7FEFF 	 bl pal_os_event_register_callback_oneshot
 733:C:/Users/Yushev/git/wpcqi-optiga-trust-charge/optiga/optiga/comms/ifx_i2c\ifx_i2c_physical_layer.c ****                                                     p_local_ctx,PL_GUARD_TIME_INTERVAL_US);
 734:C:/Users/Yushev/git/wpcqi-optiga-trust-charge/optiga/optiga/comms/ifx_i2c\ifx_i2c_physical_layer.c ****             break;
 1729              	 .loc 1 734 0
 1730 0066 00E0     	 b .L97
 1731              	.L104:
 735:C:/Users/Yushev/git/wpcqi-optiga-trust-charge/optiga/optiga/comms/ifx_i2c\ifx_i2c_physical_layer.c ****         default:
 736:C:/Users/Yushev/git/wpcqi-optiga-trust-charge/optiga/optiga/comms/ifx_i2c\ifx_i2c_physical_layer.c ****             break;
 1732              	 .loc 1 736 0
 1733 0068 00BF     	 nop
 1734              	.L97:
 737:C:/Users/Yushev/git/wpcqi-optiga-trust-charge/optiga/optiga/comms/ifx_i2c\ifx_i2c_physical_layer.c ****     }
 738:C:/Users/Yushev/git/wpcqi-optiga-trust-charge/optiga/optiga/comms/ifx_i2c\ifx_i2c_physical_layer.c **** }
 1735              	 .loc 1 738 0
 1736 006a 1037     	 adds r7,r7,#16
 1737              	.LCFI63:
 1738              	 .cfi_def_cfa_offset 8
 1739 006c BD46     	 mov sp,r7
 1740              	.LCFI64:
 1741              	 .cfi_def_cfa_register 13
 1742              	 
 1743 006e 80BD     	 pop {r7,pc}
 1744              	.L106:
 1745              	 .align 2
 1746              	.L105:
 1747 0070 00000000 	 .word ifx_i2c_pal_poll_callback
 1748 0074 00000000 	 .word ifx_i2c_pl_guard_time_callback
 1749              	 .cfi_endproc
 1750              	.LFE12:
 1752              	 .section .text.ifx_i2c_pl_soft_reset,"ax",%progbits
 1753              	 .align 2
 1754              	 .thumb
 1755              	 .thumb_func
 1757              	ifx_i2c_pl_soft_reset:
 1758              	.LFB13:
 739:C:/Users/Yushev/git/wpcqi-optiga-trust-charge/optiga/optiga/comms/ifx_i2c\ifx_i2c_physical_layer.c **** 
 740:C:/Users/Yushev/git/wpcqi-optiga-trust-charge/optiga/optiga/comms/ifx_i2c\ifx_i2c_physical_layer.c **** 
 741:C:/Users/Yushev/git/wpcqi-optiga-trust-charge/optiga/optiga/comms/ifx_i2c\ifx_i2c_physical_layer.c **** _STATIC_H void ifx_i2c_pl_soft_reset(ifx_i2c_context_t * p_ctx)
 742:C:/Users/Yushev/git/wpcqi-optiga-trust-charge/optiga/optiga/comms/ifx_i2c\ifx_i2c_physical_layer.c **** {
 1759              	 .loc 1 742 0
 1760              	 .cfi_startproc
 1761              	 
 1762              	 
 1763 0000 80B5     	 push {r7,lr}
 1764              	.LCFI65:
 1765              	 .cfi_def_cfa_offset 8
 1766              	 .cfi_offset 7,-8
 1767              	 .cfi_offset 14,-4
 1768 0002 84B0     	 sub sp,sp,#16
 1769              	.LCFI66:
 1770              	 .cfi_def_cfa_offset 24
 1771 0004 00AF     	 add r7,sp,#0
 1772              	.LCFI67:
 1773              	 .cfi_def_cfa_register 7
 1774 0006 7860     	 str r0,[r7,#4]
 743:C:/Users/Yushev/git/wpcqi-optiga-trust-charge/optiga/optiga/comms/ifx_i2c\ifx_i2c_physical_layer.c ****     uint8_t i2c_mode_value[2] = {0};
 1775              	 .loc 1 743 0
 1776 0008 0023     	 movs r3,#0
 1777 000a BB81     	 strh r3,[r7,#12]
 744:C:/Users/Yushev/git/wpcqi-optiga-trust-charge/optiga/optiga/comms/ifx_i2c\ifx_i2c_physical_layer.c ****     switch (p_ctx->pl.request_soft_reset)
 1778              	 .loc 1 744 0
 1779 000c 7B68     	 ldr r3,[r7,#4]
 1780 000e 93F8A531 	 ldrb r3,[r3,#421]
 1781 0012 993B     	 subs r3,r3,#153
 1782 0014 0A2B     	 cmp r3,#10
 1783 0016 5FD8     	 bhi .L117
 1784 0018 01A2     	 adr r2,.L110
 1785 001a 52F823F0 	 ldr pc,[r2,r3,lsl#2]
 1786 001e 00BF     	 .p2align 2
 1787              	.L110:
 1788 0020 4D000000 	 .word .L109+1
 1789 0024 D9000000 	 .word .L117+1
 1790 0028 D9000000 	 .word .L117+1
 1791 002c D9000000 	 .word .L117+1
 1792 0030 D9000000 	 .word .L117+1
 1793 0034 D9000000 	 .word .L117+1
 1794 0038 D9000000 	 .word .L117+1
 1795 003c D9000000 	 .word .L117+1
 1796 0040 C7000000 	 .word .L111+1
 1797 0044 61000000 	 .word .L112+1
 1798 0048 A9000000 	 .word .L113+1
 1799              	 .p2align 1
 1800              	.L109:
 745:C:/Users/Yushev/git/wpcqi-optiga-trust-charge/optiga/optiga/comms/ifx_i2c\ifx_i2c_physical_layer.c ****     {
 746:C:/Users/Yushev/git/wpcqi-optiga-trust-charge/optiga/optiga/comms/ifx_i2c\ifx_i2c_physical_layer.c ****         case PL_INIT_GET_STATUS_REG:
 747:C:/Users/Yushev/git/wpcqi-optiga-trust-charge/optiga/optiga/comms/ifx_i2c\ifx_i2c_physical_layer.c ****         {
 748:C:/Users/Yushev/git/wpcqi-optiga-trust-charge/optiga/optiga/comms/ifx_i2c\ifx_i2c_physical_layer.c ****             p_ctx->pl.request_soft_reset = PL_RESET_WRITE;
 1801              	 .loc 1 748 0
 1802 004c 7B68     	 ldr r3,[r7,#4]
 1803 004e A222     	 movs r2,#162
 1804 0050 83F8A521 	 strb r2,[r3,#421]
 749:C:/Users/Yushev/git/wpcqi-optiga-trust-charge/optiga/optiga/comms/ifx_i2c\ifx_i2c_physical_layer.c ****             //Read the status register to check if soft reset is supported
 750:C:/Users/Yushev/git/wpcqi-optiga-trust-charge/optiga/optiga/comms/ifx_i2c\ifx_i2c_physical_layer.c ****             ifx_i2c_pl_read_register(p_ctx, PL_REG_I2C_STATE, PL_REG_LEN_I2C_STATE);
 1805              	 .loc 1 750 0
 1806 0054 7868     	 ldr r0,[r7,#4]
 1807 0056 8221     	 movs r1,#130
 1808 0058 0422     	 movs r2,#4
 1809 005a FFF7FEFF 	 bl ifx_i2c_pl_read_register
 751:C:/Users/Yushev/git/wpcqi-optiga-trust-charge/optiga/optiga/comms/ifx_i2c\ifx_i2c_physical_layer.c ****             break;
 1810              	 .loc 1 751 0
 1811 005e 3CE0     	 b .L107
 1812              	.L112:
 752:C:/Users/Yushev/git/wpcqi-optiga-trust-charge/optiga/optiga/comms/ifx_i2c\ifx_i2c_physical_layer.c ****         }
 753:C:/Users/Yushev/git/wpcqi-optiga-trust-charge/optiga/optiga/comms/ifx_i2c\ifx_i2c_physical_layer.c ****         case PL_RESET_WRITE:
 754:C:/Users/Yushev/git/wpcqi-optiga-trust-charge/optiga/optiga/comms/ifx_i2c\ifx_i2c_physical_layer.c ****         {
 755:C:/Users/Yushev/git/wpcqi-optiga-trust-charge/optiga/optiga/comms/ifx_i2c\ifx_i2c_physical_layer.c ****             //Mask for soft reset bit(5th bit) from the 1st byte of status register
 756:C:/Users/Yushev/git/wpcqi-optiga-trust-charge/optiga/optiga/comms/ifx_i2c\ifx_i2c_physical_layer.c ****             p_ctx->pl.buffer[0] &= PL_REG_I2C_STATE_SOFT_RESET;
 1813              	 .loc 1 756 0
 1814 0060 7B68     	 ldr r3,[r7,#4]
 1815 0062 93F87830 	 ldrb r3,[r3,#120]
 1816 0066 03F00803 	 and r3,r3,#8
 1817 006a DAB2     	 uxtb r2,r3
 1818 006c 7B68     	 ldr r3,[r7,#4]
 1819 006e 83F87820 	 strb r2,[r3,#120]
 757:C:/Users/Yushev/git/wpcqi-optiga-trust-charge/optiga/optiga/comms/ifx_i2c\ifx_i2c_physical_layer.c ****             if (PL_REG_I2C_STATE_SOFT_RESET == p_ctx->pl.buffer[0])
 1820              	 .loc 1 757 0
 1821 0072 7B68     	 ldr r3,[r7,#4]
 1822 0074 93F87830 	 ldrb r3,[r3,#120]
 1823 0078 082B     	 cmp r3,#8
 1824 007a 0BD1     	 bne .L115
 758:C:/Users/Yushev/git/wpcqi-optiga-trust-charge/optiga/optiga/comms/ifx_i2c\ifx_i2c_physical_layer.c ****             {
 759:C:/Users/Yushev/git/wpcqi-optiga-trust-charge/optiga/optiga/comms/ifx_i2c\ifx_i2c_physical_layer.c ****                 p_ctx->pl.request_soft_reset = PL_RESET_STARTUP;
 1825              	 .loc 1 759 0
 1826 007c 7B68     	 ldr r3,[r7,#4]
 1827 007e A322     	 movs r2,#163
 1828 0080 83F8A521 	 strb r2,[r3,#421]
 760:C:/Users/Yushev/git/wpcqi-optiga-trust-charge/optiga/optiga/comms/ifx_i2c\ifx_i2c_physical_layer.c ****                 //Write 88 register with 0 value
 761:C:/Users/Yushev/git/wpcqi-optiga-trust-charge/optiga/optiga/comms/ifx_i2c\ifx_i2c_physical_layer.c ****                 ifx_i2c_pl_write_register(p_ctx, PL_REG_SOFT_RESET, PL_REG_LEN_SOFT_RESET, i2c_mode
 1829              	 .loc 1 761 0
 1830 0084 07F10C03 	 add r3,r7,#12
 1831 0088 7868     	 ldr r0,[r7,#4]
 1832 008a 8821     	 movs r1,#136
 1833 008c 0222     	 movs r2,#2
 1834 008e FFF7FEFF 	 bl ifx_i2c_pl_write_register
 762:C:/Users/Yushev/git/wpcqi-optiga-trust-charge/optiga/optiga/comms/ifx_i2c\ifx_i2c_physical_layer.c ****             }
 763:C:/Users/Yushev/git/wpcqi-optiga-trust-charge/optiga/optiga/comms/ifx_i2c\ifx_i2c_physical_layer.c ****             else
 764:C:/Users/Yushev/git/wpcqi-optiga-trust-charge/optiga/optiga/comms/ifx_i2c\ifx_i2c_physical_layer.c ****             {
 765:C:/Users/Yushev/git/wpcqi-optiga-trust-charge/optiga/optiga/comms/ifx_i2c\ifx_i2c_physical_layer.c ****                 //Soft reset is not supported by the slave
 766:C:/Users/Yushev/git/wpcqi-optiga-trust-charge/optiga/optiga/comms/ifx_i2c\ifx_i2c_physical_layer.c ****                 p_ctx->pl.frame_state = PL_STATE_UNINIT;
 767:C:/Users/Yushev/git/wpcqi-optiga-trust-charge/optiga/optiga/comms/ifx_i2c\ifx_i2c_physical_layer.c ****                 ifx_i2c_pl_frame_event_handler(p_ctx, IFX_I2C_STACK_ERROR);
 768:C:/Users/Yushev/git/wpcqi-optiga-trust-charge/optiga/optiga/comms/ifx_i2c\ifx_i2c_physical_layer.c ****             }
 769:C:/Users/Yushev/git/wpcqi-optiga-trust-charge/optiga/optiga/comms/ifx_i2c\ifx_i2c_physical_layer.c ****             break;
 1835              	 .loc 1 769 0
 1836 0092 22E0     	 b .L107
 1837              	.L115:
 766:C:/Users/Yushev/git/wpcqi-optiga-trust-charge/optiga/optiga/comms/ifx_i2c\ifx_i2c_physical_layer.c ****                 ifx_i2c_pl_frame_event_handler(p_ctx, IFX_I2C_STACK_ERROR);
 1838              	 .loc 1 766 0
 1839 0094 7B68     	 ldr r3,[r7,#4]
 1840 0096 0022     	 movs r2,#0
 1841 0098 83F89721 	 strb r2,[r3,#407]
 767:C:/Users/Yushev/git/wpcqi-optiga-trust-charge/optiga/optiga/comms/ifx_i2c\ifx_i2c_physical_layer.c ****             }
 1842              	 .loc 1 767 0
 1843 009c 7868     	 ldr r0,[r7,#4]
 1844 009e 4FF48171 	 mov r1,#258
 1845 00a2 FFF7FEFF 	 bl ifx_i2c_pl_frame_event_handler
 1846              	 .loc 1 769 0
 1847 00a6 18E0     	 b .L107
 1848              	.L113:
 770:C:/Users/Yushev/git/wpcqi-optiga-trust-charge/optiga/optiga/comms/ifx_i2c\ifx_i2c_physical_layer.c ****         }
 771:C:/Users/Yushev/git/wpcqi-optiga-trust-charge/optiga/optiga/comms/ifx_i2c\ifx_i2c_physical_layer.c ****         case PL_RESET_STARTUP:
 772:C:/Users/Yushev/git/wpcqi-optiga-trust-charge/optiga/optiga/comms/ifx_i2c\ifx_i2c_physical_layer.c ****         {
 773:C:/Users/Yushev/git/wpcqi-optiga-trust-charge/optiga/optiga/comms/ifx_i2c\ifx_i2c_physical_layer.c ****             p_ctx->pl.request_soft_reset= PL_RESET_INIT;
 1849              	 .loc 1 773 0
 1850 00a8 7B68     	 ldr r3,[r7,#4]
 1851 00aa A122     	 movs r2,#161
 1852 00ac 83F8A521 	 strb r2,[r3,#421]
 774:C:/Users/Yushev/git/wpcqi-optiga-trust-charge/optiga/optiga/comms/ifx_i2c\ifx_i2c_physical_layer.c ****             pal_os_event_register_callback_oneshot(p_ctx->pal_os_event_ctx,(register_callback)ifx_i
 1853              	 .loc 1 774 0
 1854 00b0 7B68     	 ldr r3,[r7,#4]
 1855 00b2 D3F8D433 	 ldr r3,[r3,#980]
 1856 00b6 1846     	 mov r0,r3
 1857 00b8 0949     	 ldr r1,.L118
 1858 00ba 7A68     	 ldr r2,[r7,#4]
 1859 00bc 42F6E063 	 movw r3,#12000
 1860 00c0 FFF7FEFF 	 bl pal_os_event_register_callback_oneshot
 775:C:/Users/Yushev/git/wpcqi-optiga-trust-charge/optiga/optiga/comms/ifx_i2c\ifx_i2c_physical_layer.c ****                                                    (void * )p_ctx,
 776:C:/Users/Yushev/git/wpcqi-optiga-trust-charge/optiga/optiga/comms/ifx_i2c\ifx_i2c_physical_layer.c ****                                                    STARTUP_TIME_MSEC);
 777:C:/Users/Yushev/git/wpcqi-optiga-trust-charge/optiga/optiga/comms/ifx_i2c\ifx_i2c_physical_layer.c ****             break;
 1861              	 .loc 1 777 0
 1862 00c4 09E0     	 b .L107
 1863              	.L111:
 778:C:/Users/Yushev/git/wpcqi-optiga-trust-charge/optiga/optiga/comms/ifx_i2c\ifx_i2c_physical_layer.c ****         }
 779:C:/Users/Yushev/git/wpcqi-optiga-trust-charge/optiga/optiga/comms/ifx_i2c\ifx_i2c_physical_layer.c ****         case PL_RESET_INIT:
 780:C:/Users/Yushev/git/wpcqi-optiga-trust-charge/optiga/optiga/comms/ifx_i2c\ifx_i2c_physical_layer.c ****         {
 781:C:/Users/Yushev/git/wpcqi-optiga-trust-charge/optiga/optiga/comms/ifx_i2c\ifx_i2c_physical_layer.c ****             p_ctx->pl.frame_state = PL_STATE_INIT;
 1864              	 .loc 1 781 0
 1865 00c6 7B68     	 ldr r3,[r7,#4]
 1866 00c8 0122     	 movs r2,#1
 1867 00ca 83F89721 	 strb r2,[r3,#407]
 782:C:/Users/Yushev/git/wpcqi-optiga-trust-charge/optiga/optiga/comms/ifx_i2c\ifx_i2c_physical_layer.c ****             ifx_i2c_pl_frame_event_handler(p_ctx, IFX_I2C_STACK_SUCCESS);
 1868              	 .loc 1 782 0
 1869 00ce 7868     	 ldr r0,[r7,#4]
 1870 00d0 0021     	 movs r1,#0
 1871 00d2 FFF7FEFF 	 bl ifx_i2c_pl_frame_event_handler
 783:C:/Users/Yushev/git/wpcqi-optiga-trust-charge/optiga/optiga/comms/ifx_i2c\ifx_i2c_physical_layer.c ****             break;
 1872              	 .loc 1 783 0
 1873 00d6 00E0     	 b .L107
 1874              	.L117:
 784:C:/Users/Yushev/git/wpcqi-optiga-trust-charge/optiga/optiga/comms/ifx_i2c\ifx_i2c_physical_layer.c ****         }
 785:C:/Users/Yushev/git/wpcqi-optiga-trust-charge/optiga/optiga/comms/ifx_i2c\ifx_i2c_physical_layer.c ****         default:
 786:C:/Users/Yushev/git/wpcqi-optiga-trust-charge/optiga/optiga/comms/ifx_i2c\ifx_i2c_physical_layer.c ****             break;
 1875              	 .loc 1 786 0
 1876 00d8 00BF     	 nop
 1877              	.L107:
 787:C:/Users/Yushev/git/wpcqi-optiga-trust-charge/optiga/optiga/comms/ifx_i2c\ifx_i2c_physical_layer.c ****     }
 788:C:/Users/Yushev/git/wpcqi-optiga-trust-charge/optiga/optiga/comms/ifx_i2c\ifx_i2c_physical_layer.c **** }
 1878              	 .loc 1 788 0
 1879 00da 1037     	 adds r7,r7,#16
 1880              	.LCFI68:
 1881              	 .cfi_def_cfa_offset 8
 1882 00dc BD46     	 mov sp,r7
 1883              	.LCFI69:
 1884              	 .cfi_def_cfa_register 13
 1885              	 
 1886 00de 80BD     	 pop {r7,pc}
 1887              	.L119:
 1888              	 .align 2
 1889              	.L118:
 1890 00e0 00000000 	 .word ifx_i2c_pl_soft_reset
 1891              	 .cfi_endproc
 1892              	.LFE13:
 1894              	 .section .text.ifx_i2c_pl_pal_slave_addr_event_handler,"ax",%progbits
 1895              	 .align 2
 1896              	 .thumb
 1897              	 .thumb_func
 1899              	ifx_i2c_pl_pal_slave_addr_event_handler:
 1900              	.LFB14:
 789:C:/Users/Yushev/git/wpcqi-optiga-trust-charge/optiga/optiga/comms/ifx_i2c\ifx_i2c_physical_layer.c **** 
 790:C:/Users/Yushev/git/wpcqi-optiga-trust-charge/optiga/optiga/comms/ifx_i2c\ifx_i2c_physical_layer.c **** //lint --e{715} suppress "This is used for synchromous implementation, hence p_ctx not used"
 791:C:/Users/Yushev/git/wpcqi-optiga-trust-charge/optiga/optiga/comms/ifx_i2c\ifx_i2c_physical_layer.c **** //lint --e{818} suppress "This is ignored as upper layer handler function prototype requires this a
 792:C:/Users/Yushev/git/wpcqi-optiga-trust-charge/optiga/optiga/comms/ifx_i2c\ifx_i2c_physical_layer.c **** _STATIC_H void ifx_i2c_pl_pal_slave_addr_event_handler(void * p_ctx, optiga_lib_status_t event)
 793:C:/Users/Yushev/git/wpcqi-optiga-trust-charge/optiga/optiga/comms/ifx_i2c\ifx_i2c_physical_layer.c **** {
 1901              	 .loc 1 793 0
 1902              	 .cfi_startproc
 1903              	 
 1904              	 
 1905              	 
 1906 0000 80B4     	 push {r7}
 1907              	.LCFI70:
 1908              	 .cfi_def_cfa_offset 4
 1909              	 .cfi_offset 7,-4
 1910 0002 83B0     	 sub sp,sp,#12
 1911              	.LCFI71:
 1912              	 .cfi_def_cfa_offset 16
 1913 0004 00AF     	 add r7,sp,#0
 1914              	.LCFI72:
 1915              	 .cfi_def_cfa_register 7
 1916 0006 7860     	 str r0,[r7,#4]
 1917 0008 0B46     	 mov r3,r1
 1918 000a 7B80     	 strh r3,[r7,#2]
 794:C:/Users/Yushev/git/wpcqi-optiga-trust-charge/optiga/optiga/comms/ifx_i2c\ifx_i2c_physical_layer.c ****     g_pal_event_status = event;
 1919              	 .loc 1 794 0
 1920 000c 034A     	 ldr r2,.L121
 1921 000e 7B88     	 ldrh r3,[r7,#2]
 1922 0010 1380     	 strh r3,[r2]
 795:C:/Users/Yushev/git/wpcqi-optiga-trust-charge/optiga/optiga/comms/ifx_i2c\ifx_i2c_physical_layer.c **** }
 1923              	 .loc 1 795 0
 1924 0012 0C37     	 adds r7,r7,#12
 1925              	.LCFI73:
 1926              	 .cfi_def_cfa_offset 4
 1927 0014 BD46     	 mov sp,r7
 1928              	.LCFI74:
 1929              	 .cfi_def_cfa_register 13
 1930              	 
 1931 0016 5DF8047B 	 ldr r7,[sp],#4
 1932              	.LCFI75:
 1933              	 .cfi_restore 7
 1934              	 .cfi_def_cfa_offset 0
 1935 001a 7047     	 bx lr
 1936              	.L122:
 1937              	 .align 2
 1938              	.L121:
 1939 001c 00000000 	 .word g_pal_event_status
 1940              	 .cfi_endproc
 1941              	.LFE14:
 1943              	 .text
 1944              	.Letext0:
 1945              	 .file 2 "c:\\users\\yushev\\dave_4-4-2_32bit_2018-02-23\\dave-ide-4.4.2-32bit\\eclipse\\arm-gcc-49\\arm-none-eabi\\include\\machine\\_default_types.h"
 1946              	 .file 3 "c:\\users\\yushev\\dave_4-4-2_32bit_2018-02-23\\dave-ide-4.4.2-32bit\\eclipse\\arm-gcc-49\\arm-none-eabi\\include\\stdint.h"
 1947              	 .file 4 "C:/Users/Yushev/git/wpcqi-optiga-trust-charge/optiga/optiga/include/optiga/common/optiga_lib_types.h"
 1948              	 .file 5 "C:/Users/Yushev/git/wpcqi-optiga-trust-charge/optiga/optiga/include/optiga/pal/pal_i2c.h"
 1949              	 .file 6 "C:/Users/Yushev/git/wpcqi-optiga-trust-charge/optiga/optiga/include/optiga/pal/pal_gpio.h"
 1950              	 .file 7 "C:/Users/Yushev/git/wpcqi-optiga-trust-charge/optiga/optiga/include/optiga/ifx_i2c/ifx_i2c_config.h"
 1951              	 .file 8 "C:/Users/Yushev/git/wpcqi-optiga-trust-charge/optiga/optiga/include/optiga/pal/pal_os_event.h"