   1              	 .syntax unified
   2              	 .cpu cortex-m4
   3              	 .eabi_attribute 27,3
   4              	 .fpu fpv4-sp-d16
   5              	 .eabi_attribute 20,1
   6              	 .eabi_attribute 21,1
   7              	 .eabi_attribute 23,3
   8              	 .eabi_attribute 24,1
   9              	 .eabi_attribute 25,1
  10              	 .eabi_attribute 26,1
  11              	 .eabi_attribute 30,4
  12              	 .eabi_attribute 34,1
  13              	 .eabi_attribute 18,4
  14              	 .thumb
  15              	 .file "cdc_class_device.c"
  16              	 .text
  17              	.Ltext0:
  18              	 .cfi_sections .debug_frame
  19              	 .section .text.Endpoint_SelectEndpoint,"ax",%progbits
  20              	 .align 1
  21              	 .thumb
  22              	 .thumb_func
  24              	Endpoint_SelectEndpoint:
  25              	.LFB173:
  26              	 .file 1 "c:\\users\\yushev\\git\\optiga-trust-qi\\projects\\xmc4700_relax_kit\\common\\dave\\generated\\usbd\\usb\\core\\xmc4000\\usbd_endpoint_xmc4000.h"
   1:c:\users\yushev\git\optiga-trust-qi\projects\xmc4700_relax_kit\common\dave\generated\usbd\usb\core\xmc4000\usbd_endpoint_xmc4000.h **** /**
   2:c:\users\yushev\git\optiga-trust-qi\projects\xmc4700_relax_kit\common\dave\generated\usbd\usb\core\xmc4000\usbd_endpoint_xmc4000.h ****  * @file usbd_endpoint_xmc4000.h
   3:c:\users\yushev\git\optiga-trust-qi\projects\xmc4700_relax_kit\common\dave\generated\usbd\usb\core\xmc4000\usbd_endpoint_xmc4000.h ****  * @date 2015-06-20 
   4:c:\users\yushev\git\optiga-trust-qi\projects\xmc4700_relax_kit\common\dave\generated\usbd\usb\core\xmc4000\usbd_endpoint_xmc4000.h ****  * NOTE:
   5:c:\users\yushev\git\optiga-trust-qi\projects\xmc4700_relax_kit\common\dave\generated\usbd\usb\core\xmc4000\usbd_endpoint_xmc4000.h ****  * This file is generated by DAVE. Any manual modification done to this file will be lost when the 
   6:c:\users\yushev\git\optiga-trust-qi\projects\xmc4700_relax_kit\common\dave\generated\usbd\usb\core\xmc4000\usbd_endpoint_xmc4000.h ****  *
   7:c:\users\yushev\git\optiga-trust-qi\projects\xmc4700_relax_kit\common\dave\generated\usbd\usb\core\xmc4000\usbd_endpoint_xmc4000.h ****  * @cond
   8:c:\users\yushev\git\optiga-trust-qi\projects\xmc4700_relax_kit\common\dave\generated\usbd\usb\core\xmc4000\usbd_endpoint_xmc4000.h ****  **************************************************************************************************
   9:c:\users\yushev\git\optiga-trust-qi\projects\xmc4700_relax_kit\common\dave\generated\usbd\usb\core\xmc4000\usbd_endpoint_xmc4000.h ****  * The USB core driver for XMC4000 family of controllers. It does the USB protocol handling.
  10:c:\users\yushev\git\optiga-trust-qi\projects\xmc4700_relax_kit\common\dave\generated\usbd\usb\core\xmc4000\usbd_endpoint_xmc4000.h ****  *
  11:c:\users\yushev\git\optiga-trust-qi\projects\xmc4700_relax_kit\common\dave\generated\usbd\usb\core\xmc4000\usbd_endpoint_xmc4000.h ****  * Copyright (c) 2015, Infineon Technologies AG
  12:c:\users\yushev\git\optiga-trust-qi\projects\xmc4700_relax_kit\common\dave\generated\usbd\usb\core\xmc4000\usbd_endpoint_xmc4000.h ****  * All rights reserved.                        
  13:c:\users\yushev\git\optiga-trust-qi\projects\xmc4700_relax_kit\common\dave\generated\usbd\usb\core\xmc4000\usbd_endpoint_xmc4000.h ****  *                                             
  14:c:\users\yushev\git\optiga-trust-qi\projects\xmc4700_relax_kit\common\dave\generated\usbd\usb\core\xmc4000\usbd_endpoint_xmc4000.h ****  * Redistribution and use in source and binary forms, with or without modification,are permitted pr
  15:c:\users\yushev\git\optiga-trust-qi\projects\xmc4700_relax_kit\common\dave\generated\usbd\usb\core\xmc4000\usbd_endpoint_xmc4000.h ****  * following conditions are met:   
  16:c:\users\yushev\git\optiga-trust-qi\projects\xmc4700_relax_kit\common\dave\generated\usbd\usb\core\xmc4000\usbd_endpoint_xmc4000.h ****  *                                                                              
  17:c:\users\yushev\git\optiga-trust-qi\projects\xmc4700_relax_kit\common\dave\generated\usbd\usb\core\xmc4000\usbd_endpoint_xmc4000.h ****  *   Redistributions of source code must retain the above copyright notice, this list of conditions
  18:c:\users\yushev\git\optiga-trust-qi\projects\xmc4700_relax_kit\common\dave\generated\usbd\usb\core\xmc4000\usbd_endpoint_xmc4000.h ****  *   disclaimer.                        
  19:c:\users\yushev\git\optiga-trust-qi\projects\xmc4700_relax_kit\common\dave\generated\usbd\usb\core\xmc4000\usbd_endpoint_xmc4000.h ****  * 
  20:c:\users\yushev\git\optiga-trust-qi\projects\xmc4700_relax_kit\common\dave\generated\usbd\usb\core\xmc4000\usbd_endpoint_xmc4000.h ****  *   Redistributions in binary form must reproduce the above copyright notice, this list of conditi
  21:c:\users\yushev\git\optiga-trust-qi\projects\xmc4700_relax_kit\common\dave\generated\usbd\usb\core\xmc4000\usbd_endpoint_xmc4000.h ****  *   following disclaimer in the documentation and/or other materials provided with the distributio
  22:c:\users\yushev\git\optiga-trust-qi\projects\xmc4700_relax_kit\common\dave\generated\usbd\usb\core\xmc4000\usbd_endpoint_xmc4000.h ****  *                         
  23:c:\users\yushev\git\optiga-trust-qi\projects\xmc4700_relax_kit\common\dave\generated\usbd\usb\core\xmc4000\usbd_endpoint_xmc4000.h ****  *   Neither the name of the copyright holders nor the names of its contributors may be used to end
  24:c:\users\yushev\git\optiga-trust-qi\projects\xmc4700_relax_kit\common\dave\generated\usbd\usb\core\xmc4000\usbd_endpoint_xmc4000.h ****  *   products derived from this software without specific prior written permission. 
  25:c:\users\yushev\git\optiga-trust-qi\projects\xmc4700_relax_kit\common\dave\generated\usbd\usb\core\xmc4000\usbd_endpoint_xmc4000.h ****  *                                             
  26:c:\users\yushev\git\optiga-trust-qi\projects\xmc4700_relax_kit\common\dave\generated\usbd\usb\core\xmc4000\usbd_endpoint_xmc4000.h ****  * THIS SOFTWARE IS PROVIDED BY THE COPYRIGHT HOLDERS AND CONTRIBUTORS "AS IS" AND ANY EXPRESS OR I
  27:c:\users\yushev\git\optiga-trust-qi\projects\xmc4700_relax_kit\common\dave\generated\usbd\usb\core\xmc4000\usbd_endpoint_xmc4000.h ****  * INCLUDING, BUT NOT LIMITED TO, THE IMPLIED WARRANTIES OF MERCHANTABILITY AND FITNESS FOR A PARTI
  28:c:\users\yushev\git\optiga-trust-qi\projects\xmc4700_relax_kit\common\dave\generated\usbd\usb\core\xmc4000\usbd_endpoint_xmc4000.h ****  * DISCLAIMED. IN NO EVENT SHALL THE COPYRIGHT HOLDER OR CONTRIBUTORS BE LIABLE  FOR ANY DIRECT, IN
  29:c:\users\yushev\git\optiga-trust-qi\projects\xmc4700_relax_kit\common\dave\generated\usbd\usb\core\xmc4000\usbd_endpoint_xmc4000.h ****  * SPECIAL, EXEMPLARY, OR CONSEQUENTIAL DAMAGES (INCLUDING, BUT NOT LIMITED TO, PROCUREMENT OF SUBS
  30:c:\users\yushev\git\optiga-trust-qi\projects\xmc4700_relax_kit\common\dave\generated\usbd\usb\core\xmc4000\usbd_endpoint_xmc4000.h ****  * SERVICES; LOSS OF USE, DATA, OR PROFITS; OR BUSINESS INTERRUPTION) HOWEVER CAUSED AND ON ANY THE
  31:c:\users\yushev\git\optiga-trust-qi\projects\xmc4700_relax_kit\common\dave\generated\usbd\usb\core\xmc4000\usbd_endpoint_xmc4000.h ****  * WHETHER IN CONTRACT, STRICT LIABILITY,OR TORT (INCLUDING NEGLIGENCE OR OTHERWISE) ARISING IN ANY
  32:c:\users\yushev\git\optiga-trust-qi\projects\xmc4700_relax_kit\common\dave\generated\usbd\usb\core\xmc4000\usbd_endpoint_xmc4000.h ****  * USE OF THIS SOFTWARE, EVEN IF ADVISED OF THE POSSIBILITY OF SUCH DAMAGE.    
  33:c:\users\yushev\git\optiga-trust-qi\projects\xmc4700_relax_kit\common\dave\generated\usbd\usb\core\xmc4000\usbd_endpoint_xmc4000.h ****  *                                                                              
  34:c:\users\yushev\git\optiga-trust-qi\projects\xmc4700_relax_kit\common\dave\generated\usbd\usb\core\xmc4000\usbd_endpoint_xmc4000.h ****  * To improve the quality of the software, users are encouraged to share modifications, enhancement
  35:c:\users\yushev\git\optiga-trust-qi\projects\xmc4700_relax_kit\common\dave\generated\usbd\usb\core\xmc4000\usbd_endpoint_xmc4000.h ****  * with Infineon Technologies AG (dave@infineon.com).        
  36:c:\users\yushev\git\optiga-trust-qi\projects\xmc4700_relax_kit\common\dave\generated\usbd\usb\core\xmc4000\usbd_endpoint_xmc4000.h ****  **************************************************************************************************
  37:c:\users\yushev\git\optiga-trust-qi\projects\xmc4700_relax_kit\common\dave\generated\usbd\usb\core\xmc4000\usbd_endpoint_xmc4000.h ****  *
  38:c:\users\yushev\git\optiga-trust-qi\projects\xmc4700_relax_kit\common\dave\generated\usbd\usb\core\xmc4000\usbd_endpoint_xmc4000.h ****  * Change History
  39:c:\users\yushev\git\optiga-trust-qi\projects\xmc4700_relax_kit\common\dave\generated\usbd\usb\core\xmc4000\usbd_endpoint_xmc4000.h ****  * --------------
  40:c:\users\yushev\git\optiga-trust-qi\projects\xmc4700_relax_kit\common\dave\generated\usbd\usb\core\xmc4000\usbd_endpoint_xmc4000.h ****  *
  41:c:\users\yushev\git\optiga-trust-qi\projects\xmc4700_relax_kit\common\dave\generated\usbd\usb\core\xmc4000\usbd_endpoint_xmc4000.h ****  * 2015-02-16:
  42:c:\users\yushev\git\optiga-trust-qi\projects\xmc4700_relax_kit\common\dave\generated\usbd\usb\core\xmc4000\usbd_endpoint_xmc4000.h ****  *     - Initial version.      
  43:c:\users\yushev\git\optiga-trust-qi\projects\xmc4700_relax_kit\common\dave\generated\usbd\usb\core\xmc4000\usbd_endpoint_xmc4000.h ****  * 2015-06-20:
  44:c:\users\yushev\git\optiga-trust-qi\projects\xmc4700_relax_kit\common\dave\generated\usbd\usb\core\xmc4000\usbd_endpoint_xmc4000.h ****  *     - Updated the file header.
  45:c:\users\yushev\git\optiga-trust-qi\projects\xmc4700_relax_kit\common\dave\generated\usbd\usb\core\xmc4000\usbd_endpoint_xmc4000.h ****  *     
  46:c:\users\yushev\git\optiga-trust-qi\projects\xmc4700_relax_kit\common\dave\generated\usbd\usb\core\xmc4000\usbd_endpoint_xmc4000.h ****  * @endcond 
  47:c:\users\yushev\git\optiga-trust-qi\projects\xmc4700_relax_kit\common\dave\generated\usbd\usb\core\xmc4000\usbd_endpoint_xmc4000.h ****  *
  48:c:\users\yushev\git\optiga-trust-qi\projects\xmc4700_relax_kit\common\dave\generated\usbd\usb\core\xmc4000\usbd_endpoint_xmc4000.h ****  */
  49:c:\users\yushev\git\optiga-trust-qi\projects\xmc4700_relax_kit\common\dave\generated\usbd\usb\core\xmc4000\usbd_endpoint_xmc4000.h **** /*
  50:c:\users\yushev\git\optiga-trust-qi\projects\xmc4700_relax_kit\common\dave\generated\usbd\usb\core\xmc4000\usbd_endpoint_xmc4000.h ****   Copyright 2014  Dean Camera (dean [at] fourwalledcubicle [dot] com)
  51:c:\users\yushev\git\optiga-trust-qi\projects\xmc4700_relax_kit\common\dave\generated\usbd\usb\core\xmc4000\usbd_endpoint_xmc4000.h **** 
  52:c:\users\yushev\git\optiga-trust-qi\projects\xmc4700_relax_kit\common\dave\generated\usbd\usb\core\xmc4000\usbd_endpoint_xmc4000.h ****   Permission to use, copy, modify, distribute, and sell this
  53:c:\users\yushev\git\optiga-trust-qi\projects\xmc4700_relax_kit\common\dave\generated\usbd\usb\core\xmc4000\usbd_endpoint_xmc4000.h ****   software and its documentation for any purpose is hereby granted
  54:c:\users\yushev\git\optiga-trust-qi\projects\xmc4700_relax_kit\common\dave\generated\usbd\usb\core\xmc4000\usbd_endpoint_xmc4000.h ****   without fee, provided that the above copyright notice appear in
  55:c:\users\yushev\git\optiga-trust-qi\projects\xmc4700_relax_kit\common\dave\generated\usbd\usb\core\xmc4000\usbd_endpoint_xmc4000.h ****   all copies and that both that the copyright notice and this
  56:c:\users\yushev\git\optiga-trust-qi\projects\xmc4700_relax_kit\common\dave\generated\usbd\usb\core\xmc4000\usbd_endpoint_xmc4000.h ****   permission notice and warranty disclaimer appear in supporting
  57:c:\users\yushev\git\optiga-trust-qi\projects\xmc4700_relax_kit\common\dave\generated\usbd\usb\core\xmc4000\usbd_endpoint_xmc4000.h ****   documentation, and that the name of the author not be used in
  58:c:\users\yushev\git\optiga-trust-qi\projects\xmc4700_relax_kit\common\dave\generated\usbd\usb\core\xmc4000\usbd_endpoint_xmc4000.h ****   advertising or publicity pertaining to distribution of the
  59:c:\users\yushev\git\optiga-trust-qi\projects\xmc4700_relax_kit\common\dave\generated\usbd\usb\core\xmc4000\usbd_endpoint_xmc4000.h ****   software without specific, written prior permission.
  60:c:\users\yushev\git\optiga-trust-qi\projects\xmc4700_relax_kit\common\dave\generated\usbd\usb\core\xmc4000\usbd_endpoint_xmc4000.h **** 
  61:c:\users\yushev\git\optiga-trust-qi\projects\xmc4700_relax_kit\common\dave\generated\usbd\usb\core\xmc4000\usbd_endpoint_xmc4000.h ****   The author disclaims all warranties with regard to this
  62:c:\users\yushev\git\optiga-trust-qi\projects\xmc4700_relax_kit\common\dave\generated\usbd\usb\core\xmc4000\usbd_endpoint_xmc4000.h ****   software, including all implied warranties of merchantability
  63:c:\users\yushev\git\optiga-trust-qi\projects\xmc4700_relax_kit\common\dave\generated\usbd\usb\core\xmc4000\usbd_endpoint_xmc4000.h ****   and fitness.  In no event shall the author be liable for any
  64:c:\users\yushev\git\optiga-trust-qi\projects\xmc4700_relax_kit\common\dave\generated\usbd\usb\core\xmc4000\usbd_endpoint_xmc4000.h ****   special, indirect or consequential damages or any damages
  65:c:\users\yushev\git\optiga-trust-qi\projects\xmc4700_relax_kit\common\dave\generated\usbd\usb\core\xmc4000\usbd_endpoint_xmc4000.h ****   whatsoever resulting from loss of use, data or profits, whether
  66:c:\users\yushev\git\optiga-trust-qi\projects\xmc4700_relax_kit\common\dave\generated\usbd\usb\core\xmc4000\usbd_endpoint_xmc4000.h ****   in an action of contract, negligence or other tortious action,
  67:c:\users\yushev\git\optiga-trust-qi\projects\xmc4700_relax_kit\common\dave\generated\usbd\usb\core\xmc4000\usbd_endpoint_xmc4000.h ****   arising out of or in connection with the use or performance of
  68:c:\users\yushev\git\optiga-trust-qi\projects\xmc4700_relax_kit\common\dave\generated\usbd\usb\core\xmc4000\usbd_endpoint_xmc4000.h ****   this software.
  69:c:\users\yushev\git\optiga-trust-qi\projects\xmc4700_relax_kit\common\dave\generated\usbd\usb\core\xmc4000\usbd_endpoint_xmc4000.h **** */
  70:c:\users\yushev\git\optiga-trust-qi\projects\xmc4700_relax_kit\common\dave\generated\usbd\usb\core\xmc4000\usbd_endpoint_xmc4000.h **** 
  71:c:\users\yushev\git\optiga-trust-qi\projects\xmc4700_relax_kit\common\dave\generated\usbd\usb\core\xmc4000\usbd_endpoint_xmc4000.h **** 
  72:c:\users\yushev\git\optiga-trust-qi\projects\xmc4700_relax_kit\common\dave\generated\usbd\usb\core\xmc4000\usbd_endpoint_xmc4000.h **** #ifndef USBD_ENDPOINT_XMC4000_H
  73:c:\users\yushev\git\optiga-trust-qi\projects\xmc4700_relax_kit\common\dave\generated\usbd\usb\core\xmc4000\usbd_endpoint_xmc4000.h **** #define USBD_ENDPOINT_XMC4000_H
  74:c:\users\yushev\git\optiga-trust-qi\projects\xmc4700_relax_kit\common\dave\generated\usbd\usb\core\xmc4000\usbd_endpoint_xmc4000.h **** 
  75:c:\users\yushev\git\optiga-trust-qi\projects\xmc4700_relax_kit\common\dave\generated\usbd\usb\core\xmc4000\usbd_endpoint_xmc4000.h **** #include "../../common/common.h"
  76:c:\users\yushev\git\optiga-trust-qi\projects\xmc4700_relax_kit\common\dave\generated\usbd\usb\core\xmc4000\usbd_endpoint_xmc4000.h **** #include "../endpoint.h"
  77:c:\users\yushev\git\optiga-trust-qi\projects\xmc4700_relax_kit\common\dave\generated\usbd\usb\core\xmc4000\usbd_endpoint_xmc4000.h **** #include "../usb_controller.h"
  78:c:\users\yushev\git\optiga-trust-qi\projects\xmc4700_relax_kit\common\dave\generated\usbd\usb\core\xmc4000\usbd_endpoint_xmc4000.h **** #include "../../../usbd.h" /* IXF */
  79:c:\users\yushev\git\optiga-trust-qi\projects\xmc4700_relax_kit\common\dave\generated\usbd\usb\core\xmc4000\usbd_endpoint_xmc4000.h **** 
  80:c:\users\yushev\git\optiga-trust-qi\projects\xmc4700_relax_kit\common\dave\generated\usbd\usb\core\xmc4000\usbd_endpoint_xmc4000.h **** 
  81:c:\users\yushev\git\optiga-trust-qi\projects\xmc4700_relax_kit\common\dave\generated\usbd\usb\core\xmc4000\usbd_endpoint_xmc4000.h **** /* Enable C linkage for C++ Compilers: */
  82:c:\users\yushev\git\optiga-trust-qi\projects\xmc4700_relax_kit\common\dave\generated\usbd\usb\core\xmc4000\usbd_endpoint_xmc4000.h **** #if defined(__cplusplus)
  83:c:\users\yushev\git\optiga-trust-qi\projects\xmc4700_relax_kit\common\dave\generated\usbd\usb\core\xmc4000\usbd_endpoint_xmc4000.h **** 	extern "C" {
  84:c:\users\yushev\git\optiga-trust-qi\projects\xmc4700_relax_kit\common\dave\generated\usbd\usb\core\xmc4000\usbd_endpoint_xmc4000.h **** #endif
  85:c:\users\yushev\git\optiga-trust-qi\projects\xmc4700_relax_kit\common\dave\generated\usbd\usb\core\xmc4000\usbd_endpoint_xmc4000.h **** 	/**
  86:c:\users\yushev\git\optiga-trust-qi\projects\xmc4700_relax_kit\common\dave\generated\usbd\usb\core\xmc4000\usbd_endpoint_xmc4000.h **** 	 * @ingroup USBD_enumerations
  87:c:\users\yushev\git\optiga-trust-qi\projects\xmc4700_relax_kit\common\dave\generated\usbd\usb\core\xmc4000\usbd_endpoint_xmc4000.h **** 	 * @{
  88:c:\users\yushev\git\optiga-trust-qi\projects\xmc4700_relax_kit\common\dave\generated\usbd\usb\core\xmc4000\usbd_endpoint_xmc4000.h **** 	 */
  89:c:\users\yushev\git\optiga-trust-qi\projects\xmc4700_relax_kit\common\dave\generated\usbd\usb\core\xmc4000\usbd_endpoint_xmc4000.h **** 
  90:c:\users\yushev\git\optiga-trust-qi\projects\xmc4700_relax_kit\common\dave\generated\usbd\usb\core\xmc4000\usbd_endpoint_xmc4000.h **** 	/** Enum for the possible error return codes of the
  91:c:\users\yushev\git\optiga-trust-qi\projects\xmc4700_relax_kit\common\dave\generated\usbd\usb\core\xmc4000\usbd_endpoint_xmc4000.h **** 	 * \ref Endpoint_WaitUntilReady() function.
  92:c:\users\yushev\git\optiga-trust-qi\projects\xmc4700_relax_kit\common\dave\generated\usbd\usb\core\xmc4000\usbd_endpoint_xmc4000.h **** 	*
  93:c:\users\yushev\git\optiga-trust-qi\projects\xmc4700_relax_kit\common\dave\generated\usbd\usb\core\xmc4000\usbd_endpoint_xmc4000.h **** 	*/
  94:c:\users\yushev\git\optiga-trust-qi\projects\xmc4700_relax_kit\common\dave\generated\usbd\usb\core\xmc4000\usbd_endpoint_xmc4000.h **** 	enum Endpoint_WaitUntilReady_ErrorCodes_t
  95:c:\users\yushev\git\optiga-trust-qi\projects\xmc4700_relax_kit\common\dave\generated\usbd\usb\core\xmc4000\usbd_endpoint_xmc4000.h **** 	{
  96:c:\users\yushev\git\optiga-trust-qi\projects\xmc4700_relax_kit\common\dave\generated\usbd\usb\core\xmc4000\usbd_endpoint_xmc4000.h **** 		ENDPOINT_READYWAIT_NoError                 = 0, /**< Endpoint is ready for next packet, no error.
  97:c:\users\yushev\git\optiga-trust-qi\projects\xmc4700_relax_kit\common\dave\generated\usbd\usb\core\xmc4000\usbd_endpoint_xmc4000.h **** 		ENDPOINT_READYWAIT_EndpointStalled         = 1, /**< The endpoint was stalled during the stream
  98:c:\users\yushev\git\optiga-trust-qi\projects\xmc4700_relax_kit\common\dave\generated\usbd\usb\core\xmc4000\usbd_endpoint_xmc4000.h **** 														 *   transfer by the host or device.
  99:c:\users\yushev\git\optiga-trust-qi\projects\xmc4700_relax_kit\common\dave\generated\usbd\usb\core\xmc4000\usbd_endpoint_xmc4000.h **** 														 */
 100:c:\users\yushev\git\optiga-trust-qi\projects\xmc4700_relax_kit\common\dave\generated\usbd\usb\core\xmc4000\usbd_endpoint_xmc4000.h **** 		ENDPOINT_READYWAIT_DeviceDisconnected      = 2,	/**< Device was disconnected from the host while
 101:c:\users\yushev\git\optiga-trust-qi\projects\xmc4700_relax_kit\common\dave\generated\usbd\usb\core\xmc4000\usbd_endpoint_xmc4000.h **** 														 *   waiting for the endpoint to become ready.
 102:c:\users\yushev\git\optiga-trust-qi\projects\xmc4700_relax_kit\common\dave\generated\usbd\usb\core\xmc4000\usbd_endpoint_xmc4000.h **** 														 */
 103:c:\users\yushev\git\optiga-trust-qi\projects\xmc4700_relax_kit\common\dave\generated\usbd\usb\core\xmc4000\usbd_endpoint_xmc4000.h **** 		ENDPOINT_READYWAIT_BusSuspended            = 3, /**< The USB bus has been suspended by the host a
 104:c:\users\yushev\git\optiga-trust-qi\projects\xmc4700_relax_kit\common\dave\generated\usbd\usb\core\xmc4000\usbd_endpoint_xmc4000.h **** 														 *   no USB endpoint traffic can occur until the bus
 105:c:\users\yushev\git\optiga-trust-qi\projects\xmc4700_relax_kit\common\dave\generated\usbd\usb\core\xmc4000\usbd_endpoint_xmc4000.h **** 														 *   has resumed.
 106:c:\users\yushev\git\optiga-trust-qi\projects\xmc4700_relax_kit\common\dave\generated\usbd\usb\core\xmc4000\usbd_endpoint_xmc4000.h **** 														 */
 107:c:\users\yushev\git\optiga-trust-qi\projects\xmc4700_relax_kit\common\dave\generated\usbd\usb\core\xmc4000\usbd_endpoint_xmc4000.h **** 		ENDPOINT_READYWAIT_Timeout                 = 4, /**< The host failed to accept or send the next p
 108:c:\users\yushev\git\optiga-trust-qi\projects\xmc4700_relax_kit\common\dave\generated\usbd\usb\core\xmc4000\usbd_endpoint_xmc4000.h **** 														 *   within the software timeout period set by the
 109:c:\users\yushev\git\optiga-trust-qi\projects\xmc4700_relax_kit\common\dave\generated\usbd\usb\core\xmc4000\usbd_endpoint_xmc4000.h **** 														 *   \ref USB_STREAM_TIMEOUT_MS macro.
 110:c:\users\yushev\git\optiga-trust-qi\projects\xmc4700_relax_kit\common\dave\generated\usbd\usb\core\xmc4000\usbd_endpoint_xmc4000.h **** 														 */
 111:c:\users\yushev\git\optiga-trust-qi\projects\xmc4700_relax_kit\common\dave\generated\usbd\usb\core\xmc4000\usbd_endpoint_xmc4000.h **** 	};
 112:c:\users\yushev\git\optiga-trust-qi\projects\xmc4700_relax_kit\common\dave\generated\usbd\usb\core\xmc4000\usbd_endpoint_xmc4000.h **** 	/**
 113:c:\users\yushev\git\optiga-trust-qi\projects\xmc4700_relax_kit\common\dave\generated\usbd\usb\core\xmc4000\usbd_endpoint_xmc4000.h **** 	 * @}
 114:c:\users\yushev\git\optiga-trust-qi\projects\xmc4700_relax_kit\common\dave\generated\usbd\usb\core\xmc4000\usbd_endpoint_xmc4000.h **** 	 */
 115:c:\users\yushev\git\optiga-trust-qi\projects\xmc4700_relax_kit\common\dave\generated\usbd\usb\core\xmc4000\usbd_endpoint_xmc4000.h **** 
 116:c:\users\yushev\git\optiga-trust-qi\projects\xmc4700_relax_kit\common\dave\generated\usbd\usb\core\xmc4000\usbd_endpoint_xmc4000.h **** 	/**
 117:c:\users\yushev\git\optiga-trust-qi\projects\xmc4700_relax_kit\common\dave\generated\usbd\usb\core\xmc4000\usbd_endpoint_xmc4000.h **** 	 * @ingroup USBD_apidoc
 118:c:\users\yushev\git\optiga-trust-qi\projects\xmc4700_relax_kit\common\dave\generated\usbd\usb\core\xmc4000\usbd_endpoint_xmc4000.h **** 	 * @{
 119:c:\users\yushev\git\optiga-trust-qi\projects\xmc4700_relax_kit\common\dave\generated\usbd\usb\core\xmc4000\usbd_endpoint_xmc4000.h **** 	 */
 120:c:\users\yushev\git\optiga-trust-qi\projects\xmc4700_relax_kit\common\dave\generated\usbd\usb\core\xmc4000\usbd_endpoint_xmc4000.h **** 	/** Get the endpoint address of the currently selected endpoint. This is
 121:c:\users\yushev\git\optiga-trust-qi\projects\xmc4700_relax_kit\common\dave\generated\usbd\usb\core\xmc4000\usbd_endpoint_xmc4000.h **** 	 * typically used to save the currently selected endpoint so that it can be
 122:c:\users\yushev\git\optiga-trust-qi\projects\xmc4700_relax_kit\common\dave\generated\usbd\usb\core\xmc4000\usbd_endpoint_xmc4000.h **** 	 * restored after another endpoint has been  manipulated.
 123:c:\users\yushev\git\optiga-trust-qi\projects\xmc4700_relax_kit\common\dave\generated\usbd\usb\core\xmc4000\usbd_endpoint_xmc4000.h **** 	 *
 124:c:\users\yushev\git\optiga-trust-qi\projects\xmc4700_relax_kit\common\dave\generated\usbd\usb\core\xmc4000\usbd_endpoint_xmc4000.h **** 	 *  \return Index of the currently selected endpoint.
 125:c:\users\yushev\git\optiga-trust-qi\projects\xmc4700_relax_kit\common\dave\generated\usbd\usb\core\xmc4000\usbd_endpoint_xmc4000.h **** 	 */
 126:c:\users\yushev\git\optiga-trust-qi\projects\xmc4700_relax_kit\common\dave\generated\usbd\usb\core\xmc4000\usbd_endpoint_xmc4000.h **** 	static inline uint8_t Endpoint_GetCurrentEndpoint(void);
 127:c:\users\yushev\git\optiga-trust-qi\projects\xmc4700_relax_kit\common\dave\generated\usbd\usb\core\xmc4000\usbd_endpoint_xmc4000.h **** 	static inline uint8_t Endpoint_GetCurrentEndpoint(void)
 128:c:\users\yushev\git\optiga-trust-qi\projects\xmc4700_relax_kit\common\dave\generated\usbd\usb\core\xmc4000\usbd_endpoint_xmc4000.h **** 	{
 129:c:\users\yushev\git\optiga-trust-qi\projects\xmc4700_relax_kit\common\dave\generated\usbd\usb\core\xmc4000\usbd_endpoint_xmc4000.h **** 		return device.CurrentDirection | device.CurrentEndpoint;
 130:c:\users\yushev\git\optiga-trust-qi\projects\xmc4700_relax_kit\common\dave\generated\usbd\usb\core\xmc4000\usbd_endpoint_xmc4000.h **** 	}
 131:c:\users\yushev\git\optiga-trust-qi\projects\xmc4700_relax_kit\common\dave\generated\usbd\usb\core\xmc4000\usbd_endpoint_xmc4000.h **** 
 132:c:\users\yushev\git\optiga-trust-qi\projects\xmc4700_relax_kit\common\dave\generated\usbd\usb\core\xmc4000\usbd_endpoint_xmc4000.h **** 	/** Selects the given endpoint address.
 133:c:\users\yushev\git\optiga-trust-qi\projects\xmc4700_relax_kit\common\dave\generated\usbd\usb\core\xmc4000\usbd_endpoint_xmc4000.h **** 	 *
 134:c:\users\yushev\git\optiga-trust-qi\projects\xmc4700_relax_kit\common\dave\generated\usbd\usb\core\xmc4000\usbd_endpoint_xmc4000.h **** 	 *  Any endpoint operations which do not require the endpoint address to be
 135:c:\users\yushev\git\optiga-trust-qi\projects\xmc4700_relax_kit\common\dave\generated\usbd\usb\core\xmc4000\usbd_endpoint_xmc4000.h **** 	 *  indicated will operate on
 136:c:\users\yushev\git\optiga-trust-qi\projects\xmc4700_relax_kit\common\dave\generated\usbd\usb\core\xmc4000\usbd_endpoint_xmc4000.h **** 	 *  the currently selected endpoint.
 137:c:\users\yushev\git\optiga-trust-qi\projects\xmc4700_relax_kit\common\dave\generated\usbd\usb\core\xmc4000\usbd_endpoint_xmc4000.h **** 	 *
 138:c:\users\yushev\git\optiga-trust-qi\projects\xmc4700_relax_kit\common\dave\generated\usbd\usb\core\xmc4000\usbd_endpoint_xmc4000.h **** 	 *  \param[in] Address Endpoint address to select.
 139:c:\users\yushev\git\optiga-trust-qi\projects\xmc4700_relax_kit\common\dave\generated\usbd\usb\core\xmc4000\usbd_endpoint_xmc4000.h **** 	 */
 140:c:\users\yushev\git\optiga-trust-qi\projects\xmc4700_relax_kit\common\dave\generated\usbd\usb\core\xmc4000\usbd_endpoint_xmc4000.h **** 	static inline void Endpoint_SelectEndpoint(const uint8_t Address);
 141:c:\users\yushev\git\optiga-trust-qi\projects\xmc4700_relax_kit\common\dave\generated\usbd\usb\core\xmc4000\usbd_endpoint_xmc4000.h **** 	static inline void Endpoint_SelectEndpoint(const uint8_t Address)
 142:c:\users\yushev\git\optiga-trust-qi\projects\xmc4700_relax_kit\common\dave\generated\usbd\usb\core\xmc4000\usbd_endpoint_xmc4000.h **** 	{
  27              	 .loc 1 142 0
  28              	 .cfi_startproc
  29              	 
  30              	 
  31              	 
  32              	.LVL0:
 143:c:\users\yushev\git\optiga-trust-qi\projects\xmc4700_relax_kit\common\dave\generated\usbd\usb\core\xmc4000\usbd_endpoint_xmc4000.h **** 		device.CurrentEndpoint = Address & ENDPOINT_EPNUM_MASK;
  33              	 .loc 1 143 0
  34 0000 044B     	 ldr r3,.L2
  35 0002 00F00F02 	 and r2,r0,#15
 144:c:\users\yushev\git\optiga-trust-qi\projects\xmc4700_relax_kit\common\dave\generated\usbd\usb\core\xmc4000\usbd_endpoint_xmc4000.h **** 		device.CurrentDirection = (Address & ENDPOINT_DIR_MASK);
  36              	 .loc 1 144 0
  37 0006 20F07F00 	 bic r0,r0,#127
  38              	.LVL1:
 143:c:\users\yushev\git\optiga-trust-qi\projects\xmc4700_relax_kit\common\dave\generated\usbd\usb\core\xmc4000\usbd_endpoint_xmc4000.h **** 		device.CurrentEndpoint = Address & ENDPOINT_EPNUM_MASK;
  39              	 .loc 1 143 0
  40 000a 83F83C21 	 strb r2,[r3,#316]
  41              	 .loc 1 144 0
  42 000e 83F83D01 	 strb r0,[r3,#317]
  43 0012 7047     	 bx lr
  44              	.L3:
  45              	 .align 2
  46              	.L2:
  47 0014 00000000 	 .word device
  48              	 .cfi_endproc
  49              	.LFE173:
  51              	 .section .text.Endpoint_BytesInEndpoint,"ax",%progbits
  52              	 .align 1
  53              	 .thumb
  54              	 .thumb_func
  56              	Endpoint_BytesInEndpoint:
  57              	.LFB180:
 145:c:\users\yushev\git\optiga-trust-qi\projects\xmc4700_relax_kit\common\dave\generated\usbd\usb\core\xmc4000\usbd_endpoint_xmc4000.h **** 	}
 146:c:\users\yushev\git\optiga-trust-qi\projects\xmc4700_relax_kit\common\dave\generated\usbd\usb\core\xmc4000\usbd_endpoint_xmc4000.h **** 
 147:c:\users\yushev\git\optiga-trust-qi\projects\xmc4700_relax_kit\common\dave\generated\usbd\usb\core\xmc4000\usbd_endpoint_xmc4000.h **** 	/** Determines if the current CONTROL type endpoint has received a SETUP
 148:c:\users\yushev\git\optiga-trust-qi\projects\xmc4700_relax_kit\common\dave\generated\usbd\usb\core\xmc4000\usbd_endpoint_xmc4000.h **** 	 * packet.
 149:c:\users\yushev\git\optiga-trust-qi\projects\xmc4700_relax_kit\common\dave\generated\usbd\usb\core\xmc4000\usbd_endpoint_xmc4000.h **** 	 *
 150:c:\users\yushev\git\optiga-trust-qi\projects\xmc4700_relax_kit\common\dave\generated\usbd\usb\core\xmc4000\usbd_endpoint_xmc4000.h **** 	 *  \ingroup Group_EndpointPacketManagement_AVR8
 151:c:\users\yushev\git\optiga-trust-qi\projects\xmc4700_relax_kit\common\dave\generated\usbd\usb\core\xmc4000\usbd_endpoint_xmc4000.h **** 	 *
 152:c:\users\yushev\git\optiga-trust-qi\projects\xmc4700_relax_kit\common\dave\generated\usbd\usb\core\xmc4000\usbd_endpoint_xmc4000.h **** 	 *  \return Boolean \c true if the selected endpoint has received a SETUP
 153:c:\users\yushev\git\optiga-trust-qi\projects\xmc4700_relax_kit\common\dave\generated\usbd\usb\core\xmc4000\usbd_endpoint_xmc4000.h **** 	 *  packet, \c false otherwise.
 154:c:\users\yushev\git\optiga-trust-qi\projects\xmc4700_relax_kit\common\dave\generated\usbd\usb\core\xmc4000\usbd_endpoint_xmc4000.h **** 	 */
 155:c:\users\yushev\git\optiga-trust-qi\projects\xmc4700_relax_kit\common\dave\generated\usbd\usb\core\xmc4000\usbd_endpoint_xmc4000.h **** 	static inline bool Endpoint_IsSETUPReceived(void);
 156:c:\users\yushev\git\optiga-trust-qi\projects\xmc4700_relax_kit\common\dave\generated\usbd\usb\core\xmc4000\usbd_endpoint_xmc4000.h **** 	static inline bool Endpoint_IsSETUPReceived(void)
 157:c:\users\yushev\git\optiga-trust-qi\projects\xmc4700_relax_kit\common\dave\generated\usbd\usb\core\xmc4000\usbd_endpoint_xmc4000.h **** 	{
 158:c:\users\yushev\git\optiga-trust-qi\projects\xmc4700_relax_kit\common\dave\generated\usbd\usb\core\xmc4000\usbd_endpoint_xmc4000.h **** 		return device.IsSetupRecieved;
 159:c:\users\yushev\git\optiga-trust-qi\projects\xmc4700_relax_kit\common\dave\generated\usbd\usb\core\xmc4000\usbd_endpoint_xmc4000.h **** 	}
 160:c:\users\yushev\git\optiga-trust-qi\projects\xmc4700_relax_kit\common\dave\generated\usbd\usb\core\xmc4000\usbd_endpoint_xmc4000.h **** 
 161:c:\users\yushev\git\optiga-trust-qi\projects\xmc4700_relax_kit\common\dave\generated\usbd\usb\core\xmc4000\usbd_endpoint_xmc4000.h **** 
 162:c:\users\yushev\git\optiga-trust-qi\projects\xmc4700_relax_kit\common\dave\generated\usbd\usb\core\xmc4000\usbd_endpoint_xmc4000.h **** 	/** Clears a received SETUP packet on the currently selected CONTROL type
 163:c:\users\yushev\git\optiga-trust-qi\projects\xmc4700_relax_kit\common\dave\generated\usbd\usb\core\xmc4000\usbd_endpoint_xmc4000.h **** 	 * endpoint, freeing up the
 164:c:\users\yushev\git\optiga-trust-qi\projects\xmc4700_relax_kit\common\dave\generated\usbd\usb\core\xmc4000\usbd_endpoint_xmc4000.h **** 	 *  endpoint for the next packet.
 165:c:\users\yushev\git\optiga-trust-qi\projects\xmc4700_relax_kit\common\dave\generated\usbd\usb\core\xmc4000\usbd_endpoint_xmc4000.h **** 	 *
 166:c:\users\yushev\git\optiga-trust-qi\projects\xmc4700_relax_kit\common\dave\generated\usbd\usb\core\xmc4000\usbd_endpoint_xmc4000.h **** 	 *  \ingroup Group_EndpointPacketManagement_AVR8
 167:c:\users\yushev\git\optiga-trust-qi\projects\xmc4700_relax_kit\common\dave\generated\usbd\usb\core\xmc4000\usbd_endpoint_xmc4000.h **** 	 *
 168:c:\users\yushev\git\optiga-trust-qi\projects\xmc4700_relax_kit\common\dave\generated\usbd\usb\core\xmc4000\usbd_endpoint_xmc4000.h **** 	 *  \note This is not applicable for non CONTROL type endpoints.
 169:c:\users\yushev\git\optiga-trust-qi\projects\xmc4700_relax_kit\common\dave\generated\usbd\usb\core\xmc4000\usbd_endpoint_xmc4000.h **** 	 */
 170:c:\users\yushev\git\optiga-trust-qi\projects\xmc4700_relax_kit\common\dave\generated\usbd\usb\core\xmc4000\usbd_endpoint_xmc4000.h **** 	static inline void Endpoint_ClearSETUP(void);
 171:c:\users\yushev\git\optiga-trust-qi\projects\xmc4700_relax_kit\common\dave\generated\usbd\usb\core\xmc4000\usbd_endpoint_xmc4000.h **** 	static inline void Endpoint_ClearSETUP(void)
 172:c:\users\yushev\git\optiga-trust-qi\projects\xmc4700_relax_kit\common\dave\generated\usbd\usb\core\xmc4000\usbd_endpoint_xmc4000.h **** 	{
 173:c:\users\yushev\git\optiga-trust-qi\projects\xmc4700_relax_kit\common\dave\generated\usbd\usb\core\xmc4000\usbd_endpoint_xmc4000.h **** 		device.IsSetupRecieved = 0;
 174:c:\users\yushev\git\optiga-trust-qi\projects\xmc4700_relax_kit\common\dave\generated\usbd\usb\core\xmc4000\usbd_endpoint_xmc4000.h **** 	}
 175:c:\users\yushev\git\optiga-trust-qi\projects\xmc4700_relax_kit\common\dave\generated\usbd\usb\core\xmc4000\usbd_endpoint_xmc4000.h **** 
 176:c:\users\yushev\git\optiga-trust-qi\projects\xmc4700_relax_kit\common\dave\generated\usbd\usb\core\xmc4000\usbd_endpoint_xmc4000.h **** 	/** Nothing done in this function
 177:c:\users\yushev\git\optiga-trust-qi\projects\xmc4700_relax_kit\common\dave\generated\usbd\usb\core\xmc4000\usbd_endpoint_xmc4000.h **** 	 *
 178:c:\users\yushev\git\optiga-trust-qi\projects\xmc4700_relax_kit\common\dave\generated\usbd\usb\core\xmc4000\usbd_endpoint_xmc4000.h **** 	 */
 179:c:\users\yushev\git\optiga-trust-qi\projects\xmc4700_relax_kit\common\dave\generated\usbd\usb\core\xmc4000\usbd_endpoint_xmc4000.h **** 	static inline void Endpoint_ClearStatusStage(void);
 180:c:\users\yushev\git\optiga-trust-qi\projects\xmc4700_relax_kit\common\dave\generated\usbd\usb\core\xmc4000\usbd_endpoint_xmc4000.h **** 	static inline void Endpoint_ClearStatusStage(void)
 181:c:\users\yushev\git\optiga-trust-qi\projects\xmc4700_relax_kit\common\dave\generated\usbd\usb\core\xmc4000\usbd_endpoint_xmc4000.h **** 	{
 182:c:\users\yushev\git\optiga-trust-qi\projects\xmc4700_relax_kit\common\dave\generated\usbd\usb\core\xmc4000\usbd_endpoint_xmc4000.h **** 
 183:c:\users\yushev\git\optiga-trust-qi\projects\xmc4700_relax_kit\common\dave\generated\usbd\usb\core\xmc4000\usbd_endpoint_xmc4000.h **** 	}
 184:c:\users\yushev\git\optiga-trust-qi\projects\xmc4700_relax_kit\common\dave\generated\usbd\usb\core\xmc4000\usbd_endpoint_xmc4000.h **** 
 185:c:\users\yushev\git\optiga-trust-qi\projects\xmc4700_relax_kit\common\dave\generated\usbd\usb\core\xmc4000\usbd_endpoint_xmc4000.h **** 	/** Determines if the selected IN endpoint is ready for a new packet to be
 186:c:\users\yushev\git\optiga-trust-qi\projects\xmc4700_relax_kit\common\dave\generated\usbd\usb\core\xmc4000\usbd_endpoint_xmc4000.h **** 	 * sent to the host.
 187:c:\users\yushev\git\optiga-trust-qi\projects\xmc4700_relax_kit\common\dave\generated\usbd\usb\core\xmc4000\usbd_endpoint_xmc4000.h **** 	 *
 188:c:\users\yushev\git\optiga-trust-qi\projects\xmc4700_relax_kit\common\dave\generated\usbd\usb\core\xmc4000\usbd_endpoint_xmc4000.h **** 	 *  \ingroup Group_EndpointPacketManagement_AVR8
 189:c:\users\yushev\git\optiga-trust-qi\projects\xmc4700_relax_kit\common\dave\generated\usbd\usb\core\xmc4000\usbd_endpoint_xmc4000.h **** 	 *
 190:c:\users\yushev\git\optiga-trust-qi\projects\xmc4700_relax_kit\common\dave\generated\usbd\usb\core\xmc4000\usbd_endpoint_xmc4000.h **** 	 *  \return Boolean \c true if the current endpoint is ready for an IN
 191:c:\users\yushev\git\optiga-trust-qi\projects\xmc4700_relax_kit\common\dave\generated\usbd\usb\core\xmc4000\usbd_endpoint_xmc4000.h **** 	 *  packet, \c false otherwise.
 192:c:\users\yushev\git\optiga-trust-qi\projects\xmc4700_relax_kit\common\dave\generated\usbd\usb\core\xmc4000\usbd_endpoint_xmc4000.h **** 	 */
 193:c:\users\yushev\git\optiga-trust-qi\projects\xmc4700_relax_kit\common\dave\generated\usbd\usb\core\xmc4000\usbd_endpoint_xmc4000.h **** 	static inline bool Endpoint_IsINReady(void);
 194:c:\users\yushev\git\optiga-trust-qi\projects\xmc4700_relax_kit\common\dave\generated\usbd\usb\core\xmc4000\usbd_endpoint_xmc4000.h **** 	static inline bool Endpoint_IsINReady(void)
 195:c:\users\yushev\git\optiga-trust-qi\projects\xmc4700_relax_kit\common\dave\generated\usbd\usb\core\xmc4000\usbd_endpoint_xmc4000.h **** 	{
 196:c:\users\yushev\git\optiga-trust-qi\projects\xmc4700_relax_kit\common\dave\generated\usbd\usb\core\xmc4000\usbd_endpoint_xmc4000.h **** 		USBD_Endpoint_t *ep = &device.Endpoints[device.CurrentEndpoint];
 197:c:\users\yushev\git\optiga-trust-qi\projects\xmc4700_relax_kit\common\dave\generated\usbd\usb\core\xmc4000\usbd_endpoint_xmc4000.h **** 		return ep->InInUse == 0 && ep->IsEnabled;
 198:c:\users\yushev\git\optiga-trust-qi\projects\xmc4700_relax_kit\common\dave\generated\usbd\usb\core\xmc4000\usbd_endpoint_xmc4000.h **** 	}
 199:c:\users\yushev\git\optiga-trust-qi\projects\xmc4700_relax_kit\common\dave\generated\usbd\usb\core\xmc4000\usbd_endpoint_xmc4000.h **** 
 200:c:\users\yushev\git\optiga-trust-qi\projects\xmc4700_relax_kit\common\dave\generated\usbd\usb\core\xmc4000\usbd_endpoint_xmc4000.h **** 	/** Determines if the selected OUT endpoint has received new packet from the
 201:c:\users\yushev\git\optiga-trust-qi\projects\xmc4700_relax_kit\common\dave\generated\usbd\usb\core\xmc4000\usbd_endpoint_xmc4000.h **** 	 *  host.
 202:c:\users\yushev\git\optiga-trust-qi\projects\xmc4700_relax_kit\common\dave\generated\usbd\usb\core\xmc4000\usbd_endpoint_xmc4000.h **** 	 *
 203:c:\users\yushev\git\optiga-trust-qi\projects\xmc4700_relax_kit\common\dave\generated\usbd\usb\core\xmc4000\usbd_endpoint_xmc4000.h **** 	 *  \ingroup Group_EndpointPacketManagement_AVR8
 204:c:\users\yushev\git\optiga-trust-qi\projects\xmc4700_relax_kit\common\dave\generated\usbd\usb\core\xmc4000\usbd_endpoint_xmc4000.h **** 	 *
 205:c:\users\yushev\git\optiga-trust-qi\projects\xmc4700_relax_kit\common\dave\generated\usbd\usb\core\xmc4000\usbd_endpoint_xmc4000.h **** 	 *  \return Boolean \c true if current endpoint is has received an OUT
 206:c:\users\yushev\git\optiga-trust-qi\projects\xmc4700_relax_kit\common\dave\generated\usbd\usb\core\xmc4000\usbd_endpoint_xmc4000.h **** 	 *  packet, \c false otherwise.
 207:c:\users\yushev\git\optiga-trust-qi\projects\xmc4700_relax_kit\common\dave\generated\usbd\usb\core\xmc4000\usbd_endpoint_xmc4000.h **** 	 */
 208:c:\users\yushev\git\optiga-trust-qi\projects\xmc4700_relax_kit\common\dave\generated\usbd\usb\core\xmc4000\usbd_endpoint_xmc4000.h **** 	static inline bool Endpoint_IsOUTReceived(void);
 209:c:\users\yushev\git\optiga-trust-qi\projects\xmc4700_relax_kit\common\dave\generated\usbd\usb\core\xmc4000\usbd_endpoint_xmc4000.h **** 	static inline bool Endpoint_IsOUTReceived(void)
 210:c:\users\yushev\git\optiga-trust-qi\projects\xmc4700_relax_kit\common\dave\generated\usbd\usb\core\xmc4000\usbd_endpoint_xmc4000.h **** 	{
 211:c:\users\yushev\git\optiga-trust-qi\projects\xmc4700_relax_kit\common\dave\generated\usbd\usb\core\xmc4000\usbd_endpoint_xmc4000.h **** 		USBD_Endpoint_t *ep = &device.Endpoints[device.CurrentEndpoint];
 212:c:\users\yushev\git\optiga-trust-qi\projects\xmc4700_relax_kit\common\dave\generated\usbd\usb\core\xmc4000\usbd_endpoint_xmc4000.h **** 		return ep->IsOutRecieved;
 213:c:\users\yushev\git\optiga-trust-qi\projects\xmc4700_relax_kit\common\dave\generated\usbd\usb\core\xmc4000\usbd_endpoint_xmc4000.h **** 	}
 214:c:\users\yushev\git\optiga-trust-qi\projects\xmc4700_relax_kit\common\dave\generated\usbd\usb\core\xmc4000\usbd_endpoint_xmc4000.h **** 
 215:c:\users\yushev\git\optiga-trust-qi\projects\xmc4700_relax_kit\common\dave\generated\usbd\usb\core\xmc4000\usbd_endpoint_xmc4000.h **** 	/** Determines the currently selected endpoint's direction.
 216:c:\users\yushev\git\optiga-trust-qi\projects\xmc4700_relax_kit\common\dave\generated\usbd\usb\core\xmc4000\usbd_endpoint_xmc4000.h **** 	 *
 217:c:\users\yushev\git\optiga-trust-qi\projects\xmc4700_relax_kit\common\dave\generated\usbd\usb\core\xmc4000\usbd_endpoint_xmc4000.h **** 	 *  \return The currently selected endpoint's direction, as a
 218:c:\users\yushev\git\optiga-trust-qi\projects\xmc4700_relax_kit\common\dave\generated\usbd\usb\core\xmc4000\usbd_endpoint_xmc4000.h **** 	 *  \c ENDPOINT_DIR_* mask.
 219:c:\users\yushev\git\optiga-trust-qi\projects\xmc4700_relax_kit\common\dave\generated\usbd\usb\core\xmc4000\usbd_endpoint_xmc4000.h **** 	 */
 220:c:\users\yushev\git\optiga-trust-qi\projects\xmc4700_relax_kit\common\dave\generated\usbd\usb\core\xmc4000\usbd_endpoint_xmc4000.h **** 	static inline uint8_t Endpoint_GetEndpointDirection(void);
 221:c:\users\yushev\git\optiga-trust-qi\projects\xmc4700_relax_kit\common\dave\generated\usbd\usb\core\xmc4000\usbd_endpoint_xmc4000.h **** 	static inline uint8_t Endpoint_GetEndpointDirection(void)
 222:c:\users\yushev\git\optiga-trust-qi\projects\xmc4700_relax_kit\common\dave\generated\usbd\usb\core\xmc4000\usbd_endpoint_xmc4000.h **** 	{
 223:c:\users\yushev\git\optiga-trust-qi\projects\xmc4700_relax_kit\common\dave\generated\usbd\usb\core\xmc4000\usbd_endpoint_xmc4000.h **** 		USBD_Endpoint_t *ep = &device.Endpoints[device.CurrentEndpoint];
 224:c:\users\yushev\git\optiga-trust-qi\projects\xmc4700_relax_kit\common\dave\generated\usbd\usb\core\xmc4000\usbd_endpoint_xmc4000.h **** 		return ep->Address & ENDPOINT_DIR_MASK;
 225:c:\users\yushev\git\optiga-trust-qi\projects\xmc4700_relax_kit\common\dave\generated\usbd\usb\core\xmc4000\usbd_endpoint_xmc4000.h **** 	}
 226:c:\users\yushev\git\optiga-trust-qi\projects\xmc4700_relax_kit\common\dave\generated\usbd\usb\core\xmc4000\usbd_endpoint_xmc4000.h **** 
 227:c:\users\yushev\git\optiga-trust-qi\projects\xmc4700_relax_kit\common\dave\generated\usbd\usb\core\xmc4000\usbd_endpoint_xmc4000.h **** 	/** Indicates the number of bytes currently stored in the current endpoint's
 228:c:\users\yushev\git\optiga-trust-qi\projects\xmc4700_relax_kit\common\dave\generated\usbd\usb\core\xmc4000\usbd_endpoint_xmc4000.h **** 	 *  selected bank.
 229:c:\users\yushev\git\optiga-trust-qi\projects\xmc4700_relax_kit\common\dave\generated\usbd\usb\core\xmc4000\usbd_endpoint_xmc4000.h **** 	 *
 230:c:\users\yushev\git\optiga-trust-qi\projects\xmc4700_relax_kit\common\dave\generated\usbd\usb\core\xmc4000\usbd_endpoint_xmc4000.h **** 	 *  \ingroup Group_EndpointRW_AVR8
 231:c:\users\yushev\git\optiga-trust-qi\projects\xmc4700_relax_kit\common\dave\generated\usbd\usb\core\xmc4000\usbd_endpoint_xmc4000.h **** 	 *
 232:c:\users\yushev\git\optiga-trust-qi\projects\xmc4700_relax_kit\common\dave\generated\usbd\usb\core\xmc4000\usbd_endpoint_xmc4000.h **** 	 *  \return Total number of bytes in the currently selected Endpoint's FIFO
 233:c:\users\yushev\git\optiga-trust-qi\projects\xmc4700_relax_kit\common\dave\generated\usbd\usb\core\xmc4000\usbd_endpoint_xmc4000.h **** 	 *  buffer.
 234:c:\users\yushev\git\optiga-trust-qi\projects\xmc4700_relax_kit\common\dave\generated\usbd\usb\core\xmc4000\usbd_endpoint_xmc4000.h **** 	 */
 235:c:\users\yushev\git\optiga-trust-qi\projects\xmc4700_relax_kit\common\dave\generated\usbd\usb\core\xmc4000\usbd_endpoint_xmc4000.h **** 	static inline uint16_t Endpoint_BytesInEndpoint(void);
 236:c:\users\yushev\git\optiga-trust-qi\projects\xmc4700_relax_kit\common\dave\generated\usbd\usb\core\xmc4000\usbd_endpoint_xmc4000.h **** 	static inline uint16_t Endpoint_BytesInEndpoint(void)
 237:c:\users\yushev\git\optiga-trust-qi\projects\xmc4700_relax_kit\common\dave\generated\usbd\usb\core\xmc4000\usbd_endpoint_xmc4000.h **** 	{
  58              	 .loc 1 237 0
  59              	 .cfi_startproc
  60              	 
  61              	 
  62              	 
 238:c:\users\yushev\git\optiga-trust-qi\projects\xmc4700_relax_kit\common\dave\generated\usbd\usb\core\xmc4000\usbd_endpoint_xmc4000.h **** 		USBD_Endpoint_t *ep = &device.Endpoints[device.CurrentEndpoint];
  63              	 .loc 1 238 0
  64 0000 054B     	 ldr r3,.L7
  65 0002 93F83C21 	 ldrb r2,[r3,#316]
  66              	.LVL2:
 239:c:\users\yushev\git\optiga-trust-qi\projects\xmc4700_relax_kit\common\dave\generated\usbd\usb\core\xmc4000\usbd_endpoint_xmc4000.h **** 		if (ep->Direction)
  67              	 .loc 1 239 0
  68 0006 2C21     	 movs r1,#44
  69 0008 01FB0233 	 mla r3,r1,r2,r3
  70 000c 1A79     	 ldrb r2,[r3,#4]
  71              	.LVL3:
  72 000e 1206     	 lsls r2,r2,#24
 240:c:\users\yushev\git\optiga-trust-qi\projects\xmc4700_relax_kit\common\dave\generated\usbd\usb\core\xmc4000\usbd_endpoint_xmc4000.h **** 			return (uint16_t)(ep->InBytesAvailable);
  73              	 .loc 1 240 0
  74 0010 4CBF     	 ite mi
  75 0012 988B     	 ldrhmi r0,[r3,#28]
 241:c:\users\yushev\git\optiga-trust-qi\projects\xmc4700_relax_kit\common\dave\generated\usbd\usb\core\xmc4000\usbd_endpoint_xmc4000.h **** 		else
 242:c:\users\yushev\git\optiga-trust-qi\projects\xmc4700_relax_kit\common\dave\generated\usbd\usb\core\xmc4000\usbd_endpoint_xmc4000.h **** 			return (uint16_t)(ep->OutBytesAvailable);
  76              	 .loc 1 242 0
  77 0014 9889     	 ldrhpl r0,[r3,#12]
 243:c:\users\yushev\git\optiga-trust-qi\projects\xmc4700_relax_kit\common\dave\generated\usbd\usb\core\xmc4000\usbd_endpoint_xmc4000.h **** 	}
  78              	 .loc 1 243 0
  79 0016 7047     	 bx lr
  80              	.L8:
  81              	 .align 2
  82              	.L7:
  83 0018 00000000 	 .word device
  84              	 .cfi_endproc
  85              	.LFE180:
  87              	 .section .text.CDC_Device_ProcessControlRequest,"ax",%progbits
  88              	 .align 1
  89              	 .global CDC_Device_ProcessControlRequest
  90              	 .thumb
  91              	 .thumb_func
  93              	CDC_Device_ProcessControlRequest:
  94              	.LFB187:
  95              	 .file 2 "C:/Users/Yushev/git/optiga-trust-qi/projects/xmc4700_relax_kit/common/Dave/Generated/USBD_VCOM/class_driver/device/cdc_class_device.c"
   1:C:/Users/Yushev/git/optiga-trust-qi/projects/xmc4700_relax_kit/common/Dave/Generated/USBD_VCOM/class_driver/device\cdc_class_device.c **** /**
   2:C:/Users/Yushev/git/optiga-trust-qi/projects/xmc4700_relax_kit/common/Dave/Generated/USBD_VCOM/class_driver/device\cdc_class_device.c ****  * @file cdc_class_device.c
   3:C:/Users/Yushev/git/optiga-trust-qi/projects/xmc4700_relax_kit/common/Dave/Generated/USBD_VCOM/class_driver/device\cdc_class_device.c ****  * @date 2015-06-20 
   4:C:/Users/Yushev/git/optiga-trust-qi/projects/xmc4700_relax_kit/common/Dave/Generated/USBD_VCOM/class_driver/device\cdc_class_device.c ****  *
   5:C:/Users/Yushev/git/optiga-trust-qi/projects/xmc4700_relax_kit/common/Dave/Generated/USBD_VCOM/class_driver/device\cdc_class_device.c ****  * @cond
   6:C:/Users/Yushev/git/optiga-trust-qi/projects/xmc4700_relax_kit/common/Dave/Generated/USBD_VCOM/class_driver/device\cdc_class_device.c ****  **************************************************************************************************
   7:C:/Users/Yushev/git/optiga-trust-qi/projects/xmc4700_relax_kit/common/Dave/Generated/USBD_VCOM/class_driver/device\cdc_class_device.c ****  * The USB virtual COM port driver for XMC4000 family of controllers.
   8:C:/Users/Yushev/git/optiga-trust-qi/projects/xmc4700_relax_kit/common/Dave/Generated/USBD_VCOM/class_driver/device\cdc_class_device.c ****  *
   9:C:/Users/Yushev/git/optiga-trust-qi/projects/xmc4700_relax_kit/common/Dave/Generated/USBD_VCOM/class_driver/device\cdc_class_device.c ****  * Copyright (c) 2015, Infineon Technologies AG
  10:C:/Users/Yushev/git/optiga-trust-qi/projects/xmc4700_relax_kit/common/Dave/Generated/USBD_VCOM/class_driver/device\cdc_class_device.c ****  * All rights reserved.                        
  11:C:/Users/Yushev/git/optiga-trust-qi/projects/xmc4700_relax_kit/common/Dave/Generated/USBD_VCOM/class_driver/device\cdc_class_device.c ****  *                                             
  12:C:/Users/Yushev/git/optiga-trust-qi/projects/xmc4700_relax_kit/common/Dave/Generated/USBD_VCOM/class_driver/device\cdc_class_device.c ****  * Redistribution and use in source and binary forms, with or without modification,are permitted pr
  13:C:/Users/Yushev/git/optiga-trust-qi/projects/xmc4700_relax_kit/common/Dave/Generated/USBD_VCOM/class_driver/device\cdc_class_device.c ****  * following conditions are met:   
  14:C:/Users/Yushev/git/optiga-trust-qi/projects/xmc4700_relax_kit/common/Dave/Generated/USBD_VCOM/class_driver/device\cdc_class_device.c ****  *                                                                              
  15:C:/Users/Yushev/git/optiga-trust-qi/projects/xmc4700_relax_kit/common/Dave/Generated/USBD_VCOM/class_driver/device\cdc_class_device.c ****  *   Redistributions of source code must retain the above copyright notice, this list of conditions
  16:C:/Users/Yushev/git/optiga-trust-qi/projects/xmc4700_relax_kit/common/Dave/Generated/USBD_VCOM/class_driver/device\cdc_class_device.c ****  *   disclaimer.                        
  17:C:/Users/Yushev/git/optiga-trust-qi/projects/xmc4700_relax_kit/common/Dave/Generated/USBD_VCOM/class_driver/device\cdc_class_device.c ****  * 
  18:C:/Users/Yushev/git/optiga-trust-qi/projects/xmc4700_relax_kit/common/Dave/Generated/USBD_VCOM/class_driver/device\cdc_class_device.c ****  *   Redistributions in binary form must reproduce the above copyright notice, this list of conditi
  19:C:/Users/Yushev/git/optiga-trust-qi/projects/xmc4700_relax_kit/common/Dave/Generated/USBD_VCOM/class_driver/device\cdc_class_device.c ****  *   following disclaimer in the documentation and/or other materials provided with the distributio
  20:C:/Users/Yushev/git/optiga-trust-qi/projects/xmc4700_relax_kit/common/Dave/Generated/USBD_VCOM/class_driver/device\cdc_class_device.c ****  *                         
  21:C:/Users/Yushev/git/optiga-trust-qi/projects/xmc4700_relax_kit/common/Dave/Generated/USBD_VCOM/class_driver/device\cdc_class_device.c ****  *   Neither the name of the copyright holders nor the names of its contributors may be used to end
  22:C:/Users/Yushev/git/optiga-trust-qi/projects/xmc4700_relax_kit/common/Dave/Generated/USBD_VCOM/class_driver/device\cdc_class_device.c ****  *   products derived from this software without specific prior written permission. 
  23:C:/Users/Yushev/git/optiga-trust-qi/projects/xmc4700_relax_kit/common/Dave/Generated/USBD_VCOM/class_driver/device\cdc_class_device.c ****  *                                             
  24:C:/Users/Yushev/git/optiga-trust-qi/projects/xmc4700_relax_kit/common/Dave/Generated/USBD_VCOM/class_driver/device\cdc_class_device.c ****  * THIS SOFTWARE IS PROVIDED BY THE COPYRIGHT HOLDERS AND CONTRIBUTORS "AS IS" AND ANY EXPRESS OR I
  25:C:/Users/Yushev/git/optiga-trust-qi/projects/xmc4700_relax_kit/common/Dave/Generated/USBD_VCOM/class_driver/device\cdc_class_device.c ****  * INCLUDING, BUT NOT LIMITED TO, THE IMPLIED WARRANTIES OF MERCHANTABILITY AND FITNESS FOR A PARTI
  26:C:/Users/Yushev/git/optiga-trust-qi/projects/xmc4700_relax_kit/common/Dave/Generated/USBD_VCOM/class_driver/device\cdc_class_device.c ****  * DISCLAIMED. IN NO EVENT SHALL THE COPYRIGHT HOLDER OR CONTRIBUTORS BE LIABLE  FOR ANY DIRECT, IN
  27:C:/Users/Yushev/git/optiga-trust-qi/projects/xmc4700_relax_kit/common/Dave/Generated/USBD_VCOM/class_driver/device\cdc_class_device.c ****  * SPECIAL, EXEMPLARY, OR CONSEQUENTIAL DAMAGES (INCLUDING, BUT NOT LIMITED TO, PROCUREMENT OF SUBS
  28:C:/Users/Yushev/git/optiga-trust-qi/projects/xmc4700_relax_kit/common/Dave/Generated/USBD_VCOM/class_driver/device\cdc_class_device.c ****  * SERVICES; LOSS OF USE, DATA, OR PROFITS; OR BUSINESS INTERRUPTION) HOWEVER CAUSED AND ON ANY THE
  29:C:/Users/Yushev/git/optiga-trust-qi/projects/xmc4700_relax_kit/common/Dave/Generated/USBD_VCOM/class_driver/device\cdc_class_device.c ****  * WHETHER IN CONTRACT, STRICT LIABILITY,OR TORT (INCLUDING NEGLIGENCE OR OTHERWISE) ARISING IN ANY
  30:C:/Users/Yushev/git/optiga-trust-qi/projects/xmc4700_relax_kit/common/Dave/Generated/USBD_VCOM/class_driver/device\cdc_class_device.c ****  * USE OF THIS SOFTWARE, EVEN IF ADVISED OF THE POSSIBILITY OF SUCH DAMAGE.    
  31:C:/Users/Yushev/git/optiga-trust-qi/projects/xmc4700_relax_kit/common/Dave/Generated/USBD_VCOM/class_driver/device\cdc_class_device.c ****  *                                                                              
  32:C:/Users/Yushev/git/optiga-trust-qi/projects/xmc4700_relax_kit/common/Dave/Generated/USBD_VCOM/class_driver/device\cdc_class_device.c ****  * To improve the quality of the software, users are encouraged to share modifications, enhancement
  33:C:/Users/Yushev/git/optiga-trust-qi/projects/xmc4700_relax_kit/common/Dave/Generated/USBD_VCOM/class_driver/device\cdc_class_device.c ****  * with Infineon Technologies AG (dave@infineon.com).        
  34:C:/Users/Yushev/git/optiga-trust-qi/projects/xmc4700_relax_kit/common/Dave/Generated/USBD_VCOM/class_driver/device\cdc_class_device.c ****  **************************************************************************************************
  35:C:/Users/Yushev/git/optiga-trust-qi/projects/xmc4700_relax_kit/common/Dave/Generated/USBD_VCOM/class_driver/device\cdc_class_device.c ****  *
  36:C:/Users/Yushev/git/optiga-trust-qi/projects/xmc4700_relax_kit/common/Dave/Generated/USBD_VCOM/class_driver/device\cdc_class_device.c ****  * Change History
  37:C:/Users/Yushev/git/optiga-trust-qi/projects/xmc4700_relax_kit/common/Dave/Generated/USBD_VCOM/class_driver/device\cdc_class_device.c ****  * --------------
  38:C:/Users/Yushev/git/optiga-trust-qi/projects/xmc4700_relax_kit/common/Dave/Generated/USBD_VCOM/class_driver/device\cdc_class_device.c ****  *
  39:C:/Users/Yushev/git/optiga-trust-qi/projects/xmc4700_relax_kit/common/Dave/Generated/USBD_VCOM/class_driver/device\cdc_class_device.c ****  * 2015-02-16:
  40:C:/Users/Yushev/git/optiga-trust-qi/projects/xmc4700_relax_kit/common/Dave/Generated/USBD_VCOM/class_driver/device\cdc_class_device.c ****  *     - Initial version.      
  41:C:/Users/Yushev/git/optiga-trust-qi/projects/xmc4700_relax_kit/common/Dave/Generated/USBD_VCOM/class_driver/device\cdc_class_device.c ****  * 2015-06-20:
  42:C:/Users/Yushev/git/optiga-trust-qi/projects/xmc4700_relax_kit/common/Dave/Generated/USBD_VCOM/class_driver/device\cdc_class_device.c ****  *     - Updated the file header.
  43:C:/Users/Yushev/git/optiga-trust-qi/projects/xmc4700_relax_kit/common/Dave/Generated/USBD_VCOM/class_driver/device\cdc_class_device.c ****  *     
  44:C:/Users/Yushev/git/optiga-trust-qi/projects/xmc4700_relax_kit/common/Dave/Generated/USBD_VCOM/class_driver/device\cdc_class_device.c ****  * @endcond 
  45:C:/Users/Yushev/git/optiga-trust-qi/projects/xmc4700_relax_kit/common/Dave/Generated/USBD_VCOM/class_driver/device\cdc_class_device.c ****  *
  46:C:/Users/Yushev/git/optiga-trust-qi/projects/xmc4700_relax_kit/common/Dave/Generated/USBD_VCOM/class_driver/device\cdc_class_device.c ****  */
  47:C:/Users/Yushev/git/optiga-trust-qi/projects/xmc4700_relax_kit/common/Dave/Generated/USBD_VCOM/class_driver/device\cdc_class_device.c **** /*
  48:C:/Users/Yushev/git/optiga-trust-qi/projects/xmc4700_relax_kit/common/Dave/Generated/USBD_VCOM/class_driver/device\cdc_class_device.c ****   Copyright 2014  Dean Camera (dean [at] fourwalledcubicle [dot] com)
  49:C:/Users/Yushev/git/optiga-trust-qi/projects/xmc4700_relax_kit/common/Dave/Generated/USBD_VCOM/class_driver/device\cdc_class_device.c **** 
  50:C:/Users/Yushev/git/optiga-trust-qi/projects/xmc4700_relax_kit/common/Dave/Generated/USBD_VCOM/class_driver/device\cdc_class_device.c ****   Permission to use, copy, modify, distribute, and sell this
  51:C:/Users/Yushev/git/optiga-trust-qi/projects/xmc4700_relax_kit/common/Dave/Generated/USBD_VCOM/class_driver/device\cdc_class_device.c ****   software and its documentation for any purpose is hereby granted
  52:C:/Users/Yushev/git/optiga-trust-qi/projects/xmc4700_relax_kit/common/Dave/Generated/USBD_VCOM/class_driver/device\cdc_class_device.c ****   without fee, provided that the above copyright notice appear in
  53:C:/Users/Yushev/git/optiga-trust-qi/projects/xmc4700_relax_kit/common/Dave/Generated/USBD_VCOM/class_driver/device\cdc_class_device.c ****   all copies and that both that the copyright notice and this
  54:C:/Users/Yushev/git/optiga-trust-qi/projects/xmc4700_relax_kit/common/Dave/Generated/USBD_VCOM/class_driver/device\cdc_class_device.c ****   permission notice and warranty disclaimer appear in supporting
  55:C:/Users/Yushev/git/optiga-trust-qi/projects/xmc4700_relax_kit/common/Dave/Generated/USBD_VCOM/class_driver/device\cdc_class_device.c ****   documentation, and that the name of the author not be used in
  56:C:/Users/Yushev/git/optiga-trust-qi/projects/xmc4700_relax_kit/common/Dave/Generated/USBD_VCOM/class_driver/device\cdc_class_device.c ****   advertising or publicity pertaining to distribution of the
  57:C:/Users/Yushev/git/optiga-trust-qi/projects/xmc4700_relax_kit/common/Dave/Generated/USBD_VCOM/class_driver/device\cdc_class_device.c ****   software without specific, written prior permission.
  58:C:/Users/Yushev/git/optiga-trust-qi/projects/xmc4700_relax_kit/common/Dave/Generated/USBD_VCOM/class_driver/device\cdc_class_device.c **** 
  59:C:/Users/Yushev/git/optiga-trust-qi/projects/xmc4700_relax_kit/common/Dave/Generated/USBD_VCOM/class_driver/device\cdc_class_device.c ****   The author disclaims all warranties with regard to this
  60:C:/Users/Yushev/git/optiga-trust-qi/projects/xmc4700_relax_kit/common/Dave/Generated/USBD_VCOM/class_driver/device\cdc_class_device.c ****   software, including all implied warranties of merchantability
  61:C:/Users/Yushev/git/optiga-trust-qi/projects/xmc4700_relax_kit/common/Dave/Generated/USBD_VCOM/class_driver/device\cdc_class_device.c ****   and fitness.  In no event shall the author be liable for any
  62:C:/Users/Yushev/git/optiga-trust-qi/projects/xmc4700_relax_kit/common/Dave/Generated/USBD_VCOM/class_driver/device\cdc_class_device.c ****   special, indirect or consequential damages or any damages
  63:C:/Users/Yushev/git/optiga-trust-qi/projects/xmc4700_relax_kit/common/Dave/Generated/USBD_VCOM/class_driver/device\cdc_class_device.c ****   whatsoever resulting from loss of use, data or profits, whether
  64:C:/Users/Yushev/git/optiga-trust-qi/projects/xmc4700_relax_kit/common/Dave/Generated/USBD_VCOM/class_driver/device\cdc_class_device.c ****   in an action of contract, negligence or other tortious action,
  65:C:/Users/Yushev/git/optiga-trust-qi/projects/xmc4700_relax_kit/common/Dave/Generated/USBD_VCOM/class_driver/device\cdc_class_device.c ****   arising out of or in connection with the use or performance of
  66:C:/Users/Yushev/git/optiga-trust-qi/projects/xmc4700_relax_kit/common/Dave/Generated/USBD_VCOM/class_driver/device\cdc_class_device.c ****   this software.
  67:C:/Users/Yushev/git/optiga-trust-qi/projects/xmc4700_relax_kit/common/Dave/Generated/USBD_VCOM/class_driver/device\cdc_class_device.c **** */
  68:C:/Users/Yushev/git/optiga-trust-qi/projects/xmc4700_relax_kit/common/Dave/Generated/USBD_VCOM/class_driver/device\cdc_class_device.c **** 
  69:C:/Users/Yushev/git/optiga-trust-qi/projects/xmc4700_relax_kit/common/Dave/Generated/USBD_VCOM/class_driver/device\cdc_class_device.c **** 
  70:C:/Users/Yushev/git/optiga-trust-qi/projects/xmc4700_relax_kit/common/Dave/Generated/USBD_VCOM/class_driver/device\cdc_class_device.c **** #define  __INCLUDE_FROM_USB_DRIVER
  71:C:/Users/Yushev/git/optiga-trust-qi/projects/xmc4700_relax_kit/common/Dave/Generated/USBD_VCOM/class_driver/device\cdc_class_device.c **** 
  72:C:/Users/Yushev/git/optiga-trust-qi/projects/xmc4700_relax_kit/common/Dave/Generated/USBD_VCOM/class_driver/device\cdc_class_device.c **** /**************************************************************************************************
  73:C:/Users/Yushev/git/optiga-trust-qi/projects/xmc4700_relax_kit/common/Dave/Generated/USBD_VCOM/class_driver/device\cdc_class_device.c ****  * HEADER FILES                                                                                    
  74:C:/Users/Yushev/git/optiga-trust-qi/projects/xmc4700_relax_kit/common/Dave/Generated/USBD_VCOM/class_driver/device\cdc_class_device.c ****  **************************************************************************************************
  75:C:/Users/Yushev/git/optiga-trust-qi/projects/xmc4700_relax_kit/common/Dave/Generated/USBD_VCOM/class_driver/device\cdc_class_device.c **** #include  "../../../USBD/usb/core/usb_mode.h" /*IFX*/
  76:C:/Users/Yushev/git/optiga-trust-qi/projects/xmc4700_relax_kit/common/Dave/Generated/USBD_VCOM/class_driver/device\cdc_class_device.c **** 
  77:C:/Users/Yushev/git/optiga-trust-qi/projects/xmc4700_relax_kit/common/Dave/Generated/USBD_VCOM/class_driver/device\cdc_class_device.c **** #if defined(USB_CAN_BE_DEVICE)
  78:C:/Users/Yushev/git/optiga-trust-qi/projects/xmc4700_relax_kit/common/Dave/Generated/USBD_VCOM/class_driver/device\cdc_class_device.c **** 
  79:C:/Users/Yushev/git/optiga-trust-qi/projects/xmc4700_relax_kit/common/Dave/Generated/USBD_VCOM/class_driver/device\cdc_class_device.c **** #define  __INCLUDE_FROM_CDC_DRIVER
  80:C:/Users/Yushev/git/optiga-trust-qi/projects/xmc4700_relax_kit/common/Dave/Generated/USBD_VCOM/class_driver/device\cdc_class_device.c **** #define  __INCLUDE_FROM_CDC_DEVICE_C
  81:C:/Users/Yushev/git/optiga-trust-qi/projects/xmc4700_relax_kit/common/Dave/Generated/USBD_VCOM/class_driver/device\cdc_class_device.c **** #include "cdc_class_device.h"
  82:C:/Users/Yushev/git/optiga-trust-qi/projects/xmc4700_relax_kit/common/Dave/Generated/USBD_VCOM/class_driver/device\cdc_class_device.c **** #include "../../usbd_vcom.h"
  83:C:/Users/Yushev/git/optiga-trust-qi/projects/xmc4700_relax_kit/common/Dave/Generated/USBD_VCOM/class_driver/device\cdc_class_device.c **** 
  84:C:/Users/Yushev/git/optiga-trust-qi/projects/xmc4700_relax_kit/common/Dave/Generated/USBD_VCOM/class_driver/device\cdc_class_device.c **** extern USB_CDCClass_event_CB_t cdc_class_events;
  85:C:/Users/Yushev/git/optiga-trust-qi/projects/xmc4700_relax_kit/common/Dave/Generated/USBD_VCOM/class_driver/device\cdc_class_device.c **** 
  86:C:/Users/Yushev/git/optiga-trust-qi/projects/xmc4700_relax_kit/common/Dave/Generated/USBD_VCOM/class_driver/device\cdc_class_device.c **** /**************************************************************************************************
  87:C:/Users/Yushev/git/optiga-trust-qi/projects/xmc4700_relax_kit/common/Dave/Generated/USBD_VCOM/class_driver/device\cdc_class_device.c ****  * API IMPLEMENTATION
  88:C:/Users/Yushev/git/optiga-trust-qi/projects/xmc4700_relax_kit/common/Dave/Generated/USBD_VCOM/class_driver/device\cdc_class_device.c ****  **************************************************************************************************
  89:C:/Users/Yushev/git/optiga-trust-qi/projects/xmc4700_relax_kit/common/Dave/Generated/USBD_VCOM/class_driver/device\cdc_class_device.c **** void CDC_Device_ProcessControlRequest(
  90:C:/Users/Yushev/git/optiga-trust-qi/projects/xmc4700_relax_kit/common/Dave/Generated/USBD_VCOM/class_driver/device\cdc_class_device.c **** 					USB_ClassInfo_CDC_Device_t* const CDCInterfaceInfo)
  91:C:/Users/Yushev/git/optiga-trust-qi/projects/xmc4700_relax_kit/common/Dave/Generated/USBD_VCOM/class_driver/device\cdc_class_device.c **** {
  96              	 .loc 2 91 0
  97              	 .cfi_startproc
  98              	 
  99              	 
 100              	.LVL4:
 101 0000 10B5     	 push {r4,lr}
 102              	.LCFI0:
 103              	 .cfi_def_cfa_offset 8
 104              	 .cfi_offset 4,-8
 105              	 .cfi_offset 14,-4
 106              	.LBB40:
 107              	.LBB41:
 158:c:\users\yushev\git\optiga-trust-qi\projects\xmc4700_relax_kit\common\dave\generated\usbd\usb\core\xmc4000\usbd_endpoint_xmc4000.h **** 	}
 108              	 .loc 1 158 0
 109 0002 424B     	 ldr r3,.L41
 110 0004 93F83E21 	 ldrb r2,[r3,#318]
 111              	.LBE41:
 112              	.LBE40:
  92:C:/Users/Yushev/git/optiga-trust-qi/projects/xmc4700_relax_kit/common/Dave/Generated/USBD_VCOM/class_driver/device\cdc_class_device.c **** 	if ((Endpoint_IsSETUPReceived() != 0) && (USB_ControlRequest.wIndex ==
 113              	 .loc 2 92 0
 114 0008 9207     	 lsls r2,r2,#30
  91:C:/Users/Yushev/git/optiga-trust-qi/projects/xmc4700_relax_kit/common/Dave/Generated/USBD_VCOM/class_driver/device\cdc_class_device.c **** 	if ((Endpoint_IsSETUPReceived() != 0) && (USB_ControlRequest.wIndex ==
 115              	 .loc 2 91 0
 116 000a 0446     	 mov r4,r0
 117              	 .loc 2 92 0
 118 000c 7CD5     	 bpl .L9
 119              	 .loc 2 92 0 is_stmt 0 discriminator 1
 120 000e 404A     	 ldr r2,.L41+4
 121 0010 807C     	 ldrb r0,[r0,#18]
 122              	.LVL5:
 123 0012 9188     	 ldrh r1,[r2,#4]
 124 0014 89B2     	 uxth r1,r1
 125 0016 8842     	 cmp r0,r1
 126 0018 76D1     	 bne .L9
  93:C:/Users/Yushev/git/optiga-trust-qi/projects/xmc4700_relax_kit/common/Dave/Generated/USBD_VCOM/class_driver/device\cdc_class_device.c **** 			CDCInterfaceInfo->Config.ControlInterfaceNumber))
  94:C:/Users/Yushev/git/optiga-trust-qi/projects/xmc4700_relax_kit/common/Dave/Generated/USBD_VCOM/class_driver/device\cdc_class_device.c **** 	{
  95:C:/Users/Yushev/git/optiga-trust-qi/projects/xmc4700_relax_kit/common/Dave/Generated/USBD_VCOM/class_driver/device\cdc_class_device.c **** 
  96:C:/Users/Yushev/git/optiga-trust-qi/projects/xmc4700_relax_kit/common/Dave/Generated/USBD_VCOM/class_driver/device\cdc_class_device.c **** 		switch (USB_ControlRequest.bRequest)
 127              	 .loc 2 96 0 is_stmt 1
 128 001a 5178     	 ldrb r1,[r2,#1]
 129 001c 2039     	 subs r1,r1,#32
 130 001e 0329     	 cmp r1,#3
 131 0020 72D8     	 bhi .L9
 132 0022 DFE801F0 	 tbb [pc,r1]
 133              	.L14:
 134 0026 26       	 .byte (.L13-.L14)/2
 135 0027 02       	 .byte (.L15-.L14)/2
 136 0028 4B       	 .byte (.L16-.L14)/2
 137 0029 5E       	 .byte (.L17-.L14)/2
 138              	 .p2align 1
 139              	.L15:
  97:C:/Users/Yushev/git/optiga-trust-qi/projects/xmc4700_relax_kit/common/Dave/Generated/USBD_VCOM/class_driver/device\cdc_class_device.c **** 		{
  98:C:/Users/Yushev/git/optiga-trust-qi/projects/xmc4700_relax_kit/common/Dave/Generated/USBD_VCOM/class_driver/device\cdc_class_device.c **** 			case CDC_REQ_GetLineEncoding:
  99:C:/Users/Yushev/git/optiga-trust-qi/projects/xmc4700_relax_kit/common/Dave/Generated/USBD_VCOM/class_driver/device\cdc_class_device.c **** 				if ((REQDIR_DEVICETOHOST | REQTYPE_CLASS | REQREC_INTERFACE) == USB_ControlRequest.bmRequestTyp
 140              	 .loc 2 99 0
 141 002a 1278     	 ldrb r2,[r2]
 142 002c A12A     	 cmp r2,#161
 143 002e 6BD1     	 bne .L9
 144              	.LBB42:
 145              	.LBB43:
 173:c:\users\yushev\git\optiga-trust-qi\projects\xmc4700_relax_kit\common\dave\generated\usbd\usb\core\xmc4000\usbd_endpoint_xmc4000.h **** 	}
 146              	 .loc 1 173 0
 147 0030 93F83E21 	 ldrb r2,[r3,#318]
 148              	.LBE43:
 149              	.LBE42:
 150              	.LBB45:
 151              	.LBB46:
 196:c:\users\yushev\git\optiga-trust-qi\projects\xmc4700_relax_kit\common\dave\generated\usbd\usb\core\xmc4000\usbd_endpoint_xmc4000.h **** 		return ep->InInUse == 0 && ep->IsEnabled;
 152              	 .loc 1 196 0
 153 0034 93F83C11 	 ldrb r1,[r3,#316]
 154              	.LBE46:
 155              	.LBE45:
 156              	.LBB48:
 157              	.LBB44:
 173:c:\users\yushev\git\optiga-trust-qi\projects\xmc4700_relax_kit\common\dave\generated\usbd\usb\core\xmc4000\usbd_endpoint_xmc4000.h **** 	}
 158              	 .loc 1 173 0
 159 0038 22F00202 	 bic r2,r2,#2
 160 003c 83F83E21 	 strb r2,[r3,#318]
 161              	.L18:
 162              	.LVL6:
 163              	.LBE44:
 164              	.LBE48:
 165              	.LBB49:
 166              	.LBB47:
 197:c:\users\yushev\git\optiga-trust-qi\projects\xmc4700_relax_kit\common\dave\generated\usbd\usb\core\xmc4000\usbd_endpoint_xmc4000.h **** 	}
 167              	 .loc 1 197 0 discriminator 1
 168 0040 2C22     	 movs r2,#44
 169 0042 02FB0132 	 mla r2,r2,r1,r3
 170 0046 9068     	 ldr r0,[r2,#8]
 171 0048 C006     	 lsls r0,r0,#27
 172 004a F9D4     	 bmi .L18
 197:c:\users\yushev\git\optiga-trust-qi\projects\xmc4700_relax_kit\common\dave\generated\usbd\usb\core\xmc4000\usbd_endpoint_xmc4000.h **** 	}
 173              	 .loc 1 197 0 is_stmt 0
 174 004c 9268     	 ldr r2,[r2,#8]
 175 004e 9007     	 lsls r0,r2,#30
 176 0050 F6D5     	 bpl .L18
 177              	.LBE47:
 178              	.LBE49:
 100:C:/Users/Yushev/git/optiga-trust-qi/projects/xmc4700_relax_kit/common/Dave/Generated/USBD_VCOM/class_driver/device\cdc_class_device.c **** 				{
 101:C:/Users/Yushev/git/optiga-trust-qi/projects/xmc4700_relax_kit/common/Dave/Generated/USBD_VCOM/class_driver/device\cdc_class_device.c **** 					Endpoint_ClearSETUP();
 102:C:/Users/Yushev/git/optiga-trust-qi/projects/xmc4700_relax_kit/common/Dave/Generated/USBD_VCOM/class_driver/device\cdc_class_device.c **** 
 103:C:/Users/Yushev/git/optiga-trust-qi/projects/xmc4700_relax_kit/common/Dave/Generated/USBD_VCOM/class_driver/device\cdc_class_device.c **** 					while (!(Endpoint_IsINReady()));
 104:C:/Users/Yushev/git/optiga-trust-qi/projects/xmc4700_relax_kit/common/Dave/Generated/USBD_VCOM/class_driver/device\cdc_class_device.c **** 
 105:C:/Users/Yushev/git/optiga-trust-qi/projects/xmc4700_relax_kit/common/Dave/Generated/USBD_VCOM/class_driver/device\cdc_class_device.c **** 					Endpoint_Write_32_LE(CDCInterfaceInfo->State.LineEncoding.BaudRateBPS);
 179              	 .loc 2 105 0 is_stmt 1
 180 0052 A069     	 ldr r0,[r4,#24]
 181 0054 FFF7FEFF 	 bl Endpoint_Write_32_LE
 182              	.LVL7:
 106:C:/Users/Yushev/git/optiga-trust-qi/projects/xmc4700_relax_kit/common/Dave/Generated/USBD_VCOM/class_driver/device\cdc_class_device.c **** 					Endpoint_Write_8(CDCInterfaceInfo->State.LineEncoding.CharFormat);
 183              	 .loc 2 106 0
 184 0058 207F     	 ldrb r0,[r4,#28]
 185 005a FFF7FEFF 	 bl Endpoint_Write_8
 186              	.LVL8:
 107:C:/Users/Yushev/git/optiga-trust-qi/projects/xmc4700_relax_kit/common/Dave/Generated/USBD_VCOM/class_driver/device\cdc_class_device.c **** 					Endpoint_Write_8(CDCInterfaceInfo->State.LineEncoding.ParityType);
 187              	 .loc 2 107 0
 188 005e 607F     	 ldrb r0,[r4,#29]
 189 0060 FFF7FEFF 	 bl Endpoint_Write_8
 190              	.LVL9:
 108:C:/Users/Yushev/git/optiga-trust-qi/projects/xmc4700_relax_kit/common/Dave/Generated/USBD_VCOM/class_driver/device\cdc_class_device.c **** 					Endpoint_Write_8(CDCInterfaceInfo->State.LineEncoding.DataBits);
 191              	 .loc 2 108 0
 192 0064 A07F     	 ldrb r0,[r4,#30]
 193 0066 FFF7FEFF 	 bl Endpoint_Write_8
 194              	.LVL10:
 109:C:/Users/Yushev/git/optiga-trust-qi/projects/xmc4700_relax_kit/common/Dave/Generated/USBD_VCOM/class_driver/device\cdc_class_device.c **** 
 110:C:/Users/Yushev/git/optiga-trust-qi/projects/xmc4700_relax_kit/common/Dave/Generated/USBD_VCOM/class_driver/device\cdc_class_device.c **** 					Endpoint_ClearIN();
 111:C:/Users/Yushev/git/optiga-trust-qi/projects/xmc4700_relax_kit/common/Dave/Generated/USBD_VCOM/class_driver/device\cdc_class_device.c **** 					Endpoint_ClearStatusStage();
 112:C:/Users/Yushev/git/optiga-trust-qi/projects/xmc4700_relax_kit/common/Dave/Generated/USBD_VCOM/class_driver/device\cdc_class_device.c **** 				}
 113:C:/Users/Yushev/git/optiga-trust-qi/projects/xmc4700_relax_kit/common/Dave/Generated/USBD_VCOM/class_driver/device\cdc_class_device.c **** 
 114:C:/Users/Yushev/git/optiga-trust-qi/projects/xmc4700_relax_kit/common/Dave/Generated/USBD_VCOM/class_driver/device\cdc_class_device.c **** 				break;
 115:C:/Users/Yushev/git/optiga-trust-qi/projects/xmc4700_relax_kit/common/Dave/Generated/USBD_VCOM/class_driver/device\cdc_class_device.c **** 			case CDC_REQ_SetLineEncoding:
 116:C:/Users/Yushev/git/optiga-trust-qi/projects/xmc4700_relax_kit/common/Dave/Generated/USBD_VCOM/class_driver/device\cdc_class_device.c **** 				if ((REQDIR_HOSTTODEVICE |REQTYPE_CLASS | REQREC_INTERFACE) == USB_ControlRequest.bmRequestType
 117:C:/Users/Yushev/git/optiga-trust-qi/projects/xmc4700_relax_kit/common/Dave/Generated/USBD_VCOM/class_driver/device\cdc_class_device.c **** 				{
 118:C:/Users/Yushev/git/optiga-trust-qi/projects/xmc4700_relax_kit/common/Dave/Generated/USBD_VCOM/class_driver/device\cdc_class_device.c **** 					Endpoint_ClearSETUP();
 119:C:/Users/Yushev/git/optiga-trust-qi/projects/xmc4700_relax_kit/common/Dave/Generated/USBD_VCOM/class_driver/device\cdc_class_device.c **** 
 120:C:/Users/Yushev/git/optiga-trust-qi/projects/xmc4700_relax_kit/common/Dave/Generated/USBD_VCOM/class_driver/device\cdc_class_device.c **** 					while (!(Endpoint_IsOUTReceived()))
 121:C:/Users/Yushev/git/optiga-trust-qi/projects/xmc4700_relax_kit/common/Dave/Generated/USBD_VCOM/class_driver/device\cdc_class_device.c **** 					{
 122:C:/Users/Yushev/git/optiga-trust-qi/projects/xmc4700_relax_kit/common/Dave/Generated/USBD_VCOM/class_driver/device\cdc_class_device.c **** 						if (USB_DeviceState == DEVICE_STATE_Unattached)
 123:C:/Users/Yushev/git/optiga-trust-qi/projects/xmc4700_relax_kit/common/Dave/Generated/USBD_VCOM/class_driver/device\cdc_class_device.c **** 						  return;
 124:C:/Users/Yushev/git/optiga-trust-qi/projects/xmc4700_relax_kit/common/Dave/Generated/USBD_VCOM/class_driver/device\cdc_class_device.c **** 					}
 125:C:/Users/Yushev/git/optiga-trust-qi/projects/xmc4700_relax_kit/common/Dave/Generated/USBD_VCOM/class_driver/device\cdc_class_device.c **** 
 126:C:/Users/Yushev/git/optiga-trust-qi/projects/xmc4700_relax_kit/common/Dave/Generated/USBD_VCOM/class_driver/device\cdc_class_device.c **** 					CDCInterfaceInfo->State.LineEncoding.BaudRateBPS = Endpoint_Read_32_LE();
 127:C:/Users/Yushev/git/optiga-trust-qi/projects/xmc4700_relax_kit/common/Dave/Generated/USBD_VCOM/class_driver/device\cdc_class_device.c **** 					CDCInterfaceInfo->State.LineEncoding.CharFormat  = Endpoint_Read_8();
 128:C:/Users/Yushev/git/optiga-trust-qi/projects/xmc4700_relax_kit/common/Dave/Generated/USBD_VCOM/class_driver/device\cdc_class_device.c **** 					CDCInterfaceInfo->State.LineEncoding.ParityType  = Endpoint_Read_8();
 129:C:/Users/Yushev/git/optiga-trust-qi/projects/xmc4700_relax_kit/common/Dave/Generated/USBD_VCOM/class_driver/device\cdc_class_device.c **** 					CDCInterfaceInfo->State.LineEncoding.DataBits    = Endpoint_Read_8();
 130:C:/Users/Yushev/git/optiga-trust-qi/projects/xmc4700_relax_kit/common/Dave/Generated/USBD_VCOM/class_driver/device\cdc_class_device.c **** 
 131:C:/Users/Yushev/git/optiga-trust-qi/projects/xmc4700_relax_kit/common/Dave/Generated/USBD_VCOM/class_driver/device\cdc_class_device.c **** 					//Endpoint_ClearOUT();
 132:C:/Users/Yushev/git/optiga-trust-qi/projects/xmc4700_relax_kit/common/Dave/Generated/USBD_VCOM/class_driver/device\cdc_class_device.c **** 					Endpoint_ClearStatusStage();
 133:C:/Users/Yushev/git/optiga-trust-qi/projects/xmc4700_relax_kit/common/Dave/Generated/USBD_VCOM/class_driver/device\cdc_class_device.c **** 
 134:C:/Users/Yushev/git/optiga-trust-qi/projects/xmc4700_relax_kit/common/Dave/Generated/USBD_VCOM/class_driver/device\cdc_class_device.c **** 					if(0 != cdc_class_events.LineEncodingChanged)
 135:C:/Users/Yushev/git/optiga-trust-qi/projects/xmc4700_relax_kit/common/Dave/Generated/USBD_VCOM/class_driver/device\cdc_class_device.c **** 					{
 136:C:/Users/Yushev/git/optiga-trust-qi/projects/xmc4700_relax_kit/common/Dave/Generated/USBD_VCOM/class_driver/device\cdc_class_device.c **** 						cdc_class_events.LineEncodingChanged(CDCInterfaceInfo);
 137:C:/Users/Yushev/git/optiga-trust-qi/projects/xmc4700_relax_kit/common/Dave/Generated/USBD_VCOM/class_driver/device\cdc_class_device.c **** 					}
 138:C:/Users/Yushev/git/optiga-trust-qi/projects/xmc4700_relax_kit/common/Dave/Generated/USBD_VCOM/class_driver/device\cdc_class_device.c **** 
 139:C:/Users/Yushev/git/optiga-trust-qi/projects/xmc4700_relax_kit/common/Dave/Generated/USBD_VCOM/class_driver/device\cdc_class_device.c **** 				}
 140:C:/Users/Yushev/git/optiga-trust-qi/projects/xmc4700_relax_kit/common/Dave/Generated/USBD_VCOM/class_driver/device\cdc_class_device.c **** 
 141:C:/Users/Yushev/git/optiga-trust-qi/projects/xmc4700_relax_kit/common/Dave/Generated/USBD_VCOM/class_driver/device\cdc_class_device.c **** 				break;
 142:C:/Users/Yushev/git/optiga-trust-qi/projects/xmc4700_relax_kit/common/Dave/Generated/USBD_VCOM/class_driver/device\cdc_class_device.c **** 			case CDC_REQ_SetControlLineState:
 143:C:/Users/Yushev/git/optiga-trust-qi/projects/xmc4700_relax_kit/common/Dave/Generated/USBD_VCOM/class_driver/device\cdc_class_device.c **** 				if ((REQDIR_HOSTTODEVICE | REQTYPE_CLASS | REQREC_INTERFACE) == USB_ControlRequest.bmRequestTyp
 144:C:/Users/Yushev/git/optiga-trust-qi/projects/xmc4700_relax_kit/common/Dave/Generated/USBD_VCOM/class_driver/device\cdc_class_device.c **** 				{
 145:C:/Users/Yushev/git/optiga-trust-qi/projects/xmc4700_relax_kit/common/Dave/Generated/USBD_VCOM/class_driver/device\cdc_class_device.c **** 					Endpoint_ClearSETUP();
 146:C:/Users/Yushev/git/optiga-trust-qi/projects/xmc4700_relax_kit/common/Dave/Generated/USBD_VCOM/class_driver/device\cdc_class_device.c **** 					Endpoint_ClearStatusStage();
 147:C:/Users/Yushev/git/optiga-trust-qi/projects/xmc4700_relax_kit/common/Dave/Generated/USBD_VCOM/class_driver/device\cdc_class_device.c **** 
 148:C:/Users/Yushev/git/optiga-trust-qi/projects/xmc4700_relax_kit/common/Dave/Generated/USBD_VCOM/class_driver/device\cdc_class_device.c **** 					CDCInterfaceInfo->State.ControlLineStates.HostToDevice = USB_ControlRequest.wValue;
 149:C:/Users/Yushev/git/optiga-trust-qi/projects/xmc4700_relax_kit/common/Dave/Generated/USBD_VCOM/class_driver/device\cdc_class_device.c **** 
 150:C:/Users/Yushev/git/optiga-trust-qi/projects/xmc4700_relax_kit/common/Dave/Generated/USBD_VCOM/class_driver/device\cdc_class_device.c **** 					if(0 != cdc_class_events.ControLineStateChanged)
 151:C:/Users/Yushev/git/optiga-trust-qi/projects/xmc4700_relax_kit/common/Dave/Generated/USBD_VCOM/class_driver/device\cdc_class_device.c **** 					{
 152:C:/Users/Yushev/git/optiga-trust-qi/projects/xmc4700_relax_kit/common/Dave/Generated/USBD_VCOM/class_driver/device\cdc_class_device.c **** 						cdc_class_events.ControLineStateChanged(CDCInterfaceInfo);
 153:C:/Users/Yushev/git/optiga-trust-qi/projects/xmc4700_relax_kit/common/Dave/Generated/USBD_VCOM/class_driver/device\cdc_class_device.c **** 					}
 154:C:/Users/Yushev/git/optiga-trust-qi/projects/xmc4700_relax_kit/common/Dave/Generated/USBD_VCOM/class_driver/device\cdc_class_device.c **** 
 155:C:/Users/Yushev/git/optiga-trust-qi/projects/xmc4700_relax_kit/common/Dave/Generated/USBD_VCOM/class_driver/device\cdc_class_device.c **** 				}
 156:C:/Users/Yushev/git/optiga-trust-qi/projects/xmc4700_relax_kit/common/Dave/Generated/USBD_VCOM/class_driver/device\cdc_class_device.c **** 
 157:C:/Users/Yushev/git/optiga-trust-qi/projects/xmc4700_relax_kit/common/Dave/Generated/USBD_VCOM/class_driver/device\cdc_class_device.c **** 				break;
 158:C:/Users/Yushev/git/optiga-trust-qi/projects/xmc4700_relax_kit/common/Dave/Generated/USBD_VCOM/class_driver/device\cdc_class_device.c **** 			case CDC_REQ_SendBreak:
 159:C:/Users/Yushev/git/optiga-trust-qi/projects/xmc4700_relax_kit/common/Dave/Generated/USBD_VCOM/class_driver/device\cdc_class_device.c **** 				if ((REQDIR_HOSTTODEVICE | REQTYPE_CLASS | REQREC_INTERFACE) == USB_ControlRequest.bmRequestTyp
 160:C:/Users/Yushev/git/optiga-trust-qi/projects/xmc4700_relax_kit/common/Dave/Generated/USBD_VCOM/class_driver/device\cdc_class_device.c **** 				{
 161:C:/Users/Yushev/git/optiga-trust-qi/projects/xmc4700_relax_kit/common/Dave/Generated/USBD_VCOM/class_driver/device\cdc_class_device.c **** 					Endpoint_ClearSETUP();
 162:C:/Users/Yushev/git/optiga-trust-qi/projects/xmc4700_relax_kit/common/Dave/Generated/USBD_VCOM/class_driver/device\cdc_class_device.c **** 					Endpoint_ClearStatusStage();
 163:C:/Users/Yushev/git/optiga-trust-qi/projects/xmc4700_relax_kit/common/Dave/Generated/USBD_VCOM/class_driver/device\cdc_class_device.c **** 
 164:C:/Users/Yushev/git/optiga-trust-qi/projects/xmc4700_relax_kit/common/Dave/Generated/USBD_VCOM/class_driver/device\cdc_class_device.c **** 					if(0 != cdc_class_events.Device_BreakSent)
 165:C:/Users/Yushev/git/optiga-trust-qi/projects/xmc4700_relax_kit/common/Dave/Generated/USBD_VCOM/class_driver/device\cdc_class_device.c **** 					{
 166:C:/Users/Yushev/git/optiga-trust-qi/projects/xmc4700_relax_kit/common/Dave/Generated/USBD_VCOM/class_driver/device\cdc_class_device.c **** 						cdc_class_events.Device_BreakSent(CDCInterfaceInfo,	(uint8_t)USB_ControlRequest.wValue);
 167:C:/Users/Yushev/git/optiga-trust-qi/projects/xmc4700_relax_kit/common/Dave/Generated/USBD_VCOM/class_driver/device\cdc_class_device.c **** 					}
 168:C:/Users/Yushev/git/optiga-trust-qi/projects/xmc4700_relax_kit/common/Dave/Generated/USBD_VCOM/class_driver/device\cdc_class_device.c **** 
 169:C:/Users/Yushev/git/optiga-trust-qi/projects/xmc4700_relax_kit/common/Dave/Generated/USBD_VCOM/class_driver/device\cdc_class_device.c **** 				}
 170:C:/Users/Yushev/git/optiga-trust-qi/projects/xmc4700_relax_kit/common/Dave/Generated/USBD_VCOM/class_driver/device\cdc_class_device.c **** 
 171:C:/Users/Yushev/git/optiga-trust-qi/projects/xmc4700_relax_kit/common/Dave/Generated/USBD_VCOM/class_driver/device\cdc_class_device.c **** 				break;
 172:C:/Users/Yushev/git/optiga-trust-qi/projects/xmc4700_relax_kit/common/Dave/Generated/USBD_VCOM/class_driver/device\cdc_class_device.c **** 		}
 173:C:/Users/Yushev/git/optiga-trust-qi/projects/xmc4700_relax_kit/common/Dave/Generated/USBD_VCOM/class_driver/device\cdc_class_device.c **** 	}
 174:C:/Users/Yushev/git/optiga-trust-qi/projects/xmc4700_relax_kit/common/Dave/Generated/USBD_VCOM/class_driver/device\cdc_class_device.c **** }
 195              	 .loc 2 174 0
 196 006a BDE81040 	 pop {r4,lr}
 197              	.LCFI1:
 198              	 .cfi_remember_state
 199              	 .cfi_restore 14
 200              	 .cfi_restore 4
 201              	 .cfi_def_cfa_offset 0
 202              	.LVL11:
 110:C:/Users/Yushev/git/optiga-trust-qi/projects/xmc4700_relax_kit/common/Dave/Generated/USBD_VCOM/class_driver/device\cdc_class_device.c **** 					Endpoint_ClearStatusStage();
 203              	 .loc 2 110 0
 204 006e FFF7FEBF 	 b Endpoint_ClearIN
 205              	.LVL12:
 206              	.L13:
 207              	.LCFI2:
 208              	 .cfi_restore_state
 116:C:/Users/Yushev/git/optiga-trust-qi/projects/xmc4700_relax_kit/common/Dave/Generated/USBD_VCOM/class_driver/device\cdc_class_device.c **** 				{
 209              	 .loc 2 116 0
 210 0072 1278     	 ldrb r2,[r2]
 211 0074 212A     	 cmp r2,#33
 212 0076 47D1     	 bne .L9
 213              	.LBB50:
 214              	.LBB51:
 173:c:\users\yushev\git\optiga-trust-qi\projects\xmc4700_relax_kit\common\dave\generated\usbd\usb\core\xmc4000\usbd_endpoint_xmc4000.h **** 	}
 215              	 .loc 1 173 0
 216 0078 93F83E21 	 ldrb r2,[r3,#318]
 217              	.LBE51:
 218              	.LBE50:
 219              	.LBB53:
 220              	.LBB54:
 211:c:\users\yushev\git\optiga-trust-qi\projects\xmc4700_relax_kit\common\dave\generated\usbd\usb\core\xmc4000\usbd_endpoint_xmc4000.h **** 		return ep->IsOutRecieved;
 221              	 .loc 1 211 0
 222 007c 93F83C11 	 ldrb r1,[r3,#316]
 223              	.LBE54:
 224              	.LBE53:
 225              	.LBB56:
 226              	.LBB52:
 173:c:\users\yushev\git\optiga-trust-qi\projects\xmc4700_relax_kit\common\dave\generated\usbd\usb\core\xmc4000\usbd_endpoint_xmc4000.h **** 	}
 227              	 .loc 1 173 0
 228 0080 22F00202 	 bic r2,r2,#2
 229 0084 83F83E21 	 strb r2,[r3,#318]
 230              	.L21:
 231              	.LVL13:
 232              	.LBE52:
 233              	.LBE56:
 234              	.LBB57:
 235              	.LBB55:
 212:c:\users\yushev\git\optiga-trust-qi\projects\xmc4700_relax_kit\common\dave\generated\usbd\usb\core\xmc4000\usbd_endpoint_xmc4000.h **** 	}
 236              	 .loc 1 212 0
 237 0088 2C22     	 movs r2,#44
 238 008a 02FB0132 	 mla r2,r2,r1,r3
 239 008e 9268     	 ldr r2,[r2,#8]
 240              	.LBE55:
 241              	.LBE57:
 120:C:/Users/Yushev/git/optiga-trust-qi/projects/xmc4700_relax_kit/common/Dave/Generated/USBD_VCOM/class_driver/device\cdc_class_device.c **** 					{
 242              	 .loc 2 120 0
 243 0090 9206     	 lsls r2,r2,#26
 244 0092 04D4     	 bmi .L40
 122:C:/Users/Yushev/git/optiga-trust-qi/projects/xmc4700_relax_kit/common/Dave/Generated/USBD_VCOM/class_driver/device\cdc_class_device.c **** 						  return;
 245              	 .loc 2 122 0
 246 0094 1F4A     	 ldr r2,.L41+8
 247 0096 1278     	 ldrb r2,[r2]
 248 0098 002A     	 cmp r2,#0
 249 009a F5D1     	 bne .L21
 250 009c 34E0     	 b .L9
 251              	.L40:
 126:C:/Users/Yushev/git/optiga-trust-qi/projects/xmc4700_relax_kit/common/Dave/Generated/USBD_VCOM/class_driver/device\cdc_class_device.c **** 					CDCInterfaceInfo->State.LineEncoding.CharFormat  = Endpoint_Read_8();
 252              	 .loc 2 126 0
 253 009e FFF7FEFF 	 bl Endpoint_Read_32_LE
 254              	.LVL14:
 255 00a2 A061     	 str r0,[r4,#24]
 127:C:/Users/Yushev/git/optiga-trust-qi/projects/xmc4700_relax_kit/common/Dave/Generated/USBD_VCOM/class_driver/device\cdc_class_device.c **** 					CDCInterfaceInfo->State.LineEncoding.ParityType  = Endpoint_Read_8();
 256              	 .loc 2 127 0
 257 00a4 FFF7FEFF 	 bl Endpoint_Read_8
 258              	.LVL15:
 259 00a8 2077     	 strb r0,[r4,#28]
 128:C:/Users/Yushev/git/optiga-trust-qi/projects/xmc4700_relax_kit/common/Dave/Generated/USBD_VCOM/class_driver/device\cdc_class_device.c **** 					CDCInterfaceInfo->State.LineEncoding.DataBits    = Endpoint_Read_8();
 260              	 .loc 2 128 0
 261 00aa FFF7FEFF 	 bl Endpoint_Read_8
 262              	.LVL16:
 263 00ae 6077     	 strb r0,[r4,#29]
 129:C:/Users/Yushev/git/optiga-trust-qi/projects/xmc4700_relax_kit/common/Dave/Generated/USBD_VCOM/class_driver/device\cdc_class_device.c **** 
 264              	 .loc 2 129 0
 265 00b0 FFF7FEFF 	 bl Endpoint_Read_8
 266              	.LVL17:
 134:C:/Users/Yushev/git/optiga-trust-qi/projects/xmc4700_relax_kit/common/Dave/Generated/USBD_VCOM/class_driver/device\cdc_class_device.c **** 					{
 267              	 .loc 2 134 0
 268 00b4 184B     	 ldr r3,.L41+12
 129:C:/Users/Yushev/git/optiga-trust-qi/projects/xmc4700_relax_kit/common/Dave/Generated/USBD_VCOM/class_driver/device\cdc_class_device.c **** 
 269              	 .loc 2 129 0
 270 00b6 A077     	 strb r0,[r4,#30]
 134:C:/Users/Yushev/git/optiga-trust-qi/projects/xmc4700_relax_kit/common/Dave/Generated/USBD_VCOM/class_driver/device\cdc_class_device.c **** 					{
 271              	 .loc 2 134 0
 272 00b8 1B68     	 ldr r3,[r3]
 273 00ba 0DE0     	 b .L38
 274              	.L16:
 143:C:/Users/Yushev/git/optiga-trust-qi/projects/xmc4700_relax_kit/common/Dave/Generated/USBD_VCOM/class_driver/device\cdc_class_device.c **** 				{
 275              	 .loc 2 143 0
 276 00bc 1278     	 ldrb r2,[r2]
 277 00be 212A     	 cmp r2,#33
 278 00c0 22D1     	 bne .L9
 279              	.LBB58:
 280              	.LBB59:
 173:c:\users\yushev\git\optiga-trust-qi\projects\xmc4700_relax_kit\common\dave\generated\usbd\usb\core\xmc4000\usbd_endpoint_xmc4000.h **** 	}
 281              	 .loc 1 173 0
 282 00c2 93F83E21 	 ldrb r2,[r3,#318]
 283 00c6 22F00202 	 bic r2,r2,#2
 284 00ca 83F83E21 	 strb r2,[r3,#318]
 285              	.LBE59:
 286              	.LBE58:
 148:C:/Users/Yushev/git/optiga-trust-qi/projects/xmc4700_relax_kit/common/Dave/Generated/USBD_VCOM/class_driver/device\cdc_class_device.c **** 
 287              	 .loc 2 148 0
 288 00ce 104B     	 ldr r3,.L41+4
 289 00d0 5B88     	 ldrh r3,[r3,#2]
 290 00d2 A382     	 strh r3,[r4,#20]
 150:C:/Users/Yushev/git/optiga-trust-qi/projects/xmc4700_relax_kit/common/Dave/Generated/USBD_VCOM/class_driver/device\cdc_class_device.c **** 					{
 291              	 .loc 2 150 0
 292 00d4 104B     	 ldr r3,.L41+12
 293 00d6 5B68     	 ldr r3,[r3,#4]
 294              	.L38:
 295 00d8 B3B1     	 cbz r3,.L9
 152:C:/Users/Yushev/git/optiga-trust-qi/projects/xmc4700_relax_kit/common/Dave/Generated/USBD_VCOM/class_driver/device\cdc_class_device.c **** 					}
 296              	 .loc 2 152 0
 297 00da 2046     	 mov r0,r4
 298              	 .loc 2 174 0
 299 00dc BDE81040 	 pop {r4,lr}
 300              	.LCFI3:
 301              	 .cfi_remember_state
 302              	 .cfi_restore 14
 303              	 .cfi_restore 4
 304              	 .cfi_def_cfa_offset 0
 305              	.LVL18:
 152:C:/Users/Yushev/git/optiga-trust-qi/projects/xmc4700_relax_kit/common/Dave/Generated/USBD_VCOM/class_driver/device\cdc_class_device.c **** 					}
 306              	 .loc 2 152 0
 307 00e0 1847     	 bx r3
 308              	.LVL19:
 309              	.L17:
 310              	.LCFI4:
 311              	 .cfi_restore_state
 159:C:/Users/Yushev/git/optiga-trust-qi/projects/xmc4700_relax_kit/common/Dave/Generated/USBD_VCOM/class_driver/device\cdc_class_device.c **** 				{
 312              	 .loc 2 159 0
 313 00e2 1278     	 ldrb r2,[r2]
 314 00e4 212A     	 cmp r2,#33
 315 00e6 0FD1     	 bne .L9
 316              	.LBB60:
 317              	.LBB61:
 173:c:\users\yushev\git\optiga-trust-qi\projects\xmc4700_relax_kit\common\dave\generated\usbd\usb\core\xmc4000\usbd_endpoint_xmc4000.h **** 	}
 318              	 .loc 1 173 0
 319 00e8 93F83E21 	 ldrb r2,[r3,#318]
 320 00ec 22F00202 	 bic r2,r2,#2
 321 00f0 83F83E21 	 strb r2,[r3,#318]
 322              	.LBE61:
 323              	.LBE60:
 164:C:/Users/Yushev/git/optiga-trust-qi/projects/xmc4700_relax_kit/common/Dave/Generated/USBD_VCOM/class_driver/device\cdc_class_device.c **** 					{
 324              	 .loc 2 164 0
 325 00f4 084B     	 ldr r3,.L41+12
 326 00f6 9B68     	 ldr r3,[r3,#8]
 327 00f8 33B1     	 cbz r3,.L9
 166:C:/Users/Yushev/git/optiga-trust-qi/projects/xmc4700_relax_kit/common/Dave/Generated/USBD_VCOM/class_driver/device\cdc_class_device.c **** 					}
 328              	 .loc 2 166 0
 329 00fa 054A     	 ldr r2,.L41+4
 330 00fc 5188     	 ldrh r1,[r2,#2]
 331 00fe 2046     	 mov r0,r4
 332 0100 C9B2     	 uxtb r1,r1
 333              	 .loc 2 174 0
 334 0102 BDE81040 	 pop {r4,lr}
 335              	.LCFI5:
 336              	 .cfi_remember_state
 337              	 .cfi_restore 14
 338              	 .cfi_restore 4
 339              	 .cfi_def_cfa_offset 0
 340              	.LVL20:
 166:C:/Users/Yushev/git/optiga-trust-qi/projects/xmc4700_relax_kit/common/Dave/Generated/USBD_VCOM/class_driver/device\cdc_class_device.c **** 					}
 341              	 .loc 2 166 0
 342 0106 1847     	 bx r3
 343              	.LVL21:
 344              	.L9:
 345              	.LCFI6:
 346              	 .cfi_restore_state
 347 0108 10BD     	 pop {r4,pc}
 348              	.LVL22:
 349              	.L42:
 350 010a 00BF     	 .align 2
 351              	.L41:
 352 010c 00000000 	 .word device
 353 0110 00000000 	 .word USB_ControlRequest
 354 0114 00000000 	 .word USB_DeviceState
 355 0118 00000000 	 .word cdc_class_events
 356              	 .cfi_endproc
 357              	.LFE187:
 359              	 .section .text.CDC_Device_ConfigureEndpoints,"ax",%progbits
 360              	 .align 1
 361              	 .global CDC_Device_ConfigureEndpoints
 362              	 .thumb
 363              	 .thumb_func
 365              	CDC_Device_ConfigureEndpoints:
 366              	.LFB188:
 175:C:/Users/Yushev/git/optiga-trust-qi/projects/xmc4700_relax_kit/common/Dave/Generated/USBD_VCOM/class_driver/device\cdc_class_device.c **** 
 176:C:/Users/Yushev/git/optiga-trust-qi/projects/xmc4700_relax_kit/common/Dave/Generated/USBD_VCOM/class_driver/device\cdc_class_device.c **** 
 177:C:/Users/Yushev/git/optiga-trust-qi/projects/xmc4700_relax_kit/common/Dave/Generated/USBD_VCOM/class_driver/device\cdc_class_device.c **** 
 178:C:/Users/Yushev/git/optiga-trust-qi/projects/xmc4700_relax_kit/common/Dave/Generated/USBD_VCOM/class_driver/device\cdc_class_device.c **** 
 179:C:/Users/Yushev/git/optiga-trust-qi/projects/xmc4700_relax_kit/common/Dave/Generated/USBD_VCOM/class_driver/device\cdc_class_device.c **** bool CDC_Device_ConfigureEndpoints(USB_ClassInfo_CDC_Device_t* const CDCInterfaceInfo)
 180:C:/Users/Yushev/git/optiga-trust-qi/projects/xmc4700_relax_kit/common/Dave/Generated/USBD_VCOM/class_driver/device\cdc_class_device.c **** {
 367              	 .loc 2 180 0
 368              	 .cfi_startproc
 369              	 
 370              	 
 371              	.LVL23:
 372 0000 38B5     	 push {r3,r4,r5,lr}
 373              	.LCFI7:
 374              	 .cfi_def_cfa_offset 16
 375              	 .cfi_offset 3,-16
 376              	 .cfi_offset 4,-12
 377              	 .cfi_offset 5,-8
 378              	 .cfi_offset 14,-4
 181:C:/Users/Yushev/git/optiga-trust-qi/projects/xmc4700_relax_kit/common/Dave/Generated/USBD_VCOM/class_driver/device\cdc_class_device.c **** 	bool status = true;
 182:C:/Users/Yushev/git/optiga-trust-qi/projects/xmc4700_relax_kit/common/Dave/Generated/USBD_VCOM/class_driver/device\cdc_class_device.c **** 	memset(&CDCInterfaceInfo->State, 0x00, sizeof(CDCInterfaceInfo->State));
 379              	 .loc 2 182 0
 380 0002 0C22     	 movs r2,#12
 180:C:/Users/Yushev/git/optiga-trust-qi/projects/xmc4700_relax_kit/common/Dave/Generated/USBD_VCOM/class_driver/device\cdc_class_device.c **** 	bool status = true;
 381              	 .loc 2 180 0
 382 0004 0446     	 mov r4,r0
 383              	 .loc 2 182 0
 384 0006 0021     	 movs r1,#0
 385 0008 1430     	 adds r0,r0,#20
 386              	.LVL24:
 387 000a FFF7FEFF 	 bl memset
 388              	.LVL25:
 183:C:/Users/Yushev/git/optiga-trust-qi/projects/xmc4700_relax_kit/common/Dave/Generated/USBD_VCOM/class_driver/device\cdc_class_device.c **** 
 184:C:/Users/Yushev/git/optiga-trust-qi/projects/xmc4700_relax_kit/common/Dave/Generated/USBD_VCOM/class_driver/device\cdc_class_device.c **** 	CDCInterfaceInfo->Config.DataINEndpoint.Type       = EP_TYPE_BULK;
 389              	 .loc 2 184 0
 390 000e 0223     	 movs r3,#2
 391 0010 2371     	 strb r3,[r4,#4]
 185:C:/Users/Yushev/git/optiga-trust-qi/projects/xmc4700_relax_kit/common/Dave/Generated/USBD_VCOM/class_driver/device\cdc_class_device.c **** 	CDCInterfaceInfo->Config.DataOUTEndpoint.Type      = EP_TYPE_BULK;
 392              	 .loc 2 185 0
 393 0012 A372     	 strb r3,[r4,#10]
 186:C:/Users/Yushev/git/optiga-trust-qi/projects/xmc4700_relax_kit/common/Dave/Generated/USBD_VCOM/class_driver/device\cdc_class_device.c **** 	CDCInterfaceInfo->Config.NotificationEndpoint.Type = EP_TYPE_INTERRUPT;
 394              	 .loc 2 186 0
 395 0014 0323     	 movs r3,#3
 396 0016 2374     	 strb r3,[r4,#16]
 187:C:/Users/Yushev/git/optiga-trust-qi/projects/xmc4700_relax_kit/common/Dave/Generated/USBD_VCOM/class_driver/device\cdc_class_device.c **** 
 188:C:/Users/Yushev/git/optiga-trust-qi/projects/xmc4700_relax_kit/common/Dave/Generated/USBD_VCOM/class_driver/device\cdc_class_device.c **** 	if (!(Endpoint_ConfigureEndpointTable(&CDCInterfaceInfo->Config.DataINEndpoint, 1)))
 397              	 .loc 2 188 0
 398 0018 2046     	 mov r0,r4
 399 001a 0121     	 movs r1,#1
 400 001c FFF7FEFF 	 bl Endpoint_ConfigureEndpointTable
 401              	.LVL26:
 189:C:/Users/Yushev/git/optiga-trust-qi/projects/xmc4700_relax_kit/common/Dave/Generated/USBD_VCOM/class_driver/device\cdc_class_device.c **** 	{
 190:C:/Users/Yushev/git/optiga-trust-qi/projects/xmc4700_relax_kit/common/Dave/Generated/USBD_VCOM/class_driver/device\cdc_class_device.c **** 		status = false;
 191:C:/Users/Yushev/git/optiga-trust-qi/projects/xmc4700_relax_kit/common/Dave/Generated/USBD_VCOM/class_driver/device\cdc_class_device.c **** 	}
 192:C:/Users/Yushev/git/optiga-trust-qi/projects/xmc4700_relax_kit/common/Dave/Generated/USBD_VCOM/class_driver/device\cdc_class_device.c **** 
 193:C:/Users/Yushev/git/optiga-trust-qi/projects/xmc4700_relax_kit/common/Dave/Generated/USBD_VCOM/class_driver/device\cdc_class_device.c **** 	if (!(Endpoint_ConfigureEndpointTable(
 402              	 .loc 2 193 0
 403 0020 0121     	 movs r1,#1
 188:C:/Users/Yushev/git/optiga-trust-qi/projects/xmc4700_relax_kit/common/Dave/Generated/USBD_VCOM/class_driver/device\cdc_class_device.c **** 	{
 404              	 .loc 2 188 0
 405 0022 0546     	 mov r5,r0
 406              	.LVL27:
 407              	 .loc 2 193 0
 408 0024 A01D     	 adds r0,r4,#6
 409 0026 FFF7FEFF 	 bl Endpoint_ConfigureEndpointTable
 410              	.LVL28:
 194:C:/Users/Yushev/git/optiga-trust-qi/projects/xmc4700_relax_kit/common/Dave/Generated/USBD_VCOM/class_driver/device\cdc_class_device.c **** 							&CDCInterfaceInfo->Config.DataOUTEndpoint, 1)))
 195:C:/Users/Yushev/git/optiga-trust-qi/projects/xmc4700_relax_kit/common/Dave/Generated/USBD_VCOM/class_driver/device\cdc_class_device.c **** 	{
 196:C:/Users/Yushev/git/optiga-trust-qi/projects/xmc4700_relax_kit/common/Dave/Generated/USBD_VCOM/class_driver/device\cdc_class_device.c **** 		status = false;
 197:C:/Users/Yushev/git/optiga-trust-qi/projects/xmc4700_relax_kit/common/Dave/Generated/USBD_VCOM/class_driver/device\cdc_class_device.c **** 	}
 198:C:/Users/Yushev/git/optiga-trust-qi/projects/xmc4700_relax_kit/common/Dave/Generated/USBD_VCOM/class_driver/device\cdc_class_device.c **** 
 199:C:/Users/Yushev/git/optiga-trust-qi/projects/xmc4700_relax_kit/common/Dave/Generated/USBD_VCOM/class_driver/device\cdc_class_device.c **** 	if (!(Endpoint_ConfigureEndpointTable(
 411              	 .loc 2 199 0
 412 002a 0121     	 movs r1,#1
 193:C:/Users/Yushev/git/optiga-trust-qi/projects/xmc4700_relax_kit/common/Dave/Generated/USBD_VCOM/class_driver/device\cdc_class_device.c **** 							&CDCInterfaceInfo->Config.DataOUTEndpoint, 1)))
 413              	 .loc 2 193 0
 414 002c 0028     	 cmp r0,#0
 415              	 .loc 2 199 0
 416 002e 04F10C00 	 add r0,r4,#12
 196:C:/Users/Yushev/git/optiga-trust-qi/projects/xmc4700_relax_kit/common/Dave/Generated/USBD_VCOM/class_driver/device\cdc_class_device.c **** 	}
 417              	 .loc 2 196 0
 418 0032 08BF     	 it eq
 419 0034 0025     	 moveq r5,#0
 420              	.LVL29:
 421              	 .loc 2 199 0
 422 0036 FFF7FEFF 	 bl Endpoint_ConfigureEndpointTable
 423              	.LVL30:
 424 003a 0028     	 cmp r0,#0
 425              	.LVL31:
 200:C:/Users/Yushev/git/optiga-trust-qi/projects/xmc4700_relax_kit/common/Dave/Generated/USBD_VCOM/class_driver/device\cdc_class_device.c **** 						&CDCInterfaceInfo->Config.NotificationEndpoint, 1)))
 201:C:/Users/Yushev/git/optiga-trust-qi/projects/xmc4700_relax_kit/common/Dave/Generated/USBD_VCOM/class_driver/device\cdc_class_device.c **** 	{
 202:C:/Users/Yushev/git/optiga-trust-qi/projects/xmc4700_relax_kit/common/Dave/Generated/USBD_VCOM/class_driver/device\cdc_class_device.c **** 		status = false;
 203:C:/Users/Yushev/git/optiga-trust-qi/projects/xmc4700_relax_kit/common/Dave/Generated/USBD_VCOM/class_driver/device\cdc_class_device.c **** 	}
 204:C:/Users/Yushev/git/optiga-trust-qi/projects/xmc4700_relax_kit/common/Dave/Generated/USBD_VCOM/class_driver/device\cdc_class_device.c **** 
 205:C:/Users/Yushev/git/optiga-trust-qi/projects/xmc4700_relax_kit/common/Dave/Generated/USBD_VCOM/class_driver/device\cdc_class_device.c **** 	return status;
 206:C:/Users/Yushev/git/optiga-trust-qi/projects/xmc4700_relax_kit/common/Dave/Generated/USBD_VCOM/class_driver/device\cdc_class_device.c **** }
 426              	 .loc 2 206 0
 427 003c 14BF     	 ite ne
 428 003e 2846     	 movne r0,r5
 429 0040 0020     	 moveq r0,#0
 430 0042 38BD     	 pop {r3,r4,r5,pc}
 431              	 .cfi_endproc
 432              	.LFE188:
 434              	 .section .text.CDC_Device_SendString,"ax",%progbits
 435              	 .align 1
 436              	 .global CDC_Device_SendString
 437              	 .thumb
 438              	 .thumb_func
 440              	CDC_Device_SendString:
 441              	.LFB190:
 207:C:/Users/Yushev/git/optiga-trust-qi/projects/xmc4700_relax_kit/common/Dave/Generated/USBD_VCOM/class_driver/device\cdc_class_device.c **** 
 208:C:/Users/Yushev/git/optiga-trust-qi/projects/xmc4700_relax_kit/common/Dave/Generated/USBD_VCOM/class_driver/device\cdc_class_device.c **** void CDC_Device_USBTask(USB_ClassInfo_CDC_Device_t* const CDCInterfaceInfo)
 209:C:/Users/Yushev/git/optiga-trust-qi/projects/xmc4700_relax_kit/common/Dave/Generated/USBD_VCOM/class_driver/device\cdc_class_device.c **** {
 210:C:/Users/Yushev/git/optiga-trust-qi/projects/xmc4700_relax_kit/common/Dave/Generated/USBD_VCOM/class_driver/device\cdc_class_device.c **** 	if ((USB_DeviceState == DEVICE_STATE_Configured) &&	(CDCInterfaceInfo->State.LineEncoding.BaudRate
 211:C:/Users/Yushev/git/optiga-trust-qi/projects/xmc4700_relax_kit/common/Dave/Generated/USBD_VCOM/class_driver/device\cdc_class_device.c **** 	{
 212:C:/Users/Yushev/git/optiga-trust-qi/projects/xmc4700_relax_kit/common/Dave/Generated/USBD_VCOM/class_driver/device\cdc_class_device.c **** 		#if !defined(NO_CLASS_DRIVER_AUTOFLUSH)
 213:C:/Users/Yushev/git/optiga-trust-qi/projects/xmc4700_relax_kit/common/Dave/Generated/USBD_VCOM/class_driver/device\cdc_class_device.c **** 		Endpoint_SelectEndpoint(CDCInterfaceInfo->Config.DataINEndpoint.Address);
 214:C:/Users/Yushev/git/optiga-trust-qi/projects/xmc4700_relax_kit/common/Dave/Generated/USBD_VCOM/class_driver/device\cdc_class_device.c **** 
 215:C:/Users/Yushev/git/optiga-trust-qi/projects/xmc4700_relax_kit/common/Dave/Generated/USBD_VCOM/class_driver/device\cdc_class_device.c **** 		if (Endpoint_IsINReady())
 216:C:/Users/Yushev/git/optiga-trust-qi/projects/xmc4700_relax_kit/common/Dave/Generated/USBD_VCOM/class_driver/device\cdc_class_device.c **** 		{
 217:C:/Users/Yushev/git/optiga-trust-qi/projects/xmc4700_relax_kit/common/Dave/Generated/USBD_VCOM/class_driver/device\cdc_class_device.c **** 		  CDC_Device_Flush(CDCInterfaceInfo);
 218:C:/Users/Yushev/git/optiga-trust-qi/projects/xmc4700_relax_kit/common/Dave/Generated/USBD_VCOM/class_driver/device\cdc_class_device.c **** 		}
 219:C:/Users/Yushev/git/optiga-trust-qi/projects/xmc4700_relax_kit/common/Dave/Generated/USBD_VCOM/class_driver/device\cdc_class_device.c **** 		#endif
 220:C:/Users/Yushev/git/optiga-trust-qi/projects/xmc4700_relax_kit/common/Dave/Generated/USBD_VCOM/class_driver/device\cdc_class_device.c **** 	}
 221:C:/Users/Yushev/git/optiga-trust-qi/projects/xmc4700_relax_kit/common/Dave/Generated/USBD_VCOM/class_driver/device\cdc_class_device.c **** }
 222:C:/Users/Yushev/git/optiga-trust-qi/projects/xmc4700_relax_kit/common/Dave/Generated/USBD_VCOM/class_driver/device\cdc_class_device.c **** 
 223:C:/Users/Yushev/git/optiga-trust-qi/projects/xmc4700_relax_kit/common/Dave/Generated/USBD_VCOM/class_driver/device\cdc_class_device.c **** uint8_t CDC_Device_SendString(USB_ClassInfo_CDC_Device_t* const CDCInterfaceInfo, const char* const
 224:C:/Users/Yushev/git/optiga-trust-qi/projects/xmc4700_relax_kit/common/Dave/Generated/USBD_VCOM/class_driver/device\cdc_class_device.c **** {
 442              	 .loc 2 224 0
 443              	 .cfi_startproc
 444              	 
 445              	 
 446              	.LVL32:
 447 0000 10B5     	 push {r4,lr}
 448              	.LCFI8:
 449              	 .cfi_def_cfa_offset 8
 450              	 .cfi_offset 4,-8
 451              	 .cfi_offset 14,-4
 225:C:/Users/Yushev/git/optiga-trust-qi/projects/xmc4700_relax_kit/common/Dave/Generated/USBD_VCOM/class_driver/device\cdc_class_device.c **** 	uint8_t status = 0;
 226:C:/Users/Yushev/git/optiga-trust-qi/projects/xmc4700_relax_kit/common/Dave/Generated/USBD_VCOM/class_driver/device\cdc_class_device.c **** 	if ((USB_DeviceState == DEVICE_STATE_Configured) &&	(CDCInterfaceInfo->State.LineEncoding.BaudRate
 452              	 .loc 2 226 0
 453 0002 0B4B     	 ldr r3,.L51
 454 0004 1B78     	 ldrb r3,[r3]
 455 0006 042B     	 cmp r3,#4
 224:C:/Users/Yushev/git/optiga-trust-qi/projects/xmc4700_relax_kit/common/Dave/Generated/USBD_VCOM/class_driver/device\cdc_class_device.c **** 	uint8_t status = 0;
 456              	 .loc 2 224 0
 457 0008 0C46     	 mov r4,r1
 458              	 .loc 2 226 0
 459 000a 0ED1     	 bne .L47
 460              	 .loc 2 226 0 is_stmt 0 discriminator 1
 461 000c 8369     	 ldr r3,[r0,#24]
 462 000e 63B1     	 cbz r3,.L47
 227:C:/Users/Yushev/git/optiga-trust-qi/projects/xmc4700_relax_kit/common/Dave/Generated/USBD_VCOM/class_driver/device\cdc_class_device.c **** 	{
 228:C:/Users/Yushev/git/optiga-trust-qi/projects/xmc4700_relax_kit/common/Dave/Generated/USBD_VCOM/class_driver/device\cdc_class_device.c **** 
 229:C:/Users/Yushev/git/optiga-trust-qi/projects/xmc4700_relax_kit/common/Dave/Generated/USBD_VCOM/class_driver/device\cdc_class_device.c **** 		Endpoint_SelectEndpoint(CDCInterfaceInfo->Config.DataINEndpoint.Address);
 463              	 .loc 2 229 0 is_stmt 1
 464 0010 0078     	 ldrb r0,[r0]
 465              	.LVL33:
 466 0012 FFF7FEFF 	 bl Endpoint_SelectEndpoint
 467              	.LVL34:
 230:C:/Users/Yushev/git/optiga-trust-qi/projects/xmc4700_relax_kit/common/Dave/Generated/USBD_VCOM/class_driver/device\cdc_class_device.c **** 		status = Endpoint_Write_Stream_LE(String, strlen(String), NULL);
 468              	 .loc 2 230 0
 469 0016 2046     	 mov r0,r4
 470 0018 FFF7FEFF 	 bl strlen
 471              	.LVL35:
 472 001c 0022     	 movs r2,#0
 473 001e 81B2     	 uxth r1,r0
 474 0020 2046     	 mov r0,r4
 231:C:/Users/Yushev/git/optiga-trust-qi/projects/xmc4700_relax_kit/common/Dave/Generated/USBD_VCOM/class_driver/device\cdc_class_device.c **** 	}
 232:C:/Users/Yushev/git/optiga-trust-qi/projects/xmc4700_relax_kit/common/Dave/Generated/USBD_VCOM/class_driver/device\cdc_class_device.c **** 	else
 233:C:/Users/Yushev/git/optiga-trust-qi/projects/xmc4700_relax_kit/common/Dave/Generated/USBD_VCOM/class_driver/device\cdc_class_device.c **** 	{
 234:C:/Users/Yushev/git/optiga-trust-qi/projects/xmc4700_relax_kit/common/Dave/Generated/USBD_VCOM/class_driver/device\cdc_class_device.c **** 		status = ENDPOINT_RWSTREAM_DeviceDisconnected;
 235:C:/Users/Yushev/git/optiga-trust-qi/projects/xmc4700_relax_kit/common/Dave/Generated/USBD_VCOM/class_driver/device\cdc_class_device.c **** 	}
 236:C:/Users/Yushev/git/optiga-trust-qi/projects/xmc4700_relax_kit/common/Dave/Generated/USBD_VCOM/class_driver/device\cdc_class_device.c **** 
 237:C:/Users/Yushev/git/optiga-trust-qi/projects/xmc4700_relax_kit/common/Dave/Generated/USBD_VCOM/class_driver/device\cdc_class_device.c **** 	return status;
 238:C:/Users/Yushev/git/optiga-trust-qi/projects/xmc4700_relax_kit/common/Dave/Generated/USBD_VCOM/class_driver/device\cdc_class_device.c **** }
 475              	 .loc 2 238 0
 476 0022 BDE81040 	 pop {r4,lr}
 477              	.LCFI9:
 478              	 .cfi_remember_state
 479              	 .cfi_restore 14
 480              	 .cfi_restore 4
 481              	 .cfi_def_cfa_offset 0
 482              	.LVL36:
 230:C:/Users/Yushev/git/optiga-trust-qi/projects/xmc4700_relax_kit/common/Dave/Generated/USBD_VCOM/class_driver/device\cdc_class_device.c **** 		status = Endpoint_Write_Stream_LE(String, strlen(String), NULL);
 483              	 .loc 2 230 0
 484 0026 FFF7FEBF 	 b Endpoint_Write_Stream_LE
 485              	.LVL37:
 486              	.L47:
 487              	.LCFI10:
 488              	 .cfi_restore_state
 489              	 .loc 2 238 0
 490 002a 0220     	 movs r0,#2
 491              	.LVL38:
 492 002c 10BD     	 pop {r4,pc}
 493              	.L52:
 494 002e 00BF     	 .align 2
 495              	.L51:
 496 0030 00000000 	 .word USB_DeviceState
 497              	 .cfi_endproc
 498              	.LFE190:
 500              	 .section .text.CDC_Device_SendData,"ax",%progbits
 501              	 .align 1
 502              	 .global CDC_Device_SendData
 503              	 .thumb
 504              	 .thumb_func
 506              	CDC_Device_SendData:
 507              	.LFB191:
 239:C:/Users/Yushev/git/optiga-trust-qi/projects/xmc4700_relax_kit/common/Dave/Generated/USBD_VCOM/class_driver/device\cdc_class_device.c **** 
 240:C:/Users/Yushev/git/optiga-trust-qi/projects/xmc4700_relax_kit/common/Dave/Generated/USBD_VCOM/class_driver/device\cdc_class_device.c **** uint8_t CDC_Device_SendData(USB_ClassInfo_CDC_Device_t* const CDCInterfaceInfo,
 241:C:/Users/Yushev/git/optiga-trust-qi/projects/xmc4700_relax_kit/common/Dave/Generated/USBD_VCOM/class_driver/device\cdc_class_device.c ****                             const void* const Buffer,
 242:C:/Users/Yushev/git/optiga-trust-qi/projects/xmc4700_relax_kit/common/Dave/Generated/USBD_VCOM/class_driver/device\cdc_class_device.c ****                             const uint16_t Length)
 243:C:/Users/Yushev/git/optiga-trust-qi/projects/xmc4700_relax_kit/common/Dave/Generated/USBD_VCOM/class_driver/device\cdc_class_device.c **** {
 508              	 .loc 2 243 0
 509              	 .cfi_startproc
 510              	 
 511              	 
 512              	.LVL39:
 513 0000 38B5     	 push {r3,r4,r5,lr}
 514              	.LCFI11:
 515              	 .cfi_def_cfa_offset 16
 516              	 .cfi_offset 3,-16
 517              	 .cfi_offset 4,-12
 518              	 .cfi_offset 5,-8
 519              	 .cfi_offset 14,-4
 244:C:/Users/Yushev/git/optiga-trust-qi/projects/xmc4700_relax_kit/common/Dave/Generated/USBD_VCOM/class_driver/device\cdc_class_device.c **** 	uint8_t status = 0;
 245:C:/Users/Yushev/git/optiga-trust-qi/projects/xmc4700_relax_kit/common/Dave/Generated/USBD_VCOM/class_driver/device\cdc_class_device.c **** 	if ((USB_DeviceState == DEVICE_STATE_Configured) &&	(CDCInterfaceInfo->State.LineEncoding.BaudRate
 520              	 .loc 2 245 0
 521 0002 0A4B     	 ldr r3,.L58
 522 0004 1B78     	 ldrb r3,[r3]
 523 0006 042B     	 cmp r3,#4
 243:C:/Users/Yushev/git/optiga-trust-qi/projects/xmc4700_relax_kit/common/Dave/Generated/USBD_VCOM/class_driver/device\cdc_class_device.c **** 	uint8_t status = 0;
 524              	 .loc 2 243 0
 525 0008 0D46     	 mov r5,r1
 526 000a 1446     	 mov r4,r2
 527              	 .loc 2 245 0
 528 000c 0BD1     	 bne .L54
 529              	 .loc 2 245 0 is_stmt 0 discriminator 1
 530 000e 8369     	 ldr r3,[r0,#24]
 531 0010 4BB1     	 cbz r3,.L54
 246:C:/Users/Yushev/git/optiga-trust-qi/projects/xmc4700_relax_kit/common/Dave/Generated/USBD_VCOM/class_driver/device\cdc_class_device.c **** 	{
 247:C:/Users/Yushev/git/optiga-trust-qi/projects/xmc4700_relax_kit/common/Dave/Generated/USBD_VCOM/class_driver/device\cdc_class_device.c **** 
 248:C:/Users/Yushev/git/optiga-trust-qi/projects/xmc4700_relax_kit/common/Dave/Generated/USBD_VCOM/class_driver/device\cdc_class_device.c **** 		Endpoint_SelectEndpoint(CDCInterfaceInfo->Config.DataINEndpoint.Address);
 532              	 .loc 2 248 0 is_stmt 1
 533 0012 0078     	 ldrb r0,[r0]
 534              	.LVL40:
 535 0014 FFF7FEFF 	 bl Endpoint_SelectEndpoint
 536              	.LVL41:
 249:C:/Users/Yushev/git/optiga-trust-qi/projects/xmc4700_relax_kit/common/Dave/Generated/USBD_VCOM/class_driver/device\cdc_class_device.c **** 		status = Endpoint_Write_Stream_LE(Buffer, Length, NULL);
 537              	 .loc 2 249 0
 538 0018 2846     	 mov r0,r5
 539 001a 2146     	 mov r1,r4
 540 001c 0022     	 movs r2,#0
 250:C:/Users/Yushev/git/optiga-trust-qi/projects/xmc4700_relax_kit/common/Dave/Generated/USBD_VCOM/class_driver/device\cdc_class_device.c **** 	}
 251:C:/Users/Yushev/git/optiga-trust-qi/projects/xmc4700_relax_kit/common/Dave/Generated/USBD_VCOM/class_driver/device\cdc_class_device.c **** 	else
 252:C:/Users/Yushev/git/optiga-trust-qi/projects/xmc4700_relax_kit/common/Dave/Generated/USBD_VCOM/class_driver/device\cdc_class_device.c **** 	{
 253:C:/Users/Yushev/git/optiga-trust-qi/projects/xmc4700_relax_kit/common/Dave/Generated/USBD_VCOM/class_driver/device\cdc_class_device.c **** 		status = ENDPOINT_RWSTREAM_DeviceDisconnected;
 254:C:/Users/Yushev/git/optiga-trust-qi/projects/xmc4700_relax_kit/common/Dave/Generated/USBD_VCOM/class_driver/device\cdc_class_device.c **** 	}
 255:C:/Users/Yushev/git/optiga-trust-qi/projects/xmc4700_relax_kit/common/Dave/Generated/USBD_VCOM/class_driver/device\cdc_class_device.c **** 	return status;
 256:C:/Users/Yushev/git/optiga-trust-qi/projects/xmc4700_relax_kit/common/Dave/Generated/USBD_VCOM/class_driver/device\cdc_class_device.c **** }
 541              	 .loc 2 256 0
 542 001e BDE83840 	 pop {r3,r4,r5,lr}
 543              	.LCFI12:
 544              	 .cfi_remember_state
 545              	 .cfi_restore 14
 546              	 .cfi_restore 5
 547              	 .cfi_restore 4
 548              	 .cfi_restore 3
 549              	 .cfi_def_cfa_offset 0
 550              	.LVL42:
 249:C:/Users/Yushev/git/optiga-trust-qi/projects/xmc4700_relax_kit/common/Dave/Generated/USBD_VCOM/class_driver/device\cdc_class_device.c **** 		status = Endpoint_Write_Stream_LE(Buffer, Length, NULL);
 551              	 .loc 2 249 0
 552 0022 FFF7FEBF 	 b Endpoint_Write_Stream_LE
 553              	.LVL43:
 554              	.L54:
 555              	.LCFI13:
 556              	 .cfi_restore_state
 557              	 .loc 2 256 0
 558 0026 0220     	 movs r0,#2
 559              	.LVL44:
 560 0028 38BD     	 pop {r3,r4,r5,pc}
 561              	.L59:
 562 002a 00BF     	 .align 2
 563              	.L58:
 564 002c 00000000 	 .word USB_DeviceState
 565              	 .cfi_endproc
 566              	.LFE191:
 568              	 .section .text.CDC_Device_SendByte,"ax",%progbits
 569              	 .align 1
 570              	 .global CDC_Device_SendByte
 571              	 .thumb
 572              	 .thumb_func
 574              	CDC_Device_SendByte:
 575              	.LFB192:
 257:C:/Users/Yushev/git/optiga-trust-qi/projects/xmc4700_relax_kit/common/Dave/Generated/USBD_VCOM/class_driver/device\cdc_class_device.c **** 
 258:C:/Users/Yushev/git/optiga-trust-qi/projects/xmc4700_relax_kit/common/Dave/Generated/USBD_VCOM/class_driver/device\cdc_class_device.c **** uint8_t CDC_Device_SendByte(USB_ClassInfo_CDC_Device_t* const CDCInterfaceInfo,
 259:C:/Users/Yushev/git/optiga-trust-qi/projects/xmc4700_relax_kit/common/Dave/Generated/USBD_VCOM/class_driver/device\cdc_class_device.c ****                             const uint8_t Data)
 260:C:/Users/Yushev/git/optiga-trust-qi/projects/xmc4700_relax_kit/common/Dave/Generated/USBD_VCOM/class_driver/device\cdc_class_device.c **** {
 576              	 .loc 2 260 0
 577              	 .cfi_startproc
 578              	 
 579              	 
 580              	.LVL45:
 581 0000 10B5     	 push {r4,lr}
 582              	.LCFI14:
 583              	 .cfi_def_cfa_offset 8
 584              	 .cfi_offset 4,-8
 585              	 .cfi_offset 14,-4
 261:C:/Users/Yushev/git/optiga-trust-qi/projects/xmc4700_relax_kit/common/Dave/Generated/USBD_VCOM/class_driver/device\cdc_class_device.c **** 	uint8_t status = 0;
 262:C:/Users/Yushev/git/optiga-trust-qi/projects/xmc4700_relax_kit/common/Dave/Generated/USBD_VCOM/class_driver/device\cdc_class_device.c **** 	if ((USB_DeviceState == DEVICE_STATE_Configured) &&	(CDCInterfaceInfo->State.LineEncoding.BaudRate
 586              	 .loc 2 262 0
 587 0002 0D4B     	 ldr r3,.L65
 588 0004 1B78     	 ldrb r3,[r3]
 589 0006 042B     	 cmp r3,#4
 260:C:/Users/Yushev/git/optiga-trust-qi/projects/xmc4700_relax_kit/common/Dave/Generated/USBD_VCOM/class_driver/device\cdc_class_device.c **** 	uint8_t status = 0;
 590              	 .loc 2 260 0
 591 0008 0C46     	 mov r4,r1
 592              	 .loc 2 262 0
 593 000a 12D1     	 bne .L64
 594              	 .loc 2 262 0 is_stmt 0 discriminator 1
 595 000c 8369     	 ldr r3,[r0,#24]
 596 000e 83B1     	 cbz r3,.L64
 263:C:/Users/Yushev/git/optiga-trust-qi/projects/xmc4700_relax_kit/common/Dave/Generated/USBD_VCOM/class_driver/device\cdc_class_device.c **** 	{
 264:C:/Users/Yushev/git/optiga-trust-qi/projects/xmc4700_relax_kit/common/Dave/Generated/USBD_VCOM/class_driver/device\cdc_class_device.c **** 
 265:C:/Users/Yushev/git/optiga-trust-qi/projects/xmc4700_relax_kit/common/Dave/Generated/USBD_VCOM/class_driver/device\cdc_class_device.c **** 		Endpoint_SelectEndpoint(CDCInterfaceInfo->Config.DataINEndpoint.Address);
 597              	 .loc 2 265 0 is_stmt 1
 598 0010 0078     	 ldrb r0,[r0]
 599              	.LVL46:
 600 0012 FFF7FEFF 	 bl Endpoint_SelectEndpoint
 601              	.LVL47:
 266:C:/Users/Yushev/git/optiga-trust-qi/projects/xmc4700_relax_kit/common/Dave/Generated/USBD_VCOM/class_driver/device\cdc_class_device.c **** 
 267:C:/Users/Yushev/git/optiga-trust-qi/projects/xmc4700_relax_kit/common/Dave/Generated/USBD_VCOM/class_driver/device\cdc_class_device.c **** 		if (Endpoint_IsReadWriteAllowed())
 602              	 .loc 2 267 0
 603 0016 FFF7FEFF 	 bl Endpoint_IsReadWriteAllowed
 604              	.LVL48:
 605 001a 20B1     	 cbz r0,.L62
 268:C:/Users/Yushev/git/optiga-trust-qi/projects/xmc4700_relax_kit/common/Dave/Generated/USBD_VCOM/class_driver/device\cdc_class_device.c **** 		{
 269:C:/Users/Yushev/git/optiga-trust-qi/projects/xmc4700_relax_kit/common/Dave/Generated/USBD_VCOM/class_driver/device\cdc_class_device.c **** 			Endpoint_Write_8(Data);
 606              	 .loc 2 269 0
 607 001c 2046     	 mov r0,r4
 608 001e FFF7FEFF 	 bl Endpoint_Write_8
 609              	.LVL49:
 270:C:/Users/Yushev/git/optiga-trust-qi/projects/xmc4700_relax_kit/common/Dave/Generated/USBD_VCOM/class_driver/device\cdc_class_device.c **** 			status = ENDPOINT_READYWAIT_NoError;
 610              	 .loc 2 270 0
 611 0022 0020     	 movs r0,#0
 612 0024 10BD     	 pop {r4,pc}
 613              	.L62:
 271:C:/Users/Yushev/git/optiga-trust-qi/projects/xmc4700_relax_kit/common/Dave/Generated/USBD_VCOM/class_driver/device\cdc_class_device.c **** 		}
 272:C:/Users/Yushev/git/optiga-trust-qi/projects/xmc4700_relax_kit/common/Dave/Generated/USBD_VCOM/class_driver/device\cdc_class_device.c **** 		else
 273:C:/Users/Yushev/git/optiga-trust-qi/projects/xmc4700_relax_kit/common/Dave/Generated/USBD_VCOM/class_driver/device\cdc_class_device.c **** 		{
 274:C:/Users/Yushev/git/optiga-trust-qi/projects/xmc4700_relax_kit/common/Dave/Generated/USBD_VCOM/class_driver/device\cdc_class_device.c **** 			Endpoint_ClearIN();
 614              	 .loc 2 274 0
 615 0026 FFF7FEFF 	 bl Endpoint_ClearIN
 616              	.LVL50:
 275:C:/Users/Yushev/git/optiga-trust-qi/projects/xmc4700_relax_kit/common/Dave/Generated/USBD_VCOM/class_driver/device\cdc_class_device.c **** 			status = Endpoint_WaitUntilReady();
 276:C:/Users/Yushev/git/optiga-trust-qi/projects/xmc4700_relax_kit/common/Dave/Generated/USBD_VCOM/class_driver/device\cdc_class_device.c **** 		}
 277:C:/Users/Yushev/git/optiga-trust-qi/projects/xmc4700_relax_kit/common/Dave/Generated/USBD_VCOM/class_driver/device\cdc_class_device.c **** 	}
 278:C:/Users/Yushev/git/optiga-trust-qi/projects/xmc4700_relax_kit/common/Dave/Generated/USBD_VCOM/class_driver/device\cdc_class_device.c **** 	else
 279:C:/Users/Yushev/git/optiga-trust-qi/projects/xmc4700_relax_kit/common/Dave/Generated/USBD_VCOM/class_driver/device\cdc_class_device.c **** 	{
 280:C:/Users/Yushev/git/optiga-trust-qi/projects/xmc4700_relax_kit/common/Dave/Generated/USBD_VCOM/class_driver/device\cdc_class_device.c **** 		status = ENDPOINT_RWSTREAM_DeviceDisconnected;
 281:C:/Users/Yushev/git/optiga-trust-qi/projects/xmc4700_relax_kit/common/Dave/Generated/USBD_VCOM/class_driver/device\cdc_class_device.c **** 	}
 282:C:/Users/Yushev/git/optiga-trust-qi/projects/xmc4700_relax_kit/common/Dave/Generated/USBD_VCOM/class_driver/device\cdc_class_device.c **** 
 283:C:/Users/Yushev/git/optiga-trust-qi/projects/xmc4700_relax_kit/common/Dave/Generated/USBD_VCOM/class_driver/device\cdc_class_device.c **** 	return status;
 284:C:/Users/Yushev/git/optiga-trust-qi/projects/xmc4700_relax_kit/common/Dave/Generated/USBD_VCOM/class_driver/device\cdc_class_device.c **** 
 285:C:/Users/Yushev/git/optiga-trust-qi/projects/xmc4700_relax_kit/common/Dave/Generated/USBD_VCOM/class_driver/device\cdc_class_device.c **** }
 617              	 .loc 2 285 0
 618 002a BDE81040 	 pop {r4,lr}
 619              	.LCFI15:
 620              	 .cfi_remember_state
 621              	 .cfi_restore 14
 622              	 .cfi_restore 4
 623              	 .cfi_def_cfa_offset 0
 275:C:/Users/Yushev/git/optiga-trust-qi/projects/xmc4700_relax_kit/common/Dave/Generated/USBD_VCOM/class_driver/device\cdc_class_device.c **** 			status = Endpoint_WaitUntilReady();
 624              	 .loc 2 275 0
 625 002e FFF7FEBF 	 b Endpoint_WaitUntilReady
 626              	.LVL51:
 627              	.L64:
 628              	.LCFI16:
 629              	 .cfi_restore_state
 280:C:/Users/Yushev/git/optiga-trust-qi/projects/xmc4700_relax_kit/common/Dave/Generated/USBD_VCOM/class_driver/device\cdc_class_device.c **** 	}
 630              	 .loc 2 280 0
 631 0032 0220     	 movs r0,#2
 632              	.LVL52:
 633              	 .loc 2 285 0
 634 0034 10BD     	 pop {r4,pc}
 635              	.L66:
 636 0036 00BF     	 .align 2
 637              	.L65:
 638 0038 00000000 	 .word USB_DeviceState
 639              	 .cfi_endproc
 640              	.LFE192:
 642              	 .section .text.CDC_Device_Flush,"ax",%progbits
 643              	 .align 1
 644              	 .global CDC_Device_Flush
 645              	 .thumb
 646              	 .thumb_func
 648              	CDC_Device_Flush:
 649              	.LFB193:
 286:C:/Users/Yushev/git/optiga-trust-qi/projects/xmc4700_relax_kit/common/Dave/Generated/USBD_VCOM/class_driver/device\cdc_class_device.c **** 
 287:C:/Users/Yushev/git/optiga-trust-qi/projects/xmc4700_relax_kit/common/Dave/Generated/USBD_VCOM/class_driver/device\cdc_class_device.c **** uint8_t CDC_Device_Flush(USB_ClassInfo_CDC_Device_t* const CDCInterfaceInfo)
 288:C:/Users/Yushev/git/optiga-trust-qi/projects/xmc4700_relax_kit/common/Dave/Generated/USBD_VCOM/class_driver/device\cdc_class_device.c **** {
 650              	 .loc 2 288 0
 651              	 .cfi_startproc
 652              	 
 653              	 
 654              	.LVL53:
 655 0000 08B5     	 push {r3,lr}
 656              	.LCFI17:
 657              	 .cfi_def_cfa_offset 8
 658              	 .cfi_offset 3,-8
 659              	 .cfi_offset 14,-4
 289:C:/Users/Yushev/git/optiga-trust-qi/projects/xmc4700_relax_kit/common/Dave/Generated/USBD_VCOM/class_driver/device\cdc_class_device.c **** 	uint8_t status = 0;
 290:C:/Users/Yushev/git/optiga-trust-qi/projects/xmc4700_relax_kit/common/Dave/Generated/USBD_VCOM/class_driver/device\cdc_class_device.c **** 	if ((USB_DeviceState == DEVICE_STATE_Configured) &&	(CDCInterfaceInfo->State.LineEncoding.BaudRate
 660              	 .loc 2 290 0
 661 0002 094B     	 ldr r3,.L72
 662 0004 1B78     	 ldrb r3,[r3]
 663 0006 042B     	 cmp r3,#4
 664 0008 0BD1     	 bne .L70
 665              	 .loc 2 290 0 is_stmt 0 discriminator 1
 666 000a 8369     	 ldr r3,[r0,#24]
 667 000c 4BB1     	 cbz r3,.L70
 668              	.LVL54:
 669              	.LBB64:
 670              	.LBB65:
 291:C:/Users/Yushev/git/optiga-trust-qi/projects/xmc4700_relax_kit/common/Dave/Generated/USBD_VCOM/class_driver/device\cdc_class_device.c **** 	{
 292:C:/Users/Yushev/git/optiga-trust-qi/projects/xmc4700_relax_kit/common/Dave/Generated/USBD_VCOM/class_driver/device\cdc_class_device.c **** 		Endpoint_SelectEndpoint(CDCInterfaceInfo->Config.DataINEndpoint.Address);
 671              	 .loc 2 292 0 is_stmt 1
 672 000e 0078     	 ldrb r0,[r0]
 673              	.LVL55:
 674 0010 FFF7FEFF 	 bl Endpoint_SelectEndpoint
 675              	.LVL56:
 293:C:/Users/Yushev/git/optiga-trust-qi/projects/xmc4700_relax_kit/common/Dave/Generated/USBD_VCOM/class_driver/device\cdc_class_device.c **** 
 294:C:/Users/Yushev/git/optiga-trust-qi/projects/xmc4700_relax_kit/common/Dave/Generated/USBD_VCOM/class_driver/device\cdc_class_device.c **** 		if (Endpoint_BytesInEndpoint())
 676              	 .loc 2 294 0
 677 0014 FFF7FEFF 	 bl Endpoint_BytesInEndpoint
 678              	.LVL57:
 679 0018 20B1     	 cbz r0,.L68
 295:C:/Users/Yushev/git/optiga-trust-qi/projects/xmc4700_relax_kit/common/Dave/Generated/USBD_VCOM/class_driver/device\cdc_class_device.c **** 		{
 296:C:/Users/Yushev/git/optiga-trust-qi/projects/xmc4700_relax_kit/common/Dave/Generated/USBD_VCOM/class_driver/device\cdc_class_device.c **** 			Endpoint_ClearIN();
 680              	 .loc 2 296 0
 681 001a FFF7FEFF 	 bl Endpoint_ClearIN
 682              	.LVL58:
 683 001e 0020     	 movs r0,#0
 684 0020 08BD     	 pop {r3,pc}
 685              	.LVL59:
 686              	.L70:
 687              	.LBE65:
 688              	.LBE64:
 297:C:/Users/Yushev/git/optiga-trust-qi/projects/xmc4700_relax_kit/common/Dave/Generated/USBD_VCOM/class_driver/device\cdc_class_device.c **** 		}
 298:C:/Users/Yushev/git/optiga-trust-qi/projects/xmc4700_relax_kit/common/Dave/Generated/USBD_VCOM/class_driver/device\cdc_class_device.c **** 
 299:C:/Users/Yushev/git/optiga-trust-qi/projects/xmc4700_relax_kit/common/Dave/Generated/USBD_VCOM/class_driver/device\cdc_class_device.c **** 		status = ENDPOINT_READYWAIT_NoError;
 300:C:/Users/Yushev/git/optiga-trust-qi/projects/xmc4700_relax_kit/common/Dave/Generated/USBD_VCOM/class_driver/device\cdc_class_device.c **** 	}
 301:C:/Users/Yushev/git/optiga-trust-qi/projects/xmc4700_relax_kit/common/Dave/Generated/USBD_VCOM/class_driver/device\cdc_class_device.c **** 	else
 302:C:/Users/Yushev/git/optiga-trust-qi/projects/xmc4700_relax_kit/common/Dave/Generated/USBD_VCOM/class_driver/device\cdc_class_device.c **** 	{
 303:C:/Users/Yushev/git/optiga-trust-qi/projects/xmc4700_relax_kit/common/Dave/Generated/USBD_VCOM/class_driver/device\cdc_class_device.c **** 		status = ENDPOINT_RWSTREAM_DeviceDisconnected;
 689              	 .loc 2 303 0
 690 0022 0220     	 movs r0,#2
 691              	.LVL60:
 692              	.L68:
 304:C:/Users/Yushev/git/optiga-trust-qi/projects/xmc4700_relax_kit/common/Dave/Generated/USBD_VCOM/class_driver/device\cdc_class_device.c **** 	}
 305:C:/Users/Yushev/git/optiga-trust-qi/projects/xmc4700_relax_kit/common/Dave/Generated/USBD_VCOM/class_driver/device\cdc_class_device.c **** 
 306:C:/Users/Yushev/git/optiga-trust-qi/projects/xmc4700_relax_kit/common/Dave/Generated/USBD_VCOM/class_driver/device\cdc_class_device.c **** 	return status;
 307:C:/Users/Yushev/git/optiga-trust-qi/projects/xmc4700_relax_kit/common/Dave/Generated/USBD_VCOM/class_driver/device\cdc_class_device.c **** }
 693              	 .loc 2 307 0
 694 0024 08BD     	 pop {r3,pc}
 695              	.L73:
 696 0026 00BF     	 .align 2
 697              	.L72:
 698 0028 00000000 	 .word USB_DeviceState
 699              	 .cfi_endproc
 700              	.LFE193:
 702              	 .section .text.CDC_Device_USBTask,"ax",%progbits
 703              	 .align 1
 704              	 .global CDC_Device_USBTask
 705              	 .thumb
 706              	 .thumb_func
 708              	CDC_Device_USBTask:
 709              	.LFB189:
 209:C:/Users/Yushev/git/optiga-trust-qi/projects/xmc4700_relax_kit/common/Dave/Generated/USBD_VCOM/class_driver/device\cdc_class_device.c **** 	if ((USB_DeviceState == DEVICE_STATE_Configured) &&	(CDCInterfaceInfo->State.LineEncoding.BaudRate
 710              	 .loc 2 209 0
 711              	 .cfi_startproc
 712              	 
 713              	 
 714              	.LVL61:
 715 0000 10B5     	 push {r4,lr}
 716              	.LCFI18:
 717              	 .cfi_def_cfa_offset 8
 718              	 .cfi_offset 4,-8
 719              	 .cfi_offset 14,-4
 210:C:/Users/Yushev/git/optiga-trust-qi/projects/xmc4700_relax_kit/common/Dave/Generated/USBD_VCOM/class_driver/device\cdc_class_device.c **** 	{
 720              	 .loc 2 210 0
 721 0002 0E4B     	 ldr r3,.L82
 722 0004 1B78     	 ldrb r3,[r3]
 723 0006 042B     	 cmp r3,#4
 209:C:/Users/Yushev/git/optiga-trust-qi/projects/xmc4700_relax_kit/common/Dave/Generated/USBD_VCOM/class_driver/device\cdc_class_device.c **** 	if ((USB_DeviceState == DEVICE_STATE_Configured) &&	(CDCInterfaceInfo->State.LineEncoding.BaudRate
 724              	 .loc 2 209 0
 725 0008 0446     	 mov r4,r0
 210:C:/Users/Yushev/git/optiga-trust-qi/projects/xmc4700_relax_kit/common/Dave/Generated/USBD_VCOM/class_driver/device\cdc_class_device.c **** 	{
 726              	 .loc 2 210 0
 727 000a 15D1     	 bne .L74
 210:C:/Users/Yushev/git/optiga-trust-qi/projects/xmc4700_relax_kit/common/Dave/Generated/USBD_VCOM/class_driver/device\cdc_class_device.c **** 	{
 728              	 .loc 2 210 0 is_stmt 0 discriminator 1
 729 000c 8369     	 ldr r3,[r0,#24]
 730 000e 9BB1     	 cbz r3,.L74
 213:C:/Users/Yushev/git/optiga-trust-qi/projects/xmc4700_relax_kit/common/Dave/Generated/USBD_VCOM/class_driver/device\cdc_class_device.c **** 
 731              	 .loc 2 213 0 is_stmt 1
 732 0010 0078     	 ldrb r0,[r0]
 733              	.LVL62:
 734 0012 FFF7FEFF 	 bl Endpoint_SelectEndpoint
 735              	.LVL63:
 736              	.LBB68:
 737              	.LBB69:
 196:c:\users\yushev\git\optiga-trust-qi\projects\xmc4700_relax_kit\common\dave\generated\usbd\usb\core\xmc4000\usbd_endpoint_xmc4000.h **** 		return ep->InInUse == 0 && ep->IsEnabled;
 738              	 .loc 1 196 0
 739 0016 0A4B     	 ldr r3,.L82+4
 740 0018 93F83C21 	 ldrb r2,[r3,#316]
 741              	.LVL64:
 197:c:\users\yushev\git\optiga-trust-qi\projects\xmc4700_relax_kit\common\dave\generated\usbd\usb\core\xmc4000\usbd_endpoint_xmc4000.h **** 	}
 742              	 .loc 1 197 0
 743 001c 2C21     	 movs r1,#44
 744 001e 01FB0233 	 mla r3,r1,r2,r3
 745 0022 9A68     	 ldr r2,[r3,#8]
 746              	.LVL65:
 747 0024 D206     	 lsls r2,r2,#27
 748 0026 07D4     	 bmi .L74
 749 0028 9B68     	 ldr r3,[r3,#8]
 750 002a 9B07     	 lsls r3,r3,#30
 751 002c 04D5     	 bpl .L74
 752              	.LBE69:
 753              	.LBE68:
 217:C:/Users/Yushev/git/optiga-trust-qi/projects/xmc4700_relax_kit/common/Dave/Generated/USBD_VCOM/class_driver/device\cdc_class_device.c **** 		}
 754              	 .loc 2 217 0
 755 002e 2046     	 mov r0,r4
 221:C:/Users/Yushev/git/optiga-trust-qi/projects/xmc4700_relax_kit/common/Dave/Generated/USBD_VCOM/class_driver/device\cdc_class_device.c **** 
 756              	 .loc 2 221 0
 757 0030 BDE81040 	 pop {r4,lr}
 758              	.LCFI19:
 759              	 .cfi_remember_state
 760              	 .cfi_restore 14
 761              	 .cfi_restore 4
 762              	 .cfi_def_cfa_offset 0
 763              	.LVL66:
 217:C:/Users/Yushev/git/optiga-trust-qi/projects/xmc4700_relax_kit/common/Dave/Generated/USBD_VCOM/class_driver/device\cdc_class_device.c **** 		}
 764              	 .loc 2 217 0
 765 0034 FFF7FEBF 	 b CDC_Device_Flush
 766              	.LVL67:
 767              	.L74:
 768              	.LCFI20:
 769              	 .cfi_restore_state
 770 0038 10BD     	 pop {r4,pc}
 771              	.LVL68:
 772              	.L83:
 773 003a 00BF     	 .align 2
 774              	.L82:
 775 003c 00000000 	 .word USB_DeviceState
 776 0040 00000000 	 .word device
 777              	 .cfi_endproc
 778              	.LFE189:
 780              	 .section .text.CDC_Device_BytesReceived,"ax",%progbits
 781              	 .align 1
 782              	 .global CDC_Device_BytesReceived
 783              	 .thumb
 784              	 .thumb_func
 786              	CDC_Device_BytesReceived:
 787              	.LFB194:
 308:C:/Users/Yushev/git/optiga-trust-qi/projects/xmc4700_relax_kit/common/Dave/Generated/USBD_VCOM/class_driver/device\cdc_class_device.c **** 
 309:C:/Users/Yushev/git/optiga-trust-qi/projects/xmc4700_relax_kit/common/Dave/Generated/USBD_VCOM/class_driver/device\cdc_class_device.c **** uint16_t CDC_Device_BytesReceived(USB_ClassInfo_CDC_Device_t* const CDCInterfaceInfo)
 310:C:/Users/Yushev/git/optiga-trust-qi/projects/xmc4700_relax_kit/common/Dave/Generated/USBD_VCOM/class_driver/device\cdc_class_device.c **** {
 788              	 .loc 2 310 0
 789              	 .cfi_startproc
 790              	 
 791              	 
 792              	.LVL69:
 793 0000 10B5     	 push {r4,lr}
 794              	.LCFI21:
 795              	 .cfi_def_cfa_offset 8
 796              	 .cfi_offset 4,-8
 797              	 .cfi_offset 14,-4
 311:C:/Users/Yushev/git/optiga-trust-qi/projects/xmc4700_relax_kit/common/Dave/Generated/USBD_VCOM/class_driver/device\cdc_class_device.c **** 	uint16_t bytes = 0;
 312:C:/Users/Yushev/git/optiga-trust-qi/projects/xmc4700_relax_kit/common/Dave/Generated/USBD_VCOM/class_driver/device\cdc_class_device.c **** 	if ((USB_DeviceState == DEVICE_STATE_Configured) &&	(CDCInterfaceInfo->State.LineEncoding.BaudRate
 798              	 .loc 2 312 0
 799 0002 0E4B     	 ldr r3,.L94
 800 0004 1B78     	 ldrb r3,[r3]
 801 0006 042B     	 cmp r3,#4
 802 0008 01D0     	 beq .L85
 803              	.LVL70:
 804              	.L87:
 311:C:/Users/Yushev/git/optiga-trust-qi/projects/xmc4700_relax_kit/common/Dave/Generated/USBD_VCOM/class_driver/device\cdc_class_device.c **** 	uint16_t bytes = 0;
 805              	 .loc 2 311 0
 806 000a 0024     	 movs r4,#0
 807 000c 14E0     	 b .L86
 808              	.LVL71:
 809              	.L85:
 810              	 .loc 2 312 0 discriminator 1
 811 000e 8369     	 ldr r3,[r0,#24]
 812 0010 002B     	 cmp r3,#0
 813 0012 FAD0     	 beq .L87
 313:C:/Users/Yushev/git/optiga-trust-qi/projects/xmc4700_relax_kit/common/Dave/Generated/USBD_VCOM/class_driver/device\cdc_class_device.c **** 	{
 314:C:/Users/Yushev/git/optiga-trust-qi/projects/xmc4700_relax_kit/common/Dave/Generated/USBD_VCOM/class_driver/device\cdc_class_device.c **** 
 315:C:/Users/Yushev/git/optiga-trust-qi/projects/xmc4700_relax_kit/common/Dave/Generated/USBD_VCOM/class_driver/device\cdc_class_device.c **** 		Endpoint_SelectEndpoint(CDCInterfaceInfo->Config.DataOUTEndpoint.Address);
 814              	 .loc 2 315 0
 815 0014 8079     	 ldrb r0,[r0,#6]
 816              	.LVL72:
 817 0016 FFF7FEFF 	 bl Endpoint_SelectEndpoint
 818              	.LVL73:
 819              	.LBB70:
 820              	.LBB71:
 211:c:\users\yushev\git\optiga-trust-qi\projects\xmc4700_relax_kit\common\dave\generated\usbd\usb\core\xmc4000\usbd_endpoint_xmc4000.h **** 		return ep->IsOutRecieved;
 821              	 .loc 1 211 0
 822 001a 094B     	 ldr r3,.L94+4
 823 001c 93F83C21 	 ldrb r2,[r3,#316]
 824              	.LVL74:
 212:c:\users\yushev\git\optiga-trust-qi\projects\xmc4700_relax_kit\common\dave\generated\usbd\usb\core\xmc4000\usbd_endpoint_xmc4000.h **** 	}
 825              	 .loc 1 212 0
 826 0020 2C21     	 movs r1,#44
 827 0022 01FB0233 	 mla r3,r1,r2,r3
 828 0026 9B68     	 ldr r3,[r3,#8]
 829              	.LBE71:
 830              	.LBE70:
 316:C:/Users/Yushev/git/optiga-trust-qi/projects/xmc4700_relax_kit/common/Dave/Generated/USBD_VCOM/class_driver/device\cdc_class_device.c **** 
 317:C:/Users/Yushev/git/optiga-trust-qi/projects/xmc4700_relax_kit/common/Dave/Generated/USBD_VCOM/class_driver/device\cdc_class_device.c **** 		if (Endpoint_IsOUTReceived())
 831              	 .loc 2 317 0
 832 0028 9B06     	 lsls r3,r3,#26
 833 002a EED5     	 bpl .L87
 318:C:/Users/Yushev/git/optiga-trust-qi/projects/xmc4700_relax_kit/common/Dave/Generated/USBD_VCOM/class_driver/device\cdc_class_device.c **** 		{
 319:C:/Users/Yushev/git/optiga-trust-qi/projects/xmc4700_relax_kit/common/Dave/Generated/USBD_VCOM/class_driver/device\cdc_class_device.c **** 			if (!(Endpoint_BytesInEndpoint()))
 834              	 .loc 2 319 0
 835 002c FFF7FEFF 	 bl Endpoint_BytesInEndpoint
 836              	.LVL75:
 837 0030 0446     	 mov r4,r0
 838 0032 08B9     	 cbnz r0,.L86
 320:C:/Users/Yushev/git/optiga-trust-qi/projects/xmc4700_relax_kit/common/Dave/Generated/USBD_VCOM/class_driver/device\cdc_class_device.c **** 			{
 321:C:/Users/Yushev/git/optiga-trust-qi/projects/xmc4700_relax_kit/common/Dave/Generated/USBD_VCOM/class_driver/device\cdc_class_device.c **** 				Endpoint_ClearOUT();
 839              	 .loc 2 321 0
 840 0034 FFF7FEFF 	 bl Endpoint_ClearOUT
 841              	.LVL76:
 842              	.L86:
 322:C:/Users/Yushev/git/optiga-trust-qi/projects/xmc4700_relax_kit/common/Dave/Generated/USBD_VCOM/class_driver/device\cdc_class_device.c **** 				bytes = 0;
 323:C:/Users/Yushev/git/optiga-trust-qi/projects/xmc4700_relax_kit/common/Dave/Generated/USBD_VCOM/class_driver/device\cdc_class_device.c **** 			}
 324:C:/Users/Yushev/git/optiga-trust-qi/projects/xmc4700_relax_kit/common/Dave/Generated/USBD_VCOM/class_driver/device\cdc_class_device.c **** 			else
 325:C:/Users/Yushev/git/optiga-trust-qi/projects/xmc4700_relax_kit/common/Dave/Generated/USBD_VCOM/class_driver/device\cdc_class_device.c **** 			{
 326:C:/Users/Yushev/git/optiga-trust-qi/projects/xmc4700_relax_kit/common/Dave/Generated/USBD_VCOM/class_driver/device\cdc_class_device.c **** 				bytes = Endpoint_BytesInEndpoint();
 327:C:/Users/Yushev/git/optiga-trust-qi/projects/xmc4700_relax_kit/common/Dave/Generated/USBD_VCOM/class_driver/device\cdc_class_device.c **** 			}
 328:C:/Users/Yushev/git/optiga-trust-qi/projects/xmc4700_relax_kit/common/Dave/Generated/USBD_VCOM/class_driver/device\cdc_class_device.c **** 		}
 329:C:/Users/Yushev/git/optiga-trust-qi/projects/xmc4700_relax_kit/common/Dave/Generated/USBD_VCOM/class_driver/device\cdc_class_device.c **** 		else
 330:C:/Users/Yushev/git/optiga-trust-qi/projects/xmc4700_relax_kit/common/Dave/Generated/USBD_VCOM/class_driver/device\cdc_class_device.c **** 		{
 331:C:/Users/Yushev/git/optiga-trust-qi/projects/xmc4700_relax_kit/common/Dave/Generated/USBD_VCOM/class_driver/device\cdc_class_device.c **** 			bytes = 0;
 332:C:/Users/Yushev/git/optiga-trust-qi/projects/xmc4700_relax_kit/common/Dave/Generated/USBD_VCOM/class_driver/device\cdc_class_device.c **** 		}
 333:C:/Users/Yushev/git/optiga-trust-qi/projects/xmc4700_relax_kit/common/Dave/Generated/USBD_VCOM/class_driver/device\cdc_class_device.c **** 	}
 334:C:/Users/Yushev/git/optiga-trust-qi/projects/xmc4700_relax_kit/common/Dave/Generated/USBD_VCOM/class_driver/device\cdc_class_device.c **** 
 335:C:/Users/Yushev/git/optiga-trust-qi/projects/xmc4700_relax_kit/common/Dave/Generated/USBD_VCOM/class_driver/device\cdc_class_device.c **** 	return bytes;
 336:C:/Users/Yushev/git/optiga-trust-qi/projects/xmc4700_relax_kit/common/Dave/Generated/USBD_VCOM/class_driver/device\cdc_class_device.c **** }
 843              	 .loc 2 336 0
 844 0038 2046     	 mov r0,r4
 845 003a 10BD     	 pop {r4,pc}
 846              	.LVL77:
 847              	.L95:
 848              	 .align 2
 849              	.L94:
 850 003c 00000000 	 .word USB_DeviceState
 851 0040 00000000 	 .word device
 852              	 .cfi_endproc
 853              	.LFE194:
 855              	 .section .text.CDC_Device_ReceiveByte,"ax",%progbits
 856              	 .align 1
 857              	 .global CDC_Device_ReceiveByte
 858              	 .thumb
 859              	 .thumb_func
 861              	CDC_Device_ReceiveByte:
 862              	.LFB195:
 337:C:/Users/Yushev/git/optiga-trust-qi/projects/xmc4700_relax_kit/common/Dave/Generated/USBD_VCOM/class_driver/device\cdc_class_device.c **** 
 338:C:/Users/Yushev/git/optiga-trust-qi/projects/xmc4700_relax_kit/common/Dave/Generated/USBD_VCOM/class_driver/device\cdc_class_device.c **** int16_t CDC_Device_ReceiveByte(
 339:C:/Users/Yushev/git/optiga-trust-qi/projects/xmc4700_relax_kit/common/Dave/Generated/USBD_VCOM/class_driver/device\cdc_class_device.c **** 						USB_ClassInfo_CDC_Device_t* const CDCInterfaceInfo)
 340:C:/Users/Yushev/git/optiga-trust-qi/projects/xmc4700_relax_kit/common/Dave/Generated/USBD_VCOM/class_driver/device\cdc_class_device.c **** {
 863              	 .loc 2 340 0
 864              	 .cfi_startproc
 865              	 
 866              	 
 867              	.LVL78:
 868 0000 08B5     	 push {r3,lr}
 869              	.LCFI22:
 870              	 .cfi_def_cfa_offset 8
 871              	 .cfi_offset 3,-8
 872              	 .cfi_offset 14,-4
 341:C:/Users/Yushev/git/optiga-trust-qi/projects/xmc4700_relax_kit/common/Dave/Generated/USBD_VCOM/class_driver/device\cdc_class_device.c **** 	int16_t Rx_bytes = -1;
 342:C:/Users/Yushev/git/optiga-trust-qi/projects/xmc4700_relax_kit/common/Dave/Generated/USBD_VCOM/class_driver/device\cdc_class_device.c **** 	if ((USB_DeviceState == DEVICE_STATE_Configured) &&	(CDCInterfaceInfo->State.LineEncoding.BaudRate
 873              	 .loc 2 342 0
 874 0002 0F4B     	 ldr r3,.L108
 875 0004 1B78     	 ldrb r3,[r3]
 876 0006 042B     	 cmp r3,#4
 877 0008 16D1     	 bne .L107
 878              	 .loc 2 342 0 is_stmt 0 discriminator 1
 879 000a 8369     	 ldr r3,[r0,#24]
 880 000c A3B1     	 cbz r3,.L107
 343:C:/Users/Yushev/git/optiga-trust-qi/projects/xmc4700_relax_kit/common/Dave/Generated/USBD_VCOM/class_driver/device\cdc_class_device.c **** 	{
 344:C:/Users/Yushev/git/optiga-trust-qi/projects/xmc4700_relax_kit/common/Dave/Generated/USBD_VCOM/class_driver/device\cdc_class_device.c **** 		Endpoint_SelectEndpoint(CDCInterfaceInfo->Config.DataOUTEndpoint.Address);
 881              	 .loc 2 344 0 is_stmt 1
 882 000e 8079     	 ldrb r0,[r0,#6]
 883              	.LVL79:
 884 0010 FFF7FEFF 	 bl Endpoint_SelectEndpoint
 885              	.LVL80:
 886              	.LBB72:
 887              	.LBB73:
 211:c:\users\yushev\git\optiga-trust-qi\projects\xmc4700_relax_kit\common\dave\generated\usbd\usb\core\xmc4000\usbd_endpoint_xmc4000.h **** 		return ep->IsOutRecieved;
 888              	 .loc 1 211 0
 889 0014 0B4B     	 ldr r3,.L108+4
 890 0016 93F83C21 	 ldrb r2,[r3,#316]
 891              	.LVL81:
 212:c:\users\yushev\git\optiga-trust-qi\projects\xmc4700_relax_kit\common\dave\generated\usbd\usb\core\xmc4000\usbd_endpoint_xmc4000.h **** 	}
 892              	 .loc 1 212 0
 893 001a 2C21     	 movs r1,#44
 894 001c 01FB0233 	 mla r3,r1,r2,r3
 895 0020 9B68     	 ldr r3,[r3,#8]
 896              	.LBE73:
 897              	.LBE72:
 345:C:/Users/Yushev/git/optiga-trust-qi/projects/xmc4700_relax_kit/common/Dave/Generated/USBD_VCOM/class_driver/device\cdc_class_device.c **** 
 346:C:/Users/Yushev/git/optiga-trust-qi/projects/xmc4700_relax_kit/common/Dave/Generated/USBD_VCOM/class_driver/device\cdc_class_device.c **** 		if (Endpoint_IsOUTReceived())
 898              	 .loc 2 346 0
 899 0022 9B06     	 lsls r3,r3,#26
 900 0024 08D5     	 bpl .L107
 347:C:/Users/Yushev/git/optiga-trust-qi/projects/xmc4700_relax_kit/common/Dave/Generated/USBD_VCOM/class_driver/device\cdc_class_device.c **** 		{
 348:C:/Users/Yushev/git/optiga-trust-qi/projects/xmc4700_relax_kit/common/Dave/Generated/USBD_VCOM/class_driver/device\cdc_class_device.c **** 			if (Endpoint_BytesInEndpoint())
 901              	 .loc 2 348 0
 902 0026 FFF7FEFF 	 bl Endpoint_BytesInEndpoint
 903              	.LVL82:
 904 002a 18B1     	 cbz r0,.L100
 349:C:/Users/Yushev/git/optiga-trust-qi/projects/xmc4700_relax_kit/common/Dave/Generated/USBD_VCOM/class_driver/device\cdc_class_device.c **** 			{
 350:C:/Users/Yushev/git/optiga-trust-qi/projects/xmc4700_relax_kit/common/Dave/Generated/USBD_VCOM/class_driver/device\cdc_class_device.c **** 				Rx_bytes = Endpoint_Read_8();
 905              	 .loc 2 350 0
 906 002c FFF7FEFF 	 bl Endpoint_Read_8
 907              	.LVL83:
 908 0030 80B2     	 uxth r0,r0
 909              	.LVL84:
 910 0032 03E0     	 b .L98
 911              	.LVL85:
 912              	.L100:
 351:C:/Users/Yushev/git/optiga-trust-qi/projects/xmc4700_relax_kit/common/Dave/Generated/USBD_VCOM/class_driver/device\cdc_class_device.c **** 			}
 352:C:/Users/Yushev/git/optiga-trust-qi/projects/xmc4700_relax_kit/common/Dave/Generated/USBD_VCOM/class_driver/device\cdc_class_device.c **** 			else
 353:C:/Users/Yushev/git/optiga-trust-qi/projects/xmc4700_relax_kit/common/Dave/Generated/USBD_VCOM/class_driver/device\cdc_class_device.c **** 			{
 354:C:/Users/Yushev/git/optiga-trust-qi/projects/xmc4700_relax_kit/common/Dave/Generated/USBD_VCOM/class_driver/device\cdc_class_device.c **** 				Endpoint_ClearOUT();
 913              	 .loc 2 354 0
 914 0034 FFF7FEFF 	 bl Endpoint_ClearOUT
 915              	.LVL86:
 916              	.L107:
 341:C:/Users/Yushev/git/optiga-trust-qi/projects/xmc4700_relax_kit/common/Dave/Generated/USBD_VCOM/class_driver/device\cdc_class_device.c **** 	if ((USB_DeviceState == DEVICE_STATE_Configured) &&	(CDCInterfaceInfo->State.LineEncoding.BaudRate
 917              	 .loc 2 341 0
 918 0038 4FF6FF70 	 movw r0,#65535
 919              	.LVL87:
 920              	.L98:
 355:C:/Users/Yushev/git/optiga-trust-qi/projects/xmc4700_relax_kit/common/Dave/Generated/USBD_VCOM/class_driver/device\cdc_class_device.c **** 			}
 356:C:/Users/Yushev/git/optiga-trust-qi/projects/xmc4700_relax_kit/common/Dave/Generated/USBD_VCOM/class_driver/device\cdc_class_device.c **** 
 357:C:/Users/Yushev/git/optiga-trust-qi/projects/xmc4700_relax_kit/common/Dave/Generated/USBD_VCOM/class_driver/device\cdc_class_device.c **** 		}
 358:C:/Users/Yushev/git/optiga-trust-qi/projects/xmc4700_relax_kit/common/Dave/Generated/USBD_VCOM/class_driver/device\cdc_class_device.c **** 
 359:C:/Users/Yushev/git/optiga-trust-qi/projects/xmc4700_relax_kit/common/Dave/Generated/USBD_VCOM/class_driver/device\cdc_class_device.c **** 	}
 360:C:/Users/Yushev/git/optiga-trust-qi/projects/xmc4700_relax_kit/common/Dave/Generated/USBD_VCOM/class_driver/device\cdc_class_device.c **** 	return Rx_bytes;
 361:C:/Users/Yushev/git/optiga-trust-qi/projects/xmc4700_relax_kit/common/Dave/Generated/USBD_VCOM/class_driver/device\cdc_class_device.c **** }
 921              	 .loc 2 361 0
 922 003c 00B2     	 sxth r0,r0
 923 003e 08BD     	 pop {r3,pc}
 924              	.L109:
 925              	 .align 2
 926              	.L108:
 927 0040 00000000 	 .word USB_DeviceState
 928 0044 00000000 	 .word device
 929              	 .cfi_endproc
 930              	.LFE195:
 932              	 .section .text.CDC_Device_SendControlLineStateChange,"ax",%progbits
 933              	 .align 1
 934              	 .global CDC_Device_SendControlLineStateChange
 935              	 .thumb
 936              	 .thumb_func
 938              	CDC_Device_SendControlLineStateChange:
 939              	.LFB196:
 362:C:/Users/Yushev/git/optiga-trust-qi/projects/xmc4700_relax_kit/common/Dave/Generated/USBD_VCOM/class_driver/device\cdc_class_device.c **** 
 363:C:/Users/Yushev/git/optiga-trust-qi/projects/xmc4700_relax_kit/common/Dave/Generated/USBD_VCOM/class_driver/device\cdc_class_device.c **** void CDC_Device_SendControlLineStateChange(
 364:C:/Users/Yushev/git/optiga-trust-qi/projects/xmc4700_relax_kit/common/Dave/Generated/USBD_VCOM/class_driver/device\cdc_class_device.c **** 						USB_ClassInfo_CDC_Device_t* const CDCInterfaceInfo)
 365:C:/Users/Yushev/git/optiga-trust-qi/projects/xmc4700_relax_kit/common/Dave/Generated/USBD_VCOM/class_driver/device\cdc_class_device.c **** {
 940              	 .loc 2 365 0
 941              	 .cfi_startproc
 942              	 
 943              	 
 944              	.LVL88:
 945 0000 13B5     	 push {r0,r1,r4,lr}
 946              	.LCFI23:
 947              	 .cfi_def_cfa_offset 16
 948              	 .cfi_offset 4,-8
 949              	 .cfi_offset 14,-4
 366:C:/Users/Yushev/git/optiga-trust-qi/projects/xmc4700_relax_kit/common/Dave/Generated/USBD_VCOM/class_driver/device\cdc_class_device.c **** 	if ((USB_DeviceState == DEVICE_STATE_Configured) &&	(CDCInterfaceInfo->State.LineEncoding.BaudRate
 950              	 .loc 2 366 0
 951 0002 0F4B     	 ldr r3,.L115
 952 0004 1B78     	 ldrb r3,[r3]
 953 0006 042B     	 cmp r3,#4
 365:C:/Users/Yushev/git/optiga-trust-qi/projects/xmc4700_relax_kit/common/Dave/Generated/USBD_VCOM/class_driver/device\cdc_class_device.c **** 	if ((USB_DeviceState == DEVICE_STATE_Configured) &&	(CDCInterfaceInfo->State.LineEncoding.BaudRate
 954              	 .loc 2 365 0
 955 0008 0446     	 mov r4,r0
 956              	 .loc 2 366 0
 957 000a 16D1     	 bne .L110
 958              	 .loc 2 366 0 is_stmt 0 discriminator 1
 959 000c 8369     	 ldr r3,[r0,#24]
 960 000e A3B1     	 cbz r3,.L110
 961              	.LBB74:
 367:C:/Users/Yushev/git/optiga-trust-qi/projects/xmc4700_relax_kit/common/Dave/Generated/USBD_VCOM/class_driver/device\cdc_class_device.c **** 	{
 368:C:/Users/Yushev/git/optiga-trust-qi/projects/xmc4700_relax_kit/common/Dave/Generated/USBD_VCOM/class_driver/device\cdc_class_device.c **** 
 369:C:/Users/Yushev/git/optiga-trust-qi/projects/xmc4700_relax_kit/common/Dave/Generated/USBD_VCOM/class_driver/device\cdc_class_device.c **** 		Endpoint_SelectEndpoint(CDCInterfaceInfo->Config.NotificationEndpoint.Address);
 962              	 .loc 2 369 0 is_stmt 1
 963 0010 007B     	 ldrb r0,[r0,#12]
 964              	.LVL89:
 965 0012 FFF7FEFF 	 bl Endpoint_SelectEndpoint
 966              	.LVL90:
 370:C:/Users/Yushev/git/optiga-trust-qi/projects/xmc4700_relax_kit/common/Dave/Generated/USBD_VCOM/class_driver/device\cdc_class_device.c **** 
 371:C:/Users/Yushev/git/optiga-trust-qi/projects/xmc4700_relax_kit/common/Dave/Generated/USBD_VCOM/class_driver/device\cdc_class_device.c **** 		USB_Request_Header_t Notification = (USB_Request_Header_t)
 967              	 .loc 2 371 0
 968 0016 0B4A     	 ldr r2,.L115+4
 969 0018 1068     	 ldr r0,[r2]
 970 001a 5168     	 ldr r1,[r2,#4]
 971 001c 6B46     	 mov r3,sp
 972 001e 03C3     	 stmia r3!,{r0,r1}
 372:C:/Users/Yushev/git/optiga-trust-qi/projects/xmc4700_relax_kit/common/Dave/Generated/USBD_VCOM/class_driver/device\cdc_class_device.c **** 			{
 373:C:/Users/Yushev/git/optiga-trust-qi/projects/xmc4700_relax_kit/common/Dave/Generated/USBD_VCOM/class_driver/device\cdc_class_device.c **** 				.bmRequestType = (REQDIR_DEVICETOHOST | REQTYPE_CLASS |	REQREC_INTERFACE),
 374:C:/Users/Yushev/git/optiga-trust-qi/projects/xmc4700_relax_kit/common/Dave/Generated/USBD_VCOM/class_driver/device\cdc_class_device.c **** 				.bRequest      = CDC_NOTIF_SerialState,
 375:C:/Users/Yushev/git/optiga-trust-qi/projects/xmc4700_relax_kit/common/Dave/Generated/USBD_VCOM/class_driver/device\cdc_class_device.c **** 				.wValue        = 0,
 376:C:/Users/Yushev/git/optiga-trust-qi/projects/xmc4700_relax_kit/common/Dave/Generated/USBD_VCOM/class_driver/device\cdc_class_device.c **** 				.wIndex        = 0,
 377:C:/Users/Yushev/git/optiga-trust-qi/projects/xmc4700_relax_kit/common/Dave/Generated/USBD_VCOM/class_driver/device\cdc_class_device.c **** 				.wLength       = sizeof(CDCInterfaceInfo->State.ControlLineStates.DeviceToHost),
 378:C:/Users/Yushev/git/optiga-trust-qi/projects/xmc4700_relax_kit/common/Dave/Generated/USBD_VCOM/class_driver/device\cdc_class_device.c **** 			};
 379:C:/Users/Yushev/git/optiga-trust-qi/projects/xmc4700_relax_kit/common/Dave/Generated/USBD_VCOM/class_driver/device\cdc_class_device.c **** 
 380:C:/Users/Yushev/git/optiga-trust-qi/projects/xmc4700_relax_kit/common/Dave/Generated/USBD_VCOM/class_driver/device\cdc_class_device.c **** 		Endpoint_Write_Stream_LE(&Notification, sizeof(USB_Request_Header_t), NULL);
 973              	 .loc 2 380 0
 974 0020 0022     	 movs r2,#0
 975 0022 0821     	 movs r1,#8
 976 0024 6846     	 mov r0,sp
 977 0026 FFF7FEFF 	 bl Endpoint_Write_Stream_LE
 978              	.LVL91:
 381:C:/Users/Yushev/git/optiga-trust-qi/projects/xmc4700_relax_kit/common/Dave/Generated/USBD_VCOM/class_driver/device\cdc_class_device.c **** 		Endpoint_Write_Stream_LE(&CDCInterfaceInfo->State.ControlLineStates.DeviceToHost,
 979              	 .loc 2 381 0
 980 002a 0221     	 movs r1,#2
 981 002c 0022     	 movs r2,#0
 982 002e 04F11600 	 add r0,r4,#22
 983 0032 FFF7FEFF 	 bl Endpoint_Write_Stream_LE
 984              	.LVL92:
 382:C:/Users/Yushev/git/optiga-trust-qi/projects/xmc4700_relax_kit/common/Dave/Generated/USBD_VCOM/class_driver/device\cdc_class_device.c **** 				sizeof(CDCInterfaceInfo->State.ControlLineStates.DeviceToHost), NULL);
 383:C:/Users/Yushev/git/optiga-trust-qi/projects/xmc4700_relax_kit/common/Dave/Generated/USBD_VCOM/class_driver/device\cdc_class_device.c **** 		Endpoint_ClearIN();
 985              	 .loc 2 383 0
 986 0036 FFF7FEFF 	 bl Endpoint_ClearIN
 987              	.LVL93:
 988              	.L110:
 989              	.LBE74:
 384:C:/Users/Yushev/git/optiga-trust-qi/projects/xmc4700_relax_kit/common/Dave/Generated/USBD_VCOM/class_driver/device\cdc_class_device.c **** 	}
 385:C:/Users/Yushev/git/optiga-trust-qi/projects/xmc4700_relax_kit/common/Dave/Generated/USBD_VCOM/class_driver/device\cdc_class_device.c **** }
 990              	 .loc 2 385 0
 991 003a 02B0     	 add sp,sp,#8
 992              	.LCFI24:
 993              	 .cfi_def_cfa_offset 8
 994              	 
 995 003c 10BD     	 pop {r4,pc}
 996              	.LVL94:
 997              	.L116:
 998 003e 00BF     	 .align 2
 999              	.L115:
 1000 0040 00000000 	 .word USB_DeviceState
 1001 0044 00000000 	 .word .LANCHOR0
 1002              	 .cfi_endproc
 1003              	.LFE196:
 1005              	 .section .rodata
 1006              	 .set .LANCHOR0,.+0
 1007              	.LC0:
 1008 0000 A1       	 .byte -95
 1009 0001 20       	 .byte 32
 1010 0002 0000     	 .2byte 0
 1011 0004 0000     	 .2byte 0
 1012 0006 0200     	 .2byte 2
 1013              	 .text
 1014              	.Letext0:
 1015              	 .file 3 "c:\\users\\yushev\\dave_4-4-2_32bit_2018-02-23\\dave-ide-4.4.2-32bit\\eclipse\\arm-gcc-49\\arm-none-eabi\\include\\machine\\_default_types.h"
 1016              	 .file 4 "c:\\users\\yushev\\dave_4-4-2_32bit_2018-02-23\\dave-ide-4.4.2-32bit\\eclipse\\arm-gcc-49\\arm-none-eabi\\include\\stdint.h"
 1017              	 .file 5 "c:\\users\\yushev\\dave_4-4-2_32bit_2018-02-23\\dave-ide-4.4.2-32bit\\eclipse\\arm-gcc-49\\lib\\gcc\\arm-none-eabi\\4.9.3\\include\\stddef.h"
 1018              	 .file 6 "c:\\users\\yushev\\git\\optiga-trust-qi\\projects\\xmc4700_relax_kit\\common\\dave\\generated\\usbd\\usb\\core\\endpoint.h"
 1019              	 .file 7 "C:/Users/Yushev/git/optiga-trust-qi/projects/xmc4700_relax_kit/common/Libraries/CMSIS/Infineon/XMC4700_series/Include/XMC4700.h"
 1020              	 .file 8 "C:/Users/Yushev/git/optiga-trust-qi/projects/xmc4700_relax_kit/common/Libraries/XMCLib/inc/xmc_usbd_regs.h"
 1021              	 .file 9 "C:/Users/Yushev/git/optiga-trust-qi/projects/xmc4700_relax_kit/common/Libraries/XMCLib/inc/xmc_usbd.h"
 1022              	 .file 10 "c:\\users\\yushev\\git\\optiga-trust-qi\\projects\\xmc4700_relax_kit\\common\\dave\\generated\\usbd\\usbd.h"
 1023              	 .file 11 "c:\\users\\yushev\\git\\optiga-trust-qi\\projects\\xmc4700_relax_kit\\common\\dave\\generated\\usbd\\usb\\core\\endpoint_stream.h"
 1024              	 .file 12 "c:\\users\\yushev\\git\\optiga-trust-qi\\projects\\xmc4700_relax_kit\\common\\dave\\generated\\usbd\\usb\\core\\std_request_type.h"
 1025              	 .file 13 "c:\\users\\yushev\\git\\optiga-trust-qi\\projects\\xmc4700_relax_kit\\common\\dave\\generated\\usbd\\usb\\core\\device.h"
 1026              	 .file 14 "c:\\users\\yushev\\git\\optiga-trust-qi\\projects\\xmc4700_relax_kit\\common\\dave\\generated\\usbd_vcom\\class_driver\\common\\cdc_class_common.h"
 1027              	 .file 15 "C:/Users/Yushev/git/optiga-trust-qi/projects/xmc4700_relax_kit/common/Dave/Generated/USBD_VCOM/class_driver/device/cdc_class_device.h"
 1028              	 .file 16 "c:\\users\\yushev\\git\\optiga-trust-qi\\projects\\xmc4700_relax_kit\\common\\dave\\generated\\usbd_vcom\\usbd_vcom.h"
 1029              	 .file 17 "C:/Users/Yushev/git/optiga-trust-qi/projects/xmc4700_relax_kit/common/Libraries/CMSIS/Include/core_cm4.h"
 1030              	 .file 18 "C:/Users/Yushev/git/optiga-trust-qi/projects/xmc4700_relax_kit/common/Libraries/CMSIS/Infineon/XMC4700_series/Include/system_XMC4700.h"
 1031              	 .file 19 "c:\\users\\yushev\\git\\optiga-trust-qi\\projects\\xmc4700_relax_kit\\common\\dave\\generated\\usbd\\usbd_extern.h"
 1032              	 .file 20 "c:\\users\\yushev\\git\\optiga-trust-qi\\projects\\xmc4700_relax_kit\\common\\dave\\generated\\usbd\\usb\\core\\usb_task.h"
 1033              	 .file 21 "c:\\users\\yushev\\dave_4-4-2_32bit_2018-02-23\\dave-ide-4.4.2-32bit\\eclipse\\arm-gcc-49\\arm-none-eabi\\include\\string.h"
 1034              	 .file 22 "c:\\users\\yushev\\git\\optiga-trust-qi\\projects\\xmc4700_relax_kit\\common\\dave\\generated\\usbd\\usb\\core\\xmc4000\\usbd_endpoint_stream_xmc4000.h"