   1              	 .syntax unified
   2              	 .cpu cortex-m4
   3              	 .eabi_attribute 27,3
   4              	 .fpu fpv4-sp-d16
   5              	 .eabi_attribute 20,1
   6              	 .eabi_attribute 21,1
   7              	 .eabi_attribute 23,3
   8              	 .eabi_attribute 24,1
   9              	 .eabi_attribute 25,1
  10              	 .eabi_attribute 26,1
  11              	 .eabi_attribute 30,6
  12              	 .eabi_attribute 34,1
  13              	 .eabi_attribute 18,4
  14              	 .thumb
  15              	 .file "optiga_cmd.c"
  16              	 .text
  17              	.Ltext0:
  18              	 .cfi_sections .debug_frame
  19              	 .section .bss.g_optiga,"aw",%nobits
  20              	 .align 2
  23              	g_optiga:
  24 0000 00000000 	 .space 1660
  24      00000000 
  24      00000000 
  24      00000000 
  24      00000000 
  25              	 .section .data.g_optiga_list,"aw",%progbits
  26              	 .align 2
  29              	g_optiga_list:
  30 0000 00000000 	 .word g_optiga
  31              	 .section .data.g_hibernate_datastore_id_list,"aw",%progbits
  32              	 .align 2
  35              	g_hibernate_datastore_id_list:
  36 0000 3300     	 .short 51
  37              	 .global g_optiga_unique_application_identifier
  38 0002 0000     	 .section .rodata.g_optiga_unique_application_identifier,"a",%progbits
  39              	 .align 2
  42              	g_optiga_unique_application_identifier:
  43 0000 D2       	 .byte -46
  44 0001 76       	 .byte 118
  45 0002 00       	 .byte 0
  46 0003 00       	 .byte 0
  47 0004 04       	 .byte 4
  48 0005 47       	 .byte 71
  49 0006 65       	 .byte 101
  50 0007 6E       	 .byte 110
  51 0008 41       	 .byte 65
  52 0009 75       	 .byte 117
  53 000a 74       	 .byte 116
  54 000b 68       	 .byte 104
  55 000c 41       	 .byte 65
  56 000d 70       	 .byte 112
  57 000e 70       	 .byte 112
  58 000f 6C       	 .byte 108
  59              	 .section .text.optiga_cmd_prepare_apdu_header,"ax",%progbits
  60              	 .align 2
  61              	 .thumb
  62              	 .thumb_func
  64              	optiga_cmd_prepare_apdu_header:
  65              	.LFB0:
  66              	 .file 1 "C:/Users/Yushev/git/wpcqi-optiga-trust-charge/optiga/optiga/cmd/optiga_cmd.c"
   1:C:/Users/Yushev/git/wpcqi-optiga-trust-charge/optiga/optiga/cmd\optiga_cmd.c **** /**
   2:C:/Users/Yushev/git/wpcqi-optiga-trust-charge/optiga/optiga/cmd\optiga_cmd.c **** * \copyright
   3:C:/Users/Yushev/git/wpcqi-optiga-trust-charge/optiga/optiga/cmd\optiga_cmd.c **** * MIT License
   4:C:/Users/Yushev/git/wpcqi-optiga-trust-charge/optiga/optiga/cmd\optiga_cmd.c **** *
   5:C:/Users/Yushev/git/wpcqi-optiga-trust-charge/optiga/optiga/cmd\optiga_cmd.c **** * Copyright (c) 2020 Infineon Technologies AG
   6:C:/Users/Yushev/git/wpcqi-optiga-trust-charge/optiga/optiga/cmd\optiga_cmd.c **** *
   7:C:/Users/Yushev/git/wpcqi-optiga-trust-charge/optiga/optiga/cmd\optiga_cmd.c **** * Permission is hereby granted, free of charge, to any person obtaining a copy
   8:C:/Users/Yushev/git/wpcqi-optiga-trust-charge/optiga/optiga/cmd\optiga_cmd.c **** * of this software and associated documentation files (the "Software"), to deal
   9:C:/Users/Yushev/git/wpcqi-optiga-trust-charge/optiga/optiga/cmd\optiga_cmd.c **** * in the Software without restriction, including without limitation the rights
  10:C:/Users/Yushev/git/wpcqi-optiga-trust-charge/optiga/optiga/cmd\optiga_cmd.c **** * to use, copy, modify, merge, publish, distribute, sublicense, and/or sell
  11:C:/Users/Yushev/git/wpcqi-optiga-trust-charge/optiga/optiga/cmd\optiga_cmd.c **** * copies of the Software, and to permit persons to whom the Software is
  12:C:/Users/Yushev/git/wpcqi-optiga-trust-charge/optiga/optiga/cmd\optiga_cmd.c **** * furnished to do so, subject to the following conditions:
  13:C:/Users/Yushev/git/wpcqi-optiga-trust-charge/optiga/optiga/cmd\optiga_cmd.c **** *
  14:C:/Users/Yushev/git/wpcqi-optiga-trust-charge/optiga/optiga/cmd\optiga_cmd.c **** * The above copyright notice and this permission notice shall be included in all
  15:C:/Users/Yushev/git/wpcqi-optiga-trust-charge/optiga/optiga/cmd\optiga_cmd.c **** * copies or substantial portions of the Software.
  16:C:/Users/Yushev/git/wpcqi-optiga-trust-charge/optiga/optiga/cmd\optiga_cmd.c **** *
  17:C:/Users/Yushev/git/wpcqi-optiga-trust-charge/optiga/optiga/cmd\optiga_cmd.c **** * THE SOFTWARE IS PROVIDED "AS IS", WITHOUT WARRANTY OF ANY KIND, EXPRESS OR
  18:C:/Users/Yushev/git/wpcqi-optiga-trust-charge/optiga/optiga/cmd\optiga_cmd.c **** * IMPLIED, INCLUDING BUT NOT LIMITED TO THE WARRANTIES OF MERCHANTABILITY,
  19:C:/Users/Yushev/git/wpcqi-optiga-trust-charge/optiga/optiga/cmd\optiga_cmd.c **** * FITNESS FOR A PARTICULAR PURPOSE AND NONINFRINGEMENT. IN NO EVENT SHALL THE
  20:C:/Users/Yushev/git/wpcqi-optiga-trust-charge/optiga/optiga/cmd\optiga_cmd.c **** * AUTHORS OR COPYRIGHT HOLDERS BE LIABLE FOR ANY CLAIM, DAMAGES OR OTHER
  21:C:/Users/Yushev/git/wpcqi-optiga-trust-charge/optiga/optiga/cmd\optiga_cmd.c **** * LIABILITY, WHETHER IN AN ACTION OF CONTRACT, TORT OR OTHERWISE, ARISING FROM,
  22:C:/Users/Yushev/git/wpcqi-optiga-trust-charge/optiga/optiga/cmd\optiga_cmd.c **** * OUT OF OR IN CONNECTION WITH THE SOFTWARE OR THE USE OR OTHER DEALINGS IN THE
  23:C:/Users/Yushev/git/wpcqi-optiga-trust-charge/optiga/optiga/cmd\optiga_cmd.c **** * SOFTWARE
  24:C:/Users/Yushev/git/wpcqi-optiga-trust-charge/optiga/optiga/cmd\optiga_cmd.c **** *
  25:C:/Users/Yushev/git/wpcqi-optiga-trust-charge/optiga/optiga/cmd\optiga_cmd.c **** * \endcopyright
  26:C:/Users/Yushev/git/wpcqi-optiga-trust-charge/optiga/optiga/cmd\optiga_cmd.c **** *
  27:C:/Users/Yushev/git/wpcqi-optiga-trust-charge/optiga/optiga/cmd\optiga_cmd.c **** * \author Infineon Technologies AG
  28:C:/Users/Yushev/git/wpcqi-optiga-trust-charge/optiga/optiga/cmd\optiga_cmd.c **** *
  29:C:/Users/Yushev/git/wpcqi-optiga-trust-charge/optiga/optiga/cmd\optiga_cmd.c **** * \file optiga_cmd.c
  30:C:/Users/Yushev/git/wpcqi-optiga-trust-charge/optiga/optiga/cmd\optiga_cmd.c **** *
  31:C:/Users/Yushev/git/wpcqi-optiga-trust-charge/optiga/optiga/cmd\optiga_cmd.c **** * \brief   This file implements cmd modules which covers OPTIGA command formation, locking mechanis
  32:C:/Users/Yushev/git/wpcqi-optiga-trust-charge/optiga/optiga/cmd\optiga_cmd.c **** *          acquisition and asynchronous data handling
  33:C:/Users/Yushev/git/wpcqi-optiga-trust-charge/optiga/optiga/cmd\optiga_cmd.c **** *
  34:C:/Users/Yushev/git/wpcqi-optiga-trust-charge/optiga/optiga/cmd\optiga_cmd.c **** * \ingroup  grOptigaCmd
  35:C:/Users/Yushev/git/wpcqi-optiga-trust-charge/optiga/optiga/cmd\optiga_cmd.c **** *
  36:C:/Users/Yushev/git/wpcqi-optiga-trust-charge/optiga/optiga/cmd\optiga_cmd.c **** * @{
  37:C:/Users/Yushev/git/wpcqi-optiga-trust-charge/optiga/optiga/cmd\optiga_cmd.c **** */
  38:C:/Users/Yushev/git/wpcqi-optiga-trust-charge/optiga/optiga/cmd\optiga_cmd.c **** 
  39:C:/Users/Yushev/git/wpcqi-optiga-trust-charge/optiga/optiga/cmd\optiga_cmd.c **** 
  40:C:/Users/Yushev/git/wpcqi-optiga-trust-charge/optiga/optiga/cmd\optiga_cmd.c **** #include "optiga/cmd/optiga_cmd.h"
  41:C:/Users/Yushev/git/wpcqi-optiga-trust-charge/optiga/optiga/cmd\optiga_cmd.c **** #include "optiga/common/optiga_lib_common_internal.h"
  42:C:/Users/Yushev/git/wpcqi-optiga-trust-charge/optiga/optiga/cmd\optiga_cmd.c **** #include "optiga/common/optiga_lib_logger.h"
  43:C:/Users/Yushev/git/wpcqi-optiga-trust-charge/optiga/optiga/cmd\optiga_cmd.c **** #include "optiga/comms/optiga_comms.h"
  44:C:/Users/Yushev/git/wpcqi-optiga-trust-charge/optiga/optiga/cmd\optiga_cmd.c **** #include "optiga/pal/pal_os_event.h"
  45:C:/Users/Yushev/git/wpcqi-optiga-trust-charge/optiga/optiga/cmd\optiga_cmd.c **** #include "optiga/pal/pal_os_lock.h"
  46:C:/Users/Yushev/git/wpcqi-optiga-trust-charge/optiga/optiga/cmd\optiga_cmd.c **** #include "optiga/pal/pal_os_timer.h"
  47:C:/Users/Yushev/git/wpcqi-optiga-trust-charge/optiga/optiga/cmd\optiga_cmd.c **** #include "optiga/pal/pal_os_memory.h"
  48:C:/Users/Yushev/git/wpcqi-optiga-trust-charge/optiga/optiga/cmd\optiga_cmd.c **** #include "optiga/pal/pal_ifx_i2c_config.h"
  49:C:/Users/Yushev/git/wpcqi-optiga-trust-charge/optiga/optiga/cmd\optiga_cmd.c **** 
  50:C:/Users/Yushev/git/wpcqi-optiga-trust-charge/optiga/optiga/cmd\optiga_cmd.c **** //cmd byte for clearing last error code
  51:C:/Users/Yushev/git/wpcqi-optiga-trust-charge/optiga/optiga/cmd\optiga_cmd.c **** #define OPTIGA_CMD_CLEAR_LAST_ERROR                      (0x80)
  52:C:/Users/Yushev/git/wpcqi-optiga-trust-charge/optiga/optiga/cmd\optiga_cmd.c **** //cmd byte for OpenApplication command
  53:C:/Users/Yushev/git/wpcqi-optiga-trust-charge/optiga/optiga/cmd\optiga_cmd.c **** #define OPTIGA_CMD_OPEN_APPLICATION                      (0x70 | OPTIGA_CMD_CLEAR_LAST_ERROR)
  54:C:/Users/Yushev/git/wpcqi-optiga-trust-charge/optiga/optiga/cmd\optiga_cmd.c **** //cmd byte for CloseApplication command
  55:C:/Users/Yushev/git/wpcqi-optiga-trust-charge/optiga/optiga/cmd\optiga_cmd.c **** #define OPTIGA_CMD_CLOSE_APPLICATION                     (0x71 | OPTIGA_CMD_CLEAR_LAST_ERROR)
  56:C:/Users/Yushev/git/wpcqi-optiga-trust-charge/optiga/optiga/cmd\optiga_cmd.c **** //cmd byte for GetDataObject command
  57:C:/Users/Yushev/git/wpcqi-optiga-trust-charge/optiga/optiga/cmd\optiga_cmd.c **** #define OPTIGA_CMD_GET_DATA_OBJECT                       (0x01 | OPTIGA_CMD_CLEAR_LAST_ERROR)
  58:C:/Users/Yushev/git/wpcqi-optiga-trust-charge/optiga/optiga/cmd\optiga_cmd.c **** //cmd byte for SetDataObject command
  59:C:/Users/Yushev/git/wpcqi-optiga-trust-charge/optiga/optiga/cmd\optiga_cmd.c **** #define OPTIGA_CMD_SET_DATA_OBJECT                       (0x02 | OPTIGA_CMD_CLEAR_LAST_ERROR)
  60:C:/Users/Yushev/git/wpcqi-optiga-trust-charge/optiga/optiga/cmd\optiga_cmd.c **** //cmd byte for GetRandom command
  61:C:/Users/Yushev/git/wpcqi-optiga-trust-charge/optiga/optiga/cmd\optiga_cmd.c **** #define OPTIGA_CMD_GET_RANDOM                            (0x0C | OPTIGA_CMD_CLEAR_LAST_ERROR)
  62:C:/Users/Yushev/git/wpcqi-optiga-trust-charge/optiga/optiga/cmd\optiga_cmd.c **** //cmd byte for CalcHash command
  63:C:/Users/Yushev/git/wpcqi-optiga-trust-charge/optiga/optiga/cmd\optiga_cmd.c **** #define OPTIGA_CMD_CALC_HASH                             (0x30 | OPTIGA_CMD_CLEAR_LAST_ERROR)
  64:C:/Users/Yushev/git/wpcqi-optiga-trust-charge/optiga/optiga/cmd\optiga_cmd.c **** //cmd byte for CalcSign command
  65:C:/Users/Yushev/git/wpcqi-optiga-trust-charge/optiga/optiga/cmd\optiga_cmd.c **** #define OPTIGA_CMD_CALC_SIGN                             (0x31 | OPTIGA_CMD_CLEAR_LAST_ERROR)
  66:C:/Users/Yushev/git/wpcqi-optiga-trust-charge/optiga/optiga/cmd\optiga_cmd.c **** //cmd byte for VerifySign command
  67:C:/Users/Yushev/git/wpcqi-optiga-trust-charge/optiga/optiga/cmd\optiga_cmd.c **** #define OPTIGA_CMD_VERIFY_SIGN                           (0x32 | OPTIGA_CMD_CLEAR_LAST_ERROR)
  68:C:/Users/Yushev/git/wpcqi-optiga-trust-charge/optiga/optiga/cmd\optiga_cmd.c **** //cmd byte for GenKeyPair command
  69:C:/Users/Yushev/git/wpcqi-optiga-trust-charge/optiga/optiga/cmd\optiga_cmd.c **** #define OPTIGA_CMD_GEN_KEYPAIR                           (0x38 | OPTIGA_CMD_CLEAR_LAST_ERROR)
  70:C:/Users/Yushev/git/wpcqi-optiga-trust-charge/optiga/optiga/cmd\optiga_cmd.c **** //cmd byte for SetObjectProtected command
  71:C:/Users/Yushev/git/wpcqi-optiga-trust-charge/optiga/optiga/cmd\optiga_cmd.c **** #define OPTIGA_CMD_SET_OBJECT_PROTECTED                  (0x03 | OPTIGA_CMD_CLEAR_LAST_ERROR)
  72:C:/Users/Yushev/git/wpcqi-optiga-trust-charge/optiga/optiga/cmd\optiga_cmd.c **** 
  73:C:/Users/Yushev/git/wpcqi-optiga-trust-charge/optiga/optiga/cmd\optiga_cmd.c **** 
  74:C:/Users/Yushev/git/wpcqi-optiga-trust-charge/optiga/optiga/cmd\optiga_cmd.c **** #define OPTIGA_CMD_MAX_NUMBER_OF_SESSIONS                (0x04)
  75:C:/Users/Yushev/git/wpcqi-optiga-trust-charge/optiga/optiga/cmd\optiga_cmd.c **** #define OPTIGA_CMD_START_SESSION_OID                     (0xE100)
  76:C:/Users/Yushev/git/wpcqi-optiga-trust-charge/optiga/optiga/cmd\optiga_cmd.c **** 
  77:C:/Users/Yushev/git/wpcqi-optiga-trust-charge/optiga/optiga/cmd\optiga_cmd.c **** // Considering the size w.r.t maximum APDU size + shielded connection if enabled.
  78:C:/Users/Yushev/git/wpcqi-optiga-trust-charge/optiga/optiga/cmd\optiga_cmd.c **** #define OPTIGA_CMD_TOTAL_COMMS_BUFFER_SIZE               (OPTIGA_MAX_COMMS_BUFFER_SIZE + OPTIGA_COM
  79:C:/Users/Yushev/git/wpcqi-optiga-trust-charge/optiga/optiga/cmd\optiga_cmd.c **** 
  80:C:/Users/Yushev/git/wpcqi-optiga-trust-charge/optiga/optiga/cmd\optiga_cmd.c **** #define OPTIGA_CMD_APDU_HEADER_SIZE                      (0x04)
  81:C:/Users/Yushev/git/wpcqi-optiga-trust-charge/optiga/optiga/cmd\optiga_cmd.c **** 
  82:C:/Users/Yushev/git/wpcqi-optiga-trust-charge/optiga/optiga/cmd\optiga_cmd.c **** #define OPTIGA_CMD_LAST_ERROR_CODE                       (0xF1C2)
  83:C:/Users/Yushev/git/wpcqi-optiga-trust-charge/optiga/optiga/cmd\optiga_cmd.c **** 
  84:C:/Users/Yushev/git/wpcqi-optiga-trust-charge/optiga/optiga/cmd\optiga_cmd.c **** #define OPTIGA_CMD_APDU_INDATA_OFFSET                    (OPTIGA_CMD_APDU_HEADER_SIZE + OPTIGA_COMM
  85:C:/Users/Yushev/git/wpcqi-optiga-trust-charge/optiga/optiga/cmd\optiga_cmd.c **** // Hash header size(hash_input_header_size + context_header_size)
  86:C:/Users/Yushev/git/wpcqi-optiga-trust-charge/optiga/optiga/cmd\optiga_cmd.c **** #define OPTIGA_CMD_HASH_HEADER_SIZE                      (0x06)
  87:C:/Users/Yushev/git/wpcqi-optiga-trust-charge/optiga/optiga/cmd\optiga_cmd.c **** // Intermediate context header size
  88:C:/Users/Yushev/git/wpcqi-optiga-trust-charge/optiga/optiga/cmd\optiga_cmd.c **** #define OPTIGA_CMD_INTERMEDIATE_CONTEXT_HEADER           (0x03)
  89:C:/Users/Yushev/git/wpcqi-optiga-trust-charge/optiga/optiga/cmd\optiga_cmd.c **** // Zero length or value
  90:C:/Users/Yushev/git/wpcqi-optiga-trust-charge/optiga/optiga/cmd\optiga_cmd.c **** #define OPTIGA_CMD_ZERO_LENGTH_OR_VALUE                  (0x0000)
  91:C:/Users/Yushev/git/wpcqi-optiga-trust-charge/optiga/optiga/cmd\optiga_cmd.c **** // One length or value
  92:C:/Users/Yushev/git/wpcqi-optiga-trust-charge/optiga/optiga/cmd\optiga_cmd.c **** #define OPTIGA_CMD_ONE_LENGTH_OR_VALUE                   (0x0001)
  93:C:/Users/Yushev/git/wpcqi-optiga-trust-charge/optiga/optiga/cmd\optiga_cmd.c **** // OID data length
  94:C:/Users/Yushev/git/wpcqi-optiga-trust-charge/optiga/optiga/cmd\optiga_cmd.c **** #define OPTIGA_CMD_OID_DATA_LENGTH                       (0x0006)
  95:C:/Users/Yushev/git/wpcqi-optiga-trust-charge/optiga/optiga/cmd\optiga_cmd.c **** // Number of bits in a byte
  96:C:/Users/Yushev/git/wpcqi-optiga-trust-charge/optiga/optiga/cmd\optiga_cmd.c **** #define OPTIGA_CMD_NO_OF_BITS_IN_BYTE                    (0x0008)
  97:C:/Users/Yushev/git/wpcqi-optiga-trust-charge/optiga/optiga/cmd\optiga_cmd.c **** 
  98:C:/Users/Yushev/git/wpcqi-optiga-trust-charge/optiga/optiga/cmd\optiga_cmd.c **** //Number of bytes in tag
  99:C:/Users/Yushev/git/wpcqi-optiga-trust-charge/optiga/optiga/cmd\optiga_cmd.c **** #define OPTIGA_CMD_NO_OF_BYTES_IN_TAG                    (0x01)
 100:C:/Users/Yushev/git/wpcqi-optiga-trust-charge/optiga/optiga/cmd\optiga_cmd.c **** 
 101:C:/Users/Yushev/git/wpcqi-optiga-trust-charge/optiga/optiga/cmd\optiga_cmd.c **** //Number of bytes in OFFSET
 102:C:/Users/Yushev/git/wpcqi-optiga-trust-charge/optiga/optiga/cmd\optiga_cmd.c **** #define OPTIGA_CMD_UINT16_SIZE_IN_BYTES                  (0x02)
 103:C:/Users/Yushev/git/wpcqi-optiga-trust-charge/optiga/optiga/cmd\optiga_cmd.c **** 
 104:C:/Users/Yushev/git/wpcqi-optiga-trust-charge/optiga/optiga/cmd\optiga_cmd.c **** #define OPTIGA_CMD_APDU_SUCCESS                          (0x00)
 105:C:/Users/Yushev/git/wpcqi-optiga-trust-charge/optiga/optiga/cmd\optiga_cmd.c **** #define OPTIGA_CMD_APDU_FAILURE                          (0xFF)
 106:C:/Users/Yushev/git/wpcqi-optiga-trust-charge/optiga/optiga/cmd\optiga_cmd.c **** 
 107:C:/Users/Yushev/git/wpcqi-optiga-trust-charge/optiga/optiga/cmd\optiga_cmd.c **** #define OPTIGA_CMD_WRITE_ONLY                                   (0x00)
 108:C:/Users/Yushev/git/wpcqi-optiga-trust-charge/optiga/optiga/cmd\optiga_cmd.c **** #define OPTIGA_CMD_READ_DATA                                    (0x00)
 109:C:/Users/Yushev/git/wpcqi-optiga-trust-charge/optiga/optiga/cmd\optiga_cmd.c **** #define OPTIGA_CMD_GET_DATA_OBJECT_NO_ERROR_CLEAR               (0x01)
 110:C:/Users/Yushev/git/wpcqi-optiga-trust-charge/optiga/optiga/cmd\optiga_cmd.c **** 
 111:C:/Users/Yushev/git/wpcqi-optiga-trust-charge/optiga/optiga/cmd\optiga_cmd.c **** //Calc sign tag values
 112:C:/Users/Yushev/git/wpcqi-optiga-trust-charge/optiga/optiga/cmd\optiga_cmd.c **** #define OPTIGA_CMD_SIGN_DIGEST_TAG                              (0x01)
 113:C:/Users/Yushev/git/wpcqi-optiga-trust-charge/optiga/optiga/cmd\optiga_cmd.c **** #define OPTIGA_CMD_SIGN_OID_TAG                                 (0x03)
 114:C:/Users/Yushev/git/wpcqi-optiga-trust-charge/optiga/optiga/cmd\optiga_cmd.c **** #define OPTIGA_CMD_SIGN_OID_LEN                                 (0x0002)
 115:C:/Users/Yushev/git/wpcqi-optiga-trust-charge/optiga/optiga/cmd\optiga_cmd.c **** 
 116:C:/Users/Yushev/git/wpcqi-optiga-trust-charge/optiga/optiga/cmd\optiga_cmd.c **** //Verify sign tag values
 117:C:/Users/Yushev/git/wpcqi-optiga-trust-charge/optiga/optiga/cmd\optiga_cmd.c **** #define OPTIGA_CMD_VERIFY_SIGN_DIGEST_TAG                       (0x01)
 118:C:/Users/Yushev/git/wpcqi-optiga-trust-charge/optiga/optiga/cmd\optiga_cmd.c **** #define OPTIGA_CMD_VERIFY_SIGN_SIGNATURE_TAG                    (0x02)
 119:C:/Users/Yushev/git/wpcqi-optiga-trust-charge/optiga/optiga/cmd\optiga_cmd.c **** #define OPTIGA_CMD_VERIFY_SIGN_PUB_KEY_CERT_OID_TAG             (0x04)
 120:C:/Users/Yushev/git/wpcqi-optiga-trust-charge/optiga/optiga/cmd\optiga_cmd.c **** #define OPTIGA_CMD_VERIFY_SIGN_PUB_KEY_CERT_OID_LENGTH          (0x0002)
 121:C:/Users/Yushev/git/wpcqi-optiga-trust-charge/optiga/optiga/cmd\optiga_cmd.c **** #define OPTIGA_CMD_VERIFY_ALGO_ID_TAG                           (0x05)
 122:C:/Users/Yushev/git/wpcqi-optiga-trust-charge/optiga/optiga/cmd\optiga_cmd.c **** #define OPTIGA_CMD_VERIFY_ALGO_ID_LENGTH                        (0x0001)
 123:C:/Users/Yushev/git/wpcqi-optiga-trust-charge/optiga/optiga/cmd\optiga_cmd.c **** #define OPTIGA_CMD_VERIFY_PUBLIC_KEY_TAG                        (0x06)
 124:C:/Users/Yushev/git/wpcqi-optiga-trust-charge/optiga/optiga/cmd\optiga_cmd.c **** 
 125:C:/Users/Yushev/git/wpcqi-optiga-trust-charge/optiga/optiga/cmd\optiga_cmd.c **** //Generate key pair tag and length value
 126:C:/Users/Yushev/git/wpcqi-optiga-trust-charge/optiga/optiga/cmd\optiga_cmd.c **** #define OPTIGA_CMD_GEN_KEY_PAIR_PRIVATE_KEY_OID_TAG             (0x01)
 127:C:/Users/Yushev/git/wpcqi-optiga-trust-charge/optiga/optiga/cmd\optiga_cmd.c **** #define OPTIGA_CMD_GEN_KEY_PAIR_PRIVATE_KEY_OID_LENGTH          (0x0002)
 128:C:/Users/Yushev/git/wpcqi-optiga-trust-charge/optiga/optiga/cmd\optiga_cmd.c **** #define OPTIGA_CMD_GEN_KEY_PAIR_KEY_USAGE_TAG                   (0x02)
 129:C:/Users/Yushev/git/wpcqi-optiga-trust-charge/optiga/optiga/cmd\optiga_cmd.c **** #define OPTIGA_CMD_GEN_KEY_PAIR_KEY_USAGE_LENGTH                (0x0001)
 130:C:/Users/Yushev/git/wpcqi-optiga-trust-charge/optiga/optiga/cmd\optiga_cmd.c **** #define OPTIGA_CMD_GEN_KEY_PAIR_EXPORT_KEY_TAG                  (0x07)
 131:C:/Users/Yushev/git/wpcqi-optiga-trust-charge/optiga/optiga/cmd\optiga_cmd.c **** #define OPTIGA_CMD_GEN_KEY_PAIR_EXPORT_KEY_LENGTH               (0x0000)
 132:C:/Users/Yushev/git/wpcqi-optiga-trust-charge/optiga/optiga/cmd\optiga_cmd.c **** #define OPTIGA_CMD_GEN_KEY_PAIR_PUBLIC_KEY_TAG                  (0x02)
 133:C:/Users/Yushev/git/wpcqi-optiga-trust-charge/optiga/optiga/cmd\optiga_cmd.c **** #define OPTIGA_CMD_GEN_KEY_PAIR_PRIVATE_KEY_TAG                 (0x01)
 134:C:/Users/Yushev/git/wpcqi-optiga-trust-charge/optiga/optiga/cmd\optiga_cmd.c **** 
 135:C:/Users/Yushev/git/wpcqi-optiga-trust-charge/optiga/optiga/cmd\optiga_cmd.c **** #define OPTIGA_PROTECTION_LEVEL_MASK                            (0x03)
 136:C:/Users/Yushev/git/wpcqi-optiga-trust-charge/optiga/optiga/cmd\optiga_cmd.c ****         
 137:C:/Users/Yushev/git/wpcqi-optiga-trust-charge/optiga/optiga/cmd\optiga_cmd.c **** #define OPTIGA_CMD_ERROR_CODE_PREPARE                           (0x01)
 138:C:/Users/Yushev/git/wpcqi-optiga-trust-charge/optiga/optiga/cmd\optiga_cmd.c **** #define OPTIGA_CMD_ERROR_CODE_TX                                (0x02)
 139:C:/Users/Yushev/git/wpcqi-optiga-trust-charge/optiga/optiga/cmd\optiga_cmd.c **** #define OPTIGA_CMD_ERROR_CODE_RX                                (0x03)
 140:C:/Users/Yushev/git/wpcqi-optiga-trust-charge/optiga/optiga/cmd\optiga_cmd.c **** #define OPTIGA_CMD_ERROR_CODE_STATE_MASK                        (0x03)
 141:C:/Users/Yushev/git/wpcqi-optiga-trust-charge/optiga/optiga/cmd\optiga_cmd.c **** #define OPTIGA_CMD_ENTER_HANDLER_CALL_MASK                      (0x80)
 142:C:/Users/Yushev/git/wpcqi-optiga-trust-charge/optiga/optiga/cmd\optiga_cmd.c **** #define OPTIGA_CMD_ENTER_HANDLER_CALL                           (0x80)
 143:C:/Users/Yushev/git/wpcqi-optiga-trust-charge/optiga/optiga/cmd\optiga_cmd.c **** #define OPTIGA_CMD_EXIT_HANDLER_CALL                            (0x00)
 144:C:/Users/Yushev/git/wpcqi-optiga-trust-charge/optiga/optiga/cmd\optiga_cmd.c **** #define OPTIGA_CMD_OUT_OF_BOUNDARY_ERROR                        (0x08)
 145:C:/Users/Yushev/git/wpcqi-optiga-trust-charge/optiga/optiga/cmd\optiga_cmd.c **** 
 146:C:/Users/Yushev/git/wpcqi-optiga-trust-charge/optiga/optiga/cmd\optiga_cmd.c **** /// Set object protected tag
 147:C:/Users/Yushev/git/wpcqi-optiga-trust-charge/optiga/optiga/cmd\optiga_cmd.c **** #define OPTIGA_CMD_SET_OBJECT_PROTECTED_TAG                     (0x30)
 148:C:/Users/Yushev/git/wpcqi-optiga-trust-charge/optiga/optiga/cmd\optiga_cmd.c **** 
 149:C:/Users/Yushev/git/wpcqi-optiga-trust-charge/optiga/optiga/cmd\optiga_cmd.c **** #define OPTIGA_CMD_TAG_LENGTH_SIZE                              (0x03)
 150:C:/Users/Yushev/git/wpcqi-optiga-trust-charge/optiga/optiga/cmd\optiga_cmd.c **** #define OPTIGA_CMD_PARAM_INITIALIZE_APP_CONTEXT                 (0x00)
 151:C:/Users/Yushev/git/wpcqi-optiga-trust-charge/optiga/optiga/cmd\optiga_cmd.c **** 
 152:C:/Users/Yushev/git/wpcqi-optiga-trust-charge/optiga/optiga/cmd\optiga_cmd.c **** // Function to set given bits
 153:C:/Users/Yushev/git/wpcqi-optiga-trust-charge/optiga/optiga/cmd\optiga_cmd.c **** #define SET_DEV_ERROR_HANDLER_STATE(state){\
 154:C:/Users/Yushev/git/wpcqi-optiga-trust-charge/optiga/optiga/cmd\optiga_cmd.c ****                                    (me->device_error_status) &= ~OPTIGA_CMD_ERROR_CODE_STATE_MASK;\
 155:C:/Users/Yushev/git/wpcqi-optiga-trust-charge/optiga/optiga/cmd\optiga_cmd.c ****                                    (me->device_error_status) |= state & OPTIGA_CMD_ERROR_CODE_STATE
 156:C:/Users/Yushev/git/wpcqi-optiga-trust-charge/optiga/optiga/cmd\optiga_cmd.c **** 
 157:C:/Users/Yushev/git/wpcqi-optiga-trust-charge/optiga/optiga/cmd\optiga_cmd.c **** #define SET_DEV_ERROR_NOTIFICATION(bits_value){\
 158:C:/Users/Yushev/git/wpcqi-optiga-trust-charge/optiga/optiga/cmd\optiga_cmd.c ****                                   (me->device_error_status) &= ~OPTIGA_CMD_ENTER_HANDLER_CALL_MASK;
 159:C:/Users/Yushev/git/wpcqi-optiga-trust-charge/optiga/optiga/cmd\optiga_cmd.c ****                                   (me->device_error_status) |= bits_value & OPTIGA_CMD_ENTER_HANDLE
 160:C:/Users/Yushev/git/wpcqi-optiga-trust-charge/optiga/optiga/cmd\optiga_cmd.c **** 
 161:C:/Users/Yushev/git/wpcqi-optiga-trust-charge/optiga/optiga/cmd\optiga_cmd.c **** 
 162:C:/Users/Yushev/git/wpcqi-optiga-trust-charge/optiga/optiga/cmd\optiga_cmd.c **** #define EXIT_STATE_WITH_ERROR(ctx, exit_machine){\
 163:C:/Users/Yushev/git/wpcqi-optiga-trust-charge/optiga/optiga/cmd\optiga_cmd.c ****                                   ctx->cmd_next_execution_state = OPTIGA_CMD_EXEC_ERROR_HANDLER;\
 164:C:/Users/Yushev/git/wpcqi-optiga-trust-charge/optiga/optiga/cmd\optiga_cmd.c ****                                   ctx->exit_status = OPTIGA_CMD_ERROR;\
 165:C:/Users/Yushev/git/wpcqi-optiga-trust-charge/optiga/optiga/cmd\optiga_cmd.c ****                                   exit_machine = FALSE;}
 166:C:/Users/Yushev/git/wpcqi-optiga-trust-charge/optiga/optiga/cmd\optiga_cmd.c **** 
 167:C:/Users/Yushev/git/wpcqi-optiga-trust-charge/optiga/optiga/cmd\optiga_cmd.c **** #if defined (OPTIGA_LIB_ENABLE_LOGGING) && defined (OPTIGA_LIB_ENABLE_CMD_LOGGING)
 168:C:/Users/Yushev/git/wpcqi-optiga-trust-charge/optiga/optiga/cmd\optiga_cmd.c **** 
 169:C:/Users/Yushev/git/wpcqi-optiga-trust-charge/optiga/optiga/cmd\optiga_cmd.c **** // Logs the message provided from Command layer
 170:C:/Users/Yushev/git/wpcqi-optiga-trust-charge/optiga/optiga/cmd\optiga_cmd.c **** #define OPTIGA_CMD_LOG_MESSAGE(msg) \
 171:C:/Users/Yushev/git/wpcqi-optiga-trust-charge/optiga/optiga/cmd\optiga_cmd.c **** {\
 172:C:/Users/Yushev/git/wpcqi-optiga-trust-charge/optiga/optiga/cmd\optiga_cmd.c ****     optiga_lib_print_message(msg,OPTIGA_COMMAND_LAYER,OPTIGA_COMMAND_LAYER_COLOR);\
 173:C:/Users/Yushev/git/wpcqi-optiga-trust-charge/optiga/optiga/cmd\optiga_cmd.c **** }
 174:C:/Users/Yushev/git/wpcqi-optiga-trust-charge/optiga/optiga/cmd\optiga_cmd.c **** 
 175:C:/Users/Yushev/git/wpcqi-optiga-trust-charge/optiga/optiga/cmd\optiga_cmd.c **** // Logs the byte array buffer provided from Command layer in hexadecimal format
 176:C:/Users/Yushev/git/wpcqi-optiga-trust-charge/optiga/optiga/cmd\optiga_cmd.c **** //lint --e{750} suppress "The unused OPTIGA_CMD_LOG_HEX_DATA macro is kept for future enhancements"
 177:C:/Users/Yushev/git/wpcqi-optiga-trust-charge/optiga/optiga/cmd\optiga_cmd.c **** #define OPTIGA_CMD_LOG_HEX_DATA(array,array_len) \
 178:C:/Users/Yushev/git/wpcqi-optiga-trust-charge/optiga/optiga/cmd\optiga_cmd.c **** {\
 179:C:/Users/Yushev/git/wpcqi-optiga-trust-charge/optiga/optiga/cmd\optiga_cmd.c ****     optiga_lib_print_array_hex_format(array,array_len,OPTIGA_UNPROTECTED_DATA_COLOR);\
 180:C:/Users/Yushev/git/wpcqi-optiga-trust-charge/optiga/optiga/cmd\optiga_cmd.c **** }
 181:C:/Users/Yushev/git/wpcqi-optiga-trust-charge/optiga/optiga/cmd\optiga_cmd.c **** 
 182:C:/Users/Yushev/git/wpcqi-optiga-trust-charge/optiga/optiga/cmd\optiga_cmd.c **** // Logs the status info provided from Command layer
 183:C:/Users/Yushev/git/wpcqi-optiga-trust-charge/optiga/optiga/cmd\optiga_cmd.c **** //lint --e{750} suppress "The unused OPTIGA_CMD_LOG_STATUS macro is kept for future enhancements"
 184:C:/Users/Yushev/git/wpcqi-optiga-trust-charge/optiga/optiga/cmd\optiga_cmd.c **** #define OPTIGA_CMD_LOG_STATUS(return_value) \
 185:C:/Users/Yushev/git/wpcqi-optiga-trust-charge/optiga/optiga/cmd\optiga_cmd.c **** { \
 186:C:/Users/Yushev/git/wpcqi-optiga-trust-charge/optiga/optiga/cmd\optiga_cmd.c ****     if (OPTIGA_LIB_SUCCESS != return_value) \
 187:C:/Users/Yushev/git/wpcqi-optiga-trust-charge/optiga/optiga/cmd\optiga_cmd.c ****     { \
 188:C:/Users/Yushev/git/wpcqi-optiga-trust-charge/optiga/optiga/cmd\optiga_cmd.c ****         optiga_lib_print_status(OPTIGA_COMMAND_LAYER,OPTIGA_ERROR_COLOR,return_value); \
 189:C:/Users/Yushev/git/wpcqi-optiga-trust-charge/optiga/optiga/cmd\optiga_cmd.c ****     } \
 190:C:/Users/Yushev/git/wpcqi-optiga-trust-charge/optiga/optiga/cmd\optiga_cmd.c ****     else\
 191:C:/Users/Yushev/git/wpcqi-optiga-trust-charge/optiga/optiga/cmd\optiga_cmd.c ****     { \
 192:C:/Users/Yushev/git/wpcqi-optiga-trust-charge/optiga/optiga/cmd\optiga_cmd.c ****         optiga_lib_print_status(OPTIGA_COMMAND_LAYER,OPTIGA_COMMAND_LAYER_COLOR,return_value); \
 193:C:/Users/Yushev/git/wpcqi-optiga-trust-charge/optiga/optiga/cmd\optiga_cmd.c ****     } \
 194:C:/Users/Yushev/git/wpcqi-optiga-trust-charge/optiga/optiga/cmd\optiga_cmd.c **** }
 195:C:/Users/Yushev/git/wpcqi-optiga-trust-charge/optiga/optiga/cmd\optiga_cmd.c **** #else
 196:C:/Users/Yushev/git/wpcqi-optiga-trust-charge/optiga/optiga/cmd\optiga_cmd.c **** 
 197:C:/Users/Yushev/git/wpcqi-optiga-trust-charge/optiga/optiga/cmd\optiga_cmd.c **** #define OPTIGA_CMD_LOG_MESSAGE(msg) {}
 198:C:/Users/Yushev/git/wpcqi-optiga-trust-charge/optiga/optiga/cmd\optiga_cmd.c **** //lint --e{750} suppress "The unused OPTIGA_CMD_LOG_HEX_DATA macro is kept for future enhancements"
 199:C:/Users/Yushev/git/wpcqi-optiga-trust-charge/optiga/optiga/cmd\optiga_cmd.c **** #define OPTIGA_CMD_LOG_HEX_DATA(array, array_len) {}
 200:C:/Users/Yushev/git/wpcqi-optiga-trust-charge/optiga/optiga/cmd\optiga_cmd.c **** //lint --e{750} suppress "The unused OPTIGA_CMD_LOG_STATUS macro is kept for future enhancements"
 201:C:/Users/Yushev/git/wpcqi-optiga-trust-charge/optiga/optiga/cmd\optiga_cmd.c **** #define OPTIGA_CMD_LOG_STATUS(return_value) {}
 202:C:/Users/Yushev/git/wpcqi-optiga-trust-charge/optiga/optiga/cmd\optiga_cmd.c **** 
 203:C:/Users/Yushev/git/wpcqi-optiga-trust-charge/optiga/optiga/cmd\optiga_cmd.c **** #endif // (OPTIGA_LIB_ENABLE_LOGGING) && (OPTIGA_LIB_ENABLE_CMD_LOGGING)
 204:C:/Users/Yushev/git/wpcqi-optiga-trust-charge/optiga/optiga/cmd\optiga_cmd.c **** 
 205:C:/Users/Yushev/git/wpcqi-optiga-trust-charge/optiga/optiga/cmd\optiga_cmd.c **** // Set data for apdu_data
 206:C:/Users/Yushev/git/wpcqi-optiga-trust-charge/optiga/optiga/cmd\optiga_cmd.c **** #define OPTIGA_CMD_SET_APDU_DATA(apdu_cmd, apdu_info) ((apdu_info << OPTIGA_CMD_NO_OF_BITS_IN_BYTE)
 207:C:/Users/Yushev/git/wpcqi-optiga-trust-charge/optiga/optiga/cmd\optiga_cmd.c **** 
 208:C:/Users/Yushev/git/wpcqi-optiga-trust-charge/optiga/optiga/cmd\optiga_cmd.c **** // Get APDU cmd value from apdu_data
 209:C:/Users/Yushev/git/wpcqi-optiga-trust-charge/optiga/optiga/cmd\optiga_cmd.c **** #define OPTIGA_CMD_GET_APDU_CMD(apdu_data)  ((uint8_t)apdu_data)
 210:C:/Users/Yushev/git/wpcqi-optiga-trust-charge/optiga/optiga/cmd\optiga_cmd.c **** 
 211:C:/Users/Yushev/git/wpcqi-optiga-trust-charge/optiga/optiga/cmd\optiga_cmd.c **** // Get APDU info value from apdu_data
 212:C:/Users/Yushev/git/wpcqi-optiga-trust-charge/optiga/optiga/cmd\optiga_cmd.c **** #define OPTIGA_CMD_GET_APDU_INFO(apdu_data) ((uint8_t)(apdu_data >> OPTIGA_CMD_NO_OF_BITS_IN_BYTE))
 213:C:/Users/Yushev/git/wpcqi-optiga-trust-charge/optiga/optiga/cmd\optiga_cmd.c **** 
 214:C:/Users/Yushev/git/wpcqi-optiga-trust-charge/optiga/optiga/cmd\optiga_cmd.c **** // Scheduler definitions
 215:C:/Users/Yushev/git/wpcqi-optiga-trust-charge/optiga/optiga/cmd\optiga_cmd.c **** 
 216:C:/Users/Yushev/git/wpcqi-optiga-trust-charge/optiga/optiga/cmd\optiga_cmd.c **** // Optiga execution slot states
 217:C:/Users/Yushev/git/wpcqi-optiga-trust-charge/optiga/optiga/cmd\optiga_cmd.c **** #define     OPTIGA_CMD_QUEUE_NOT_ASSIGNED           (0x00)
 218:C:/Users/Yushev/git/wpcqi-optiga-trust-charge/optiga/optiga/cmd\optiga_cmd.c **** #define     OPTIGA_CMD_QUEUE_ASSIGNED               (0x01)
 219:C:/Users/Yushev/git/wpcqi-optiga-trust-charge/optiga/optiga/cmd\optiga_cmd.c **** #define     OPTIGA_CMD_QUEUE_REQUEST                (0x02)
 220:C:/Users/Yushev/git/wpcqi-optiga-trust-charge/optiga/optiga/cmd\optiga_cmd.c **** #define     OPTIGA_CMD_QUEUE_PROCESSING             (0x04)
 221:C:/Users/Yushev/git/wpcqi-optiga-trust-charge/optiga/optiga/cmd\optiga_cmd.c **** #define     OPTIGA_CMD_QUEUE_RESUME                 (0x08)
 222:C:/Users/Yushev/git/wpcqi-optiga-trust-charge/optiga/optiga/cmd\optiga_cmd.c **** 
 223:C:/Users/Yushev/git/wpcqi-optiga-trust-charge/optiga/optiga/cmd\optiga_cmd.c **** // Optiga session state
 224:C:/Users/Yushev/git/wpcqi-optiga-trust-charge/optiga/optiga/cmd\optiga_cmd.c **** #define     OPTIGA_CMD_SESSION_NOT_ASSIGNED         (0x00)
 225:C:/Users/Yushev/git/wpcqi-optiga-trust-charge/optiga/optiga/cmd\optiga_cmd.c **** #define     OPTIGA_CMD_SESSION_ASSIGNED             (0x10)
 226:C:/Users/Yushev/git/wpcqi-optiga-trust-charge/optiga/optiga/cmd\optiga_cmd.c **** //Session not assigned to optiga cmd instance
 227:C:/Users/Yushev/git/wpcqi-optiga-trust-charge/optiga/optiga/cmd\optiga_cmd.c **** #define     OPTIGA_CMD_NO_SESSION_OID               (0x0000)
 228:C:/Users/Yushev/git/wpcqi-optiga-trust-charge/optiga/optiga/cmd\optiga_cmd.c **** #define     OPTIGA_CMD_ALL_SESSION_ASSIGNED         (0x10101010)
 229:C:/Users/Yushev/git/wpcqi-optiga-trust-charge/optiga/optiga/cmd\optiga_cmd.c **** 
 230:C:/Users/Yushev/git/wpcqi-optiga-trust-charge/optiga/optiga/cmd\optiga_cmd.c **** // Optiga slot request types
 231:C:/Users/Yushev/git/wpcqi-optiga-trust-charge/optiga/optiga/cmd\optiga_cmd.c **** #define     OPTIGA_CMD_QUEUE_REQUEST_LOCK           (0x21)
 232:C:/Users/Yushev/git/wpcqi-optiga-trust-charge/optiga/optiga/cmd\optiga_cmd.c **** #define     OPTIGA_CMD_QUEUE_REQUEST_STRICT_LOCK    (0x23)
 233:C:/Users/Yushev/git/wpcqi-optiga-trust-charge/optiga/optiga/cmd\optiga_cmd.c **** #define     OPTIGA_CMD_QUEUE_REQUEST_SESSION        (0x22)
 234:C:/Users/Yushev/git/wpcqi-optiga-trust-charge/optiga/optiga/cmd\optiga_cmd.c **** #define     OPTIGA_CMD_QUEUE_NO_REQUEST             (0x00)
 235:C:/Users/Yushev/git/wpcqi-optiga-trust-charge/optiga/optiga/cmd\optiga_cmd.c **** 
 236:C:/Users/Yushev/git/wpcqi-optiga-trust-charge/optiga/optiga/cmd\optiga_cmd.c **** // Type of slot, Do not change the values
 237:C:/Users/Yushev/git/wpcqi-optiga-trust-charge/optiga/optiga/cmd\optiga_cmd.c **** #define     OPTIGA_CMD_QUEUE_SLOT_STATE             (0x09)
 238:C:/Users/Yushev/git/wpcqi-optiga-trust-charge/optiga/optiga/cmd\optiga_cmd.c **** // Type of lock, Do not change the values
 239:C:/Users/Yushev/git/wpcqi-optiga-trust-charge/optiga/optiga/cmd\optiga_cmd.c **** #define     OPTIGA_CMD_QUEUE_SLOT_LOCK_TYPE         (0x08)
 240:C:/Users/Yushev/git/wpcqi-optiga-trust-charge/optiga/optiga/cmd\optiga_cmd.c **** // Frequency of scheduler polling when no asynchronous requests are pending
 241:C:/Users/Yushev/git/wpcqi-optiga-trust-charge/optiga/optiga/cmd\optiga_cmd.c **** #define     OPTIGA_CMD_SCHEDULER_IDLING_TIME_MS     (1000U)
 242:C:/Users/Yushev/git/wpcqi-optiga-trust-charge/optiga/optiga/cmd\optiga_cmd.c **** // Frequency of scheduler polling when asynchronous requests is being processed
 243:C:/Users/Yushev/git/wpcqi-optiga-trust-charge/optiga/optiga/cmd\optiga_cmd.c **** #define     OPTIGA_CMD_SCHEDULER_RUNNING_TIME_MS    (50U)
 244:C:/Users/Yushev/git/wpcqi-optiga-trust-charge/optiga/optiga/cmd\optiga_cmd.c **** 
 245:C:/Users/Yushev/git/wpcqi-optiga-trust-charge/optiga/optiga/cmd\optiga_cmd.c **** /** \brief The enum represents diffrent main state of command handler */
 246:C:/Users/Yushev/git/wpcqi-optiga-trust-charge/optiga/optiga/cmd\optiga_cmd.c **** typedef enum optiga_cmd_state
 247:C:/Users/Yushev/git/wpcqi-optiga-trust-charge/optiga/optiga/cmd\optiga_cmd.c **** {
 248:C:/Users/Yushev/git/wpcqi-optiga-trust-charge/optiga/optiga/cmd\optiga_cmd.c ****     OPTIGA_CMD_EXEC_COMMS_OPEN = 0,
 249:C:/Users/Yushev/git/wpcqi-optiga-trust-charge/optiga/optiga/cmd\optiga_cmd.c ****     OPTIGA_CMD_EXEC_COMMS_CLOSE,
 250:C:/Users/Yushev/git/wpcqi-optiga-trust-charge/optiga/optiga/cmd\optiga_cmd.c ****     OPTIGA_CMD_EXEC_PREPARE_COMMAND,
 251:C:/Users/Yushev/git/wpcqi-optiga-trust-charge/optiga/optiga/cmd\optiga_cmd.c ****     OPTIGA_CMD_EXEC_PROCESS_RESPONSE,
 252:C:/Users/Yushev/git/wpcqi-optiga-trust-charge/optiga/optiga/cmd\optiga_cmd.c ****     OPTIGA_CMD_EXEC_ERROR_HANDLER
 253:C:/Users/Yushev/git/wpcqi-optiga-trust-charge/optiga/optiga/cmd\optiga_cmd.c **** } optiga_cmd_state_t;
 254:C:/Users/Yushev/git/wpcqi-optiga-trust-charge/optiga/optiga/cmd\optiga_cmd.c **** 
 255:C:/Users/Yushev/git/wpcqi-optiga-trust-charge/optiga/optiga/cmd\optiga_cmd.c **** /** \brief The enum represents diffrent sub state of command handler */
 256:C:/Users/Yushev/git/wpcqi-optiga-trust-charge/optiga/optiga/cmd\optiga_cmd.c **** typedef enum optiga_cmd_sub_state
 257:C:/Users/Yushev/git/wpcqi-optiga-trust-charge/optiga/optiga/cmd\optiga_cmd.c **** {
 258:C:/Users/Yushev/git/wpcqi-optiga-trust-charge/optiga/optiga/cmd\optiga_cmd.c ****     OPTIGA_CMD_EXEC_COMMS_OPEN_ACQUIRE_LOCK = 0,
 259:C:/Users/Yushev/git/wpcqi-optiga-trust-charge/optiga/optiga/cmd\optiga_cmd.c ****     OPTIGA_CMD_EXEC_COMMS_OPEN_START,
 260:C:/Users/Yushev/git/wpcqi-optiga-trust-charge/optiga/optiga/cmd\optiga_cmd.c ****     OPTIGA_CMD_EXEC_COMMS_OPEN_DONE,
 261:C:/Users/Yushev/git/wpcqi-optiga-trust-charge/optiga/optiga/cmd\optiga_cmd.c **** 
 262:C:/Users/Yushev/git/wpcqi-optiga-trust-charge/optiga/optiga/cmd\optiga_cmd.c ****     OPTIGA_CMD_EXEC_COMMS_CLOSE_START,
 263:C:/Users/Yushev/git/wpcqi-optiga-trust-charge/optiga/optiga/cmd\optiga_cmd.c ****     OPTIGA_CMD_EXEC_COMMS_CLOSE_DONE,
 264:C:/Users/Yushev/git/wpcqi-optiga-trust-charge/optiga/optiga/cmd\optiga_cmd.c **** 
 265:C:/Users/Yushev/git/wpcqi-optiga-trust-charge/optiga/optiga/cmd\optiga_cmd.c ****     OPTIGA_CMD_EXEC_REQUEST_SESSION,
 266:C:/Users/Yushev/git/wpcqi-optiga-trust-charge/optiga/optiga/cmd\optiga_cmd.c ****     OPTIGA_CMD_EXEC_REQUEST_LOCK,
 267:C:/Users/Yushev/git/wpcqi-optiga-trust-charge/optiga/optiga/cmd\optiga_cmd.c ****     OPTIGA_CMD_EXEC_REQUEST_STRICT_LOCK,
 268:C:/Users/Yushev/git/wpcqi-optiga-trust-charge/optiga/optiga/cmd\optiga_cmd.c ****     OPTIGA_CMD_EXEC_PREPARE_APDU,
 269:C:/Users/Yushev/git/wpcqi-optiga-trust-charge/optiga/optiga/cmd\optiga_cmd.c **** 
 270:C:/Users/Yushev/git/wpcqi-optiga-trust-charge/optiga/optiga/cmd\optiga_cmd.c ****     OPTIGA_CMD_EXEC_PROCESS_OPTIGA_RESPONSE,
 271:C:/Users/Yushev/git/wpcqi-optiga-trust-charge/optiga/optiga/cmd\optiga_cmd.c ****     OPTIGA_CMD_EXEC_GET_DEVICE_ERROR,
 272:C:/Users/Yushev/git/wpcqi-optiga-trust-charge/optiga/optiga/cmd\optiga_cmd.c ****     OPTIGA_CMD_EXEC_RELEASE_LOCK,
 273:C:/Users/Yushev/git/wpcqi-optiga-trust-charge/optiga/optiga/cmd\optiga_cmd.c ****     OPTIGA_CMD_STATE_EXIT
 274:C:/Users/Yushev/git/wpcqi-optiga-trust-charge/optiga/optiga/cmd\optiga_cmd.c **** 
 275:C:/Users/Yushev/git/wpcqi-optiga-trust-charge/optiga/optiga/cmd\optiga_cmd.c **** } optiga_cmd_sub_state_t;
 276:C:/Users/Yushev/git/wpcqi-optiga-trust-charge/optiga/optiga/cmd\optiga_cmd.c **** 
 277:C:/Users/Yushev/git/wpcqi-optiga-trust-charge/optiga/optiga/cmd\optiga_cmd.c **** typedef optiga_lib_status_t (*optiga_cmd_handler_t)(optiga_cmd_t * me);
 278:C:/Users/Yushev/git/wpcqi-optiga-trust-charge/optiga/optiga/cmd\optiga_cmd.c **** 
 279:C:/Users/Yushev/git/wpcqi-optiga-trust-charge/optiga/optiga/cmd\optiga_cmd.c **** /** \brief The structure represents the slot in the execution queue */
 280:C:/Users/Yushev/git/wpcqi-optiga-trust-charge/optiga/optiga/cmd\optiga_cmd.c **** typedef struct optiga_cmd_queue_slot
 281:C:/Users/Yushev/git/wpcqi-optiga-trust-charge/optiga/optiga/cmd\optiga_cmd.c **** {
 282:C:/Users/Yushev/git/wpcqi-optiga-trust-charge/optiga/optiga/cmd\optiga_cmd.c ****     /// Registered context
 283:C:/Users/Yushev/git/wpcqi-optiga-trust-charge/optiga/optiga/cmd\optiga_cmd.c ****     void * registered_ctx;
 284:C:/Users/Yushev/git/wpcqi-optiga-trust-charge/optiga/optiga/cmd\optiga_cmd.c ****     /// Arrival time of the optiga cmd instance in the execution queue
 285:C:/Users/Yushev/git/wpcqi-optiga-trust-charge/optiga/optiga/cmd\optiga_cmd.c ****     uint32_t arrival_time;
 286:C:/Users/Yushev/git/wpcqi-optiga-trust-charge/optiga/optiga/cmd\optiga_cmd.c ****     /// Request for command lock or session
 287:C:/Users/Yushev/git/wpcqi-optiga-trust-charge/optiga/optiga/cmd\optiga_cmd.c ****     uint8_t request_type;
 288:C:/Users/Yushev/git/wpcqi-optiga-trust-charge/optiga/optiga/cmd\optiga_cmd.c ****     /// state of the slot
 289:C:/Users/Yushev/git/wpcqi-optiga-trust-charge/optiga/optiga/cmd\optiga_cmd.c ****     uint8_t state_of_entry;
 290:C:/Users/Yushev/git/wpcqi-optiga-trust-charge/optiga/optiga/cmd\optiga_cmd.c **** }optiga_cmd_queue_slot_t;
 291:C:/Users/Yushev/git/wpcqi-optiga-trust-charge/optiga/optiga/cmd\optiga_cmd.c **** 
 292:C:/Users/Yushev/git/wpcqi-optiga-trust-charge/optiga/optiga/cmd\optiga_cmd.c **** 
 293:C:/Users/Yushev/git/wpcqi-optiga-trust-charge/optiga/optiga/cmd\optiga_cmd.c **** /**
 294:C:/Users/Yushev/git/wpcqi-optiga-trust-charge/optiga/optiga/cmd\optiga_cmd.c **** * \brief OPTIGA Context which holds the communication buffer, comms instance and other required.
 295:C:/Users/Yushev/git/wpcqi-optiga-trust-charge/optiga/optiga/cmd\optiga_cmd.c **** *   This would be maintained and consumed by OPTIGA Cmd.
 296:C:/Users/Yushev/git/wpcqi-optiga-trust-charge/optiga/optiga/cmd\optiga_cmd.c **** */
 297:C:/Users/Yushev/git/wpcqi-optiga-trust-charge/optiga/optiga/cmd\optiga_cmd.c **** struct optiga_context
 298:C:/Users/Yushev/git/wpcqi-optiga-trust-charge/optiga/optiga/cmd\optiga_cmd.c **** {
 299:C:/Users/Yushev/git/wpcqi-optiga-trust-charge/optiga/optiga/cmd\optiga_cmd.c ****     /// Context of OPTIGA Communication.
 300:C:/Users/Yushev/git/wpcqi-optiga-trust-charge/optiga/optiga/cmd\optiga_cmd.c ****     optiga_comms_t * p_optiga_comms;
 301:C:/Users/Yushev/git/wpcqi-optiga-trust-charge/optiga/optiga/cmd\optiga_cmd.c ****     /// comms tx size
 302:C:/Users/Yushev/git/wpcqi-optiga-trust-charge/optiga/optiga/cmd\optiga_cmd.c ****     uint16_t comms_tx_size;
 303:C:/Users/Yushev/git/wpcqi-optiga-trust-charge/optiga/optiga/cmd\optiga_cmd.c ****     /// comms rx size
 304:C:/Users/Yushev/git/wpcqi-optiga-trust-charge/optiga/optiga/cmd\optiga_cmd.c ****     uint16_t comms_rx_size;
 305:C:/Users/Yushev/git/wpcqi-optiga-trust-charge/optiga/optiga/cmd\optiga_cmd.c ****     /// Structure which maintains the session and contexts of requesters to acquire session.
 306:C:/Users/Yushev/git/wpcqi-optiga-trust-charge/optiga/optiga/cmd\optiga_cmd.c ****     uint8_t sessions[OPTIGA_CMD_MAX_NUMBER_OF_SESSIONS];
 307:C:/Users/Yushev/git/wpcqi-optiga-trust-charge/optiga/optiga/cmd\optiga_cmd.c ****     /// Indicates if instance is initialized
 308:C:/Users/Yushev/git/wpcqi-optiga-trust-charge/optiga/optiga/cmd\optiga_cmd.c ****     uint8_t instance_init_state;
 309:C:/Users/Yushev/git/wpcqi-optiga-trust-charge/optiga/optiga/cmd\optiga_cmd.c ****     /// Communication buffer to send/receive APDUs.
 310:C:/Users/Yushev/git/wpcqi-optiga-trust-charge/optiga/optiga/cmd\optiga_cmd.c ****     uint8_t optiga_comms_buffer[OPTIGA_CMD_TOTAL_COMMS_BUFFER_SIZE];
 311:C:/Users/Yushev/git/wpcqi-optiga-trust-charge/optiga/optiga/cmd\optiga_cmd.c ****     /// optiga execution queue
 312:C:/Users/Yushev/git/wpcqi-optiga-trust-charge/optiga/optiga/cmd\optiga_cmd.c ****     optiga_cmd_queue_slot_t optiga_cmd_execution_queue[OPTIGA_CMD_MAX_REGISTRATIONS];
 313:C:/Users/Yushev/git/wpcqi-optiga-trust-charge/optiga/optiga/cmd\optiga_cmd.c ****     /// pal os event instance/context
 314:C:/Users/Yushev/git/wpcqi-optiga-trust-charge/optiga/optiga/cmd\optiga_cmd.c ****     pal_os_event_t * p_pal_os_event_ctx;
 315:C:/Users/Yushev/git/wpcqi-optiga-trust-charge/optiga/optiga/cmd\optiga_cmd.c ****     /// Last processed cmd time stamp
 316:C:/Users/Yushev/git/wpcqi-optiga-trust-charge/optiga/optiga/cmd\optiga_cmd.c ****     uint32_t last_time_stamp;
 317:C:/Users/Yushev/git/wpcqi-optiga-trust-charge/optiga/optiga/cmd\optiga_cmd.c ****     /// optiga context handle buffer
 318:C:/Users/Yushev/git/wpcqi-optiga-trust-charge/optiga/optiga/cmd\optiga_cmd.c ****     uint8_t optiga_context_handle_buffer[APP_CONTEXT_SIZE];
 319:C:/Users/Yushev/git/wpcqi-optiga-trust-charge/optiga/optiga/cmd\optiga_cmd.c **** #ifdef OPTIGA_COMMS_SHIELDED_CONNECTION
 320:C:/Users/Yushev/git/wpcqi-optiga-trust-charge/optiga/optiga/cmd\optiga_cmd.c ****     /// Protection level status flag
 321:C:/Users/Yushev/git/wpcqi-optiga-trust-charge/optiga/optiga/cmd\optiga_cmd.c ****     uint8_t protection_level_state;
 322:C:/Users/Yushev/git/wpcqi-optiga-trust-charge/optiga/optiga/cmd\optiga_cmd.c **** #endif //OPTIGA_COMMS_SHIELDED_CONNECTION
 323:C:/Users/Yushev/git/wpcqi-optiga-trust-charge/optiga/optiga/cmd\optiga_cmd.c **** };
 324:C:/Users/Yushev/git/wpcqi-optiga-trust-charge/optiga/optiga/cmd\optiga_cmd.c **** 
 325:C:/Users/Yushev/git/wpcqi-optiga-trust-charge/optiga/optiga/cmd\optiga_cmd.c **** // static instance of optiga
 326:C:/Users/Yushev/git/wpcqi-optiga-trust-charge/optiga/optiga/cmd\optiga_cmd.c **** _STATIC_H optiga_context_t g_optiga = {0};
 327:C:/Users/Yushev/git/wpcqi-optiga-trust-charge/optiga/optiga/cmd\optiga_cmd.c **** 
 328:C:/Users/Yushev/git/wpcqi-optiga-trust-charge/optiga/optiga/cmd\optiga_cmd.c **** // List of optiga instances
 329:C:/Users/Yushev/git/wpcqi-optiga-trust-charge/optiga/optiga/cmd\optiga_cmd.c **** //lint --e{843} suppress "Not changing to const as this gets assigned to another context variable w
 330:C:/Users/Yushev/git/wpcqi-optiga-trust-charge/optiga/optiga/cmd\optiga_cmd.c **** _STATIC_H optiga_context_t * g_optiga_list[] = {&g_optiga};
 331:C:/Users/Yushev/git/wpcqi-optiga-trust-charge/optiga/optiga/cmd\optiga_cmd.c **** 
 332:C:/Users/Yushev/git/wpcqi-optiga-trust-charge/optiga/optiga/cmd\optiga_cmd.c **** // hibernate data store for each instance of optiga
 333:C:/Users/Yushev/git/wpcqi-optiga-trust-charge/optiga/optiga/cmd\optiga_cmd.c **** //lint --e{843} suppress "Not changing to const as this is used for unit testing as well"
 334:C:/Users/Yushev/git/wpcqi-optiga-trust-charge/optiga/optiga/cmd\optiga_cmd.c **** _STATIC_H uint16_t g_hibernate_datastore_id_list[] = {OPTIGA_HIBERNATE_CONTEXT_ID};
 335:C:/Users/Yushev/git/wpcqi-optiga-trust-charge/optiga/optiga/cmd\optiga_cmd.c **** 
 336:C:/Users/Yushev/git/wpcqi-optiga-trust-charge/optiga/optiga/cmd\optiga_cmd.c **** const uint8_t g_optiga_unique_application_identifier[] =
 337:C:/Users/Yushev/git/wpcqi-optiga-trust-charge/optiga/optiga/cmd\optiga_cmd.c **** {
 338:C:/Users/Yushev/git/wpcqi-optiga-trust-charge/optiga/optiga/cmd\optiga_cmd.c ****     0xD2, 0x76, 0x00, 0x00, 0x04, 0x47, 0x65, 0x6E, 0x41, 0x75, 0x74, 0x68, 0x41, 0x70, 0x70, 0x6C,
 339:C:/Users/Yushev/git/wpcqi-optiga-trust-charge/optiga/optiga/cmd\optiga_cmd.c **** };
 340:C:/Users/Yushev/git/wpcqi-optiga-trust-charge/optiga/optiga/cmd\optiga_cmd.c **** 
 341:C:/Users/Yushev/git/wpcqi-optiga-trust-charge/optiga/optiga/cmd\optiga_cmd.c **** /**
 342:C:/Users/Yushev/git/wpcqi-optiga-trust-charge/optiga/optiga/cmd\optiga_cmd.c **** * \brief Command context
 343:C:/Users/Yushev/git/wpcqi-optiga-trust-charge/optiga/optiga/cmd\optiga_cmd.c **** */
 344:C:/Users/Yushev/git/wpcqi-optiga-trust-charge/optiga/optiga/cmd\optiga_cmd.c **** struct optiga_cmd
 345:C:/Users/Yushev/git/wpcqi-optiga-trust-charge/optiga/optiga/cmd\optiga_cmd.c **** {
 346:C:/Users/Yushev/git/wpcqi-optiga-trust-charge/optiga/optiga/cmd\optiga_cmd.c ****     /// Pointer to OPTIGA context which holds the communication buffer, comms instance and other re
 347:C:/Users/Yushev/git/wpcqi-optiga-trust-charge/optiga/optiga/cmd\optiga_cmd.c ****     optiga_context_t * p_optiga;
 348:C:/Users/Yushev/git/wpcqi-optiga-trust-charge/optiga/optiga/cmd\optiga_cmd.c ****     /// Internal handlers for prepare and process
 349:C:/Users/Yushev/git/wpcqi-optiga-trust-charge/optiga/optiga/cmd\optiga_cmd.c ****     optiga_cmd_handler_t cmd_hdlrs;
 350:C:/Users/Yushev/git/wpcqi-optiga-trust-charge/optiga/optiga/cmd\optiga_cmd.c ****     /// Command execution input parameters
 351:C:/Users/Yushev/git/wpcqi-optiga-trust-charge/optiga/optiga/cmd\optiga_cmd.c ****     void * p_input;
 352:C:/Users/Yushev/git/wpcqi-optiga-trust-charge/optiga/optiga/cmd\optiga_cmd.c **** 
 353:C:/Users/Yushev/git/wpcqi-optiga-trust-charge/optiga/optiga/cmd\optiga_cmd.c ****     /// Caller context
 354:C:/Users/Yushev/git/wpcqi-optiga-trust-charge/optiga/optiga/cmd\optiga_cmd.c ****     void* caller_context;
 355:C:/Users/Yushev/git/wpcqi-optiga-trust-charge/optiga/optiga/cmd\optiga_cmd.c ****     /// Callback handler
 356:C:/Users/Yushev/git/wpcqi-optiga-trust-charge/optiga/optiga/cmd\optiga_cmd.c ****     callback_handler_t handler;
 357:C:/Users/Yushev/git/wpcqi-optiga-trust-charge/optiga/optiga/cmd\optiga_cmd.c ****     /// Holds a Session OID allotted to this instance.
 358:C:/Users/Yushev/git/wpcqi-optiga-trust-charge/optiga/optiga/cmd\optiga_cmd.c ****     uint16_t session_oid;
 359:C:/Users/Yushev/git/wpcqi-optiga-trust-charge/optiga/optiga/cmd\optiga_cmd.c ****     /// State of the command next execution state
 360:C:/Users/Yushev/git/wpcqi-optiga-trust-charge/optiga/optiga/cmd\optiga_cmd.c ****     optiga_cmd_state_t cmd_next_execution_state;
 361:C:/Users/Yushev/git/wpcqi-optiga-trust-charge/optiga/optiga/cmd\optiga_cmd.c ****     /// State of the command next execution state
 362:C:/Users/Yushev/git/wpcqi-optiga-trust-charge/optiga/optiga/cmd\optiga_cmd.c ****     optiga_cmd_sub_state_t cmd_sub_execution_state;
 363:C:/Users/Yushev/git/wpcqi-optiga-trust-charge/optiga/optiga/cmd\optiga_cmd.c ****     /// Chaining flag
 364:C:/Users/Yushev/git/wpcqi-optiga-trust-charge/optiga/optiga/cmd\optiga_cmd.c ****     uint8_t chaining_ongoing;
 365:C:/Users/Yushev/git/wpcqi-optiga-trust-charge/optiga/optiga/cmd\optiga_cmd.c ****     /// Param value for the respective command to be processed
 366:C:/Users/Yushev/git/wpcqi-optiga-trust-charge/optiga/optiga/cmd\optiga_cmd.c ****     uint8_t cmd_param;
 367:C:/Users/Yushev/git/wpcqi-optiga-trust-charge/optiga/optiga/cmd\optiga_cmd.c **** #ifdef OPTIGA_COMMS_SHIELDED_CONNECTION
 368:C:/Users/Yushev/git/wpcqi-optiga-trust-charge/optiga/optiga/cmd\optiga_cmd.c ****     /// To provide the encryption and decryption need for command and response
 369:C:/Users/Yushev/git/wpcqi-optiga-trust-charge/optiga/optiga/cmd\optiga_cmd.c ****     uint8_t protection_level;
 370:C:/Users/Yushev/git/wpcqi-optiga-trust-charge/optiga/optiga/cmd\optiga_cmd.c ****     /// To provide the presentation layer protocol version to be used
 371:C:/Users/Yushev/git/wpcqi-optiga-trust-charge/optiga/optiga/cmd\optiga_cmd.c ****     uint8_t protocol_version;
 372:C:/Users/Yushev/git/wpcqi-optiga-trust-charge/optiga/optiga/cmd\optiga_cmd.c ****     /// To provide the manage context options
 373:C:/Users/Yushev/git/wpcqi-optiga-trust-charge/optiga/optiga/cmd\optiga_cmd.c ****     uint8_t manage_context_operation;
 374:C:/Users/Yushev/git/wpcqi-optiga-trust-charge/optiga/optiga/cmd\optiga_cmd.c **** #endif //OPTIGA_COMMS_SHIELDED_CONNECTION
 375:C:/Users/Yushev/git/wpcqi-optiga-trust-charge/optiga/optiga/cmd\optiga_cmd.c ****     /// To provide error state
 376:C:/Users/Yushev/git/wpcqi-optiga-trust-charge/optiga/optiga/cmd\optiga_cmd.c ****     uint8_t device_error_status;
 377:C:/Users/Yushev/git/wpcqi-optiga-trust-charge/optiga/optiga/cmd\optiga_cmd.c ****     /// Assigned slot from execution queue
 378:C:/Users/Yushev/git/wpcqi-optiga-trust-charge/optiga/optiga/cmd\optiga_cmd.c ****     uint8_t queue_id;
 379:C:/Users/Yushev/git/wpcqi-optiga-trust-charge/optiga/optiga/cmd\optiga_cmd.c ****     /// Exit status value
 380:C:/Users/Yushev/git/wpcqi-optiga-trust-charge/optiga/optiga/cmd\optiga_cmd.c ****     optiga_lib_status_t exit_status;
 381:C:/Users/Yushev/git/wpcqi-optiga-trust-charge/optiga/optiga/cmd\optiga_cmd.c ****     /// Datastore ID for optiga context
 382:C:/Users/Yushev/git/wpcqi-optiga-trust-charge/optiga/optiga/cmd\optiga_cmd.c ****     uint16_t optiga_context_datastore_id;
 383:C:/Users/Yushev/git/wpcqi-optiga-trust-charge/optiga/optiga/cmd\optiga_cmd.c ****     /// To Store APDU command information which is last processed
 384:C:/Users/Yushev/git/wpcqi-optiga-trust-charge/optiga/optiga/cmd\optiga_cmd.c ****     uint16_t apdu_data;
 385:C:/Users/Yushev/git/wpcqi-optiga-trust-charge/optiga/optiga/cmd\optiga_cmd.c **** };
 386:C:/Users/Yushev/git/wpcqi-optiga-trust-charge/optiga/optiga/cmd\optiga_cmd.c **** 
 387:C:/Users/Yushev/git/wpcqi-optiga-trust-charge/optiga/optiga/cmd\optiga_cmd.c **** _STATIC_H optiga_lib_status_t optiga_cmd_get_error_code_handler(optiga_cmd_t * me);
 388:C:/Users/Yushev/git/wpcqi-optiga-trust-charge/optiga/optiga/cmd\optiga_cmd.c **** 
 389:C:/Users/Yushev/git/wpcqi-optiga-trust-charge/optiga/optiga/cmd\optiga_cmd.c **** #ifdef OPTIGA_COMMS_SHIELDED_CONNECTION
 390:C:/Users/Yushev/git/wpcqi-optiga-trust-charge/optiga/optiga/cmd\optiga_cmd.c **** //lint --e{714} suppress "This function is defined here but referred from other modules"
 391:C:/Users/Yushev/git/wpcqi-optiga-trust-charge/optiga/optiga/cmd\optiga_cmd.c **** void optiga_cmd_set_shielded_connection_option(optiga_cmd_t * me,
 392:C:/Users/Yushev/git/wpcqi-optiga-trust-charge/optiga/optiga/cmd\optiga_cmd.c ****                                                uint8_t value,
 393:C:/Users/Yushev/git/wpcqi-optiga-trust-charge/optiga/optiga/cmd\optiga_cmd.c ****                                                uint8_t shielded_connection_option)
 394:C:/Users/Yushev/git/wpcqi-optiga-trust-charge/optiga/optiga/cmd\optiga_cmd.c **** {
 395:C:/Users/Yushev/git/wpcqi-optiga-trust-charge/optiga/optiga/cmd\optiga_cmd.c ****     switch (shielded_connection_option)
 396:C:/Users/Yushev/git/wpcqi-optiga-trust-charge/optiga/optiga/cmd\optiga_cmd.c ****     {
 397:C:/Users/Yushev/git/wpcqi-optiga-trust-charge/optiga/optiga/cmd\optiga_cmd.c ****         // Protection Level
 398:C:/Users/Yushev/git/wpcqi-optiga-trust-charge/optiga/optiga/cmd\optiga_cmd.c ****         case OPTIGA_SET_PROTECTION_LEVEL:
 399:C:/Users/Yushev/git/wpcqi-optiga-trust-charge/optiga/optiga/cmd\optiga_cmd.c ****         {
 400:C:/Users/Yushev/git/wpcqi-optiga-trust-charge/optiga/optiga/cmd\optiga_cmd.c ****             me->protection_level = value;
 401:C:/Users/Yushev/git/wpcqi-optiga-trust-charge/optiga/optiga/cmd\optiga_cmd.c ****         }
 402:C:/Users/Yushev/git/wpcqi-optiga-trust-charge/optiga/optiga/cmd\optiga_cmd.c ****         break;
 403:C:/Users/Yushev/git/wpcqi-optiga-trust-charge/optiga/optiga/cmd\optiga_cmd.c ****         // Protocol Version
 404:C:/Users/Yushev/git/wpcqi-optiga-trust-charge/optiga/optiga/cmd\optiga_cmd.c ****         case OPTIGA_SET_PROTECTION_VERSION:
 405:C:/Users/Yushev/git/wpcqi-optiga-trust-charge/optiga/optiga/cmd\optiga_cmd.c ****         {
 406:C:/Users/Yushev/git/wpcqi-optiga-trust-charge/optiga/optiga/cmd\optiga_cmd.c ****             me->protocol_version = value;
 407:C:/Users/Yushev/git/wpcqi-optiga-trust-charge/optiga/optiga/cmd\optiga_cmd.c ****         }
 408:C:/Users/Yushev/git/wpcqi-optiga-trust-charge/optiga/optiga/cmd\optiga_cmd.c ****         break;
 409:C:/Users/Yushev/git/wpcqi-optiga-trust-charge/optiga/optiga/cmd\optiga_cmd.c ****         // Manage Context
 410:C:/Users/Yushev/git/wpcqi-optiga-trust-charge/optiga/optiga/cmd\optiga_cmd.c ****         case OPTIGA_SET_MANAGE_CONTEXT:
 411:C:/Users/Yushev/git/wpcqi-optiga-trust-charge/optiga/optiga/cmd\optiga_cmd.c ****         {
 412:C:/Users/Yushev/git/wpcqi-optiga-trust-charge/optiga/optiga/cmd\optiga_cmd.c ****             me->manage_context_operation = value;
 413:C:/Users/Yushev/git/wpcqi-optiga-trust-charge/optiga/optiga/cmd\optiga_cmd.c ****         }
 414:C:/Users/Yushev/git/wpcqi-optiga-trust-charge/optiga/optiga/cmd\optiga_cmd.c ****         break;
 415:C:/Users/Yushev/git/wpcqi-optiga-trust-charge/optiga/optiga/cmd\optiga_cmd.c ****         default:
 416:C:/Users/Yushev/git/wpcqi-optiga-trust-charge/optiga/optiga/cmd\optiga_cmd.c ****         break;
 417:C:/Users/Yushev/git/wpcqi-optiga-trust-charge/optiga/optiga/cmd\optiga_cmd.c ****     }
 418:C:/Users/Yushev/git/wpcqi-optiga-trust-charge/optiga/optiga/cmd\optiga_cmd.c **** }
 419:C:/Users/Yushev/git/wpcqi-optiga-trust-charge/optiga/optiga/cmd\optiga_cmd.c **** 
 420:C:/Users/Yushev/git/wpcqi-optiga-trust-charge/optiga/optiga/cmd\optiga_cmd.c **** #endif // OPTIGA_COMMS_SHIELDED_CONNECTION
 421:C:/Users/Yushev/git/wpcqi-optiga-trust-charge/optiga/optiga/cmd\optiga_cmd.c **** 
 422:C:/Users/Yushev/git/wpcqi-optiga-trust-charge/optiga/optiga/cmd\optiga_cmd.c **** // Cmd execute handler
 423:C:/Users/Yushev/git/wpcqi-optiga-trust-charge/optiga/optiga/cmd\optiga_cmd.c **** _STATIC_H void optiga_cmd_execute(optiga_cmd_t * me,
 424:C:/Users/Yushev/git/wpcqi-optiga-trust-charge/optiga/optiga/cmd\optiga_cmd.c ****                                   uint8_t cmd_param,
 425:C:/Users/Yushev/git/wpcqi-optiga-trust-charge/optiga/optiga/cmd\optiga_cmd.c ****                                   optiga_cmd_handler_t cmd_hdlrs,
 426:C:/Users/Yushev/git/wpcqi-optiga-trust-charge/optiga/optiga/cmd\optiga_cmd.c ****                                   optiga_cmd_state_t start_state,
 427:C:/Users/Yushev/git/wpcqi-optiga-trust-charge/optiga/optiga/cmd\optiga_cmd.c ****                                   optiga_cmd_sub_state_t sub_state,
 428:C:/Users/Yushev/git/wpcqi-optiga-trust-charge/optiga/optiga/cmd\optiga_cmd.c ****                                   void * input,
 429:C:/Users/Yushev/git/wpcqi-optiga-trust-charge/optiga/optiga/cmd\optiga_cmd.c ****                                   uint16_t apdu_data);
 430:C:/Users/Yushev/git/wpcqi-optiga-trust-charge/optiga/optiga/cmd\optiga_cmd.c **** 
 431:C:/Users/Yushev/git/wpcqi-optiga-trust-charge/optiga/optiga/cmd\optiga_cmd.c **** // Cmd State machine handler
 432:C:/Users/Yushev/git/wpcqi-optiga-trust-charge/optiga/optiga/cmd\optiga_cmd.c **** _STATIC_H void optiga_cmd_execute_handler(void * p_ctx,
 433:C:/Users/Yushev/git/wpcqi-optiga-trust-charge/optiga/optiga/cmd\optiga_cmd.c ****                                           optiga_lib_status_t event);
 434:C:/Users/Yushev/git/wpcqi-optiga-trust-charge/optiga/optiga/cmd\optiga_cmd.c **** 
 435:C:/Users/Yushev/git/wpcqi-optiga-trust-charge/optiga/optiga/cmd\optiga_cmd.c **** //
 436:C:/Users/Yushev/git/wpcqi-optiga-trust-charge/optiga/optiga/cmd\optiga_cmd.c **** _STATIC_H void optiga_cmd_prepare_apdu_header(uint8_t cmd, uint8_t param,
 437:C:/Users/Yushev/git/wpcqi-optiga-trust-charge/optiga/optiga/cmd\optiga_cmd.c ****                                               uint16_t in_data_length,
 438:C:/Users/Yushev/git/wpcqi-optiga-trust-charge/optiga/optiga/cmd\optiga_cmd.c ****                                               uint8_t * p_apdu_buffer)
 439:C:/Users/Yushev/git/wpcqi-optiga-trust-charge/optiga/optiga/cmd\optiga_cmd.c **** {
  67              	 .loc 1 439 0
  68              	 .cfi_startproc
  69              	 
  70              	 
  71              	 
  72 0000 80B4     	 push {r7}
  73              	.LCFI0:
  74              	 .cfi_def_cfa_offset 4
  75              	 .cfi_offset 7,-4
  76 0002 83B0     	 sub sp,sp,#12
  77              	.LCFI1:
  78              	 .cfi_def_cfa_offset 16
  79 0004 00AF     	 add r7,sp,#0
  80              	.LCFI2:
  81              	 .cfi_def_cfa_register 7
  82 0006 3B60     	 str r3,[r7]
  83 0008 0346     	 mov r3,r0
  84 000a FB71     	 strb r3,[r7,#7]
  85 000c 0B46     	 mov r3,r1
  86 000e BB71     	 strb r3,[r7,#6]
  87 0010 1346     	 mov r3,r2
  88 0012 BB80     	 strh r3,[r7,#4]
 440:C:/Users/Yushev/git/wpcqi-optiga-trust-charge/optiga/optiga/cmd\optiga_cmd.c ****     p_apdu_buffer [0] = cmd;
  89              	 .loc 1 440 0
  90 0014 3B68     	 ldr r3,[r7]
  91 0016 FA79     	 ldrb r2,[r7,#7]
  92 0018 1A70     	 strb r2,[r3]
 441:C:/Users/Yushev/git/wpcqi-optiga-trust-charge/optiga/optiga/cmd\optiga_cmd.c ****     p_apdu_buffer [1] = param;
  93              	 .loc 1 441 0
  94 001a 3B68     	 ldr r3,[r7]
  95 001c 0133     	 adds r3,r3,#1
  96 001e BA79     	 ldrb r2,[r7,#6]
  97 0020 1A70     	 strb r2,[r3]
 442:C:/Users/Yushev/git/wpcqi-optiga-trust-charge/optiga/optiga/cmd\optiga_cmd.c ****     p_apdu_buffer [2] = (uint8_t)((in_data_length & 0xFF00) >> 8);
  98              	 .loc 1 442 0
  99 0022 3B68     	 ldr r3,[r7]
 100 0024 0233     	 adds r3,r3,#2
 101 0026 BA88     	 ldrh r2,[r7,#4]
 102 0028 120A     	 lsrs r2,r2,#8
 103 002a 92B2     	 uxth r2,r2
 104 002c D2B2     	 uxtb r2,r2
 105 002e 1A70     	 strb r2,[r3]
 443:C:/Users/Yushev/git/wpcqi-optiga-trust-charge/optiga/optiga/cmd\optiga_cmd.c ****     p_apdu_buffer [3] = (uint8_t)(in_data_length & 0x00FF);
 106              	 .loc 1 443 0
 107 0030 3B68     	 ldr r3,[r7]
 108 0032 0333     	 adds r3,r3,#3
 109 0034 BA88     	 ldrh r2,[r7,#4]
 110 0036 D2B2     	 uxtb r2,r2
 111 0038 1A70     	 strb r2,[r3]
 444:C:/Users/Yushev/git/wpcqi-optiga-trust-charge/optiga/optiga/cmd\optiga_cmd.c **** }
 112              	 .loc 1 444 0
 113 003a 0C37     	 adds r7,r7,#12
 114              	.LCFI3:
 115              	 .cfi_def_cfa_offset 4
 116 003c BD46     	 mov sp,r7
 117              	.LCFI4:
 118              	 .cfi_def_cfa_register 13
 119              	 
 120 003e 5DF8047B 	 ldr r7,[sp],#4
 121              	.LCFI5:
 122              	 .cfi_restore 7
 123              	 .cfi_def_cfa_offset 0
 124 0042 7047     	 bx lr
 125              	 .cfi_endproc
 126              	.LFE0:
 128              	 .section .text.optiga_cmd_prepare_tag_header,"ax",%progbits
 129              	 .align 2
 130              	 .thumb
 131              	 .thumb_func
 133              	optiga_cmd_prepare_tag_header:
 134              	.LFB1:
 445:C:/Users/Yushev/git/wpcqi-optiga-trust-charge/optiga/optiga/cmd\optiga_cmd.c **** 
 446:C:/Users/Yushev/git/wpcqi-optiga-trust-charge/optiga/optiga/cmd\optiga_cmd.c **** 
 447:C:/Users/Yushev/git/wpcqi-optiga-trust-charge/optiga/optiga/cmd\optiga_cmd.c **** _STATIC_H void optiga_cmd_prepare_tag_header(uint8_t tag,
 448:C:/Users/Yushev/git/wpcqi-optiga-trust-charge/optiga/optiga/cmd\optiga_cmd.c ****                                              uint16_t tag_length,
 449:C:/Users/Yushev/git/wpcqi-optiga-trust-charge/optiga/optiga/cmd\optiga_cmd.c ****                                              uint8_t * buffer,
 450:C:/Users/Yushev/git/wpcqi-optiga-trust-charge/optiga/optiga/cmd\optiga_cmd.c ****                                              uint16_t * position)
 451:C:/Users/Yushev/git/wpcqi-optiga-trust-charge/optiga/optiga/cmd\optiga_cmd.c **** {
 135              	 .loc 1 451 0
 136              	 .cfi_startproc
 137              	 
 138              	 
 139              	 
 140 0000 80B4     	 push {r7}
 141              	.LCFI6:
 142              	 .cfi_def_cfa_offset 4
 143              	 .cfi_offset 7,-4
 144 0002 87B0     	 sub sp,sp,#28
 145              	.LCFI7:
 146              	 .cfi_def_cfa_offset 32
 147 0004 00AF     	 add r7,sp,#0
 148              	.LCFI8:
 149              	 .cfi_def_cfa_register 7
 150 0006 BA60     	 str r2,[r7,#8]
 151 0008 7B60     	 str r3,[r7,#4]
 152 000a 0346     	 mov r3,r0
 153 000c FB73     	 strb r3,[r7,#15]
 154 000e 0B46     	 mov r3,r1
 155 0010 BB81     	 strh r3,[r7,#12]
 452:C:/Users/Yushev/git/wpcqi-optiga-trust-charge/optiga/optiga/cmd\optiga_cmd.c ****     uint16_t start_position = *position;
 156              	 .loc 1 452 0
 157 0012 7B68     	 ldr r3,[r7,#4]
 158 0014 1B88     	 ldrh r3,[r3]
 159 0016 FB82     	 strh r3,[r7,#22]
 453:C:/Users/Yushev/git/wpcqi-optiga-trust-charge/optiga/optiga/cmd\optiga_cmd.c **** 
 454:C:/Users/Yushev/git/wpcqi-optiga-trust-charge/optiga/optiga/cmd\optiga_cmd.c ****     buffer[start_position++] = tag;
 160              	 .loc 1 454 0
 161 0018 FB8A     	 ldrh r3,[r7,#22]
 162 001a 5A1C     	 adds r2,r3,#1
 163 001c FA82     	 strh r2,[r7,#22]
 164 001e 1A46     	 mov r2,r3
 165 0020 BB68     	 ldr r3,[r7,#8]
 166 0022 1344     	 add r3,r3,r2
 167 0024 FA7B     	 ldrb r2,[r7,#15]
 168 0026 1A70     	 strb r2,[r3]
 455:C:/Users/Yushev/git/wpcqi-optiga-trust-charge/optiga/optiga/cmd\optiga_cmd.c ****     buffer[start_position++] = (uint8_t )(tag_length >> 8);
 169              	 .loc 1 455 0
 170 0028 FB8A     	 ldrh r3,[r7,#22]
 171 002a 5A1C     	 adds r2,r3,#1
 172 002c FA82     	 strh r2,[r7,#22]
 173 002e 1A46     	 mov r2,r3
 174 0030 BB68     	 ldr r3,[r7,#8]
 175 0032 1344     	 add r3,r3,r2
 176 0034 BA89     	 ldrh r2,[r7,#12]
 177 0036 120A     	 lsrs r2,r2,#8
 178 0038 92B2     	 uxth r2,r2
 179 003a D2B2     	 uxtb r2,r2
 180 003c 1A70     	 strb r2,[r3]
 456:C:/Users/Yushev/git/wpcqi-optiga-trust-charge/optiga/optiga/cmd\optiga_cmd.c ****     buffer[start_position++] = (uint8_t )(tag_length);
 181              	 .loc 1 456 0
 182 003e FB8A     	 ldrh r3,[r7,#22]
 183 0040 5A1C     	 adds r2,r3,#1
 184 0042 FA82     	 strh r2,[r7,#22]
 185 0044 1A46     	 mov r2,r3
 186 0046 BB68     	 ldr r3,[r7,#8]
 187 0048 1344     	 add r3,r3,r2
 188 004a BA89     	 ldrh r2,[r7,#12]
 189 004c D2B2     	 uxtb r2,r2
 190 004e 1A70     	 strb r2,[r3]
 457:C:/Users/Yushev/git/wpcqi-optiga-trust-charge/optiga/optiga/cmd\optiga_cmd.c **** 
 458:C:/Users/Yushev/git/wpcqi-optiga-trust-charge/optiga/optiga/cmd\optiga_cmd.c ****     *position = start_position;
 191              	 .loc 1 458 0
 192 0050 7B68     	 ldr r3,[r7,#4]
 193 0052 FA8A     	 ldrh r2,[r7,#22]
 194 0054 1A80     	 strh r2,[r3]
 459:C:/Users/Yushev/git/wpcqi-optiga-trust-charge/optiga/optiga/cmd\optiga_cmd.c **** }
 195              	 .loc 1 459 0
 196 0056 1C37     	 adds r7,r7,#28
 197              	.LCFI9:
 198              	 .cfi_def_cfa_offset 4
 199 0058 BD46     	 mov sp,r7
 200              	.LCFI10:
 201              	 .cfi_def_cfa_register 13
 202              	 
 203 005a 5DF8047B 	 ldr r7,[sp],#4
 204              	.LCFI11:
 205              	 .cfi_restore 7
 206              	 .cfi_def_cfa_offset 0
 207 005e 7047     	 bx lr
 208              	 .cfi_endproc
 209              	.LFE1:
 211              	 .section .text.optiga_cmd_event_trigger_execute,"ax",%progbits
 212              	 .align 2
 213              	 .thumb
 214              	 .thumb_func
 216              	optiga_cmd_event_trigger_execute:
 217              	.LFB2:
 460:C:/Users/Yushev/git/wpcqi-optiga-trust-charge/optiga/optiga/cmd\optiga_cmd.c **** 
 461:C:/Users/Yushev/git/wpcqi-optiga-trust-charge/optiga/optiga/cmd\optiga_cmd.c **** 
 462:C:/Users/Yushev/git/wpcqi-optiga-trust-charge/optiga/optiga/cmd\optiga_cmd.c **** _STATIC_H void optiga_cmd_event_trigger_execute(void * p_ctx)
 463:C:/Users/Yushev/git/wpcqi-optiga-trust-charge/optiga/optiga/cmd\optiga_cmd.c **** {
 218              	 .loc 1 463 0
 219              	 .cfi_startproc
 220              	 
 221              	 
 222 0000 80B5     	 push {r7,lr}
 223              	.LCFI12:
 224              	 .cfi_def_cfa_offset 8
 225              	 .cfi_offset 7,-8
 226              	 .cfi_offset 14,-4
 227 0002 82B0     	 sub sp,sp,#8
 228              	.LCFI13:
 229              	 .cfi_def_cfa_offset 16
 230 0004 00AF     	 add r7,sp,#0
 231              	.LCFI14:
 232              	 .cfi_def_cfa_register 7
 233 0006 7860     	 str r0,[r7,#4]
 464:C:/Users/Yushev/git/wpcqi-optiga-trust-charge/optiga/optiga/cmd\optiga_cmd.c ****     optiga_cmd_execute_handler(p_ctx, OPTIGA_LIB_SUCCESS);
 234              	 .loc 1 464 0
 235 0008 7868     	 ldr r0,[r7,#4]
 236 000a 0021     	 movs r1,#0
 237 000c FFF7FEFF 	 bl optiga_cmd_execute_handler
 465:C:/Users/Yushev/git/wpcqi-optiga-trust-charge/optiga/optiga/cmd\optiga_cmd.c **** }
 238              	 .loc 1 465 0
 239 0010 0837     	 adds r7,r7,#8
 240              	.LCFI15:
 241              	 .cfi_def_cfa_offset 8
 242 0012 BD46     	 mov sp,r7
 243              	.LCFI16:
 244              	 .cfi_def_cfa_register 13
 245              	 
 246 0014 80BD     	 pop {r7,pc}
 247              	 .cfi_endproc
 248              	.LFE2:
 250 0016 00BF     	 .section .text.optiga_cmd_execute,"ax",%progbits
 251              	 .align 2
 252              	 .thumb
 253              	 .thumb_func
 255              	optiga_cmd_execute:
 256              	.LFB3:
 466:C:/Users/Yushev/git/wpcqi-optiga-trust-charge/optiga/optiga/cmd\optiga_cmd.c **** 
 467:C:/Users/Yushev/git/wpcqi-optiga-trust-charge/optiga/optiga/cmd\optiga_cmd.c **** _STATIC_H void optiga_cmd_execute(optiga_cmd_t * me,
 468:C:/Users/Yushev/git/wpcqi-optiga-trust-charge/optiga/optiga/cmd\optiga_cmd.c ****                                   uint8_t cmd_param,
 469:C:/Users/Yushev/git/wpcqi-optiga-trust-charge/optiga/optiga/cmd\optiga_cmd.c ****                                   optiga_cmd_handler_t cmd_hdlrs,
 470:C:/Users/Yushev/git/wpcqi-optiga-trust-charge/optiga/optiga/cmd\optiga_cmd.c ****                                   optiga_cmd_state_t start_state,
 471:C:/Users/Yushev/git/wpcqi-optiga-trust-charge/optiga/optiga/cmd\optiga_cmd.c ****                                   optiga_cmd_sub_state_t sub_state,
 472:C:/Users/Yushev/git/wpcqi-optiga-trust-charge/optiga/optiga/cmd\optiga_cmd.c ****                                   void * input,
 473:C:/Users/Yushev/git/wpcqi-optiga-trust-charge/optiga/optiga/cmd\optiga_cmd.c ****                                   uint16_t apdu_data)
 474:C:/Users/Yushev/git/wpcqi-optiga-trust-charge/optiga/optiga/cmd\optiga_cmd.c **** {
 257              	 .loc 1 474 0
 258              	 .cfi_startproc
 259              	 
 260              	 
 261 0000 80B5     	 push {r7,lr}
 262              	.LCFI17:
 263              	 .cfi_def_cfa_offset 8
 264              	 .cfi_offset 7,-8
 265              	 .cfi_offset 14,-4
 266 0002 84B0     	 sub sp,sp,#16
 267              	.LCFI18:
 268              	 .cfi_def_cfa_offset 24
 269 0004 00AF     	 add r7,sp,#0
 270              	.LCFI19:
 271              	 .cfi_def_cfa_register 7
 272 0006 F860     	 str r0,[r7,#12]
 273 0008 7A60     	 str r2,[r7,#4]
 274 000a 1A46     	 mov r2,r3
 275 000c 0B46     	 mov r3,r1
 276 000e FB72     	 strb r3,[r7,#11]
 277 0010 1346     	 mov r3,r2
 278 0012 BB72     	 strb r3,[r7,#10]
 475:C:/Users/Yushev/git/wpcqi-optiga-trust-charge/optiga/optiga/cmd\optiga_cmd.c ****     me->p_input = input;
 279              	 .loc 1 475 0
 280 0014 FB68     	 ldr r3,[r7,#12]
 281 0016 FA69     	 ldr r2,[r7,#28]
 282 0018 9A60     	 str r2,[r3,#8]
 476:C:/Users/Yushev/git/wpcqi-optiga-trust-charge/optiga/optiga/cmd\optiga_cmd.c ****     me->cmd_next_execution_state = start_state;
 283              	 .loc 1 476 0
 284 001a FB68     	 ldr r3,[r7,#12]
 285 001c BA7A     	 ldrb r2,[r7,#10]
 286 001e 9A75     	 strb r2,[r3,#22]
 477:C:/Users/Yushev/git/wpcqi-optiga-trust-charge/optiga/optiga/cmd\optiga_cmd.c ****     me->cmd_sub_execution_state = sub_state;
 287              	 .loc 1 477 0
 288 0020 FB68     	 ldr r3,[r7,#12]
 289 0022 3A7E     	 ldrb r2,[r7,#24]
 290 0024 DA75     	 strb r2,[r3,#23]
 478:C:/Users/Yushev/git/wpcqi-optiga-trust-charge/optiga/optiga/cmd\optiga_cmd.c ****     me->cmd_hdlrs = cmd_hdlrs;
 291              	 .loc 1 478 0
 292 0026 FB68     	 ldr r3,[r7,#12]
 293 0028 7A68     	 ldr r2,[r7,#4]
 294 002a 5A60     	 str r2,[r3,#4]
 479:C:/Users/Yushev/git/wpcqi-optiga-trust-charge/optiga/optiga/cmd\optiga_cmd.c ****     me->chaining_ongoing = FALSE;
 295              	 .loc 1 479 0
 296 002c FB68     	 ldr r3,[r7,#12]
 297 002e 0022     	 movs r2,#0
 298 0030 1A76     	 strb r2,[r3,#24]
 480:C:/Users/Yushev/git/wpcqi-optiga-trust-charge/optiga/optiga/cmd\optiga_cmd.c ****     me->cmd_param = cmd_param;
 299              	 .loc 1 480 0
 300 0032 FB68     	 ldr r3,[r7,#12]
 301 0034 FA7A     	 ldrb r2,[r7,#11]
 302 0036 5A76     	 strb r2,[r3,#25]
 481:C:/Users/Yushev/git/wpcqi-optiga-trust-charge/optiga/optiga/cmd\optiga_cmd.c ****     me->apdu_data = apdu_data;
 303              	 .loc 1 481 0
 304 0038 FB68     	 ldr r3,[r7,#12]
 305 003a 3A8C     	 ldrh r2,[r7,#32]
 306 003c 1A84     	 strh r2,[r3,#32]
 482:C:/Users/Yushev/git/wpcqi-optiga-trust-charge/optiga/optiga/cmd\optiga_cmd.c ****     optiga_cmd_execute_handler(me, OPTIGA_LIB_SUCCESS);
 307              	 .loc 1 482 0
 308 003e F868     	 ldr r0,[r7,#12]
 309 0040 0021     	 movs r1,#0
 310 0042 FFF7FEFF 	 bl optiga_cmd_execute_handler
 483:C:/Users/Yushev/git/wpcqi-optiga-trust-charge/optiga/optiga/cmd\optiga_cmd.c **** }
 311              	 .loc 1 483 0
 312 0046 1037     	 adds r7,r7,#16
 313              	.LCFI20:
 314              	 .cfi_def_cfa_offset 8
 315 0048 BD46     	 mov sp,r7
 316              	.LCFI21:
 317              	 .cfi_def_cfa_register 13
 318              	 
 319 004a 80BD     	 pop {r7,pc}
 320              	 .cfi_endproc
 321              	.LFE3:
 323              	 .section .text.optiga_cmd_session_available,"ax",%progbits
 324              	 .align 2
 325              	 .thumb
 326              	 .thumb_func
 328              	optiga_cmd_session_available:
 329              	.LFB4:
 484:C:/Users/Yushev/git/wpcqi-optiga-trust-charge/optiga/optiga/cmd\optiga_cmd.c **** 
 485:C:/Users/Yushev/git/wpcqi-optiga-trust-charge/optiga/optiga/cmd\optiga_cmd.c **** /*
 486:C:/Users/Yushev/git/wpcqi-optiga-trust-charge/optiga/optiga/cmd\optiga_cmd.c **** * Checks if optiga session is available or not
 487:C:/Users/Yushev/git/wpcqi-optiga-trust-charge/optiga/optiga/cmd\optiga_cmd.c **** * Returns TRUE, if slot is available
 488:C:/Users/Yushev/git/wpcqi-optiga-trust-charge/optiga/optiga/cmd\optiga_cmd.c **** * Returns FALSE, if slot is not available
 489:C:/Users/Yushev/git/wpcqi-optiga-trust-charge/optiga/optiga/cmd\optiga_cmd.c **** */
 490:C:/Users/Yushev/git/wpcqi-optiga-trust-charge/optiga/optiga/cmd\optiga_cmd.c **** _STATIC_H bool_t optiga_cmd_session_available(const optiga_context_t * p_optiga)
 491:C:/Users/Yushev/git/wpcqi-optiga-trust-charge/optiga/optiga/cmd\optiga_cmd.c **** {
 330              	 .loc 1 491 0
 331              	 .cfi_startproc
 332              	 
 333              	 
 334 0000 80B5     	 push {r7,lr}
 335              	.LCFI22:
 336              	 .cfi_def_cfa_offset 8
 337              	 .cfi_offset 7,-8
 338              	 .cfi_offset 14,-4
 339 0002 84B0     	 sub sp,sp,#16
 340              	.LCFI23:
 341              	 .cfi_def_cfa_offset 24
 342 0004 00AF     	 add r7,sp,#0
 343              	.LCFI24:
 344              	 .cfi_def_cfa_register 7
 345 0006 7860     	 str r0,[r7,#4]
 492:C:/Users/Yushev/git/wpcqi-optiga-trust-charge/optiga/optiga/cmd\optiga_cmd.c ****     uint32_t status_check;
 493:C:/Users/Yushev/git/wpcqi-optiga-trust-charge/optiga/optiga/cmd\optiga_cmd.c ****     // Consider the array as uin32_t value and check against 0x10101010
 494:C:/Users/Yushev/git/wpcqi-optiga-trust-charge/optiga/optiga/cmd\optiga_cmd.c ****     // where 0x10 is value of OPTIGA_CMD_SESSION_ASSIGNED
 495:C:/Users/Yushev/git/wpcqi-optiga-trust-charge/optiga/optiga/cmd\optiga_cmd.c ****     status_check = optiga_common_get_uint32(p_optiga->sessions);
 346              	 .loc 1 495 0
 347 0008 7B68     	 ldr r3,[r7,#4]
 348 000a 0833     	 adds r3,r3,#8
 349 000c 1846     	 mov r0,r3
 350 000e FFF7FEFF 	 bl optiga_common_get_uint32
 351 0012 F860     	 str r0,[r7,#12]
 496:C:/Users/Yushev/git/wpcqi-optiga-trust-charge/optiga/optiga/cmd\optiga_cmd.c ****     return ((status_check < OPTIGA_CMD_ALL_SESSION_ASSIGNED)? (TRUE):(FALSE));
 352              	 .loc 1 496 0
 353 0014 FB68     	 ldr r3,[r7,#12]
 354 0016 B3F1103F 	 cmp r3,#269488144
 355 001a 01D2     	 bcs .L6
 356              	 .loc 1 496 0 is_stmt 0 discriminator 1
 357 001c 0123     	 movs r3,#1
 358 001e 00E0     	 b .L7
 359              	.L6:
 360              	 .loc 1 496 0 discriminator 2
 361 0020 0023     	 movs r3,#0
 362              	.L7:
 497:C:/Users/Yushev/git/wpcqi-optiga-trust-charge/optiga/optiga/cmd\optiga_cmd.c **** }
 363              	 .loc 1 497 0 is_stmt 1 discriminator 4
 364 0022 1846     	 mov r0,r3
 365 0024 1037     	 adds r7,r7,#16
 366              	.LCFI25:
 367              	 .cfi_def_cfa_offset 8
 368 0026 BD46     	 mov sp,r7
 369              	.LCFI26:
 370              	 .cfi_def_cfa_register 13
 371              	 
 372 0028 80BD     	 pop {r7,pc}
 373              	 .cfi_endproc
 374              	.LFE4:
 376 002a 00BF     	 .section .text.optiga_cmd_session_assign,"ax",%progbits
 377              	 .align 2
 378              	 .thumb
 379              	 .thumb_func
 381              	optiga_cmd_session_assign:
 382              	.LFB5:
 498:C:/Users/Yushev/git/wpcqi-optiga-trust-charge/optiga/optiga/cmd\optiga_cmd.c **** 
 499:C:/Users/Yushev/git/wpcqi-optiga-trust-charge/optiga/optiga/cmd\optiga_cmd.c **** /*
 500:C:/Users/Yushev/git/wpcqi-optiga-trust-charge/optiga/optiga/cmd\optiga_cmd.c **** * 1. If a optiga cmd instance does not have session, assigns an available session
 501:C:/Users/Yushev/git/wpcqi-optiga-trust-charge/optiga/optiga/cmd\optiga_cmd.c **** */
 502:C:/Users/Yushev/git/wpcqi-optiga-trust-charge/optiga/optiga/cmd\optiga_cmd.c **** _STATIC_H void optiga_cmd_session_assign(optiga_cmd_t * me)
 503:C:/Users/Yushev/git/wpcqi-optiga-trust-charge/optiga/optiga/cmd\optiga_cmd.c **** {
 383              	 .loc 1 503 0
 384              	 .cfi_startproc
 385              	 
 386              	 
 387              	 
 388 0000 80B4     	 push {r7}
 389              	.LCFI27:
 390              	 .cfi_def_cfa_offset 4
 391              	 .cfi_offset 7,-4
 392 0002 85B0     	 sub sp,sp,#20
 393              	.LCFI28:
 394              	 .cfi_def_cfa_offset 24
 395 0004 00AF     	 add r7,sp,#0
 396              	.LCFI29:
 397              	 .cfi_def_cfa_register 7
 398 0006 7860     	 str r0,[r7,#4]
 504:C:/Users/Yushev/git/wpcqi-optiga-trust-charge/optiga/optiga/cmd\optiga_cmd.c ****     uint8_t * p_optiga_sessions = me->p_optiga->sessions;
 399              	 .loc 1 504 0
 400 0008 7B68     	 ldr r3,[r7,#4]
 401 000a 1B68     	 ldr r3,[r3]
 402 000c 0833     	 adds r3,r3,#8
 403 000e BB60     	 str r3,[r7,#8]
 505:C:/Users/Yushev/git/wpcqi-optiga-trust-charge/optiga/optiga/cmd\optiga_cmd.c ****     uint8_t count;
 506:C:/Users/Yushev/git/wpcqi-optiga-trust-charge/optiga/optiga/cmd\optiga_cmd.c ****     if (OPTIGA_CMD_NO_SESSION_OID == me->session_oid)
 404              	 .loc 1 506 0
 405 0010 7B68     	 ldr r3,[r7,#4]
 406 0012 9B8A     	 ldrh r3,[r3,#20]
 407 0014 002B     	 cmp r3,#0
 408 0016 1BD1     	 bne .L9
 507:C:/Users/Yushev/git/wpcqi-optiga-trust-charge/optiga/optiga/cmd\optiga_cmd.c ****     {
 508:C:/Users/Yushev/git/wpcqi-optiga-trust-charge/optiga/optiga/cmd\optiga_cmd.c ****         for (count = 0; count < OPTIGA_CMD_MAX_NUMBER_OF_SESSIONS; count++)
 409              	 .loc 1 508 0
 410 0018 0023     	 movs r3,#0
 411 001a FB73     	 strb r3,[r7,#15]
 412 001c 15E0     	 b .L11
 413              	.L13:
 509:C:/Users/Yushev/git/wpcqi-optiga-trust-charge/optiga/optiga/cmd\optiga_cmd.c ****         {
 510:C:/Users/Yushev/git/wpcqi-optiga-trust-charge/optiga/optiga/cmd\optiga_cmd.c ****             if (OPTIGA_CMD_SESSION_ASSIGNED != p_optiga_sessions[count])
 414              	 .loc 1 510 0
 415 001e FB7B     	 ldrb r3,[r7,#15]
 416 0020 BA68     	 ldr r2,[r7,#8]
 417 0022 1344     	 add r3,r3,r2
 418 0024 1B78     	 ldrb r3,[r3]
 419 0026 102B     	 cmp r3,#16
 420 0028 0CD0     	 beq .L12
 511:C:/Users/Yushev/git/wpcqi-optiga-trust-charge/optiga/optiga/cmd\optiga_cmd.c ****             {
 512:C:/Users/Yushev/git/wpcqi-optiga-trust-charge/optiga/optiga/cmd\optiga_cmd.c ****                 me->session_oid = (OPTIGA_CMD_START_SESSION_OID | count);
 421              	 .loc 1 512 0
 422 002a FB7B     	 ldrb r3,[r7,#15]
 423 002c 9AB2     	 uxth r2,r3
 424 002e 0B4B     	 ldr r3,.L14
 425 0030 1343     	 orrs r3,r3,r2
 426 0032 9AB2     	 uxth r2,r3
 427 0034 7B68     	 ldr r3,[r7,#4]
 428 0036 9A82     	 strh r2,[r3,#20]
 513:C:/Users/Yushev/git/wpcqi-optiga-trust-charge/optiga/optiga/cmd\optiga_cmd.c ****                 p_optiga_sessions[count] = OPTIGA_CMD_SESSION_ASSIGNED;
 429              	 .loc 1 513 0
 430 0038 FB7B     	 ldrb r3,[r7,#15]
 431 003a BA68     	 ldr r2,[r7,#8]
 432 003c 1344     	 add r3,r3,r2
 433 003e 1022     	 movs r2,#16
 434 0040 1A70     	 strb r2,[r3]
 514:C:/Users/Yushev/git/wpcqi-optiga-trust-charge/optiga/optiga/cmd\optiga_cmd.c ****                 break;
 435              	 .loc 1 514 0
 436 0042 05E0     	 b .L9
 437              	.L12:
 508:C:/Users/Yushev/git/wpcqi-optiga-trust-charge/optiga/optiga/cmd\optiga_cmd.c ****         {
 438              	 .loc 1 508 0 discriminator 2
 439 0044 FB7B     	 ldrb r3,[r7,#15]
 440 0046 0133     	 adds r3,r3,#1
 441 0048 FB73     	 strb r3,[r7,#15]
 442              	.L11:
 508:C:/Users/Yushev/git/wpcqi-optiga-trust-charge/optiga/optiga/cmd\optiga_cmd.c ****         {
 443              	 .loc 1 508 0 is_stmt 0 discriminator 1
 444 004a FB7B     	 ldrb r3,[r7,#15]
 445 004c 032B     	 cmp r3,#3
 446 004e E6D9     	 bls .L13
 447              	.L9:
 515:C:/Users/Yushev/git/wpcqi-optiga-trust-charge/optiga/optiga/cmd\optiga_cmd.c ****             }
 516:C:/Users/Yushev/git/wpcqi-optiga-trust-charge/optiga/optiga/cmd\optiga_cmd.c ****         }
 517:C:/Users/Yushev/git/wpcqi-optiga-trust-charge/optiga/optiga/cmd\optiga_cmd.c ****     }
 518:C:/Users/Yushev/git/wpcqi-optiga-trust-charge/optiga/optiga/cmd\optiga_cmd.c **** }
 448              	 .loc 1 518 0 is_stmt 1
 449 0050 1437     	 adds r7,r7,#20
 450              	.LCFI30:
 451              	 .cfi_def_cfa_offset 4
 452 0052 BD46     	 mov sp,r7
 453              	.LCFI31:
 454              	 .cfi_def_cfa_register 13
 455              	 
 456 0054 5DF8047B 	 ldr r7,[sp],#4
 457              	.LCFI32:
 458              	 .cfi_restore 7
 459              	 .cfi_def_cfa_offset 0
 460 0058 7047     	 bx lr
 461              	.L15:
 462 005a 00BF     	 .align 2
 463              	.L14:
 464 005c 00E1FFFF 	 .word -7936
 465              	 .cfi_endproc
 466              	.LFE5:
 468              	 .section .text.optiga_cmd_session_free,"ax",%progbits
 469              	 .align 2
 470              	 .thumb
 471              	 .thumb_func
 473              	optiga_cmd_session_free:
 474              	.LFB6:
 519:C:/Users/Yushev/git/wpcqi-optiga-trust-charge/optiga/optiga/cmd\optiga_cmd.c **** 
 520:C:/Users/Yushev/git/wpcqi-optiga-trust-charge/optiga/optiga/cmd\optiga_cmd.c **** /*
 521:C:/Users/Yushev/git/wpcqi-optiga-trust-charge/optiga/optiga/cmd\optiga_cmd.c **** * Frees a session
 522:C:/Users/Yushev/git/wpcqi-optiga-trust-charge/optiga/optiga/cmd\optiga_cmd.c **** */
 523:C:/Users/Yushev/git/wpcqi-optiga-trust-charge/optiga/optiga/cmd\optiga_cmd.c **** _STATIC_H void optiga_cmd_session_free(optiga_cmd_t * me)
 524:C:/Users/Yushev/git/wpcqi-optiga-trust-charge/optiga/optiga/cmd\optiga_cmd.c **** {
 475              	 .loc 1 524 0
 476              	 .cfi_startproc
 477              	 
 478              	 
 479              	 
 480 0000 80B4     	 push {r7}
 481              	.LCFI33:
 482              	 .cfi_def_cfa_offset 4
 483              	 .cfi_offset 7,-4
 484 0002 85B0     	 sub sp,sp,#20
 485              	.LCFI34:
 486              	 .cfi_def_cfa_offset 24
 487 0004 00AF     	 add r7,sp,#0
 488              	.LCFI35:
 489              	 .cfi_def_cfa_register 7
 490 0006 7860     	 str r0,[r7,#4]
 525:C:/Users/Yushev/git/wpcqi-optiga-trust-charge/optiga/optiga/cmd\optiga_cmd.c ****     uint8_t * p_optiga_sessions = me->p_optiga->sessions;
 491              	 .loc 1 525 0
 492 0008 7B68     	 ldr r3,[r7,#4]
 493 000a 1B68     	 ldr r3,[r3]
 494 000c 0833     	 adds r3,r3,#8
 495 000e FB60     	 str r3,[r7,#12]
 526:C:/Users/Yushev/git/wpcqi-optiga-trust-charge/optiga/optiga/cmd\optiga_cmd.c ****     uint8_t count;
 527:C:/Users/Yushev/git/wpcqi-optiga-trust-charge/optiga/optiga/cmd\optiga_cmd.c ****     if (OPTIGA_CMD_NO_SESSION_OID != me->session_oid)
 496              	 .loc 1 527 0
 497 0010 7B68     	 ldr r3,[r7,#4]
 498 0012 9B8A     	 ldrh r3,[r3,#20]
 499 0014 002B     	 cmp r3,#0
 500 0016 0DD0     	 beq .L16
 528:C:/Users/Yushev/git/wpcqi-optiga-trust-charge/optiga/optiga/cmd\optiga_cmd.c ****     {
 529:C:/Users/Yushev/git/wpcqi-optiga-trust-charge/optiga/optiga/cmd\optiga_cmd.c ****         count = me->session_oid & 0x0F;
 501              	 .loc 1 529 0
 502 0018 7B68     	 ldr r3,[r7,#4]
 503 001a 9B8A     	 ldrh r3,[r3,#20]
 504 001c DBB2     	 uxtb r3,r3
 505 001e 03F00F03 	 and r3,r3,#15
 506 0022 FB72     	 strb r3,[r7,#11]
 530:C:/Users/Yushev/git/wpcqi-optiga-trust-charge/optiga/optiga/cmd\optiga_cmd.c ****         me->session_oid = OPTIGA_CMD_NO_SESSION_OID;
 507              	 .loc 1 530 0
 508 0024 7B68     	 ldr r3,[r7,#4]
 509 0026 0022     	 movs r2,#0
 510 0028 9A82     	 strh r2,[r3,#20]
 531:C:/Users/Yushev/git/wpcqi-optiga-trust-charge/optiga/optiga/cmd\optiga_cmd.c ****         p_optiga_sessions[count] = OPTIGA_CMD_SESSION_NOT_ASSIGNED;
 511              	 .loc 1 531 0
 512 002a FB7A     	 ldrb r3,[r7,#11]
 513 002c FA68     	 ldr r2,[r7,#12]
 514 002e 1344     	 add r3,r3,r2
 515 0030 0022     	 movs r2,#0
 516 0032 1A70     	 strb r2,[r3]
 517              	.L16:
 532:C:/Users/Yushev/git/wpcqi-optiga-trust-charge/optiga/optiga/cmd\optiga_cmd.c ****     }
 533:C:/Users/Yushev/git/wpcqi-optiga-trust-charge/optiga/optiga/cmd\optiga_cmd.c **** }
 518              	 .loc 1 533 0
 519 0034 1437     	 adds r7,r7,#20
 520              	.LCFI36:
 521              	 .cfi_def_cfa_offset 4
 522 0036 BD46     	 mov sp,r7
 523              	.LCFI37:
 524              	 .cfi_def_cfa_register 13
 525              	 
 526 0038 5DF8047B 	 ldr r7,[sp],#4
 527              	.LCFI38:
 528              	 .cfi_restore 7
 529              	 .cfi_def_cfa_offset 0
 530 003c 7047     	 bx lr
 531              	 .cfi_endproc
 532              	.LFE6:
 534 003e 00BF     	 .section .text.optiga_cmd_queue_get_state_of,"ax",%progbits
 535              	 .align 2
 536              	 .thumb
 537              	 .thumb_func
 539              	optiga_cmd_queue_get_state_of:
 540              	.LFB7:
 534:C:/Users/Yushev/git/wpcqi-optiga-trust-charge/optiga/optiga/cmd\optiga_cmd.c **** 
 535:C:/Users/Yushev/git/wpcqi-optiga-trust-charge/optiga/optiga/cmd\optiga_cmd.c **** /*
 536:C:/Users/Yushev/git/wpcqi-optiga-trust-charge/optiga/optiga/cmd\optiga_cmd.c **** *  Returns the requested info in the queue slot input cmd instance
 537:C:/Users/Yushev/git/wpcqi-optiga-trust-charge/optiga/optiga/cmd\optiga_cmd.c **** */
 538:C:/Users/Yushev/git/wpcqi-optiga-trust-charge/optiga/optiga/cmd\optiga_cmd.c **** _STATIC_H  uint8_t optiga_cmd_queue_get_state_of(const optiga_cmd_t * me, uint8_t slot_member)
 539:C:/Users/Yushev/git/wpcqi-optiga-trust-charge/optiga/optiga/cmd\optiga_cmd.c **** {
 541              	 .loc 1 539 0
 542              	 .cfi_startproc
 543              	 
 544              	 
 545              	 
 546 0000 80B4     	 push {r7}
 547              	.LCFI39:
 548              	 .cfi_def_cfa_offset 4
 549              	 .cfi_offset 7,-4
 550 0002 85B0     	 sub sp,sp,#20
 551              	.LCFI40:
 552              	 .cfi_def_cfa_offset 24
 553 0004 00AF     	 add r7,sp,#0
 554              	.LCFI41:
 555              	 .cfi_def_cfa_register 7
 556 0006 7860     	 str r0,[r7,#4]
 557 0008 0B46     	 mov r3,r1
 558 000a FB70     	 strb r3,[r7,#3]
 540:C:/Users/Yushev/git/wpcqi-optiga-trust-charge/optiga/optiga/cmd\optiga_cmd.c ****     uint8_t state = 0;
 559              	 .loc 1 540 0
 560 000c 0023     	 movs r3,#0
 561 000e FB73     	 strb r3,[r7,#15]
 541:C:/Users/Yushev/git/wpcqi-optiga-trust-charge/optiga/optiga/cmd\optiga_cmd.c ****     switch (slot_member)
 562              	 .loc 1 541 0
 563 0010 FB78     	 ldrb r3,[r7,#3]
 564 0012 082B     	 cmp r3,#8
 565 0014 02D0     	 beq .L20
 566 0016 092B     	 cmp r3,#9
 567 0018 0FD0     	 beq .L21
 542:C:/Users/Yushev/git/wpcqi-optiga-trust-charge/optiga/optiga/cmd\optiga_cmd.c ****     {
 543:C:/Users/Yushev/git/wpcqi-optiga-trust-charge/optiga/optiga/cmd\optiga_cmd.c ****         case OPTIGA_CMD_QUEUE_SLOT_LOCK_TYPE:
 544:C:/Users/Yushev/git/wpcqi-optiga-trust-charge/optiga/optiga/cmd\optiga_cmd.c ****         {
 545:C:/Users/Yushev/git/wpcqi-optiga-trust-charge/optiga/optiga/cmd\optiga_cmd.c ****             state = me->p_optiga->optiga_cmd_execution_queue[me->queue_id].request_type;
 546:C:/Users/Yushev/git/wpcqi-optiga-trust-charge/optiga/optiga/cmd\optiga_cmd.c ****         }
 547:C:/Users/Yushev/git/wpcqi-optiga-trust-charge/optiga/optiga/cmd\optiga_cmd.c ****         break;
 548:C:/Users/Yushev/git/wpcqi-optiga-trust-charge/optiga/optiga/cmd\optiga_cmd.c ****         case OPTIGA_CMD_QUEUE_SLOT_STATE:
 549:C:/Users/Yushev/git/wpcqi-optiga-trust-charge/optiga/optiga/cmd\optiga_cmd.c ****         {
 550:C:/Users/Yushev/git/wpcqi-optiga-trust-charge/optiga/optiga/cmd\optiga_cmd.c ****             state = me->p_optiga->optiga_cmd_execution_queue[me->queue_id].state_of_entry;
 551:C:/Users/Yushev/git/wpcqi-optiga-trust-charge/optiga/optiga/cmd\optiga_cmd.c ****         }
 552:C:/Users/Yushev/git/wpcqi-optiga-trust-charge/optiga/optiga/cmd\optiga_cmd.c ****         break;
 553:C:/Users/Yushev/git/wpcqi-optiga-trust-charge/optiga/optiga/cmd\optiga_cmd.c ****         default:
 554:C:/Users/Yushev/git/wpcqi-optiga-trust-charge/optiga/optiga/cmd\optiga_cmd.c ****             break;
 568              	 .loc 1 554 0
 569 001a 1DE0     	 b .L22
 570              	.L20:
 545:C:/Users/Yushev/git/wpcqi-optiga-trust-charge/optiga/optiga/cmd\optiga_cmd.c ****         }
 571              	 .loc 1 545 0
 572 001c 7B68     	 ldr r3,[r7,#4]
 573 001e 1A68     	 ldr r2,[r3]
 574 0020 7B68     	 ldr r3,[r7,#4]
 575 0022 DB7E     	 ldrb r3,[r3,#27]
 576 0024 1946     	 mov r1,r3
 577 0026 0B46     	 mov r3,r1
 578 0028 5B00     	 lsls r3,r3,#1
 579 002a 0B44     	 add r3,r3,r1
 580 002c 9B00     	 lsls r3,r3,#2
 581 002e 1344     	 add r3,r3,r2
 582 0030 03F5C563 	 add r3,r3,#1576
 583 0034 1B79     	 ldrb r3,[r3,#4]
 584 0036 FB73     	 strb r3,[r7,#15]
 547:C:/Users/Yushev/git/wpcqi-optiga-trust-charge/optiga/optiga/cmd\optiga_cmd.c ****         case OPTIGA_CMD_QUEUE_SLOT_STATE:
 585              	 .loc 1 547 0
 586 0038 0EE0     	 b .L22
 587              	.L21:
 550:C:/Users/Yushev/git/wpcqi-optiga-trust-charge/optiga/optiga/cmd\optiga_cmd.c ****         }
 588              	 .loc 1 550 0
 589 003a 7B68     	 ldr r3,[r7,#4]
 590 003c 1A68     	 ldr r2,[r3]
 591 003e 7B68     	 ldr r3,[r7,#4]
 592 0040 DB7E     	 ldrb r3,[r3,#27]
 593 0042 1946     	 mov r1,r3
 594 0044 0B46     	 mov r3,r1
 595 0046 5B00     	 lsls r3,r3,#1
 596 0048 0B44     	 add r3,r3,r1
 597 004a 9B00     	 lsls r3,r3,#2
 598 004c 1344     	 add r3,r3,r2
 599 004e 03F5C563 	 add r3,r3,#1576
 600 0052 5B79     	 ldrb r3,[r3,#5]
 601 0054 FB73     	 strb r3,[r7,#15]
 552:C:/Users/Yushev/git/wpcqi-optiga-trust-charge/optiga/optiga/cmd\optiga_cmd.c ****         default:
 602              	 .loc 1 552 0
 603 0056 00BF     	 nop
 604              	.L22:
 555:C:/Users/Yushev/git/wpcqi-optiga-trust-charge/optiga/optiga/cmd\optiga_cmd.c ****     }
 556:C:/Users/Yushev/git/wpcqi-optiga-trust-charge/optiga/optiga/cmd\optiga_cmd.c ****     return (state);
 605              	 .loc 1 556 0
 606 0058 FB7B     	 ldrb r3,[r7,#15]
 557:C:/Users/Yushev/git/wpcqi-optiga-trust-charge/optiga/optiga/cmd\optiga_cmd.c **** }
 607              	 .loc 1 557 0
 608 005a 1846     	 mov r0,r3
 609 005c 1437     	 adds r7,r7,#20
 610              	.LCFI42:
 611              	 .cfi_def_cfa_offset 4
 612 005e BD46     	 mov sp,r7
 613              	.LCFI43:
 614              	 .cfi_def_cfa_register 13
 615              	 
 616 0060 5DF8047B 	 ldr r7,[sp],#4
 617              	.LCFI44:
 618              	 .cfi_restore 7
 619              	 .cfi_def_cfa_offset 0
 620 0064 7047     	 bx lr
 621              	 .cfi_endproc
 622              	.LFE7:
 624 0066 00BF     	 .section .text.optiga_cmd_queue_get_count_of,"ax",%progbits
 625              	 .align 2
 626              	 .thumb
 627              	 .thumb_func
 629              	optiga_cmd_queue_get_count_of:
 630              	.LFB8:
 558:C:/Users/Yushev/git/wpcqi-optiga-trust-charge/optiga/optiga/cmd\optiga_cmd.c **** 
 559:C:/Users/Yushev/git/wpcqi-optiga-trust-charge/optiga/optiga/cmd\optiga_cmd.c **** /*
 560:C:/Users/Yushev/git/wpcqi-optiga-trust-charge/optiga/optiga/cmd\optiga_cmd.c **** * Returns the count of number of slots with requested state
 561:C:/Users/Yushev/git/wpcqi-optiga-trust-charge/optiga/optiga/cmd\optiga_cmd.c **** */
 562:C:/Users/Yushev/git/wpcqi-optiga-trust-charge/optiga/optiga/cmd\optiga_cmd.c **** _STATIC_H  uint8_t optiga_cmd_queue_get_count_of(const optiga_context_t * p_optiga,
 563:C:/Users/Yushev/git/wpcqi-optiga-trust-charge/optiga/optiga/cmd\optiga_cmd.c ****                                                  uint8_t slot_member,
 564:C:/Users/Yushev/git/wpcqi-optiga-trust-charge/optiga/optiga/cmd\optiga_cmd.c ****                                                  uint8_t state_to_check)
 565:C:/Users/Yushev/git/wpcqi-optiga-trust-charge/optiga/optiga/cmd\optiga_cmd.c **** {
 631              	 .loc 1 565 0
 632              	 .cfi_startproc
 633              	 
 634              	 
 635              	 
 636 0000 80B4     	 push {r7}
 637              	.LCFI45:
 638              	 .cfi_def_cfa_offset 4
 639              	 .cfi_offset 7,-4
 640 0002 85B0     	 sub sp,sp,#20
 641              	.LCFI46:
 642              	 .cfi_def_cfa_offset 24
 643 0004 00AF     	 add r7,sp,#0
 644              	.LCFI47:
 645              	 .cfi_def_cfa_register 7
 646 0006 7860     	 str r0,[r7,#4]
 647 0008 0B46     	 mov r3,r1
 648 000a FB70     	 strb r3,[r7,#3]
 649 000c 1346     	 mov r3,r2
 650 000e BB70     	 strb r3,[r7,#2]
 566:C:/Users/Yushev/git/wpcqi-optiga-trust-charge/optiga/optiga/cmd\optiga_cmd.c ****     uint8_t index;
 567:C:/Users/Yushev/git/wpcqi-optiga-trust-charge/optiga/optiga/cmd\optiga_cmd.c ****     uint8_t count = 0;
 651              	 .loc 1 567 0
 652 0010 0023     	 movs r3,#0
 653 0012 BB73     	 strb r3,[r7,#14]
 568:C:/Users/Yushev/git/wpcqi-optiga-trust-charge/optiga/optiga/cmd\optiga_cmd.c ****     uint8_t slot_value = 0;
 654              	 .loc 1 568 0
 655 0014 0023     	 movs r3,#0
 656 0016 7B73     	 strb r3,[r7,#13]
 569:C:/Users/Yushev/git/wpcqi-optiga-trust-charge/optiga/optiga/cmd\optiga_cmd.c ****     for (index = 0; index < OPTIGA_CMD_MAX_REGISTRATIONS ; index++)
 657              	 .loc 1 569 0
 658 0018 0023     	 movs r3,#0
 659 001a FB73     	 strb r3,[r7,#15]
 660 001c 27E0     	 b .L25
 661              	.L31:
 570:C:/Users/Yushev/git/wpcqi-optiga-trust-charge/optiga/optiga/cmd\optiga_cmd.c ****     {
 571:C:/Users/Yushev/git/wpcqi-optiga-trust-charge/optiga/optiga/cmd\optiga_cmd.c ****         switch (slot_member)
 662              	 .loc 1 571 0
 663 001e FB78     	 ldrb r3,[r7,#3]
 664 0020 082B     	 cmp r3,#8
 665 0022 02D0     	 beq .L27
 666 0024 092B     	 cmp r3,#9
 667 0026 0CD0     	 beq .L28
 572:C:/Users/Yushev/git/wpcqi-optiga-trust-charge/optiga/optiga/cmd\optiga_cmd.c ****         {
 573:C:/Users/Yushev/git/wpcqi-optiga-trust-charge/optiga/optiga/cmd\optiga_cmd.c ****             case OPTIGA_CMD_QUEUE_SLOT_LOCK_TYPE:
 574:C:/Users/Yushev/git/wpcqi-optiga-trust-charge/optiga/optiga/cmd\optiga_cmd.c ****             {
 575:C:/Users/Yushev/git/wpcqi-optiga-trust-charge/optiga/optiga/cmd\optiga_cmd.c ****                 slot_value = p_optiga->optiga_cmd_execution_queue[index].request_type;
 576:C:/Users/Yushev/git/wpcqi-optiga-trust-charge/optiga/optiga/cmd\optiga_cmd.c ****             }
 577:C:/Users/Yushev/git/wpcqi-optiga-trust-charge/optiga/optiga/cmd\optiga_cmd.c ****             break;
 578:C:/Users/Yushev/git/wpcqi-optiga-trust-charge/optiga/optiga/cmd\optiga_cmd.c ****             case OPTIGA_CMD_QUEUE_SLOT_STATE:
 579:C:/Users/Yushev/git/wpcqi-optiga-trust-charge/optiga/optiga/cmd\optiga_cmd.c ****             {
 580:C:/Users/Yushev/git/wpcqi-optiga-trust-charge/optiga/optiga/cmd\optiga_cmd.c ****                 slot_value = p_optiga->optiga_cmd_execution_queue[index].state_of_entry;
 581:C:/Users/Yushev/git/wpcqi-optiga-trust-charge/optiga/optiga/cmd\optiga_cmd.c ****             }
 582:C:/Users/Yushev/git/wpcqi-optiga-trust-charge/optiga/optiga/cmd\optiga_cmd.c ****             break;
 583:C:/Users/Yushev/git/wpcqi-optiga-trust-charge/optiga/optiga/cmd\optiga_cmd.c ****             default:
 584:C:/Users/Yushev/git/wpcqi-optiga-trust-charge/optiga/optiga/cmd\optiga_cmd.c ****                 break;
 668              	 .loc 1 584 0
 669 0028 17E0     	 b .L29
 670              	.L27:
 575:C:/Users/Yushev/git/wpcqi-optiga-trust-charge/optiga/optiga/cmd\optiga_cmd.c ****             }
 671              	 .loc 1 575 0
 672 002a FA7B     	 ldrb r2,[r7,#15]
 673 002c 7968     	 ldr r1,[r7,#4]
 674 002e 1346     	 mov r3,r2
 675 0030 5B00     	 lsls r3,r3,#1
 676 0032 1344     	 add r3,r3,r2
 677 0034 9B00     	 lsls r3,r3,#2
 678 0036 0B44     	 add r3,r3,r1
 679 0038 03F5C563 	 add r3,r3,#1576
 680 003c 1B79     	 ldrb r3,[r3,#4]
 681 003e 7B73     	 strb r3,[r7,#13]
 577:C:/Users/Yushev/git/wpcqi-optiga-trust-charge/optiga/optiga/cmd\optiga_cmd.c ****             case OPTIGA_CMD_QUEUE_SLOT_STATE:
 682              	 .loc 1 577 0
 683 0040 0BE0     	 b .L29
 684              	.L28:
 580:C:/Users/Yushev/git/wpcqi-optiga-trust-charge/optiga/optiga/cmd\optiga_cmd.c ****             }
 685              	 .loc 1 580 0
 686 0042 FA7B     	 ldrb r2,[r7,#15]
 687 0044 7968     	 ldr r1,[r7,#4]
 688 0046 1346     	 mov r3,r2
 689 0048 5B00     	 lsls r3,r3,#1
 690 004a 1344     	 add r3,r3,r2
 691 004c 9B00     	 lsls r3,r3,#2
 692 004e 0B44     	 add r3,r3,r1
 693 0050 03F5C563 	 add r3,r3,#1576
 694 0054 5B79     	 ldrb r3,[r3,#5]
 695 0056 7B73     	 strb r3,[r7,#13]
 582:C:/Users/Yushev/git/wpcqi-optiga-trust-charge/optiga/optiga/cmd\optiga_cmd.c ****             default:
 696              	 .loc 1 582 0
 697 0058 00BF     	 nop
 698              	.L29:
 585:C:/Users/Yushev/git/wpcqi-optiga-trust-charge/optiga/optiga/cmd\optiga_cmd.c ****         }
 586:C:/Users/Yushev/git/wpcqi-optiga-trust-charge/optiga/optiga/cmd\optiga_cmd.c ****         if (state_to_check == slot_value)
 699              	 .loc 1 586 0
 700 005a BA78     	 ldrb r2,[r7,#2]
 701 005c 7B7B     	 ldrb r3,[r7,#13]
 702 005e 9A42     	 cmp r2,r3
 703 0060 02D1     	 bne .L30
 587:C:/Users/Yushev/git/wpcqi-optiga-trust-charge/optiga/optiga/cmd\optiga_cmd.c ****         {
 588:C:/Users/Yushev/git/wpcqi-optiga-trust-charge/optiga/optiga/cmd\optiga_cmd.c ****             count++;
 704              	 .loc 1 588 0
 705 0062 BB7B     	 ldrb r3,[r7,#14]
 706 0064 0133     	 adds r3,r3,#1
 707 0066 BB73     	 strb r3,[r7,#14]
 708              	.L30:
 569:C:/Users/Yushev/git/wpcqi-optiga-trust-charge/optiga/optiga/cmd\optiga_cmd.c ****     {
 709              	 .loc 1 569 0 discriminator 2
 710 0068 FB7B     	 ldrb r3,[r7,#15]
 711 006a 0133     	 adds r3,r3,#1
 712 006c FB73     	 strb r3,[r7,#15]
 713              	.L25:
 569:C:/Users/Yushev/git/wpcqi-optiga-trust-charge/optiga/optiga/cmd\optiga_cmd.c ****     {
 714              	 .loc 1 569 0 is_stmt 0 discriminator 1
 715 006e FB7B     	 ldrb r3,[r7,#15]
 716 0070 052B     	 cmp r3,#5
 717 0072 D4D9     	 bls .L31
 589:C:/Users/Yushev/git/wpcqi-optiga-trust-charge/optiga/optiga/cmd\optiga_cmd.c ****         }
 590:C:/Users/Yushev/git/wpcqi-optiga-trust-charge/optiga/optiga/cmd\optiga_cmd.c ****     }
 591:C:/Users/Yushev/git/wpcqi-optiga-trust-charge/optiga/optiga/cmd\optiga_cmd.c ****     return (count);
 718              	 .loc 1 591 0 is_stmt 1
 719 0074 BB7B     	 ldrb r3,[r7,#14]
 592:C:/Users/Yushev/git/wpcqi-optiga-trust-charge/optiga/optiga/cmd\optiga_cmd.c **** }
 720              	 .loc 1 592 0
 721 0076 1846     	 mov r0,r3
 722 0078 1437     	 adds r7,r7,#20
 723              	.LCFI48:
 724              	 .cfi_def_cfa_offset 4
 725 007a BD46     	 mov sp,r7
 726              	.LCFI49:
 727              	 .cfi_def_cfa_register 13
 728              	 
 729 007c 5DF8047B 	 ldr r7,[sp],#4
 730              	.LCFI50:
 731              	 .cfi_restore 7
 732              	 .cfi_def_cfa_offset 0
 733 0080 7047     	 bx lr
 734              	 .cfi_endproc
 735              	.LFE8:
 737 0082 00BF     	 .section .text.optiga_cmd_queue_assign_slot,"ax",%progbits
 738              	 .align 2
 739              	 .thumb
 740              	 .thumb_func
 742              	optiga_cmd_queue_assign_slot:
 743              	.LFB9:
 593:C:/Users/Yushev/git/wpcqi-optiga-trust-charge/optiga/optiga/cmd\optiga_cmd.c **** 
 594:C:/Users/Yushev/git/wpcqi-optiga-trust-charge/optiga/optiga/cmd\optiga_cmd.c **** /*
 595:C:/Users/Yushev/git/wpcqi-optiga-trust-charge/optiga/optiga/cmd\optiga_cmd.c **** * Assigns an available slot to a optiga cmd instance and marks the slot as not available for anothe
 596:C:/Users/Yushev/git/wpcqi-optiga-trust-charge/optiga/optiga/cmd\optiga_cmd.c **** */
 597:C:/Users/Yushev/git/wpcqi-optiga-trust-charge/optiga/optiga/cmd\optiga_cmd.c **** _STATIC_H void optiga_cmd_queue_assign_slot(const optiga_cmd_t * me, uint8_t * queue_index_store)
 598:C:/Users/Yushev/git/wpcqi-optiga-trust-charge/optiga/optiga/cmd\optiga_cmd.c **** {
 744              	 .loc 1 598 0
 745              	 .cfi_startproc
 746              	 
 747              	 
 748              	 
 749 0000 80B4     	 push {r7}
 750              	.LCFI51:
 751              	 .cfi_def_cfa_offset 4
 752              	 .cfi_offset 7,-4
 753 0002 85B0     	 sub sp,sp,#20
 754              	.LCFI52:
 755              	 .cfi_def_cfa_offset 24
 756 0004 00AF     	 add r7,sp,#0
 757              	.LCFI53:
 758              	 .cfi_def_cfa_register 7
 759 0006 7860     	 str r0,[r7,#4]
 760 0008 3960     	 str r1,[r7]
 599:C:/Users/Yushev/git/wpcqi-optiga-trust-charge/optiga/optiga/cmd\optiga_cmd.c ****     uint8_t index;
 600:C:/Users/Yushev/git/wpcqi-optiga-trust-charge/optiga/optiga/cmd\optiga_cmd.c ****     for (index = 0; index < OPTIGA_CMD_MAX_REGISTRATIONS ; index++)
 761              	 .loc 1 600 0
 762 000a 0023     	 movs r3,#0
 763 000c FB73     	 strb r3,[r7,#15]
 764 000e 1FE0     	 b .L34
 765              	.L37:
 601:C:/Users/Yushev/git/wpcqi-optiga-trust-charge/optiga/optiga/cmd\optiga_cmd.c ****     {
 602:C:/Users/Yushev/git/wpcqi-optiga-trust-charge/optiga/optiga/cmd\optiga_cmd.c ****         if (OPTIGA_CMD_QUEUE_NOT_ASSIGNED == me->p_optiga->optiga_cmd_execution_queue[index].state_
 766              	 .loc 1 602 0
 767 0010 7B68     	 ldr r3,[r7,#4]
 768 0012 1968     	 ldr r1,[r3]
 769 0014 FA7B     	 ldrb r2,[r7,#15]
 770 0016 1346     	 mov r3,r2
 771 0018 5B00     	 lsls r3,r3,#1
 772 001a 1344     	 add r3,r3,r2
 773 001c 9B00     	 lsls r3,r3,#2
 774 001e 0B44     	 add r3,r3,r1
 775 0020 03F5C563 	 add r3,r3,#1576
 776 0024 5B79     	 ldrb r3,[r3,#5]
 777 0026 002B     	 cmp r3,#0
 778 0028 0FD1     	 bne .L35
 603:C:/Users/Yushev/git/wpcqi-optiga-trust-charge/optiga/optiga/cmd\optiga_cmd.c ****         {
 604:C:/Users/Yushev/git/wpcqi-optiga-trust-charge/optiga/optiga/cmd\optiga_cmd.c ****             * queue_index_store =  index;
 779              	 .loc 1 604 0
 780 002a 3B68     	 ldr r3,[r7]
 781 002c FA7B     	 ldrb r2,[r7,#15]
 782 002e 1A70     	 strb r2,[r3]
 605:C:/Users/Yushev/git/wpcqi-optiga-trust-charge/optiga/optiga/cmd\optiga_cmd.c ****             me->p_optiga->optiga_cmd_execution_queue[index].state_of_entry = OPTIGA_CMD_QUEUE_ASSIG
 783              	 .loc 1 605 0
 784 0030 7B68     	 ldr r3,[r7,#4]
 785 0032 1968     	 ldr r1,[r3]
 786 0034 FA7B     	 ldrb r2,[r7,#15]
 787 0036 1346     	 mov r3,r2
 788 0038 5B00     	 lsls r3,r3,#1
 789 003a 1344     	 add r3,r3,r2
 790 003c 9B00     	 lsls r3,r3,#2
 791 003e 0B44     	 add r3,r3,r1
 792 0040 03F5C563 	 add r3,r3,#1576
 793 0044 0122     	 movs r2,#1
 794 0046 5A71     	 strb r2,[r3,#5]
 606:C:/Users/Yushev/git/wpcqi-optiga-trust-charge/optiga/optiga/cmd\optiga_cmd.c ****            break;
 795              	 .loc 1 606 0
 796 0048 05E0     	 b .L33
 797              	.L35:
 600:C:/Users/Yushev/git/wpcqi-optiga-trust-charge/optiga/optiga/cmd\optiga_cmd.c ****     {
 798              	 .loc 1 600 0 discriminator 2
 799 004a FB7B     	 ldrb r3,[r7,#15]
 800 004c 0133     	 adds r3,r3,#1
 801 004e FB73     	 strb r3,[r7,#15]
 802              	.L34:
 600:C:/Users/Yushev/git/wpcqi-optiga-trust-charge/optiga/optiga/cmd\optiga_cmd.c ****     {
 803              	 .loc 1 600 0 is_stmt 0 discriminator 1
 804 0050 FB7B     	 ldrb r3,[r7,#15]
 805 0052 052B     	 cmp r3,#5
 806 0054 DCD9     	 bls .L37
 807              	.L33:
 607:C:/Users/Yushev/git/wpcqi-optiga-trust-charge/optiga/optiga/cmd\optiga_cmd.c ****         }
 608:C:/Users/Yushev/git/wpcqi-optiga-trust-charge/optiga/optiga/cmd\optiga_cmd.c ****     }
 609:C:/Users/Yushev/git/wpcqi-optiga-trust-charge/optiga/optiga/cmd\optiga_cmd.c **** }
 808              	 .loc 1 609 0 is_stmt 1
 809 0056 1437     	 adds r7,r7,#20
 810              	.LCFI54:
 811              	 .cfi_def_cfa_offset 4
 812 0058 BD46     	 mov sp,r7
 813              	.LCFI55:
 814              	 .cfi_def_cfa_register 13
 815              	 
 816 005a 5DF8047B 	 ldr r7,[sp],#4
 817              	.LCFI56:
 818              	 .cfi_restore 7
 819              	 .cfi_def_cfa_offset 0
 820 005e 7047     	 bx lr
 821              	 .cfi_endproc
 822              	.LFE9:
 824              	 .section .text.optiga_cmd_queue_deassign_slot,"ax",%progbits
 825              	 .align 2
 826              	 .thumb
 827              	 .thumb_func
 829              	optiga_cmd_queue_deassign_slot:
 830              	.LFB10:
 610:C:/Users/Yushev/git/wpcqi-optiga-trust-charge/optiga/optiga/cmd\optiga_cmd.c **** 
 611:C:/Users/Yushev/git/wpcqi-optiga-trust-charge/optiga/optiga/cmd\optiga_cmd.c **** /*
 612:C:/Users/Yushev/git/wpcqi-optiga-trust-charge/optiga/optiga/cmd\optiga_cmd.c **** * De-assigns a slot from a optiga cmd instance and makes the slot available for next optiga cmd ins
 613:C:/Users/Yushev/git/wpcqi-optiga-trust-charge/optiga/optiga/cmd\optiga_cmd.c **** */
 614:C:/Users/Yushev/git/wpcqi-optiga-trust-charge/optiga/optiga/cmd\optiga_cmd.c **** _STATIC_H void optiga_cmd_queue_deassign_slot(optiga_cmd_t * me)
 615:C:/Users/Yushev/git/wpcqi-optiga-trust-charge/optiga/optiga/cmd\optiga_cmd.c **** {
 831              	 .loc 1 615 0
 832              	 .cfi_startproc
 833              	 
 834              	 
 835              	 
 836 0000 80B4     	 push {r7}
 837              	.LCFI57:
 838              	 .cfi_def_cfa_offset 4
 839              	 .cfi_offset 7,-4
 840 0002 83B0     	 sub sp,sp,#12
 841              	.LCFI58:
 842              	 .cfi_def_cfa_offset 16
 843 0004 00AF     	 add r7,sp,#0
 844              	.LCFI59:
 845              	 .cfi_def_cfa_register 7
 846 0006 7860     	 str r0,[r7,#4]
 616:C:/Users/Yushev/git/wpcqi-optiga-trust-charge/optiga/optiga/cmd\optiga_cmd.c ****     me->p_optiga->optiga_cmd_execution_queue[me->queue_id].state_of_entry = OPTIGA_CMD_QUEUE_NOT_AS
 847              	 .loc 1 616 0
 848 0008 7B68     	 ldr r3,[r7,#4]
 849 000a 1A68     	 ldr r2,[r3]
 850 000c 7B68     	 ldr r3,[r7,#4]
 851 000e DB7E     	 ldrb r3,[r3,#27]
 852 0010 1946     	 mov r1,r3
 853 0012 0B46     	 mov r3,r1
 854 0014 5B00     	 lsls r3,r3,#1
 855 0016 0B44     	 add r3,r3,r1
 856 0018 9B00     	 lsls r3,r3,#2
 857 001a 1344     	 add r3,r3,r2
 858 001c 03F5C563 	 add r3,r3,#1576
 859 0020 0022     	 movs r2,#0
 860 0022 5A71     	 strb r2,[r3,#5]
 617:C:/Users/Yushev/git/wpcqi-optiga-trust-charge/optiga/optiga/cmd\optiga_cmd.c ****     me->p_optiga->optiga_cmd_execution_queue[me->queue_id].request_type = OPTIGA_CMD_QUEUE_NO_REQUE
 861              	 .loc 1 617 0
 862 0024 7B68     	 ldr r3,[r7,#4]
 863 0026 1A68     	 ldr r2,[r3]
 864 0028 7B68     	 ldr r3,[r7,#4]
 865 002a DB7E     	 ldrb r3,[r3,#27]
 866 002c 1946     	 mov r1,r3
 867 002e 0B46     	 mov r3,r1
 868 0030 5B00     	 lsls r3,r3,#1
 869 0032 0B44     	 add r3,r3,r1
 870 0034 9B00     	 lsls r3,r3,#2
 871 0036 1344     	 add r3,r3,r2
 872 0038 03F5C563 	 add r3,r3,#1576
 873 003c 0022     	 movs r2,#0
 874 003e 1A71     	 strb r2,[r3,#4]
 618:C:/Users/Yushev/git/wpcqi-optiga-trust-charge/optiga/optiga/cmd\optiga_cmd.c ****     me->queue_id = 0;
 875              	 .loc 1 618 0
 876 0040 7B68     	 ldr r3,[r7,#4]
 877 0042 0022     	 movs r2,#0
 878 0044 DA76     	 strb r2,[r3,#27]
 619:C:/Users/Yushev/git/wpcqi-optiga-trust-charge/optiga/optiga/cmd\optiga_cmd.c **** }
 879              	 .loc 1 619 0
 880 0046 0C37     	 adds r7,r7,#12
 881              	.LCFI60:
 882              	 .cfi_def_cfa_offset 4
 883 0048 BD46     	 mov sp,r7
 884              	.LCFI61:
 885              	 .cfi_def_cfa_register 13
 886              	 
 887 004a 5DF8047B 	 ldr r7,[sp],#4
 888              	.LCFI62:
 889              	 .cfi_restore 7
 890              	 .cfi_def_cfa_offset 0
 891 004e 7047     	 bx lr
 892              	 .cfi_endproc
 893              	.LFE10:
 895              	 .section .text.optiga_cmd_queue_scheduler,"ax",%progbits
 896              	 .align 2
 897              	 .thumb
 898              	 .thumb_func
 900              	optiga_cmd_queue_scheduler:
 901              	.LFB11:
 620:C:/Users/Yushev/git/wpcqi-optiga-trust-charge/optiga/optiga/cmd\optiga_cmd.c **** 
 621:C:/Users/Yushev/git/wpcqi-optiga-trust-charge/optiga/optiga/cmd\optiga_cmd.c **** /*
 622:C:/Users/Yushev/git/wpcqi-optiga-trust-charge/optiga/optiga/cmd\optiga_cmd.c **** * Select next optiga cmd instance from the execution queue based on a rule
 623:C:/Users/Yushev/git/wpcqi-optiga-trust-charge/optiga/optiga/cmd\optiga_cmd.c **** * 1. A slot with OPTIGA_CMD_QUEUE_RESUME state should exist
 624:C:/Users/Yushev/git/wpcqi-optiga-trust-charge/optiga/optiga/cmd\optiga_cmd.c **** * 2. Pick the slot which has acquired the strict slot
 625:C:/Users/Yushev/git/wpcqi-optiga-trust-charge/optiga/optiga/cmd\optiga_cmd.c **** * 3. If no slot with OPTIGA_CMD_QUEUE_RESUME exists, slot must be in OPTIGA_CMD_QUEUE_REQUEST state
 626:C:/Users/Yushev/git/wpcqi-optiga-trust-charge/optiga/optiga/cmd\optiga_cmd.c **** * 4. The arrival time must be the earliest provided
 627:C:/Users/Yushev/git/wpcqi-optiga-trust-charge/optiga/optiga/cmd\optiga_cmd.c **** *     a. The request type is lock
 628:C:/Users/Yushev/git/wpcqi-optiga-trust-charge/optiga/optiga/cmd\optiga_cmd.c **** *     b. If request type is session, either session is already assigned or atleast session is avail
 629:C:/Users/Yushev/git/wpcqi-optiga-trust-charge/optiga/optiga/cmd\optiga_cmd.c **** */
 630:C:/Users/Yushev/git/wpcqi-optiga-trust-charge/optiga/optiga/cmd\optiga_cmd.c **** _STATIC_H void optiga_cmd_queue_scheduler(void * p_optiga)
 631:C:/Users/Yushev/git/wpcqi-optiga-trust-charge/optiga/optiga/cmd\optiga_cmd.c **** {
 902              	 .loc 1 631 0
 903              	 .cfi_startproc
 904              	 
 905              	 
 906 0000 80B5     	 push {r7,lr}
 907              	.LCFI63:
 908              	 .cfi_def_cfa_offset 8
 909              	 .cfi_offset 7,-8
 910              	 .cfi_offset 14,-4
 911 0002 88B0     	 sub sp,sp,#32
 912              	.LCFI64:
 913              	 .cfi_def_cfa_offset 40
 914 0004 00AF     	 add r7,sp,#0
 915              	.LCFI65:
 916              	 .cfi_def_cfa_register 7
 917 0006 7860     	 str r0,[r7,#4]
 632:C:/Users/Yushev/git/wpcqi-optiga-trust-charge/optiga/optiga/cmd\optiga_cmd.c ****     uint32_t reference_time_stamp = 0xFFFFFFFF;
 918              	 .loc 1 632 0
 919 0008 4FF0FF33 	 mov r3,#-1
 920 000c FB61     	 str r3,[r7,#28]
 633:C:/Users/Yushev/git/wpcqi-optiga-trust-charge/optiga/optiga/cmd\optiga_cmd.c ****     optiga_cmd_queue_slot_t * p_queue_entry;
 634:C:/Users/Yushev/git/wpcqi-optiga-trust-charge/optiga/optiga/cmd\optiga_cmd.c ****     uint8_t index;
 635:C:/Users/Yushev/git/wpcqi-optiga-trust-charge/optiga/optiga/cmd\optiga_cmd.c ****     uint8_t prefered_index = 0xFF;
 921              	 .loc 1 635 0
 922 000e FF23     	 movs r3,#255
 923 0010 BB76     	 strb r3,[r7,#26]
 636:C:/Users/Yushev/git/wpcqi-optiga-trust-charge/optiga/optiga/cmd\optiga_cmd.c ****     uint8_t overflow_detected = FALSE;
 924              	 .loc 1 636 0
 925 0012 0023     	 movs r3,#0
 926 0014 7B76     	 strb r3,[r7,#25]
 637:C:/Users/Yushev/git/wpcqi-optiga-trust-charge/optiga/optiga/cmd\optiga_cmd.c **** 
 638:C:/Users/Yushev/git/wpcqi-optiga-trust-charge/optiga/optiga/cmd\optiga_cmd.c ****     optiga_context_t * p_optiga_ctx = (optiga_context_t * )p_optiga;
 927              	 .loc 1 638 0
 928 0016 7B68     	 ldr r3,[r7,#4]
 929 0018 7B61     	 str r3,[r7,#20]
 639:C:/Users/Yushev/git/wpcqi-optiga-trust-charge/optiga/optiga/cmd\optiga_cmd.c **** 
 640:C:/Users/Yushev/git/wpcqi-optiga-trust-charge/optiga/optiga/cmd\optiga_cmd.c ****     pal_os_event_t * my_os_event = p_optiga_ctx->p_pal_os_event_ctx;
 930              	 .loc 1 640 0
 931 001a 7B69     	 ldr r3,[r7,#20]
 932 001c D3F86C36 	 ldr r3,[r3,#1644]
 933 0020 3B61     	 str r3,[r7,#16]
 641:C:/Users/Yushev/git/wpcqi-optiga-trust-charge/optiga/optiga/cmd\optiga_cmd.c **** 
 642:C:/Users/Yushev/git/wpcqi-optiga-trust-charge/optiga/optiga/cmd\optiga_cmd.c **** 
 643:C:/Users/Yushev/git/wpcqi-optiga-trust-charge/optiga/optiga/cmd\optiga_cmd.c ****     if (((0 == optiga_cmd_queue_get_count_of(p_optiga_ctx, OPTIGA_CMD_QUEUE_SLOT_STATE, OPTIGA_CMD_
 934              	 .loc 1 643 0
 935 0022 7869     	 ldr r0,[r7,#20]
 936 0024 0921     	 movs r1,#9
 937 0026 0222     	 movs r2,#2
 938 0028 FFF7FEFF 	 bl optiga_cmd_queue_get_count_of
 939 002c 0346     	 mov r3,r0
 940 002e 002B     	 cmp r3,#0
 941 0030 07D1     	 bne .L40
 644:C:/Users/Yushev/git/wpcqi-optiga-trust-charge/optiga/optiga/cmd\optiga_cmd.c ****          (0 == optiga_cmd_queue_get_count_of(p_optiga_ctx, OPTIGA_CMD_QUEUE_SLOT_STATE, OPTIGA_CMD_
 942              	 .loc 1 644 0 discriminator 1
 943 0032 7869     	 ldr r0,[r7,#20]
 944 0034 0921     	 movs r1,#9
 945 0036 0822     	 movs r2,#8
 946 0038 FFF7FEFF 	 bl optiga_cmd_queue_get_count_of
 947 003c 0346     	 mov r3,r0
 643:C:/Users/Yushev/git/wpcqi-optiga-trust-charge/optiga/optiga/cmd\optiga_cmd.c ****          (0 == optiga_cmd_queue_get_count_of(p_optiga_ctx, OPTIGA_CMD_QUEUE_SLOT_STATE, OPTIGA_CMD_
 948              	 .loc 1 643 0 discriminator 1
 949 003e 002B     	 cmp r3,#0
 950 0040 0FD0     	 beq .L41
 951              	.L40:
 645:C:/Users/Yushev/git/wpcqi-optiga-trust-charge/optiga/optiga/cmd\optiga_cmd.c ****          ((1 == optiga_cmd_queue_get_count_of(p_optiga_ctx, OPTIGA_CMD_QUEUE_SLOT_STATE , OPTIGA_CM
 952              	 .loc 1 645 0
 953 0042 7869     	 ldr r0,[r7,#20]
 954 0044 0921     	 movs r1,#9
 955 0046 0422     	 movs r2,#4
 956 0048 FFF7FEFF 	 bl optiga_cmd_queue_get_count_of
 957 004c 0346     	 mov r3,r0
 644:C:/Users/Yushev/git/wpcqi-optiga-trust-charge/optiga/optiga/cmd\optiga_cmd.c ****          (0 == optiga_cmd_queue_get_count_of(p_optiga_ctx, OPTIGA_CMD_QUEUE_SLOT_STATE, OPTIGA_CMD_
 958              	 .loc 1 644 0
 959 004e 012B     	 cmp r3,#1
 960 0050 0FD1     	 bne .L42
 646:C:/Users/Yushev/git/wpcqi-optiga-trust-charge/optiga/optiga/cmd\optiga_cmd.c ****          (0 < optiga_cmd_queue_get_count_of(p_optiga_ctx, OPTIGA_CMD_QUEUE_SLOT_LOCK_TYPE, OPTIGA_C
 961              	 .loc 1 646 0
 962 0052 7869     	 ldr r0,[r7,#20]
 963 0054 0821     	 movs r1,#8
 964 0056 2322     	 movs r2,#35
 965 0058 FFF7FEFF 	 bl optiga_cmd_queue_get_count_of
 966 005c 0346     	 mov r3,r0
 645:C:/Users/Yushev/git/wpcqi-optiga-trust-charge/optiga/optiga/cmd\optiga_cmd.c ****          ((1 == optiga_cmd_queue_get_count_of(p_optiga_ctx, OPTIGA_CMD_QUEUE_SLOT_STATE , OPTIGA_CM
 967              	 .loc 1 645 0
 968 005e 002B     	 cmp r3,#0
 969 0060 07D0     	 beq .L42
 970              	.L41:
 647:C:/Users/Yushev/git/wpcqi-optiga-trust-charge/optiga/optiga/cmd\optiga_cmd.c ****     {
 648:C:/Users/Yushev/git/wpcqi-optiga-trust-charge/optiga/optiga/cmd\optiga_cmd.c ****         // call self
 649:C:/Users/Yushev/git/wpcqi-optiga-trust-charge/optiga/optiga/cmd\optiga_cmd.c ****         pal_os_event_register_callback_oneshot(my_os_event, optiga_cmd_queue_scheduler,
 971              	 .loc 1 649 0
 972 0062 3869     	 ldr r0,[r7,#16]
 973 0064 6F49     	 ldr r1,.L58
 974 0066 7A69     	 ldr r2,[r7,#20]
 975 0068 4FF47A73 	 mov r3,#1000
 976 006c FFF7FEFF 	 bl pal_os_event_register_callback_oneshot
 977 0070 D5E0     	 b .L39
 978              	.L42:
 650:C:/Users/Yushev/git/wpcqi-optiga-trust-charge/optiga/optiga/cmd\optiga_cmd.c ****                                                p_optiga_ctx,OPTIGA_CMD_SCHEDULER_IDLING_TIME_MS);
 651:C:/Users/Yushev/git/wpcqi-optiga-trust-charge/optiga/optiga/cmd\optiga_cmd.c ****     }
 652:C:/Users/Yushev/git/wpcqi-optiga-trust-charge/optiga/optiga/cmd\optiga_cmd.c ****     else
 653:C:/Users/Yushev/git/wpcqi-optiga-trust-charge/optiga/optiga/cmd\optiga_cmd.c ****     {
 654:C:/Users/Yushev/git/wpcqi-optiga-trust-charge/optiga/optiga/cmd\optiga_cmd.c ****         pal_os_event_stop(my_os_event);
 979              	 .loc 1 654 0
 980 0072 3869     	 ldr r0,[r7,#16]
 981 0074 FFF7FEFF 	 bl pal_os_event_stop
 982              	.L55:
 655:C:/Users/Yushev/git/wpcqi-optiga-trust-charge/optiga/optiga/cmd\optiga_cmd.c ****         // continue checking if no context selected and overflow detected
 656:C:/Users/Yushev/git/wpcqi-optiga-trust-charge/optiga/optiga/cmd\optiga_cmd.c ****         do
 657:C:/Users/Yushev/git/wpcqi-optiga-trust-charge/optiga/optiga/cmd\optiga_cmd.c ****         {
 658:C:/Users/Yushev/git/wpcqi-optiga-trust-charge/optiga/optiga/cmd\optiga_cmd.c ****             //reset overflow detected flag and the last_time stamp
 659:C:/Users/Yushev/git/wpcqi-optiga-trust-charge/optiga/optiga/cmd\optiga_cmd.c ****             if(overflow_detected == TRUE)
 983              	 .loc 1 659 0
 984 0078 7B7E     	 ldrb r3,[r7,#25]
 985 007a 012B     	 cmp r3,#1
 986 007c 05D1     	 bne .L44
 660:C:/Users/Yushev/git/wpcqi-optiga-trust-charge/optiga/optiga/cmd\optiga_cmd.c ****             {
 661:C:/Users/Yushev/git/wpcqi-optiga-trust-charge/optiga/optiga/cmd\optiga_cmd.c ****                 p_optiga_ctx->last_time_stamp = 0;
 987              	 .loc 1 661 0
 988 007e 7B69     	 ldr r3,[r7,#20]
 989 0080 0022     	 movs r2,#0
 990 0082 C3F87026 	 str r2,[r3,#1648]
 662:C:/Users/Yushev/git/wpcqi-optiga-trust-charge/optiga/optiga/cmd\optiga_cmd.c ****                 overflow_detected = FALSE;
 991              	 .loc 1 662 0
 992 0086 0023     	 movs r3,#0
 993 0088 7B76     	 strb r3,[r7,#25]
 994              	.L44:
 663:C:/Users/Yushev/git/wpcqi-optiga-trust-charge/optiga/optiga/cmd\optiga_cmd.c ****             }
 664:C:/Users/Yushev/git/wpcqi-optiga-trust-charge/optiga/optiga/cmd\optiga_cmd.c **** 
 665:C:/Users/Yushev/git/wpcqi-optiga-trust-charge/optiga/optiga/cmd\optiga_cmd.c ****             // Select optiga command based on rule
 666:C:/Users/Yushev/git/wpcqi-optiga-trust-charge/optiga/optiga/cmd\optiga_cmd.c ****             for (index = 0; index < OPTIGA_CMD_MAX_REGISTRATIONS; index++)
 995              	 .loc 1 666 0
 996 008a 0023     	 movs r3,#0
 997 008c FB76     	 strb r3,[r7,#27]
 998 008e 5CE0     	 b .L45
 999              	.L53:
 667:C:/Users/Yushev/git/wpcqi-optiga-trust-charge/optiga/optiga/cmd\optiga_cmd.c ****             {
 668:C:/Users/Yushev/git/wpcqi-optiga-trust-charge/optiga/optiga/cmd\optiga_cmd.c ****                 p_queue_entry = &(p_optiga_ctx->optiga_cmd_execution_queue[index]);
 1000              	 .loc 1 668 0
 1001 0090 FA7E     	 ldrb r2,[r7,#27]
 1002 0092 1346     	 mov r3,r2
 1003 0094 5B00     	 lsls r3,r3,#1
 1004 0096 1344     	 add r3,r3,r2
 1005 0098 9B00     	 lsls r3,r3,#2
 1006 009a 03F5C463 	 add r3,r3,#1568
 1007 009e 7A69     	 ldr r2,[r7,#20]
 1008 00a0 1344     	 add r3,r3,r2
 1009 00a2 0433     	 adds r3,r3,#4
 1010 00a4 FB60     	 str r3,[r7,#12]
 669:C:/Users/Yushev/git/wpcqi-optiga-trust-charge/optiga/optiga/cmd\optiga_cmd.c **** 
 670:C:/Users/Yushev/git/wpcqi-optiga-trust-charge/optiga/optiga/cmd\optiga_cmd.c ****                 // if any slot has acquired strict lock, highest priority is given to it
 671:C:/Users/Yushev/git/wpcqi-optiga-trust-charge/optiga/optiga/cmd\optiga_cmd.c ****                 if (1 == optiga_cmd_queue_get_count_of(p_optiga_ctx, OPTIGA_CMD_QUEUE_SLOT_STATE , 
 1011              	 .loc 1 671 0
 1012 00a6 7869     	 ldr r0,[r7,#20]
 1013 00a8 0921     	 movs r1,#9
 1014 00aa 0822     	 movs r2,#8
 1015 00ac FFF7FEFF 	 bl optiga_cmd_queue_get_count_of
 1016 00b0 0346     	 mov r3,r0
 1017 00b2 012B     	 cmp r3,#1
 1018 00b4 0DD1     	 bne .L46
 672:C:/Users/Yushev/git/wpcqi-optiga-trust-charge/optiga/optiga/cmd\optiga_cmd.c ****                 {
 673:C:/Users/Yushev/git/wpcqi-optiga-trust-charge/optiga/optiga/cmd\optiga_cmd.c ****                     // Select the slot which has acquired strict lock
 674:C:/Users/Yushev/git/wpcqi-optiga-trust-charge/optiga/optiga/cmd\optiga_cmd.c ****                     if ((OPTIGA_CMD_QUEUE_RESUME == p_queue_entry->state_of_entry) &&
 1019              	 .loc 1 674 0
 1020 00b6 FB68     	 ldr r3,[r7,#12]
 1021 00b8 5B7A     	 ldrb r3,[r3,#9]
 1022 00ba 082B     	 cmp r3,#8
 1023 00bc 42D1     	 bne .L48
 675:C:/Users/Yushev/git/wpcqi-optiga-trust-charge/optiga/optiga/cmd\optiga_cmd.c ****                         (OPTIGA_CMD_QUEUE_REQUEST_STRICT_LOCK == p_queue_entry->request_type))
 1024              	 .loc 1 675 0 discriminator 1
 1025 00be FB68     	 ldr r3,[r7,#12]
 1026 00c0 1B7A     	 ldrb r3,[r3,#8]
 674:C:/Users/Yushev/git/wpcqi-optiga-trust-charge/optiga/optiga/cmd\optiga_cmd.c ****                         (OPTIGA_CMD_QUEUE_REQUEST_STRICT_LOCK == p_queue_entry->request_type))
 1027              	 .loc 1 674 0 discriminator 1
 1028 00c2 232B     	 cmp r3,#35
 1029 00c4 3ED1     	 bne .L48
 676:C:/Users/Yushev/git/wpcqi-optiga-trust-charge/optiga/optiga/cmd\optiga_cmd.c ****                     {
 677:C:/Users/Yushev/git/wpcqi-optiga-trust-charge/optiga/optiga/cmd\optiga_cmd.c ****                         reference_time_stamp = p_queue_entry->arrival_time;
 1030              	 .loc 1 677 0
 1031 00c6 FB68     	 ldr r3,[r7,#12]
 1032 00c8 5B68     	 ldr r3,[r3,#4]
 1033 00ca FB61     	 str r3,[r7,#28]
 678:C:/Users/Yushev/git/wpcqi-optiga-trust-charge/optiga/optiga/cmd\optiga_cmd.c ****                         prefered_index = index;
 1034              	 .loc 1 678 0
 1035 00cc FB7E     	 ldrb r3,[r7,#27]
 1036 00ce BB76     	 strb r3,[r7,#26]
 1037 00d0 38E0     	 b .L48
 1038              	.L46:
 679:C:/Users/Yushev/git/wpcqi-optiga-trust-charge/optiga/optiga/cmd\optiga_cmd.c ****                     }
 680:C:/Users/Yushev/git/wpcqi-optiga-trust-charge/optiga/optiga/cmd\optiga_cmd.c **** 
 681:C:/Users/Yushev/git/wpcqi-optiga-trust-charge/optiga/optiga/cmd\optiga_cmd.c ****                 }
 682:C:/Users/Yushev/git/wpcqi-optiga-trust-charge/optiga/optiga/cmd\optiga_cmd.c ****                 else
 683:C:/Users/Yushev/git/wpcqi-optiga-trust-charge/optiga/optiga/cmd\optiga_cmd.c ****                 {
 684:C:/Users/Yushev/git/wpcqi-optiga-trust-charge/optiga/optiga/cmd\optiga_cmd.c ****                     // pick only requested queue slot and earliest arrival time
 685:C:/Users/Yushev/git/wpcqi-optiga-trust-charge/optiga/optiga/cmd\optiga_cmd.c ****                     if (p_queue_entry->state_of_entry == OPTIGA_CMD_QUEUE_REQUEST)
 1039              	 .loc 1 685 0
 1040 00d2 FB68     	 ldr r3,[r7,#12]
 1041 00d4 5B7A     	 ldrb r3,[r3,#9]
 1042 00d6 022B     	 cmp r3,#2
 1043 00d8 34D1     	 bne .L48
 686:C:/Users/Yushev/git/wpcqi-optiga-trust-charge/optiga/optiga/cmd\optiga_cmd.c ****                     {
 687:C:/Users/Yushev/git/wpcqi-optiga-trust-charge/optiga/optiga/cmd\optiga_cmd.c ****                         // remember that overflow has occurred in one of the entry
 688:C:/Users/Yushev/git/wpcqi-optiga-trust-charge/optiga/optiga/cmd\optiga_cmd.c ****                         if (p_queue_entry->arrival_time < p_optiga_ctx->last_time_stamp)
 1044              	 .loc 1 688 0
 1045 00da FB68     	 ldr r3,[r7,#12]
 1046 00dc 5A68     	 ldr r2,[r3,#4]
 1047 00de 7B69     	 ldr r3,[r7,#20]
 1048 00e0 D3F87036 	 ldr r3,[r3,#1648]
 1049 00e4 9A42     	 cmp r2,r3
 1050 00e6 01D2     	 bcs .L49
 689:C:/Users/Yushev/git/wpcqi-optiga-trust-charge/optiga/optiga/cmd\optiga_cmd.c ****                         {
 690:C:/Users/Yushev/git/wpcqi-optiga-trust-charge/optiga/optiga/cmd\optiga_cmd.c ****                             overflow_detected = TRUE;
 1051              	 .loc 1 690 0
 1052 00e8 0123     	 movs r3,#1
 1053 00ea 7B76     	 strb r3,[r7,#25]
 1054              	.L49:
 691:C:/Users/Yushev/git/wpcqi-optiga-trust-charge/optiga/optiga/cmd\optiga_cmd.c ****                         }
 692:C:/Users/Yushev/git/wpcqi-optiga-trust-charge/optiga/optiga/cmd\optiga_cmd.c **** 
 693:C:/Users/Yushev/git/wpcqi-optiga-trust-charge/optiga/optiga/cmd\optiga_cmd.c ****                         // if lock request or session request and session available(either already 
 694:C:/Users/Yushev/git/wpcqi-optiga-trust-charge/optiga/optiga/cmd\optiga_cmd.c ****                         if (((p_queue_entry->arrival_time <= reference_time_stamp) && (p_queue_entr
 1055              	 .loc 1 694 0
 1056 00ec FB68     	 ldr r3,[r7,#12]
 1057 00ee 5A68     	 ldr r2,[r3,#4]
 1058 00f0 FB69     	 ldr r3,[r7,#28]
 1059 00f2 9A42     	 cmp r2,r3
 1060 00f4 26D8     	 bhi .L48
 1061              	 .loc 1 694 0 is_stmt 0 discriminator 1
 1062 00f6 FB68     	 ldr r3,[r7,#12]
 1063 00f8 5A68     	 ldr r2,[r3,#4]
 1064 00fa 7B69     	 ldr r3,[r7,#20]
 1065 00fc D3F87036 	 ldr r3,[r3,#1648]
 1066 0100 9A42     	 cmp r2,r3
 1067 0102 1FD3     	 bcc .L48
 695:C:/Users/Yushev/git/wpcqi-optiga-trust-charge/optiga/optiga/cmd\optiga_cmd.c ****                             (((OPTIGA_CMD_QUEUE_REQUEST_SESSION == p_queue_entry->request_type) && 
 1068              	 .loc 1 695 0 is_stmt 1 discriminator 2
 1069 0104 FB68     	 ldr r3,[r7,#12]
 1070 0106 1B7A     	 ldrb r3,[r3,#8]
 694:C:/Users/Yushev/git/wpcqi-optiga-trust-charge/optiga/optiga/cmd\optiga_cmd.c ****                             (((OPTIGA_CMD_QUEUE_REQUEST_SESSION == p_queue_entry->request_type) && 
 1071              	 .loc 1 694 0 discriminator 2
 1072 0108 222B     	 cmp r3,#34
 1073 010a 05D1     	 bne .L50
 1074              	 .loc 1 695 0
 1075 010c 7869     	 ldr r0,[r7,#20]
 1076 010e FFF7FEFF 	 bl optiga_cmd_session_available
 1077 0112 0346     	 mov r3,r0
 1078 0114 012B     	 cmp r3,#1
 1079 0116 10D0     	 beq .L51
 1080              	.L50:
 696:C:/Users/Yushev/git/wpcqi-optiga-trust-charge/optiga/optiga/cmd\optiga_cmd.c ****                             ((OPTIGA_CMD_QUEUE_REQUEST_SESSION == p_queue_entry->request_type) && (
 1081              	 .loc 1 696 0 discriminator 1
 1082 0118 FB68     	 ldr r3,[r7,#12]
 1083 011a 1B7A     	 ldrb r3,[r3,#8]
 695:C:/Users/Yushev/git/wpcqi-optiga-trust-charge/optiga/optiga/cmd\optiga_cmd.c ****                             (((OPTIGA_CMD_QUEUE_REQUEST_SESSION == p_queue_entry->request_type) && 
 1084              	 .loc 1 695 0 discriminator 1
 1085 011c 222B     	 cmp r3,#34
 1086 011e 04D1     	 bne .L52
 1087              	 .loc 1 696 0
 1088 0120 FB68     	 ldr r3,[r7,#12]
 1089 0122 1B68     	 ldr r3,[r3]
 1090 0124 9B8A     	 ldrh r3,[r3,#20]
 1091 0126 002B     	 cmp r3,#0
 1092 0128 07D1     	 bne .L51
 1093              	.L52:
 697:C:/Users/Yushev/git/wpcqi-optiga-trust-charge/optiga/optiga/cmd\optiga_cmd.c ****                             (OPTIGA_CMD_QUEUE_REQUEST_LOCK == p_queue_entry->request_type) ||
 1094              	 .loc 1 697 0 discriminator 1
 1095 012a FB68     	 ldr r3,[r7,#12]
 1096 012c 1B7A     	 ldrb r3,[r3,#8]
 696:C:/Users/Yushev/git/wpcqi-optiga-trust-charge/optiga/optiga/cmd\optiga_cmd.c ****                             ((OPTIGA_CMD_QUEUE_REQUEST_SESSION == p_queue_entry->request_type) && (
 1097              	 .loc 1 696 0 discriminator 1
 1098 012e 212B     	 cmp r3,#33
 1099 0130 03D0     	 beq .L51
 698:C:/Users/Yushev/git/wpcqi-optiga-trust-charge/optiga/optiga/cmd\optiga_cmd.c ****                             (OPTIGA_CMD_QUEUE_REQUEST_STRICT_LOCK == p_queue_entry->request_type)))
 1100              	 .loc 1 698 0
 1101 0132 FB68     	 ldr r3,[r7,#12]
 1102 0134 1B7A     	 ldrb r3,[r3,#8]
 697:C:/Users/Yushev/git/wpcqi-optiga-trust-charge/optiga/optiga/cmd\optiga_cmd.c ****                             (OPTIGA_CMD_QUEUE_REQUEST_LOCK == p_queue_entry->request_type) ||
 1103              	 .loc 1 697 0
 1104 0136 232B     	 cmp r3,#35
 1105 0138 04D1     	 bne .L48
 1106              	.L51:
 699:C:/Users/Yushev/git/wpcqi-optiga-trust-charge/optiga/optiga/cmd\optiga_cmd.c ****                         {
 700:C:/Users/Yushev/git/wpcqi-optiga-trust-charge/optiga/optiga/cmd\optiga_cmd.c ****                             reference_time_stamp = p_queue_entry->arrival_time;
 1107              	 .loc 1 700 0
 1108 013a FB68     	 ldr r3,[r7,#12]
 1109 013c 5B68     	 ldr r3,[r3,#4]
 1110 013e FB61     	 str r3,[r7,#28]
 701:C:/Users/Yushev/git/wpcqi-optiga-trust-charge/optiga/optiga/cmd\optiga_cmd.c ****                             prefered_index = index;
 1111              	 .loc 1 701 0
 1112 0140 FB7E     	 ldrb r3,[r7,#27]
 1113 0142 BB76     	 strb r3,[r7,#26]
 1114              	.L48:
 666:C:/Users/Yushev/git/wpcqi-optiga-trust-charge/optiga/optiga/cmd\optiga_cmd.c ****             {
 1115              	 .loc 1 666 0 discriminator 2
 1116 0144 FB7E     	 ldrb r3,[r7,#27]
 1117 0146 0133     	 adds r3,r3,#1
 1118 0148 FB76     	 strb r3,[r7,#27]
 1119              	.L45:
 666:C:/Users/Yushev/git/wpcqi-optiga-trust-charge/optiga/optiga/cmd\optiga_cmd.c ****             {
 1120              	 .loc 1 666 0 is_stmt 0 discriminator 1
 1121 014a FB7E     	 ldrb r3,[r7,#27]
 1122 014c 052B     	 cmp r3,#5
 1123 014e 9FD9     	 bls .L53
 702:C:/Users/Yushev/git/wpcqi-optiga-trust-charge/optiga/optiga/cmd\optiga_cmd.c ****                         }
 703:C:/Users/Yushev/git/wpcqi-optiga-trust-charge/optiga/optiga/cmd\optiga_cmd.c ****                     }
 704:C:/Users/Yushev/git/wpcqi-optiga-trust-charge/optiga/optiga/cmd\optiga_cmd.c ****                 }
 705:C:/Users/Yushev/git/wpcqi-optiga-trust-charge/optiga/optiga/cmd\optiga_cmd.c ****             }
 706:C:/Users/Yushev/git/wpcqi-optiga-trust-charge/optiga/optiga/cmd\optiga_cmd.c ****         } while((0xFF == prefered_index) && (TRUE == overflow_detected));
 1124              	 .loc 1 706 0 is_stmt 1
 1125 0150 BB7E     	 ldrb r3,[r7,#26]
 1126 0152 FF2B     	 cmp r3,#255
 1127 0154 02D1     	 bne .L54
 1128              	 .loc 1 706 0 is_stmt 0 discriminator 1
 1129 0156 7B7E     	 ldrb r3,[r7,#25]
 1130 0158 012B     	 cmp r3,#1
 1131 015a 8DD0     	 beq .L55
 1132              	.L54:
 707:C:/Users/Yushev/git/wpcqi-optiga-trust-charge/optiga/optiga/cmd\optiga_cmd.c **** 
 708:C:/Users/Yushev/git/wpcqi-optiga-trust-charge/optiga/optiga/cmd\optiga_cmd.c ****         // Improve : check the index and max queue size check
 709:C:/Users/Yushev/git/wpcqi-optiga-trust-charge/optiga/optiga/cmd\optiga_cmd.c ****         // If slot is identified then go further
 710:C:/Users/Yushev/git/wpcqi-optiga-trust-charge/optiga/optiga/cmd\optiga_cmd.c ****         if (0xFF != prefered_index)
 1133              	 .loc 1 710 0 is_stmt 1
 1134 015c BB7E     	 ldrb r3,[r7,#26]
 1135 015e FF2B     	 cmp r3,#255
 1136 0160 56D0     	 beq .L56
 711:C:/Users/Yushev/git/wpcqi-optiga-trust-charge/optiga/optiga/cmd\optiga_cmd.c ****         {
 712:C:/Users/Yushev/git/wpcqi-optiga-trust-charge/optiga/optiga/cmd\optiga_cmd.c ****             p_queue_entry = &(p_optiga_ctx->optiga_cmd_execution_queue[prefered_index]);
 1137              	 .loc 1 712 0
 1138 0162 BA7E     	 ldrb r2,[r7,#26]
 1139 0164 1346     	 mov r3,r2
 1140 0166 5B00     	 lsls r3,r3,#1
 1141 0168 1344     	 add r3,r3,r2
 1142 016a 9B00     	 lsls r3,r3,#2
 1143 016c 03F5C463 	 add r3,r3,#1568
 1144 0170 7A69     	 ldr r2,[r7,#20]
 1145 0172 1344     	 add r3,r3,r2
 1146 0174 0433     	 adds r3,r3,#4
 1147 0176 FB60     	 str r3,[r7,#12]
 713:C:/Users/Yushev/git/wpcqi-optiga-trust-charge/optiga/optiga/cmd\optiga_cmd.c ****             // assign session
 714:C:/Users/Yushev/git/wpcqi-optiga-trust-charge/optiga/optiga/cmd\optiga_cmd.c ****             if ((OPTIGA_CMD_QUEUE_REQUEST_SESSION == p_optiga_ctx->optiga_cmd_execution_queue[prefe
 1148              	 .loc 1 714 0
 1149 0178 BA7E     	 ldrb r2,[r7,#26]
 1150 017a 7969     	 ldr r1,[r7,#20]
 1151 017c 1346     	 mov r3,r2
 1152 017e 5B00     	 lsls r3,r3,#1
 1153 0180 1344     	 add r3,r3,r2
 1154 0182 9B00     	 lsls r3,r3,#2
 1155 0184 0B44     	 add r3,r3,r1
 1156 0186 03F5C563 	 add r3,r3,#1576
 1157 018a 1B79     	 ldrb r3,[r3,#4]
 1158 018c 222B     	 cmp r3,#34
 1159 018e 11D1     	 bne .L57
 715:C:/Users/Yushev/git/wpcqi-optiga-trust-charge/optiga/optiga/cmd\optiga_cmd.c ****                 (OPTIGA_CMD_NO_SESSION_OID == ((optiga_cmd_t *)p_queue_entry->registered_ctx)->sess
 1160              	 .loc 1 715 0 discriminator 1
 1161 0190 FB68     	 ldr r3,[r7,#12]
 1162 0192 1B68     	 ldr r3,[r3]
 1163 0194 9B8A     	 ldrh r3,[r3,#20]
 714:C:/Users/Yushev/git/wpcqi-optiga-trust-charge/optiga/optiga/cmd\optiga_cmd.c ****                 (OPTIGA_CMD_NO_SESSION_OID == ((optiga_cmd_t *)p_queue_entry->registered_ctx)->sess
 1164              	 .loc 1 714 0 discriminator 1
 1165 0196 002B     	 cmp r3,#0
 1166 0198 0CD1     	 bne .L57
 716:C:/Users/Yushev/git/wpcqi-optiga-trust-charge/optiga/optiga/cmd\optiga_cmd.c ****             {
 717:C:/Users/Yushev/git/wpcqi-optiga-trust-charge/optiga/optiga/cmd\optiga_cmd.c ****                 optiga_cmd_session_assign((optiga_cmd_t *)(p_optiga_ctx->optiga_cmd_execution_queue
 1167              	 .loc 1 717 0
 1168 019a BA7E     	 ldrb r2,[r7,#26]
 1169 019c 7969     	 ldr r1,[r7,#20]
 1170 019e 1346     	 mov r3,r2
 1171 01a0 5B00     	 lsls r3,r3,#1
 1172 01a2 1344     	 add r3,r3,r2
 1173 01a4 9B00     	 lsls r3,r3,#2
 1174 01a6 0B44     	 add r3,r3,r1
 1175 01a8 03F5C463 	 add r3,r3,#1568
 1176 01ac 5B68     	 ldr r3,[r3,#4]
 1177 01ae 1846     	 mov r0,r3
 1178 01b0 FFF7FEFF 	 bl optiga_cmd_session_assign
 1179              	.L57:
 718:C:/Users/Yushev/git/wpcqi-optiga-trust-charge/optiga/optiga/cmd\optiga_cmd.c ****                 // Improve : Change the state of the type here. This will reduce 0x0000 check
 719:C:/Users/Yushev/git/wpcqi-optiga-trust-charge/optiga/optiga/cmd\optiga_cmd.c ****             }
 720:C:/Users/Yushev/git/wpcqi-optiga-trust-charge/optiga/optiga/cmd\optiga_cmd.c **** 
 721:C:/Users/Yushev/git/wpcqi-optiga-trust-charge/optiga/optiga/cmd\optiga_cmd.c ****             // schedule with selected context
 722:C:/Users/Yushev/git/wpcqi-optiga-trust-charge/optiga/optiga/cmd\optiga_cmd.c ****             my_os_event = ((optiga_cmd_t *)(p_optiga_ctx->optiga_cmd_execution_queue[prefered_index
 1180              	 .loc 1 722 0
 1181 01b4 BA7E     	 ldrb r2,[r7,#26]
 1182 01b6 7969     	 ldr r1,[r7,#20]
 1183 01b8 1346     	 mov r3,r2
 1184 01ba 5B00     	 lsls r3,r3,#1
 1185 01bc 1344     	 add r3,r3,r2
 1186 01be 9B00     	 lsls r3,r3,#2
 1187 01c0 0B44     	 add r3,r3,r1
 1188 01c2 03F5C463 	 add r3,r3,#1568
 1189 01c6 5B68     	 ldr r3,[r3,#4]
 1190 01c8 1B68     	 ldr r3,[r3]
 1191 01ca D3F86C36 	 ldr r3,[r3,#1644]
 1192 01ce 3B61     	 str r3,[r7,#16]
 723:C:/Users/Yushev/git/wpcqi-optiga-trust-charge/optiga/optiga/cmd\optiga_cmd.c ****             pal_os_event_register_callback_oneshot(my_os_event,
 1193              	 .loc 1 723 0
 1194 01d0 BA7E     	 ldrb r2,[r7,#26]
 1195 01d2 7969     	 ldr r1,[r7,#20]
 1196 01d4 1346     	 mov r3,r2
 1197 01d6 5B00     	 lsls r3,r3,#1
 1198 01d8 1344     	 add r3,r3,r2
 1199 01da 9B00     	 lsls r3,r3,#2
 1200 01dc 0B44     	 add r3,r3,r1
 1201 01de 03F5C463 	 add r3,r3,#1568
 1202 01e2 5B68     	 ldr r3,[r3,#4]
 1203 01e4 3869     	 ldr r0,[r7,#16]
 1204 01e6 1049     	 ldr r1,.L58+4
 1205 01e8 1A46     	 mov r2,r3
 1206 01ea 3223     	 movs r3,#50
 1207 01ec FFF7FEFF 	 bl pal_os_event_register_callback_oneshot
 724:C:/Users/Yushev/git/wpcqi-optiga-trust-charge/optiga/optiga/cmd\optiga_cmd.c ****                                                    optiga_cmd_event_trigger_execute,
 725:C:/Users/Yushev/git/wpcqi-optiga-trust-charge/optiga/optiga/cmd\optiga_cmd.c ****                                                    ((optiga_cmd_t *)(p_optiga_ctx->optiga_cmd_execu
 726:C:/Users/Yushev/git/wpcqi-optiga-trust-charge/optiga/optiga/cmd\optiga_cmd.c ****                                                    OPTIGA_CMD_SCHEDULER_RUNNING_TIME_MS);
 727:C:/Users/Yushev/git/wpcqi-optiga-trust-charge/optiga/optiga/cmd\optiga_cmd.c ****             p_optiga_ctx->optiga_cmd_execution_queue[prefered_index].state_of_entry = OPTIGA_CMD_QU
 1208              	 .loc 1 727 0
 1209 01f0 BA7E     	 ldrb r2,[r7,#26]
 1210 01f2 7969     	 ldr r1,[r7,#20]
 1211 01f4 1346     	 mov r3,r2
 1212 01f6 5B00     	 lsls r3,r3,#1
 1213 01f8 1344     	 add r3,r3,r2
 1214 01fa 9B00     	 lsls r3,r3,#2
 1215 01fc 0B44     	 add r3,r3,r1
 1216 01fe 03F5C563 	 add r3,r3,#1576
 1217 0202 0422     	 movs r2,#4
 1218 0204 5A71     	 strb r2,[r3,#5]
 728:C:/Users/Yushev/git/wpcqi-optiga-trust-charge/optiga/optiga/cmd\optiga_cmd.c ****             p_optiga_ctx->last_time_stamp = reference_time_stamp;
 1219              	 .loc 1 728 0
 1220 0206 7B69     	 ldr r3,[r7,#20]
 1221 0208 FA69     	 ldr r2,[r7,#28]
 1222 020a C3F87026 	 str r2,[r3,#1648]
 1223 020e 06E0     	 b .L39
 1224              	.L56:
 729:C:/Users/Yushev/git/wpcqi-optiga-trust-charge/optiga/optiga/cmd\optiga_cmd.c ****         }
 730:C:/Users/Yushev/git/wpcqi-optiga-trust-charge/optiga/optiga/cmd\optiga_cmd.c ****         else
 731:C:/Users/Yushev/git/wpcqi-optiga-trust-charge/optiga/optiga/cmd\optiga_cmd.c ****         {
 732:C:/Users/Yushev/git/wpcqi-optiga-trust-charge/optiga/optiga/cmd\optiga_cmd.c ****             pal_os_event_register_callback_oneshot( my_os_event, optiga_cmd_queue_scheduler,
 1225              	 .loc 1 732 0
 1226 0210 3869     	 ldr r0,[r7,#16]
 1227 0212 0449     	 ldr r1,.L58
 1228 0214 7A69     	 ldr r2,[r7,#20]
 1229 0216 4FF47A73 	 mov r3,#1000
 1230 021a FFF7FEFF 	 bl pal_os_event_register_callback_oneshot
 1231              	.L39:
 733:C:/Users/Yushev/git/wpcqi-optiga-trust-charge/optiga/optiga/cmd\optiga_cmd.c ****                                                     p_optiga_ctx,OPTIGA_CMD_SCHEDULER_IDLING_TIME_M
 734:C:/Users/Yushev/git/wpcqi-optiga-trust-charge/optiga/optiga/cmd\optiga_cmd.c ****         }
 735:C:/Users/Yushev/git/wpcqi-optiga-trust-charge/optiga/optiga/cmd\optiga_cmd.c ****     }
 736:C:/Users/Yushev/git/wpcqi-optiga-trust-charge/optiga/optiga/cmd\optiga_cmd.c **** }
 1232              	 .loc 1 736 0
 1233 021e 2037     	 adds r7,r7,#32
 1234              	.LCFI66:
 1235              	 .cfi_def_cfa_offset 8
 1236 0220 BD46     	 mov sp,r7
 1237              	.LCFI67:
 1238              	 .cfi_def_cfa_register 13
 1239              	 
 1240 0222 80BD     	 pop {r7,pc}
 1241              	.L59:
 1242              	 .align 2
 1243              	.L58:
 1244 0224 00000000 	 .word optiga_cmd_queue_scheduler
 1245 0228 00000000 	 .word optiga_cmd_event_trigger_execute
 1246              	 .cfi_endproc
 1247              	.LFE11:
 1249              	 .section .text.optiga_cmd_queue_update_slot,"ax",%progbits
 1250              	 .align 2
 1251              	 .thumb
 1252              	 .thumb_func
 1254              	optiga_cmd_queue_update_slot:
 1255              	.LFB12:
 737:C:/Users/Yushev/git/wpcqi-optiga-trust-charge/optiga/optiga/cmd\optiga_cmd.c **** 
 738:C:/Users/Yushev/git/wpcqi-optiga-trust-charge/optiga/optiga/cmd\optiga_cmd.c **** /*
 739:C:/Users/Yushev/git/wpcqi-optiga-trust-charge/optiga/optiga/cmd\optiga_cmd.c **** * Updates a execution queue slot
 740:C:/Users/Yushev/git/wpcqi-optiga-trust-charge/optiga/optiga/cmd\optiga_cmd.c **** */
 741:C:/Users/Yushev/git/wpcqi-optiga-trust-charge/optiga/optiga/cmd\optiga_cmd.c **** _STATIC_H void optiga_cmd_queue_update_slot(optiga_cmd_t * me, uint8_t request_type)
 742:C:/Users/Yushev/git/wpcqi-optiga-trust-charge/optiga/optiga/cmd\optiga_cmd.c **** {
 1256              	 .loc 1 742 0
 1257              	 .cfi_startproc
 1258              	 
 1259              	 
 1260 0000 B0B5     	 push {r4,r5,r7,lr}
 1261              	.LCFI68:
 1262              	 .cfi_def_cfa_offset 16
 1263              	 .cfi_offset 4,-16
 1264              	 .cfi_offset 5,-12
 1265              	 .cfi_offset 7,-8
 1266              	 .cfi_offset 14,-4
 1267 0002 82B0     	 sub sp,sp,#8
 1268              	.LCFI69:
 1269              	 .cfi_def_cfa_offset 24
 1270 0004 00AF     	 add r7,sp,#0
 1271              	.LCFI70:
 1272              	 .cfi_def_cfa_register 7
 1273 0006 7860     	 str r0,[r7,#4]
 1274 0008 0B46     	 mov r3,r1
 1275 000a FB70     	 strb r3,[r7,#3]
 743:C:/Users/Yushev/git/wpcqi-optiga-trust-charge/optiga/optiga/cmd\optiga_cmd.c ****     if ((OPTIGA_CMD_QUEUE_REQUEST_STRICT_LOCK != me->p_optiga->optiga_cmd_execution_queue[me->queue
 1276              	 .loc 1 743 0
 1277 000c 7B68     	 ldr r3,[r7,#4]
 1278 000e 1A68     	 ldr r2,[r3]
 1279 0010 7B68     	 ldr r3,[r7,#4]
 1280 0012 DB7E     	 ldrb r3,[r3,#27]
 1281 0014 1946     	 mov r1,r3
 1282 0016 0B46     	 mov r3,r1
 1283 0018 5B00     	 lsls r3,r3,#1
 1284 001a 0B44     	 add r3,r3,r1
 1285 001c 9B00     	 lsls r3,r3,#2
 1286 001e 1344     	 add r3,r3,r2
 1287 0020 03F5C563 	 add r3,r3,#1576
 1288 0024 1B79     	 ldrb r3,[r3,#4]
 1289 0026 232B     	 cmp r3,#35
 1290 0028 11D1     	 bne .L61
 744:C:/Users/Yushev/git/wpcqi-optiga-trust-charge/optiga/optiga/cmd\optiga_cmd.c ****        ((OPTIGA_CMD_QUEUE_REQUEST_STRICT_LOCK == me->p_optiga->optiga_cmd_execution_queue[me->queue
 1291              	 .loc 1 744 0 discriminator 1
 1292 002a 7B68     	 ldr r3,[r7,#4]
 1293 002c 1A68     	 ldr r2,[r3]
 1294 002e 7B68     	 ldr r3,[r7,#4]
 1295 0030 DB7E     	 ldrb r3,[r3,#27]
 1296 0032 1946     	 mov r1,r3
 1297 0034 0B46     	 mov r3,r1
 1298 0036 5B00     	 lsls r3,r3,#1
 1299 0038 0B44     	 add r3,r3,r1
 1300 003a 9B00     	 lsls r3,r3,#2
 1301 003c 1344     	 add r3,r3,r2
 1302 003e 03F5C563 	 add r3,r3,#1576
 1303 0042 1B79     	 ldrb r3,[r3,#4]
 743:C:/Users/Yushev/git/wpcqi-optiga-trust-charge/optiga/optiga/cmd\optiga_cmd.c ****     if ((OPTIGA_CMD_QUEUE_REQUEST_STRICT_LOCK != me->p_optiga->optiga_cmd_execution_queue[me->queue
 1304              	 .loc 1 743 0 discriminator 1
 1305 0044 232B     	 cmp r3,#35
 1306 0046 12D1     	 bne .L62
 1307              	 .loc 1 744 0
 1308 0048 FB78     	 ldrb r3,[r7,#3]
 1309 004a 232B     	 cmp r3,#35
 1310 004c 0FD0     	 beq .L62
 1311              	.L61:
 745:C:/Users/Yushev/git/wpcqi-optiga-trust-charge/optiga/optiga/cmd\optiga_cmd.c ****        (OPTIGA_CMD_QUEUE_REQUEST_STRICT_LOCK != request_type)))
 746:C:/Users/Yushev/git/wpcqi-optiga-trust-charge/optiga/optiga/cmd\optiga_cmd.c ****     {
 747:C:/Users/Yushev/git/wpcqi-optiga-trust-charge/optiga/optiga/cmd\optiga_cmd.c ****         //add time stamp
 748:C:/Users/Yushev/git/wpcqi-optiga-trust-charge/optiga/optiga/cmd\optiga_cmd.c ****         me->p_optiga->optiga_cmd_execution_queue[me->queue_id].arrival_time = pal_os_timer_get_time
 1312              	 .loc 1 748 0
 1313 004e 7B68     	 ldr r3,[r7,#4]
 1314 0050 1C68     	 ldr r4,[r3]
 1315 0052 7B68     	 ldr r3,[r7,#4]
 1316 0054 DB7E     	 ldrb r3,[r3,#27]
 1317 0056 1D46     	 mov r5,r3
 1318 0058 FFF7FEFF 	 bl pal_os_timer_get_time_in_microseconds
 1319 005c 0246     	 mov r2,r0
 1320 005e 2B46     	 mov r3,r5
 1321 0060 5B00     	 lsls r3,r3,#1
 1322 0062 2B44     	 add r3,r3,r5
 1323 0064 9B00     	 lsls r3,r3,#2
 1324 0066 2344     	 add r3,r3,r4
 1325 0068 03F5C463 	 add r3,r3,#1568
 1326 006c 9A60     	 str r2,[r3,#8]
 1327              	.L62:
 749:C:/Users/Yushev/git/wpcqi-optiga-trust-charge/optiga/optiga/cmd\optiga_cmd.c ****     }
 750:C:/Users/Yushev/git/wpcqi-optiga-trust-charge/optiga/optiga/cmd\optiga_cmd.c **** 
 751:C:/Users/Yushev/git/wpcqi-optiga-trust-charge/optiga/optiga/cmd\optiga_cmd.c ****     //add optiga_cmd ctx
 752:C:/Users/Yushev/git/wpcqi-optiga-trust-charge/optiga/optiga/cmd\optiga_cmd.c ****     me->p_optiga->optiga_cmd_execution_queue[me->queue_id].registered_ctx = (void * )me;
 1328              	 .loc 1 752 0
 1329 006e 7B68     	 ldr r3,[r7,#4]
 1330 0070 1A68     	 ldr r2,[r3]
 1331 0072 7B68     	 ldr r3,[r7,#4]
 1332 0074 DB7E     	 ldrb r3,[r3,#27]
 1333 0076 1946     	 mov r1,r3
 1334 0078 0B46     	 mov r3,r1
 1335 007a 5B00     	 lsls r3,r3,#1
 1336 007c 0B44     	 add r3,r3,r1
 1337 007e 9B00     	 lsls r3,r3,#2
 1338 0080 1344     	 add r3,r3,r2
 1339 0082 03F5C463 	 add r3,r3,#1568
 1340 0086 7A68     	 ldr r2,[r7,#4]
 1341 0088 5A60     	 str r2,[r3,#4]
 753:C:/Users/Yushev/git/wpcqi-optiga-trust-charge/optiga/optiga/cmd\optiga_cmd.c ****     // set the state of slot to Requested state
 754:C:/Users/Yushev/git/wpcqi-optiga-trust-charge/optiga/optiga/cmd\optiga_cmd.c ****     if ((OPTIGA_CMD_QUEUE_REQUEST_STRICT_LOCK == me->p_optiga->optiga_cmd_execution_queue[me->queue
 1342              	 .loc 1 754 0
 1343 008a 7B68     	 ldr r3,[r7,#4]
 1344 008c 1A68     	 ldr r2,[r3]
 1345 008e 7B68     	 ldr r3,[r7,#4]
 1346 0090 DB7E     	 ldrb r3,[r3,#27]
 1347 0092 1946     	 mov r1,r3
 1348 0094 0B46     	 mov r3,r1
 1349 0096 5B00     	 lsls r3,r3,#1
 1350 0098 0B44     	 add r3,r3,r1
 1351 009a 9B00     	 lsls r3,r3,#2
 1352 009c 1344     	 add r3,r3,r2
 1353 009e 03F5C563 	 add r3,r3,#1576
 1354 00a2 1B79     	 ldrb r3,[r3,#4]
 1355 00a4 232B     	 cmp r3,#35
 1356 00a6 11D1     	 bne .L63
 1357              	 .loc 1 754 0 is_stmt 0 discriminator 1
 1358 00a8 FB78     	 ldrb r3,[r7,#3]
 1359 00aa 232B     	 cmp r3,#35
 1360 00ac 0ED1     	 bne .L63
 755:C:/Users/Yushev/git/wpcqi-optiga-trust-charge/optiga/optiga/cmd\optiga_cmd.c ****         (OPTIGA_CMD_QUEUE_REQUEST_STRICT_LOCK == request_type))
 756:C:/Users/Yushev/git/wpcqi-optiga-trust-charge/optiga/optiga/cmd\optiga_cmd.c ****     {
 757:C:/Users/Yushev/git/wpcqi-optiga-trust-charge/optiga/optiga/cmd\optiga_cmd.c ****         me->p_optiga->optiga_cmd_execution_queue[me->queue_id].state_of_entry = OPTIGA_CMD_QUEUE_RE
 1361              	 .loc 1 757 0 is_stmt 1
 1362 00ae 7B68     	 ldr r3,[r7,#4]
 1363 00b0 1A68     	 ldr r2,[r3]
 1364 00b2 7B68     	 ldr r3,[r7,#4]
 1365 00b4 DB7E     	 ldrb r3,[r3,#27]
 1366 00b6 1946     	 mov r1,r3
 1367 00b8 0B46     	 mov r3,r1
 1368 00ba 5B00     	 lsls r3,r3,#1
 1369 00bc 0B44     	 add r3,r3,r1
 1370 00be 9B00     	 lsls r3,r3,#2
 1371 00c0 1344     	 add r3,r3,r2
 1372 00c2 03F5C563 	 add r3,r3,#1576
 1373 00c6 0822     	 movs r2,#8
 1374 00c8 5A71     	 strb r2,[r3,#5]
 1375 00ca 0DE0     	 b .L64
 1376              	.L63:
 758:C:/Users/Yushev/git/wpcqi-optiga-trust-charge/optiga/optiga/cmd\optiga_cmd.c ****     }
 759:C:/Users/Yushev/git/wpcqi-optiga-trust-charge/optiga/optiga/cmd\optiga_cmd.c ****     else
 760:C:/Users/Yushev/git/wpcqi-optiga-trust-charge/optiga/optiga/cmd\optiga_cmd.c ****     {
 761:C:/Users/Yushev/git/wpcqi-optiga-trust-charge/optiga/optiga/cmd\optiga_cmd.c ****         me->p_optiga->optiga_cmd_execution_queue[me->queue_id].state_of_entry = OPTIGA_CMD_QUEUE_RE
 1377              	 .loc 1 761 0
 1378 00cc 7B68     	 ldr r3,[r7,#4]
 1379 00ce 1A68     	 ldr r2,[r3]
 1380 00d0 7B68     	 ldr r3,[r7,#4]
 1381 00d2 DB7E     	 ldrb r3,[r3,#27]
 1382 00d4 1946     	 mov r1,r3
 1383 00d6 0B46     	 mov r3,r1
 1384 00d8 5B00     	 lsls r3,r3,#1
 1385 00da 0B44     	 add r3,r3,r1
 1386 00dc 9B00     	 lsls r3,r3,#2
 1387 00de 1344     	 add r3,r3,r2
 1388 00e0 03F5C563 	 add r3,r3,#1576
 1389 00e4 0222     	 movs r2,#2
 1390 00e6 5A71     	 strb r2,[r3,#5]
 1391              	.L64:
 762:C:/Users/Yushev/git/wpcqi-optiga-trust-charge/optiga/optiga/cmd\optiga_cmd.c ****     }
 763:C:/Users/Yushev/git/wpcqi-optiga-trust-charge/optiga/optiga/cmd\optiga_cmd.c ****     //add request type
 764:C:/Users/Yushev/git/wpcqi-optiga-trust-charge/optiga/optiga/cmd\optiga_cmd.c ****     me->p_optiga->optiga_cmd_execution_queue[me->queue_id].request_type = request_type;
 1392              	 .loc 1 764 0
 1393 00e8 7B68     	 ldr r3,[r7,#4]
 1394 00ea 1A68     	 ldr r2,[r3]
 1395 00ec 7B68     	 ldr r3,[r7,#4]
 1396 00ee DB7E     	 ldrb r3,[r3,#27]
 1397 00f0 1946     	 mov r1,r3
 1398 00f2 0B46     	 mov r3,r1
 1399 00f4 5B00     	 lsls r3,r3,#1
 1400 00f6 0B44     	 add r3,r3,r1
 1401 00f8 9B00     	 lsls r3,r3,#2
 1402 00fa 1344     	 add r3,r3,r2
 1403 00fc 03F5C563 	 add r3,r3,#1576
 1404 0100 FA78     	 ldrb r2,[r7,#3]
 1405 0102 1A71     	 strb r2,[r3,#4]
 765:C:/Users/Yushev/git/wpcqi-optiga-trust-charge/optiga/optiga/cmd\optiga_cmd.c **** }
 1406              	 .loc 1 765 0
 1407 0104 0837     	 adds r7,r7,#8
 1408              	.LCFI71:
 1409              	 .cfi_def_cfa_offset 16
 1410 0106 BD46     	 mov sp,r7
 1411              	.LCFI72:
 1412              	 .cfi_def_cfa_register 13
 1413              	 
 1414 0108 B0BD     	 pop {r4,r5,r7,pc}
 1415              	 .cfi_endproc
 1416              	.LFE12:
 1418 010a 00BF     	 .section .text.optiga_cmd_queue_reset_slot,"ax",%progbits
 1419              	 .align 2
 1420              	 .thumb
 1421              	 .thumb_func
 1423              	optiga_cmd_queue_reset_slot:
 1424              	.LFB13:
 766:C:/Users/Yushev/git/wpcqi-optiga-trust-charge/optiga/optiga/cmd\optiga_cmd.c **** 
 767:C:/Users/Yushev/git/wpcqi-optiga-trust-charge/optiga/optiga/cmd\optiga_cmd.c **** /*
 768:C:/Users/Yushev/git/wpcqi-optiga-trust-charge/optiga/optiga/cmd\optiga_cmd.c **** * Resets a execution slot
 769:C:/Users/Yushev/git/wpcqi-optiga-trust-charge/optiga/optiga/cmd\optiga_cmd.c **** */
 770:C:/Users/Yushev/git/wpcqi-optiga-trust-charge/optiga/optiga/cmd\optiga_cmd.c **** _STATIC_H void optiga_cmd_queue_reset_slot(const optiga_cmd_t * me)
 771:C:/Users/Yushev/git/wpcqi-optiga-trust-charge/optiga/optiga/cmd\optiga_cmd.c **** {
 1425              	 .loc 1 771 0
 1426              	 .cfi_startproc
 1427              	 
 1428              	 
 1429 0000 80B5     	 push {r7,lr}
 1430              	.LCFI73:
 1431              	 .cfi_def_cfa_offset 8
 1432              	 .cfi_offset 7,-8
 1433              	 .cfi_offset 14,-4
 1434 0002 82B0     	 sub sp,sp,#8
 1435              	.LCFI74:
 1436              	 .cfi_def_cfa_offset 16
 1437 0004 00AF     	 add r7,sp,#0
 1438              	.LCFI75:
 1439              	 .cfi_def_cfa_register 7
 1440 0006 7860     	 str r0,[r7,#4]
 772:C:/Users/Yushev/git/wpcqi-optiga-trust-charge/optiga/optiga/cmd\optiga_cmd.c ****     // Reset the arrival time
 773:C:/Users/Yushev/git/wpcqi-optiga-trust-charge/optiga/optiga/cmd\optiga_cmd.c ****     me->p_optiga->optiga_cmd_execution_queue[me->queue_id].arrival_time = 0xFFFFFFFF;
 1441              	 .loc 1 773 0
 1442 0008 7B68     	 ldr r3,[r7,#4]
 1443 000a 1A68     	 ldr r2,[r3]
 1444 000c 7B68     	 ldr r3,[r7,#4]
 1445 000e DB7E     	 ldrb r3,[r3,#27]
 1446 0010 1946     	 mov r1,r3
 1447 0012 0B46     	 mov r3,r1
 1448 0014 5B00     	 lsls r3,r3,#1
 1449 0016 0B44     	 add r3,r3,r1
 1450 0018 9B00     	 lsls r3,r3,#2
 1451 001a 1344     	 add r3,r3,r2
 1452 001c 03F5C463 	 add r3,r3,#1568
 1453 0020 4FF0FF32 	 mov r2,#-1
 1454 0024 9A60     	 str r2,[r3,#8]
 774:C:/Users/Yushev/git/wpcqi-optiga-trust-charge/optiga/optiga/cmd\optiga_cmd.c ****     //add optiga_cmd ctx
 775:C:/Users/Yushev/git/wpcqi-optiga-trust-charge/optiga/optiga/cmd\optiga_cmd.c ****     me->p_optiga->optiga_cmd_execution_queue[me->queue_id].registered_ctx = NULL;
 1455              	 .loc 1 775 0
 1456 0026 7B68     	 ldr r3,[r7,#4]
 1457 0028 1A68     	 ldr r2,[r3]
 1458 002a 7B68     	 ldr r3,[r7,#4]
 1459 002c DB7E     	 ldrb r3,[r3,#27]
 1460 002e 1946     	 mov r1,r3
 1461 0030 0B46     	 mov r3,r1
 1462 0032 5B00     	 lsls r3,r3,#1
 1463 0034 0B44     	 add r3,r3,r1
 1464 0036 9B00     	 lsls r3,r3,#2
 1465 0038 1344     	 add r3,r3,r2
 1466 003a 03F5C463 	 add r3,r3,#1568
 1467 003e 0022     	 movs r2,#0
 1468 0040 5A60     	 str r2,[r3,#4]
 776:C:/Users/Yushev/git/wpcqi-optiga-trust-charge/optiga/optiga/cmd\optiga_cmd.c ****     //add request type
 777:C:/Users/Yushev/git/wpcqi-optiga-trust-charge/optiga/optiga/cmd\optiga_cmd.c ****     me->p_optiga->optiga_cmd_execution_queue[me->queue_id].request_type = 0;
 1469              	 .loc 1 777 0
 1470 0042 7B68     	 ldr r3,[r7,#4]
 1471 0044 1A68     	 ldr r2,[r3]
 1472 0046 7B68     	 ldr r3,[r7,#4]
 1473 0048 DB7E     	 ldrb r3,[r3,#27]
 1474 004a 1946     	 mov r1,r3
 1475 004c 0B46     	 mov r3,r1
 1476 004e 5B00     	 lsls r3,r3,#1
 1477 0050 0B44     	 add r3,r3,r1
 1478 0052 9B00     	 lsls r3,r3,#2
 1479 0054 1344     	 add r3,r3,r2
 1480 0056 03F5C563 	 add r3,r3,#1576
 1481 005a 0022     	 movs r2,#0
 1482 005c 1A71     	 strb r2,[r3,#4]
 778:C:/Users/Yushev/git/wpcqi-optiga-trust-charge/optiga/optiga/cmd\optiga_cmd.c ****     // set the slot state to assigned
 779:C:/Users/Yushev/git/wpcqi-optiga-trust-charge/optiga/optiga/cmd\optiga_cmd.c ****     me->p_optiga->optiga_cmd_execution_queue[me->queue_id].state_of_entry = OPTIGA_CMD_QUEUE_ASSIGN
 1483              	 .loc 1 779 0
 1484 005e 7B68     	 ldr r3,[r7,#4]
 1485 0060 1A68     	 ldr r2,[r3]
 1486 0062 7B68     	 ldr r3,[r7,#4]
 1487 0064 DB7E     	 ldrb r3,[r3,#27]
 1488 0066 1946     	 mov r1,r3
 1489 0068 0B46     	 mov r3,r1
 1490 006a 5B00     	 lsls r3,r3,#1
 1491 006c 0B44     	 add r3,r3,r1
 1492 006e 9B00     	 lsls r3,r3,#2
 1493 0070 1344     	 add r3,r3,r2
 1494 0072 03F5C563 	 add r3,r3,#1576
 1495 0076 0122     	 movs r2,#1
 1496 0078 5A71     	 strb r2,[r3,#5]
 780:C:/Users/Yushev/git/wpcqi-optiga-trust-charge/optiga/optiga/cmd\optiga_cmd.c ****     // start the event scheduler
 781:C:/Users/Yushev/git/wpcqi-optiga-trust-charge/optiga/optiga/cmd\optiga_cmd.c ****     pal_os_event_start(me->p_optiga->p_pal_os_event_ctx, optiga_cmd_queue_scheduler, me->p_optiga);
 1497              	 .loc 1 781 0
 1498 007a 7B68     	 ldr r3,[r7,#4]
 1499 007c 1B68     	 ldr r3,[r3]
 1500 007e D3F86C26 	 ldr r2,[r3,#1644]
 1501 0082 7B68     	 ldr r3,[r7,#4]
 1502 0084 1B68     	 ldr r3,[r3]
 1503 0086 1046     	 mov r0,r2
 1504 0088 0349     	 ldr r1,.L66
 1505 008a 1A46     	 mov r2,r3
 1506 008c FFF7FEFF 	 bl pal_os_event_start
 782:C:/Users/Yushev/git/wpcqi-optiga-trust-charge/optiga/optiga/cmd\optiga_cmd.c **** }
 1507              	 .loc 1 782 0
 1508 0090 0837     	 adds r7,r7,#8
 1509              	.LCFI76:
 1510              	 .cfi_def_cfa_offset 8
 1511 0092 BD46     	 mov sp,r7
 1512              	.LCFI77:
 1513              	 .cfi_def_cfa_register 13
 1514              	 
 1515 0094 80BD     	 pop {r7,pc}
 1516              	.L67:
 1517 0096 00BF     	 .align 2
 1518              	.L66:
 1519 0098 00000000 	 .word optiga_cmd_queue_scheduler
 1520              	 .cfi_endproc
 1521              	.LFE13:
 1523              	 .section .text.optiga_cmd_request_session,"ax",%progbits
 1524              	 .align 2
 1525              	 .global optiga_cmd_request_session
 1526              	 .thumb
 1527              	 .thumb_func
 1529              	optiga_cmd_request_session:
 1530              	.LFB14:
 783:C:/Users/Yushev/git/wpcqi-optiga-trust-charge/optiga/optiga/cmd\optiga_cmd.c **** 
 784:C:/Users/Yushev/git/wpcqi-optiga-trust-charge/optiga/optiga/cmd\optiga_cmd.c **** 
 785:C:/Users/Yushev/git/wpcqi-optiga-trust-charge/optiga/optiga/cmd\optiga_cmd.c **** optiga_lib_status_t optiga_cmd_request_session(optiga_cmd_t * me)
 786:C:/Users/Yushev/git/wpcqi-optiga-trust-charge/optiga/optiga/cmd\optiga_cmd.c **** {
 1531              	 .loc 1 786 0
 1532              	 .cfi_startproc
 1533              	 
 1534              	 
 1535 0000 80B5     	 push {r7,lr}
 1536              	.LCFI78:
 1537              	 .cfi_def_cfa_offset 8
 1538              	 .cfi_offset 7,-8
 1539              	 .cfi_offset 14,-4
 1540 0002 82B0     	 sub sp,sp,#8
 1541              	.LCFI79:
 1542              	 .cfi_def_cfa_offset 16
 1543 0004 00AF     	 add r7,sp,#0
 1544              	.LCFI80:
 1545              	 .cfi_def_cfa_register 7
 1546 0006 7860     	 str r0,[r7,#4]
 787:C:/Users/Yushev/git/wpcqi-optiga-trust-charge/optiga/optiga/cmd\optiga_cmd.c ****     optiga_cmd_queue_update_slot(me , OPTIGA_CMD_QUEUE_REQUEST_SESSION);
 1547              	 .loc 1 787 0
 1548 0008 7868     	 ldr r0,[r7,#4]
 1549 000a 2221     	 movs r1,#34
 1550 000c FFF7FEFF 	 bl optiga_cmd_queue_update_slot
 788:C:/Users/Yushev/git/wpcqi-optiga-trust-charge/optiga/optiga/cmd\optiga_cmd.c ****     return (OPTIGA_CMD_SUCCESS);
 1551              	 .loc 1 788 0
 1552 0010 0023     	 movs r3,#0
 789:C:/Users/Yushev/git/wpcqi-optiga-trust-charge/optiga/optiga/cmd\optiga_cmd.c **** }
 1553              	 .loc 1 789 0
 1554 0012 1846     	 mov r0,r3
 1555 0014 0837     	 adds r7,r7,#8
 1556              	.LCFI81:
 1557              	 .cfi_def_cfa_offset 8
 1558 0016 BD46     	 mov sp,r7
 1559              	.LCFI82:
 1560              	 .cfi_def_cfa_register 13
 1561              	 
 1562 0018 80BD     	 pop {r7,pc}
 1563              	 .cfi_endproc
 1564              	.LFE14:
 1566 001a 00BF     	 .section .text.optiga_cmd_release_session,"ax",%progbits
 1567              	 .align 2
 1568              	 .global optiga_cmd_release_session
 1569              	 .thumb
 1570              	 .thumb_func
 1572              	optiga_cmd_release_session:
 1573              	.LFB15:
 790:C:/Users/Yushev/git/wpcqi-optiga-trust-charge/optiga/optiga/cmd\optiga_cmd.c **** 
 791:C:/Users/Yushev/git/wpcqi-optiga-trust-charge/optiga/optiga/cmd\optiga_cmd.c **** optiga_lib_status_t optiga_cmd_release_session(optiga_cmd_t * me)
 792:C:/Users/Yushev/git/wpcqi-optiga-trust-charge/optiga/optiga/cmd\optiga_cmd.c **** {
 1574              	 .loc 1 792 0
 1575              	 .cfi_startproc
 1576              	 
 1577              	 
 1578 0000 80B5     	 push {r7,lr}
 1579              	.LCFI83:
 1580              	 .cfi_def_cfa_offset 8
 1581              	 .cfi_offset 7,-8
 1582              	 .cfi_offset 14,-4
 1583 0002 82B0     	 sub sp,sp,#8
 1584              	.LCFI84:
 1585              	 .cfi_def_cfa_offset 16
 1586 0004 00AF     	 add r7,sp,#0
 1587              	.LCFI85:
 1588              	 .cfi_def_cfa_register 7
 1589 0006 7860     	 str r0,[r7,#4]
 793:C:/Users/Yushev/git/wpcqi-optiga-trust-charge/optiga/optiga/cmd\optiga_cmd.c ****     optiga_cmd_session_free(me);
 1590              	 .loc 1 793 0
 1591 0008 7868     	 ldr r0,[r7,#4]
 1592 000a FFF7FEFF 	 bl optiga_cmd_session_free
 794:C:/Users/Yushev/git/wpcqi-optiga-trust-charge/optiga/optiga/cmd\optiga_cmd.c ****     return (OPTIGA_CMD_SUCCESS);
 1593              	 .loc 1 794 0
 1594 000e 0023     	 movs r3,#0
 795:C:/Users/Yushev/git/wpcqi-optiga-trust-charge/optiga/optiga/cmd\optiga_cmd.c **** }
 1595              	 .loc 1 795 0
 1596 0010 1846     	 mov r0,r3
 1597 0012 0837     	 adds r7,r7,#8
 1598              	.LCFI86:
 1599              	 .cfi_def_cfa_offset 8
 1600 0014 BD46     	 mov sp,r7
 1601              	.LCFI87:
 1602              	 .cfi_def_cfa_register 13
 1603              	 
 1604 0016 80BD     	 pop {r7,pc}
 1605              	 .cfi_endproc
 1606              	.LFE15:
 1608              	 .section .text.optiga_cmd_request_lock,"ax",%progbits
 1609              	 .align 2
 1610              	 .global optiga_cmd_request_lock
 1611              	 .thumb
 1612              	 .thumb_func
 1614              	optiga_cmd_request_lock:
 1615              	.LFB16:
 796:C:/Users/Yushev/git/wpcqi-optiga-trust-charge/optiga/optiga/cmd\optiga_cmd.c **** 
 797:C:/Users/Yushev/git/wpcqi-optiga-trust-charge/optiga/optiga/cmd\optiga_cmd.c **** optiga_lib_status_t optiga_cmd_request_lock(optiga_cmd_t * me, uint8_t lock_type)
 798:C:/Users/Yushev/git/wpcqi-optiga-trust-charge/optiga/optiga/cmd\optiga_cmd.c **** {
 1616              	 .loc 1 798 0
 1617              	 .cfi_startproc
 1618              	 
 1619              	 
 1620 0000 80B5     	 push {r7,lr}
 1621              	.LCFI88:
 1622              	 .cfi_def_cfa_offset 8
 1623              	 .cfi_offset 7,-8
 1624              	 .cfi_offset 14,-4
 1625 0002 82B0     	 sub sp,sp,#8
 1626              	.LCFI89:
 1627              	 .cfi_def_cfa_offset 16
 1628 0004 00AF     	 add r7,sp,#0
 1629              	.LCFI90:
 1630              	 .cfi_def_cfa_register 7
 1631 0006 7860     	 str r0,[r7,#4]
 1632 0008 0B46     	 mov r3,r1
 1633 000a FB70     	 strb r3,[r7,#3]
 799:C:/Users/Yushev/git/wpcqi-optiga-trust-charge/optiga/optiga/cmd\optiga_cmd.c ****     optiga_cmd_queue_update_slot(me , lock_type);
 1634              	 .loc 1 799 0
 1635 000c FB78     	 ldrb r3,[r7,#3]
 1636 000e 7868     	 ldr r0,[r7,#4]
 1637 0010 1946     	 mov r1,r3
 1638 0012 FFF7FEFF 	 bl optiga_cmd_queue_update_slot
 800:C:/Users/Yushev/git/wpcqi-optiga-trust-charge/optiga/optiga/cmd\optiga_cmd.c ****     return (OPTIGA_CMD_SUCCESS);
 1639              	 .loc 1 800 0
 1640 0016 0023     	 movs r3,#0
 801:C:/Users/Yushev/git/wpcqi-optiga-trust-charge/optiga/optiga/cmd\optiga_cmd.c **** }
 1641              	 .loc 1 801 0
 1642 0018 1846     	 mov r0,r3
 1643 001a 0837     	 adds r7,r7,#8
 1644              	.LCFI91:
 1645              	 .cfi_def_cfa_offset 8
 1646 001c BD46     	 mov sp,r7
 1647              	.LCFI92:
 1648              	 .cfi_def_cfa_register 13
 1649              	 
 1650 001e 80BD     	 pop {r7,pc}
 1651              	 .cfi_endproc
 1652              	.LFE16:
 1654              	 .section .text.optiga_cmd_release_lock,"ax",%progbits
 1655              	 .align 2
 1656              	 .global optiga_cmd_release_lock
 1657              	 .thumb
 1658              	 .thumb_func
 1660              	optiga_cmd_release_lock:
 1661              	.LFB17:
 802:C:/Users/Yushev/git/wpcqi-optiga-trust-charge/optiga/optiga/cmd\optiga_cmd.c **** 
 803:C:/Users/Yushev/git/wpcqi-optiga-trust-charge/optiga/optiga/cmd\optiga_cmd.c **** optiga_lib_status_t optiga_cmd_release_lock(const optiga_cmd_t * me)
 804:C:/Users/Yushev/git/wpcqi-optiga-trust-charge/optiga/optiga/cmd\optiga_cmd.c **** {
 1662              	 .loc 1 804 0
 1663              	 .cfi_startproc
 1664              	 
 1665              	 
 1666 0000 80B5     	 push {r7,lr}
 1667              	.LCFI93:
 1668              	 .cfi_def_cfa_offset 8
 1669              	 .cfi_offset 7,-8
 1670              	 .cfi_offset 14,-4
 1671 0002 82B0     	 sub sp,sp,#8
 1672              	.LCFI94:
 1673              	 .cfi_def_cfa_offset 16
 1674 0004 00AF     	 add r7,sp,#0
 1675              	.LCFI95:
 1676              	 .cfi_def_cfa_register 7
 1677 0006 7860     	 str r0,[r7,#4]
 805:C:/Users/Yushev/git/wpcqi-optiga-trust-charge/optiga/optiga/cmd\optiga_cmd.c ****     optiga_cmd_queue_reset_slot(me);
 1678              	 .loc 1 805 0
 1679 0008 7868     	 ldr r0,[r7,#4]
 1680 000a FFF7FEFF 	 bl optiga_cmd_queue_reset_slot
 806:C:/Users/Yushev/git/wpcqi-optiga-trust-charge/optiga/optiga/cmd\optiga_cmd.c ****     return (OPTIGA_CMD_SUCCESS);
 1681              	 .loc 1 806 0
 1682 000e 0023     	 movs r3,#0
 807:C:/Users/Yushev/git/wpcqi-optiga-trust-charge/optiga/optiga/cmd\optiga_cmd.c **** }
 1683              	 .loc 1 807 0
 1684 0010 1846     	 mov r0,r3
 1685 0012 0837     	 adds r7,r7,#8
 1686              	.LCFI96:
 1687              	 .cfi_def_cfa_offset 8
 1688 0014 BD46     	 mov sp,r7
 1689              	.LCFI97:
 1690              	 .cfi_def_cfa_register 13
 1691              	 
 1692 0016 80BD     	 pop {r7,pc}
 1693              	 .cfi_endproc
 1694              	.LFE17:
 1696              	 .section .text.optiga_cmd_restore_context,"ax",%progbits
 1697              	 .align 2
 1698              	 .thumb
 1699              	 .thumb_func
 1701              	optiga_cmd_restore_context:
 1702              	.LFB18:
 808:C:/Users/Yushev/git/wpcqi-optiga-trust-charge/optiga/optiga/cmd\optiga_cmd.c **** 
 809:C:/Users/Yushev/git/wpcqi-optiga-trust-charge/optiga/optiga/cmd\optiga_cmd.c **** _STATIC_H optiga_lib_status_t optiga_cmd_restore_context(const optiga_cmd_t * me)
 810:C:/Users/Yushev/git/wpcqi-optiga-trust-charge/optiga/optiga/cmd\optiga_cmd.c **** {
 1703              	 .loc 1 810 0
 1704              	 .cfi_startproc
 1705              	 
 1706              	 
 1707 0000 80B5     	 push {r7,lr}
 1708              	.LCFI98:
 1709              	 .cfi_def_cfa_offset 8
 1710              	 .cfi_offset 7,-8
 1711              	 .cfi_offset 14,-4
 1712 0002 84B0     	 sub sp,sp,#16
 1713              	.LCFI99:
 1714              	 .cfi_def_cfa_offset 24
 1715 0004 00AF     	 add r7,sp,#0
 1716              	.LCFI100:
 1717              	 .cfi_def_cfa_register 7
 1718 0006 7860     	 str r0,[r7,#4]
 811:C:/Users/Yushev/git/wpcqi-optiga-trust-charge/optiga/optiga/cmd\optiga_cmd.c **** #define OPTIGA_CMD_OF_CONTEXT_HANDLE_4TH_BYTE         (0x04)
 812:C:/Users/Yushev/git/wpcqi-optiga-trust-charge/optiga/optiga/cmd\optiga_cmd.c ****     uint16_t context_handle_length;
 813:C:/Users/Yushev/git/wpcqi-optiga-trust-charge/optiga/optiga/cmd\optiga_cmd.c ****     optiga_lib_status_t return_status = OPTIGA_CMD_ERROR;
 1719              	 .loc 1 813 0
 1720 0008 40F20223 	 movw r3,#514
 1721 000c FB81     	 strh r3,[r7,#14]
 814:C:/Users/Yushev/git/wpcqi-optiga-trust-charge/optiga/optiga/cmd\optiga_cmd.c ****     do
 815:C:/Users/Yushev/git/wpcqi-optiga-trust-charge/optiga/optiga/cmd\optiga_cmd.c ****     {
 816:C:/Users/Yushev/git/wpcqi-optiga-trust-charge/optiga/optiga/cmd\optiga_cmd.c ****         if (OPTIGA_LIB_PAL_DATA_STORE_NOT_CONFIGURED != me->optiga_context_datastore_id)
 1722              	 .loc 1 816 0
 1723 000e 7B68     	 ldr r3,[r7,#4]
 1724 0010 DB8B     	 ldrh r3,[r3,#30]
 1725 0012 002B     	 cmp r3,#0
 1726 0014 14D0     	 beq .L77
 817:C:/Users/Yushev/git/wpcqi-optiga-trust-charge/optiga/optiga/cmd\optiga_cmd.c ****         {
 818:C:/Users/Yushev/git/wpcqi-optiga-trust-charge/optiga/optiga/cmd\optiga_cmd.c ****             context_handle_length = sizeof(me->p_optiga->optiga_context_handle_buffer);
 1727              	 .loc 1 818 0
 1728 0016 0823     	 movs r3,#8
 1729 0018 BB81     	 strh r3,[r7,#12]
 819:C:/Users/Yushev/git/wpcqi-optiga-trust-charge/optiga/optiga/cmd\optiga_cmd.c ****             //Reading context handle secret from datastore
 820:C:/Users/Yushev/git/wpcqi-optiga-trust-charge/optiga/optiga/cmd\optiga_cmd.c ****             return_status = pal_os_datastore_read(me->optiga_context_datastore_id,
 1730              	 .loc 1 820 0
 1731 001a 7B68     	 ldr r3,[r7,#4]
 1732 001c D98B     	 ldrh r1,[r3,#30]
 821:C:/Users/Yushev/git/wpcqi-optiga-trust-charge/optiga/optiga/cmd\optiga_cmd.c ****                                                   me->p_optiga->optiga_context_handle_buffer,
 1733              	 .loc 1 821 0
 1734 001e 7B68     	 ldr r3,[r7,#4]
 1735 0020 1B68     	 ldr r3,[r3]
 1736 0022 03F27462 	 addw r2,r3,#1652
 820:C:/Users/Yushev/git/wpcqi-optiga-trust-charge/optiga/optiga/cmd\optiga_cmd.c ****                                                   me->p_optiga->optiga_context_handle_buffer,
 1737              	 .loc 1 820 0
 1738 0026 07F10C03 	 add r3,r7,#12
 1739 002a 0846     	 mov r0,r1
 1740 002c 1146     	 mov r1,r2
 1741 002e 1A46     	 mov r2,r3
 1742 0030 FFF7FEFF 	 bl pal_os_datastore_read
 1743 0034 0346     	 mov r3,r0
 1744 0036 FB81     	 strh r3,[r7,#14]
 822:C:/Users/Yushev/git/wpcqi-optiga-trust-charge/optiga/optiga/cmd\optiga_cmd.c ****                                                   &context_handle_length);
 823:C:/Users/Yushev/git/wpcqi-optiga-trust-charge/optiga/optiga/cmd\optiga_cmd.c ****             if (PAL_STATUS_SUCCESS != return_status)
 1745              	 .loc 1 823 0
 1746 0038 FB89     	 ldrh r3,[r7,#14]
 1747 003a 002B     	 cmp r3,#0
 1748 003c 00D0     	 beq .L77
 824:C:/Users/Yushev/git/wpcqi-optiga-trust-charge/optiga/optiga/cmd\optiga_cmd.c ****             {
 825:C:/Users/Yushev/git/wpcqi-optiga-trust-charge/optiga/optiga/cmd\optiga_cmd.c ****                 break;
 1749              	 .loc 1 825 0
 1750 003e 19E0     	 b .L78
 1751              	.L77:
 826:C:/Users/Yushev/git/wpcqi-optiga-trust-charge/optiga/optiga/cmd\optiga_cmd.c ****             }
 827:C:/Users/Yushev/git/wpcqi-optiga-trust-charge/optiga/optiga/cmd\optiga_cmd.c ****         }
 828:C:/Users/Yushev/git/wpcqi-optiga-trust-charge/optiga/optiga/cmd\optiga_cmd.c ****         // Check for valid context value
 829:C:/Users/Yushev/git/wpcqi-optiga-trust-charge/optiga/optiga/cmd\optiga_cmd.c ****         if (0 == optiga_common_get_uint32(me->p_optiga->optiga_context_handle_buffer) &&
 1752              	 .loc 1 829 0
 1753 0040 7B68     	 ldr r3,[r7,#4]
 1754 0042 1B68     	 ldr r3,[r3]
 1755 0044 03F27463 	 addw r3,r3,#1652
 1756 0048 1846     	 mov r0,r3
 1757 004a FFF7FEFF 	 bl optiga_common_get_uint32
 1758 004e 0346     	 mov r3,r0
 1759 0050 002B     	 cmp r3,#0
 1760 0052 0DD1     	 bne .L79
 830:C:/Users/Yushev/git/wpcqi-optiga-trust-charge/optiga/optiga/cmd\optiga_cmd.c ****             0 == optiga_common_get_uint32(&me->p_optiga->optiga_context_handle_buffer[OPTIGA_CMD_OF
 1761              	 .loc 1 830 0 discriminator 1
 1762 0054 7B68     	 ldr r3,[r7,#4]
 1763 0056 1B68     	 ldr r3,[r3]
 1764 0058 03F5CF63 	 add r3,r3,#1656
 1765 005c 1846     	 mov r0,r3
 1766 005e FFF7FEFF 	 bl optiga_common_get_uint32
 1767 0062 0346     	 mov r3,r0
 829:C:/Users/Yushev/git/wpcqi-optiga-trust-charge/optiga/optiga/cmd\optiga_cmd.c ****             0 == optiga_common_get_uint32(&me->p_optiga->optiga_context_handle_buffer[OPTIGA_CMD_OF
 1768              	 .loc 1 829 0 discriminator 1
 1769 0064 002B     	 cmp r3,#0
 1770 0066 03D1     	 bne .L79
 831:C:/Users/Yushev/git/wpcqi-optiga-trust-charge/optiga/optiga/cmd\optiga_cmd.c ****         {
 832:C:/Users/Yushev/git/wpcqi-optiga-trust-charge/optiga/optiga/cmd\optiga_cmd.c ****             return_status = OPTIGA_CMD_ERROR;
 1771              	 .loc 1 832 0
 1772 0068 40F20223 	 movw r3,#514
 1773 006c FB81     	 strh r3,[r7,#14]
 833:C:/Users/Yushev/git/wpcqi-optiga-trust-charge/optiga/optiga/cmd\optiga_cmd.c ****             break;
 1774              	 .loc 1 833 0
 1775 006e 01E0     	 b .L78
 1776              	.L79:
 834:C:/Users/Yushev/git/wpcqi-optiga-trust-charge/optiga/optiga/cmd\optiga_cmd.c ****         }
 835:C:/Users/Yushev/git/wpcqi-optiga-trust-charge/optiga/optiga/cmd\optiga_cmd.c **** 
 836:C:/Users/Yushev/git/wpcqi-optiga-trust-charge/optiga/optiga/cmd\optiga_cmd.c ****         return_status = OPTIGA_LIB_SUCCESS;
 1777              	 .loc 1 836 0
 1778 0070 0023     	 movs r3,#0
 1779 0072 FB81     	 strh r3,[r7,#14]
 1780              	.L78:
 837:C:/Users/Yushev/git/wpcqi-optiga-trust-charge/optiga/optiga/cmd\optiga_cmd.c ****     } while (FALSE);
 838:C:/Users/Yushev/git/wpcqi-optiga-trust-charge/optiga/optiga/cmd\optiga_cmd.c **** #undef OPTIGA_CMD_OFFSET_OF_NEXT_BYTE
 839:C:/Users/Yushev/git/wpcqi-optiga-trust-charge/optiga/optiga/cmd\optiga_cmd.c ****     return (return_status);
 1781              	 .loc 1 839 0
 1782 0074 FB89     	 ldrh r3,[r7,#14]
 840:C:/Users/Yushev/git/wpcqi-optiga-trust-charge/optiga/optiga/cmd\optiga_cmd.c **** }
 1783              	 .loc 1 840 0
 1784 0076 1846     	 mov r0,r3
 1785 0078 1037     	 adds r7,r7,#16
 1786              	.LCFI101:
 1787              	 .cfi_def_cfa_offset 8
 1788 007a BD46     	 mov sp,r7
 1789              	.LCFI102:
 1790              	 .cfi_def_cfa_register 13
 1791              	 
 1792 007c 80BD     	 pop {r7,pc}
 1793              	 .cfi_endproc
 1794              	.LFE18:
 1796 007e 00BF     	 .section .text.optiga_cmd_store_context,"ax",%progbits
 1797              	 .align 2
 1798              	 .thumb
 1799              	 .thumb_func
 1801              	optiga_cmd_store_context:
 1802              	.LFB19:
 841:C:/Users/Yushev/git/wpcqi-optiga-trust-charge/optiga/optiga/cmd\optiga_cmd.c **** _STATIC_H optiga_lib_status_t optiga_cmd_store_context(const optiga_cmd_t * me)
 842:C:/Users/Yushev/git/wpcqi-optiga-trust-charge/optiga/optiga/cmd\optiga_cmd.c **** {
 1803              	 .loc 1 842 0
 1804              	 .cfi_startproc
 1805              	 
 1806              	 
 1807 0000 80B5     	 push {r7,lr}
 1808              	.LCFI103:
 1809              	 .cfi_def_cfa_offset 8
 1810              	 .cfi_offset 7,-8
 1811              	 .cfi_offset 14,-4
 1812 0002 84B0     	 sub sp,sp,#16
 1813              	.LCFI104:
 1814              	 .cfi_def_cfa_offset 24
 1815 0004 00AF     	 add r7,sp,#0
 1816              	.LCFI105:
 1817              	 .cfi_def_cfa_register 7
 1818 0006 7860     	 str r0,[r7,#4]
 843:C:/Users/Yushev/git/wpcqi-optiga-trust-charge/optiga/optiga/cmd\optiga_cmd.c ****     optiga_lib_status_t return_status = OPTIGA_CMD_ERROR;
 1819              	 .loc 1 843 0
 1820 0008 40F20223 	 movw r3,#514
 1821 000c FB81     	 strh r3,[r7,#14]
 844:C:/Users/Yushev/git/wpcqi-optiga-trust-charge/optiga/optiga/cmd\optiga_cmd.c ****     do
 845:C:/Users/Yushev/git/wpcqi-optiga-trust-charge/optiga/optiga/cmd\optiga_cmd.c ****     {
 846:C:/Users/Yushev/git/wpcqi-optiga-trust-charge/optiga/optiga/cmd\optiga_cmd.c ****         if (OPTIGA_LIB_PAL_DATA_STORE_NOT_CONFIGURED != me->optiga_context_datastore_id)
 1822              	 .loc 1 846 0
 1823 000e 7B68     	 ldr r3,[r7,#4]
 1824 0010 DB8B     	 ldrh r3,[r3,#30]
 1825 0012 002B     	 cmp r3,#0
 1826 0014 10D0     	 beq .L82
 847:C:/Users/Yushev/git/wpcqi-optiga-trust-charge/optiga/optiga/cmd\optiga_cmd.c ****         {
 848:C:/Users/Yushev/git/wpcqi-optiga-trust-charge/optiga/optiga/cmd\optiga_cmd.c ****             //Reading context handle secret from datastore
 849:C:/Users/Yushev/git/wpcqi-optiga-trust-charge/optiga/optiga/cmd\optiga_cmd.c ****             return_status = pal_os_datastore_write(me->optiga_context_datastore_id,
 1827              	 .loc 1 849 0
 1828 0016 7B68     	 ldr r3,[r7,#4]
 1829 0018 DA8B     	 ldrh r2,[r3,#30]
 850:C:/Users/Yushev/git/wpcqi-optiga-trust-charge/optiga/optiga/cmd\optiga_cmd.c ****                                                    me->p_optiga->optiga_context_handle_buffer,
 1830              	 .loc 1 850 0
 1831 001a 7B68     	 ldr r3,[r7,#4]
 1832 001c 1B68     	 ldr r3,[r3]
 1833 001e 03F27463 	 addw r3,r3,#1652
 849:C:/Users/Yushev/git/wpcqi-optiga-trust-charge/optiga/optiga/cmd\optiga_cmd.c ****                                                    me->p_optiga->optiga_context_handle_buffer,
 1834              	 .loc 1 849 0
 1835 0022 1046     	 mov r0,r2
 1836 0024 1946     	 mov r1,r3
 1837 0026 0822     	 movs r2,#8
 1838 0028 FFF7FEFF 	 bl pal_os_datastore_write
 1839 002c 0346     	 mov r3,r0
 1840 002e FB81     	 strh r3,[r7,#14]
 851:C:/Users/Yushev/git/wpcqi-optiga-trust-charge/optiga/optiga/cmd\optiga_cmd.c ****                                                    sizeof(me->p_optiga->optiga_context_handle_buffe
 852:C:/Users/Yushev/git/wpcqi-optiga-trust-charge/optiga/optiga/cmd\optiga_cmd.c ****             if (PAL_STATUS_SUCCESS != return_status)
 1841              	 .loc 1 852 0
 1842 0030 FB89     	 ldrh r3,[r7,#14]
 1843 0032 002B     	 cmp r3,#0
 1844 0034 00D0     	 beq .L82
 853:C:/Users/Yushev/git/wpcqi-optiga-trust-charge/optiga/optiga/cmd\optiga_cmd.c ****             {
 854:C:/Users/Yushev/git/wpcqi-optiga-trust-charge/optiga/optiga/cmd\optiga_cmd.c ****                 break;
 1845              	 .loc 1 854 0
 1846 0036 01E0     	 b .L83
 1847              	.L82:
 855:C:/Users/Yushev/git/wpcqi-optiga-trust-charge/optiga/optiga/cmd\optiga_cmd.c ****             }
 856:C:/Users/Yushev/git/wpcqi-optiga-trust-charge/optiga/optiga/cmd\optiga_cmd.c ****         }
 857:C:/Users/Yushev/git/wpcqi-optiga-trust-charge/optiga/optiga/cmd\optiga_cmd.c **** 
 858:C:/Users/Yushev/git/wpcqi-optiga-trust-charge/optiga/optiga/cmd\optiga_cmd.c ****         return_status = OPTIGA_LIB_SUCCESS;
 1848              	 .loc 1 858 0
 1849 0038 0023     	 movs r3,#0
 1850 003a FB81     	 strh r3,[r7,#14]
 1851              	.L83:
 859:C:/Users/Yushev/git/wpcqi-optiga-trust-charge/optiga/optiga/cmd\optiga_cmd.c ****     } while (FALSE);
 860:C:/Users/Yushev/git/wpcqi-optiga-trust-charge/optiga/optiga/cmd\optiga_cmd.c ****     return (return_status);
 1852              	 .loc 1 860 0
 1853 003c FB89     	 ldrh r3,[r7,#14]
 861:C:/Users/Yushev/git/wpcqi-optiga-trust-charge/optiga/optiga/cmd\optiga_cmd.c **** }
 1854              	 .loc 1 861 0
 1855 003e 1846     	 mov r0,r3
 1856 0040 1037     	 adds r7,r7,#16
 1857              	.LCFI106:
 1858              	 .cfi_def_cfa_offset 8
 1859 0042 BD46     	 mov sp,r7
 1860              	.LCFI107:
 1861              	 .cfi_def_cfa_register 13
 1862              	 
 1863 0044 80BD     	 pop {r7,pc}
 1864              	 .cfi_endproc
 1865              	.LFE19:
 1867 0046 00BF     	 .section .text.optiga_cmd_execute_comms_open,"ax",%progbits
 1868              	 .align 2
 1869              	 .thumb
 1870              	 .thumb_func
 1872              	optiga_cmd_execute_comms_open:
 1873              	.LFB20:
 862:C:/Users/Yushev/git/wpcqi-optiga-trust-charge/optiga/optiga/cmd\optiga_cmd.c **** 
 863:C:/Users/Yushev/git/wpcqi-optiga-trust-charge/optiga/optiga/cmd\optiga_cmd.c **** #ifdef OPTIGA_COMMS_SHIELDED_CONNECTION
 864:C:/Users/Yushev/git/wpcqi-optiga-trust-charge/optiga/optiga/cmd\optiga_cmd.c **** _STATIC_H void optiga_cmd_clear_app_ctx(void * p_ctx)
 865:C:/Users/Yushev/git/wpcqi-optiga-trust-charge/optiga/optiga/cmd\optiga_cmd.c **** {
 866:C:/Users/Yushev/git/wpcqi-optiga-trust-charge/optiga/optiga/cmd\optiga_cmd.c ****     optiga_cmd_t * me = (optiga_cmd_t *)p_ctx;
 867:C:/Users/Yushev/git/wpcqi-optiga-trust-charge/optiga/optiga/cmd\optiga_cmd.c ****     /*In the case of hibernate if any low level error occurs while performing
 868:C:/Users/Yushev/git/wpcqi-optiga-trust-charge/optiga/optiga/cmd\optiga_cmd.c ****       close application this section clears the saved application context.*/
 869:C:/Users/Yushev/git/wpcqi-optiga-trust-charge/optiga/optiga/cmd\optiga_cmd.c ****     if ((OPTIGA_CMD_PARAM_INITIALIZE_APP_CONTEXT != me->cmd_param) &&
 870:C:/Users/Yushev/git/wpcqi-optiga-trust-charge/optiga/optiga/cmd\optiga_cmd.c ****         (OPTIGA_COMMS_SESSION_CONTEXT_SAVE == me->manage_context_operation))
 871:C:/Users/Yushev/git/wpcqi-optiga-trust-charge/optiga/optiga/cmd\optiga_cmd.c ****     {
 872:C:/Users/Yushev/git/wpcqi-optiga-trust-charge/optiga/optiga/cmd\optiga_cmd.c ****         pal_os_memset(me->p_optiga->optiga_context_handle_buffer,0,
 873:C:/Users/Yushev/git/wpcqi-optiga-trust-charge/optiga/optiga/cmd\optiga_cmd.c ****                         sizeof(me->p_optiga->optiga_context_handle_buffer));
 874:C:/Users/Yushev/git/wpcqi-optiga-trust-charge/optiga/optiga/cmd\optiga_cmd.c ****         if ((OPTIGA_HIBERNATE_CONTEXT_ID == me->optiga_context_datastore_id) &&
 875:C:/Users/Yushev/git/wpcqi-optiga-trust-charge/optiga/optiga/cmd\optiga_cmd.c ****             (OPTIGA_LIB_PAL_DATA_STORE_NOT_CONFIGURED != me->optiga_context_datastore_id))
 876:C:/Users/Yushev/git/wpcqi-optiga-trust-charge/optiga/optiga/cmd\optiga_cmd.c ****         {
 877:C:/Users/Yushev/git/wpcqi-optiga-trust-charge/optiga/optiga/cmd\optiga_cmd.c ****             //Clearing context handle secret from datastore
 878:C:/Users/Yushev/git/wpcqi-optiga-trust-charge/optiga/optiga/cmd\optiga_cmd.c ****             me->exit_status = pal_os_datastore_write(me->optiga_context_datastore_id,
 879:C:/Users/Yushev/git/wpcqi-optiga-trust-charge/optiga/optiga/cmd\optiga_cmd.c ****                                                      me->p_optiga->optiga_context_handle_buffer,
 880:C:/Users/Yushev/git/wpcqi-optiga-trust-charge/optiga/optiga/cmd\optiga_cmd.c ****                                                      sizeof(me->p_optiga->optiga_context_handle_buf
 881:C:/Users/Yushev/git/wpcqi-optiga-trust-charge/optiga/optiga/cmd\optiga_cmd.c ****             if (PAL_STATUS_SUCCESS != me->exit_status)
 882:C:/Users/Yushev/git/wpcqi-optiga-trust-charge/optiga/optiga/cmd\optiga_cmd.c ****             {
 883:C:/Users/Yushev/git/wpcqi-optiga-trust-charge/optiga/optiga/cmd\optiga_cmd.c ****                 me->cmd_next_execution_state = OPTIGA_CMD_EXEC_ERROR_HANDLER;
 884:C:/Users/Yushev/git/wpcqi-optiga-trust-charge/optiga/optiga/cmd\optiga_cmd.c ****             }
 885:C:/Users/Yushev/git/wpcqi-optiga-trust-charge/optiga/optiga/cmd\optiga_cmd.c ****         }
 886:C:/Users/Yushev/git/wpcqi-optiga-trust-charge/optiga/optiga/cmd\optiga_cmd.c ****     }
 887:C:/Users/Yushev/git/wpcqi-optiga-trust-charge/optiga/optiga/cmd\optiga_cmd.c **** }
 888:C:/Users/Yushev/git/wpcqi-optiga-trust-charge/optiga/optiga/cmd\optiga_cmd.c **** #endif
 889:C:/Users/Yushev/git/wpcqi-optiga-trust-charge/optiga/optiga/cmd\optiga_cmd.c **** 
 890:C:/Users/Yushev/git/wpcqi-optiga-trust-charge/optiga/optiga/cmd\optiga_cmd.c **** _STATIC_H void optiga_cmd_execute_comms_open(optiga_cmd_t * me, uint8_t * exit_loop)
 891:C:/Users/Yushev/git/wpcqi-optiga-trust-charge/optiga/optiga/cmd\optiga_cmd.c **** {
 1874              	 .loc 1 891 0
 1875              	 .cfi_startproc
 1876              	 
 1877              	 
 1878 0000 80B5     	 push {r7,lr}
 1879              	.LCFI108:
 1880              	 .cfi_def_cfa_offset 8
 1881              	 .cfi_offset 7,-8
 1882              	 .cfi_offset 14,-4
 1883 0002 82B0     	 sub sp,sp,#8
 1884              	.LCFI109:
 1885              	 .cfi_def_cfa_offset 16
 1886 0004 00AF     	 add r7,sp,#0
 1887              	.LCFI110:
 1888              	 .cfi_def_cfa_register 7
 1889 0006 7860     	 str r0,[r7,#4]
 1890 0008 3960     	 str r1,[r7]
 1891              	.L94:
 892:C:/Users/Yushev/git/wpcqi-optiga-trust-charge/optiga/optiga/cmd\optiga_cmd.c ****     do
 893:C:/Users/Yushev/git/wpcqi-optiga-trust-charge/optiga/optiga/cmd\optiga_cmd.c ****     {
 894:C:/Users/Yushev/git/wpcqi-optiga-trust-charge/optiga/optiga/cmd\optiga_cmd.c ****         *exit_loop = TRUE;
 1892              	 .loc 1 894 0
 1893 000a 3B68     	 ldr r3,[r7]
 1894 000c 0122     	 movs r2,#1
 1895 000e 1A70     	 strb r2,[r3]
 895:C:/Users/Yushev/git/wpcqi-optiga-trust-charge/optiga/optiga/cmd\optiga_cmd.c ****         switch (me->cmd_sub_execution_state)
 1896              	 .loc 1 895 0
 1897 0010 7B68     	 ldr r3,[r7,#4]
 1898 0012 DB7D     	 ldrb r3,[r3,#23]
 1899 0014 012B     	 cmp r3,#1
 1900 0016 1ED0     	 beq .L87
 1901 0018 022B     	 cmp r3,#2
 1902 001a 40D0     	 beq .L88
 1903 001c 002B     	 cmp r3,#0
 1904 001e 4FD1     	 bne .L95
 896:C:/Users/Yushev/git/wpcqi-optiga-trust-charge/optiga/optiga/cmd\optiga_cmd.c ****         {
 897:C:/Users/Yushev/git/wpcqi-optiga-trust-charge/optiga/optiga/cmd\optiga_cmd.c ****             case OPTIGA_CMD_EXEC_COMMS_OPEN_ACQUIRE_LOCK:
 898:C:/Users/Yushev/git/wpcqi-optiga-trust-charge/optiga/optiga/cmd\optiga_cmd.c ****             {
 899:C:/Users/Yushev/git/wpcqi-optiga-trust-charge/optiga/optiga/cmd\optiga_cmd.c **** 
 900:C:/Users/Yushev/git/wpcqi-optiga-trust-charge/optiga/optiga/cmd\optiga_cmd.c ****                 // add to queue and exit
 901:C:/Users/Yushev/git/wpcqi-optiga-trust-charge/optiga/optiga/cmd\optiga_cmd.c ****                 me->exit_status = optiga_cmd_request_lock(me, OPTIGA_CMD_QUEUE_REQUEST_LOCK);
 1905              	 .loc 1 901 0
 1906 0020 7868     	 ldr r0,[r7,#4]
 1907 0022 2121     	 movs r1,#33
 1908 0024 FFF7FEFF 	 bl optiga_cmd_request_lock
 1909 0028 0346     	 mov r3,r0
 1910 002a 1A46     	 mov r2,r3
 1911 002c 7B68     	 ldr r3,[r7,#4]
 1912 002e 9A83     	 strh r2,[r3,#28]
 902:C:/Users/Yushev/git/wpcqi-optiga-trust-charge/optiga/optiga/cmd\optiga_cmd.c ****                 if (OPTIGA_LIB_SUCCESS != me->exit_status)
 1913              	 .loc 1 902 0
 1914 0030 7B68     	 ldr r3,[r7,#4]
 1915 0032 9B8B     	 ldrh r3,[r3,#28]
 1916 0034 002B     	 cmp r3,#0
 1917 0036 0AD0     	 beq .L90
 903:C:/Users/Yushev/git/wpcqi-optiga-trust-charge/optiga/optiga/cmd\optiga_cmd.c ****                 {
 904:C:/Users/Yushev/git/wpcqi-optiga-trust-charge/optiga/optiga/cmd\optiga_cmd.c ****                     EXIT_STATE_WITH_ERROR(me,*exit_loop);
 1918              	 .loc 1 904 0
 1919 0038 7B68     	 ldr r3,[r7,#4]
 1920 003a 0422     	 movs r2,#4
 1921 003c 9A75     	 strb r2,[r3,#22]
 1922 003e 7B68     	 ldr r3,[r7,#4]
 1923 0040 40F20222 	 movw r2,#514
 1924 0044 9A83     	 strh r2,[r3,#28]
 1925 0046 3B68     	 ldr r3,[r7]
 1926 0048 0022     	 movs r2,#0
 1927 004a 1A70     	 strb r2,[r3]
 905:C:/Users/Yushev/git/wpcqi-optiga-trust-charge/optiga/optiga/cmd\optiga_cmd.c ****                     break;
 1928              	 .loc 1 905 0
 1929 004c 43E0     	 b .L91
 1930              	.L90:
 906:C:/Users/Yushev/git/wpcqi-optiga-trust-charge/optiga/optiga/cmd\optiga_cmd.c ****                 }
 907:C:/Users/Yushev/git/wpcqi-optiga-trust-charge/optiga/optiga/cmd\optiga_cmd.c ****                 me->cmd_sub_execution_state = OPTIGA_CMD_EXEC_COMMS_OPEN_START;
 1931              	 .loc 1 907 0
 1932 004e 7B68     	 ldr r3,[r7,#4]
 1933 0050 0122     	 movs r2,#1
 1934 0052 DA75     	 strb r2,[r3,#23]
 908:C:/Users/Yushev/git/wpcqi-optiga-trust-charge/optiga/optiga/cmd\optiga_cmd.c ****                 break;
 1935              	 .loc 1 908 0
 1936 0054 3FE0     	 b .L91
 1937              	.L87:
 909:C:/Users/Yushev/git/wpcqi-optiga-trust-charge/optiga/optiga/cmd\optiga_cmd.c ****             }
 910:C:/Users/Yushev/git/wpcqi-optiga-trust-charge/optiga/optiga/cmd\optiga_cmd.c ****             case OPTIGA_CMD_EXEC_COMMS_OPEN_START:
 911:C:/Users/Yushev/git/wpcqi-optiga-trust-charge/optiga/optiga/cmd\optiga_cmd.c ****             {
 912:C:/Users/Yushev/git/wpcqi-optiga-trust-charge/optiga/optiga/cmd\optiga_cmd.c **** #ifdef OPTIGA_COMMS_SHIELDED_CONNECTION
 913:C:/Users/Yushev/git/wpcqi-optiga-trust-charge/optiga/optiga/cmd\optiga_cmd.c ****                 me->p_optiga->p_optiga_comms->protection_level =  me->protection_level;
 914:C:/Users/Yushev/git/wpcqi-optiga-trust-charge/optiga/optiga/cmd\optiga_cmd.c ****                 me->p_optiga->p_optiga_comms->protocol_version = me->protocol_version;
 915:C:/Users/Yushev/git/wpcqi-optiga-trust-charge/optiga/optiga/cmd\optiga_cmd.c ****                 me->p_optiga->p_optiga_comms->manage_context_operation = me->manage_context_operati
 916:C:/Users/Yushev/git/wpcqi-optiga-trust-charge/optiga/optiga/cmd\optiga_cmd.c ****                 me->p_optiga->p_optiga_comms->p_pal_os_event_ctx = me->p_optiga->p_pal_os_event_ctx
 917:C:/Users/Yushev/git/wpcqi-optiga-trust-charge/optiga/optiga/cmd\optiga_cmd.c **** #endif //OPTIGA_COMMS_SHIELDED_CONNECTION
 918:C:/Users/Yushev/git/wpcqi-optiga-trust-charge/optiga/optiga/cmd\optiga_cmd.c **** 
 919:C:/Users/Yushev/git/wpcqi-optiga-trust-charge/optiga/optiga/cmd\optiga_cmd.c ****                 (void)optiga_comms_set_callback_context(me->p_optiga->p_optiga_comms, me);
 1938              	 .loc 1 919 0
 1939 0056 7B68     	 ldr r3,[r7,#4]
 1940 0058 1B68     	 ldr r3,[r3]
 1941 005a 1B68     	 ldr r3,[r3]
 1942 005c 1846     	 mov r0,r3
 1943 005e 7968     	 ldr r1,[r7,#4]
 1944 0060 FFF7FEFF 	 bl optiga_comms_set_callback_context
 920:C:/Users/Yushev/git/wpcqi-optiga-trust-charge/optiga/optiga/cmd\optiga_cmd.c ****                 me->exit_status = optiga_comms_open(me->p_optiga->p_optiga_comms);
 1945              	 .loc 1 920 0
 1946 0064 7B68     	 ldr r3,[r7,#4]
 1947 0066 1B68     	 ldr r3,[r3]
 1948 0068 1B68     	 ldr r3,[r3]
 1949 006a 1846     	 mov r0,r3
 1950 006c FFF7FEFF 	 bl optiga_comms_open
 1951 0070 0346     	 mov r3,r0
 1952 0072 1A46     	 mov r2,r3
 1953 0074 7B68     	 ldr r3,[r7,#4]
 1954 0076 9A83     	 strh r2,[r3,#28]
 921:C:/Users/Yushev/git/wpcqi-optiga-trust-charge/optiga/optiga/cmd\optiga_cmd.c **** 
 922:C:/Users/Yushev/git/wpcqi-optiga-trust-charge/optiga/optiga/cmd\optiga_cmd.c ****                 if (OPTIGA_LIB_SUCCESS != me->exit_status)
 1955              	 .loc 1 922 0
 1956 0078 7B68     	 ldr r3,[r7,#4]
 1957 007a 9B8B     	 ldrh r3,[r3,#28]
 1958 007c 002B     	 cmp r3,#0
 1959 007e 0AD0     	 beq .L92
 923:C:/Users/Yushev/git/wpcqi-optiga-trust-charge/optiga/optiga/cmd\optiga_cmd.c ****                 {
 924:C:/Users/Yushev/git/wpcqi-optiga-trust-charge/optiga/optiga/cmd\optiga_cmd.c ****                     EXIT_STATE_WITH_ERROR(me,*exit_loop);
 1960              	 .loc 1 924 0
 1961 0080 7B68     	 ldr r3,[r7,#4]
 1962 0082 0422     	 movs r2,#4
 1963 0084 9A75     	 strb r2,[r3,#22]
 1964 0086 7B68     	 ldr r3,[r7,#4]
 1965 0088 40F20222 	 movw r2,#514
 1966 008c 9A83     	 strh r2,[r3,#28]
 1967 008e 3B68     	 ldr r3,[r7]
 1968 0090 0022     	 movs r2,#0
 1969 0092 1A70     	 strb r2,[r3]
 925:C:/Users/Yushev/git/wpcqi-optiga-trust-charge/optiga/optiga/cmd\optiga_cmd.c ****                     break;
 1970              	 .loc 1 925 0
 1971 0094 1FE0     	 b .L91
 1972              	.L92:
 926:C:/Users/Yushev/git/wpcqi-optiga-trust-charge/optiga/optiga/cmd\optiga_cmd.c ****                 }
 927:C:/Users/Yushev/git/wpcqi-optiga-trust-charge/optiga/optiga/cmd\optiga_cmd.c ****                 me->cmd_sub_execution_state = OPTIGA_CMD_EXEC_COMMS_OPEN_DONE;
 1973              	 .loc 1 927 0
 1974 0096 7B68     	 ldr r3,[r7,#4]
 1975 0098 0222     	 movs r2,#2
 1976 009a DA75     	 strb r2,[r3,#23]
 928:C:/Users/Yushev/git/wpcqi-optiga-trust-charge/optiga/optiga/cmd\optiga_cmd.c ****                 break;
 1977              	 .loc 1 928 0
 1978 009c 1BE0     	 b .L91
 1979              	.L88:
 929:C:/Users/Yushev/git/wpcqi-optiga-trust-charge/optiga/optiga/cmd\optiga_cmd.c ****             }
 930:C:/Users/Yushev/git/wpcqi-optiga-trust-charge/optiga/optiga/cmd\optiga_cmd.c ****             case OPTIGA_CMD_EXEC_COMMS_OPEN_DONE:
 931:C:/Users/Yushev/git/wpcqi-optiga-trust-charge/optiga/optiga/cmd\optiga_cmd.c ****             {
 932:C:/Users/Yushev/git/wpcqi-optiga-trust-charge/optiga/optiga/cmd\optiga_cmd.c ****                 pal_os_event_register_callback_oneshot(me->p_optiga->p_pal_os_event_ctx,
 1980              	 .loc 1 932 0
 1981 009e 7B68     	 ldr r3,[r7,#4]
 1982 00a0 1B68     	 ldr r3,[r3]
 1983 00a2 D3F86C36 	 ldr r3,[r3,#1644]
 1984 00a6 1846     	 mov r0,r3
 1985 00a8 1049     	 ldr r1,.L96
 1986 00aa 7A68     	 ldr r2,[r7,#4]
 1987 00ac 3223     	 movs r3,#50
 1988 00ae FFF7FEFF 	 bl pal_os_event_register_callback_oneshot
 933:C:/Users/Yushev/git/wpcqi-optiga-trust-charge/optiga/optiga/cmd\optiga_cmd.c ****                                                        (register_callback)optiga_cmd_event_trigger_
 934:C:/Users/Yushev/git/wpcqi-optiga-trust-charge/optiga/optiga/cmd\optiga_cmd.c ****                                                        me, OPTIGA_CMD_SCHEDULER_RUNNING_TIME_MS);
 935:C:/Users/Yushev/git/wpcqi-optiga-trust-charge/optiga/optiga/cmd\optiga_cmd.c ****                 me->cmd_next_execution_state = OPTIGA_CMD_EXEC_PREPARE_COMMAND;
 1989              	 .loc 1 935 0
 1990 00b2 7B68     	 ldr r3,[r7,#4]
 1991 00b4 0222     	 movs r2,#2
 1992 00b6 9A75     	 strb r2,[r3,#22]
 936:C:/Users/Yushev/git/wpcqi-optiga-trust-charge/optiga/optiga/cmd\optiga_cmd.c ****                 me->cmd_sub_execution_state = OPTIGA_CMD_EXEC_PREPARE_APDU;
 1993              	 .loc 1 936 0
 1994 00b8 7B68     	 ldr r3,[r7,#4]
 1995 00ba 0822     	 movs r2,#8
 1996 00bc DA75     	 strb r2,[r3,#23]
 937:C:/Users/Yushev/git/wpcqi-optiga-trust-charge/optiga/optiga/cmd\optiga_cmd.c ****                 break;
 1997              	 .loc 1 937 0
 1998 00be 0AE0     	 b .L91
 1999              	.L95:
 938:C:/Users/Yushev/git/wpcqi-optiga-trust-charge/optiga/optiga/cmd\optiga_cmd.c ****             }
 939:C:/Users/Yushev/git/wpcqi-optiga-trust-charge/optiga/optiga/cmd\optiga_cmd.c ****             default:
 940:C:/Users/Yushev/git/wpcqi-optiga-trust-charge/optiga/optiga/cmd\optiga_cmd.c ****                 EXIT_STATE_WITH_ERROR(me,*exit_loop);
 2000              	 .loc 1 940 0
 2001 00c0 7B68     	 ldr r3,[r7,#4]
 2002 00c2 0422     	 movs r2,#4
 2003 00c4 9A75     	 strb r2,[r3,#22]
 2004 00c6 7B68     	 ldr r3,[r7,#4]
 2005 00c8 40F20222 	 movw r2,#514
 2006 00cc 9A83     	 strh r2,[r3,#28]
 2007 00ce 3B68     	 ldr r3,[r7]
 2008 00d0 0022     	 movs r2,#0
 2009 00d2 1A70     	 strb r2,[r3]
 941:C:/Users/Yushev/git/wpcqi-optiga-trust-charge/optiga/optiga/cmd\optiga_cmd.c ****             break;
 2010              	 .loc 1 941 0
 2011 00d4 00BF     	 nop
 2012              	.L91:
 942:C:/Users/Yushev/git/wpcqi-optiga-trust-charge/optiga/optiga/cmd\optiga_cmd.c ****             //lint --e{788} suppress "Not all states are used as same enum is used for both main an
 943:C:/Users/Yushev/git/wpcqi-optiga-trust-charge/optiga/optiga/cmd\optiga_cmd.c ****         }
 944:C:/Users/Yushev/git/wpcqi-optiga-trust-charge/optiga/optiga/cmd\optiga_cmd.c **** 
 945:C:/Users/Yushev/git/wpcqi-optiga-trust-charge/optiga/optiga/cmd\optiga_cmd.c ****     } while ((FALSE == *exit_loop) && (OPTIGA_CMD_EXEC_COMMS_OPEN == me->cmd_next_execution_state))
 2013              	 .loc 1 945 0
 2014 00d6 3B68     	 ldr r3,[r7]
 2015 00d8 1B78     	 ldrb r3,[r3]
 2016 00da 002B     	 cmp r3,#0
 2017 00dc 03D1     	 bne .L85
 2018              	 .loc 1 945 0 is_stmt 0 discriminator 1
 2019 00de 7B68     	 ldr r3,[r7,#4]
 2020 00e0 9B7D     	 ldrb r3,[r3,#22]
 2021 00e2 002B     	 cmp r3,#0
 2022 00e4 91D0     	 beq .L94
 2023              	.L85:
 946:C:/Users/Yushev/git/wpcqi-optiga-trust-charge/optiga/optiga/cmd\optiga_cmd.c **** }
 2024              	 .loc 1 946 0 is_stmt 1
 2025 00e6 0837     	 adds r7,r7,#8
 2026              	.LCFI111:
 2027              	 .cfi_def_cfa_offset 8
 2028 00e8 BD46     	 mov sp,r7
 2029              	.LCFI112:
 2030              	 .cfi_def_cfa_register 13
 2031              	 
 2032 00ea 80BD     	 pop {r7,pc}
 2033              	.L97:
 2034              	 .align 2
 2035              	.L96:
 2036 00ec 00000000 	 .word optiga_cmd_event_trigger_execute
 2037              	 .cfi_endproc
 2038              	.LFE20:
 2040              	 .section .text.optiga_cmd_execute_comms_close,"ax",%progbits
 2041              	 .align 2
 2042              	 .thumb
 2043              	 .thumb_func
 2045              	optiga_cmd_execute_comms_close:
 2046              	.LFB21:
 947:C:/Users/Yushev/git/wpcqi-optiga-trust-charge/optiga/optiga/cmd\optiga_cmd.c **** 
 948:C:/Users/Yushev/git/wpcqi-optiga-trust-charge/optiga/optiga/cmd\optiga_cmd.c **** _STATIC_H void optiga_cmd_execute_comms_close(optiga_cmd_t * me, uint8_t * exit_loop)
 949:C:/Users/Yushev/git/wpcqi-optiga-trust-charge/optiga/optiga/cmd\optiga_cmd.c **** {
 2047              	 .loc 1 949 0
 2048              	 .cfi_startproc
 2049              	 
 2050              	 
 2051 0000 80B5     	 push {r7,lr}
 2052              	.LCFI113:
 2053              	 .cfi_def_cfa_offset 8
 2054              	 .cfi_offset 7,-8
 2055              	 .cfi_offset 14,-4
 2056 0002 82B0     	 sub sp,sp,#8
 2057              	.LCFI114:
 2058              	 .cfi_def_cfa_offset 16
 2059 0004 00AF     	 add r7,sp,#0
 2060              	.LCFI115:
 2061              	 .cfi_def_cfa_register 7
 2062 0006 7860     	 str r0,[r7,#4]
 2063 0008 3960     	 str r1,[r7]
 2064              	.L105:
 950:C:/Users/Yushev/git/wpcqi-optiga-trust-charge/optiga/optiga/cmd\optiga_cmd.c ****     do
 951:C:/Users/Yushev/git/wpcqi-optiga-trust-charge/optiga/optiga/cmd\optiga_cmd.c ****     {
 952:C:/Users/Yushev/git/wpcqi-optiga-trust-charge/optiga/optiga/cmd\optiga_cmd.c ****         *exit_loop = TRUE;
 2065              	 .loc 1 952 0
 2066 000a 3B68     	 ldr r3,[r7]
 2067 000c 0122     	 movs r2,#1
 2068 000e 1A70     	 strb r2,[r3]
 953:C:/Users/Yushev/git/wpcqi-optiga-trust-charge/optiga/optiga/cmd\optiga_cmd.c ****         switch (me->cmd_sub_execution_state)
 2069              	 .loc 1 953 0
 2070 0010 7B68     	 ldr r3,[r7,#4]
 2071 0012 DB7D     	 ldrb r3,[r3,#23]
 2072 0014 032B     	 cmp r3,#3
 2073 0016 02D0     	 beq .L100
 2074 0018 042B     	 cmp r3,#4
 2075 001a 33D0     	 beq .L101
 2076 001c 3AE0     	 b .L106
 2077              	.L100:
 954:C:/Users/Yushev/git/wpcqi-optiga-trust-charge/optiga/optiga/cmd\optiga_cmd.c ****         {
 955:C:/Users/Yushev/git/wpcqi-optiga-trust-charge/optiga/optiga/cmd\optiga_cmd.c ****             case OPTIGA_CMD_EXEC_COMMS_CLOSE_START:
 956:C:/Users/Yushev/git/wpcqi-optiga-trust-charge/optiga/optiga/cmd\optiga_cmd.c ****             {
 957:C:/Users/Yushev/git/wpcqi-optiga-trust-charge/optiga/optiga/cmd\optiga_cmd.c **** #ifdef OPTIGA_COMMS_SHIELDED_CONNECTION
 958:C:/Users/Yushev/git/wpcqi-optiga-trust-charge/optiga/optiga/cmd\optiga_cmd.c ****                 // In case PRL is enabled and save context is not invoked or is PRL is not enabled,
 959:C:/Users/Yushev/git/wpcqi-optiga-trust-charge/optiga/optiga/cmd\optiga_cmd.c ****                 //change state to OPTIGA_CMD_EXEC_COMMS_CLOSE_DONE, since it synchronous in nature
 960:C:/Users/Yushev/git/wpcqi-optiga-trust-charge/optiga/optiga/cmd\optiga_cmd.c ****                 if (OPTIGA_COMMS_SESSION_CONTEXT_SAVE != me->manage_context_operation)
 961:C:/Users/Yushev/git/wpcqi-optiga-trust-charge/optiga/optiga/cmd\optiga_cmd.c ****                 {
 962:C:/Users/Yushev/git/wpcqi-optiga-trust-charge/optiga/optiga/cmd\optiga_cmd.c ****                     me->cmd_sub_execution_state = OPTIGA_CMD_EXEC_COMMS_CLOSE_DONE;
 963:C:/Users/Yushev/git/wpcqi-optiga-trust-charge/optiga/optiga/cmd\optiga_cmd.c ****                 }
 964:C:/Users/Yushev/git/wpcqi-optiga-trust-charge/optiga/optiga/cmd\optiga_cmd.c ****                 me->p_optiga->p_optiga_comms->protection_level =  me->protection_level;
 965:C:/Users/Yushev/git/wpcqi-optiga-trust-charge/optiga/optiga/cmd\optiga_cmd.c ****                 me->p_optiga->p_optiga_comms->protocol_version = me->protocol_version;
 966:C:/Users/Yushev/git/wpcqi-optiga-trust-charge/optiga/optiga/cmd\optiga_cmd.c ****                 if (0 != me->p_optiga->protection_level_state)
 967:C:/Users/Yushev/git/wpcqi-optiga-trust-charge/optiga/optiga/cmd\optiga_cmd.c ****                 {
 968:C:/Users/Yushev/git/wpcqi-optiga-trust-charge/optiga/optiga/cmd\optiga_cmd.c ****                     me->p_optiga->p_optiga_comms->manage_context_operation = me->manage_context_ope
 969:C:/Users/Yushev/git/wpcqi-optiga-trust-charge/optiga/optiga/cmd\optiga_cmd.c ****                 }
 970:C:/Users/Yushev/git/wpcqi-optiga-trust-charge/optiga/optiga/cmd\optiga_cmd.c ****                 else
 971:C:/Users/Yushev/git/wpcqi-optiga-trust-charge/optiga/optiga/cmd\optiga_cmd.c ****                 {
 972:C:/Users/Yushev/git/wpcqi-optiga-trust-charge/optiga/optiga/cmd\optiga_cmd.c ****                     me->p_optiga->p_optiga_comms->manage_context_operation = OPTIGA_COMMS_SESSION_C
 973:C:/Users/Yushev/git/wpcqi-optiga-trust-charge/optiga/optiga/cmd\optiga_cmd.c ****                 }
 974:C:/Users/Yushev/git/wpcqi-optiga-trust-charge/optiga/optiga/cmd\optiga_cmd.c ****                 me->p_optiga->protection_level_state = 0;
 975:C:/Users/Yushev/git/wpcqi-optiga-trust-charge/optiga/optiga/cmd\optiga_cmd.c **** #endif //OPTIGA_COMMS_SHIELDED_CONNECTION
 976:C:/Users/Yushev/git/wpcqi-optiga-trust-charge/optiga/optiga/cmd\optiga_cmd.c ****                 me->cmd_sub_execution_state = OPTIGA_CMD_EXEC_COMMS_CLOSE_DONE;
 2078              	 .loc 1 976 0
 2079 001e 7B68     	 ldr r3,[r7,#4]
 2080 0020 0422     	 movs r2,#4
 2081 0022 DA75     	 strb r2,[r3,#23]
 977:C:/Users/Yushev/git/wpcqi-optiga-trust-charge/optiga/optiga/cmd\optiga_cmd.c **** 
 978:C:/Users/Yushev/git/wpcqi-optiga-trust-charge/optiga/optiga/cmd\optiga_cmd.c ****                 me->p_optiga->p_optiga_comms->p_pal_os_event_ctx = me->p_optiga->p_pal_os_event_ctx
 2082              	 .loc 1 978 0
 2083 0024 7B68     	 ldr r3,[r7,#4]
 2084 0026 1B68     	 ldr r3,[r3]
 2085 0028 1B68     	 ldr r3,[r3]
 2086 002a 7A68     	 ldr r2,[r7,#4]
 2087 002c 1268     	 ldr r2,[r2]
 2088 002e D2F86C26 	 ldr r2,[r2,#1644]
 2089 0032 1A61     	 str r2,[r3,#16]
 979:C:/Users/Yushev/git/wpcqi-optiga-trust-charge/optiga/optiga/cmd\optiga_cmd.c **** 
 980:C:/Users/Yushev/git/wpcqi-optiga-trust-charge/optiga/optiga/cmd\optiga_cmd.c ****                 (void)optiga_comms_set_callback_context(me->p_optiga->p_optiga_comms, me);
 2090              	 .loc 1 980 0
 2091 0034 7B68     	 ldr r3,[r7,#4]
 2092 0036 1B68     	 ldr r3,[r3]
 2093 0038 1B68     	 ldr r3,[r3]
 2094 003a 1846     	 mov r0,r3
 2095 003c 7968     	 ldr r1,[r7,#4]
 2096 003e FFF7FEFF 	 bl optiga_comms_set_callback_context
 981:C:/Users/Yushev/git/wpcqi-optiga-trust-charge/optiga/optiga/cmd\optiga_cmd.c ****                 me->exit_status = optiga_comms_close(me->p_optiga->p_optiga_comms);
 2097              	 .loc 1 981 0
 2098 0042 7B68     	 ldr r3,[r7,#4]
 2099 0044 1B68     	 ldr r3,[r3]
 2100 0046 1B68     	 ldr r3,[r3]
 2101 0048 1846     	 mov r0,r3
 2102 004a FFF7FEFF 	 bl optiga_comms_close
 2103 004e 0346     	 mov r3,r0
 2104 0050 1A46     	 mov r2,r3
 2105 0052 7B68     	 ldr r3,[r7,#4]
 2106 0054 9A83     	 strh r2,[r3,#28]
 982:C:/Users/Yushev/git/wpcqi-optiga-trust-charge/optiga/optiga/cmd\optiga_cmd.c **** 
 983:C:/Users/Yushev/git/wpcqi-optiga-trust-charge/optiga/optiga/cmd\optiga_cmd.c ****                 if (OPTIGA_LIB_SUCCESS != me->exit_status)
 2107              	 .loc 1 983 0
 2108 0056 7B68     	 ldr r3,[r7,#4]
 2109 0058 9B8B     	 ldrh r3,[r3,#28]
 2110 005a 002B     	 cmp r3,#0
 2111 005c 0AD0     	 beq .L102
 984:C:/Users/Yushev/git/wpcqi-optiga-trust-charge/optiga/optiga/cmd\optiga_cmd.c ****                 {
 985:C:/Users/Yushev/git/wpcqi-optiga-trust-charge/optiga/optiga/cmd\optiga_cmd.c ****                     EXIT_STATE_WITH_ERROR(me,*exit_loop);
 2112              	 .loc 1 985 0
 2113 005e 7B68     	 ldr r3,[r7,#4]
 2114 0060 0422     	 movs r2,#4
 2115 0062 9A75     	 strb r2,[r3,#22]
 2116 0064 7B68     	 ldr r3,[r7,#4]
 2117 0066 40F20222 	 movw r2,#514
 2118 006a 9A83     	 strh r2,[r3,#28]
 2119 006c 3B68     	 ldr r3,[r7]
 2120 006e 0022     	 movs r2,#0
 2121 0070 1A70     	 strb r2,[r3]
 986:C:/Users/Yushev/git/wpcqi-optiga-trust-charge/optiga/optiga/cmd\optiga_cmd.c ****                     break;
 2122              	 .loc 1 986 0
 2123 0072 1AE0     	 b .L103
 2124              	.L102:
 987:C:/Users/Yushev/git/wpcqi-optiga-trust-charge/optiga/optiga/cmd\optiga_cmd.c ****                 }
 988:C:/Users/Yushev/git/wpcqi-optiga-trust-charge/optiga/optiga/cmd\optiga_cmd.c **** 
 989:C:/Users/Yushev/git/wpcqi-optiga-trust-charge/optiga/optiga/cmd\optiga_cmd.c **** #ifdef OPTIGA_COMMS_SHIELDED_CONNECTION
 990:C:/Users/Yushev/git/wpcqi-optiga-trust-charge/optiga/optiga/cmd\optiga_cmd.c ****                 // In case PRL is enabled and save context is requested,
 991:C:/Users/Yushev/git/wpcqi-optiga-trust-charge/optiga/optiga/cmd\optiga_cmd.c ****                 //change state to OPTIGA_CMD_EXEC_COMMS_CLOSE_DONE, since it asynchronous in nature
 992:C:/Users/Yushev/git/wpcqi-optiga-trust-charge/optiga/optiga/cmd\optiga_cmd.c ****                 if (OPTIGA_COMMS_SESSION_CONTEXT_SAVE == me->manage_context_operation)
 993:C:/Users/Yushev/git/wpcqi-optiga-trust-charge/optiga/optiga/cmd\optiga_cmd.c ****                 {
 994:C:/Users/Yushev/git/wpcqi-optiga-trust-charge/optiga/optiga/cmd\optiga_cmd.c ****                     me->cmd_sub_execution_state = OPTIGA_CMD_EXEC_COMMS_CLOSE_DONE;
 995:C:/Users/Yushev/git/wpcqi-optiga-trust-charge/optiga/optiga/cmd\optiga_cmd.c ****                     *exit_loop = TRUE;
 996:C:/Users/Yushev/git/wpcqi-optiga-trust-charge/optiga/optiga/cmd\optiga_cmd.c ****                 }
 997:C:/Users/Yushev/git/wpcqi-optiga-trust-charge/optiga/optiga/cmd\optiga_cmd.c ****                 // For synchronous behavior: After exit from optiga_comms_close, release lock
 998:C:/Users/Yushev/git/wpcqi-optiga-trust-charge/optiga/optiga/cmd\optiga_cmd.c ****                 else
 999:C:/Users/Yushev/git/wpcqi-optiga-trust-charge/optiga/optiga/cmd\optiga_cmd.c ****                 {
1000:C:/Users/Yushev/git/wpcqi-optiga-trust-charge/optiga/optiga/cmd\optiga_cmd.c ****                     me->exit_status = optiga_cmd_release_lock(me);
1001:C:/Users/Yushev/git/wpcqi-optiga-trust-charge/optiga/optiga/cmd\optiga_cmd.c ****                 }
1002:C:/Users/Yushev/git/wpcqi-optiga-trust-charge/optiga/optiga/cmd\optiga_cmd.c **** #else
1003:C:/Users/Yushev/git/wpcqi-optiga-trust-charge/optiga/optiga/cmd\optiga_cmd.c ****                 me->exit_status = optiga_cmd_release_lock(me);
 2125              	 .loc 1 1003 0
 2126 0074 7868     	 ldr r0,[r7,#4]
 2127 0076 FFF7FEFF 	 bl optiga_cmd_release_lock
 2128 007a 0346     	 mov r3,r0
 2129 007c 1A46     	 mov r2,r3
 2130 007e 7B68     	 ldr r3,[r7,#4]
 2131 0080 9A83     	 strh r2,[r3,#28]
1004:C:/Users/Yushev/git/wpcqi-optiga-trust-charge/optiga/optiga/cmd\optiga_cmd.c **** #endif //OPTIGA_COMMS_SHIELDED_CONNECTION
1005:C:/Users/Yushev/git/wpcqi-optiga-trust-charge/optiga/optiga/cmd\optiga_cmd.c ****                 break;
 2132              	 .loc 1 1005 0
 2133 0082 12E0     	 b .L103
 2134              	.L101:
1006:C:/Users/Yushev/git/wpcqi-optiga-trust-charge/optiga/optiga/cmd\optiga_cmd.c ****             }
1007:C:/Users/Yushev/git/wpcqi-optiga-trust-charge/optiga/optiga/cmd\optiga_cmd.c ****             case OPTIGA_CMD_EXEC_COMMS_CLOSE_DONE:
1008:C:/Users/Yushev/git/wpcqi-optiga-trust-charge/optiga/optiga/cmd\optiga_cmd.c ****             {
1009:C:/Users/Yushev/git/wpcqi-optiga-trust-charge/optiga/optiga/cmd\optiga_cmd.c ****                 me->handler(me->caller_context, OPTIGA_LIB_SUCCESS);
 2135              	 .loc 1 1009 0
 2136 0084 7B68     	 ldr r3,[r7,#4]
 2137 0086 1B69     	 ldr r3,[r3,#16]
 2138 0088 7A68     	 ldr r2,[r7,#4]
 2139 008a D268     	 ldr r2,[r2,#12]
 2140 008c 1046     	 mov r0,r2
 2141 008e 0021     	 movs r1,#0
 2142 0090 9847     	 blx r3
1010:C:/Users/Yushev/git/wpcqi-optiga-trust-charge/optiga/optiga/cmd\optiga_cmd.c **** #ifdef OPTIGA_COMMS_SHIELDED_CONNECTION
1011:C:/Users/Yushev/git/wpcqi-optiga-trust-charge/optiga/optiga/cmd\optiga_cmd.c ****                 // For asynchronous behavior, change state to release the lock
1012:C:/Users/Yushev/git/wpcqi-optiga-trust-charge/optiga/optiga/cmd\optiga_cmd.c ****                 if (OPTIGA_COMMS_SESSION_CONTEXT_SAVE == me->manage_context_operation)
1013:C:/Users/Yushev/git/wpcqi-optiga-trust-charge/optiga/optiga/cmd\optiga_cmd.c ****                 {
1014:C:/Users/Yushev/git/wpcqi-optiga-trust-charge/optiga/optiga/cmd\optiga_cmd.c ****                     me->exit_status = optiga_cmd_release_lock(me);
1015:C:/Users/Yushev/git/wpcqi-optiga-trust-charge/optiga/optiga/cmd\optiga_cmd.c ****                 }
1016:C:/Users/Yushev/git/wpcqi-optiga-trust-charge/optiga/optiga/cmd\optiga_cmd.c **** #endif //OPTIGA_COMMS_SHIELDED_CONNECTION
1017:C:/Users/Yushev/git/wpcqi-optiga-trust-charge/optiga/optiga/cmd\optiga_cmd.c ****                 break;
 2143              	 .loc 1 1017 0
 2144 0092 0AE0     	 b .L103
 2145              	.L106:
1018:C:/Users/Yushev/git/wpcqi-optiga-trust-charge/optiga/optiga/cmd\optiga_cmd.c ****             }
1019:C:/Users/Yushev/git/wpcqi-optiga-trust-charge/optiga/optiga/cmd\optiga_cmd.c ****             default:
1020:C:/Users/Yushev/git/wpcqi-optiga-trust-charge/optiga/optiga/cmd\optiga_cmd.c ****                 EXIT_STATE_WITH_ERROR(me,*exit_loop);
 2146              	 .loc 1 1020 0
 2147 0094 7B68     	 ldr r3,[r7,#4]
 2148 0096 0422     	 movs r2,#4
 2149 0098 9A75     	 strb r2,[r3,#22]
 2150 009a 7B68     	 ldr r3,[r7,#4]
 2151 009c 40F20222 	 movw r2,#514
 2152 00a0 9A83     	 strh r2,[r3,#28]
 2153 00a2 3B68     	 ldr r3,[r7]
 2154 00a4 0022     	 movs r2,#0
 2155 00a6 1A70     	 strb r2,[r3]
1021:C:/Users/Yushev/git/wpcqi-optiga-trust-charge/optiga/optiga/cmd\optiga_cmd.c ****             break;
 2156              	 .loc 1 1021 0
 2157 00a8 00BF     	 nop
 2158              	.L103:
1022:C:/Users/Yushev/git/wpcqi-optiga-trust-charge/optiga/optiga/cmd\optiga_cmd.c ****             //lint --e{788} suppress "Not all states are used as same enum is used for both main an
1023:C:/Users/Yushev/git/wpcqi-optiga-trust-charge/optiga/optiga/cmd\optiga_cmd.c ****         }
1024:C:/Users/Yushev/git/wpcqi-optiga-trust-charge/optiga/optiga/cmd\optiga_cmd.c ****     } while ((FALSE == *exit_loop) && (OPTIGA_CMD_EXEC_COMMS_CLOSE == me->cmd_next_execution_state)
 2159              	 .loc 1 1024 0
 2160 00aa 3B68     	 ldr r3,[r7]
 2161 00ac 1B78     	 ldrb r3,[r3]
 2162 00ae 002B     	 cmp r3,#0
 2163 00b0 03D1     	 bne .L98
 2164              	 .loc 1 1024 0 is_stmt 0 discriminator 1
 2165 00b2 7B68     	 ldr r3,[r7,#4]
 2166 00b4 9B7D     	 ldrb r3,[r3,#22]
 2167 00b6 012B     	 cmp r3,#1
 2168 00b8 A7D0     	 beq .L105
 2169              	.L98:
1025:C:/Users/Yushev/git/wpcqi-optiga-trust-charge/optiga/optiga/cmd\optiga_cmd.c **** }
 2170              	 .loc 1 1025 0 is_stmt 1
 2171 00ba 0837     	 adds r7,r7,#8
 2172              	.LCFI116:
 2173              	 .cfi_def_cfa_offset 8
 2174 00bc BD46     	 mov sp,r7
 2175              	.LCFI117:
 2176              	 .cfi_def_cfa_register 13
 2177              	 
 2178 00be 80BD     	 pop {r7,pc}
 2179              	 .cfi_endproc
 2180              	.LFE21:
 2182              	 .section .text.optiga_cmd_execute_prepare_command,"ax",%progbits
 2183              	 .align 2
 2184              	 .thumb
 2185              	 .thumb_func
 2187              	optiga_cmd_execute_prepare_command:
 2188              	.LFB22:
1026:C:/Users/Yushev/git/wpcqi-optiga-trust-charge/optiga/optiga/cmd\optiga_cmd.c **** 
1027:C:/Users/Yushev/git/wpcqi-optiga-trust-charge/optiga/optiga/cmd\optiga_cmd.c **** _STATIC_H void optiga_cmd_execute_prepare_command(optiga_cmd_t * me, uint8_t * exit_loop)
1028:C:/Users/Yushev/git/wpcqi-optiga-trust-charge/optiga/optiga/cmd\optiga_cmd.c **** {
 2189              	 .loc 1 1028 0
 2190              	 .cfi_startproc
 2191              	 
 2192              	 
 2193 0000 90B5     	 push {r4,r7,lr}
 2194              	.LCFI118:
 2195              	 .cfi_def_cfa_offset 12
 2196              	 .cfi_offset 4,-12
 2197              	 .cfi_offset 7,-8
 2198              	 .cfi_offset 14,-4
 2199 0002 87B0     	 sub sp,sp,#28
 2200              	.LCFI119:
 2201              	 .cfi_def_cfa_offset 40
 2202 0004 02AF     	 add r7,sp,#8
 2203              	.LCFI120:
 2204              	 .cfi_def_cfa 7,32
 2205 0006 7860     	 str r0,[r7,#4]
 2206 0008 3960     	 str r1,[r7]
1029:C:/Users/Yushev/git/wpcqi-optiga-trust-charge/optiga/optiga/cmd\optiga_cmd.c ****     optiga_cmd_handler_t optiga_cmd_handler = me->cmd_hdlrs;
 2207              	 .loc 1 1029 0
 2208 000a 7B68     	 ldr r3,[r7,#4]
 2209 000c 5B68     	 ldr r3,[r3,#4]
 2210 000e FB60     	 str r3,[r7,#12]
 2211              	.L121:
1030:C:/Users/Yushev/git/wpcqi-optiga-trust-charge/optiga/optiga/cmd\optiga_cmd.c ****     do
1031:C:/Users/Yushev/git/wpcqi-optiga-trust-charge/optiga/optiga/cmd\optiga_cmd.c ****     {
1032:C:/Users/Yushev/git/wpcqi-optiga-trust-charge/optiga/optiga/cmd\optiga_cmd.c ****         switch (me->cmd_sub_execution_state)
 2212              	 .loc 1 1032 0
 2213 0010 7B68     	 ldr r3,[r7,#4]
 2214 0012 DB7D     	 ldrb r3,[r3,#23]
 2215 0014 053B     	 subs r3,r3,#5
 2216 0016 032B     	 cmp r3,#3
 2217 0018 00F2B280 	 bhi .L108
 2218 001c 01A2     	 adr r2,.L110
 2219 001e 52F823F0 	 ldr pc,[r2,r3,lsl#2]
 2220 0022 00BF     	 .p2align 2
 2221              	.L110:
 2222 0024 35000000 	 .word .L109+1
 2223 0028 35000000 	 .word .L109+1
 2224 002c 89000000 	 .word .L111+1
 2225 0030 C5000000 	 .word .L112+1
 2226              	 .p2align 1
 2227              	.L109:
1033:C:/Users/Yushev/git/wpcqi-optiga-trust-charge/optiga/optiga/cmd\optiga_cmd.c ****         {
1034:C:/Users/Yushev/git/wpcqi-optiga-trust-charge/optiga/optiga/cmd\optiga_cmd.c ****             case OPTIGA_CMD_EXEC_REQUEST_LOCK:
1035:C:/Users/Yushev/git/wpcqi-optiga-trust-charge/optiga/optiga/cmd\optiga_cmd.c ****             case OPTIGA_CMD_EXEC_REQUEST_SESSION:
1036:C:/Users/Yushev/git/wpcqi-optiga-trust-charge/optiga/optiga/cmd\optiga_cmd.c ****             {
1037:C:/Users/Yushev/git/wpcqi-optiga-trust-charge/optiga/optiga/cmd\optiga_cmd.c ****                 *exit_loop = TRUE;
 2228              	 .loc 1 1037 0
 2229 0034 3B68     	 ldr r3,[r7]
 2230 0036 0122     	 movs r2,#1
 2231 0038 1A70     	 strb r2,[r3]
1038:C:/Users/Yushev/git/wpcqi-optiga-trust-charge/optiga/optiga/cmd\optiga_cmd.c ****                 if (me->cmd_sub_execution_state == OPTIGA_CMD_EXEC_REQUEST_SESSION)
 2232              	 .loc 1 1038 0
 2233 003a 7B68     	 ldr r3,[r7,#4]
 2234 003c DB7D     	 ldrb r3,[r3,#23]
 2235 003e 052B     	 cmp r3,#5
 2236 0040 07D1     	 bne .L113
1039:C:/Users/Yushev/git/wpcqi-optiga-trust-charge/optiga/optiga/cmd\optiga_cmd.c ****                 {
1040:C:/Users/Yushev/git/wpcqi-optiga-trust-charge/optiga/optiga/cmd\optiga_cmd.c ****                     me->exit_status = optiga_cmd_request_session(me);
 2237              	 .loc 1 1040 0
 2238 0042 7868     	 ldr r0,[r7,#4]
 2239 0044 FFF7FEFF 	 bl optiga_cmd_request_session
 2240 0048 0346     	 mov r3,r0
 2241 004a 1A46     	 mov r2,r3
 2242 004c 7B68     	 ldr r3,[r7,#4]
 2243 004e 9A83     	 strh r2,[r3,#28]
 2244 0050 07E0     	 b .L114
 2245              	.L113:
1041:C:/Users/Yushev/git/wpcqi-optiga-trust-charge/optiga/optiga/cmd\optiga_cmd.c ****                 }
1042:C:/Users/Yushev/git/wpcqi-optiga-trust-charge/optiga/optiga/cmd\optiga_cmd.c ****                 else
1043:C:/Users/Yushev/git/wpcqi-optiga-trust-charge/optiga/optiga/cmd\optiga_cmd.c ****                 {
1044:C:/Users/Yushev/git/wpcqi-optiga-trust-charge/optiga/optiga/cmd\optiga_cmd.c ****                     me->exit_status = optiga_cmd_request_lock(me, OPTIGA_CMD_QUEUE_REQUEST_LOCK);
 2246              	 .loc 1 1044 0
 2247 0052 7868     	 ldr r0,[r7,#4]
 2248 0054 2121     	 movs r1,#33
 2249 0056 FFF7FEFF 	 bl optiga_cmd_request_lock
 2250 005a 0346     	 mov r3,r0
 2251 005c 1A46     	 mov r2,r3
 2252 005e 7B68     	 ldr r3,[r7,#4]
 2253 0060 9A83     	 strh r2,[r3,#28]
 2254              	.L114:
1045:C:/Users/Yushev/git/wpcqi-optiga-trust-charge/optiga/optiga/cmd\optiga_cmd.c ****                 }
1046:C:/Users/Yushev/git/wpcqi-optiga-trust-charge/optiga/optiga/cmd\optiga_cmd.c ****                 if (OPTIGA_LIB_SUCCESS != me->exit_status)
 2255              	 .loc 1 1046 0
 2256 0062 7B68     	 ldr r3,[r7,#4]
 2257 0064 9B8B     	 ldrh r3,[r3,#28]
 2258 0066 002B     	 cmp r3,#0
 2259 0068 0AD0     	 beq .L115
1047:C:/Users/Yushev/git/wpcqi-optiga-trust-charge/optiga/optiga/cmd\optiga_cmd.c ****                 {
1048:C:/Users/Yushev/git/wpcqi-optiga-trust-charge/optiga/optiga/cmd\optiga_cmd.c ****                     EXIT_STATE_WITH_ERROR(me,*exit_loop);
 2260              	 .loc 1 1048 0
 2261 006a 7B68     	 ldr r3,[r7,#4]
 2262 006c 0422     	 movs r2,#4
 2263 006e 9A75     	 strb r2,[r3,#22]
 2264 0070 7B68     	 ldr r3,[r7,#4]
 2265 0072 40F20222 	 movw r2,#514
 2266 0076 9A83     	 strh r2,[r3,#28]
 2267 0078 3B68     	 ldr r3,[r7]
 2268 007a 0022     	 movs r2,#0
 2269 007c 1A70     	 strb r2,[r3]
1049:C:/Users/Yushev/git/wpcqi-optiga-trust-charge/optiga/optiga/cmd\optiga_cmd.c ****                     break;
 2270              	 .loc 1 1049 0
 2271 007e 8AE0     	 b .L116
 2272              	.L115:
1050:C:/Users/Yushev/git/wpcqi-optiga-trust-charge/optiga/optiga/cmd\optiga_cmd.c ****                 }
1051:C:/Users/Yushev/git/wpcqi-optiga-trust-charge/optiga/optiga/cmd\optiga_cmd.c **** 
1052:C:/Users/Yushev/git/wpcqi-optiga-trust-charge/optiga/optiga/cmd\optiga_cmd.c ****                 me->cmd_sub_execution_state = OPTIGA_CMD_EXEC_PREPARE_APDU;
 2273              	 .loc 1 1052 0
 2274 0080 7B68     	 ldr r3,[r7,#4]
 2275 0082 0822     	 movs r2,#8
 2276 0084 DA75     	 strb r2,[r3,#23]
1053:C:/Users/Yushev/git/wpcqi-optiga-trust-charge/optiga/optiga/cmd\optiga_cmd.c ****                 break;
 2277              	 .loc 1 1053 0
 2278 0086 86E0     	 b .L116
 2279              	.L111:
1054:C:/Users/Yushev/git/wpcqi-optiga-trust-charge/optiga/optiga/cmd\optiga_cmd.c ****             }
1055:C:/Users/Yushev/git/wpcqi-optiga-trust-charge/optiga/optiga/cmd\optiga_cmd.c ****             case OPTIGA_CMD_EXEC_REQUEST_STRICT_LOCK:
1056:C:/Users/Yushev/git/wpcqi-optiga-trust-charge/optiga/optiga/cmd\optiga_cmd.c ****             {
1057:C:/Users/Yushev/git/wpcqi-optiga-trust-charge/optiga/optiga/cmd\optiga_cmd.c ****                 me->exit_status = optiga_cmd_request_lock(me, OPTIGA_CMD_QUEUE_REQUEST_STRICT_LOCK)
 2280              	 .loc 1 1057 0
 2281 0088 7868     	 ldr r0,[r7,#4]
 2282 008a 2321     	 movs r1,#35
 2283 008c FFF7FEFF 	 bl optiga_cmd_request_lock
 2284 0090 0346     	 mov r3,r0
 2285 0092 1A46     	 mov r2,r3
 2286 0094 7B68     	 ldr r3,[r7,#4]
 2287 0096 9A83     	 strh r2,[r3,#28]
1058:C:/Users/Yushev/git/wpcqi-optiga-trust-charge/optiga/optiga/cmd\optiga_cmd.c ****                 if (OPTIGA_LIB_SUCCESS != me->exit_status)
 2288              	 .loc 1 1058 0
 2289 0098 7B68     	 ldr r3,[r7,#4]
 2290 009a 9B8B     	 ldrh r3,[r3,#28]
 2291 009c 002B     	 cmp r3,#0
 2292 009e 0AD0     	 beq .L117
1059:C:/Users/Yushev/git/wpcqi-optiga-trust-charge/optiga/optiga/cmd\optiga_cmd.c ****                 {
1060:C:/Users/Yushev/git/wpcqi-optiga-trust-charge/optiga/optiga/cmd\optiga_cmd.c ****                     EXIT_STATE_WITH_ERROR(me,*exit_loop);
 2293              	 .loc 1 1060 0
 2294 00a0 7B68     	 ldr r3,[r7,#4]
 2295 00a2 0422     	 movs r2,#4
 2296 00a4 9A75     	 strb r2,[r3,#22]
 2297 00a6 7B68     	 ldr r3,[r7,#4]
 2298 00a8 40F20222 	 movw r2,#514
 2299 00ac 9A83     	 strh r2,[r3,#28]
 2300 00ae 3B68     	 ldr r3,[r7]
 2301 00b0 0022     	 movs r2,#0
 2302 00b2 1A70     	 strb r2,[r3]
1061:C:/Users/Yushev/git/wpcqi-optiga-trust-charge/optiga/optiga/cmd\optiga_cmd.c ****                     break;
 2303              	 .loc 1 1061 0
 2304 00b4 6FE0     	 b .L116
 2305              	.L117:
1062:C:/Users/Yushev/git/wpcqi-optiga-trust-charge/optiga/optiga/cmd\optiga_cmd.c ****                 }
1063:C:/Users/Yushev/git/wpcqi-optiga-trust-charge/optiga/optiga/cmd\optiga_cmd.c ****                 me->cmd_sub_execution_state = OPTIGA_CMD_EXEC_PREPARE_APDU;
 2306              	 .loc 1 1063 0
 2307 00b6 7B68     	 ldr r3,[r7,#4]
 2308 00b8 0822     	 movs r2,#8
 2309 00ba DA75     	 strb r2,[r3,#23]
1064:C:/Users/Yushev/git/wpcqi-optiga-trust-charge/optiga/optiga/cmd\optiga_cmd.c ****                 *exit_loop = TRUE;
 2310              	 .loc 1 1064 0
 2311 00bc 3B68     	 ldr r3,[r7]
 2312 00be 0122     	 movs r2,#1
 2313 00c0 1A70     	 strb r2,[r3]
1065:C:/Users/Yushev/git/wpcqi-optiga-trust-charge/optiga/optiga/cmd\optiga_cmd.c ****                 break;
 2314              	 .loc 1 1065 0
 2315 00c2 68E0     	 b .L116
 2316              	.L112:
1066:C:/Users/Yushev/git/wpcqi-optiga-trust-charge/optiga/optiga/cmd\optiga_cmd.c ****             }
1067:C:/Users/Yushev/git/wpcqi-optiga-trust-charge/optiga/optiga/cmd\optiga_cmd.c ****             case OPTIGA_CMD_EXEC_PREPARE_APDU:
1068:C:/Users/Yushev/git/wpcqi-optiga-trust-charge/optiga/optiga/cmd\optiga_cmd.c ****             {
1069:C:/Users/Yushev/git/wpcqi-optiga-trust-charge/optiga/optiga/cmd\optiga_cmd.c ****                 *exit_loop = TRUE;
 2317              	 .loc 1 1069 0
 2318 00c4 3B68     	 ldr r3,[r7]
 2319 00c6 0122     	 movs r2,#1
 2320 00c8 1A70     	 strb r2,[r3]
1070:C:/Users/Yushev/git/wpcqi-optiga-trust-charge/optiga/optiga/cmd\optiga_cmd.c ****                 me->exit_status = optiga_cmd_handler(me);
 2321              	 .loc 1 1070 0
 2322 00ca FB68     	 ldr r3,[r7,#12]
 2323 00cc 7868     	 ldr r0,[r7,#4]
 2324 00ce 9847     	 blx r3
 2325 00d0 0346     	 mov r3,r0
 2326 00d2 1A46     	 mov r2,r3
 2327 00d4 7B68     	 ldr r3,[r7,#4]
 2328 00d6 9A83     	 strh r2,[r3,#28]
1071:C:/Users/Yushev/git/wpcqi-optiga-trust-charge/optiga/optiga/cmd\optiga_cmd.c ****                 if (OPTIGA_LIB_SUCCESS != me->exit_status)
 2329              	 .loc 1 1071 0
 2330 00d8 7B68     	 ldr r3,[r7,#4]
 2331 00da 9B8B     	 ldrh r3,[r3,#28]
 2332 00dc 002B     	 cmp r3,#0
 2333 00de 06D0     	 beq .L118
1072:C:/Users/Yushev/git/wpcqi-optiga-trust-charge/optiga/optiga/cmd\optiga_cmd.c ****                 {
1073:C:/Users/Yushev/git/wpcqi-optiga-trust-charge/optiga/optiga/cmd\optiga_cmd.c ****                     me->cmd_next_execution_state = OPTIGA_CMD_EXEC_ERROR_HANDLER;
 2334              	 .loc 1 1073 0
 2335 00e0 7B68     	 ldr r3,[r7,#4]
 2336 00e2 0422     	 movs r2,#4
 2337 00e4 9A75     	 strb r2,[r3,#22]
1074:C:/Users/Yushev/git/wpcqi-optiga-trust-charge/optiga/optiga/cmd\optiga_cmd.c ****                     *exit_loop = FALSE;
 2338              	 .loc 1 1074 0
 2339 00e6 3B68     	 ldr r3,[r7]
 2340 00e8 0022     	 movs r2,#0
 2341 00ea 1A70     	 strb r2,[r3]
1075:C:/Users/Yushev/git/wpcqi-optiga-trust-charge/optiga/optiga/cmd\optiga_cmd.c ****                     break;
 2342              	 .loc 1 1075 0
 2343 00ec 53E0     	 b .L116
 2344              	.L118:
1076:C:/Users/Yushev/git/wpcqi-optiga-trust-charge/optiga/optiga/cmd\optiga_cmd.c ****                 }
1077:C:/Users/Yushev/git/wpcqi-optiga-trust-charge/optiga/optiga/cmd\optiga_cmd.c ****                 me->p_optiga->comms_rx_size = OPTIGA_CMD_TOTAL_COMMS_BUFFER_SIZE;
 2345              	 .loc 1 1077 0
 2346 00ee 7B68     	 ldr r3,[r7,#4]
 2347 00f0 1B68     	 ldr r3,[r3]
 2348 00f2 40F21562 	 movw r2,#1557
 2349 00f6 DA80     	 strh r2,[r3,#6]
1078:C:/Users/Yushev/git/wpcqi-optiga-trust-charge/optiga/optiga/cmd\optiga_cmd.c **** #ifdef OPTIGA_COMMS_SHIELDED_CONNECTION
1079:C:/Users/Yushev/git/wpcqi-optiga-trust-charge/optiga/optiga/cmd\optiga_cmd.c ****                 me->p_optiga->p_optiga_comms->protection_level = me->protection_level;
1080:C:/Users/Yushev/git/wpcqi-optiga-trust-charge/optiga/optiga/cmd\optiga_cmd.c ****                 me->p_optiga->p_optiga_comms->protocol_version = me->protocol_version;
1081:C:/Users/Yushev/git/wpcqi-optiga-trust-charge/optiga/optiga/cmd\optiga_cmd.c ****                 me->p_optiga->protection_level_state |= me->protection_level;
1082:C:/Users/Yushev/git/wpcqi-optiga-trust-charge/optiga/optiga/cmd\optiga_cmd.c **** #endif //OPTIGA_COMMS_SHIELDED_CONNECTION
1083:C:/Users/Yushev/git/wpcqi-optiga-trust-charge/optiga/optiga/cmd\optiga_cmd.c ****                 (void)optiga_comms_set_callback_context(me->p_optiga->p_optiga_comms, me);
 2350              	 .loc 1 1083 0
 2351 00f8 7B68     	 ldr r3,[r7,#4]
 2352 00fa 1B68     	 ldr r3,[r3]
 2353 00fc 1B68     	 ldr r3,[r3]
 2354 00fe 1846     	 mov r0,r3
 2355 0100 7968     	 ldr r1,[r7,#4]
 2356 0102 FFF7FEFF 	 bl optiga_comms_set_callback_context
1084:C:/Users/Yushev/git/wpcqi-optiga-trust-charge/optiga/optiga/cmd\optiga_cmd.c ****                 me->exit_status = optiga_comms_transceive(me->p_optiga->p_optiga_comms,
 2357              	 .loc 1 1084 0
 2358 0106 7B68     	 ldr r3,[r7,#4]
 2359 0108 1B68     	 ldr r3,[r3]
 2360 010a 1868     	 ldr r0,[r3]
1085:C:/Users/Yushev/git/wpcqi-optiga-trust-charge/optiga/optiga/cmd\optiga_cmd.c ****                                                           me->p_optiga->optiga_comms_buffer,
 2361              	 .loc 1 1085 0
 2362 010c 7B68     	 ldr r3,[r7,#4]
 2363 010e 1B68     	 ldr r3,[r3]
 2364 0110 03F10D01 	 add r1,r3,#13
1086:C:/Users/Yushev/git/wpcqi-optiga-trust-charge/optiga/optiga/cmd\optiga_cmd.c ****                                                           me->p_optiga->comms_tx_size,
 2365              	 .loc 1 1086 0
 2366 0114 7B68     	 ldr r3,[r7,#4]
 2367 0116 1B68     	 ldr r3,[r3]
1084:C:/Users/Yushev/git/wpcqi-optiga-trust-charge/optiga/optiga/cmd\optiga_cmd.c ****                 me->exit_status = optiga_comms_transceive(me->p_optiga->p_optiga_comms,
 2368              	 .loc 1 1084 0
 2369 0118 9A88     	 ldrh r2,[r3,#4]
1087:C:/Users/Yushev/git/wpcqi-optiga-trust-charge/optiga/optiga/cmd\optiga_cmd.c ****                                                           me->p_optiga->optiga_comms_buffer,
 2370              	 .loc 1 1087 0
 2371 011a 7B68     	 ldr r3,[r7,#4]
 2372 011c 1B68     	 ldr r3,[r3]
 2373 011e 03F10D04 	 add r4,r3,#13
1088:C:/Users/Yushev/git/wpcqi-optiga-trust-charge/optiga/optiga/cmd\optiga_cmd.c ****                                                           &(me->p_optiga->comms_rx_size));
 2374              	 .loc 1 1088 0
 2375 0122 7B68     	 ldr r3,[r7,#4]
 2376 0124 1B68     	 ldr r3,[r3]
1084:C:/Users/Yushev/git/wpcqi-optiga-trust-charge/optiga/optiga/cmd\optiga_cmd.c ****                                                           me->p_optiga->optiga_comms_buffer,
 2377              	 .loc 1 1084 0
 2378 0126 0633     	 adds r3,r3,#6
 2379 0128 0093     	 str r3,[sp]
 2380 012a 2346     	 mov r3,r4
 2381 012c FFF7FEFF 	 bl optiga_comms_transceive
 2382 0130 0346     	 mov r3,r0
 2383 0132 1A46     	 mov r2,r3
 2384 0134 7B68     	 ldr r3,[r7,#4]
 2385 0136 9A83     	 strh r2,[r3,#28]
1089:C:/Users/Yushev/git/wpcqi-optiga-trust-charge/optiga/optiga/cmd\optiga_cmd.c **** 
1090:C:/Users/Yushev/git/wpcqi-optiga-trust-charge/optiga/optiga/cmd\optiga_cmd.c ****                 if (OPTIGA_LIB_SUCCESS != me->exit_status)
 2386              	 .loc 1 1090 0
 2387 0138 7B68     	 ldr r3,[r7,#4]
 2388 013a 9B8B     	 ldrh r3,[r3,#28]
 2389 013c 002B     	 cmp r3,#0
 2390 013e 0AD0     	 beq .L119
1091:C:/Users/Yushev/git/wpcqi-optiga-trust-charge/optiga/optiga/cmd\optiga_cmd.c ****                 {
1092:C:/Users/Yushev/git/wpcqi-optiga-trust-charge/optiga/optiga/cmd\optiga_cmd.c ****                     EXIT_STATE_WITH_ERROR(me,*exit_loop);
 2391              	 .loc 1 1092 0
 2392 0140 7B68     	 ldr r3,[r7,#4]
 2393 0142 0422     	 movs r2,#4
 2394 0144 9A75     	 strb r2,[r3,#22]
 2395 0146 7B68     	 ldr r3,[r7,#4]
 2396 0148 40F20222 	 movw r2,#514
 2397 014c 9A83     	 strh r2,[r3,#28]
 2398 014e 3B68     	 ldr r3,[r7]
 2399 0150 0022     	 movs r2,#0
 2400 0152 1A70     	 strb r2,[r3]
1093:C:/Users/Yushev/git/wpcqi-optiga-trust-charge/optiga/optiga/cmd\optiga_cmd.c ****                     break;
 2401              	 .loc 1 1093 0
 2402 0154 1FE0     	 b .L116
 2403              	.L119:
1094:C:/Users/Yushev/git/wpcqi-optiga-trust-charge/optiga/optiga/cmd\optiga_cmd.c ****                 }
1095:C:/Users/Yushev/git/wpcqi-optiga-trust-charge/optiga/optiga/cmd\optiga_cmd.c **** 
1096:C:/Users/Yushev/git/wpcqi-optiga-trust-charge/optiga/optiga/cmd\optiga_cmd.c ****                 me->cmd_next_execution_state = OPTIGA_CMD_EXEC_PROCESS_RESPONSE;
 2404              	 .loc 1 1096 0
 2405 0156 7B68     	 ldr r3,[r7,#4]
 2406 0158 0322     	 movs r2,#3
 2407 015a 9A75     	 strb r2,[r3,#22]
1097:C:/Users/Yushev/git/wpcqi-optiga-trust-charge/optiga/optiga/cmd\optiga_cmd.c ****                 me->cmd_sub_execution_state = OPTIGA_CMD_EXEC_PROCESS_OPTIGA_RESPONSE;
 2408              	 .loc 1 1097 0
 2409 015c 7B68     	 ldr r3,[r7,#4]
 2410 015e 0922     	 movs r2,#9
 2411 0160 DA75     	 strb r2,[r3,#23]
1098:C:/Users/Yushev/git/wpcqi-optiga-trust-charge/optiga/optiga/cmd\optiga_cmd.c ****                 SET_DEV_ERROR_NOTIFICATION(OPTIGA_CMD_ENTER_HANDLER_CALL);
 2412              	 .loc 1 1098 0
 2413 0162 7B68     	 ldr r3,[r7,#4]
 2414 0164 9B7E     	 ldrb r3,[r3,#26]
 2415 0166 03F07F03 	 and r3,r3,#127
 2416 016a DAB2     	 uxtb r2,r3
 2417 016c 7B68     	 ldr r3,[r7,#4]
 2418 016e 9A76     	 strb r2,[r3,#26]
 2419 0170 7B68     	 ldr r3,[r7,#4]
 2420 0172 9B7E     	 ldrb r3,[r3,#26]
 2421 0174 63F07F03 	 orn r3,r3,#127
 2422 0178 DAB2     	 uxtb r2,r3
 2423 017a 7B68     	 ldr r3,[r7,#4]
 2424 017c 9A76     	 strb r2,[r3,#26]
1099:C:/Users/Yushev/git/wpcqi-optiga-trust-charge/optiga/optiga/cmd\optiga_cmd.c ****                 break;
 2425              	 .loc 1 1099 0
 2426 017e 0AE0     	 b .L116
 2427              	.L108:
1100:C:/Users/Yushev/git/wpcqi-optiga-trust-charge/optiga/optiga/cmd\optiga_cmd.c ****             }
1101:C:/Users/Yushev/git/wpcqi-optiga-trust-charge/optiga/optiga/cmd\optiga_cmd.c ****             default:
1102:C:/Users/Yushev/git/wpcqi-optiga-trust-charge/optiga/optiga/cmd\optiga_cmd.c ****                 EXIT_STATE_WITH_ERROR(me,*exit_loop);
 2428              	 .loc 1 1102 0
 2429 0180 7B68     	 ldr r3,[r7,#4]
 2430 0182 0422     	 movs r2,#4
 2431 0184 9A75     	 strb r2,[r3,#22]
 2432 0186 7B68     	 ldr r3,[r7,#4]
 2433 0188 40F20222 	 movw r2,#514
 2434 018c 9A83     	 strh r2,[r3,#28]
 2435 018e 3B68     	 ldr r3,[r7]
 2436 0190 0022     	 movs r2,#0
 2437 0192 1A70     	 strb r2,[r3]
1103:C:/Users/Yushev/git/wpcqi-optiga-trust-charge/optiga/optiga/cmd\optiga_cmd.c ****             break;
 2438              	 .loc 1 1103 0
 2439 0194 00BF     	 nop
 2440              	.L116:
1104:C:/Users/Yushev/git/wpcqi-optiga-trust-charge/optiga/optiga/cmd\optiga_cmd.c ****             //lint --e{788} suppress "Not all states are used as same enum is used for both main an
1105:C:/Users/Yushev/git/wpcqi-optiga-trust-charge/optiga/optiga/cmd\optiga_cmd.c ****         }
1106:C:/Users/Yushev/git/wpcqi-optiga-trust-charge/optiga/optiga/cmd\optiga_cmd.c ****     } while ((FALSE == *exit_loop) && (OPTIGA_CMD_EXEC_PREPARE_COMMAND == me->cmd_next_execution_st
 2441              	 .loc 1 1106 0
 2442 0196 3B68     	 ldr r3,[r7]
 2443 0198 1B78     	 ldrb r3,[r3]
 2444 019a 002B     	 cmp r3,#0
 2445 019c 04D1     	 bne .L107
 2446              	 .loc 1 1106 0 is_stmt 0 discriminator 1
 2447 019e 7B68     	 ldr r3,[r7,#4]
 2448 01a0 9B7D     	 ldrb r3,[r3,#22]
 2449 01a2 022B     	 cmp r3,#2
 2450 01a4 3FF434AF 	 beq .L121
 2451              	.L107:
1107:C:/Users/Yushev/git/wpcqi-optiga-trust-charge/optiga/optiga/cmd\optiga_cmd.c **** }
 2452              	 .loc 1 1107 0 is_stmt 1
 2453 01a8 1437     	 adds r7,r7,#20
 2454              	.LCFI121:
 2455              	 .cfi_def_cfa_offset 12
 2456 01aa BD46     	 mov sp,r7
 2457              	.LCFI122:
 2458              	 .cfi_def_cfa_register 13
 2459              	 
 2460 01ac 90BD     	 pop {r4,r7,pc}
 2461              	 .cfi_endproc
 2462              	.LFE22:
 2464 01ae 00BF     	 .section .text.optiga_cmd_execute_get_device_error,"ax",%progbits
 2465              	 .align 2
 2466              	 .thumb
 2467              	 .thumb_func
 2469              	optiga_cmd_execute_get_device_error:
 2470              	.LFB23:
1108:C:/Users/Yushev/git/wpcqi-optiga-trust-charge/optiga/optiga/cmd\optiga_cmd.c **** 
1109:C:/Users/Yushev/git/wpcqi-optiga-trust-charge/optiga/optiga/cmd\optiga_cmd.c **** _STATIC_H void optiga_cmd_execute_get_device_error(optiga_cmd_t * me, uint8_t * exit_loop)
1110:C:/Users/Yushev/git/wpcqi-optiga-trust-charge/optiga/optiga/cmd\optiga_cmd.c **** {
 2471              	 .loc 1 1110 0
 2472              	 .cfi_startproc
 2473              	 
 2474              	 
 2475 0000 80B5     	 push {r7,lr}
 2476              	.LCFI123:
 2477              	 .cfi_def_cfa_offset 8
 2478              	 .cfi_offset 7,-8
 2479              	 .cfi_offset 14,-4
 2480 0002 82B0     	 sub sp,sp,#8
 2481              	.LCFI124:
 2482              	 .cfi_def_cfa_offset 16
 2483 0004 00AF     	 add r7,sp,#0
 2484              	.LCFI125:
 2485              	 .cfi_def_cfa_register 7
 2486 0006 7860     	 str r0,[r7,#4]
 2487 0008 3960     	 str r1,[r7]
1111:C:/Users/Yushev/git/wpcqi-optiga-trust-charge/optiga/optiga/cmd\optiga_cmd.c ****     do
1112:C:/Users/Yushev/git/wpcqi-optiga-trust-charge/optiga/optiga/cmd\optiga_cmd.c ****     {
1113:C:/Users/Yushev/git/wpcqi-optiga-trust-charge/optiga/optiga/cmd\optiga_cmd.c ****         *exit_loop = TRUE;
 2488              	 .loc 1 1113 0
 2489 000a 3B68     	 ldr r3,[r7]
 2490 000c 0122     	 movs r2,#1
 2491 000e 1A70     	 strb r2,[r3]
1114:C:/Users/Yushev/git/wpcqi-optiga-trust-charge/optiga/optiga/cmd\optiga_cmd.c ****         me->exit_status = optiga_cmd_get_error_code_handler(me);
 2492              	 .loc 1 1114 0
 2493 0010 7868     	 ldr r0,[r7,#4]
 2494 0012 FFF7FEFF 	 bl optiga_cmd_get_error_code_handler
 2495 0016 0346     	 mov r3,r0
 2496 0018 1A46     	 mov r2,r3
 2497 001a 7B68     	 ldr r3,[r7,#4]
 2498 001c 9A83     	 strh r2,[r3,#28]
1115:C:/Users/Yushev/git/wpcqi-optiga-trust-charge/optiga/optiga/cmd\optiga_cmd.c ****         if (((OPTIGA_LIB_SUCCESS != me->exit_status) && !(OPTIGA_DEVICE_ERROR & me->exit_status)) |
 2499              	 .loc 1 1115 0
 2500 001e 7B68     	 ldr r3,[r7,#4]
 2501 0020 9B8B     	 ldrh r3,[r3,#28]
 2502 0022 002B     	 cmp r3,#0
 2503 0024 05D0     	 beq .L123
 2504              	 .loc 1 1115 0 is_stmt 0 discriminator 1
 2505 0026 7B68     	 ldr r3,[r7,#4]
 2506 0028 9B8B     	 ldrh r3,[r3,#28]
 2507 002a 9BB2     	 uxth r3,r3
 2508 002c 1BB2     	 sxth r3,r3
 2509 002e 002B     	 cmp r3,#0
 2510 0030 0ADA     	 bge .L124
 2511              	.L123:
1116:C:/Users/Yushev/git/wpcqi-optiga-trust-charge/optiga/optiga/cmd\optiga_cmd.c ****             ((OPTIGA_DEVICE_ERROR == me->exit_status) &&
 2512              	 .loc 1 1116 0 is_stmt 1 discriminator 3
 2513 0032 7B68     	 ldr r3,[r7,#4]
 2514 0034 9B8B     	 ldrh r3,[r3,#28]
1115:C:/Users/Yushev/git/wpcqi-optiga-trust-charge/optiga/optiga/cmd\optiga_cmd.c ****         if (((OPTIGA_LIB_SUCCESS != me->exit_status) && !(OPTIGA_DEVICE_ERROR & me->exit_status)) |
 2515              	 .loc 1 1115 0 discriminator 3
 2516 0036 B3F5004F 	 cmp r3,#32768
 2517 003a 0CD1     	 bne .L122
1117:C:/Users/Yushev/git/wpcqi-optiga-trust-charge/optiga/optiga/cmd\optiga_cmd.c ****             ((me->device_error_status & OPTIGA_CMD_ERROR_CODE_STATE_MASK) == OPTIGA_CMD_ERROR_CODE_
 2518              	 .loc 1 1117 0
 2519 003c 7B68     	 ldr r3,[r7,#4]
 2520 003e 9B7E     	 ldrb r3,[r3,#26]
 2521 0040 03F00303 	 and r3,r3,#3
1116:C:/Users/Yushev/git/wpcqi-optiga-trust-charge/optiga/optiga/cmd\optiga_cmd.c ****             ((OPTIGA_DEVICE_ERROR == me->exit_status) &&
 2522              	 .loc 1 1116 0
 2523 0044 032B     	 cmp r3,#3
 2524 0046 06D1     	 bne .L122
 2525              	.L124:
1118:C:/Users/Yushev/git/wpcqi-optiga-trust-charge/optiga/optiga/cmd\optiga_cmd.c ****         {
1119:C:/Users/Yushev/git/wpcqi-optiga-trust-charge/optiga/optiga/cmd\optiga_cmd.c ****             me->cmd_next_execution_state = OPTIGA_CMD_EXEC_ERROR_HANDLER;
 2526              	 .loc 1 1119 0
 2527 0048 7B68     	 ldr r3,[r7,#4]
 2528 004a 0422     	 movs r2,#4
 2529 004c 9A75     	 strb r2,[r3,#22]
1120:C:/Users/Yushev/git/wpcqi-optiga-trust-charge/optiga/optiga/cmd\optiga_cmd.c ****             *exit_loop = FALSE;
 2530              	 .loc 1 1120 0
 2531 004e 3B68     	 ldr r3,[r7]
 2532 0050 0022     	 movs r2,#0
 2533 0052 1A70     	 strb r2,[r3]
1121:C:/Users/Yushev/git/wpcqi-optiga-trust-charge/optiga/optiga/cmd\optiga_cmd.c ****             break;
 2534              	 .loc 1 1121 0
 2535 0054 00BF     	 nop
 2536              	.L122:
1122:C:/Users/Yushev/git/wpcqi-optiga-trust-charge/optiga/optiga/cmd\optiga_cmd.c ****         }
1123:C:/Users/Yushev/git/wpcqi-optiga-trust-charge/optiga/optiga/cmd\optiga_cmd.c ****     } while (FALSE);
1124:C:/Users/Yushev/git/wpcqi-optiga-trust-charge/optiga/optiga/cmd\optiga_cmd.c **** }
 2537              	 .loc 1 1124 0
 2538 0056 0837     	 adds r7,r7,#8
 2539              	.LCFI126:
 2540              	 .cfi_def_cfa_offset 8
 2541 0058 BD46     	 mov sp,r7
 2542              	.LCFI127:
 2543              	 .cfi_def_cfa_register 13
 2544              	 
 2545 005a 80BD     	 pop {r7,pc}
 2546              	 .cfi_endproc
 2547              	.LFE23:
 2549              	 .section .text.optiga_cmd_execute_process_optiga_response,"ax",%progbits
 2550              	 .align 2
 2551              	 .thumb
 2552              	 .thumb_func
 2554              	optiga_cmd_execute_process_optiga_response:
 2555              	.LFB24:
1125:C:/Users/Yushev/git/wpcqi-optiga-trust-charge/optiga/optiga/cmd\optiga_cmd.c **** 
1126:C:/Users/Yushev/git/wpcqi-optiga-trust-charge/optiga/optiga/cmd\optiga_cmd.c **** _STATIC_H void optiga_cmd_execute_process_optiga_response(optiga_cmd_t * me, uint8_t * exit_loop)
1127:C:/Users/Yushev/git/wpcqi-optiga-trust-charge/optiga/optiga/cmd\optiga_cmd.c **** {
 2556              	 .loc 1 1127 0
 2557              	 .cfi_startproc
 2558              	 
 2559              	 
 2560 0000 80B5     	 push {r7,lr}
 2561              	.LCFI128:
 2562              	 .cfi_def_cfa_offset 8
 2563              	 .cfi_offset 7,-8
 2564              	 .cfi_offset 14,-4
 2565 0002 84B0     	 sub sp,sp,#16
 2566              	.LCFI129:
 2567              	 .cfi_def_cfa_offset 24
 2568 0004 00AF     	 add r7,sp,#0
 2569              	.LCFI130:
 2570              	 .cfi_def_cfa_register 7
 2571 0006 7860     	 str r0,[r7,#4]
 2572 0008 3960     	 str r1,[r7]
1128:C:/Users/Yushev/git/wpcqi-optiga-trust-charge/optiga/optiga/cmd\optiga_cmd.c ****     optiga_cmd_handler_t optiga_cmd_handler = me->cmd_hdlrs;
 2573              	 .loc 1 1128 0
 2574 000a 7B68     	 ldr r3,[r7,#4]
 2575 000c 5B68     	 ldr r3,[r3,#4]
 2576 000e FB60     	 str r3,[r7,#12]
1129:C:/Users/Yushev/git/wpcqi-optiga-trust-charge/optiga/optiga/cmd\optiga_cmd.c ****     do
1130:C:/Users/Yushev/git/wpcqi-optiga-trust-charge/optiga/optiga/cmd\optiga_cmd.c ****     {
1131:C:/Users/Yushev/git/wpcqi-optiga-trust-charge/optiga/optiga/cmd\optiga_cmd.c ****         *exit_loop = TRUE;
 2577              	 .loc 1 1131 0
 2578 0010 3B68     	 ldr r3,[r7]
 2579 0012 0122     	 movs r2,#1
 2580 0014 1A70     	 strb r2,[r3]
1132:C:/Users/Yushev/git/wpcqi-optiga-trust-charge/optiga/optiga/cmd\optiga_cmd.c ****         if (OPTIGA_CMD_ZERO_LENGTH_OR_VALUE != (me->device_error_status & OPTIGA_CMD_ENTER_HANDLER_
 2581              	 .loc 1 1132 0
 2582 0016 7B68     	 ldr r3,[r7,#4]
 2583 0018 9B7E     	 ldrb r3,[r3,#26]
 2584 001a DBB2     	 uxtb r3,r3
 2585 001c 5BB2     	 sxtb r3,r3
 2586 001e 002B     	 cmp r3,#0
 2587 0020 0BDA     	 bge .L127
1133:C:/Users/Yushev/git/wpcqi-optiga-trust-charge/optiga/optiga/cmd\optiga_cmd.c ****         {
1134:C:/Users/Yushev/git/wpcqi-optiga-trust-charge/optiga/optiga/cmd\optiga_cmd.c ****             me->exit_status = optiga_cmd_handler(me);
 2588              	 .loc 1 1134 0
 2589 0022 FB68     	 ldr r3,[r7,#12]
 2590 0024 7868     	 ldr r0,[r7,#4]
 2591 0026 9847     	 blx r3
 2592 0028 0346     	 mov r3,r0
 2593 002a 1A46     	 mov r2,r3
 2594 002c 7B68     	 ldr r3,[r7,#4]
 2595 002e 9A83     	 strh r2,[r3,#28]
1135:C:/Users/Yushev/git/wpcqi-optiga-trust-charge/optiga/optiga/cmd\optiga_cmd.c ****         }
1136:C:/Users/Yushev/git/wpcqi-optiga-trust-charge/optiga/optiga/cmd\optiga_cmd.c ****         else
1137:C:/Users/Yushev/git/wpcqi-optiga-trust-charge/optiga/optiga/cmd\optiga_cmd.c ****         {
1138:C:/Users/Yushev/git/wpcqi-optiga-trust-charge/optiga/optiga/cmd\optiga_cmd.c ****             me->cmd_next_execution_state = OPTIGA_CMD_EXEC_ERROR_HANDLER;
1139:C:/Users/Yushev/git/wpcqi-optiga-trust-charge/optiga/optiga/cmd\optiga_cmd.c ****             *exit_loop = FALSE;
1140:C:/Users/Yushev/git/wpcqi-optiga-trust-charge/optiga/optiga/cmd\optiga_cmd.c ****             break;
1141:C:/Users/Yushev/git/wpcqi-optiga-trust-charge/optiga/optiga/cmd\optiga_cmd.c ****         }
1142:C:/Users/Yushev/git/wpcqi-optiga-trust-charge/optiga/optiga/cmd\optiga_cmd.c ****         if (OPTIGA_LIB_SUCCESS == me->exit_status)
 2596              	 .loc 1 1142 0
 2597 0030 7B68     	 ldr r3,[r7,#4]
 2598 0032 9B8B     	 ldrh r3,[r3,#28]
 2599 0034 002B     	 cmp r3,#0
 2600 0036 45D1     	 bne .L130
 2601 0038 06E0     	 b .L136
 2602              	.L127:
1138:C:/Users/Yushev/git/wpcqi-optiga-trust-charge/optiga/optiga/cmd\optiga_cmd.c ****             *exit_loop = FALSE;
 2603              	 .loc 1 1138 0
 2604 003a 7B68     	 ldr r3,[r7,#4]
 2605 003c 0422     	 movs r2,#4
 2606 003e 9A75     	 strb r2,[r3,#22]
1139:C:/Users/Yushev/git/wpcqi-optiga-trust-charge/optiga/optiga/cmd\optiga_cmd.c ****             break;
 2607              	 .loc 1 1139 0
 2608 0040 3B68     	 ldr r3,[r7]
 2609 0042 0022     	 movs r2,#0
 2610 0044 1A70     	 strb r2,[r3]
1140:C:/Users/Yushev/git/wpcqi-optiga-trust-charge/optiga/optiga/cmd\optiga_cmd.c ****         }
 2611              	 .loc 1 1140 0
 2612 0046 5DE0     	 b .L126
 2613              	.L136:
1143:C:/Users/Yushev/git/wpcqi-optiga-trust-charge/optiga/optiga/cmd\optiga_cmd.c ****         {
1144:C:/Users/Yushev/git/wpcqi-optiga-trust-charge/optiga/optiga/cmd\optiga_cmd.c ****             // After successful Close Application, change state to invoke optiga_comms_close
1145:C:/Users/Yushev/git/wpcqi-optiga-trust-charge/optiga/optiga/cmd\optiga_cmd.c ****             if (OPTIGA_CMD_CLOSE_APPLICATION == OPTIGA_CMD_GET_APDU_CMD(me->apdu_data))
 2614              	 .loc 1 1145 0
 2615 0048 7B68     	 ldr r3,[r7,#4]
 2616 004a 1B8C     	 ldrh r3,[r3,#32]
 2617 004c DBB2     	 uxtb r3,r3
 2618 004e F12B     	 cmp r3,#241
 2619 0050 14D1     	 bne .L131
1146:C:/Users/Yushev/git/wpcqi-optiga-trust-charge/optiga/optiga/cmd\optiga_cmd.c ****             {
1147:C:/Users/Yushev/git/wpcqi-optiga-trust-charge/optiga/optiga/cmd\optiga_cmd.c ****                 pal_os_event_register_callback_oneshot(me->p_optiga->p_pal_os_event_ctx,
 2620              	 .loc 1 1147 0
 2621 0052 7B68     	 ldr r3,[r7,#4]
 2622 0054 1B68     	 ldr r3,[r3]
 2623 0056 D3F86C36 	 ldr r3,[r3,#1644]
 2624 005a 1846     	 mov r0,r3
 2625 005c 2B49     	 ldr r1,.L137
 2626 005e 7A68     	 ldr r2,[r7,#4]
 2627 0060 4FF47A73 	 mov r3,#1000
 2628 0064 FFF7FEFF 	 bl pal_os_event_register_callback_oneshot
1148:C:/Users/Yushev/git/wpcqi-optiga-trust-charge/optiga/optiga/cmd\optiga_cmd.c ****                                                        (register_callback)optiga_cmd_event_trigger_
1149:C:/Users/Yushev/git/wpcqi-optiga-trust-charge/optiga/optiga/cmd\optiga_cmd.c ****                                                        me,
1150:C:/Users/Yushev/git/wpcqi-optiga-trust-charge/optiga/optiga/cmd\optiga_cmd.c ****                                                        OPTIGA_CMD_SCHEDULER_IDLING_TIME_MS);
1151:C:/Users/Yushev/git/wpcqi-optiga-trust-charge/optiga/optiga/cmd\optiga_cmd.c ****                 *exit_loop = TRUE;
 2629              	 .loc 1 1151 0
 2630 0068 3B68     	 ldr r3,[r7]
 2631 006a 0122     	 movs r2,#1
 2632 006c 1A70     	 strb r2,[r3]
1152:C:/Users/Yushev/git/wpcqi-optiga-trust-charge/optiga/optiga/cmd\optiga_cmd.c ****                 me->cmd_next_execution_state = OPTIGA_CMD_EXEC_COMMS_CLOSE;
 2633              	 .loc 1 1152 0
 2634 006e 7B68     	 ldr r3,[r7,#4]
 2635 0070 0122     	 movs r2,#1
 2636 0072 9A75     	 strb r2,[r3,#22]
1153:C:/Users/Yushev/git/wpcqi-optiga-trust-charge/optiga/optiga/cmd\optiga_cmd.c ****                 me->cmd_sub_execution_state = OPTIGA_CMD_EXEC_COMMS_CLOSE_START;
 2637              	 .loc 1 1153 0
 2638 0074 7B68     	 ldr r3,[r7,#4]
 2639 0076 0322     	 movs r2,#3
 2640 0078 DA75     	 strb r2,[r3,#23]
 2641 007a 43E0     	 b .L126
 2642              	.L131:
1154:C:/Users/Yushev/git/wpcqi-optiga-trust-charge/optiga/optiga/cmd\optiga_cmd.c ****             }
1155:C:/Users/Yushev/git/wpcqi-optiga-trust-charge/optiga/optiga/cmd\optiga_cmd.c ****             else
1156:C:/Users/Yushev/git/wpcqi-optiga-trust-charge/optiga/optiga/cmd\optiga_cmd.c ****             {
1157:C:/Users/Yushev/git/wpcqi-optiga-trust-charge/optiga/optiga/cmd\optiga_cmd.c ****                 if (FALSE == me->chaining_ongoing)
 2643              	 .loc 1 1157 0
 2644 007c 7B68     	 ldr r3,[r7,#4]
 2645 007e 1B7E     	 ldrb r3,[r3,#24]
 2646 0080 002B     	 cmp r3,#0
 2647 0082 0AD1     	 bne .L133
1158:C:/Users/Yushev/git/wpcqi-optiga-trust-charge/optiga/optiga/cmd\optiga_cmd.c ****                 {
1159:C:/Users/Yushev/git/wpcqi-optiga-trust-charge/optiga/optiga/cmd\optiga_cmd.c ****                     if (OPTIGA_CMD_STATE_EXIT != me->cmd_sub_execution_state)
 2648              	 .loc 1 1159 0
 2649 0084 7B68     	 ldr r3,[r7,#4]
 2650 0086 DB7D     	 ldrb r3,[r3,#23]
 2651 0088 0C2B     	 cmp r3,#12
 2652 008a 02D0     	 beq .L134
1160:C:/Users/Yushev/git/wpcqi-optiga-trust-charge/optiga/optiga/cmd\optiga_cmd.c ****                     {
1161:C:/Users/Yushev/git/wpcqi-optiga-trust-charge/optiga/optiga/cmd\optiga_cmd.c ****                         me->cmd_sub_execution_state = OPTIGA_CMD_EXEC_RELEASE_LOCK;
 2653              	 .loc 1 1161 0
 2654 008c 7B68     	 ldr r3,[r7,#4]
 2655 008e 0B22     	 movs r2,#11
 2656 0090 DA75     	 strb r2,[r3,#23]
 2657              	.L134:
1162:C:/Users/Yushev/git/wpcqi-optiga-trust-charge/optiga/optiga/cmd\optiga_cmd.c ****                     }
1163:C:/Users/Yushev/git/wpcqi-optiga-trust-charge/optiga/optiga/cmd\optiga_cmd.c ****                     *exit_loop = FALSE;
 2658              	 .loc 1 1163 0
 2659 0092 3B68     	 ldr r3,[r7]
 2660 0094 0022     	 movs r2,#0
 2661 0096 1A70     	 strb r2,[r3]
1164:C:/Users/Yushev/git/wpcqi-optiga-trust-charge/optiga/optiga/cmd\optiga_cmd.c ****                     break;
 2662              	 .loc 1 1164 0
 2663 0098 34E0     	 b .L126
 2664              	.L133:
1165:C:/Users/Yushev/git/wpcqi-optiga-trust-charge/optiga/optiga/cmd\optiga_cmd.c ****                 }
1166:C:/Users/Yushev/git/wpcqi-optiga-trust-charge/optiga/optiga/cmd\optiga_cmd.c ****                 // for chaining, trigger preparing of next command
1167:C:/Users/Yushev/git/wpcqi-optiga-trust-charge/optiga/optiga/cmd\optiga_cmd.c ****                 else
1168:C:/Users/Yushev/git/wpcqi-optiga-trust-charge/optiga/optiga/cmd\optiga_cmd.c ****                 {
1169:C:/Users/Yushev/git/wpcqi-optiga-trust-charge/optiga/optiga/cmd\optiga_cmd.c ****                     pal_os_event_register_callback_oneshot(me->p_optiga->p_pal_os_event_ctx,
 2665              	 .loc 1 1169 0
