   1              	 .syntax unified
   2              	 .cpu cortex-m4
   3              	 .eabi_attribute 27,3
   4              	 .fpu fpv4-sp-d16
   5              	 .eabi_attribute 20,1
   6              	 .eabi_attribute 21,1
   7              	 .eabi_attribute 23,3
   8              	 .eabi_attribute 24,1
   9              	 .eabi_attribute 25,1
  10              	 .eabi_attribute 26,1
  11              	 .eabi_attribute 30,6
  12              	 .eabi_attribute 34,1
  13              	 .eabi_attribute 18,4
  14              	 .thumb
  15              	 .file "optiga_crypt.c"
  16              	 .text
  17              	.Ltext0:
  18              	 .cfi_sections .debug_frame
  19              	 .section .text.optiga_crypt_generic_event_handler,"ax",%progbits
  20              	 .align 2
  21              	 .thumb
  22              	 .thumb_func
  24              	optiga_crypt_generic_event_handler:
  25              	.LFB0:
  26              	 .file 1 "C:/Users/Yushev/git/wpcqi-optiga-trust-charge/optiga/optiga/crypt/optiga_crypt.c"
   1:C:/Users/Yushev/git/wpcqi-optiga-trust-charge/optiga/optiga/crypt\optiga_crypt.c **** /**
   2:C:/Users/Yushev/git/wpcqi-optiga-trust-charge/optiga/optiga/crypt\optiga_crypt.c **** * \copyright
   3:C:/Users/Yushev/git/wpcqi-optiga-trust-charge/optiga/optiga/crypt\optiga_crypt.c **** * MIT License
   4:C:/Users/Yushev/git/wpcqi-optiga-trust-charge/optiga/optiga/crypt\optiga_crypt.c **** *
   5:C:/Users/Yushev/git/wpcqi-optiga-trust-charge/optiga/optiga/crypt\optiga_crypt.c **** * Copyright (c) 2020 Infineon Technologies AG
   6:C:/Users/Yushev/git/wpcqi-optiga-trust-charge/optiga/optiga/crypt\optiga_crypt.c **** *
   7:C:/Users/Yushev/git/wpcqi-optiga-trust-charge/optiga/optiga/crypt\optiga_crypt.c **** * Permission is hereby granted, free of charge, to any person obtaining a copy
   8:C:/Users/Yushev/git/wpcqi-optiga-trust-charge/optiga/optiga/crypt\optiga_crypt.c **** * of this software and associated documentation files (the "Software"), to deal
   9:C:/Users/Yushev/git/wpcqi-optiga-trust-charge/optiga/optiga/crypt\optiga_crypt.c **** * in the Software without restriction, including without limitation the rights
  10:C:/Users/Yushev/git/wpcqi-optiga-trust-charge/optiga/optiga/crypt\optiga_crypt.c **** * to use, copy, modify, merge, publish, distribute, sublicense, and/or sell
  11:C:/Users/Yushev/git/wpcqi-optiga-trust-charge/optiga/optiga/crypt\optiga_crypt.c **** * copies of the Software, and to permit persons to whom the Software is
  12:C:/Users/Yushev/git/wpcqi-optiga-trust-charge/optiga/optiga/crypt\optiga_crypt.c **** * furnished to do so, subject to the following conditions:
  13:C:/Users/Yushev/git/wpcqi-optiga-trust-charge/optiga/optiga/crypt\optiga_crypt.c **** *
  14:C:/Users/Yushev/git/wpcqi-optiga-trust-charge/optiga/optiga/crypt\optiga_crypt.c **** * The above copyright notice and this permission notice shall be included in all
  15:C:/Users/Yushev/git/wpcqi-optiga-trust-charge/optiga/optiga/crypt\optiga_crypt.c **** * copies or substantial portions of the Software.
  16:C:/Users/Yushev/git/wpcqi-optiga-trust-charge/optiga/optiga/crypt\optiga_crypt.c **** *
  17:C:/Users/Yushev/git/wpcqi-optiga-trust-charge/optiga/optiga/crypt\optiga_crypt.c **** * THE SOFTWARE IS PROVIDED "AS IS", WITHOUT WARRANTY OF ANY KIND, EXPRESS OR
  18:C:/Users/Yushev/git/wpcqi-optiga-trust-charge/optiga/optiga/crypt\optiga_crypt.c **** * IMPLIED, INCLUDING BUT NOT LIMITED TO THE WARRANTIES OF MERCHANTABILITY,
  19:C:/Users/Yushev/git/wpcqi-optiga-trust-charge/optiga/optiga/crypt\optiga_crypt.c **** * FITNESS FOR A PARTICULAR PURPOSE AND NONINFRINGEMENT. IN NO EVENT SHALL THE
  20:C:/Users/Yushev/git/wpcqi-optiga-trust-charge/optiga/optiga/crypt\optiga_crypt.c **** * AUTHORS OR COPYRIGHT HOLDERS BE LIABLE FOR ANY CLAIM, DAMAGES OR OTHER
  21:C:/Users/Yushev/git/wpcqi-optiga-trust-charge/optiga/optiga/crypt\optiga_crypt.c **** * LIABILITY, WHETHER IN AN ACTION OF CONTRACT, TORT OR OTHERWISE, ARISING FROM,
  22:C:/Users/Yushev/git/wpcqi-optiga-trust-charge/optiga/optiga/crypt\optiga_crypt.c **** * OUT OF OR IN CONNECTION WITH THE SOFTWARE OR THE USE OR OTHER DEALINGS IN THE
  23:C:/Users/Yushev/git/wpcqi-optiga-trust-charge/optiga/optiga/crypt\optiga_crypt.c **** * SOFTWARE
  24:C:/Users/Yushev/git/wpcqi-optiga-trust-charge/optiga/optiga/crypt\optiga_crypt.c **** *
  25:C:/Users/Yushev/git/wpcqi-optiga-trust-charge/optiga/optiga/crypt\optiga_crypt.c **** * \endcopyright
  26:C:/Users/Yushev/git/wpcqi-optiga-trust-charge/optiga/optiga/crypt\optiga_crypt.c **** *
  27:C:/Users/Yushev/git/wpcqi-optiga-trust-charge/optiga/optiga/crypt\optiga_crypt.c **** * \author Infineon Technologies AG
  28:C:/Users/Yushev/git/wpcqi-optiga-trust-charge/optiga/optiga/crypt\optiga_crypt.c **** *
  29:C:/Users/Yushev/git/wpcqi-optiga-trust-charge/optiga/optiga/crypt\optiga_crypt.c **** * \file optiga_crypt.c
  30:C:/Users/Yushev/git/wpcqi-optiga-trust-charge/optiga/optiga/crypt\optiga_crypt.c **** *
  31:C:/Users/Yushev/git/wpcqi-optiga-trust-charge/optiga/optiga/crypt\optiga_crypt.c **** * \brief   This file implements the OPTIGA Crypt module.
  32:C:/Users/Yushev/git/wpcqi-optiga-trust-charge/optiga/optiga/crypt\optiga_crypt.c **** *
  33:C:/Users/Yushev/git/wpcqi-optiga-trust-charge/optiga/optiga/crypt\optiga_crypt.c **** * \ingroup  grOptigaCrypt
  34:C:/Users/Yushev/git/wpcqi-optiga-trust-charge/optiga/optiga/crypt\optiga_crypt.c **** *
  35:C:/Users/Yushev/git/wpcqi-optiga-trust-charge/optiga/optiga/crypt\optiga_crypt.c **** * @{
  36:C:/Users/Yushev/git/wpcqi-optiga-trust-charge/optiga/optiga/crypt\optiga_crypt.c **** */
  37:C:/Users/Yushev/git/wpcqi-optiga-trust-charge/optiga/optiga/crypt\optiga_crypt.c **** 
  38:C:/Users/Yushev/git/wpcqi-optiga-trust-charge/optiga/optiga/crypt\optiga_crypt.c **** 
  39:C:/Users/Yushev/git/wpcqi-optiga-trust-charge/optiga/optiga/crypt\optiga_crypt.c **** #include "optiga/optiga_crypt.h"
  40:C:/Users/Yushev/git/wpcqi-optiga-trust-charge/optiga/optiga/crypt\optiga_crypt.c **** #include "optiga/common/optiga_lib_logger.h"
  41:C:/Users/Yushev/git/wpcqi-optiga-trust-charge/optiga/optiga/crypt\optiga_crypt.c **** #include "optiga/common/optiga_lib_common_internal.h"
  42:C:/Users/Yushev/git/wpcqi-optiga-trust-charge/optiga/optiga/crypt\optiga_crypt.c **** #include "optiga/pal/pal_os_memory.h"
  43:C:/Users/Yushev/git/wpcqi-optiga-trust-charge/optiga/optiga/crypt\optiga_crypt.c **** 
  44:C:/Users/Yushev/git/wpcqi-optiga-trust-charge/optiga/optiga/crypt\optiga_crypt.c **** /// ECDSA FIPS 186-3 without hash
  45:C:/Users/Yushev/git/wpcqi-optiga-trust-charge/optiga/optiga/crypt\optiga_crypt.c **** #define OPTIGA_CRYPT_ECDSA_FIPS_186_3_WITHOUT_HASH                  (0x11)
  46:C:/Users/Yushev/git/wpcqi-optiga-trust-charge/optiga/optiga/crypt\optiga_crypt.c **** 
  47:C:/Users/Yushev/git/wpcqi-optiga-trust-charge/optiga/optiga/crypt\optiga_crypt.c **** 
  48:C:/Users/Yushev/git/wpcqi-optiga-trust-charge/optiga/optiga/crypt\optiga_crypt.c **** #if defined (OPTIGA_LIB_ENABLE_LOGGING) && defined (OPTIGA_LIB_ENABLE_CRYPT_LOGGING)
  49:C:/Users/Yushev/git/wpcqi-optiga-trust-charge/optiga/optiga/crypt\optiga_crypt.c **** 
  50:C:/Users/Yushev/git/wpcqi-optiga-trust-charge/optiga/optiga/crypt\optiga_crypt.c **** // Logs the message provided from Crypt layer
  51:C:/Users/Yushev/git/wpcqi-optiga-trust-charge/optiga/optiga/crypt\optiga_crypt.c **** #define OPTIGA_CRYPT_LOG_MESSAGE(msg) \
  52:C:/Users/Yushev/git/wpcqi-optiga-trust-charge/optiga/optiga/crypt\optiga_crypt.c **** {\
  53:C:/Users/Yushev/git/wpcqi-optiga-trust-charge/optiga/optiga/crypt\optiga_crypt.c ****     optiga_lib_print_message(msg,OPTIGA_CRYPT_SERVICE,OPTIGA_CRYPT_SERVICE_COLOR);\
  54:C:/Users/Yushev/git/wpcqi-optiga-trust-charge/optiga/optiga/crypt\optiga_crypt.c **** }
  55:C:/Users/Yushev/git/wpcqi-optiga-trust-charge/optiga/optiga/crypt\optiga_crypt.c **** 
  56:C:/Users/Yushev/git/wpcqi-optiga-trust-charge/optiga/optiga/crypt\optiga_crypt.c **** // Logs the byte array buffer provided from Crypt layer in hexadecimal format
  57:C:/Users/Yushev/git/wpcqi-optiga-trust-charge/optiga/optiga/crypt\optiga_crypt.c **** //lint --e{750} suppress "The unused OPTIGA_CRYPT_LOG_HEX_DATA macro is kept for future enhancement
  58:C:/Users/Yushev/git/wpcqi-optiga-trust-charge/optiga/optiga/crypt\optiga_crypt.c **** #define OPTIGA_CRYPT_LOG_HEX_DATA(array,array_len) \
  59:C:/Users/Yushev/git/wpcqi-optiga-trust-charge/optiga/optiga/crypt\optiga_crypt.c **** {\
  60:C:/Users/Yushev/git/wpcqi-optiga-trust-charge/optiga/optiga/crypt\optiga_crypt.c ****     optiga_lib_print_array_hex_format(array,array_len,OPTIGA_UNPROTECTED_DATA_COLOR);\
  61:C:/Users/Yushev/git/wpcqi-optiga-trust-charge/optiga/optiga/crypt\optiga_crypt.c **** }
  62:C:/Users/Yushev/git/wpcqi-optiga-trust-charge/optiga/optiga/crypt\optiga_crypt.c **** 
  63:C:/Users/Yushev/git/wpcqi-optiga-trust-charge/optiga/optiga/crypt\optiga_crypt.c **** //Logs the status info provided from Crypt layer
  64:C:/Users/Yushev/git/wpcqi-optiga-trust-charge/optiga/optiga/crypt\optiga_crypt.c **** //lint --e{750} suppress "The unused OPTIGA_CRYPT_LOG_STATUS macro is kept for future enhancements"
  65:C:/Users/Yushev/git/wpcqi-optiga-trust-charge/optiga/optiga/crypt\optiga_crypt.c **** #define OPTIGA_CRYPT_LOG_STATUS(return_value) \
  66:C:/Users/Yushev/git/wpcqi-optiga-trust-charge/optiga/optiga/crypt\optiga_crypt.c **** { \
  67:C:/Users/Yushev/git/wpcqi-optiga-trust-charge/optiga/optiga/crypt\optiga_crypt.c ****     if (OPTIGA_LIB_SUCCESS != return_value) \
  68:C:/Users/Yushev/git/wpcqi-optiga-trust-charge/optiga/optiga/crypt\optiga_crypt.c ****     { \
  69:C:/Users/Yushev/git/wpcqi-optiga-trust-charge/optiga/optiga/crypt\optiga_crypt.c ****         optiga_lib_print_status(OPTIGA_CRYPT_SERVICE,OPTIGA_ERROR_COLOR,return_value); \
  70:C:/Users/Yushev/git/wpcqi-optiga-trust-charge/optiga/optiga/crypt\optiga_crypt.c ****     } \
  71:C:/Users/Yushev/git/wpcqi-optiga-trust-charge/optiga/optiga/crypt\optiga_crypt.c ****     else\
  72:C:/Users/Yushev/git/wpcqi-optiga-trust-charge/optiga/optiga/crypt\optiga_crypt.c ****     { \
  73:C:/Users/Yushev/git/wpcqi-optiga-trust-charge/optiga/optiga/crypt\optiga_crypt.c ****         optiga_lib_print_status(OPTIGA_CRYPT_SERVICE,OPTIGA_CRYPT_SERVICE_COLOR,return_value); \
  74:C:/Users/Yushev/git/wpcqi-optiga-trust-charge/optiga/optiga/crypt\optiga_crypt.c ****     } \
  75:C:/Users/Yushev/git/wpcqi-optiga-trust-charge/optiga/optiga/crypt\optiga_crypt.c **** }
  76:C:/Users/Yushev/git/wpcqi-optiga-trust-charge/optiga/optiga/crypt\optiga_crypt.c **** #else
  77:C:/Users/Yushev/git/wpcqi-optiga-trust-charge/optiga/optiga/crypt\optiga_crypt.c **** 
  78:C:/Users/Yushev/git/wpcqi-optiga-trust-charge/optiga/optiga/crypt\optiga_crypt.c **** #define OPTIGA_CRYPT_LOG_MESSAGE(msg) {}
  79:C:/Users/Yushev/git/wpcqi-optiga-trust-charge/optiga/optiga/crypt\optiga_crypt.c **** //lint --e{750} suppress "The unused OPTIGA_CRYPT_LOG_HEX_DATA macro is kept for future enhancement
  80:C:/Users/Yushev/git/wpcqi-optiga-trust-charge/optiga/optiga/crypt\optiga_crypt.c **** #define OPTIGA_CRYPT_LOG_HEX_DATA(array, array_len) {}
  81:C:/Users/Yushev/git/wpcqi-optiga-trust-charge/optiga/optiga/crypt\optiga_crypt.c **** //lint --e{750} suppress "The unused OPTIGA_CRYPT_LOG_STATUS macro is kept for future enhancements"
  82:C:/Users/Yushev/git/wpcqi-optiga-trust-charge/optiga/optiga/crypt\optiga_crypt.c **** #define OPTIGA_CRYPT_LOG_STATUS(return_value) {}
  83:C:/Users/Yushev/git/wpcqi-optiga-trust-charge/optiga/optiga/crypt\optiga_crypt.c **** 
  84:C:/Users/Yushev/git/wpcqi-optiga-trust-charge/optiga/optiga/crypt\optiga_crypt.c **** #endif
  85:C:/Users/Yushev/git/wpcqi-optiga-trust-charge/optiga/optiga/crypt\optiga_crypt.c **** 
  86:C:/Users/Yushev/git/wpcqi-optiga-trust-charge/optiga/optiga/crypt\optiga_crypt.c **** _STATIC_H void optiga_crypt_generic_event_handler(void * p_ctx,
  87:C:/Users/Yushev/git/wpcqi-optiga-trust-charge/optiga/optiga/crypt\optiga_crypt.c ****                                                   optiga_lib_status_t event)
  88:C:/Users/Yushev/git/wpcqi-optiga-trust-charge/optiga/optiga/crypt\optiga_crypt.c **** {
  27              	 .loc 1 88 0
  28              	 .cfi_startproc
  29              	 
  30              	 
  31 0000 80B5     	 push {r7,lr}
  32              	.LCFI0:
  33              	 .cfi_def_cfa_offset 8
  34              	 .cfi_offset 7,-8
  35              	 .cfi_offset 14,-4
  36 0002 84B0     	 sub sp,sp,#16
  37              	.LCFI1:
  38              	 .cfi_def_cfa_offset 24
  39 0004 00AF     	 add r7,sp,#0
  40              	.LCFI2:
  41              	 .cfi_def_cfa_register 7
  42 0006 7860     	 str r0,[r7,#4]
  43 0008 0B46     	 mov r3,r1
  44 000a 7B80     	 strh r3,[r7,#2]
  89:C:/Users/Yushev/git/wpcqi-optiga-trust-charge/optiga/optiga/crypt\optiga_crypt.c ****     optiga_crypt_t * me = (optiga_crypt_t *)p_ctx;
  45              	 .loc 1 89 0
  46 000c 7B68     	 ldr r3,[r7,#4]
  47 000e FB60     	 str r3,[r7,#12]
  90:C:/Users/Yushev/git/wpcqi-optiga-trust-charge/optiga/optiga/crypt\optiga_crypt.c **** 
  91:C:/Users/Yushev/git/wpcqi-optiga-trust-charge/optiga/optiga/crypt\optiga_crypt.c ****     me->instance_state = OPTIGA_LIB_INSTANCE_FREE;
  48              	 .loc 1 91 0
  49 0010 FB68     	 ldr r3,[r7,#12]
  50 0012 0022     	 movs r2,#0
  51 0014 9A85     	 strh r2,[r3,#44]
  92:C:/Users/Yushev/git/wpcqi-optiga-trust-charge/optiga/optiga/crypt\optiga_crypt.c ****     me->handler(me->caller_context, event);
  52              	 .loc 1 92 0
  53 0016 FB68     	 ldr r3,[r7,#12]
  54 0018 9B6A     	 ldr r3,[r3,#40]
  55 001a FA68     	 ldr r2,[r7,#12]
  56 001c 516A     	 ldr r1,[r2,#36]
  57 001e 7A88     	 ldrh r2,[r7,#2]
  58 0020 0846     	 mov r0,r1
  59 0022 1146     	 mov r1,r2
  60 0024 9847     	 blx r3
  93:C:/Users/Yushev/git/wpcqi-optiga-trust-charge/optiga/optiga/crypt\optiga_crypt.c **** }
  61              	 .loc 1 93 0
  62 0026 1037     	 adds r7,r7,#16
  63              	.LCFI3:
  64              	 .cfi_def_cfa_offset 8
  65 0028 BD46     	 mov sp,r7
  66              	.LCFI4:
  67              	 .cfi_def_cfa_register 13
  68              	 
  69 002a 80BD     	 pop {r7,pc}
  70              	 .cfi_endproc
  71              	.LFE0:
  73              	 .section .text.optiga_crypt_reset_protection_level,"ax",%progbits
  74              	 .align 2
  75              	 .thumb
  76              	 .thumb_func
  78              	optiga_crypt_reset_protection_level:
  79              	.LFB1:
  94:C:/Users/Yushev/git/wpcqi-optiga-trust-charge/optiga/optiga/crypt\optiga_crypt.c **** 
  95:C:/Users/Yushev/git/wpcqi-optiga-trust-charge/optiga/optiga/crypt\optiga_crypt.c **** _STATIC_H void optiga_crypt_reset_protection_level(optiga_crypt_t * me)
  96:C:/Users/Yushev/git/wpcqi-optiga-trust-charge/optiga/optiga/crypt\optiga_crypt.c **** {
  80              	 .loc 1 96 0
  81              	 .cfi_startproc
  82              	 
  83              	 
  84              	 
  85 0000 80B4     	 push {r7}
  86              	.LCFI5:
  87              	 .cfi_def_cfa_offset 4
  88              	 .cfi_offset 7,-4
  89 0002 83B0     	 sub sp,sp,#12
  90              	.LCFI6:
  91              	 .cfi_def_cfa_offset 16
  92 0004 00AF     	 add r7,sp,#0
  93              	.LCFI7:
  94              	 .cfi_def_cfa_register 7
  95 0006 7860     	 str r0,[r7,#4]
  97:C:/Users/Yushev/git/wpcqi-optiga-trust-charge/optiga/optiga/crypt\optiga_crypt.c **** #ifdef OPTIGA_LIB_DEBUG_NULL_CHECK
  98:C:/Users/Yushev/git/wpcqi-optiga-trust-charge/optiga/optiga/crypt\optiga_crypt.c ****     if (NULL != me)
  99:C:/Users/Yushev/git/wpcqi-optiga-trust-charge/optiga/optiga/crypt\optiga_crypt.c **** #endif
 100:C:/Users/Yushev/git/wpcqi-optiga-trust-charge/optiga/optiga/crypt\optiga_crypt.c ****     {
 101:C:/Users/Yushev/git/wpcqi-optiga-trust-charge/optiga/optiga/crypt\optiga_crypt.c ****         OPTIGA_CRYPT_SET_COMMS_PROTECTION_LEVEL(me, OPTIGA_COMMS_DEFAULT_PROTECTION_LEVEL);
 102:C:/Users/Yushev/git/wpcqi-optiga-trust-charge/optiga/optiga/crypt\optiga_crypt.c ****     }
 103:C:/Users/Yushev/git/wpcqi-optiga-trust-charge/optiga/optiga/crypt\optiga_crypt.c **** }
  96              	 .loc 1 103 0
  97 0008 0C37     	 adds r7,r7,#12
  98              	.LCFI8:
  99              	 .cfi_def_cfa_offset 4
 100 000a BD46     	 mov sp,r7
 101              	.LCFI9:
 102              	 .cfi_def_cfa_register 13
 103              	 
 104 000c 5DF8047B 	 ldr r7,[sp],#4
 105              	.LCFI10:
 106              	 .cfi_restore 7
 107              	 .cfi_def_cfa_offset 0
 108 0010 7047     	 bx lr
 109              	 .cfi_endproc
 110              	.LFE1:
 112 0012 00BF     	 .section .text.optiga_crypt_generate_keypair,"ax",%progbits
 113              	 .align 2
 114              	 .thumb
 115              	 .thumb_func
 117              	optiga_crypt_generate_keypair:
 118              	.LFB2:
 104:C:/Users/Yushev/git/wpcqi-optiga-trust-charge/optiga/optiga/crypt\optiga_crypt.c **** 
 105:C:/Users/Yushev/git/wpcqi-optiga-trust-charge/optiga/optiga/crypt\optiga_crypt.c **** extern void optiga_cmd_set_shielded_connection_option(optiga_cmd_t * me,
 106:C:/Users/Yushev/git/wpcqi-optiga-trust-charge/optiga/optiga/crypt\optiga_crypt.c ****                                                       uint8_t value,
 107:C:/Users/Yushev/git/wpcqi-optiga-trust-charge/optiga/optiga/crypt\optiga_crypt.c ****                                                       uint8_t shielded_connection_option);
 108:C:/Users/Yushev/git/wpcqi-optiga-trust-charge/optiga/optiga/crypt\optiga_crypt.c **** 
 109:C:/Users/Yushev/git/wpcqi-optiga-trust-charge/optiga/optiga/crypt\optiga_crypt.c **** #ifdef OPTIGA_CRYPT_ECC_GENERATE_KEYPAIR_ENABLED
 110:C:/Users/Yushev/git/wpcqi-optiga-trust-charge/optiga/optiga/crypt\optiga_crypt.c **** _STATIC_H optiga_lib_status_t optiga_crypt_generate_keypair(optiga_crypt_t * me,
 111:C:/Users/Yushev/git/wpcqi-optiga-trust-charge/optiga/optiga/crypt\optiga_crypt.c ****                                                             uint8_t cmd_param,
 112:C:/Users/Yushev/git/wpcqi-optiga-trust-charge/optiga/optiga/crypt\optiga_crypt.c ****                                                             uint8_t key_usage,
 113:C:/Users/Yushev/git/wpcqi-optiga-trust-charge/optiga/optiga/crypt\optiga_crypt.c ****                                                             bool_t export_private_key,
 114:C:/Users/Yushev/git/wpcqi-optiga-trust-charge/optiga/optiga/crypt\optiga_crypt.c ****                                                             void * p_private_key,
 115:C:/Users/Yushev/git/wpcqi-optiga-trust-charge/optiga/optiga/crypt\optiga_crypt.c ****                                                             uint8_t * p_public_key,
 116:C:/Users/Yushev/git/wpcqi-optiga-trust-charge/optiga/optiga/crypt\optiga_crypt.c ****                                                             uint16_t * p_public_key_length)
 117:C:/Users/Yushev/git/wpcqi-optiga-trust-charge/optiga/optiga/crypt\optiga_crypt.c **** {
 119              	 .loc 1 117 0
 120              	 .cfi_startproc
 121              	 
 122              	 
 123 0000 80B5     	 push {r7,lr}
 124              	.LCFI11:
 125              	 .cfi_def_cfa_offset 8
 126              	 .cfi_offset 7,-8
 127              	 .cfi_offset 14,-4
 128 0002 84B0     	 sub sp,sp,#16
 129              	.LCFI12:
 130              	 .cfi_def_cfa_offset 24
 131 0004 00AF     	 add r7,sp,#0
 132              	.LCFI13:
 133              	 .cfi_def_cfa_register 7
 134 0006 7860     	 str r0,[r7,#4]
 135 0008 0846     	 mov r0,r1
 136 000a 1146     	 mov r1,r2
 137 000c 1A46     	 mov r2,r3
 138 000e 0346     	 mov r3,r0
 139 0010 FB70     	 strb r3,[r7,#3]
 140 0012 0B46     	 mov r3,r1
 141 0014 BB70     	 strb r3,[r7,#2]
 142 0016 1346     	 mov r3,r2
 143 0018 7B70     	 strb r3,[r7,#1]
 118:C:/Users/Yushev/git/wpcqi-optiga-trust-charge/optiga/optiga/crypt\optiga_crypt.c ****     optiga_lib_status_t return_value = OPTIGA_CRYPT_ERROR;
 144              	 .loc 1 118 0
 145 001a 40F20243 	 movw r3,#1026
 146 001e FB81     	 strh r3,[r7,#14]
 119:C:/Users/Yushev/git/wpcqi-optiga-trust-charge/optiga/optiga/crypt\optiga_crypt.c ****     optiga_gen_keypair_params_t * p_params;
 120:C:/Users/Yushev/git/wpcqi-optiga-trust-charge/optiga/optiga/crypt\optiga_crypt.c **** 
 121:C:/Users/Yushev/git/wpcqi-optiga-trust-charge/optiga/optiga/crypt\optiga_crypt.c ****     do
 122:C:/Users/Yushev/git/wpcqi-optiga-trust-charge/optiga/optiga/crypt\optiga_crypt.c ****     {
 123:C:/Users/Yushev/git/wpcqi-optiga-trust-charge/optiga/optiga/crypt\optiga_crypt.c **** #ifdef OPTIGA_LIB_DEBUG_NULL_CHECK
 124:C:/Users/Yushev/git/wpcqi-optiga-trust-charge/optiga/optiga/crypt\optiga_crypt.c ****         if ((NULL == me) || (NULL == me->my_cmd) ||
 147              	 .loc 1 124 0
 148 0020 7B68     	 ldr r3,[r7,#4]
 149 0022 002B     	 cmp r3,#0
 150 0024 0CD0     	 beq .L4
 151              	 .loc 1 124 0 is_stmt 0 discriminator 1
 152 0026 7B68     	 ldr r3,[r7,#4]
 153 0028 1B6A     	 ldr r3,[r3,#32]
 154 002a 002B     	 cmp r3,#0
 155 002c 08D0     	 beq .L4
 156              	 .loc 1 124 0 discriminator 2
 157 002e FB69     	 ldr r3,[r7,#28]
 158 0030 002B     	 cmp r3,#0
 159 0032 05D0     	 beq .L4
 125:C:/Users/Yushev/git/wpcqi-optiga-trust-charge/optiga/optiga/crypt\optiga_crypt.c ****             (NULL == p_public_key) || (NULL == p_private_key) || (NULL == p_public_key_length))
 160              	 .loc 1 125 0 is_stmt 1
 161 0034 BB69     	 ldr r3,[r7,#24]
 162 0036 002B     	 cmp r3,#0
 163 0038 02D0     	 beq .L4
 164              	 .loc 1 125 0 is_stmt 0 discriminator 1
 165 003a 3B6A     	 ldr r3,[r7,#32]
 166 003c 002B     	 cmp r3,#0
 167 003e 03D1     	 bne .L5
 168              	.L4:
 126:C:/Users/Yushev/git/wpcqi-optiga-trust-charge/optiga/optiga/crypt\optiga_crypt.c ****         {
 127:C:/Users/Yushev/git/wpcqi-optiga-trust-charge/optiga/optiga/crypt\optiga_crypt.c ****             return_value = OPTIGA_CRYPT_ERROR_INVALID_INPUT;
 169              	 .loc 1 127 0 is_stmt 1
 170 0040 40F20343 	 movw r3,#1027
 171 0044 FB81     	 strh r3,[r7,#14]
 128:C:/Users/Yushev/git/wpcqi-optiga-trust-charge/optiga/optiga/crypt\optiga_crypt.c ****             break;
 172              	 .loc 1 128 0
 173 0046 36E0     	 b .L6
 174              	.L5:
 129:C:/Users/Yushev/git/wpcqi-optiga-trust-charge/optiga/optiga/crypt\optiga_crypt.c ****         }
 130:C:/Users/Yushev/git/wpcqi-optiga-trust-charge/optiga/optiga/crypt\optiga_crypt.c **** #endif
 131:C:/Users/Yushev/git/wpcqi-optiga-trust-charge/optiga/optiga/crypt\optiga_crypt.c ****         if (OPTIGA_LIB_INSTANCE_BUSY == me->instance_state)
 175              	 .loc 1 131 0
 176 0048 7B68     	 ldr r3,[r7,#4]
 177 004a 9B8D     	 ldrh r3,[r3,#44]
 178 004c 012B     	 cmp r3,#1
 179 004e 03D1     	 bne .L7
 132:C:/Users/Yushev/git/wpcqi-optiga-trust-charge/optiga/optiga/crypt\optiga_crypt.c ****         {
 133:C:/Users/Yushev/git/wpcqi-optiga-trust-charge/optiga/optiga/crypt\optiga_crypt.c ****             return_value = OPTIGA_CRYPT_ERROR_INSTANCE_IN_USE;
 180              	 .loc 1 133 0
 181 0050 40F20543 	 movw r3,#1029
 182 0054 FB81     	 strh r3,[r7,#14]
 134:C:/Users/Yushev/git/wpcqi-optiga-trust-charge/optiga/optiga/crypt\optiga_crypt.c ****             break;
 183              	 .loc 1 134 0
 184 0056 2EE0     	 b .L6
 185              	.L7:
 135:C:/Users/Yushev/git/wpcqi-optiga-trust-charge/optiga/optiga/crypt\optiga_crypt.c ****         }
 136:C:/Users/Yushev/git/wpcqi-optiga-trust-charge/optiga/optiga/crypt\optiga_crypt.c **** 
 137:C:/Users/Yushev/git/wpcqi-optiga-trust-charge/optiga/optiga/crypt\optiga_crypt.c ****         me->instance_state = OPTIGA_LIB_INSTANCE_BUSY;
 186              	 .loc 1 137 0
 187 0058 7B68     	 ldr r3,[r7,#4]
 188 005a 0122     	 movs r2,#1
 189 005c 9A85     	 strh r2,[r3,#44]
 138:C:/Users/Yushev/git/wpcqi-optiga-trust-charge/optiga/optiga/crypt\optiga_crypt.c ****         p_params = (optiga_gen_keypair_params_t *)&(me->params.optiga_gen_keypair_params);
 190              	 .loc 1 138 0
 191 005e 7B68     	 ldr r3,[r7,#4]
 192 0060 BB60     	 str r3,[r7,#8]
 139:C:/Users/Yushev/git/wpcqi-optiga-trust-charge/optiga/optiga/crypt\optiga_crypt.c ****         pal_os_memset(&me->params,0x00,sizeof(optiga_crypt_params_t));
 193              	 .loc 1 139 0
 194 0062 7B68     	 ldr r3,[r7,#4]
 195 0064 1846     	 mov r0,r3
 196 0066 0021     	 movs r1,#0
 197 0068 2022     	 movs r2,#32
 198 006a FFF7FEFF 	 bl pal_os_memset
 140:C:/Users/Yushev/git/wpcqi-optiga-trust-charge/optiga/optiga/crypt\optiga_crypt.c **** 
 141:C:/Users/Yushev/git/wpcqi-optiga-trust-charge/optiga/optiga/crypt\optiga_crypt.c ****         p_params->key_usage = key_usage;
 199              	 .loc 1 141 0
 200 006e BB68     	 ldr r3,[r7,#8]
 201 0070 BA78     	 ldrb r2,[r7,#2]
 202 0072 1A70     	 strb r2,[r3]
 142:C:/Users/Yushev/git/wpcqi-optiga-trust-charge/optiga/optiga/crypt\optiga_crypt.c ****         p_params->export_private_key = export_private_key;
 203              	 .loc 1 142 0
 204 0074 BB68     	 ldr r3,[r7,#8]
 205 0076 7A78     	 ldrb r2,[r7,#1]
 206 0078 5A70     	 strb r2,[r3,#1]
 143:C:/Users/Yushev/git/wpcqi-optiga-trust-charge/optiga/optiga/crypt\optiga_crypt.c ****         p_params->public_key_length = p_public_key_length;
 207              	 .loc 1 143 0
 208 007a BB68     	 ldr r3,[r7,#8]
 209 007c 3A6A     	 ldr r2,[r7,#32]
 210 007e 1A61     	 str r2,[r3,#16]
 144:C:/Users/Yushev/git/wpcqi-optiga-trust-charge/optiga/optiga/crypt\optiga_crypt.c ****         OPTIGA_PROTECTION_ENABLE(me->my_cmd, me);
 145:C:/Users/Yushev/git/wpcqi-optiga-trust-charge/optiga/optiga/crypt\optiga_crypt.c ****         OPTIGA_PROTECTION_SET_VERSION(me->my_cmd, me);
 146:C:/Users/Yushev/git/wpcqi-optiga-trust-charge/optiga/optiga/crypt\optiga_crypt.c **** 
 147:C:/Users/Yushev/git/wpcqi-optiga-trust-charge/optiga/optiga/crypt\optiga_crypt.c ****         if (export_private_key)
 211              	 .loc 1 147 0
 212 0080 7B78     	 ldrb r3,[r7,#1]
 213 0082 002B     	 cmp r3,#0
 214 0084 03D0     	 beq .L8
 148:C:/Users/Yushev/git/wpcqi-optiga-trust-charge/optiga/optiga/crypt\optiga_crypt.c ****         {
 149:C:/Users/Yushev/git/wpcqi-optiga-trust-charge/optiga/optiga/crypt\optiga_crypt.c ****             p_params->private_key = (uint8_t *)p_private_key;
 215              	 .loc 1 149 0
 216 0086 BB68     	 ldr r3,[r7,#8]
 217 0088 BA69     	 ldr r2,[r7,#24]
 218 008a 5A60     	 str r2,[r3,#4]
 219 008c 03E0     	 b .L9
 220              	.L8:
 150:C:/Users/Yushev/git/wpcqi-optiga-trust-charge/optiga/optiga/crypt\optiga_crypt.c ****         }
 151:C:/Users/Yushev/git/wpcqi-optiga-trust-charge/optiga/optiga/crypt\optiga_crypt.c ****         else
 152:C:/Users/Yushev/git/wpcqi-optiga-trust-charge/optiga/optiga/crypt\optiga_crypt.c ****         {
 153:C:/Users/Yushev/git/wpcqi-optiga-trust-charge/optiga/optiga/crypt\optiga_crypt.c ****             p_params->private_key_oid = (optiga_key_id_t)(* ((uint16_t* )p_private_key));
 221              	 .loc 1 153 0
 222 008e BB69     	 ldr r3,[r7,#24]
 223 0090 1A88     	 ldrh r2,[r3]
 224 0092 BB68     	 ldr r3,[r7,#8]
 225 0094 5A80     	 strh r2,[r3,#2]
 226              	.L9:
 154:C:/Users/Yushev/git/wpcqi-optiga-trust-charge/optiga/optiga/crypt\optiga_crypt.c ****         }
 155:C:/Users/Yushev/git/wpcqi-optiga-trust-charge/optiga/optiga/crypt\optiga_crypt.c **** 
 156:C:/Users/Yushev/git/wpcqi-optiga-trust-charge/optiga/optiga/crypt\optiga_crypt.c ****         p_params->public_key = p_public_key;
 227              	 .loc 1 156 0
 228 0096 BB68     	 ldr r3,[r7,#8]
 229 0098 FA69     	 ldr r2,[r7,#28]
 230 009a DA60     	 str r2,[r3,#12]
 157:C:/Users/Yushev/git/wpcqi-optiga-trust-charge/optiga/optiga/crypt\optiga_crypt.c ****         p_params->public_key_length = p_public_key_length;
 231              	 .loc 1 157 0
 232 009c BB68     	 ldr r3,[r7,#8]
 233 009e 3A6A     	 ldr r2,[r7,#32]
 234 00a0 1A61     	 str r2,[r3,#16]
 158:C:/Users/Yushev/git/wpcqi-optiga-trust-charge/optiga/optiga/crypt\optiga_crypt.c **** 
 159:C:/Users/Yushev/git/wpcqi-optiga-trust-charge/optiga/optiga/crypt\optiga_crypt.c ****         return_value = optiga_cmd_gen_keypair(me->my_cmd,
 235              	 .loc 1 159 0
 236 00a2 7B68     	 ldr r3,[r7,#4]
 237 00a4 1A6A     	 ldr r2,[r3,#32]
 238 00a6 FB78     	 ldrb r3,[r7,#3]
 239 00a8 1046     	 mov r0,r2
 240 00aa 1946     	 mov r1,r3
 241 00ac BA68     	 ldr r2,[r7,#8]
 242 00ae FFF7FEFF 	 bl optiga_cmd_gen_keypair
 243 00b2 0346     	 mov r3,r0
 244 00b4 FB81     	 strh r3,[r7,#14]
 245              	.L6:
 160:C:/Users/Yushev/git/wpcqi-optiga-trust-charge/optiga/optiga/crypt\optiga_crypt.c ****                                               (uint8_t )cmd_param,
 161:C:/Users/Yushev/git/wpcqi-optiga-trust-charge/optiga/optiga/crypt\optiga_crypt.c ****                                               (optiga_gen_keypair_params_t *)p_params);
 162:C:/Users/Yushev/git/wpcqi-optiga-trust-charge/optiga/optiga/crypt\optiga_crypt.c ****     } while (FALSE);
 163:C:/Users/Yushev/git/wpcqi-optiga-trust-charge/optiga/optiga/crypt\optiga_crypt.c ****     optiga_crypt_reset_protection_level(me);
 246              	 .loc 1 163 0
 247 00b6 7868     	 ldr r0,[r7,#4]
 248 00b8 FFF7FEFF 	 bl optiga_crypt_reset_protection_level
 164:C:/Users/Yushev/git/wpcqi-optiga-trust-charge/optiga/optiga/crypt\optiga_crypt.c **** 
 165:C:/Users/Yushev/git/wpcqi-optiga-trust-charge/optiga/optiga/crypt\optiga_crypt.c ****     return (return_value);
 249              	 .loc 1 165 0
 250 00bc FB89     	 ldrh r3,[r7,#14]
 166:C:/Users/Yushev/git/wpcqi-optiga-trust-charge/optiga/optiga/crypt\optiga_crypt.c **** }
 251              	 .loc 1 166 0
 252 00be 1846     	 mov r0,r3
 253 00c0 1037     	 adds r7,r7,#16
 254              	.LCFI14:
 255              	 .cfi_def_cfa_offset 8
 256 00c2 BD46     	 mov sp,r7
 257              	.LCFI15:
 258              	 .cfi_def_cfa_register 13
 259              	 
 260 00c4 80BD     	 pop {r7,pc}
 261              	 .cfi_endproc
 262              	.LFE2:
 264 00c6 00BF     	 .section .text.optiga_crypt_sign,"ax",%progbits
 265              	 .align 2
 266              	 .thumb
 267              	 .thumb_func
 269              	optiga_crypt_sign:
 270              	.LFB3:
 167:C:/Users/Yushev/git/wpcqi-optiga-trust-charge/optiga/optiga/crypt\optiga_crypt.c **** #endif // (OPTIGA_CRYPT_ECC_GENERATE_KEYPAIR_ENABLED)
 168:C:/Users/Yushev/git/wpcqi-optiga-trust-charge/optiga/optiga/crypt\optiga_crypt.c **** 
 169:C:/Users/Yushev/git/wpcqi-optiga-trust-charge/optiga/optiga/crypt\optiga_crypt.c **** #ifdef OPTIGA_CRYPT_ECDSA_SIGN_ENABLED
 170:C:/Users/Yushev/git/wpcqi-optiga-trust-charge/optiga/optiga/crypt\optiga_crypt.c **** //lint --e{715} suppress "The salt_length argument is kept for future use"
 171:C:/Users/Yushev/git/wpcqi-optiga-trust-charge/optiga/optiga/crypt\optiga_crypt.c **** _STATIC_H optiga_lib_status_t optiga_crypt_sign(optiga_crypt_t * me,
 172:C:/Users/Yushev/git/wpcqi-optiga-trust-charge/optiga/optiga/crypt\optiga_crypt.c ****                                                 uint8_t signature_scheme,
 173:C:/Users/Yushev/git/wpcqi-optiga-trust-charge/optiga/optiga/crypt\optiga_crypt.c ****                                                 const uint8_t * p_digest,
 174:C:/Users/Yushev/git/wpcqi-optiga-trust-charge/optiga/optiga/crypt\optiga_crypt.c ****                                                 uint8_t digest_length,
 175:C:/Users/Yushev/git/wpcqi-optiga-trust-charge/optiga/optiga/crypt\optiga_crypt.c ****                                                 optiga_key_id_t private_key,
 176:C:/Users/Yushev/git/wpcqi-optiga-trust-charge/optiga/optiga/crypt\optiga_crypt.c ****                                                 uint8_t * p_signature,
 177:C:/Users/Yushev/git/wpcqi-optiga-trust-charge/optiga/optiga/crypt\optiga_crypt.c ****                                                 uint16_t * p_signature_length,
 178:C:/Users/Yushev/git/wpcqi-optiga-trust-charge/optiga/optiga/crypt\optiga_crypt.c ****                                                 uint16_t salt_length)
 179:C:/Users/Yushev/git/wpcqi-optiga-trust-charge/optiga/optiga/crypt\optiga_crypt.c **** {
 271              	 .loc 1 179 0
 272              	 .cfi_startproc
 273              	 
 274              	 
 275 0000 80B5     	 push {r7,lr}
 276              	.LCFI16:
 277              	 .cfi_def_cfa_offset 8
 278              	 .cfi_offset 7,-8
 279              	 .cfi_offset 14,-4
 280 0002 86B0     	 sub sp,sp,#24
 281              	.LCFI17:
 282              	 .cfi_def_cfa_offset 32
 283 0004 00AF     	 add r7,sp,#0
 284              	.LCFI18:
 285              	 .cfi_def_cfa_register 7
 286 0006 F860     	 str r0,[r7,#12]
 287 0008 7A60     	 str r2,[r7,#4]
 288 000a 1A46     	 mov r2,r3
 289 000c 0B46     	 mov r3,r1
 290 000e FB72     	 strb r3,[r7,#11]
 291 0010 1346     	 mov r3,r2
 292 0012 BB72     	 strb r3,[r7,#10]
 180:C:/Users/Yushev/git/wpcqi-optiga-trust-charge/optiga/optiga/crypt\optiga_crypt.c ****     optiga_lib_status_t return_value = OPTIGA_CRYPT_ERROR;
 293              	 .loc 1 180 0
 294 0014 40F20243 	 movw r3,#1026
 295 0018 FB82     	 strh r3,[r7,#22]
 181:C:/Users/Yushev/git/wpcqi-optiga-trust-charge/optiga/optiga/crypt\optiga_crypt.c ****     optiga_calc_sign_params_t * p_params;
 182:C:/Users/Yushev/git/wpcqi-optiga-trust-charge/optiga/optiga/crypt\optiga_crypt.c **** 
 183:C:/Users/Yushev/git/wpcqi-optiga-trust-charge/optiga/optiga/crypt\optiga_crypt.c ****     do
 184:C:/Users/Yushev/git/wpcqi-optiga-trust-charge/optiga/optiga/crypt\optiga_crypt.c ****     {
 185:C:/Users/Yushev/git/wpcqi-optiga-trust-charge/optiga/optiga/crypt\optiga_crypt.c **** #ifdef OPTIGA_LIB_DEBUG_NULL_CHECK
 186:C:/Users/Yushev/git/wpcqi-optiga-trust-charge/optiga/optiga/crypt\optiga_crypt.c ****         if ((NULL == me) || (NULL == me->my_cmd) || (NULL == p_digest) ||
 296              	 .loc 1 186 0
 297 001a FB68     	 ldr r3,[r7,#12]
 298 001c 002B     	 cmp r3,#0
 299 001e 0CD0     	 beq .L12
 300              	 .loc 1 186 0 is_stmt 0 discriminator 1
 301 0020 FB68     	 ldr r3,[r7,#12]
 302 0022 1B6A     	 ldr r3,[r3,#32]
 303 0024 002B     	 cmp r3,#0
 304 0026 08D0     	 beq .L12
 305              	 .loc 1 186 0 discriminator 2
 306 0028 7B68     	 ldr r3,[r7,#4]
 307 002a 002B     	 cmp r3,#0
 308 002c 05D0     	 beq .L12
 309              	 .loc 1 186 0 discriminator 3
 310 002e 7B6A     	 ldr r3,[r7,#36]
 311 0030 002B     	 cmp r3,#0
 312 0032 02D0     	 beq .L12
 187:C:/Users/Yushev/git/wpcqi-optiga-trust-charge/optiga/optiga/crypt\optiga_crypt.c ****             (NULL == p_signature) || (NULL == p_signature_length))
 313              	 .loc 1 187 0 is_stmt 1
 314 0034 BB6A     	 ldr r3,[r7,#40]
 315 0036 002B     	 cmp r3,#0
 316 0038 03D1     	 bne .L13
 317              	.L12:
 188:C:/Users/Yushev/git/wpcqi-optiga-trust-charge/optiga/optiga/crypt\optiga_crypt.c ****         {
 189:C:/Users/Yushev/git/wpcqi-optiga-trust-charge/optiga/optiga/crypt\optiga_crypt.c ****             return_value = OPTIGA_CRYPT_ERROR_INVALID_INPUT;
 318              	 .loc 1 189 0
 319 003a 40F20343 	 movw r3,#1027
 320 003e FB82     	 strh r3,[r7,#22]
 190:C:/Users/Yushev/git/wpcqi-optiga-trust-charge/optiga/optiga/crypt\optiga_crypt.c ****             break;
 321              	 .loc 1 190 0
 322 0040 31E0     	 b .L14
 323              	.L13:
 191:C:/Users/Yushev/git/wpcqi-optiga-trust-charge/optiga/optiga/crypt\optiga_crypt.c ****         }
 192:C:/Users/Yushev/git/wpcqi-optiga-trust-charge/optiga/optiga/crypt\optiga_crypt.c **** #endif
 193:C:/Users/Yushev/git/wpcqi-optiga-trust-charge/optiga/optiga/crypt\optiga_crypt.c **** 
 194:C:/Users/Yushev/git/wpcqi-optiga-trust-charge/optiga/optiga/crypt\optiga_crypt.c ****         if (OPTIGA_LIB_INSTANCE_BUSY == me->instance_state)
 324              	 .loc 1 194 0
 325 0042 FB68     	 ldr r3,[r7,#12]
 326 0044 9B8D     	 ldrh r3,[r3,#44]
 327 0046 012B     	 cmp r3,#1
 328 0048 03D1     	 bne .L15
 195:C:/Users/Yushev/git/wpcqi-optiga-trust-charge/optiga/optiga/crypt\optiga_crypt.c ****         {
 196:C:/Users/Yushev/git/wpcqi-optiga-trust-charge/optiga/optiga/crypt\optiga_crypt.c ****             return_value = OPTIGA_CRYPT_ERROR_INSTANCE_IN_USE;
 329              	 .loc 1 196 0
 330 004a 40F20543 	 movw r3,#1029
 331 004e FB82     	 strh r3,[r7,#22]
 197:C:/Users/Yushev/git/wpcqi-optiga-trust-charge/optiga/optiga/crypt\optiga_crypt.c ****             break;
 332              	 .loc 1 197 0
 333 0050 29E0     	 b .L14
 334              	.L15:
 198:C:/Users/Yushev/git/wpcqi-optiga-trust-charge/optiga/optiga/crypt\optiga_crypt.c ****         }
 199:C:/Users/Yushev/git/wpcqi-optiga-trust-charge/optiga/optiga/crypt\optiga_crypt.c **** 
 200:C:/Users/Yushev/git/wpcqi-optiga-trust-charge/optiga/optiga/crypt\optiga_crypt.c ****         me->instance_state = OPTIGA_LIB_INSTANCE_BUSY;
 335              	 .loc 1 200 0
 336 0052 FB68     	 ldr r3,[r7,#12]
 337 0054 0122     	 movs r2,#1
 338 0056 9A85     	 strh r2,[r3,#44]
 201:C:/Users/Yushev/git/wpcqi-optiga-trust-charge/optiga/optiga/crypt\optiga_crypt.c **** 
 202:C:/Users/Yushev/git/wpcqi-optiga-trust-charge/optiga/optiga/crypt\optiga_crypt.c ****         p_params = (optiga_calc_sign_params_t *)&(me->params.optiga_calc_sign_params);
 339              	 .loc 1 202 0
 340 0058 FB68     	 ldr r3,[r7,#12]
 341 005a 3B61     	 str r3,[r7,#16]
 203:C:/Users/Yushev/git/wpcqi-optiga-trust-charge/optiga/optiga/crypt\optiga_crypt.c ****         pal_os_memset(&me->params,0x00,sizeof(optiga_crypt_params_t));
 342              	 .loc 1 203 0
 343 005c FB68     	 ldr r3,[r7,#12]
 344 005e 1846     	 mov r0,r3
 345 0060 0021     	 movs r1,#0
 346 0062 2022     	 movs r2,#32
 347 0064 FFF7FEFF 	 bl pal_os_memset
 204:C:/Users/Yushev/git/wpcqi-optiga-trust-charge/optiga/optiga/crypt\optiga_crypt.c **** 
 205:C:/Users/Yushev/git/wpcqi-optiga-trust-charge/optiga/optiga/crypt\optiga_crypt.c ****         p_params->p_digest = p_digest;
 348              	 .loc 1 205 0
 349 0068 3B69     	 ldr r3,[r7,#16]
 350 006a 7A68     	 ldr r2,[r7,#4]
 351 006c 1A60     	 str r2,[r3]
 206:C:/Users/Yushev/git/wpcqi-optiga-trust-charge/optiga/optiga/crypt\optiga_crypt.c ****         p_params->digest_length = digest_length;
 352              	 .loc 1 206 0
 353 006e 3B69     	 ldr r3,[r7,#16]
 354 0070 BA7A     	 ldrb r2,[r7,#10]
 355 0072 9A73     	 strb r2,[r3,#14]
 207:C:/Users/Yushev/git/wpcqi-optiga-trust-charge/optiga/optiga/crypt\optiga_crypt.c ****         p_params->private_key_oid = private_key;
 356              	 .loc 1 207 0
 357 0074 3B69     	 ldr r3,[r7,#16]
 358 0076 3A8C     	 ldrh r2,[r7,#32]
 359 0078 9A81     	 strh r2,[r3,#12]
 208:C:/Users/Yushev/git/wpcqi-optiga-trust-charge/optiga/optiga/crypt\optiga_crypt.c ****         p_params->p_signature = p_signature;
 360              	 .loc 1 208 0
 361 007a 3B69     	 ldr r3,[r7,#16]
 362 007c 7A6A     	 ldr r2,[r7,#36]
 363 007e 5A60     	 str r2,[r3,#4]
 209:C:/Users/Yushev/git/wpcqi-optiga-trust-charge/optiga/optiga/crypt\optiga_crypt.c ****         p_params->p_signature_length = p_signature_length;
 364              	 .loc 1 209 0
 365 0080 3B69     	 ldr r3,[r7,#16]
 366 0082 BA6A     	 ldr r2,[r7,#40]
 367 0084 9A60     	 str r2,[r3,#8]
 210:C:/Users/Yushev/git/wpcqi-optiga-trust-charge/optiga/optiga/crypt\optiga_crypt.c ****         OPTIGA_PROTECTION_ENABLE(me->my_cmd, me);
 211:C:/Users/Yushev/git/wpcqi-optiga-trust-charge/optiga/optiga/crypt\optiga_crypt.c ****         OPTIGA_PROTECTION_SET_VERSION(me->my_cmd, me);
 212:C:/Users/Yushev/git/wpcqi-optiga-trust-charge/optiga/optiga/crypt\optiga_crypt.c **** 
 213:C:/Users/Yushev/git/wpcqi-optiga-trust-charge/optiga/optiga/crypt\optiga_crypt.c ****         return_value = optiga_cmd_calc_sign(me->my_cmd,
 368              	 .loc 1 213 0
 369 0086 FB68     	 ldr r3,[r7,#12]
 370 0088 1A6A     	 ldr r2,[r3,#32]
 371 008a FB7A     	 ldrb r3,[r7,#11]
 372 008c 1046     	 mov r0,r2
 373 008e 1946     	 mov r1,r3
 374 0090 3A69     	 ldr r2,[r7,#16]
 375 0092 FFF7FEFF 	 bl optiga_cmd_calc_sign
 376 0096 0346     	 mov r3,r0
 377 0098 FB82     	 strh r3,[r7,#22]
 214:C:/Users/Yushev/git/wpcqi-optiga-trust-charge/optiga/optiga/crypt\optiga_crypt.c ****                                             signature_scheme,
 215:C:/Users/Yushev/git/wpcqi-optiga-trust-charge/optiga/optiga/crypt\optiga_crypt.c ****                                             (optiga_calc_sign_params_t *)p_params);
 216:C:/Users/Yushev/git/wpcqi-optiga-trust-charge/optiga/optiga/crypt\optiga_crypt.c ****         if (OPTIGA_LIB_SUCCESS != return_value)
 378              	 .loc 1 216 0
 379 009a FB8A     	 ldrh r3,[r7,#22]
 380 009c 002B     	 cmp r3,#0
 381 009e 02D0     	 beq .L14
 217:C:/Users/Yushev/git/wpcqi-optiga-trust-charge/optiga/optiga/crypt\optiga_crypt.c ****         {
 218:C:/Users/Yushev/git/wpcqi-optiga-trust-charge/optiga/optiga/crypt\optiga_crypt.c ****             me->instance_state = OPTIGA_LIB_INSTANCE_FREE;
 382              	 .loc 1 218 0
 383 00a0 FB68     	 ldr r3,[r7,#12]
 384 00a2 0022     	 movs r2,#0
 385 00a4 9A85     	 strh r2,[r3,#44]
 386              	.L14:
 219:C:/Users/Yushev/git/wpcqi-optiga-trust-charge/optiga/optiga/crypt\optiga_crypt.c ****         }
 220:C:/Users/Yushev/git/wpcqi-optiga-trust-charge/optiga/optiga/crypt\optiga_crypt.c ****     } while (FALSE);
 221:C:/Users/Yushev/git/wpcqi-optiga-trust-charge/optiga/optiga/crypt\optiga_crypt.c ****     optiga_crypt_reset_protection_level(me);
 387              	 .loc 1 221 0
 388 00a6 F868     	 ldr r0,[r7,#12]
 389 00a8 FFF7FEFF 	 bl optiga_crypt_reset_protection_level
 222:C:/Users/Yushev/git/wpcqi-optiga-trust-charge/optiga/optiga/crypt\optiga_crypt.c **** 
 223:C:/Users/Yushev/git/wpcqi-optiga-trust-charge/optiga/optiga/crypt\optiga_crypt.c ****     return (return_value);
 390              	 .loc 1 223 0
 391 00ac FB8A     	 ldrh r3,[r7,#22]
 224:C:/Users/Yushev/git/wpcqi-optiga-trust-charge/optiga/optiga/crypt\optiga_crypt.c **** }
 392              	 .loc 1 224 0
 393 00ae 1846     	 mov r0,r3
 394 00b0 1837     	 adds r7,r7,#24
 395              	.LCFI19:
 396              	 .cfi_def_cfa_offset 8
 397 00b2 BD46     	 mov sp,r7
 398              	.LCFI20:
 399              	 .cfi_def_cfa_register 13
 400              	 
 401 00b4 80BD     	 pop {r7,pc}
 402              	 .cfi_endproc
 403              	.LFE3:
 405 00b6 00BF     	 .section .text.optiga_crypt_verify,"ax",%progbits
 406              	 .align 2
 407              	 .thumb
 408              	 .thumb_func
 410              	optiga_crypt_verify:
 411              	.LFB4:
 225:C:/Users/Yushev/git/wpcqi-optiga-trust-charge/optiga/optiga/crypt\optiga_crypt.c **** #endif // (OPTIGA_CRYPT_ECDSA_SIGN_ENABLED)
 226:C:/Users/Yushev/git/wpcqi-optiga-trust-charge/optiga/optiga/crypt\optiga_crypt.c **** 
 227:C:/Users/Yushev/git/wpcqi-optiga-trust-charge/optiga/optiga/crypt\optiga_crypt.c **** #ifdef OPTIGA_CRYPT_ECDSA_VERIFY_ENABLED
 228:C:/Users/Yushev/git/wpcqi-optiga-trust-charge/optiga/optiga/crypt\optiga_crypt.c **** //lint --e{715} suppress "The salt_length argument is kept for future use"
 229:C:/Users/Yushev/git/wpcqi-optiga-trust-charge/optiga/optiga/crypt\optiga_crypt.c **** _STATIC_H optiga_lib_status_t optiga_crypt_verify(optiga_crypt_t * me,
 230:C:/Users/Yushev/git/wpcqi-optiga-trust-charge/optiga/optiga/crypt\optiga_crypt.c ****                                                   uint8_t cmd_param,
 231:C:/Users/Yushev/git/wpcqi-optiga-trust-charge/optiga/optiga/crypt\optiga_crypt.c ****                                                   const uint8_t * p_digest,
 232:C:/Users/Yushev/git/wpcqi-optiga-trust-charge/optiga/optiga/crypt\optiga_crypt.c ****                                                   uint8_t digest_length,
 233:C:/Users/Yushev/git/wpcqi-optiga-trust-charge/optiga/optiga/crypt\optiga_crypt.c ****                                                   const uint8_t * p_signature,
 234:C:/Users/Yushev/git/wpcqi-optiga-trust-charge/optiga/optiga/crypt\optiga_crypt.c ****                                                   uint16_t signature_length,
 235:C:/Users/Yushev/git/wpcqi-optiga-trust-charge/optiga/optiga/crypt\optiga_crypt.c ****                                                   uint8_t public_key_source_type,
 236:C:/Users/Yushev/git/wpcqi-optiga-trust-charge/optiga/optiga/crypt\optiga_crypt.c ****                                                   const void * p_public_key,
 237:C:/Users/Yushev/git/wpcqi-optiga-trust-charge/optiga/optiga/crypt\optiga_crypt.c ****                                                   uint16_t salt_length)
 238:C:/Users/Yushev/git/wpcqi-optiga-trust-charge/optiga/optiga/crypt\optiga_crypt.c **** {
 412              	 .loc 1 238 0
 413              	 .cfi_startproc
 414              	 
 415              	 
 416 0000 80B5     	 push {r7,lr}
 417              	.LCFI21:
 418              	 .cfi_def_cfa_offset 8
 419              	 .cfi_offset 7,-8
 420              	 .cfi_offset 14,-4
 421 0002 86B0     	 sub sp,sp,#24
 422              	.LCFI22:
 423              	 .cfi_def_cfa_offset 32
 424 0004 00AF     	 add r7,sp,#0
 425              	.LCFI23:
 426              	 .cfi_def_cfa_register 7
 427 0006 F860     	 str r0,[r7,#12]
 428 0008 7A60     	 str r2,[r7,#4]
 429 000a 1A46     	 mov r2,r3
 430 000c 0B46     	 mov r3,r1
 431 000e FB72     	 strb r3,[r7,#11]
 432 0010 1346     	 mov r3,r2
 433 0012 BB72     	 strb r3,[r7,#10]
 239:C:/Users/Yushev/git/wpcqi-optiga-trust-charge/optiga/optiga/crypt\optiga_crypt.c ****     optiga_verify_sign_params_t * p_params;
 240:C:/Users/Yushev/git/wpcqi-optiga-trust-charge/optiga/optiga/crypt\optiga_crypt.c ****     optiga_lib_status_t return_value = OPTIGA_CRYPT_ERROR;
 434              	 .loc 1 240 0
 435 0014 40F20243 	 movw r3,#1026
 436 0018 FB82     	 strh r3,[r7,#22]
 241:C:/Users/Yushev/git/wpcqi-optiga-trust-charge/optiga/optiga/crypt\optiga_crypt.c **** 
 242:C:/Users/Yushev/git/wpcqi-optiga-trust-charge/optiga/optiga/crypt\optiga_crypt.c ****     do
 243:C:/Users/Yushev/git/wpcqi-optiga-trust-charge/optiga/optiga/crypt\optiga_crypt.c ****     {
 244:C:/Users/Yushev/git/wpcqi-optiga-trust-charge/optiga/optiga/crypt\optiga_crypt.c **** #ifdef OPTIGA_LIB_DEBUG_NULL_CHECK
 245:C:/Users/Yushev/git/wpcqi-optiga-trust-charge/optiga/optiga/crypt\optiga_crypt.c ****         if ((NULL == me) || (NULL == me->my_cmd) ||
 437              	 .loc 1 245 0
 438 001a FB68     	 ldr r3,[r7,#12]
 439 001c 002B     	 cmp r3,#0
 440 001e 0CD0     	 beq .L18
 441              	 .loc 1 245 0 is_stmt 0 discriminator 1
 442 0020 FB68     	 ldr r3,[r7,#12]
 443 0022 1B6A     	 ldr r3,[r3,#32]
 444 0024 002B     	 cmp r3,#0
 445 0026 08D0     	 beq .L18
 446              	 .loc 1 245 0 discriminator 2
 447 0028 7B68     	 ldr r3,[r7,#4]
 448 002a 002B     	 cmp r3,#0
 449 002c 05D0     	 beq .L18
 246:C:/Users/Yushev/git/wpcqi-optiga-trust-charge/optiga/optiga/crypt\optiga_crypt.c ****             (NULL == p_digest) || (NULL == p_signature) || (NULL == p_public_key))
 450              	 .loc 1 246 0 is_stmt 1
 451 002e 3B6A     	 ldr r3,[r7,#32]
 452 0030 002B     	 cmp r3,#0
 453 0032 02D0     	 beq .L18
 454              	 .loc 1 246 0 is_stmt 0 discriminator 1
 455 0034 FB6A     	 ldr r3,[r7,#44]
 456 0036 002B     	 cmp r3,#0
 457 0038 03D1     	 bne .L19
 458              	.L18:
 247:C:/Users/Yushev/git/wpcqi-optiga-trust-charge/optiga/optiga/crypt\optiga_crypt.c ****         {
 248:C:/Users/Yushev/git/wpcqi-optiga-trust-charge/optiga/optiga/crypt\optiga_crypt.c ****             return_value = OPTIGA_CRYPT_ERROR_INVALID_INPUT;
 459              	 .loc 1 248 0 is_stmt 1
 460 003a 40F20343 	 movw r3,#1027
 461 003e FB82     	 strh r3,[r7,#22]
 249:C:/Users/Yushev/git/wpcqi-optiga-trust-charge/optiga/optiga/crypt\optiga_crypt.c ****             break;
 462              	 .loc 1 249 0
 463 0040 3EE0     	 b .L20
 464              	.L19:
 250:C:/Users/Yushev/git/wpcqi-optiga-trust-charge/optiga/optiga/crypt\optiga_crypt.c ****         }
 251:C:/Users/Yushev/git/wpcqi-optiga-trust-charge/optiga/optiga/crypt\optiga_crypt.c **** #endif
 252:C:/Users/Yushev/git/wpcqi-optiga-trust-charge/optiga/optiga/crypt\optiga_crypt.c **** 
 253:C:/Users/Yushev/git/wpcqi-optiga-trust-charge/optiga/optiga/crypt\optiga_crypt.c ****         if (OPTIGA_LIB_INSTANCE_BUSY == me->instance_state)
 465              	 .loc 1 253 0
 466 0042 FB68     	 ldr r3,[r7,#12]
 467 0044 9B8D     	 ldrh r3,[r3,#44]
 468 0046 012B     	 cmp r3,#1
 469 0048 03D1     	 bne .L21
 254:C:/Users/Yushev/git/wpcqi-optiga-trust-charge/optiga/optiga/crypt\optiga_crypt.c ****         {
 255:C:/Users/Yushev/git/wpcqi-optiga-trust-charge/optiga/optiga/crypt\optiga_crypt.c ****             return_value = OPTIGA_CRYPT_ERROR_INSTANCE_IN_USE;
 470              	 .loc 1 255 0
 471 004a 40F20543 	 movw r3,#1029
 472 004e FB82     	 strh r3,[r7,#22]
 256:C:/Users/Yushev/git/wpcqi-optiga-trust-charge/optiga/optiga/crypt\optiga_crypt.c ****             break;
 473              	 .loc 1 256 0
 474 0050 36E0     	 b .L20
 475              	.L21:
 257:C:/Users/Yushev/git/wpcqi-optiga-trust-charge/optiga/optiga/crypt\optiga_crypt.c ****         }
 258:C:/Users/Yushev/git/wpcqi-optiga-trust-charge/optiga/optiga/crypt\optiga_crypt.c **** 
 259:C:/Users/Yushev/git/wpcqi-optiga-trust-charge/optiga/optiga/crypt\optiga_crypt.c ****         me->instance_state = OPTIGA_LIB_INSTANCE_BUSY;
 476              	 .loc 1 259 0
 477 0052 FB68     	 ldr r3,[r7,#12]
 478 0054 0122     	 movs r2,#1
 479 0056 9A85     	 strh r2,[r3,#44]
 260:C:/Users/Yushev/git/wpcqi-optiga-trust-charge/optiga/optiga/crypt\optiga_crypt.c ****         p_params = (optiga_verify_sign_params_t *)&(me->params.optiga_verify_sign_params);
 480              	 .loc 1 260 0
 481 0058 FB68     	 ldr r3,[r7,#12]
 482 005a 3B61     	 str r3,[r7,#16]
 261:C:/Users/Yushev/git/wpcqi-optiga-trust-charge/optiga/optiga/crypt\optiga_crypt.c ****         pal_os_memset(&me->params,0x00,sizeof(optiga_crypt_params_t));
 483              	 .loc 1 261 0
 484 005c FB68     	 ldr r3,[r7,#12]
 485 005e 1846     	 mov r0,r3
 486 0060 0021     	 movs r1,#0
 487 0062 2022     	 movs r2,#32
 488 0064 FFF7FEFF 	 bl pal_os_memset
 262:C:/Users/Yushev/git/wpcqi-optiga-trust-charge/optiga/optiga/crypt\optiga_crypt.c **** 
 263:C:/Users/Yushev/git/wpcqi-optiga-trust-charge/optiga/optiga/crypt\optiga_crypt.c ****         OPTIGA_PROTECTION_ENABLE(me->my_cmd, me);
 264:C:/Users/Yushev/git/wpcqi-optiga-trust-charge/optiga/optiga/crypt\optiga_crypt.c ****         OPTIGA_PROTECTION_SET_VERSION(me->my_cmd, me);
 265:C:/Users/Yushev/git/wpcqi-optiga-trust-charge/optiga/optiga/crypt\optiga_crypt.c ****         p_params->p_digest = p_digest;
 489              	 .loc 1 265 0
 490 0068 3B69     	 ldr r3,[r7,#16]
 491 006a 7A68     	 ldr r2,[r7,#4]
 492 006c 1A60     	 str r2,[r3]
 266:C:/Users/Yushev/git/wpcqi-optiga-trust-charge/optiga/optiga/crypt\optiga_crypt.c ****         p_params->digest_length = digest_length;
 493              	 .loc 1 266 0
 494 006e 3B69     	 ldr r3,[r7,#16]
 495 0070 BA7A     	 ldrb r2,[r7,#10]
 496 0072 1A71     	 strb r2,[r3,#4]
 267:C:/Users/Yushev/git/wpcqi-optiga-trust-charge/optiga/optiga/crypt\optiga_crypt.c ****         p_params->p_signature = p_signature;
 497              	 .loc 1 267 0
 498 0074 3B69     	 ldr r3,[r7,#16]
 499 0076 3A6A     	 ldr r2,[r7,#32]
 500 0078 9A60     	 str r2,[r3,#8]
 268:C:/Users/Yushev/git/wpcqi-optiga-trust-charge/optiga/optiga/crypt\optiga_crypt.c ****         p_params->signature_length = signature_length;
 501              	 .loc 1 268 0
 502 007a 3B69     	 ldr r3,[r7,#16]
 503 007c BA8C     	 ldrh r2,[r7,#36]
 504 007e 9A81     	 strh r2,[r3,#12]
 269:C:/Users/Yushev/git/wpcqi-optiga-trust-charge/optiga/optiga/crypt\optiga_crypt.c ****         p_params->public_key_source_type = public_key_source_type;
 505              	 .loc 1 269 0
 506 0080 3B69     	 ldr r3,[r7,#16]
 507 0082 97F82820 	 ldrb r2,[r7,#40]
 508 0086 9A73     	 strb r2,[r3,#14]
 270:C:/Users/Yushev/git/wpcqi-optiga-trust-charge/optiga/optiga/crypt\optiga_crypt.c **** 
 271:C:/Users/Yushev/git/wpcqi-optiga-trust-charge/optiga/optiga/crypt\optiga_crypt.c ****         if (OPTIGA_CRYPT_OID_DATA == public_key_source_type)
 509              	 .loc 1 271 0
 510 0088 97F82830 	 ldrb r3,[r7,#40]
 511 008c 002B     	 cmp r3,#0
 512 008e 04D1     	 bne .L22
 272:C:/Users/Yushev/git/wpcqi-optiga-trust-charge/optiga/optiga/crypt\optiga_crypt.c ****         {
 273:C:/Users/Yushev/git/wpcqi-optiga-trust-charge/optiga/optiga/crypt\optiga_crypt.c ****             p_params->certificate_oid = *((uint16_t *)p_public_key);
 513              	 .loc 1 273 0
 514 0090 FB6A     	 ldr r3,[r7,#44]
 515 0092 1A88     	 ldrh r2,[r3]
 516 0094 3B69     	 ldr r3,[r7,#16]
 517 0096 9A82     	 strh r2,[r3,#20]
 518 0098 02E0     	 b .L23
 519              	.L22:
 274:C:/Users/Yushev/git/wpcqi-optiga-trust-charge/optiga/optiga/crypt\optiga_crypt.c ****         }
 275:C:/Users/Yushev/git/wpcqi-optiga-trust-charge/optiga/optiga/crypt\optiga_crypt.c ****         else
 276:C:/Users/Yushev/git/wpcqi-optiga-trust-charge/optiga/optiga/crypt\optiga_crypt.c ****         {
 277:C:/Users/Yushev/git/wpcqi-optiga-trust-charge/optiga/optiga/crypt\optiga_crypt.c ****             p_params->public_key = (public_key_from_host_t *)p_public_key;
 520              	 .loc 1 277 0
 521 009a 3B69     	 ldr r3,[r7,#16]
 522 009c FA6A     	 ldr r2,[r7,#44]
 523 009e 1A61     	 str r2,[r3,#16]
 524              	.L23:
 278:C:/Users/Yushev/git/wpcqi-optiga-trust-charge/optiga/optiga/crypt\optiga_crypt.c ****         }
 279:C:/Users/Yushev/git/wpcqi-optiga-trust-charge/optiga/optiga/crypt\optiga_crypt.c **** 
 280:C:/Users/Yushev/git/wpcqi-optiga-trust-charge/optiga/optiga/crypt\optiga_crypt.c ****         return_value = optiga_cmd_verify_sign(me->my_cmd,
 525              	 .loc 1 280 0
 526 00a0 FB68     	 ldr r3,[r7,#12]
 527 00a2 1A6A     	 ldr r2,[r3,#32]
 528 00a4 FB7A     	 ldrb r3,[r7,#11]
 529 00a6 1046     	 mov r0,r2
 530 00a8 1946     	 mov r1,r3
 531 00aa 3A69     	 ldr r2,[r7,#16]
 532 00ac FFF7FEFF 	 bl optiga_cmd_verify_sign
 533 00b0 0346     	 mov r3,r0
 534 00b2 FB82     	 strh r3,[r7,#22]
 281:C:/Users/Yushev/git/wpcqi-optiga-trust-charge/optiga/optiga/crypt\optiga_crypt.c ****                                              (uint8_t)cmd_param,
 282:C:/Users/Yushev/git/wpcqi-optiga-trust-charge/optiga/optiga/crypt\optiga_crypt.c ****                                              (optiga_verify_sign_params_t *)p_params);
 283:C:/Users/Yushev/git/wpcqi-optiga-trust-charge/optiga/optiga/crypt\optiga_crypt.c ****         if (OPTIGA_LIB_SUCCESS != return_value)
 535              	 .loc 1 283 0
 536 00b4 FB8A     	 ldrh r3,[r7,#22]
 537 00b6 002B     	 cmp r3,#0
 538 00b8 02D0     	 beq .L20
 284:C:/Users/Yushev/git/wpcqi-optiga-trust-charge/optiga/optiga/crypt\optiga_crypt.c ****         {
 285:C:/Users/Yushev/git/wpcqi-optiga-trust-charge/optiga/optiga/crypt\optiga_crypt.c ****             me->instance_state = OPTIGA_LIB_INSTANCE_FREE;
 539              	 .loc 1 285 0
 540 00ba FB68     	 ldr r3,[r7,#12]
 541 00bc 0022     	 movs r2,#0
 542 00be 9A85     	 strh r2,[r3,#44]
 543              	.L20:
 286:C:/Users/Yushev/git/wpcqi-optiga-trust-charge/optiga/optiga/crypt\optiga_crypt.c ****         }
 287:C:/Users/Yushev/git/wpcqi-optiga-trust-charge/optiga/optiga/crypt\optiga_crypt.c ****     } while (FALSE);
 288:C:/Users/Yushev/git/wpcqi-optiga-trust-charge/optiga/optiga/crypt\optiga_crypt.c ****     optiga_crypt_reset_protection_level(me);
 544              	 .loc 1 288 0
 545 00c0 F868     	 ldr r0,[r7,#12]
 546 00c2 FFF7FEFF 	 bl optiga_crypt_reset_protection_level
 289:C:/Users/Yushev/git/wpcqi-optiga-trust-charge/optiga/optiga/crypt\optiga_crypt.c **** 
 290:C:/Users/Yushev/git/wpcqi-optiga-trust-charge/optiga/optiga/crypt\optiga_crypt.c ****     return (return_value);
 547              	 .loc 1 290 0
 548 00c6 FB8A     	 ldrh r3,[r7,#22]
 291:C:/Users/Yushev/git/wpcqi-optiga-trust-charge/optiga/optiga/crypt\optiga_crypt.c **** }
 549              	 .loc 1 291 0
 550 00c8 1846     	 mov r0,r3
 551 00ca 1837     	 adds r7,r7,#24
 552              	.LCFI24:
 553              	 .cfi_def_cfa_offset 8
 554 00cc BD46     	 mov sp,r7
 555              	.LCFI25:
 556              	 .cfi_def_cfa_register 13
 557              	 
 558 00ce 80BD     	 pop {r7,pc}
 559              	 .cfi_endproc
 560              	.LFE4:
 562              	 .section .text.optiga_crypt_get_random,"ax",%progbits
 563              	 .align 2
 564              	 .thumb
 565              	 .thumb_func
 567              	optiga_crypt_get_random:
 568              	.LFB5:
 292:C:/Users/Yushev/git/wpcqi-optiga-trust-charge/optiga/optiga/crypt\optiga_crypt.c **** #endif //(OPTIGA_CRYPT_ECDSA_VERIFY_ENABLED)
 293:C:/Users/Yushev/git/wpcqi-optiga-trust-charge/optiga/optiga/crypt\optiga_crypt.c **** 
 294:C:/Users/Yushev/git/wpcqi-optiga-trust-charge/optiga/optiga/crypt\optiga_crypt.c **** #ifdef OPTIGA_CRYPT_RANDOM_ENABLED
 295:C:/Users/Yushev/git/wpcqi-optiga-trust-charge/optiga/optiga/crypt\optiga_crypt.c **** _STATIC_H optiga_lib_status_t optiga_crypt_get_random(optiga_crypt_t * me,
 296:C:/Users/Yushev/git/wpcqi-optiga-trust-charge/optiga/optiga/crypt\optiga_crypt.c ****                                                       uint8_t cmd_param,
 297:C:/Users/Yushev/git/wpcqi-optiga-trust-charge/optiga/optiga/crypt\optiga_crypt.c ****                                                       uint8_t * p_random_data,
 298:C:/Users/Yushev/git/wpcqi-optiga-trust-charge/optiga/optiga/crypt\optiga_crypt.c ****                                                       uint16_t random_data_length,
 299:C:/Users/Yushev/git/wpcqi-optiga-trust-charge/optiga/optiga/crypt\optiga_crypt.c ****                                                       const uint8_t * p_optional_data,
 300:C:/Users/Yushev/git/wpcqi-optiga-trust-charge/optiga/optiga/crypt\optiga_crypt.c ****                                                       uint16_t optional_data_length)
 301:C:/Users/Yushev/git/wpcqi-optiga-trust-charge/optiga/optiga/crypt\optiga_crypt.c **** {
 569              	 .loc 1 301 0
 570              	 .cfi_startproc
 571              	 
 572              	 
 573 0000 80B5     	 push {r7,lr}
 574              	.LCFI26:
 575              	 .cfi_def_cfa_offset 8
 576              	 .cfi_offset 7,-8
 577              	 .cfi_offset 14,-4
 578 0002 86B0     	 sub sp,sp,#24
 579              	.LCFI27:
 580              	 .cfi_def_cfa_offset 32
 581 0004 00AF     	 add r7,sp,#0
 582              	.LCFI28:
 583              	 .cfi_def_cfa_register 7
 584 0006 F860     	 str r0,[r7,#12]
 585 0008 7A60     	 str r2,[r7,#4]
 586 000a 1A46     	 mov r2,r3
 587 000c 0B46     	 mov r3,r1
 588 000e FB72     	 strb r3,[r7,#11]
 589 0010 1346     	 mov r3,r2
 590 0012 3B81     	 strh r3,[r7,#8]
 302:C:/Users/Yushev/git/wpcqi-optiga-trust-charge/optiga/optiga/crypt\optiga_crypt.c ****     optiga_lib_status_t return_value = OPTIGA_CRYPT_ERROR;
 591              	 .loc 1 302 0
 592 0014 40F20243 	 movw r3,#1026
 593 0018 FB82     	 strh r3,[r7,#22]
 303:C:/Users/Yushev/git/wpcqi-optiga-trust-charge/optiga/optiga/crypt\optiga_crypt.c ****     optiga_get_random_params_t * p_params;
 304:C:/Users/Yushev/git/wpcqi-optiga-trust-charge/optiga/optiga/crypt\optiga_crypt.c ****     do
 305:C:/Users/Yushev/git/wpcqi-optiga-trust-charge/optiga/optiga/crypt\optiga_crypt.c ****     {
 306:C:/Users/Yushev/git/wpcqi-optiga-trust-charge/optiga/optiga/crypt\optiga_crypt.c ****         if (OPTIGA_LIB_INSTANCE_BUSY == me->instance_state)
 594              	 .loc 1 306 0
 595 001a FB68     	 ldr r3,[r7,#12]
 596 001c 9B8D     	 ldrh r3,[r3,#44]
 597 001e 012B     	 cmp r3,#1
 598 0020 03D1     	 bne .L26
 307:C:/Users/Yushev/git/wpcqi-optiga-trust-charge/optiga/optiga/crypt\optiga_crypt.c ****         {
 308:C:/Users/Yushev/git/wpcqi-optiga-trust-charge/optiga/optiga/crypt\optiga_crypt.c ****             return_value = OPTIGA_CRYPT_ERROR_INSTANCE_IN_USE;
 599              	 .loc 1 308 0
 600 0022 40F20543 	 movw r3,#1029
 601 0026 FB82     	 strh r3,[r7,#22]
 309:C:/Users/Yushev/git/wpcqi-optiga-trust-charge/optiga/optiga/crypt\optiga_crypt.c ****             break;
 602              	 .loc 1 309 0
 603 0028 26E0     	 b .L27
 604              	.L26:
 310:C:/Users/Yushev/git/wpcqi-optiga-trust-charge/optiga/optiga/crypt\optiga_crypt.c ****         }
 311:C:/Users/Yushev/git/wpcqi-optiga-trust-charge/optiga/optiga/crypt\optiga_crypt.c **** 
 312:C:/Users/Yushev/git/wpcqi-optiga-trust-charge/optiga/optiga/crypt\optiga_crypt.c ****         me->instance_state = OPTIGA_LIB_INSTANCE_BUSY;
 605              	 .loc 1 312 0
 606 002a FB68     	 ldr r3,[r7,#12]
 607 002c 0122     	 movs r2,#1
 608 002e 9A85     	 strh r2,[r3,#44]
 313:C:/Users/Yushev/git/wpcqi-optiga-trust-charge/optiga/optiga/crypt\optiga_crypt.c ****         p_params = (optiga_get_random_params_t *)&(me->params.optiga_get_random_params);
 609              	 .loc 1 313 0
 610 0030 FB68     	 ldr r3,[r7,#12]
 611 0032 3B61     	 str r3,[r7,#16]
 314:C:/Users/Yushev/git/wpcqi-optiga-trust-charge/optiga/optiga/crypt\optiga_crypt.c ****         pal_os_memset(&me->params,0x00,sizeof(optiga_crypt_params_t));
 612              	 .loc 1 314 0
 613 0034 FB68     	 ldr r3,[r7,#12]
 614 0036 1846     	 mov r0,r3
 615 0038 0021     	 movs r1,#0
 616 003a 2022     	 movs r2,#32
 617 003c FFF7FEFF 	 bl pal_os_memset
 315:C:/Users/Yushev/git/wpcqi-optiga-trust-charge/optiga/optiga/crypt\optiga_crypt.c **** 
 316:C:/Users/Yushev/git/wpcqi-optiga-trust-charge/optiga/optiga/crypt\optiga_crypt.c ****         p_params->optional_data = p_optional_data;
 618              	 .loc 1 316 0
 619 0040 3B69     	 ldr r3,[r7,#16]
 620 0042 3A6A     	 ldr r2,[r7,#32]
 621 0044 9A60     	 str r2,[r3,#8]
 317:C:/Users/Yushev/git/wpcqi-optiga-trust-charge/optiga/optiga/crypt\optiga_crypt.c ****         p_params->optional_data_length = optional_data_length;
 622              	 .loc 1 317 0
 623 0046 3B69     	 ldr r3,[r7,#16]
 624 0048 BA8C     	 ldrh r2,[r7,#36]
 625 004a 5A80     	 strh r2,[r3,#2]
 318:C:/Users/Yushev/git/wpcqi-optiga-trust-charge/optiga/optiga/crypt\optiga_crypt.c ****         p_params->random_data = p_random_data;
 626              	 .loc 1 318 0
 627 004c 3B69     	 ldr r3,[r7,#16]
 628 004e 7A68     	 ldr r2,[r7,#4]
 629 0050 5A60     	 str r2,[r3,#4]
 319:C:/Users/Yushev/git/wpcqi-optiga-trust-charge/optiga/optiga/crypt\optiga_crypt.c ****         p_params->random_data_length = random_data_length;
 630              	 .loc 1 319 0
 631 0052 3B69     	 ldr r3,[r7,#16]
 632 0054 3A89     	 ldrh r2,[r7,#8]
 633 0056 1A80     	 strh r2,[r3]
 320:C:/Users/Yushev/git/wpcqi-optiga-trust-charge/optiga/optiga/crypt\optiga_crypt.c ****         OPTIGA_PROTECTION_ENABLE(me->my_cmd, me);
 321:C:/Users/Yushev/git/wpcqi-optiga-trust-charge/optiga/optiga/crypt\optiga_crypt.c ****         OPTIGA_PROTECTION_SET_VERSION(me->my_cmd, me);
 322:C:/Users/Yushev/git/wpcqi-optiga-trust-charge/optiga/optiga/crypt\optiga_crypt.c **** 
 323:C:/Users/Yushev/git/wpcqi-optiga-trust-charge/optiga/optiga/crypt\optiga_crypt.c ****         return_value = optiga_cmd_get_random(me->my_cmd,
 634              	 .loc 1 323 0
 635 0058 FB68     	 ldr r3,[r7,#12]
 636 005a 1A6A     	 ldr r2,[r3,#32]
 637 005c FB7A     	 ldrb r3,[r7,#11]
 638 005e 1046     	 mov r0,r2
 639 0060 1946     	 mov r1,r3
 640 0062 3A69     	 ldr r2,[r7,#16]
 641 0064 FFF7FEFF 	 bl optiga_cmd_get_random
 642 0068 0346     	 mov r3,r0
 643 006a FB82     	 strh r3,[r7,#22]
 324:C:/Users/Yushev/git/wpcqi-optiga-trust-charge/optiga/optiga/crypt\optiga_crypt.c ****                                              cmd_param,
 325:C:/Users/Yushev/git/wpcqi-optiga-trust-charge/optiga/optiga/crypt\optiga_crypt.c ****                                              (optiga_get_random_params_t *)p_params);
 326:C:/Users/Yushev/git/wpcqi-optiga-trust-charge/optiga/optiga/crypt\optiga_crypt.c ****         if (OPTIGA_LIB_SUCCESS != return_value)
 644              	 .loc 1 326 0
 645 006c FB8A     	 ldrh r3,[r7,#22]
 646 006e 002B     	 cmp r3,#0
 647 0070 02D0     	 beq .L27
 327:C:/Users/Yushev/git/wpcqi-optiga-trust-charge/optiga/optiga/crypt\optiga_crypt.c ****         {
 328:C:/Users/Yushev/git/wpcqi-optiga-trust-charge/optiga/optiga/crypt\optiga_crypt.c ****             me->instance_state = OPTIGA_LIB_INSTANCE_FREE;
 648              	 .loc 1 328 0
 649 0072 FB68     	 ldr r3,[r7,#12]
 650 0074 0022     	 movs r2,#0
 651 0076 9A85     	 strh r2,[r3,#44]
 652              	.L27:
 329:C:/Users/Yushev/git/wpcqi-optiga-trust-charge/optiga/optiga/crypt\optiga_crypt.c ****         }
 330:C:/Users/Yushev/git/wpcqi-optiga-trust-charge/optiga/optiga/crypt\optiga_crypt.c ****     } while (FALSE);
 331:C:/Users/Yushev/git/wpcqi-optiga-trust-charge/optiga/optiga/crypt\optiga_crypt.c ****     optiga_crypt_reset_protection_level(me);
 653              	 .loc 1 331 0
 654 0078 F868     	 ldr r0,[r7,#12]
 655 007a FFF7FEFF 	 bl optiga_crypt_reset_protection_level
 332:C:/Users/Yushev/git/wpcqi-optiga-trust-charge/optiga/optiga/crypt\optiga_crypt.c **** 
 333:C:/Users/Yushev/git/wpcqi-optiga-trust-charge/optiga/optiga/crypt\optiga_crypt.c ****     return (return_value);
 656              	 .loc 1 333 0
 657 007e FB8A     	 ldrh r3,[r7,#22]
 334:C:/Users/Yushev/git/wpcqi-optiga-trust-charge/optiga/optiga/crypt\optiga_crypt.c **** }
 658              	 .loc 1 334 0
 659 0080 1846     	 mov r0,r3
 660 0082 1837     	 adds r7,r7,#24
 661              	.LCFI29:
 662              	 .cfi_def_cfa_offset 8
 663 0084 BD46     	 mov sp,r7
 664              	.LCFI30:
 665              	 .cfi_def_cfa_register 13
 666              	 
 667 0086 80BD     	 pop {r7,pc}
 668              	 .cfi_endproc
 669              	.LFE5:
 671              	 .section .text.optiga_crypt_hash_generic,"ax",%progbits
 672              	 .align 2
 673              	 .thumb
 674              	 .thumb_func
 676              	optiga_crypt_hash_generic:
 677              	.LFB6:
 335:C:/Users/Yushev/git/wpcqi-optiga-trust-charge/optiga/optiga/crypt\optiga_crypt.c **** #endif //(OPTIGA_CRYPT_RANDOM_ENABLED)
 336:C:/Users/Yushev/git/wpcqi-optiga-trust-charge/optiga/optiga/crypt\optiga_crypt.c **** 
 337:C:/Users/Yushev/git/wpcqi-optiga-trust-charge/optiga/optiga/crypt\optiga_crypt.c **** #ifdef OPTIGA_CRYPT_HASH_ENABLED
 338:C:/Users/Yushev/git/wpcqi-optiga-trust-charge/optiga/optiga/crypt\optiga_crypt.c **** _STATIC_H optiga_lib_status_t optiga_crypt_hash_generic(optiga_crypt_t * me,
 339:C:/Users/Yushev/git/wpcqi-optiga-trust-charge/optiga/optiga/crypt\optiga_crypt.c ****                                                         uint8_t hash_algorithm,
 340:C:/Users/Yushev/git/wpcqi-optiga-trust-charge/optiga/optiga/crypt\optiga_crypt.c ****                                                         uint8_t hash_sequence,
 341:C:/Users/Yushev/git/wpcqi-optiga-trust-charge/optiga/optiga/crypt\optiga_crypt.c ****                                                         uint8_t source_of_data_to_hash,
 342:C:/Users/Yushev/git/wpcqi-optiga-trust-charge/optiga/optiga/crypt\optiga_crypt.c ****                                                         optiga_hash_context_t * hash_ctx,
 343:C:/Users/Yushev/git/wpcqi-optiga-trust-charge/optiga/optiga/crypt\optiga_crypt.c ****                                                         uint32_t context_length,                   
 344:C:/Users/Yushev/git/wpcqi-optiga-trust-charge/optiga/optiga/crypt\optiga_crypt.c ****                                                         const void * data_to_hash,
 345:C:/Users/Yushev/git/wpcqi-optiga-trust-charge/optiga/optiga/crypt\optiga_crypt.c ****                                                         bool_t export_intermediate_ctx,
 346:C:/Users/Yushev/git/wpcqi-optiga-trust-charge/optiga/optiga/crypt\optiga_crypt.c ****                                                         uint8_t * hash_output)
 347:C:/Users/Yushev/git/wpcqi-optiga-trust-charge/optiga/optiga/crypt\optiga_crypt.c **** {
 678              	 .loc 1 347 0
 679              	 .cfi_startproc
 680              	 
 681              	 
 682 0000 80B5     	 push {r7,lr}
 683              	.LCFI31:
 684              	 .cfi_def_cfa_offset 8
 685              	 .cfi_offset 7,-8
 686              	 .cfi_offset 14,-4
 687 0002 84B0     	 sub sp,sp,#16
 688              	.LCFI32:
 689              	 .cfi_def_cfa_offset 24
 690 0004 00AF     	 add r7,sp,#0
 691              	.LCFI33:
 692              	 .cfi_def_cfa_register 7
 693 0006 7860     	 str r0,[r7,#4]
 694 0008 0846     	 mov r0,r1
 695 000a 1146     	 mov r1,r2
 696 000c 1A46     	 mov r2,r3
 697 000e 0346     	 mov r3,r0
 698 0010 FB70     	 strb r3,[r7,#3]
 699 0012 0B46     	 mov r3,r1
 700 0014 BB70     	 strb r3,[r7,#2]
 701 0016 1346     	 mov r3,r2
 702 0018 7B70     	 strb r3,[r7,#1]
 348:C:/Users/Yushev/git/wpcqi-optiga-trust-charge/optiga/optiga/crypt\optiga_crypt.c ****     optiga_lib_status_t return_value = OPTIGA_CRYPT_ERROR;
 703              	 .loc 1 348 0
 704 001a 40F20243 	 movw r3,#1026
 705 001e FB81     	 strh r3,[r7,#14]
 349:C:/Users/Yushev/git/wpcqi-optiga-trust-charge/optiga/optiga/crypt\optiga_crypt.c ****     optiga_calc_hash_params_t * p_params;
 350:C:/Users/Yushev/git/wpcqi-optiga-trust-charge/optiga/optiga/crypt\optiga_crypt.c ****     do
 351:C:/Users/Yushev/git/wpcqi-optiga-trust-charge/optiga/optiga/crypt\optiga_crypt.c ****     {
 352:C:/Users/Yushev/git/wpcqi-optiga-trust-charge/optiga/optiga/crypt\optiga_crypt.c ****         if (OPTIGA_LIB_INSTANCE_BUSY == me->instance_state)
 706              	 .loc 1 352 0
 707 0020 7B68     	 ldr r3,[r7,#4]
 708 0022 9B8D     	 ldrh r3,[r3,#44]
 709 0024 012B     	 cmp r3,#1
 710 0026 03D1     	 bne .L30
 353:C:/Users/Yushev/git/wpcqi-optiga-trust-charge/optiga/optiga/crypt\optiga_crypt.c ****         {
 354:C:/Users/Yushev/git/wpcqi-optiga-trust-charge/optiga/optiga/crypt\optiga_crypt.c ****             return_value = OPTIGA_CRYPT_ERROR_INSTANCE_IN_USE;
 711              	 .loc 1 354 0
 712 0028 40F20543 	 movw r3,#1029
 713 002c FB81     	 strh r3,[r7,#14]
 355:C:/Users/Yushev/git/wpcqi-optiga-trust-charge/optiga/optiga/crypt\optiga_crypt.c ****             break;
 714              	 .loc 1 355 0
 715 002e 47E0     	 b .L31
 716              	.L30:
 356:C:/Users/Yushev/git/wpcqi-optiga-trust-charge/optiga/optiga/crypt\optiga_crypt.c ****         }
 357:C:/Users/Yushev/git/wpcqi-optiga-trust-charge/optiga/optiga/crypt\optiga_crypt.c **** 
 358:C:/Users/Yushev/git/wpcqi-optiga-trust-charge/optiga/optiga/crypt\optiga_crypt.c ****         me->instance_state = OPTIGA_LIB_INSTANCE_BUSY;
 717              	 .loc 1 358 0
 718 0030 7B68     	 ldr r3,[r7,#4]
 719 0032 0122     	 movs r2,#1
 720 0034 9A85     	 strh r2,[r3,#44]
 359:C:/Users/Yushev/git/wpcqi-optiga-trust-charge/optiga/optiga/crypt\optiga_crypt.c ****         p_params = (optiga_calc_hash_params_t *)&(me->params.optiga_calc_hash_params);
 721              	 .loc 1 359 0
 722 0036 7B68     	 ldr r3,[r7,#4]
 723 0038 BB60     	 str r3,[r7,#8]
 360:C:/Users/Yushev/git/wpcqi-optiga-trust-charge/optiga/optiga/crypt\optiga_crypt.c ****         pal_os_memset(&me->params,0x00,sizeof(optiga_crypt_params_t));
 724              	 .loc 1 360 0
 725 003a 7B68     	 ldr r3,[r7,#4]
 726 003c 1846     	 mov r0,r3
 727 003e 0021     	 movs r1,#0
 728 0040 2022     	 movs r2,#32
 729 0042 FFF7FEFF 	 bl pal_os_memset
 361:C:/Users/Yushev/git/wpcqi-optiga-trust-charge/optiga/optiga/crypt\optiga_crypt.c **** 
 362:C:/Users/Yushev/git/wpcqi-optiga-trust-charge/optiga/optiga/crypt\optiga_crypt.c ****         OPTIGA_PROTECTION_ENABLE(me->my_cmd, me);
 363:C:/Users/Yushev/git/wpcqi-optiga-trust-charge/optiga/optiga/crypt\optiga_crypt.c ****         OPTIGA_PROTECTION_SET_VERSION(me->my_cmd, me);
 364:C:/Users/Yushev/git/wpcqi-optiga-trust-charge/optiga/optiga/crypt\optiga_crypt.c ****         p_params->hash_sequence = hash_sequence;
 730              	 .loc 1 364 0
 731 0046 BB68     	 ldr r3,[r7,#8]
 732 0048 BA78     	 ldrb r2,[r7,#2]
 733 004a 1A73     	 strb r2,[r3,#12]
 365:C:/Users/Yushev/git/wpcqi-optiga-trust-charge/optiga/optiga/crypt\optiga_crypt.c ****         p_params->p_hash_context = hash_ctx;
 734              	 .loc 1 365 0
 735 004c BB68     	 ldr r3,[r7,#8]
 736 004e BA69     	 ldr r2,[r7,#24]
 737 0050 9A60     	 str r2,[r3,#8]
 366:C:/Users/Yushev/git/wpcqi-optiga-trust-charge/optiga/optiga/crypt\optiga_crypt.c ****         p_params->apparent_context_size = context_length;
 738              	 .loc 1 366 0
 739 0052 BB68     	 ldr r3,[r7,#8]
 740 0054 FA69     	 ldr r2,[r7,#28]
 741 0056 DA61     	 str r2,[r3,#28]
 367:C:/Users/Yushev/git/wpcqi-optiga-trust-charge/optiga/optiga/crypt\optiga_crypt.c ****         p_params->p_hash_data = NULL;
 742              	 .loc 1 367 0
 743 0058 BB68     	 ldr r3,[r7,#8]
 744 005a 0022     	 movs r2,#0
 745 005c 5A60     	 str r2,[r3,#4]
 368:C:/Users/Yushev/git/wpcqi-optiga-trust-charge/optiga/optiga/crypt\optiga_crypt.c ****         p_params->p_hash_oid = NULL;
 746              	 .loc 1 368 0
 747 005e BB68     	 ldr r3,[r7,#8]
 748 0060 0022     	 movs r2,#0
 749 0062 1A60     	 str r2,[r3]
 369:C:/Users/Yushev/git/wpcqi-optiga-trust-charge/optiga/optiga/crypt\optiga_crypt.c ****         p_params->p_out_digest = hash_output;
 750              	 .loc 1 369 0
 751 0064 BB68     	 ldr r3,[r7,#8]
 752 0066 BA6A     	 ldr r2,[r7,#40]
 753 0068 5A61     	 str r2,[r3,#20]
 370:C:/Users/Yushev/git/wpcqi-optiga-trust-charge/optiga/optiga/crypt\optiga_crypt.c ****         p_params->export_hash_ctx = export_intermediate_ctx;
 754              	 .loc 1 370 0
 755 006a BB68     	 ldr r3,[r7,#8]
 756 006c 97F82420 	 ldrb r2,[r7,#36]
 757 0070 1A76     	 strb r2,[r3,#24]
 371:C:/Users/Yushev/git/wpcqi-optiga-trust-charge/optiga/optiga/crypt\optiga_crypt.c ****         
 372:C:/Users/Yushev/git/wpcqi-optiga-trust-charge/optiga/optiga/crypt\optiga_crypt.c ****         if ((OPTIGA_CRYPT_HASH_CONTINUE == hash_sequence) || (OPTIGA_CRYPT_HASH_START_FINAL == hash
 758              	 .loc 1 372 0
 759 0072 BB78     	 ldrb r3,[r7,#2]
 760 0074 022B     	 cmp r3,#2
 761 0076 02D0     	 beq .L32
 762              	 .loc 1 372 0 is_stmt 0 discriminator 1
 763 0078 BB78     	 ldrb r3,[r7,#2]
 764 007a 012B     	 cmp r3,#1
 765 007c 10D1     	 bne .L33
 766              	.L32:
 373:C:/Users/Yushev/git/wpcqi-optiga-trust-charge/optiga/optiga/crypt\optiga_crypt.c ****         {
 374:C:/Users/Yushev/git/wpcqi-optiga-trust-charge/optiga/optiga/crypt\optiga_crypt.c ****             if (source_of_data_to_hash)
 767              	 .loc 1 374 0 is_stmt 1
 768 007e 7B78     	 ldrb r3,[r7,#1]
 769 0080 002B     	 cmp r3,#0
 770 0082 03D0     	 beq .L34
 375:C:/Users/Yushev/git/wpcqi-optiga-trust-charge/optiga/optiga/crypt\optiga_crypt.c ****             {
 376:C:/Users/Yushev/git/wpcqi-optiga-trust-charge/optiga/optiga/crypt\optiga_crypt.c ****                 p_params->p_hash_data = (hash_data_from_host_t *)data_to_hash;
 771              	 .loc 1 376 0
 772 0084 BB68     	 ldr r3,[r7,#8]
 773 0086 3A6A     	 ldr r2,[r7,#32]
 774 0088 5A60     	 str r2,[r3,#4]
 775 008a 09E0     	 b .L33
 776              	.L34:
 377:C:/Users/Yushev/git/wpcqi-optiga-trust-charge/optiga/optiga/crypt\optiga_crypt.c ****             }
 378:C:/Users/Yushev/git/wpcqi-optiga-trust-charge/optiga/optiga/crypt\optiga_crypt.c ****             else
 379:C:/Users/Yushev/git/wpcqi-optiga-trust-charge/optiga/optiga/crypt\optiga_crypt.c ****             {
 380:C:/Users/Yushev/git/wpcqi-optiga-trust-charge/optiga/optiga/crypt\optiga_crypt.c ****                 p_params->hash_sequence |= OPTIGA_CRYPT_HASH_FOR_OID;
 777              	 .loc 1 380 0
 778 008c BB68     	 ldr r3,[r7,#8]
 779 008e 1B7B     	 ldrb r3,[r3,#12]
 780 0090 43F01003 	 orr r3,r3,#16
 781 0094 DAB2     	 uxtb r2,r3
 782 0096 BB68     	 ldr r3,[r7,#8]
 783 0098 1A73     	 strb r2,[r3,#12]
 381:C:/Users/Yushev/git/wpcqi-optiga-trust-charge/optiga/optiga/crypt\optiga_crypt.c ****                 p_params->p_hash_oid = (hash_data_in_optiga_t *)data_to_hash;
 784              	 .loc 1 381 0
 785 009a BB68     	 ldr r3,[r7,#8]
 786 009c 3A6A     	 ldr r2,[r7,#32]
 787 009e 1A60     	 str r2,[r3]
 788              	.L33:
 382:C:/Users/Yushev/git/wpcqi-optiga-trust-charge/optiga/optiga/crypt\optiga_crypt.c ****             }
 383:C:/Users/Yushev/git/wpcqi-optiga-trust-charge/optiga/optiga/crypt\optiga_crypt.c ****         }
 384:C:/Users/Yushev/git/wpcqi-optiga-trust-charge/optiga/optiga/crypt\optiga_crypt.c **** 
 385:C:/Users/Yushev/git/wpcqi-optiga-trust-charge/optiga/optiga/crypt\optiga_crypt.c ****         return_value = optiga_cmd_calc_hash(me->my_cmd,
 789              	 .loc 1 385 0
 790 00a0 7B68     	 ldr r3,[r7,#4]
 791 00a2 1A6A     	 ldr r2,[r3,#32]
 792 00a4 FB78     	 ldrb r3,[r7,#3]
 793 00a6 1046     	 mov r0,r2
 794 00a8 1946     	 mov r1,r3
 795 00aa BA68     	 ldr r2,[r7,#8]
 796 00ac FFF7FEFF 	 bl optiga_cmd_calc_hash
 797 00b0 0346     	 mov r3,r0
 798 00b2 FB81     	 strh r3,[r7,#14]
 386:C:/Users/Yushev/git/wpcqi-optiga-trust-charge/optiga/optiga/crypt\optiga_crypt.c ****                                             hash_algorithm,
 387:C:/Users/Yushev/git/wpcqi-optiga-trust-charge/optiga/optiga/crypt\optiga_crypt.c ****                                             (optiga_calc_hash_params_t *)p_params);
 388:C:/Users/Yushev/git/wpcqi-optiga-trust-charge/optiga/optiga/crypt\optiga_crypt.c ****         if (OPTIGA_LIB_SUCCESS != return_value)
 799              	 .loc 1 388 0
 800 00b4 FB89     	 ldrh r3,[r7,#14]
 801 00b6 002B     	 cmp r3,#0
 802 00b8 02D0     	 beq .L31
 389:C:/Users/Yushev/git/wpcqi-optiga-trust-charge/optiga/optiga/crypt\optiga_crypt.c ****         {
 390:C:/Users/Yushev/git/wpcqi-optiga-trust-charge/optiga/optiga/crypt\optiga_crypt.c ****             me->instance_state = OPTIGA_LIB_INSTANCE_FREE;
 803              	 .loc 1 390 0
 804 00ba 7B68     	 ldr r3,[r7,#4]
 805 00bc 0022     	 movs r2,#0
 806 00be 9A85     	 strh r2,[r3,#44]
 807              	.L31:
 391:C:/Users/Yushev/git/wpcqi-optiga-trust-charge/optiga/optiga/crypt\optiga_crypt.c ****         }
 392:C:/Users/Yushev/git/wpcqi-optiga-trust-charge/optiga/optiga/crypt\optiga_crypt.c ****     } while (FALSE);
 393:C:/Users/Yushev/git/wpcqi-optiga-trust-charge/optiga/optiga/crypt\optiga_crypt.c ****     optiga_crypt_reset_protection_level(me);
 808              	 .loc 1 393 0
 809 00c0 7868     	 ldr r0,[r7,#4]
 810 00c2 FFF7FEFF 	 bl optiga_crypt_reset_protection_level
 394:C:/Users/Yushev/git/wpcqi-optiga-trust-charge/optiga/optiga/crypt\optiga_crypt.c **** 
 395:C:/Users/Yushev/git/wpcqi-optiga-trust-charge/optiga/optiga/crypt\optiga_crypt.c ****     return (return_value);
 811              	 .loc 1 395 0
 812 00c6 FB89     	 ldrh r3,[r7,#14]
 396:C:/Users/Yushev/git/wpcqi-optiga-trust-charge/optiga/optiga/crypt\optiga_crypt.c **** }
 813              	 .loc 1 396 0
 814 00c8 1846     	 mov r0,r3
 815 00ca 1037     	 adds r7,r7,#16
 816              	.LCFI34:
 817              	 .cfi_def_cfa_offset 8
 818 00cc BD46     	 mov sp,r7
 819              	.LCFI35:
 820              	 .cfi_def_cfa_register 13
 821              	 
 822 00ce 80BD     	 pop {r7,pc}
 823              	 .cfi_endproc
 824              	.LFE6:
 826              	 .section .text.optiga_crypt_create,"ax",%progbits
 827              	 .align 2
 828              	 .global optiga_crypt_create
 829              	 .thumb
 830              	 .thumb_func
 832              	optiga_crypt_create:
 833              	.LFB7:
 397:C:/Users/Yushev/git/wpcqi-optiga-trust-charge/optiga/optiga/crypt\optiga_crypt.c **** #endif //(OPTIGA_CRYPT_HASH_ENABLED)
 398:C:/Users/Yushev/git/wpcqi-optiga-trust-charge/optiga/optiga/crypt\optiga_crypt.c **** 
 399:C:/Users/Yushev/git/wpcqi-optiga-trust-charge/optiga/optiga/crypt\optiga_crypt.c **** #ifdef OPTIGA_COMMS_SHIELDED_CONNECTION
 400:C:/Users/Yushev/git/wpcqi-optiga-trust-charge/optiga/optiga/crypt\optiga_crypt.c **** void optiga_crypt_set_comms_params(optiga_crypt_t * me,
 401:C:/Users/Yushev/git/wpcqi-optiga-trust-charge/optiga/optiga/crypt\optiga_crypt.c ****                                    uint8_t parameter_type,
 402:C:/Users/Yushev/git/wpcqi-optiga-trust-charge/optiga/optiga/crypt\optiga_crypt.c ****                                    uint8_t value)
 403:C:/Users/Yushev/git/wpcqi-optiga-trust-charge/optiga/optiga/crypt\optiga_crypt.c **** {
 404:C:/Users/Yushev/git/wpcqi-optiga-trust-charge/optiga/optiga/crypt\optiga_crypt.c ****     switch (parameter_type)
 405:C:/Users/Yushev/git/wpcqi-optiga-trust-charge/optiga/optiga/crypt\optiga_crypt.c ****     {
 406:C:/Users/Yushev/git/wpcqi-optiga-trust-charge/optiga/optiga/crypt\optiga_crypt.c ****         case OPTIGA_COMMS_PROTECTION_LEVEL:
 407:C:/Users/Yushev/git/wpcqi-optiga-trust-charge/optiga/optiga/crypt\optiga_crypt.c ****         {
 408:C:/Users/Yushev/git/wpcqi-optiga-trust-charge/optiga/optiga/crypt\optiga_crypt.c ****             me->protection_level = value;
 409:C:/Users/Yushev/git/wpcqi-optiga-trust-charge/optiga/optiga/crypt\optiga_crypt.c ****             break;
 410:C:/Users/Yushev/git/wpcqi-optiga-trust-charge/optiga/optiga/crypt\optiga_crypt.c ****         }
 411:C:/Users/Yushev/git/wpcqi-optiga-trust-charge/optiga/optiga/crypt\optiga_crypt.c ****         case OPTIGA_COMMS_PROTOCOL_VERSION:
 412:C:/Users/Yushev/git/wpcqi-optiga-trust-charge/optiga/optiga/crypt\optiga_crypt.c ****         {
 413:C:/Users/Yushev/git/wpcqi-optiga-trust-charge/optiga/optiga/crypt\optiga_crypt.c ****             me->protocol_version = value;
 414:C:/Users/Yushev/git/wpcqi-optiga-trust-charge/optiga/optiga/crypt\optiga_crypt.c ****             break;
 415:C:/Users/Yushev/git/wpcqi-optiga-trust-charge/optiga/optiga/crypt\optiga_crypt.c ****         }
 416:C:/Users/Yushev/git/wpcqi-optiga-trust-charge/optiga/optiga/crypt\optiga_crypt.c ****         default:
 417:C:/Users/Yushev/git/wpcqi-optiga-trust-charge/optiga/optiga/crypt\optiga_crypt.c ****         {
 418:C:/Users/Yushev/git/wpcqi-optiga-trust-charge/optiga/optiga/crypt\optiga_crypt.c ****             break;
 419:C:/Users/Yushev/git/wpcqi-optiga-trust-charge/optiga/optiga/crypt\optiga_crypt.c ****         }
 420:C:/Users/Yushev/git/wpcqi-optiga-trust-charge/optiga/optiga/crypt\optiga_crypt.c ****     }
 421:C:/Users/Yushev/git/wpcqi-optiga-trust-charge/optiga/optiga/crypt\optiga_crypt.c **** }
 422:C:/Users/Yushev/git/wpcqi-optiga-trust-charge/optiga/optiga/crypt\optiga_crypt.c **** #endif
 423:C:/Users/Yushev/git/wpcqi-optiga-trust-charge/optiga/optiga/crypt\optiga_crypt.c **** 
 424:C:/Users/Yushev/git/wpcqi-optiga-trust-charge/optiga/optiga/crypt\optiga_crypt.c **** optiga_crypt_t * optiga_crypt_create(uint8_t optiga_instance_id,
 425:C:/Users/Yushev/git/wpcqi-optiga-trust-charge/optiga/optiga/crypt\optiga_crypt.c ****                                      callback_handler_t handler,
 426:C:/Users/Yushev/git/wpcqi-optiga-trust-charge/optiga/optiga/crypt\optiga_crypt.c ****                                      void * caller_context)
 427:C:/Users/Yushev/git/wpcqi-optiga-trust-charge/optiga/optiga/crypt\optiga_crypt.c **** {
 834              	 .loc 1 427 0
 835              	 .cfi_startproc
 836              	 
 837              	 
 838 0000 80B5     	 push {r7,lr}
 839              	.LCFI36:
 840              	 .cfi_def_cfa_offset 8
 841              	 .cfi_offset 7,-8
 842              	 .cfi_offset 14,-4
 843 0002 86B0     	 sub sp,sp,#24
 844              	.LCFI37:
 845              	 .cfi_def_cfa_offset 32
 846 0004 00AF     	 add r7,sp,#0
 847              	.LCFI38:
 848              	 .cfi_def_cfa_register 7
 849 0006 0346     	 mov r3,r0
 850 0008 B960     	 str r1,[r7,#8]
 851 000a 7A60     	 str r2,[r7,#4]
 852 000c FB73     	 strb r3,[r7,#15]
 428:C:/Users/Yushev/git/wpcqi-optiga-trust-charge/optiga/optiga/crypt\optiga_crypt.c ****     optiga_crypt_t * me = NULL;
 853              	 .loc 1 428 0
 854 000e 0023     	 movs r3,#0
 855 0010 7B61     	 str r3,[r7,#20]
 429:C:/Users/Yushev/git/wpcqi-optiga-trust-charge/optiga/optiga/crypt\optiga_crypt.c **** 
 430:C:/Users/Yushev/git/wpcqi-optiga-trust-charge/optiga/optiga/crypt\optiga_crypt.c ****     do
 431:C:/Users/Yushev/git/wpcqi-optiga-trust-charge/optiga/optiga/crypt\optiga_crypt.c ****     {
 432:C:/Users/Yushev/git/wpcqi-optiga-trust-charge/optiga/optiga/crypt\optiga_crypt.c **** #ifdef OPTIGA_LIB_DEBUG_NULL_CHECK
 433:C:/Users/Yushev/git/wpcqi-optiga-trust-charge/optiga/optiga/crypt\optiga_crypt.c ****         if (NULL == handler)
 856              	 .loc 1 433 0
 857 0012 BB68     	 ldr r3,[r7,#8]
 858 0014 002B     	 cmp r3,#0
 859 0016 00D1     	 bne .L37
 434:C:/Users/Yushev/git/wpcqi-optiga-trust-charge/optiga/optiga/crypt\optiga_crypt.c ****         {
 435:C:/Users/Yushev/git/wpcqi-optiga-trust-charge/optiga/optiga/crypt\optiga_crypt.c ****             break;
 860              	 .loc 1 435 0
 861 0018 23E0     	 b .L38
 862              	.L37:
 436:C:/Users/Yushev/git/wpcqi-optiga-trust-charge/optiga/optiga/crypt\optiga_crypt.c ****         }
 437:C:/Users/Yushev/git/wpcqi-optiga-trust-charge/optiga/optiga/crypt\optiga_crypt.c **** #endif
 438:C:/Users/Yushev/git/wpcqi-optiga-trust-charge/optiga/optiga/crypt\optiga_crypt.c ****         me = (optiga_crypt_t *)pal_os_calloc(1, sizeof(optiga_crypt_t));
 863              	 .loc 1 438 0
 864 001a 0120     	 movs r0,#1
 865 001c 3021     	 movs r1,#48
 866 001e FFF7FEFF 	 bl pal_os_calloc
 867 0022 7861     	 str r0,[r7,#20]
 439:C:/Users/Yushev/git/wpcqi-optiga-trust-charge/optiga/optiga/crypt\optiga_crypt.c ****         if (NULL == me)
 868              	 .loc 1 439 0
 869 0024 7B69     	 ldr r3,[r7,#20]
 870 0026 002B     	 cmp r3,#0
 871 0028 00D1     	 bne .L39
 440:C:/Users/Yushev/git/wpcqi-optiga-trust-charge/optiga/optiga/crypt\optiga_crypt.c ****         {
 441:C:/Users/Yushev/git/wpcqi-optiga-trust-charge/optiga/optiga/crypt\optiga_crypt.c ****             break;
 872              	 .loc 1 441 0
 873 002a 1AE0     	 b .L38
 874              	.L39:
 442:C:/Users/Yushev/git/wpcqi-optiga-trust-charge/optiga/optiga/crypt\optiga_crypt.c ****         }
 443:C:/Users/Yushev/git/wpcqi-optiga-trust-charge/optiga/optiga/crypt\optiga_crypt.c **** 
 444:C:/Users/Yushev/git/wpcqi-optiga-trust-charge/optiga/optiga/crypt\optiga_crypt.c ****         me->handler = handler;
 875              	 .loc 1 444 0
 876 002c 7B69     	 ldr r3,[r7,#20]
 877 002e BA68     	 ldr r2,[r7,#8]
 878 0030 9A62     	 str r2,[r3,#40]
 445:C:/Users/Yushev/git/wpcqi-optiga-trust-charge/optiga/optiga/crypt\optiga_crypt.c ****         me->caller_context = caller_context;
 879              	 .loc 1 445 0
 880 0032 7B69     	 ldr r3,[r7,#20]
 881 0034 7A68     	 ldr r2,[r7,#4]
 882 0036 5A62     	 str r2,[r3,#36]
 446:C:/Users/Yushev/git/wpcqi-optiga-trust-charge/optiga/optiga/crypt\optiga_crypt.c ****         me->instance_state = OPTIGA_LIB_SUCCESS;
 883              	 .loc 1 446 0
 884 0038 7B69     	 ldr r3,[r7,#20]
 885 003a 0022     	 movs r2,#0
 886 003c 9A85     	 strh r2,[r3,#44]
 447:C:/Users/Yushev/git/wpcqi-optiga-trust-charge/optiga/optiga/crypt\optiga_crypt.c **** #ifdef OPTIGA_COMMS_SHIELDED_CONNECTION
 448:C:/Users/Yushev/git/wpcqi-optiga-trust-charge/optiga/optiga/crypt\optiga_crypt.c ****         me->protocol_version = OPTIGA_COMMS_PROTOCOL_VERSION_PRE_SHARED_SECRET;
 449:C:/Users/Yushev/git/wpcqi-optiga-trust-charge/optiga/optiga/crypt\optiga_crypt.c ****         me->protection_level = OPTIGA_COMMS_DEFAULT_PROTECTION_LEVEL;
 450:C:/Users/Yushev/git/wpcqi-optiga-trust-charge/optiga/optiga/crypt\optiga_crypt.c **** #endif
 451:C:/Users/Yushev/git/wpcqi-optiga-trust-charge/optiga/optiga/crypt\optiga_crypt.c ****         me->my_cmd = optiga_cmd_create(optiga_instance_id,
 887              	 .loc 1 451 0
 888 003e FB7B     	 ldrb r3,[r7,#15]
 889 0040 1846     	 mov r0,r3
 890 0042 0A49     	 ldr r1,.L41
 891 0044 7A69     	 ldr r2,[r7,#20]
 892 0046 FFF7FEFF 	 bl optiga_cmd_create
 893 004a 0246     	 mov r2,r0
 894 004c 7B69     	 ldr r3,[r7,#20]
 895 004e 1A62     	 str r2,[r3,#32]
 452:C:/Users/Yushev/git/wpcqi-optiga-trust-charge/optiga/optiga/crypt\optiga_crypt.c ****                                        optiga_crypt_generic_event_handler,
 453:C:/Users/Yushev/git/wpcqi-optiga-trust-charge/optiga/optiga/crypt\optiga_crypt.c ****                                        me);
 454:C:/Users/Yushev/git/wpcqi-optiga-trust-charge/optiga/optiga/crypt\optiga_crypt.c ****         if (NULL == me->my_cmd)
 896              	 .loc 1 454 0
 897 0050 7B69     	 ldr r3,[r7,#20]
 898 0052 1B6A     	 ldr r3,[r3,#32]
 899 0054 002B     	 cmp r3,#0
 900 0056 04D1     	 bne .L38
 455:C:/Users/Yushev/git/wpcqi-optiga-trust-charge/optiga/optiga/crypt\optiga_crypt.c ****         {
 456:C:/Users/Yushev/git/wpcqi-optiga-trust-charge/optiga/optiga/crypt\optiga_crypt.c ****             pal_os_free(me);
 901              	 .loc 1 456 0
 902 0058 7869     	 ldr r0,[r7,#20]
 903 005a FFF7FEFF 	 bl pal_os_free
 457:C:/Users/Yushev/git/wpcqi-optiga-trust-charge/optiga/optiga/crypt\optiga_crypt.c ****             me = NULL;
 904              	 .loc 1 457 0
 905 005e 0023     	 movs r3,#0
 906 0060 7B61     	 str r3,[r7,#20]
 907              	.L38:
 458:C:/Users/Yushev/git/wpcqi-optiga-trust-charge/optiga/optiga/crypt\optiga_crypt.c ****         }
 459:C:/Users/Yushev/git/wpcqi-optiga-trust-charge/optiga/optiga/crypt\optiga_crypt.c **** 
 460:C:/Users/Yushev/git/wpcqi-optiga-trust-charge/optiga/optiga/crypt\optiga_crypt.c ****     } while (FALSE);
 461:C:/Users/Yushev/git/wpcqi-optiga-trust-charge/optiga/optiga/crypt\optiga_crypt.c **** 
 462:C:/Users/Yushev/git/wpcqi-optiga-trust-charge/optiga/optiga/crypt\optiga_crypt.c ****     return (me);
 908              	 .loc 1 462 0
 909 0062 7B69     	 ldr r3,[r7,#20]
 463:C:/Users/Yushev/git/wpcqi-optiga-trust-charge/optiga/optiga/crypt\optiga_crypt.c **** }
 910              	 .loc 1 463 0
 911 0064 1846     	 mov r0,r3
 912 0066 1837     	 adds r7,r7,#24
 913              	.LCFI39:
 914              	 .cfi_def_cfa_offset 8
 915 0068 BD46     	 mov sp,r7
 916              	.LCFI40:
 917              	 .cfi_def_cfa_register 13
 918              	 
 919 006a 80BD     	 pop {r7,pc}
 920              	.L42:
 921              	 .align 2
 922              	.L41:
 923 006c 00000000 	 .word optiga_crypt_generic_event_handler
 924              	 .cfi_endproc
 925              	.LFE7:
 927              	 .section .text.optiga_crypt_destroy,"ax",%progbits
 928              	 .align 2
 929              	 .global optiga_crypt_destroy
 930              	 .thumb
 931              	 .thumb_func
 933              	optiga_crypt_destroy:
 934              	.LFB8:
 464:C:/Users/Yushev/git/wpcqi-optiga-trust-charge/optiga/optiga/crypt\optiga_crypt.c **** 
 465:C:/Users/Yushev/git/wpcqi-optiga-trust-charge/optiga/optiga/crypt\optiga_crypt.c **** optiga_lib_status_t optiga_crypt_destroy(optiga_crypt_t * me)
 466:C:/Users/Yushev/git/wpcqi-optiga-trust-charge/optiga/optiga/crypt\optiga_crypt.c **** {
 935              	 .loc 1 466 0
 936              	 .cfi_startproc
 937              	 
 938              	 
 939 0000 80B5     	 push {r7,lr}
 940              	.LCFI41:
 941              	 .cfi_def_cfa_offset 8
 942              	 .cfi_offset 7,-8
 943              	 .cfi_offset 14,-4
 944 0002 84B0     	 sub sp,sp,#16
 945              	.LCFI42:
 946              	 .cfi_def_cfa_offset 24
 947 0004 00AF     	 add r7,sp,#0
 948              	.LCFI43:
 949              	 .cfi_def_cfa_register 7
 950 0006 7860     	 str r0,[r7,#4]
 467:C:/Users/Yushev/git/wpcqi-optiga-trust-charge/optiga/optiga/crypt\optiga_crypt.c ****     optiga_lib_status_t return_value;
 468:C:/Users/Yushev/git/wpcqi-optiga-trust-charge/optiga/optiga/crypt\optiga_crypt.c **** 
 469:C:/Users/Yushev/git/wpcqi-optiga-trust-charge/optiga/optiga/crypt\optiga_crypt.c ****     do
 470:C:/Users/Yushev/git/wpcqi-optiga-trust-charge/optiga/optiga/crypt\optiga_crypt.c ****     {
 471:C:/Users/Yushev/git/wpcqi-optiga-trust-charge/optiga/optiga/crypt\optiga_crypt.c **** #ifdef OPTIGA_LIB_DEBUG_NULL_CHECK
 472:C:/Users/Yushev/git/wpcqi-optiga-trust-charge/optiga/optiga/crypt\optiga_crypt.c ****         if (NULL == me)
 951              	 .loc 1 472 0
 952 0008 7B68     	 ldr r3,[r7,#4]
 953 000a 002B     	 cmp r3,#0
 954 000c 03D1     	 bne .L44
 473:C:/Users/Yushev/git/wpcqi-optiga-trust-charge/optiga/optiga/crypt\optiga_crypt.c ****         {
 474:C:/Users/Yushev/git/wpcqi-optiga-trust-charge/optiga/optiga/crypt\optiga_crypt.c ****             return_value = OPTIGA_CRYPT_ERROR_INVALID_INPUT;
 955              	 .loc 1 474 0
 956 000e 40F20343 	 movw r3,#1027
 957 0012 FB81     	 strh r3,[r7,#14]
 475:C:/Users/Yushev/git/wpcqi-optiga-trust-charge/optiga/optiga/crypt\optiga_crypt.c ****             break;
 958              	 .loc 1 475 0
 959 0014 11E0     	 b .L45
 960              	.L44:
 476:C:/Users/Yushev/git/wpcqi-optiga-trust-charge/optiga/optiga/crypt\optiga_crypt.c ****         }
 477:C:/Users/Yushev/git/wpcqi-optiga-trust-charge/optiga/optiga/crypt\optiga_crypt.c **** #endif
 478:C:/Users/Yushev/git/wpcqi-optiga-trust-charge/optiga/optiga/crypt\optiga_crypt.c ****         if (OPTIGA_LIB_INSTANCE_BUSY == me->instance_state)
 961              	 .loc 1 478 0
 962 0016 7B68     	 ldr r3,[r7,#4]
 963 0018 9B8D     	 ldrh r3,[r3,#44]
 964 001a 012B     	 cmp r3,#1
 965 001c 03D1     	 bne .L46
 479:C:/Users/Yushev/git/wpcqi-optiga-trust-charge/optiga/optiga/crypt\optiga_crypt.c ****         {
 480:C:/Users/Yushev/git/wpcqi-optiga-trust-charge/optiga/optiga/crypt\optiga_crypt.c ****             return_value = OPTIGA_CRYPT_ERROR_INSTANCE_IN_USE;
 966              	 .loc 1 480 0
 967 001e 40F20543 	 movw r3,#1029
 968 0022 FB81     	 strh r3,[r7,#14]
 481:C:/Users/Yushev/git/wpcqi-optiga-trust-charge/optiga/optiga/crypt\optiga_crypt.c ****             break;
 969              	 .loc 1 481 0
 970 0024 09E0     	 b .L45
 971              	.L46:
 482:C:/Users/Yushev/git/wpcqi-optiga-trust-charge/optiga/optiga/crypt\optiga_crypt.c ****         }
 483:C:/Users/Yushev/git/wpcqi-optiga-trust-charge/optiga/optiga/crypt\optiga_crypt.c ****         return_value = optiga_cmd_destroy(me->my_cmd);
 972              	 .loc 1 483 0
 973 0026 7B68     	 ldr r3,[r7,#4]
 974 0028 1B6A     	 ldr r3,[r3,#32]
 975 002a 1846     	 mov r0,r3
 976 002c FFF7FEFF 	 bl optiga_cmd_destroy
 977 0030 0346     	 mov r3,r0
 978 0032 FB81     	 strh r3,[r7,#14]
 484:C:/Users/Yushev/git/wpcqi-optiga-trust-charge/optiga/optiga/crypt\optiga_crypt.c ****         pal_os_free(me);
 979              	 .loc 1 484 0
 980 0034 7868     	 ldr r0,[r7,#4]
 981 0036 FFF7FEFF 	 bl pal_os_free
 982              	.L45:
 485:C:/Users/Yushev/git/wpcqi-optiga-trust-charge/optiga/optiga/crypt\optiga_crypt.c **** 
 486:C:/Users/Yushev/git/wpcqi-optiga-trust-charge/optiga/optiga/crypt\optiga_crypt.c ****     } while (FALSE);
 487:C:/Users/Yushev/git/wpcqi-optiga-trust-charge/optiga/optiga/crypt\optiga_crypt.c ****     return (return_value);
 983              	 .loc 1 487 0
 984 003a FB89     	 ldrh r3,[r7,#14]
 488:C:/Users/Yushev/git/wpcqi-optiga-trust-charge/optiga/optiga/crypt\optiga_crypt.c **** }
 985              	 .loc 1 488 0
 986 003c 1846     	 mov r0,r3
 987 003e 1037     	 adds r7,r7,#16
 988              	.LCFI44:
 989              	 .cfi_def_cfa_offset 8
 990 0040 BD46     	 mov sp,r7
 991              	.LCFI45:
 992              	 .cfi_def_cfa_register 13
 993              	 
 994 0042 80BD     	 pop {r7,pc}
 995              	 .cfi_endproc
 996              	.LFE8:
 998              	 .section .text.optiga_crypt_random,"ax",%progbits
 999              	 .align 2
 1000              	 .global optiga_crypt_random
 1001              	 .thumb
 1002              	 .thumb_func
 1004              	optiga_crypt_random:
 1005              	.LFB9:
 489:C:/Users/Yushev/git/wpcqi-optiga-trust-charge/optiga/optiga/crypt\optiga_crypt.c **** 
 490:C:/Users/Yushev/git/wpcqi-optiga-trust-charge/optiga/optiga/crypt\optiga_crypt.c **** #ifdef OPTIGA_CRYPT_RANDOM_ENABLED
 491:C:/Users/Yushev/git/wpcqi-optiga-trust-charge/optiga/optiga/crypt\optiga_crypt.c **** optiga_lib_status_t optiga_crypt_random(optiga_crypt_t * me,
 492:C:/Users/Yushev/git/wpcqi-optiga-trust-charge/optiga/optiga/crypt\optiga_crypt.c ****                                         optiga_rng_type_t rng_type,
 493:C:/Users/Yushev/git/wpcqi-optiga-trust-charge/optiga/optiga/crypt\optiga_crypt.c ****                                         uint8_t * random_data,
 494:C:/Users/Yushev/git/wpcqi-optiga-trust-charge/optiga/optiga/crypt\optiga_crypt.c ****                                         uint16_t random_data_length)
 495:C:/Users/Yushev/git/wpcqi-optiga-trust-charge/optiga/optiga/crypt\optiga_crypt.c **** {
 1006              	 .loc 1 495 0
 1007              	 .cfi_startproc
 1008              	 
 1009              	 
 1010 0000 90B5     	 push {r4,r7,lr}
 1011              	.LCFI46:
 1012              	 .cfi_def_cfa_offset 12
 1013              	 .cfi_offset 4,-12
 1014              	 .cfi_offset 7,-8
 1015              	 .cfi_offset 14,-4
 1016 0002 89B0     	 sub sp,sp,#36
 1017              	.LCFI47:
 1018              	 .cfi_def_cfa_offset 48
 1019 0004 02AF     	 add r7,sp,#8
 1020              	.LCFI48:
 1021              	 .cfi_def_cfa 7,40
 1022 0006 F860     	 str r0,[r7,#12]
 1023 0008 7A60     	 str r2,[r7,#4]
 1024 000a 1A46     	 mov r2,r3
 1025 000c 0B46     	 mov r3,r1
 1026 000e FB72     	 strb r3,[r7,#11]
 1027 0010 1346     	 mov r3,r2
 1028 0012 3B81     	 strh r3,[r7,#8]
 496:C:/Users/Yushev/git/wpcqi-optiga-trust-charge/optiga/optiga/crypt\optiga_crypt.c ****     optiga_lib_status_t return_value = OPTIGA_CRYPT_ERROR;
 1029              	 .loc 1 496 0
 1030 0014 40F20243 	 movw r3,#1026
 1031 0018 FB82     	 strh r3,[r7,#22]
 497:C:/Users/Yushev/git/wpcqi-optiga-trust-charge/optiga/optiga/crypt\optiga_crypt.c ****     OPTIGA_CRYPT_LOG_MESSAGE(__FUNCTION__);
 498:C:/Users/Yushev/git/wpcqi-optiga-trust-charge/optiga/optiga/crypt\optiga_crypt.c ****     do
 499:C:/Users/Yushev/git/wpcqi-optiga-trust-charge/optiga/optiga/crypt\optiga_crypt.c ****     {
 500:C:/Users/Yushev/git/wpcqi-optiga-trust-charge/optiga/optiga/crypt\optiga_crypt.c **** #ifdef OPTIGA_LIB_DEBUG_NULL_CHECK
 501:C:/Users/Yushev/git/wpcqi-optiga-trust-charge/optiga/optiga/crypt\optiga_crypt.c ****         if ((NULL == me) || (NULL == me->my_cmd) || (NULL == random_data))
 1032              	 .loc 1 501 0
 1033 001a FB68     	 ldr r3,[r7,#12]
 1034 001c 002B     	 cmp r3,#0
 1035 001e 06D0     	 beq .L49
 1036              	 .loc 1 501 0 is_stmt 0 discriminator 1
 1037 0020 FB68     	 ldr r3,[r7,#12]
 1038 0022 1B6A     	 ldr r3,[r3,#32]
 1039 0024 002B     	 cmp r3,#0
 1040 0026 02D0     	 beq .L49
 1041              	 .loc 1 501 0 discriminator 2
 1042 0028 7B68     	 ldr r3,[r7,#4]
 1043 002a 002B     	 cmp r3,#0
 1044 002c 03D1     	 bne .L50
 1045              	.L49:
 502:C:/Users/Yushev/git/wpcqi-optiga-trust-charge/optiga/optiga/crypt\optiga_crypt.c ****         {
 503:C:/Users/Yushev/git/wpcqi-optiga-trust-charge/optiga/optiga/crypt\optiga_crypt.c ****             return_value = OPTIGA_CRYPT_ERROR_INVALID_INPUT;
 1046              	 .loc 1 503 0 is_stmt 1
 1047 002e 40F20343 	 movw r3,#1027
 1048 0032 FB82     	 strh r3,[r7,#22]
 504:C:/Users/Yushev/git/wpcqi-optiga-trust-charge/optiga/optiga/crypt\optiga_crypt.c ****             break;
 1049              	 .loc 1 504 0
 1050 0034 0DE0     	 b .L51
 1051              	.L50:
 505:C:/Users/Yushev/git/wpcqi-optiga-trust-charge/optiga/optiga/crypt\optiga_crypt.c ****         }
 506:C:/Users/Yushev/git/wpcqi-optiga-trust-charge/optiga/optiga/crypt\optiga_crypt.c **** #endif
 507:C:/Users/Yushev/git/wpcqi-optiga-trust-charge/optiga/optiga/crypt\optiga_crypt.c ****         return_value = optiga_crypt_get_random(me,
 1052              	 .loc 1 507 0
 1053 0036 FA7A     	 ldrb r2,[r7,#11]
 1054 0038 3C89     	 ldrh r4,[r7,#8]
 1055 003a 0023     	 movs r3,#0
 1056 003c 0093     	 str r3,[sp]
 1057 003e 0023     	 movs r3,#0
 1058 0040 0193     	 str r3,[sp,#4]
 1059 0042 F868     	 ldr r0,[r7,#12]
 1060 0044 1146     	 mov r1,r2
 1061 0046 7A68     	 ldr r2,[r7,#4]
 1062 0048 2346     	 mov r3,r4
 1063 004a FFF7FEFF 	 bl optiga_crypt_get_random
 1064 004e 0346     	 mov r3,r0
 1065 0050 FB82     	 strh r3,[r7,#22]
 1066              	.L51:
 508:C:/Users/Yushev/git/wpcqi-optiga-trust-charge/optiga/optiga/crypt\optiga_crypt.c ****                                                (uint8_t)rng_type,
 509:C:/Users/Yushev/git/wpcqi-optiga-trust-charge/optiga/optiga/crypt\optiga_crypt.c ****                                                random_data,
 510:C:/Users/Yushev/git/wpcqi-optiga-trust-charge/optiga/optiga/crypt\optiga_crypt.c ****                                                random_data_length,
 511:C:/Users/Yushev/git/wpcqi-optiga-trust-charge/optiga/optiga/crypt\optiga_crypt.c ****                                                NULL,
 512:C:/Users/Yushev/git/wpcqi-optiga-trust-charge/optiga/optiga/crypt\optiga_crypt.c ****                                                0x00);
 513:C:/Users/Yushev/git/wpcqi-optiga-trust-charge/optiga/optiga/crypt\optiga_crypt.c ****     } while (FALSE);
 514:C:/Users/Yushev/git/wpcqi-optiga-trust-charge/optiga/optiga/crypt\optiga_crypt.c **** 
 515:C:/Users/Yushev/git/wpcqi-optiga-trust-charge/optiga/optiga/crypt\optiga_crypt.c ****     return (return_value);
 1067              	 .loc 1 515 0
 1068 0052 FB8A     	 ldrh r3,[r7,#22]
 516:C:/Users/Yushev/git/wpcqi-optiga-trust-charge/optiga/optiga/crypt\optiga_crypt.c **** }
 1069              	 .loc 1 516 0
 1070 0054 1846     	 mov r0,r3
 1071 0056 1C37     	 adds r7,r7,#28
 1072              	.LCFI49:
 1073              	 .cfi_def_cfa_offset 12
 1074 0058 BD46     	 mov sp,r7
 1075              	.LCFI50:
 1076              	 .cfi_def_cfa_register 13
 1077              	 
 1078 005a 90BD     	 pop {r4,r7,pc}
 1079              	 .cfi_endproc
 1080              	.LFE9:
 1082              	 .section .text.optiga_crypt_hash_start,"ax",%progbits
 1083              	 .align 2
 1084              	 .global optiga_crypt_hash_start
 1085              	 .thumb
 1086              	 .thumb_func
 1088              	optiga_crypt_hash_start:
 1089              	.LFB10:
 517:C:/Users/Yushev/git/wpcqi-optiga-trust-charge/optiga/optiga/crypt\optiga_crypt.c **** #endif //OPTIGA_CRYPT_RANDOM_ENABLED
 518:C:/Users/Yushev/git/wpcqi-optiga-trust-charge/optiga/optiga/crypt\optiga_crypt.c **** 
 519:C:/Users/Yushev/git/wpcqi-optiga-trust-charge/optiga/optiga/crypt\optiga_crypt.c **** #ifdef OPTIGA_CRYPT_HASH_ENABLED
 520:C:/Users/Yushev/git/wpcqi-optiga-trust-charge/optiga/optiga/crypt\optiga_crypt.c **** optiga_lib_status_t optiga_crypt_hash_start(optiga_crypt_t * me,
 521:C:/Users/Yushev/git/wpcqi-optiga-trust-charge/optiga/optiga/crypt\optiga_crypt.c ****                                             optiga_hash_context_t * hash_ctx)
 522:C:/Users/Yushev/git/wpcqi-optiga-trust-charge/optiga/optiga/crypt\optiga_crypt.c **** {
 1090              	 .loc 1 522 0
 1091              	 .cfi_startproc
 1092              	 
 1093              	 
 1094 0000 80B5     	 push {r7,lr}
 1095              	.LCFI51:
 1096              	 .cfi_def_cfa_offset 8
 1097              	 .cfi_offset 7,-8
 1098              	 .cfi_offset 14,-4
 1099 0002 8AB0     	 sub sp,sp,#40
 1100              	.LCFI52:
 1101              	 .cfi_def_cfa_offset 48
 1102 0004 06AF     	 add r7,sp,#24
 1103              	.LCFI53:
 1104              	 .cfi_def_cfa 7,24
 1105 0006 7860     	 str r0,[r7,#4]
 1106 0008 3960     	 str r1,[r7]
 523:C:/Users/Yushev/git/wpcqi-optiga-trust-charge/optiga/optiga/crypt\optiga_crypt.c ****     optiga_lib_status_t return_value = OPTIGA_CRYPT_ERROR;
 1107              	 .loc 1 523 0
 1108 000a 40F20243 	 movw r3,#1026
 1109 000e FB81     	 strh r3,[r7,#14]
 524:C:/Users/Yushev/git/wpcqi-optiga-trust-charge/optiga/optiga/crypt\optiga_crypt.c ****     OPTIGA_CRYPT_LOG_MESSAGE(__FUNCTION__);
 525:C:/Users/Yushev/git/wpcqi-optiga-trust-charge/optiga/optiga/crypt\optiga_crypt.c ****     do  
 526:C:/Users/Yushev/git/wpcqi-optiga-trust-charge/optiga/optiga/crypt\optiga_crypt.c ****     {
 527:C:/Users/Yushev/git/wpcqi-optiga-trust-charge/optiga/optiga/crypt\optiga_crypt.c **** #ifdef OPTIGA_LIB_DEBUG_NULL_CHECK
 528:C:/Users/Yushev/git/wpcqi-optiga-trust-charge/optiga/optiga/crypt\optiga_crypt.c ****         if ((NULL == me) || (NULL == me->my_cmd) || (NULL == hash_ctx))
 1110              	 .loc 1 528 0
 1111 0010 7B68     	 ldr r3,[r7,#4]
 1112 0012 002B     	 cmp r3,#0
 1113 0014 06D0     	 beq .L54
 1114              	 .loc 1 528 0 is_stmt 0 discriminator 1
 1115 0016 7B68     	 ldr r3,[r7,#4]
 1116 0018 1B6A     	 ldr r3,[r3,#32]
 1117 001a 002B     	 cmp r3,#0
 1118 001c 02D0     	 beq .L54
 1119              	 .loc 1 528 0 discriminator 2
 1120 001e 3B68     	 ldr r3,[r7]
 1121 0020 002B     	 cmp r3,#0
 1122 0022 03D1     	 bne .L55
 1123              	.L54:
 529:C:/Users/Yushev/git/wpcqi-optiga-trust-charge/optiga/optiga/crypt\optiga_crypt.c ****         {
 530:C:/Users/Yushev/git/wpcqi-optiga-trust-charge/optiga/optiga/crypt\optiga_crypt.c ****             return_value = OPTIGA_CRYPT_ERROR_INVALID_INPUT;
 1124              	 .loc 1 530 0 is_stmt 1
 1125 0024 40F20343 	 movw r3,#1027
 1126 0028 FB81     	 strh r3,[r7,#14]
 531:C:/Users/Yushev/git/wpcqi-optiga-trust-charge/optiga/optiga/crypt\optiga_crypt.c ****             break;
 1127              	 .loc 1 531 0
 1128 002a 13E0     	 b .L56
 1129              	.L55:
 532:C:/Users/Yushev/git/wpcqi-optiga-trust-charge/optiga/optiga/crypt\optiga_crypt.c ****         }
 533:C:/Users/Yushev/git/wpcqi-optiga-trust-charge/optiga/optiga/crypt\optiga_crypt.c **** #endif
 534:C:/Users/Yushev/git/wpcqi-optiga-trust-charge/optiga/optiga/crypt\optiga_crypt.c ****         return_value = optiga_crypt_hash_generic(me,
 1130              	 .loc 1 534 0
 1131 002c 3B68     	 ldr r3,[r7]
 1132 002e 1A7A     	 ldrb r2,[r3,#8]
 1133 0030 3B68     	 ldr r3,[r7]
 1134 0032 0093     	 str r3,[sp]
 1135 0034 0023     	 movs r3,#0
 1136 0036 0193     	 str r3,[sp,#4]
 1137 0038 0023     	 movs r3,#0
 1138 003a 0293     	 str r3,[sp,#8]
 1139 003c 0123     	 movs r3,#1
 1140 003e 0393     	 str r3,[sp,#12]
 1141 0040 0023     	 movs r3,#0
 1142 0042 0493     	 str r3,[sp,#16]
 1143 0044 7868     	 ldr r0,[r7,#4]
 1144 0046 1146     	 mov r1,r2
 1145 0048 0022     	 movs r2,#0
 1146 004a 0023     	 movs r3,#0
 1147 004c FFF7FEFF 	 bl optiga_crypt_hash_generic
 1148 0050 0346     	 mov r3,r0
 1149 0052 FB81     	 strh r3,[r7,#14]
 1150              	.L56:
 535:C:/Users/Yushev/git/wpcqi-optiga-trust-charge/optiga/optiga/crypt\optiga_crypt.c ****                                                  hash_ctx->hash_algo,
 536:C:/Users/Yushev/git/wpcqi-optiga-trust-charge/optiga/optiga/crypt\optiga_crypt.c ****                                                  OPTIGA_CRYPT_HASH_START,
 537:C:/Users/Yushev/git/wpcqi-optiga-trust-charge/optiga/optiga/crypt\optiga_crypt.c ****                                                  0,
 538:C:/Users/Yushev/git/wpcqi-optiga-trust-charge/optiga/optiga/crypt\optiga_crypt.c ****                                                  hash_ctx,
 539:C:/Users/Yushev/git/wpcqi-optiga-trust-charge/optiga/optiga/crypt\optiga_crypt.c ****                                                  0,
 540:C:/Users/Yushev/git/wpcqi-optiga-trust-charge/optiga/optiga/crypt\optiga_crypt.c ****                                                  NULL,
 541:C:/Users/Yushev/git/wpcqi-optiga-trust-charge/optiga/optiga/crypt\optiga_crypt.c ****                                                  TRUE,
 542:C:/Users/Yushev/git/wpcqi-optiga-trust-charge/optiga/optiga/crypt\optiga_crypt.c ****                                                  NULL);
 543:C:/Users/Yushev/git/wpcqi-optiga-trust-charge/optiga/optiga/crypt\optiga_crypt.c ****     } while (FALSE);
 544:C:/Users/Yushev/git/wpcqi-optiga-trust-charge/optiga/optiga/crypt\optiga_crypt.c **** 
 545:C:/Users/Yushev/git/wpcqi-optiga-trust-charge/optiga/optiga/crypt\optiga_crypt.c ****     return (return_value);
 1151              	 .loc 1 545 0
 1152 0054 FB89     	 ldrh r3,[r7,#14]
 546:C:/Users/Yushev/git/wpcqi-optiga-trust-charge/optiga/optiga/crypt\optiga_crypt.c **** }
 1153              	 .loc 1 546 0
 1154 0056 1846     	 mov r0,r3
 1155 0058 1037     	 adds r7,r7,#16
 1156              	.LCFI54:
 1157              	 .cfi_def_cfa_offset 8
 1158 005a BD46     	 mov sp,r7
 1159              	.LCFI55:
 1160              	 .cfi_def_cfa_register 13
 1161              	 
 1162 005c 80BD     	 pop {r7,pc}
 1163              	 .cfi_endproc
 1164              	.LFE10:
 1166 005e 00BF     	 .section .text.optiga_crypt_hash_update,"ax",%progbits
 1167              	 .align 2
 1168              	 .global optiga_crypt_hash_update
 1169              	 .thumb
 1170              	 .thumb_func
 1172              	optiga_crypt_hash_update:
 1173              	.LFB11:
 547:C:/Users/Yushev/git/wpcqi-optiga-trust-charge/optiga/optiga/crypt\optiga_crypt.c **** 
 548:C:/Users/Yushev/git/wpcqi-optiga-trust-charge/optiga/optiga/crypt\optiga_crypt.c **** optiga_lib_status_t optiga_crypt_hash_update(optiga_crypt_t * me,
 549:C:/Users/Yushev/git/wpcqi-optiga-trust-charge/optiga/optiga/crypt\optiga_crypt.c ****                                              optiga_hash_context_t * hash_ctx,
 550:C:/Users/Yushev/git/wpcqi-optiga-trust-charge/optiga/optiga/crypt\optiga_crypt.c ****                                              uint8_t source_of_data_to_hash,
 551:C:/Users/Yushev/git/wpcqi-optiga-trust-charge/optiga/optiga/crypt\optiga_crypt.c ****                                              const void * data_to_hash)
 552:C:/Users/Yushev/git/wpcqi-optiga-trust-charge/optiga/optiga/crypt\optiga_crypt.c **** {
 1174              	 .loc 1 552 0
 1175              	 .cfi_startproc
 1176              	 
 1177              	 
 1178 0000 90B5     	 push {r4,r7,lr}
 1179              	.LCFI56:
 1180              	 .cfi_def_cfa_offset 12
 1181              	 .cfi_offset 4,-12
 1182              	 .cfi_offset 7,-8
 1183              	 .cfi_offset 14,-4
 1184 0002 8DB0     	 sub sp,sp,#52
 1185              	.LCFI57:
 1186              	 .cfi_def_cfa_offset 64
 1187 0004 06AF     	 add r7,sp,#24
 1188              	.LCFI58:
 1189              	 .cfi_def_cfa 7,40
 1190 0006 F860     	 str r0,[r7,#12]
 1191 0008 B960     	 str r1,[r7,#8]
 1192 000a 3B60     	 str r3,[r7]
 1193 000c 1346     	 mov r3,r2
 1194 000e FB71     	 strb r3,[r7,#7]
 553:C:/Users/Yushev/git/wpcqi-optiga-trust-charge/optiga/optiga/crypt\optiga_crypt.c ****     optiga_lib_status_t return_value = OPTIGA_CRYPT_ERROR;
 1195              	 .loc 1 553 0
 1196 0010 40F20243 	 movw r3,#1026
 1197 0014 FB82     	 strh r3,[r7,#22]
 554:C:/Users/Yushev/git/wpcqi-optiga-trust-charge/optiga/optiga/crypt\optiga_crypt.c ****     OPTIGA_CRYPT_LOG_MESSAGE(__FUNCTION__);
 555:C:/Users/Yushev/git/wpcqi-optiga-trust-charge/optiga/optiga/crypt\optiga_crypt.c ****     do
 556:C:/Users/Yushev/git/wpcqi-optiga-trust-charge/optiga/optiga/crypt\optiga_crypt.c ****     {
 557:C:/Users/Yushev/git/wpcqi-optiga-trust-charge/optiga/optiga/crypt\optiga_crypt.c **** #ifdef OPTIGA_LIB_DEBUG_NULL_CHECK
 558:C:/Users/Yushev/git/wpcqi-optiga-trust-charge/optiga/optiga/crypt\optiga_crypt.c ****         if ((NULL == me) || (NULL == me->my_cmd) ||
 1198              	 .loc 1 558 0
 1199 0016 FB68     	 ldr r3,[r7,#12]
 1200 0018 002B     	 cmp r3,#0
 1201 001a 09D0     	 beq .L59
 1202              	 .loc 1 558 0 is_stmt 0 discriminator 1
 1203 001c FB68     	 ldr r3,[r7,#12]
 1204 001e 1B6A     	 ldr r3,[r3,#32]
 1205 0020 002B     	 cmp r3,#0
 1206 0022 05D0     	 beq .L59
 1207              	 .loc 1 558 0 discriminator 2
 1208 0024 BB68     	 ldr r3,[r7,#8]
 1209 0026 002B     	 cmp r3,#0
 1210 0028 02D0     	 beq .L59
 559:C:/Users/Yushev/git/wpcqi-optiga-trust-charge/optiga/optiga/crypt\optiga_crypt.c ****             (NULL == hash_ctx) || (NULL == data_to_hash))
 1211              	 .loc 1 559 0 is_stmt 1
 1212 002a 3B68     	 ldr r3,[r7]
 1213 002c 002B     	 cmp r3,#0
 1214 002e 03D1     	 bne .L60
 1215              	.L59:
 560:C:/Users/Yushev/git/wpcqi-optiga-trust-charge/optiga/optiga/crypt\optiga_crypt.c ****         {
 561:C:/Users/Yushev/git/wpcqi-optiga-trust-charge/optiga/optiga/crypt\optiga_crypt.c ****             return_value = OPTIGA_CRYPT_ERROR_INVALID_INPUT;
 1216              	 .loc 1 561 0
 1217 0030 40F20343 	 movw r3,#1027
 1218 0034 FB82     	 strh r3,[r7,#22]
 562:C:/Users/Yushev/git/wpcqi-optiga-trust-charge/optiga/optiga/crypt\optiga_crypt.c ****             break;
 1219              	 .loc 1 562 0
 1220 0036 14E0     	 b .L61
 1221              	.L60:
 563:C:/Users/Yushev/git/wpcqi-optiga-trust-charge/optiga/optiga/crypt\optiga_crypt.c ****         }
 564:C:/Users/Yushev/git/wpcqi-optiga-trust-charge/optiga/optiga/crypt\optiga_crypt.c **** #endif
 565:C:/Users/Yushev/git/wpcqi-optiga-trust-charge/optiga/optiga/crypt\optiga_crypt.c ****         return_value = optiga_crypt_hash_generic(me,
 1222              	 .loc 1 565 0
 1223 0038 BB68     	 ldr r3,[r7,#8]
 1224 003a 197A     	 ldrb r1,[r3,#8]
 1225 003c BB68     	 ldr r3,[r7,#8]
 1226 003e 5B68     	 ldr r3,[r3,#4]
 1227 0040 FC79     	 ldrb r4,[r7,#7]
 1228 0042 BA68     	 ldr r2,[r7,#8]
 1229 0044 0092     	 str r2,[sp]
 1230 0046 0193     	 str r3,[sp,#4]
 1231 0048 3B68     	 ldr r3,[r7]
 1232 004a 0293     	 str r3,[sp,#8]
 1233 004c 0123     	 movs r3,#1
 1234 004e 0393     	 str r3,[sp,#12]
 1235 0050 0023     	 movs r3,#0
 1236 0052 0493     	 str r3,[sp,#16]
 1237 0054 F868     	 ldr r0,[r7,#12]
 1238 0056 0222     	 movs r2,#2
 1239 0058 2346     	 mov r3,r4
 1240 005a FFF7FEFF 	 bl optiga_crypt_hash_generic
 1241 005e 0346     	 mov r3,r0
 1242 0060 FB82     	 strh r3,[r7,#22]
 1243              	.L61:
 566:C:/Users/Yushev/git/wpcqi-optiga-trust-charge/optiga/optiga/crypt\optiga_crypt.c ****                                                  hash_ctx->hash_algo,
 567:C:/Users/Yushev/git/wpcqi-optiga-trust-charge/optiga/optiga/crypt\optiga_crypt.c ****                                                  OPTIGA_CRYPT_HASH_CONTINUE,
 568:C:/Users/Yushev/git/wpcqi-optiga-trust-charge/optiga/optiga/crypt\optiga_crypt.c ****                                                  source_of_data_to_hash,
 569:C:/Users/Yushev/git/wpcqi-optiga-trust-charge/optiga/optiga/crypt\optiga_crypt.c ****                                                  hash_ctx,
 570:C:/Users/Yushev/git/wpcqi-optiga-trust-charge/optiga/optiga/crypt\optiga_crypt.c ****                                                  hash_ctx->context_buffer_length,
 571:C:/Users/Yushev/git/wpcqi-optiga-trust-charge/optiga/optiga/crypt\optiga_crypt.c ****                                                  data_to_hash,
 572:C:/Users/Yushev/git/wpcqi-optiga-trust-charge/optiga/optiga/crypt\optiga_crypt.c ****                                                  TRUE,
 573:C:/Users/Yushev/git/wpcqi-optiga-trust-charge/optiga/optiga/crypt\optiga_crypt.c ****                                                  NULL);
 574:C:/Users/Yushev/git/wpcqi-optiga-trust-charge/optiga/optiga/crypt\optiga_crypt.c ****     } while (FALSE);
 575:C:/Users/Yushev/git/wpcqi-optiga-trust-charge/optiga/optiga/crypt\optiga_crypt.c **** 
 576:C:/Users/Yushev/git/wpcqi-optiga-trust-charge/optiga/optiga/crypt\optiga_crypt.c ****     return (return_value);
 1244              	 .loc 1 576 0
 1245 0062 FB8A     	 ldrh r3,[r7,#22]
 577:C:/Users/Yushev/git/wpcqi-optiga-trust-charge/optiga/optiga/crypt\optiga_crypt.c **** }
 1246              	 .loc 1 577 0
 1247 0064 1846     	 mov r0,r3
 1248 0066 1C37     	 adds r7,r7,#28
 1249              	.LCFI59:
 1250              	 .cfi_def_cfa_offset 12
 1251 0068 BD46     	 mov sp,r7
 1252              	.LCFI60:
 1253              	 .cfi_def_cfa_register 13
 1254              	 
 1255 006a 90BD     	 pop {r4,r7,pc}
 1256              	 .cfi_endproc
 1257              	.LFE11:
 1259              	 .section .text.optiga_crypt_hash_finalize,"ax",%progbits
 1260              	 .align 2
 1261              	 .global optiga_crypt_hash_finalize
 1262              	 .thumb
 1263              	 .thumb_func
 1265              	optiga_crypt_hash_finalize:
 1266              	.LFB12:
 578:C:/Users/Yushev/git/wpcqi-optiga-trust-charge/optiga/optiga/crypt\optiga_crypt.c **** 
 579:C:/Users/Yushev/git/wpcqi-optiga-trust-charge/optiga/optiga/crypt\optiga_crypt.c **** optiga_lib_status_t optiga_crypt_hash_finalize(optiga_crypt_t * me,
 580:C:/Users/Yushev/git/wpcqi-optiga-trust-charge/optiga/optiga/crypt\optiga_crypt.c ****                                                optiga_hash_context_t * hash_ctx,
 581:C:/Users/Yushev/git/wpcqi-optiga-trust-charge/optiga/optiga/crypt\optiga_crypt.c ****                                                uint8_t * hash_output)
 582:C:/Users/Yushev/git/wpcqi-optiga-trust-charge/optiga/optiga/crypt\optiga_crypt.c **** {
 1267              	 .loc 1 582 0
 1268              	 .cfi_startproc
 1269              	 
 1270              	 
 1271 0000 80B5     	 push {r7,lr}
 1272              	.LCFI61:
 1273              	 .cfi_def_cfa_offset 8
 1274              	 .cfi_offset 7,-8
 1275              	 .cfi_offset 14,-4
 1276 0002 8CB0     	 sub sp,sp,#48
 1277              	.LCFI62:
 1278              	 .cfi_def_cfa_offset 56
 1279 0004 06AF     	 add r7,sp,#24
 1280              	.LCFI63:
 1281              	 .cfi_def_cfa 7,32
 1282 0006 F860     	 str r0,[r7,#12]
 1283 0008 B960     	 str r1,[r7,#8]
 1284 000a 7A60     	 str r2,[r7,#4]
 583:C:/Users/Yushev/git/wpcqi-optiga-trust-charge/optiga/optiga/crypt\optiga_crypt.c ****     optiga_lib_status_t return_value = OPTIGA_CRYPT_ERROR;
 1285              	 .loc 1 583 0
 1286 000c 40F20243 	 movw r3,#1026
 1287 0010 FB82     	 strh r3,[r7,#22]
 584:C:/Users/Yushev/git/wpcqi-optiga-trust-charge/optiga/optiga/crypt\optiga_crypt.c ****     OPTIGA_CRYPT_LOG_MESSAGE(__FUNCTION__);
 585:C:/Users/Yushev/git/wpcqi-optiga-trust-charge/optiga/optiga/crypt\optiga_crypt.c ****     do
 586:C:/Users/Yushev/git/wpcqi-optiga-trust-charge/optiga/optiga/crypt\optiga_crypt.c ****     {
 587:C:/Users/Yushev/git/wpcqi-optiga-trust-charge/optiga/optiga/crypt\optiga_crypt.c **** #ifdef OPTIGA_LIB_DEBUG_NULL_CHECK
 588:C:/Users/Yushev/git/wpcqi-optiga-trust-charge/optiga/optiga/crypt\optiga_crypt.c ****         if ((NULL == me) || (NULL == me->my_cmd) ||
 1288              	 .loc 1 588 0
 1289 0012 FB68     	 ldr r3,[r7,#12]
 1290 0014 002B     	 cmp r3,#0
 1291 0016 09D0     	 beq .L64
 1292              	 .loc 1 588 0 is_stmt 0 discriminator 1
 1293 0018 FB68     	 ldr r3,[r7,#12]
 1294 001a 1B6A     	 ldr r3,[r3,#32]
 1295 001c 002B     	 cmp r3,#0
 1296 001e 05D0     	 beq .L64
 1297              	 .loc 1 588 0 discriminator 2
 1298 0020 BB68     	 ldr r3,[r7,#8]
 1299 0022 002B     	 cmp r3,#0
 1300 0024 02D0     	 beq .L64
 589:C:/Users/Yushev/git/wpcqi-optiga-trust-charge/optiga/optiga/crypt\optiga_crypt.c ****             (NULL == hash_ctx) || (NULL == hash_output))
 1301              	 .loc 1 589 0 is_stmt 1
 1302 0026 7B68     	 ldr r3,[r7,#4]
 1303 0028 002B     	 cmp r3,#0
 1304 002a 03D1     	 bne .L65
 1305              	.L64:
 590:C:/Users/Yushev/git/wpcqi-optiga-trust-charge/optiga/optiga/crypt\optiga_crypt.c ****         {
 591:C:/Users/Yushev/git/wpcqi-optiga-trust-charge/optiga/optiga/crypt\optiga_crypt.c ****             return_value = OPTIGA_CRYPT_ERROR_INVALID_INPUT;
 1306              	 .loc 1 591 0
 1307 002c 40F20343 	 movw r3,#1027
 1308 0030 FB82     	 strh r3,[r7,#22]
 592:C:/Users/Yushev/git/wpcqi-optiga-trust-charge/optiga/optiga/crypt\optiga_crypt.c ****             break;
 1309              	 .loc 1 592 0
 1310 0032 13E0     	 b .L66
 1311              	.L65:
 593:C:/Users/Yushev/git/wpcqi-optiga-trust-charge/optiga/optiga/crypt\optiga_crypt.c ****         }
 594:C:/Users/Yushev/git/wpcqi-optiga-trust-charge/optiga/optiga/crypt\optiga_crypt.c **** #endif
 595:C:/Users/Yushev/git/wpcqi-optiga-trust-charge/optiga/optiga/crypt\optiga_crypt.c ****         return_value = optiga_crypt_hash_generic(me,
 1312              	 .loc 1 595 0
 1313 0034 BB68     	 ldr r3,[r7,#8]
 1314 0036 197A     	 ldrb r1,[r3,#8]
 1315 0038 BB68     	 ldr r3,[r7,#8]
 1316 003a 5B68     	 ldr r3,[r3,#4]
 1317 003c BA68     	 ldr r2,[r7,#8]
 1318 003e 0092     	 str r2,[sp]
 1319 0040 0193     	 str r3,[sp,#4]
 1320 0042 0023     	 movs r3,#0
 1321 0044 0293     	 str r3,[sp,#8]
 1322 0046 0023     	 movs r3,#0
 1323 0048 0393     	 str r3,[sp,#12]
 1324 004a 7B68     	 ldr r3,[r7,#4]
 1325 004c 0493     	 str r3,[sp,#16]
 1326 004e F868     	 ldr r0,[r7,#12]
 1327 0050 0322     	 movs r2,#3
 1328 0052 0023     	 movs r3,#0
 1329 0054 FFF7FEFF 	 bl optiga_crypt_hash_generic
 1330 0058 0346     	 mov r3,r0
 1331 005a FB82     	 strh r3,[r7,#22]
 1332              	.L66:
 596:C:/Users/Yushev/git/wpcqi-optiga-trust-charge/optiga/optiga/crypt\optiga_crypt.c ****                                                  hash_ctx->hash_algo,
 597:C:/Users/Yushev/git/wpcqi-optiga-trust-charge/optiga/optiga/crypt\optiga_crypt.c ****                                                  OPTIGA_CRYPT_HASH_FINAL,
 598:C:/Users/Yushev/git/wpcqi-optiga-trust-charge/optiga/optiga/crypt\optiga_crypt.c ****                                                  0,
 599:C:/Users/Yushev/git/wpcqi-optiga-trust-charge/optiga/optiga/crypt\optiga_crypt.c ****                                                  hash_ctx,
 600:C:/Users/Yushev/git/wpcqi-optiga-trust-charge/optiga/optiga/crypt\optiga_crypt.c ****                                                  hash_ctx->context_buffer_length,
 601:C:/Users/Yushev/git/wpcqi-optiga-trust-charge/optiga/optiga/crypt\optiga_crypt.c ****                                                  NULL,
 602:C:/Users/Yushev/git/wpcqi-optiga-trust-charge/optiga/optiga/crypt\optiga_crypt.c ****                                                  FALSE,
 603:C:/Users/Yushev/git/wpcqi-optiga-trust-charge/optiga/optiga/crypt\optiga_crypt.c ****                                                  hash_output);
 604:C:/Users/Yushev/git/wpcqi-optiga-trust-charge/optiga/optiga/crypt\optiga_crypt.c ****     } while (FALSE);
 605:C:/Users/Yushev/git/wpcqi-optiga-trust-charge/optiga/optiga/crypt\optiga_crypt.c **** 
 606:C:/Users/Yushev/git/wpcqi-optiga-trust-charge/optiga/optiga/crypt\optiga_crypt.c ****     return (return_value);
 1333              	 .loc 1 606 0
 1334 005c FB8A     	 ldrh r3,[r7,#22]
 607:C:/Users/Yushev/git/wpcqi-optiga-trust-charge/optiga/optiga/crypt\optiga_crypt.c **** }
 1335              	 .loc 1 607 0
 1336 005e 1846     	 mov r0,r3
 1337 0060 1837     	 adds r7,r7,#24
 1338              	.LCFI64:
 1339              	 .cfi_def_cfa_offset 8
 1340 0062 BD46     	 mov sp,r7
 1341              	.LCFI65:
 1342              	 .cfi_def_cfa_register 13
 1343              	 
 1344 0064 80BD     	 pop {r7,pc}
 1345              	 .cfi_endproc
 1346              	.LFE12:
 1348 0066 00BF     	 .section .text.optiga_crypt_hash,"ax",%progbits
 1349              	 .align 2
 1350              	 .global optiga_crypt_hash
 1351              	 .thumb
 1352              	 .thumb_func
 1354              	optiga_crypt_hash:
 1355              	.LFB13:
 608:C:/Users/Yushev/git/wpcqi-optiga-trust-charge/optiga/optiga/crypt\optiga_crypt.c **** 
 609:C:/Users/Yushev/git/wpcqi-optiga-trust-charge/optiga/optiga/crypt\optiga_crypt.c **** optiga_lib_status_t optiga_crypt_hash(optiga_crypt_t * me,
 610:C:/Users/Yushev/git/wpcqi-optiga-trust-charge/optiga/optiga/crypt\optiga_crypt.c ****                                       optiga_hash_type_t hash_algorithm,
 611:C:/Users/Yushev/git/wpcqi-optiga-trust-charge/optiga/optiga/crypt\optiga_crypt.c ****                                       uint8_t source_of_data_to_hash,
 612:C:/Users/Yushev/git/wpcqi-optiga-trust-charge/optiga/optiga/crypt\optiga_crypt.c ****                                       const void * data_to_hash, 
 613:C:/Users/Yushev/git/wpcqi-optiga-trust-charge/optiga/optiga/crypt\optiga_crypt.c ****                                       uint8_t * hash_output)
 614:C:/Users/Yushev/git/wpcqi-optiga-trust-charge/optiga/optiga/crypt\optiga_crypt.c **** {
 1356              	 .loc 1 614 0
 1357              	 .cfi_startproc
 1358              	 
 1359              	 
 1360 0000 90B5     	 push {r4,r7,lr}
 1361              	.LCFI66:
 1362              	 .cfi_def_cfa_offset 12
 1363              	 .cfi_offset 4,-12
 1364              	 .cfi_offset 7,-8
 1365              	 .cfi_offset 14,-4
 1366 0002 8DB0     	 sub sp,sp,#52
 1367              	.LCFI67:
 1368              	 .cfi_def_cfa_offset 64
 1369 0004 06AF     	 add r7,sp,#24
 1370              	.LCFI68:
 1371              	 .cfi_def_cfa 7,40
 1372 0006 F860     	 str r0,[r7,#12]
 1373 0008 7B60     	 str r3,[r7,#4]
 1374 000a 0B46     	 mov r3,r1
 1375 000c FB72     	 strb r3,[r7,#11]
 1376 000e 1346     	 mov r3,r2
 1377 0010 BB72     	 strb r3,[r7,#10]
 615:C:/Users/Yushev/git/wpcqi-optiga-trust-charge/optiga/optiga/crypt\optiga_crypt.c ****     optiga_lib_status_t return_value = OPTIGA_CRYPT_ERROR;
 1378              	 .loc 1 615 0
 1379 0012 40F20243 	 movw r3,#1026
 1380 0016 FB82     	 strh r3,[r7,#22]
 616:C:/Users/Yushev/git/wpcqi-optiga-trust-charge/optiga/optiga/crypt\optiga_crypt.c ****     OPTIGA_CRYPT_LOG_MESSAGE(__FUNCTION__);
 617:C:/Users/Yushev/git/wpcqi-optiga-trust-charge/optiga/optiga/crypt\optiga_crypt.c ****     do
 618:C:/Users/Yushev/git/wpcqi-optiga-trust-charge/optiga/optiga/crypt\optiga_crypt.c ****     {
 619:C:/Users/Yushev/git/wpcqi-optiga-trust-charge/optiga/optiga/crypt\optiga_crypt.c **** #ifdef OPTIGA_LIB_DEBUG_NULL_CHECK
 620:C:/Users/Yushev/git/wpcqi-optiga-trust-charge/optiga/optiga/crypt\optiga_crypt.c ****         if ((NULL == me) || (NULL == me->my_cmd) || (NULL == data_to_hash) || (NULL == hash_output)
 1381              	 .loc 1 620 0
 1382 0018 FB68     	 ldr r3,[r7,#12]
 1383 001a 002B     	 cmp r3,#0
 1384 001c 09D0     	 beq .L69
 1385              	 .loc 1 620 0 is_stmt 0 discriminator 1
 1386 001e FB68     	 ldr r3,[r7,#12]
 1387 0020 1B6A     	 ldr r3,[r3,#32]
 1388 0022 002B     	 cmp r3,#0
 1389 0024 05D0     	 beq .L69
 1390              	 .loc 1 620 0 discriminator 2
 1391 0026 7B68     	 ldr r3,[r7,#4]
 1392 0028 002B     	 cmp r3,#0
 1393 002a 02D0     	 beq .L69
 1394              	 .loc 1 620 0 discriminator 3
 1395 002c BB6A     	 ldr r3,[r7,#40]
 1396 002e 002B     	 cmp r3,#0
 1397 0030 03D1     	 bne .L70
 1398              	.L69:
 621:C:/Users/Yushev/git/wpcqi-optiga-trust-charge/optiga/optiga/crypt\optiga_crypt.c ****         {
 622:C:/Users/Yushev/git/wpcqi-optiga-trust-charge/optiga/optiga/crypt\optiga_crypt.c ****             return_value = OPTIGA_CRYPT_ERROR_INVALID_INPUT;
 1399              	 .loc 1 622 0 is_stmt 1
 1400 0032 40F20343 	 movw r3,#1027
 1401 0036 FB82     	 strh r3,[r7,#22]
 623:C:/Users/Yushev/git/wpcqi-optiga-trust-charge/optiga/optiga/crypt\optiga_crypt.c ****             break;
 1402              	 .loc 1 623 0
 1403 0038 13E0     	 b .L71
 1404              	.L70:
 624:C:/Users/Yushev/git/wpcqi-optiga-trust-charge/optiga/optiga/crypt\optiga_crypt.c ****         }
 625:C:/Users/Yushev/git/wpcqi-optiga-trust-charge/optiga/optiga/crypt\optiga_crypt.c **** #endif
 626:C:/Users/Yushev/git/wpcqi-optiga-trust-charge/optiga/optiga/crypt\optiga_crypt.c ****         return_value = optiga_crypt_hash_generic(me,
 1405              	 .loc 1 626 0
 1406 003a FA7A     	 ldrb r2,[r7,#11]
 1407 003c BC7A     	 ldrb r4,[r7,#10]
 1408 003e 0023     	 movs r3,#0
 1409 0040 0093     	 str r3,[sp]
 1410 0042 0023     	 movs r3,#0
 1411 0044 0193     	 str r3,[sp,#4]
 1412 0046 7B68     	 ldr r3,[r7,#4]
 1413 0048 0293     	 str r3,[sp,#8]
 1414 004a 0023     	 movs r3,#0
 1415 004c 0393     	 str r3,[sp,#12]
 1416 004e BB6A     	 ldr r3,[r7,#40]
 1417 0050 0493     	 str r3,[sp,#16]
 1418 0052 F868     	 ldr r0,[r7,#12]
 1419 0054 1146     	 mov r1,r2
 1420 0056 0122     	 movs r2,#1
 1421 0058 2346     	 mov r3,r4
 1422 005a FFF7FEFF 	 bl optiga_crypt_hash_generic
 1423 005e 0346     	 mov r3,r0
 1424 0060 FB82     	 strh r3,[r7,#22]
 1425              	.L71:
 627:C:/Users/Yushev/git/wpcqi-optiga-trust-charge/optiga/optiga/crypt\optiga_crypt.c ****                                                  (uint8_t)hash_algorithm,
 628:C:/Users/Yushev/git/wpcqi-optiga-trust-charge/optiga/optiga/crypt\optiga_crypt.c ****                                                  OPTIGA_CRYPT_HASH_START_FINAL,
 629:C:/Users/Yushev/git/wpcqi-optiga-trust-charge/optiga/optiga/crypt\optiga_crypt.c ****                                                  source_of_data_to_hash,
 630:C:/Users/Yushev/git/wpcqi-optiga-trust-charge/optiga/optiga/crypt\optiga_crypt.c ****                                                  NULL,
 631:C:/Users/Yushev/git/wpcqi-optiga-trust-charge/optiga/optiga/crypt\optiga_crypt.c ****                                                  0,
 632:C:/Users/Yushev/git/wpcqi-optiga-trust-charge/optiga/optiga/crypt\optiga_crypt.c ****                                                  data_to_hash,
 633:C:/Users/Yushev/git/wpcqi-optiga-trust-charge/optiga/optiga/crypt\optiga_crypt.c ****                                                  FALSE,
 634:C:/Users/Yushev/git/wpcqi-optiga-trust-charge/optiga/optiga/crypt\optiga_crypt.c ****                                                  hash_output);
 635:C:/Users/Yushev/git/wpcqi-optiga-trust-charge/optiga/optiga/crypt\optiga_crypt.c ****     } while (FALSE);
 636:C:/Users/Yushev/git/wpcqi-optiga-trust-charge/optiga/optiga/crypt\optiga_crypt.c **** 
 637:C:/Users/Yushev/git/wpcqi-optiga-trust-charge/optiga/optiga/crypt\optiga_crypt.c ****     return (return_value);
 1426              	 .loc 1 637 0
 1427 0062 FB8A     	 ldrh r3,[r7,#22]
 638:C:/Users/Yushev/git/wpcqi-optiga-trust-charge/optiga/optiga/crypt\optiga_crypt.c **** }
 1428              	 .loc 1 638 0
 1429 0064 1846     	 mov r0,r3
 1430 0066 1C37     	 adds r7,r7,#28
 1431              	.LCFI69:
 1432              	 .cfi_def_cfa_offset 12
 1433 0068 BD46     	 mov sp,r7
 1434              	.LCFI70:
 1435              	 .cfi_def_cfa_register 13
 1436              	 
 1437 006a 90BD     	 pop {r4,r7,pc}
 1438              	 .cfi_endproc
 1439              	.LFE13:
 1441              	 .section .text.optiga_crypt_ecc_generate_keypair,"ax",%progbits
 1442              	 .align 2
 1443              	 .global optiga_crypt_ecc_generate_keypair
 1444              	 .thumb
 1445              	 .thumb_func
 1447              	optiga_crypt_ecc_generate_keypair:
 1448              	.LFB14:
 639:C:/Users/Yushev/git/wpcqi-optiga-trust-charge/optiga/optiga/crypt\optiga_crypt.c **** #endif //OPTIGA_CRYPT_HASH_ENABLED
 640:C:/Users/Yushev/git/wpcqi-optiga-trust-charge/optiga/optiga/crypt\optiga_crypt.c **** 
 641:C:/Users/Yushev/git/wpcqi-optiga-trust-charge/optiga/optiga/crypt\optiga_crypt.c **** #ifdef OPTIGA_CRYPT_ECC_GENERATE_KEYPAIR_ENABLED
 642:C:/Users/Yushev/git/wpcqi-optiga-trust-charge/optiga/optiga/crypt\optiga_crypt.c **** optiga_lib_status_t optiga_crypt_ecc_generate_keypair(optiga_crypt_t * me,
 643:C:/Users/Yushev/git/wpcqi-optiga-trust-charge/optiga/optiga/crypt\optiga_crypt.c ****                                                       optiga_ecc_curve_t curve_id,
 644:C:/Users/Yushev/git/wpcqi-optiga-trust-charge/optiga/optiga/crypt\optiga_crypt.c ****                                                       uint8_t key_usage,
 645:C:/Users/Yushev/git/wpcqi-optiga-trust-charge/optiga/optiga/crypt\optiga_crypt.c ****                                                       bool_t export_private_key,
 646:C:/Users/Yushev/git/wpcqi-optiga-trust-charge/optiga/optiga/crypt\optiga_crypt.c ****                                                       void * private_key,
 647:C:/Users/Yushev/git/wpcqi-optiga-trust-charge/optiga/optiga/crypt\optiga_crypt.c ****                                                       uint8_t * public_key,
 648:C:/Users/Yushev/git/wpcqi-optiga-trust-charge/optiga/optiga/crypt\optiga_crypt.c ****                                                       uint16_t * public_key_length)
 649:C:/Users/Yushev/git/wpcqi-optiga-trust-charge/optiga/optiga/crypt\optiga_crypt.c **** {
 1449              	 .loc 1 649 0
 1450              	 .cfi_startproc
 1451              	 
 1452              	 
 1453 0000 90B5     	 push {r4,r7,lr}
 1454              	.LCFI71:
 1455              	 .cfi_def_cfa_offset 12
 1456              	 .cfi_offset 4,-12
 1457              	 .cfi_offset 7,-8
 1458              	 .cfi_offset 14,-4
 1459 0002 87B0     	 sub sp,sp,#28
 1460              	.LCFI72:
 1461              	 .cfi_def_cfa_offset 40
 1462 0004 04AF     	 add r7,sp,#16
 1463              	.LCFI73:
 1464              	 .cfi_def_cfa 7,24
 1465 0006 7860     	 str r0,[r7,#4]
 1466 0008 0846     	 mov r0,r1
 1467 000a 1146     	 mov r1,r2
 1468 000c 1A46     	 mov r2,r3
 1469 000e 0346     	 mov r3,r0
 1470 0010 FB70     	 strb r3,[r7,#3]
 1471 0012 0B46     	 mov r3,r1
 1472 0014 BB70     	 strb r3,[r7,#2]
 1473 0016 1346     	 mov r3,r2
 1474 0018 7B70     	 strb r3,[r7,#1]
 650:C:/Users/Yushev/git/wpcqi-optiga-trust-charge/optiga/optiga/crypt\optiga_crypt.c ****     OPTIGA_CRYPT_LOG_MESSAGE(__FUNCTION__);
 651:C:/Users/Yushev/git/wpcqi-optiga-trust-charge/optiga/optiga/crypt\optiga_crypt.c ****     return (optiga_crypt_generate_keypair(me,
 1475              	 .loc 1 651 0
 1476 001a F978     	 ldrb r1,[r7,#3]
 1477 001c BA78     	 ldrb r2,[r7,#2]
 1478 001e 7C78     	 ldrb r4,[r7,#1]
 1479 0020 BB69     	 ldr r3,[r7,#24]
 1480 0022 0093     	 str r3,[sp]
 1481 0024 FB69     	 ldr r3,[r7,#28]
 1482 0026 0193     	 str r3,[sp,#4]
 1483 0028 3B6A     	 ldr r3,[r7,#32]
 1484 002a 0293     	 str r3,[sp,#8]
 1485 002c 7868     	 ldr r0,[r7,#4]
 1486 002e 2346     	 mov r3,r4
 1487 0030 FFF7FEFF 	 bl optiga_crypt_generate_keypair
 1488 0034 0346     	 mov r3,r0
 652:C:/Users/Yushev/git/wpcqi-optiga-trust-charge/optiga/optiga/crypt\optiga_crypt.c ****                                          (uint8_t)curve_id,
 653:C:/Users/Yushev/git/wpcqi-optiga-trust-charge/optiga/optiga/crypt\optiga_crypt.c ****                                          key_usage,
 654:C:/Users/Yushev/git/wpcqi-optiga-trust-charge/optiga/optiga/crypt\optiga_crypt.c ****                                          export_private_key,
 655:C:/Users/Yushev/git/wpcqi-optiga-trust-charge/optiga/optiga/crypt\optiga_crypt.c ****                                          private_key,
 656:C:/Users/Yushev/git/wpcqi-optiga-trust-charge/optiga/optiga/crypt\optiga_crypt.c ****                                          public_key,
 657:C:/Users/Yushev/git/wpcqi-optiga-trust-charge/optiga/optiga/crypt\optiga_crypt.c ****                                          public_key_length));
 658:C:/Users/Yushev/git/wpcqi-optiga-trust-charge/optiga/optiga/crypt\optiga_crypt.c **** }
 1489              	 .loc 1 658 0
 1490 0036 1846     	 mov r0,r3
 1491 0038 0C37     	 adds r7,r7,#12
 1492              	.LCFI74:
 1493              	 .cfi_def_cfa_offset 12
 1494 003a BD46     	 mov sp,r7
 1495              	.LCFI75:
 1496              	 .cfi_def_cfa_register 13
 1497              	 
 1498 003c 90BD     	 pop {r4,r7,pc}
 1499              	 .cfi_endproc
 1500              	.LFE14:
 1502 003e 00BF     	 .section .text.optiga_crypt_ecdsa_sign,"ax",%progbits
 1503              	 .align 2
 1504              	 .global optiga_crypt_ecdsa_sign
 1505              	 .thumb
 1506              	 .thumb_func
 1508              	optiga_crypt_ecdsa_sign:
 1509              	.LFB15:
 659:C:/Users/Yushev/git/wpcqi-optiga-trust-charge/optiga/optiga/crypt\optiga_crypt.c **** #endif //OPTIGA_CRYPT_ECC_GENERATE_KEYPAIR_ENABLED
 660:C:/Users/Yushev/git/wpcqi-optiga-trust-charge/optiga/optiga/crypt\optiga_crypt.c **** 
 661:C:/Users/Yushev/git/wpcqi-optiga-trust-charge/optiga/optiga/crypt\optiga_crypt.c **** #ifdef OPTIGA_CRYPT_ECDSA_SIGN_ENABLED
 662:C:/Users/Yushev/git/wpcqi-optiga-trust-charge/optiga/optiga/crypt\optiga_crypt.c **** optiga_lib_status_t optiga_crypt_ecdsa_sign(optiga_crypt_t * me,
 663:C:/Users/Yushev/git/wpcqi-optiga-trust-charge/optiga/optiga/crypt\optiga_crypt.c ****                                             const uint8_t * digest,
 664:C:/Users/Yushev/git/wpcqi-optiga-trust-charge/optiga/optiga/crypt\optiga_crypt.c ****                                             uint8_t digest_length,
 665:C:/Users/Yushev/git/wpcqi-optiga-trust-charge/optiga/optiga/crypt\optiga_crypt.c ****                                             optiga_key_id_t private_key,
 666:C:/Users/Yushev/git/wpcqi-optiga-trust-charge/optiga/optiga/crypt\optiga_crypt.c ****                                             uint8_t * signature,
 667:C:/Users/Yushev/git/wpcqi-optiga-trust-charge/optiga/optiga/crypt\optiga_crypt.c ****                                             uint16_t * signature_length)
 668:C:/Users/Yushev/git/wpcqi-optiga-trust-charge/optiga/optiga/crypt\optiga_crypt.c **** {
 1510              	 .loc 1 668 0
 1511              	 .cfi_startproc
 1512              	 
 1513              	 
 1514 0000 90B5     	 push {r4,r7,lr}
 1515              	.LCFI76:
 1516              	 .cfi_def_cfa_offset 12
 1517              	 .cfi_offset 4,-12
 1518              	 .cfi_offset 7,-8
 1519              	 .cfi_offset 14,-4
 1520 0002 89B0     	 sub sp,sp,#36
 1521              	.LCFI77:
 1522              	 .cfi_def_cfa_offset 48
 1523 0004 04AF     	 add r7,sp,#16
 1524              	.LCFI78:
 1525              	 .cfi_def_cfa 7,32
 1526 0006 F860     	 str r0,[r7,#12]
 1527 0008 B960     	 str r1,[r7,#8]
 1528 000a 1146     	 mov r1,r2
 1529 000c 1A46     	 mov r2,r3
 1530 000e 0B46     	 mov r3,r1
 1531 0010 FB71     	 strb r3,[r7,#7]
 1532 0012 1346     	 mov r3,r2
 1533 0014 BB80     	 strh r3,[r7,#4]
 669:C:/Users/Yushev/git/wpcqi-optiga-trust-charge/optiga/optiga/crypt\optiga_crypt.c ****     OPTIGA_CRYPT_LOG_MESSAGE(__FUNCTION__);
 670:C:/Users/Yushev/git/wpcqi-optiga-trust-charge/optiga/optiga/crypt\optiga_crypt.c ****     return (optiga_crypt_sign(me,
 1534              	 .loc 1 670 0
 1535 0016 FC79     	 ldrb r4,[r7,#7]
 1536 0018 BB88     	 ldrh r3,[r7,#4]
 1537 001a 0093     	 str r3,[sp]
 1538 001c 3B6A     	 ldr r3,[r7,#32]
 1539 001e 0193     	 str r3,[sp,#4]
 1540 0020 7B6A     	 ldr r3,[r7,#36]
 1541 0022 0293     	 str r3,[sp,#8]
 1542 0024 0023     	 movs r3,#0
 1543 0026 0393     	 str r3,[sp,#12]
 1544 0028 F868     	 ldr r0,[r7,#12]
 1545 002a 1121     	 movs r1,#17
 1546 002c BA68     	 ldr r2,[r7,#8]
 1547 002e 2346     	 mov r3,r4
 1548 0030 FFF7FEFF 	 bl optiga_crypt_sign
 1549 0034 0346     	 mov r3,r0
 671:C:/Users/Yushev/git/wpcqi-optiga-trust-charge/optiga/optiga/crypt\optiga_crypt.c ****                               OPTIGA_CRYPT_ECDSA_FIPS_186_3_WITHOUT_HASH,
 672:C:/Users/Yushev/git/wpcqi-optiga-trust-charge/optiga/optiga/crypt\optiga_crypt.c ****                               digest,
 673:C:/Users/Yushev/git/wpcqi-optiga-trust-charge/optiga/optiga/crypt\optiga_crypt.c ****                               digest_length,
 674:C:/Users/Yushev/git/wpcqi-optiga-trust-charge/optiga/optiga/crypt\optiga_crypt.c ****                               private_key,
 675:C:/Users/Yushev/git/wpcqi-optiga-trust-charge/optiga/optiga/crypt\optiga_crypt.c ****                               signature,
 676:C:/Users/Yushev/git/wpcqi-optiga-trust-charge/optiga/optiga/crypt\optiga_crypt.c ****                               signature_length,
 677:C:/Users/Yushev/git/wpcqi-optiga-trust-charge/optiga/optiga/crypt\optiga_crypt.c ****                               0x0000));
 678:C:/Users/Yushev/git/wpcqi-optiga-trust-charge/optiga/optiga/crypt\optiga_crypt.c **** }
 1550              	 .loc 1 678 0
 1551 0036 1846     	 mov r0,r3
 1552 0038 1437     	 adds r7,r7,#20
 1553              	.LCFI79:
 1554              	 .cfi_def_cfa_offset 12
 1555 003a BD46     	 mov sp,r7
 1556              	.LCFI80:
 1557              	 .cfi_def_cfa_register 13
 1558              	 
 1559 003c 90BD     	 pop {r4,r7,pc}
 1560              	 .cfi_endproc
 1561              	.LFE15:
 1563 003e 00BF     	 .section .text.optiga_crypt_ecdsa_verify,"ax",%progbits
 1564              	 .align 2
 1565              	 .global optiga_crypt_ecdsa_verify
 1566              	 .thumb
 1567              	 .thumb_func
 1569              	optiga_crypt_ecdsa_verify:
 1570              	.LFB16:
 679:C:/Users/Yushev/git/wpcqi-optiga-trust-charge/optiga/optiga/crypt\optiga_crypt.c **** #endif //OPTIGA_CRYPT_ECDSA_SIGN_ENABLED
 680:C:/Users/Yushev/git/wpcqi-optiga-trust-charge/optiga/optiga/crypt\optiga_crypt.c **** 
 681:C:/Users/Yushev/git/wpcqi-optiga-trust-charge/optiga/optiga/crypt\optiga_crypt.c **** #ifdef OPTIGA_CRYPT_ECDSA_VERIFY_ENABLED
 682:C:/Users/Yushev/git/wpcqi-optiga-trust-charge/optiga/optiga/crypt\optiga_crypt.c **** optiga_lib_status_t optiga_crypt_ecdsa_verify(optiga_crypt_t * me,
 683:C:/Users/Yushev/git/wpcqi-optiga-trust-charge/optiga/optiga/crypt\optiga_crypt.c ****                                               const uint8_t * digest,
 684:C:/Users/Yushev/git/wpcqi-optiga-trust-charge/optiga/optiga/crypt\optiga_crypt.c ****                                               uint8_t digest_length,
 685:C:/Users/Yushev/git/wpcqi-optiga-trust-charge/optiga/optiga/crypt\optiga_crypt.c ****                                               const uint8_t * signature,
 686:C:/Users/Yushev/git/wpcqi-optiga-trust-charge/optiga/optiga/crypt\optiga_crypt.c ****                                               uint16_t signature_length,
 687:C:/Users/Yushev/git/wpcqi-optiga-trust-charge/optiga/optiga/crypt\optiga_crypt.c ****                                               uint8_t public_key_source_type,
 688:C:/Users/Yushev/git/wpcqi-optiga-trust-charge/optiga/optiga/crypt\optiga_crypt.c ****                                               const void * public_key)
 689:C:/Users/Yushev/git/wpcqi-optiga-trust-charge/optiga/optiga/crypt\optiga_crypt.c **** {
 1571              	 .loc 1 689 0
 1572              	 .cfi_startproc
 1573              	 
 1574              	 
 1575 0000 90B5     	 push {r4,r7,lr}
 1576              	.LCFI81:
 1577              	 .cfi_def_cfa_offset 12
 1578              	 .cfi_offset 4,-12
 1579              	 .cfi_offset 7,-8
 1580              	 .cfi_offset 14,-4
 1581 0002 8BB0     	 sub sp,sp,#44
 1582              	.LCFI82:
 1583              	 .cfi_def_cfa_offset 56
 1584 0004 06AF     	 add r7,sp,#24
 1585              	.LCFI83:
 1586              	 .cfi_def_cfa 7,32
 1587 0006 F860     	 str r0,[r7,#12]
 1588 0008 B960     	 str r1,[r7,#8]
 1589 000a 3B60     	 str r3,[r7]
 1590 000c 1346     	 mov r3,r2
 1591 000e FB71     	 strb r3,[r7,#7]
 690:C:/Users/Yushev/git/wpcqi-optiga-trust-charge/optiga/optiga/crypt\optiga_crypt.c ****     OPTIGA_CRYPT_LOG_MESSAGE(__FUNCTION__);
 691:C:/Users/Yushev/git/wpcqi-optiga-trust-charge/optiga/optiga/crypt\optiga_crypt.c ****     return (optiga_crypt_verify(me,
 1592              	 .loc 1 691 0
 1593 0010 FC79     	 ldrb r4,[r7,#7]
 1594 0012 3B68     	 ldr r3,[r7]
 1595 0014 0093     	 str r3,[sp]
 1596 0016 3B8C     	 ldrh r3,[r7,#32]
 1597 0018 0193     	 str r3,[sp,#4]
 1598 001a 97F82430 	 ldrb r3,[r7,#36]
 1599 001e 0293     	 str r3,[sp,#8]
 1600 0020 BB6A     	 ldr r3,[r7,#40]
 1601 0022 0393     	 str r3,[sp,#12]
 1602 0024 0023     	 movs r3,#0
 1603 0026 0493     	 str r3,[sp,#16]
 1604 0028 F868     	 ldr r0,[r7,#12]
 1605 002a 1121     	 movs r1,#17
 1606 002c BA68     	 ldr r2,[r7,#8]
 1607 002e 2346     	 mov r3,r4
 1608 0030 FFF7FEFF 	 bl optiga_crypt_verify
 1609 0034 0346     	 mov r3,r0
 692:C:/Users/Yushev/git/wpcqi-optiga-trust-charge/optiga/optiga/crypt\optiga_crypt.c ****                                 OPTIGA_CRYPT_ECDSA_FIPS_186_3_WITHOUT_HASH,
 693:C:/Users/Yushev/git/wpcqi-optiga-trust-charge/optiga/optiga/crypt\optiga_crypt.c ****                                 digest,
 694:C:/Users/Yushev/git/wpcqi-optiga-trust-charge/optiga/optiga/crypt\optiga_crypt.c ****                                 digest_length,
 695:C:/Users/Yushev/git/wpcqi-optiga-trust-charge/optiga/optiga/crypt\optiga_crypt.c ****                                 signature,
 696:C:/Users/Yushev/git/wpcqi-optiga-trust-charge/optiga/optiga/crypt\optiga_crypt.c ****                                 signature_length,
 697:C:/Users/Yushev/git/wpcqi-optiga-trust-charge/optiga/optiga/crypt\optiga_crypt.c ****                                 public_key_source_type,
 698:C:/Users/Yushev/git/wpcqi-optiga-trust-charge/optiga/optiga/crypt\optiga_crypt.c ****                                 public_key,
 699:C:/Users/Yushev/git/wpcqi-optiga-trust-charge/optiga/optiga/crypt\optiga_crypt.c ****                                 0x0000));
 700:C:/Users/Yushev/git/wpcqi-optiga-trust-charge/optiga/optiga/crypt\optiga_crypt.c **** }
 1610              	 .loc 1 700 0
 1611 0036 1846     	 mov r0,r3
 1612 0038 1437     	 adds r7,r7,#20
 1613              	.LCFI84:
 1614              	 .cfi_def_cfa_offset 12
 1615 003a BD46     	 mov sp,r7
 1616              	.LCFI85:
 1617              	 .cfi_def_cfa_register 13
 1618              	 
 1619 003c 90BD     	 pop {r4,r7,pc}
 1620              	 .cfi_endproc
 1621              	.LFE16:
 1623 003e 00BF     	 .text
 1624              	.Letext0:
 1625              	 .file 2 "c:\\users\\yushev\\dave_4-4-2_32bit_2018-02-23\\dave-ide-4.4.2-32bit\\eclipse\\arm-gcc-49\\arm-none-eabi\\include\\machine\\_default_types.h"
 1626              	 .file 3 "c:\\users\\yushev\\dave_4-4-2_32bit_2018-02-23\\dave-ide-4.4.2-32bit\\eclipse\\arm-gcc-49\\arm-none-eabi\\include\\stdint.h"
 1627              	 .file 4 "C:/Users/Yushev/git/wpcqi-optiga-trust-charge/optiga/optiga/include/optiga/common/optiga_lib_types.h"
 1628              	 .file 5 "C:/Users/Yushev/git/wpcqi-optiga-trust-charge/optiga/optiga/include/optiga/common/optiga_lib_common.h"
 1629              	 .file 6 "C:/Users/Yushev/git/wpcqi-optiga-trust-charge/optiga/optiga/include/optiga/cmd/optiga_cmd.h"
 1630              	 .file 7 "C:/Users/Yushev/git/wpcqi-optiga-trust-charge/optiga/optiga/include/optiga/optiga_crypt.h"