   1              	 .syntax unified
   2              	 .cpu cortex-m4
   3              	 .eabi_attribute 27,3
   4              	 .fpu fpv4-sp-d16
   5              	 .eabi_attribute 20,1
   6              	 .eabi_attribute 21,1
   7              	 .eabi_attribute 23,3
   8              	 .eabi_attribute 24,1
   9              	 .eabi_attribute 25,1
  10              	 .eabi_attribute 26,1
  11              	 .eabi_attribute 30,6
  12              	 .eabi_attribute 34,1
  13              	 .eabi_attribute 18,4
  14              	 .thumb
  15              	 .file "qi_auth_ptx_crypt.c"
  16              	 .text
  17              	.Ltext0:
  18              	 .cfi_sections .debug_frame
  19              	 .section .bss.optiga_lib_status,"aw",%nobits
  20              	 .align 1
  23              	optiga_lib_status:
  24 0000 0000     	 .space 2
  25              	 .section .bss.p_crypt,"aw",%nobits
  26              	 .align 2
  29              	p_crypt:
  30 0000 00000000 	 .space 4
  31              	 .section .bss.p_util,"aw",%nobits
  32              	 .align 2
  35              	p_util:
  36 0000 00000000 	 .space 4
  37              	 .section .text.optiga_callback,"ax",%progbits
  38              	 .align 2
  39              	 .thumb
  40              	 .thumb_func
  42              	optiga_callback:
  43              	.LFB0:
  44              	 .file 1 "C:/Users/Yushev/git/wpcqi-optiga-trust-charge/wpc/PTx/qi_auth_ptx_crypt.c"
   1:C:/Users/Yushev/git/wpcqi-optiga-trust-charge/wpc/PTx\qi_auth_ptx_crypt.c **** /**
   2:C:/Users/Yushev/git/wpcqi-optiga-trust-charge/wpc/PTx\qi_auth_ptx_crypt.c **** * MIT License
   3:C:/Users/Yushev/git/wpcqi-optiga-trust-charge/wpc/PTx\qi_auth_ptx_crypt.c **** *
   4:C:/Users/Yushev/git/wpcqi-optiga-trust-charge/wpc/PTx\qi_auth_ptx_crypt.c **** * Copyright (c) 2020 Infineon Technologies AG
   5:C:/Users/Yushev/git/wpcqi-optiga-trust-charge/wpc/PTx\qi_auth_ptx_crypt.c **** *
   6:C:/Users/Yushev/git/wpcqi-optiga-trust-charge/wpc/PTx\qi_auth_ptx_crypt.c **** * Permission is hereby granted, free of charge, to any person obtaining a copy
   7:C:/Users/Yushev/git/wpcqi-optiga-trust-charge/wpc/PTx\qi_auth_ptx_crypt.c **** * of this software and associated documentation files (the "Software"), to deal
   8:C:/Users/Yushev/git/wpcqi-optiga-trust-charge/wpc/PTx\qi_auth_ptx_crypt.c **** * in the Software without restriction, including without limitation the rights
   9:C:/Users/Yushev/git/wpcqi-optiga-trust-charge/wpc/PTx\qi_auth_ptx_crypt.c **** * to use, copy, modify, merge, publish, distribute, sublicense, and/or sell
  10:C:/Users/Yushev/git/wpcqi-optiga-trust-charge/wpc/PTx\qi_auth_ptx_crypt.c **** * copies of the Software, and to permit persons to whom the Software is
  11:C:/Users/Yushev/git/wpcqi-optiga-trust-charge/wpc/PTx\qi_auth_ptx_crypt.c **** * furnished to do so, subject to the following conditions:
  12:C:/Users/Yushev/git/wpcqi-optiga-trust-charge/wpc/PTx\qi_auth_ptx_crypt.c **** *
  13:C:/Users/Yushev/git/wpcqi-optiga-trust-charge/wpc/PTx\qi_auth_ptx_crypt.c **** * The above copyright notice and this permission notice shall be included in all
  14:C:/Users/Yushev/git/wpcqi-optiga-trust-charge/wpc/PTx\qi_auth_ptx_crypt.c **** * copies or substantial portions of the Software.
  15:C:/Users/Yushev/git/wpcqi-optiga-trust-charge/wpc/PTx\qi_auth_ptx_crypt.c **** *
  16:C:/Users/Yushev/git/wpcqi-optiga-trust-charge/wpc/PTx\qi_auth_ptx_crypt.c **** * THE SOFTWARE IS PROVIDED "AS IS", WITHOUT WARRANTY OF ANY KIND, EXPRESS OR
  17:C:/Users/Yushev/git/wpcqi-optiga-trust-charge/wpc/PTx\qi_auth_ptx_crypt.c **** * IMPLIED, INCLUDING BUT NOT LIMITED TO THE WARRANTIES OF MERCHANTABILITY,
  18:C:/Users/Yushev/git/wpcqi-optiga-trust-charge/wpc/PTx\qi_auth_ptx_crypt.c **** * FITNESS FOR A PARTICULAR PURPOSE AND NONINFRINGEMENT. IN NO EVENT SHALL THE
  19:C:/Users/Yushev/git/wpcqi-optiga-trust-charge/wpc/PTx\qi_auth_ptx_crypt.c **** * AUTHORS OR COPYRIGHT HOLDERS BE LIABLE FOR ANY CLAIM, DAMAGES OR OTHER
  20:C:/Users/Yushev/git/wpcqi-optiga-trust-charge/wpc/PTx\qi_auth_ptx_crypt.c **** * LIABILITY, WHETHER IN AN ACTION OF CONTRACT, TORT OR OTHERWISE, ARISING FROM,
  21:C:/Users/Yushev/git/wpcqi-optiga-trust-charge/wpc/PTx\qi_auth_ptx_crypt.c **** * OUT OF OR IN CONNECTION WITH THE SOFTWARE OR THE USE OR OTHER DEALINGS IN THE
  22:C:/Users/Yushev/git/wpcqi-optiga-trust-charge/wpc/PTx\qi_auth_ptx_crypt.c **** * SOFTWARE
  23:C:/Users/Yushev/git/wpcqi-optiga-trust-charge/wpc/PTx\qi_auth_ptx_crypt.c **** *
  24:C:/Users/Yushev/git/wpcqi-optiga-trust-charge/wpc/PTx\qi_auth_ptx_crypt.c **** * \file qi_auth_ptx_crypt.c
  25:C:/Users/Yushev/git/wpcqi-optiga-trust-charge/wpc/PTx\qi_auth_ptx_crypt.c **** *
  26:C:/Users/Yushev/git/wpcqi-optiga-trust-charge/wpc/PTx\qi_auth_ptx_crypt.c **** * \brief   This file implements the APIs for Crypto Wrappers.
  27:C:/Users/Yushev/git/wpcqi-optiga-trust-charge/wpc/PTx\qi_auth_ptx_crypt.c **** * @{
  28:C:/Users/Yushev/git/wpcqi-optiga-trust-charge/wpc/PTx\qi_auth_ptx_crypt.c **** */
  29:C:/Users/Yushev/git/wpcqi-optiga-trust-charge/wpc/PTx\qi_auth_ptx_crypt.c **** 
  30:C:/Users/Yushev/git/wpcqi-optiga-trust-charge/wpc/PTx\qi_auth_ptx_crypt.c **** #include <string.h>
  31:C:/Users/Yushev/git/wpcqi-optiga-trust-charge/wpc/PTx\qi_auth_ptx_crypt.c **** 
  32:C:/Users/Yushev/git/wpcqi-optiga-trust-charge/wpc/PTx\qi_auth_ptx_crypt.c **** #include <optiga/optiga_crypt.h>
  33:C:/Users/Yushev/git/wpcqi-optiga-trust-charge/wpc/PTx\qi_auth_ptx_crypt.c **** #include <optiga/optiga_util.h>
  34:C:/Users/Yushev/git/wpcqi-optiga-trust-charge/wpc/PTx\qi_auth_ptx_crypt.c **** #include <optiga/pal/pal_crypt.h>
  35:C:/Users/Yushev/git/wpcqi-optiga-trust-charge/wpc/PTx\qi_auth_ptx_crypt.c **** #include <optiga/pal/pal_os_event.h>
  36:C:/Users/Yushev/git/wpcqi-optiga-trust-charge/wpc/PTx\qi_auth_ptx_crypt.c **** #include <optiga/pal/pal_os_timer.h>
  37:C:/Users/Yushev/git/wpcqi-optiga-trust-charge/wpc/PTx\qi_auth_ptx_crypt.c **** #include <optiga/common/optiga_lib_logger.h>
  38:C:/Users/Yushev/git/wpcqi-optiga-trust-charge/wpc/PTx\qi_auth_ptx_crypt.c **** #include <ecdsa_utils.h>
  39:C:/Users/Yushev/git/wpcqi-optiga-trust-charge/wpc/PTx\qi_auth_ptx_crypt.c **** 
  40:C:/Users/Yushev/git/wpcqi-optiga-trust-charge/wpc/PTx\qi_auth_ptx_crypt.c **** #include "qi_auth_ptx_crypt.h"
  41:C:/Users/Yushev/git/wpcqi-optiga-trust-charge/wpc/PTx\qi_auth_ptx_crypt.c **** #include <ctype.h>
  42:C:/Users/Yushev/git/wpcqi-optiga-trust-charge/wpc/PTx\qi_auth_ptx_crypt.c **** 
  43:C:/Users/Yushev/git/wpcqi-optiga-trust-charge/wpc/PTx\qi_auth_ptx_crypt.c **** #define MAXCMD_LEN			255
  44:C:/Users/Yushev/git/wpcqi-optiga-trust-charge/wpc/PTx\qi_auth_ptx_crypt.c **** #define HEXDUMP_COLS    	16
  45:C:/Users/Yushev/git/wpcqi-optiga-trust-charge/wpc/PTx\qi_auth_ptx_crypt.c **** 
  46:C:/Users/Yushev/git/wpcqi-optiga-trust-charge/wpc/PTx\qi_auth_ptx_crypt.c **** 
  47:C:/Users/Yushev/git/wpcqi-optiga-trust-charge/wpc/PTx\qi_auth_ptx_crypt.c **** #define QI_AUTH_CERTCAIN_OID	                0xE0E0
  48:C:/Users/Yushev/git/wpcqi-optiga-trust-charge/wpc/PTx\qi_auth_ptx_crypt.c **** 
  49:C:/Users/Yushev/git/wpcqi-optiga-trust-charge/wpc/PTx\qi_auth_ptx_crypt.c **** #define QI_AUTH_DEVICE_PRIKEY_OID               OPTIGA_KEY_ID_E0F0
  50:C:/Users/Yushev/git/wpcqi-optiga-trust-charge/wpc/PTx\qi_auth_ptx_crypt.c **** 
  51:C:/Users/Yushev/git/wpcqi-optiga-trust-charge/wpc/PTx\qi_auth_ptx_crypt.c **** /// Used to check ZERO Length
  52:C:/Users/Yushev/git/wpcqi-optiga-trust-charge/wpc/PTx\qi_auth_ptx_crypt.c **** #define ZERO_LENGTH                         0x00
  53:C:/Users/Yushev/git/wpcqi-optiga-trust-charge/wpc/PTx\qi_auth_ptx_crypt.c **** 
  54:C:/Users/Yushev/git/wpcqi-optiga-trust-charge/wpc/PTx\qi_auth_ptx_crypt.c **** ///Maximum length of the generated seed
  55:C:/Users/Yushev/git/wpcqi-optiga-trust-charge/wpc/PTx\qi_auth_ptx_crypt.c **** #define MAX_SEED_LENGTH                     0x20
  56:C:/Users/Yushev/git/wpcqi-optiga-trust-charge/wpc/PTx\qi_auth_ptx_crypt.c **** 
  57:C:/Users/Yushev/git/wpcqi-optiga-trust-charge/wpc/PTx\qi_auth_ptx_crypt.c **** /// Value to indicate that the random bytes are read from Security Chip
  58:C:/Users/Yushev/git/wpcqi-optiga-trust-charge/wpc/PTx\qi_auth_ptx_crypt.c **** #define RANDOM_READ                         0xAA
  59:C:/Users/Yushev/git/wpcqi-optiga-trust-charge/wpc/PTx\qi_auth_ptx_crypt.c **** 
  60:C:/Users/Yushev/git/wpcqi-optiga-trust-charge/wpc/PTx\qi_auth_ptx_crypt.c **** /// Value to indicate that the RNG is initialized
  61:C:/Users/Yushev/git/wpcqi-optiga-trust-charge/wpc/PTx\qi_auth_ptx_crypt.c **** #define RNG_INITIALIZED                     0x95
  62:C:/Users/Yushev/git/wpcqi-optiga-trust-charge/wpc/PTx\qi_auth_ptx_crypt.c **** 
  63:C:/Users/Yushev/git/wpcqi-optiga-trust-charge/wpc/PTx\qi_auth_ptx_crypt.c **** ///Number of bytes of random data read from Security Chip
  64:C:/Users/Yushev/git/wpcqi-optiga-trust-charge/wpc/PTx\qi_auth_ptx_crypt.c **** #define RANDOM_DATA_LENGTH                  0x18
  65:C:/Users/Yushev/git/wpcqi-optiga-trust-charge/wpc/PTx\qi_auth_ptx_crypt.c **** 
  66:C:/Users/Yushev/git/wpcqi-optiga-trust-charge/wpc/PTx\qi_auth_ptx_crypt.c **** ///Size of the counter
  67:C:/Users/Yushev/git/wpcqi-optiga-trust-charge/wpc/PTx\qi_auth_ptx_crypt.c **** #define COUNTER_LENGTH            	        0x08
  68:C:/Users/Yushev/git/wpcqi-optiga-trust-charge/wpc/PTx\qi_auth_ptx_crypt.c **** 
  69:C:/Users/Yushev/git/wpcqi-optiga-trust-charge/wpc/PTx\qi_auth_ptx_crypt.c **** ///size of public key for NIST-P256
  70:C:/Users/Yushev/git/wpcqi-optiga-trust-charge/wpc/PTx\qi_auth_ptx_crypt.c **** #define LENGTH_PUB_KEY   			        0x21
  71:C:/Users/Yushev/git/wpcqi-optiga-trust-charge/wpc/PTx\qi_auth_ptx_crypt.c **** 
  72:C:/Users/Yushev/git/wpcqi-optiga-trust-charge/wpc/PTx\qi_auth_ptx_crypt.c **** /// @endcond
  73:C:/Users/Yushev/git/wpcqi-optiga-trust-charge/wpc/PTx\qi_auth_ptx_crypt.c **** 
  74:C:/Users/Yushev/git/wpcqi-optiga-trust-charge/wpc/PTx\qi_auth_ptx_crypt.c **** /// Result is OK
  75:C:/Users/Yushev/git/wpcqi-optiga-trust-charge/wpc/PTx\qi_auth_ptx_crypt.c **** #define RESULT_OK                           0x00
  76:C:/Users/Yushev/git/wpcqi-optiga-trust-charge/wpc/PTx\qi_auth_ptx_crypt.c **** 
  77:C:/Users/Yushev/git/wpcqi-optiga-trust-charge/wpc/PTx\qi_auth_ptx_crypt.c **** 
  78:C:/Users/Yushev/git/wpcqi-optiga-trust-charge/wpc/PTx\qi_auth_ptx_crypt.c **** #ifdef OPTIGA_LIB_ENABLE_COMMS_LOGGING
  79:C:/Users/Yushev/git/wpcqi-optiga-trust-charge/wpc/PTx\qi_auth_ptx_crypt.c **** #define WAIT_FOR_COMPLETION(ret) \
  80:C:/Users/Yushev/git/wpcqi-optiga-trust-charge/wpc/PTx\qi_auth_ptx_crypt.c **** 	if (OPTIGA_LIB_SUCCESS != ret)\
  81:C:/Users/Yushev/git/wpcqi-optiga-trust-charge/wpc/PTx\qi_auth_ptx_crypt.c **** 	{\
  82:C:/Users/Yushev/git/wpcqi-optiga-trust-charge/wpc/PTx\qi_auth_ptx_crypt.c **** 		break;\
  83:C:/Users/Yushev/git/wpcqi-optiga-trust-charge/wpc/PTx\qi_auth_ptx_crypt.c **** 	}\
  84:C:/Users/Yushev/git/wpcqi-optiga-trust-charge/wpc/PTx\qi_auth_ptx_crypt.c **** 	while (optiga_lib_status == OPTIGA_LIB_BUSY) \
  85:C:/Users/Yushev/git/wpcqi-optiga-trust-charge/wpc/PTx\qi_auth_ptx_crypt.c **** 	{\
  86:C:/Users/Yushev/git/wpcqi-optiga-trust-charge/wpc/PTx\qi_auth_ptx_crypt.c **** 		pal_os_timer_delay_in_milliseconds(1);\
  87:C:/Users/Yushev/git/wpcqi-optiga-trust-charge/wpc/PTx\qi_auth_ptx_crypt.c **** 		pal_os_event_trigger_registered_callback();\
  88:C:/Users/Yushev/git/wpcqi-optiga-trust-charge/wpc/PTx\qi_auth_ptx_crypt.c **** 	} \
  89:C:/Users/Yushev/git/wpcqi-optiga-trust-charge/wpc/PTx\qi_auth_ptx_crypt.c **** 	\
  90:C:/Users/Yushev/git/wpcqi-optiga-trust-charge/wpc/PTx\qi_auth_ptx_crypt.c **** 	if (OPTIGA_LIB_SUCCESS != optiga_lib_status)\
  91:C:/Users/Yushev/git/wpcqi-optiga-trust-charge/wpc/PTx\qi_auth_ptx_crypt.c **** 	{ \
  92:C:/Users/Yushev/git/wpcqi-optiga-trust-charge/wpc/PTx\qi_auth_ptx_crypt.c **** 			ret = optiga_lib_status;\
  93:C:/Users/Yushev/git/wpcqi-optiga-trust-charge/wpc/PTx\qi_auth_ptx_crypt.c **** 			printf("Error: 0x%02X \r\n", optiga_lib_status);\
  94:C:/Users/Yushev/git/wpcqi-optiga-trust-charge/wpc/PTx\qi_auth_ptx_crypt.c **** 			optiga_util_destroy(p_util);\
  95:C:/Users/Yushev/git/wpcqi-optiga-trust-charge/wpc/PTx\qi_auth_ptx_crypt.c **** 			optiga_crypt_destroy(p_crypt);\
  96:C:/Users/Yushev/git/wpcqi-optiga-trust-charge/wpc/PTx\qi_auth_ptx_crypt.c **** 			pal_os_event_destroy(NULL);\
  97:C:/Users/Yushev/git/wpcqi-optiga-trust-charge/wpc/PTx\qi_auth_ptx_crypt.c **** 			break; \
  98:C:/Users/Yushev/git/wpcqi-optiga-trust-charge/wpc/PTx\qi_auth_ptx_crypt.c **** 	}
  99:C:/Users/Yushev/git/wpcqi-optiga-trust-charge/wpc/PTx\qi_auth_ptx_crypt.c **** #else
 100:C:/Users/Yushev/git/wpcqi-optiga-trust-charge/wpc/PTx\qi_auth_ptx_crypt.c **** #define WAIT_FOR_COMPLETION(ret) \
 101:C:/Users/Yushev/git/wpcqi-optiga-trust-charge/wpc/PTx\qi_auth_ptx_crypt.c **** 	if (OPTIGA_LIB_SUCCESS != ret)\
 102:C:/Users/Yushev/git/wpcqi-optiga-trust-charge/wpc/PTx\qi_auth_ptx_crypt.c **** 	{\
 103:C:/Users/Yushev/git/wpcqi-optiga-trust-charge/wpc/PTx\qi_auth_ptx_crypt.c **** 		break;\
 104:C:/Users/Yushev/git/wpcqi-optiga-trust-charge/wpc/PTx\qi_auth_ptx_crypt.c **** 	}\
 105:C:/Users/Yushev/git/wpcqi-optiga-trust-charge/wpc/PTx\qi_auth_ptx_crypt.c **** 	while (optiga_lib_status == OPTIGA_LIB_BUSY) \
 106:C:/Users/Yushev/git/wpcqi-optiga-trust-charge/wpc/PTx\qi_auth_ptx_crypt.c **** 	{\
 107:C:/Users/Yushev/git/wpcqi-optiga-trust-charge/wpc/PTx\qi_auth_ptx_crypt.c **** 		pal_os_timer_delay_in_milliseconds(1);\
 108:C:/Users/Yushev/git/wpcqi-optiga-trust-charge/wpc/PTx\qi_auth_ptx_crypt.c **** 	} \
 109:C:/Users/Yushev/git/wpcqi-optiga-trust-charge/wpc/PTx\qi_auth_ptx_crypt.c **** 	\
 110:C:/Users/Yushev/git/wpcqi-optiga-trust-charge/wpc/PTx\qi_auth_ptx_crypt.c **** 	if (OPTIGA_LIB_SUCCESS != optiga_lib_status)\
 111:C:/Users/Yushev/git/wpcqi-optiga-trust-charge/wpc/PTx\qi_auth_ptx_crypt.c **** 	{ \
 112:C:/Users/Yushev/git/wpcqi-optiga-trust-charge/wpc/PTx\qi_auth_ptx_crypt.c **** 			ret = optiga_lib_status;\
 113:C:/Users/Yushev/git/wpcqi-optiga-trust-charge/wpc/PTx\qi_auth_ptx_crypt.c **** 			printf("Error: 0x%02X \r\n", optiga_lib_status);\
 114:C:/Users/Yushev/git/wpcqi-optiga-trust-charge/wpc/PTx\qi_auth_ptx_crypt.c **** 			optiga_util_destroy(p_util);\
 115:C:/Users/Yushev/git/wpcqi-optiga-trust-charge/wpc/PTx\qi_auth_ptx_crypt.c **** 			optiga_crypt_destroy(p_crypt);\
 116:C:/Users/Yushev/git/wpcqi-optiga-trust-charge/wpc/PTx\qi_auth_ptx_crypt.c **** 			pal_os_event_destroy(NULL);\
 117:C:/Users/Yushev/git/wpcqi-optiga-trust-charge/wpc/PTx\qi_auth_ptx_crypt.c **** 			break; \
 118:C:/Users/Yushev/git/wpcqi-optiga-trust-charge/wpc/PTx\qi_auth_ptx_crypt.c **** 	}
 119:C:/Users/Yushev/git/wpcqi-optiga-trust-charge/wpc/PTx\qi_auth_ptx_crypt.c **** #endif
 120:C:/Users/Yushev/git/wpcqi-optiga-trust-charge/wpc/PTx\qi_auth_ptx_crypt.c **** 
 121:C:/Users/Yushev/git/wpcqi-optiga-trust-charge/wpc/PTx\qi_auth_ptx_crypt.c **** #define CHECK_RESULT(expr) \
 122:C:/Users/Yushev/git/wpcqi-optiga-trust-charge/wpc/PTx\qi_auth_ptx_crypt.c **** 	return_status = (int32_t)OPTIGA_DEVICE_ERROR; \
 123:C:/Users/Yushev/git/wpcqi-optiga-trust-charge/wpc/PTx\qi_auth_ptx_crypt.c **** 	optiga_lib_status = OPTIGA_LIB_BUSY;\
 124:C:/Users/Yushev/git/wpcqi-optiga-trust-charge/wpc/PTx\qi_auth_ptx_crypt.c **** 	return_status = expr;\
 125:C:/Users/Yushev/git/wpcqi-optiga-trust-charge/wpc/PTx\qi_auth_ptx_crypt.c **** 	WAIT_FOR_COMPLETION(return_status);\
 126:C:/Users/Yushev/git/wpcqi-optiga-trust-charge/wpc/PTx\qi_auth_ptx_crypt.c **** 
 127:C:/Users/Yushev/git/wpcqi-optiga-trust-charge/wpc/PTx\qi_auth_ptx_crypt.c **** static volatile optiga_lib_status_t optiga_lib_status;
 128:C:/Users/Yushev/git/wpcqi-optiga-trust-charge/wpc/PTx\qi_auth_ptx_crypt.c **** static optiga_crypt_t* p_crypt = NULL;
 129:C:/Users/Yushev/git/wpcqi-optiga-trust-charge/wpc/PTx\qi_auth_ptx_crypt.c **** static optiga_util_t* p_util = NULL;
 130:C:/Users/Yushev/git/wpcqi-optiga-trust-charge/wpc/PTx\qi_auth_ptx_crypt.c **** 
 131:C:/Users/Yushev/git/wpcqi-optiga-trust-charge/wpc/PTx\qi_auth_ptx_crypt.c **** /**
 132:C:/Users/Yushev/git/wpcqi-optiga-trust-charge/wpc/PTx\qi_auth_ptx_crypt.c ****  * Callback when optiga_util_xxxx operation is completed asynchronously
 133:C:/Users/Yushev/git/wpcqi-optiga-trust-charge/wpc/PTx\qi_auth_ptx_crypt.c ****  */
 134:C:/Users/Yushev/git/wpcqi-optiga-trust-charge/wpc/PTx\qi_auth_ptx_crypt.c **** static void optiga_callback(void * context, optiga_lib_status_t return_status)
 135:C:/Users/Yushev/git/wpcqi-optiga-trust-charge/wpc/PTx\qi_auth_ptx_crypt.c **** {
  45              	 .loc 1 135 0
  46              	 .cfi_startproc
  47              	 
  48              	 
  49              	 
  50 0000 80B4     	 push {r7}
  51              	.LCFI0:
  52              	 .cfi_def_cfa_offset 4
  53              	 .cfi_offset 7,-4
  54 0002 83B0     	 sub sp,sp,#12
  55              	.LCFI1:
  56              	 .cfi_def_cfa_offset 16
  57 0004 00AF     	 add r7,sp,#0
  58              	.LCFI2:
  59              	 .cfi_def_cfa_register 7
  60 0006 7860     	 str r0,[r7,#4]
  61 0008 0B46     	 mov r3,r1
  62 000a 7B80     	 strh r3,[r7,#2]
 136:C:/Users/Yushev/git/wpcqi-optiga-trust-charge/wpc/PTx\qi_auth_ptx_crypt.c ****     optiga_lib_status = return_status;
  63              	 .loc 1 136 0
  64 000c 034A     	 ldr r2,.L2
  65 000e 7B88     	 ldrh r3,[r7,#2]
  66 0010 1380     	 strh r3,[r2]
 137:C:/Users/Yushev/git/wpcqi-optiga-trust-charge/wpc/PTx\qi_auth_ptx_crypt.c **** }
  67              	 .loc 1 137 0
  68 0012 0C37     	 adds r7,r7,#12
  69              	.LCFI3:
  70              	 .cfi_def_cfa_offset 4
  71 0014 BD46     	 mov sp,r7
  72              	.LCFI4:
  73              	 .cfi_def_cfa_register 13
  74              	 
  75 0016 5DF8047B 	 ldr r7,[sp],#4
  76              	.LCFI5:
  77              	 .cfi_restore 7
  78              	 .cfi_def_cfa_offset 0
  79 001a 7047     	 bx lr
  80              	.L3:
  81              	 .align 2
  82              	.L2:
  83 001c 00000000 	 .word optiga_lib_status
  84              	 .cfi_endproc
  85              	.LFE0:
  87              	 .section .rodata
  88              	 .align 2
  89              	.LC1:
  90 0000 4572726F 	 .ascii "Error: 0x%02X \015\012\000"
  90      723A2030 
  90      78253032 
  90      58200D0A 
  90      00
  91              	 .section .text.optiga_init,"ax",%progbits
  92              	 .align 2
  93              	 .thumb
  94              	 .thumb_func
  96              	optiga_init:
  97              	.LFB1:
 138:C:/Users/Yushev/git/wpcqi-optiga-trust-charge/wpc/PTx\qi_auth_ptx_crypt.c **** 
 139:C:/Users/Yushev/git/wpcqi-optiga-trust-charge/wpc/PTx\qi_auth_ptx_crypt.c **** 
 140:C:/Users/Yushev/git/wpcqi-optiga-trust-charge/wpc/PTx\qi_auth_ptx_crypt.c **** 
 141:C:/Users/Yushev/git/wpcqi-optiga-trust-charge/wpc/PTx\qi_auth_ptx_crypt.c **** static uint16_t optiga_init(uint8_t restore_from_hibernate)
 142:C:/Users/Yushev/git/wpcqi-optiga-trust-charge/wpc/PTx\qi_auth_ptx_crypt.c **** {
  98              	 .loc 1 142 0
  99              	 .cfi_startproc
 100              	 
 101              	 
 102 0000 80B5     	 push {r7,lr}
 103              	.LCFI6:
 104              	 .cfi_def_cfa_offset 8
 105              	 .cfi_offset 7,-8
 106              	 .cfi_offset 14,-4
 107 0002 86B0     	 sub sp,sp,#24
 108              	.LCFI7:
 109              	 .cfi_def_cfa_offset 32
 110 0004 02AF     	 add r7,sp,#8
 111              	.LCFI8:
 112              	 .cfi_def_cfa 7,24
 113 0006 0346     	 mov r3,r0
 114 0008 FB71     	 strb r3,[r7,#7]
 143:C:/Users/Yushev/git/wpcqi-optiga-trust-charge/wpc/PTx\qi_auth_ptx_crypt.c **** 	uint16_t return_status = 1;
 115              	 .loc 1 143 0
 116 000a 0123     	 movs r3,#1
 117 000c FB81     	 strh r3,[r7,#14]
 118              	.LBB2:
 144:C:/Users/Yushev/git/wpcqi-optiga-trust-charge/wpc/PTx\qi_auth_ptx_crypt.c **** 
 145:C:/Users/Yushev/git/wpcqi-optiga-trust-charge/wpc/PTx\qi_auth_ptx_crypt.c **** 	do
 146:C:/Users/Yushev/git/wpcqi-optiga-trust-charge/wpc/PTx\qi_auth_ptx_crypt.c **** 	{
 147:C:/Users/Yushev/git/wpcqi-optiga-trust-charge/wpc/PTx\qi_auth_ptx_crypt.c **** 		//Create an instance of optiga_util to open the application on OPTIGA.
 148:C:/Users/Yushev/git/wpcqi-optiga-trust-charge/wpc/PTx\qi_auth_ptx_crypt.c **** 		p_util = optiga_util_create(0, optiga_callback, NULL);
 119              	 .loc 1 148 0
 120 000e 0020     	 movs r0,#0
 121 0010 4B49     	 ldr r1,.L17
 122 0012 0022     	 movs r2,#0
 123 0014 FFF7FEFF 	 bl optiga_util_create
 124 0018 0246     	 mov r2,r0
 125 001a 4A4B     	 ldr r3,.L17+4
 126 001c 1A60     	 str r2,[r3]
 149:C:/Users/Yushev/git/wpcqi-optiga-trust-charge/wpc/PTx\qi_auth_ptx_crypt.c **** 
 150:C:/Users/Yushev/git/wpcqi-optiga-trust-charge/wpc/PTx\qi_auth_ptx_crypt.c **** 		//Create an instance of optiga_crypt to perform crypto operations on OPTIGA.
 151:C:/Users/Yushev/git/wpcqi-optiga-trust-charge/wpc/PTx\qi_auth_ptx_crypt.c **** 		p_crypt = optiga_crypt_create(0, optiga_callback, NULL);
 127              	 .loc 1 151 0
 128 001e 0020     	 movs r0,#0
 129 0020 4749     	 ldr r1,.L17
 130 0022 0022     	 movs r2,#0
 131 0024 FFF7FEFF 	 bl optiga_crypt_create
 132 0028 0246     	 mov r2,r0
 133 002a 474B     	 ldr r3,.L17+8
 134 002c 1A60     	 str r2,[r3]
 152:C:/Users/Yushev/git/wpcqi-optiga-trust-charge/wpc/PTx\qi_auth_ptx_crypt.c **** 
 153:C:/Users/Yushev/git/wpcqi-optiga-trust-charge/wpc/PTx\qi_auth_ptx_crypt.c **** 		if ((NULL == p_util) || (NULL == p_crypt))
 135              	 .loc 1 153 0
 136 002e 454B     	 ldr r3,.L17+4
 137 0030 1B68     	 ldr r3,[r3]
 138 0032 002B     	 cmp r3,#0
 139 0034 7ED0     	 beq .L14
 140              	 .loc 1 153 0 is_stmt 0 discriminator 1
 141 0036 444B     	 ldr r3,.L17+8
 142 0038 1B68     	 ldr r3,[r3]
 143 003a 002B     	 cmp r3,#0
 144 003c 7AD0     	 beq .L14
 154:C:/Users/Yushev/git/wpcqi-optiga-trust-charge/wpc/PTx\qi_auth_ptx_crypt.c **** 		{
 155:C:/Users/Yushev/git/wpcqi-optiga-trust-charge/wpc/PTx\qi_auth_ptx_crypt.c **** 			break;
 156:C:/Users/Yushev/git/wpcqi-optiga-trust-charge/wpc/PTx\qi_auth_ptx_crypt.c **** 		}
 157:C:/Users/Yushev/git/wpcqi-optiga-trust-charge/wpc/PTx\qi_auth_ptx_crypt.c **** 
 158:C:/Users/Yushev/git/wpcqi-optiga-trust-charge/wpc/PTx\qi_auth_ptx_crypt.c **** 		/**
 159:C:/Users/Yushev/git/wpcqi-optiga-trust-charge/wpc/PTx\qi_auth_ptx_crypt.c **** 		 * Open the application on OPTIGA which is a precondition to perform any other operations
 160:C:/Users/Yushev/git/wpcqi-optiga-trust-charge/wpc/PTx\qi_auth_ptx_crypt.c **** 		 * using optiga_util_open_application
 161:C:/Users/Yushev/git/wpcqi-optiga-trust-charge/wpc/PTx\qi_auth_ptx_crypt.c **** 		 */
 162:C:/Users/Yushev/git/wpcqi-optiga-trust-charge/wpc/PTx\qi_auth_ptx_crypt.c **** 		CHECK_RESULT(optiga_util_open_application(p_util, restore_from_hibernate));
 145              	 .loc 1 162 0 is_stmt 1
 146 003e 4FF40043 	 mov r3,#32768
 147 0042 FB81     	 strh r3,[r7,#14]
 148 0044 414B     	 ldr r3,.L17+12
 149 0046 0122     	 movs r2,#1
 150 0048 1A80     	 strh r2,[r3]
 151 004a 3E4B     	 ldr r3,.L17+4
 152 004c 1A68     	 ldr r2,[r3]
 153 004e FB79     	 ldrb r3,[r7,#7]
 154 0050 1046     	 mov r0,r2
 155 0052 1946     	 mov r1,r3
 156 0054 FFF7FEFF 	 bl optiga_util_open_application
 157 0058 0346     	 mov r3,r0
 158 005a FB81     	 strh r3,[r7,#14]
 159 005c FB89     	 ldrh r3,[r7,#14]
 160 005e 002B     	 cmp r3,#0
 161 0060 00D0     	 beq .L6
 162 0062 67E0     	 b .L14
 163              	.L6:
 164 0064 02E0     	 b .L7
 165              	.L8:
 166              	 .loc 1 162 0 is_stmt 0 discriminator 2
 167 0066 0120     	 movs r0,#1
 168 0068 FFF7FEFF 	 bl pal_os_timer_delay_in_milliseconds
 169              	.L7:
 170              	 .loc 1 162 0 discriminator 1
 171 006c 374B     	 ldr r3,.L17+12
 172 006e 1B88     	 ldrh r3,[r3]
 173 0070 9BB2     	 uxth r3,r3
 174 0072 012B     	 cmp r3,#1
 175 0074 F7D0     	 beq .L8
 176              	 .loc 1 162 0 discriminator 3
 177 0076 354B     	 ldr r3,.L17+12
 178 0078 1B88     	 ldrh r3,[r3]
 179 007a 9BB2     	 uxth r3,r3
 180 007c 002B     	 cmp r3,#0
 181 007e 17D0     	 beq .L9
 182              	 .loc 1 162 0 discriminator 4
 183 0080 324B     	 ldr r3,.L17+12
 184 0082 1B88     	 ldrh r3,[r3]
 185 0084 FB81     	 strh r3,[r7,#14]
 186 0086 314B     	 ldr r3,.L17+12
 187 0088 1B88     	 ldrh r3,[r3]
 188 008a 9BB2     	 uxth r3,r3
 189 008c 3048     	 ldr r0,.L17+16
 190 008e 1946     	 mov r1,r3
 191 0090 FFF7FEFF 	 bl printf
 192 0094 2B4B     	 ldr r3,.L17+4
 193 0096 1B68     	 ldr r3,[r3]
 194 0098 1846     	 mov r0,r3
 195 009a FFF7FEFF 	 bl optiga_util_destroy
 196 009e 2A4B     	 ldr r3,.L17+8
 197 00a0 1B68     	 ldr r3,[r3]
 198 00a2 1846     	 mov r0,r3
 199 00a4 FFF7FEFF 	 bl optiga_crypt_destroy
 200 00a8 0020     	 movs r0,#0
 201 00aa FFF7FEFF 	 bl pal_os_event_destroy
 202 00ae 41E0     	 b .L14
 203              	.L9:
 163:C:/Users/Yushev/git/wpcqi-optiga-trust-charge/wpc/PTx\qi_auth_ptx_crypt.c **** 
 164:C:/Users/Yushev/git/wpcqi-optiga-trust-charge/wpc/PTx\qi_auth_ptx_crypt.c **** 		// Maximum Power, Minimum Current limitation
 165:C:/Users/Yushev/git/wpcqi-optiga-trust-charge/wpc/PTx\qi_auth_ptx_crypt.c **** 		uint8_t current_limit = 15;
 204              	 .loc 1 165 0 is_stmt 1
 205 00b0 0F23     	 movs r3,#15
 206 00b2 7B73     	 strb r3,[r7,#13]
 166:C:/Users/Yushev/git/wpcqi-optiga-trust-charge/wpc/PTx\qi_auth_ptx_crypt.c **** 		CHECK_RESULT(optiga_util_write_data(p_util,
 207              	 .loc 1 166 0
 208 00b4 4FF40043 	 mov r3,#32768
 209 00b8 FB81     	 strh r3,[r7,#14]
 210 00ba 244B     	 ldr r3,.L17+12
 211 00bc 0122     	 movs r2,#1
 212 00be 1A80     	 strh r2,[r3]
 213 00c0 204B     	 ldr r3,.L17+4
 214 00c2 1A68     	 ldr r2,[r3]
 215 00c4 07F10D03 	 add r3,r7,#13
 216 00c8 0093     	 str r3,[sp]
 217 00ca 0123     	 movs r3,#1
 218 00cc 0193     	 str r3,[sp,#4]
 219 00ce 1046     	 mov r0,r2
 220 00d0 4EF2C401 	 movw r1,#57540
 221 00d4 0022     	 movs r2,#0
 222 00d6 0023     	 movs r3,#0
 223 00d8 FFF7FEFF 	 bl optiga_util_write_data
 224 00dc 0346     	 mov r3,r0
 225 00de FB81     	 strh r3,[r7,#14]
 226 00e0 FB89     	 ldrh r3,[r7,#14]
 227 00e2 002B     	 cmp r3,#0
 228 00e4 00D0     	 beq .L10
 229              	 .loc 1 166 0 is_stmt 0 discriminator 2
 230 00e6 24E0     	 b .L16
 231              	.L10:
 232              	 .loc 1 166 0
 233 00e8 02E0     	 b .L11
 234              	.L12:
 235              	 .loc 1 166 0 discriminator 2
 236 00ea 0120     	 movs r0,#1
 237 00ec FFF7FEFF 	 bl pal_os_timer_delay_in_milliseconds
 238              	.L11:
 239              	 .loc 1 166 0 discriminator 1
 240 00f0 164B     	 ldr r3,.L17+12
 241 00f2 1B88     	 ldrh r3,[r3]
 242 00f4 9BB2     	 uxth r3,r3
 243 00f6 012B     	 cmp r3,#1
 244 00f8 F7D0     	 beq .L12
 245              	 .loc 1 166 0 discriminator 3
 246 00fa 144B     	 ldr r3,.L17+12
 247 00fc 1B88     	 ldrh r3,[r3]
 248 00fe 9BB2     	 uxth r3,r3
 249 0100 002B     	 cmp r3,#0
 250 0102 17D0     	 beq .L14
 251              	 .loc 1 166 0 discriminator 4
 252 0104 114B     	 ldr r3,.L17+12
 253 0106 1B88     	 ldrh r3,[r3]
 254 0108 FB81     	 strh r3,[r7,#14]
 255 010a 104B     	 ldr r3,.L17+12
 256 010c 1B88     	 ldrh r3,[r3]
 257 010e 9BB2     	 uxth r3,r3
 258 0110 0F48     	 ldr r0,.L17+16
 259 0112 1946     	 mov r1,r3
 260 0114 FFF7FEFF 	 bl printf
 261 0118 0A4B     	 ldr r3,.L17+4
 262 011a 1B68     	 ldr r3,[r3]
 263 011c 1846     	 mov r0,r3
 264 011e FFF7FEFF 	 bl optiga_util_destroy
 265 0122 094B     	 ldr r3,.L17+8
 266 0124 1B68     	 ldr r3,[r3]
 267 0126 1846     	 mov r0,r3
 268 0128 FFF7FEFF 	 bl optiga_crypt_destroy
 269 012c 0020     	 movs r0,#0
 270 012e FFF7FEFF 	 bl pal_os_event_destroy
 271              	.L16:
 272              	 .loc 1 166 0
 273 0132 00BF     	 nop
 274              	.L14:
 275              	.LBE2:
 167:C:/Users/Yushev/git/wpcqi-optiga-trust-charge/wpc/PTx\qi_auth_ptx_crypt.c **** 					 0xE0C4, OPTIGA_UTIL_WRITE_ONLY,
 168:C:/Users/Yushev/git/wpcqi-optiga-trust-charge/wpc/PTx\qi_auth_ptx_crypt.c **** 					 0, //offset
 169:C:/Users/Yushev/git/wpcqi-optiga-trust-charge/wpc/PTx\qi_auth_ptx_crypt.c **** 					 &current_limit,
 170:C:/Users/Yushev/git/wpcqi-optiga-trust-charge/wpc/PTx\qi_auth_ptx_crypt.c **** 					 1));
 171:C:/Users/Yushev/git/wpcqi-optiga-trust-charge/wpc/PTx\qi_auth_ptx_crypt.c **** 
 172:C:/Users/Yushev/git/wpcqi-optiga-trust-charge/wpc/PTx\qi_auth_ptx_crypt.c **** #ifdef OPTIGA_COMMS_SHIELDED_CONNECTION
 173:C:/Users/Yushev/git/wpcqi-optiga-trust-charge/wpc/PTx\qi_auth_ptx_crypt.c **** 		example_pair_host_and_optiga_using_pre_shared_secret();
 174:C:/Users/Yushev/git/wpcqi-optiga-trust-charge/wpc/PTx\qi_auth_ptx_crypt.c **** #endif
 175:C:/Users/Yushev/git/wpcqi-optiga-trust-charge/wpc/PTx\qi_auth_ptx_crypt.c **** 
 176:C:/Users/Yushev/git/wpcqi-optiga-trust-charge/wpc/PTx\qi_auth_ptx_crypt.c **** 	}while (FALSE);
 177:C:/Users/Yushev/git/wpcqi-optiga-trust-charge/wpc/PTx\qi_auth_ptx_crypt.c **** 
 178:C:/Users/Yushev/git/wpcqi-optiga-trust-charge/wpc/PTx\qi_auth_ptx_crypt.c **** 	return return_status;
 276              	 .loc 1 178 0 is_stmt 1
 277 0134 FB89     	 ldrh r3,[r7,#14]
 179:C:/Users/Yushev/git/wpcqi-optiga-trust-charge/wpc/PTx\qi_auth_ptx_crypt.c **** }
 278              	 .loc 1 179 0
 279 0136 1846     	 mov r0,r3
 280 0138 1037     	 adds r7,r7,#16
 281              	.LCFI9:
 282              	 .cfi_def_cfa_offset 8
 283 013a BD46     	 mov sp,r7
 284              	.LCFI10:
 285              	 .cfi_def_cfa_register 13
 286              	 
 287 013c 80BD     	 pop {r7,pc}
 288              	.L18:
 289 013e 00BF     	 .align 2
 290              	.L17:
 291 0140 00000000 	 .word optiga_callback
 292 0144 00000000 	 .word p_util
 293 0148 00000000 	 .word p_crypt
 294 014c 00000000 	 .word optiga_lib_status
 295 0150 00000000 	 .word .LC1
 296              	 .cfi_endproc
 297              	.LFE1:
 299              	 .section .text.optiga_deinit,"ax",%progbits
 300              	 .align 2
 301              	 .thumb
 302              	 .thumb_func
 304              	optiga_deinit:
 305              	.LFB2:
 180:C:/Users/Yushev/git/wpcqi-optiga-trust-charge/wpc/PTx\qi_auth_ptx_crypt.c **** 
 181:C:/Users/Yushev/git/wpcqi-optiga-trust-charge/wpc/PTx\qi_auth_ptx_crypt.c **** static uint16_t optiga_deinit(uint8_t goto_hibernate)
 182:C:/Users/Yushev/git/wpcqi-optiga-trust-charge/wpc/PTx\qi_auth_ptx_crypt.c **** {
 306              	 .loc 1 182 0
 307              	 .cfi_startproc
 308              	 
 309              	 
 310 0000 80B5     	 push {r7,lr}
 311              	.LCFI11:
 312              	 .cfi_def_cfa_offset 8
 313              	 .cfi_offset 7,-8
 314              	 .cfi_offset 14,-4
 315 0002 84B0     	 sub sp,sp,#16
 316              	.LCFI12:
 317              	 .cfi_def_cfa_offset 24
 318 0004 00AF     	 add r7,sp,#0
 319              	.LCFI13:
 320              	 .cfi_def_cfa_register 7
 321 0006 0346     	 mov r3,r0
 322 0008 FB71     	 strb r3,[r7,#7]
 183:C:/Users/Yushev/git/wpcqi-optiga-trust-charge/wpc/PTx\qi_auth_ptx_crypt.c **** 	uint16_t return_status = 1;
 323              	 .loc 1 183 0
 324 000a 0123     	 movs r3,#1
 325 000c FB81     	 strh r3,[r7,#14]
 184:C:/Users/Yushev/git/wpcqi-optiga-trust-charge/wpc/PTx\qi_auth_ptx_crypt.c **** 
 185:C:/Users/Yushev/git/wpcqi-optiga-trust-charge/wpc/PTx\qi_auth_ptx_crypt.c **** 	do
 186:C:/Users/Yushev/git/wpcqi-optiga-trust-charge/wpc/PTx\qi_auth_ptx_crypt.c **** 	{
 187:C:/Users/Yushev/git/wpcqi-optiga-trust-charge/wpc/PTx\qi_auth_ptx_crypt.c **** 		/**
 188:C:/Users/Yushev/git/wpcqi-optiga-trust-charge/wpc/PTx\qi_auth_ptx_crypt.c **** 		 * Open the application on OPTIGA which is a precondition to perform any other operations
 189:C:/Users/Yushev/git/wpcqi-optiga-trust-charge/wpc/PTx\qi_auth_ptx_crypt.c **** 		 * using optiga_util_open_application
 190:C:/Users/Yushev/git/wpcqi-optiga-trust-charge/wpc/PTx\qi_auth_ptx_crypt.c **** 		 */
 191:C:/Users/Yushev/git/wpcqi-optiga-trust-charge/wpc/PTx\qi_auth_ptx_crypt.c **** 		CHECK_RESULT(optiga_util_close_application(p_util, goto_hibernate));
 326              	 .loc 1 191 0
 327 000e 4FF40043 	 mov r3,#32768
 328 0012 FB81     	 strh r3,[r7,#14]
 329 0014 224B     	 ldr r3,.L26
 330 0016 0122     	 movs r2,#1
 331 0018 1A80     	 strh r2,[r3]
 332 001a 224B     	 ldr r3,.L26+4
 333 001c 1A68     	 ldr r2,[r3]
 334 001e FB79     	 ldrb r3,[r7,#7]
 335 0020 1046     	 mov r0,r2
 336 0022 1946     	 mov r1,r3
 337 0024 FFF7FEFF 	 bl optiga_util_close_application
 338 0028 0346     	 mov r3,r0
 339 002a FB81     	 strh r3,[r7,#14]
 340 002c FB89     	 ldrh r3,[r7,#14]
 341 002e 002B     	 cmp r3,#0
 342 0030 00D0     	 beq .L20
 343 0032 2FE0     	 b .L21
 344              	.L20:
 345 0034 02E0     	 b .L22
 346              	.L23:
 347              	 .loc 1 191 0 is_stmt 0 discriminator 2
 348 0036 0120     	 movs r0,#1
 349 0038 FFF7FEFF 	 bl pal_os_timer_delay_in_milliseconds
 350              	.L22:
 351              	 .loc 1 191 0 discriminator 1
 352 003c 184B     	 ldr r3,.L26
 353 003e 1B88     	 ldrh r3,[r3]
 354 0040 9BB2     	 uxth r3,r3
 355 0042 012B     	 cmp r3,#1
 356 0044 F7D0     	 beq .L23
 357              	 .loc 1 191 0 discriminator 3
 358 0046 164B     	 ldr r3,.L26
 359 0048 1B88     	 ldrh r3,[r3]
 360 004a 9BB2     	 uxth r3,r3
 361 004c 002B     	 cmp r3,#0
 362 004e 17D0     	 beq .L24
 363              	 .loc 1 191 0 discriminator 4
 364 0050 134B     	 ldr r3,.L26
 365 0052 1B88     	 ldrh r3,[r3]
 366 0054 FB81     	 strh r3,[r7,#14]
 367 0056 124B     	 ldr r3,.L26
 368 0058 1B88     	 ldrh r3,[r3]
 369 005a 9BB2     	 uxth r3,r3
 370 005c 1248     	 ldr r0,.L26+8
 371 005e 1946     	 mov r1,r3
 372 0060 FFF7FEFF 	 bl printf
 373 0064 0F4B     	 ldr r3,.L26+4
 374 0066 1B68     	 ldr r3,[r3]
 375 0068 1846     	 mov r0,r3
 376 006a FFF7FEFF 	 bl optiga_util_destroy
 377 006e 0F4B     	 ldr r3,.L26+12
 378 0070 1B68     	 ldr r3,[r3]
 379 0072 1846     	 mov r0,r3
 380 0074 FFF7FEFF 	 bl optiga_crypt_destroy
 381 0078 0020     	 movs r0,#0
 382 007a FFF7FEFF 	 bl pal_os_event_destroy
 383 007e 09E0     	 b .L21
 384              	.L24:
 192:C:/Users/Yushev/git/wpcqi-optiga-trust-charge/wpc/PTx\qi_auth_ptx_crypt.c **** 
 193:C:/Users/Yushev/git/wpcqi-optiga-trust-charge/wpc/PTx\qi_auth_ptx_crypt.c **** 		//Destroy the instance of optiga_util.
 194:C:/Users/Yushev/git/wpcqi-optiga-trust-charge/wpc/PTx\qi_auth_ptx_crypt.c **** 		optiga_util_destroy(p_util);
 385              	 .loc 1 194 0 is_stmt 1
 386 0080 084B     	 ldr r3,.L26+4
 387 0082 1B68     	 ldr r3,[r3]
 388 0084 1846     	 mov r0,r3
 389 0086 FFF7FEFF 	 bl optiga_util_destroy
 195:C:/Users/Yushev/git/wpcqi-optiga-trust-charge/wpc/PTx\qi_auth_ptx_crypt.c **** 
 196:C:/Users/Yushev/git/wpcqi-optiga-trust-charge/wpc/PTx\qi_auth_ptx_crypt.c **** 		//Destroy the instance of optiga_crypt.
 197:C:/Users/Yushev/git/wpcqi-optiga-trust-charge/wpc/PTx\qi_auth_ptx_crypt.c **** 		optiga_crypt_destroy(p_crypt);
 390              	 .loc 1 197 0
 391 008a 084B     	 ldr r3,.L26+12
 392 008c 1B68     	 ldr r3,[r3]
 393 008e 1846     	 mov r0,r3
 394 0090 FFF7FEFF 	 bl optiga_crypt_destroy
 395              	.L21:
 198:C:/Users/Yushev/git/wpcqi-optiga-trust-charge/wpc/PTx\qi_auth_ptx_crypt.c **** 
 199:C:/Users/Yushev/git/wpcqi-optiga-trust-charge/wpc/PTx\qi_auth_ptx_crypt.c **** 	}while (FALSE);
 200:C:/Users/Yushev/git/wpcqi-optiga-trust-charge/wpc/PTx\qi_auth_ptx_crypt.c **** 
 201:C:/Users/Yushev/git/wpcqi-optiga-trust-charge/wpc/PTx\qi_auth_ptx_crypt.c **** 	return return_status;
 396              	 .loc 1 201 0
 397 0094 FB89     	 ldrh r3,[r7,#14]
 202:C:/Users/Yushev/git/wpcqi-optiga-trust-charge/wpc/PTx\qi_auth_ptx_crypt.c **** }
 398              	 .loc 1 202 0
 399 0096 1846     	 mov r0,r3
 400 0098 1037     	 adds r7,r7,#16
 401              	.LCFI14:
 402              	 .cfi_def_cfa_offset 8
 403 009a BD46     	 mov sp,r7
 404              	.LCFI15:
 405              	 .cfi_def_cfa_register 13
 406              	 
 407 009c 80BD     	 pop {r7,pc}
 408              	.L27:
 409 009e 00BF     	 .align 2
 410              	.L26:
 411 00a0 00000000 	 .word optiga_lib_status
 412 00a4 00000000 	 .word p_util
 413 00a8 00000000 	 .word .LC1
 414 00ac 00000000 	 .word p_crypt
 415              	 .cfi_endproc
 416              	.LFE2:
 418              	 .section .text.qi_auth_ptx_crypt_generate_sha256,"ax",%progbits
 419              	 .align 2
 420              	 .global qi_auth_ptx_crypt_generate_sha256
 421              	 .thumb
 422              	 .thumb_func
 424              	qi_auth_ptx_crypt_generate_sha256:
 425              	.LFB3:
 203:C:/Users/Yushev/git/wpcqi-optiga-trust-charge/wpc/PTx\qi_auth_ptx_crypt.c **** 
 204:C:/Users/Yushev/git/wpcqi-optiga-trust-charge/wpc/PTx\qi_auth_ptx_crypt.c **** /**
 205:C:/Users/Yushev/git/wpcqi-optiga-trust-charge/wpc/PTx\qi_auth_ptx_crypt.c ****  * \brief Generate a SHA256 hash on the message.
 206:C:/Users/Yushev/git/wpcqi-optiga-trust-charge/wpc/PTx\qi_auth_ptx_crypt.c ****  */
 207:C:/Users/Yushev/git/wpcqi-optiga-trust-charge/wpc/PTx\qi_auth_ptx_crypt.c **** uint16_t qi_auth_ptx_crypt_generate_sha256(const uint8_t* p_input, uint16_t inlen, uint8_t* p_diges
 208:C:/Users/Yushev/git/wpcqi-optiga-trust-charge/wpc/PTx\qi_auth_ptx_crypt.c **** {
 426              	 .loc 1 208 0
 427              	 .cfi_startproc
 428              	 
 429              	 
 430 0000 80B5     	 push {r7,lr}
 431              	.LCFI16:
 432              	 .cfi_def_cfa_offset 8
 433              	 .cfi_offset 7,-8
 434              	 .cfi_offset 14,-4
 435 0002 ACB0     	 sub sp,sp,#176
 436              	.LCFI17:
 437              	 .cfi_def_cfa_offset 184
 438 0004 00AF     	 add r7,sp,#0
 439              	.LCFI18:
 440              	 .cfi_def_cfa_register 7
 441 0006 F860     	 str r0,[r7,#12]
 442 0008 0B46     	 mov r3,r1
 443 000a 7A60     	 str r2,[r7,#4]
 444 000c 7B81     	 strh r3,[r7,#10]
 209:C:/Users/Yushev/git/wpcqi-optiga-trust-charge/wpc/PTx\qi_auth_ptx_crypt.c **** 	uint16_t  return_status = CRYPT_LIB_ERROR;
 445              	 .loc 1 209 0
 446 000e 0123     	 movs r3,#1
 447 0010 A7F8AE30 	 strh r3,[r7,#174]
 210:C:/Users/Yushev/git/wpcqi-optiga-trust-charge/wpc/PTx\qi_auth_ptx_crypt.c **** 	hash_data_from_host_t hash_data_host;
 211:C:/Users/Yushev/git/wpcqi-optiga-trust-charge/wpc/PTx\qi_auth_ptx_crypt.c **** 	optiga_hash_context_t hash_ctx;
 212:C:/Users/Yushev/git/wpcqi-optiga-trust-charge/wpc/PTx\qi_auth_ptx_crypt.c **** 	uint8_t hash_context_buffer [130];
 213:C:/Users/Yushev/git/wpcqi-optiga-trust-charge/wpc/PTx\qi_auth_ptx_crypt.c **** 
 214:C:/Users/Yushev/git/wpcqi-optiga-trust-charge/wpc/PTx\qi_auth_ptx_crypt.c ****     do
 215:C:/Users/Yushev/git/wpcqi-optiga-trust-charge/wpc/PTx\qi_auth_ptx_crypt.c ****     {
 216:C:/Users/Yushev/git/wpcqi-optiga-trust-charge/wpc/PTx\qi_auth_ptx_crypt.c ****     	hash_ctx.hash_algo = OPTIGA_HASH_TYPE_SHA_256;
 448              	 .loc 1 216 0
 449 0014 E223     	 movs r3,#226
 450 0016 87F8A030 	 strb r3,[r7,#160]
 217:C:/Users/Yushev/git/wpcqi-optiga-trust-charge/wpc/PTx\qi_auth_ptx_crypt.c **** 		hash_ctx.context_buffer = hash_context_buffer;
 451              	 .loc 1 217 0
 452 001a 07F11403 	 add r3,r7,#20
 453 001e C7F89830 	 str r3,[r7,#152]
 218:C:/Users/Yushev/git/wpcqi-optiga-trust-charge/wpc/PTx\qi_auth_ptx_crypt.c **** 		hash_ctx.context_buffer_length = sizeof(hash_context_buffer);
 454              	 .loc 1 218 0
 455 0022 8223     	 movs r3,#130
 456 0024 C7F89C30 	 str r3,[r7,#156]
 219:C:/Users/Yushev/git/wpcqi-optiga-trust-charge/wpc/PTx\qi_auth_ptx_crypt.c ****     	hash_data_host.buffer = p_input;
 457              	 .loc 1 219 0
 458 0028 FB68     	 ldr r3,[r7,#12]
 459 002a C7F8A430 	 str r3,[r7,#164]
 220:C:/Users/Yushev/git/wpcqi-optiga-trust-charge/wpc/PTx\qi_auth_ptx_crypt.c **** 		hash_data_host.length = inlen;
 460              	 .loc 1 220 0
 461 002e 7B89     	 ldrh r3,[r7,#10]
 462 0030 C7F8A830 	 str r3,[r7,#168]
 221:C:/Users/Yushev/git/wpcqi-optiga-trust-charge/wpc/PTx\qi_auth_ptx_crypt.c **** 
 222:C:/Users/Yushev/git/wpcqi-optiga-trust-charge/wpc/PTx\qi_auth_ptx_crypt.c **** 		CHECK_RESULT(optiga_crypt_hash_start(p_crypt, &hash_ctx));
 463              	 .loc 1 222 0
 464 0034 4FF40043 	 mov r3,#32768
 465 0038 A7F8AE30 	 strh r3,[r7,#174]
 466 003c 5F4B     	 ldr r3,.L43
 467 003e 0122     	 movs r2,#1
 468 0040 1A80     	 strh r2,[r3]
 469 0042 5F4B     	 ldr r3,.L43+4
 470 0044 1A68     	 ldr r2,[r3]
 471 0046 07F19803 	 add r3,r7,#152
 472 004a 1046     	 mov r0,r2
 473 004c 1946     	 mov r1,r3
 474 004e FFF7FEFF 	 bl optiga_crypt_hash_start
 475 0052 0346     	 mov r3,r0
 476 0054 A7F8AE30 	 strh r3,[r7,#174]
 477 0058 B7F8AE30 	 ldrh r3,[r7,#174]
 478 005c 002B     	 cmp r3,#0
 479 005e 00D0     	 beq .L29
 480 0060 A6E0     	 b .L30
 481              	.L29:
 482 0062 02E0     	 b .L31
 483              	.L32:
 484              	 .loc 1 222 0 is_stmt 0 discriminator 2
 485 0064 0120     	 movs r0,#1
 486 0066 FFF7FEFF 	 bl pal_os_timer_delay_in_milliseconds
 487              	.L31:
 488              	 .loc 1 222 0 discriminator 1
 489 006a 544B     	 ldr r3,.L43
 490 006c 1B88     	 ldrh r3,[r3]
 491 006e 9BB2     	 uxth r3,r3
 492 0070 012B     	 cmp r3,#1
 493 0072 F7D0     	 beq .L32
 494              	 .loc 1 222 0 discriminator 3
 495 0074 514B     	 ldr r3,.L43
 496 0076 1B88     	 ldrh r3,[r3]
 497 0078 9BB2     	 uxth r3,r3
 498 007a 002B     	 cmp r3,#0
 499 007c 18D0     	 beq .L33
 500              	 .loc 1 222 0 discriminator 4
 501 007e 4F4B     	 ldr r3,.L43
 502 0080 1B88     	 ldrh r3,[r3]
 503 0082 A7F8AE30 	 strh r3,[r7,#174]
 504 0086 4D4B     	 ldr r3,.L43
 505 0088 1B88     	 ldrh r3,[r3]
 506 008a 9BB2     	 uxth r3,r3
 507 008c 4D48     	 ldr r0,.L43+8
 508 008e 1946     	 mov r1,r3
 509 0090 FFF7FEFF 	 bl printf
 510 0094 4C4B     	 ldr r3,.L43+12
 511 0096 1B68     	 ldr r3,[r3]
 512 0098 1846     	 mov r0,r3
 513 009a FFF7FEFF 	 bl optiga_util_destroy
 514 009e 484B     	 ldr r3,.L43+4
 515 00a0 1B68     	 ldr r3,[r3]
 516 00a2 1846     	 mov r0,r3
 517 00a4 FFF7FEFF 	 bl optiga_crypt_destroy
 518 00a8 0020     	 movs r0,#0
 519 00aa FFF7FEFF 	 bl pal_os_event_destroy
 520 00ae 7FE0     	 b .L30
 521              	.L33:
 223:C:/Users/Yushev/git/wpcqi-optiga-trust-charge/wpc/PTx\qi_auth_ptx_crypt.c **** 		CHECK_RESULT(optiga_crypt_hash_update(p_crypt, &hash_ctx, OPTIGA_CRYPT_HOST_DATA, &hash_data_host
 522              	 .loc 1 223 0 is_stmt 1
 523 00b0 4FF40043 	 mov r3,#32768
 524 00b4 A7F8AE30 	 strh r3,[r7,#174]
 525 00b8 404B     	 ldr r3,.L43
 526 00ba 0122     	 movs r2,#1
 527 00bc 1A80     	 strh r2,[r3]
 528 00be 404B     	 ldr r3,.L43+4
 529 00c0 1968     	 ldr r1,[r3]
 530 00c2 07F19802 	 add r2,r7,#152
 531 00c6 07F1A403 	 add r3,r7,#164
 532 00ca 0846     	 mov r0,r1
 533 00cc 1146     	 mov r1,r2
 534 00ce 0122     	 movs r2,#1
 535 00d0 FFF7FEFF 	 bl optiga_crypt_hash_update
 536 00d4 0346     	 mov r3,r0
 537 00d6 A7F8AE30 	 strh r3,[r7,#174]
 538 00da B7F8AE30 	 ldrh r3,[r7,#174]
 539 00de 002B     	 cmp r3,#0
 540 00e0 00D0     	 beq .L34
 541 00e2 65E0     	 b .L30
 542              	.L34:
 543 00e4 02E0     	 b .L35
 544              	.L36:
 545              	 .loc 1 223 0 is_stmt 0 discriminator 2
 546 00e6 0120     	 movs r0,#1
 547 00e8 FFF7FEFF 	 bl pal_os_timer_delay_in_milliseconds
 548              	.L35:
 549              	 .loc 1 223 0 discriminator 1
 550 00ec 334B     	 ldr r3,.L43
 551 00ee 1B88     	 ldrh r3,[r3]
 552 00f0 9BB2     	 uxth r3,r3
 553 00f2 012B     	 cmp r3,#1
 554 00f4 F7D0     	 beq .L36
 555              	 .loc 1 223 0 discriminator 3
 556 00f6 314B     	 ldr r3,.L43
 557 00f8 1B88     	 ldrh r3,[r3]
 558 00fa 9BB2     	 uxth r3,r3
 559 00fc 002B     	 cmp r3,#0
 560 00fe 18D0     	 beq .L37
 561              	 .loc 1 223 0 discriminator 4
 562 0100 2E4B     	 ldr r3,.L43
 563 0102 1B88     	 ldrh r3,[r3]
 564 0104 A7F8AE30 	 strh r3,[r7,#174]
 565 0108 2C4B     	 ldr r3,.L43
 566 010a 1B88     	 ldrh r3,[r3]
 567 010c 9BB2     	 uxth r3,r3
 568 010e 2D48     	 ldr r0,.L43+8
 569 0110 1946     	 mov r1,r3
 570 0112 FFF7FEFF 	 bl printf
 571 0116 2C4B     	 ldr r3,.L43+12
 572 0118 1B68     	 ldr r3,[r3]
 573 011a 1846     	 mov r0,r3
 574 011c FFF7FEFF 	 bl optiga_util_destroy
 575 0120 274B     	 ldr r3,.L43+4
 576 0122 1B68     	 ldr r3,[r3]
 577 0124 1846     	 mov r0,r3
 578 0126 FFF7FEFF 	 bl optiga_crypt_destroy
 579 012a 0020     	 movs r0,#0
 580 012c FFF7FEFF 	 bl pal_os_event_destroy
 581 0130 3EE0     	 b .L30
 582              	.L37:
 224:C:/Users/Yushev/git/wpcqi-optiga-trust-charge/wpc/PTx\qi_auth_ptx_crypt.c **** 		CHECK_RESULT(optiga_crypt_hash_finalize(p_crypt, &hash_ctx, p_digest));
 583              	 .loc 1 224 0 is_stmt 1
 584 0132 4FF40043 	 mov r3,#32768
 585 0136 A7F8AE30 	 strh r3,[r7,#174]
 586 013a 204B     	 ldr r3,.L43
 587 013c 0122     	 movs r2,#1
 588 013e 1A80     	 strh r2,[r3]
 589 0140 1F4B     	 ldr r3,.L43+4
 590 0142 1A68     	 ldr r2,[r3]
 591 0144 07F19803 	 add r3,r7,#152
 592 0148 1046     	 mov r0,r2
 593 014a 1946     	 mov r1,r3
 594 014c 7A68     	 ldr r2,[r7,#4]
 595 014e FFF7FEFF 	 bl optiga_crypt_hash_finalize
 596 0152 0346     	 mov r3,r0
 597 0154 A7F8AE30 	 strh r3,[r7,#174]
 598 0158 B7F8AE30 	 ldrh r3,[r7,#174]
 599 015c 002B     	 cmp r3,#0
 600 015e 00D0     	 beq .L38
 601 0160 25E0     	 b .L42
 602              	.L38:
 603 0162 02E0     	 b .L39
 604              	.L40:
 605              	 .loc 1 224 0 is_stmt 0 discriminator 2
 606 0164 0120     	 movs r0,#1
 607 0166 FFF7FEFF 	 bl pal_os_timer_delay_in_milliseconds
 608              	.L39:
 609              	 .loc 1 224 0 discriminator 1
 610 016a 144B     	 ldr r3,.L43
 611 016c 1B88     	 ldrh r3,[r3]
 612 016e 9BB2     	 uxth r3,r3
 613 0170 012B     	 cmp r3,#1
 614 0172 F7D0     	 beq .L40
 615              	 .loc 1 224 0 discriminator 3
 616 0174 114B     	 ldr r3,.L43
 617 0176 1B88     	 ldrh r3,[r3]
 618 0178 9BB2     	 uxth r3,r3
 619 017a 002B     	 cmp r3,#0
 620 017c 18D0     	 beq .L30
 621              	 .loc 1 224 0 discriminator 4
 622 017e 0F4B     	 ldr r3,.L43
 623 0180 1B88     	 ldrh r3,[r3]
 624 0182 A7F8AE30 	 strh r3,[r7,#174]
 625 0186 0D4B     	 ldr r3,.L43
 626 0188 1B88     	 ldrh r3,[r3]
 627 018a 9BB2     	 uxth r3,r3
 628 018c 0D48     	 ldr r0,.L43+8
 629 018e 1946     	 mov r1,r3
 630 0190 FFF7FEFF 	 bl printf
 631 0194 0C4B     	 ldr r3,.L43+12
 632 0196 1B68     	 ldr r3,[r3]
 633 0198 1846     	 mov r0,r3
 634 019a FFF7FEFF 	 bl optiga_util_destroy
 635 019e 084B     	 ldr r3,.L43+4
 636 01a0 1B68     	 ldr r3,[r3]
 637 01a2 1846     	 mov r0,r3
 638 01a4 FFF7FEFF 	 bl optiga_crypt_destroy
 639 01a8 0020     	 movs r0,#0
 640 01aa FFF7FEFF 	 bl pal_os_event_destroy
 641              	.L42:
 642              	 .loc 1 224 0
 643 01ae 00BF     	 nop
 644              	.L30:
 225:C:/Users/Yushev/git/wpcqi-optiga-trust-charge/wpc/PTx\qi_auth_ptx_crypt.c ****     }while(FALSE);
 226:C:/Users/Yushev/git/wpcqi-optiga-trust-charge/wpc/PTx\qi_auth_ptx_crypt.c **** 
 227:C:/Users/Yushev/git/wpcqi-optiga-trust-charge/wpc/PTx\qi_auth_ptx_crypt.c **** 	return CRYPT_LIB_OK;
 645              	 .loc 1 227 0 is_stmt 1
 646 01b0 0023     	 movs r3,#0
 228:C:/Users/Yushev/git/wpcqi-optiga-trust-charge/wpc/PTx\qi_auth_ptx_crypt.c **** }
 647              	 .loc 1 228 0
 648 01b2 1846     	 mov r0,r3
 649 01b4 B037     	 adds r7,r7,#176
 650              	.LCFI19:
 651              	 .cfi_def_cfa_offset 8
 652 01b6 BD46     	 mov sp,r7
 653              	.LCFI20:
 654              	 .cfi_def_cfa_register 13
 655              	 
 656 01b8 80BD     	 pop {r7,pc}
 657              	.L44:
 658 01ba 00BF     	 .align 2
 659              	.L43:
 660 01bc 00000000 	 .word optiga_lib_status
 661 01c0 00000000 	 .word p_crypt
 662 01c4 00000000 	 .word .LC1
 663 01c8 00000000 	 .word p_util
 664              	 .cfi_endproc
 665              	.LFE3:
 667              	 .section .rodata
 668 0011 000000   	 .align 2
 669              	.LC0:
 670 0014 E0E0     	 .short -7968
 671 0016 0300     	 .short 3
 672 0018 1401     	 .short 276
 673              	 .section .text.qi_auth_ptx_crypt_certchain_sha256,"ax",%progbits
 674              	 .align 2
 675              	 .global qi_auth_ptx_crypt_certchain_sha256
 676              	 .thumb
 677              	 .thumb_func
 679              	qi_auth_ptx_crypt_certchain_sha256:
 680              	.LFB4:
 229:C:/Users/Yushev/git/wpcqi-optiga-trust-charge/wpc/PTx\qi_auth_ptx_crypt.c **** 
 230:C:/Users/Yushev/git/wpcqi-optiga-trust-charge/wpc/PTx\qi_auth_ptx_crypt.c **** uint16_t qi_auth_ptx_crypt_certchain_sha256(uint8_t* p_digest)
 231:C:/Users/Yushev/git/wpcqi-optiga-trust-charge/wpc/PTx\qi_auth_ptx_crypt.c **** {
 681              	 .loc 1 231 0
 682              	 .cfi_startproc
 683              	 
 684              	 
 685 0000 80B5     	 push {r7,lr}
 686              	.LCFI21:
 687              	 .cfi_def_cfa_offset 8
 688              	 .cfi_offset 7,-8
 689              	 .cfi_offset 14,-4
 690 0002 AAB0     	 sub sp,sp,#168
 691              	.LCFI22:
 692              	 .cfi_def_cfa_offset 176
 693 0004 00AF     	 add r7,sp,#0
 694              	.LCFI23:
 695              	 .cfi_def_cfa_register 7
 696 0006 7860     	 str r0,[r7,#4]
 232:C:/Users/Yushev/git/wpcqi-optiga-trust-charge/wpc/PTx\qi_auth_ptx_crypt.c **** 	uint16_t  return_status = CRYPT_LIB_ERROR;
 697              	 .loc 1 232 0
 698 0008 0123     	 movs r3,#1
 699 000a A7F8A630 	 strh r3,[r7,#166]
 700              	.LBB3:
 233:C:/Users/Yushev/git/wpcqi-optiga-trust-charge/wpc/PTx\qi_auth_ptx_crypt.c **** 
 234:C:/Users/Yushev/git/wpcqi-optiga-trust-charge/wpc/PTx\qi_auth_ptx_crypt.c **** 	optiga_hash_context_t hash_ctx;
 235:C:/Users/Yushev/git/wpcqi-optiga-trust-charge/wpc/PTx\qi_auth_ptx_crypt.c ****     uint8_t hash_context_buffer [130];
 236:C:/Users/Yushev/git/wpcqi-optiga-trust-charge/wpc/PTx\qi_auth_ptx_crypt.c **** 
 237:C:/Users/Yushev/git/wpcqi-optiga-trust-charge/wpc/PTx\qi_auth_ptx_crypt.c ****     do
 238:C:/Users/Yushev/git/wpcqi-optiga-trust-charge/wpc/PTx\qi_auth_ptx_crypt.c ****     {
 239:C:/Users/Yushev/git/wpcqi-optiga-trust-charge/wpc/PTx\qi_auth_ptx_crypt.c **** 		hash_ctx.hash_algo = OPTIGA_HASH_TYPE_SHA_256;
 701              	 .loc 1 239 0
 702 000e E223     	 movs r3,#226
 703 0010 87F8A030 	 strb r3,[r7,#160]
 240:C:/Users/Yushev/git/wpcqi-optiga-trust-charge/wpc/PTx\qi_auth_ptx_crypt.c **** 		hash_ctx.context_buffer = hash_context_buffer;
 704              	 .loc 1 240 0
 705 0014 07F11403 	 add r3,r7,#20
 706 0018 C7F89830 	 str r3,[r7,#152]
 241:C:/Users/Yushev/git/wpcqi-optiga-trust-charge/wpc/PTx\qi_auth_ptx_crypt.c **** 		hash_ctx.context_buffer_length = sizeof(hash_context_buffer);
 707              	 .loc 1 241 0
 708 001c 8223     	 movs r3,#130
 709 001e C7F89C30 	 str r3,[r7,#156]
 242:C:/Users/Yushev/git/wpcqi-optiga-trust-charge/wpc/PTx\qi_auth_ptx_crypt.c **** 
 243:C:/Users/Yushev/git/wpcqi-optiga-trust-charge/wpc/PTx\qi_auth_ptx_crypt.c **** 		hash_data_in_optiga_t optiga_hash = {
 710              	 .loc 1 243 0
 711 0022 654A     	 ldr r2,.L62
 712 0024 07F10C03 	 add r3,r7,#12
 713 0028 1068     	 ldr r0,[r2]
 714 002a 1860     	 str r0,[r3]
 715 002c 9288     	 ldrh r2,[r2,#4]
 716 002e 9A80     	 strh r2,[r3,#4]
 244:C:/Users/Yushev/git/wpcqi-optiga-trust-charge/wpc/PTx\qi_auth_ptx_crypt.c **** 				.oid = QI_AUTH_CERTCAIN_OID,
 245:C:/Users/Yushev/git/wpcqi-optiga-trust-charge/wpc/PTx\qi_auth_ptx_crypt.c **** 				.offset = 0x03,
 246:C:/Users/Yushev/git/wpcqi-optiga-trust-charge/wpc/PTx\qi_auth_ptx_crypt.c **** 				.length = QI_AUTH_CRT_ROOTHASH_LEN + 2 + QI_AUTH_CRT_LEN + QI_AUTH_CRT_LEN  // 32 bytes Root Ha
 247:C:/Users/Yushev/git/wpcqi-optiga-trust-charge/wpc/PTx\qi_auth_ptx_crypt.c **** 		};
 248:C:/Users/Yushev/git/wpcqi-optiga-trust-charge/wpc/PTx\qi_auth_ptx_crypt.c **** 		CHECK_RESULT(optiga_crypt_hash_start(p_crypt, &hash_ctx));
 717              	 .loc 1 248 0
 718 0030 4FF40043 	 mov r3,#32768
 719 0034 A7F8A630 	 strh r3,[r7,#166]
 720 0038 604B     	 ldr r3,.L62+4
 721 003a 0122     	 movs r2,#1
 722 003c 1A80     	 strh r2,[r3]
 723 003e 604B     	 ldr r3,.L62+8
 724 0040 1A68     	 ldr r2,[r3]
 725 0042 07F19803 	 add r3,r7,#152
 726 0046 1046     	 mov r0,r2
 727 0048 1946     	 mov r1,r3
 728 004a FFF7FEFF 	 bl optiga_crypt_hash_start
 729 004e 0346     	 mov r3,r0
 730 0050 A7F8A630 	 strh r3,[r7,#166]
 731 0054 B7F8A630 	 ldrh r3,[r7,#166]
 732 0058 002B     	 cmp r3,#0
 733 005a 00D0     	 beq .L46
 734 005c A6E0     	 b .L59
 735              	.L46:
 736 005e 02E0     	 b .L48
 737              	.L49:
 738              	 .loc 1 248 0 is_stmt 0 discriminator 2
 739 0060 0120     	 movs r0,#1
 740 0062 FFF7FEFF 	 bl pal_os_timer_delay_in_milliseconds
 741              	.L48:
 742              	 .loc 1 248 0 discriminator 1
 743 0066 554B     	 ldr r3,.L62+4
 744 0068 1B88     	 ldrh r3,[r3]
 745 006a 9BB2     	 uxth r3,r3
 746 006c 012B     	 cmp r3,#1
 747 006e F7D0     	 beq .L49
 748              	 .loc 1 248 0 discriminator 3
 749 0070 524B     	 ldr r3,.L62+4
 750 0072 1B88     	 ldrh r3,[r3]
 751 0074 9BB2     	 uxth r3,r3
 752 0076 002B     	 cmp r3,#0
 753 0078 18D0     	 beq .L50
 754              	 .loc 1 248 0 discriminator 4
 755 007a 504B     	 ldr r3,.L62+4
 756 007c 1B88     	 ldrh r3,[r3]
 757 007e A7F8A630 	 strh r3,[r7,#166]
 758 0082 4E4B     	 ldr r3,.L62+4
 759 0084 1B88     	 ldrh r3,[r3]
 760 0086 9BB2     	 uxth r3,r3
 761 0088 4E48     	 ldr r0,.L62+12
 762 008a 1946     	 mov r1,r3
 763 008c FFF7FEFF 	 bl printf
 764 0090 4D4B     	 ldr r3,.L62+16
 765 0092 1B68     	 ldr r3,[r3]
 766 0094 1846     	 mov r0,r3
 767 0096 FFF7FEFF 	 bl optiga_util_destroy
 768 009a 494B     	 ldr r3,.L62+8
 769 009c 1B68     	 ldr r3,[r3]
 770 009e 1846     	 mov r0,r3
 771 00a0 FFF7FEFF 	 bl optiga_crypt_destroy
 772 00a4 0020     	 movs r0,#0
 773 00a6 FFF7FEFF 	 bl pal_os_event_destroy
 774 00aa 7FE0     	 b .L59
 775              	.L50:
 249:C:/Users/Yushev/git/wpcqi-optiga-trust-charge/wpc/PTx\qi_auth_ptx_crypt.c **** 		CHECK_RESULT(optiga_crypt_hash_update(p_crypt, &hash_ctx, OPTIGA_CRYPT_OID_DATA, &optiga_hash));
 776              	 .loc 1 249 0 is_stmt 1
 777 00ac 4FF40043 	 mov r3,#32768
 778 00b0 A7F8A630 	 strh r3,[r7,#166]
 779 00b4 414B     	 ldr r3,.L62+4
 780 00b6 0122     	 movs r2,#1
 781 00b8 1A80     	 strh r2,[r3]
 782 00ba 414B     	 ldr r3,.L62+8
 783 00bc 1968     	 ldr r1,[r3]
 784 00be 07F19802 	 add r2,r7,#152
 785 00c2 07F10C03 	 add r3,r7,#12
 786 00c6 0846     	 mov r0,r1
 787 00c8 1146     	 mov r1,r2
 788 00ca 0022     	 movs r2,#0
 789 00cc FFF7FEFF 	 bl optiga_crypt_hash_update
 790 00d0 0346     	 mov r3,r0
 791 00d2 A7F8A630 	 strh r3,[r7,#166]
 792 00d6 B7F8A630 	 ldrh r3,[r7,#166]
 793 00da 002B     	 cmp r3,#0
 794 00dc 00D0     	 beq .L51
 795 00de 65E0     	 b .L59
 796              	.L51:
 797 00e0 02E0     	 b .L52
 798              	.L53:
 799              	 .loc 1 249 0 is_stmt 0 discriminator 2
 800 00e2 0120     	 movs r0,#1
 801 00e4 FFF7FEFF 	 bl pal_os_timer_delay_in_milliseconds
 802              	.L52:
 803              	 .loc 1 249 0 discriminator 1
 804 00e8 344B     	 ldr r3,.L62+4
 805 00ea 1B88     	 ldrh r3,[r3]
 806 00ec 9BB2     	 uxth r3,r3
 807 00ee 012B     	 cmp r3,#1
 808 00f0 F7D0     	 beq .L53
 809              	 .loc 1 249 0 discriminator 3
 810 00f2 324B     	 ldr r3,.L62+4
 811 00f4 1B88     	 ldrh r3,[r3]
 812 00f6 9BB2     	 uxth r3,r3
 813 00f8 002B     	 cmp r3,#0
 814 00fa 18D0     	 beq .L54
 815              	 .loc 1 249 0 discriminator 4
 816 00fc 2F4B     	 ldr r3,.L62+4
 817 00fe 1B88     	 ldrh r3,[r3]
 818 0100 A7F8A630 	 strh r3,[r7,#166]
 819 0104 2D4B     	 ldr r3,.L62+4
 820 0106 1B88     	 ldrh r3,[r3]
 821 0108 9BB2     	 uxth r3,r3
 822 010a 2E48     	 ldr r0,.L62+12
 823 010c 1946     	 mov r1,r3
 824 010e FFF7FEFF 	 bl printf
 825 0112 2D4B     	 ldr r3,.L62+16
 826 0114 1B68     	 ldr r3,[r3]
 827 0116 1846     	 mov r0,r3
 828 0118 FFF7FEFF 	 bl optiga_util_destroy
 829 011c 284B     	 ldr r3,.L62+8
 830 011e 1B68     	 ldr r3,[r3]
 831 0120 1846     	 mov r0,r3
 832 0122 FFF7FEFF 	 bl optiga_crypt_destroy
 833 0126 0020     	 movs r0,#0
 834 0128 FFF7FEFF 	 bl pal_os_event_destroy
 835 012c 3EE0     	 b .L59
 836              	.L54:
 250:C:/Users/Yushev/git/wpcqi-optiga-trust-charge/wpc/PTx\qi_auth_ptx_crypt.c **** 		CHECK_RESULT(optiga_crypt_hash_finalize(p_crypt, &hash_ctx, p_digest));
 837              	 .loc 1 250 0 is_stmt 1
 838 012e 4FF40043 	 mov r3,#32768
 839 0132 A7F8A630 	 strh r3,[r7,#166]
 840 0136 214B     	 ldr r3,.L62+4
 841 0138 0122     	 movs r2,#1
 842 013a 1A80     	 strh r2,[r3]
 843 013c 204B     	 ldr r3,.L62+8
 844 013e 1A68     	 ldr r2,[r3]
 845 0140 07F19803 	 add r3,r7,#152
 846 0144 1046     	 mov r0,r2
 847 0146 1946     	 mov r1,r3
 848 0148 7A68     	 ldr r2,[r7,#4]
 849 014a FFF7FEFF 	 bl optiga_crypt_hash_finalize
 850 014e 0346     	 mov r3,r0
 851 0150 A7F8A630 	 strh r3,[r7,#166]
 852 0154 B7F8A630 	 ldrh r3,[r7,#166]
 853 0158 002B     	 cmp r3,#0
 854 015a 00D0     	 beq .L55
 855 015c 25E0     	 b .L61
 856              	.L55:
 857 015e 02E0     	 b .L56
 858              	.L57:
 859              	 .loc 1 250 0 is_stmt 0 discriminator 2
 860 0160 0120     	 movs r0,#1
 861 0162 FFF7FEFF 	 bl pal_os_timer_delay_in_milliseconds
 862              	.L56:
 863              	 .loc 1 250 0 discriminator 1
 864 0166 154B     	 ldr r3,.L62+4
 865 0168 1B88     	 ldrh r3,[r3]
 866 016a 9BB2     	 uxth r3,r3
 867 016c 012B     	 cmp r3,#1
 868 016e F7D0     	 beq .L57
 869              	 .loc 1 250 0 discriminator 3
 870 0170 124B     	 ldr r3,.L62+4
 871 0172 1B88     	 ldrh r3,[r3]
 872 0174 9BB2     	 uxth r3,r3
 873 0176 002B     	 cmp r3,#0
 874 0178 18D0     	 beq .L59
 875              	 .loc 1 250 0 discriminator 4
 876 017a 104B     	 ldr r3,.L62+4
 877 017c 1B88     	 ldrh r3,[r3]
 878 017e A7F8A630 	 strh r3,[r7,#166]
 879 0182 0E4B     	 ldr r3,.L62+4
 880 0184 1B88     	 ldrh r3,[r3]
 881 0186 9BB2     	 uxth r3,r3
 882 0188 0E48     	 ldr r0,.L62+12
 883 018a 1946     	 mov r1,r3
 884 018c FFF7FEFF 	 bl printf
 885 0190 0D4B     	 ldr r3,.L62+16
 886 0192 1B68     	 ldr r3,[r3]
 887 0194 1846     	 mov r0,r3
 888 0196 FFF7FEFF 	 bl optiga_util_destroy
 889 019a 094B     	 ldr r3,.L62+8
 890 019c 1B68     	 ldr r3,[r3]
 891 019e 1846     	 mov r0,r3
 892 01a0 FFF7FEFF 	 bl optiga_crypt_destroy
 893 01a4 0020     	 movs r0,#0
 894 01a6 FFF7FEFF 	 bl pal_os_event_destroy
 895              	.L61:
 896              	 .loc 1 250 0
 897 01aa 00BF     	 nop
 898              	.L59:
 899              	.LBE3:
 251:C:/Users/Yushev/git/wpcqi-optiga-trust-charge/wpc/PTx\qi_auth_ptx_crypt.c **** 
 252:C:/Users/Yushev/git/wpcqi-optiga-trust-charge/wpc/PTx\qi_auth_ptx_crypt.c ****     }while(FALSE);
 253:C:/Users/Yushev/git/wpcqi-optiga-trust-charge/wpc/PTx\qi_auth_ptx_crypt.c **** 
 254:C:/Users/Yushev/git/wpcqi-optiga-trust-charge/wpc/PTx\qi_auth_ptx_crypt.c **** 	return return_status;
 900              	 .loc 1 254 0 is_stmt 1
 901 01ac B7F8A630 	 ldrh r3,[r7,#166]
 255:C:/Users/Yushev/git/wpcqi-optiga-trust-charge/wpc/PTx\qi_auth_ptx_crypt.c **** }
 902              	 .loc 1 255 0
 903 01b0 1846     	 mov r0,r3
 904 01b2 A837     	 adds r7,r7,#168
 905              	.LCFI24:
 906              	 .cfi_def_cfa_offset 8
 907 01b4 BD46     	 mov sp,r7
 908              	.LCFI25:
 909              	 .cfi_def_cfa_register 13
 910              	 
 911 01b6 80BD     	 pop {r7,pc}
 912              	.L63:
 913              	 .align 2
 914              	.L62:
 915 01b8 14000000 	 .word .LC0
 916 01bc 00000000 	 .word optiga_lib_status
 917 01c0 00000000 	 .word p_crypt
 918 01c4 00000000 	 .word .LC1
 919 01c8 00000000 	 .word p_util
 920              	 .cfi_endproc
 921              	.LFE4:
 923              	 .section .text.qi_auth_ptx_crypt_sign,"ax",%progbits
 924              	 .align 2
 925              	 .global qi_auth_ptx_crypt_sign
 926              	 .thumb
 927              	 .thumb_func
 929              	qi_auth_ptx_crypt_sign:
 930              	.LFB5:
 256:C:/Users/Yushev/git/wpcqi-optiga-trust-charge/wpc/PTx\qi_auth_ptx_crypt.c **** 
 257:C:/Users/Yushev/git/wpcqi-optiga-trust-charge/wpc/PTx\qi_auth_ptx_crypt.c **** uint16_t qi_auth_ptx_crypt_sign(uint8_t* p_digest_tbs, uint16_t digest_tbs_size, uint8_t* p_signatu
 258:C:/Users/Yushev/git/wpcqi-optiga-trust-charge/wpc/PTx\qi_auth_ptx_crypt.c **** {
 931              	 .loc 1 258 0
 932              	 .cfi_startproc
 933              	 
 934              	 
 935 0000 90B5     	 push {r4,r7,lr}
 936              	.LCFI26:
 937              	 .cfi_def_cfa_offset 12
 938              	 .cfi_offset 4,-12
 939              	 .cfi_offset 7,-8
 940              	 .cfi_offset 14,-4
 941 0002 9BB0     	 sub sp,sp,#108
 942              	.LCFI27:
 943              	 .cfi_def_cfa_offset 120
 944 0004 02AF     	 add r7,sp,#8
 945              	.LCFI28:
 946              	 .cfi_def_cfa 7,112
 947 0006 F860     	 str r0,[r7,#12]
 948 0008 7A60     	 str r2,[r7,#4]
 949 000a 3B60     	 str r3,[r7]
 950 000c 0B46     	 mov r3,r1
 951 000e 7B81     	 strh r3,[r7,#10]
 259:C:/Users/Yushev/git/wpcqi-optiga-trust-charge/wpc/PTx\qi_auth_ptx_crypt.c **** 	uint16_t  return_status = CRYPT_LIB_ERROR;
 952              	 .loc 1 259 0
 953 0010 0123     	 movs r3,#1
 954 0012 A7F85E30 	 strh r3,[r7,#94]
 260:C:/Users/Yushev/git/wpcqi-optiga-trust-charge/wpc/PTx\qi_auth_ptx_crypt.c **** 	// OPTIGA uses DER encoded signatures
 261:C:/Users/Yushev/git/wpcqi-optiga-trust-charge/wpc/PTx\qi_auth_ptx_crypt.c **** 	uint8_t der_signature[70];
 262:C:/Users/Yushev/git/wpcqi-optiga-trust-charge/wpc/PTx\qi_auth_ptx_crypt.c **** 	uint16_t der_signature_len = sizeof(der_signature);
 955              	 .loc 1 262 0
 956 0016 4623     	 movs r3,#70
 957 0018 FB82     	 strh r3,[r7,#22]
 263:C:/Users/Yushev/git/wpcqi-optiga-trust-charge/wpc/PTx\qi_auth_ptx_crypt.c ****     do
 264:C:/Users/Yushev/git/wpcqi-optiga-trust-charge/wpc/PTx\qi_auth_ptx_crypt.c ****     {
 265:C:/Users/Yushev/git/wpcqi-optiga-trust-charge/wpc/PTx\qi_auth_ptx_crypt.c ****     	if (NULL == p_signature_len)
 958              	 .loc 1 265 0
 959 001a 3B68     	 ldr r3,[r7]
 960 001c 002B     	 cmp r3,#0
 961 001e 00D1     	 bne .L65
 266:C:/Users/Yushev/git/wpcqi-optiga-trust-charge/wpc/PTx\qi_auth_ptx_crypt.c ****     		break;
 962              	 .loc 1 266 0
 963 0020 52E0     	 b .L66
 964              	.L65:
 267:C:/Users/Yushev/git/wpcqi-optiga-trust-charge/wpc/PTx\qi_auth_ptx_crypt.c **** 
 268:C:/Users/Yushev/git/wpcqi-optiga-trust-charge/wpc/PTx\qi_auth_ptx_crypt.c ****     	// Sign the resulting digest of nthe TBS Auth Data
 269:C:/Users/Yushev/git/wpcqi-optiga-trust-charge/wpc/PTx\qi_auth_ptx_crypt.c ****     	CHECK_RESULT(optiga_crypt_ecdsa_sign(p_crypt, p_digest_tbs, digest_tbs_size, QI_AUTH_DEVICE_PR
 965              	 .loc 1 269 0
 966 0022 4FF40043 	 mov r3,#32768
 967 0026 A7F85E30 	 strh r3,[r7,#94]
 968 002a 2A4B     	 ldr r3,.L72
 969 002c 0122     	 movs r2,#1
 970 002e 1A80     	 strh r2,[r3]
 971 0030 294B     	 ldr r3,.L72+4
 972 0032 1968     	 ldr r1,[r3]
 973 0034 7B89     	 ldrh r3,[r7,#10]
 974 0036 DAB2     	 uxtb r2,r3
 975 0038 07F11803 	 add r3,r7,#24
 976 003c 0093     	 str r3,[sp]
 977 003e 07F11603 	 add r3,r7,#22
 978 0042 0193     	 str r3,[sp,#4]
 979 0044 0846     	 mov r0,r1
 980 0046 F968     	 ldr r1,[r7,#12]
 981 0048 4EF2F003 	 movw r3,#57584
 982 004c FFF7FEFF 	 bl optiga_crypt_ecdsa_sign
 983 0050 0346     	 mov r3,r0
 984 0052 A7F85E30 	 strh r3,[r7,#94]
 985 0056 B7F85E30 	 ldrh r3,[r7,#94]
 986 005a 002B     	 cmp r3,#0
 987 005c 00D0     	 beq .L67
 988 005e 33E0     	 b .L66
 989              	.L67:
 990 0060 02E0     	 b .L68
 991              	.L69:
 992              	 .loc 1 269 0 is_stmt 0 discriminator 2
 993 0062 0120     	 movs r0,#1
 994 0064 FFF7FEFF 	 bl pal_os_timer_delay_in_milliseconds
 995              	.L68:
 996              	 .loc 1 269 0 discriminator 1
 997 0068 1A4B     	 ldr r3,.L72
 998 006a 1B88     	 ldrh r3,[r3]
 999 006c 9BB2     	 uxth r3,r3
 1000 006e 012B     	 cmp r3,#1
 1001 0070 F7D0     	 beq .L69
 1002              	 .loc 1 269 0 discriminator 3
 1003 0072 184B     	 ldr r3,.L72
 1004 0074 1B88     	 ldrh r3,[r3]
 1005 0076 9BB2     	 uxth r3,r3
 1006 0078 002B     	 cmp r3,#0
 1007 007a 18D0     	 beq .L70
 1008              	 .loc 1 269 0 discriminator 4
 1009 007c 154B     	 ldr r3,.L72
 1010 007e 1B88     	 ldrh r3,[r3]
 1011 0080 A7F85E30 	 strh r3,[r7,#94]
 1012 0084 134B     	 ldr r3,.L72
 1013 0086 1B88     	 ldrh r3,[r3]
 1014 0088 9BB2     	 uxth r3,r3
 1015 008a 1448     	 ldr r0,.L72+8
 1016 008c 1946     	 mov r1,r3
 1017 008e FFF7FEFF 	 bl printf
 1018 0092 134B     	 ldr r3,.L72+12
 1019 0094 1B68     	 ldr r3,[r3]
 1020 0096 1846     	 mov r0,r3
 1021 0098 FFF7FEFF 	 bl optiga_util_destroy
 1022 009c 0E4B     	 ldr r3,.L72+4
 1023 009e 1B68     	 ldr r3,[r3]
 1024 00a0 1846     	 mov r0,r3
 1025 00a2 FFF7FEFF 	 bl optiga_crypt_destroy
 1026 00a6 0020     	 movs r0,#0
 1027 00a8 FFF7FEFF 	 bl pal_os_event_destroy
 1028 00ac 0CE0     	 b .L66
 1029              	.L70:
 270:C:/Users/Yushev/git/wpcqi-optiga-trust-charge/wpc/PTx\qi_auth_ptx_crypt.c **** 
 271:C:/Users/Yushev/git/wpcqi-optiga-trust-charge/wpc/PTx\qi_auth_ptx_crypt.c ****     	asn1_to_ecdsa_rs(der_signature, der_signature_len, p_signature, *p_signature_len);
 1030              	 .loc 1 271 0 is_stmt 1
 1031 00ae FB8A     	 ldrh r3,[r7,#22]
 1032 00b0 1A46     	 mov r2,r3
 1033 00b2 3B68     	 ldr r3,[r7]
 1034 00b4 1B88     	 ldrh r3,[r3]
 1035 00b6 1C46     	 mov r4,r3
 1036 00b8 07F11803 	 add r3,r7,#24
 1037 00bc 1846     	 mov r0,r3
 1038 00be 1146     	 mov r1,r2
 1039 00c0 7A68     	 ldr r2,[r7,#4]
 1040 00c2 2346     	 mov r3,r4
 1041 00c4 FFF7FEFF 	 bl asn1_to_ecdsa_rs
 1042              	.L66:
 272:C:/Users/Yushev/git/wpcqi-optiga-trust-charge/wpc/PTx\qi_auth_ptx_crypt.c **** 
 273:C:/Users/Yushev/git/wpcqi-optiga-trust-charge/wpc/PTx\qi_auth_ptx_crypt.c ****     }while(FALSE);
 274:C:/Users/Yushev/git/wpcqi-optiga-trust-charge/wpc/PTx\qi_auth_ptx_crypt.c **** 
 275:C:/Users/Yushev/git/wpcqi-optiga-trust-charge/wpc/PTx\qi_auth_ptx_crypt.c ****     return return_status;
 1043              	 .loc 1 275 0
 1044 00c8 B7F85E30 	 ldrh r3,[r7,#94]
 276:C:/Users/Yushev/git/wpcqi-optiga-trust-charge/wpc/PTx\qi_auth_ptx_crypt.c **** }
 1045              	 .loc 1 276 0
 1046 00cc 1846     	 mov r0,r3
 1047 00ce 6437     	 adds r7,r7,#100
 1048              	.LCFI29:
 1049              	 .cfi_def_cfa_offset 12
 1050 00d0 BD46     	 mov sp,r7
 1051              	.LCFI30:
 1052              	 .cfi_def_cfa_register 13
 1053              	 
 1054 00d2 90BD     	 pop {r4,r7,pc}
 1055              	.L73:
 1056              	 .align 2
 1057              	.L72:
 1058 00d4 00000000 	 .word optiga_lib_status
 1059 00d8 00000000 	 .word p_crypt
 1060 00dc 00000000 	 .word .LC1
 1061 00e0 00000000 	 .word p_util
 1062              	 .cfi_endproc
 1063              	.LFE5:
 1065              	 .section .text.qi_auth_ptx_crypt_certchain,"ax",%progbits
 1066              	 .align 2
 1067              	 .global qi_auth_ptx_crypt_certchain
 1068              	 .thumb
 1069              	 .thumb_func
 1071              	qi_auth_ptx_crypt_certchain:
 1072              	.LFB6:
 277:C:/Users/Yushev/git/wpcqi-optiga-trust-charge/wpc/PTx\qi_auth_ptx_crypt.c **** 
 278:C:/Users/Yushev/git/wpcqi-optiga-trust-charge/wpc/PTx\qi_auth_ptx_crypt.c **** uint16_t qi_auth_ptx_crypt_certchain(uint8_t* p_certchain, uint16_t* p_certchain_size)
 279:C:/Users/Yushev/git/wpcqi-optiga-trust-charge/wpc/PTx\qi_auth_ptx_crypt.c **** {
 1073              	 .loc 1 279 0
 1074              	 .cfi_startproc
 1075              	 
 1076              	 
 1077 0000 80B5     	 push {r7,lr}
 1078              	.LCFI31:
 1079              	 .cfi_def_cfa_offset 8
 1080              	 .cfi_offset 7,-8
 1081              	 .cfi_offset 14,-4
 1082 0002 86B0     	 sub sp,sp,#24
 1083              	.LCFI32:
 1084              	 .cfi_def_cfa_offset 32
 1085 0004 02AF     	 add r7,sp,#8
 1086              	.LCFI33:
 1087              	 .cfi_def_cfa 7,24
 1088 0006 7860     	 str r0,[r7,#4]
 1089 0008 3960     	 str r1,[r7]
 280:C:/Users/Yushev/git/wpcqi-optiga-trust-charge/wpc/PTx\qi_auth_ptx_crypt.c **** 	uint16_t  return_status = CRYPT_LIB_ERROR;
 1090              	 .loc 1 280 0
 1091 000a 0123     	 movs r3,#1
 1092 000c FB81     	 strh r3,[r7,#14]
 281:C:/Users/Yushev/git/wpcqi-optiga-trust-charge/wpc/PTx\qi_auth_ptx_crypt.c **** 	uint16_t  optiga_oid = QI_AUTH_CERTCAIN_OID;
 1093              	 .loc 1 281 0
 1094 000e 4EF2E003 	 movw r3,#57568
 1095 0012 BB81     	 strh r3,[r7,#12]
 282:C:/Users/Yushev/git/wpcqi-optiga-trust-charge/wpc/PTx\qi_auth_ptx_crypt.c **** 
 283:C:/Users/Yushev/git/wpcqi-optiga-trust-charge/wpc/PTx\qi_auth_ptx_crypt.c **** 	do
 284:C:/Users/Yushev/git/wpcqi-optiga-trust-charge/wpc/PTx\qi_auth_ptx_crypt.c **** 	{
 285:C:/Users/Yushev/git/wpcqi-optiga-trust-charge/wpc/PTx\qi_auth_ptx_crypt.c **** 		/**
 286:C:/Users/Yushev/git/wpcqi-optiga-trust-charge/wpc/PTx\qi_auth_ptx_crypt.c **** 		 * 1. Read data from a data object (e.g. certificate data object)
 287:C:/Users/Yushev/git/wpcqi-optiga-trust-charge/wpc/PTx\qi_auth_ptx_crypt.c **** 		 *    using optiga_util_read_data.
 288:C:/Users/Yushev/git/wpcqi-optiga-trust-charge/wpc/PTx\qi_auth_ptx_crypt.c **** 		 */
 289:C:/Users/Yushev/git/wpcqi-optiga-trust-charge/wpc/PTx\qi_auth_ptx_crypt.c **** 
 290:C:/Users/Yushev/git/wpcqi-optiga-trust-charge/wpc/PTx\qi_auth_ptx_crypt.c **** 		CHECK_RESULT(optiga_util_read_data(p_util, optiga_oid, 0x03, p_certchain, p_certchain_size));
 1096              	 .loc 1 290 0
 1097 0014 4FF40043 	 mov r3,#32768
 1098 0018 FB81     	 strh r3,[r7,#14]
 1099 001a 1F4B     	 ldr r3,.L81
 1100 001c 0122     	 movs r2,#1
 1101 001e 1A80     	 strh r2,[r3]
 1102 0020 1E4B     	 ldr r3,.L81+4
 1103 0022 1968     	 ldr r1,[r3]
 1104 0024 BA89     	 ldrh r2,[r7,#12]
 1105 0026 3B68     	 ldr r3,[r7]
 1106 0028 0093     	 str r3,[sp]
 1107 002a 0846     	 mov r0,r1
 1108 002c 1146     	 mov r1,r2
 1109 002e 0322     	 movs r2,#3
 1110 0030 7B68     	 ldr r3,[r7,#4]
 1111 0032 FFF7FEFF 	 bl optiga_util_read_data
 1112 0036 0346     	 mov r3,r0
 1113 0038 FB81     	 strh r3,[r7,#14]
 1114 003a FB89     	 ldrh r3,[r7,#14]
 1115 003c 002B     	 cmp r3,#0
 1116 003e 00D0     	 beq .L75
 1117 0040 24E0     	 b .L80
 1118              	.L75:
 1119 0042 02E0     	 b .L77
 1120              	.L78:
 1121              	 .loc 1 290 0 is_stmt 0 discriminator 2
 1122 0044 0120     	 movs r0,#1
 1123 0046 FFF7FEFF 	 bl pal_os_timer_delay_in_milliseconds
 1124              	.L77:
 1125              	 .loc 1 290 0 discriminator 1
 1126 004a 134B     	 ldr r3,.L81
 1127 004c 1B88     	 ldrh r3,[r3]
 1128 004e 9BB2     	 uxth r3,r3
 1129 0050 012B     	 cmp r3,#1
 1130 0052 F7D0     	 beq .L78
 1131              	 .loc 1 290 0 discriminator 3
 1132 0054 104B     	 ldr r3,.L81
 1133 0056 1B88     	 ldrh r3,[r3]
 1134 0058 9BB2     	 uxth r3,r3
 1135 005a 002B     	 cmp r3,#0
 1136 005c 17D0     	 beq .L76
 1137              	 .loc 1 290 0 discriminator 4
 1138 005e 0E4B     	 ldr r3,.L81
 1139 0060 1B88     	 ldrh r3,[r3]
 1140 0062 FB81     	 strh r3,[r7,#14]
 1141 0064 0C4B     	 ldr r3,.L81
 1142 0066 1B88     	 ldrh r3,[r3]
 1143 0068 9BB2     	 uxth r3,r3
 1144 006a 0D48     	 ldr r0,.L81+8
 1145 006c 1946     	 mov r1,r3
 1146 006e FFF7FEFF 	 bl printf
 1147 0072 0A4B     	 ldr r3,.L81+4
 1148 0074 1B68     	 ldr r3,[r3]
 1149 0076 1846     	 mov r0,r3
 1150 0078 FFF7FEFF 	 bl optiga_util_destroy
 1151 007c 094B     	 ldr r3,.L81+12
 1152 007e 1B68     	 ldr r3,[r3]
 1153 0080 1846     	 mov r0,r3
 1154 0082 FFF7FEFF 	 bl optiga_crypt_destroy
 1155 0086 0020     	 movs r0,#0
 1156 0088 FFF7FEFF 	 bl pal_os_event_destroy
 1157              	.L80:
 1158              	 .loc 1 290 0
 1159 008c 00BF     	 nop
 1160              	.L76:
 291:C:/Users/Yushev/git/wpcqi-optiga-trust-charge/wpc/PTx\qi_auth_ptx_crypt.c **** 	}while(0);
 292:C:/Users/Yushev/git/wpcqi-optiga-trust-charge/wpc/PTx\qi_auth_ptx_crypt.c **** 
 293:C:/Users/Yushev/git/wpcqi-optiga-trust-charge/wpc/PTx\qi_auth_ptx_crypt.c **** 	return return_status;
 1161              	 .loc 1 293 0 is_stmt 1
 1162 008e FB89     	 ldrh r3,[r7,#14]
 294:C:/Users/Yushev/git/wpcqi-optiga-trust-charge/wpc/PTx\qi_auth_ptx_crypt.c **** }
 1163              	 .loc 1 294 0
 1164 0090 1846     	 mov r0,r3
 1165 0092 1037     	 adds r7,r7,#16
 1166              	.LCFI34:
 1167              	 .cfi_def_cfa_offset 8
 1168 0094 BD46     	 mov sp,r7
 1169              	.LCFI35:
 1170              	 .cfi_def_cfa_register 13
 1171              	 
 1172 0096 80BD     	 pop {r7,pc}
 1173              	.L82:
 1174              	 .align 2
 1175              	.L81:
 1176 0098 00000000 	 .word optiga_lib_status
 1177 009c 00000000 	 .word p_util
 1178 00a0 00000000 	 .word .LC1
 1179 00a4 00000000 	 .word p_crypt
 1180              	 .cfi_endproc
 1181              	.LFE6:
 1183              	 .section .rodata
 1184 001a 0000     	 .align 2
 1185              	.LC2:
 1186 001c 4572726F 	 .ascii "Error #1: optiga_init\015\000"
 1186      72202331 
 1186      3A206F70 
 1186      74696761 
 1186      5F696E69 
 1187              	 .section .text.qi_auth_ptx_crypt_init,"ax",%progbits
 1188              	 .align 2
 1189              	 .global qi_auth_ptx_crypt_init
 1190              	 .thumb
 1191              	 .thumb_func
 1193              	qi_auth_ptx_crypt_init:
 1194              	.LFB7:
 295:C:/Users/Yushev/git/wpcqi-optiga-trust-charge/wpc/PTx\qi_auth_ptx_crypt.c **** 
 296:C:/Users/Yushev/git/wpcqi-optiga-trust-charge/wpc/PTx\qi_auth_ptx_crypt.c **** int32_t qi_auth_ptx_crypt_init(uint8_t restore_from_hibernate)
 297:C:/Users/Yushev/git/wpcqi-optiga-trust-charge/wpc/PTx\qi_auth_ptx_crypt.c **** {
 1195              	 .loc 1 297 0
 1196              	 .cfi_startproc
 1197              	 
 1198              	 
 1199 0000 80B5     	 push {r7,lr}
 1200              	.LCFI36:
 1201              	 .cfi_def_cfa_offset 8
 1202              	 .cfi_offset 7,-8
 1203              	 .cfi_offset 14,-4
 1204 0002 84B0     	 sub sp,sp,#16
 1205              	.LCFI37:
 1206              	 .cfi_def_cfa_offset 24
 1207 0004 00AF     	 add r7,sp,#0
 1208              	.LCFI38:
 1209              	 .cfi_def_cfa_register 7
 1210 0006 0346     	 mov r3,r0
 1211 0008 FB71     	 strb r3,[r7,#7]
 298:C:/Users/Yushev/git/wpcqi-optiga-trust-charge/wpc/PTx\qi_auth_ptx_crypt.c **** 	uint16_t return_status  = CRYPT_LIB_ERROR;
 1212              	 .loc 1 298 0
 1213 000a 0123     	 movs r3,#1
 1214 000c FB81     	 strh r3,[r7,#14]
 299:C:/Users/Yushev/git/wpcqi-optiga-trust-charge/wpc/PTx\qi_auth_ptx_crypt.c **** 
 300:C:/Users/Yushev/git/wpcqi-optiga-trust-charge/wpc/PTx\qi_auth_ptx_crypt.c **** 	return_status = optiga_init(restore_from_hibernate);
 1215              	 .loc 1 300 0
 1216 000e FB79     	 ldrb r3,[r7,#7]
 1217 0010 1846     	 mov r0,r3
 1218 0012 FFF7FEFF 	 bl optiga_init
 1219 0016 0346     	 mov r3,r0
 1220 0018 FB81     	 strh r3,[r7,#14]
 301:C:/Users/Yushev/git/wpcqi-optiga-trust-charge/wpc/PTx\qi_auth_ptx_crypt.c **** 	if (CRYPT_LIB_OK != return_status)
 1221              	 .loc 1 301 0
 1222 001a FB89     	 ldrh r3,[r7,#14]
 1223 001c 002B     	 cmp r3,#0
 1224 001e 02D0     	 beq .L84
 302:C:/Users/Yushev/git/wpcqi-optiga-trust-charge/wpc/PTx\qi_auth_ptx_crypt.c **** 	{
 303:C:/Users/Yushev/git/wpcqi-optiga-trust-charge/wpc/PTx\qi_auth_ptx_crypt.c **** 		printf("Error #1: optiga_init\r\n");
 1225              	 .loc 1 303 0
 1226 0020 0348     	 ldr r0,.L86
 1227 0022 FFF7FEFF 	 bl puts
 1228              	.L84:
 304:C:/Users/Yushev/git/wpcqi-optiga-trust-charge/wpc/PTx\qi_auth_ptx_crypt.c **** 	}
 305:C:/Users/Yushev/git/wpcqi-optiga-trust-charge/wpc/PTx\qi_auth_ptx_crypt.c **** 
 306:C:/Users/Yushev/git/wpcqi-optiga-trust-charge/wpc/PTx\qi_auth_ptx_crypt.c **** 	return return_status;
 1229              	 .loc 1 306 0
 1230 0026 FB89     	 ldrh r3,[r7,#14]
 307:C:/Users/Yushev/git/wpcqi-optiga-trust-charge/wpc/PTx\qi_auth_ptx_crypt.c **** }
 1231              	 .loc 1 307 0
 1232 0028 1846     	 mov r0,r3
 1233 002a 1037     	 adds r7,r7,#16
 1234              	.LCFI39:
 1235              	 .cfi_def_cfa_offset 8
 1236 002c BD46     	 mov sp,r7
 1237              	.LCFI40:
 1238              	 .cfi_def_cfa_register 13
 1239              	 
 1240 002e 80BD     	 pop {r7,pc}
 1241              	.L87:
 1242              	 .align 2
 1243              	.L86:
 1244 0030 1C000000 	 .word .LC2
 1245              	 .cfi_endproc
 1246              	.LFE7:
 1248              	 .section .rodata
 1249 0033 00       	 .align 2
 1250              	.LC3:
 1251 0034 4572726F 	 .ascii "Error #1: optiga_deinit\015\000"
 1251      72202331 
 1251      3A206F70 
 1251      74696761 
 1251      5F646569 
 1252 004d 000000   	 .section .text.qi_auth_ptx_crypt_deinit,"ax",%progbits
 1253              	 .align 2
 1254              	 .global qi_auth_ptx_crypt_deinit
 1255              	 .thumb
 1256              	 .thumb_func
 1258              	qi_auth_ptx_crypt_deinit:
 1259              	.LFB8:
 308:C:/Users/Yushev/git/wpcqi-optiga-trust-charge/wpc/PTx\qi_auth_ptx_crypt.c **** 
 309:C:/Users/Yushev/git/wpcqi-optiga-trust-charge/wpc/PTx\qi_auth_ptx_crypt.c **** int32_t qi_auth_ptx_crypt_deinit(uint8_t hibernate_chip)
 310:C:/Users/Yushev/git/wpcqi-optiga-trust-charge/wpc/PTx\qi_auth_ptx_crypt.c **** {
 1260              	 .loc 1 310 0
 1261              	 .cfi_startproc
 1262              	 
 1263              	 
 1264 0000 80B5     	 push {r7,lr}
 1265              	.LCFI41:
 1266              	 .cfi_def_cfa_offset 8
 1267              	 .cfi_offset 7,-8
 1268              	 .cfi_offset 14,-4
 1269 0002 84B0     	 sub sp,sp,#16
 1270              	.LCFI42:
 1271              	 .cfi_def_cfa_offset 24
 1272 0004 00AF     	 add r7,sp,#0
 1273              	.LCFI43:
 1274              	 .cfi_def_cfa_register 7
 1275 0006 0346     	 mov r3,r0
 1276 0008 FB71     	 strb r3,[r7,#7]
 311:C:/Users/Yushev/git/wpcqi-optiga-trust-charge/wpc/PTx\qi_auth_ptx_crypt.c **** 	uint16_t return_status  = CRYPT_LIB_ERROR;
 1277              	 .loc 1 311 0
 1278 000a 0123     	 movs r3,#1
 1279 000c FB81     	 strh r3,[r7,#14]
 312:C:/Users/Yushev/git/wpcqi-optiga-trust-charge/wpc/PTx\qi_auth_ptx_crypt.c **** 
 313:C:/Users/Yushev/git/wpcqi-optiga-trust-charge/wpc/PTx\qi_auth_ptx_crypt.c **** 	return_status = optiga_deinit(hibernate_chip);
 1280              	 .loc 1 313 0
 1281 000e FB79     	 ldrb r3,[r7,#7]
 1282 0010 1846     	 mov r0,r3
 1283 0012 FFF7FEFF 	 bl optiga_deinit
 1284 0016 0346     	 mov r3,r0
 1285 0018 FB81     	 strh r3,[r7,#14]
 314:C:/Users/Yushev/git/wpcqi-optiga-trust-charge/wpc/PTx\qi_auth_ptx_crypt.c **** 	if (CRYPT_LIB_OK != return_status)
 1286              	 .loc 1 314 0
 1287 001a FB89     	 ldrh r3,[r7,#14]
 1288 001c 002B     	 cmp r3,#0
 1289 001e 02D0     	 beq .L89
 315:C:/Users/Yushev/git/wpcqi-optiga-trust-charge/wpc/PTx\qi_auth_ptx_crypt.c **** 	{
 316:C:/Users/Yushev/git/wpcqi-optiga-trust-charge/wpc/PTx\qi_auth_ptx_crypt.c **** 		printf("Error #1: optiga_deinit\r\n");
 1290              	 .loc 1 316 0
 1291 0020 0348     	 ldr r0,.L91
 1292 0022 FFF7FEFF 	 bl puts
 1293              	.L89:
 317:C:/Users/Yushev/git/wpcqi-optiga-trust-charge/wpc/PTx\qi_auth_ptx_crypt.c **** 	}
 318:C:/Users/Yushev/git/wpcqi-optiga-trust-charge/wpc/PTx\qi_auth_ptx_crypt.c **** 
 319:C:/Users/Yushev/git/wpcqi-optiga-trust-charge/wpc/PTx\qi_auth_ptx_crypt.c **** 	return return_status;
 1294              	 .loc 1 319 0
 1295 0026 FB89     	 ldrh r3,[r7,#14]
 320:C:/Users/Yushev/git/wpcqi-optiga-trust-charge/wpc/PTx\qi_auth_ptx_crypt.c **** }
 1296              	 .loc 1 320 0
 1297 0028 1846     	 mov r0,r3
 1298 002a 1037     	 adds r7,r7,#16
 1299              	.LCFI44:
 1300              	 .cfi_def_cfa_offset 8
 1301 002c BD46     	 mov sp,r7
 1302              	.LCFI45:
 1303              	 .cfi_def_cfa_register 13
 1304              	 
 1305 002e 80BD     	 pop {r7,pc}
 1306              	.L92:
 1307              	 .align 2
 1308              	.L91:
 1309 0030 34000000 	 .word .LC3
 1310              	 .cfi_endproc
 1311              	.LFE8:
 1313              	 .text
 1314              	.Letext0:
 1315              	 .file 2 "c:\\users\\yushev\\dave_4-4-2_32bit_2018-02-23\\dave-ide-4.4.2-32bit\\eclipse\\arm-gcc-49\\arm-none-eabi\\include\\machine\\_default_types.h"
 1316              	 .file 3 "c:\\users\\yushev\\dave_4-4-2_32bit_2018-02-23\\dave-ide-4.4.2-32bit\\eclipse\\arm-gcc-49\\arm-none-eabi\\include\\stdint.h"
 1317              	 .file 4 "C:/Users/Yushev/git/wpcqi-optiga-trust-charge/optiga/optiga/include/optiga/common/optiga_lib_types.h"
 1318              	 .file 5 "C:/Users/Yushev/git/wpcqi-optiga-trust-charge/optiga/optiga/include/optiga/common/optiga_lib_common.h"
 1319              	 .file 6 "C:/Users/Yushev/git/wpcqi-optiga-trust-charge/optiga/optiga/include/optiga/cmd/optiga_cmd.h"
 1320              	 .file 7 "C:/Users/Yushev/git/wpcqi-optiga-trust-charge/optiga/optiga/include/optiga/optiga_crypt.h"
 1321              	 .file 8 "C:/Users/Yushev/git/wpcqi-optiga-trust-charge/optiga/optiga/include/optiga/optiga_util.h"