Certificate:
    Data:
        Version: 3 (0x2)
        Serial Number: 305419896 (0x12345678)
        Signature Algorithm: ecdsa-with-SHA256
        Issuer: CN=WPCCA1
        Validity
            Not Before: Jan  1 00:00:00 1970 GMT
            Not After : Dec 31 23:59:59 9999 GMT
        Subject: CN=WPCCA1
        Subject Public Key Info:
            Public Key Algorithm: id-ecPublicKey
                Public-Key: (256 bit)
                pub:
                    02:8a:5a:eb:6a:e1:f3:19:fe:61:42:a7:6f:70:ec:
                    ef:51:7a:45:eb:4e:01:8e:a7:c4:2c:94:a9:17:26:
                    76:53:46
                ASN1 OID: prime256v1
                NIST CURVE: P-256
        X509v3 extensions:
            X509v3 Basic Constraints: critical
                CA:TRUE
    Signature Algorithm: ecdsa-with-SHA256
         30:44:02:20:4f:64:50:c9:2a:49:0d:7b:c2:43:bd:ad:b4:3a:
         59:dc:e4:97:d5:d7:ae:4d:10:88:d1:5f:48:34:f5:03:24:80:
         02:20:7c:cb:55:f4:b6:62:68:c8:b6:98:48:50:b1:d4:bc:8d:
         be:a1:59:cd:c1:b1:61:0a:b8:d3:f0:44:6b:bd:50:66
-----BEGIN CERTIFICATE-----
MIIBBzCBr6ADAgECAgQSNFZ4MAoGCCqGSM49BAMCMBExDzANBgNVBAMMBldQQ0NB
MTAgFw03MDAxMDEwMDAwMDBaGA85OTk5MTIzMTIzNTk1OVowETEPMA0GA1UEAwwG
V1BDQ0ExMDkwEwYHKoZIzj0CAQYIKoZIzj0DAQcDIgACilrrauHzGf5hQqdvcOzv
UXpF604BjqfELJSpFyZ2U0ajEzARMA8GA1UdEwEB/wQFMAMBAf8wCgYIKoZIzj0E
AwIDRwAwRAIgT2RQySpJDXvCQ72ttDpZ3OSX1deuTRCI0V9INPUDJIACIHzLVfS2
YmjItphIULHUvI2+oVnNwbFhCrjT8ERrvVBm
-----END CERTIFICATE-----
