   1              	 .syntax unified
   2              	 .cpu cortex-m4
   3              	 .eabi_attribute 27,3
   4              	 .fpu fpv4-sp-d16
   5              	 .eabi_attribute 20,1
   6              	 .eabi_attribute 21,1
   7              	 .eabi_attribute 23,3
   8              	 .eabi_attribute 24,1
   9              	 .eabi_attribute 25,1
  10              	 .eabi_attribute 26,1
  11              	 .eabi_attribute 30,6
  12              	 .eabi_attribute 34,1
  13              	 .eabi_attribute 18,4
  14              	 .thumb
  15              	 .file "xmc_ledts.c"
  16              	 .text
  17              	.Ltext0:
  18              	 .cfi_sections .debug_frame
  19              	 .section .text.XMC_LEDTS_InitGlobal,"ax",%progbits
  20              	 .align 2
  21              	 .global XMC_LEDTS_InitGlobal
  22              	 .thumb
  23              	 .thumb_func
  25              	XMC_LEDTS_InitGlobal:
  26              	.LFB171:
  27              	 .file 1 "C:/Users/Yushev/git/wpcqi-optiga-trust-charge/projects/xmc4700_relax_kit_qi_auth_example/common/Libraries/XMCLib/src/xmc_ledts.c"
   1:C:/Users/Yushev/git/wpcqi-optiga-trust-charge/projects/xmc4700_relax_kit_qi_auth_example/common/Libraries/XMCLib/src\xmc_ledts.c **** /**
   2:C:/Users/Yushev/git/wpcqi-optiga-trust-charge/projects/xmc4700_relax_kit_qi_auth_example/common/Libraries/XMCLib/src\xmc_ledts.c ****  * @file xmc_ledts.c
   3:C:/Users/Yushev/git/wpcqi-optiga-trust-charge/projects/xmc4700_relax_kit_qi_auth_example/common/Libraries/XMCLib/src\xmc_ledts.c ****  * @date 2017-02-25
   4:C:/Users/Yushev/git/wpcqi-optiga-trust-charge/projects/xmc4700_relax_kit_qi_auth_example/common/Libraries/XMCLib/src\xmc_ledts.c ****  *
   5:C:/Users/Yushev/git/wpcqi-optiga-trust-charge/projects/xmc4700_relax_kit_qi_auth_example/common/Libraries/XMCLib/src\xmc_ledts.c ****  * @cond
   6:C:/Users/Yushev/git/wpcqi-optiga-trust-charge/projects/xmc4700_relax_kit_qi_auth_example/common/Libraries/XMCLib/src\xmc_ledts.c ****  **************************************************************************************************
   7:C:/Users/Yushev/git/wpcqi-optiga-trust-charge/projects/xmc4700_relax_kit_qi_auth_example/common/Libraries/XMCLib/src\xmc_ledts.c ****  * XMClib v2.1.20 - XMC Peripheral Driver Library 
   8:C:/Users/Yushev/git/wpcqi-optiga-trust-charge/projects/xmc4700_relax_kit_qi_auth_example/common/Libraries/XMCLib/src\xmc_ledts.c ****  *
   9:C:/Users/Yushev/git/wpcqi-optiga-trust-charge/projects/xmc4700_relax_kit_qi_auth_example/common/Libraries/XMCLib/src\xmc_ledts.c ****  * Copyright (c) 2015-2018, Infineon Technologies AG
  10:C:/Users/Yushev/git/wpcqi-optiga-trust-charge/projects/xmc4700_relax_kit_qi_auth_example/common/Libraries/XMCLib/src\xmc_ledts.c ****  * All rights reserved.                        
  11:C:/Users/Yushev/git/wpcqi-optiga-trust-charge/projects/xmc4700_relax_kit_qi_auth_example/common/Libraries/XMCLib/src\xmc_ledts.c ****  *                                             
  12:C:/Users/Yushev/git/wpcqi-optiga-trust-charge/projects/xmc4700_relax_kit_qi_auth_example/common/Libraries/XMCLib/src\xmc_ledts.c ****  * Redistribution and use in source and binary forms, with or without modification,are permitted pr
  13:C:/Users/Yushev/git/wpcqi-optiga-trust-charge/projects/xmc4700_relax_kit_qi_auth_example/common/Libraries/XMCLib/src\xmc_ledts.c ****  * following conditions are met:   
  14:C:/Users/Yushev/git/wpcqi-optiga-trust-charge/projects/xmc4700_relax_kit_qi_auth_example/common/Libraries/XMCLib/src\xmc_ledts.c ****  *                                                                              
  15:C:/Users/Yushev/git/wpcqi-optiga-trust-charge/projects/xmc4700_relax_kit_qi_auth_example/common/Libraries/XMCLib/src\xmc_ledts.c ****  * Redistributions of source code must retain the above copyright notice, this list of conditions a
  16:C:/Users/Yushev/git/wpcqi-optiga-trust-charge/projects/xmc4700_relax_kit_qi_auth_example/common/Libraries/XMCLib/src\xmc_ledts.c ****  * disclaimer.                        
  17:C:/Users/Yushev/git/wpcqi-optiga-trust-charge/projects/xmc4700_relax_kit_qi_auth_example/common/Libraries/XMCLib/src\xmc_ledts.c ****  * 
  18:C:/Users/Yushev/git/wpcqi-optiga-trust-charge/projects/xmc4700_relax_kit_qi_auth_example/common/Libraries/XMCLib/src\xmc_ledts.c ****  * Redistributions in binary form must reproduce the above copyright notice, this list of condition
  19:C:/Users/Yushev/git/wpcqi-optiga-trust-charge/projects/xmc4700_relax_kit_qi_auth_example/common/Libraries/XMCLib/src\xmc_ledts.c ****  * disclaimer in the documentation and/or other materials provided with the distribution.          
  20:C:/Users/Yushev/git/wpcqi-optiga-trust-charge/projects/xmc4700_relax_kit_qi_auth_example/common/Libraries/XMCLib/src\xmc_ledts.c ****  * 
  21:C:/Users/Yushev/git/wpcqi-optiga-trust-charge/projects/xmc4700_relax_kit_qi_auth_example/common/Libraries/XMCLib/src\xmc_ledts.c ****  * Neither the name of the copyright holders nor the names of its contributors may be used to endor
  22:C:/Users/Yushev/git/wpcqi-optiga-trust-charge/projects/xmc4700_relax_kit_qi_auth_example/common/Libraries/XMCLib/src\xmc_ledts.c ****  * products derived from this software without specific prior written permission.                  
  23:C:/Users/Yushev/git/wpcqi-optiga-trust-charge/projects/xmc4700_relax_kit_qi_auth_example/common/Libraries/XMCLib/src\xmc_ledts.c ****  *                                                                              
  24:C:/Users/Yushev/git/wpcqi-optiga-trust-charge/projects/xmc4700_relax_kit_qi_auth_example/common/Libraries/XMCLib/src\xmc_ledts.c ****  * THIS SOFTWARE IS PROVIDED BY THE COPYRIGHT HOLDERS AND CONTRIBUTORS "AS IS" AND ANY EXPRESS OR I
  25:C:/Users/Yushev/git/wpcqi-optiga-trust-charge/projects/xmc4700_relax_kit_qi_auth_example/common/Libraries/XMCLib/src\xmc_ledts.c ****  * INCLUDING, BUT NOT LIMITED TO, THE IMPLIED WARRANTIES OF MERCHANTABILITY AND FITNESS FOR A PARTI
  26:C:/Users/Yushev/git/wpcqi-optiga-trust-charge/projects/xmc4700_relax_kit_qi_auth_example/common/Libraries/XMCLib/src\xmc_ledts.c ****  * DISCLAIMED. IN NO EVENT SHALL THE COPYRIGHT HOLDER OR CONTRIBUTORS BE LIABLE  FOR ANY DIRECT, IN
  27:C:/Users/Yushev/git/wpcqi-optiga-trust-charge/projects/xmc4700_relax_kit_qi_auth_example/common/Libraries/XMCLib/src\xmc_ledts.c ****  * SPECIAL, EXEMPLARY, OR CONSEQUENTIAL DAMAGES (INCLUDING, BUT NOT LIMITED TO, PROCUREMENT OF SUBS
  28:C:/Users/Yushev/git/wpcqi-optiga-trust-charge/projects/xmc4700_relax_kit_qi_auth_example/common/Libraries/XMCLib/src\xmc_ledts.c ****  * SERVICES; LOSS OF USE, DATA, OR PROFITS; OR BUSINESS INTERRUPTION) HOWEVER CAUSED AND ON ANY THE
  29:C:/Users/Yushev/git/wpcqi-optiga-trust-charge/projects/xmc4700_relax_kit_qi_auth_example/common/Libraries/XMCLib/src\xmc_ledts.c ****  * WHETHER IN CONTRACT, STRICT LIABILITY,OR TORT (INCLUDING NEGLIGENCE OR OTHERWISE) ARISING IN ANY
  30:C:/Users/Yushev/git/wpcqi-optiga-trust-charge/projects/xmc4700_relax_kit_qi_auth_example/common/Libraries/XMCLib/src\xmc_ledts.c ****  * OF THIS SOFTWARE, EVEN IF ADVISED OF THE POSSIBILITY OF SUCH DAMAGE.                            
  31:C:/Users/Yushev/git/wpcqi-optiga-trust-charge/projects/xmc4700_relax_kit_qi_auth_example/common/Libraries/XMCLib/src\xmc_ledts.c ****  *                                                                              
  32:C:/Users/Yushev/git/wpcqi-optiga-trust-charge/projects/xmc4700_relax_kit_qi_auth_example/common/Libraries/XMCLib/src\xmc_ledts.c ****  * To improve the quality of the software, users are encouraged to share modifications, enhancement
  33:C:/Users/Yushev/git/wpcqi-optiga-trust-charge/projects/xmc4700_relax_kit_qi_auth_example/common/Libraries/XMCLib/src\xmc_ledts.c ****  * Infineon Technologies AG dave@infineon.com).                                                    
  34:C:/Users/Yushev/git/wpcqi-optiga-trust-charge/projects/xmc4700_relax_kit_qi_auth_example/common/Libraries/XMCLib/src\xmc_ledts.c ****  **************************************************************************************************
  35:C:/Users/Yushev/git/wpcqi-optiga-trust-charge/projects/xmc4700_relax_kit_qi_auth_example/common/Libraries/XMCLib/src\xmc_ledts.c ****  *
  36:C:/Users/Yushev/git/wpcqi-optiga-trust-charge/projects/xmc4700_relax_kit_qi_auth_example/common/Libraries/XMCLib/src\xmc_ledts.c ****  * Change History
  37:C:/Users/Yushev/git/wpcqi-optiga-trust-charge/projects/xmc4700_relax_kit_qi_auth_example/common/Libraries/XMCLib/src\xmc_ledts.c ****  * --------------
  38:C:/Users/Yushev/git/wpcqi-optiga-trust-charge/projects/xmc4700_relax_kit_qi_auth_example/common/Libraries/XMCLib/src\xmc_ledts.c ****  *
  39:C:/Users/Yushev/git/wpcqi-optiga-trust-charge/projects/xmc4700_relax_kit_qi_auth_example/common/Libraries/XMCLib/src\xmc_ledts.c ****  * 2015-02-20:
  40:C:/Users/Yushev/git/wpcqi-optiga-trust-charge/projects/xmc4700_relax_kit_qi_auth_example/common/Libraries/XMCLib/src\xmc_ledts.c ****  *     - Initial draft <br>
  41:C:/Users/Yushev/git/wpcqi-optiga-trust-charge/projects/xmc4700_relax_kit_qi_auth_example/common/Libraries/XMCLib/src\xmc_ledts.c ****  *     - New API added: XMC_LEDTS_SetActivePADNo() <br>
  42:C:/Users/Yushev/git/wpcqi-optiga-trust-charge/projects/xmc4700_relax_kit_qi_auth_example/common/Libraries/XMCLib/src\xmc_ledts.c ****  *      
  43:C:/Users/Yushev/git/wpcqi-optiga-trust-charge/projects/xmc4700_relax_kit_qi_auth_example/common/Libraries/XMCLib/src\xmc_ledts.c ****  * 2015-06-20:
  44:C:/Users/Yushev/git/wpcqi-optiga-trust-charge/projects/xmc4700_relax_kit_qi_auth_example/common/Libraries/XMCLib/src\xmc_ledts.c ****  *     - Removed version macros and declaration of GetDriverVersion API
  45:C:/Users/Yushev/git/wpcqi-optiga-trust-charge/projects/xmc4700_relax_kit_qi_auth_example/common/Libraries/XMCLib/src\xmc_ledts.c ****  *
  46:C:/Users/Yushev/git/wpcqi-optiga-trust-charge/projects/xmc4700_relax_kit_qi_auth_example/common/Libraries/XMCLib/src\xmc_ledts.c ****  * 2017-02-25:
  47:C:/Users/Yushev/git/wpcqi-optiga-trust-charge/projects/xmc4700_relax_kit_qi_auth_example/common/Libraries/XMCLib/src\xmc_ledts.c ****  *     - XMC_LEDTS_InitGlobal() fixed compilation warnings
  48:C:/Users/Yushev/git/wpcqi-optiga-trust-charge/projects/xmc4700_relax_kit_qi_auth_example/common/Libraries/XMCLib/src\xmc_ledts.c ****  *
  49:C:/Users/Yushev/git/wpcqi-optiga-trust-charge/projects/xmc4700_relax_kit_qi_auth_example/common/Libraries/XMCLib/src\xmc_ledts.c ****  * <b>Detailed description of file:</b><br>
  50:C:/Users/Yushev/git/wpcqi-optiga-trust-charge/projects/xmc4700_relax_kit_qi_auth_example/common/Libraries/XMCLib/src\xmc_ledts.c ****  * APIs for the functional blocks of LEDTS have been defined:<br>
  51:C:/Users/Yushev/git/wpcqi-optiga-trust-charge/projects/xmc4700_relax_kit_qi_auth_example/common/Libraries/XMCLib/src\xmc_ledts.c ****  * -- GLOBAL (APIs prefixed with LEDTS_GLOBAL_) <br>
  52:C:/Users/Yushev/git/wpcqi-optiga-trust-charge/projects/xmc4700_relax_kit_qi_auth_example/common/Libraries/XMCLib/src\xmc_ledts.c ****  * -- Clock configuration, Function/Event configuration, Interrupt configuration
  53:C:/Users/Yushev/git/wpcqi-optiga-trust-charge/projects/xmc4700_relax_kit_qi_auth_example/common/Libraries/XMCLib/src\xmc_ledts.c ****  *
  54:C:/Users/Yushev/git/wpcqi-optiga-trust-charge/projects/xmc4700_relax_kit_qi_auth_example/common/Libraries/XMCLib/src\xmc_ledts.c ****  * @endcond
  55:C:/Users/Yushev/git/wpcqi-optiga-trust-charge/projects/xmc4700_relax_kit_qi_auth_example/common/Libraries/XMCLib/src\xmc_ledts.c ****  *
  56:C:/Users/Yushev/git/wpcqi-optiga-trust-charge/projects/xmc4700_relax_kit_qi_auth_example/common/Libraries/XMCLib/src\xmc_ledts.c ****  */
  57:C:/Users/Yushev/git/wpcqi-optiga-trust-charge/projects/xmc4700_relax_kit_qi_auth_example/common/Libraries/XMCLib/src\xmc_ledts.c **** 
  58:C:/Users/Yushev/git/wpcqi-optiga-trust-charge/projects/xmc4700_relax_kit_qi_auth_example/common/Libraries/XMCLib/src\xmc_ledts.c **** /**************************************************************************************************
  59:C:/Users/Yushev/git/wpcqi-optiga-trust-charge/projects/xmc4700_relax_kit_qi_auth_example/common/Libraries/XMCLib/src\xmc_ledts.c ****  * HEADER FILES
  60:C:/Users/Yushev/git/wpcqi-optiga-trust-charge/projects/xmc4700_relax_kit_qi_auth_example/common/Libraries/XMCLib/src\xmc_ledts.c ****  **************************************************************************************************
  61:C:/Users/Yushev/git/wpcqi-optiga-trust-charge/projects/xmc4700_relax_kit_qi_auth_example/common/Libraries/XMCLib/src\xmc_ledts.c **** #include <xmc_ledts.h>
  62:C:/Users/Yushev/git/wpcqi-optiga-trust-charge/projects/xmc4700_relax_kit_qi_auth_example/common/Libraries/XMCLib/src\xmc_ledts.c **** 
  63:C:/Users/Yushev/git/wpcqi-optiga-trust-charge/projects/xmc4700_relax_kit_qi_auth_example/common/Libraries/XMCLib/src\xmc_ledts.c **** #if defined(LEDTS0)
  64:C:/Users/Yushev/git/wpcqi-optiga-trust-charge/projects/xmc4700_relax_kit_qi_auth_example/common/Libraries/XMCLib/src\xmc_ledts.c **** #include "xmc_scu.h"
  65:C:/Users/Yushev/git/wpcqi-optiga-trust-charge/projects/xmc4700_relax_kit_qi_auth_example/common/Libraries/XMCLib/src\xmc_ledts.c **** 
  66:C:/Users/Yushev/git/wpcqi-optiga-trust-charge/projects/xmc4700_relax_kit_qi_auth_example/common/Libraries/XMCLib/src\xmc_ledts.c **** /**************************************************************************************************
  67:C:/Users/Yushev/git/wpcqi-optiga-trust-charge/projects/xmc4700_relax_kit_qi_auth_example/common/Libraries/XMCLib/src\xmc_ledts.c ****  * MACROS
  68:C:/Users/Yushev/git/wpcqi-optiga-trust-charge/projects/xmc4700_relax_kit_qi_auth_example/common/Libraries/XMCLib/src\xmc_ledts.c ****  **************************************************************************************************
  69:C:/Users/Yushev/git/wpcqi-optiga-trust-charge/projects/xmc4700_relax_kit_qi_auth_example/common/Libraries/XMCLib/src\xmc_ledts.c **** #define XMC_LEDTS_CLOCK_NOT_RUNNING 0U
  70:C:/Users/Yushev/git/wpcqi-optiga-trust-charge/projects/xmc4700_relax_kit_qi_auth_example/common/Libraries/XMCLib/src\xmc_ledts.c **** 
  71:C:/Users/Yushev/git/wpcqi-optiga-trust-charge/projects/xmc4700_relax_kit_qi_auth_example/common/Libraries/XMCLib/src\xmc_ledts.c **** /**************************************************************************************************
  72:C:/Users/Yushev/git/wpcqi-optiga-trust-charge/projects/xmc4700_relax_kit_qi_auth_example/common/Libraries/XMCLib/src\xmc_ledts.c ****  * ENUMS
  73:C:/Users/Yushev/git/wpcqi-optiga-trust-charge/projects/xmc4700_relax_kit_qi_auth_example/common/Libraries/XMCLib/src\xmc_ledts.c ****  **************************************************************************************************
  74:C:/Users/Yushev/git/wpcqi-optiga-trust-charge/projects/xmc4700_relax_kit_qi_auth_example/common/Libraries/XMCLib/src\xmc_ledts.c **** 
  75:C:/Users/Yushev/git/wpcqi-optiga-trust-charge/projects/xmc4700_relax_kit_qi_auth_example/common/Libraries/XMCLib/src\xmc_ledts.c **** /**************************************************************************************************
  76:C:/Users/Yushev/git/wpcqi-optiga-trust-charge/projects/xmc4700_relax_kit_qi_auth_example/common/Libraries/XMCLib/src\xmc_ledts.c ****  * DATA STRUCTURES
  77:C:/Users/Yushev/git/wpcqi-optiga-trust-charge/projects/xmc4700_relax_kit_qi_auth_example/common/Libraries/XMCLib/src\xmc_ledts.c ****  **************************************************************************************************
  78:C:/Users/Yushev/git/wpcqi-optiga-trust-charge/projects/xmc4700_relax_kit_qi_auth_example/common/Libraries/XMCLib/src\xmc_ledts.c **** 
  79:C:/Users/Yushev/git/wpcqi-optiga-trust-charge/projects/xmc4700_relax_kit_qi_auth_example/common/Libraries/XMCLib/src\xmc_ledts.c **** /**************************************************************************************************
  80:C:/Users/Yushev/git/wpcqi-optiga-trust-charge/projects/xmc4700_relax_kit_qi_auth_example/common/Libraries/XMCLib/src\xmc_ledts.c ****  * GLOBAL DATA
  81:C:/Users/Yushev/git/wpcqi-optiga-trust-charge/projects/xmc4700_relax_kit_qi_auth_example/common/Libraries/XMCLib/src\xmc_ledts.c ****  **************************************************************************************************
  82:C:/Users/Yushev/git/wpcqi-optiga-trust-charge/projects/xmc4700_relax_kit_qi_auth_example/common/Libraries/XMCLib/src\xmc_ledts.c **** 
  83:C:/Users/Yushev/git/wpcqi-optiga-trust-charge/projects/xmc4700_relax_kit_qi_auth_example/common/Libraries/XMCLib/src\xmc_ledts.c **** /**************************************************************************************************
  84:C:/Users/Yushev/git/wpcqi-optiga-trust-charge/projects/xmc4700_relax_kit_qi_auth_example/common/Libraries/XMCLib/src\xmc_ledts.c ****  * LOCAL/UTILITY ROUTINES
  85:C:/Users/Yushev/git/wpcqi-optiga-trust-charge/projects/xmc4700_relax_kit_qi_auth_example/common/Libraries/XMCLib/src\xmc_ledts.c ****  **************************************************************************************************
  86:C:/Users/Yushev/git/wpcqi-optiga-trust-charge/projects/xmc4700_relax_kit_qi_auth_example/common/Libraries/XMCLib/src\xmc_ledts.c **** 
  87:C:/Users/Yushev/git/wpcqi-optiga-trust-charge/projects/xmc4700_relax_kit_qi_auth_example/common/Libraries/XMCLib/src\xmc_ledts.c **** /**************************************************************************************************
  88:C:/Users/Yushev/git/wpcqi-optiga-trust-charge/projects/xmc4700_relax_kit_qi_auth_example/common/Libraries/XMCLib/src\xmc_ledts.c ****  * API IMPLEMENTATION
  89:C:/Users/Yushev/git/wpcqi-optiga-trust-charge/projects/xmc4700_relax_kit_qi_auth_example/common/Libraries/XMCLib/src\xmc_ledts.c ****  **************************************************************************************************
  90:C:/Users/Yushev/git/wpcqi-optiga-trust-charge/projects/xmc4700_relax_kit_qi_auth_example/common/Libraries/XMCLib/src\xmc_ledts.c **** 
  91:C:/Users/Yushev/git/wpcqi-optiga-trust-charge/projects/xmc4700_relax_kit_qi_auth_example/common/Libraries/XMCLib/src\xmc_ledts.c **** /**
  92:C:/Users/Yushev/git/wpcqi-optiga-trust-charge/projects/xmc4700_relax_kit_qi_auth_example/common/Libraries/XMCLib/src\xmc_ledts.c ****   * Initialization of global register
  93:C:/Users/Yushev/git/wpcqi-optiga-trust-charge/projects/xmc4700_relax_kit_qi_auth_example/common/Libraries/XMCLib/src\xmc_ledts.c ****   */
  94:C:/Users/Yushev/git/wpcqi-optiga-trust-charge/projects/xmc4700_relax_kit_qi_auth_example/common/Libraries/XMCLib/src\xmc_ledts.c **** XMC_LEDTS_STATUS_t XMC_LEDTS_InitGlobal(XMC_LEDTS_t *const ledts, const XMC_LEDTS_GLOBAL_CONFIG_t *
  95:C:/Users/Yushev/git/wpcqi-optiga-trust-charge/projects/xmc4700_relax_kit_qi_auth_example/common/Libraries/XMCLib/src\xmc_ledts.c **** {
  28              	 .loc 1 95 0
  29              	 .cfi_startproc
  30              	 
  31              	 
  32 0000 80B5     	 push {r7,lr}
  33              	.LCFI0:
  34              	 .cfi_def_cfa_offset 8
  35              	 .cfi_offset 7,-8
  36              	 .cfi_offset 14,-4
  37 0002 82B0     	 sub sp,sp,#8
  38              	.LCFI1:
  39              	 .cfi_def_cfa_offset 16
  40 0004 00AF     	 add r7,sp,#0
  41              	.LCFI2:
  42              	 .cfi_def_cfa_register 7
  43 0006 7860     	 str r0,[r7,#4]
  44 0008 3960     	 str r1,[r7]
  96:C:/Users/Yushev/git/wpcqi-optiga-trust-charge/projects/xmc4700_relax_kit_qi_auth_example/common/Libraries/XMCLib/src\xmc_ledts.c ****   XMC_ASSERT("XMC_LEDTS_InitGlobal:Wrong Module Pointer", XMC_LEDTS_CHECK_KERNEL_PTR(ledts));
  97:C:/Users/Yushev/git/wpcqi-optiga-trust-charge/projects/xmc4700_relax_kit_qi_auth_example/common/Libraries/XMCLib/src\xmc_ledts.c ****   XMC_ASSERT("XMC_LEDTS_InitGlobal:Null Pointer", (config != (XMC_LEDTS_GLOBAL_CONFIG_t *)NULL));
  98:C:/Users/Yushev/git/wpcqi-optiga-trust-charge/projects/xmc4700_relax_kit_qi_auth_example/common/Libraries/XMCLib/src\xmc_ledts.c **** 
  99:C:/Users/Yushev/git/wpcqi-optiga-trust-charge/projects/xmc4700_relax_kit_qi_auth_example/common/Libraries/XMCLib/src\xmc_ledts.c ****   if (ledts == XMC_LEDTS0)
  45              	 .loc 1 99 0
  46 000a 7B68     	 ldr r3,[r7,#4]
  47 000c 0C4A     	 ldr r2,.L5
  48 000e 9342     	 cmp r3,r2
  49 0010 05D1     	 bne .L2
 100:C:/Users/Yushev/git/wpcqi-optiga-trust-charge/projects/xmc4700_relax_kit_qi_auth_example/common/Libraries/XMCLib/src\xmc_ledts.c ****   {
 101:C:/Users/Yushev/git/wpcqi-optiga-trust-charge/projects/xmc4700_relax_kit_qi_auth_example/common/Libraries/XMCLib/src\xmc_ledts.c **** #if defined(CLOCK_GATING_SUPPORTED)
 102:C:/Users/Yushev/git/wpcqi-optiga-trust-charge/projects/xmc4700_relax_kit_qi_auth_example/common/Libraries/XMCLib/src\xmc_ledts.c ****       XMC_SCU_CLOCK_UngatePeripheralClock(XMC_SCU_PERIPHERAL_CLOCK_LEDTS0);
  50              	 .loc 1 102 0
  51 0012 0C48     	 ldr r0,.L5+4
  52 0014 FFF7FEFF 	 bl XMC_SCU_CLOCK_UngatePeripheralClock
 103:C:/Users/Yushev/git/wpcqi-optiga-trust-charge/projects/xmc4700_relax_kit_qi_auth_example/common/Libraries/XMCLib/src\xmc_ledts.c **** #endif
 104:C:/Users/Yushev/git/wpcqi-optiga-trust-charge/projects/xmc4700_relax_kit_qi_auth_example/common/Libraries/XMCLib/src\xmc_ledts.c **** #if defined(PERIPHERAL_RESET_SUPPORTED)
 105:C:/Users/Yushev/git/wpcqi-optiga-trust-charge/projects/xmc4700_relax_kit_qi_auth_example/common/Libraries/XMCLib/src\xmc_ledts.c ****       XMC_SCU_RESET_DeassertPeripheralReset(XMC_SCU_PERIPHERAL_RESET_LEDTS0);
  53              	 .loc 1 105 0
  54 0018 0A48     	 ldr r0,.L5+4
  55 001a FFF7FEFF 	 bl XMC_SCU_RESET_DeassertPeripheralReset
  56              	.L2:
 106:C:/Users/Yushev/git/wpcqi-optiga-trust-charge/projects/xmc4700_relax_kit_qi_auth_example/common/Libraries/XMCLib/src\xmc_ledts.c **** #endif
 107:C:/Users/Yushev/git/wpcqi-optiga-trust-charge/projects/xmc4700_relax_kit_qi_auth_example/common/Libraries/XMCLib/src\xmc_ledts.c ****   }
 108:C:/Users/Yushev/git/wpcqi-optiga-trust-charge/projects/xmc4700_relax_kit_qi_auth_example/common/Libraries/XMCLib/src\xmc_ledts.c **** #if defined(LEDTS1)
 109:C:/Users/Yushev/git/wpcqi-optiga-trust-charge/projects/xmc4700_relax_kit_qi_auth_example/common/Libraries/XMCLib/src\xmc_ledts.c ****   else if (ledts == XMC_LEDTS1)
 110:C:/Users/Yushev/git/wpcqi-optiga-trust-charge/projects/xmc4700_relax_kit_qi_auth_example/common/Libraries/XMCLib/src\xmc_ledts.c ****   {
 111:C:/Users/Yushev/git/wpcqi-optiga-trust-charge/projects/xmc4700_relax_kit_qi_auth_example/common/Libraries/XMCLib/src\xmc_ledts.c **** #if defined(CLOCK_GATING_SUPPORTED)
 112:C:/Users/Yushev/git/wpcqi-optiga-trust-charge/projects/xmc4700_relax_kit_qi_auth_example/common/Libraries/XMCLib/src\xmc_ledts.c ****       XMC_SCU_CLOCK_UngatePeripheralClock(XMC_SCU_PERIPHERAL_CLOCK_LEDTS1);
 113:C:/Users/Yushev/git/wpcqi-optiga-trust-charge/projects/xmc4700_relax_kit_qi_auth_example/common/Libraries/XMCLib/src\xmc_ledts.c **** #endif
 114:C:/Users/Yushev/git/wpcqi-optiga-trust-charge/projects/xmc4700_relax_kit_qi_auth_example/common/Libraries/XMCLib/src\xmc_ledts.c **** #if defined(PERIPHERAL_RESET_SUPPORTED)
 115:C:/Users/Yushev/git/wpcqi-optiga-trust-charge/projects/xmc4700_relax_kit_qi_auth_example/common/Libraries/XMCLib/src\xmc_ledts.c ****       XMC_SCU_RESET_DeassertPeripheralReset(XMC_SCU_PERIPHERAL_RESET_LEDTS1);
 116:C:/Users/Yushev/git/wpcqi-optiga-trust-charge/projects/xmc4700_relax_kit_qi_auth_example/common/Libraries/XMCLib/src\xmc_ledts.c **** #endif
 117:C:/Users/Yushev/git/wpcqi-optiga-trust-charge/projects/xmc4700_relax_kit_qi_auth_example/common/Libraries/XMCLib/src\xmc_ledts.c ****   }
 118:C:/Users/Yushev/git/wpcqi-optiga-trust-charge/projects/xmc4700_relax_kit_qi_auth_example/common/Libraries/XMCLib/src\xmc_ledts.c **** #endif
 119:C:/Users/Yushev/git/wpcqi-optiga-trust-charge/projects/xmc4700_relax_kit_qi_auth_example/common/Libraries/XMCLib/src\xmc_ledts.c **** #if defined(LEDTS2)
 120:C:/Users/Yushev/git/wpcqi-optiga-trust-charge/projects/xmc4700_relax_kit_qi_auth_example/common/Libraries/XMCLib/src\xmc_ledts.c ****   else if (ledts == XMC_LEDTS2)
 121:C:/Users/Yushev/git/wpcqi-optiga-trust-charge/projects/xmc4700_relax_kit_qi_auth_example/common/Libraries/XMCLib/src\xmc_ledts.c ****   {
 122:C:/Users/Yushev/git/wpcqi-optiga-trust-charge/projects/xmc4700_relax_kit_qi_auth_example/common/Libraries/XMCLib/src\xmc_ledts.c **** #if defined(CLOCK_GATING_SUPPORTED)
 123:C:/Users/Yushev/git/wpcqi-optiga-trust-charge/projects/xmc4700_relax_kit_qi_auth_example/common/Libraries/XMCLib/src\xmc_ledts.c ****       XMC_SCU_CLOCK_UngatePeripheralClock(XMC_SCU_PERIPHERAL_CLOCK_LEDTS2);
 124:C:/Users/Yushev/git/wpcqi-optiga-trust-charge/projects/xmc4700_relax_kit_qi_auth_example/common/Libraries/XMCLib/src\xmc_ledts.c **** #endif
 125:C:/Users/Yushev/git/wpcqi-optiga-trust-charge/projects/xmc4700_relax_kit_qi_auth_example/common/Libraries/XMCLib/src\xmc_ledts.c **** #if defined(PERIPHERAL_RESET_SUPPORTED)
 126:C:/Users/Yushev/git/wpcqi-optiga-trust-charge/projects/xmc4700_relax_kit_qi_auth_example/common/Libraries/XMCLib/src\xmc_ledts.c ****       XMC_SCU_RESET_DeassertPeripheralReset(XMC_SCU_PERIPHERAL_RESET_LEDTS2);
 127:C:/Users/Yushev/git/wpcqi-optiga-trust-charge/projects/xmc4700_relax_kit_qi_auth_example/common/Libraries/XMCLib/src\xmc_ledts.c **** #endif
 128:C:/Users/Yushev/git/wpcqi-optiga-trust-charge/projects/xmc4700_relax_kit_qi_auth_example/common/Libraries/XMCLib/src\xmc_ledts.c ****   }
 129:C:/Users/Yushev/git/wpcqi-optiga-trust-charge/projects/xmc4700_relax_kit_qi_auth_example/common/Libraries/XMCLib/src\xmc_ledts.c **** #endif
 130:C:/Users/Yushev/git/wpcqi-optiga-trust-charge/projects/xmc4700_relax_kit_qi_auth_example/common/Libraries/XMCLib/src\xmc_ledts.c ****   else
 131:C:/Users/Yushev/git/wpcqi-optiga-trust-charge/projects/xmc4700_relax_kit_qi_auth_example/common/Libraries/XMCLib/src\xmc_ledts.c ****   {
 132:C:/Users/Yushev/git/wpcqi-optiga-trust-charge/projects/xmc4700_relax_kit_qi_auth_example/common/Libraries/XMCLib/src\xmc_ledts.c ****     XMC_ASSERT("XMC_LEDTS_InitGlobal:Invalid Module Pointer", 0);
 133:C:/Users/Yushev/git/wpcqi-optiga-trust-charge/projects/xmc4700_relax_kit_qi_auth_example/common/Libraries/XMCLib/src\xmc_ledts.c ****   }
 134:C:/Users/Yushev/git/wpcqi-optiga-trust-charge/projects/xmc4700_relax_kit_qi_auth_example/common/Libraries/XMCLib/src\xmc_ledts.c **** 
 135:C:/Users/Yushev/git/wpcqi-optiga-trust-charge/projects/xmc4700_relax_kit_qi_auth_example/common/Libraries/XMCLib/src\xmc_ledts.c ****   if((ledts->GLOBCTL & LEDTS_GLOBCTL_CLK_PS_Msk) != XMC_LEDTS_CLOCK_NOT_RUNNING)
  57              	 .loc 1 135 0
  58 001e 7B68     	 ldr r3,[r7,#4]
  59 0020 5B68     	 ldr r3,[r3,#4]
  60 0022 1B0C     	 lsrs r3,r3,#16
  61 0024 1B04     	 lsls r3,r3,#16
  62 0026 002B     	 cmp r3,#0
  63 0028 01D0     	 beq .L3
 136:C:/Users/Yushev/git/wpcqi-optiga-trust-charge/projects/xmc4700_relax_kit_qi_auth_example/common/Libraries/XMCLib/src\xmc_ledts.c ****   {
 137:C:/Users/Yushev/git/wpcqi-optiga-trust-charge/projects/xmc4700_relax_kit_qi_auth_example/common/Libraries/XMCLib/src\xmc_ledts.c ****     return XMC_LEDTS_STATUS_RUNNING;
  64              	 .loc 1 137 0
  65 002a 0123     	 movs r3,#1
  66 002c 04E0     	 b .L4
  67              	.L3:
 138:C:/Users/Yushev/git/wpcqi-optiga-trust-charge/projects/xmc4700_relax_kit_qi_auth_example/common/Libraries/XMCLib/src\xmc_ledts.c ****   }
 139:C:/Users/Yushev/git/wpcqi-optiga-trust-charge/projects/xmc4700_relax_kit_qi_auth_example/common/Libraries/XMCLib/src\xmc_ledts.c **** 
 140:C:/Users/Yushev/git/wpcqi-optiga-trust-charge/projects/xmc4700_relax_kit_qi_auth_example/common/Libraries/XMCLib/src\xmc_ledts.c ****   ledts->GLOBCTL = config->globctl;
  68              	 .loc 1 140 0
  69 002e 3B68     	 ldr r3,[r7]
  70 0030 1A68     	 ldr r2,[r3]
  71 0032 7B68     	 ldr r3,[r7,#4]
  72 0034 5A60     	 str r2,[r3,#4]
 141:C:/Users/Yushev/git/wpcqi-optiga-trust-charge/projects/xmc4700_relax_kit_qi_auth_example/common/Libraries/XMCLib/src\xmc_ledts.c **** 
 142:C:/Users/Yushev/git/wpcqi-optiga-trust-charge/projects/xmc4700_relax_kit_qi_auth_example/common/Libraries/XMCLib/src\xmc_ledts.c ****   return XMC_LEDTS_STATUS_SUCCESS;
  73              	 .loc 1 142 0
  74 0036 0023     	 movs r3,#0
  75              	.L4:
 143:C:/Users/Yushev/git/wpcqi-optiga-trust-charge/projects/xmc4700_relax_kit_qi_auth_example/common/Libraries/XMCLib/src\xmc_ledts.c **** }
  76              	 .loc 1 143 0
  77 0038 1846     	 mov r0,r3
  78 003a 0837     	 adds r7,r7,#8
  79              	.LCFI3:
  80              	 .cfi_def_cfa_offset 8
  81 003c BD46     	 mov sp,r7
  82              	.LCFI4:
  83              	 .cfi_def_cfa_register 13
  84              	 
  85 003e 80BD     	 pop {r7,pc}
  86              	.L6:
  87              	 .align 2
  88              	.L5:
  89 0040 00000148 	 .word 1208025088
  90 0044 08000010 	 .word 268435464
  91              	 .cfi_endproc
  92              	.LFE171:
  94              	 .section .text.XMC_LEDTS_InitLED,"ax",%progbits
  95              	 .align 2
  96              	 .global XMC_LEDTS_InitLED
  97              	 .thumb
  98              	 .thumb_func
 100              	XMC_LEDTS_InitLED:
 101              	.LFB172:
 144:C:/Users/Yushev/git/wpcqi-optiga-trust-charge/projects/xmc4700_relax_kit_qi_auth_example/common/Libraries/XMCLib/src\xmc_ledts.c **** 
 145:C:/Users/Yushev/git/wpcqi-optiga-trust-charge/projects/xmc4700_relax_kit_qi_auth_example/common/Libraries/XMCLib/src\xmc_ledts.c **** /**
 146:C:/Users/Yushev/git/wpcqi-optiga-trust-charge/projects/xmc4700_relax_kit_qi_auth_example/common/Libraries/XMCLib/src\xmc_ledts.c ****   * Initialization of registers for LED-driving function
 147:C:/Users/Yushev/git/wpcqi-optiga-trust-charge/projects/xmc4700_relax_kit_qi_auth_example/common/Libraries/XMCLib/src\xmc_ledts.c ****   */
 148:C:/Users/Yushev/git/wpcqi-optiga-trust-charge/projects/xmc4700_relax_kit_qi_auth_example/common/Libraries/XMCLib/src\xmc_ledts.c **** XMC_LEDTS_STATUS_t XMC_LEDTS_InitLED(XMC_LEDTS_t *const ledts, const XMC_LEDTS_LED_CONFIG_t *config
 149:C:/Users/Yushev/git/wpcqi-optiga-trust-charge/projects/xmc4700_relax_kit_qi_auth_example/common/Libraries/XMCLib/src\xmc_ledts.c **** {
 102              	 .loc 1 149 0
 103              	 .cfi_startproc
 104              	 
 105              	 
 106              	 
 107 0000 80B4     	 push {r7}
 108              	.LCFI5:
 109              	 .cfi_def_cfa_offset 4
 110              	 .cfi_offset 7,-4
 111 0002 83B0     	 sub sp,sp,#12
 112              	.LCFI6:
 113              	 .cfi_def_cfa_offset 16
 114 0004 00AF     	 add r7,sp,#0
 115              	.LCFI7:
 116              	 .cfi_def_cfa_register 7
 117 0006 7860     	 str r0,[r7,#4]
 118 0008 3960     	 str r1,[r7]
 150:C:/Users/Yushev/git/wpcqi-optiga-trust-charge/projects/xmc4700_relax_kit_qi_auth_example/common/Libraries/XMCLib/src\xmc_ledts.c ****   XMC_ASSERT("XMC_LEDTS_LED_Init:Wrong Module Pointer", XMC_LEDTS_CHECK_KERNEL_PTR(ledts));
 151:C:/Users/Yushev/git/wpcqi-optiga-trust-charge/projects/xmc4700_relax_kit_qi_auth_example/common/Libraries/XMCLib/src\xmc_ledts.c ****   XMC_ASSERT("XMC_LEDTS_LED_Init:Null Pointer", (config != (XMC_LEDTS_LED_CONFIG_t *)NULL));
 152:C:/Users/Yushev/git/wpcqi-optiga-trust-charge/projects/xmc4700_relax_kit_qi_auth_example/common/Libraries/XMCLib/src\xmc_ledts.c **** 
 153:C:/Users/Yushev/git/wpcqi-optiga-trust-charge/projects/xmc4700_relax_kit_qi_auth_example/common/Libraries/XMCLib/src\xmc_ledts.c ****   if((ledts->GLOBCTL & LEDTS_GLOBCTL_CLK_PS_Msk) != XMC_LEDTS_CLOCK_NOT_RUNNING)
 119              	 .loc 1 153 0
 120 000a 7B68     	 ldr r3,[r7,#4]
 121 000c 5B68     	 ldr r3,[r3,#4]
 122 000e 1B0C     	 lsrs r3,r3,#16
 123 0010 1B04     	 lsls r3,r3,#16
 124 0012 002B     	 cmp r3,#0
 125 0014 01D0     	 beq .L8
 154:C:/Users/Yushev/git/wpcqi-optiga-trust-charge/projects/xmc4700_relax_kit_qi_auth_example/common/Libraries/XMCLib/src\xmc_ledts.c ****   {
 155:C:/Users/Yushev/git/wpcqi-optiga-trust-charge/projects/xmc4700_relax_kit_qi_auth_example/common/Libraries/XMCLib/src\xmc_ledts.c ****     return XMC_LEDTS_STATUS_RUNNING;
 126              	 .loc 1 155 0
 127 0016 0123     	 movs r3,#1
 128 0018 13E0     	 b .L9
 129              	.L8:
 156:C:/Users/Yushev/git/wpcqi-optiga-trust-charge/projects/xmc4700_relax_kit_qi_auth_example/common/Libraries/XMCLib/src\xmc_ledts.c ****   }
 157:C:/Users/Yushev/git/wpcqi-optiga-trust-charge/projects/xmc4700_relax_kit_qi_auth_example/common/Libraries/XMCLib/src\xmc_ledts.c **** 
 158:C:/Users/Yushev/git/wpcqi-optiga-trust-charge/projects/xmc4700_relax_kit_qi_auth_example/common/Libraries/XMCLib/src\xmc_ledts.c ****   ledts->FNCTL &= ~(LEDTS_FNCTL_COLLEV_Msk | LEDTS_FNCTL_NR_LEDCOL_Msk);
 130              	 .loc 1 158 0
 131 001a 7B68     	 ldr r3,[r7,#4]
 132 001c 9B68     	 ldr r3,[r3,#8]
 133 001e 23F07042 	 bic r2,r3,#-268435456
 134 0022 7B68     	 ldr r3,[r7,#4]
 135 0024 9A60     	 str r2,[r3,#8]
 159:C:/Users/Yushev/git/wpcqi-optiga-trust-charge/projects/xmc4700_relax_kit_qi_auth_example/common/Libraries/XMCLib/src\xmc_ledts.c ****   ledts->FNCTL |= (config->fnctl);
 136              	 .loc 1 159 0
 137 0026 7B68     	 ldr r3,[r7,#4]
 138 0028 9A68     	 ldr r2,[r3,#8]
 139 002a 3B68     	 ldr r3,[r7]
 140 002c 1B68     	 ldr r3,[r3]
 141 002e 1A43     	 orrs r2,r2,r3
 142 0030 7B68     	 ldr r3,[r7,#4]
 143 0032 9A60     	 str r2,[r3,#8]
 160:C:/Users/Yushev/git/wpcqi-optiga-trust-charge/projects/xmc4700_relax_kit_qi_auth_example/common/Libraries/XMCLib/src\xmc_ledts.c **** 
 161:C:/Users/Yushev/git/wpcqi-optiga-trust-charge/projects/xmc4700_relax_kit_qi_auth_example/common/Libraries/XMCLib/src\xmc_ledts.c ****   /* Enable LED function */
 162:C:/Users/Yushev/git/wpcqi-optiga-trust-charge/projects/xmc4700_relax_kit_qi_auth_example/common/Libraries/XMCLib/src\xmc_ledts.c ****   ledts->GLOBCTL |= LEDTS_GLOBCTL_LD_EN_Msk;
 144              	 .loc 1 162 0
 145 0034 7B68     	 ldr r3,[r7,#4]
 146 0036 5B68     	 ldr r3,[r3,#4]
 147 0038 43F00202 	 orr r2,r3,#2
 148 003c 7B68     	 ldr r3,[r7,#4]
 149 003e 5A60     	 str r2,[r3,#4]
 163:C:/Users/Yushev/git/wpcqi-optiga-trust-charge/projects/xmc4700_relax_kit_qi_auth_example/common/Libraries/XMCLib/src\xmc_ledts.c **** 
 164:C:/Users/Yushev/git/wpcqi-optiga-trust-charge/projects/xmc4700_relax_kit_qi_auth_example/common/Libraries/XMCLib/src\xmc_ledts.c ****   return XMC_LEDTS_STATUS_SUCCESS;
 150              	 .loc 1 164 0
 151 0040 0023     	 movs r3,#0
 152              	.L9:
 165:C:/Users/Yushev/git/wpcqi-optiga-trust-charge/projects/xmc4700_relax_kit_qi_auth_example/common/Libraries/XMCLib/src\xmc_ledts.c **** }
 153              	 .loc 1 165 0
 154 0042 1846     	 mov r0,r3
 155 0044 0C37     	 adds r7,r7,#12
 156              	.LCFI8:
 157              	 .cfi_def_cfa_offset 4
 158 0046 BD46     	 mov sp,r7
 159              	.LCFI9:
 160              	 .cfi_def_cfa_register 13
 161              	 
 162 0048 5DF8047B 	 ldr r7,[sp],#4
 163              	.LCFI10:
 164              	 .cfi_restore 7
 165              	 .cfi_def_cfa_offset 0
 166 004c 7047     	 bx lr
 167              	 .cfi_endproc
 168              	.LFE172:
 170 004e 00BF     	 .section .text.XMC_LEDTS_InitTSBasic,"ax",%progbits
 171              	 .align 2
 172              	 .global XMC_LEDTS_InitTSBasic
 173              	 .thumb
 174              	 .thumb_func
 176              	XMC_LEDTS_InitTSBasic:
 177              	.LFB173:
 166:C:/Users/Yushev/git/wpcqi-optiga-trust-charge/projects/xmc4700_relax_kit_qi_auth_example/common/Libraries/XMCLib/src\xmc_ledts.c **** 
 167:C:/Users/Yushev/git/wpcqi-optiga-trust-charge/projects/xmc4700_relax_kit_qi_auth_example/common/Libraries/XMCLib/src\xmc_ledts.c **** /**
 168:C:/Users/Yushev/git/wpcqi-optiga-trust-charge/projects/xmc4700_relax_kit_qi_auth_example/common/Libraries/XMCLib/src\xmc_ledts.c ****   * Initialization of registers for basic Touch-Sense control function
 169:C:/Users/Yushev/git/wpcqi-optiga-trust-charge/projects/xmc4700_relax_kit_qi_auth_example/common/Libraries/XMCLib/src\xmc_ledts.c ****   */
 170:C:/Users/Yushev/git/wpcqi-optiga-trust-charge/projects/xmc4700_relax_kit_qi_auth_example/common/Libraries/XMCLib/src\xmc_ledts.c **** XMC_LEDTS_STATUS_t XMC_LEDTS_InitTSBasic(XMC_LEDTS_t *const ledts, const XMC_LEDTS_TS_CONFIG_BASIC_
 171:C:/Users/Yushev/git/wpcqi-optiga-trust-charge/projects/xmc4700_relax_kit_qi_auth_example/common/Libraries/XMCLib/src\xmc_ledts.c **** {
 178              	 .loc 1 171 0
 179              	 .cfi_startproc
 180              	 
 181              	 
 182              	 
 183 0000 80B4     	 push {r7}
 184              	.LCFI11:
 185              	 .cfi_def_cfa_offset 4
 186              	 .cfi_offset 7,-4
 187 0002 85B0     	 sub sp,sp,#20
 188              	.LCFI12:
 189              	 .cfi_def_cfa_offset 24
 190 0004 00AF     	 add r7,sp,#0
 191              	.LCFI13:
 192              	 .cfi_def_cfa_register 7
 193 0006 7860     	 str r0,[r7,#4]
 194 0008 3960     	 str r1,[r7]
 172:C:/Users/Yushev/git/wpcqi-optiga-trust-charge/projects/xmc4700_relax_kit_qi_auth_example/common/Libraries/XMCLib/src\xmc_ledts.c ****   uint32_t reg;
 173:C:/Users/Yushev/git/wpcqi-optiga-trust-charge/projects/xmc4700_relax_kit_qi_auth_example/common/Libraries/XMCLib/src\xmc_ledts.c **** 
 174:C:/Users/Yushev/git/wpcqi-optiga-trust-charge/projects/xmc4700_relax_kit_qi_auth_example/common/Libraries/XMCLib/src\xmc_ledts.c ****   XMC_ASSERT("XMC_LEDTS_TS_Basic_Init:Wrong Module Pointer", XMC_LEDTS_CHECK_KERNEL_PTR(ledts));
 175:C:/Users/Yushev/git/wpcqi-optiga-trust-charge/projects/xmc4700_relax_kit_qi_auth_example/common/Libraries/XMCLib/src\xmc_ledts.c ****   XMC_ASSERT("XMC_LEDTS_TS_Basic_Init:Null Pointer", (config != (XMC_LEDTS_TS_CONFIG_BASIC_t *)NULL
 176:C:/Users/Yushev/git/wpcqi-optiga-trust-charge/projects/xmc4700_relax_kit_qi_auth_example/common/Libraries/XMCLib/src\xmc_ledts.c **** 
 177:C:/Users/Yushev/git/wpcqi-optiga-trust-charge/projects/xmc4700_relax_kit_qi_auth_example/common/Libraries/XMCLib/src\xmc_ledts.c ****   if((ledts->GLOBCTL & LEDTS_GLOBCTL_CLK_PS_Msk) != XMC_LEDTS_CLOCK_NOT_RUNNING)
 195              	 .loc 1 177 0
 196 000a 7B68     	 ldr r3,[r7,#4]
 197 000c 5B68     	 ldr r3,[r3,#4]
 198 000e 1B0C     	 lsrs r3,r3,#16
 199 0010 1B04     	 lsls r3,r3,#16
 200 0012 002B     	 cmp r3,#0
 201 0014 01D0     	 beq .L11
 178:C:/Users/Yushev/git/wpcqi-optiga-trust-charge/projects/xmc4700_relax_kit_qi_auth_example/common/Libraries/XMCLib/src\xmc_ledts.c ****   {
 179:C:/Users/Yushev/git/wpcqi-optiga-trust-charge/projects/xmc4700_relax_kit_qi_auth_example/common/Libraries/XMCLib/src\xmc_ledts.c ****     return XMC_LEDTS_STATUS_RUNNING;
 202              	 .loc 1 179 0
 203 0016 0123     	 movs r3,#1
 204 0018 15E0     	 b .L12
 205              	.L11:
 180:C:/Users/Yushev/git/wpcqi-optiga-trust-charge/projects/xmc4700_relax_kit_qi_auth_example/common/Libraries/XMCLib/src\xmc_ledts.c ****   }
 181:C:/Users/Yushev/git/wpcqi-optiga-trust-charge/projects/xmc4700_relax_kit_qi_auth_example/common/Libraries/XMCLib/src\xmc_ledts.c **** 
 182:C:/Users/Yushev/git/wpcqi-optiga-trust-charge/projects/xmc4700_relax_kit_qi_auth_example/common/Libraries/XMCLib/src\xmc_ledts.c ****   reg = ~(LEDTS_FNCTL_ACCCNT_Msk | LEDTS_FNCTL_TSCCMP_Msk | LEDTS_FNCTL_TSCTRR_Msk | LEDTS_FNCTL_TS
 206              	 .loc 1 182 0
 207 001a 0E4B     	 ldr r3,.L13
 208 001c FB60     	 str r3,[r7,#12]
 183:C:/Users/Yushev/git/wpcqi-optiga-trust-charge/projects/xmc4700_relax_kit_qi_auth_example/common/Libraries/XMCLib/src\xmc_ledts.c **** 		 LEDTS_FNCTL_NR_TSIN_Msk);
 184:C:/Users/Yushev/git/wpcqi-optiga-trust-charge/projects/xmc4700_relax_kit_qi_auth_example/common/Libraries/XMCLib/src\xmc_ledts.c ****   ledts->FNCTL &= (reg);
 209              	 .loc 1 184 0
 210 001e 7B68     	 ldr r3,[r7,#4]
 211 0020 9A68     	 ldr r2,[r3,#8]
 212 0022 FB68     	 ldr r3,[r7,#12]
 213 0024 1A40     	 ands r2,r2,r3
 214 0026 7B68     	 ldr r3,[r7,#4]
 215 0028 9A60     	 str r2,[r3,#8]
 185:C:/Users/Yushev/git/wpcqi-optiga-trust-charge/projects/xmc4700_relax_kit_qi_auth_example/common/Libraries/XMCLib/src\xmc_ledts.c ****   ledts->FNCTL |= (config->fnctl);
 216              	 .loc 1 185 0
 217 002a 7B68     	 ldr r3,[r7,#4]
 218 002c 9A68     	 ldr r2,[r3,#8]
 219 002e 3B68     	 ldr r3,[r7]
 220 0030 1B68     	 ldr r3,[r3]
 221 0032 1A43     	 orrs r2,r2,r3
 222 0034 7B68     	 ldr r3,[r7,#4]
 223 0036 9A60     	 str r2,[r3,#8]
 186:C:/Users/Yushev/git/wpcqi-optiga-trust-charge/projects/xmc4700_relax_kit_qi_auth_example/common/Libraries/XMCLib/src\xmc_ledts.c **** 
 187:C:/Users/Yushev/git/wpcqi-optiga-trust-charge/projects/xmc4700_relax_kit_qi_auth_example/common/Libraries/XMCLib/src\xmc_ledts.c ****   /* Enable TS function */
 188:C:/Users/Yushev/git/wpcqi-optiga-trust-charge/projects/xmc4700_relax_kit_qi_auth_example/common/Libraries/XMCLib/src\xmc_ledts.c ****   ledts->GLOBCTL |= LEDTS_GLOBCTL_TS_EN_Msk;
 224              	 .loc 1 188 0
 225 0038 7B68     	 ldr r3,[r7,#4]
 226 003a 5B68     	 ldr r3,[r3,#4]
 227 003c 43F00102 	 orr r2,r3,#1
 228 0040 7B68     	 ldr r3,[r7,#4]
 229 0042 5A60     	 str r2,[r3,#4]
 189:C:/Users/Yushev/git/wpcqi-optiga-trust-charge/projects/xmc4700_relax_kit_qi_auth_example/common/Libraries/XMCLib/src\xmc_ledts.c **** 
 190:C:/Users/Yushev/git/wpcqi-optiga-trust-charge/projects/xmc4700_relax_kit_qi_auth_example/common/Libraries/XMCLib/src\xmc_ledts.c ****   return XMC_LEDTS_STATUS_SUCCESS;
 230              	 .loc 1 190 0
 231 0044 0023     	 movs r3,#0
 232              	.L12:
 191:C:/Users/Yushev/git/wpcqi-optiga-trust-charge/projects/xmc4700_relax_kit_qi_auth_example/common/Libraries/XMCLib/src\xmc_ledts.c **** }
 233              	 .loc 1 191 0
 234 0046 1846     	 mov r0,r3
 235 0048 1437     	 adds r7,r7,#20
 236              	.LCFI14:
 237              	 .cfi_def_cfa_offset 4
 238 004a BD46     	 mov sp,r7
 239              	.LCFI15:
 240              	 .cfi_def_cfa_register 13
 241              	 
 242 004c 5DF8047B 	 ldr r7,[sp],#4
 243              	.LCFI16:
 244              	 .cfi_restore 7
 245              	 .cfi_def_cfa_offset 0
 246 0050 7047     	 bx lr
 247              	.L14:
 248 0052 00BF     	 .align 2
 249              	.L13:
 250 0054 FFFF60F0 	 .word -262078465
 251              	 .cfi_endproc
 252              	.LFE173:
 254              	 .section .text.XMC_LEDTS_InitTSAdvanced,"ax",%progbits
 255              	 .align 2
 256              	 .global XMC_LEDTS_InitTSAdvanced
 257              	 .thumb
 258              	 .thumb_func
 260              	XMC_LEDTS_InitTSAdvanced:
 261              	.LFB174:
 192:C:/Users/Yushev/git/wpcqi-optiga-trust-charge/projects/xmc4700_relax_kit_qi_auth_example/common/Libraries/XMCLib/src\xmc_ledts.c **** 
 193:C:/Users/Yushev/git/wpcqi-optiga-trust-charge/projects/xmc4700_relax_kit_qi_auth_example/common/Libraries/XMCLib/src\xmc_ledts.c **** /**
 194:C:/Users/Yushev/git/wpcqi-optiga-trust-charge/projects/xmc4700_relax_kit_qi_auth_example/common/Libraries/XMCLib/src\xmc_ledts.c ****   * Initialization of registers for advanced Touch-Sense control function
 195:C:/Users/Yushev/git/wpcqi-optiga-trust-charge/projects/xmc4700_relax_kit_qi_auth_example/common/Libraries/XMCLib/src\xmc_ledts.c ****   */
 196:C:/Users/Yushev/git/wpcqi-optiga-trust-charge/projects/xmc4700_relax_kit_qi_auth_example/common/Libraries/XMCLib/src\xmc_ledts.c **** XMC_LEDTS_STATUS_t XMC_LEDTS_InitTSAdvanced (XMC_LEDTS_t *const ledts, const XMC_LEDTS_TS_CONFIG_AD
 197:C:/Users/Yushev/git/wpcqi-optiga-trust-charge/projects/xmc4700_relax_kit_qi_auth_example/common/Libraries/XMCLib/src\xmc_ledts.c **** {
 262              	 .loc 1 197 0
 263              	 .cfi_startproc
 264              	 
 265              	 
 266              	 
 267 0000 80B4     	 push {r7}
 268              	.LCFI17:
 269              	 .cfi_def_cfa_offset 4
 270              	 .cfi_offset 7,-4
 271 0002 85B0     	 sub sp,sp,#20
 272              	.LCFI18:
 273              	 .cfi_def_cfa_offset 24
 274 0004 00AF     	 add r7,sp,#0
 275              	.LCFI19:
 276              	 .cfi_def_cfa_register 7
 277 0006 7860     	 str r0,[r7,#4]
 278 0008 3960     	 str r1,[r7]
 198:C:/Users/Yushev/git/wpcqi-optiga-trust-charge/projects/xmc4700_relax_kit_qi_auth_example/common/Libraries/XMCLib/src\xmc_ledts.c ****   uint32_t reg;
 199:C:/Users/Yushev/git/wpcqi-optiga-trust-charge/projects/xmc4700_relax_kit_qi_auth_example/common/Libraries/XMCLib/src\xmc_ledts.c **** 
 200:C:/Users/Yushev/git/wpcqi-optiga-trust-charge/projects/xmc4700_relax_kit_qi_auth_example/common/Libraries/XMCLib/src\xmc_ledts.c ****   XMC_ASSERT("XMC_LEDTS_TS_Advanced_Init:Wrong Module Pointer", XMC_LEDTS_CHECK_KERNEL_PTR(ledts));
 201:C:/Users/Yushev/git/wpcqi-optiga-trust-charge/projects/xmc4700_relax_kit_qi_auth_example/common/Libraries/XMCLib/src\xmc_ledts.c ****   XMC_ASSERT("XMC_LEDTS_TS_Advanced_Init:Null Pointer", (config != (XMC_LEDTS_TS_CONFIG_ADVANCED_t 
 202:C:/Users/Yushev/git/wpcqi-optiga-trust-charge/projects/xmc4700_relax_kit_qi_auth_example/common/Libraries/XMCLib/src\xmc_ledts.c **** 
 203:C:/Users/Yushev/git/wpcqi-optiga-trust-charge/projects/xmc4700_relax_kit_qi_auth_example/common/Libraries/XMCLib/src\xmc_ledts.c ****   if((ledts->GLOBCTL & LEDTS_GLOBCTL_CLK_PS_Msk) != XMC_LEDTS_CLOCK_NOT_RUNNING)
 279              	 .loc 1 203 0
 280 000a 7B68     	 ldr r3,[r7,#4]
 281 000c 5B68     	 ldr r3,[r3,#4]
 282 000e 1B0C     	 lsrs r3,r3,#16
 283 0010 1B04     	 lsls r3,r3,#16
 284 0012 002B     	 cmp r3,#0
 285 0014 01D0     	 beq .L16
 204:C:/Users/Yushev/git/wpcqi-optiga-trust-charge/projects/xmc4700_relax_kit_qi_auth_example/common/Libraries/XMCLib/src\xmc_ledts.c ****   {
 205:C:/Users/Yushev/git/wpcqi-optiga-trust-charge/projects/xmc4700_relax_kit_qi_auth_example/common/Libraries/XMCLib/src\xmc_ledts.c ****     return XMC_LEDTS_STATUS_RUNNING;
 286              	 .loc 1 205 0
 287 0016 0123     	 movs r3,#1
 288 0018 1FE0     	 b .L17
 289              	.L16:
 206:C:/Users/Yushev/git/wpcqi-optiga-trust-charge/projects/xmc4700_relax_kit_qi_auth_example/common/Libraries/XMCLib/src\xmc_ledts.c ****   }
 207:C:/Users/Yushev/git/wpcqi-optiga-trust-charge/projects/xmc4700_relax_kit_qi_auth_example/common/Libraries/XMCLib/src\xmc_ledts.c **** 
 208:C:/Users/Yushev/git/wpcqi-optiga-trust-charge/projects/xmc4700_relax_kit_qi_auth_example/common/Libraries/XMCLib/src\xmc_ledts.c ****   reg = ~(LEDTS_GLOBCTL_MASKVAL_Msk | LEDTS_GLOBCTL_FENVAL_Msk);
 290              	 .loc 1 208 0
 291 001a 6FF4F053 	 mvn r3,#7680
 292 001e FB60     	 str r3,[r7,#12]
 209:C:/Users/Yushev/git/wpcqi-optiga-trust-charge/projects/xmc4700_relax_kit_qi_auth_example/common/Libraries/XMCLib/src\xmc_ledts.c ****   ledts->GLOBCTL &= (reg);
 293              	 .loc 1 209 0
 294 0020 7B68     	 ldr r3,[r7,#4]
 295 0022 5A68     	 ldr r2,[r3,#4]
 296 0024 FB68     	 ldr r3,[r7,#12]
 297 0026 1A40     	 ands r2,r2,r3
 298 0028 7B68     	 ldr r3,[r7,#4]
 299 002a 5A60     	 str r2,[r3,#4]
 210:C:/Users/Yushev/git/wpcqi-optiga-trust-charge/projects/xmc4700_relax_kit_qi_auth_example/common/Libraries/XMCLib/src\xmc_ledts.c ****   ledts->GLOBCTL |= (config->globctl);
 300              	 .loc 1 210 0
 301 002c 7B68     	 ldr r3,[r7,#4]
 302 002e 5A68     	 ldr r2,[r3,#4]
 303 0030 3B68     	 ldr r3,[r7]
 304 0032 1B68     	 ldr r3,[r3]
 305 0034 1A43     	 orrs r2,r2,r3
 306 0036 7B68     	 ldr r3,[r7,#4]
 307 0038 5A60     	 str r2,[r3,#4]
 211:C:/Users/Yushev/git/wpcqi-optiga-trust-charge/projects/xmc4700_relax_kit_qi_auth_example/common/Libraries/XMCLib/src\xmc_ledts.c **** 
 212:C:/Users/Yushev/git/wpcqi-optiga-trust-charge/projects/xmc4700_relax_kit_qi_auth_example/common/Libraries/XMCLib/src\xmc_ledts.c ****   reg = ~(LEDTS_FNCTL_PADT_Msk | LEDTS_FNCTL_PADTSW_Msk | LEDTS_FNCTL_EPULL_Msk | LEDTS_FNCTL_TSOEX
 308              	 .loc 1 212 0
 309 003a 0B4B     	 ldr r3,.L18
 310 003c FB60     	 str r3,[r7,#12]
 213:C:/Users/Yushev/git/wpcqi-optiga-trust-charge/projects/xmc4700_relax_kit_qi_auth_example/common/Libraries/XMCLib/src\xmc_ledts.c ****   ledts->FNCTL &= (reg);
 311              	 .loc 1 213 0
 312 003e 7B68     	 ldr r3,[r7,#4]
 313 0040 9A68     	 ldr r2,[r3,#8]
 314 0042 FB68     	 ldr r3,[r7,#12]
 315 0044 1A40     	 ands r2,r2,r3
 316 0046 7B68     	 ldr r3,[r7,#4]
 317 0048 9A60     	 str r2,[r3,#8]
 214:C:/Users/Yushev/git/wpcqi-optiga-trust-charge/projects/xmc4700_relax_kit_qi_auth_example/common/Libraries/XMCLib/src\xmc_ledts.c ****   ledts->FNCTL |= (config->fnctl);
 318              	 .loc 1 214 0
 319 004a 7B68     	 ldr r3,[r7,#4]
 320 004c 9A68     	 ldr r2,[r3,#8]
 321 004e 3B68     	 ldr r3,[r7]
 322 0050 5B68     	 ldr r3,[r3,#4]
 323 0052 1A43     	 orrs r2,r2,r3
 324 0054 7B68     	 ldr r3,[r7,#4]
 325 0056 9A60     	 str r2,[r3,#8]
 215:C:/Users/Yushev/git/wpcqi-optiga-trust-charge/projects/xmc4700_relax_kit_qi_auth_example/common/Libraries/XMCLib/src\xmc_ledts.c **** 
 216:C:/Users/Yushev/git/wpcqi-optiga-trust-charge/projects/xmc4700_relax_kit_qi_auth_example/common/Libraries/XMCLib/src\xmc_ledts.c ****   return XMC_LEDTS_STATUS_SUCCESS;
 326              	 .loc 1 216 0
 327 0058 0023     	 movs r3,#0
 328              	.L17:
 217:C:/Users/Yushev/git/wpcqi-optiga-trust-charge/projects/xmc4700_relax_kit_qi_auth_example/common/Libraries/XMCLib/src\xmc_ledts.c **** }
 329              	 .loc 1 217 0
 330 005a 1846     	 mov r0,r3
 331 005c 1437     	 adds r7,r7,#20
 332              	.LCFI20:
 333              	 .cfi_def_cfa_offset 4
 334 005e BD46     	 mov sp,r7
 335              	.LCFI21:
 336              	 .cfi_def_cfa_register 13
 337              	 
 338 0060 5DF8047B 	 ldr r7,[sp],#4
 339              	.LCFI22:
 340              	 .cfi_restore 7
 341              	 .cfi_def_cfa_offset 0
 342 0064 7047     	 bx lr
 343              	.L19:
 344 0066 00BF     	 .align 2
 345              	.L18:
 346 0068 E0FF9FFF 	 .word -6291488
 347              	 .cfi_endproc
 348              	.LFE174:
 350              	 .section .text.XMC_LEDTS_StartCounter,"ax",%progbits
 351              	 .align 2
 352              	 .global XMC_LEDTS_StartCounter
 353              	 .thumb
 354              	 .thumb_func
 356              	XMC_LEDTS_StartCounter:
 357              	.LFB175:
 218:C:/Users/Yushev/git/wpcqi-optiga-trust-charge/projects/xmc4700_relax_kit_qi_auth_example/common/Libraries/XMCLib/src\xmc_ledts.c **** 
 219:C:/Users/Yushev/git/wpcqi-optiga-trust-charge/projects/xmc4700_relax_kit_qi_auth_example/common/Libraries/XMCLib/src\xmc_ledts.c **** /**
 220:C:/Users/Yushev/git/wpcqi-optiga-trust-charge/projects/xmc4700_relax_kit_qi_auth_example/common/Libraries/XMCLib/src\xmc_ledts.c ****   * Starts LEDTS-counter
 221:C:/Users/Yushev/git/wpcqi-optiga-trust-charge/projects/xmc4700_relax_kit_qi_auth_example/common/Libraries/XMCLib/src\xmc_ledts.c ****   */
 222:C:/Users/Yushev/git/wpcqi-optiga-trust-charge/projects/xmc4700_relax_kit_qi_auth_example/common/Libraries/XMCLib/src\xmc_ledts.c **** void XMC_LEDTS_StartCounter(XMC_LEDTS_t *const ledts, const uint16_t prescaler)
 223:C:/Users/Yushev/git/wpcqi-optiga-trust-charge/projects/xmc4700_relax_kit_qi_auth_example/common/Libraries/XMCLib/src\xmc_ledts.c **** {
 358              	 .loc 1 223 0
 359              	 .cfi_startproc
 360              	 
 361              	 
 362              	 
 363 0000 80B4     	 push {r7}
 364              	.LCFI23:
 365              	 .cfi_def_cfa_offset 4
 366              	 .cfi_offset 7,-4
 367 0002 83B0     	 sub sp,sp,#12
 368              	.LCFI24:
 369              	 .cfi_def_cfa_offset 16
 370 0004 00AF     	 add r7,sp,#0
 371              	.LCFI25:
 372              	 .cfi_def_cfa_register 7
 373 0006 7860     	 str r0,[r7,#4]
 374 0008 0B46     	 mov r3,r1
 375 000a 7B80     	 strh r3,[r7,#2]
 224:C:/Users/Yushev/git/wpcqi-optiga-trust-charge/projects/xmc4700_relax_kit_qi_auth_example/common/Libraries/XMCLib/src\xmc_ledts.c ****   XMC_ASSERT("XMC_LEDTS_Start_Counter:Wrong Module Pointer", XMC_LEDTS_CHECK_KERNEL_PTR(ledts));
 225:C:/Users/Yushev/git/wpcqi-optiga-trust-charge/projects/xmc4700_relax_kit_qi_auth_example/common/Libraries/XMCLib/src\xmc_ledts.c **** 
 226:C:/Users/Yushev/git/wpcqi-optiga-trust-charge/projects/xmc4700_relax_kit_qi_auth_example/common/Libraries/XMCLib/src\xmc_ledts.c ****   ledts->GLOBCTL |= prescaler<<16U;
 376              	 .loc 1 226 0
 377 000c 7B68     	 ldr r3,[r7,#4]
 378 000e 5B68     	 ldr r3,[r3,#4]
 379 0010 7A88     	 ldrh r2,[r7,#2]
 380 0012 1204     	 lsls r2,r2,#16
 381 0014 1A43     	 orrs r2,r2,r3
 382 0016 7B68     	 ldr r3,[r7,#4]
 383 0018 5A60     	 str r2,[r3,#4]
 227:C:/Users/Yushev/git/wpcqi-optiga-trust-charge/projects/xmc4700_relax_kit_qi_auth_example/common/Libraries/XMCLib/src\xmc_ledts.c **** }
 384              	 .loc 1 227 0
 385 001a 0C37     	 adds r7,r7,#12
 386              	.LCFI26:
 387              	 .cfi_def_cfa_offset 4
 388 001c BD46     	 mov sp,r7
 389              	.LCFI27:
 390              	 .cfi_def_cfa_register 13
 391              	 
 392 001e 5DF8047B 	 ldr r7,[sp],#4
 393              	.LCFI28:
 394              	 .cfi_restore 7
 395              	 .cfi_def_cfa_offset 0
 396 0022 7047     	 bx lr
 397              	 .cfi_endproc
 398              	.LFE175:
 400              	 .section .text.XMC_LEDTS_StopCounter,"ax",%progbits
 401              	 .align 2
 402              	 .global XMC_LEDTS_StopCounter
 403              	 .thumb
 404              	 .thumb_func
 406              	XMC_LEDTS_StopCounter:
 407              	.LFB176:
 228:C:/Users/Yushev/git/wpcqi-optiga-trust-charge/projects/xmc4700_relax_kit_qi_auth_example/common/Libraries/XMCLib/src\xmc_ledts.c **** 
 229:C:/Users/Yushev/git/wpcqi-optiga-trust-charge/projects/xmc4700_relax_kit_qi_auth_example/common/Libraries/XMCLib/src\xmc_ledts.c **** /**
 230:C:/Users/Yushev/git/wpcqi-optiga-trust-charge/projects/xmc4700_relax_kit_qi_auth_example/common/Libraries/XMCLib/src\xmc_ledts.c ****   * Stops LEDTS-counter
 231:C:/Users/Yushev/git/wpcqi-optiga-trust-charge/projects/xmc4700_relax_kit_qi_auth_example/common/Libraries/XMCLib/src\xmc_ledts.c ****   */
 232:C:/Users/Yushev/git/wpcqi-optiga-trust-charge/projects/xmc4700_relax_kit_qi_auth_example/common/Libraries/XMCLib/src\xmc_ledts.c **** void XMC_LEDTS_StopCounter(XMC_LEDTS_t *const ledts)
 233:C:/Users/Yushev/git/wpcqi-optiga-trust-charge/projects/xmc4700_relax_kit_qi_auth_example/common/Libraries/XMCLib/src\xmc_ledts.c **** {
 408              	 .loc 1 233 0
 409              	 .cfi_startproc
 410              	 
 411              	 
 412              	 
 413 0000 80B4     	 push {r7}
 414              	.LCFI29:
 415              	 .cfi_def_cfa_offset 4
 416              	 .cfi_offset 7,-4
 417 0002 83B0     	 sub sp,sp,#12
 418              	.LCFI30:
 419              	 .cfi_def_cfa_offset 16
 420 0004 00AF     	 add r7,sp,#0
 421              	.LCFI31:
 422              	 .cfi_def_cfa_register 7
 423 0006 7860     	 str r0,[r7,#4]
 234:C:/Users/Yushev/git/wpcqi-optiga-trust-charge/projects/xmc4700_relax_kit_qi_auth_example/common/Libraries/XMCLib/src\xmc_ledts.c ****   XMC_ASSERT("XMC_LEDTS_Stop_Counter:Wrong Module Pointer", XMC_LEDTS_CHECK_KERNEL_PTR(ledts));
 235:C:/Users/Yushev/git/wpcqi-optiga-trust-charge/projects/xmc4700_relax_kit_qi_auth_example/common/Libraries/XMCLib/src\xmc_ledts.c **** 
 236:C:/Users/Yushev/git/wpcqi-optiga-trust-charge/projects/xmc4700_relax_kit_qi_auth_example/common/Libraries/XMCLib/src\xmc_ledts.c ****   ledts->GLOBCTL &= 0x0000FFFF;
 424              	 .loc 1 236 0
 425 0008 7B68     	 ldr r3,[r7,#4]
 426 000a 5B68     	 ldr r3,[r3,#4]
 427 000c 9AB2     	 uxth r2,r3
 428 000e 7B68     	 ldr r3,[r7,#4]
 429 0010 5A60     	 str r2,[r3,#4]
 237:C:/Users/Yushev/git/wpcqi-optiga-trust-charge/projects/xmc4700_relax_kit_qi_auth_example/common/Libraries/XMCLib/src\xmc_ledts.c **** }
 430              	 .loc 1 237 0
 431 0012 0C37     	 adds r7,r7,#12
 432              	.LCFI32:
 433              	 .cfi_def_cfa_offset 4
 434 0014 BD46     	 mov sp,r7
 435              	.LCFI33:
 436              	 .cfi_def_cfa_register 13
 437              	 
 438 0016 5DF8047B 	 ldr r7,[sp],#4
 439              	.LCFI34:
 440              	 .cfi_restore 7
 441              	 .cfi_def_cfa_offset 0
 442 001a 7047     	 bx lr
 443              	 .cfi_endproc
 444              	.LFE176:
 446              	 .section .text.XMC_LEDTS_ReadInterruptFlag,"ax",%progbits
 447              	 .align 2
 448              	 .global XMC_LEDTS_ReadInterruptFlag
 449              	 .thumb
 450              	 .thumb_func
 452              	XMC_LEDTS_ReadInterruptFlag:
 453              	.LFB177:
 238:C:/Users/Yushev/git/wpcqi-optiga-trust-charge/projects/xmc4700_relax_kit_qi_auth_example/common/Libraries/XMCLib/src\xmc_ledts.c **** 
 239:C:/Users/Yushev/git/wpcqi-optiga-trust-charge/projects/xmc4700_relax_kit_qi_auth_example/common/Libraries/XMCLib/src\xmc_ledts.c **** /**
 240:C:/Users/Yushev/git/wpcqi-optiga-trust-charge/projects/xmc4700_relax_kit_qi_auth_example/common/Libraries/XMCLib/src\xmc_ledts.c ****   * Reads time interrupt flags
 241:C:/Users/Yushev/git/wpcqi-optiga-trust-charge/projects/xmc4700_relax_kit_qi_auth_example/common/Libraries/XMCLib/src\xmc_ledts.c ****   */
 242:C:/Users/Yushev/git/wpcqi-optiga-trust-charge/projects/xmc4700_relax_kit_qi_auth_example/common/Libraries/XMCLib/src\xmc_ledts.c **** uint32_t XMC_LEDTS_ReadInterruptFlag(XMC_LEDTS_t *const ledts)
 243:C:/Users/Yushev/git/wpcqi-optiga-trust-charge/projects/xmc4700_relax_kit_qi_auth_example/common/Libraries/XMCLib/src\xmc_ledts.c **** {
 454              	 .loc 1 243 0
 455              	 .cfi_startproc
 456              	 
 457              	 
 458              	 
 459 0000 80B4     	 push {r7}
 460              	.LCFI35:
 461              	 .cfi_def_cfa_offset 4
 462              	 .cfi_offset 7,-4
 463 0002 83B0     	 sub sp,sp,#12
 464              	.LCFI36:
 465              	 .cfi_def_cfa_offset 16
 466 0004 00AF     	 add r7,sp,#0
 467              	.LCFI37:
 468              	 .cfi_def_cfa_register 7
 469 0006 7860     	 str r0,[r7,#4]
 244:C:/Users/Yushev/git/wpcqi-optiga-trust-charge/projects/xmc4700_relax_kit_qi_auth_example/common/Libraries/XMCLib/src\xmc_ledts.c ****   XMC_ASSERT("XMC_LEDTS_ReadInterruptFlag:Wrong Module Pointer", XMC_LEDTS_CHECK_KERNEL_PTR(ledts))
 245:C:/Users/Yushev/git/wpcqi-optiga-trust-charge/projects/xmc4700_relax_kit_qi_auth_example/common/Libraries/XMCLib/src\xmc_ledts.c **** 
 246:C:/Users/Yushev/git/wpcqi-optiga-trust-charge/projects/xmc4700_relax_kit_qi_auth_example/common/Libraries/XMCLib/src\xmc_ledts.c ****   return (ledts->EVFR & 0xF);
 470              	 .loc 1 246 0
 471 0008 7B68     	 ldr r3,[r7,#4]
 472 000a DB68     	 ldr r3,[r3,#12]
 473 000c 03F00F03 	 and r3,r3,#15
 247:C:/Users/Yushev/git/wpcqi-optiga-trust-charge/projects/xmc4700_relax_kit_qi_auth_example/common/Libraries/XMCLib/src\xmc_ledts.c **** }
 474              	 .loc 1 247 0
 475 0010 1846     	 mov r0,r3
 476 0012 0C37     	 adds r7,r7,#12
 477              	.LCFI38:
 478              	 .cfi_def_cfa_offset 4
 479 0014 BD46     	 mov sp,r7
 480              	.LCFI39:
 481              	 .cfi_def_cfa_register 13
 482              	 
 483 0016 5DF8047B 	 ldr r7,[sp],#4
 484              	.LCFI40:
 485              	 .cfi_restore 7
 486              	 .cfi_def_cfa_offset 0
 487 001a 7047     	 bx lr
 488              	 .cfi_endproc
 489              	.LFE177:
 491              	 .section .text.XMC_LEDTS_SetActivePADNo,"ax",%progbits
 492              	 .align 2
 493              	 .global XMC_LEDTS_SetActivePADNo
 494              	 .thumb
 495              	 .thumb_func
 497              	XMC_LEDTS_SetActivePADNo:
 498              	.LFB178:
 248:C:/Users/Yushev/git/wpcqi-optiga-trust-charge/projects/xmc4700_relax_kit_qi_auth_example/common/Libraries/XMCLib/src\xmc_ledts.c **** 
 249:C:/Users/Yushev/git/wpcqi-optiga-trust-charge/projects/xmc4700_relax_kit_qi_auth_example/common/Libraries/XMCLib/src\xmc_ledts.c **** /**
 250:C:/Users/Yushev/git/wpcqi-optiga-trust-charge/projects/xmc4700_relax_kit_qi_auth_example/common/Libraries/XMCLib/src\xmc_ledts.c ****   * Set the active pad number
 251:C:/Users/Yushev/git/wpcqi-optiga-trust-charge/projects/xmc4700_relax_kit_qi_auth_example/common/Libraries/XMCLib/src\xmc_ledts.c ****   */
 252:C:/Users/Yushev/git/wpcqi-optiga-trust-charge/projects/xmc4700_relax_kit_qi_auth_example/common/Libraries/XMCLib/src\xmc_ledts.c **** void XMC_LEDTS_SetActivePADNo(XMC_LEDTS_t *const ledts, XMC_LEDTS_NUMBER_TS_INPUT_t pad_num)
 253:C:/Users/Yushev/git/wpcqi-optiga-trust-charge/projects/xmc4700_relax_kit_qi_auth_example/common/Libraries/XMCLib/src\xmc_ledts.c **** {
 499              	 .loc 1 253 0
 500              	 .cfi_startproc
 501              	 
 502              	 
 503              	 
 504 0000 80B4     	 push {r7}
 505              	.LCFI41:
 506              	 .cfi_def_cfa_offset 4
 507              	 .cfi_offset 7,-4
 508 0002 85B0     	 sub sp,sp,#20
 509              	.LCFI42:
 510              	 .cfi_def_cfa_offset 24
 511 0004 00AF     	 add r7,sp,#0
 512              	.LCFI43:
 513              	 .cfi_def_cfa_register 7
 514 0006 7860     	 str r0,[r7,#4]
 515 0008 0B46     	 mov r3,r1
 516 000a FB70     	 strb r3,[r7,#3]
 254:C:/Users/Yushev/git/wpcqi-optiga-trust-charge/projects/xmc4700_relax_kit_qi_auth_example/common/Libraries/XMCLib/src\xmc_ledts.c ****   uint32_t reg;
 255:C:/Users/Yushev/git/wpcqi-optiga-trust-charge/projects/xmc4700_relax_kit_qi_auth_example/common/Libraries/XMCLib/src\xmc_ledts.c **** 
 256:C:/Users/Yushev/git/wpcqi-optiga-trust-charge/projects/xmc4700_relax_kit_qi_auth_example/common/Libraries/XMCLib/src\xmc_ledts.c ****   XMC_ASSERT("XMC_LEDTS_SetActivePADNo:Wrong Module Pointer", XMC_LEDTS_CHECK_KERNEL_PTR(ledts));
 257:C:/Users/Yushev/git/wpcqi-optiga-trust-charge/projects/xmc4700_relax_kit_qi_auth_example/common/Libraries/XMCLib/src\xmc_ledts.c **** 
 258:C:/Users/Yushev/git/wpcqi-optiga-trust-charge/projects/xmc4700_relax_kit_qi_auth_example/common/Libraries/XMCLib/src\xmc_ledts.c ****   reg = ledts->FNCTL;
 517              	 .loc 1 258 0
 518 000c 7B68     	 ldr r3,[r7,#4]
 519 000e 9B68     	 ldr r3,[r3,#8]
 520 0010 FB60     	 str r3,[r7,#12]
 259:C:/Users/Yushev/git/wpcqi-optiga-trust-charge/projects/xmc4700_relax_kit_qi_auth_example/common/Libraries/XMCLib/src\xmc_ledts.c ****   reg &= ~(LEDTS_FNCTL_PADT_Msk);
 521              	 .loc 1 259 0
 522 0012 FB68     	 ldr r3,[r7,#12]
 523 0014 23F00703 	 bic r3,r3,#7
 524 0018 FB60     	 str r3,[r7,#12]
 260:C:/Users/Yushev/git/wpcqi-optiga-trust-charge/projects/xmc4700_relax_kit_qi_auth_example/common/Libraries/XMCLib/src\xmc_ledts.c ****   reg |= (uint32_t)pad_num;
 525              	 .loc 1 260 0
 526 001a FB78     	 ldrb r3,[r7,#3]
 527 001c FA68     	 ldr r2,[r7,#12]
 528 001e 1343     	 orrs r3,r3,r2
 529 0020 FB60     	 str r3,[r7,#12]
 261:C:/Users/Yushev/git/wpcqi-optiga-trust-charge/projects/xmc4700_relax_kit_qi_auth_example/common/Libraries/XMCLib/src\xmc_ledts.c ****   ledts->FNCTL = reg;
 530              	 .loc 1 261 0
 531 0022 7B68     	 ldr r3,[r7,#4]
 532 0024 FA68     	 ldr r2,[r7,#12]
 533 0026 9A60     	 str r2,[r3,#8]
 262:C:/Users/Yushev/git/wpcqi-optiga-trust-charge/projects/xmc4700_relax_kit_qi_auth_example/common/Libraries/XMCLib/src\xmc_ledts.c **** }
 534              	 .loc 1 262 0
 535 0028 1437     	 adds r7,r7,#20
 536              	.LCFI44:
 537              	 .cfi_def_cfa_offset 4
 538 002a BD46     	 mov sp,r7
 539              	.LCFI45:
 540              	 .cfi_def_cfa_register 13
 541              	 
 542 002c 5DF8047B 	 ldr r7,[sp],#4
 543              	.LCFI46:
 544              	 .cfi_restore 7
 545              	 .cfi_def_cfa_offset 0
 546 0030 7047     	 bx lr
 547              	 .cfi_endproc
 548              	.LFE178:
 550 0032 00BF     	 .section .text.XMC_LEDTS_ClearInterruptFlag,"ax",%progbits
 551              	 .align 2
 552              	 .global XMC_LEDTS_ClearInterruptFlag
 553              	 .thumb
 554              	 .thumb_func
 556              	XMC_LEDTS_ClearInterruptFlag:
 557              	.LFB179:
 263:C:/Users/Yushev/git/wpcqi-optiga-trust-charge/projects/xmc4700_relax_kit_qi_auth_example/common/Libraries/XMCLib/src\xmc_ledts.c **** 
 264:C:/Users/Yushev/git/wpcqi-optiga-trust-charge/projects/xmc4700_relax_kit_qi_auth_example/common/Libraries/XMCLib/src\xmc_ledts.c **** /**
 265:C:/Users/Yushev/git/wpcqi-optiga-trust-charge/projects/xmc4700_relax_kit_qi_auth_example/common/Libraries/XMCLib/src\xmc_ledts.c ****   * Clears interrupt indication flags
 266:C:/Users/Yushev/git/wpcqi-optiga-trust-charge/projects/xmc4700_relax_kit_qi_auth_example/common/Libraries/XMCLib/src\xmc_ledts.c ****   */
 267:C:/Users/Yushev/git/wpcqi-optiga-trust-charge/projects/xmc4700_relax_kit_qi_auth_example/common/Libraries/XMCLib/src\xmc_ledts.c **** void XMC_LEDTS_ClearInterruptFlag(XMC_LEDTS_t *const ledts, uint32_t interrupt_mask)
 268:C:/Users/Yushev/git/wpcqi-optiga-trust-charge/projects/xmc4700_relax_kit_qi_auth_example/common/Libraries/XMCLib/src\xmc_ledts.c **** {
 558              	 .loc 1 268 0
 559              	 .cfi_startproc
 560              	 
 561              	 
 562              	 
 563 0000 80B4     	 push {r7}
 564              	.LCFI47:
 565              	 .cfi_def_cfa_offset 4
 566              	 .cfi_offset 7,-4
 567 0002 83B0     	 sub sp,sp,#12
 568              	.LCFI48:
 569              	 .cfi_def_cfa_offset 16
 570 0004 00AF     	 add r7,sp,#0
 571              	.LCFI49:
 572              	 .cfi_def_cfa_register 7
 573 0006 7860     	 str r0,[r7,#4]
 574 0008 3960     	 str r1,[r7]
 269:C:/Users/Yushev/git/wpcqi-optiga-trust-charge/projects/xmc4700_relax_kit_qi_auth_example/common/Libraries/XMCLib/src\xmc_ledts.c ****   XMC_ASSERT("XMC_LEDTS_ClearInterruptFlag:Wrong Module Pointer", XMC_LEDTS_CHECK_KERNEL_PTR(ledts)
 270:C:/Users/Yushev/git/wpcqi-optiga-trust-charge/projects/xmc4700_relax_kit_qi_auth_example/common/Libraries/XMCLib/src\xmc_ledts.c **** 
 271:C:/Users/Yushev/git/wpcqi-optiga-trust-charge/projects/xmc4700_relax_kit_qi_auth_example/common/Libraries/XMCLib/src\xmc_ledts.c ****   ledts->EVFR = (interrupt_mask << LEDTS_EVFR_CTSF_Pos);
 575              	 .loc 1 271 0
 576 000a 3B68     	 ldr r3,[r7]
 577 000c 1A04     	 lsls r2,r3,#16
 578 000e 7B68     	 ldr r3,[r7,#4]
 579 0010 DA60     	 str r2,[r3,#12]
 272:C:/Users/Yushev/git/wpcqi-optiga-trust-charge/projects/xmc4700_relax_kit_qi_auth_example/common/Libraries/XMCLib/src\xmc_ledts.c **** }
 580              	 .loc 1 272 0
 581 0012 0C37     	 adds r7,r7,#12
 582              	.LCFI50:
 583              	 .cfi_def_cfa_offset 4
 584 0014 BD46     	 mov sp,r7
 585              	.LCFI51:
 586              	 .cfi_def_cfa_register 13
 587              	 
 588 0016 5DF8047B 	 ldr r7,[sp],#4
 589              	.LCFI52:
 590              	 .cfi_restore 7
 591              	 .cfi_def_cfa_offset 0
 592 001a 7047     	 bx lr
 593              	 .cfi_endproc
 594              	.LFE179:
 596              	 .section .text.XMC_LEDTS_SetLEDLinePattern,"ax",%progbits
 597              	 .align 2
 598              	 .global XMC_LEDTS_SetLEDLinePattern
 599              	 .thumb
 600              	 .thumb_func
 602              	XMC_LEDTS_SetLEDLinePattern:
 603              	.LFB180:
 273:C:/Users/Yushev/git/wpcqi-optiga-trust-charge/projects/xmc4700_relax_kit_qi_auth_example/common/Libraries/XMCLib/src\xmc_ledts.c **** 
 274:C:/Users/Yushev/git/wpcqi-optiga-trust-charge/projects/xmc4700_relax_kit_qi_auth_example/common/Libraries/XMCLib/src\xmc_ledts.c **** /**
 275:C:/Users/Yushev/git/wpcqi-optiga-trust-charge/projects/xmc4700_relax_kit_qi_auth_example/common/Libraries/XMCLib/src\xmc_ledts.c ****   * Programming of registers to output pattern on an LED column in LED matrix
 276:C:/Users/Yushev/git/wpcqi-optiga-trust-charge/projects/xmc4700_relax_kit_qi_auth_example/common/Libraries/XMCLib/src\xmc_ledts.c ****   */
 277:C:/Users/Yushev/git/wpcqi-optiga-trust-charge/projects/xmc4700_relax_kit_qi_auth_example/common/Libraries/XMCLib/src\xmc_ledts.c **** void XMC_LEDTS_SetLEDLinePattern(XMC_LEDTS_t *const ledts, XMC_LEDTS_LED_COLUMN_t column, const uin
 278:C:/Users/Yushev/git/wpcqi-optiga-trust-charge/projects/xmc4700_relax_kit_qi_auth_example/common/Libraries/XMCLib/src\xmc_ledts.c **** {
 604              	 .loc 1 278 0
 605              	 .cfi_startproc
 606              	 
 607              	 
 608              	 
 609 0000 80B4     	 push {r7}
 610              	.LCFI53:
 611              	 .cfi_def_cfa_offset 4
 612              	 .cfi_offset 7,-4
 613 0002 85B0     	 sub sp,sp,#20
 614              	.LCFI54:
 615              	 .cfi_def_cfa_offset 24
 616 0004 00AF     	 add r7,sp,#0
 617              	.LCFI55:
 618              	 .cfi_def_cfa_register 7
 619 0006 7860     	 str r0,[r7,#4]
 620 0008 0B46     	 mov r3,r1
 621 000a FB70     	 strb r3,[r7,#3]
 622 000c 1346     	 mov r3,r2
 623 000e BB70     	 strb r3,[r7,#2]
 279:C:/Users/Yushev/git/wpcqi-optiga-trust-charge/projects/xmc4700_relax_kit_qi_auth_example/common/Libraries/XMCLib/src\xmc_ledts.c ****   uint32_t reg;
 280:C:/Users/Yushev/git/wpcqi-optiga-trust-charge/projects/xmc4700_relax_kit_qi_auth_example/common/Libraries/XMCLib/src\xmc_ledts.c ****   uint8_t reg_index = ((uint8_t)column) >> 2;
 624              	 .loc 1 280 0
 625 0010 FB78     	 ldrb r3,[r7,#3]
 626 0012 9B08     	 lsrs r3,r3,#2
 627 0014 FB73     	 strb r3,[r7,#15]
 281:C:/Users/Yushev/git/wpcqi-optiga-trust-charge/projects/xmc4700_relax_kit_qi_auth_example/common/Libraries/XMCLib/src\xmc_ledts.c ****   uint8_t bit_shift_count = ((uint8_t)column & 0x03) * 8;
 628              	 .loc 1 281 0
 629 0016 FB78     	 ldrb r3,[r7,#3]
 630 0018 03F00303 	 and r3,r3,#3
 631 001c DBB2     	 uxtb r3,r3
 632 001e DB00     	 lsls r3,r3,#3
 633 0020 BB73     	 strb r3,[r7,#14]
 282:C:/Users/Yushev/git/wpcqi-optiga-trust-charge/projects/xmc4700_relax_kit_qi_auth_example/common/Libraries/XMCLib/src\xmc_ledts.c **** 
 283:C:/Users/Yushev/git/wpcqi-optiga-trust-charge/projects/xmc4700_relax_kit_qi_auth_example/common/Libraries/XMCLib/src\xmc_ledts.c ****   XMC_ASSERT("XMC_LEDTS_Set_LED_Line_Pattern:Wrong Module Pointer", XMC_LEDTS_CHECK_KERNEL_PTR(ledt
 284:C:/Users/Yushev/git/wpcqi-optiga-trust-charge/projects/xmc4700_relax_kit_qi_auth_example/common/Libraries/XMCLib/src\xmc_ledts.c **** 
 285:C:/Users/Yushev/git/wpcqi-optiga-trust-charge/projects/xmc4700_relax_kit_qi_auth_example/common/Libraries/XMCLib/src\xmc_ledts.c ****   reg = ledts->LINE[reg_index];
 634              	 .loc 1 285 0
 635 0022 FB7B     	 ldrb r3,[r7,#15]
 636 0024 7A68     	 ldr r2,[r7,#4]
 637 0026 0433     	 adds r3,r3,#4
 638 0028 9B00     	 lsls r3,r3,#2
 639 002a 1344     	 add r3,r3,r2
 640 002c 5B68     	 ldr r3,[r3,#4]
 641 002e BB60     	 str r3,[r7,#8]
 286:C:/Users/Yushev/git/wpcqi-optiga-trust-charge/projects/xmc4700_relax_kit_qi_auth_example/common/Libraries/XMCLib/src\xmc_ledts.c ****   reg &= (~(0xff << bit_shift_count));
 642              	 .loc 1 286 0
 643 0030 BB7B     	 ldrb r3,[r7,#14]
 644 0032 FF22     	 movs r2,#255
 645 0034 02FA03F3 	 lsl r3,r2,r3
 646 0038 DB43     	 mvns r3,r3
 647 003a 1A46     	 mov r2,r3
 648 003c BB68     	 ldr r3,[r7,#8]
 649 003e 1340     	 ands r3,r3,r2
 650 0040 BB60     	 str r3,[r7,#8]
 287:C:/Users/Yushev/git/wpcqi-optiga-trust-charge/projects/xmc4700_relax_kit_qi_auth_example/common/Libraries/XMCLib/src\xmc_ledts.c ****   reg |= pattern << bit_shift_count;
 651              	 .loc 1 287 0
 652 0042 BA78     	 ldrb r2,[r7,#2]
 653 0044 BB7B     	 ldrb r3,[r7,#14]
 654 0046 02FA03F3 	 lsl r3,r2,r3
 655 004a 1A46     	 mov r2,r3
 656 004c BB68     	 ldr r3,[r7,#8]
 657 004e 1343     	 orrs r3,r3,r2
 658 0050 BB60     	 str r3,[r7,#8]
 288:C:/Users/Yushev/git/wpcqi-optiga-trust-charge/projects/xmc4700_relax_kit_qi_auth_example/common/Libraries/XMCLib/src\xmc_ledts.c ****   ledts->LINE[reg_index] = reg;
 659              	 .loc 1 288 0
 660 0052 FB7B     	 ldrb r3,[r7,#15]
 661 0054 7A68     	 ldr r2,[r7,#4]
 662 0056 0433     	 adds r3,r3,#4
 663 0058 9B00     	 lsls r3,r3,#2
 664 005a 1344     	 add r3,r3,r2
 665 005c BA68     	 ldr r2,[r7,#8]
 666 005e 5A60     	 str r2,[r3,#4]
 289:C:/Users/Yushev/git/wpcqi-optiga-trust-charge/projects/xmc4700_relax_kit_qi_auth_example/common/Libraries/XMCLib/src\xmc_ledts.c **** 
 290:C:/Users/Yushev/git/wpcqi-optiga-trust-charge/projects/xmc4700_relax_kit_qi_auth_example/common/Libraries/XMCLib/src\xmc_ledts.c **** }
 667              	 .loc 1 290 0
 668 0060 1437     	 adds r7,r7,#20
 669              	.LCFI56:
 670              	 .cfi_def_cfa_offset 4
 671 0062 BD46     	 mov sp,r7
 672              	.LCFI57:
 673              	 .cfi_def_cfa_register 13
 674              	 
 675 0064 5DF8047B 	 ldr r7,[sp],#4
 676              	.LCFI58:
 677              	 .cfi_restore 7
 678              	 .cfi_def_cfa_offset 0
 679 0068 7047     	 bx lr
 680              	 .cfi_endproc
 681              	.LFE180:
 683 006a 00BF     	 .section .text.XMC_LEDTS_SetColumnBrightness,"ax",%progbits
 684              	 .align 2
 685              	 .global XMC_LEDTS_SetColumnBrightness
 686              	 .thumb
 687              	 .thumb_func
 689              	XMC_LEDTS_SetColumnBrightness:
 690              	.LFB181:
 291:C:/Users/Yushev/git/wpcqi-optiga-trust-charge/projects/xmc4700_relax_kit_qi_auth_example/common/Libraries/XMCLib/src\xmc_ledts.c **** 
 292:C:/Users/Yushev/git/wpcqi-optiga-trust-charge/projects/xmc4700_relax_kit_qi_auth_example/common/Libraries/XMCLib/src\xmc_ledts.c **** /**
 293:C:/Users/Yushev/git/wpcqi-optiga-trust-charge/projects/xmc4700_relax_kit_qi_auth_example/common/Libraries/XMCLib/src\xmc_ledts.c ****   * Programming of registers to adjust brightness of an LED column in LED matrix
 294:C:/Users/Yushev/git/wpcqi-optiga-trust-charge/projects/xmc4700_relax_kit_qi_auth_example/common/Libraries/XMCLib/src\xmc_ledts.c ****   */
 295:C:/Users/Yushev/git/wpcqi-optiga-trust-charge/projects/xmc4700_relax_kit_qi_auth_example/common/Libraries/XMCLib/src\xmc_ledts.c **** void XMC_LEDTS_SetColumnBrightness(XMC_LEDTS_t *const ledts, XMC_LEDTS_LED_COLUMN_t column, const u
 296:C:/Users/Yushev/git/wpcqi-optiga-trust-charge/projects/xmc4700_relax_kit_qi_auth_example/common/Libraries/XMCLib/src\xmc_ledts.c **** {
 691              	 .loc 1 296 0
 692              	 .cfi_startproc
 693              	 
 694              	 
 695              	 
 696 0000 80B4     	 push {r7}
 697              	.LCFI59:
 698              	 .cfi_def_cfa_offset 4
 699              	 .cfi_offset 7,-4
 700 0002 85B0     	 sub sp,sp,#20
 701              	.LCFI60:
 702              	 .cfi_def_cfa_offset 24
 703 0004 00AF     	 add r7,sp,#0
 704              	.LCFI61:
 705              	 .cfi_def_cfa_register 7
 706 0006 7860     	 str r0,[r7,#4]
 707 0008 0B46     	 mov r3,r1
 708 000a FB70     	 strb r3,[r7,#3]
 709 000c 1346     	 mov r3,r2
 710 000e BB70     	 strb r3,[r7,#2]
 297:C:/Users/Yushev/git/wpcqi-optiga-trust-charge/projects/xmc4700_relax_kit_qi_auth_example/common/Libraries/XMCLib/src\xmc_ledts.c ****   uint32_t reg;
 298:C:/Users/Yushev/git/wpcqi-optiga-trust-charge/projects/xmc4700_relax_kit_qi_auth_example/common/Libraries/XMCLib/src\xmc_ledts.c ****   uint8_t reg_index = ((uint8_t)column) >> 2;
 711              	 .loc 1 298 0
 712 0010 FB78     	 ldrb r3,[r7,#3]
 713 0012 9B08     	 lsrs r3,r3,#2
 714 0014 FB73     	 strb r3,[r7,#15]
 299:C:/Users/Yushev/git/wpcqi-optiga-trust-charge/projects/xmc4700_relax_kit_qi_auth_example/common/Libraries/XMCLib/src\xmc_ledts.c ****   uint8_t bit_shift_count = ((uint8_t)column & 0x03) * 8;
 715              	 .loc 1 299 0
 716 0016 FB78     	 ldrb r3,[r7,#3]
 717 0018 03F00303 	 and r3,r3,#3
 718 001c DBB2     	 uxtb r3,r3
 719 001e DB00     	 lsls r3,r3,#3
 720 0020 BB73     	 strb r3,[r7,#14]
 300:C:/Users/Yushev/git/wpcqi-optiga-trust-charge/projects/xmc4700_relax_kit_qi_auth_example/common/Libraries/XMCLib/src\xmc_ledts.c **** 
 301:C:/Users/Yushev/git/wpcqi-optiga-trust-charge/projects/xmc4700_relax_kit_qi_auth_example/common/Libraries/XMCLib/src\xmc_ledts.c ****   XMC_ASSERT("XMC_LEDTS_Set_Column_Brightness:Wrong Module Pointer", XMC_LEDTS_CHECK_KERNEL_PTR(led
 302:C:/Users/Yushev/git/wpcqi-optiga-trust-charge/projects/xmc4700_relax_kit_qi_auth_example/common/Libraries/XMCLib/src\xmc_ledts.c **** 
 303:C:/Users/Yushev/git/wpcqi-optiga-trust-charge/projects/xmc4700_relax_kit_qi_auth_example/common/Libraries/XMCLib/src\xmc_ledts.c **** 	reg = ledts->LDCMP[reg_index];
 721              	 .loc 1 303 0
 722 0022 FB7B     	 ldrb r3,[r7,#15]
 723 0024 7A68     	 ldr r2,[r7,#4]
 724 0026 0633     	 adds r3,r3,#6
 725 0028 9B00     	 lsls r3,r3,#2
 726 002a 1344     	 add r3,r3,r2
 727 002c 5B68     	 ldr r3,[r3,#4]
 728 002e BB60     	 str r3,[r7,#8]
 304:C:/Users/Yushev/git/wpcqi-optiga-trust-charge/projects/xmc4700_relax_kit_qi_auth_example/common/Libraries/XMCLib/src\xmc_ledts.c **** 	reg &= (~(0xff << bit_shift_count));
 729              	 .loc 1 304 0
 730 0030 BB7B     	 ldrb r3,[r7,#14]
 731 0032 FF22     	 movs r2,#255
 732 0034 02FA03F3 	 lsl r3,r2,r3
 733 0038 DB43     	 mvns r3,r3
 734 003a 1A46     	 mov r2,r3
 735 003c BB68     	 ldr r3,[r7,#8]
 736 003e 1340     	 ands r3,r3,r2
 737 0040 BB60     	 str r3,[r7,#8]
 305:C:/Users/Yushev/git/wpcqi-optiga-trust-charge/projects/xmc4700_relax_kit_qi_auth_example/common/Libraries/XMCLib/src\xmc_ledts.c **** 	reg |= brightness << bit_shift_count;
 738              	 .loc 1 305 0
 739 0042 BA78     	 ldrb r2,[r7,#2]
 740 0044 BB7B     	 ldrb r3,[r7,#14]
 741 0046 02FA03F3 	 lsl r3,r2,r3
 742 004a 1A46     	 mov r2,r3
 743 004c BB68     	 ldr r3,[r7,#8]
 744 004e 1343     	 orrs r3,r3,r2
 745 0050 BB60     	 str r3,[r7,#8]
 306:C:/Users/Yushev/git/wpcqi-optiga-trust-charge/projects/xmc4700_relax_kit_qi_auth_example/common/Libraries/XMCLib/src\xmc_ledts.c **** 	ledts->LDCMP[reg_index] = reg;
 746              	 .loc 1 306 0
 747 0052 FB7B     	 ldrb r3,[r7,#15]
 748 0054 7A68     	 ldr r2,[r7,#4]
 749 0056 0633     	 adds r3,r3,#6
 750 0058 9B00     	 lsls r3,r3,#2
 751 005a 1344     	 add r3,r3,r2
 752 005c BA68     	 ldr r2,[r7,#8]
 753 005e 5A60     	 str r2,[r3,#4]
 307:C:/Users/Yushev/git/wpcqi-optiga-trust-charge/projects/xmc4700_relax_kit_qi_auth_example/common/Libraries/XMCLib/src\xmc_ledts.c **** }
 754              	 .loc 1 307 0
 755 0060 1437     	 adds r7,r7,#20
 756              	.LCFI62:
 757              	 .cfi_def_cfa_offset 4
 758 0062 BD46     	 mov sp,r7
 759              	.LCFI63:
 760              	 .cfi_def_cfa_register 13
 761              	 
 762 0064 5DF8047B 	 ldr r7,[sp],#4
 763              	.LCFI64:
 764              	 .cfi_restore 7
 765              	 .cfi_def_cfa_offset 0
 766 0068 7047     	 bx lr
 767              	 .cfi_endproc
 768              	.LFE181:
 770 006a 00BF     	 .section .text.XMC_LEDTS_SetCommonOscillationWindow,"ax",%progbits
 771              	 .align 2
 772              	 .global XMC_LEDTS_SetCommonOscillationWindow
 773              	 .thumb
 774              	 .thumb_func
 776              	XMC_LEDTS_SetCommonOscillationWindow:
 777              	.LFB182:
 308:C:/Users/Yushev/git/wpcqi-optiga-trust-charge/projects/xmc4700_relax_kit_qi_auth_example/common/Libraries/XMCLib/src\xmc_ledts.c **** 
 309:C:/Users/Yushev/git/wpcqi-optiga-trust-charge/projects/xmc4700_relax_kit_qi_auth_example/common/Libraries/XMCLib/src\xmc_ledts.c **** /**
 310:C:/Users/Yushev/git/wpcqi-optiga-trust-charge/projects/xmc4700_relax_kit_qi_auth_example/common/Libraries/XMCLib/src\xmc_ledts.c ****   * Programming of registers to set common oscillation window size for touch-sense inputs
 311:C:/Users/Yushev/git/wpcqi-optiga-trust-charge/projects/xmc4700_relax_kit_qi_auth_example/common/Libraries/XMCLib/src\xmc_ledts.c ****   */
 312:C:/Users/Yushev/git/wpcqi-optiga-trust-charge/projects/xmc4700_relax_kit_qi_auth_example/common/Libraries/XMCLib/src\xmc_ledts.c **** void XMC_LEDTS_SetCommonOscillationWindow(XMC_LEDTS_t *const ledts, const uint8_t common_size)
 313:C:/Users/Yushev/git/wpcqi-optiga-trust-charge/projects/xmc4700_relax_kit_qi_auth_example/common/Libraries/XMCLib/src\xmc_ledts.c **** {
 778              	 .loc 1 313 0
 779              	 .cfi_startproc
 780              	 
 781              	 
 782              	 
 783 0000 80B4     	 push {r7}
 784              	.LCFI65:
 785              	 .cfi_def_cfa_offset 4
 786              	 .cfi_offset 7,-4
 787 0002 85B0     	 sub sp,sp,#20
 788              	.LCFI66:
 789              	 .cfi_def_cfa_offset 24
 790 0004 00AF     	 add r7,sp,#0
 791              	.LCFI67:
 792              	 .cfi_def_cfa_register 7
 793 0006 7860     	 str r0,[r7,#4]
 794 0008 0B46     	 mov r3,r1
 795 000a FB70     	 strb r3,[r7,#3]
 314:C:/Users/Yushev/git/wpcqi-optiga-trust-charge/projects/xmc4700_relax_kit_qi_auth_example/common/Libraries/XMCLib/src\xmc_ledts.c ****   uint32_t reg;
 315:C:/Users/Yushev/git/wpcqi-optiga-trust-charge/projects/xmc4700_relax_kit_qi_auth_example/common/Libraries/XMCLib/src\xmc_ledts.c **** 
 316:C:/Users/Yushev/git/wpcqi-optiga-trust-charge/projects/xmc4700_relax_kit_qi_auth_example/common/Libraries/XMCLib/src\xmc_ledts.c ****   XMC_ASSERT("XMC_LEDTS_Set_Common_Oscillation_Window:Wrong Module Pointer", XMC_LEDTS_CHECK_KERNEL
 317:C:/Users/Yushev/git/wpcqi-optiga-trust-charge/projects/xmc4700_relax_kit_qi_auth_example/common/Libraries/XMCLib/src\xmc_ledts.c **** 
 318:C:/Users/Yushev/git/wpcqi-optiga-trust-charge/projects/xmc4700_relax_kit_qi_auth_example/common/Libraries/XMCLib/src\xmc_ledts.c ****   reg = ledts->LDCMP[1];
 796              	 .loc 1 318 0
 797 000c 7B68     	 ldr r3,[r7,#4]
 798 000e 1B6A     	 ldr r3,[r3,#32]
 799 0010 FB60     	 str r3,[r7,#12]
 319:C:/Users/Yushev/git/wpcqi-optiga-trust-charge/projects/xmc4700_relax_kit_qi_auth_example/common/Libraries/XMCLib/src\xmc_ledts.c ****   reg &= ~LEDTS_LDCMP1_CMP_LDA_TSCOM_Msk;
 800              	 .loc 1 319 0
 801 0012 FB68     	 ldr r3,[r7,#12]
 802 0014 23F07F43 	 bic r3,r3,#-16777216
 803 0018 FB60     	 str r3,[r7,#12]
 320:C:/Users/Yushev/git/wpcqi-optiga-trust-charge/projects/xmc4700_relax_kit_qi_auth_example/common/Libraries/XMCLib/src\xmc_ledts.c ****   reg |= (common_size << LEDTS_LDCMP1_CMP_LDA_TSCOM_Pos);
 804              	 .loc 1 320 0
 805 001a FB78     	 ldrb r3,[r7,#3]
 806 001c 1B06     	 lsls r3,r3,#24
 807 001e 1A46     	 mov r2,r3
 808 0020 FB68     	 ldr r3,[r7,#12]
 809 0022 1343     	 orrs r3,r3,r2
 810 0024 FB60     	 str r3,[r7,#12]
 321:C:/Users/Yushev/git/wpcqi-optiga-trust-charge/projects/xmc4700_relax_kit_qi_auth_example/common/Libraries/XMCLib/src\xmc_ledts.c ****   ledts->LDCMP[1] = reg;
 811              	 .loc 1 321 0
 812 0026 7B68     	 ldr r3,[r7,#4]
 813 0028 FA68     	 ldr r2,[r7,#12]
 814 002a 1A62     	 str r2,[r3,#32]
 322:C:/Users/Yushev/git/wpcqi-optiga-trust-charge/projects/xmc4700_relax_kit_qi_auth_example/common/Libraries/XMCLib/src\xmc_ledts.c **** }
 815              	 .loc 1 322 0
 816 002c 1437     	 adds r7,r7,#20
 817              	.LCFI68:
 818              	 .cfi_def_cfa_offset 4
 819 002e BD46     	 mov sp,r7
 820              	.LCFI69:
 821              	 .cfi_def_cfa_register 13
 822              	 
 823 0030 5DF8047B 	 ldr r7,[sp],#4
 824              	.LCFI70:
 825              	 .cfi_restore 7
 826              	 .cfi_def_cfa_offset 0
 827 0034 7047     	 bx lr
 828              	 .cfi_endproc
 829              	.LFE182:
 831 0036 00BF     	 .section .text.XMC_LEDTS_ReadFNCOL,"ax",%progbits
 832              	 .align 2
 833              	 .global XMC_LEDTS_ReadFNCOL
 834              	 .thumb
 835              	 .thumb_func
 837              	XMC_LEDTS_ReadFNCOL:
 838              	.LFB183:
 323:C:/Users/Yushev/git/wpcqi-optiga-trust-charge/projects/xmc4700_relax_kit_qi_auth_example/common/Libraries/XMCLib/src\xmc_ledts.c **** 
 324:C:/Users/Yushev/git/wpcqi-optiga-trust-charge/projects/xmc4700_relax_kit_qi_auth_example/common/Libraries/XMCLib/src\xmc_ledts.c **** /**
 325:C:/Users/Yushev/git/wpcqi-optiga-trust-charge/projects/xmc4700_relax_kit_qi_auth_example/common/Libraries/XMCLib/src\xmc_ledts.c ****   * Checking the previous active function or LED column status
 326:C:/Users/Yushev/git/wpcqi-optiga-trust-charge/projects/xmc4700_relax_kit_qi_auth_example/common/Libraries/XMCLib/src\xmc_ledts.c ****   */
 327:C:/Users/Yushev/git/wpcqi-optiga-trust-charge/projects/xmc4700_relax_kit_qi_auth_example/common/Libraries/XMCLib/src\xmc_ledts.c **** uint32_t XMC_LEDTS_ReadFNCOL(XMC_LEDTS_t *const ledts)
 328:C:/Users/Yushev/git/wpcqi-optiga-trust-charge/projects/xmc4700_relax_kit_qi_auth_example/common/Libraries/XMCLib/src\xmc_ledts.c **** {
 839              	 .loc 1 328 0
 840              	 .cfi_startproc
 841              	 
 842              	 
 843              	 
 844 0000 80B4     	 push {r7}
 845              	.LCFI71:
 846              	 .cfi_def_cfa_offset 4
 847              	 .cfi_offset 7,-4
 848 0002 85B0     	 sub sp,sp,#20
 849              	.LCFI72:
 850              	 .cfi_def_cfa_offset 24
 851 0004 00AF     	 add r7,sp,#0
 852              	.LCFI73:
 853              	 .cfi_def_cfa_register 7
 854 0006 7860     	 str r0,[r7,#4]
 329:C:/Users/Yushev/git/wpcqi-optiga-trust-charge/projects/xmc4700_relax_kit_qi_auth_example/common/Libraries/XMCLib/src\xmc_ledts.c ****   uint32_t fncol_read;
 330:C:/Users/Yushev/git/wpcqi-optiga-trust-charge/projects/xmc4700_relax_kit_qi_auth_example/common/Libraries/XMCLib/src\xmc_ledts.c **** 
 331:C:/Users/Yushev/git/wpcqi-optiga-trust-charge/projects/xmc4700_relax_kit_qi_auth_example/common/Libraries/XMCLib/src\xmc_ledts.c ****   XMC_ASSERT("XMC_LEDTS_Read_FNCOL:Wrong Module Pointer", XMC_LEDTS_CHECK_KERNEL_PTR(ledts));
 332:C:/Users/Yushev/git/wpcqi-optiga-trust-charge/projects/xmc4700_relax_kit_qi_auth_example/common/Libraries/XMCLib/src\xmc_ledts.c **** 
 333:C:/Users/Yushev/git/wpcqi-optiga-trust-charge/projects/xmc4700_relax_kit_qi_auth_example/common/Libraries/XMCLib/src\xmc_ledts.c ****   fncol_read = ledts->FNCTL & LEDTS_FNCTL_FNCOL_Msk;
 855              	 .loc 1 333 0
 856 0008 7B68     	 ldr r3,[r7,#4]
 857 000a 9B68     	 ldr r3,[r3,#8]
 858 000c 03F0E003 	 and r3,r3,#224
 859 0010 FB60     	 str r3,[r7,#12]
 334:C:/Users/Yushev/git/wpcqi-optiga-trust-charge/projects/xmc4700_relax_kit_qi_auth_example/common/Libraries/XMCLib/src\xmc_ledts.c ****   fncol_read >>= LEDTS_FNCTL_FNCOL_Pos;
 860              	 .loc 1 334 0
 861 0012 FB68     	 ldr r3,[r7,#12]
 862 0014 5B09     	 lsrs r3,r3,#5
 863 0016 FB60     	 str r3,[r7,#12]
 335:C:/Users/Yushev/git/wpcqi-optiga-trust-charge/projects/xmc4700_relax_kit_qi_auth_example/common/Libraries/XMCLib/src\xmc_ledts.c **** 
 336:C:/Users/Yushev/git/wpcqi-optiga-trust-charge/projects/xmc4700_relax_kit_qi_auth_example/common/Libraries/XMCLib/src\xmc_ledts.c ****   return fncol_read;
 864              	 .loc 1 336 0
 865 0018 FB68     	 ldr r3,[r7,#12]
 337:C:/Users/Yushev/git/wpcqi-optiga-trust-charge/projects/xmc4700_relax_kit_qi_auth_example/common/Libraries/XMCLib/src\xmc_ledts.c **** }
 866              	 .loc 1 337 0
 867 001a 1846     	 mov r0,r3
 868 001c 1437     	 adds r7,r7,#20
 869              	.LCFI74:
 870              	 .cfi_def_cfa_offset 4
 871 001e BD46     	 mov sp,r7
 872              	.LCFI75:
 873              	 .cfi_def_cfa_register 13
 874              	 
 875 0020 5DF8047B 	 ldr r7,[sp],#4
 876              	.LCFI76:
 877              	 .cfi_restore 7
 878              	 .cfi_def_cfa_offset 0
 879 0024 7047     	 bx lr
 880              	 .cfi_endproc
 881              	.LFE183:
 883 0026 00BF     	 .section .text.XMC_LEDTS_SetNumOfLEDColumns,"ax",%progbits
 884              	 .align 2
 885              	 .global XMC_LEDTS_SetNumOfLEDColumns
 886              	 .thumb
 887              	 .thumb_func
 889              	XMC_LEDTS_SetNumOfLEDColumns:
 890              	.LFB184:
 338:C:/Users/Yushev/git/wpcqi-optiga-trust-charge/projects/xmc4700_relax_kit_qi_auth_example/common/Libraries/XMCLib/src\xmc_ledts.c **** 
 339:C:/Users/Yushev/git/wpcqi-optiga-trust-charge/projects/xmc4700_relax_kit_qi_auth_example/common/Libraries/XMCLib/src\xmc_ledts.c **** /**
 340:C:/Users/Yushev/git/wpcqi-optiga-trust-charge/projects/xmc4700_relax_kit_qi_auth_example/common/Libraries/XMCLib/src\xmc_ledts.c ****   * Set the number of LED column Enabled
 341:C:/Users/Yushev/git/wpcqi-optiga-trust-charge/projects/xmc4700_relax_kit_qi_auth_example/common/Libraries/XMCLib/src\xmc_ledts.c ****   */
 342:C:/Users/Yushev/git/wpcqi-optiga-trust-charge/projects/xmc4700_relax_kit_qi_auth_example/common/Libraries/XMCLib/src\xmc_ledts.c **** void XMC_LEDTS_SetNumOfLEDColumns(XMC_LEDTS_t *const ledts, uint8_t count)
 343:C:/Users/Yushev/git/wpcqi-optiga-trust-charge/projects/xmc4700_relax_kit_qi_auth_example/common/Libraries/XMCLib/src\xmc_ledts.c **** {
 891              	 .loc 1 343 0
 892              	 .cfi_startproc
 893              	 
 894              	 
 895              	 
 896 0000 80B4     	 push {r7}
 897              	.LCFI77:
 898              	 .cfi_def_cfa_offset 4
 899              	 .cfi_offset 7,-4
 900 0002 83B0     	 sub sp,sp,#12
 901              	.LCFI78:
 902              	 .cfi_def_cfa_offset 16
 903 0004 00AF     	 add r7,sp,#0
 904              	.LCFI79:
 905              	 .cfi_def_cfa_register 7
 906 0006 7860     	 str r0,[r7,#4]
 907 0008 0B46     	 mov r3,r1
 908 000a FB70     	 strb r3,[r7,#3]
 344:C:/Users/Yushev/git/wpcqi-optiga-trust-charge/projects/xmc4700_relax_kit_qi_auth_example/common/Libraries/XMCLib/src\xmc_ledts.c **** 
 345:C:/Users/Yushev/git/wpcqi-optiga-trust-charge/projects/xmc4700_relax_kit_qi_auth_example/common/Libraries/XMCLib/src\xmc_ledts.c ****   XMC_ASSERT("XMC_LEDTS_SetNumOfLEDColumns:Wrong Module Pointer", XMC_LEDTS_CHECK_KERNEL_PTR(ledts)
 346:C:/Users/Yushev/git/wpcqi-optiga-trust-charge/projects/xmc4700_relax_kit_qi_auth_example/common/Libraries/XMCLib/src\xmc_ledts.c **** 
 347:C:/Users/Yushev/git/wpcqi-optiga-trust-charge/projects/xmc4700_relax_kit_qi_auth_example/common/Libraries/XMCLib/src\xmc_ledts.c ****   ledts->FNCTL &= ~(LEDTS_FNCTL_NR_LEDCOL_Msk);
 909              	 .loc 1 347 0
 910 000c 7B68     	 ldr r3,[r7,#4]
 911 000e 9B68     	 ldr r3,[r3,#8]
 912 0010 23F06042 	 bic r2,r3,#-536870912
 913 0014 7B68     	 ldr r3,[r7,#4]
 914 0016 9A60     	 str r2,[r3,#8]
 348:C:/Users/Yushev/git/wpcqi-optiga-trust-charge/projects/xmc4700_relax_kit_qi_auth_example/common/Libraries/XMCLib/src\xmc_ledts.c ****   ledts->FNCTL |= (count << LEDTS_FNCTL_NR_LEDCOL_Pos);
 915              	 .loc 1 348 0
 916 0018 7B68     	 ldr r3,[r7,#4]
 917 001a 9B68     	 ldr r3,[r3,#8]
 918 001c FA78     	 ldrb r2,[r7,#3]
 919 001e 5207     	 lsls r2,r2,#29
 920 0020 1A43     	 orrs r2,r2,r3
 921 0022 7B68     	 ldr r3,[r7,#4]
 922 0024 9A60     	 str r2,[r3,#8]
 349:C:/Users/Yushev/git/wpcqi-optiga-trust-charge/projects/xmc4700_relax_kit_qi_auth_example/common/Libraries/XMCLib/src\xmc_ledts.c **** }
 923              	 .loc 1 349 0
 924 0026 0C37     	 adds r7,r7,#12
 925              	.LCFI80:
 926              	 .cfi_def_cfa_offset 4
 927 0028 BD46     	 mov sp,r7
 928              	.LCFI81:
 929              	 .cfi_def_cfa_register 13
 930              	 
 931 002a 5DF8047B 	 ldr r7,[sp],#4
 932              	.LCFI82:
 933              	 .cfi_restore 7
 934              	 .cfi_def_cfa_offset 0
 935 002e 7047     	 bx lr
 936              	 .cfi_endproc
 937              	.LFE184:
 939              	 .section .text.XMC_LEDTS_ReadTSVAL,"ax",%progbits
 940              	 .align 2
 941              	 .global XMC_LEDTS_ReadTSVAL
 942              	 .thumb
 943              	 .thumb_func
 945              	XMC_LEDTS_ReadTSVAL:
 946              	.LFB185:
 350:C:/Users/Yushev/git/wpcqi-optiga-trust-charge/projects/xmc4700_relax_kit_qi_auth_example/common/Libraries/XMCLib/src\xmc_ledts.c **** 
 351:C:/Users/Yushev/git/wpcqi-optiga-trust-charge/projects/xmc4700_relax_kit_qi_auth_example/common/Libraries/XMCLib/src\xmc_ledts.c **** /**
 352:C:/Users/Yushev/git/wpcqi-optiga-trust-charge/projects/xmc4700_relax_kit_qi_auth_example/common/Libraries/XMCLib/src\xmc_ledts.c ****   * Reading recorded number of oscillation counts
 353:C:/Users/Yushev/git/wpcqi-optiga-trust-charge/projects/xmc4700_relax_kit_qi_auth_example/common/Libraries/XMCLib/src\xmc_ledts.c ****   */
 354:C:/Users/Yushev/git/wpcqi-optiga-trust-charge/projects/xmc4700_relax_kit_qi_auth_example/common/Libraries/XMCLib/src\xmc_ledts.c **** uint16_t XMC_LEDTS_ReadTSVAL(XMC_LEDTS_t *const ledts)
 355:C:/Users/Yushev/git/wpcqi-optiga-trust-charge/projects/xmc4700_relax_kit_qi_auth_example/common/Libraries/XMCLib/src\xmc_ledts.c **** {
 947              	 .loc 1 355 0
 948              	 .cfi_startproc
 949              	 
 950              	 
 951              	 
 952 0000 80B4     	 push {r7}
 953              	.LCFI83:
 954              	 .cfi_def_cfa_offset 4
 955              	 .cfi_offset 7,-4
 956 0002 85B0     	 sub sp,sp,#20
 957              	.LCFI84:
 958              	 .cfi_def_cfa_offset 24
 959 0004 00AF     	 add r7,sp,#0
 960              	.LCFI85:
 961              	 .cfi_def_cfa_register 7
 962 0006 7860     	 str r0,[r7,#4]
 356:C:/Users/Yushev/git/wpcqi-optiga-trust-charge/projects/xmc4700_relax_kit_qi_auth_example/common/Libraries/XMCLib/src\xmc_ledts.c ****   uint16_t no_of_oscillations;
 357:C:/Users/Yushev/git/wpcqi-optiga-trust-charge/projects/xmc4700_relax_kit_qi_auth_example/common/Libraries/XMCLib/src\xmc_ledts.c **** 
 358:C:/Users/Yushev/git/wpcqi-optiga-trust-charge/projects/xmc4700_relax_kit_qi_auth_example/common/Libraries/XMCLib/src\xmc_ledts.c ****   XMC_ASSERT("XMC_LEDTS_Read_TSVAL:Wrong Module Pointer", XMC_LEDTS_CHECK_KERNEL_PTR(ledts));
 359:C:/Users/Yushev/git/wpcqi-optiga-trust-charge/projects/xmc4700_relax_kit_qi_auth_example/common/Libraries/XMCLib/src\xmc_ledts.c **** 
 360:C:/Users/Yushev/git/wpcqi-optiga-trust-charge/projects/xmc4700_relax_kit_qi_auth_example/common/Libraries/XMCLib/src\xmc_ledts.c ****   no_of_oscillations = (ledts->TSVAL & 0xFFFF);
 963              	 .loc 1 360 0
 964 0008 7B68     	 ldr r3,[r7,#4]
 965 000a 1B69     	 ldr r3,[r3,#16]
 966 000c FB81     	 strh r3,[r7,#14]
 361:C:/Users/Yushev/git/wpcqi-optiga-trust-charge/projects/xmc4700_relax_kit_qi_auth_example/common/Libraries/XMCLib/src\xmc_ledts.c **** 
 362:C:/Users/Yushev/git/wpcqi-optiga-trust-charge/projects/xmc4700_relax_kit_qi_auth_example/common/Libraries/XMCLib/src\xmc_ledts.c ****   return no_of_oscillations;
 967              	 .loc 1 362 0
 968 000e FB89     	 ldrh r3,[r7,#14]
 363:C:/Users/Yushev/git/wpcqi-optiga-trust-charge/projects/xmc4700_relax_kit_qi_auth_example/common/Libraries/XMCLib/src\xmc_ledts.c **** }
 969              	 .loc 1 363 0
 970 0010 1846     	 mov r0,r3
 971 0012 1437     	 adds r7,r7,#20
 972              	.LCFI86:
 973              	 .cfi_def_cfa_offset 4
 974 0014 BD46     	 mov sp,r7
 975              	.LCFI87:
 976              	 .cfi_def_cfa_register 13
 977              	 
 978 0016 5DF8047B 	 ldr r7,[sp],#4
 979              	.LCFI88:
 980              	 .cfi_restore 7
 981              	 .cfi_def_cfa_offset 0
 982 001a 7047     	 bx lr
 983              	 .cfi_endproc
 984              	.LFE185:
 986              	 .section .text.XMC_LEDTS_SetOscillationWindow,"ax",%progbits
 987              	 .align 2
 988              	 .global XMC_LEDTS_SetOscillationWindow
 989              	 .thumb
 990              	 .thumb_func
 992              	XMC_LEDTS_SetOscillationWindow:
 993              	.LFB186:
 364:C:/Users/Yushev/git/wpcqi-optiga-trust-charge/projects/xmc4700_relax_kit_qi_auth_example/common/Libraries/XMCLib/src\xmc_ledts.c **** 
 365:C:/Users/Yushev/git/wpcqi-optiga-trust-charge/projects/xmc4700_relax_kit_qi_auth_example/common/Libraries/XMCLib/src\xmc_ledts.c **** /**
 366:C:/Users/Yushev/git/wpcqi-optiga-trust-charge/projects/xmc4700_relax_kit_qi_auth_example/common/Libraries/XMCLib/src\xmc_ledts.c ****   * Programming of registers to adjust the size of oscillation window
 367:C:/Users/Yushev/git/wpcqi-optiga-trust-charge/projects/xmc4700_relax_kit_qi_auth_example/common/Libraries/XMCLib/src\xmc_ledts.c ****   */
 368:C:/Users/Yushev/git/wpcqi-optiga-trust-charge/projects/xmc4700_relax_kit_qi_auth_example/common/Libraries/XMCLib/src\xmc_ledts.c **** void XMC_LEDTS_SetOscillationWindow(XMC_LEDTS_t *const ledts, XMC_LEDTS_NUMBER_TS_INPUT_t touchpad,
 369:C:/Users/Yushev/git/wpcqi-optiga-trust-charge/projects/xmc4700_relax_kit_qi_auth_example/common/Libraries/XMCLib/src\xmc_ledts.c **** {
 994              	 .loc 1 369 0
 995              	 .cfi_startproc
 996              	 
 997              	 
 998              	 
 999 0000 80B4     	 push {r7}
 1000              	.LCFI89:
 1001              	 .cfi_def_cfa_offset 4
 1002              	 .cfi_offset 7,-4
 1003 0002 85B0     	 sub sp,sp,#20
 1004              	.LCFI90:
 1005              	 .cfi_def_cfa_offset 24
 1006 0004 00AF     	 add r7,sp,#0
 1007              	.LCFI91:
 1008              	 .cfi_def_cfa_register 7
 1009 0006 7860     	 str r0,[r7,#4]
 1010 0008 0B46     	 mov r3,r1
 1011 000a FB70     	 strb r3,[r7,#3]
 1012 000c 1346     	 mov r3,r2
 1013 000e BB70     	 strb r3,[r7,#2]
 370:C:/Users/Yushev/git/wpcqi-optiga-trust-charge/projects/xmc4700_relax_kit_qi_auth_example/common/Libraries/XMCLib/src\xmc_ledts.c ****   uint32_t reg;
 371:C:/Users/Yushev/git/wpcqi-optiga-trust-charge/projects/xmc4700_relax_kit_qi_auth_example/common/Libraries/XMCLib/src\xmc_ledts.c ****   uint8_t reg_index = ((uint8_t)touchpad) >> 2;
 1014              	 .loc 1 371 0
 1015 0010 FB78     	 ldrb r3,[r7,#3]
 1016 0012 9B08     	 lsrs r3,r3,#2
 1017 0014 FB73     	 strb r3,[r7,#15]
 372:C:/Users/Yushev/git/wpcqi-optiga-trust-charge/projects/xmc4700_relax_kit_qi_auth_example/common/Libraries/XMCLib/src\xmc_ledts.c ****   uint8_t bit_shift_count = ((uint8_t)touchpad & 0x03) * 8;
 1018              	 .loc 1 372 0
 1019 0016 FB78     	 ldrb r3,[r7,#3]
 1020 0018 03F00303 	 and r3,r3,#3
 1021 001c DBB2     	 uxtb r3,r3
 1022 001e DB00     	 lsls r3,r3,#3
 1023 0020 BB73     	 strb r3,[r7,#14]
 373:C:/Users/Yushev/git/wpcqi-optiga-trust-charge/projects/xmc4700_relax_kit_qi_auth_example/common/Libraries/XMCLib/src\xmc_ledts.c **** 
 374:C:/Users/Yushev/git/wpcqi-optiga-trust-charge/projects/xmc4700_relax_kit_qi_auth_example/common/Libraries/XMCLib/src\xmc_ledts.c ****   XMC_ASSERT("XMC_LEDTS_Set_Oscillation_Window:Wrong Module Pointer", XMC_LEDTS_CHECK_KERNEL_PTR(le
 375:C:/Users/Yushev/git/wpcqi-optiga-trust-charge/projects/xmc4700_relax_kit_qi_auth_example/common/Libraries/XMCLib/src\xmc_ledts.c **** 
 376:C:/Users/Yushev/git/wpcqi-optiga-trust-charge/projects/xmc4700_relax_kit_qi_auth_example/common/Libraries/XMCLib/src\xmc_ledts.c **** 	reg = ledts->TSCMP[reg_index];
 1024              	 .loc 1 376 0
 1025 0022 FB7B     	 ldrb r3,[r7,#15]
 1026 0024 7A68     	 ldr r2,[r7,#4]
 1027 0026 0833     	 adds r3,r3,#8
 1028 0028 9B00     	 lsls r3,r3,#2
 1029 002a 1344     	 add r3,r3,r2
 1030 002c 5B68     	 ldr r3,[r3,#4]
 1031 002e BB60     	 str r3,[r7,#8]
 377:C:/Users/Yushev/git/wpcqi-optiga-trust-charge/projects/xmc4700_relax_kit_qi_auth_example/common/Libraries/XMCLib/src\xmc_ledts.c **** 	reg &= (~(0xff << bit_shift_count));
 1032              	 .loc 1 377 0
 1033 0030 BB7B     	 ldrb r3,[r7,#14]
 1034 0032 FF22     	 movs r2,#255
 1035 0034 02FA03F3 	 lsl r3,r2,r3
 1036 0038 DB43     	 mvns r3,r3
 1037 003a 1A46     	 mov r2,r3
 1038 003c BB68     	 ldr r3,[r7,#8]
 1039 003e 1340     	 ands r3,r3,r2
 1040 0040 BB60     	 str r3,[r7,#8]
 378:C:/Users/Yushev/git/wpcqi-optiga-trust-charge/projects/xmc4700_relax_kit_qi_auth_example/common/Libraries/XMCLib/src\xmc_ledts.c **** 	reg |= size << bit_shift_count;
 1041              	 .loc 1 378 0
 1042 0042 BA78     	 ldrb r2,[r7,#2]
 1043 0044 BB7B     	 ldrb r3,[r7,#14]
 1044 0046 02FA03F3 	 lsl r3,r2,r3
 1045 004a 1A46     	 mov r2,r3
 1046 004c BB68     	 ldr r3,[r7,#8]
 1047 004e 1343     	 orrs r3,r3,r2
 1048 0050 BB60     	 str r3,[r7,#8]
 379:C:/Users/Yushev/git/wpcqi-optiga-trust-charge/projects/xmc4700_relax_kit_qi_auth_example/common/Libraries/XMCLib/src\xmc_ledts.c **** 	ledts->TSCMP[reg_index] = reg;
 1049              	 .loc 1 379 0
 1050 0052 FB7B     	 ldrb r3,[r7,#15]
 1051 0054 7A68     	 ldr r2,[r7,#4]
 1052 0056 0833     	 adds r3,r3,#8
 1053 0058 9B00     	 lsls r3,r3,#2
 1054 005a 1344     	 add r3,r3,r2
 1055 005c BA68     	 ldr r2,[r7,#8]
 1056 005e 5A60     	 str r2,[r3,#4]
 380:C:/Users/Yushev/git/wpcqi-optiga-trust-charge/projects/xmc4700_relax_kit_qi_auth_example/common/Libraries/XMCLib/src\xmc_ledts.c **** }
 1057              	 .loc 1 380 0
 1058 0060 1437     	 adds r7,r7,#20
 1059              	.LCFI92:
 1060              	 .cfi_def_cfa_offset 4
 1061 0062 BD46     	 mov sp,r7
 1062              	.LCFI93:
 1063              	 .cfi_def_cfa_register 13
 1064              	 
 1065 0064 5DF8047B 	 ldr r7,[sp],#4
 1066              	.LCFI94:
 1067              	 .cfi_restore 7
 1068              	 .cfi_def_cfa_offset 0
 1069 0068 7047     	 bx lr
 1070              	 .cfi_endproc
 1071              	.LFE186:
 1073 006a 00BF     	 .text
 1074              	.Letext0:
 1075              	 .file 2 "c:\\users\\yushev\\dave_4-4-2_32bit_2018-02-23\\dave-ide-4.4.2-32bit\\eclipse\\arm-gcc-49\\arm-none-eabi\\include\\machine\\_default_types.h"
 1076              	 .file 3 "c:\\users\\yushev\\dave_4-4-2_32bit_2018-02-23\\dave-ide-4.4.2-32bit\\eclipse\\arm-gcc-49\\arm-none-eabi\\include\\stdint.h"
 1077              	 .file 4 "C:/Users/Yushev/git/wpcqi-optiga-trust-charge/projects/xmc4700_relax_kit_qi_auth_example/common/Libraries/CMSIS/Infineon/XMC4700_series/Include/XMC4700.h"
 1078              	 .file 5 "C:/Users/Yushev/git/wpcqi-optiga-trust-charge/projects/xmc4700_relax_kit_qi_auth_example/common/Libraries/XMCLib/inc/xmc4_scu.h"
 1079              	 .file 6 "C:/Users/Yushev/git/wpcqi-optiga-trust-charge/projects/xmc4700_relax_kit_qi_auth_example/common/Libraries/XMCLib/inc/xmc_ledts.h"
 1080              	 .file 7 "C:/Users/Yushev/git/wpcqi-optiga-trust-charge/projects/xmc4700_relax_kit_qi_auth_example/common/Libraries/CMSIS/Include/core_cm4.h"
 1081              	 .file 8 "C:/Users/Yushev/git/wpcqi-optiga-trust-charge/projects/xmc4700_relax_kit_qi_auth_example/common/Libraries/CMSIS/Infineon/XMC4700_series/Include/system_XMC4700.h"