   1              	 .syntax unified
   2              	 .cpu cortex-m4
   3              	 .eabi_attribute 27,3
   4              	 .fpu fpv4-sp-d16
   5              	 .eabi_attribute 20,1
   6              	 .eabi_attribute 21,1
   7              	 .eabi_attribute 23,3
   8              	 .eabi_attribute 24,1
   9              	 .eabi_attribute 25,1
  10              	 .eabi_attribute 26,1
  11              	 .eabi_attribute 30,6
  12              	 .eabi_attribute 34,1
  13              	 .eabi_attribute 18,4
  14              	 .thumb
  15              	 .file "qi_auth_prx_crypt.c"
  16              	 .text
  17              	.Ltext0:
  18              	 .cfi_sections .debug_frame
  19              	 .section .rodata.qi_auth_cr660_draft5_root_hash,"a",%progbits
  20              	 .align 2
  23              	qi_auth_cr660_draft5_root_hash:
  24 0000 F0       	 .byte -16
  25 0001 53       	 .byte 83
  26 0002 50       	 .byte 80
  27 0003 6D       	 .byte 109
  28 0004 C5       	 .byte -59
  29 0005 75       	 .byte 117
  30 0006 99       	 .byte -103
  31 0007 05       	 .byte 5
  32 0008 F6       	 .byte -10
  33 0009 A5       	 .byte -91
  34 000a 4C       	 .byte 76
  35 000b 98       	 .byte -104
  36 000c 31       	 .byte 49
  37 000d A1       	 .byte -95
  38 000e 5E       	 .byte 94
  39 000f 03       	 .byte 3
  40 0010 74       	 .byte 116
  41 0011 0E       	 .byte 14
  42 0012 A7       	 .byte -89
  43 0013 F7       	 .byte -9
  44 0014 08       	 .byte 8
  45 0015 67       	 .byte 103
  46 0016 90       	 .byte -112
  47 0017 52       	 .byte 82
  48 0018 DD       	 .byte -35
  49 0019 CA       	 .byte -54
  50 001a 52       	 .byte 82
  51 001b 85       	 .byte -123
  52 001c 50       	 .byte 80
  53 001d 26       	 .byte 38
  54 001e EE       	 .byte -18
  55 001f 05       	 .byte 5
  56              	 .section .rodata.qi_auth_cr660_draft5_root_cert,"a",%progbits
  57              	 .align 2
  60              	qi_auth_cr660_draft5_root_cert:
  61 0000 2D2D2D2D 	 .ascii "-----BEGIN CERTIFICATE-----\012MIIBCDCBr6ADAgECAgQS"
  61      2D424547 
  61      494E2043 
  61      45525449 
  61      46494341 
  62 0030 4E465A34 	 .ascii "NFZ4MAoGCCqGSM49BAMCMBExDzANBgNVBAMMBldQQ0NB\012MTA"
  62      4D416F47 
  62      43437147 
  62      534D3439 
  62      42414D43 
  63 0060 67467730 	 .ascii "gFw03MDAxMDEwMDAwMDBaGA85OTk5MTIzMTIzNTk1OVowETEPMA"
  63      334D4441 
  63      784D4445 
  63      774D4441 
  63      774D4442 
  64 0093 30474131 	 .ascii "0GA1UEAwwG\012V1BDQ0ExMDkwEwYHKoZIzj0CAQYIKoZIzj0DA"
  64      55454177 
  64      77470A56 
  64      31424451 
  64      3045784D 
  65 00c3 51634449 	 .ascii "QcDIgACRrJRlZ8BO4U4FE9i/6S3\012BhfKnrtB1kDwjqFhHvCT"
  65      67414352 
  65      724A526C 
  65      5A38424F 
  65      34553446 
  66 00f3 4C59616A 	 .ascii "LYajEzARMA8GA1UdEwEB/wQFMAMBAf8wCgYIKoZIzj0E\012AwI"
  66      457A4152 
  66      4D413847 
  66      41315564 
  66      45774542 
  67 0123 44534141 	 .ascii "DSAAwRQIhANQGTZMiejvGcvWwWXlqrS6IE02EndiXsK3zwuabQr"
  67      77525149 
  67      68414E51 
  67      47545A4D 
  67      69656A76 
  68 0156 33744169 	 .ascii "3tAiBoeQ3p\012C1dykPFtZ4vPZVMR/x8DhKm3/3oj//b3R/1q8"
  68      426F6551 
  68      33700A43 
  68      3164796B 
  68      5046745A 
  69 0186 673D3D0A 	 .ascii "g==\012-----END CERTIFICATE-----\000"
  69      2D2D2D2D 
  69      2D454E44 
  69      20434552 
  69      54494649 
  70              	 .section .rodata.qi_auth_cr660_draft5_certificate,"a",%progbits
  71              	 .align 2
  74              	qi_auth_cr660_draft5_certificate:
  75 0000 02       	 .byte 2
  76 0001 4F       	 .byte 79
  77 0002 F0       	 .byte -16
  78 0003 53       	 .byte 83
  79 0004 50       	 .byte 80
  80 0005 6D       	 .byte 109
  81 0006 C5       	 .byte -59
  82 0007 75       	 .byte 117
  83 0008 99       	 .byte -103
  84 0009 05       	 .byte 5
  85 000a F6       	 .byte -10
  86 000b A5       	 .byte -91
  87 000c 4C       	 .byte 76
  88 000d 98       	 .byte -104
  89 000e 31       	 .byte 49
  90 000f A1       	 .byte -95
  91 0010 5E       	 .byte 94
  92 0011 03       	 .byte 3
  93 0012 74       	 .byte 116
  94 0013 0E       	 .byte 14
  95 0014 A7       	 .byte -89
  96 0015 F7       	 .byte -9
  97 0016 08       	 .byte 8
  98 0017 67       	 .byte 103
  99 0018 90       	 .byte -112
 100 0019 52       	 .byte 82
 101 001a DD       	 .byte -35
 102 001b CA       	 .byte -54
 103 001c 52       	 .byte 82
 104 001d 85       	 .byte -123
 105 001e 50       	 .byte 80
 106 001f 26       	 .byte 38
 107 0020 EE       	 .byte -18
 108 0021 05       	 .byte 5
 109 0022 30       	 .byte 48
 110 0023 82       	 .byte -126
 111 0024 01       	 .byte 1
 112 0025 1F       	 .byte 31
 113 0026 30       	 .byte 48
 114 0027 81       	 .byte -127
 115 0028 C7       	 .byte -57
 116 0029 A0       	 .byte -96
 117 002a 03       	 .byte 3
 118 002b 02       	 .byte 2
 119 002c 01       	 .byte 1
 120 002d 02       	 .byte 2
 121 002e 02       	 .byte 2
 122 002f 04       	 .byte 4
 123 0030 12       	 .byte 18
 124 0031 34       	 .byte 52
 125 0032 AB       	 .byte -85
 126 0033 CD       	 .byte -51
 127 0034 30       	 .byte 48
 128 0035 0A       	 .byte 10
 129 0036 06       	 .byte 6
 130 0037 08       	 .byte 8
 131 0038 2A       	 .byte 42
 132 0039 86       	 .byte -122
 133 003a 48       	 .byte 72
 134 003b CE       	 .byte -50
 135 003c 3D       	 .byte 61
 136 003d 04       	 .byte 4
 137 003e 03       	 .byte 3
 138 003f 02       	 .byte 2
 139 0040 30       	 .byte 48
 140 0041 11       	 .byte 17
 141 0042 31       	 .byte 49
 142 0043 0F       	 .byte 15
 143 0044 30       	 .byte 48
 144 0045 0D       	 .byte 13
 145 0046 06       	 .byte 6
 146 0047 03       	 .byte 3
 147 0048 55       	 .byte 85
 148 0049 04       	 .byte 4
 149 004a 03       	 .byte 3
 150 004b 0C       	 .byte 12
 151 004c 06       	 .byte 6
 152 004d 57       	 .byte 87
 153 004e 50       	 .byte 80
 154 004f 43       	 .byte 67
 155 0050 43       	 .byte 67
 156 0051 41       	 .byte 65
 157 0052 31       	 .byte 49
 158 0053 30       	 .byte 48
 159 0054 20       	 .byte 32
 160 0055 17       	 .byte 23
 161 0056 0D       	 .byte 13
 162 0057 37       	 .byte 55
 163 0058 30       	 .byte 48
 164 0059 30       	 .byte 48
 165 005a 31       	 .byte 49
 166 005b 30       	 .byte 48
 167 005c 31       	 .byte 49
 168 005d 30       	 .byte 48
 169 005e 30       	 .byte 48
 170 005f 30       	 .byte 48
 171 0060 30       	 .byte 48
 172 0061 30       	 .byte 48
 173 0062 30       	 .byte 48
 174 0063 5A       	 .byte 90
 175 0064 18       	 .byte 24
 176 0065 0F       	 .byte 15
 177 0066 39       	 .byte 57
 178 0067 39       	 .byte 57
 179 0068 39       	 .byte 57
 180 0069 39       	 .byte 57
 181 006a 31       	 .byte 49
 182 006b 32       	 .byte 50
 183 006c 33       	 .byte 51
 184 006d 31       	 .byte 49
 185 006e 32       	 .byte 50
 186 006f 33       	 .byte 51
 187 0070 35       	 .byte 53
 188 0071 39       	 .byte 57
 189 0072 35       	 .byte 53
 190 0073 39       	 .byte 57
 191 0074 5A       	 .byte 90
 192 0075 30       	 .byte 48
 193 0076 12       	 .byte 18
 194 0077 31       	 .byte 49
 195 0078 10       	 .byte 16
 196 0079 30       	 .byte 48
 197 007a 0E       	 .byte 14
 198 007b 06       	 .byte 6
 199 007c 03       	 .byte 3
 200 007d 55       	 .byte 85
 201 007e 04       	 .byte 4
 202 007f 03       	 .byte 3
 203 0080 0C       	 .byte 12
 204 0081 07       	 .byte 7
 205 0082 43       	 .byte 67
 206 0083 41       	 .byte 65
 207 0084 46       	 .byte 70
 208 0085 45       	 .byte 69
 209 0086 2D       	 .byte 45
 210 0087 31       	 .byte 49
 211 0088 41       	 .byte 65
 212 0089 30       	 .byte 48
 213 008a 39       	 .byte 57
 214 008b 30       	 .byte 48
 215 008c 13       	 .byte 19
 216 008d 06       	 .byte 6
 217 008e 07       	 .byte 7
 218 008f 2A       	 .byte 42
 219 0090 86       	 .byte -122
 220 0091 48       	 .byte 72
 221 0092 CE       	 .byte -50
 222 0093 3D       	 .byte 61
 223 0094 02       	 .byte 2
 224 0095 01       	 .byte 1
 225 0096 06       	 .byte 6
 226 0097 08       	 .byte 8
 227 0098 2A       	 .byte 42
 228 0099 86       	 .byte -122
 229 009a 48       	 .byte 72
 230 009b CE       	 .byte -50
 231 009c 3D       	 .byte 61
 232 009d 03       	 .byte 3
 233 009e 01       	 .byte 1
 234 009f 07       	 .byte 7
 235 00a0 03       	 .byte 3
 236 00a1 22       	 .byte 34
 237 00a2 00       	 .byte 0
 238 00a3 03       	 .byte 3
 239 00a4 A8       	 .byte -88
 240 00a5 07       	 .byte 7
 241 00a6 50       	 .byte 80
 242 00a7 B5       	 .byte -75
 243 00a8 D1       	 .byte -47
 244 00a9 98       	 .byte -104
 245 00aa 21       	 .byte 33
 246 00ab 18       	 .byte 24
 247 00ac A9       	 .byte -87
 248 00ad 29       	 .byte 41
 249 00ae 35       	 .byte 53
 250 00af 4D       	 .byte 77
 251 00b0 4A       	 .byte 74
 252 00b1 A8       	 .byte -88
 253 00b2 33       	 .byte 51
 254 00b3 33       	 .byte 51
 255 00b4 AF       	 .byte -81
 256 00b5 7F       	 .byte 127
 257 00b6 93       	 .byte -109
 258 00b7 F0       	 .byte -16
 259 00b8 29       	 .byte 41
 260 00b9 93       	 .byte -109
 261 00ba 65       	 .byte 101
 262 00bb D3       	 .byte -45
 263 00bc E9       	 .byte -23
 264 00bd E0       	 .byte -32
 265 00be 99       	 .byte -103
 266 00bf 97       	 .byte -105
 267 00c0 38       	 .byte 56
 268 00c1 96       	 .byte -106
 269 00c2 94       	 .byte -108
 270 00c3 5D       	 .byte 93
 271 00c4 A3       	 .byte -93
 272 00c5 2A       	 .byte 42
 273 00c6 30       	 .byte 48
 274 00c7 28       	 .byte 40
 275 00c8 30       	 .byte 48
 276 00c9 12       	 .byte 18
 277 00ca 06       	 .byte 6
 278 00cb 03       	 .byte 3
 279 00cc 55       	 .byte 85
 280 00cd 1D       	 .byte 29
 281 00ce 13       	 .byte 19
 282 00cf 01       	 .byte 1
 283 00d0 01       	 .byte 1
 284 00d1 FF       	 .byte -1
 285 00d2 04       	 .byte 4
 286 00d3 08       	 .byte 8
 287 00d4 30       	 .byte 48
 288 00d5 06       	 .byte 6
 289 00d6 01       	 .byte 1
 290 00d7 01       	 .byte 1
 291 00d8 FF       	 .byte -1
 292 00d9 02       	 .byte 2
 293 00da 01       	 .byte 1
 294 00db 00       	 .byte 0
 295 00dc 30       	 .byte 48
 296 00dd 12       	 .byte 18
 297 00de 06       	 .byte 6
 298 00df 05       	 .byte 5
 299 00e0 67       	 .byte 103
 300 00e1 81       	 .byte -127
 301 00e2 7F       	 .byte 127
 302 00e3 01       	 .byte 1
 303 00e4 01       	 .byte 1
 304 00e5 01       	 .byte 1
 305 00e6 01       	 .byte 1
 306 00e7 FF       	 .byte -1
 307 00e8 04       	 .byte 4
 308 00e9 06       	 .byte 6
 309 00ea 04       	 .byte 4
 310 00eb 04       	 .byte 4
 311 00ec 00       	 .byte 0
 312 00ed 00       	 .byte 0
 313 00ee 00       	 .byte 0
 314 00ef 00       	 .byte 0
 315 00f0 30       	 .byte 48
 316 00f1 0A       	 .byte 10
 317 00f2 06       	 .byte 6
 318 00f3 08       	 .byte 8
 319 00f4 2A       	 .byte 42
 320 00f5 86       	 .byte -122
 321 00f6 48       	 .byte 72
 322 00f7 CE       	 .byte -50
 323 00f8 3D       	 .byte 61
 324 00f9 04       	 .byte 4
 325 00fa 03       	 .byte 3
 326 00fb 02       	 .byte 2
 327 00fc 03       	 .byte 3
 328 00fd 47       	 .byte 71
 329 00fe 00       	 .byte 0
 330 00ff 30       	 .byte 48
 331 0100 44       	 .byte 68
 332 0101 02       	 .byte 2
 333 0102 20       	 .byte 32
 334 0103 33       	 .byte 51
 335 0104 E3       	 .byte -29
 336 0105 89       	 .byte -119
 337 0106 70       	 .byte 112
 338 0107 E1       	 .byte -31
 339 0108 6F       	 .byte 111
 340 0109 D7       	 .byte -41
 341 010a DC       	 .byte -36
 342 010b 87       	 .byte -121
 343 010c CB       	 .byte -53
 344 010d 50       	 .byte 80
 345 010e C9       	 .byte -55
 346 010f 83       	 .byte -125
 347 0110 BA       	 .byte -70
 348 0111 8E       	 .byte -114
 349 0112 6F       	 .byte 111
 350 0113 85       	 .byte -123
 351 0114 34       	 .byte 52
 352 0115 71       	 .byte 113
 353 0116 F7       	 .byte -9
 354 0117 A2       	 .byte -94
 355 0118 D0       	 .byte -48
 356 0119 A4       	 .byte -92
 357 011a BC       	 .byte -68
 358 011b F3       	 .byte -13
 359 011c F2       	 .byte -14
 360 011d DA       	 .byte -38
 361 011e 06       	 .byte 6
 362 011f 0E       	 .byte 14
 363 0120 D6       	 .byte -42
 364 0121 61       	 .byte 97
 365 0122 64       	 .byte 100
 366 0123 02       	 .byte 2
 367 0124 20       	 .byte 32
 368 0125 5D       	 .byte 93
 369 0126 2A       	 .byte 42
 370 0127 56       	 .byte 86
 371 0128 E5       	 .byte -27
 372 0129 44       	 .byte 68
 373 012a 66       	 .byte 102
 374 012b 72       	 .byte 114
 375 012c D7       	 .byte -41
 376 012d CD       	 .byte -51
 377 012e 26       	 .byte 38
 378 012f 51       	 .byte 81
 379 0130 1F       	 .byte 31
 380 0131 1A       	 .byte 26
 381 0132 93       	 .byte -109
 382 0133 96       	 .byte -106
 383 0134 C1       	 .byte -63
 384 0135 28       	 .byte 40
 385 0136 AD       	 .byte -83
 386 0137 D2       	 .byte -46
 387 0138 5C       	 .byte 92
 388 0139 01       	 .byte 1
 389 013a 04       	 .byte 4
 390 013b 2E       	 .byte 46
 391 013c 5C       	 .byte 92
 392 013d 7C       	 .byte 124
 393 013e 52       	 .byte 82
 394 013f B0       	 .byte -80
 395 0140 76       	 .byte 118
 396 0141 44       	 .byte 68
 397 0142 FD       	 .byte -3
 398 0143 9A       	 .byte -102
 399 0144 FF       	 .byte -1
 400 0145 30       	 .byte 48
 401 0146 82       	 .byte -126
 402 0147 01       	 .byte 1
 403 0148 08       	 .byte 8
 404 0149 30       	 .byte 48
 405 014a 81       	 .byte -127
 406 014b B0       	 .byte -80
 407 014c A0       	 .byte -96
 408 014d 03       	 .byte 3
 409 014e 02       	 .byte 2
 410 014f 01       	 .byte 1
 411 0150 02       	 .byte 2
 412 0151 02       	 .byte 2
 413 0152 04       	 .byte 4
 414 0153 12       	 .byte 18
 415 0154 34       	 .byte 52
 416 0155 EF       	 .byte -17
 417 0156 01       	 .byte 1
 418 0157 30       	 .byte 48
 419 0158 0A       	 .byte 10
 420 0159 06       	 .byte 6
 421 015a 08       	 .byte 8
 422 015b 2A       	 .byte 42
 423 015c 86       	 .byte -122
 424 015d 48       	 .byte 72
 425 015e CE       	 .byte -50
 426 015f 3D       	 .byte 61
 427 0160 04       	 .byte 4
 428 0161 03       	 .byte 3
 429 0162 02       	 .byte 2
 430 0163 30       	 .byte 48
 431 0164 12       	 .byte 18
 432 0165 31       	 .byte 49
 433 0166 10       	 .byte 16
 434 0167 30       	 .byte 48
 435 0168 0E       	 .byte 14
 436 0169 06       	 .byte 6
 437 016a 03       	 .byte 3
 438 016b 55       	 .byte 85
 439 016c 04       	 .byte 4
 440 016d 03       	 .byte 3
 441 016e 0C       	 .byte 12
 442 016f 07       	 .byte 7
 443 0170 43       	 .byte 67
 444 0171 41       	 .byte 65
 445 0172 46       	 .byte 70
 446 0173 45       	 .byte 69
 447 0174 2D       	 .byte 45
 448 0175 31       	 .byte 49
 449 0176 41       	 .byte 65
 450 0177 30       	 .byte 48
 451 0178 20       	 .byte 32
 452 0179 17       	 .byte 23
 453 017a 0D       	 .byte 13
 454 017b 37       	 .byte 55
 455 017c 30       	 .byte 48
 456 017d 30       	 .byte 48
 457 017e 31       	 .byte 49
 458 017f 30       	 .byte 48
 459 0180 31       	 .byte 49
 460 0181 30       	 .byte 48
 461 0182 30       	 .byte 48
 462 0183 30       	 .byte 48
 463 0184 30       	 .byte 48
 464 0185 30       	 .byte 48
 465 0186 30       	 .byte 48
 466 0187 5A       	 .byte 90
 467 0188 18       	 .byte 24
 468 0189 0F       	 .byte 15
 469 018a 39       	 .byte 57
 470 018b 39       	 .byte 57
 471 018c 39       	 .byte 57
 472 018d 39       	 .byte 57
 473 018e 31       	 .byte 49
 474 018f 32       	 .byte 50
 475 0190 33       	 .byte 51
 476 0191 31       	 .byte 49
 477 0192 32       	 .byte 50
 478 0193 33       	 .byte 51
 479 0194 35       	 .byte 53
 480 0195 39       	 .byte 57
 481 0196 35       	 .byte 53
 482 0197 39       	 .byte 57
 483 0198 5A       	 .byte 90
 484 0199 30       	 .byte 48
 485 019a 11       	 .byte 17
 486 019b 31       	 .byte 49
 487 019c 0F       	 .byte 15
 488 019d 30       	 .byte 48
 489 019e 0D       	 .byte 13
 490 019f 06       	 .byte 6
 491 01a0 03       	 .byte 3
 492 01a1 55       	 .byte 85
 493 01a2 04       	 .byte 4
 494 01a3 03       	 .byte 3
 495 01a4 0C       	 .byte 12
 496 01a5 06       	 .byte 6
 497 01a6 30       	 .byte 48
 498 01a7 30       	 .byte 48
 499 01a8 36       	 .byte 54
 500 01a9 33       	 .byte 51
 501 01aa 38       	 .byte 56
 502 01ab 36       	 .byte 54
 503 01ac 30       	 .byte 48
 504 01ad 39       	 .byte 57
 505 01ae 30       	 .byte 48
 506 01af 13       	 .byte 19
 507 01b0 06       	 .byte 6
 508 01b1 07       	 .byte 7
 509 01b2 2A       	 .byte 42
 510 01b3 86       	 .byte -122
 511 01b4 48       	 .byte 72
 512 01b5 CE       	 .byte -50
 513 01b6 3D       	 .byte 61
 514 01b7 02       	 .byte 2
 515 01b8 01       	 .byte 1
 516 01b9 06       	 .byte 6
 517 01ba 08       	 .byte 8
 518 01bb 2A       	 .byte 42
 519 01bc 86       	 .byte -122
 520 01bd 48       	 .byte 72
 521 01be CE       	 .byte -50
 522 01bf 3D       	 .byte 61
 523 01c0 03       	 .byte 3
 524 01c1 01       	 .byte 1
 525 01c2 07       	 .byte 7
 526 01c3 03       	 .byte 3
 527 01c4 22       	 .byte 34
 528 01c5 00       	 .byte 0
 529 01c6 03       	 .byte 3
 530 01c7 3B       	 .byte 59
 531 01c8 A9       	 .byte -87
 532 01c9 27       	 .byte 39
 533 01ca EB       	 .byte -21
 534 01cb 4F       	 .byte 79
 535 01cc ED       	 .byte -19
 536 01cd FA       	 .byte -6
 537 01ce FE       	 .byte -2
 538 01cf 18       	 .byte 24
 539 01d0 00       	 .byte 0
 540 01d1 37       	 .byte 55
 541 01d2 1E       	 .byte 30
 542 01d3 C2       	 .byte -62
 543 01d4 E8       	 .byte -24
 544 01d5 69       	 .byte 105
 545 01d6 45       	 .byte 69
 546 01d7 70       	 .byte 112
 547 01d8 A5       	 .byte -91
 548 01d9 03       	 .byte 3
 549 01da DE       	 .byte -34
 550 01db 46       	 .byte 70
 551 01dc 43       	 .byte 67
 552 01dd E0       	 .byte -32
 553 01de 9F       	 .byte -97
 554 01df 6A       	 .byte 106
 555 01e0 BB       	 .byte -69
 556 01e1 93       	 .byte -109
 557 01e2 0F       	 .byte 15
 558 01e3 AE       	 .byte -82
 559 01e4 52       	 .byte 82
 560 01e5 97       	 .byte -105
 561 01e6 3E       	 .byte 62
 562 01e7 A3       	 .byte -93
 563 01e8 13       	 .byte 19
 564 01e9 30       	 .byte 48
 565 01ea 11       	 .byte 17
 566 01eb 30       	 .byte 48
 567 01ec 0F       	 .byte 15
 568 01ed 06       	 .byte 6
 569 01ee 05       	 .byte 5
 570 01ef 67       	 .byte 103
 571 01f0 81       	 .byte -127
 572 01f1 7F       	 .byte 127
 573 01f2 01       	 .byte 1
 574 01f3 02       	 .byte 2
 575 01f4 04       	 .byte 4
 576 01f5 06       	 .byte 6
 577 01f6 04       	 .byte 4
 578 01f7 04       	 .byte 4
 579 01f8 00       	 .byte 0
 580 01f9 00       	 .byte 0
 581 01fa 00       	 .byte 0
 582 01fb 01       	 .byte 1
 583 01fc 30       	 .byte 48
 584 01fd 0A       	 .byte 10
 585 01fe 06       	 .byte 6
 586 01ff 08       	 .byte 8
 587 0200 2A       	 .byte 42
 588 0201 86       	 .byte -122
 589 0202 48       	 .byte 72
 590 0203 CE       	 .byte -50
 591 0204 3D       	 .byte 61
 592 0205 04       	 .byte 4
 593 0206 03       	 .byte 3
 594 0207 02       	 .byte 2
 595 0208 03       	 .byte 3
 596 0209 47       	 .byte 71
 597 020a 00       	 .byte 0
 598 020b 30       	 .byte 48
 599 020c 44       	 .byte 68
 600 020d 02       	 .byte 2
 601 020e 20       	 .byte 32
 602 020f 42       	 .byte 66
 603 0210 B1       	 .byte -79
 604 0211 69       	 .byte 105
 605 0212 C1       	 .byte -63
 606 0213 63       	 .byte 99
 607 0214 DA       	 .byte -38
 608 0215 B9       	 .byte -71
 609 0216 53       	 .byte 83
 610 0217 3C       	 .byte 60
 611 0218 A2       	 .byte -94
 612 0219 4B       	 .byte 75
 613 021a B0       	 .byte -80
 614 021b 49       	 .byte 73
 615 021c B1       	 .byte -79
 616 021d 1E       	 .byte 30
 617 021e A3       	 .byte -93
 618 021f 14       	 .byte 20
 619 0220 8E       	 .byte -114
 620 0221 36       	 .byte 54
 621 0222 5A       	 .byte 90
 622 0223 5B       	 .byte 91
 623 0224 94       	 .byte -108
 624 0225 69       	 .byte 105
 625 0226 D3       	 .byte -45
 626 0227 9E       	 .byte -98
 627 0228 45       	 .byte 69
 628 0229 27       	 .byte 39
 629 022a 0C       	 .byte 12
 630 022b A1       	 .byte -95
 631 022c 65       	 .byte 101
 632 022d F5       	 .byte -11
 633 022e 17       	 .byte 23
 634 022f 02       	 .byte 2
 635 0230 20       	 .byte 32
 636 0231 3B       	 .byte 59
 637 0232 AE       	 .byte -82
 638 0233 63       	 .byte 99
 639 0234 74       	 .byte 116
 640 0235 E6       	 .byte -26
 641 0236 99       	 .byte -103
 642 0237 D6       	 .byte -42
 643 0238 69       	 .byte 105
 644 0239 DF       	 .byte -33
 645 023a 30       	 .byte 48
 646 023b C6       	 .byte -58
 647 023c C5       	 .byte -59
 648 023d 29       	 .byte 41
 649 023e 48       	 .byte 72
 650 023f 72       	 .byte 114
 651 0240 4B       	 .byte 75
 652 0241 EA       	 .byte -22
 653 0242 5A       	 .byte 90
 654 0243 88       	 .byte -120
 655 0244 FE       	 .byte -2
 656 0245 04       	 .byte 4
 657 0246 83       	 .byte -125
 658 0247 66       	 .byte 102
 659 0248 D9       	 .byte -39
 660 0249 E0       	 .byte -32
 661 024a F7       	 .byte -9
 662 024b 66       	 .byte 102
 663 024c 4F       	 .byte 79
 664 024d 69       	 .byte 105
 665 024e 7D       	 .byte 125
 666 024f 9A       	 .byte -102
 667 0250 DF       	 .byte -33
 668 0251 000000   	 .section .bss.optiga_lib_status,"aw",%nobits
 669              	 .align 1
 672              	optiga_lib_status:
 673 0000 0000     	 .space 2
 674              	 .section .bss.p_crypt,"aw",%nobits
 675              	 .align 2
 678              	p_crypt:
 679 0000 00000000 	 .space 4
 680              	 .section .bss.p_util,"aw",%nobits
 681              	 .align 2
 684              	p_util:
 685 0000 00000000 	 .space 4
 686              	 .section .text.optiga_callback,"ax",%progbits
 687              	 .align 2
 688              	 .thumb
 689              	 .thumb_func
 691              	optiga_callback:
 692              	.LFB0:
 693              	 .file 1 "C:/Users/Yushev/git/wpcqi-optiga-trust-charge/wpc/PRx/qi_auth_prx_crypt.c"
   1:C:/Users/Yushev/git/wpcqi-optiga-trust-charge/wpc/PRx\qi_auth_prx_crypt.c **** /**
   2:C:/Users/Yushev/git/wpcqi-optiga-trust-charge/wpc/PRx\qi_auth_prx_crypt.c **** * MIT License
   3:C:/Users/Yushev/git/wpcqi-optiga-trust-charge/wpc/PRx\qi_auth_prx_crypt.c **** *
   4:C:/Users/Yushev/git/wpcqi-optiga-trust-charge/wpc/PRx\qi_auth_prx_crypt.c **** * Copyright (c) 2020 Infineon Technologies AG
   5:C:/Users/Yushev/git/wpcqi-optiga-trust-charge/wpc/PRx\qi_auth_prx_crypt.c **** *
   6:C:/Users/Yushev/git/wpcqi-optiga-trust-charge/wpc/PRx\qi_auth_prx_crypt.c **** * Permission is hereby granted, free of charge, to any person obtaining a copy
   7:C:/Users/Yushev/git/wpcqi-optiga-trust-charge/wpc/PRx\qi_auth_prx_crypt.c **** * of this software and associated documentation files (the "Software"), to deal
   8:C:/Users/Yushev/git/wpcqi-optiga-trust-charge/wpc/PRx\qi_auth_prx_crypt.c **** * in the Software without restriction, including without limitation the rights
   9:C:/Users/Yushev/git/wpcqi-optiga-trust-charge/wpc/PRx\qi_auth_prx_crypt.c **** * to use, copy, modify, merge, publish, distribute, sublicense, and/or sell
  10:C:/Users/Yushev/git/wpcqi-optiga-trust-charge/wpc/PRx\qi_auth_prx_crypt.c **** * copies of the Software, and to permit persons to whom the Software is
  11:C:/Users/Yushev/git/wpcqi-optiga-trust-charge/wpc/PRx\qi_auth_prx_crypt.c **** * furnished to do so, subject to the following conditions:
  12:C:/Users/Yushev/git/wpcqi-optiga-trust-charge/wpc/PRx\qi_auth_prx_crypt.c **** *
  13:C:/Users/Yushev/git/wpcqi-optiga-trust-charge/wpc/PRx\qi_auth_prx_crypt.c **** * The above copyright notice and this permission notice shall be included in all
  14:C:/Users/Yushev/git/wpcqi-optiga-trust-charge/wpc/PRx\qi_auth_prx_crypt.c **** * copies or substantial portions of the Software.
  15:C:/Users/Yushev/git/wpcqi-optiga-trust-charge/wpc/PRx\qi_auth_prx_crypt.c **** *
  16:C:/Users/Yushev/git/wpcqi-optiga-trust-charge/wpc/PRx\qi_auth_prx_crypt.c **** * THE SOFTWARE IS PROVIDED "AS IS", WITHOUT WARRANTY OF ANY KIND, EXPRESS OR
  17:C:/Users/Yushev/git/wpcqi-optiga-trust-charge/wpc/PRx\qi_auth_prx_crypt.c **** * IMPLIED, INCLUDING BUT NOT LIMITED TO THE WARRANTIES OF MERCHANTABILITY,
  18:C:/Users/Yushev/git/wpcqi-optiga-trust-charge/wpc/PRx\qi_auth_prx_crypt.c **** * FITNESS FOR A PARTICULAR PURPOSE AND NONINFRINGEMENT. IN NO EVENT SHALL THE
  19:C:/Users/Yushev/git/wpcqi-optiga-trust-charge/wpc/PRx\qi_auth_prx_crypt.c **** * AUTHORS OR COPYRIGHT HOLDERS BE LIABLE FOR ANY CLAIM, DAMAGES OR OTHER
  20:C:/Users/Yushev/git/wpcqi-optiga-trust-charge/wpc/PRx\qi_auth_prx_crypt.c **** * LIABILITY, WHETHER IN AN ACTION OF CONTRACT, TORT OR OTHERWISE, ARISING FROM,
  21:C:/Users/Yushev/git/wpcqi-optiga-trust-charge/wpc/PRx\qi_auth_prx_crypt.c **** * OUT OF OR IN CONNECTION WITH THE SOFTWARE OR THE USE OR OTHER DEALINGS IN THE
  22:C:/Users/Yushev/git/wpcqi-optiga-trust-charge/wpc/PRx\qi_auth_prx_crypt.c **** * SOFTWARE
  23:C:/Users/Yushev/git/wpcqi-optiga-trust-charge/wpc/PRx\qi_auth_prx_crypt.c **** *
  24:C:/Users/Yushev/git/wpcqi-optiga-trust-charge/wpc/PRx\qi_auth_prx_crypt.c **** * \file qi_auth_prx_crypt.c
  25:C:/Users/Yushev/git/wpcqi-optiga-trust-charge/wpc/PRx\qi_auth_prx_crypt.c **** *
  26:C:/Users/Yushev/git/wpcqi-optiga-trust-charge/wpc/PRx\qi_auth_prx_crypt.c **** * \brief   This file implements the APIs for Crypto Wrappers.
  27:C:/Users/Yushev/git/wpcqi-optiga-trust-charge/wpc/PRx\qi_auth_prx_crypt.c **** * @{
  28:C:/Users/Yushev/git/wpcqi-optiga-trust-charge/wpc/PRx\qi_auth_prx_crypt.c **** */
  29:C:/Users/Yushev/git/wpcqi-optiga-trust-charge/wpc/PRx\qi_auth_prx_crypt.c **** 
  30:C:/Users/Yushev/git/wpcqi-optiga-trust-charge/wpc/PRx\qi_auth_prx_crypt.c **** #include <string.h>
  31:C:/Users/Yushev/git/wpcqi-optiga-trust-charge/wpc/PRx\qi_auth_prx_crypt.c **** #include <ctype.h>
  32:C:/Users/Yushev/git/wpcqi-optiga-trust-charge/wpc/PRx\qi_auth_prx_crypt.c **** #include <mbedtls/ecp.h>
  33:C:/Users/Yushev/git/wpcqi-optiga-trust-charge/wpc/PRx\qi_auth_prx_crypt.c **** 
  34:C:/Users/Yushev/git/wpcqi-optiga-trust-charge/wpc/PRx\qi_auth_prx_crypt.c **** #include <optiga/optiga_crypt.h>
  35:C:/Users/Yushev/git/wpcqi-optiga-trust-charge/wpc/PRx\qi_auth_prx_crypt.c **** #include <optiga/optiga_util.h>
  36:C:/Users/Yushev/git/wpcqi-optiga-trust-charge/wpc/PRx\qi_auth_prx_crypt.c **** #include <optiga/pal/pal_crypt.h>
  37:C:/Users/Yushev/git/wpcqi-optiga-trust-charge/wpc/PRx\qi_auth_prx_crypt.c **** #include <optiga/pal/pal_os_event.h>
  38:C:/Users/Yushev/git/wpcqi-optiga-trust-charge/wpc/PRx\qi_auth_prx_crypt.c **** #include <optiga/pal/pal_os_timer.h>
  39:C:/Users/Yushev/git/wpcqi-optiga-trust-charge/wpc/PRx\qi_auth_prx_crypt.c **** #include <optiga/common/optiga_lib_logger.h>
  40:C:/Users/Yushev/git/wpcqi-optiga-trust-charge/wpc/PRx\qi_auth_prx_crypt.c **** 
  41:C:/Users/Yushev/git/wpcqi-optiga-trust-charge/wpc/PRx\qi_auth_prx_crypt.c **** #include "ecdsa_utils.h"
  42:C:/Users/Yushev/git/wpcqi-optiga-trust-charge/wpc/PRx\qi_auth_prx_crypt.c **** #include "qi_auth_prx_crypt.h"
  43:C:/Users/Yushev/git/wpcqi-optiga-trust-charge/wpc/PRx\qi_auth_prx_crypt.c **** #include "qi_auth_fixtures.h"
  44:C:/Users/Yushev/git/wpcqi-optiga-trust-charge/wpc/PRx\qi_auth_prx_crypt.c **** 
  45:C:/Users/Yushev/git/wpcqi-optiga-trust-charge/wpc/PRx\qi_auth_prx_crypt.c **** #define MAXCMD_LEN			255
  46:C:/Users/Yushev/git/wpcqi-optiga-trust-charge/wpc/PRx\qi_auth_prx_crypt.c **** #define HEXDUMP_COLS    	16
  47:C:/Users/Yushev/git/wpcqi-optiga-trust-charge/wpc/PRx\qi_auth_prx_crypt.c **** 
  48:C:/Users/Yushev/git/wpcqi-optiga-trust-charge/wpc/PRx\qi_auth_prx_crypt.c **** 
  49:C:/Users/Yushev/git/wpcqi-optiga-trust-charge/wpc/PRx\qi_auth_prx_crypt.c **** #define QI_AUTH_CERTCAIN_OID	                0xE0E0
  50:C:/Users/Yushev/git/wpcqi-optiga-trust-charge/wpc/PRx\qi_auth_prx_crypt.c **** 
  51:C:/Users/Yushev/git/wpcqi-optiga-trust-charge/wpc/PRx\qi_auth_prx_crypt.c **** #define QI_AUTH_DEVICE_PRIKEY_OID               OPTIGA_KEY_ID_E0F0
  52:C:/Users/Yushev/git/wpcqi-optiga-trust-charge/wpc/PRx\qi_auth_prx_crypt.c **** 
  53:C:/Users/Yushev/git/wpcqi-optiga-trust-charge/wpc/PRx\qi_auth_prx_crypt.c **** /// Used to check ZERO Length
  54:C:/Users/Yushev/git/wpcqi-optiga-trust-charge/wpc/PRx\qi_auth_prx_crypt.c **** #define ZERO_LENGTH                         0x00
  55:C:/Users/Yushev/git/wpcqi-optiga-trust-charge/wpc/PRx\qi_auth_prx_crypt.c **** 
  56:C:/Users/Yushev/git/wpcqi-optiga-trust-charge/wpc/PRx\qi_auth_prx_crypt.c **** ///Maximum length of the generated seed
  57:C:/Users/Yushev/git/wpcqi-optiga-trust-charge/wpc/PRx\qi_auth_prx_crypt.c **** #define MAX_SEED_LENGTH                     0x20
  58:C:/Users/Yushev/git/wpcqi-optiga-trust-charge/wpc/PRx\qi_auth_prx_crypt.c **** 
  59:C:/Users/Yushev/git/wpcqi-optiga-trust-charge/wpc/PRx\qi_auth_prx_crypt.c **** /// Value to indicate that the random bytes are read from Security Chip
  60:C:/Users/Yushev/git/wpcqi-optiga-trust-charge/wpc/PRx\qi_auth_prx_crypt.c **** #define RANDOM_READ                         0xAA
  61:C:/Users/Yushev/git/wpcqi-optiga-trust-charge/wpc/PRx\qi_auth_prx_crypt.c **** 
  62:C:/Users/Yushev/git/wpcqi-optiga-trust-charge/wpc/PRx\qi_auth_prx_crypt.c **** /// Value to indicate that the RNG is initialized
  63:C:/Users/Yushev/git/wpcqi-optiga-trust-charge/wpc/PRx\qi_auth_prx_crypt.c **** #define RNG_INITIALIZED                     0x95
  64:C:/Users/Yushev/git/wpcqi-optiga-trust-charge/wpc/PRx\qi_auth_prx_crypt.c **** 
  65:C:/Users/Yushev/git/wpcqi-optiga-trust-charge/wpc/PRx\qi_auth_prx_crypt.c **** ///Number of bytes of random data read from Security Chip
  66:C:/Users/Yushev/git/wpcqi-optiga-trust-charge/wpc/PRx\qi_auth_prx_crypt.c **** #define RANDOM_DATA_LENGTH                  0x18
  67:C:/Users/Yushev/git/wpcqi-optiga-trust-charge/wpc/PRx\qi_auth_prx_crypt.c **** 
  68:C:/Users/Yushev/git/wpcqi-optiga-trust-charge/wpc/PRx\qi_auth_prx_crypt.c **** ///Size of the counter
  69:C:/Users/Yushev/git/wpcqi-optiga-trust-charge/wpc/PRx\qi_auth_prx_crypt.c **** #define COUNTER_LENGTH            	        0x08
  70:C:/Users/Yushev/git/wpcqi-optiga-trust-charge/wpc/PRx\qi_auth_prx_crypt.c **** 
  71:C:/Users/Yushev/git/wpcqi-optiga-trust-charge/wpc/PRx\qi_auth_prx_crypt.c **** ///size of public key for NIST-P256
  72:C:/Users/Yushev/git/wpcqi-optiga-trust-charge/wpc/PRx\qi_auth_prx_crypt.c **** #define LENGTH_PUB_KEY   			        0x21
  73:C:/Users/Yushev/git/wpcqi-optiga-trust-charge/wpc/PRx\qi_auth_prx_crypt.c **** 
  74:C:/Users/Yushev/git/wpcqi-optiga-trust-charge/wpc/PRx\qi_auth_prx_crypt.c **** /// @endcond
  75:C:/Users/Yushev/git/wpcqi-optiga-trust-charge/wpc/PRx\qi_auth_prx_crypt.c **** 
  76:C:/Users/Yushev/git/wpcqi-optiga-trust-charge/wpc/PRx\qi_auth_prx_crypt.c **** /// Result is OK
  77:C:/Users/Yushev/git/wpcqi-optiga-trust-charge/wpc/PRx\qi_auth_prx_crypt.c **** #define RESULT_OK                           0x00
  78:C:/Users/Yushev/git/wpcqi-optiga-trust-charge/wpc/PRx\qi_auth_prx_crypt.c **** 
  79:C:/Users/Yushev/git/wpcqi-optiga-trust-charge/wpc/PRx\qi_auth_prx_crypt.c **** 
  80:C:/Users/Yushev/git/wpcqi-optiga-trust-charge/wpc/PRx\qi_auth_prx_crypt.c **** #ifdef OPTIGA_LIB_ENABLE_COMMS_LOGGING
  81:C:/Users/Yushev/git/wpcqi-optiga-trust-charge/wpc/PRx\qi_auth_prx_crypt.c **** #define WAIT_FOR_COMPLETION(ret) \
  82:C:/Users/Yushev/git/wpcqi-optiga-trust-charge/wpc/PRx\qi_auth_prx_crypt.c **** 	if (OPTIGA_LIB_SUCCESS != ret)\
  83:C:/Users/Yushev/git/wpcqi-optiga-trust-charge/wpc/PRx\qi_auth_prx_crypt.c **** 	{\
  84:C:/Users/Yushev/git/wpcqi-optiga-trust-charge/wpc/PRx\qi_auth_prx_crypt.c **** 		break;\
  85:C:/Users/Yushev/git/wpcqi-optiga-trust-charge/wpc/PRx\qi_auth_prx_crypt.c **** 	}\
  86:C:/Users/Yushev/git/wpcqi-optiga-trust-charge/wpc/PRx\qi_auth_prx_crypt.c **** 	while (optiga_lib_status == OPTIGA_LIB_BUSY) \
  87:C:/Users/Yushev/git/wpcqi-optiga-trust-charge/wpc/PRx\qi_auth_prx_crypt.c **** 	{\
  88:C:/Users/Yushev/git/wpcqi-optiga-trust-charge/wpc/PRx\qi_auth_prx_crypt.c **** 		pal_os_timer_delay_in_milliseconds(1);\
  89:C:/Users/Yushev/git/wpcqi-optiga-trust-charge/wpc/PRx\qi_auth_prx_crypt.c **** 		pal_os_event_trigger_registered_callback();\
  90:C:/Users/Yushev/git/wpcqi-optiga-trust-charge/wpc/PRx\qi_auth_prx_crypt.c **** 	} \
  91:C:/Users/Yushev/git/wpcqi-optiga-trust-charge/wpc/PRx\qi_auth_prx_crypt.c **** 	\
  92:C:/Users/Yushev/git/wpcqi-optiga-trust-charge/wpc/PRx\qi_auth_prx_crypt.c **** 	if (OPTIGA_LIB_SUCCESS != optiga_lib_status)\
  93:C:/Users/Yushev/git/wpcqi-optiga-trust-charge/wpc/PRx\qi_auth_prx_crypt.c **** 	{ \
  94:C:/Users/Yushev/git/wpcqi-optiga-trust-charge/wpc/PRx\qi_auth_prx_crypt.c **** 			ret = optiga_lib_status;\
  95:C:/Users/Yushev/git/wpcqi-optiga-trust-charge/wpc/PRx\qi_auth_prx_crypt.c **** 			printf("Error: 0x%02X \r\n", optiga_lib_status);\
  96:C:/Users/Yushev/git/wpcqi-optiga-trust-charge/wpc/PRx\qi_auth_prx_crypt.c **** 			optiga_util_destroy(p_util);\
  97:C:/Users/Yushev/git/wpcqi-optiga-trust-charge/wpc/PRx\qi_auth_prx_crypt.c **** 			optiga_crypt_destroy(p_crypt);\
  98:C:/Users/Yushev/git/wpcqi-optiga-trust-charge/wpc/PRx\qi_auth_prx_crypt.c **** 			pal_os_event_destroy(NULL);\
  99:C:/Users/Yushev/git/wpcqi-optiga-trust-charge/wpc/PRx\qi_auth_prx_crypt.c **** 			break; \
 100:C:/Users/Yushev/git/wpcqi-optiga-trust-charge/wpc/PRx\qi_auth_prx_crypt.c **** 	}
 101:C:/Users/Yushev/git/wpcqi-optiga-trust-charge/wpc/PRx\qi_auth_prx_crypt.c **** #else
 102:C:/Users/Yushev/git/wpcqi-optiga-trust-charge/wpc/PRx\qi_auth_prx_crypt.c **** #define WAIT_FOR_COMPLETION(ret) \
 103:C:/Users/Yushev/git/wpcqi-optiga-trust-charge/wpc/PRx\qi_auth_prx_crypt.c **** 	if (OPTIGA_LIB_SUCCESS != ret)\
 104:C:/Users/Yushev/git/wpcqi-optiga-trust-charge/wpc/PRx\qi_auth_prx_crypt.c **** 	{\
 105:C:/Users/Yushev/git/wpcqi-optiga-trust-charge/wpc/PRx\qi_auth_prx_crypt.c **** 		break;\
 106:C:/Users/Yushev/git/wpcqi-optiga-trust-charge/wpc/PRx\qi_auth_prx_crypt.c **** 	}\
 107:C:/Users/Yushev/git/wpcqi-optiga-trust-charge/wpc/PRx\qi_auth_prx_crypt.c **** 	while (optiga_lib_status == OPTIGA_LIB_BUSY) \
 108:C:/Users/Yushev/git/wpcqi-optiga-trust-charge/wpc/PRx\qi_auth_prx_crypt.c **** 	{\
 109:C:/Users/Yushev/git/wpcqi-optiga-trust-charge/wpc/PRx\qi_auth_prx_crypt.c **** 		pal_os_timer_delay_in_milliseconds(1);\
 110:C:/Users/Yushev/git/wpcqi-optiga-trust-charge/wpc/PRx\qi_auth_prx_crypt.c **** 	} \
 111:C:/Users/Yushev/git/wpcqi-optiga-trust-charge/wpc/PRx\qi_auth_prx_crypt.c **** 	\
 112:C:/Users/Yushev/git/wpcqi-optiga-trust-charge/wpc/PRx\qi_auth_prx_crypt.c **** 	if (OPTIGA_LIB_SUCCESS != optiga_lib_status)\
 113:C:/Users/Yushev/git/wpcqi-optiga-trust-charge/wpc/PRx\qi_auth_prx_crypt.c **** 	{ \
 114:C:/Users/Yushev/git/wpcqi-optiga-trust-charge/wpc/PRx\qi_auth_prx_crypt.c **** 			ret = optiga_lib_status;\
 115:C:/Users/Yushev/git/wpcqi-optiga-trust-charge/wpc/PRx\qi_auth_prx_crypt.c **** 			printf("Error: 0x%02X \r\n", optiga_lib_status);\
 116:C:/Users/Yushev/git/wpcqi-optiga-trust-charge/wpc/PRx\qi_auth_prx_crypt.c **** 			optiga_util_destroy(p_util);\
 117:C:/Users/Yushev/git/wpcqi-optiga-trust-charge/wpc/PRx\qi_auth_prx_crypt.c **** 			optiga_crypt_destroy(p_crypt);\
 118:C:/Users/Yushev/git/wpcqi-optiga-trust-charge/wpc/PRx\qi_auth_prx_crypt.c **** 			pal_os_event_destroy(NULL);\
 119:C:/Users/Yushev/git/wpcqi-optiga-trust-charge/wpc/PRx\qi_auth_prx_crypt.c **** 			break; \
 120:C:/Users/Yushev/git/wpcqi-optiga-trust-charge/wpc/PRx\qi_auth_prx_crypt.c **** 	}
 121:C:/Users/Yushev/git/wpcqi-optiga-trust-charge/wpc/PRx\qi_auth_prx_crypt.c **** #endif
 122:C:/Users/Yushev/git/wpcqi-optiga-trust-charge/wpc/PRx\qi_auth_prx_crypt.c **** 
 123:C:/Users/Yushev/git/wpcqi-optiga-trust-charge/wpc/PRx\qi_auth_prx_crypt.c **** #define CHECK_RESULT(expr) \
 124:C:/Users/Yushev/git/wpcqi-optiga-trust-charge/wpc/PRx\qi_auth_prx_crypt.c **** 	return_status = (int32_t)OPTIGA_DEVICE_ERROR; \
 125:C:/Users/Yushev/git/wpcqi-optiga-trust-charge/wpc/PRx\qi_auth_prx_crypt.c **** 	optiga_lib_status = OPTIGA_LIB_BUSY;\
 126:C:/Users/Yushev/git/wpcqi-optiga-trust-charge/wpc/PRx\qi_auth_prx_crypt.c **** 	return_status = expr;\
 127:C:/Users/Yushev/git/wpcqi-optiga-trust-charge/wpc/PRx\qi_auth_prx_crypt.c **** 	WAIT_FOR_COMPLETION(return_status);
 128:C:/Users/Yushev/git/wpcqi-optiga-trust-charge/wpc/PRx\qi_auth_prx_crypt.c **** 
 129:C:/Users/Yushev/git/wpcqi-optiga-trust-charge/wpc/PRx\qi_auth_prx_crypt.c **** 
 130:C:/Users/Yushev/git/wpcqi-optiga-trust-charge/wpc/PRx\qi_auth_prx_crypt.c **** #ifdef OPTIGA_COMMS_SHIELDED_CONNECTION
 131:C:/Users/Yushev/git/wpcqi-optiga-trust-charge/wpc/PRx\qi_auth_prx_crypt.c ****  // Value of Operational state
 132:C:/Users/Yushev/git/wpcqi-optiga-trust-charge/wpc/PRx\qi_auth_prx_crypt.c ****  #define LCSO_STATE_CREATION       (0x01)
 133:C:/Users/Yushev/git/wpcqi-optiga-trust-charge/wpc/PRx\qi_auth_prx_crypt.c ****  // Value of Operational state
 134:C:/Users/Yushev/git/wpcqi-optiga-trust-charge/wpc/PRx\qi_auth_prx_crypt.c ****  #define LCSO_STATE_OPERATIONAL    (0x07)
 135:C:/Users/Yushev/git/wpcqi-optiga-trust-charge/wpc/PRx\qi_auth_prx_crypt.c **** 
 136:C:/Users/Yushev/git/wpcqi-optiga-trust-charge/wpc/PRx\qi_auth_prx_crypt.c ****  //Currently set to Creation state(defualt value). At the real time/customer side this needs to be 
 137:C:/Users/Yushev/git/wpcqi-optiga-trust-charge/wpc/PRx\qi_auth_prx_crypt.c ****  #define FINAL_LCSO_STATE          (LCSO_STATE_CREATION)
 138:C:/Users/Yushev/git/wpcqi-optiga-trust-charge/wpc/PRx\qi_auth_prx_crypt.c **** #endif
 139:C:/Users/Yushev/git/wpcqi-optiga-trust-charge/wpc/PRx\qi_auth_prx_crypt.c **** 
 140:C:/Users/Yushev/git/wpcqi-optiga-trust-charge/wpc/PRx\qi_auth_prx_crypt.c **** static volatile optiga_lib_status_t optiga_lib_status;
 141:C:/Users/Yushev/git/wpcqi-optiga-trust-charge/wpc/PRx\qi_auth_prx_crypt.c **** static optiga_crypt_t* p_crypt = NULL;
 142:C:/Users/Yushev/git/wpcqi-optiga-trust-charge/wpc/PRx\qi_auth_prx_crypt.c **** static optiga_util_t* p_util = NULL;
 143:C:/Users/Yushev/git/wpcqi-optiga-trust-charge/wpc/PRx\qi_auth_prx_crypt.c **** 
 144:C:/Users/Yushev/git/wpcqi-optiga-trust-charge/wpc/PRx\qi_auth_prx_crypt.c **** 
 145:C:/Users/Yushev/git/wpcqi-optiga-trust-charge/wpc/PRx\qi_auth_prx_crypt.c **** #ifdef OPTIGA_COMMS_SHIELDED_CONNECTION
 146:C:/Users/Yushev/git/wpcqi-optiga-trust-charge/wpc/PRx\qi_auth_prx_crypt.c **** /* Platform Binding Shared Secret (0xE140) Metadata to be updated */
 147:C:/Users/Yushev/git/wpcqi-optiga-trust-charge/wpc/PRx\qi_auth_prx_crypt.c **** 
 148:C:/Users/Yushev/git/wpcqi-optiga-trust-charge/wpc/PRx\qi_auth_prx_crypt.c **** const uint8_t platform_binding_shared_secret_metadata_final [] = {
 149:C:/Users/Yushev/git/wpcqi-optiga-trust-charge/wpc/PRx\qi_auth_prx_crypt.c ****     //Metadata to be updated
 150:C:/Users/Yushev/git/wpcqi-optiga-trust-charge/wpc/PRx\qi_auth_prx_crypt.c ****     0x20, 0x17,
 151:C:/Users/Yushev/git/wpcqi-optiga-trust-charge/wpc/PRx\qi_auth_prx_crypt.c ****         // LcsO
 152:C:/Users/Yushev/git/wpcqi-optiga-trust-charge/wpc/PRx\qi_auth_prx_crypt.c ****         0xC0, 0x01,
 153:C:/Users/Yushev/git/wpcqi-optiga-trust-charge/wpc/PRx\qi_auth_prx_crypt.c ****                     FINAL_LCSO_STATE,       // Refer Macro to see the value or some more notes
 154:C:/Users/Yushev/git/wpcqi-optiga-trust-charge/wpc/PRx\qi_auth_prx_crypt.c ****         // Change/Write Access tag
 155:C:/Users/Yushev/git/wpcqi-optiga-trust-charge/wpc/PRx\qi_auth_prx_crypt.c ****         0xD0, 0x07,
 156:C:/Users/Yushev/git/wpcqi-optiga-trust-charge/wpc/PRx\qi_auth_prx_crypt.c ****                     // This allows updating the binding secret during the runtime using shielded co
 157:C:/Users/Yushev/git/wpcqi-optiga-trust-charge/wpc/PRx\qi_auth_prx_crypt.c ****                     // If not required to update the secret over the runtime, set this to NEV and
 158:C:/Users/Yushev/git/wpcqi-optiga-trust-charge/wpc/PRx\qi_auth_prx_crypt.c ****                     // update Metadata length accordingly
 159:C:/Users/Yushev/git/wpcqi-optiga-trust-charge/wpc/PRx\qi_auth_prx_crypt.c ****                     0xE1, 0xFC, LCSO_STATE_OPERATIONAL,   // LcsO < Operational state
 160:C:/Users/Yushev/git/wpcqi-optiga-trust-charge/wpc/PRx\qi_auth_prx_crypt.c ****                     0xFE,
 161:C:/Users/Yushev/git/wpcqi-optiga-trust-charge/wpc/PRx\qi_auth_prx_crypt.c ****                     0x20, 0xE1, 0x40,
 162:C:/Users/Yushev/git/wpcqi-optiga-trust-charge/wpc/PRx\qi_auth_prx_crypt.c ****         // Read Access tag
 163:C:/Users/Yushev/git/wpcqi-optiga-trust-charge/wpc/PRx\qi_auth_prx_crypt.c ****         0xD1, 0x03,
 164:C:/Users/Yushev/git/wpcqi-optiga-trust-charge/wpc/PRx\qi_auth_prx_crypt.c ****                     0xE1, 0xFC, LCSO_STATE_OPERATIONAL,   // LcsO < Operational state
 165:C:/Users/Yushev/git/wpcqi-optiga-trust-charge/wpc/PRx\qi_auth_prx_crypt.c ****         // Execute Access tag
 166:C:/Users/Yushev/git/wpcqi-optiga-trust-charge/wpc/PRx\qi_auth_prx_crypt.c ****         0xD3, 0x01,
 167:C:/Users/Yushev/git/wpcqi-optiga-trust-charge/wpc/PRx\qi_auth_prx_crypt.c ****                     0x00,   // Always
 168:C:/Users/Yushev/git/wpcqi-optiga-trust-charge/wpc/PRx\qi_auth_prx_crypt.c ****         // Data object Type
 169:C:/Users/Yushev/git/wpcqi-optiga-trust-charge/wpc/PRx\qi_auth_prx_crypt.c ****         0xE8, 0x01,
 170:C:/Users/Yushev/git/wpcqi-optiga-trust-charge/wpc/PRx\qi_auth_prx_crypt.c ****                     0x22,   // Platform binding secret type
 171:C:/Users/Yushev/git/wpcqi-optiga-trust-charge/wpc/PRx\qi_auth_prx_crypt.c **** };
 172:C:/Users/Yushev/git/wpcqi-optiga-trust-charge/wpc/PRx\qi_auth_prx_crypt.c **** #endif
 173:C:/Users/Yushev/git/wpcqi-optiga-trust-charge/wpc/PRx\qi_auth_prx_crypt.c **** 
 174:C:/Users/Yushev/git/wpcqi-optiga-trust-charge/wpc/PRx\qi_auth_prx_crypt.c **** /// @cond hidden
 175:C:/Users/Yushev/git/wpcqi-optiga-trust-charge/wpc/PRx\qi_auth_prx_crypt.c **** 
 176:C:/Users/Yushev/git/wpcqi-optiga-trust-charge/wpc/PRx\qi_auth_prx_crypt.c **** //#define MBEDTLS_BUFFER_SIZE	8096
 177:C:/Users/Yushev/git/wpcqi-optiga-trust-charge/wpc/PRx\qi_auth_prx_crypt.c **** //uint8_t mbedtls_memmory_buffer[MBEDTLS_BUFFER_SIZE];
 178:C:/Users/Yushev/git/wpcqi-optiga-trust-charge/wpc/PRx\qi_auth_prx_crypt.c **** 
 179:C:/Users/Yushev/git/wpcqi-optiga-trust-charge/wpc/PRx\qi_auth_prx_crypt.c **** 
 180:C:/Users/Yushev/git/wpcqi-optiga-trust-charge/wpc/PRx\qi_auth_prx_crypt.c **** #ifdef OPTIGA_COMMS_SHIELDED_CONNECTION
 181:C:/Users/Yushev/git/wpcqi-optiga-trust-charge/wpc/PRx\qi_auth_prx_crypt.c **** void example_pair_host_and_optiga_using_pre_shared_secret(void);
 182:C:/Users/Yushev/git/wpcqi-optiga-trust-charge/wpc/PRx\qi_auth_prx_crypt.c **** #endif
 183:C:/Users/Yushev/git/wpcqi-optiga-trust-charge/wpc/PRx\qi_auth_prx_crypt.c **** 
 184:C:/Users/Yushev/git/wpcqi-optiga-trust-charge/wpc/PRx\qi_auth_prx_crypt.c **** /**
 185:C:/Users/Yushev/git/wpcqi-optiga-trust-charge/wpc/PRx\qi_auth_prx_crypt.c ****  * Callback when optiga_util_xxxx operation is completed asynchronously
 186:C:/Users/Yushev/git/wpcqi-optiga-trust-charge/wpc/PRx\qi_auth_prx_crypt.c ****  */
 187:C:/Users/Yushev/git/wpcqi-optiga-trust-charge/wpc/PRx\qi_auth_prx_crypt.c **** static void optiga_callback(void * context, optiga_lib_status_t return_status)
 188:C:/Users/Yushev/git/wpcqi-optiga-trust-charge/wpc/PRx\qi_auth_prx_crypt.c **** {
 694              	 .loc 1 188 0
 695              	 .cfi_startproc
 696              	 
 697              	 
 698              	 
 699 0000 80B4     	 push {r7}
 700              	.LCFI0:
 701              	 .cfi_def_cfa_offset 4
 702              	 .cfi_offset 7,-4
 703 0002 83B0     	 sub sp,sp,#12
 704              	.LCFI1:
 705              	 .cfi_def_cfa_offset 16
 706 0004 00AF     	 add r7,sp,#0
 707              	.LCFI2:
 708              	 .cfi_def_cfa_register 7
 709 0006 7860     	 str r0,[r7,#4]
 710 0008 0B46     	 mov r3,r1
 711 000a 7B80     	 strh r3,[r7,#2]
 189:C:/Users/Yushev/git/wpcqi-optiga-trust-charge/wpc/PRx\qi_auth_prx_crypt.c ****     optiga_lib_status = return_status;
 712              	 .loc 1 189 0
 713 000c 034A     	 ldr r2,.L2
 714 000e 7B88     	 ldrh r3,[r7,#2]
 715 0010 1380     	 strh r3,[r2]
 190:C:/Users/Yushev/git/wpcqi-optiga-trust-charge/wpc/PRx\qi_auth_prx_crypt.c **** }
 716              	 .loc 1 190 0
 717 0012 0C37     	 adds r7,r7,#12
 718              	.LCFI3:
 719              	 .cfi_def_cfa_offset 4
 720 0014 BD46     	 mov sp,r7
 721              	.LCFI4:
 722              	 .cfi_def_cfa_register 13
 723              	 
 724 0016 5DF8047B 	 ldr r7,[sp],#4
 725              	.LCFI5:
 726              	 .cfi_restore 7
 727              	 .cfi_def_cfa_offset 0
 728 001a 7047     	 bx lr
 729              	.L3:
 730              	 .align 2
 731              	.L2:
 732 001c 00000000 	 .word optiga_lib_status
 733              	 .cfi_endproc
 734              	.LFE0:
 736              	 .section .rodata
 737              	 .align 2
 738              	.LC2:
 739 0000 4572726F 	 .ascii "Error: 0x%02X \015\012\000"
 739      723A2030 
 739      78253032 
 739      58200D0A 
 739      00
 740              	 .section .text.optiga_init,"ax",%progbits
 741              	 .align 2
 742              	 .thumb
 743              	 .thumb_func
 745              	optiga_init:
 746              	.LFB1:
 191:C:/Users/Yushev/git/wpcqi-optiga-trust-charge/wpc/PRx\qi_auth_prx_crypt.c **** 
 192:C:/Users/Yushev/git/wpcqi-optiga-trust-charge/wpc/PRx\qi_auth_prx_crypt.c **** 
 193:C:/Users/Yushev/git/wpcqi-optiga-trust-charge/wpc/PRx\qi_auth_prx_crypt.c **** static uint16_t optiga_init(uint8_t restore_from_hibernate)
 194:C:/Users/Yushev/git/wpcqi-optiga-trust-charge/wpc/PRx\qi_auth_prx_crypt.c **** {
 747              	 .loc 1 194 0
 748              	 .cfi_startproc
 749              	 
 750              	 
 751 0000 80B5     	 push {r7,lr}
 752              	.LCFI6:
 753              	 .cfi_def_cfa_offset 8
 754              	 .cfi_offset 7,-8
 755              	 .cfi_offset 14,-4
 756 0002 86B0     	 sub sp,sp,#24
 757              	.LCFI7:
 758              	 .cfi_def_cfa_offset 32
 759 0004 02AF     	 add r7,sp,#8
 760              	.LCFI8:
 761              	 .cfi_def_cfa 7,24
 762 0006 0346     	 mov r3,r0
 763 0008 FB71     	 strb r3,[r7,#7]
 195:C:/Users/Yushev/git/wpcqi-optiga-trust-charge/wpc/PRx\qi_auth_prx_crypt.c **** 	uint16_t return_status = 1;
 764              	 .loc 1 195 0
 765 000a 0123     	 movs r3,#1
 766 000c FB81     	 strh r3,[r7,#14]
 767              	.LBB2:
 196:C:/Users/Yushev/git/wpcqi-optiga-trust-charge/wpc/PRx\qi_auth_prx_crypt.c **** 
 197:C:/Users/Yushev/git/wpcqi-optiga-trust-charge/wpc/PRx\qi_auth_prx_crypt.c **** 	do
 198:C:/Users/Yushev/git/wpcqi-optiga-trust-charge/wpc/PRx\qi_auth_prx_crypt.c **** 	{
 199:C:/Users/Yushev/git/wpcqi-optiga-trust-charge/wpc/PRx\qi_auth_prx_crypt.c **** 		//Create an instance of optiga_util to open the application on OPTIGA.
 200:C:/Users/Yushev/git/wpcqi-optiga-trust-charge/wpc/PRx\qi_auth_prx_crypt.c **** 		p_util = optiga_util_create(0, optiga_callback, NULL);
 768              	 .loc 1 200 0
 769 000e 0020     	 movs r0,#0
 770 0010 4B49     	 ldr r1,.L17
 771 0012 0022     	 movs r2,#0
 772 0014 FFF7FEFF 	 bl optiga_util_create
 773 0018 0246     	 mov r2,r0
 774 001a 4A4B     	 ldr r3,.L17+4
 775 001c 1A60     	 str r2,[r3]
 201:C:/Users/Yushev/git/wpcqi-optiga-trust-charge/wpc/PRx\qi_auth_prx_crypt.c **** 
 202:C:/Users/Yushev/git/wpcqi-optiga-trust-charge/wpc/PRx\qi_auth_prx_crypt.c **** 		//Create an instance of optiga_crypt to perform crypto operations on OPTIGA.
 203:C:/Users/Yushev/git/wpcqi-optiga-trust-charge/wpc/PRx\qi_auth_prx_crypt.c **** 		p_crypt = optiga_crypt_create(0, optiga_callback, NULL);
 776              	 .loc 1 203 0
 777 001e 0020     	 movs r0,#0
 778 0020 4749     	 ldr r1,.L17
 779 0022 0022     	 movs r2,#0
 780 0024 FFF7FEFF 	 bl optiga_crypt_create
 781 0028 0246     	 mov r2,r0
 782 002a 474B     	 ldr r3,.L17+8
 783 002c 1A60     	 str r2,[r3]
 204:C:/Users/Yushev/git/wpcqi-optiga-trust-charge/wpc/PRx\qi_auth_prx_crypt.c **** 
 205:C:/Users/Yushev/git/wpcqi-optiga-trust-charge/wpc/PRx\qi_auth_prx_crypt.c **** 		if ((NULL == p_util) || (NULL == p_crypt))
 784              	 .loc 1 205 0
 785 002e 454B     	 ldr r3,.L17+4
 786 0030 1B68     	 ldr r3,[r3]
 787 0032 002B     	 cmp r3,#0
 788 0034 7ED0     	 beq .L14
 789              	 .loc 1 205 0 is_stmt 0 discriminator 1
 790 0036 444B     	 ldr r3,.L17+8
 791 0038 1B68     	 ldr r3,[r3]
 792 003a 002B     	 cmp r3,#0
 793 003c 7AD0     	 beq .L14
 206:C:/Users/Yushev/git/wpcqi-optiga-trust-charge/wpc/PRx\qi_auth_prx_crypt.c **** 		{
 207:C:/Users/Yushev/git/wpcqi-optiga-trust-charge/wpc/PRx\qi_auth_prx_crypt.c **** 			break;
 208:C:/Users/Yushev/git/wpcqi-optiga-trust-charge/wpc/PRx\qi_auth_prx_crypt.c **** 		}
 209:C:/Users/Yushev/git/wpcqi-optiga-trust-charge/wpc/PRx\qi_auth_prx_crypt.c **** 
 210:C:/Users/Yushev/git/wpcqi-optiga-trust-charge/wpc/PRx\qi_auth_prx_crypt.c **** 		/**
 211:C:/Users/Yushev/git/wpcqi-optiga-trust-charge/wpc/PRx\qi_auth_prx_crypt.c **** 		 * Open the application on OPTIGA which is a precondition to perform any other operations
 212:C:/Users/Yushev/git/wpcqi-optiga-trust-charge/wpc/PRx\qi_auth_prx_crypt.c **** 		 * using optiga_util_open_application
 213:C:/Users/Yushev/git/wpcqi-optiga-trust-charge/wpc/PRx\qi_auth_prx_crypt.c **** 		 */
 214:C:/Users/Yushev/git/wpcqi-optiga-trust-charge/wpc/PRx\qi_auth_prx_crypt.c **** 		CHECK_RESULT(optiga_util_open_application(p_util, restore_from_hibernate));
 794              	 .loc 1 214 0 is_stmt 1
 795 003e 4FF40043 	 mov r3,#32768
 796 0042 FB81     	 strh r3,[r7,#14]
 797 0044 414B     	 ldr r3,.L17+12
 798 0046 0122     	 movs r2,#1
 799 0048 1A80     	 strh r2,[r3]
 800 004a 3E4B     	 ldr r3,.L17+4
 801 004c 1A68     	 ldr r2,[r3]
 802 004e FB79     	 ldrb r3,[r7,#7]
 803 0050 1046     	 mov r0,r2
 804 0052 1946     	 mov r1,r3
 805 0054 FFF7FEFF 	 bl optiga_util_open_application
 806 0058 0346     	 mov r3,r0
 807 005a FB81     	 strh r3,[r7,#14]
 808 005c FB89     	 ldrh r3,[r7,#14]
 809 005e 002B     	 cmp r3,#0
 810 0060 00D0     	 beq .L6
 811 0062 67E0     	 b .L14
 812              	.L6:
 813 0064 02E0     	 b .L7
 814              	.L8:
 815              	 .loc 1 214 0 is_stmt 0 discriminator 2
 816 0066 0120     	 movs r0,#1
 817 0068 FFF7FEFF 	 bl pal_os_timer_delay_in_milliseconds
 818              	.L7:
 819              	 .loc 1 214 0 discriminator 1
 820 006c 374B     	 ldr r3,.L17+12
 821 006e 1B88     	 ldrh r3,[r3]
 822 0070 9BB2     	 uxth r3,r3
 823 0072 012B     	 cmp r3,#1
 824 0074 F7D0     	 beq .L8
 825              	 .loc 1 214 0 discriminator 3
 826 0076 354B     	 ldr r3,.L17+12
 827 0078 1B88     	 ldrh r3,[r3]
 828 007a 9BB2     	 uxth r3,r3
 829 007c 002B     	 cmp r3,#0
 830 007e 17D0     	 beq .L9
 831              	 .loc 1 214 0 discriminator 4
 832 0080 324B     	 ldr r3,.L17+12
 833 0082 1B88     	 ldrh r3,[r3]
 834 0084 FB81     	 strh r3,[r7,#14]
 835 0086 314B     	 ldr r3,.L17+12
 836 0088 1B88     	 ldrh r3,[r3]
 837 008a 9BB2     	 uxth r3,r3
 838 008c 3048     	 ldr r0,.L17+16
 839 008e 1946     	 mov r1,r3
 840 0090 FFF7FEFF 	 bl printf
 841 0094 2B4B     	 ldr r3,.L17+4
 842 0096 1B68     	 ldr r3,[r3]
 843 0098 1846     	 mov r0,r3
 844 009a FFF7FEFF 	 bl optiga_util_destroy
 845 009e 2A4B     	 ldr r3,.L17+8
 846 00a0 1B68     	 ldr r3,[r3]
 847 00a2 1846     	 mov r0,r3
 848 00a4 FFF7FEFF 	 bl optiga_crypt_destroy
 849 00a8 0020     	 movs r0,#0
 850 00aa FFF7FEFF 	 bl pal_os_event_destroy
 851 00ae 41E0     	 b .L14
 852              	.L9:
 215:C:/Users/Yushev/git/wpcqi-optiga-trust-charge/wpc/PRx\qi_auth_prx_crypt.c **** 
 216:C:/Users/Yushev/git/wpcqi-optiga-trust-charge/wpc/PRx\qi_auth_prx_crypt.c **** 		// Maximum Power, Minimum Current limitation
 217:C:/Users/Yushev/git/wpcqi-optiga-trust-charge/wpc/PRx\qi_auth_prx_crypt.c **** 		uint8_t current_limit = 15;
 853              	 .loc 1 217 0 is_stmt 1
 854 00b0 0F23     	 movs r3,#15
 855 00b2 7B73     	 strb r3,[r7,#13]
 218:C:/Users/Yushev/git/wpcqi-optiga-trust-charge/wpc/PRx\qi_auth_prx_crypt.c **** 		CHECK_RESULT(optiga_util_write_data(p_util,
 856              	 .loc 1 218 0
 857 00b4 4FF40043 	 mov r3,#32768
 858 00b8 FB81     	 strh r3,[r7,#14]
 859 00ba 244B     	 ldr r3,.L17+12
 860 00bc 0122     	 movs r2,#1
 861 00be 1A80     	 strh r2,[r3]
 862 00c0 204B     	 ldr r3,.L17+4
 863 00c2 1A68     	 ldr r2,[r3]
 864 00c4 07F10D03 	 add r3,r7,#13
 865 00c8 0093     	 str r3,[sp]
 866 00ca 0123     	 movs r3,#1
 867 00cc 0193     	 str r3,[sp,#4]
 868 00ce 1046     	 mov r0,r2
 869 00d0 4EF2C401 	 movw r1,#57540
 870 00d4 0022     	 movs r2,#0
 871 00d6 0023     	 movs r3,#0
 872 00d8 FFF7FEFF 	 bl optiga_util_write_data
 873 00dc 0346     	 mov r3,r0
 874 00de FB81     	 strh r3,[r7,#14]
 875 00e0 FB89     	 ldrh r3,[r7,#14]
 876 00e2 002B     	 cmp r3,#0
 877 00e4 00D0     	 beq .L10
 878              	 .loc 1 218 0 is_stmt 0 discriminator 2
 879 00e6 24E0     	 b .L16
 880              	.L10:
 881              	 .loc 1 218 0
 882 00e8 02E0     	 b .L11
 883              	.L12:
 884              	 .loc 1 218 0 discriminator 2
 885 00ea 0120     	 movs r0,#1
 886 00ec FFF7FEFF 	 bl pal_os_timer_delay_in_milliseconds
 887              	.L11:
 888              	 .loc 1 218 0 discriminator 1
 889 00f0 164B     	 ldr r3,.L17+12
 890 00f2 1B88     	 ldrh r3,[r3]
 891 00f4 9BB2     	 uxth r3,r3
 892 00f6 012B     	 cmp r3,#1
 893 00f8 F7D0     	 beq .L12
 894              	 .loc 1 218 0 discriminator 3
 895 00fa 144B     	 ldr r3,.L17+12
 896 00fc 1B88     	 ldrh r3,[r3]
 897 00fe 9BB2     	 uxth r3,r3
 898 0100 002B     	 cmp r3,#0
 899 0102 17D0     	 beq .L14
 900              	 .loc 1 218 0 discriminator 4
 901 0104 114B     	 ldr r3,.L17+12
 902 0106 1B88     	 ldrh r3,[r3]
 903 0108 FB81     	 strh r3,[r7,#14]
 904 010a 104B     	 ldr r3,.L17+12
 905 010c 1B88     	 ldrh r3,[r3]
 906 010e 9BB2     	 uxth r3,r3
 907 0110 0F48     	 ldr r0,.L17+16
 908 0112 1946     	 mov r1,r3
 909 0114 FFF7FEFF 	 bl printf
 910 0118 0A4B     	 ldr r3,.L17+4
 911 011a 1B68     	 ldr r3,[r3]
 912 011c 1846     	 mov r0,r3
 913 011e FFF7FEFF 	 bl optiga_util_destroy
 914 0122 094B     	 ldr r3,.L17+8
 915 0124 1B68     	 ldr r3,[r3]
 916 0126 1846     	 mov r0,r3
 917 0128 FFF7FEFF 	 bl optiga_crypt_destroy
 918 012c 0020     	 movs r0,#0
 919 012e FFF7FEFF 	 bl pal_os_event_destroy
 920              	.L16:
 921              	 .loc 1 218 0
 922 0132 00BF     	 nop
 923              	.L14:
 924              	.LBE2:
 219:C:/Users/Yushev/git/wpcqi-optiga-trust-charge/wpc/PRx\qi_auth_prx_crypt.c **** 					 0xE0C4, OPTIGA_UTIL_WRITE_ONLY,
 220:C:/Users/Yushev/git/wpcqi-optiga-trust-charge/wpc/PRx\qi_auth_prx_crypt.c **** 					 0, //offset
 221:C:/Users/Yushev/git/wpcqi-optiga-trust-charge/wpc/PRx\qi_auth_prx_crypt.c **** 					 &current_limit,
 222:C:/Users/Yushev/git/wpcqi-optiga-trust-charge/wpc/PRx\qi_auth_prx_crypt.c **** 					 1));
 223:C:/Users/Yushev/git/wpcqi-optiga-trust-charge/wpc/PRx\qi_auth_prx_crypt.c **** 
 224:C:/Users/Yushev/git/wpcqi-optiga-trust-charge/wpc/PRx\qi_auth_prx_crypt.c **** #ifdef OPTIGA_COMMS_SHIELDED_CONNECTION
 225:C:/Users/Yushev/git/wpcqi-optiga-trust-charge/wpc/PRx\qi_auth_prx_crypt.c **** 		example_pair_host_and_optiga_using_pre_shared_secret();
 226:C:/Users/Yushev/git/wpcqi-optiga-trust-charge/wpc/PRx\qi_auth_prx_crypt.c **** #endif
 227:C:/Users/Yushev/git/wpcqi-optiga-trust-charge/wpc/PRx\qi_auth_prx_crypt.c **** 
 228:C:/Users/Yushev/git/wpcqi-optiga-trust-charge/wpc/PRx\qi_auth_prx_crypt.c **** 	}while (FALSE);
 229:C:/Users/Yushev/git/wpcqi-optiga-trust-charge/wpc/PRx\qi_auth_prx_crypt.c **** 
 230:C:/Users/Yushev/git/wpcqi-optiga-trust-charge/wpc/PRx\qi_auth_prx_crypt.c **** 	return return_status;
 925              	 .loc 1 230 0 is_stmt 1
 926 0134 FB89     	 ldrh r3,[r7,#14]
 231:C:/Users/Yushev/git/wpcqi-optiga-trust-charge/wpc/PRx\qi_auth_prx_crypt.c **** }
 927              	 .loc 1 231 0
 928 0136 1846     	 mov r0,r3
 929 0138 1037     	 adds r7,r7,#16
 930              	.LCFI9:
 931              	 .cfi_def_cfa_offset 8
 932 013a BD46     	 mov sp,r7
 933              	.LCFI10:
 934              	 .cfi_def_cfa_register 13
 935              	 
 936 013c 80BD     	 pop {r7,pc}
 937              	.L18:
 938 013e 00BF     	 .align 2
 939              	.L17:
 940 0140 00000000 	 .word optiga_callback
 941 0144 00000000 	 .word p_util
 942 0148 00000000 	 .word p_crypt
 943 014c 00000000 	 .word optiga_lib_status
 944 0150 00000000 	 .word .LC2
 945              	 .cfi_endproc
 946              	.LFE1:
 948              	 .section .text.optiga_deinit,"ax",%progbits
 949              	 .align 2
 950              	 .thumb
 951              	 .thumb_func
 953              	optiga_deinit:
 954              	.LFB2:
 232:C:/Users/Yushev/git/wpcqi-optiga-trust-charge/wpc/PRx\qi_auth_prx_crypt.c **** 
 233:C:/Users/Yushev/git/wpcqi-optiga-trust-charge/wpc/PRx\qi_auth_prx_crypt.c **** static uint16_t optiga_deinit(uint8_t goto_hibernate)
 234:C:/Users/Yushev/git/wpcqi-optiga-trust-charge/wpc/PRx\qi_auth_prx_crypt.c **** {
 955              	 .loc 1 234 0
 956              	 .cfi_startproc
 957              	 
 958              	 
 959 0000 80B5     	 push {r7,lr}
 960              	.LCFI11:
 961              	 .cfi_def_cfa_offset 8
 962              	 .cfi_offset 7,-8
 963              	 .cfi_offset 14,-4
 964 0002 84B0     	 sub sp,sp,#16
 965              	.LCFI12:
 966              	 .cfi_def_cfa_offset 24
 967 0004 00AF     	 add r7,sp,#0
 968              	.LCFI13:
 969              	 .cfi_def_cfa_register 7
 970 0006 0346     	 mov r3,r0
 971 0008 FB71     	 strb r3,[r7,#7]
 235:C:/Users/Yushev/git/wpcqi-optiga-trust-charge/wpc/PRx\qi_auth_prx_crypt.c **** 	uint16_t return_status = 1;
 972              	 .loc 1 235 0
 973 000a 0123     	 movs r3,#1
 974 000c FB81     	 strh r3,[r7,#14]
 236:C:/Users/Yushev/git/wpcqi-optiga-trust-charge/wpc/PRx\qi_auth_prx_crypt.c **** 
 237:C:/Users/Yushev/git/wpcqi-optiga-trust-charge/wpc/PRx\qi_auth_prx_crypt.c **** 	do
 238:C:/Users/Yushev/git/wpcqi-optiga-trust-charge/wpc/PRx\qi_auth_prx_crypt.c **** 	{
 239:C:/Users/Yushev/git/wpcqi-optiga-trust-charge/wpc/PRx\qi_auth_prx_crypt.c **** 		/**
 240:C:/Users/Yushev/git/wpcqi-optiga-trust-charge/wpc/PRx\qi_auth_prx_crypt.c **** 		 * Open the application on OPTIGA which is a precondition to perform any other operations
 241:C:/Users/Yushev/git/wpcqi-optiga-trust-charge/wpc/PRx\qi_auth_prx_crypt.c **** 		 * using optiga_util_open_application
 242:C:/Users/Yushev/git/wpcqi-optiga-trust-charge/wpc/PRx\qi_auth_prx_crypt.c **** 		 */
 243:C:/Users/Yushev/git/wpcqi-optiga-trust-charge/wpc/PRx\qi_auth_prx_crypt.c **** 		CHECK_RESULT(optiga_util_close_application(p_util, goto_hibernate));
 975              	 .loc 1 243 0
 976 000e 4FF40043 	 mov r3,#32768
 977 0012 FB81     	 strh r3,[r7,#14]
 978 0014 224B     	 ldr r3,.L26
 979 0016 0122     	 movs r2,#1
 980 0018 1A80     	 strh r2,[r3]
 981 001a 224B     	 ldr r3,.L26+4
 982 001c 1A68     	 ldr r2,[r3]
 983 001e FB79     	 ldrb r3,[r7,#7]
 984 0020 1046     	 mov r0,r2
 985 0022 1946     	 mov r1,r3
 986 0024 FFF7FEFF 	 bl optiga_util_close_application
 987 0028 0346     	 mov r3,r0
 988 002a FB81     	 strh r3,[r7,#14]
 989 002c FB89     	 ldrh r3,[r7,#14]
 990 002e 002B     	 cmp r3,#0
 991 0030 00D0     	 beq .L20
 992 0032 2FE0     	 b .L21
 993              	.L20:
 994 0034 02E0     	 b .L22
 995              	.L23:
 996              	 .loc 1 243 0 is_stmt 0 discriminator 2
 997 0036 0120     	 movs r0,#1
 998 0038 FFF7FEFF 	 bl pal_os_timer_delay_in_milliseconds
 999              	.L22:
 1000              	 .loc 1 243 0 discriminator 1
 1001 003c 184B     	 ldr r3,.L26
 1002 003e 1B88     	 ldrh r3,[r3]
 1003 0040 9BB2     	 uxth r3,r3
 1004 0042 012B     	 cmp r3,#1
 1005 0044 F7D0     	 beq .L23
 1006              	 .loc 1 243 0 discriminator 3
 1007 0046 164B     	 ldr r3,.L26
 1008 0048 1B88     	 ldrh r3,[r3]
 1009 004a 9BB2     	 uxth r3,r3
 1010 004c 002B     	 cmp r3,#0
 1011 004e 17D0     	 beq .L24
 1012              	 .loc 1 243 0 discriminator 4
 1013 0050 134B     	 ldr r3,.L26
 1014 0052 1B88     	 ldrh r3,[r3]
 1015 0054 FB81     	 strh r3,[r7,#14]
 1016 0056 124B     	 ldr r3,.L26
 1017 0058 1B88     	 ldrh r3,[r3]
 1018 005a 9BB2     	 uxth r3,r3
 1019 005c 1248     	 ldr r0,.L26+8
 1020 005e 1946     	 mov r1,r3
 1021 0060 FFF7FEFF 	 bl printf
 1022 0064 0F4B     	 ldr r3,.L26+4
 1023 0066 1B68     	 ldr r3,[r3]
 1024 0068 1846     	 mov r0,r3
 1025 006a FFF7FEFF 	 bl optiga_util_destroy
 1026 006e 0F4B     	 ldr r3,.L26+12
 1027 0070 1B68     	 ldr r3,[r3]
 1028 0072 1846     	 mov r0,r3
 1029 0074 FFF7FEFF 	 bl optiga_crypt_destroy
 1030 0078 0020     	 movs r0,#0
 1031 007a FFF7FEFF 	 bl pal_os_event_destroy
 1032 007e 09E0     	 b .L21
 1033              	.L24:
 244:C:/Users/Yushev/git/wpcqi-optiga-trust-charge/wpc/PRx\qi_auth_prx_crypt.c **** 
 245:C:/Users/Yushev/git/wpcqi-optiga-trust-charge/wpc/PRx\qi_auth_prx_crypt.c **** 		//Destroy the instance of optiga_util.
 246:C:/Users/Yushev/git/wpcqi-optiga-trust-charge/wpc/PRx\qi_auth_prx_crypt.c **** 		optiga_util_destroy(p_util);
 1034              	 .loc 1 246 0 is_stmt 1
 1035 0080 084B     	 ldr r3,.L26+4
 1036 0082 1B68     	 ldr r3,[r3]
 1037 0084 1846     	 mov r0,r3
 1038 0086 FFF7FEFF 	 bl optiga_util_destroy
 247:C:/Users/Yushev/git/wpcqi-optiga-trust-charge/wpc/PRx\qi_auth_prx_crypt.c **** 
 248:C:/Users/Yushev/git/wpcqi-optiga-trust-charge/wpc/PRx\qi_auth_prx_crypt.c **** 		//Destroy the instance of optiga_crypt.
 249:C:/Users/Yushev/git/wpcqi-optiga-trust-charge/wpc/PRx\qi_auth_prx_crypt.c **** 		optiga_crypt_destroy(p_crypt);
 1039              	 .loc 1 249 0
 1040 008a 084B     	 ldr r3,.L26+12
 1041 008c 1B68     	 ldr r3,[r3]
 1042 008e 1846     	 mov r0,r3
 1043 0090 FFF7FEFF 	 bl optiga_crypt_destroy
 1044              	.L21:
 250:C:/Users/Yushev/git/wpcqi-optiga-trust-charge/wpc/PRx\qi_auth_prx_crypt.c **** 
 251:C:/Users/Yushev/git/wpcqi-optiga-trust-charge/wpc/PRx\qi_auth_prx_crypt.c **** 	}while (FALSE);
 252:C:/Users/Yushev/git/wpcqi-optiga-trust-charge/wpc/PRx\qi_auth_prx_crypt.c **** 
 253:C:/Users/Yushev/git/wpcqi-optiga-trust-charge/wpc/PRx\qi_auth_prx_crypt.c **** 	return return_status;
 1045              	 .loc 1 253 0
 1046 0094 FB89     	 ldrh r3,[r7,#14]
 254:C:/Users/Yushev/git/wpcqi-optiga-trust-charge/wpc/PRx\qi_auth_prx_crypt.c **** }
 1047              	 .loc 1 254 0
 1048 0096 1846     	 mov r0,r3
 1049 0098 1037     	 adds r7,r7,#16
 1050              	.LCFI14:
 1051              	 .cfi_def_cfa_offset 8
 1052 009a BD46     	 mov sp,r7
 1053              	.LCFI15:
 1054              	 .cfi_def_cfa_register 13
 1055              	 
 1056 009c 80BD     	 pop {r7,pc}
 1057              	.L27:
 1058 009e 00BF     	 .align 2
 1059              	.L26:
 1060 00a0 00000000 	 .word optiga_lib_status
 1061 00a4 00000000 	 .word p_util
 1062 00a8 00000000 	 .word .LC2
 1063 00ac 00000000 	 .word p_crypt
 1064              	 .cfi_endproc
 1065              	.LFE2:
 1067              	 .section .text.mbedtls_ecp_decompress,"ax",%progbits
 1068              	 .align 2
 1069              	 .thumb
 1070              	 .thumb_func
 1072              	mbedtls_ecp_decompress:
 1073              	.LFB3:
 255:C:/Users/Yushev/git/wpcqi-optiga-trust-charge/wpc/PRx\qi_auth_prx_crypt.c **** 
 256:C:/Users/Yushev/git/wpcqi-optiga-trust-charge/wpc/PRx\qi_auth_prx_crypt.c **** 
 257:C:/Users/Yushev/git/wpcqi-optiga-trust-charge/wpc/PRx\qi_auth_prx_crypt.c **** #ifdef OPTIGA_COMMS_SHIELDED_CONNECTION
 258:C:/Users/Yushev/git/wpcqi-optiga-trust-charge/wpc/PRx\qi_auth_prx_crypt.c **** 
 259:C:/Users/Yushev/git/wpcqi-optiga-trust-charge/wpc/PRx\qi_auth_prx_crypt.c ****  /**
 260:C:/Users/Yushev/git/wpcqi-optiga-trust-charge/wpc/PRx\qi_auth_prx_crypt.c ****   * The below example demonstrates pairing the Host and OPTIGA using a preshared secret for the fir
 261:C:/Users/Yushev/git/wpcqi-optiga-trust-charge/wpc/PRx\qi_auth_prx_crypt.c ****   *
 262:C:/Users/Yushev/git/wpcqi-optiga-trust-charge/wpc/PRx\qi_auth_prx_crypt.c ****   * Note:
 263:C:/Users/Yushev/git/wpcqi-optiga-trust-charge/wpc/PRx\qi_auth_prx_crypt.c ****   *   1) If the below example is executed once, the LcsO of Platform Binding shared secret is set t
 264:C:/Users/Yushev/git/wpcqi-optiga-trust-charge/wpc/PRx\qi_auth_prx_crypt.c ****   *      The LcsO can't be reverted to previous states.
 265:C:/Users/Yushev/git/wpcqi-optiga-trust-charge/wpc/PRx\qi_auth_prx_crypt.c ****   *
 266:C:/Users/Yushev/git/wpcqi-optiga-trust-charge/wpc/PRx\qi_auth_prx_crypt.c ****   *      Please ensure the access conditions and other required settings in the metadata must be ac
 267:C:/Users/Yushev/git/wpcqi-optiga-trust-charge/wpc/PRx\qi_auth_prx_crypt.c ****   *      before setting the LcsO to Initialization state.
 268:C:/Users/Yushev/git/wpcqi-optiga-trust-charge/wpc/PRx\qi_auth_prx_crypt.c ****   *
 269:C:/Users/Yushev/git/wpcqi-optiga-trust-charge/wpc/PRx\qi_auth_prx_crypt.c ****   *   2) The metadata gets written in this example is just an example. The user must update this to
 270:C:/Users/Yushev/git/wpcqi-optiga-trust-charge/wpc/PRx\qi_auth_prx_crypt.c ****   *      needs including LcsO state and access conditions
 271:C:/Users/Yushev/git/wpcqi-optiga-trust-charge/wpc/PRx\qi_auth_prx_crypt.c ****   *
 272:C:/Users/Yushev/git/wpcqi-optiga-trust-charge/wpc/PRx\qi_auth_prx_crypt.c ****   * Preconditions: The optiga_util_open_application must be executed before invoking the below exam
 273:C:/Users/Yushev/git/wpcqi-optiga-trust-charge/wpc/PRx\qi_auth_prx_crypt.c ****   *
 274:C:/Users/Yushev/git/wpcqi-optiga-trust-charge/wpc/PRx\qi_auth_prx_crypt.c ****   */
 275:C:/Users/Yushev/git/wpcqi-optiga-trust-charge/wpc/PRx\qi_auth_prx_crypt.c ****  void example_pair_host_and_optiga_using_pre_shared_secret(void)
 276:C:/Users/Yushev/git/wpcqi-optiga-trust-charge/wpc/PRx\qi_auth_prx_crypt.c ****  {
 277:C:/Users/Yushev/git/wpcqi-optiga-trust-charge/wpc/PRx\qi_auth_prx_crypt.c ****      uint16_t bytes_to_read;
 278:C:/Users/Yushev/git/wpcqi-optiga-trust-charge/wpc/PRx\qi_auth_prx_crypt.c ****      uint8_t platform_binding_secret[64];
 279:C:/Users/Yushev/git/wpcqi-optiga-trust-charge/wpc/PRx\qi_auth_prx_crypt.c ****      uint8_t platform_binding_secret_metadata[44];
 280:C:/Users/Yushev/git/wpcqi-optiga-trust-charge/wpc/PRx\qi_auth_prx_crypt.c ****      optiga_lib_status_t return_status = !OPTIGA_LIB_SUCCESS;
 281:C:/Users/Yushev/git/wpcqi-optiga-trust-charge/wpc/PRx\qi_auth_prx_crypt.c ****      pal_status_t pal_return_status;
 282:C:/Users/Yushev/git/wpcqi-optiga-trust-charge/wpc/PRx\qi_auth_prx_crypt.c ****      optiga_util_t * me_util = NULL;
 283:C:/Users/Yushev/git/wpcqi-optiga-trust-charge/wpc/PRx\qi_auth_prx_crypt.c ****      optiga_crypt_t * me_crypt = NULL;
 284:C:/Users/Yushev/git/wpcqi-optiga-trust-charge/wpc/PRx\qi_auth_prx_crypt.c **** 
 285:C:/Users/Yushev/git/wpcqi-optiga-trust-charge/wpc/PRx\qi_auth_prx_crypt.c ****      OPTIGA_EXAMPLE_LOG_MESSAGE(__FUNCTION__);
 286:C:/Users/Yushev/git/wpcqi-optiga-trust-charge/wpc/PRx\qi_auth_prx_crypt.c **** 
 287:C:/Users/Yushev/git/wpcqi-optiga-trust-charge/wpc/PRx\qi_auth_prx_crypt.c ****      do
 288:C:/Users/Yushev/git/wpcqi-optiga-trust-charge/wpc/PRx\qi_auth_prx_crypt.c ****      {
 289:C:/Users/Yushev/git/wpcqi-optiga-trust-charge/wpc/PRx\qi_auth_prx_crypt.c ****          /**
 290:C:/Users/Yushev/git/wpcqi-optiga-trust-charge/wpc/PRx\qi_auth_prx_crypt.c ****           * 2. Initialize the protection level and protocol version for the instances
 291:C:/Users/Yushev/git/wpcqi-optiga-trust-charge/wpc/PRx\qi_auth_prx_crypt.c ****           */
 292:C:/Users/Yushev/git/wpcqi-optiga-trust-charge/wpc/PRx\qi_auth_prx_crypt.c ****          OPTIGA_UTIL_SET_COMMS_PROTECTION_LEVEL(me_util,OPTIGA_COMMS_NO_PROTECTION);
 293:C:/Users/Yushev/git/wpcqi-optiga-trust-charge/wpc/PRx\qi_auth_prx_crypt.c ****          OPTIGA_UTIL_SET_COMMS_PROTOCOL_VERSION(me_util,OPTIGA_COMMS_PROTOCOL_VERSION_PRE_SHARED_SE
 294:C:/Users/Yushev/git/wpcqi-optiga-trust-charge/wpc/PRx\qi_auth_prx_crypt.c **** 
 295:C:/Users/Yushev/git/wpcqi-optiga-trust-charge/wpc/PRx\qi_auth_prx_crypt.c ****          OPTIGA_CRYPT_SET_COMMS_PROTECTION_LEVEL(me_crypt,OPTIGA_COMMS_NO_PROTECTION);
 296:C:/Users/Yushev/git/wpcqi-optiga-trust-charge/wpc/PRx\qi_auth_prx_crypt.c ****          OPTIGA_CRYPT_SET_COMMS_PROTOCOL_VERSION(me_crypt,OPTIGA_COMMS_PROTOCOL_VERSION_PRE_SHARED_
 297:C:/Users/Yushev/git/wpcqi-optiga-trust-charge/wpc/PRx\qi_auth_prx_crypt.c **** 
 298:C:/Users/Yushev/git/wpcqi-optiga-trust-charge/wpc/PRx\qi_auth_prx_crypt.c ****          /**
 299:C:/Users/Yushev/git/wpcqi-optiga-trust-charge/wpc/PRx\qi_auth_prx_crypt.c ****           * 3. Read Platform Binding Shared secret (0xE140) data object metadata from OPTIGA
 300:C:/Users/Yushev/git/wpcqi-optiga-trust-charge/wpc/PRx\qi_auth_prx_crypt.c ****           *    using optiga_util_read_metadata.
 301:C:/Users/Yushev/git/wpcqi-optiga-trust-charge/wpc/PRx\qi_auth_prx_crypt.c ****           */
 302:C:/Users/Yushev/git/wpcqi-optiga-trust-charge/wpc/PRx\qi_auth_prx_crypt.c ****          bytes_to_read = sizeof(platform_binding_secret_metadata);
 303:C:/Users/Yushev/git/wpcqi-optiga-trust-charge/wpc/PRx\qi_auth_prx_crypt.c ****          optiga_lib_status = OPTIGA_LIB_BUSY;
 304:C:/Users/Yushev/git/wpcqi-optiga-trust-charge/wpc/PRx\qi_auth_prx_crypt.c ****          return_status = optiga_util_read_metadata(me_util,
 305:C:/Users/Yushev/git/wpcqi-optiga-trust-charge/wpc/PRx\qi_auth_prx_crypt.c ****                                                    0xE140,
 306:C:/Users/Yushev/git/wpcqi-optiga-trust-charge/wpc/PRx\qi_auth_prx_crypt.c ****                                                    platform_binding_secret_metadata,
 307:C:/Users/Yushev/git/wpcqi-optiga-trust-charge/wpc/PRx\qi_auth_prx_crypt.c ****                                                    &bytes_to_read);
 308:C:/Users/Yushev/git/wpcqi-optiga-trust-charge/wpc/PRx\qi_auth_prx_crypt.c **** 
 309:C:/Users/Yushev/git/wpcqi-optiga-trust-charge/wpc/PRx\qi_auth_prx_crypt.c ****          WAIT_AND_CHECK_STATUS(return_status, optiga_lib_status);
 310:C:/Users/Yushev/git/wpcqi-optiga-trust-charge/wpc/PRx\qi_auth_prx_crypt.c **** 
 311:C:/Users/Yushev/git/wpcqi-optiga-trust-charge/wpc/PRx\qi_auth_prx_crypt.c ****          /**
 312:C:/Users/Yushev/git/wpcqi-optiga-trust-charge/wpc/PRx\qi_auth_prx_crypt.c ****           * 4. Validate LcsO in the metadata.
 313:C:/Users/Yushev/git/wpcqi-optiga-trust-charge/wpc/PRx\qi_auth_prx_crypt.c ****           *    Skip the rest of the procedure if LcsO is greater than or equal to operational state
 314:C:/Users/Yushev/git/wpcqi-optiga-trust-charge/wpc/PRx\qi_auth_prx_crypt.c ****           */
 315:C:/Users/Yushev/git/wpcqi-optiga-trust-charge/wpc/PRx\qi_auth_prx_crypt.c ****          if (platform_binding_secret_metadata[4] >= LCSO_STATE_OPERATIONAL)
 316:C:/Users/Yushev/git/wpcqi-optiga-trust-charge/wpc/PRx\qi_auth_prx_crypt.c ****          {
 317:C:/Users/Yushev/git/wpcqi-optiga-trust-charge/wpc/PRx\qi_auth_prx_crypt.c ****              // The LcsO is already greater than or equal to operational state
 318:C:/Users/Yushev/git/wpcqi-optiga-trust-charge/wpc/PRx\qi_auth_prx_crypt.c ****              break;
 319:C:/Users/Yushev/git/wpcqi-optiga-trust-charge/wpc/PRx\qi_auth_prx_crypt.c ****          }
 320:C:/Users/Yushev/git/wpcqi-optiga-trust-charge/wpc/PRx\qi_auth_prx_crypt.c **** 
 321:C:/Users/Yushev/git/wpcqi-optiga-trust-charge/wpc/PRx\qi_auth_prx_crypt.c ****          /**
 322:C:/Users/Yushev/git/wpcqi-optiga-trust-charge/wpc/PRx\qi_auth_prx_crypt.c ****           * 5. Generate Random using optiga_crypt_random
 323:C:/Users/Yushev/git/wpcqi-optiga-trust-charge/wpc/PRx\qi_auth_prx_crypt.c ****           *       - Specify the Random type as TRNG
 324:C:/Users/Yushev/git/wpcqi-optiga-trust-charge/wpc/PRx\qi_auth_prx_crypt.c ****           *    a. The maximum supported size of secret is 64 bytes.
 325:C:/Users/Yushev/git/wpcqi-optiga-trust-charge/wpc/PRx\qi_auth_prx_crypt.c ****           *       The minimum recommended is 32 bytes.
 326:C:/Users/Yushev/git/wpcqi-optiga-trust-charge/wpc/PRx\qi_auth_prx_crypt.c ****           *    b. If the host platform doesn't support random generation,
 327:C:/Users/Yushev/git/wpcqi-optiga-trust-charge/wpc/PRx\qi_auth_prx_crypt.c ****           *       use OPTIGA to generate the maximum size chosen.
 328:C:/Users/Yushev/git/wpcqi-optiga-trust-charge/wpc/PRx\qi_auth_prx_crypt.c ****           *       else choose the appropriate length of random to be generated by OPTIGA
 329:C:/Users/Yushev/git/wpcqi-optiga-trust-charge/wpc/PRx\qi_auth_prx_crypt.c ****           *
 330:C:/Users/Yushev/git/wpcqi-optiga-trust-charge/wpc/PRx\qi_auth_prx_crypt.c ****           */
 331:C:/Users/Yushev/git/wpcqi-optiga-trust-charge/wpc/PRx\qi_auth_prx_crypt.c ****          optiga_lib_status = OPTIGA_LIB_BUSY;
 332:C:/Users/Yushev/git/wpcqi-optiga-trust-charge/wpc/PRx\qi_auth_prx_crypt.c ****          return_status = optiga_crypt_random(me_crypt,
 333:C:/Users/Yushev/git/wpcqi-optiga-trust-charge/wpc/PRx\qi_auth_prx_crypt.c ****                                              OPTIGA_RNG_TYPE_TRNG,
 334:C:/Users/Yushev/git/wpcqi-optiga-trust-charge/wpc/PRx\qi_auth_prx_crypt.c ****                                              platform_binding_secret,
 335:C:/Users/Yushev/git/wpcqi-optiga-trust-charge/wpc/PRx\qi_auth_prx_crypt.c ****                                              sizeof(platform_binding_secret));
 336:C:/Users/Yushev/git/wpcqi-optiga-trust-charge/wpc/PRx\qi_auth_prx_crypt.c ****          WAIT_AND_CHECK_STATUS(return_status, optiga_lib_status);
 337:C:/Users/Yushev/git/wpcqi-optiga-trust-charge/wpc/PRx\qi_auth_prx_crypt.c **** 
 338:C:/Users/Yushev/git/wpcqi-optiga-trust-charge/wpc/PRx\qi_auth_prx_crypt.c ****          /**
 339:C:/Users/Yushev/git/wpcqi-optiga-trust-charge/wpc/PRx\qi_auth_prx_crypt.c ****           * 6. Generate random on Host
 340:C:/Users/Yushev/git/wpcqi-optiga-trust-charge/wpc/PRx\qi_auth_prx_crypt.c ****           *    If the host platform doesn't support, skip this step
 341:C:/Users/Yushev/git/wpcqi-optiga-trust-charge/wpc/PRx\qi_auth_prx_crypt.c ****           */
 342:C:/Users/Yushev/git/wpcqi-optiga-trust-charge/wpc/PRx\qi_auth_prx_crypt.c **** 
 343:C:/Users/Yushev/git/wpcqi-optiga-trust-charge/wpc/PRx\qi_auth_prx_crypt.c **** 
 344:C:/Users/Yushev/git/wpcqi-optiga-trust-charge/wpc/PRx\qi_auth_prx_crypt.c ****          /**
 345:C:/Users/Yushev/git/wpcqi-optiga-trust-charge/wpc/PRx\qi_auth_prx_crypt.c ****           * 7. Write random(secret) to OPTIGA platform Binding shared secret data object (0xE140)
 346:C:/Users/Yushev/git/wpcqi-optiga-trust-charge/wpc/PRx\qi_auth_prx_crypt.c ****           */
 347:C:/Users/Yushev/git/wpcqi-optiga-trust-charge/wpc/PRx\qi_auth_prx_crypt.c ****          optiga_lib_status = OPTIGA_LIB_BUSY;
 348:C:/Users/Yushev/git/wpcqi-optiga-trust-charge/wpc/PRx\qi_auth_prx_crypt.c ****          OPTIGA_UTIL_SET_COMMS_PROTECTION_LEVEL(me_util,OPTIGA_COMMS_NO_PROTECTION);
 349:C:/Users/Yushev/git/wpcqi-optiga-trust-charge/wpc/PRx\qi_auth_prx_crypt.c ****          return_status = optiga_util_write_data(me_util,
 350:C:/Users/Yushev/git/wpcqi-optiga-trust-charge/wpc/PRx\qi_auth_prx_crypt.c ****                                                 0xE140,
 351:C:/Users/Yushev/git/wpcqi-optiga-trust-charge/wpc/PRx\qi_auth_prx_crypt.c ****                                                 OPTIGA_UTIL_ERASE_AND_WRITE,
 352:C:/Users/Yushev/git/wpcqi-optiga-trust-charge/wpc/PRx\qi_auth_prx_crypt.c ****                                                 0,
 353:C:/Users/Yushev/git/wpcqi-optiga-trust-charge/wpc/PRx\qi_auth_prx_crypt.c ****                                                 platform_binding_secret,
 354:C:/Users/Yushev/git/wpcqi-optiga-trust-charge/wpc/PRx\qi_auth_prx_crypt.c ****                                                 sizeof(platform_binding_secret));
 355:C:/Users/Yushev/git/wpcqi-optiga-trust-charge/wpc/PRx\qi_auth_prx_crypt.c ****          WAIT_AND_CHECK_STATUS(return_status, optiga_lib_status);
 356:C:/Users/Yushev/git/wpcqi-optiga-trust-charge/wpc/PRx\qi_auth_prx_crypt.c **** 
 357:C:/Users/Yushev/git/wpcqi-optiga-trust-charge/wpc/PRx\qi_auth_prx_crypt.c ****          /**
 358:C:/Users/Yushev/git/wpcqi-optiga-trust-charge/wpc/PRx\qi_auth_prx_crypt.c ****           * 8. Write/store the random(secret) on the Host platform
 359:C:/Users/Yushev/git/wpcqi-optiga-trust-charge/wpc/PRx\qi_auth_prx_crypt.c ****           *
 360:C:/Users/Yushev/git/wpcqi-optiga-trust-charge/wpc/PRx\qi_auth_prx_crypt.c ****           */
 361:C:/Users/Yushev/git/wpcqi-optiga-trust-charge/wpc/PRx\qi_auth_prx_crypt.c ****          pal_return_status = pal_os_datastore_write(OPTIGA_PLATFORM_BINDING_SHARED_SECRET_ID,
 362:C:/Users/Yushev/git/wpcqi-optiga-trust-charge/wpc/PRx\qi_auth_prx_crypt.c ****                                                     platform_binding_secret,
 363:C:/Users/Yushev/git/wpcqi-optiga-trust-charge/wpc/PRx\qi_auth_prx_crypt.c ****                                                     sizeof(platform_binding_secret));
 364:C:/Users/Yushev/git/wpcqi-optiga-trust-charge/wpc/PRx\qi_auth_prx_crypt.c **** 
 365:C:/Users/Yushev/git/wpcqi-optiga-trust-charge/wpc/PRx\qi_auth_prx_crypt.c ****          if (PAL_STATUS_SUCCESS != pal_return_status)
 366:C:/Users/Yushev/git/wpcqi-optiga-trust-charge/wpc/PRx\qi_auth_prx_crypt.c ****          {
 367:C:/Users/Yushev/git/wpcqi-optiga-trust-charge/wpc/PRx\qi_auth_prx_crypt.c ****              //Storing of Pre-shared secret on Host failed.
 368:C:/Users/Yushev/git/wpcqi-optiga-trust-charge/wpc/PRx\qi_auth_prx_crypt.c ****              optiga_lib_status = pal_return_status;
 369:C:/Users/Yushev/git/wpcqi-optiga-trust-charge/wpc/PRx\qi_auth_prx_crypt.c ****              break;
 370:C:/Users/Yushev/git/wpcqi-optiga-trust-charge/wpc/PRx\qi_auth_prx_crypt.c ****          }
 371:C:/Users/Yushev/git/wpcqi-optiga-trust-charge/wpc/PRx\qi_auth_prx_crypt.c **** 
 372:C:/Users/Yushev/git/wpcqi-optiga-trust-charge/wpc/PRx\qi_auth_prx_crypt.c **** 
 373:C:/Users/Yushev/git/wpcqi-optiga-trust-charge/wpc/PRx\qi_auth_prx_crypt.c **** 
 374:C:/Users/Yushev/git/wpcqi-optiga-trust-charge/wpc/PRx\qi_auth_prx_crypt.c ****          /**
 375:C:/Users/Yushev/git/wpcqi-optiga-trust-charge/wpc/PRx\qi_auth_prx_crypt.c ****           * 9. Update metadata of OPTIGA Platform Binding shared secret data object (0xE140)
 376:C:/Users/Yushev/git/wpcqi-optiga-trust-charge/wpc/PRx\qi_auth_prx_crypt.c ****           */
 377:C:/Users/Yushev/git/wpcqi-optiga-trust-charge/wpc/PRx\qi_auth_prx_crypt.c ****          optiga_lib_status = OPTIGA_LIB_BUSY;
 378:C:/Users/Yushev/git/wpcqi-optiga-trust-charge/wpc/PRx\qi_auth_prx_crypt.c ****          OPTIGA_UTIL_SET_COMMS_PROTECTION_LEVEL(me_util,OPTIGA_COMMS_NO_PROTECTION);
 379:C:/Users/Yushev/git/wpcqi-optiga-trust-charge/wpc/PRx\qi_auth_prx_crypt.c ****          return_status = optiga_util_write_metadata(me_util,
 380:C:/Users/Yushev/git/wpcqi-optiga-trust-charge/wpc/PRx\qi_auth_prx_crypt.c ****                                                     0xE140,
 381:C:/Users/Yushev/git/wpcqi-optiga-trust-charge/wpc/PRx\qi_auth_prx_crypt.c ****                                                     platform_binding_shared_secret_metadata_final,
 382:C:/Users/Yushev/git/wpcqi-optiga-trust-charge/wpc/PRx\qi_auth_prx_crypt.c ****                                                     sizeof(platform_binding_shared_secret_metadata_
 383:C:/Users/Yushev/git/wpcqi-optiga-trust-charge/wpc/PRx\qi_auth_prx_crypt.c **** 
 384:C:/Users/Yushev/git/wpcqi-optiga-trust-charge/wpc/PRx\qi_auth_prx_crypt.c ****          WAIT_AND_CHECK_STATUS(return_status, optiga_lib_status);
 385:C:/Users/Yushev/git/wpcqi-optiga-trust-charge/wpc/PRx\qi_auth_prx_crypt.c **** 
 386:C:/Users/Yushev/git/wpcqi-optiga-trust-charge/wpc/PRx\qi_auth_prx_crypt.c ****          return_status = OPTIGA_LIB_SUCCESS;
 387:C:/Users/Yushev/git/wpcqi-optiga-trust-charge/wpc/PRx\qi_auth_prx_crypt.c **** 
 388:C:/Users/Yushev/git/wpcqi-optiga-trust-charge/wpc/PRx\qi_auth_prx_crypt.c ****      } while(FALSE);
 389:C:/Users/Yushev/git/wpcqi-optiga-trust-charge/wpc/PRx\qi_auth_prx_crypt.c ****      OPTIGA_EXAMPLE_LOG_STATUS(return_status);
 390:C:/Users/Yushev/git/wpcqi-optiga-trust-charge/wpc/PRx\qi_auth_prx_crypt.c ****  }
 391:C:/Users/Yushev/git/wpcqi-optiga-trust-charge/wpc/PRx\qi_auth_prx_crypt.c **** 
 392:C:/Users/Yushev/git/wpcqi-optiga-trust-charge/wpc/PRx\qi_auth_prx_crypt.c **** #endif
 393:C:/Users/Yushev/git/wpcqi-optiga-trust-charge/wpc/PRx\qi_auth_prx_crypt.c **** 
 394:C:/Users/Yushev/git/wpcqi-optiga-trust-charge/wpc/PRx\qi_auth_prx_crypt.c ****  /**
 395:C:/Users/Yushev/git/wpcqi-optiga-trust-charge/wpc/PRx\qi_auth_prx_crypt.c ****  * @}
 396:C:/Users/Yushev/git/wpcqi-optiga-trust-charge/wpc/PRx\qi_auth_prx_crypt.c ****  */
 397:C:/Users/Yushev/git/wpcqi-optiga-trust-charge/wpc/PRx\qi_auth_prx_crypt.c **** 
 398:C:/Users/Yushev/git/wpcqi-optiga-trust-charge/wpc/PRx\qi_auth_prx_crypt.c **** 
 399:C:/Users/Yushev/git/wpcqi-optiga-trust-charge/wpc/PRx\qi_auth_prx_crypt.c **** static int mbedtls_ecp_decompress( const mbedtls_ecp_group *grp, const unsigned char *input, size_t
 400:C:/Users/Yushev/git/wpcqi-optiga-trust-charge/wpc/PRx\qi_auth_prx_crypt.c **** 								   unsigned char *output, size_t *olen, size_t osize )
 401:C:/Users/Yushev/git/wpcqi-optiga-trust-charge/wpc/PRx\qi_auth_prx_crypt.c **** {
 1074              	 .loc 1 401 0
 1075              	 .cfi_startproc
 1076              	 
 1077              	 
 1078 0000 90B5     	 push {r4,r7,lr}
 1079              	.LCFI16:
 1080              	 .cfi_def_cfa_offset 12
 1081              	 .cfi_offset 4,-12
 1082              	 .cfi_offset 7,-8
 1083              	 .cfi_offset 14,-4
 1084 0002 93B0     	 sub sp,sp,#76
 1085              	.LCFI17:
 1086              	 .cfi_def_cfa_offset 88
 1087 0004 02AF     	 add r7,sp,#8
 1088              	.LCFI18:
 1089              	 .cfi_def_cfa 7,80
 1090 0006 F860     	 str r0,[r7,#12]
 1091 0008 B960     	 str r1,[r7,#8]
 1092 000a 7A60     	 str r2,[r7,#4]
 1093 000c 3B60     	 str r3,[r7]
 402:C:/Users/Yushev/git/wpcqi-optiga-trust-charge/wpc/PRx\qi_auth_prx_crypt.c ****     int ret;
 403:C:/Users/Yushev/git/wpcqi-optiga-trust-charge/wpc/PRx\qi_auth_prx_crypt.c ****     size_t plen;
 404:C:/Users/Yushev/git/wpcqi-optiga-trust-charge/wpc/PRx\qi_auth_prx_crypt.c ****     mbedtls_mpi r;
 405:C:/Users/Yushev/git/wpcqi-optiga-trust-charge/wpc/PRx\qi_auth_prx_crypt.c ****     mbedtls_mpi x;
 406:C:/Users/Yushev/git/wpcqi-optiga-trust-charge/wpc/PRx\qi_auth_prx_crypt.c ****     mbedtls_mpi n;
 407:C:/Users/Yushev/git/wpcqi-optiga-trust-charge/wpc/PRx\qi_auth_prx_crypt.c **** 
 408:C:/Users/Yushev/git/wpcqi-optiga-trust-charge/wpc/PRx\qi_auth_prx_crypt.c ****     plen = mbedtls_mpi_size( &grp->P );
 1094              	 .loc 1 408 0
 1095 000e FB68     	 ldr r3,[r7,#12]
 1096 0010 0433     	 adds r3,r3,#4
 1097 0012 1846     	 mov r0,r3
 1098 0014 FFF7FEFF 	 bl mbedtls_mpi_size
 1099 0018 B863     	 str r0,[r7,#56]
 409:C:/Users/Yushev/git/wpcqi-optiga-trust-charge/wpc/PRx\qi_auth_prx_crypt.c **** 
 410:C:/Users/Yushev/git/wpcqi-optiga-trust-charge/wpc/PRx\qi_auth_prx_crypt.c ****     *olen = 2 * plen + 1;
 1100              	 .loc 1 410 0
 1101 001a BB6B     	 ldr r3,[r7,#56]
 1102 001c 5B00     	 lsls r3,r3,#1
 1103 001e 5A1C     	 adds r2,r3,#1
 1104 0020 3B6D     	 ldr r3,[r7,#80]
 1105 0022 1A60     	 str r2,[r3]
 411:C:/Users/Yushev/git/wpcqi-optiga-trust-charge/wpc/PRx\qi_auth_prx_crypt.c **** 
 412:C:/Users/Yushev/git/wpcqi-optiga-trust-charge/wpc/PRx\qi_auth_prx_crypt.c ****     if( osize < *olen )
 1106              	 .loc 1 412 0
 1107 0024 3B6D     	 ldr r3,[r7,#80]
 1108 0026 1A68     	 ldr r2,[r3]
 1109 0028 7B6D     	 ldr r3,[r7,#84]
 1110 002a 9A42     	 cmp r2,r3
 1111 002c 01D9     	 bls .L29
 413:C:/Users/Yushev/git/wpcqi-optiga-trust-charge/wpc/PRx\qi_auth_prx_crypt.c ****         return( MBEDTLS_ERR_ECP_BUFFER_TOO_SMALL );
 1112              	 .loc 1 413 0
 1113 002e 7B4B     	 ldr r3,.L45
 1114 0030 EFE0     	 b .L44
 1115              	.L29:
 414:C:/Users/Yushev/git/wpcqi-optiga-trust-charge/wpc/PRx\qi_auth_prx_crypt.c **** 
 415:C:/Users/Yushev/git/wpcqi-optiga-trust-charge/wpc/PRx\qi_auth_prx_crypt.c ****     if( ilen != plen + 1 )
 1116              	 .loc 1 415 0
 1117 0032 BB6B     	 ldr r3,[r7,#56]
 1118 0034 5A1C     	 adds r2,r3,#1
 1119 0036 7B68     	 ldr r3,[r7,#4]
 1120 0038 9A42     	 cmp r2,r3
 1121 003a 01D0     	 beq .L31
 416:C:/Users/Yushev/git/wpcqi-optiga-trust-charge/wpc/PRx\qi_auth_prx_crypt.c ****         return( MBEDTLS_ERR_ECP_BAD_INPUT_DATA );
 1122              	 .loc 1 416 0
 1123 003c 784B     	 ldr r3,.L45+4
 1124 003e E8E0     	 b .L44
 1125              	.L31:
 417:C:/Users/Yushev/git/wpcqi-optiga-trust-charge/wpc/PRx\qi_auth_prx_crypt.c **** 
 418:C:/Users/Yushev/git/wpcqi-optiga-trust-charge/wpc/PRx\qi_auth_prx_crypt.c ****     if( input[0] != 0x02 && input[0] != 0x03 )
 1126              	 .loc 1 418 0
 1127 0040 BB68     	 ldr r3,[r7,#8]
 1128 0042 1B78     	 ldrb r3,[r3]
 1129 0044 022B     	 cmp r3,#2
 1130 0046 05D0     	 beq .L32
 1131              	 .loc 1 418 0 is_stmt 0 discriminator 1
 1132 0048 BB68     	 ldr r3,[r7,#8]
 1133 004a 1B78     	 ldrb r3,[r3]
 1134 004c 032B     	 cmp r3,#3
 1135 004e 01D0     	 beq .L32
 419:C:/Users/Yushev/git/wpcqi-optiga-trust-charge/wpc/PRx\qi_auth_prx_crypt.c ****         return( MBEDTLS_ERR_ECP_BAD_INPUT_DATA );
 1136              	 .loc 1 419 0 is_stmt 1
 1137 0050 734B     	 ldr r3,.L45+4
 1138 0052 DEE0     	 b .L44
 1139              	.L32:
 420:C:/Users/Yushev/git/wpcqi-optiga-trust-charge/wpc/PRx\qi_auth_prx_crypt.c **** 
 421:C:/Users/Yushev/git/wpcqi-optiga-trust-charge/wpc/PRx\qi_auth_prx_crypt.c ****     // output will consist of 0x04|X|Y
 422:C:/Users/Yushev/git/wpcqi-optiga-trust-charge/wpc/PRx\qi_auth_prx_crypt.c ****     memcpy( output, input, ilen );
 1140              	 .loc 1 422 0
 1141 0054 3868     	 ldr r0,[r7]
 1142 0056 B968     	 ldr r1,[r7,#8]
 1143 0058 7A68     	 ldr r2,[r7,#4]
 1144 005a FFF7FEFF 	 bl memcpy
 423:C:/Users/Yushev/git/wpcqi-optiga-trust-charge/wpc/PRx\qi_auth_prx_crypt.c ****     output[0] = 0x04;
 1145              	 .loc 1 423 0
 1146 005e 3B68     	 ldr r3,[r7]
 1147 0060 0422     	 movs r2,#4
 1148 0062 1A70     	 strb r2,[r3]
 424:C:/Users/Yushev/git/wpcqi-optiga-trust-charge/wpc/PRx\qi_auth_prx_crypt.c **** 
 425:C:/Users/Yushev/git/wpcqi-optiga-trust-charge/wpc/PRx\qi_auth_prx_crypt.c ****     mbedtls_mpi_init( &r );
 1149              	 .loc 1 425 0
 1150 0064 07F12C03 	 add r3,r7,#44
 1151 0068 1846     	 mov r0,r3
 1152 006a FFF7FEFF 	 bl mbedtls_mpi_init
 426:C:/Users/Yushev/git/wpcqi-optiga-trust-charge/wpc/PRx\qi_auth_prx_crypt.c ****     mbedtls_mpi_init( &x );
 1153              	 .loc 1 426 0
 1154 006e 07F12003 	 add r3,r7,#32
 1155 0072 1846     	 mov r0,r3
 1156 0074 FFF7FEFF 	 bl mbedtls_mpi_init
 427:C:/Users/Yushev/git/wpcqi-optiga-trust-charge/wpc/PRx\qi_auth_prx_crypt.c ****     mbedtls_mpi_init( &n );
 1157              	 .loc 1 427 0
 1158 0078 07F11403 	 add r3,r7,#20
 1159 007c 1846     	 mov r0,r3
 1160 007e FFF7FEFF 	 bl mbedtls_mpi_init
 428:C:/Users/Yushev/git/wpcqi-optiga-trust-charge/wpc/PRx\qi_auth_prx_crypt.c **** 
 429:C:/Users/Yushev/git/wpcqi-optiga-trust-charge/wpc/PRx\qi_auth_prx_crypt.c ****     // x <= input
 430:C:/Users/Yushev/git/wpcqi-optiga-trust-charge/wpc/PRx\qi_auth_prx_crypt.c ****     MBEDTLS_MPI_CHK( mbedtls_mpi_read_binary( &x, input + 1, plen ) );
 1161              	 .loc 1 430 0
 1162 0082 BB68     	 ldr r3,[r7,#8]
 1163 0084 0133     	 adds r3,r3,#1
 1164 0086 07F12002 	 add r2,r7,#32
 1165 008a 1046     	 mov r0,r2
 1166 008c 1946     	 mov r1,r3
 1167 008e BA6B     	 ldr r2,[r7,#56]
 1168 0090 FFF7FEFF 	 bl mbedtls_mpi_read_binary
 1169 0094 F863     	 str r0,[r7,#60]
 1170 0096 FB6B     	 ldr r3,[r7,#60]
 1171 0098 002B     	 cmp r3,#0
 1172 009a 00D0     	 beq .L33
 1173 009c A9E0     	 b .L34
 1174              	.L33:
 431:C:/Users/Yushev/git/wpcqi-optiga-trust-charge/wpc/PRx\qi_auth_prx_crypt.c **** 
 432:C:/Users/Yushev/git/wpcqi-optiga-trust-charge/wpc/PRx\qi_auth_prx_crypt.c ****     // r = x^2
 433:C:/Users/Yushev/git/wpcqi-optiga-trust-charge/wpc/PRx\qi_auth_prx_crypt.c ****     MBEDTLS_MPI_CHK( mbedtls_mpi_mul_mpi( &r, &x, &x ) );
 1175              	 .loc 1 433 0
 1176 009e 07F12C01 	 add r1,r7,#44
 1177 00a2 07F12002 	 add r2,r7,#32
 1178 00a6 07F12003 	 add r3,r7,#32
 1179 00aa 0846     	 mov r0,r1
 1180 00ac 1146     	 mov r1,r2
 1181 00ae 1A46     	 mov r2,r3
 1182 00b0 FFF7FEFF 	 bl mbedtls_mpi_mul_mpi
 1183 00b4 F863     	 str r0,[r7,#60]
 1184 00b6 FB6B     	 ldr r3,[r7,#60]
 1185 00b8 002B     	 cmp r3,#0
 1186 00ba 00D0     	 beq .L35
 1187 00bc 99E0     	 b .L34
 1188              	.L35:
 434:C:/Users/Yushev/git/wpcqi-optiga-trust-charge/wpc/PRx\qi_auth_prx_crypt.c **** 
 435:C:/Users/Yushev/git/wpcqi-optiga-trust-charge/wpc/PRx\qi_auth_prx_crypt.c ****     // r = x^2 + a
 436:C:/Users/Yushev/git/wpcqi-optiga-trust-charge/wpc/PRx\qi_auth_prx_crypt.c ****     // AY: r = r - 3
 437:C:/Users/Yushev/git/wpcqi-optiga-trust-charge/wpc/PRx\qi_auth_prx_crypt.c ****     if( grp->A.p == NULL ) {
 1189              	 .loc 1 437 0
 1190 00be FB68     	 ldr r3,[r7,#12]
 1191 00c0 9B69     	 ldr r3,[r3,#24]
 1192 00c2 002B     	 cmp r3,#0
 1193 00c4 0DD1     	 bne .L36
 438:C:/Users/Yushev/git/wpcqi-optiga-trust-charge/wpc/PRx\qi_auth_prx_crypt.c ****         // Special case where a is -3
 439:C:/Users/Yushev/git/wpcqi-optiga-trust-charge/wpc/PRx\qi_auth_prx_crypt.c ****         MBEDTLS_MPI_CHK( mbedtls_mpi_sub_int( &r, &r, 3 ) );
 1194              	 .loc 1 439 0
 1195 00c6 07F12C02 	 add r2,r7,#44
 1196 00ca 07F12C03 	 add r3,r7,#44
 1197 00ce 1046     	 mov r0,r2
 1198 00d0 1946     	 mov r1,r3
 1199 00d2 0322     	 movs r2,#3
 1200 00d4 FFF7FEFF 	 bl mbedtls_mpi_sub_int
 1201 00d8 F863     	 str r0,[r7,#60]
 1202 00da FB6B     	 ldr r3,[r7,#60]
 1203 00dc 002B     	 cmp r3,#0
 1204 00de 10D0     	 beq .L37
 1205 00e0 87E0     	 b .L34
 1206              	.L36:
 440:C:/Users/Yushev/git/wpcqi-optiga-trust-charge/wpc/PRx\qi_auth_prx_crypt.c ****     } else {
 441:C:/Users/Yushev/git/wpcqi-optiga-trust-charge/wpc/PRx\qi_auth_prx_crypt.c ****         MBEDTLS_MPI_CHK( mbedtls_mpi_add_mpi( &r, &r, &grp->A ) );
 1207              	 .loc 1 441 0
 1208 00e2 FB68     	 ldr r3,[r7,#12]
 1209 00e4 1033     	 adds r3,r3,#16
 1210 00e6 07F12C01 	 add r1,r7,#44
 1211 00ea 07F12C02 	 add r2,r7,#44
 1212 00ee 0846     	 mov r0,r1
 1213 00f0 1146     	 mov r1,r2
 1214 00f2 1A46     	 mov r2,r3
 1215 00f4 FFF7FEFF 	 bl mbedtls_mpi_add_mpi
 1216 00f8 F863     	 str r0,[r7,#60]
 1217 00fa FB6B     	 ldr r3,[r7,#60]
 1218 00fc 002B     	 cmp r3,#0
 1219 00fe 00D0     	 beq .L37
 1220 0100 77E0     	 b .L34
 1221              	.L37:
 442:C:/Users/Yushev/git/wpcqi-optiga-trust-charge/wpc/PRx\qi_auth_prx_crypt.c ****     }
 443:C:/Users/Yushev/git/wpcqi-optiga-trust-charge/wpc/PRx\qi_auth_prx_crypt.c **** 
 444:C:/Users/Yushev/git/wpcqi-optiga-trust-charge/wpc/PRx\qi_auth_prx_crypt.c ****     // r = x^3 + ax
 445:C:/Users/Yushev/git/wpcqi-optiga-trust-charge/wpc/PRx\qi_auth_prx_crypt.c ****     // AY: r = r * x
 446:C:/Users/Yushev/git/wpcqi-optiga-trust-charge/wpc/PRx\qi_auth_prx_crypt.c ****     MBEDTLS_MPI_CHK( mbedtls_mpi_mul_mpi( &r, &r, &x ) );
 1222              	 .loc 1 446 0
 1223 0102 07F12C01 	 add r1,r7,#44
 1224 0106 07F12C02 	 add r2,r7,#44
 1225 010a 07F12003 	 add r3,r7,#32
 1226 010e 0846     	 mov r0,r1
 1227 0110 1146     	 mov r1,r2
 1228 0112 1A46     	 mov r2,r3
 1229 0114 FFF7FEFF 	 bl mbedtls_mpi_mul_mpi
 1230 0118 F863     	 str r0,[r7,#60]
 1231 011a FB6B     	 ldr r3,[r7,#60]
 1232 011c 002B     	 cmp r3,#0
 1233 011e 00D0     	 beq .L38
 1234 0120 67E0     	 b .L34
 1235              	.L38:
 447:C:/Users/Yushev/git/wpcqi-optiga-trust-charge/wpc/PRx\qi_auth_prx_crypt.c **** 
 448:C:/Users/Yushev/git/wpcqi-optiga-trust-charge/wpc/PRx\qi_auth_prx_crypt.c ****     // r = x^3 + ax + b
 449:C:/Users/Yushev/git/wpcqi-optiga-trust-charge/wpc/PRx\qi_auth_prx_crypt.c ****     // AY: r = r * b
 450:C:/Users/Yushev/git/wpcqi-optiga-trust-charge/wpc/PRx\qi_auth_prx_crypt.c ****     /*
 451:C:/Users/Yushev/git/wpcqi-optiga-trust-charge/wpc/PRx\qi_auth_prx_crypt.c ****      * static const mbedtls_mpi_uint secp256r1_b[] = {
 452:C:/Users/Yushev/git/wpcqi-optiga-trust-charge/wpc/PRx\qi_auth_prx_crypt.c **** 		BYTES_TO_T_UINT_8( 0x4B, 0x60, 0xD2, 0x27, 0x3E, 0x3C, 0xCE, 0x3B ),
 453:C:/Users/Yushev/git/wpcqi-optiga-trust-charge/wpc/PRx\qi_auth_prx_crypt.c **** 		BYTES_TO_T_UINT_8( 0xF6, 0xB0, 0x53, 0xCC, 0xB0, 0x06, 0x1D, 0x65 ),
 454:C:/Users/Yushev/git/wpcqi-optiga-trust-charge/wpc/PRx\qi_auth_prx_crypt.c **** 		BYTES_TO_T_UINT_8( 0xBC, 0x86, 0x98, 0x76, 0x55, 0xBD, 0xEB, 0xB3 ),
 455:C:/Users/Yushev/git/wpcqi-optiga-trust-charge/wpc/PRx\qi_auth_prx_crypt.c **** 		BYTES_TO_T_UINT_8( 0xE7, 0x93, 0x3A, 0xAA, 0xD8, 0x35, 0xC6, 0x5A ),
 456:C:/Users/Yushev/git/wpcqi-optiga-trust-charge/wpc/PRx\qi_auth_prx_crypt.c **** 	};
 457:C:/Users/Yushev/git/wpcqi-optiga-trust-charge/wpc/PRx\qi_auth_prx_crypt.c ****      */
 458:C:/Users/Yushev/git/wpcqi-optiga-trust-charge/wpc/PRx\qi_auth_prx_crypt.c ****     MBEDTLS_MPI_CHK( mbedtls_mpi_add_mpi( &r, &r, &grp->B ) );
 1236              	 .loc 1 458 0
 1237 0122 FB68     	 ldr r3,[r7,#12]
 1238 0124 1C33     	 adds r3,r3,#28
 1239 0126 07F12C01 	 add r1,r7,#44
 1240 012a 07F12C02 	 add r2,r7,#44
 1241 012e 0846     	 mov r0,r1
 1242 0130 1146     	 mov r1,r2
 1243 0132 1A46     	 mov r2,r3
 1244 0134 FFF7FEFF 	 bl mbedtls_mpi_add_mpi
 1245 0138 F863     	 str r0,[r7,#60]
 1246 013a FB6B     	 ldr r3,[r7,#60]
 1247 013c 002B     	 cmp r3,#0
 1248 013e 00D0     	 beq .L39
 1249 0140 57E0     	 b .L34
 1250              	.L39:
 459:C:/Users/Yushev/git/wpcqi-optiga-trust-charge/wpc/PRx\qi_auth_prx_crypt.c **** 
 460:C:/Users/Yushev/git/wpcqi-optiga-trust-charge/wpc/PRx\qi_auth_prx_crypt.c ****     // Calculate quare root of r over finite field P:
 461:C:/Users/Yushev/git/wpcqi-optiga-trust-charge/wpc/PRx\qi_auth_prx_crypt.c ****     //   r = sqrt(x^3 + ax + b) = (x^3 + ax + b) ^ ((P + 1) / 4) (mod P)
 462:C:/Users/Yushev/git/wpcqi-optiga-trust-charge/wpc/PRx\qi_auth_prx_crypt.c **** 
 463:C:/Users/Yushev/git/wpcqi-optiga-trust-charge/wpc/PRx\qi_auth_prx_crypt.c ****     // n = P + 1
 464:C:/Users/Yushev/git/wpcqi-optiga-trust-charge/wpc/PRx\qi_auth_prx_crypt.c ****     // AY: n = p + 1
 465:C:/Users/Yushev/git/wpcqi-optiga-trust-charge/wpc/PRx\qi_auth_prx_crypt.c ****     /*
 466:C:/Users/Yushev/git/wpcqi-optiga-trust-charge/wpc/PRx\qi_auth_prx_crypt.c ****      * static const mbedtls_mpi_uint secp256r1_p[] = {
 467:C:/Users/Yushev/git/wpcqi-optiga-trust-charge/wpc/PRx\qi_auth_prx_crypt.c **** 		BYTES_TO_T_UINT_8( 0xFF, 0xFF, 0xFF, 0xFF, 0xFF, 0xFF, 0xFF, 0xFF ),
 468:C:/Users/Yushev/git/wpcqi-optiga-trust-charge/wpc/PRx\qi_auth_prx_crypt.c **** 		BYTES_TO_T_UINT_8( 0xFF, 0xFF, 0xFF, 0xFF, 0x00, 0x00, 0x00, 0x00 ),
 469:C:/Users/Yushev/git/wpcqi-optiga-trust-charge/wpc/PRx\qi_auth_prx_crypt.c **** 		BYTES_TO_T_UINT_8( 0x00, 0x00, 0x00, 0x00, 0x00, 0x00, 0x00, 0x00 ),
 470:C:/Users/Yushev/git/wpcqi-optiga-trust-charge/wpc/PRx\qi_auth_prx_crypt.c **** 		BYTES_TO_T_UINT_8( 0x01, 0x00, 0x00, 0x00, 0xFF, 0xFF, 0xFF, 0xFF ),
 471:C:/Users/Yushev/git/wpcqi-optiga-trust-charge/wpc/PRx\qi_auth_prx_crypt.c **** 	};
 472:C:/Users/Yushev/git/wpcqi-optiga-trust-charge/wpc/PRx\qi_auth_prx_crypt.c ****      */
 473:C:/Users/Yushev/git/wpcqi-optiga-trust-charge/wpc/PRx\qi_auth_prx_crypt.c ****     MBEDTLS_MPI_CHK( mbedtls_mpi_add_int( &n, &grp->P, 1 ) );
 1251              	 .loc 1 473 0
 1252 0142 FB68     	 ldr r3,[r7,#12]
 1253 0144 0433     	 adds r3,r3,#4
 1254 0146 07F11402 	 add r2,r7,#20
 1255 014a 1046     	 mov r0,r2
 1256 014c 1946     	 mov r1,r3
 1257 014e 0122     	 movs r2,#1
 1258 0150 FFF7FEFF 	 bl mbedtls_mpi_add_int
 1259 0154 F863     	 str r0,[r7,#60]
 1260 0156 FB6B     	 ldr r3,[r7,#60]
 1261 0158 002B     	 cmp r3,#0
 1262 015a 00D0     	 beq .L40
 1263 015c 49E0     	 b .L34
 1264              	.L40:
 474:C:/Users/Yushev/git/wpcqi-optiga-trust-charge/wpc/PRx\qi_auth_prx_crypt.c **** 
 475:C:/Users/Yushev/git/wpcqi-optiga-trust-charge/wpc/PRx\qi_auth_prx_crypt.c ****     // n = (P + 1) / 4
 476:C:/Users/Yushev/git/wpcqi-optiga-trust-charge/wpc/PRx\qi_auth_prx_crypt.c ****     // AY: n = n / 2
 477:C:/Users/Yushev/git/wpcqi-optiga-trust-charge/wpc/PRx\qi_auth_prx_crypt.c ****     MBEDTLS_MPI_CHK( mbedtls_mpi_shift_r( &n, 2 ) );
 1265              	 .loc 1 477 0
 1266 015e 07F11403 	 add r3,r7,#20
 1267 0162 1846     	 mov r0,r3
 1268 0164 0221     	 movs r1,#2
 1269 0166 FFF7FEFF 	 bl mbedtls_mpi_shift_r
 1270 016a F863     	 str r0,[r7,#60]
 1271 016c FB6B     	 ldr r3,[r7,#60]
 1272 016e 002B     	 cmp r3,#0
 1273 0170 00D0     	 beq .L41
 1274 0172 3EE0     	 b .L34
 1275              	.L41:
 478:C:/Users/Yushev/git/wpcqi-optiga-trust-charge/wpc/PRx\qi_auth_prx_crypt.c **** 
 479:C:/Users/Yushev/git/wpcqi-optiga-trust-charge/wpc/PRx\qi_auth_prx_crypt.c ****     // r ^ ((P + 1) / 4) (mod p)
 480:C:/Users/Yushev/git/wpcqi-optiga-trust-charge/wpc/PRx\qi_auth_prx_crypt.c ****     // Sliding-window exponentiation: X = A^E mod N  (HAC 14.85)
 481:C:/Users/Yushev/git/wpcqi-optiga-trust-charge/wpc/PRx\qi_auth_prx_crypt.c ****     // mbedtls_mpi *X, const mbedtls_mpi *A, const mbedtls_mpi *E, const mbedtls_mpi *N, mbedtls_mp
 482:C:/Users/Yushev/git/wpcqi-optiga-trust-charge/wpc/PRx\qi_auth_prx_crypt.c ****     // AY: r = (r ^ n) mod p
 483:C:/Users/Yushev/git/wpcqi-optiga-trust-charge/wpc/PRx\qi_auth_prx_crypt.c ****     MBEDTLS_MPI_CHK( mbedtls_mpi_exp_mod( &r, &r, &n, &grp->P, NULL ) );
 1276              	 .loc 1 483 0
 1277 0174 FB68     	 ldr r3,[r7,#12]
 1278 0176 1C1D     	 adds r4,r3,#4
 1279 0178 07F12C00 	 add r0,r7,#44
 1280 017c 07F12C01 	 add r1,r7,#44
 1281 0180 07F11402 	 add r2,r7,#20
 1282 0184 0023     	 movs r3,#0
 1283 0186 0093     	 str r3,[sp]
 1284 0188 2346     	 mov r3,r4
 1285 018a FFF7FEFF 	 bl mbedtls_mpi_exp_mod
 1286 018e F863     	 str r0,[r7,#60]
 1287 0190 FB6B     	 ldr r3,[r7,#60]
 1288 0192 002B     	 cmp r3,#0
 1289 0194 00D0     	 beq .L42
 1290 0196 2CE0     	 b .L34
 1291              	.L42:
 484:C:/Users/Yushev/git/wpcqi-optiga-trust-charge/wpc/PRx\qi_auth_prx_crypt.c **** 
 485:C:/Users/Yushev/git/wpcqi-optiga-trust-charge/wpc/PRx\qi_auth_prx_crypt.c ****     // Select solution that has the correct "sign" (equals odd/even solution in finite group)
 486:C:/Users/Yushev/git/wpcqi-optiga-trust-charge/wpc/PRx\qi_auth_prx_crypt.c ****     // (input == 3): 0 == r[0] & 0x01
 487:C:/Users/Yushev/git/wpcqi-optiga-trust-charge/wpc/PRx\qi_auth_prx_crypt.c ****     //                  -> True: r = p - r
 488:C:/Users/Yushev/git/wpcqi-optiga-trust-charge/wpc/PRx\qi_auth_prx_crypt.c ****     // (input == 2): 1 ==  r[0] & 0x01
 489:C:/Users/Yushev/git/wpcqi-optiga-trust-charge/wpc/PRx\qi_auth_prx_crypt.c ****     //				    -> True: r = p - r
 490:C:/Users/Yushev/git/wpcqi-optiga-trust-charge/wpc/PRx\qi_auth_prx_crypt.c ****     if( (input[0] == 0x03) != mbedtls_mpi_get_bit( &r, 0 ) ) {
 1292              	 .loc 1 490 0
 1293 0198 BB68     	 ldr r3,[r7,#8]
 1294 019a 1B78     	 ldrb r3,[r3]
 1295 019c 032B     	 cmp r3,#3
 1296 019e 0CBF     	 ite eq
 1297 01a0 0123     	 moveq r3,#1
 1298 01a2 0023     	 movne r3,#0
 1299 01a4 DBB2     	 uxtb r3,r3
 1300 01a6 1C46     	 mov r4,r3
 1301 01a8 07F12C03 	 add r3,r7,#44
 1302 01ac 1846     	 mov r0,r3
 1303 01ae 0021     	 movs r1,#0
 1304 01b0 FFF7FEFF 	 bl mbedtls_mpi_get_bit
 1305 01b4 0346     	 mov r3,r0
 1306 01b6 9C42     	 cmp r4,r3
 1307 01b8 0FD0     	 beq .L43
 491:C:/Users/Yushev/git/wpcqi-optiga-trust-charge/wpc/PRx\qi_auth_prx_crypt.c ****         // r = p - r
 492:C:/Users/Yushev/git/wpcqi-optiga-trust-charge/wpc/PRx\qi_auth_prx_crypt.c ****         MBEDTLS_MPI_CHK( mbedtls_mpi_sub_mpi( &r, &grp->P, &r ) );
 1308              	 .loc 1 492 0
 1309 01ba FB68     	 ldr r3,[r7,#12]
 1310 01bc 1A1D     	 adds r2,r3,#4
 1311 01be 07F12C01 	 add r1,r7,#44
 1312 01c2 07F12C03 	 add r3,r7,#44
 1313 01c6 0846     	 mov r0,r1
 1314 01c8 1146     	 mov r1,r2
 1315 01ca 1A46     	 mov r2,r3
 1316 01cc FFF7FEFF 	 bl mbedtls_mpi_sub_mpi
 1317 01d0 F863     	 str r0,[r7,#60]
 1318 01d2 FB6B     	 ldr r3,[r7,#60]
 1319 01d4 002B     	 cmp r3,#0
 1320 01d6 00D0     	 beq .L43
 1321 01d8 0BE0     	 b .L34
 1322              	.L43:
 493:C:/Users/Yushev/git/wpcqi-optiga-trust-charge/wpc/PRx\qi_auth_prx_crypt.c ****     }
 494:C:/Users/Yushev/git/wpcqi-optiga-trust-charge/wpc/PRx\qi_auth_prx_crypt.c **** 
 495:C:/Users/Yushev/git/wpcqi-optiga-trust-charge/wpc/PRx\qi_auth_prx_crypt.c ****     // y => output
 496:C:/Users/Yushev/git/wpcqi-optiga-trust-charge/wpc/PRx\qi_auth_prx_crypt.c ****     ret = mbedtls_mpi_write_binary( &r, output + 1 + plen, plen );
 1323              	 .loc 1 496 0
 1324 01da BB6B     	 ldr r3,[r7,#56]
 1325 01dc 0133     	 adds r3,r3,#1
 1326 01de 3A68     	 ldr r2,[r7]
 1327 01e0 1344     	 add r3,r3,r2
 1328 01e2 07F12C02 	 add r2,r7,#44
 1329 01e6 1046     	 mov r0,r2
 1330 01e8 1946     	 mov r1,r3
 1331 01ea BA6B     	 ldr r2,[r7,#56]
 1332 01ec FFF7FEFF 	 bl mbedtls_mpi_write_binary
 1333 01f0 F863     	 str r0,[r7,#60]
 1334              	.L34:
 497:C:/Users/Yushev/git/wpcqi-optiga-trust-charge/wpc/PRx\qi_auth_prx_crypt.c **** 
 498:C:/Users/Yushev/git/wpcqi-optiga-trust-charge/wpc/PRx\qi_auth_prx_crypt.c **** cleanup:
 499:C:/Users/Yushev/git/wpcqi-optiga-trust-charge/wpc/PRx\qi_auth_prx_crypt.c ****     mbedtls_mpi_free( &r );
 1335              	 .loc 1 499 0
 1336 01f2 07F12C03 	 add r3,r7,#44
 1337 01f6 1846     	 mov r0,r3
 1338 01f8 FFF7FEFF 	 bl mbedtls_mpi_free
 500:C:/Users/Yushev/git/wpcqi-optiga-trust-charge/wpc/PRx\qi_auth_prx_crypt.c ****     mbedtls_mpi_free( &x );
 1339              	 .loc 1 500 0
 1340 01fc 07F12003 	 add r3,r7,#32
 1341 0200 1846     	 mov r0,r3
 1342 0202 FFF7FEFF 	 bl mbedtls_mpi_free
 501:C:/Users/Yushev/git/wpcqi-optiga-trust-charge/wpc/PRx\qi_auth_prx_crypt.c ****     mbedtls_mpi_free( &n );
 1343              	 .loc 1 501 0
 1344 0206 07F11403 	 add r3,r7,#20
 1345 020a 1846     	 mov r0,r3
 1346 020c FFF7FEFF 	 bl mbedtls_mpi_free
 502:C:/Users/Yushev/git/wpcqi-optiga-trust-charge/wpc/PRx\qi_auth_prx_crypt.c **** 
 503:C:/Users/Yushev/git/wpcqi-optiga-trust-charge/wpc/PRx\qi_auth_prx_crypt.c ****     return( ret );
 1347              	 .loc 1 503 0
 1348 0210 FB6B     	 ldr r3,[r7,#60]
 1349              	.L44:
 504:C:/Users/Yushev/git/wpcqi-optiga-trust-charge/wpc/PRx\qi_auth_prx_crypt.c **** }
 1350              	 .loc 1 504 0 discriminator 1
 1351 0212 1846     	 mov r0,r3
 1352 0214 4437     	 adds r7,r7,#68
 1353              	.LCFI19:
 1354              	 .cfi_def_cfa_offset 12
 1355 0216 BD46     	 mov sp,r7
 1356              	.LCFI20:
 1357              	 .cfi_def_cfa_register 13
 1358              	 
 1359 0218 90BD     	 pop {r4,r7,pc}
 1360              	.L46:
 1361 021a 00BF     	 .align 2
 1362              	.L45:
 1363 021c 00B1FFFF 	 .word -20224
 1364 0220 80B0FFFF 	 .word -20352
 1365              	 .cfi_endproc
 1366              	.LFE3:
 1368              	 .section .text.qi_auth_crypt_verify_ecc_signature,"ax",%progbits
 1369              	 .align 2
 1370              	 .thumb
 1371              	 .thumb_func
 1373              	qi_auth_crypt_verify_ecc_signature:
 1374              	.LFB4:
 505:C:/Users/Yushev/git/wpcqi-optiga-trust-charge/wpc/PRx\qi_auth_prx_crypt.c **** 
 506:C:/Users/Yushev/git/wpcqi-optiga-trust-charge/wpc/PRx\qi_auth_prx_crypt.c **** 
 507:C:/Users/Yushev/git/wpcqi-optiga-trust-charge/wpc/PRx\qi_auth_prx_crypt.c **** /**
 508:C:/Users/Yushev/git/wpcqi-optiga-trust-charge/wpc/PRx\qi_auth_prx_crypt.c ****  * \brief Verifies the ECC signature using the given public key.
 509:C:/Users/Yushev/git/wpcqi-optiga-trust-charge/wpc/PRx\qi_auth_prx_crypt.c ****  */
 510:C:/Users/Yushev/git/wpcqi-optiga-trust-charge/wpc/PRx\qi_auth_prx_crypt.c **** static uint16_t qi_auth_crypt_verify_ecc_signature(const uint8_t* p_pubkey, uint8_t pubkey_size,
 511:C:/Users/Yushev/git/wpcqi-optiga-trust-charge/wpc/PRx\qi_auth_prx_crypt.c **** 		                                      const uint8_t* p_data, uint16_t data_size,
 512:C:/Users/Yushev/git/wpcqi-optiga-trust-charge/wpc/PRx\qi_auth_prx_crypt.c **** 											  const uint8_t* p_sign, uint8_t sign_size)
 513:C:/Users/Yushev/git/wpcqi-optiga-trust-charge/wpc/PRx\qi_auth_prx_crypt.c **** {
 1375              	 .loc 1 513 0
 1376              	 .cfi_startproc
 1377              	 
 1378              	 
 1379 0000 B0B5     	 push {r4,r5,r7,lr}
 1380              	.LCFI21:
 1381              	 .cfi_def_cfa_offset 16
 1382              	 .cfi_offset 4,-16
 1383              	 .cfi_offset 5,-12
 1384              	 .cfi_offset 7,-8
 1385              	 .cfi_offset 14,-4
 1386 0002 E8B0     	 sub sp,sp,#416
 1387              	.LCFI22:
 1388              	 .cfi_def_cfa_offset 432
 1389 0004 04AF     	 add r7,sp,#16
 1390              	.LCFI23:
 1391              	 .cfi_def_cfa 7,416
 1392 0006 07F10C04 	 add r4,r7,#12
 1393 000a 2060     	 str r0,[r4]
 1394 000c 0846     	 mov r0,r1
 1395 000e 391D     	 adds r1,r7,#4
 1396 0010 0A60     	 str r2,[r1]
 1397 0012 1946     	 mov r1,r3
 1398 0014 07F10B03 	 add r3,r7,#11
 1399 0018 0246     	 mov r2,r0
 1400 001a 1A70     	 strb r2,[r3]
 1401 001c 07F10803 	 add r3,r7,#8
 1402 0020 0A46     	 mov r2,r1
 1403 0022 1A80     	 strh r2,[r3]
 514:C:/Users/Yushev/git/wpcqi-optiga-trust-charge/wpc/PRx\qi_auth_prx_crypt.c **** 	uint16_t return_status = (int32_t)CRYPT_LIB_VERIFY_SIGN_FAIL;
 1404              	 .loc 1 514 0
 1405 0024 0323     	 movs r3,#3
 1406 0026 A7F88E31 	 strh r3,[r7,#398]
 515:C:/Users/Yushev/git/wpcqi-optiga-trust-charge/wpc/PRx\qi_auth_prx_crypt.c ****     uint8_t p_digest[32];
 516:C:/Users/Yushev/git/wpcqi-optiga-trust-charge/wpc/PRx\qi_auth_prx_crypt.c ****     uint8_t decompr_pubkey[70];
 517:C:/Users/Yushev/git/wpcqi-optiga-trust-charge/wpc/PRx\qi_auth_prx_crypt.c ****     uint8_t asn1_signature[71];
 518:C:/Users/Yushev/git/wpcqi-optiga-trust-charge/wpc/PRx\qi_auth_prx_crypt.c ****     size_t asn1_signature_len = 71;
 1407              	 .loc 1 518 0
 1408 002a 4723     	 movs r3,#71
 1409 002c C7F8D430 	 str r3,[r7,#212]
 519:C:/Users/Yushev/git/wpcqi-optiga-trust-charge/wpc/PRx\qi_auth_prx_crypt.c ****     size_t pubkey_len = 65;
 1410              	 .loc 1 519 0
 1411 0030 4123     	 movs r3,#65
 1412 0032 C7F8D030 	 str r3,[r7,#208]
 520:C:/Users/Yushev/git/wpcqi-optiga-trust-charge/wpc/PRx\qi_auth_prx_crypt.c ****     uint8_t* p_pk = NULL;
 1413              	 .loc 1 520 0
 1414 0036 0023     	 movs r3,#0
 1415 0038 C7F88831 	 str r3,[r7,#392]
 521:C:/Users/Yushev/git/wpcqi-optiga-trust-charge/wpc/PRx\qi_auth_prx_crypt.c **** 
 522:C:/Users/Yushev/git/wpcqi-optiga-trust-charge/wpc/PRx\qi_auth_prx_crypt.c ****     mbedtls_ecp_group grp;
 523:C:/Users/Yushev/git/wpcqi-optiga-trust-charge/wpc/PRx\qi_auth_prx_crypt.c ****     // Public Key
 524:C:/Users/Yushev/git/wpcqi-optiga-trust-charge/wpc/PRx\qi_auth_prx_crypt.c ****     mbedtls_ecp_point Q;
 525:C:/Users/Yushev/git/wpcqi-optiga-trust-charge/wpc/PRx\qi_auth_prx_crypt.c ****     mbedtls_mpi r;
 526:C:/Users/Yushev/git/wpcqi-optiga-trust-charge/wpc/PRx\qi_auth_prx_crypt.c ****     mbedtls_mpi s;
 527:C:/Users/Yushev/git/wpcqi-optiga-trust-charge/wpc/PRx\qi_auth_prx_crypt.c **** 
 528:C:/Users/Yushev/git/wpcqi-optiga-trust-charge/wpc/PRx\qi_auth_prx_crypt.c ****     mbedtls_ecp_point_init( &Q );
 1416              	 .loc 1 528 0
 1417 003c 07F13003 	 add r3,r7,#48
 1418 0040 1846     	 mov r0,r3
 1419 0042 FFF7FEFF 	 bl mbedtls_ecp_point_init
 529:C:/Users/Yushev/git/wpcqi-optiga-trust-charge/wpc/PRx\qi_auth_prx_crypt.c ****     mbedtls_mpi_init( &r );
 1420              	 .loc 1 529 0
 1421 0046 07F12403 	 add r3,r7,#36
 1422 004a 1846     	 mov r0,r3
 1423 004c FFF7FEFF 	 bl mbedtls_mpi_init
 530:C:/Users/Yushev/git/wpcqi-optiga-trust-charge/wpc/PRx\qi_auth_prx_crypt.c ****     mbedtls_mpi_init( &s );
 1424              	 .loc 1 530 0
 1425 0050 07F11803 	 add r3,r7,#24
 1426 0054 1846     	 mov r0,r3
 1427 0056 FFF7FEFF 	 bl mbedtls_mpi_init
 531:C:/Users/Yushev/git/wpcqi-optiga-trust-charge/wpc/PRx\qi_auth_prx_crypt.c ****     mbedtls_ecp_group_init( &grp );
 1428              	 .loc 1 531 0
 1429 005a 07F15403 	 add r3,r7,#84
 1430 005e 1846     	 mov r0,r3
 1431 0060 FFF7FEFF 	 bl mbedtls_ecp_group_init
 532:C:/Users/Yushev/git/wpcqi-optiga-trust-charge/wpc/PRx\qi_auth_prx_crypt.c **** 
 533:C:/Users/Yushev/git/wpcqi-optiga-trust-charge/wpc/PRx\qi_auth_prx_crypt.c ****     mbedtls_ecp_group_load(&grp, MBEDTLS_ECP_DP_SECP256R1);
 1432              	 .loc 1 533 0
 1433 0064 07F15403 	 add r3,r7,#84
 1434 0068 1846     	 mov r0,r3
 1435 006a 0321     	 movs r1,#3
 1436 006c FFF7FEFF 	 bl mbedtls_ecp_group_load
 1437              	.LBB3:
 534:C:/Users/Yushev/git/wpcqi-optiga-trust-charge/wpc/PRx\qi_auth_prx_crypt.c **** 
 535:C:/Users/Yushev/git/wpcqi-optiga-trust-charge/wpc/PRx\qi_auth_prx_crypt.c ****     do
 536:C:/Users/Yushev/git/wpcqi-optiga-trust-charge/wpc/PRx\qi_auth_prx_crypt.c ****     {
 537:C:/Users/Yushev/git/wpcqi-optiga-trust-charge/wpc/PRx\qi_auth_prx_crypt.c ****         if((NULL == p_pubkey)||(NULL == p_data)||(NULL == p_sign))
 1438              	 .loc 1 537 0
 1439 0070 07F10C03 	 add r3,r7,#12
 1440 0074 1B68     	 ldr r3,[r3]
 1441 0076 002B     	 cmp r3,#0
 1442 0078 00F0B980 	 beq .L56
 1443              	 .loc 1 537 0 is_stmt 0 discriminator 1
 1444 007c 3B1D     	 adds r3,r7,#4
 1445 007e 1B68     	 ldr r3,[r3]
 1446 0080 002B     	 cmp r3,#0
 1447 0082 00F0B480 	 beq .L56
 1448              	 .loc 1 537 0 discriminator 2
 1449 0086 D7F8A031 	 ldr r3,[r7,#416]
 1450 008a 002B     	 cmp r3,#0
 1451 008c 00F0AF80 	 beq .L56
 538:C:/Users/Yushev/git/wpcqi-optiga-trust-charge/wpc/PRx\qi_auth_prx_crypt.c ****         {
 539:C:/Users/Yushev/git/wpcqi-optiga-trust-charge/wpc/PRx\qi_auth_prx_crypt.c ****             break;
 540:C:/Users/Yushev/git/wpcqi-optiga-trust-charge/wpc/PRx\qi_auth_prx_crypt.c ****         }
 541:C:/Users/Yushev/git/wpcqi-optiga-trust-charge/wpc/PRx\qi_auth_prx_crypt.c **** 
 542:C:/Users/Yushev/git/wpcqi-optiga-trust-charge/wpc/PRx\qi_auth_prx_crypt.c ****         if (p_pubkey[0] != 0x04) {
 1452              	 .loc 1 542 0 is_stmt 1
 1453 0090 07F10C03 	 add r3,r7,#12
 1454 0094 1B68     	 ldr r3,[r3]
 1455 0096 1B78     	 ldrb r3,[r3]
 1456 0098 042B     	 cmp r3,#4
 1457 009a 3CD0     	 beq .L49
 543:C:/Users/Yushev/git/wpcqi-optiga-trust-charge/wpc/PRx\qi_auth_prx_crypt.c ****             mbedtls_ecp_decompress(&grp, p_pubkey, pubkey_size, decompr_pubkey + 3, &pubkey_len, 65
 1458              	 .loc 1 543 0
 1459 009c 07F10B03 	 add r3,r7,#11
 1460 00a0 1D78     	 ldrb r5,[r3]
 1461 00a2 07F15401 	 add r1,r7,#84
 1462 00a6 07F10C03 	 add r3,r7,#12
 1463 00aa 07F59072 	 add r2,r7,#288
 1464 00ae D41C     	 adds r4,r2,#3
 1465 00b0 07F1D002 	 add r2,r7,#208
 1466 00b4 0092     	 str r2,[sp]
 1467 00b6 4122     	 movs r2,#65
 1468 00b8 0192     	 str r2,[sp,#4]
 1469 00ba 0846     	 mov r0,r1
 1470 00bc 1968     	 ldr r1,[r3]
 1471 00be 2A46     	 mov r2,r5
 1472 00c0 2346     	 mov r3,r4
 1473 00c2 FFF7FEFF 	 bl mbedtls_ecp_decompress
 544:C:/Users/Yushev/git/wpcqi-optiga-trust-charge/wpc/PRx\qi_auth_prx_crypt.c ****             p_pk = decompr_pubkey;
 1474              	 .loc 1 544 0
 1475 00c6 07F59073 	 add r3,r7,#288
 1476 00ca C7F88831 	 str r3,[r7,#392]
 545:C:/Users/Yushev/git/wpcqi-optiga-trust-charge/wpc/PRx\qi_auth_prx_crypt.c ****             p_pk[0] = 0x03;
 1477              	 .loc 1 545 0
 1478 00ce D7F88831 	 ldr r3,[r7,#392]
 1479 00d2 0322     	 movs r2,#3
 1480 00d4 1A70     	 strb r2,[r3]
 546:C:/Users/Yushev/git/wpcqi-optiga-trust-charge/wpc/PRx\qi_auth_prx_crypt.c ****             p_pk[1] = 0x42;
 1481              	 .loc 1 546 0
 1482 00d6 D7F88831 	 ldr r3,[r7,#392]
 1483 00da 0133     	 adds r3,r3,#1
 1484 00dc 4222     	 movs r2,#66
 1485 00de 1A70     	 strb r2,[r3]
 547:C:/Users/Yushev/git/wpcqi-optiga-trust-charge/wpc/PRx\qi_auth_prx_crypt.c ****             p_pk[2] = 0x00;
 1486              	 .loc 1 547 0
 1487 00e0 D7F88831 	 ldr r3,[r7,#392]
 1488 00e4 0233     	 adds r3,r3,#2
 1489 00e6 0022     	 movs r2,#0
 1490 00e8 1A70     	 strb r2,[r3]
 548:C:/Users/Yushev/git/wpcqi-optiga-trust-charge/wpc/PRx\qi_auth_prx_crypt.c ****             pubkey_len += 3;
 1491              	 .loc 1 548 0
 1492 00ea D7F8D030 	 ldr r3,[r7,#208]
 1493 00ee 0333     	 adds r3,r3,#3
 1494 00f0 C7F8D030 	 str r3,[r7,#208]
 549:C:/Users/Yushev/git/wpcqi-optiga-trust-charge/wpc/PRx\qi_auth_prx_crypt.c ****         } else {
 550:C:/Users/Yushev/git/wpcqi-optiga-trust-charge/wpc/PRx\qi_auth_prx_crypt.c ****         	// WPC specifies so far only compressed public keys
 551:C:/Users/Yushev/git/wpcqi-optiga-trust-charge/wpc/PRx\qi_auth_prx_crypt.c ****         	break;
 552:C:/Users/Yushev/git/wpcqi-optiga-trust-charge/wpc/PRx\qi_auth_prx_crypt.c ****         }
 553:C:/Users/Yushev/git/wpcqi-optiga-trust-charge/wpc/PRx\qi_auth_prx_crypt.c **** 
 554:C:/Users/Yushev/git/wpcqi-optiga-trust-charge/wpc/PRx\qi_auth_prx_crypt.c ****         return_status = qi_auth_prx_crypt_generate_sha256(p_data, data_size, p_digest);
 1495              	 .loc 1 554 0
 1496 00f4 3B1D     	 adds r3,r7,#4
 1497 00f6 07F10802 	 add r2,r7,#8
 1498 00fa 1188     	 ldrh r1,[r2]
 1499 00fc 07F5B472 	 add r2,r7,#360
 1500 0100 1868     	 ldr r0,[r3]
 1501 0102 FFF7FEFF 	 bl qi_auth_prx_crypt_generate_sha256
 1502 0106 0346     	 mov r3,r0
 1503 0108 A7F88E31 	 strh r3,[r7,#398]
 555:C:/Users/Yushev/git/wpcqi-optiga-trust-charge/wpc/PRx\qi_auth_prx_crypt.c ****         if(CRYPT_LIB_OK != return_status)
 1504              	 .loc 1 555 0
 1505 010c B7F88E31 	 ldrh r3,[r7,#398]
 1506 0110 002B     	 cmp r3,#0
 1507 0112 02D0     	 beq .L51
 1508 0114 00E0     	 b .L58
 1509              	.L49:
 551:C:/Users/Yushev/git/wpcqi-optiga-trust-charge/wpc/PRx\qi_auth_prx_crypt.c ****         }
 1510              	 .loc 1 551 0
 1511 0116 6AE0     	 b .L56
 1512              	.L58:
 556:C:/Users/Yushev/git/wpcqi-optiga-trust-charge/wpc/PRx\qi_auth_prx_crypt.c ****         {
 557:C:/Users/Yushev/git/wpcqi-optiga-trust-charge/wpc/PRx\qi_auth_prx_crypt.c ****             break;
 1513              	 .loc 1 557 0 discriminator 2
 1514 0118 69E0     	 b .L56
 1515              	.L51:
 558:C:/Users/Yushev/git/wpcqi-optiga-trust-charge/wpc/PRx\qi_auth_prx_crypt.c ****         }
 559:C:/Users/Yushev/git/wpcqi-optiga-trust-charge/wpc/PRx\qi_auth_prx_crypt.c **** 
 560:C:/Users/Yushev/git/wpcqi-optiga-trust-charge/wpc/PRx\qi_auth_prx_crypt.c ****         ecdsa_rs_to_asn1_integers(p_sign, p_sign + 32, 32, asn1_signature, &asn1_signature_len);
 1516              	 .loc 1 560 0
 1517 011a D7F8A031 	 ldr r3,[r7,#416]
 1518 011e 03F12002 	 add r2,r3,#32
 1519 0122 07F1D804 	 add r4,r7,#216
 1520 0126 07F1D403 	 add r3,r7,#212
 1521 012a 0093     	 str r3,[sp]
 1522 012c D7F8A001 	 ldr r0,[r7,#416]
 1523 0130 1146     	 mov r1,r2
 1524 0132 2022     	 movs r2,#32
 1525 0134 2346     	 mov r3,r4
 1526 0136 FFF7FEFF 	 bl ecdsa_rs_to_asn1_integers
 561:C:/Users/Yushev/git/wpcqi-optiga-trust-charge/wpc/PRx\qi_auth_prx_crypt.c **** 
 562:C:/Users/Yushev/git/wpcqi-optiga-trust-charge/wpc/PRx\qi_auth_prx_crypt.c ****         public_key_from_host_t pkey_details = {
 1527              	 .loc 1 562 0
 1528 013a 07F11003 	 add r3,r7,#16
 1529 013e D7F88821 	 ldr r2,[r7,#392]
 1530 0142 1A60     	 str r2,[r3]
 1531 0144 D7F8D030 	 ldr r3,[r7,#208]
 1532 0148 9AB2     	 uxth r2,r3
 1533 014a 07F11003 	 add r3,r7,#16
 1534 014e 9A80     	 strh r2,[r3,#4]
 1535 0150 07F11003 	 add r3,r7,#16
 1536 0154 0322     	 movs r2,#3
 1537 0156 9A71     	 strb r2,[r3,#6]
 563:C:/Users/Yushev/git/wpcqi-optiga-trust-charge/wpc/PRx\qi_auth_prx_crypt.c ****         		                               p_pk,
 564:C:/Users/Yushev/git/wpcqi-optiga-trust-charge/wpc/PRx\qi_auth_prx_crypt.c ****                                                pubkey_len,
 565:C:/Users/Yushev/git/wpcqi-optiga-trust-charge/wpc/PRx\qi_auth_prx_crypt.c ****                                                (uint8_t)OPTIGA_ECC_CURVE_NIST_P_256
 566:C:/Users/Yushev/git/wpcqi-optiga-trust-charge/wpc/PRx\qi_auth_prx_crypt.c ****                                                };
 567:C:/Users/Yushev/git/wpcqi-optiga-trust-charge/wpc/PRx\qi_auth_prx_crypt.c ****         CHECK_RESULT(optiga_crypt_ecdsa_verify (p_crypt,
 1538              	 .loc 1 567 0
 1539 0158 4FF40043 	 mov r3,#32768
 1540 015c A7F88E31 	 strh r3,[r7,#398]
 1541 0160 264B     	 ldr r3,.L60
 1542 0162 0122     	 movs r2,#1
 1543 0164 1A80     	 strh r2,[r3]
 1544 0166 264B     	 ldr r3,.L60+4
 1545 0168 1968     	 ldr r1,[r3]
 1546 016a D7F8D430 	 ldr r3,[r7,#212]
 1547 016e 9BB2     	 uxth r3,r3
 1548 0170 07F5B472 	 add r2,r7,#360
 1549 0174 07F1D804 	 add r4,r7,#216
 1550 0178 0093     	 str r3,[sp]
 1551 017a 0123     	 movs r3,#1
 1552 017c 0193     	 str r3,[sp,#4]
 1553 017e 07F11003 	 add r3,r7,#16
 1554 0182 0293     	 str r3,[sp,#8]
 1555 0184 0846     	 mov r0,r1
 1556 0186 1146     	 mov r1,r2
 1557 0188 2022     	 movs r2,#32
 1558 018a 2346     	 mov r3,r4
 1559 018c FFF7FEFF 	 bl optiga_crypt_ecdsa_verify
 1560 0190 0346     	 mov r3,r0
 1561 0192 A7F88E31 	 strh r3,[r7,#398]
 1562 0196 B7F88E31 	 ldrh r3,[r7,#398]
 1563 019a 002B     	 cmp r3,#0
 1564 019c 00D0     	 beq .L52
 1565              	 .loc 1 567 0 is_stmt 0 discriminator 3
 1566 019e 25E0     	 b .L59
 1567              	.L52:
 1568              	 .loc 1 567 0
 1569 01a0 02E0     	 b .L53
 1570              	.L54:
 1571              	 .loc 1 567 0 discriminator 2
 1572 01a2 0120     	 movs r0,#1
 1573 01a4 FFF7FEFF 	 bl pal_os_timer_delay_in_milliseconds
 1574              	.L53:
 1575              	 .loc 1 567 0 discriminator 1
 1576 01a8 144B     	 ldr r3,.L60
 1577 01aa 1B88     	 ldrh r3,[r3]
 1578 01ac 9BB2     	 uxth r3,r3
 1579 01ae 012B     	 cmp r3,#1
 1580 01b0 F7D0     	 beq .L54
 1581              	 .loc 1 567 0 discriminator 3
 1582 01b2 124B     	 ldr r3,.L60
 1583 01b4 1B88     	 ldrh r3,[r3]
 1584 01b6 9BB2     	 uxth r3,r3
 1585 01b8 002B     	 cmp r3,#0
 1586 01ba 18D0     	 beq .L56
 1587              	 .loc 1 567 0 discriminator 4
 1588 01bc 0F4B     	 ldr r3,.L60
 1589 01be 1B88     	 ldrh r3,[r3]
 1590 01c0 A7F88E31 	 strh r3,[r7,#398]
 1591 01c4 0D4B     	 ldr r3,.L60
 1592 01c6 1B88     	 ldrh r3,[r3]
 1593 01c8 9BB2     	 uxth r3,r3
 1594 01ca 0E48     	 ldr r0,.L60+8
 1595 01cc 1946     	 mov r1,r3
 1596 01ce FFF7FEFF 	 bl printf
 1597 01d2 0D4B     	 ldr r3,.L60+12
 1598 01d4 1B68     	 ldr r3,[r3]
 1599 01d6 1846     	 mov r0,r3
 1600 01d8 FFF7FEFF 	 bl optiga_util_destroy
 1601 01dc 084B     	 ldr r3,.L60+4
 1602 01de 1B68     	 ldr r3,[r3]
 1603 01e0 1846     	 mov r0,r3
 1604 01e2 FFF7FEFF 	 bl optiga_crypt_destroy
 1605 01e6 0020     	 movs r0,#0
 1606 01e8 FFF7FEFF 	 bl pal_os_event_destroy
 1607              	.L59:
 1608              	 .loc 1 567 0
 1609 01ec 00BF     	 nop
 1610              	.L56:
 1611              	.LBE3:
 568:C:/Users/Yushev/git/wpcqi-optiga-trust-charge/wpc/PRx\qi_auth_prx_crypt.c ****         										p_digest,
 569:C:/Users/Yushev/git/wpcqi-optiga-trust-charge/wpc/PRx\qi_auth_prx_crypt.c **** 												32,
 570:C:/Users/Yushev/git/wpcqi-optiga-trust-charge/wpc/PRx\qi_auth_prx_crypt.c **** 												asn1_signature,
 571:C:/Users/Yushev/git/wpcqi-optiga-trust-charge/wpc/PRx\qi_auth_prx_crypt.c **** 												asn1_signature_len,
 572:C:/Users/Yushev/git/wpcqi-optiga-trust-charge/wpc/PRx\qi_auth_prx_crypt.c **** 												OPTIGA_CRYPT_HOST_DATA,
 573:C:/Users/Yushev/git/wpcqi-optiga-trust-charge/wpc/PRx\qi_auth_prx_crypt.c **** 												&pkey_details))
 574:C:/Users/Yushev/git/wpcqi-optiga-trust-charge/wpc/PRx\qi_auth_prx_crypt.c ****     }while(FALSE);
 575:C:/Users/Yushev/git/wpcqi-optiga-trust-charge/wpc/PRx\qi_auth_prx_crypt.c **** 
 576:C:/Users/Yushev/git/wpcqi-optiga-trust-charge/wpc/PRx\qi_auth_prx_crypt.c ****     return return_status;
 1612              	 .loc 1 576 0 is_stmt 1
 1613 01ee B7F88E31 	 ldrh r3,[r7,#398]
 577:C:/Users/Yushev/git/wpcqi-optiga-trust-charge/wpc/PRx\qi_auth_prx_crypt.c **** }
 1614              	 .loc 1 577 0
 1615 01f2 1846     	 mov r0,r3
 1616 01f4 07F5C877 	 add r7,r7,#400
 1617              	.LCFI24:
 1618              	 .cfi_def_cfa_offset 16
 1619 01f8 BD46     	 mov sp,r7
 1620              	.LCFI25:
 1621              	 .cfi_def_cfa_register 13
 1622              	 
 1623 01fa B0BD     	 pop {r4,r5,r7,pc}
 1624              	.L61:
 1625              	 .align 2
 1626              	.L60:
 1627 01fc 00000000 	 .word optiga_lib_status
 1628 0200 00000000 	 .word p_crypt
 1629 0204 00000000 	 .word .LC2
 1630 0208 00000000 	 .word p_util
 1631              	 .cfi_endproc
 1632              	.LFE4:
 1634              	 .section .rodata
 1635 0011 000000   	 .align 2
 1636              	.LC3:
 1637 0014 57504300 	 .ascii "WPC\000\000"
 1637      00
 1638 0019 000000   	 .align 2
 1639              	.LC0:
 1640 001c FF       	 .byte -1
 1641 001d FF       	 .byte -1
 1642              	 .section .text._validate_qi_auth_certificate,"ax",%progbits
 1643              	 .align 2
 1644              	 .thumb
 1645              	 .thumb_func
 1647              	_validate_qi_auth_certificate:
 1648              	.LFB5:
 578:C:/Users/Yushev/git/wpcqi-optiga-trust-charge/wpc/PRx\qi_auth_prx_crypt.c **** 
 579:C:/Users/Yushev/git/wpcqi-optiga-trust-charge/wpc/PRx\qi_auth_prx_crypt.c **** /**
 580:C:/Users/Yushev/git/wpcqi-optiga-trust-charge/wpc/PRx\qi_auth_prx_crypt.c **** *
 581:C:/Users/Yushev/git/wpcqi-optiga-trust-charge/wpc/PRx\qi_auth_prx_crypt.c **** * Verifies and validates the given To Be Verified (tbv) certificate<br>
 582:C:/Users/Yushev/git/wpcqi-optiga-trust-charge/wpc/PRx\qi_auth_prx_crypt.c **** *
 583:C:/Users/Yushev/git/wpcqi-optiga-trust-charge/wpc/PRx\qi_auth_prx_crypt.c **** * \param[in]  PpsCaCert              pointer to CA Certificate
 584:C:/Users/Yushev/git/wpcqi-optiga-trust-charge/wpc/PRx\qi_auth_prx_crypt.c **** * \param[in]  PpsOPTIGACert          pointer to Security Chip Certificate
 585:C:/Users/Yushev/git/wpcqi-optiga-trust-charge/wpc/PRx\qi_auth_prx_crypt.c **** *
 586:C:/Users/Yushev/git/wpcqi-optiga-trust-charge/wpc/PRx\qi_auth_prx_crypt.c **** * \retval    #INT_LIB_OK
 587:C:/Users/Yushev/git/wpcqi-optiga-trust-charge/wpc/PRx\qi_auth_prx_crypt.c **** * \retval    #INT_LIB_ERROR
 588:C:/Users/Yushev/git/wpcqi-optiga-trust-charge/wpc/PRx\qi_auth_prx_crypt.c **** * \retval    #INT_LIB_NULL_PARAM
 589:C:/Users/Yushev/git/wpcqi-optiga-trust-charge/wpc/PRx\qi_auth_prx_crypt.c **** *
 590:C:/Users/Yushev/git/wpcqi-optiga-trust-charge/wpc/PRx\qi_auth_prx_crypt.c **** */
 591:C:/Users/Yushev/git/wpcqi-optiga-trust-charge/wpc/PRx\qi_auth_prx_crypt.c **** static uint16_t _validate_qi_auth_certificate(certificate_container_t *p_cert, certificate_containe
 592:C:/Users/Yushev/git/wpcqi-optiga-trust-charge/wpc/PRx\qi_auth_prx_crypt.c **** {
 1649              	 .loc 1 592 0
 1650              	 .cfi_startproc
 1651              	 
 1652              	 
 1653 0000 90B5     	 push {r4,r7,lr}
 1654              	.LCFI26:
 1655              	 .cfi_def_cfa_offset 12
 1656              	 .cfi_offset 4,-12
 1657              	 .cfi_offset 7,-8
 1658              	 .cfi_offset 14,-4
 1659 0002 9DB0     	 sub sp,sp,#116
 1660              	.LCFI27:
 1661              	 .cfi_def_cfa_offset 128
 1662 0004 00AF     	 add r7,sp,#0
 1663              	.LCFI28:
 1664              	 .cfi_def_cfa_register 7
 1665 0006 7860     	 str r0,[r7,#4]
 1666 0008 3960     	 str r1,[r7]
 593:C:/Users/Yushev/git/wpcqi-optiga-trust-charge/wpc/PRx\qi_auth_prx_crypt.c **** 	uint16_t return_status = CRYPT_LIB_ERROR;
 1667              	 .loc 1 593 0
 1668 000a 0123     	 movs r3,#1
 1669 000c A7F86E30 	 strh r3,[r7,#110]
 594:C:/Users/Yushev/git/wpcqi-optiga-trust-charge/wpc/PRx\qi_auth_prx_crypt.c ****     signature_container_t sign_vector ;
 595:C:/Users/Yushev/git/wpcqi-optiga-trust-charge/wpc/PRx\qi_auth_prx_crypt.c ****     uint8_t prefix[] = {0x43};
 1670              	 .loc 1 595 0
 1671 0010 4323     	 movs r3,#67
 1672 0012 87F85030 	 strb r3,[r7,#80]
 596:C:/Users/Yushev/git/wpcqi-optiga-trust-charge/wpc/PRx\qi_auth_prx_crypt.c ****     uint8_t manuf_code_bin[2] = {0x00, 0x00};
 1673              	 .loc 1 596 0
 1674 0016 0023     	 movs r3,#0
 1675 0018 87F84C30 	 strb r3,[r7,#76]
 1676 001c 0023     	 movs r3,#0
 1677 001e 87F84D30 	 strb r3,[r7,#77]
 597:C:/Users/Yushev/git/wpcqi-optiga-trust-charge/wpc/PRx\qi_auth_prx_crypt.c ****     uint8_t root_manuf_code_bin[2] = {0xff, 0xff};
 1678              	 .loc 1 597 0
 1679 0022 5B4A     	 ldr r2,.L68
 1680 0024 07F14803 	 add r3,r7,#72
 1681 0028 1288     	 ldrh r2,[r2]
 1682 002a 1A80     	 strh r2,[r3]
 598:C:/Users/Yushev/git/wpcqi-optiga-trust-charge/wpc/PRx\qi_auth_prx_crypt.c ****     uint16_t parsed_manuf_code = 0;
 1683              	 .loc 1 598 0
 1684 002c 0023     	 movs r3,#0
 1685 002e A7F86C30 	 strh r3,[r7,#108]
 599:C:/Users/Yushev/git/wpcqi-optiga-trust-charge/wpc/PRx\qi_auth_prx_crypt.c ****     uint8_t data_to_sign[60];
 600:C:/Users/Yushev/git/wpcqi-optiga-trust-charge/wpc/PRx\qi_auth_prx_crypt.c ****     do
 601:C:/Users/Yushev/git/wpcqi-optiga-trust-charge/wpc/PRx\qi_auth_prx_crypt.c ****     {
 602:C:/Users/Yushev/git/wpcqi-optiga-trust-charge/wpc/PRx\qi_auth_prx_crypt.c ****         if((NULL == p_cert)||(NULL == p_cert->p_cert_data)||
 1686              	 .loc 1 602 0
 1687 0032 7B68     	 ldr r3,[r7,#4]
 1688 0034 002B     	 cmp r3,#0
 1689 0036 00F0A580 	 beq .L63
 1690              	 .loc 1 602 0 is_stmt 0 discriminator 1
 1691 003a 7B68     	 ldr r3,[r7,#4]
 1692 003c 1B69     	 ldr r3,[r3,#16]
 1693 003e 002B     	 cmp r3,#0
 1694 0040 00F0A080 	 beq .L63
 603:C:/Users/Yushev/git/wpcqi-optiga-trust-charge/wpc/PRx\qi_auth_prx_crypt.c ****             (NULL == p_cert->p_cert_sign)||
 1695              	 .loc 1 603 0 is_stmt 1 discriminator 2
 1696 0044 7B68     	 ldr r3,[r7,#4]
 1697 0046 9B68     	 ldr r3,[r3,#8]
 602:C:/Users/Yushev/git/wpcqi-optiga-trust-charge/wpc/PRx\qi_auth_prx_crypt.c ****             (NULL == p_cert->p_cert_sign)||
 1698              	 .loc 1 602 0 discriminator 2
 1699 0048 002B     	 cmp r3,#0
 1700 004a 00F09B80 	 beq .L63
 604:C:/Users/Yushev/git/wpcqi-optiga-trust-charge/wpc/PRx\qi_auth_prx_crypt.c ****             (NULL == p_cert->p_pub_key)||
 1701              	 .loc 1 604 0
 1702 004e 7B68     	 ldr r3,[r7,#4]
 1703 0050 1B68     	 ldr r3,[r3]
 603:C:/Users/Yushev/git/wpcqi-optiga-trust-charge/wpc/PRx\qi_auth_prx_crypt.c ****             (NULL == p_cert->p_cert_sign)||
 1704              	 .loc 1 603 0
 1705 0052 002B     	 cmp r3,#0
 1706 0054 00F09680 	 beq .L63
 1707              	 .loc 1 604 0
 1708 0058 3B68     	 ldr r3,[r7]
 1709 005a 002B     	 cmp r3,#0
 1710 005c 00F09280 	 beq .L63
 605:C:/Users/Yushev/git/wpcqi-optiga-trust-charge/wpc/PRx\qi_auth_prx_crypt.c ****             (NULL == p_tbv_cert)||(NULL == p_tbv_cert->p_cert_data)||
 1711              	 .loc 1 605 0
 1712 0060 3B68     	 ldr r3,[r7]
 1713 0062 1B69     	 ldr r3,[r3,#16]
 1714 0064 002B     	 cmp r3,#0
 1715 0066 00F08D80 	 beq .L63
 606:C:/Users/Yushev/git/wpcqi-optiga-trust-charge/wpc/PRx\qi_auth_prx_crypt.c ****             (NULL == p_tbv_cert->p_cert_sign)||
 1716              	 .loc 1 606 0 discriminator 1
 1717 006a 3B68     	 ldr r3,[r7]
 1718 006c 9B68     	 ldr r3,[r3,#8]
 605:C:/Users/Yushev/git/wpcqi-optiga-trust-charge/wpc/PRx\qi_auth_prx_crypt.c ****             (NULL == p_tbv_cert)||(NULL == p_tbv_cert->p_cert_data)||
 1719              	 .loc 1 605 0 discriminator 1
 1720 006e 002B     	 cmp r3,#0
 1721 0070 00F08880 	 beq .L63
 607:C:/Users/Yushev/git/wpcqi-optiga-trust-charge/wpc/PRx\qi_auth_prx_crypt.c ****             (NULL == p_tbv_cert->p_pub_key))
 1722              	 .loc 1 607 0
 1723 0074 3B68     	 ldr r3,[r7]
 1724 0076 1B68     	 ldr r3,[r3]
 606:C:/Users/Yushev/git/wpcqi-optiga-trust-charge/wpc/PRx\qi_auth_prx_crypt.c ****             (NULL == p_tbv_cert->p_cert_sign)||
 1725              	 .loc 1 606 0
 1726 0078 002B     	 cmp r3,#0
 1727 007a 00F08380 	 beq .L63
 608:C:/Users/Yushev/git/wpcqi-optiga-trust-charge/wpc/PRx\qi_auth_prx_crypt.c ****         {
 609:C:/Users/Yushev/git/wpcqi-optiga-trust-charge/wpc/PRx\qi_auth_prx_crypt.c ****             break;
 610:C:/Users/Yushev/git/wpcqi-optiga-trust-charge/wpc/PRx\qi_auth_prx_crypt.c ****         }
 611:C:/Users/Yushev/git/wpcqi-optiga-trust-charge/wpc/PRx\qi_auth_prx_crypt.c **** 
 612:C:/Users/Yushev/git/wpcqi-optiga-trust-charge/wpc/PRx\qi_auth_prx_crypt.c ****         memcpy(data_to_sign, prefix, sizeof(prefix));
 1728              	 .loc 1 612 0
 1729 007e 97F85030 	 ldrb r3,[r7,#80]
 1730 0082 3B73     	 strb r3,[r7,#12]
 613:C:/Users/Yushev/git/wpcqi-optiga-trust-charge/wpc/PRx\qi_auth_prx_crypt.c ****         if ((p_tbv_cert->subj_id[0] == 0x4d) && (p_tbv_cert->subj_id[1] == 0x3a))
 1731              	 .loc 1 613 0
 1732 0084 3B68     	 ldr r3,[r7]
 1733 0086 1B7F     	 ldrb r3,[r3,#28]
 1734 0088 4D2B     	 cmp r3,#77
 1735 008a 1AD1     	 bne .L64
 1736              	 .loc 1 613 0 is_stmt 0 discriminator 1
 1737 008c 3B68     	 ldr r3,[r7]
 1738 008e 5B7F     	 ldrb r3,[r3,#29]
 1739 0090 3A2B     	 cmp r3,#58
 1740 0092 16D1     	 bne .L64
 614:C:/Users/Yushev/git/wpcqi-optiga-trust-charge/wpc/PRx\qi_auth_prx_crypt.c ****         {
 615:C:/Users/Yushev/git/wpcqi-optiga-trust-charge/wpc/PRx\qi_auth_prx_crypt.c ****         	parsed_manuf_code = strtol((char *)&p_tbv_cert->subj_id[2], NULL, 16);
 1741              	 .loc 1 615 0 is_stmt 1
 1742 0094 3B68     	 ldr r3,[r7]
 1743 0096 1E33     	 adds r3,r3,#30
 1744 0098 1846     	 mov r0,r3
 1745 009a 0021     	 movs r1,#0
 1746 009c 1022     	 movs r2,#16
 1747 009e FFF7FEFF 	 bl strtol
 1748 00a2 0346     	 mov r3,r0
 1749 00a4 A7F86C30 	 strh r3,[r7,#108]
 616:C:/Users/Yushev/git/wpcqi-optiga-trust-charge/wpc/PRx\qi_auth_prx_crypt.c ****         	manuf_code_bin[0] = (uint8_t)(parsed_manuf_code >> 8);
 1750              	 .loc 1 616 0
 1751 00a8 B7F86C30 	 ldrh r3,[r7,#108]
 1752 00ac 1B0A     	 lsrs r3,r3,#8
 1753 00ae 9BB2     	 uxth r3,r3
 1754 00b0 DBB2     	 uxtb r3,r3
 1755 00b2 87F84C30 	 strb r3,[r7,#76]
 617:C:/Users/Yushev/git/wpcqi-optiga-trust-charge/wpc/PRx\qi_auth_prx_crypt.c ****         	manuf_code_bin[1] = (uint8_t)(parsed_manuf_code & 0x00ff);
 1756              	 .loc 1 617 0
 1757 00b6 B7F86C30 	 ldrh r3,[r7,#108]
 1758 00ba DBB2     	 uxtb r3,r3
 1759 00bc 87F84D30 	 strb r3,[r7,#77]
 1760 00c0 2CE0     	 b .L65
 1761              	.L64:
 618:C:/Users/Yushev/git/wpcqi-optiga-trust-charge/wpc/PRx\qi_auth_prx_crypt.c **** 
 619:C:/Users/Yushev/git/wpcqi-optiga-trust-charge/wpc/PRx\qi_auth_prx_crypt.c ****         }else if (memcmp(p_tbv_cert->subj_id,"WPC\0", 4) == 0)
 1762              	 .loc 1 619 0
 1763 00c2 3B68     	 ldr r3,[r7]
 1764 00c4 1C33     	 adds r3,r3,#28
 1765 00c6 1846     	 mov r0,r3
 1766 00c8 3249     	 ldr r1,.L68+4
 1767 00ca 0422     	 movs r2,#4
 1768 00cc FFF7FEFF 	 bl memcmp
 1769 00d0 0346     	 mov r3,r0
 1770 00d2 002B     	 cmp r3,#0
 1771 00d4 04D1     	 bne .L66
 620:C:/Users/Yushev/git/wpcqi-optiga-trust-charge/wpc/PRx\qi_auth_prx_crypt.c ****         {
 621:C:/Users/Yushev/git/wpcqi-optiga-trust-charge/wpc/PRx\qi_auth_prx_crypt.c ****         	memcpy(manuf_code_bin, root_manuf_code_bin , sizeof(root_manuf_code_bin));
 1772              	 .loc 1 621 0
 1773 00d6 B7F84830 	 ldrh r3,[r7,#72]
 1774 00da A7F84C30 	 strh r3,[r7,#76]
 1775 00de 1DE0     	 b .L65
 1776              	.L66:
 622:C:/Users/Yushev/git/wpcqi-optiga-trust-charge/wpc/PRx\qi_auth_prx_crypt.c ****         } else if ((p_tbv_cert->issuer_id[0] == 0x4d) && (p_tbv_cert->issuer_id[1] == 0x3a))
 1777              	 .loc 1 622 0
 1778 00e0 3B68     	 ldr r3,[r7]
 1779 00e2 9B7D     	 ldrb r3,[r3,#22]
 1780 00e4 4D2B     	 cmp r3,#77
 1781 00e6 19D1     	 bne .L65
 1782              	 .loc 1 622 0 is_stmt 0 discriminator 1
 1783 00e8 3B68     	 ldr r3,[r7]
 1784 00ea DB7D     	 ldrb r3,[r3,#23]
 1785 00ec 3A2B     	 cmp r3,#58
 1786 00ee 15D1     	 bne .L65
 623:C:/Users/Yushev/git/wpcqi-optiga-trust-charge/wpc/PRx\qi_auth_prx_crypt.c ****         {
 624:C:/Users/Yushev/git/wpcqi-optiga-trust-charge/wpc/PRx\qi_auth_prx_crypt.c ****         	parsed_manuf_code = strtol((char *)&p_tbv_cert->issuer_id[2], NULL, 16);
 1787              	 .loc 1 624 0 is_stmt 1
 1788 00f0 3B68     	 ldr r3,[r7]
 1789 00f2 1833     	 adds r3,r3,#24
 1790 00f4 1846     	 mov r0,r3
 1791 00f6 0021     	 movs r1,#0
 1792 00f8 1022     	 movs r2,#16
 1793 00fa FFF7FEFF 	 bl strtol
 1794 00fe 0346     	 mov r3,r0
 1795 0100 A7F86C30 	 strh r3,[r7,#108]
 625:C:/Users/Yushev/git/wpcqi-optiga-trust-charge/wpc/PRx\qi_auth_prx_crypt.c ****         	manuf_code_bin[0] = (uint8_t)(parsed_manuf_code >> 8);
 1796              	 .loc 1 625 0
 1797 0104 B7F86C30 	 ldrh r3,[r7,#108]
 1798 0108 1B0A     	 lsrs r3,r3,#8
 1799 010a 9BB2     	 uxth r3,r3
 1800 010c DBB2     	 uxtb r3,r3
 1801 010e 87F84C30 	 strb r3,[r7,#76]
 626:C:/Users/Yushev/git/wpcqi-optiga-trust-charge/wpc/PRx\qi_auth_prx_crypt.c ****         	manuf_code_bin[1] = (uint8_t)(parsed_manuf_code & 0x00ff);
 1802              	 .loc 1 626 0
 1803 0112 B7F86C30 	 ldrh r3,[r7,#108]
 1804 0116 DBB2     	 uxtb r3,r3
 1805 0118 87F84D30 	 strb r3,[r7,#77]
 1806              	.L65:
 627:C:/Users/Yushev/git/wpcqi-optiga-trust-charge/wpc/PRx\qi_auth_prx_crypt.c ****         }
 628:C:/Users/Yushev/git/wpcqi-optiga-trust-charge/wpc/PRx\qi_auth_prx_crypt.c **** 
 629:C:/Users/Yushev/git/wpcqi-optiga-trust-charge/wpc/PRx\qi_auth_prx_crypt.c ****         memcpy(data_to_sign + sizeof(prefix), manuf_code_bin, sizeof(manuf_code_bin));
 1807              	 .loc 1 629 0
 1808 011c 07F10C03 	 add r3,r7,#12
 1809 0120 0133     	 adds r3,r3,#1
 1810 0122 1A46     	 mov r2,r3
 1811 0124 07F14C03 	 add r3,r7,#76
 1812 0128 1B88     	 ldrh r3,[r3]
 1813 012a 1380     	 strh r3,[r2]
 630:C:/Users/Yushev/git/wpcqi-optiga-trust-charge/wpc/PRx\qi_auth_prx_crypt.c ****         memcpy(data_to_sign + sizeof(prefix) + sizeof(manuf_code_bin), p_tbv_cert->p_cert_data, p_t
 1814              	 .loc 1 630 0
 1815 012c 3B68     	 ldr r3,[r7]
 1816 012e 1A69     	 ldr r2,[r3,#16]
 1817 0130 3B68     	 ldr r3,[r7]
 1818 0132 9B8A     	 ldrh r3,[r3,#20]
 1819 0134 1C46     	 mov r4,r3
 1820 0136 07F10C03 	 add r3,r7,#12
 1821 013a 0333     	 adds r3,r3,#3
 1822 013c 1846     	 mov r0,r3
 1823 013e 1146     	 mov r1,r2
 1824 0140 2246     	 mov r2,r4
 1825 0142 FFF7FEFF 	 bl memcpy
 631:C:/Users/Yushev/git/wpcqi-optiga-trust-charge/wpc/PRx\qi_auth_prx_crypt.c **** 
 632:C:/Users/Yushev/git/wpcqi-optiga-trust-charge/wpc/PRx\qi_auth_prx_crypt.c ****         //verify signature of the Security Chip certificate
 633:C:/Users/Yushev/git/wpcqi-optiga-trust-charge/wpc/PRx\qi_auth_prx_crypt.c ****         sign_vector.p_message = data_to_sign;
 1826              	 .loc 1 633 0
 1827 0146 07F10C03 	 add r3,r7,#12
 1828 014a 7B66     	 str r3,[r7,#100]
 634:C:/Users/Yushev/git/wpcqi-optiga-trust-charge/wpc/PRx\qi_auth_prx_crypt.c ****         sign_vector.message_size = p_tbv_cert->cert_data_size + sizeof(manuf_code_bin) + sizeof(pre
 1829              	 .loc 1 634 0
 1830 014c 3B68     	 ldr r3,[r7]
 1831 014e 9B8A     	 ldrh r3,[r3,#20]
 1832 0150 0333     	 adds r3,r3,#3
 1833 0152 9BB2     	 uxth r3,r3
 1834 0154 A7F86830 	 strh r3,[r7,#104]
 635:C:/Users/Yushev/git/wpcqi-optiga-trust-charge/wpc/PRx\qi_auth_prx_crypt.c ****         sign_vector.p_signature = p_tbv_cert->p_cert_sign;
 1835              	 .loc 1 635 0
 1836 0158 3B68     	 ldr r3,[r7]
 1837 015a 9B68     	 ldr r3,[r3,#8]
 1838 015c FB65     	 str r3,[r7,#92]
 636:C:/Users/Yushev/git/wpcqi-optiga-trust-charge/wpc/PRx\qi_auth_prx_crypt.c ****         sign_vector.signature_size = p_tbv_cert->cert_sign_size;
 1839              	 .loc 1 636 0
 1840 015e 3B68     	 ldr r3,[r7]
 1841 0160 1B7B     	 ldrb r3,[r3,#12]
 1842 0162 87F86030 	 strb r3,[r7,#96]
 637:C:/Users/Yushev/git/wpcqi-optiga-trust-charge/wpc/PRx\qi_auth_prx_crypt.c ****         sign_vector.p_public_key = p_cert->p_pub_key;
 1843              	 .loc 1 637 0
 1844 0166 7B68     	 ldr r3,[r7,#4]
 1845 0168 1B68     	 ldr r3,[r3]
 1846 016a 7B65     	 str r3,[r7,#84]
 638:C:/Users/Yushev/git/wpcqi-optiga-trust-charge/wpc/PRx\qi_auth_prx_crypt.c ****         sign_vector.public_key_size = p_cert->pub_key_size;
 1847              	 .loc 1 638 0
 1848 016c 7B68     	 ldr r3,[r7,#4]
 1849 016e 1B79     	 ldrb r3,[r3,#4]
 1850 0170 87F85830 	 strb r3,[r7,#88]
 639:C:/Users/Yushev/git/wpcqi-optiga-trust-charge/wpc/PRx\qi_auth_prx_crypt.c ****         return_status = qi_auth_prx_crypt_verify_signature(&sign_vector);
 1851              	 .loc 1 639 0
 1852 0174 07F15403 	 add r3,r7,#84
 1853 0178 1846     	 mov r0,r3
 1854 017a FFF7FEFF 	 bl qi_auth_prx_crypt_verify_signature
 1855 017e 0346     	 mov r3,r0
 1856 0180 A7F86E30 	 strh r3,[r7,#110]
 1857              	.L63:
 640:C:/Users/Yushev/git/wpcqi-optiga-trust-charge/wpc/PRx\qi_auth_prx_crypt.c ****     }while(FALSE);
 641:C:/Users/Yushev/git/wpcqi-optiga-trust-charge/wpc/PRx\qi_auth_prx_crypt.c **** 
 642:C:/Users/Yushev/git/wpcqi-optiga-trust-charge/wpc/PRx\qi_auth_prx_crypt.c ****     return return_status;
 1858              	 .loc 1 642 0
 1859 0184 B7F86E30 	 ldrh r3,[r7,#110]
 643:C:/Users/Yushev/git/wpcqi-optiga-trust-charge/wpc/PRx\qi_auth_prx_crypt.c **** }
 1860              	 .loc 1 643 0
 1861 0188 1846     	 mov r0,r3
 1862 018a 7437     	 adds r7,r7,#116
 1863              	.LCFI29:
 1864              	 .cfi_def_cfa_offset 12
 1865 018c BD46     	 mov sp,r7
 1866              	.LCFI30:
 1867              	 .cfi_def_cfa_register 13
 1868              	 
 1869 018e 90BD     	 pop {r4,r7,pc}
 1870              	.L69:
 1871              	 .align 2
 1872              	.L68:
 1873 0190 1C000000 	 .word .LC0
 1874 0194 14000000 	 .word .LC3
 1875              	 .cfi_endproc
 1876              	.LFE5:
 1878              	 .section .text.qi_auth_prx_crypt_generate_sha256,"ax",%progbits
 1879              	 .align 2
 1880              	 .global qi_auth_prx_crypt_generate_sha256
 1881              	 .thumb
 1882              	 .thumb_func
 1884              	qi_auth_prx_crypt_generate_sha256:
 1885              	.LFB6:
 644:C:/Users/Yushev/git/wpcqi-optiga-trust-charge/wpc/PRx\qi_auth_prx_crypt.c **** 
 645:C:/Users/Yushev/git/wpcqi-optiga-trust-charge/wpc/PRx\qi_auth_prx_crypt.c **** /**
 646:C:/Users/Yushev/git/wpcqi-optiga-trust-charge/wpc/PRx\qi_auth_prx_crypt.c ****  * \brief Generate a SHA256 hash on the message.
 647:C:/Users/Yushev/git/wpcqi-optiga-trust-charge/wpc/PRx\qi_auth_prx_crypt.c ****  */
 648:C:/Users/Yushev/git/wpcqi-optiga-trust-charge/wpc/PRx\qi_auth_prx_crypt.c **** uint16_t qi_auth_prx_crypt_generate_sha256(const uint8_t* p_input, uint16_t inlen, uint8_t* p_diges
 649:C:/Users/Yushev/git/wpcqi-optiga-trust-charge/wpc/PRx\qi_auth_prx_crypt.c **** {
 1886              	 .loc 1 649 0
 1887              	 .cfi_startproc
 1888              	 
 1889              	 
 1890 0000 80B5     	 push {r7,lr}
 1891              	.LCFI31:
 1892              	 .cfi_def_cfa_offset 8
 1893              	 .cfi_offset 7,-8
 1894              	 .cfi_offset 14,-4
 1895 0002 ACB0     	 sub sp,sp,#176
 1896              	.LCFI32:
 1897              	 .cfi_def_cfa_offset 184
 1898 0004 00AF     	 add r7,sp,#0
 1899              	.LCFI33:
 1900              	 .cfi_def_cfa_register 7
 1901 0006 F860     	 str r0,[r7,#12]
 1902 0008 0B46     	 mov r3,r1
 1903 000a 7A60     	 str r2,[r7,#4]
 1904 000c 7B81     	 strh r3,[r7,#10]
 650:C:/Users/Yushev/git/wpcqi-optiga-trust-charge/wpc/PRx\qi_auth_prx_crypt.c **** 	uint16_t  return_status = CRYPT_LIB_ERROR;
 1905              	 .loc 1 650 0
 1906 000e 0123     	 movs r3,#1
 1907 0010 A7F8AE30 	 strh r3,[r7,#174]
 651:C:/Users/Yushev/git/wpcqi-optiga-trust-charge/wpc/PRx\qi_auth_prx_crypt.c **** 	hash_data_from_host_t hash_data_host;
 652:C:/Users/Yushev/git/wpcqi-optiga-trust-charge/wpc/PRx\qi_auth_prx_crypt.c **** 	optiga_hash_context_t hash_ctx;
 653:C:/Users/Yushev/git/wpcqi-optiga-trust-charge/wpc/PRx\qi_auth_prx_crypt.c **** 	uint8_t hash_context_buffer [130];
 654:C:/Users/Yushev/git/wpcqi-optiga-trust-charge/wpc/PRx\qi_auth_prx_crypt.c **** 
 655:C:/Users/Yushev/git/wpcqi-optiga-trust-charge/wpc/PRx\qi_auth_prx_crypt.c ****     do
 656:C:/Users/Yushev/git/wpcqi-optiga-trust-charge/wpc/PRx\qi_auth_prx_crypt.c ****     {
 657:C:/Users/Yushev/git/wpcqi-optiga-trust-charge/wpc/PRx\qi_auth_prx_crypt.c ****     	hash_ctx.hash_algo = OPTIGA_HASH_TYPE_SHA_256;
 1908              	 .loc 1 657 0
 1909 0014 E223     	 movs r3,#226
 1910 0016 87F8A030 	 strb r3,[r7,#160]
 658:C:/Users/Yushev/git/wpcqi-optiga-trust-charge/wpc/PRx\qi_auth_prx_crypt.c **** 		hash_ctx.context_buffer = hash_context_buffer;
 1911              	 .loc 1 658 0
 1912 001a 07F11403 	 add r3,r7,#20
 1913 001e C7F89830 	 str r3,[r7,#152]
 659:C:/Users/Yushev/git/wpcqi-optiga-trust-charge/wpc/PRx\qi_auth_prx_crypt.c **** 		hash_ctx.context_buffer_length = sizeof(hash_context_buffer);
 1914              	 .loc 1 659 0
 1915 0022 8223     	 movs r3,#130
 1916 0024 C7F89C30 	 str r3,[r7,#156]
 660:C:/Users/Yushev/git/wpcqi-optiga-trust-charge/wpc/PRx\qi_auth_prx_crypt.c ****     	hash_data_host.buffer = p_input;
 1917              	 .loc 1 660 0
 1918 0028 FB68     	 ldr r3,[r7,#12]
 1919 002a C7F8A430 	 str r3,[r7,#164]
 661:C:/Users/Yushev/git/wpcqi-optiga-trust-charge/wpc/PRx\qi_auth_prx_crypt.c **** 		hash_data_host.length = inlen;
 1920              	 .loc 1 661 0
 1921 002e 7B89     	 ldrh r3,[r7,#10]
 1922 0030 C7F8A830 	 str r3,[r7,#168]
 662:C:/Users/Yushev/git/wpcqi-optiga-trust-charge/wpc/PRx\qi_auth_prx_crypt.c **** 
 663:C:/Users/Yushev/git/wpcqi-optiga-trust-charge/wpc/PRx\qi_auth_prx_crypt.c **** 		CHECK_RESULT(optiga_crypt_hash_start(p_crypt, &hash_ctx));
 1923              	 .loc 1 663 0
 1924 0034 4FF40043 	 mov r3,#32768
 1925 0038 A7F8AE30 	 strh r3,[r7,#174]
 1926 003c 5F4B     	 ldr r3,.L85
 1927 003e 0122     	 movs r2,#1
 1928 0040 1A80     	 strh r2,[r3]
 1929 0042 5F4B     	 ldr r3,.L85+4
 1930 0044 1A68     	 ldr r2,[r3]
 1931 0046 07F19803 	 add r3,r7,#152
 1932 004a 1046     	 mov r0,r2
 1933 004c 1946     	 mov r1,r3
 1934 004e FFF7FEFF 	 bl optiga_crypt_hash_start
 1935 0052 0346     	 mov r3,r0
 1936 0054 A7F8AE30 	 strh r3,[r7,#174]
 1937 0058 B7F8AE30 	 ldrh r3,[r7,#174]
 1938 005c 002B     	 cmp r3,#0
 1939 005e 00D0     	 beq .L71
 1940 0060 A6E0     	 b .L72
 1941              	.L71:
 1942 0062 02E0     	 b .L73
 1943              	.L74:
 1944              	 .loc 1 663 0 is_stmt 0 discriminator 2
 1945 0064 0120     	 movs r0,#1
 1946 0066 FFF7FEFF 	 bl pal_os_timer_delay_in_milliseconds
 1947              	.L73:
 1948              	 .loc 1 663 0 discriminator 1
 1949 006a 544B     	 ldr r3,.L85
 1950 006c 1B88     	 ldrh r3,[r3]
 1951 006e 9BB2     	 uxth r3,r3
 1952 0070 012B     	 cmp r3,#1
 1953 0072 F7D0     	 beq .L74
 1954              	 .loc 1 663 0 discriminator 3
 1955 0074 514B     	 ldr r3,.L85
 1956 0076 1B88     	 ldrh r3,[r3]
 1957 0078 9BB2     	 uxth r3,r3
 1958 007a 002B     	 cmp r3,#0
 1959 007c 18D0     	 beq .L75
 1960              	 .loc 1 663 0 discriminator 4
 1961 007e 4F4B     	 ldr r3,.L85
 1962 0080 1B88     	 ldrh r3,[r3]
 1963 0082 A7F8AE30 	 strh r3,[r7,#174]
 1964 0086 4D4B     	 ldr r3,.L85
 1965 0088 1B88     	 ldrh r3,[r3]
 1966 008a 9BB2     	 uxth r3,r3
 1967 008c 4D48     	 ldr r0,.L85+8
 1968 008e 1946     	 mov r1,r3
 1969 0090 FFF7FEFF 	 bl printf
 1970 0094 4C4B     	 ldr r3,.L85+12
 1971 0096 1B68     	 ldr r3,[r3]
 1972 0098 1846     	 mov r0,r3
 1973 009a FFF7FEFF 	 bl optiga_util_destroy
 1974 009e 484B     	 ldr r3,.L85+4
 1975 00a0 1B68     	 ldr r3,[r3]
 1976 00a2 1846     	 mov r0,r3
 1977 00a4 FFF7FEFF 	 bl optiga_crypt_destroy
 1978 00a8 0020     	 movs r0,#0
 1979 00aa FFF7FEFF 	 bl pal_os_event_destroy
 1980 00ae 7FE0     	 b .L72
 1981              	.L75:
 664:C:/Users/Yushev/git/wpcqi-optiga-trust-charge/wpc/PRx\qi_auth_prx_crypt.c **** 		CHECK_RESULT(optiga_crypt_hash_update(p_crypt, &hash_ctx, OPTIGA_CRYPT_HOST_DATA, &hash_data_host
 1982              	 .loc 1 664 0 is_stmt 1
 1983 00b0 4FF40043 	 mov r3,#32768
 1984 00b4 A7F8AE30 	 strh r3,[r7,#174]
 1985 00b8 404B     	 ldr r3,.L85
 1986 00ba 0122     	 movs r2,#1
 1987 00bc 1A80     	 strh r2,[r3]
 1988 00be 404B     	 ldr r3,.L85+4
 1989 00c0 1968     	 ldr r1,[r3]
 1990 00c2 07F19802 	 add r2,r7,#152
 1991 00c6 07F1A403 	 add r3,r7,#164
 1992 00ca 0846     	 mov r0,r1
 1993 00cc 1146     	 mov r1,r2
 1994 00ce 0122     	 movs r2,#1
 1995 00d0 FFF7FEFF 	 bl optiga_crypt_hash_update
 1996 00d4 0346     	 mov r3,r0
 1997 00d6 A7F8AE30 	 strh r3,[r7,#174]
 1998 00da B7F8AE30 	 ldrh r3,[r7,#174]
 1999 00de 002B     	 cmp r3,#0
 2000 00e0 00D0     	 beq .L76
 2001 00e2 65E0     	 b .L72
 2002              	.L76:
 2003 00e4 02E0     	 b .L77
 2004              	.L78:
 2005              	 .loc 1 664 0 is_stmt 0 discriminator 2
 2006 00e6 0120     	 movs r0,#1
 2007 00e8 FFF7FEFF 	 bl pal_os_timer_delay_in_milliseconds
 2008              	.L77:
 2009              	 .loc 1 664 0 discriminator 1
 2010 00ec 334B     	 ldr r3,.L85
 2011 00ee 1B88     	 ldrh r3,[r3]
 2012 00f0 9BB2     	 uxth r3,r3
 2013 00f2 012B     	 cmp r3,#1
 2014 00f4 F7D0     	 beq .L78
 2015              	 .loc 1 664 0 discriminator 3
 2016 00f6 314B     	 ldr r3,.L85
 2017 00f8 1B88     	 ldrh r3,[r3]
 2018 00fa 9BB2     	 uxth r3,r3
 2019 00fc 002B     	 cmp r3,#0
 2020 00fe 18D0     	 beq .L79
 2021              	 .loc 1 664 0 discriminator 4
 2022 0100 2E4B     	 ldr r3,.L85
 2023 0102 1B88     	 ldrh r3,[r3]
 2024 0104 A7F8AE30 	 strh r3,[r7,#174]
 2025 0108 2C4B     	 ldr r3,.L85
 2026 010a 1B88     	 ldrh r3,[r3]
 2027 010c 9BB2     	 uxth r3,r3
 2028 010e 2D48     	 ldr r0,.L85+8
 2029 0110 1946     	 mov r1,r3
 2030 0112 FFF7FEFF 	 bl printf
 2031 0116 2C4B     	 ldr r3,.L85+12
 2032 0118 1B68     	 ldr r3,[r3]
 2033 011a 1846     	 mov r0,r3
 2034 011c FFF7FEFF 	 bl optiga_util_destroy
 2035 0120 274B     	 ldr r3,.L85+4
 2036 0122 1B68     	 ldr r3,[r3]
 2037 0124 1846     	 mov r0,r3
 2038 0126 FFF7FEFF 	 bl optiga_crypt_destroy
 2039 012a 0020     	 movs r0,#0
 2040 012c FFF7FEFF 	 bl pal_os_event_destroy
 2041 0130 3EE0     	 b .L72
 2042              	.L79:
 665:C:/Users/Yushev/git/wpcqi-optiga-trust-charge/wpc/PRx\qi_auth_prx_crypt.c **** 		CHECK_RESULT(optiga_crypt_hash_finalize(p_crypt, &hash_ctx, p_digest));
 2043              	 .loc 1 665 0 is_stmt 1
 2044 0132 4FF40043 	 mov r3,#32768
 2045 0136 A7F8AE30 	 strh r3,[r7,#174]
 2046 013a 204B     	 ldr r3,.L85
 2047 013c 0122     	 movs r2,#1
 2048 013e 1A80     	 strh r2,[r3]
 2049 0140 1F4B     	 ldr r3,.L85+4
 2050 0142 1A68     	 ldr r2,[r3]
 2051 0144 07F19803 	 add r3,r7,#152
 2052 0148 1046     	 mov r0,r2
 2053 014a 1946     	 mov r1,r3
 2054 014c 7A68     	 ldr r2,[r7,#4]
 2055 014e FFF7FEFF 	 bl optiga_crypt_hash_finalize
 2056 0152 0346     	 mov r3,r0
 2057 0154 A7F8AE30 	 strh r3,[r7,#174]
 2058 0158 B7F8AE30 	 ldrh r3,[r7,#174]
 2059 015c 002B     	 cmp r3,#0
 2060 015e 00D0     	 beq .L80
 2061 0160 25E0     	 b .L84
 2062              	.L80:
 2063 0162 02E0     	 b .L81
 2064              	.L82:
 2065              	 .loc 1 665 0 is_stmt 0 discriminator 2
 2066 0164 0120     	 movs r0,#1
 2067 0166 FFF7FEFF 	 bl pal_os_timer_delay_in_milliseconds
 2068              	.L81:
 2069              	 .loc 1 665 0 discriminator 1
 2070 016a 144B     	 ldr r3,.L85
 2071 016c 1B88     	 ldrh r3,[r3]
 2072 016e 9BB2     	 uxth r3,r3
 2073 0170 012B     	 cmp r3,#1
 2074 0172 F7D0     	 beq .L82
 2075              	 .loc 1 665 0 discriminator 3
 2076 0174 114B     	 ldr r3,.L85
 2077 0176 1B88     	 ldrh r3,[r3]
 2078 0178 9BB2     	 uxth r3,r3
 2079 017a 002B     	 cmp r3,#0
 2080 017c 18D0     	 beq .L72
 2081              	 .loc 1 665 0 discriminator 4
 2082 017e 0F4B     	 ldr r3,.L85
 2083 0180 1B88     	 ldrh r3,[r3]
 2084 0182 A7F8AE30 	 strh r3,[r7,#174]
 2085 0186 0D4B     	 ldr r3,.L85
 2086 0188 1B88     	 ldrh r3,[r3]
 2087 018a 9BB2     	 uxth r3,r3
 2088 018c 0D48     	 ldr r0,.L85+8
 2089 018e 1946     	 mov r1,r3
 2090 0190 FFF7FEFF 	 bl printf
 2091 0194 0C4B     	 ldr r3,.L85+12
 2092 0196 1B68     	 ldr r3,[r3]
 2093 0198 1846     	 mov r0,r3
 2094 019a FFF7FEFF 	 bl optiga_util_destroy
 2095 019e 084B     	 ldr r3,.L85+4
 2096 01a0 1B68     	 ldr r3,[r3]
 2097 01a2 1846     	 mov r0,r3
 2098 01a4 FFF7FEFF 	 bl optiga_crypt_destroy
 2099 01a8 0020     	 movs r0,#0
 2100 01aa FFF7FEFF 	 bl pal_os_event_destroy
 2101              	.L84:
 2102              	 .loc 1 665 0
 2103 01ae 00BF     	 nop
 2104              	.L72:
 666:C:/Users/Yushev/git/wpcqi-optiga-trust-charge/wpc/PRx\qi_auth_prx_crypt.c ****     }while(FALSE);
 667:C:/Users/Yushev/git/wpcqi-optiga-trust-charge/wpc/PRx\qi_auth_prx_crypt.c **** 
 668:C:/Users/Yushev/git/wpcqi-optiga-trust-charge/wpc/PRx\qi_auth_prx_crypt.c **** 	return CRYPT_LIB_OK;
 2105              	 .loc 1 668 0 is_stmt 1
 2106 01b0 0023     	 movs r3,#0
 669:C:/Users/Yushev/git/wpcqi-optiga-trust-charge/wpc/PRx\qi_auth_prx_crypt.c **** }
 2107              	 .loc 1 669 0
 2108 01b2 1846     	 mov r0,r3
 2109 01b4 B037     	 adds r7,r7,#176
 2110              	.LCFI34:
 2111              	 .cfi_def_cfa_offset 8
 2112 01b6 BD46     	 mov sp,r7
 2113              	.LCFI35:
 2114              	 .cfi_def_cfa_register 13
 2115              	 
 2116 01b8 80BD     	 pop {r7,pc}
 2117              	.L86:
 2118 01ba 00BF     	 .align 2
 2119              	.L85:
 2120 01bc 00000000 	 .word optiga_lib_status
 2121 01c0 00000000 	 .word p_crypt
 2122 01c4 00000000 	 .word .LC2
 2123 01c8 00000000 	 .word p_util
 2124              	 .cfi_endproc
 2125              	.LFE6:
 2127              	 .section .rodata
 2128 001e 0000     	 .align 2
 2129              	.LC1:
 2130 0020 E0E0     	 .short -7968
 2131 0022 0300     	 .short 3
 2132 0024 1401     	 .short 276
 2133              	 .section .text.qi_auth_prx_crypt_certchain_sha256,"ax",%progbits
 2134              	 .align 2
 2135              	 .global qi_auth_prx_crypt_certchain_sha256
 2136              	 .thumb
 2137              	 .thumb_func
 2139              	qi_auth_prx_crypt_certchain_sha256:
 2140              	.LFB7:
 670:C:/Users/Yushev/git/wpcqi-optiga-trust-charge/wpc/PRx\qi_auth_prx_crypt.c **** 
 671:C:/Users/Yushev/git/wpcqi-optiga-trust-charge/wpc/PRx\qi_auth_prx_crypt.c **** uint16_t qi_auth_prx_crypt_certchain_sha256(uint8_t* p_digest)
 672:C:/Users/Yushev/git/wpcqi-optiga-trust-charge/wpc/PRx\qi_auth_prx_crypt.c **** {
 2141              	 .loc 1 672 0
 2142              	 .cfi_startproc
 2143              	 
 2144              	 
 2145 0000 80B5     	 push {r7,lr}
 2146              	.LCFI36:
 2147              	 .cfi_def_cfa_offset 8
 2148              	 .cfi_offset 7,-8
 2149              	 .cfi_offset 14,-4
 2150 0002 AAB0     	 sub sp,sp,#168
 2151              	.LCFI37:
 2152              	 .cfi_def_cfa_offset 176
 2153 0004 00AF     	 add r7,sp,#0
 2154              	.LCFI38:
 2155              	 .cfi_def_cfa_register 7
 2156 0006 7860     	 str r0,[r7,#4]
 673:C:/Users/Yushev/git/wpcqi-optiga-trust-charge/wpc/PRx\qi_auth_prx_crypt.c **** 	uint16_t  return_status = CRYPT_LIB_ERROR;
 2157              	 .loc 1 673 0
 2158 0008 0123     	 movs r3,#1
 2159 000a A7F8A630 	 strh r3,[r7,#166]
 2160              	.LBB4:
 674:C:/Users/Yushev/git/wpcqi-optiga-trust-charge/wpc/PRx\qi_auth_prx_crypt.c **** 
 675:C:/Users/Yushev/git/wpcqi-optiga-trust-charge/wpc/PRx\qi_auth_prx_crypt.c **** 	optiga_hash_context_t hash_ctx;
 676:C:/Users/Yushev/git/wpcqi-optiga-trust-charge/wpc/PRx\qi_auth_prx_crypt.c ****     uint8_t hash_context_buffer [130];
 677:C:/Users/Yushev/git/wpcqi-optiga-trust-charge/wpc/PRx\qi_auth_prx_crypt.c **** 
 678:C:/Users/Yushev/git/wpcqi-optiga-trust-charge/wpc/PRx\qi_auth_prx_crypt.c ****     do
 679:C:/Users/Yushev/git/wpcqi-optiga-trust-charge/wpc/PRx\qi_auth_prx_crypt.c ****     {
 680:C:/Users/Yushev/git/wpcqi-optiga-trust-charge/wpc/PRx\qi_auth_prx_crypt.c **** 		hash_ctx.hash_algo = OPTIGA_HASH_TYPE_SHA_256;
 2161              	 .loc 1 680 0
 2162 000e E223     	 movs r3,#226
 2163 0010 87F8A030 	 strb r3,[r7,#160]
 681:C:/Users/Yushev/git/wpcqi-optiga-trust-charge/wpc/PRx\qi_auth_prx_crypt.c **** 		hash_ctx.context_buffer = hash_context_buffer;
 2164              	 .loc 1 681 0
 2165 0014 07F11403 	 add r3,r7,#20
 2166 0018 C7F89830 	 str r3,[r7,#152]
 682:C:/Users/Yushev/git/wpcqi-optiga-trust-charge/wpc/PRx\qi_auth_prx_crypt.c **** 		hash_ctx.context_buffer_length = sizeof(hash_context_buffer);
 2167              	 .loc 1 682 0
 2168 001c 8223     	 movs r3,#130
 2169 001e C7F89C30 	 str r3,[r7,#156]
 683:C:/Users/Yushev/git/wpcqi-optiga-trust-charge/wpc/PRx\qi_auth_prx_crypt.c **** 
 684:C:/Users/Yushev/git/wpcqi-optiga-trust-charge/wpc/PRx\qi_auth_prx_crypt.c **** 		hash_data_in_optiga_t optiga_hash = {
 2170              	 .loc 1 684 0
 2171 0022 654A     	 ldr r2,.L104
 2172 0024 07F10C03 	 add r3,r7,#12
 2173 0028 1068     	 ldr r0,[r2]
 2174 002a 1860     	 str r0,[r3]
 2175 002c 9288     	 ldrh r2,[r2,#4]
 2176 002e 9A80     	 strh r2,[r3,#4]
 685:C:/Users/Yushev/git/wpcqi-optiga-trust-charge/wpc/PRx\qi_auth_prx_crypt.c **** 				.oid = QI_AUTH_CERTCAIN_OID,
 686:C:/Users/Yushev/git/wpcqi-optiga-trust-charge/wpc/PRx\qi_auth_prx_crypt.c **** 				.offset = 0x03,
 687:C:/Users/Yushev/git/wpcqi-optiga-trust-charge/wpc/PRx\qi_auth_prx_crypt.c **** 				.length = QI_AUTH_CRT_ROOTHASH_LEN + 2 + QI_AUTH_CRT_LEN + QI_AUTH_CRT_LEN  // 32 bytes Root Ha
 688:C:/Users/Yushev/git/wpcqi-optiga-trust-charge/wpc/PRx\qi_auth_prx_crypt.c **** 		};
 689:C:/Users/Yushev/git/wpcqi-optiga-trust-charge/wpc/PRx\qi_auth_prx_crypt.c **** 		CHECK_RESULT(optiga_crypt_hash_start(p_crypt, &hash_ctx));
 2177              	 .loc 1 689 0
 2178 0030 4FF40043 	 mov r3,#32768
 2179 0034 A7F8A630 	 strh r3,[r7,#166]
 2180 0038 604B     	 ldr r3,.L104+4
 2181 003a 0122     	 movs r2,#1
 2182 003c 1A80     	 strh r2,[r3]
 2183 003e 604B     	 ldr r3,.L104+8
 2184 0040 1A68     	 ldr r2,[r3]
 2185 0042 07F19803 	 add r3,r7,#152
 2186 0046 1046     	 mov r0,r2
 2187 0048 1946     	 mov r1,r3
 2188 004a FFF7FEFF 	 bl optiga_crypt_hash_start
 2189 004e 0346     	 mov r3,r0
 2190 0050 A7F8A630 	 strh r3,[r7,#166]
 2191 0054 B7F8A630 	 ldrh r3,[r7,#166]
 2192 0058 002B     	 cmp r3,#0
 2193 005a 00D0     	 beq .L88
 2194 005c A6E0     	 b .L101
 2195              	.L88:
 2196 005e 02E0     	 b .L90
 2197              	.L91:
 2198              	 .loc 1 689 0 is_stmt 0 discriminator 2
 2199 0060 0120     	 movs r0,#1
 2200 0062 FFF7FEFF 	 bl pal_os_timer_delay_in_milliseconds
 2201              	.L90:
 2202              	 .loc 1 689 0 discriminator 1
 2203 0066 554B     	 ldr r3,.L104+4
 2204 0068 1B88     	 ldrh r3,[r3]
 2205 006a 9BB2     	 uxth r3,r3
 2206 006c 012B     	 cmp r3,#1
 2207 006e F7D0     	 beq .L91
 2208              	 .loc 1 689 0 discriminator 3
 2209 0070 524B     	 ldr r3,.L104+4
 2210 0072 1B88     	 ldrh r3,[r3]
 2211 0074 9BB2     	 uxth r3,r3
 2212 0076 002B     	 cmp r3,#0
 2213 0078 18D0     	 beq .L92
 2214              	 .loc 1 689 0 discriminator 4
 2215 007a 504B     	 ldr r3,.L104+4
 2216 007c 1B88     	 ldrh r3,[r3]
 2217 007e A7F8A630 	 strh r3,[r7,#166]
 2218 0082 4E4B     	 ldr r3,.L104+4
 2219 0084 1B88     	 ldrh r3,[r3]
 2220 0086 9BB2     	 uxth r3,r3
 2221 0088 4E48     	 ldr r0,.L104+12
 2222 008a 1946     	 mov r1,r3
 2223 008c FFF7FEFF 	 bl printf
 2224 0090 4D4B     	 ldr r3,.L104+16
 2225 0092 1B68     	 ldr r3,[r3]
 2226 0094 1846     	 mov r0,r3
 2227 0096 FFF7FEFF 	 bl optiga_util_destroy
 2228 009a 494B     	 ldr r3,.L104+8
 2229 009c 1B68     	 ldr r3,[r3]
 2230 009e 1846     	 mov r0,r3
 2231 00a0 FFF7FEFF 	 bl optiga_crypt_destroy
 2232 00a4 0020     	 movs r0,#0
 2233 00a6 FFF7FEFF 	 bl pal_os_event_destroy
 2234 00aa 7FE0     	 b .L101
 2235              	.L92:
 690:C:/Users/Yushev/git/wpcqi-optiga-trust-charge/wpc/PRx\qi_auth_prx_crypt.c **** 		CHECK_RESULT(optiga_crypt_hash_update(p_crypt, &hash_ctx, OPTIGA_CRYPT_OID_DATA, &optiga_hash));
 2236              	 .loc 1 690 0 is_stmt 1
 2237 00ac 4FF40043 	 mov r3,#32768
 2238 00b0 A7F8A630 	 strh r3,[r7,#166]
 2239 00b4 414B     	 ldr r3,.L104+4
 2240 00b6 0122     	 movs r2,#1
 2241 00b8 1A80     	 strh r2,[r3]
 2242 00ba 414B     	 ldr r3,.L104+8
 2243 00bc 1968     	 ldr r1,[r3]
 2244 00be 07F19802 	 add r2,r7,#152
 2245 00c2 07F10C03 	 add r3,r7,#12
 2246 00c6 0846     	 mov r0,r1
 2247 00c8 1146     	 mov r1,r2
 2248 00ca 0022     	 movs r2,#0
 2249 00cc FFF7FEFF 	 bl optiga_crypt_hash_update
 2250 00d0 0346     	 mov r3,r0
 2251 00d2 A7F8A630 	 strh r3,[r7,#166]
 2252 00d6 B7F8A630 	 ldrh r3,[r7,#166]
 2253 00da 002B     	 cmp r3,#0
 2254 00dc 00D0     	 beq .L93
 2255 00de 65E0     	 b .L101
 2256              	.L93:
 2257 00e0 02E0     	 b .L94
 2258              	.L95:
 2259              	 .loc 1 690 0 is_stmt 0 discriminator 2
 2260 00e2 0120     	 movs r0,#1
 2261 00e4 FFF7FEFF 	 bl pal_os_timer_delay_in_milliseconds
 2262              	.L94:
 2263              	 .loc 1 690 0 discriminator 1
 2264 00e8 344B     	 ldr r3,.L104+4
 2265 00ea 1B88     	 ldrh r3,[r3]
 2266 00ec 9BB2     	 uxth r3,r3
 2267 00ee 012B     	 cmp r3,#1
 2268 00f0 F7D0     	 beq .L95
 2269              	 .loc 1 690 0 discriminator 3
 2270 00f2 324B     	 ldr r3,.L104+4
 2271 00f4 1B88     	 ldrh r3,[r3]
 2272 00f6 9BB2     	 uxth r3,r3
 2273 00f8 002B     	 cmp r3,#0
 2274 00fa 18D0     	 beq .L96
 2275              	 .loc 1 690 0 discriminator 4
 2276 00fc 2F4B     	 ldr r3,.L104+4
 2277 00fe 1B88     	 ldrh r3,[r3]
 2278 0100 A7F8A630 	 strh r3,[r7,#166]
 2279 0104 2D4B     	 ldr r3,.L104+4
 2280 0106 1B88     	 ldrh r3,[r3]
 2281 0108 9BB2     	 uxth r3,r3
 2282 010a 2E48     	 ldr r0,.L104+12
 2283 010c 1946     	 mov r1,r3
 2284 010e FFF7FEFF 	 bl printf
 2285 0112 2D4B     	 ldr r3,.L104+16
 2286 0114 1B68     	 ldr r3,[r3]
 2287 0116 1846     	 mov r0,r3
 2288 0118 FFF7FEFF 	 bl optiga_util_destroy
 2289 011c 284B     	 ldr r3,.L104+8
 2290 011e 1B68     	 ldr r3,[r3]
 2291 0120 1846     	 mov r0,r3
 2292 0122 FFF7FEFF 	 bl optiga_crypt_destroy
 2293 0126 0020     	 movs r0,#0
 2294 0128 FFF7FEFF 	 bl pal_os_event_destroy
 2295 012c 3EE0     	 b .L101
 2296              	.L96:
 691:C:/Users/Yushev/git/wpcqi-optiga-trust-charge/wpc/PRx\qi_auth_prx_crypt.c **** 		CHECK_RESULT(optiga_crypt_hash_finalize(p_crypt, &hash_ctx, p_digest));
 2297              	 .loc 1 691 0 is_stmt 1
 2298 012e 4FF40043 	 mov r3,#32768
 2299 0132 A7F8A630 	 strh r3,[r7,#166]
 2300 0136 214B     	 ldr r3,.L104+4
 2301 0138 0122     	 movs r2,#1
 2302 013a 1A80     	 strh r2,[r3]
 2303 013c 204B     	 ldr r3,.L104+8
 2304 013e 1A68     	 ldr r2,[r3]
 2305 0140 07F19803 	 add r3,r7,#152
 2306 0144 1046     	 mov r0,r2
 2307 0146 1946     	 mov r1,r3
 2308 0148 7A68     	 ldr r2,[r7,#4]
 2309 014a FFF7FEFF 	 bl optiga_crypt_hash_finalize
 2310 014e 0346     	 mov r3,r0
 2311 0150 A7F8A630 	 strh r3,[r7,#166]
 2312 0154 B7F8A630 	 ldrh r3,[r7,#166]
 2313 0158 002B     	 cmp r3,#0
 2314 015a 00D0     	 beq .L97
 2315 015c 25E0     	 b .L103
 2316              	.L97:
 2317 015e 02E0     	 b .L98
 2318              	.L99:
 2319              	 .loc 1 691 0 is_stmt 0 discriminator 2
 2320 0160 0120     	 movs r0,#1
 2321 0162 FFF7FEFF 	 bl pal_os_timer_delay_in_milliseconds
 2322              	.L98:
 2323              	 .loc 1 691 0 discriminator 1
 2324 0166 154B     	 ldr r3,.L104+4
 2325 0168 1B88     	 ldrh r3,[r3]
 2326 016a 9BB2     	 uxth r3,r3
 2327 016c 012B     	 cmp r3,#1
 2328 016e F7D0     	 beq .L99
 2329              	 .loc 1 691 0 discriminator 3
 2330 0170 124B     	 ldr r3,.L104+4
 2331 0172 1B88     	 ldrh r3,[r3]
 2332 0174 9BB2     	 uxth r3,r3
 2333 0176 002B     	 cmp r3,#0
 2334 0178 18D0     	 beq .L101
 2335              	 .loc 1 691 0 discriminator 4
 2336 017a 104B     	 ldr r3,.L104+4
 2337 017c 1B88     	 ldrh r3,[r3]
 2338 017e A7F8A630 	 strh r3,[r7,#166]
 2339 0182 0E4B     	 ldr r3,.L104+4
 2340 0184 1B88     	 ldrh r3,[r3]
 2341 0186 9BB2     	 uxth r3,r3
 2342 0188 0E48     	 ldr r0,.L104+12
 2343 018a 1946     	 mov r1,r3
 2344 018c FFF7FEFF 	 bl printf
 2345 0190 0D4B     	 ldr r3,.L104+16
 2346 0192 1B68     	 ldr r3,[r3]
 2347 0194 1846     	 mov r0,r3
 2348 0196 FFF7FEFF 	 bl optiga_util_destroy
 2349 019a 094B     	 ldr r3,.L104+8
 2350 019c 1B68     	 ldr r3,[r3]
 2351 019e 1846     	 mov r0,r3
 2352 01a0 FFF7FEFF 	 bl optiga_crypt_destroy
 2353 01a4 0020     	 movs r0,#0
 2354 01a6 FFF7FEFF 	 bl pal_os_event_destroy
 2355              	.L103:
 2356              	 .loc 1 691 0
 2357 01aa 00BF     	 nop
 2358              	.L101:
 2359              	.LBE4:
 692:C:/Users/Yushev/git/wpcqi-optiga-trust-charge/wpc/PRx\qi_auth_prx_crypt.c **** 
 693:C:/Users/Yushev/git/wpcqi-optiga-trust-charge/wpc/PRx\qi_auth_prx_crypt.c ****     }while(FALSE);
 694:C:/Users/Yushev/git/wpcqi-optiga-trust-charge/wpc/PRx\qi_auth_prx_crypt.c **** 
 695:C:/Users/Yushev/git/wpcqi-optiga-trust-charge/wpc/PRx\qi_auth_prx_crypt.c **** 	return return_status;
 2360              	 .loc 1 695 0 is_stmt 1
 2361 01ac B7F8A630 	 ldrh r3,[r7,#166]
 696:C:/Users/Yushev/git/wpcqi-optiga-trust-charge/wpc/PRx\qi_auth_prx_crypt.c **** }
 2362              	 .loc 1 696 0
 2363 01b0 1846     	 mov r0,r3
 2364 01b2 A837     	 adds r7,r7,#168
 2365              	.LCFI39:
 2366              	 .cfi_def_cfa_offset 8
 2367 01b4 BD46     	 mov sp,r7
 2368              	.LCFI40:
 2369              	 .cfi_def_cfa_register 13
 2370              	 
 2371 01b6 80BD     	 pop {r7,pc}
 2372              	.L105:
 2373              	 .align 2
 2374              	.L104:
 2375 01b8 20000000 	 .word .LC1
 2376 01bc 00000000 	 .word optiga_lib_status
 2377 01c0 00000000 	 .word p_crypt
 2378 01c4 00000000 	 .word .LC2
 2379 01c8 00000000 	 .word p_util
 2380              	 .cfi_endproc
 2381              	.LFE7:
 2383              	 .section .text.qi_auth_prx_crypt_sign,"ax",%progbits
 2384              	 .align 2
 2385              	 .global qi_auth_prx_crypt_sign
 2386              	 .thumb
 2387              	 .thumb_func
 2389              	qi_auth_prx_crypt_sign:
 2390              	.LFB8:
 697:C:/Users/Yushev/git/wpcqi-optiga-trust-charge/wpc/PRx\qi_auth_prx_crypt.c **** 
 698:C:/Users/Yushev/git/wpcqi-optiga-trust-charge/wpc/PRx\qi_auth_prx_crypt.c **** uint16_t qi_auth_prx_crypt_sign(uint8_t* p_digest_tbs, uint16_t digest_tbs_size, uint8_t* p_signatu
 699:C:/Users/Yushev/git/wpcqi-optiga-trust-charge/wpc/PRx\qi_auth_prx_crypt.c **** {
 2391              	 .loc 1 699 0
 2392              	 .cfi_startproc
 2393              	 
 2394              	 
 2395 0000 90B5     	 push {r4,r7,lr}
 2396              	.LCFI41:
 2397              	 .cfi_def_cfa_offset 12
 2398              	 .cfi_offset 4,-12
 2399              	 .cfi_offset 7,-8
 2400              	 .cfi_offset 14,-4
 2401 0002 9BB0     	 sub sp,sp,#108
 2402              	.LCFI42:
 2403              	 .cfi_def_cfa_offset 120
 2404 0004 02AF     	 add r7,sp,#8
 2405              	.LCFI43:
 2406              	 .cfi_def_cfa 7,112
 2407 0006 F860     	 str r0,[r7,#12]
 2408 0008 7A60     	 str r2,[r7,#4]
 2409 000a 3B60     	 str r3,[r7]
 2410 000c 0B46     	 mov r3,r1
 2411 000e 7B81     	 strh r3,[r7,#10]
 700:C:/Users/Yushev/git/wpcqi-optiga-trust-charge/wpc/PRx\qi_auth_prx_crypt.c **** 	uint16_t  return_status = CRYPT_LIB_ERROR;
 2412              	 .loc 1 700 0
 2413 0010 0123     	 movs r3,#1
 2414 0012 A7F85E30 	 strh r3,[r7,#94]
 701:C:/Users/Yushev/git/wpcqi-optiga-trust-charge/wpc/PRx\qi_auth_prx_crypt.c **** 	// OPTIGA uses DER encoded signatures
 702:C:/Users/Yushev/git/wpcqi-optiga-trust-charge/wpc/PRx\qi_auth_prx_crypt.c **** 	uint8_t der_signature[70];
 703:C:/Users/Yushev/git/wpcqi-optiga-trust-charge/wpc/PRx\qi_auth_prx_crypt.c **** 	uint16_t der_signature_len = sizeof(der_signature);
 2415              	 .loc 1 703 0
 2416 0016 4623     	 movs r3,#70
 2417 0018 FB82     	 strh r3,[r7,#22]
 704:C:/Users/Yushev/git/wpcqi-optiga-trust-charge/wpc/PRx\qi_auth_prx_crypt.c ****     do
 705:C:/Users/Yushev/git/wpcqi-optiga-trust-charge/wpc/PRx\qi_auth_prx_crypt.c ****     {
 706:C:/Users/Yushev/git/wpcqi-optiga-trust-charge/wpc/PRx\qi_auth_prx_crypt.c ****     	if (NULL == p_signature_len)
 2418              	 .loc 1 706 0
 2419 001a 3B68     	 ldr r3,[r7]
 2420 001c 002B     	 cmp r3,#0
 2421 001e 00D1     	 bne .L107
 707:C:/Users/Yushev/git/wpcqi-optiga-trust-charge/wpc/PRx\qi_auth_prx_crypt.c ****     		break;
 2422              	 .loc 1 707 0
 2423 0020 52E0     	 b .L108
 2424              	.L107:
 708:C:/Users/Yushev/git/wpcqi-optiga-trust-charge/wpc/PRx\qi_auth_prx_crypt.c **** 
 709:C:/Users/Yushev/git/wpcqi-optiga-trust-charge/wpc/PRx\qi_auth_prx_crypt.c ****     	// Sign the resulting digest of nthe TBS Auth Data
 710:C:/Users/Yushev/git/wpcqi-optiga-trust-charge/wpc/PRx\qi_auth_prx_crypt.c ****     	CHECK_RESULT(optiga_crypt_ecdsa_sign(p_crypt, p_digest_tbs, digest_tbs_size, QI_AUTH_DEVICE_PR
 2425              	 .loc 1 710 0
 2426 0022 4FF40043 	 mov r3,#32768
 2427 0026 A7F85E30 	 strh r3,[r7,#94]
 2428 002a 2A4B     	 ldr r3,.L114
 2429 002c 0122     	 movs r2,#1
 2430 002e 1A80     	 strh r2,[r3]
 2431 0030 294B     	 ldr r3,.L114+4
 2432 0032 1968     	 ldr r1,[r3]
 2433 0034 7B89     	 ldrh r3,[r7,#10]
 2434 0036 DAB2     	 uxtb r2,r3
 2435 0038 07F11803 	 add r3,r7,#24
 2436 003c 0093     	 str r3,[sp]
 2437 003e 07F11603 	 add r3,r7,#22
 2438 0042 0193     	 str r3,[sp,#4]
 2439 0044 0846     	 mov r0,r1
 2440 0046 F968     	 ldr r1,[r7,#12]
 2441 0048 4EF2F003 	 movw r3,#57584
 2442 004c FFF7FEFF 	 bl optiga_crypt_ecdsa_sign
 2443 0050 0346     	 mov r3,r0
 2444 0052 A7F85E30 	 strh r3,[r7,#94]
 2445 0056 B7F85E30 	 ldrh r3,[r7,#94]
 2446 005a 002B     	 cmp r3,#0
 2447 005c 00D0     	 beq .L109
 2448 005e 33E0     	 b .L108
 2449              	.L109:
 2450 0060 02E0     	 b .L110
 2451              	.L111:
 2452              	 .loc 1 710 0 is_stmt 0 discriminator 2
 2453 0062 0120     	 movs r0,#1
 2454 0064 FFF7FEFF 	 bl pal_os_timer_delay_in_milliseconds
 2455              	.L110:
 2456              	 .loc 1 710 0 discriminator 1
 2457 0068 1A4B     	 ldr r3,.L114
 2458 006a 1B88     	 ldrh r3,[r3]
 2459 006c 9BB2     	 uxth r3,r3
 2460 006e 012B     	 cmp r3,#1
 2461 0070 F7D0     	 beq .L111
 2462              	 .loc 1 710 0 discriminator 3
 2463 0072 184B     	 ldr r3,.L114
 2464 0074 1B88     	 ldrh r3,[r3]
 2465 0076 9BB2     	 uxth r3,r3
 2466 0078 002B     	 cmp r3,#0
 2467 007a 18D0     	 beq .L112
 2468              	 .loc 1 710 0 discriminator 4
 2469 007c 154B     	 ldr r3,.L114
 2470 007e 1B88     	 ldrh r3,[r3]
 2471 0080 A7F85E30 	 strh r3,[r7,#94]
 2472 0084 134B     	 ldr r3,.L114
 2473 0086 1B88     	 ldrh r3,[r3]
 2474 0088 9BB2     	 uxth r3,r3
 2475 008a 1448     	 ldr r0,.L114+8
 2476 008c 1946     	 mov r1,r3
 2477 008e FFF7FEFF 	 bl printf
 2478 0092 134B     	 ldr r3,.L114+12
 2479 0094 1B68     	 ldr r3,[r3]
 2480 0096 1846     	 mov r0,r3
 2481 0098 FFF7FEFF 	 bl optiga_util_destroy
 2482 009c 0E4B     	 ldr r3,.L114+4
 2483 009e 1B68     	 ldr r3,[r3]
 2484 00a0 1846     	 mov r0,r3
 2485 00a2 FFF7FEFF 	 bl optiga_crypt_destroy
 2486 00a6 0020     	 movs r0,#0
 2487 00a8 FFF7FEFF 	 bl pal_os_event_destroy
 2488 00ac 0CE0     	 b .L108
 2489              	.L112:
 711:C:/Users/Yushev/git/wpcqi-optiga-trust-charge/wpc/PRx\qi_auth_prx_crypt.c **** 
 712:C:/Users/Yushev/git/wpcqi-optiga-trust-charge/wpc/PRx\qi_auth_prx_crypt.c ****     	asn1_to_ecdsa_rs(der_signature, der_signature_len, p_signature, *p_signature_len);
 2490              	 .loc 1 712 0 is_stmt 1
 2491 00ae FB8A     	 ldrh r3,[r7,#22]
 2492 00b0 1A46     	 mov r2,r3
 2493 00b2 3B68     	 ldr r3,[r7]
 2494 00b4 1B88     	 ldrh r3,[r3]
 2495 00b6 1C46     	 mov r4,r3
 2496 00b8 07F11803 	 add r3,r7,#24
 2497 00bc 1846     	 mov r0,r3
 2498 00be 1146     	 mov r1,r2
 2499 00c0 7A68     	 ldr r2,[r7,#4]
 2500 00c2 2346     	 mov r3,r4
 2501 00c4 FFF7FEFF 	 bl asn1_to_ecdsa_rs
 2502              	.L108:
 713:C:/Users/Yushev/git/wpcqi-optiga-trust-charge/wpc/PRx\qi_auth_prx_crypt.c **** 
 714:C:/Users/Yushev/git/wpcqi-optiga-trust-charge/wpc/PRx\qi_auth_prx_crypt.c ****     }while(FALSE);
 715:C:/Users/Yushev/git/wpcqi-optiga-trust-charge/wpc/PRx\qi_auth_prx_crypt.c **** 
 716:C:/Users/Yushev/git/wpcqi-optiga-trust-charge/wpc/PRx\qi_auth_prx_crypt.c ****     return return_status;
 2503              	 .loc 1 716 0
 2504 00c8 B7F85E30 	 ldrh r3,[r7,#94]
 717:C:/Users/Yushev/git/wpcqi-optiga-trust-charge/wpc/PRx\qi_auth_prx_crypt.c **** }
 2505              	 .loc 1 717 0
 2506 00cc 1846     	 mov r0,r3
 2507 00ce 6437     	 adds r7,r7,#100
 2508              	.LCFI44:
 2509              	 .cfi_def_cfa_offset 12
 2510 00d0 BD46     	 mov sp,r7
 2511              	.LCFI45:
 2512              	 .cfi_def_cfa_register 13
 2513              	 
 2514 00d2 90BD     	 pop {r4,r7,pc}
 2515              	.L115:
 2516              	 .align 2
 2517              	.L114:
 2518 00d4 00000000 	 .word optiga_lib_status
 2519 00d8 00000000 	 .word p_crypt
 2520 00dc 00000000 	 .word .LC2
 2521 00e0 00000000 	 .word p_util
 2522              	 .cfi_endproc
 2523              	.LFE8:
 2525              	 .section .text.qi_auth_prx_crypt_certchain,"ax",%progbits
 2526              	 .align 2
 2527              	 .global qi_auth_prx_crypt_certchain
 2528              	 .thumb
 2529              	 .thumb_func
 2531              	qi_auth_prx_crypt_certchain:
 2532              	.LFB9:
 718:C:/Users/Yushev/git/wpcqi-optiga-trust-charge/wpc/PRx\qi_auth_prx_crypt.c **** 
 719:C:/Users/Yushev/git/wpcqi-optiga-trust-charge/wpc/PRx\qi_auth_prx_crypt.c **** uint16_t qi_auth_prx_crypt_certchain(uint8_t* p_certchain, uint16_t* p_certchain_size)
 720:C:/Users/Yushev/git/wpcqi-optiga-trust-charge/wpc/PRx\qi_auth_prx_crypt.c **** {
 2533              	 .loc 1 720 0
 2534              	 .cfi_startproc
 2535              	 
 2536              	 
 2537 0000 80B5     	 push {r7,lr}
 2538              	.LCFI46:
 2539              	 .cfi_def_cfa_offset 8
 2540              	 .cfi_offset 7,-8
 2541              	 .cfi_offset 14,-4
 2542 0002 86B0     	 sub sp,sp,#24
 2543              	.LCFI47:
 2544              	 .cfi_def_cfa_offset 32
 2545 0004 02AF     	 add r7,sp,#8
 2546              	.LCFI48:
 2547              	 .cfi_def_cfa 7,24
 2548 0006 7860     	 str r0,[r7,#4]
 2549 0008 3960     	 str r1,[r7]
 721:C:/Users/Yushev/git/wpcqi-optiga-trust-charge/wpc/PRx\qi_auth_prx_crypt.c **** 	uint16_t  return_status = CRYPT_LIB_ERROR;
 2550              	 .loc 1 721 0
 2551 000a 0123     	 movs r3,#1
 2552 000c FB81     	 strh r3,[r7,#14]
 722:C:/Users/Yushev/git/wpcqi-optiga-trust-charge/wpc/PRx\qi_auth_prx_crypt.c **** 	uint16_t  optiga_oid = QI_AUTH_CERTCAIN_OID;
 2553              	 .loc 1 722 0
 2554 000e 4EF2E003 	 movw r3,#57568
 2555 0012 BB81     	 strh r3,[r7,#12]
 723:C:/Users/Yushev/git/wpcqi-optiga-trust-charge/wpc/PRx\qi_auth_prx_crypt.c **** 
 724:C:/Users/Yushev/git/wpcqi-optiga-trust-charge/wpc/PRx\qi_auth_prx_crypt.c **** 	do
 725:C:/Users/Yushev/git/wpcqi-optiga-trust-charge/wpc/PRx\qi_auth_prx_crypt.c **** 	{
 726:C:/Users/Yushev/git/wpcqi-optiga-trust-charge/wpc/PRx\qi_auth_prx_crypt.c **** 		/**
 727:C:/Users/Yushev/git/wpcqi-optiga-trust-charge/wpc/PRx\qi_auth_prx_crypt.c **** 		 * 1. Read data from a data object (e.g. certificate data object)
 728:C:/Users/Yushev/git/wpcqi-optiga-trust-charge/wpc/PRx\qi_auth_prx_crypt.c **** 		 *    using optiga_util_read_data.
 729:C:/Users/Yushev/git/wpcqi-optiga-trust-charge/wpc/PRx\qi_auth_prx_crypt.c **** 		 */
 730:C:/Users/Yushev/git/wpcqi-optiga-trust-charge/wpc/PRx\qi_auth_prx_crypt.c **** 
 731:C:/Users/Yushev/git/wpcqi-optiga-trust-charge/wpc/PRx\qi_auth_prx_crypt.c **** 		CHECK_RESULT(optiga_util_read_data(p_util, optiga_oid, 0x03, p_certchain, p_certchain_size));
 2556              	 .loc 1 731 0
 2557 0014 4FF40043 	 mov r3,#32768
 2558 0018 FB81     	 strh r3,[r7,#14]
 2559 001a 1F4B     	 ldr r3,.L123
 2560 001c 0122     	 movs r2,#1
 2561 001e 1A80     	 strh r2,[r3]
 2562 0020 1E4B     	 ldr r3,.L123+4
 2563 0022 1968     	 ldr r1,[r3]
 2564 0024 BA89     	 ldrh r2,[r7,#12]
 2565 0026 3B68     	 ldr r3,[r7]
 2566 0028 0093     	 str r3,[sp]
 2567 002a 0846     	 mov r0,r1
 2568 002c 1146     	 mov r1,r2
 2569 002e 0322     	 movs r2,#3
 2570 0030 7B68     	 ldr r3,[r7,#4]
 2571 0032 FFF7FEFF 	 bl optiga_util_read_data
 2572 0036 0346     	 mov r3,r0
 2573 0038 FB81     	 strh r3,[r7,#14]
 2574 003a FB89     	 ldrh r3,[r7,#14]
 2575 003c 002B     	 cmp r3,#0
 2576 003e 00D0     	 beq .L117
 2577 0040 24E0     	 b .L122
 2578              	.L117:
 2579 0042 02E0     	 b .L119
 2580              	.L120:
 2581              	 .loc 1 731 0 is_stmt 0 discriminator 2
 2582 0044 0120     	 movs r0,#1
 2583 0046 FFF7FEFF 	 bl pal_os_timer_delay_in_milliseconds
 2584              	.L119:
 2585              	 .loc 1 731 0 discriminator 1
 2586 004a 134B     	 ldr r3,.L123
 2587 004c 1B88     	 ldrh r3,[r3]
 2588 004e 9BB2     	 uxth r3,r3
 2589 0050 012B     	 cmp r3,#1
 2590 0052 F7D0     	 beq .L120
 2591              	 .loc 1 731 0 discriminator 3
 2592 0054 104B     	 ldr r3,.L123
 2593 0056 1B88     	 ldrh r3,[r3]
 2594 0058 9BB2     	 uxth r3,r3
 2595 005a 002B     	 cmp r3,#0
 2596 005c 17D0     	 beq .L118
 2597              	 .loc 1 731 0 discriminator 4
 2598 005e 0E4B     	 ldr r3,.L123
 2599 0060 1B88     	 ldrh r3,[r3]
 2600 0062 FB81     	 strh r3,[r7,#14]
 2601 0064 0C4B     	 ldr r3,.L123
 2602 0066 1B88     	 ldrh r3,[r3]
 2603 0068 9BB2     	 uxth r3,r3
 2604 006a 0D48     	 ldr r0,.L123+8
 2605 006c 1946     	 mov r1,r3
 2606 006e FFF7FEFF 	 bl printf
 2607 0072 0A4B     	 ldr r3,.L123+4
 2608 0074 1B68     	 ldr r3,[r3]
 2609 0076 1846     	 mov r0,r3
 2610 0078 FFF7FEFF 	 bl optiga_util_destroy
 2611 007c 094B     	 ldr r3,.L123+12
 2612 007e 1B68     	 ldr r3,[r3]
 2613 0080 1846     	 mov r0,r3
 2614 0082 FFF7FEFF 	 bl optiga_crypt_destroy
 2615 0086 0020     	 movs r0,#0
 2616 0088 FFF7FEFF 	 bl pal_os_event_destroy
 2617              	.L122:
 2618              	 .loc 1 731 0
 2619 008c 00BF     	 nop
 2620              	.L118:
 732:C:/Users/Yushev/git/wpcqi-optiga-trust-charge/wpc/PRx\qi_auth_prx_crypt.c **** 	}while(0);
 733:C:/Users/Yushev/git/wpcqi-optiga-trust-charge/wpc/PRx\qi_auth_prx_crypt.c **** 
 734:C:/Users/Yushev/git/wpcqi-optiga-trust-charge/wpc/PRx\qi_auth_prx_crypt.c **** 	return return_status;
 2621              	 .loc 1 734 0 is_stmt 1
 2622 008e FB89     	 ldrh r3,[r7,#14]
 735:C:/Users/Yushev/git/wpcqi-optiga-trust-charge/wpc/PRx\qi_auth_prx_crypt.c **** }
 2623              	 .loc 1 735 0
 2624 0090 1846     	 mov r0,r3
 2625 0092 1037     	 adds r7,r7,#16
 2626              	.LCFI49:
 2627              	 .cfi_def_cfa_offset 8
 2628 0094 BD46     	 mov sp,r7
 2629              	.LCFI50:
 2630              	 .cfi_def_cfa_register 13
 2631              	 
 2632 0096 80BD     	 pop {r7,pc}
 2633              	.L124:
 2634              	 .align 2
 2635              	.L123:
 2636 0098 00000000 	 .word optiga_lib_status
 2637 009c 00000000 	 .word p_util
 2638 00a0 00000000 	 .word .LC2
 2639 00a4 00000000 	 .word p_crypt
 2640              	 .cfi_endproc
 2641              	.LFE9:
 2643              	 .section .text.qi_auth_crypt_verify_certchain,"ax",%progbits
 2644              	 .align 2
 2645              	 .global qi_auth_crypt_verify_certchain
 2646              	 .thumb
 2647              	 .thumb_func
 2649              	qi_auth_crypt_verify_certchain:
 2650              	.LFB10:
 736:C:/Users/Yushev/git/wpcqi-optiga-trust-charge/wpc/PRx\qi_auth_prx_crypt.c **** 
 737:C:/Users/Yushev/git/wpcqi-optiga-trust-charge/wpc/PRx\qi_auth_prx_crypt.c **** uint16_t qi_auth_crypt_verify_certchain(uint8_t* p_qi_auth_chain_buf, uint16_t qi_auth_chain_buf_si
 738:C:/Users/Yushev/git/wpcqi-optiga-trust-charge/wpc/PRx\qi_auth_prx_crypt.c **** 		                               uint8_t* p_pubkey, uint8_t pubkey_size)
 739:C:/Users/Yushev/git/wpcqi-optiga-trust-charge/wpc/PRx\qi_auth_prx_crypt.c **** {
 2651              	 .loc 1 739 0
 2652              	 .cfi_startproc
 2653              	 
 2654              	 
 2655 0000 F0B5     	 push {r4,r5,r6,r7,lr}
 2656              	.LCFI51:
 2657              	 .cfi_def_cfa_offset 20
 2658              	 .cfi_offset 4,-20
 2659              	 .cfi_offset 5,-16
 2660              	 .cfi_offset 6,-12
 2661              	 .cfi_offset 7,-8
 2662              	 .cfi_offset 14,-4
 2663 0002 BBB0     	 sub sp,sp,#236
 2664              	.LCFI52:
 2665              	 .cfi_def_cfa_offset 256
 2666 0004 00AF     	 add r7,sp,#0
 2667              	.LCFI53:
 2668              	 .cfi_def_cfa_register 7
 2669 0006 F860     	 str r0,[r7,#12]
 2670 0008 7A60     	 str r2,[r7,#4]
 2671 000a 1A46     	 mov r2,r3
 2672 000c 0B46     	 mov r3,r1
 2673 000e 7B81     	 strh r3,[r7,#10]
 2674 0010 1346     	 mov r3,r2
 2675 0012 7B72     	 strb r3,[r7,#9]
 740:C:/Users/Yushev/git/wpcqi-optiga-trust-charge/wpc/PRx\qi_auth_prx_crypt.c **** 	uint16_t return_status  = CRYPT_LIB_ERROR;
 2676              	 .loc 1 740 0
 2677 0014 0123     	 movs r3,#1
 2678 0016 A7F8E630 	 strh r3,[r7,#230]
 741:C:/Users/Yushev/git/wpcqi-optiga-trust-charge/wpc/PRx\qi_auth_prx_crypt.c **** 	uint8_t p_root_pubkey[LENGTH_PUB_KEY];
 742:C:/Users/Yushev/git/wpcqi-optiga-trust-charge/wpc/PRx\qi_auth_prx_crypt.c **** 	uint8_t p_interm_pubkey[LENGTH_PUB_KEY];
 743:C:/Users/Yushev/git/wpcqi-optiga-trust-charge/wpc/PRx\qi_auth_prx_crypt.c **** 	uint8_t p_leaf_pubkey[LENGTH_PUB_KEY];
 744:C:/Users/Yushev/git/wpcqi-optiga-trust-charge/wpc/PRx\qi_auth_prx_crypt.c **** 	certificate_container_t qi_auth_chain[3];
 745:C:/Users/Yushev/git/wpcqi-optiga-trust-charge/wpc/PRx\qi_auth_prx_crypt.c **** 
 746:C:/Users/Yushev/git/wpcqi-optiga-trust-charge/wpc/PRx\qi_auth_prx_crypt.c **** 	do
 747:C:/Users/Yushev/git/wpcqi-optiga-trust-charge/wpc/PRx\qi_auth_prx_crypt.c **** 	{
 748:C:/Users/Yushev/git/wpcqi-optiga-trust-charge/wpc/PRx\qi_auth_prx_crypt.c **** 		//Parse WPC Chain of Certificates
 749:C:/Users/Yushev/git/wpcqi-optiga-trust-charge/wpc/PRx\qi_auth_prx_crypt.c **** 		qi_auth_chain[0].p_pub_key = p_root_pubkey;
 2679              	 .loc 1 749 0
 2680 001a 07F1C403 	 add r3,r7,#196
 2681 001e 3B61     	 str r3,[r7,#16]
 750:C:/Users/Yushev/git/wpcqi-optiga-trust-charge/wpc/PRx\qi_auth_prx_crypt.c **** 		qi_auth_chain[0].pub_key_size = LENGTH_PUB_KEY;
 2682              	 .loc 1 750 0
 2683 0020 2123     	 movs r3,#33
 2684 0022 3B75     	 strb r3,[r7,#20]
 751:C:/Users/Yushev/git/wpcqi-optiga-trust-charge/wpc/PRx\qi_auth_prx_crypt.c **** 		qi_auth_chain[1].p_pub_key  = p_interm_pubkey;
 2685              	 .loc 1 751 0
 2686 0024 07F1A003 	 add r3,r7,#160
 2687 0028 7B63     	 str r3,[r7,#52]
 752:C:/Users/Yushev/git/wpcqi-optiga-trust-charge/wpc/PRx\qi_auth_prx_crypt.c **** 		qi_auth_chain[1].pub_key_size = LENGTH_PUB_KEY;
 2688              	 .loc 1 752 0
 2689 002a 2123     	 movs r3,#33
 2690 002c 87F83830 	 strb r3,[r7,#56]
 753:C:/Users/Yushev/git/wpcqi-optiga-trust-charge/wpc/PRx\qi_auth_prx_crypt.c **** 		qi_auth_chain[2].p_pub_key  = p_leaf_pubkey;
 2691              	 .loc 1 753 0
 2692 0030 07F17C03 	 add r3,r7,#124
 2693 0034 BB65     	 str r3,[r7,#88]
 754:C:/Users/Yushev/git/wpcqi-optiga-trust-charge/wpc/PRx\qi_auth_prx_crypt.c **** 		qi_auth_chain[2].pub_key_size = LENGTH_PUB_KEY;
 2694              	 .loc 1 754 0
 2695 0036 2123     	 movs r3,#33
 2696 0038 87F85C30 	 strb r3,[r7,#92]
 755:C:/Users/Yushev/git/wpcqi-optiga-trust-charge/wpc/PRx\qi_auth_prx_crypt.c **** 		return_status = qi_auth_prx_crypt_parse_certchain(p_qi_auth_chain_buf, qi_auth_chain_buf_size, qi
 2697              	 .loc 1 755 0
 2698 003c 7A89     	 ldrh r2,[r7,#10]
 2699 003e 07F11003 	 add r3,r7,#16
 2700 0042 F868     	 ldr r0,[r7,#12]
 2701 0044 1146     	 mov r1,r2
 2702 0046 1A46     	 mov r2,r3
 2703 0048 0323     	 movs r3,#3
 2704 004a FFF7FEFF 	 bl qi_auth_prx_crypt_parse_certchain
 2705 004e 0346     	 mov r3,r0
 2706 0050 A7F8E630 	 strh r3,[r7,#230]
 756:C:/Users/Yushev/git/wpcqi-optiga-trust-charge/wpc/PRx\qi_auth_prx_crypt.c **** 		if(CRYPT_LIB_OK != return_status)
 2707              	 .loc 1 756 0
 2708 0054 B7F8E630 	 ldrh r3,[r7,#230]
 2709 0058 002B     	 cmp r3,#0
 2710 005a 00D0     	 beq .L126
 757:C:/Users/Yushev/git/wpcqi-optiga-trust-charge/wpc/PRx\qi_auth_prx_crypt.c **** 		{
 758:C:/Users/Yushev/git/wpcqi-optiga-trust-charge/wpc/PRx\qi_auth_prx_crypt.c **** 			break;
 2711              	 .loc 1 758 0
 2712 005c 39E0     	 b .L127
 2713              	.L126:
 759:C:/Users/Yushev/git/wpcqi-optiga-trust-charge/wpc/PRx\qi_auth_prx_crypt.c **** 		}
 760:C:/Users/Yushev/git/wpcqi-optiga-trust-charge/wpc/PRx\qi_auth_prx_crypt.c **** 
 761:C:/Users/Yushev/git/wpcqi-optiga-trust-charge/wpc/PRx\qi_auth_prx_crypt.c **** 		//Validate Leaf Certificate
 762:C:/Users/Yushev/git/wpcqi-optiga-trust-charge/wpc/PRx\qi_auth_prx_crypt.c **** 		//mbedtls_memory_buffer_alloc_init(mbedtls_memmory_buffer, MBEDTLS_BUFFER_SIZE);
 763:C:/Users/Yushev/git/wpcqi-optiga-trust-charge/wpc/PRx\qi_auth_prx_crypt.c **** 		return_status = _validate_qi_auth_certificate(&qi_auth_chain[1], &qi_auth_chain[2]);
 2714              	 .loc 1 763 0
 2715 005e 07F11003 	 add r3,r7,#16
 2716 0062 03F12402 	 add r2,r3,#36
 2717 0066 07F11003 	 add r3,r7,#16
 2718 006a 4833     	 adds r3,r3,#72
 2719 006c 1046     	 mov r0,r2
 2720 006e 1946     	 mov r1,r3
 2721 0070 FFF7FEFF 	 bl _validate_qi_auth_certificate
 2722 0074 0346     	 mov r3,r0
 2723 0076 A7F8E630 	 strh r3,[r7,#230]
 764:C:/Users/Yushev/git/wpcqi-optiga-trust-charge/wpc/PRx\qi_auth_prx_crypt.c **** 		if(CRYPT_LIB_OK != return_status)
 2724              	 .loc 1 764 0
 2725 007a B7F8E630 	 ldrh r3,[r7,#230]
 2726 007e 002B     	 cmp r3,#0
 2727 0080 00D0     	 beq .L128
 765:C:/Users/Yushev/git/wpcqi-optiga-trust-charge/wpc/PRx\qi_auth_prx_crypt.c **** 		{
 766:C:/Users/Yushev/git/wpcqi-optiga-trust-charge/wpc/PRx\qi_auth_prx_crypt.c **** 			break;
 2728              	 .loc 1 766 0
 2729 0082 26E0     	 b .L127
 2730              	.L128:
 767:C:/Users/Yushev/git/wpcqi-optiga-trust-charge/wpc/PRx\qi_auth_prx_crypt.c **** 		}
 768:C:/Users/Yushev/git/wpcqi-optiga-trust-charge/wpc/PRx\qi_auth_prx_crypt.c **** 
 769:C:/Users/Yushev/git/wpcqi-optiga-trust-charge/wpc/PRx\qi_auth_prx_crypt.c **** 		//Validate Intermediate Certificate
 770:C:/Users/Yushev/git/wpcqi-optiga-trust-charge/wpc/PRx\qi_auth_prx_crypt.c **** 		//mbedtls_memory_buffer_alloc_init(mbedtls_memmory_buffer, MBEDTLS_BUFFER_SIZE);
 771:C:/Users/Yushev/git/wpcqi-optiga-trust-charge/wpc/PRx\qi_auth_prx_crypt.c **** 		return_status = _validate_qi_auth_certificate(&qi_auth_chain[0], &qi_auth_chain[1]);
 2731              	 .loc 1 771 0
 2732 0084 07F11002 	 add r2,r7,#16
 2733 0088 07F11003 	 add r3,r7,#16
 2734 008c 2433     	 adds r3,r3,#36
 2735 008e 1046     	 mov r0,r2
 2736 0090 1946     	 mov r1,r3
 2737 0092 FFF7FEFF 	 bl _validate_qi_auth_certificate
 2738 0096 0346     	 mov r3,r0
 2739 0098 A7F8E630 	 strh r3,[r7,#230]
 772:C:/Users/Yushev/git/wpcqi-optiga-trust-charge/wpc/PRx\qi_auth_prx_crypt.c **** 		if(CRYPT_LIB_OK != return_status)
 2740              	 .loc 1 772 0
 2741 009c B7F8E630 	 ldrh r3,[r7,#230]
 2742 00a0 002B     	 cmp r3,#0
 2743 00a2 00D0     	 beq .L129
 773:C:/Users/Yushev/git/wpcqi-optiga-trust-charge/wpc/PRx\qi_auth_prx_crypt.c **** 		{
 774:C:/Users/Yushev/git/wpcqi-optiga-trust-charge/wpc/PRx\qi_auth_prx_crypt.c **** 			break;
 2744              	 .loc 1 774 0
 2745 00a4 15E0     	 b .L127
 2746              	.L129:
 775:C:/Users/Yushev/git/wpcqi-optiga-trust-charge/wpc/PRx\qi_auth_prx_crypt.c **** 		}
 776:C:/Users/Yushev/git/wpcqi-optiga-trust-charge/wpc/PRx\qi_auth_prx_crypt.c **** 
 777:C:/Users/Yushev/git/wpcqi-optiga-trust-charge/wpc/PRx\qi_auth_prx_crypt.c **** 		memcpy(p_pubkey, p_leaf_pubkey, LENGTH_PUB_KEY);
 2747              	 .loc 1 777 0
 2748 00a6 7B68     	 ldr r3,[r7,#4]
 2749 00a8 07F17C04 	 add r4,r7,#124
 2750 00ac 9E46     	 mov lr,r3
 2751 00ae 04F1200C 	 add ip,r4,#32
 2752              	.L130:
 2753 00b2 7546     	 mov r5,lr
 2754 00b4 2646     	 mov r6,r4
 2755 00b6 0FCE     	 ldmia r6!,{r0,r1,r2,r3}
 2756 00b8 2860     	 str r0,[r5]
 2757 00ba 6960     	 str r1,[r5,#4]
 2758 00bc AA60     	 str r2,[r5,#8]
 2759 00be EB60     	 str r3,[r5,#12]
 2760 00c0 1034     	 adds r4,r4,#16
 2761 00c2 0EF1100E 	 add lr,lr,#16
 2762 00c6 6445     	 cmp r4,ip
 2763 00c8 F3D1     	 bne .L130
 2764 00ca 7346     	 mov r3,lr
 2765 00cc 2246     	 mov r2,r4
 2766 00ce 1278     	 ldrb r2,[r2]
 2767 00d0 1A70     	 strb r2,[r3]
 2768              	.L127:
 778:C:/Users/Yushev/git/wpcqi-optiga-trust-charge/wpc/PRx\qi_auth_prx_crypt.c **** 
 779:C:/Users/Yushev/git/wpcqi-optiga-trust-charge/wpc/PRx\qi_auth_prx_crypt.c **** 	} while (FALSE);
 780:C:/Users/Yushev/git/wpcqi-optiga-trust-charge/wpc/PRx\qi_auth_prx_crypt.c **** 
 781:C:/Users/Yushev/git/wpcqi-optiga-trust-charge/wpc/PRx\qi_auth_prx_crypt.c ****     return return_status;
 2769              	 .loc 1 781 0
 2770 00d2 B7F8E630 	 ldrh r3,[r7,#230]
 782:C:/Users/Yushev/git/wpcqi-optiga-trust-charge/wpc/PRx\qi_auth_prx_crypt.c **** }
 2771              	 .loc 1 782 0
 2772 00d6 1846     	 mov r0,r3
 2773 00d8 EC37     	 adds r7,r7,#236
 2774              	.LCFI54:
 2775              	 .cfi_def_cfa_offset 20
 2776 00da BD46     	 mov sp,r7
 2777              	.LCFI55:
 2778              	 .cfi_def_cfa_register 13
 2779              	 
 2780 00dc F0BD     	 pop {r4,r5,r6,r7,pc}
 2781              	 .cfi_endproc
 2782              	.LFE10:
 2784 00de 00BF     	 .section .text.qi_auth_prx_crypt_verify_signature,"ax",%progbits
 2785              	 .align 2
 2786              	 .global qi_auth_prx_crypt_verify_signature
 2787              	 .thumb
 2788              	 .thumb_func
 2790              	qi_auth_prx_crypt_verify_signature:
 2791              	.LFB11:
 783:C:/Users/Yushev/git/wpcqi-optiga-trust-charge/wpc/PRx\qi_auth_prx_crypt.c **** 
 784:C:/Users/Yushev/git/wpcqi-optiga-trust-charge/wpc/PRx\qi_auth_prx_crypt.c **** 
 785:C:/Users/Yushev/git/wpcqi-optiga-trust-charge/wpc/PRx\qi_auth_prx_crypt.c **** uint16_t  qi_auth_prx_crypt_verify_signature(const signature_container_t *p_signature_c)
 786:C:/Users/Yushev/git/wpcqi-optiga-trust-charge/wpc/PRx\qi_auth_prx_crypt.c **** {
 2792              	 .loc 1 786 0
 2793              	 .cfi_startproc
 2794              	 
 2795              	 
 2796 0000 B0B5     	 push {r4,r5,r7,lr}
 2797              	.LCFI56:
 2798              	 .cfi_def_cfa_offset 16
 2799              	 .cfi_offset 4,-16
 2800              	 .cfi_offset 5,-12
 2801              	 .cfi_offset 7,-8
 2802              	 .cfi_offset 14,-4
 2803 0002 86B0     	 sub sp,sp,#24
 2804              	.LCFI57:
 2805              	 .cfi_def_cfa_offset 40
 2806 0004 02AF     	 add r7,sp,#8
 2807              	.LCFI58:
 2808              	 .cfi_def_cfa 7,32
 2809 0006 7860     	 str r0,[r7,#4]
 787:C:/Users/Yushev/git/wpcqi-optiga-trust-charge/wpc/PRx\qi_auth_prx_crypt.c **** 	uint16_t return_status  = CRYPT_LIB_ERROR;
 2810              	 .loc 1 787 0
 2811 0008 0123     	 movs r3,#1
 2812 000a FB81     	 strh r3,[r7,#14]
 788:C:/Users/Yushev/git/wpcqi-optiga-trust-charge/wpc/PRx\qi_auth_prx_crypt.c ****     do
 789:C:/Users/Yushev/git/wpcqi-optiga-trust-charge/wpc/PRx\qi_auth_prx_crypt.c ****     {
 790:C:/Users/Yushev/git/wpcqi-optiga-trust-charge/wpc/PRx\qi_auth_prx_crypt.c ****         if((NULL == p_signature_c)||
 2813              	 .loc 1 790 0
 2814 000c 7B68     	 ldr r3,[r7,#4]
 2815 000e 002B     	 cmp r3,#0
 2816 0010 2ED0     	 beq .L133
 791:C:/Users/Yushev/git/wpcqi-optiga-trust-charge/wpc/PRx\qi_auth_prx_crypt.c ****             (NULL == p_signature_c->p_message)||
 2817              	 .loc 1 791 0 discriminator 1
 2818 0012 7B68     	 ldr r3,[r7,#4]
 2819 0014 1B69     	 ldr r3,[r3,#16]
 790:C:/Users/Yushev/git/wpcqi-optiga-trust-charge/wpc/PRx\qi_auth_prx_crypt.c ****             (NULL == p_signature_c->p_message)||
 2820              	 .loc 1 790 0 discriminator 1
 2821 0016 002B     	 cmp r3,#0
 2822 0018 2AD0     	 beq .L133
 792:C:/Users/Yushev/git/wpcqi-optiga-trust-charge/wpc/PRx\qi_auth_prx_crypt.c ****             (NULL == p_signature_c->p_signature)||
 2823              	 .loc 1 792 0
 2824 001a 7B68     	 ldr r3,[r7,#4]
 2825 001c 9B68     	 ldr r3,[r3,#8]
 791:C:/Users/Yushev/git/wpcqi-optiga-trust-charge/wpc/PRx\qi_auth_prx_crypt.c ****             (NULL == p_signature_c->p_message)||
 2826              	 .loc 1 791 0
 2827 001e 002B     	 cmp r3,#0
 2828 0020 26D0     	 beq .L133
 793:C:/Users/Yushev/git/wpcqi-optiga-trust-charge/wpc/PRx\qi_auth_prx_crypt.c ****             (NULL == p_signature_c->p_public_key))
 2829              	 .loc 1 793 0
 2830 0022 7B68     	 ldr r3,[r7,#4]
 2831 0024 1B68     	 ldr r3,[r3]
 792:C:/Users/Yushev/git/wpcqi-optiga-trust-charge/wpc/PRx\qi_auth_prx_crypt.c ****             (NULL == p_signature_c->p_signature)||
 2832              	 .loc 1 792 0
 2833 0026 002B     	 cmp r3,#0
 2834 0028 22D0     	 beq .L133
 794:C:/Users/Yushev/git/wpcqi-optiga-trust-charge/wpc/PRx\qi_auth_prx_crypt.c ****         {
 795:C:/Users/Yushev/git/wpcqi-optiga-trust-charge/wpc/PRx\qi_auth_prx_crypt.c ****             break;
 796:C:/Users/Yushev/git/wpcqi-optiga-trust-charge/wpc/PRx\qi_auth_prx_crypt.c ****         }
 797:C:/Users/Yushev/git/wpcqi-optiga-trust-charge/wpc/PRx\qi_auth_prx_crypt.c ****         //check if length is equal to zero
 798:C:/Users/Yushev/git/wpcqi-optiga-trust-charge/wpc/PRx\qi_auth_prx_crypt.c ****         if((ZERO_LENGTH == p_signature_c->message_size)||
 2835              	 .loc 1 798 0
 2836 002a 7B68     	 ldr r3,[r7,#4]
 2837 002c 9B8A     	 ldrh r3,[r3,#20]
 2838 002e 002B     	 cmp r3,#0
 2839 0030 07D0     	 beq .L134
 799:C:/Users/Yushev/git/wpcqi-optiga-trust-charge/wpc/PRx\qi_auth_prx_crypt.c ****             (ZERO_LENGTH == p_signature_c->signature_size)||
 2840              	 .loc 1 799 0 discriminator 1
 2841 0032 7B68     	 ldr r3,[r7,#4]
 2842 0034 1B7B     	 ldrb r3,[r3,#12]
 798:C:/Users/Yushev/git/wpcqi-optiga-trust-charge/wpc/PRx\qi_auth_prx_crypt.c ****             (ZERO_LENGTH == p_signature_c->signature_size)||
 2843              	 .loc 1 798 0 discriminator 1
 2844 0036 002B     	 cmp r3,#0
 2845 0038 03D0     	 beq .L134
 800:C:/Users/Yushev/git/wpcqi-optiga-trust-charge/wpc/PRx\qi_auth_prx_crypt.c ****             (ZERO_LENGTH == p_signature_c->public_key_size))
 2846              	 .loc 1 800 0
 2847 003a 7B68     	 ldr r3,[r7,#4]
 2848 003c 1B79     	 ldrb r3,[r3,#4]
 799:C:/Users/Yushev/git/wpcqi-optiga-trust-charge/wpc/PRx\qi_auth_prx_crypt.c ****             (ZERO_LENGTH == p_signature_c->signature_size)||
 2849              	 .loc 1 799 0
 2850 003e 002B     	 cmp r3,#0
 2851 0040 02D1     	 bne .L135
 2852              	.L134:
 801:C:/Users/Yushev/git/wpcqi-optiga-trust-charge/wpc/PRx\qi_auth_prx_crypt.c ****         {
 802:C:/Users/Yushev/git/wpcqi-optiga-trust-charge/wpc/PRx\qi_auth_prx_crypt.c ****         	return_status = (int32_t)CRYPT_LIB_LENZERO_ERROR;
 2853              	 .loc 1 802 0
 2854 0042 0423     	 movs r3,#4
 2855 0044 FB81     	 strh r3,[r7,#14]
 803:C:/Users/Yushev/git/wpcqi-optiga-trust-charge/wpc/PRx\qi_auth_prx_crypt.c ****             break;
 2856              	 .loc 1 803 0
 2857 0046 13E0     	 b .L133
 2858              	.L135:
 804:C:/Users/Yushev/git/wpcqi-optiga-trust-charge/wpc/PRx\qi_auth_prx_crypt.c ****         }
 805:C:/Users/Yushev/git/wpcqi-optiga-trust-charge/wpc/PRx\qi_auth_prx_crypt.c ****         //mbedtls_memory_buffer_alloc_init(mbedtls_memmory_buffer, MBEDTLS_BUFFER_SIZE);
 806:C:/Users/Yushev/git/wpcqi-optiga-trust-charge/wpc/PRx\qi_auth_prx_crypt.c ****         return_status = qi_auth_crypt_verify_ecc_signature(p_signature_c->p_public_key, p_signature
 2859              	 .loc 1 806 0
 2860 0048 7B68     	 ldr r3,[r7,#4]
 2861 004a 1868     	 ldr r0,[r3]
 2862 004c 7B68     	 ldr r3,[r7,#4]
 2863 004e 1979     	 ldrb r1,[r3,#4]
 807:C:/Users/Yushev/git/wpcqi-optiga-trust-charge/wpc/PRx\qi_auth_prx_crypt.c ****                                                   p_signature_c->p_message, p_signature_c->message_
 2864              	 .loc 1 807 0
 2865 0050 7B68     	 ldr r3,[r7,#4]
 2866 0052 1D69     	 ldr r5,[r3,#16]
 806:C:/Users/Yushev/git/wpcqi-optiga-trust-charge/wpc/PRx\qi_auth_prx_crypt.c ****                                                   p_signature_c->p_message, p_signature_c->message_
 2867              	 .loc 1 806 0
 2868 0054 7B68     	 ldr r3,[r7,#4]
 2869 0056 9C8A     	 ldrh r4,[r3,#20]
 808:C:/Users/Yushev/git/wpcqi-optiga-trust-charge/wpc/PRx\qi_auth_prx_crypt.c ****                                                   p_signature_c->p_signature, p_signature_c->signat
 2870              	 .loc 1 808 0
 2871 0058 7B68     	 ldr r3,[r7,#4]
 2872 005a 9A68     	 ldr r2,[r3,#8]
 806:C:/Users/Yushev/git/wpcqi-optiga-trust-charge/wpc/PRx\qi_auth_prx_crypt.c ****                                                   p_signature_c->p_message, p_signature_c->message_
 2873              	 .loc 1 806 0
 2874 005c 7B68     	 ldr r3,[r7,#4]
 2875 005e 1B7B     	 ldrb r3,[r3,#12]
 2876 0060 0092     	 str r2,[sp]
 2877 0062 0193     	 str r3,[sp,#4]
 2878 0064 2A46     	 mov r2,r5
 2879 0066 2346     	 mov r3,r4
 2880 0068 FFF7FEFF 	 bl qi_auth_crypt_verify_ecc_signature
 2881 006c 0346     	 mov r3,r0
 2882 006e FB81     	 strh r3,[r7,#14]
 2883              	.L133:
 809:C:/Users/Yushev/git/wpcqi-optiga-trust-charge/wpc/PRx\qi_auth_prx_crypt.c ****     }while(FALSE);
 810:C:/Users/Yushev/git/wpcqi-optiga-trust-charge/wpc/PRx\qi_auth_prx_crypt.c ****     return return_status;
 2884              	 .loc 1 810 0
 2885 0070 FB89     	 ldrh r3,[r7,#14]
 811:C:/Users/Yushev/git/wpcqi-optiga-trust-charge/wpc/PRx\qi_auth_prx_crypt.c **** }
 2886              	 .loc 1 811 0
 2887 0072 1846     	 mov r0,r3
 2888 0074 1037     	 adds r7,r7,#16
 2889              	.LCFI59:
 2890              	 .cfi_def_cfa_offset 16
 2891 0076 BD46     	 mov sp,r7
 2892              	.LCFI60:
 2893              	 .cfi_def_cfa_register 13
 2894              	 
 2895 0078 B0BD     	 pop {r4,r5,r7,pc}
 2896              	 .cfi_endproc
 2897              	.LFE11:
 2899 007a 00BF     	 .section .rodata
 2900 0026 0000     	 .align 2
 2901              	.LC4:
 2902 0028 4572726F 	 .ascii "Error #1: optiga_init\015\000"
 2902      72202331 
 2902      3A206F70 
 2902      74696761 
 2902      5F696E69 
 2903              	 .section .text.qi_auth_prx_crypt_init,"ax",%progbits
 2904              	 .align 2
 2905              	 .global qi_auth_prx_crypt_init
 2906              	 .thumb
 2907              	 .thumb_func
 2909              	qi_auth_prx_crypt_init:
 2910              	.LFB12:
 812:C:/Users/Yushev/git/wpcqi-optiga-trust-charge/wpc/PRx\qi_auth_prx_crypt.c **** 
 813:C:/Users/Yushev/git/wpcqi-optiga-trust-charge/wpc/PRx\qi_auth_prx_crypt.c **** int32_t qi_auth_prx_crypt_init(uint8_t restore_from_hibernate)
 814:C:/Users/Yushev/git/wpcqi-optiga-trust-charge/wpc/PRx\qi_auth_prx_crypt.c **** {
 2911              	 .loc 1 814 0
 2912              	 .cfi_startproc
 2913              	 
 2914              	 
 2915 0000 80B5     	 push {r7,lr}
 2916              	.LCFI61:
 2917              	 .cfi_def_cfa_offset 8
 2918              	 .cfi_offset 7,-8
 2919              	 .cfi_offset 14,-4
 2920 0002 84B0     	 sub sp,sp,#16
 2921              	.LCFI62:
 2922              	 .cfi_def_cfa_offset 24
 2923 0004 00AF     	 add r7,sp,#0
 2924              	.LCFI63:
 2925              	 .cfi_def_cfa_register 7
 2926 0006 0346     	 mov r3,r0
 2927 0008 FB71     	 strb r3,[r7,#7]
 815:C:/Users/Yushev/git/wpcqi-optiga-trust-charge/wpc/PRx\qi_auth_prx_crypt.c **** 	uint16_t return_status  = CRYPT_LIB_ERROR;
 2928              	 .loc 1 815 0
 2929 000a 0123     	 movs r3,#1
 2930 000c FB81     	 strh r3,[r7,#14]
 816:C:/Users/Yushev/git/wpcqi-optiga-trust-charge/wpc/PRx\qi_auth_prx_crypt.c **** 
 817:C:/Users/Yushev/git/wpcqi-optiga-trust-charge/wpc/PRx\qi_auth_prx_crypt.c **** 	return_status = optiga_init(restore_from_hibernate);
 2931              	 .loc 1 817 0
 2932 000e FB79     	 ldrb r3,[r7,#7]
 2933 0010 1846     	 mov r0,r3
 2934 0012 FFF7FEFF 	 bl optiga_init
 2935 0016 0346     	 mov r3,r0
 2936 0018 FB81     	 strh r3,[r7,#14]
 818:C:/Users/Yushev/git/wpcqi-optiga-trust-charge/wpc/PRx\qi_auth_prx_crypt.c **** 	if (CRYPT_LIB_OK != return_status)
 2937              	 .loc 1 818 0
 2938 001a FB89     	 ldrh r3,[r7,#14]
 2939 001c 002B     	 cmp r3,#0
 2940 001e 02D0     	 beq .L138
 819:C:/Users/Yushev/git/wpcqi-optiga-trust-charge/wpc/PRx\qi_auth_prx_crypt.c **** 	{
 820:C:/Users/Yushev/git/wpcqi-optiga-trust-charge/wpc/PRx\qi_auth_prx_crypt.c **** 		printf("Error #1: optiga_init\r\n");
 2941              	 .loc 1 820 0
 2942 0020 0348     	 ldr r0,.L140
 2943 0022 FFF7FEFF 	 bl puts
 2944              	.L138:
 821:C:/Users/Yushev/git/wpcqi-optiga-trust-charge/wpc/PRx\qi_auth_prx_crypt.c **** 	}
 822:C:/Users/Yushev/git/wpcqi-optiga-trust-charge/wpc/PRx\qi_auth_prx_crypt.c **** 
 823:C:/Users/Yushev/git/wpcqi-optiga-trust-charge/wpc/PRx\qi_auth_prx_crypt.c **** 	return return_status;
 2945              	 .loc 1 823 0
 2946 0026 FB89     	 ldrh r3,[r7,#14]
 824:C:/Users/Yushev/git/wpcqi-optiga-trust-charge/wpc/PRx\qi_auth_prx_crypt.c **** }
 2947              	 .loc 1 824 0
 2948 0028 1846     	 mov r0,r3
 2949 002a 1037     	 adds r7,r7,#16
 2950              	.LCFI64:
 2951              	 .cfi_def_cfa_offset 8
 2952 002c BD46     	 mov sp,r7
 2953              	.LCFI65:
 2954              	 .cfi_def_cfa_register 13
 2955              	 
 2956 002e 80BD     	 pop {r7,pc}
 2957              	.L141:
 2958              	 .align 2
 2959              	.L140:
 2960 0030 28000000 	 .word .LC4
 2961              	 .cfi_endproc
 2962              	.LFE12:
 2964              	 .section .rodata
 2965 003f 00       	 .align 2
 2966              	.LC5:
 2967 0040 4572726F 	 .ascii "Error #1: optiga_deinit\015\000"
 2967      72202331 
 2967      3A206F70 
 2967      74696761 
 2967      5F646569 
 2968 0059 000000   	 .section .text.qi_auth_prx_crypt_deinit,"ax",%progbits
 2969              	 .align 2
 2970              	 .global qi_auth_prx_crypt_deinit
 2971              	 .thumb
 2972              	 .thumb_func
 2974              	qi_auth_prx_crypt_deinit:
 2975              	.LFB13:
 825:C:/Users/Yushev/git/wpcqi-optiga-trust-charge/wpc/PRx\qi_auth_prx_crypt.c **** 
 826:C:/Users/Yushev/git/wpcqi-optiga-trust-charge/wpc/PRx\qi_auth_prx_crypt.c **** int32_t qi_auth_prx_crypt_deinit(uint8_t hibernate_chip)
 827:C:/Users/Yushev/git/wpcqi-optiga-trust-charge/wpc/PRx\qi_auth_prx_crypt.c **** {
 2976              	 .loc 1 827 0
 2977              	 .cfi_startproc
 2978              	 
 2979              	 
 2980 0000 80B5     	 push {r7,lr}
 2981              	.LCFI66:
 2982              	 .cfi_def_cfa_offset 8
 2983              	 .cfi_offset 7,-8
 2984              	 .cfi_offset 14,-4
 2985 0002 84B0     	 sub sp,sp,#16
 2986              	.LCFI67:
 2987              	 .cfi_def_cfa_offset 24
 2988 0004 00AF     	 add r7,sp,#0
 2989              	.LCFI68:
 2990              	 .cfi_def_cfa_register 7
 2991 0006 0346     	 mov r3,r0
 2992 0008 FB71     	 strb r3,[r7,#7]
 828:C:/Users/Yushev/git/wpcqi-optiga-trust-charge/wpc/PRx\qi_auth_prx_crypt.c **** 	uint16_t return_status  = CRYPT_LIB_ERROR;
 2993              	 .loc 1 828 0
 2994 000a 0123     	 movs r3,#1
 2995 000c FB81     	 strh r3,[r7,#14]
 829:C:/Users/Yushev/git/wpcqi-optiga-trust-charge/wpc/PRx\qi_auth_prx_crypt.c **** 
 830:C:/Users/Yushev/git/wpcqi-optiga-trust-charge/wpc/PRx\qi_auth_prx_crypt.c **** 	return_status = optiga_deinit(hibernate_chip);
 2996              	 .loc 1 830 0
 2997 000e FB79     	 ldrb r3,[r7,#7]
 2998 0010 1846     	 mov r0,r3
 2999 0012 FFF7FEFF 	 bl optiga_deinit
 3000 0016 0346     	 mov r3,r0
 3001 0018 FB81     	 strh r3,[r7,#14]
 831:C:/Users/Yushev/git/wpcqi-optiga-trust-charge/wpc/PRx\qi_auth_prx_crypt.c **** 	if (CRYPT_LIB_OK != return_status)
 3002              	 .loc 1 831 0
 3003 001a FB89     	 ldrh r3,[r7,#14]
 3004 001c 002B     	 cmp r3,#0
 3005 001e 02D0     	 beq .L143
 832:C:/Users/Yushev/git/wpcqi-optiga-trust-charge/wpc/PRx\qi_auth_prx_crypt.c **** 	{
 833:C:/Users/Yushev/git/wpcqi-optiga-trust-charge/wpc/PRx\qi_auth_prx_crypt.c **** 		printf("Error #1: optiga_deinit\r\n");
 3006              	 .loc 1 833 0
 3007 0020 0348     	 ldr r0,.L145
 3008 0022 FFF7FEFF 	 bl puts
 3009              	.L143:
 834:C:/Users/Yushev/git/wpcqi-optiga-trust-charge/wpc/PRx\qi_auth_prx_crypt.c **** 	}
 835:C:/Users/Yushev/git/wpcqi-optiga-trust-charge/wpc/PRx\qi_auth_prx_crypt.c **** 
 836:C:/Users/Yushev/git/wpcqi-optiga-trust-charge/wpc/PRx\qi_auth_prx_crypt.c **** 	return return_status;
 3010              	 .loc 1 836 0
 3011 0026 FB89     	 ldrh r3,[r7,#14]
 837:C:/Users/Yushev/git/wpcqi-optiga-trust-charge/wpc/PRx\qi_auth_prx_crypt.c **** }
 3012              	 .loc 1 837 0
 3013 0028 1846     	 mov r0,r3
 3014 002a 1037     	 adds r7,r7,#16
 3015              	.LCFI69:
 3016              	 .cfi_def_cfa_offset 8
 3017 002c BD46     	 mov sp,r7
 3018              	.LCFI70:
 3019              	 .cfi_def_cfa_register 13
 3020              	 
 3021 002e 80BD     	 pop {r7,pc}
 3022              	.L146:
 3023              	 .align 2
 3024              	.L145:
 3025 0030 40000000 	 .word .LC5
 3026              	 .cfi_endproc
 3027              	.LFE13:
 3029              	 .section .text.qi_auth_prx_crypt_get_random,"ax",%progbits
 3030              	 .align 2
 3031              	 .global qi_auth_prx_crypt_get_random
 3032              	 .thumb
 3033              	 .thumb_func
 3035              	qi_auth_prx_crypt_get_random:
 3036              	.LFB14:
 838:C:/Users/Yushev/git/wpcqi-optiga-trust-charge/wpc/PRx\qi_auth_prx_crypt.c **** 
 839:C:/Users/Yushev/git/wpcqi-optiga-trust-charge/wpc/PRx\qi_auth_prx_crypt.c **** 
 840:C:/Users/Yushev/git/wpcqi-optiga-trust-charge/wpc/PRx\qi_auth_prx_crypt.c **** uint16_t  qi_auth_prx_crypt_get_random(uint16_t random_len, uint8_t *p_random, uint16_t random_size
 841:C:/Users/Yushev/git/wpcqi-optiga-trust-charge/wpc/PRx\qi_auth_prx_crypt.c **** {
 3037              	 .loc 1 841 0
 3038              	 .cfi_startproc
 3039              	 
 3040              	 
 3041 0000 80B5     	 push {r7,lr}
 3042              	.LCFI71:
 3043              	 .cfi_def_cfa_offset 8
 3044              	 .cfi_offset 7,-8
 3045              	 .cfi_offset 14,-4
 3046 0002 84B0     	 sub sp,sp,#16
 3047              	.LCFI72:
 3048              	 .cfi_def_cfa_offset 24
 3049 0004 00AF     	 add r7,sp,#0
 3050              	.LCFI73:
 3051              	 .cfi_def_cfa_register 7
 3052 0006 0346     	 mov r3,r0
 3053 0008 3960     	 str r1,[r7]
 3054 000a FB80     	 strh r3,[r7,#6]
 3055 000c 1346     	 mov r3,r2
 3056 000e BB80     	 strh r3,[r7,#4]
 842:C:/Users/Yushev/git/wpcqi-optiga-trust-charge/wpc/PRx\qi_auth_prx_crypt.c **** 	uint16_t return_status = CRYPT_LIB_ERROR;
 3057              	 .loc 1 842 0
 3058 0010 0123     	 movs r3,#1
 3059 0012 FB81     	 strh r3,[r7,#14]
 843:C:/Users/Yushev/git/wpcqi-optiga-trust-charge/wpc/PRx\qi_auth_prx_crypt.c **** 
 844:C:/Users/Yushev/git/wpcqi-optiga-trust-charge/wpc/PRx\qi_auth_prx_crypt.c ****     do
 845:C:/Users/Yushev/git/wpcqi-optiga-trust-charge/wpc/PRx\qi_auth_prx_crypt.c ****     {
 846:C:/Users/Yushev/git/wpcqi-optiga-trust-charge/wpc/PRx\qi_auth_prx_crypt.c ****         if((NULL == p_random)||(0 == random_size))
 3060              	 .loc 1 846 0
 3061 0014 3B68     	 ldr r3,[r7]
 3062 0016 002B     	 cmp r3,#0
 3063 0018 3CD0     	 beq .L148
 3064              	 .loc 1 846 0 is_stmt 0 discriminator 1
 3065 001a BB88     	 ldrh r3,[r7,#4]
 3066 001c 002B     	 cmp r3,#0
 3067 001e 39D0     	 beq .L148
 847:C:/Users/Yushev/git/wpcqi-optiga-trust-charge/wpc/PRx\qi_auth_prx_crypt.c ****         {
 848:C:/Users/Yushev/git/wpcqi-optiga-trust-charge/wpc/PRx\qi_auth_prx_crypt.c ****             break;
 849:C:/Users/Yushev/git/wpcqi-optiga-trust-charge/wpc/PRx\qi_auth_prx_crypt.c ****         }
 850:C:/Users/Yushev/git/wpcqi-optiga-trust-charge/wpc/PRx\qi_auth_prx_crypt.c **** 
 851:C:/Users/Yushev/git/wpcqi-optiga-trust-charge/wpc/PRx\qi_auth_prx_crypt.c ****         CHECK_RESULT(optiga_crypt_random(p_crypt, OPTIGA_RNG_TYPE_TRNG, p_random, random_len));
 3068              	 .loc 1 851 0 is_stmt 1
 3069 0020 4FF40043 	 mov r3,#32768
 3070 0024 FB81     	 strh r3,[r7,#14]
 3071 0026 1E4B     	 ldr r3,.L154
 3072 0028 0122     	 movs r2,#1
 3073 002a 1A80     	 strh r2,[r3]
 3074 002c 1D4B     	 ldr r3,.L154+4
 3075 002e 1A68     	 ldr r2,[r3]
 3076 0030 FB88     	 ldrh r3,[r7,#6]
 3077 0032 1046     	 mov r0,r2
 3078 0034 0021     	 movs r1,#0
 3079 0036 3A68     	 ldr r2,[r7]
 3080 0038 FFF7FEFF 	 bl optiga_crypt_random
 3081 003c 0346     	 mov r3,r0
 3082 003e FB81     	 strh r3,[r7,#14]
 3083 0040 FB89     	 ldrh r3,[r7,#14]
 3084 0042 002B     	 cmp r3,#0
 3085 0044 00D0     	 beq .L149
 3086 0046 24E0     	 b .L153
 3087              	.L149:
 3088 0048 02E0     	 b .L150
 3089              	.L151:
 3090              	 .loc 1 851 0 is_stmt 0 discriminator 2
 3091 004a 0120     	 movs r0,#1
 3092 004c FFF7FEFF 	 bl pal_os_timer_delay_in_milliseconds
 3093              	.L150:
 3094              	 .loc 1 851 0 discriminator 1
 3095 0050 134B     	 ldr r3,.L154
 3096 0052 1B88     	 ldrh r3,[r3]
 3097 0054 9BB2     	 uxth r3,r3
 3098 0056 012B     	 cmp r3,#1
 3099 0058 F7D0     	 beq .L151
 3100              	 .loc 1 851 0 discriminator 3
 3101 005a 114B     	 ldr r3,.L154
 3102 005c 1B88     	 ldrh r3,[r3]
 3103 005e 9BB2     	 uxth r3,r3
 3104 0060 002B     	 cmp r3,#0
 3105 0062 17D0     	 beq .L148
 3106              	 .loc 1 851 0 discriminator 4
 3107 0064 0E4B     	 ldr r3,.L154
 3108 0066 1B88     	 ldrh r3,[r3]
 3109 0068 FB81     	 strh r3,[r7,#14]
 3110 006a 0D4B     	 ldr r3,.L154
 3111 006c 1B88     	 ldrh r3,[r3]
 3112 006e 9BB2     	 uxth r3,r3
 3113 0070 0D48     	 ldr r0,.L154+8
 3114 0072 1946     	 mov r1,r3
 3115 0074 FFF7FEFF 	 bl printf
 3116 0078 0C4B     	 ldr r3,.L154+12
 3117 007a 1B68     	 ldr r3,[r3]
 3118 007c 1846     	 mov r0,r3
 3119 007e FFF7FEFF 	 bl optiga_util_destroy
 3120 0082 084B     	 ldr r3,.L154+4
 3121 0084 1B68     	 ldr r3,[r3]
 3122 0086 1846     	 mov r0,r3
 3123 0088 FFF7FEFF 	 bl optiga_crypt_destroy
 3124 008c 0020     	 movs r0,#0
 3125 008e FFF7FEFF 	 bl pal_os_event_destroy
 3126              	.L153:
 3127              	 .loc 1 851 0
 3128 0092 00BF     	 nop
 3129              	.L148:
 852:C:/Users/Yushev/git/wpcqi-optiga-trust-charge/wpc/PRx\qi_auth_prx_crypt.c **** 
 853:C:/Users/Yushev/git/wpcqi-optiga-trust-charge/wpc/PRx\qi_auth_prx_crypt.c ****     }while(FALSE);
 854:C:/Users/Yushev/git/wpcqi-optiga-trust-charge/wpc/PRx\qi_auth_prx_crypt.c ****     return return_status;
 3130              	 .loc 1 854 0 is_stmt 1
 3131 0094 FB89     	 ldrh r3,[r7,#14]
 855:C:/Users/Yushev/git/wpcqi-optiga-trust-charge/wpc/PRx\qi_auth_prx_crypt.c **** }
 3132              	 .loc 1 855 0
 3133 0096 1846     	 mov r0,r3
 3134 0098 1037     	 adds r7,r7,#16
 3135              	.LCFI74:
 3136              	 .cfi_def_cfa_offset 8
 3137 009a BD46     	 mov sp,r7
 3138              	.LCFI75:
 3139              	 .cfi_def_cfa_register 13
 3140              	 
 3141 009c 80BD     	 pop {r7,pc}
 3142              	.L155:
 3143 009e 00BF     	 .align 2
 3144              	.L154:
 3145 00a0 00000000 	 .word optiga_lib_status
 3146 00a4 00000000 	 .word p_crypt
 3147 00a8 00000000 	 .word .LC2
 3148 00ac 00000000 	 .word p_util
 3149              	 .cfi_endproc
 3150              	.LFE14:
 3152              	 .section .text.qi_auth_prx_crypt_parse_certchain,"ax",%progbits
 3153              	 .align 2
 3154              	 .global qi_auth_prx_crypt_parse_certchain
 3155              	 .thumb
 3156              	 .thumb_func
 3158              	qi_auth_prx_crypt_parse_certchain:
 3159              	.LFB15:
 856:C:/Users/Yushev/git/wpcqi-optiga-trust-charge/wpc/PRx\qi_auth_prx_crypt.c **** 
 857:C:/Users/Yushev/git/wpcqi-optiga-trust-charge/wpc/PRx\qi_auth_prx_crypt.c **** 
 858:C:/Users/Yushev/git/wpcqi-optiga-trust-charge/wpc/PRx\qi_auth_prx_crypt.c **** uint16_t  qi_auth_prx_crypt_parse_certchain(uint8_t* p_chain, uint16_t chain_size, certificate_cont
 859:C:/Users/Yushev/git/wpcqi-optiga-trust-charge/wpc/PRx\qi_auth_prx_crypt.c **** {
 3160              	 .loc 1 859 0
 3161              	 .cfi_startproc
 3162              	 
 3163              	 
 3164 0000 80B5     	 push {r7,lr}
 3165              	.LCFI76:
 3166              	 .cfi_def_cfa_offset 8
 3167              	 .cfi_offset 7,-8
 3168              	 .cfi_offset 14,-4
 3169 0002 88B0     	 sub sp,sp,#32
 3170              	.LCFI77:
 3171              	 .cfi_def_cfa_offset 40
 3172 0004 00AF     	 add r7,sp,#0
 3173              	.LCFI78:
 3174              	 .cfi_def_cfa_register 7
 3175 0006 F860     	 str r0,[r7,#12]
 3176 0008 7A60     	 str r2,[r7,#4]
 3177 000a 1A46     	 mov r2,r3
 3178 000c 0B46     	 mov r3,r1
 3179 000e 7B81     	 strh r3,[r7,#10]
 3180 0010 1346     	 mov r3,r2
 3181 0012 7B72     	 strb r3,[r7,#9]
 860:C:/Users/Yushev/git/wpcqi-optiga-trust-charge/wpc/PRx\qi_auth_prx_crypt.c **** 
 861:C:/Users/Yushev/git/wpcqi-optiga-trust-charge/wpc/PRx\qi_auth_prx_crypt.c ****     //lint --e{818} suppress "PpsCertificate is out parameter"
 862:C:/Users/Yushev/git/wpcqi-optiga-trust-charge/wpc/PRx\qi_auth_prx_crypt.c **** 	uint16_t 	status  = (int32_t)CRYPT_LIB_ERROR;
 3182              	 .loc 1 862 0
 3183 0014 0123     	 movs r3,#1
 3184 0016 FB83     	 strh r3,[r7,#30]
 863:C:/Users/Yushev/git/wpcqi-optiga-trust-charge/wpc/PRx\qi_auth_prx_crypt.c ****     uint8_t* 	dev_root_hash = NULL;
 3185              	 .loc 1 863 0
 3186 0018 0023     	 movs r3,#0
 3187 001a 7B61     	 str r3,[r7,#20]
 864:C:/Users/Yushev/git/wpcqi-optiga-trust-charge/wpc/PRx\qi_auth_prx_crypt.c ****     uint16_t	parsed_off = 0;
 3188              	 .loc 1 864 0
 3189 001c 0023     	 movs r3,#0
 3190 001e BB83     	 strh r3,[r7,#28]
 865:C:/Users/Yushev/git/wpcqi-optiga-trust-charge/wpc/PRx\qi_auth_prx_crypt.c ****     uint8_t		cur_crt = 0;
 3191              	 .loc 1 865 0
 3192 0020 0023     	 movs r3,#0
 3193 0022 FB76     	 strb r3,[r7,#27]
 866:C:/Users/Yushev/git/wpcqi-optiga-trust-charge/wpc/PRx\qi_auth_prx_crypt.c **** 
 867:C:/Users/Yushev/git/wpcqi-optiga-trust-charge/wpc/PRx\qi_auth_prx_crypt.c ****     do
 868:C:/Users/Yushev/git/wpcqi-optiga-trust-charge/wpc/PRx\qi_auth_prx_crypt.c ****     {
 869:C:/Users/Yushev/git/wpcqi-optiga-trust-charge/wpc/PRx\qi_auth_prx_crypt.c ****         if((NULL == p_chain) || (NULL == p_crt))
 3194              	 .loc 1 869 0
 3195 0024 FB68     	 ldr r3,[r7,#12]
 3196 0026 002B     	 cmp r3,#0
 3197 0028 00F00281 	 beq .L157
 3198              	 .loc 1 869 0 is_stmt 0 discriminator 1
 3199 002c 7B68     	 ldr r3,[r7,#4]
 3200 002e 002B     	 cmp r3,#0
 3201 0030 00F0FE80 	 beq .L157
 870:C:/Users/Yushev/git/wpcqi-optiga-trust-charge/wpc/PRx\qi_auth_prx_crypt.c ****         {
 871:C:/Users/Yushev/git/wpcqi-optiga-trust-charge/wpc/PRx\qi_auth_prx_crypt.c ****             break;
 872:C:/Users/Yushev/git/wpcqi-optiga-trust-charge/wpc/PRx\qi_auth_prx_crypt.c ****         }
 873:C:/Users/Yushev/git/wpcqi-optiga-trust-charge/wpc/PRx\qi_auth_prx_crypt.c ****         //Check for length equal to zero
 874:C:/Users/Yushev/git/wpcqi-optiga-trust-charge/wpc/PRx\qi_auth_prx_crypt.c ****         if((ZERO_LENGTH == chain_size) || (QI_AUTH_MINCHAIN_LEN > chain_size) ||
 3202              	 .loc 1 874 0 is_stmt 1
 3203 0034 7B89     	 ldrh r3,[r7,#10]
 3204 0036 002B     	 cmp r3,#0
 3205 0038 06D0     	 beq .L158
 3206              	 .loc 1 874 0 is_stmt 0 discriminator 1
 3207 003a 7B89     	 ldrh r3,[r7,#10]
 3208 003c B3F5897F 	 cmp r3,#274
 3209 0040 02D3     	 bcc .L158
 3210              	 .loc 1 874 0 discriminator 2
 3211 0042 7B7A     	 ldrb r3,[r7,#9]
 3212 0044 022B     	 cmp r3,#2
 3213 0046 02D8     	 bhi .L159
 3214              	.L158:
 875:C:/Users/Yushev/git/wpcqi-optiga-trust-charge/wpc/PRx\qi_auth_prx_crypt.c ****            (QI_AUTH_MINCHAIN > max_chain_size))
 876:C:/Users/Yushev/git/wpcqi-optiga-trust-charge/wpc/PRx\qi_auth_prx_crypt.c ****         {
 877:C:/Users/Yushev/git/wpcqi-optiga-trust-charge/wpc/PRx\qi_auth_prx_crypt.c ****             status = CRYPT_LIB_LENZERO_ERROR;
 3215              	 .loc 1 877 0 is_stmt 1
 3216 0048 0423     	 movs r3,#4
 3217 004a FB83     	 strh r3,[r7,#30]
 878:C:/Users/Yushev/git/wpcqi-optiga-trust-charge/wpc/PRx\qi_auth_prx_crypt.c ****             break;
 3218              	 .loc 1 878 0
 3219 004c F0E0     	 b .L157
 3220              	.L159:
 879:C:/Users/Yushev/git/wpcqi-optiga-trust-charge/wpc/PRx\qi_auth_prx_crypt.c ****         }
 880:C:/Users/Yushev/git/wpcqi-optiga-trust-charge/wpc/PRx\qi_auth_prx_crypt.c **** 
 881:C:/Users/Yushev/git/wpcqi-optiga-trust-charge/wpc/PRx\qi_auth_prx_crypt.c ****         dev_root_hash = &p_chain[parsed_off];
 3221              	 .loc 1 881 0
 3222 004e BB8B     	 ldrh r3,[r7,#28]
 3223 0050 FA68     	 ldr r2,[r7,#12]
 3224 0052 1344     	 add r3,r3,r2
 3225 0054 7B61     	 str r3,[r7,#20]
 882:C:/Users/Yushev/git/wpcqi-optiga-trust-charge/wpc/PRx\qi_auth_prx_crypt.c **** 
 883:C:/Users/Yushev/git/wpcqi-optiga-trust-charge/wpc/PRx\qi_auth_prx_crypt.c ****         if (0 != memcmp(dev_root_hash, qi_auth_cr660_draft5_root_hash, QI_AUTH_CRT_ROOTHASH_LEN)) {
 3226              	 .loc 1 883 0
 3227 0056 7869     	 ldr r0,[r7,#20]
 3228 0058 7849     	 ldr r1,.L165
 3229 005a 2022     	 movs r2,#32
 3230 005c FFF7FEFF 	 bl memcmp
 3231 0060 0346     	 mov r3,r0
 3232 0062 002B     	 cmp r3,#0
 3233 0064 02D0     	 beq .L160
 884:C:/Users/Yushev/git/wpcqi-optiga-trust-charge/wpc/PRx\qi_auth_prx_crypt.c ****             status = CRYPT_LIB_ERROR;
 3234              	 .loc 1 884 0
 3235 0066 0123     	 movs r3,#1
 3236 0068 FB83     	 strh r3,[r7,#30]
 885:C:/Users/Yushev/git/wpcqi-optiga-trust-charge/wpc/PRx\qi_auth_prx_crypt.c ****             break;
 3237              	 .loc 1 885 0
 3238 006a E1E0     	 b .L157
 3239              	.L160:
 886:C:/Users/Yushev/git/wpcqi-optiga-trust-charge/wpc/PRx\qi_auth_prx_crypt.c ****         }
 887:C:/Users/Yushev/git/wpcqi-optiga-trust-charge/wpc/PRx\qi_auth_prx_crypt.c **** 
 888:C:/Users/Yushev/git/wpcqi-optiga-trust-charge/wpc/PRx\qi_auth_prx_crypt.c ****         memcpy(p_crt[cur_crt].p_pub_key, qi_auth_cr660_draft5_root_cert + QI_AUTH_CRT_PUBKEY_OFF, Q
 3240              	 .loc 1 888 0
 3241 006c FA7E     	 ldrb r2,[r7,#27]
 3242 006e 1346     	 mov r3,r2
 3243 0070 DB00     	 lsls r3,r3,#3
 3244 0072 1344     	 add r3,r3,r2
 3245 0074 9B00     	 lsls r3,r3,#2
 3246 0076 1A46     	 mov r2,r3
 3247 0078 7B68     	 ldr r3,[r7,#4]
 3248 007a 1344     	 add r3,r3,r2
 3249 007c 1B68     	 ldr r3,[r3]
 3250 007e 1846     	 mov r0,r3
 3251 0080 6F49     	 ldr r1,.L165+4
 3252 0082 2122     	 movs r2,#33
 3253 0084 FFF7FEFF 	 bl memcpy
 889:C:/Users/Yushev/git/wpcqi-optiga-trust-charge/wpc/PRx\qi_auth_prx_crypt.c ****         p_crt[cur_crt].pub_key_size = QI_AUTH_CRT_PUBKEY_LEN;
 3254              	 .loc 1 889 0
 3255 0088 FA7E     	 ldrb r2,[r7,#27]
 3256 008a 1346     	 mov r3,r2
 3257 008c DB00     	 lsls r3,r3,#3
 3258 008e 1344     	 add r3,r3,r2
 3259 0090 9B00     	 lsls r3,r3,#2
 3260 0092 1A46     	 mov r2,r3
 3261 0094 7B68     	 ldr r3,[r7,#4]
 3262 0096 1344     	 add r3,r3,r2
 3263 0098 2122     	 movs r2,#33
 3264 009a 1A71     	 strb r2,[r3,#4]
 890:C:/Users/Yushev/git/wpcqi-optiga-trust-charge/wpc/PRx\qi_auth_prx_crypt.c **** 
 891:C:/Users/Yushev/git/wpcqi-optiga-trust-charge/wpc/PRx\qi_auth_prx_crypt.c ****         //p_crt[cur_crt].p_cert_data = qi_auth_cr660_draft5_root_cert;
 892:C:/Users/Yushev/git/wpcqi-optiga-trust-charge/wpc/PRx\qi_auth_prx_crypt.c ****         // ToDo This should be changed to the sign offset byte read
 893:C:/Users/Yushev/git/wpcqi-optiga-trust-charge/wpc/PRx\qi_auth_prx_crypt.c ****         p_crt[cur_crt].cert_data_size = QI_AUTH_CRT_SIGN_OFF;
 3265              	 .loc 1 893 0
 3266 009c FA7E     	 ldrb r2,[r7,#27]
 3267 009e 1346     	 mov r3,r2
 3268 00a0 DB00     	 lsls r3,r3,#3
 3269 00a2 1344     	 add r3,r3,r2
 3270 00a4 9B00     	 lsls r3,r3,#2
 3271 00a6 1A46     	 mov r2,r3
 3272 00a8 7B68     	 ldr r3,[r7,#4]
 3273 00aa 1344     	 add r3,r3,r2
 3274 00ac 3922     	 movs r2,#57
 3275 00ae 9A82     	 strh r2,[r3,#20]
 894:C:/Users/Yushev/git/wpcqi-optiga-trust-charge/wpc/PRx\qi_auth_prx_crypt.c **** 
 895:C:/Users/Yushev/git/wpcqi-optiga-trust-charge/wpc/PRx\qi_auth_prx_crypt.c ****         //p_crt[cur_crt].p_cert_sign = qi_auth_cr660_draft5_root_cert + QI_AUTH_CRT_SIGN_OFF;
 896:C:/Users/Yushev/git/wpcqi-optiga-trust-charge/wpc/PRx\qi_auth_prx_crypt.c ****         p_crt[cur_crt].cert_sign_size = QI_AUTH_CRT_SIGN_LEN;
 3276              	 .loc 1 896 0
 3277 00b0 FA7E     	 ldrb r2,[r7,#27]
 3278 00b2 1346     	 mov r3,r2
 3279 00b4 DB00     	 lsls r3,r3,#3
 3280 00b6 1344     	 add r3,r3,r2
 3281 00b8 9B00     	 lsls r3,r3,#2
 3282 00ba 1A46     	 mov r2,r3
 3283 00bc 7B68     	 ldr r3,[r7,#4]
 3284 00be 1344     	 add r3,r3,r2
 3285 00c0 4022     	 movs r2,#64
 3286 00c2 1A73     	 strb r2,[r3,#12]
 897:C:/Users/Yushev/git/wpcqi-optiga-trust-charge/wpc/PRx\qi_auth_prx_crypt.c **** 
 898:C:/Users/Yushev/git/wpcqi-optiga-trust-charge/wpc/PRx\qi_auth_prx_crypt.c ****         memcpy(p_crt[cur_crt].issuer_id, qi_auth_cr660_draft5_root_cert + QI_AUTH_CRT_ISSUERID_OFF,
 3287              	 .loc 1 898 0
 3288 00c4 FA7E     	 ldrb r2,[r7,#27]
 3289 00c6 1346     	 mov r3,r2
 3290 00c8 DB00     	 lsls r3,r3,#3
 3291 00ca 1344     	 add r3,r3,r2
 3292 00cc 9B00     	 lsls r3,r3,#2
 3293 00ce 1A46     	 mov r2,r3
 3294 00d0 7B68     	 ldr r3,[r7,#4]
 3295 00d2 1344     	 add r3,r3,r2
 3296 00d4 1633     	 adds r3,r3,#22
 3297 00d6 1846     	 mov r0,r3
 3298 00d8 5A49     	 ldr r1,.L165+8
 3299 00da 0622     	 movs r2,#6
 3300 00dc FFF7FEFF 	 bl memcpy
 899:C:/Users/Yushev/git/wpcqi-optiga-trust-charge/wpc/PRx\qi_auth_prx_crypt.c **** 
 900:C:/Users/Yushev/git/wpcqi-optiga-trust-charge/wpc/PRx\qi_auth_prx_crypt.c ****         memcpy(p_crt[cur_crt].subj_id, qi_auth_cr660_draft5_root_cert + QI_AUTH_CRT_SUBJID_OFF, QI_
 3301              	 .loc 1 900 0
 3302 00e0 FA7E     	 ldrb r2,[r7,#27]
 3303 00e2 1346     	 mov r3,r2
 3304 00e4 DB00     	 lsls r3,r3,#3
 3305 00e6 1344     	 add r3,r3,r2
 3306 00e8 9B00     	 lsls r3,r3,#2
 3307 00ea 1A46     	 mov r2,r3
 3308 00ec 7B68     	 ldr r3,[r7,#4]
 3309 00ee 1344     	 add r3,r3,r2
 3310 00f0 1C33     	 adds r3,r3,#28
 3311 00f2 1846     	 mov r0,r3
 3312 00f4 5449     	 ldr r1,.L165+12
 3313 00f6 0622     	 movs r2,#6
 3314 00f8 FFF7FEFF 	 bl memcpy
 901:C:/Users/Yushev/git/wpcqi-optiga-trust-charge/wpc/PRx\qi_auth_prx_crypt.c **** 
 902:C:/Users/Yushev/git/wpcqi-optiga-trust-charge/wpc/PRx\qi_auth_prx_crypt.c ****         parsed_off += QI_AUTH_CRT_ROOTHASH_LEN;
 3315              	 .loc 1 902 0
 3316 00fc BB8B     	 ldrh r3,[r7,#28]
 3317 00fe 2033     	 adds r3,r3,#32
 3318 0100 BB83     	 strh r3,[r7,#28]
 903:C:/Users/Yushev/git/wpcqi-optiga-trust-charge/wpc/PRx\qi_auth_prx_crypt.c ****         cur_crt++;
 3319              	 .loc 1 903 0
 3320 0102 FB7E     	 ldrb r3,[r7,#27]
 3321 0104 0133     	 adds r3,r3,#1
 3322 0106 FB76     	 strb r3,[r7,#27]
 904:C:/Users/Yushev/git/wpcqi-optiga-trust-charge/wpc/PRx\qi_auth_prx_crypt.c **** 
 905:C:/Users/Yushev/git/wpcqi-optiga-trust-charge/wpc/PRx\qi_auth_prx_crypt.c ****         while (parsed_off < chain_size)
 3323              	 .loc 1 905 0
 3324 0108 8BE0     	 b .L161
 3325              	.L163:
 906:C:/Users/Yushev/git/wpcqi-optiga-trust-charge/wpc/PRx\qi_auth_prx_crypt.c ****         {
 907:C:/Users/Yushev/git/wpcqi-optiga-trust-charge/wpc/PRx\qi_auth_prx_crypt.c ****         	if ((NULL == p_crt[cur_crt].p_pub_key) || (ZERO_LENGTH == p_crt[cur_crt].pub_key_size)) {
 3326              	 .loc 1 907 0
 3327 010a FA7E     	 ldrb r2,[r7,#27]
 3328 010c 1346     	 mov r3,r2
 3329 010e DB00     	 lsls r3,r3,#3
 3330 0110 1344     	 add r3,r3,r2
 3331 0112 9B00     	 lsls r3,r3,#2
 3332 0114 1A46     	 mov r2,r3
 3333 0116 7B68     	 ldr r3,[r7,#4]
 3334 0118 1344     	 add r3,r3,r2
 3335 011a 1B68     	 ldr r3,[r3]
 3336 011c 002B     	 cmp r3,#0
 3337 011e 00F08580 	 beq .L162
 3338              	 .loc 1 907 0 is_stmt 0 discriminator 1
 3339 0122 FA7E     	 ldrb r2,[r7,#27]
 3340 0124 1346     	 mov r3,r2
 3341 0126 DB00     	 lsls r3,r3,#3
 3342 0128 1344     	 add r3,r3,r2
 3343 012a 9B00     	 lsls r3,r3,#2
 3344 012c 1A46     	 mov r2,r3
 3345 012e 7B68     	 ldr r3,[r7,#4]
 3346 0130 1344     	 add r3,r3,r2
 3347 0132 1B79     	 ldrb r3,[r3,#4]
 3348 0134 002B     	 cmp r3,#0
 3349 0136 79D0     	 beq .L162
 908:C:/Users/Yushev/git/wpcqi-optiga-trust-charge/wpc/PRx\qi_auth_prx_crypt.c ****         		break;
 909:C:/Users/Yushev/git/wpcqi-optiga-trust-charge/wpc/PRx\qi_auth_prx_crypt.c ****         	}
 910:C:/Users/Yushev/git/wpcqi-optiga-trust-charge/wpc/PRx\qi_auth_prx_crypt.c **** 			memcpy(p_crt[cur_crt].p_pub_key, &p_chain[parsed_off] + QI_AUTH_CRT_PUBKEY_OFF, QI_AUTH_CRT_PUBK
 3350              	 .loc 1 910 0 is_stmt 1
 3351 0138 FA7E     	 ldrb r2,[r7,#27]
 3352 013a 1346     	 mov r3,r2
 3353 013c DB00     	 lsls r3,r3,#3
 3354 013e 1344     	 add r3,r3,r2
 3355 0140 9B00     	 lsls r3,r3,#2
 3356 0142 1A46     	 mov r2,r3
 3357 0144 7B68     	 ldr r3,[r7,#4]
 3358 0146 1344     	 add r3,r3,r2
 3359 0148 1968     	 ldr r1,[r3]
 3360 014a BB8B     	 ldrh r3,[r7,#28]
 3361 014c 1833     	 adds r3,r3,#24
 3362 014e FA68     	 ldr r2,[r7,#12]
 3363 0150 1344     	 add r3,r3,r2
 3364 0152 0846     	 mov r0,r1
 3365 0154 1946     	 mov r1,r3
 3366 0156 2122     	 movs r2,#33
 3367 0158 FFF7FEFF 	 bl memcpy
 911:C:/Users/Yushev/git/wpcqi-optiga-trust-charge/wpc/PRx\qi_auth_prx_crypt.c **** 			p_crt[cur_crt].pub_key_size = QI_AUTH_CRT_PUBKEY_LEN;
 3368              	 .loc 1 911 0
 3369 015c FA7E     	 ldrb r2,[r7,#27]
 3370 015e 1346     	 mov r3,r2
 3371 0160 DB00     	 lsls r3,r3,#3
 3372 0162 1344     	 add r3,r3,r2
 3373 0164 9B00     	 lsls r3,r3,#2
 3374 0166 1A46     	 mov r2,r3
 3375 0168 7B68     	 ldr r3,[r7,#4]
 3376 016a 1344     	 add r3,r3,r2
 3377 016c 2122     	 movs r2,#33
 3378 016e 1A71     	 strb r2,[r3,#4]
 912:C:/Users/Yushev/git/wpcqi-optiga-trust-charge/wpc/PRx\qi_auth_prx_crypt.c **** 
 913:C:/Users/Yushev/git/wpcqi-optiga-trust-charge/wpc/PRx\qi_auth_prx_crypt.c **** 			p_crt[cur_crt].p_cert_data = &p_chain[parsed_off];
 3379              	 .loc 1 913 0
 3380 0170 FA7E     	 ldrb r2,[r7,#27]
 3381 0172 1346     	 mov r3,r2
 3382 0174 DB00     	 lsls r3,r3,#3
 3383 0176 1344     	 add r3,r3,r2
 3384 0178 9B00     	 lsls r3,r3,#2
 3385 017a 1A46     	 mov r2,r3
 3386 017c 7B68     	 ldr r3,[r7,#4]
 3387 017e 1344     	 add r3,r3,r2
 3388 0180 BA8B     	 ldrh r2,[r7,#28]
 3389 0182 F968     	 ldr r1,[r7,#12]
 3390 0184 0A44     	 add r2,r2,r1
 3391 0186 1A61     	 str r2,[r3,#16]
 914:C:/Users/Yushev/git/wpcqi-optiga-trust-charge/wpc/PRx\qi_auth_prx_crypt.c **** 			// ToDo This should be changed to the sign offset byte read
 915:C:/Users/Yushev/git/wpcqi-optiga-trust-charge/wpc/PRx\qi_auth_prx_crypt.c **** 			p_crt[cur_crt].cert_data_size = QI_AUTH_CRT_SIGN_OFF;
 3392              	 .loc 1 915 0
 3393 0188 FA7E     	 ldrb r2,[r7,#27]
 3394 018a 1346     	 mov r3,r2
 3395 018c DB00     	 lsls r3,r3,#3
 3396 018e 1344     	 add r3,r3,r2
 3397 0190 9B00     	 lsls r3,r3,#2
 3398 0192 1A46     	 mov r2,r3
 3399 0194 7B68     	 ldr r3,[r7,#4]
 3400 0196 1344     	 add r3,r3,r2
 3401 0198 3922     	 movs r2,#57
 3402 019a 9A82     	 strh r2,[r3,#20]
 916:C:/Users/Yushev/git/wpcqi-optiga-trust-charge/wpc/PRx\qi_auth_prx_crypt.c **** 
 917:C:/Users/Yushev/git/wpcqi-optiga-trust-charge/wpc/PRx\qi_auth_prx_crypt.c **** 			p_crt[cur_crt].p_cert_sign = &p_chain[parsed_off] + QI_AUTH_CRT_SIGN_OFF;
 3403              	 .loc 1 917 0
 3404 019c FA7E     	 ldrb r2,[r7,#27]
 3405 019e 1346     	 mov r3,r2
 3406 01a0 DB00     	 lsls r3,r3,#3
 3407 01a2 1344     	 add r3,r3,r2
 3408 01a4 9B00     	 lsls r3,r3,#2
 3409 01a6 1A46     	 mov r2,r3
 3410 01a8 7B68     	 ldr r3,[r7,#4]
 3411 01aa 1344     	 add r3,r3,r2
 3412 01ac BA8B     	 ldrh r2,[r7,#28]
 3413 01ae 3932     	 adds r2,r2,#57
 3414 01b0 F968     	 ldr r1,[r7,#12]
 3415 01b2 0A44     	 add r2,r2,r1
 3416 01b4 9A60     	 str r2,[r3,#8]
 918:C:/Users/Yushev/git/wpcqi-optiga-trust-charge/wpc/PRx\qi_auth_prx_crypt.c **** 			p_crt[cur_crt].cert_sign_size = QI_AUTH_CRT_SIGN_LEN;
 3417              	 .loc 1 918 0
 3418 01b6 FA7E     	 ldrb r2,[r7,#27]
 3419 01b8 1346     	 mov r3,r2
 3420 01ba DB00     	 lsls r3,r3,#3
 3421 01bc 1344     	 add r3,r3,r2
 3422 01be 9B00     	 lsls r3,r3,#2
 3423 01c0 1A46     	 mov r2,r3
 3424 01c2 7B68     	 ldr r3,[r7,#4]
 3425 01c4 1344     	 add r3,r3,r2
 3426 01c6 4022     	 movs r2,#64
 3427 01c8 1A73     	 strb r2,[r3,#12]
 919:C:/Users/Yushev/git/wpcqi-optiga-trust-charge/wpc/PRx\qi_auth_prx_crypt.c **** 
 920:C:/Users/Yushev/git/wpcqi-optiga-trust-charge/wpc/PRx\qi_auth_prx_crypt.c **** 	        memcpy(p_crt[cur_crt].issuer_id, &p_chain[parsed_off] + QI_AUTH_CRT_ISSUERID_OFF, QI_AUTH_
 3428              	 .loc 1 920 0
 3429 01ca FA7E     	 ldrb r2,[r7,#27]
 3430 01cc 1346     	 mov r3,r2
 3431 01ce DB00     	 lsls r3,r3,#3
 3432 01d0 1344     	 add r3,r3,r2
 3433 01d2 9B00     	 lsls r3,r3,#2
 3434 01d4 1A46     	 mov r2,r3
 3435 01d6 7B68     	 ldr r3,[r7,#4]
 3436 01d8 1344     	 add r3,r3,r2
 3437 01da 03F11601 	 add r1,r3,#22
 3438 01de BB8B     	 ldrh r3,[r7,#28]
 3439 01e0 0C33     	 adds r3,r3,#12
 3440 01e2 FA68     	 ldr r2,[r7,#12]
 3441 01e4 1344     	 add r3,r3,r2
 3442 01e6 0846     	 mov r0,r1
 3443 01e8 1946     	 mov r1,r3
 3444 01ea 0622     	 movs r2,#6
 3445 01ec FFF7FEFF 	 bl memcpy
 921:C:/Users/Yushev/git/wpcqi-optiga-trust-charge/wpc/PRx\qi_auth_prx_crypt.c **** 
 922:C:/Users/Yushev/git/wpcqi-optiga-trust-charge/wpc/PRx\qi_auth_prx_crypt.c **** 	        memcpy(p_crt[cur_crt].subj_id, &p_chain[parsed_off] + QI_AUTH_CRT_SUBJID_OFF, QI_AUTH_CRT_
 3446              	 .loc 1 922 0
 3447 01f0 FA7E     	 ldrb r2,[r7,#27]
 3448 01f2 1346     	 mov r3,r2
 3449 01f4 DB00     	 lsls r3,r3,#3
 3450 01f6 1344     	 add r3,r3,r2
 3451 01f8 9B00     	 lsls r3,r3,#2
 3452 01fa 1A46     	 mov r2,r3
 3453 01fc 7B68     	 ldr r3,[r7,#4]
 3454 01fe 1344     	 add r3,r3,r2
 3455 0200 03F11C01 	 add r1,r3,#28
 3456 0204 BB8B     	 ldrh r3,[r7,#28]
 3457 0206 1233     	 adds r3,r3,#18
 3458 0208 FA68     	 ldr r2,[r7,#12]
 3459 020a 1344     	 add r3,r3,r2
 3460 020c 0846     	 mov r0,r1
 3461 020e 1946     	 mov r1,r3
 3462 0210 0622     	 movs r2,#6
 3463 0212 FFF7FEFF 	 bl memcpy
 923:C:/Users/Yushev/git/wpcqi-optiga-trust-charge/wpc/PRx\qi_auth_prx_crypt.c **** 
 924:C:/Users/Yushev/git/wpcqi-optiga-trust-charge/wpc/PRx\qi_auth_prx_crypt.c **** 			cur_crt++;
 3464              	 .loc 1 924 0
 3465 0216 FB7E     	 ldrb r3,[r7,#27]
 3466 0218 0133     	 adds r3,r3,#1
 3467 021a FB76     	 strb r3,[r7,#27]
 925:C:/Users/Yushev/git/wpcqi-optiga-trust-charge/wpc/PRx\qi_auth_prx_crypt.c **** 			parsed_off += QI_AUTH_CRT_LEN;
 3468              	 .loc 1 925 0
 3469 021c BB8B     	 ldrh r3,[r7,#28]
 3470 021e 7933     	 adds r3,r3,#121
 3471 0220 BB83     	 strh r3,[r7,#28]
 3472              	.L161:
 905:C:/Users/Yushev/git/wpcqi-optiga-trust-charge/wpc/PRx\qi_auth_prx_crypt.c ****         {
 3473              	 .loc 1 905 0
 3474 0222 BA8B     	 ldrh r2,[r7,#28]
 3475 0224 7B89     	 ldrh r3,[r7,#10]
 3476 0226 9A42     	 cmp r2,r3
 3477 0228 FFF46FAF 	 bcc .L163
 3478              	.L162:
 926:C:/Users/Yushev/git/wpcqi-optiga-trust-charge/wpc/PRx\qi_auth_prx_crypt.c ****         }
 927:C:/Users/Yushev/git/wpcqi-optiga-trust-charge/wpc/PRx\qi_auth_prx_crypt.c **** 
 928:C:/Users/Yushev/git/wpcqi-optiga-trust-charge/wpc/PRx\qi_auth_prx_crypt.c **** 
 929:C:/Users/Yushev/git/wpcqi-optiga-trust-charge/wpc/PRx\qi_auth_prx_crypt.c ****         status =   CRYPT_LIB_OK;
 3479              	 .loc 1 929 0
 3480 022c 0023     	 movs r3,#0
 3481 022e FB83     	 strh r3,[r7,#30]
 3482              	.L157:
 930:C:/Users/Yushev/git/wpcqi-optiga-trust-charge/wpc/PRx\qi_auth_prx_crypt.c ****     }while(FALSE);
 931:C:/Users/Yushev/git/wpcqi-optiga-trust-charge/wpc/PRx\qi_auth_prx_crypt.c **** 
 932:C:/Users/Yushev/git/wpcqi-optiga-trust-charge/wpc/PRx\qi_auth_prx_crypt.c ****     return status;
 3483              	 .loc 1 932 0
 3484 0230 FB8B     	 ldrh r3,[r7,#30]
 933:C:/Users/Yushev/git/wpcqi-optiga-trust-charge/wpc/PRx\qi_auth_prx_crypt.c **** }
 3485              	 .loc 1 933 0
 3486 0232 1846     	 mov r0,r3
 3487 0234 2037     	 adds r7,r7,#32
 3488              	.LCFI79:
 3489              	 .cfi_def_cfa_offset 8
 3490 0236 BD46     	 mov sp,r7
 3491              	.LCFI80:
 3492              	 .cfi_def_cfa_register 13
 3493              	 
 3494 0238 80BD     	 pop {r7,pc}
 3495              	.L166:
 3496 023a 00BF     	 .align 2
 3497              	.L165:
 3498 023c 00000000 	 .word qi_auth_cr660_draft5_root_hash
 3499 0240 18000000 	 .word qi_auth_cr660_draft5_root_cert+24
 3500 0244 0C000000 	 .word qi_auth_cr660_draft5_root_cert+12
 3501 0248 12000000 	 .word qi_auth_cr660_draft5_root_cert+18
 3502              	 .cfi_endproc
 3503              	.LFE15:
 3505              	 .text
 3506              	.Letext0:
 3507              	 .file 2 "c:\\users\\yushev\\dave_4-4-2_32bit_2018-02-23\\dave-ide-4.4.2-32bit\\eclipse\\arm-gcc-49\\lib\\gcc\\arm-none-eabi\\4.9.3\\include\\stddef.h"
 3508              	 .file 3 "c:\\users\\yushev\\dave_4-4-2_32bit_2018-02-23\\dave-ide-4.4.2-32bit\\eclipse\\arm-gcc-49\\arm-none-eabi\\include\\machine\\_default_types.h"
 3509              	 .file 4 "c:\\users\\yushev\\dave_4-4-2_32bit_2018-02-23\\dave-ide-4.4.2-32bit\\eclipse\\arm-gcc-49\\arm-none-eabi\\include\\stdint.h"
 3510              	 .file 5 "C:/Users/Yushev/git/wpcqi-optiga-trust-charge/optiga/externals/mbedtls/include/mbedtls/bignum.h"
 3511              	 .file 6 "C:/Users/Yushev/git/wpcqi-optiga-trust-charge/optiga/externals/mbedtls/include/mbedtls/ecp.h"
 3512              	 .file 7 "C:/Users/Yushev/git/wpcqi-optiga-trust-charge/optiga/optiga/include/optiga/common/optiga_lib_types.h"
 3513              	 .file 8 "C:/Users/Yushev/git/wpcqi-optiga-trust-charge/optiga/optiga/include/optiga/common/optiga_lib_common.h"
 3514              	 .file 9 "C:/Users/Yushev/git/wpcqi-optiga-trust-charge/optiga/optiga/include/optiga/cmd/optiga_cmd.h"
 3515              	 .file 10 "C:/Users/Yushev/git/wpcqi-optiga-trust-charge/optiga/optiga/include/optiga/optiga_crypt.h"
 3516              	 .file 11 "C:/Users/Yushev/git/wpcqi-optiga-trust-charge/optiga/optiga/include/optiga/optiga_util.h"
 3517              	 .file 12 "C:/Users/Yushev/git/wpcqi-optiga-trust-charge/wpc/PRx/qi_auth_prx_crypt.h"
 3518              	 .file 13 "C:/Users/Yushev/git/wpcqi-optiga-trust-charge/wpc/qi_auth_fixtures.h"