   1              	 .syntax unified
   2              	 .cpu cortex-m4
   3              	 .eabi_attribute 27,3
   4              	 .fpu fpv4-sp-d16
   5              	 .eabi_attribute 20,1
   6              	 .eabi_attribute 21,1
   7              	 .eabi_attribute 23,3
   8              	 .eabi_attribute 24,1
   9              	 .eabi_attribute 25,1
  10              	 .eabi_attribute 26,1
  11              	 .eabi_attribute 30,6
  12              	 .eabi_attribute 34,1
  13              	 .eabi_attribute 18,4
  14              	 .thumb
  15              	 .file "qi_auth_prx.c"
  16              	 .text
  17              	.Ltext0:
  18              	 .cfi_sections .debug_frame
  19              	 .section .text.qi_auth_prx_get_digests,"ax",%progbits
  20              	 .align 2
  21              	 .global qi_auth_prx_get_digests
  22              	 .thumb
  23              	 .thumb_func
  25              	qi_auth_prx_get_digests:
  26              	.LFB0:
  27              	 .file 1 "C:/Users/Yushev/git/wpcqi-optiga-trust-charge/wpc/PRx/qi_auth_prx.c"
   1:C:/Users/Yushev/git/wpcqi-optiga-trust-charge/wpc/PRx\qi_auth_prx.c **** /**
   2:C:/Users/Yushev/git/wpcqi-optiga-trust-charge/wpc/PRx\qi_auth_prx.c **** * MIT License
   3:C:/Users/Yushev/git/wpcqi-optiga-trust-charge/wpc/PRx\qi_auth_prx.c **** *
   4:C:/Users/Yushev/git/wpcqi-optiga-trust-charge/wpc/PRx\qi_auth_prx.c **** * Copyright (c) 2020 Infineon Technologies AG
   5:C:/Users/Yushev/git/wpcqi-optiga-trust-charge/wpc/PRx\qi_auth_prx.c **** *
   6:C:/Users/Yushev/git/wpcqi-optiga-trust-charge/wpc/PRx\qi_auth_prx.c **** * Permission is hereby granted, free of charge, to any person obtaining a copy
   7:C:/Users/Yushev/git/wpcqi-optiga-trust-charge/wpc/PRx\qi_auth_prx.c **** * of this software and associated documentation files (the "Software"), to deal
   8:C:/Users/Yushev/git/wpcqi-optiga-trust-charge/wpc/PRx\qi_auth_prx.c **** * in the Software without restriction, including without limitation the rights
   9:C:/Users/Yushev/git/wpcqi-optiga-trust-charge/wpc/PRx\qi_auth_prx.c **** * to use, copy, modify, merge, publish, distribute, sublicense, and/or sell
  10:C:/Users/Yushev/git/wpcqi-optiga-trust-charge/wpc/PRx\qi_auth_prx.c **** * copies of the Software, and to permit persons to whom the Software is
  11:C:/Users/Yushev/git/wpcqi-optiga-trust-charge/wpc/PRx\qi_auth_prx.c **** * furnished to do so, subject to the following conditions:
  12:C:/Users/Yushev/git/wpcqi-optiga-trust-charge/wpc/PRx\qi_auth_prx.c **** *
  13:C:/Users/Yushev/git/wpcqi-optiga-trust-charge/wpc/PRx\qi_auth_prx.c **** * The above copyright notice and this permission notice shall be included in all
  14:C:/Users/Yushev/git/wpcqi-optiga-trust-charge/wpc/PRx\qi_auth_prx.c **** * copies or substantial portions of the Software.
  15:C:/Users/Yushev/git/wpcqi-optiga-trust-charge/wpc/PRx\qi_auth_prx.c **** *
  16:C:/Users/Yushev/git/wpcqi-optiga-trust-charge/wpc/PRx\qi_auth_prx.c **** * THE SOFTWARE IS PROVIDED "AS IS", WITHOUT WARRANTY OF ANY KIND, EXPRESS OR
  17:C:/Users/Yushev/git/wpcqi-optiga-trust-charge/wpc/PRx\qi_auth_prx.c **** * IMPLIED, INCLUDING BUT NOT LIMITED TO THE WARRANTIES OF MERCHANTABILITY,
  18:C:/Users/Yushev/git/wpcqi-optiga-trust-charge/wpc/PRx\qi_auth_prx.c **** * FITNESS FOR A PARTICULAR PURPOSE AND NONINFRINGEMENT. IN NO EVENT SHALL THE
  19:C:/Users/Yushev/git/wpcqi-optiga-trust-charge/wpc/PRx\qi_auth_prx.c **** * AUTHORS OR COPYRIGHT HOLDERS BE LIABLE FOR ANY CLAIM, DAMAGES OR OTHER
  20:C:/Users/Yushev/git/wpcqi-optiga-trust-charge/wpc/PRx\qi_auth_prx.c **** * LIABILITY, WHETHER IN AN ACTION OF CONTRACT, TORT OR OTHERWISE, ARISING FROM,
  21:C:/Users/Yushev/git/wpcqi-optiga-trust-charge/wpc/PRx\qi_auth_prx.c **** * OUT OF OR IN CONNECTION WITH THE SOFTWARE OR THE USE OR OTHER DEALINGS IN THE
  22:C:/Users/Yushev/git/wpcqi-optiga-trust-charge/wpc/PRx\qi_auth_prx.c **** * SOFTWARE
  23:C:/Users/Yushev/git/wpcqi-optiga-trust-charge/wpc/PRx\qi_auth_prx.c **** *
  24:C:/Users/Yushev/git/wpcqi-optiga-trust-charge/wpc/PRx\qi_auth_prx.c **** *
  25:C:/Users/Yushev/git/wpcqi-optiga-trust-charge/wpc/PRx\qi_auth_prx.c **** *
  26:C:/Users/Yushev/git/wpcqi-optiga-trust-charge/wpc/PRx\qi_auth_prx.c **** * \file    qi_auth_prx.c
  27:C:/Users/Yushev/git/wpcqi-optiga-trust-charge/wpc/PRx\qi_auth_prx.c **** *
  28:C:/Users/Yushev/git/wpcqi-optiga-trust-charge/wpc/PRx\qi_auth_prx.c **** * \brief   This file implements the APIs, types and data structures for WPC Qi Auth Rel 1.3 impleme
  29:C:/Users/Yushev/git/wpcqi-optiga-trust-charge/wpc/PRx\qi_auth_prx.c **** *
  30:C:/Users/Yushev/git/wpcqi-optiga-trust-charge/wpc/PRx\qi_auth_prx.c **** */
  31:C:/Users/Yushev/git/wpcqi-optiga-trust-charge/wpc/PRx\qi_auth_prx.c **** 
  32:C:/Users/Yushev/git/wpcqi-optiga-trust-charge/wpc/PRx\qi_auth_prx.c **** #include "qi_auth_prx.h"
  33:C:/Users/Yushev/git/wpcqi-optiga-trust-charge/wpc/PRx\qi_auth_prx.c **** #include "qi_auth_prx_crypt.h"
  34:C:/Users/Yushev/git/wpcqi-optiga-trust-charge/wpc/PRx\qi_auth_prx.c **** 
  35:C:/Users/Yushev/git/wpcqi-optiga-trust-charge/wpc/PRx\qi_auth_prx.c **** #include "optiga/common/optiga_lib_logger.h"
  36:C:/Users/Yushev/git/wpcqi-optiga-trust-charge/wpc/PRx\qi_auth_prx.c **** 
  37:C:/Users/Yushev/git/wpcqi-optiga-trust-charge/wpc/PRx\qi_auth_prx.c **** #define QI_AUTH_PROTO_VER                   0x1
  38:C:/Users/Yushev/git/wpcqi-optiga-trust-charge/wpc/PRx\qi_auth_prx.c **** 
  39:C:/Users/Yushev/git/wpcqi-optiga-trust-charge/wpc/PRx\qi_auth_prx.c **** #define MSGTYPE_RESP_DIGESTS                0x1
  40:C:/Users/Yushev/git/wpcqi-optiga-trust-charge/wpc/PRx\qi_auth_prx.c **** #define MSGTYPE_RESP_CERTIFICATE            0x2
  41:C:/Users/Yushev/git/wpcqi-optiga-trust-charge/wpc/PRx\qi_auth_prx.c **** #define MSGTYPE_RESP_CHALLENGE_AUTH         0x3
  42:C:/Users/Yushev/git/wpcqi-optiga-trust-charge/wpc/PRx\qi_auth_prx.c **** #define MSGTYPE_RESP_ERROR                  0x7
  43:C:/Users/Yushev/git/wpcqi-optiga-trust-charge/wpc/PRx\qi_auth_prx.c **** 
  44:C:/Users/Yushev/git/wpcqi-optiga-trust-charge/wpc/PRx\qi_auth_prx.c **** #define MSGTYPE_REQ_GET_DIGESTS             0x9
  45:C:/Users/Yushev/git/wpcqi-optiga-trust-charge/wpc/PRx\qi_auth_prx.c **** #define MSGTYPE_REQ_GET_CERTIFICATE         0xA
  46:C:/Users/Yushev/git/wpcqi-optiga-trust-charge/wpc/PRx\qi_auth_prx.c **** #define MSGTYPE_REQ_CHALLENGE               0xB
  47:C:/Users/Yushev/git/wpcqi-optiga-trust-charge/wpc/PRx\qi_auth_prx.c **** #define MSGTYPE_REQ_HANDOVER                0xC
  48:C:/Users/Yushev/git/wpcqi-optiga-trust-charge/wpc/PRx\qi_auth_prx.c **** 
  49:C:/Users/Yushev/git/wpcqi-optiga-trust-charge/wpc/PRx\qi_auth_prx.c **** #define MAX_CERTIFICATE_OFFSET              (3*256 + 1023)
  50:C:/Users/Yushev/git/wpcqi-optiga-trust-charge/wpc/PRx\qi_auth_prx.c **** #define MAX_CERTIFICATE_LENGTH              (3*256 + 1023)
  51:C:/Users/Yushev/git/wpcqi-optiga-trust-charge/wpc/PRx\qi_auth_prx.c **** 
  52:C:/Users/Yushev/git/wpcqi-optiga-trust-charge/wpc/PRx\qi_auth_prx.c **** uint16_t qi_auth_prx_get_digests(uint8_t ptx, uint8_t slot, uint8_t* p_req, uint16_t* req_size)
  53:C:/Users/Yushev/git/wpcqi-optiga-trust-charge/wpc/PRx\qi_auth_prx.c **** {
  28              	 .loc 1 53 0
  29              	 .cfi_startproc
  30              	 
  31              	 
  32              	 
  33 0000 80B4     	 push {r7}
  34              	.LCFI0:
  35              	 .cfi_def_cfa_offset 4
  36              	 .cfi_offset 7,-4
  37 0002 87B0     	 sub sp,sp,#28
  38              	.LCFI1:
  39              	 .cfi_def_cfa_offset 32
  40 0004 00AF     	 add r7,sp,#0
  41              	.LCFI2:
  42              	 .cfi_def_cfa_register 7
  43 0006 BA60     	 str r2,[r7,#8]
  44 0008 7B60     	 str r3,[r7,#4]
  45 000a 0346     	 mov r3,r0
  46 000c FB73     	 strb r3,[r7,#15]
  47 000e 0B46     	 mov r3,r1
  48 0010 BB73     	 strb r3,[r7,#14]
  54:C:/Users/Yushev/git/wpcqi-optiga-trust-charge/wpc/PRx\qi_auth_prx.c ****     uint16_t return_status = CRYPT_LIB_ERROR;
  49              	 .loc 1 54 0
  50 0012 0123     	 movs r3,#1
  51 0014 FB82     	 strh r3,[r7,#22]
  55:C:/Users/Yushev/git/wpcqi-optiga-trust-charge/wpc/PRx\qi_auth_prx.c **** 
  56:C:/Users/Yushev/git/wpcqi-optiga-trust-charge/wpc/PRx\qi_auth_prx.c ****     do {
  57:C:/Users/Yushev/git/wpcqi-optiga-trust-charge/wpc/PRx\qi_auth_prx.c ****         if (0 != slot)
  52              	 .loc 1 57 0
  53 0016 BB7B     	 ldrb r3,[r7,#14]
  54 0018 002B     	 cmp r3,#0
  55 001a 00D0     	 beq .L2
  58:C:/Users/Yushev/git/wpcqi-optiga-trust-charge/wpc/PRx\qi_auth_prx.c ****             break;
  56              	 .loc 1 58 0
  57 001c 1CE0     	 b .L3
  58              	.L2:
  59:C:/Users/Yushev/git/wpcqi-optiga-trust-charge/wpc/PRx\qi_auth_prx.c **** 
  60:C:/Users/Yushev/git/wpcqi-optiga-trust-charge/wpc/PRx\qi_auth_prx.c ****         if (NULL == p_req)
  59              	 .loc 1 60 0
  60 001e BB68     	 ldr r3,[r7,#8]
  61 0020 002B     	 cmp r3,#0
  62 0022 00D1     	 bne .L4
  61:C:/Users/Yushev/git/wpcqi-optiga-trust-charge/wpc/PRx\qi_auth_prx.c ****             break;
  63              	 .loc 1 61 0
  64 0024 18E0     	 b .L3
  65              	.L4:
  62:C:/Users/Yushev/git/wpcqi-optiga-trust-charge/wpc/PRx\qi_auth_prx.c **** 
  63:C:/Users/Yushev/git/wpcqi-optiga-trust-charge/wpc/PRx\qi_auth_prx.c ****         if (0 == req_size)
  66              	 .loc 1 63 0
  67 0026 7B68     	 ldr r3,[r7,#4]
  68 0028 002B     	 cmp r3,#0
  69 002a 00D1     	 bne .L5
  64:C:/Users/Yushev/git/wpcqi-optiga-trust-charge/wpc/PRx\qi_auth_prx.c ****             break;
  70              	 .loc 1 64 0
  71 002c 14E0     	 b .L3
  72              	.L5:
  65:C:/Users/Yushev/git/wpcqi-optiga-trust-charge/wpc/PRx\qi_auth_prx.c **** 
  66:C:/Users/Yushev/git/wpcqi-optiga-trust-charge/wpc/PRx\qi_auth_prx.c ****         // Version and Message type
  67:C:/Users/Yushev/git/wpcqi-optiga-trust-charge/wpc/PRx\qi_auth_prx.c ****         p_req[0] = (QI_AUTH_PROTO_VER << 4) | MSGTYPE_REQ_GET_DIGESTS;
  73              	 .loc 1 67 0
  74 002e BB68     	 ldr r3,[r7,#8]
  75 0030 1922     	 movs r2,#25
  76 0032 1A70     	 strb r2,[r3]
  68:C:/Users/Yushev/git/wpcqi-optiga-trust-charge/wpc/PRx\qi_auth_prx.c **** 
  69:C:/Users/Yushev/git/wpcqi-optiga-trust-charge/wpc/PRx\qi_auth_prx.c ****         //Reserved [3] + PTX[1] + Slot Mask[4]
  70:C:/Users/Yushev/git/wpcqi-optiga-trust-charge/wpc/PRx\qi_auth_prx.c ****         p_req[1] = (ptx << 4) | (0xf & slot) ;
  77              	 .loc 1 70 0
  78 0034 BB68     	 ldr r3,[r7,#8]
  79 0036 0133     	 adds r3,r3,#1
  80 0038 FA7B     	 ldrb r2,[r7,#15]
  81 003a 1201     	 lsls r2,r2,#4
  82 003c D1B2     	 uxtb r1,r2
  83 003e BA7B     	 ldrb r2,[r7,#14]
  84 0040 02F00F02 	 and r2,r2,#15
  85 0044 D2B2     	 uxtb r2,r2
  86 0046 0A43     	 orrs r2,r2,r1
  87 0048 D2B2     	 uxtb r2,r2
  88 004a D2B2     	 uxtb r2,r2
  89 004c 1A70     	 strb r2,[r3]
  71:C:/Users/Yushev/git/wpcqi-optiga-trust-charge/wpc/PRx\qi_auth_prx.c **** 
  72:C:/Users/Yushev/git/wpcqi-optiga-trust-charge/wpc/PRx\qi_auth_prx.c ****         *req_size = 2;
  90              	 .loc 1 72 0
  91 004e 7B68     	 ldr r3,[r7,#4]
  92 0050 0222     	 movs r2,#2
  93 0052 1A80     	 strh r2,[r3]
  73:C:/Users/Yushev/git/wpcqi-optiga-trust-charge/wpc/PRx\qi_auth_prx.c **** 
  74:C:/Users/Yushev/git/wpcqi-optiga-trust-charge/wpc/PRx\qi_auth_prx.c ****         return_status = CRYPT_LIB_OK;
  94              	 .loc 1 74 0
  95 0054 0023     	 movs r3,#0
  96 0056 FB82     	 strh r3,[r7,#22]
  97              	.L3:
  75:C:/Users/Yushev/git/wpcqi-optiga-trust-charge/wpc/PRx\qi_auth_prx.c **** 
  76:C:/Users/Yushev/git/wpcqi-optiga-trust-charge/wpc/PRx\qi_auth_prx.c ****     }while(0);
  77:C:/Users/Yushev/git/wpcqi-optiga-trust-charge/wpc/PRx\qi_auth_prx.c **** 
  78:C:/Users/Yushev/git/wpcqi-optiga-trust-charge/wpc/PRx\qi_auth_prx.c ****     return return_status;
  98              	 .loc 1 78 0
  99 0058 FB8A     	 ldrh r3,[r7,#22]
  79:C:/Users/Yushev/git/wpcqi-optiga-trust-charge/wpc/PRx\qi_auth_prx.c **** }
 100              	 .loc 1 79 0
 101 005a 1846     	 mov r0,r3
 102 005c 1C37     	 adds r7,r7,#28
 103              	.LCFI3:
 104              	 .cfi_def_cfa_offset 4
 105 005e BD46     	 mov sp,r7
 106              	.LCFI4:
 107              	 .cfi_def_cfa_register 13
 108              	 
 109 0060 5DF8047B 	 ldr r7,[sp],#4
 110              	.LCFI5:
 111              	 .cfi_restore 7
 112              	 .cfi_def_cfa_offset 0
 113 0064 7047     	 bx lr
 114              	 .cfi_endproc
 115              	.LFE0:
 117 0066 00BF     	 .section .text.qi_auth_prx_get_certificate,"ax",%progbits
 118              	 .align 2
 119              	 .global qi_auth_prx_get_certificate
 120              	 .thumb
 121              	 .thumb_func
 123              	qi_auth_prx_get_certificate:
 124              	.LFB1:
  80:C:/Users/Yushev/git/wpcqi-optiga-trust-charge/wpc/PRx\qi_auth_prx.c **** 
  81:C:/Users/Yushev/git/wpcqi-optiga-trust-charge/wpc/PRx\qi_auth_prx.c **** uint16_t qi_auth_prx_get_certificate(uint32_t offset, uint32_t length, uint8_t ptx, uint8_t slot,
  82:C:/Users/Yushev/git/wpcqi-optiga-trust-charge/wpc/PRx\qi_auth_prx.c ****                                             uint8_t* p_req, uint16_t* req_size)
  83:C:/Users/Yushev/git/wpcqi-optiga-trust-charge/wpc/PRx\qi_auth_prx.c **** {
 125              	 .loc 1 83 0
 126              	 .cfi_startproc
 127              	 
 128              	 
 129              	 
 130 0000 80B4     	 push {r7}
 131              	.LCFI6:
 132              	 .cfi_def_cfa_offset 4
 133              	 .cfi_offset 7,-4
 134 0002 87B0     	 sub sp,sp,#28
 135              	.LCFI7:
 136              	 .cfi_def_cfa_offset 32
 137 0004 00AF     	 add r7,sp,#0
 138              	.LCFI8:
 139              	 .cfi_def_cfa_register 7
 140 0006 F860     	 str r0,[r7,#12]
 141 0008 B960     	 str r1,[r7,#8]
 142 000a 1146     	 mov r1,r2
 143 000c 1A46     	 mov r2,r3
 144 000e 0B46     	 mov r3,r1
 145 0010 FB71     	 strb r3,[r7,#7]
 146 0012 1346     	 mov r3,r2
 147 0014 BB71     	 strb r3,[r7,#6]
  84:C:/Users/Yushev/git/wpcqi-optiga-trust-charge/wpc/PRx\qi_auth_prx.c ****     uint16_t  return_status = CRYPT_LIB_ERROR;
 148              	 .loc 1 84 0
 149 0016 0123     	 movs r3,#1
 150 0018 FB82     	 strh r3,[r7,#22]
  85:C:/Users/Yushev/git/wpcqi-optiga-trust-charge/wpc/PRx\qi_auth_prx.c ****     uint8_t offset98 = 0;
 151              	 .loc 1 85 0
 152 001a 0023     	 movs r3,#0
 153 001c 7B75     	 strb r3,[r7,#21]
  86:C:/Users/Yushev/git/wpcqi-optiga-trust-charge/wpc/PRx\qi_auth_prx.c ****     uint8_t offset70 = 0;
 154              	 .loc 1 86 0
 155 001e 0023     	 movs r3,#0
 156 0020 3B75     	 strb r3,[r7,#20]
  87:C:/Users/Yushev/git/wpcqi-optiga-trust-charge/wpc/PRx\qi_auth_prx.c ****     uint8_t length98 = 0;
 157              	 .loc 1 87 0
 158 0022 0023     	 movs r3,#0
 159 0024 FB74     	 strb r3,[r7,#19]
  88:C:/Users/Yushev/git/wpcqi-optiga-trust-charge/wpc/PRx\qi_auth_prx.c ****     uint8_t length70 = 0;
 160              	 .loc 1 88 0
 161 0026 0023     	 movs r3,#0
 162 0028 BB74     	 strb r3,[r7,#18]
  89:C:/Users/Yushev/git/wpcqi-optiga-trust-charge/wpc/PRx\qi_auth_prx.c **** 
  90:C:/Users/Yushev/git/wpcqi-optiga-trust-charge/wpc/PRx\qi_auth_prx.c ****     do {
  91:C:/Users/Yushev/git/wpcqi-optiga-trust-charge/wpc/PRx\qi_auth_prx.c **** 
  92:C:/Users/Yushev/git/wpcqi-optiga-trust-charge/wpc/PRx\qi_auth_prx.c ****         if ((offset > MAX_CERTIFICATE_OFFSET) || (length > MAX_CERTIFICATE_OFFSET) ||
 163              	 .loc 1 92 0
 164 002a FB68     	 ldr r3,[r7,#12]
 165 002c B3F5E06F 	 cmp r3,#1792
 166 0030 41D2     	 bcs .L8
 167              	 .loc 1 92 0 is_stmt 0 discriminator 1
 168 0032 BB68     	 ldr r3,[r7,#8]
 169 0034 B3F5E06F 	 cmp r3,#1792
 170 0038 3DD2     	 bcs .L8
 171              	 .loc 1 92 0 discriminator 2
 172 003a BB79     	 ldrb r3,[r7,#6]
 173 003c 002B     	 cmp r3,#0
 174 003e 3AD1     	 bne .L8
  93:C:/Users/Yushev/git/wpcqi-optiga-trust-charge/wpc/PRx\qi_auth_prx.c ****             (0 != slot) || (NULL == p_req) || (0 == req_size))
 175              	 .loc 1 93 0 is_stmt 1
 176 0040 3B6A     	 ldr r3,[r7,#32]
 177 0042 002B     	 cmp r3,#0
 178 0044 37D0     	 beq .L8
 179              	 .loc 1 93 0 is_stmt 0 discriminator 1
 180 0046 7B6A     	 ldr r3,[r7,#36]
 181 0048 002B     	 cmp r3,#0
 182 004a 34D0     	 beq .L8
  94:C:/Users/Yushev/git/wpcqi-optiga-trust-charge/wpc/PRx\qi_auth_prx.c ****             break;
  95:C:/Users/Yushev/git/wpcqi-optiga-trust-charge/wpc/PRx\qi_auth_prx.c **** 
  96:C:/Users/Yushev/git/wpcqi-optiga-trust-charge/wpc/PRx\qi_auth_prx.c ****         offset98 = offset >> 8;
 183              	 .loc 1 96 0 is_stmt 1
 184 004c FB68     	 ldr r3,[r7,#12]
 185 004e 1B0A     	 lsrs r3,r3,#8
 186 0050 7B75     	 strb r3,[r7,#21]
  97:C:/Users/Yushev/git/wpcqi-optiga-trust-charge/wpc/PRx\qi_auth_prx.c ****         offset70 = offset - (offset98 << 8);
 187              	 .loc 1 97 0
 188 0052 FB68     	 ldr r3,[r7,#12]
 189 0054 3B75     	 strb r3,[r7,#20]
  98:C:/Users/Yushev/git/wpcqi-optiga-trust-charge/wpc/PRx\qi_auth_prx.c **** 
  99:C:/Users/Yushev/git/wpcqi-optiga-trust-charge/wpc/PRx\qi_auth_prx.c ****         length98 = length >> 8;
 190              	 .loc 1 99 0
 191 0056 BB68     	 ldr r3,[r7,#8]
 192 0058 1B0A     	 lsrs r3,r3,#8
 193 005a FB74     	 strb r3,[r7,#19]
 100:C:/Users/Yushev/git/wpcqi-optiga-trust-charge/wpc/PRx\qi_auth_prx.c ****         length70 = length - (length98 << 8);
 194              	 .loc 1 100 0
 195 005c BB68     	 ldr r3,[r7,#8]
 196 005e BB74     	 strb r3,[r7,#18]
 101:C:/Users/Yushev/git/wpcqi-optiga-trust-charge/wpc/PRx\qi_auth_prx.c **** 
 102:C:/Users/Yushev/git/wpcqi-optiga-trust-charge/wpc/PRx\qi_auth_prx.c ****         // Version and Message type
 103:C:/Users/Yushev/git/wpcqi-optiga-trust-charge/wpc/PRx\qi_auth_prx.c ****         p_req[0] = (QI_AUTH_PROTO_VER << 4) | MSGTYPE_REQ_GET_CERTIFICATE;
 197              	 .loc 1 103 0
 198 0060 3B6A     	 ldr r3,[r7,#32]
 199 0062 1A22     	 movs r2,#26
 200 0064 1A70     	 strb r2,[r3]
 104:C:/Users/Yushev/git/wpcqi-optiga-trust-charge/wpc/PRx\qi_auth_prx.c **** 
 105:C:/Users/Yushev/git/wpcqi-optiga-trust-charge/wpc/PRx\qi_auth_prx.c ****         // Offset98[2]+ Length98[2] + Reserved[1] + PTx[1] + Slot Number [2]
 106:C:/Users/Yushev/git/wpcqi-optiga-trust-charge/wpc/PRx\qi_auth_prx.c ****         p_req[1] = ((0x3 & offset98) << 6) | ((0x3 & length98) << 4) |
 201              	 .loc 1 106 0
 202 0066 3B6A     	 ldr r3,[r7,#32]
 203 0068 0133     	 adds r3,r3,#1
 204 006a 7A7D     	 ldrb r2,[r7,#21]
 205 006c 9201     	 lsls r2,r2,#6
 206 006e D1B2     	 uxtb r1,r2
 207 0070 FA7C     	 ldrb r2,[r7,#19]
 208 0072 02F00302 	 and r2,r2,#3
 209 0076 1201     	 lsls r2,r2,#4
 210 0078 D2B2     	 uxtb r2,r2
 211 007a 0A43     	 orrs r2,r2,r1
 212 007c D1B2     	 uxtb r1,r2
 107:C:/Users/Yushev/git/wpcqi-optiga-trust-charge/wpc/PRx\qi_auth_prx.c ****                     (0 << 3) | ((0x1 & ptx) << 3) | (0x3 & slot);
 213              	 .loc 1 107 0
 214 007e FA79     	 ldrb r2,[r7,#7]
 215 0080 02F00102 	 and r2,r2,#1
 216 0084 D200     	 lsls r2,r2,#3
 106:C:/Users/Yushev/git/wpcqi-optiga-trust-charge/wpc/PRx\qi_auth_prx.c ****                     (0 << 3) | ((0x1 & ptx) << 3) | (0x3 & slot);
 217              	 .loc 1 106 0
 218 0086 D2B2     	 uxtb r2,r2
 219 0088 0A43     	 orrs r2,r2,r1
 220 008a D1B2     	 uxtb r1,r2
 221 008c BA79     	 ldrb r2,[r7,#6]
 222 008e 02F00302 	 and r2,r2,#3
 223 0092 D2B2     	 uxtb r2,r2
 224 0094 0A43     	 orrs r2,r2,r1
 225 0096 D2B2     	 uxtb r2,r2
 226 0098 D2B2     	 uxtb r2,r2
 227 009a 1A70     	 strb r2,[r3]
 108:C:/Users/Yushev/git/wpcqi-optiga-trust-charge/wpc/PRx\qi_auth_prx.c **** 
 109:C:/Users/Yushev/git/wpcqi-optiga-trust-charge/wpc/PRx\qi_auth_prx.c ****         // Offset70
 110:C:/Users/Yushev/git/wpcqi-optiga-trust-charge/wpc/PRx\qi_auth_prx.c ****         p_req[2] =  offset70;
 228              	 .loc 1 110 0
 229 009c 3B6A     	 ldr r3,[r7,#32]
 230 009e 0233     	 adds r3,r3,#2
 231 00a0 3A7D     	 ldrb r2,[r7,#20]
 232 00a2 1A70     	 strb r2,[r3]
 111:C:/Users/Yushev/git/wpcqi-optiga-trust-charge/wpc/PRx\qi_auth_prx.c **** 
 112:C:/Users/Yushev/git/wpcqi-optiga-trust-charge/wpc/PRx\qi_auth_prx.c ****         // Length70
 113:C:/Users/Yushev/git/wpcqi-optiga-trust-charge/wpc/PRx\qi_auth_prx.c ****         p_req[3] =  length70;
 233              	 .loc 1 113 0
 234 00a4 3B6A     	 ldr r3,[r7,#32]
 235 00a6 0333     	 adds r3,r3,#3
 236 00a8 BA7C     	 ldrb r2,[r7,#18]
 237 00aa 1A70     	 strb r2,[r3]
 114:C:/Users/Yushev/git/wpcqi-optiga-trust-charge/wpc/PRx\qi_auth_prx.c **** 
 115:C:/Users/Yushev/git/wpcqi-optiga-trust-charge/wpc/PRx\qi_auth_prx.c ****         *req_size = 4;
 238              	 .loc 1 115 0
 239 00ac 7B6A     	 ldr r3,[r7,#36]
 240 00ae 0422     	 movs r2,#4
 241 00b0 1A80     	 strh r2,[r3]
 116:C:/Users/Yushev/git/wpcqi-optiga-trust-charge/wpc/PRx\qi_auth_prx.c **** 
 117:C:/Users/Yushev/git/wpcqi-optiga-trust-charge/wpc/PRx\qi_auth_prx.c ****         return_status = CRYPT_LIB_OK;
 242              	 .loc 1 117 0
 243 00b2 0023     	 movs r3,#0
 244 00b4 FB82     	 strh r3,[r7,#22]
 245              	.L8:
 118:C:/Users/Yushev/git/wpcqi-optiga-trust-charge/wpc/PRx\qi_auth_prx.c **** 
 119:C:/Users/Yushev/git/wpcqi-optiga-trust-charge/wpc/PRx\qi_auth_prx.c ****     }while(0);
 120:C:/Users/Yushev/git/wpcqi-optiga-trust-charge/wpc/PRx\qi_auth_prx.c **** 
 121:C:/Users/Yushev/git/wpcqi-optiga-trust-charge/wpc/PRx\qi_auth_prx.c ****     return return_status;
 246              	 .loc 1 121 0
 247 00b6 FB8A     	 ldrh r3,[r7,#22]
 122:C:/Users/Yushev/git/wpcqi-optiga-trust-charge/wpc/PRx\qi_auth_prx.c **** }
 248              	 .loc 1 122 0
 249 00b8 1846     	 mov r0,r3
 250 00ba 1C37     	 adds r7,r7,#28
 251              	.LCFI9:
 252              	 .cfi_def_cfa_offset 4
 253 00bc BD46     	 mov sp,r7
 254              	.LCFI10:
 255              	 .cfi_def_cfa_register 13
 256              	 
 257 00be 5DF8047B 	 ldr r7,[sp],#4
 258              	.LCFI11:
 259              	 .cfi_restore 7
 260              	 .cfi_def_cfa_offset 0
 261 00c2 7047     	 bx lr
 262              	 .cfi_endproc
 263              	.LFE1:
 265              	 .section .text.qi_auth_prx_challenge,"ax",%progbits
 266              	 .align 2
 267              	 .global qi_auth_prx_challenge
 268              	 .thumb
 269              	 .thumb_func
 271              	qi_auth_prx_challenge:
 272              	.LFB2:
 123:C:/Users/Yushev/git/wpcqi-optiga-trust-charge/wpc/PRx\qi_auth_prx.c **** 
 124:C:/Users/Yushev/git/wpcqi-optiga-trust-charge/wpc/PRx\qi_auth_prx.c **** uint16_t qi_auth_prx_challenge(uint8_t ptx, uint8_t slot, uint8_t* p_req, uint16_t* req_size)
 125:C:/Users/Yushev/git/wpcqi-optiga-trust-charge/wpc/PRx\qi_auth_prx.c **** {
 273              	 .loc 1 125 0
 274              	 .cfi_startproc
 275              	 
 276              	 
 277 0000 80B5     	 push {r7,lr}
 278              	.LCFI12:
 279              	 .cfi_def_cfa_offset 8
 280              	 .cfi_offset 7,-8
 281              	 .cfi_offset 14,-4
 282 0002 86B0     	 sub sp,sp,#24
 283              	.LCFI13:
 284              	 .cfi_def_cfa_offset 32
 285 0004 00AF     	 add r7,sp,#0
 286              	.LCFI14:
 287              	 .cfi_def_cfa_register 7
 288 0006 BA60     	 str r2,[r7,#8]
 289 0008 7B60     	 str r3,[r7,#4]
 290 000a 0346     	 mov r3,r0
 291 000c FB73     	 strb r3,[r7,#15]
 292 000e 0B46     	 mov r3,r1
 293 0010 BB73     	 strb r3,[r7,#14]
 126:C:/Users/Yushev/git/wpcqi-optiga-trust-charge/wpc/PRx\qi_auth_prx.c ****     uint16_t return_status = CRYPT_LIB_ERROR;
 294              	 .loc 1 126 0
 295 0012 0123     	 movs r3,#1
 296 0014 FB82     	 strh r3,[r7,#22]
 127:C:/Users/Yushev/git/wpcqi-optiga-trust-charge/wpc/PRx\qi_auth_prx.c **** 
 128:C:/Users/Yushev/git/wpcqi-optiga-trust-charge/wpc/PRx\qi_auth_prx.c ****     do {
 129:C:/Users/Yushev/git/wpcqi-optiga-trust-charge/wpc/PRx\qi_auth_prx.c ****         if (0 != slot)
 297              	 .loc 1 129 0
 298 0016 BB7B     	 ldrb r3,[r7,#14]
 299 0018 002B     	 cmp r3,#0
 300 001a 00D0     	 beq .L11
 130:C:/Users/Yushev/git/wpcqi-optiga-trust-charge/wpc/PRx\qi_auth_prx.c ****             break;
 301              	 .loc 1 130 0
 302 001c 2EE0     	 b .L12
 303              	.L11:
 131:C:/Users/Yushev/git/wpcqi-optiga-trust-charge/wpc/PRx\qi_auth_prx.c **** 
 132:C:/Users/Yushev/git/wpcqi-optiga-trust-charge/wpc/PRx\qi_auth_prx.c ****         if (NULL == p_req)
 304              	 .loc 1 132 0
 305 001e BB68     	 ldr r3,[r7,#8]
 306 0020 002B     	 cmp r3,#0
 307 0022 00D1     	 bne .L13
 133:C:/Users/Yushev/git/wpcqi-optiga-trust-charge/wpc/PRx\qi_auth_prx.c ****             break;
 308              	 .loc 1 133 0
 309 0024 2AE0     	 b .L12
 310              	.L13:
 134:C:/Users/Yushev/git/wpcqi-optiga-trust-charge/wpc/PRx\qi_auth_prx.c **** 
 135:C:/Users/Yushev/git/wpcqi-optiga-trust-charge/wpc/PRx\qi_auth_prx.c ****         if ((NULL == req_size) || ( 2 > *req_size))
 311              	 .loc 1 135 0
 312 0026 7B68     	 ldr r3,[r7,#4]
 313 0028 002B     	 cmp r3,#0
 314 002a 27D0     	 beq .L12
 315              	 .loc 1 135 0 is_stmt 0 discriminator 1
 316 002c 7B68     	 ldr r3,[r7,#4]
 317 002e 1B88     	 ldrh r3,[r3]
 318 0030 012B     	 cmp r3,#1
 319 0032 23D9     	 bls .L12
 136:C:/Users/Yushev/git/wpcqi-optiga-trust-charge/wpc/PRx\qi_auth_prx.c ****             break;
 137:C:/Users/Yushev/git/wpcqi-optiga-trust-charge/wpc/PRx\qi_auth_prx.c **** 
 138:C:/Users/Yushev/git/wpcqi-optiga-trust-charge/wpc/PRx\qi_auth_prx.c ****         // Version and Message type
 139:C:/Users/Yushev/git/wpcqi-optiga-trust-charge/wpc/PRx\qi_auth_prx.c ****         p_req[0] = (QI_AUTH_PROTO_VER << 4) | MSGTYPE_REQ_CHALLENGE;
 320              	 .loc 1 139 0 is_stmt 1
 321 0034 BB68     	 ldr r3,[r7,#8]
 322 0036 1B22     	 movs r2,#27
 323 0038 1A70     	 strb r2,[r3]
 140:C:/Users/Yushev/git/wpcqi-optiga-trust-charge/wpc/PRx\qi_auth_prx.c **** 
 141:C:/Users/Yushev/git/wpcqi-optiga-trust-charge/wpc/PRx\qi_auth_prx.c ****         //Reserved [3] + PTX[1] + Slot Mask[4]
 142:C:/Users/Yushev/git/wpcqi-optiga-trust-charge/wpc/PRx\qi_auth_prx.c ****         p_req[1] = (ptx << 4) | (0xf & slot) ;
 324              	 .loc 1 142 0
 325 003a BB68     	 ldr r3,[r7,#8]
 326 003c 0133     	 adds r3,r3,#1
 327 003e FA7B     	 ldrb r2,[r7,#15]
 328 0040 1201     	 lsls r2,r2,#4
 329 0042 D1B2     	 uxtb r1,r2
 330 0044 BA7B     	 ldrb r2,[r7,#14]
 331 0046 02F00F02 	 and r2,r2,#15
 332 004a D2B2     	 uxtb r2,r2
 333 004c 0A43     	 orrs r2,r2,r1
 334 004e D2B2     	 uxtb r2,r2
 335 0050 D2B2     	 uxtb r2,r2
 336 0052 1A70     	 strb r2,[r3]
 143:C:/Users/Yushev/git/wpcqi-optiga-trust-charge/wpc/PRx\qi_auth_prx.c **** 
 144:C:/Users/Yushev/git/wpcqi-optiga-trust-charge/wpc/PRx\qi_auth_prx.c ****         //128bit Nonce
 145:C:/Users/Yushev/git/wpcqi-optiga-trust-charge/wpc/PRx\qi_auth_prx.c ****         return_status = qi_auth_prx_crypt_get_random(16, &p_req[2], *req_size - 2);
 337              	 .loc 1 145 0
 338 0054 BB68     	 ldr r3,[r7,#8]
 339 0056 9A1C     	 adds r2,r3,#2
 340 0058 7B68     	 ldr r3,[r7,#4]
 341 005a 1B88     	 ldrh r3,[r3]
 342 005c 023B     	 subs r3,r3,#2
 343 005e 9BB2     	 uxth r3,r3
 344 0060 1020     	 movs r0,#16
 345 0062 1146     	 mov r1,r2
 346 0064 1A46     	 mov r2,r3
 347 0066 FFF7FEFF 	 bl qi_auth_prx_crypt_get_random
 348 006a 0346     	 mov r3,r0
 349 006c FB82     	 strh r3,[r7,#22]
 146:C:/Users/Yushev/git/wpcqi-optiga-trust-charge/wpc/PRx\qi_auth_prx.c ****         if (return_status != CRYPT_LIB_OK)
 350              	 .loc 1 146 0
 351 006e FB8A     	 ldrh r3,[r7,#22]
 352 0070 002B     	 cmp r3,#0
 353 0072 00D0     	 beq .L14
 147:C:/Users/Yushev/git/wpcqi-optiga-trust-charge/wpc/PRx\qi_auth_prx.c ****             break;
 354              	 .loc 1 147 0
 355 0074 02E0     	 b .L12
 356              	.L14:
 148:C:/Users/Yushev/git/wpcqi-optiga-trust-charge/wpc/PRx\qi_auth_prx.c **** 
 149:C:/Users/Yushev/git/wpcqi-optiga-trust-charge/wpc/PRx\qi_auth_prx.c ****         *req_size = 18;
 357              	 .loc 1 149 0
 358 0076 7B68     	 ldr r3,[r7,#4]
 359 0078 1222     	 movs r2,#18
 360 007a 1A80     	 strh r2,[r3]
 361              	.L12:
 150:C:/Users/Yushev/git/wpcqi-optiga-trust-charge/wpc/PRx\qi_auth_prx.c **** 
 151:C:/Users/Yushev/git/wpcqi-optiga-trust-charge/wpc/PRx\qi_auth_prx.c ****     }while(0);
 152:C:/Users/Yushev/git/wpcqi-optiga-trust-charge/wpc/PRx\qi_auth_prx.c **** 
 153:C:/Users/Yushev/git/wpcqi-optiga-trust-charge/wpc/PRx\qi_auth_prx.c ****     return return_status;
 362              	 .loc 1 153 0
 363 007c FB8A     	 ldrh r3,[r7,#22]
 154:C:/Users/Yushev/git/wpcqi-optiga-trust-charge/wpc/PRx\qi_auth_prx.c **** }
 364              	 .loc 1 154 0
 365 007e 1846     	 mov r0,r3
 366 0080 1837     	 adds r7,r7,#24
 367              	.LCFI15:
 368              	 .cfi_def_cfa_offset 8
 369 0082 BD46     	 mov sp,r7
 370              	.LCFI16:
 371              	 .cfi_def_cfa_register 13
 372              	 
 373 0084 80BD     	 pop {r7,pc}
 374              	 .cfi_endproc
 375              	.LFE2:
 377 0086 00BF     	 .section .text.qi_auth_prx_handover,"ax",%progbits
 378              	 .align 2
 379              	 .global qi_auth_prx_handover
 380              	 .thumb
 381              	 .thumb_func
 383              	qi_auth_prx_handover:
 384              	.LFB3:
 155:C:/Users/Yushev/git/wpcqi-optiga-trust-charge/wpc/PRx\qi_auth_prx.c **** 
 156:C:/Users/Yushev/git/wpcqi-optiga-trust-charge/wpc/PRx\qi_auth_prx.c **** uint16_t qi_auth_prx_handover(uint8_t* p_req, uint16_t* req_size)
 157:C:/Users/Yushev/git/wpcqi-optiga-trust-charge/wpc/PRx\qi_auth_prx.c **** {
 385              	 .loc 1 157 0
 386              	 .cfi_startproc
 387              	 
 388              	 
 389              	 
 390 0000 80B4     	 push {r7}
 391              	.LCFI17:
 392              	 .cfi_def_cfa_offset 4
 393              	 .cfi_offset 7,-4
 394 0002 85B0     	 sub sp,sp,#20
 395              	.LCFI18:
 396              	 .cfi_def_cfa_offset 24
 397 0004 00AF     	 add r7,sp,#0
 398              	.LCFI19:
 399              	 .cfi_def_cfa_register 7
 400 0006 7860     	 str r0,[r7,#4]
 401 0008 3960     	 str r1,[r7]
 158:C:/Users/Yushev/git/wpcqi-optiga-trust-charge/wpc/PRx\qi_auth_prx.c ****     uint16_t return_status = CRYPT_LIB_ERROR;
 402              	 .loc 1 158 0
 403 000a 0123     	 movs r3,#1
 404 000c FB81     	 strh r3,[r7,#14]
 159:C:/Users/Yushev/git/wpcqi-optiga-trust-charge/wpc/PRx\qi_auth_prx.c **** 
 160:C:/Users/Yushev/git/wpcqi-optiga-trust-charge/wpc/PRx\qi_auth_prx.c ****     do {
 161:C:/Users/Yushev/git/wpcqi-optiga-trust-charge/wpc/PRx\qi_auth_prx.c ****         if (NULL == p_req)
 405              	 .loc 1 161 0
 406 000e 7B68     	 ldr r3,[r7,#4]
 407 0010 002B     	 cmp r3,#0
 408 0012 00D1     	 bne .L17
 162:C:/Users/Yushev/git/wpcqi-optiga-trust-charge/wpc/PRx\qi_auth_prx.c ****             break;
 409              	 .loc 1 162 0
 410 0014 0BE0     	 b .L18
 411              	.L17:
 163:C:/Users/Yushev/git/wpcqi-optiga-trust-charge/wpc/PRx\qi_auth_prx.c **** 
 164:C:/Users/Yushev/git/wpcqi-optiga-trust-charge/wpc/PRx\qi_auth_prx.c ****         if (0 == req_size)
 412              	 .loc 1 164 0
 413 0016 3B68     	 ldr r3,[r7]
 414 0018 002B     	 cmp r3,#0
 415 001a 00D1     	 bne .L19
 165:C:/Users/Yushev/git/wpcqi-optiga-trust-charge/wpc/PRx\qi_auth_prx.c ****             break;
 416              	 .loc 1 165 0
 417 001c 07E0     	 b .L18
 418              	.L19:
 166:C:/Users/Yushev/git/wpcqi-optiga-trust-charge/wpc/PRx\qi_auth_prx.c **** 
 167:C:/Users/Yushev/git/wpcqi-optiga-trust-charge/wpc/PRx\qi_auth_prx.c ****         // Version and Message type
 168:C:/Users/Yushev/git/wpcqi-optiga-trust-charge/wpc/PRx\qi_auth_prx.c ****         p_req[0] = (QI_AUTH_PROTO_VER << 4) | MSGTYPE_REQ_HANDOVER;
 419              	 .loc 1 168 0
 420 001e 7B68     	 ldr r3,[r7,#4]
 421 0020 1C22     	 movs r2,#28
 422 0022 1A70     	 strb r2,[r3]
 169:C:/Users/Yushev/git/wpcqi-optiga-trust-charge/wpc/PRx\qi_auth_prx.c **** 
 170:C:/Users/Yushev/git/wpcqi-optiga-trust-charge/wpc/PRx\qi_auth_prx.c ****         *req_size = 1;
 423              	 .loc 1 170 0
 424 0024 3B68     	 ldr r3,[r7]
 425 0026 0122     	 movs r2,#1
 426 0028 1A80     	 strh r2,[r3]
 171:C:/Users/Yushev/git/wpcqi-optiga-trust-charge/wpc/PRx\qi_auth_prx.c **** 
 172:C:/Users/Yushev/git/wpcqi-optiga-trust-charge/wpc/PRx\qi_auth_prx.c ****         return_status = CRYPT_LIB_OK;
 427              	 .loc 1 172 0
 428 002a 0023     	 movs r3,#0
 429 002c FB81     	 strh r3,[r7,#14]
 430              	.L18:
 173:C:/Users/Yushev/git/wpcqi-optiga-trust-charge/wpc/PRx\qi_auth_prx.c **** 
 174:C:/Users/Yushev/git/wpcqi-optiga-trust-charge/wpc/PRx\qi_auth_prx.c ****     }while(0);
 175:C:/Users/Yushev/git/wpcqi-optiga-trust-charge/wpc/PRx\qi_auth_prx.c **** 
 176:C:/Users/Yushev/git/wpcqi-optiga-trust-charge/wpc/PRx\qi_auth_prx.c ****     return return_status;
 431              	 .loc 1 176 0
 432 002e FB89     	 ldrh r3,[r7,#14]
 177:C:/Users/Yushev/git/wpcqi-optiga-trust-charge/wpc/PRx\qi_auth_prx.c **** }
 433              	 .loc 1 177 0
 434 0030 1846     	 mov r0,r3
 435 0032 1437     	 adds r7,r7,#20
 436              	.LCFI20:
 437              	 .cfi_def_cfa_offset 4
 438 0034 BD46     	 mov sp,r7
 439              	.LCFI21:
 440              	 .cfi_def_cfa_register 13
 441              	 
 442 0036 5DF8047B 	 ldr r7,[sp],#4
 443              	.LCFI22:
 444              	 .cfi_restore 7
 445              	 .cfi_def_cfa_offset 0
 446 003a 7047     	 bx lr
 447              	 .cfi_endproc
 448              	.LFE3:
 450              	 .section .text.qi_auth_prx_verify_chall_auth,"ax",%progbits
 451              	 .align 2
 452              	 .global qi_auth_prx_verify_chall_auth
 453              	 .thumb
 454              	 .thumb_func
 456              	qi_auth_prx_verify_chall_auth:
 457              	.LFB4:
 178:C:/Users/Yushev/git/wpcqi-optiga-trust-charge/wpc/PRx\qi_auth_prx.c **** 
 179:C:/Users/Yushev/git/wpcqi-optiga-trust-charge/wpc/PRx\qi_auth_prx.c **** uint16_t qi_auth_prx_verify_chall_auth(uint8_t* p_certchain, uint16_t certchain_size,
 180:C:/Users/Yushev/git/wpcqi-optiga-trust-charge/wpc/PRx\qi_auth_prx.c ****                                           uint8_t* p_chall, uint16_t chall_size,
 181:C:/Users/Yushev/git/wpcqi-optiga-trust-charge/wpc/PRx\qi_auth_prx.c ****                                           uint8_t* p_challauth, uint16_t challauth_size)
 182:C:/Users/Yushev/git/wpcqi-optiga-trust-charge/wpc/PRx\qi_auth_prx.c **** {
 458              	 .loc 1 182 0
 459              	 .cfi_startproc
 460              	 
 461              	 
 462 0000 80B5     	 push {r7,lr}
 463              	.LCFI23:
 464              	 .cfi_def_cfa_offset 8
 465              	 .cfi_offset 7,-8
 466              	 .cfi_offset 14,-4
 467 0002 9AB0     	 sub sp,sp,#104
 468              	.LCFI24:
 469              	 .cfi_def_cfa_offset 112
 470 0004 00AF     	 add r7,sp,#0
 471              	.LCFI25:
 472              	 .cfi_def_cfa_register 7
 473 0006 F860     	 str r0,[r7,#12]
 474 0008 7A60     	 str r2,[r7,#4]
 475 000a 1A46     	 mov r2,r3
 476 000c 0B46     	 mov r3,r1
 477 000e 7B81     	 strh r3,[r7,#10]
 478 0010 1346     	 mov r3,r2
 479 0012 3B81     	 strh r3,[r7,#8]
 183:C:/Users/Yushev/git/wpcqi-optiga-trust-charge/wpc/PRx\qi_auth_prx.c ****     uint16_t return_status = CRYPT_LIB_ERROR;
 480              	 .loc 1 183 0
 481 0014 0123     	 movs r3,#1
 482 0016 A7F86630 	 strh r3,[r7,#102]
 184:C:/Users/Yushev/git/wpcqi-optiga-trust-charge/wpc/PRx\qi_auth_prx.c ****     signature_container_t sign_vector;
 185:C:/Users/Yushev/git/wpcqi-optiga-trust-charge/wpc/PRx\qi_auth_prx.c ****     uint8_t signed_msg[54] = {0x41};
 483              	 .loc 1 185 0
 484 001a 07F11403 	 add r3,r7,#20
 485 001e 0022     	 movs r2,#0
 486 0020 1A60     	 str r2,[r3]
 487 0022 0433     	 adds r3,r3,#4
 488 0024 0022     	 movs r2,#0
 489 0026 1A60     	 str r2,[r3]
 490 0028 0433     	 adds r3,r3,#4
 491 002a 0022     	 movs r2,#0
 492 002c 1A60     	 str r2,[r3]
 493 002e 0433     	 adds r3,r3,#4
 494 0030 0022     	 movs r2,#0
 495 0032 1A60     	 str r2,[r3]
 496 0034 0433     	 adds r3,r3,#4
 497 0036 0022     	 movs r2,#0
 498 0038 1A60     	 str r2,[r3]
 499 003a 0433     	 adds r3,r3,#4
 500 003c 0022     	 movs r2,#0
 501 003e 1A60     	 str r2,[r3]
 502 0040 0433     	 adds r3,r3,#4
 503 0042 0022     	 movs r2,#0
 504 0044 1A60     	 str r2,[r3]
 505 0046 0433     	 adds r3,r3,#4
 506 0048 0022     	 movs r2,#0
 507 004a 1A60     	 str r2,[r3]
 508 004c 0433     	 adds r3,r3,#4
 509 004e 0022     	 movs r2,#0
 510 0050 1A60     	 str r2,[r3]
 511 0052 0433     	 adds r3,r3,#4
 512 0054 0022     	 movs r2,#0
 513 0056 1A60     	 str r2,[r3]
 514 0058 0433     	 adds r3,r3,#4
 515 005a 0022     	 movs r2,#0
 516 005c 1A60     	 str r2,[r3]
 517 005e 0433     	 adds r3,r3,#4
 518 0060 0022     	 movs r2,#0
 519 0062 1A60     	 str r2,[r3]
 520 0064 0433     	 adds r3,r3,#4
 521 0066 0022     	 movs r2,#0
 522 0068 1A60     	 str r2,[r3]
 523 006a 0433     	 adds r3,r3,#4
 524 006c 0022     	 movs r2,#0
 525 006e 1A80     	 strh r2,[r3]
 526 0070 0233     	 adds r3,r3,#2
 527 0072 4123     	 movs r3,#65
 528 0074 3B75     	 strb r3,[r7,#20]
 186:C:/Users/Yushev/git/wpcqi-optiga-trust-charge/wpc/PRx\qi_auth_prx.c ****     //uint8_t digest_signed_msg[32];
 187:C:/Users/Yushev/git/wpcqi-optiga-trust-charge/wpc/PRx\qi_auth_prx.c **** 
 188:C:/Users/Yushev/git/wpcqi-optiga-trust-charge/wpc/PRx\qi_auth_prx.c ****     do {
 189:C:/Users/Yushev/git/wpcqi-optiga-trust-charge/wpc/PRx\qi_auth_prx.c **** 
 190:C:/Users/Yushev/git/wpcqi-optiga-trust-charge/wpc/PRx\qi_auth_prx.c ****         if ((NULL == p_certchain) || (0 == certchain_size) ||
 529              	 .loc 1 190 0
 530 0076 FB68     	 ldr r3,[r7,#12]
 531 0078 002B     	 cmp r3,#0
 532 007a 4AD0     	 beq .L22
 533              	 .loc 1 190 0 is_stmt 0 discriminator 1
 534 007c 7B89     	 ldrh r3,[r7,#10]
 535 007e 002B     	 cmp r3,#0
 536 0080 47D0     	 beq .L22
 537              	 .loc 1 190 0 discriminator 2
 538 0082 7B68     	 ldr r3,[r7,#4]
 539 0084 002B     	 cmp r3,#0
 540 0086 44D0     	 beq .L22
 191:C:/Users/Yushev/git/wpcqi-optiga-trust-charge/wpc/PRx\qi_auth_prx.c ****             (NULL == p_chall) || (0 == chall_size) ||
 541              	 .loc 1 191 0 is_stmt 1
 542 0088 3B89     	 ldrh r3,[r7,#8]
 543 008a 002B     	 cmp r3,#0
 544 008c 41D0     	 beq .L22
 545              	 .loc 1 191 0 is_stmt 0 discriminator 1
 546 008e 3B6F     	 ldr r3,[r7,#112]
 547 0090 002B     	 cmp r3,#0
 548 0092 3ED0     	 beq .L22
 192:C:/Users/Yushev/git/wpcqi-optiga-trust-charge/wpc/PRx\qi_auth_prx.c ****             (NULL == p_challauth) || (0 == challauth_size))
 549              	 .loc 1 192 0 is_stmt 1
 550 0094 B7F87430 	 ldrh r3,[r7,#116]
 551 0098 002B     	 cmp r3,#0
 552 009a 3AD0     	 beq .L22
 193:C:/Users/Yushev/git/wpcqi-optiga-trust-charge/wpc/PRx\qi_auth_prx.c ****             break;
 194:C:/Users/Yushev/git/wpcqi-optiga-trust-charge/wpc/PRx\qi_auth_prx.c **** 
 195:C:/Users/Yushev/git/wpcqi-optiga-trust-charge/wpc/PRx\qi_auth_prx.c ****         //Getting the signature
 196:C:/Users/Yushev/git/wpcqi-optiga-trust-charge/wpc/PRx\qi_auth_prx.c ****         sign_vector.p_signature = &p_challauth[3];
 553              	 .loc 1 196 0
 554 009c 3B6F     	 ldr r3,[r7,#112]
 555 009e 0333     	 adds r3,r3,#3
 556 00a0 7B65     	 str r3,[r7,#84]
 197:C:/Users/Yushev/git/wpcqi-optiga-trust-charge/wpc/PRx\qi_auth_prx.c ****         sign_vector.signature_size = 64;
 557              	 .loc 1 197 0
 558 00a2 4023     	 movs r3,#64
 559 00a4 87F85830 	 strb r3,[r7,#88]
 198:C:/Users/Yushev/git/wpcqi-optiga-trust-charge/wpc/PRx\qi_auth_prx.c **** 
 199:C:/Users/Yushev/git/wpcqi-optiga-trust-charge/wpc/PRx\qi_auth_prx.c ****         //Getting the Public key
 200:C:/Users/Yushev/git/wpcqi-optiga-trust-charge/wpc/PRx\qi_auth_prx.c ****         sign_vector.p_public_key = &p_certchain[QI_AUTH_CRT_ROOTHASH_LEN + QI_AUTH_CRT_LEN + QI_AUT
 560              	 .loc 1 200 0
 561 00a8 FB68     	 ldr r3,[r7,#12]
 562 00aa B333     	 adds r3,r3,#179
 563 00ac FB64     	 str r3,[r7,#76]
 201:C:/Users/Yushev/git/wpcqi-optiga-trust-charge/wpc/PRx\qi_auth_prx.c ****         sign_vector.public_key_size = 33;
 564              	 .loc 1 201 0
 565 00ae 2123     	 movs r3,#33
 566 00b0 87F85030 	 strb r3,[r7,#80]
 202:C:/Users/Yushev/git/wpcqi-optiga-trust-charge/wpc/PRx\qi_auth_prx.c **** 
 203:C:/Users/Yushev/git/wpcqi-optiga-trust-charge/wpc/PRx\qi_auth_prx.c ****         //Calculating hash of the chain
 204:C:/Users/Yushev/git/wpcqi-optiga-trust-charge/wpc/PRx\qi_auth_prx.c ****         qi_auth_prx_crypt_generate_sha256(p_certchain, certchain_size, &signed_msg[1]);
 567              	 .loc 1 204 0
 568 00b4 7A89     	 ldrh r2,[r7,#10]
 569 00b6 07F11403 	 add r3,r7,#20
 570 00ba 0133     	 adds r3,r3,#1
 571 00bc F868     	 ldr r0,[r7,#12]
 572 00be 1146     	 mov r1,r2
 573 00c0 1A46     	 mov r2,r3
 574 00c2 FFF7FEFF 	 bl qi_auth_prx_crypt_generate_sha256
 205:C:/Users/Yushev/git/wpcqi-optiga-trust-charge/wpc/PRx\qi_auth_prx.c **** 
 206:C:/Users/Yushev/git/wpcqi-optiga-trust-charge/wpc/PRx\qi_auth_prx.c ****         // Copy Challenge Request
 207:C:/Users/Yushev/git/wpcqi-optiga-trust-charge/wpc/PRx\qi_auth_prx.c ****         memcpy(&signed_msg[1 + 32], p_chall, 18);
 575              	 .loc 1 207 0
 576 00c6 07F11403 	 add r3,r7,#20
 577 00ca 2133     	 adds r3,r3,#33
 578 00cc 1846     	 mov r0,r3
 579 00ce 7968     	 ldr r1,[r7,#4]
 580 00d0 1222     	 movs r2,#18
 581 00d2 FFF7FEFF 	 bl memcpy
 208:C:/Users/Yushev/git/wpcqi-optiga-trust-charge/wpc/PRx\qi_auth_prx.c **** 
 209:C:/Users/Yushev/git/wpcqi-optiga-trust-charge/wpc/PRx\qi_auth_prx.c ****         // Copy Challenge Auth response
 210:C:/Users/Yushev/git/wpcqi-optiga-trust-charge/wpc/PRx\qi_auth_prx.c ****         memcpy(&signed_msg[1 + 32 + 18], p_challauth, 3);
 582              	 .loc 1 210 0
 583 00d6 07F11403 	 add r3,r7,#20
 584 00da 3333     	 adds r3,r3,#51
 585 00dc 1846     	 mov r0,r3
 586 00de 396F     	 ldr r1,[r7,#112]
 587 00e0 0322     	 movs r2,#3
 588 00e2 FFF7FEFF 	 bl memcpy
 211:C:/Users/Yushev/git/wpcqi-optiga-trust-charge/wpc/PRx\qi_auth_prx.c **** 
 212:C:/Users/Yushev/git/wpcqi-optiga-trust-charge/wpc/PRx\qi_auth_prx.c ****         sign_vector.p_message = signed_msg;
 589              	 .loc 1 212 0
 590 00e6 07F11403 	 add r3,r7,#20
 591 00ea FB65     	 str r3,[r7,#92]
 213:C:/Users/Yushev/git/wpcqi-optiga-trust-charge/wpc/PRx\qi_auth_prx.c ****         sign_vector.message_size = sizeof(signed_msg);
 592              	 .loc 1 213 0
 593 00ec 3623     	 movs r3,#54
 594 00ee A7F86030 	 strh r3,[r7,#96]
 214:C:/Users/Yushev/git/wpcqi-optiga-trust-charge/wpc/PRx\qi_auth_prx.c **** 
 215:C:/Users/Yushev/git/wpcqi-optiga-trust-charge/wpc/PRx\qi_auth_prx.c ****         return_status = qi_auth_prx_crypt_verify_signature(&sign_vector);
 595              	 .loc 1 215 0
 596 00f2 07F14C03 	 add r3,r7,#76
 597 00f6 1846     	 mov r0,r3
 598 00f8 FFF7FEFF 	 bl qi_auth_prx_crypt_verify_signature
 599 00fc 0346     	 mov r3,r0
 600 00fe A7F86630 	 strh r3,[r7,#102]
 216:C:/Users/Yushev/git/wpcqi-optiga-trust-charge/wpc/PRx\qi_auth_prx.c ****         if(CRYPT_LIB_OK != return_status)
 601              	 .loc 1 216 0
 602 0102 B7F86630 	 ldrh r3,[r7,#102]
 603 0106 002B     	 cmp r3,#0
 604 0108 00D0     	 beq .L23
 217:C:/Users/Yushev/git/wpcqi-optiga-trust-charge/wpc/PRx\qi_auth_prx.c ****         {
 218:C:/Users/Yushev/git/wpcqi-optiga-trust-charge/wpc/PRx\qi_auth_prx.c ****             break;
 605              	 .loc 1 218 0
 606 010a 02E0     	 b .L22
 607              	.L23:
 219:C:/Users/Yushev/git/wpcqi-optiga-trust-charge/wpc/PRx\qi_auth_prx.c ****         }
 220:C:/Users/Yushev/git/wpcqi-optiga-trust-charge/wpc/PRx\qi_auth_prx.c ****         return_status = CRYPT_LIB_OK;
 608              	 .loc 1 220 0
 609 010c 0023     	 movs r3,#0
 610 010e A7F86630 	 strh r3,[r7,#102]
 611              	.L22:
 221:C:/Users/Yushev/git/wpcqi-optiga-trust-charge/wpc/PRx\qi_auth_prx.c ****     }while(0);
 222:C:/Users/Yushev/git/wpcqi-optiga-trust-charge/wpc/PRx\qi_auth_prx.c **** 
 223:C:/Users/Yushev/git/wpcqi-optiga-trust-charge/wpc/PRx\qi_auth_prx.c ****     return return_status;
 612              	 .loc 1 223 0
 613 0112 B7F86630 	 ldrh r3,[r7,#102]
 224:C:/Users/Yushev/git/wpcqi-optiga-trust-charge/wpc/PRx\qi_auth_prx.c **** }
 614              	 .loc 1 224 0
 615 0116 1846     	 mov r0,r3
 616 0118 6837     	 adds r7,r7,#104
 617              	.LCFI26:
 618              	 .cfi_def_cfa_offset 8
 619 011a BD46     	 mov sp,r7
 620              	.LCFI27:
 621              	 .cfi_def_cfa_register 13
 622              	 
 623 011c 80BD     	 pop {r7,pc}
 624              	 .cfi_endproc
 625              	.LFE4:
 627 011e 00BF     	 .section .text.qi_auth_prx_verify_cert,"ax",%progbits
 628              	 .align 2
 629              	 .global qi_auth_prx_verify_cert
 630              	 .thumb
 631              	 .thumb_func
 633              	qi_auth_prx_verify_cert:
 634              	.LFB5:
 225:C:/Users/Yushev/git/wpcqi-optiga-trust-charge/wpc/PRx\qi_auth_prx.c **** 
 226:C:/Users/Yushev/git/wpcqi-optiga-trust-charge/wpc/PRx\qi_auth_prx.c **** uint16_t qi_auth_prx_verify_cert(uint8_t* p_certchain, uint16_t chain_size)
 227:C:/Users/Yushev/git/wpcqi-optiga-trust-charge/wpc/PRx\qi_auth_prx.c **** {
 635              	 .loc 1 227 0
 636              	 .cfi_startproc
 637              	 
 638              	 
 639 0000 80B5     	 push {r7,lr}
 640              	.LCFI28:
 641              	 .cfi_def_cfa_offset 8
 642              	 .cfi_offset 7,-8
 643              	 .cfi_offset 14,-4
 644 0002 8CB0     	 sub sp,sp,#48
 645              	.LCFI29:
 646              	 .cfi_def_cfa_offset 56
 647 0004 00AF     	 add r7,sp,#0
 648              	.LCFI30:
 649              	 .cfi_def_cfa_register 7
 650 0006 7860     	 str r0,[r7,#4]
 651 0008 0B46     	 mov r3,r1
 652 000a 7B80     	 strh r3,[r7,#2]
 228:C:/Users/Yushev/git/wpcqi-optiga-trust-charge/wpc/PRx\qi_auth_prx.c ****     uint16_t return_status = CRYPT_LIB_ERROR;
 653              	 .loc 1 228 0
 654 000c 0123     	 movs r3,#1
 655 000e FB85     	 strh r3,[r7,#46]
 229:C:/Users/Yushev/git/wpcqi-optiga-trust-charge/wpc/PRx\qi_auth_prx.c ****     uint8_t raw_pubkey[0x21];
 230:C:/Users/Yushev/git/wpcqi-optiga-trust-charge/wpc/PRx\qi_auth_prx.c **** 
 231:C:/Users/Yushev/git/wpcqi-optiga-trust-charge/wpc/PRx\qi_auth_prx.c ****     do {
 232:C:/Users/Yushev/git/wpcqi-optiga-trust-charge/wpc/PRx\qi_auth_prx.c ****         return_status = qi_auth_prx_crypt_verify_certchain(p_certchain, chain_size, raw_pubkey, 0x2
 656              	 .loc 1 232 0
 657 0010 7A88     	 ldrh r2,[r7,#2]
 658 0012 07F10C03 	 add r3,r7,#12
 659 0016 7868     	 ldr r0,[r7,#4]
 660 0018 1146     	 mov r1,r2
 661 001a 1A46     	 mov r2,r3
 662 001c 2123     	 movs r3,#33
 663 001e FFF7FEFF 	 bl qi_auth_prx_crypt_verify_certchain
 664 0022 0346     	 mov r3,r0
 665 0024 FB85     	 strh r3,[r7,#46]
 233:C:/Users/Yushev/git/wpcqi-optiga-trust-charge/wpc/PRx\qi_auth_prx.c ****         if(CRYPT_LIB_OK != return_status)
 666              	 .loc 1 233 0
 667 0026 FB8D     	 ldrh r3,[r7,#46]
 668 0028 002B     	 cmp r3,#0
 669 002a 00D0     	 beq .L26
 234:C:/Users/Yushev/git/wpcqi-optiga-trust-charge/wpc/PRx\qi_auth_prx.c ****         {
 235:C:/Users/Yushev/git/wpcqi-optiga-trust-charge/wpc/PRx\qi_auth_prx.c ****             break;
 670              	 .loc 1 235 0
 671 002c 01E0     	 b .L27
 672              	.L26:
 236:C:/Users/Yushev/git/wpcqi-optiga-trust-charge/wpc/PRx\qi_auth_prx.c ****         }
 237:C:/Users/Yushev/git/wpcqi-optiga-trust-charge/wpc/PRx\qi_auth_prx.c **** 
 238:C:/Users/Yushev/git/wpcqi-optiga-trust-charge/wpc/PRx\qi_auth_prx.c ****         return_status = CRYPT_LIB_OK;
 673              	 .loc 1 238 0
 674 002e 0023     	 movs r3,#0
 675 0030 FB85     	 strh r3,[r7,#46]
 676              	.L27:
 239:C:/Users/Yushev/git/wpcqi-optiga-trust-charge/wpc/PRx\qi_auth_prx.c **** 
 240:C:/Users/Yushev/git/wpcqi-optiga-trust-charge/wpc/PRx\qi_auth_prx.c ****     }while(0);
 241:C:/Users/Yushev/git/wpcqi-optiga-trust-charge/wpc/PRx\qi_auth_prx.c **** 
 242:C:/Users/Yushev/git/wpcqi-optiga-trust-charge/wpc/PRx\qi_auth_prx.c ****     return return_status;
 677              	 .loc 1 242 0
 678 0032 FB8D     	 ldrh r3,[r7,#46]
 243:C:/Users/Yushev/git/wpcqi-optiga-trust-charge/wpc/PRx\qi_auth_prx.c **** }
 679              	 .loc 1 243 0
 680 0034 1846     	 mov r0,r3
 681 0036 3037     	 adds r7,r7,#48
 682              	.LCFI31:
 683              	 .cfi_def_cfa_offset 8
 684 0038 BD46     	 mov sp,r7
 685              	.LCFI32:
 686              	 .cfi_def_cfa_register 13
 687              	 
 688 003a 80BD     	 pop {r7,pc}
 689              	 .cfi_endproc
 690              	.LFE5:
 692              	 .section .text.qi_auth_prx_init,"ax",%progbits
 693              	 .align 2
 694              	 .global qi_auth_prx_init
 695              	 .thumb
 696              	 .thumb_func
 698              	qi_auth_prx_init:
 699              	.LFB6:
 244:C:/Users/Yushev/git/wpcqi-optiga-trust-charge/wpc/PRx\qi_auth_prx.c **** 
 245:C:/Users/Yushev/git/wpcqi-optiga-trust-charge/wpc/PRx\qi_auth_prx.c **** int32_t qi_auth_prx_init(void)
 246:C:/Users/Yushev/git/wpcqi-optiga-trust-charge/wpc/PRx\qi_auth_prx.c **** {
 700              	 .loc 1 246 0
 701              	 .cfi_startproc
 702              	 
 703              	 
 704 0000 80B5     	 push {r7,lr}
 705              	.LCFI33:
 706              	 .cfi_def_cfa_offset 8
 707              	 .cfi_offset 7,-8
 708              	 .cfi_offset 14,-4
 709 0002 00AF     	 add r7,sp,#0
 710              	.LCFI34:
 711              	 .cfi_def_cfa_register 7
 247:C:/Users/Yushev/git/wpcqi-optiga-trust-charge/wpc/PRx\qi_auth_prx.c **** 	return (qi_auth_prx_crypt_init(0));
 712              	 .loc 1 247 0
 713 0004 0020     	 movs r0,#0
 714 0006 FFF7FEFF 	 bl qi_auth_prx_crypt_init
 715 000a 0346     	 mov r3,r0
 248:C:/Users/Yushev/git/wpcqi-optiga-trust-charge/wpc/PRx\qi_auth_prx.c **** }
 716              	 .loc 1 248 0
 717 000c 1846     	 mov r0,r3
 718 000e 80BD     	 pop {r7,pc}
 719              	 .cfi_endproc
 720              	.LFE6:
 722              	 .section .text.qi_auth_prx_deinit,"ax",%progbits
 723              	 .align 2
 724              	 .global qi_auth_prx_deinit
 725              	 .thumb
 726              	 .thumb_func
 728              	qi_auth_prx_deinit:
 729              	.LFB7:
 249:C:/Users/Yushev/git/wpcqi-optiga-trust-charge/wpc/PRx\qi_auth_prx.c **** 
 250:C:/Users/Yushev/git/wpcqi-optiga-trust-charge/wpc/PRx\qi_auth_prx.c **** int32_t qi_auth_prx_deinit(void)
 251:C:/Users/Yushev/git/wpcqi-optiga-trust-charge/wpc/PRx\qi_auth_prx.c **** {
 730              	 .loc 1 251 0
 731              	 .cfi_startproc
 732              	 
 733              	 
 734 0000 80B5     	 push {r7,lr}
 735              	.LCFI35:
 736              	 .cfi_def_cfa_offset 8
 737              	 .cfi_offset 7,-8
 738              	 .cfi_offset 14,-4
 739 0002 00AF     	 add r7,sp,#0
 740              	.LCFI36:
 741              	 .cfi_def_cfa_register 7
 252:C:/Users/Yushev/git/wpcqi-optiga-trust-charge/wpc/PRx\qi_auth_prx.c **** 	return (qi_auth_prx_crypt_deinit(0));
 742              	 .loc 1 252 0
 743 0004 0020     	 movs r0,#0
 744 0006 FFF7FEFF 	 bl qi_auth_prx_crypt_deinit
 745 000a 0346     	 mov r3,r0
 253:C:/Users/Yushev/git/wpcqi-optiga-trust-charge/wpc/PRx\qi_auth_prx.c **** }
 746              	 .loc 1 253 0
 747 000c 1846     	 mov r0,r3
 748 000e 80BD     	 pop {r7,pc}
 749              	 .cfi_endproc
 750              	.LFE7:
 752              	 .text
 753              	.Letext0:
 754              	 .file 2 "c:\\users\\yushev\\dave_4-4-2_32bit_2018-02-23\\dave-ide-4.4.2-32bit\\eclipse\\arm-gcc-49\\arm-none-eabi\\include\\machine\\_default_types.h"
 755              	 .file 3 "c:\\users\\yushev\\dave_4-4-2_32bit_2018-02-23\\dave-ide-4.4.2-32bit\\eclipse\\arm-gcc-49\\arm-none-eabi\\include\\stdint.h"
 756              	 .file 4 "C:/Users/Yushev/git/wpcqi-optiga-trust-charge/wpc/PRx/qi_auth_prx_crypt.h"