   1              	 .syntax unified
   2              	 .cpu cortex-m4
   3              	 .eabi_attribute 27,3
   4              	 .fpu fpv4-sp-d16
   5              	 .eabi_attribute 20,1
   6              	 .eabi_attribute 21,1
   7              	 .eabi_attribute 23,3
   8              	 .eabi_attribute 24,1
   9              	 .eabi_attribute 25,1
  10              	 .eabi_attribute 26,1
  11              	 .eabi_attribute 30,4
  12              	 .eabi_attribute 34,1
  13              	 .eabi_attribute 18,4
  14              	 .thumb
  15              	 .file "xmc4_flash.c"
  16              	 .text
  17              	.Ltext0:
  18              	 .cfi_sections .debug_frame
  19              	 .section .text.XMC_FLASH_lEnterPageModeCommand,"ax",%progbits
  20              	 .align 1
  21              	 .global XMC_FLASH_lEnterPageModeCommand
  22              	 .thumb
  23              	 .thumb_func
  25              	XMC_FLASH_lEnterPageModeCommand:
  26              	.LFB149:
  27              	 .file 1 "C:/Users/Yushev/git/optiga-trust-qi/projects/xmc4700_relax_kit/common/Libraries/XMCLib/src/xmc4_flash.c"
   1:C:/Users/Yushev/git/optiga-trust-qi/projects/xmc4700_relax_kit/common/Libraries/XMCLib/src\xmc4_flash.c **** /**
   2:C:/Users/Yushev/git/optiga-trust-qi/projects/xmc4700_relax_kit/common/Libraries/XMCLib/src\xmc4_flash.c ****  * @file xmc4_flash.c
   3:C:/Users/Yushev/git/optiga-trust-qi/projects/xmc4700_relax_kit/common/Libraries/XMCLib/src\xmc4_flash.c ****  * @date 2016-01-08
   4:C:/Users/Yushev/git/optiga-trust-qi/projects/xmc4700_relax_kit/common/Libraries/XMCLib/src\xmc4_flash.c ****  *
   5:C:/Users/Yushev/git/optiga-trust-qi/projects/xmc4700_relax_kit/common/Libraries/XMCLib/src\xmc4_flash.c ****  * @cond
   6:C:/Users/Yushev/git/optiga-trust-qi/projects/xmc4700_relax_kit/common/Libraries/XMCLib/src\xmc4_flash.c ****  **************************************************************************************************
   7:C:/Users/Yushev/git/optiga-trust-qi/projects/xmc4700_relax_kit/common/Libraries/XMCLib/src\xmc4_flash.c ****  * XMClib v2.1.20 - XMC Peripheral Driver Library 
   8:C:/Users/Yushev/git/optiga-trust-qi/projects/xmc4700_relax_kit/common/Libraries/XMCLib/src\xmc4_flash.c ****  *
   9:C:/Users/Yushev/git/optiga-trust-qi/projects/xmc4700_relax_kit/common/Libraries/XMCLib/src\xmc4_flash.c ****  * Copyright (c) 2015-2018, Infineon Technologies AG
  10:C:/Users/Yushev/git/optiga-trust-qi/projects/xmc4700_relax_kit/common/Libraries/XMCLib/src\xmc4_flash.c ****  * All rights reserved.                        
  11:C:/Users/Yushev/git/optiga-trust-qi/projects/xmc4700_relax_kit/common/Libraries/XMCLib/src\xmc4_flash.c ****  *                                             
  12:C:/Users/Yushev/git/optiga-trust-qi/projects/xmc4700_relax_kit/common/Libraries/XMCLib/src\xmc4_flash.c ****  * Redistribution and use in source and binary forms, with or without modification,are permitted pr
  13:C:/Users/Yushev/git/optiga-trust-qi/projects/xmc4700_relax_kit/common/Libraries/XMCLib/src\xmc4_flash.c ****  * following conditions are met:   
  14:C:/Users/Yushev/git/optiga-trust-qi/projects/xmc4700_relax_kit/common/Libraries/XMCLib/src\xmc4_flash.c ****  *                                                                              
  15:C:/Users/Yushev/git/optiga-trust-qi/projects/xmc4700_relax_kit/common/Libraries/XMCLib/src\xmc4_flash.c ****  * Redistributions of source code must retain the above copyright notice, this list of conditions a
  16:C:/Users/Yushev/git/optiga-trust-qi/projects/xmc4700_relax_kit/common/Libraries/XMCLib/src\xmc4_flash.c ****  * disclaimer.                        
  17:C:/Users/Yushev/git/optiga-trust-qi/projects/xmc4700_relax_kit/common/Libraries/XMCLib/src\xmc4_flash.c ****  * 
  18:C:/Users/Yushev/git/optiga-trust-qi/projects/xmc4700_relax_kit/common/Libraries/XMCLib/src\xmc4_flash.c ****  * Redistributions in binary form must reproduce the above copyright notice, this list of condition
  19:C:/Users/Yushev/git/optiga-trust-qi/projects/xmc4700_relax_kit/common/Libraries/XMCLib/src\xmc4_flash.c ****  * disclaimer in the documentation and/or other materials provided with the distribution.          
  20:C:/Users/Yushev/git/optiga-trust-qi/projects/xmc4700_relax_kit/common/Libraries/XMCLib/src\xmc4_flash.c ****  * 
  21:C:/Users/Yushev/git/optiga-trust-qi/projects/xmc4700_relax_kit/common/Libraries/XMCLib/src\xmc4_flash.c ****  * Neither the name of the copyright holders nor the names of its contributors may be used to endor
  22:C:/Users/Yushev/git/optiga-trust-qi/projects/xmc4700_relax_kit/common/Libraries/XMCLib/src\xmc4_flash.c ****  * products derived from this software without specific prior written permission.                  
  23:C:/Users/Yushev/git/optiga-trust-qi/projects/xmc4700_relax_kit/common/Libraries/XMCLib/src\xmc4_flash.c ****  *                                                                              
  24:C:/Users/Yushev/git/optiga-trust-qi/projects/xmc4700_relax_kit/common/Libraries/XMCLib/src\xmc4_flash.c ****  * THIS SOFTWARE IS PROVIDED BY THE COPYRIGHT HOLDERS AND CONTRIBUTORS "AS IS" AND ANY EXPRESS OR I
  25:C:/Users/Yushev/git/optiga-trust-qi/projects/xmc4700_relax_kit/common/Libraries/XMCLib/src\xmc4_flash.c ****  * INCLUDING, BUT NOT LIMITED TO, THE IMPLIED WARRANTIES OF MERCHANTABILITY AND FITNESS FOR A PARTI
  26:C:/Users/Yushev/git/optiga-trust-qi/projects/xmc4700_relax_kit/common/Libraries/XMCLib/src\xmc4_flash.c ****  * DISCLAIMED. IN NO EVENT SHALL THE COPYRIGHT HOLDER OR CONTRIBUTORS BE LIABLE  FOR ANY DIRECT, IN
  27:C:/Users/Yushev/git/optiga-trust-qi/projects/xmc4700_relax_kit/common/Libraries/XMCLib/src\xmc4_flash.c ****  * SPECIAL, EXEMPLARY, OR CONSEQUENTIAL DAMAGES (INCLUDING, BUT NOT LIMITED TO, PROCUREMENT OF SUBS
  28:C:/Users/Yushev/git/optiga-trust-qi/projects/xmc4700_relax_kit/common/Libraries/XMCLib/src\xmc4_flash.c ****  * SERVICES; LOSS OF USE, DATA, OR PROFITS; OR BUSINESS INTERRUPTION) HOWEVER CAUSED AND ON ANY THE
  29:C:/Users/Yushev/git/optiga-trust-qi/projects/xmc4700_relax_kit/common/Libraries/XMCLib/src\xmc4_flash.c ****  * WHETHER IN CONTRACT, STRICT LIABILITY,OR TORT (INCLUDING NEGLIGENCE OR OTHERWISE) ARISING IN ANY
  30:C:/Users/Yushev/git/optiga-trust-qi/projects/xmc4700_relax_kit/common/Libraries/XMCLib/src\xmc4_flash.c ****  * OF THIS SOFTWARE, EVEN IF ADVISED OF THE POSSIBILITY OF SUCH DAMAGE.                            
  31:C:/Users/Yushev/git/optiga-trust-qi/projects/xmc4700_relax_kit/common/Libraries/XMCLib/src\xmc4_flash.c ****  *                                                                              
  32:C:/Users/Yushev/git/optiga-trust-qi/projects/xmc4700_relax_kit/common/Libraries/XMCLib/src\xmc4_flash.c ****  * To improve the quality of the software, users are encouraged to share modifications, enhancement
  33:C:/Users/Yushev/git/optiga-trust-qi/projects/xmc4700_relax_kit/common/Libraries/XMCLib/src\xmc4_flash.c ****  * Infineon Technologies AG dave@infineon.com).                                                    
  34:C:/Users/Yushev/git/optiga-trust-qi/projects/xmc4700_relax_kit/common/Libraries/XMCLib/src\xmc4_flash.c ****  **************************************************************************************************
  35:C:/Users/Yushev/git/optiga-trust-qi/projects/xmc4700_relax_kit/common/Libraries/XMCLib/src\xmc4_flash.c ****  *
  36:C:/Users/Yushev/git/optiga-trust-qi/projects/xmc4700_relax_kit/common/Libraries/XMCLib/src\xmc4_flash.c ****  * Change History
  37:C:/Users/Yushev/git/optiga-trust-qi/projects/xmc4700_relax_kit/common/Libraries/XMCLib/src\xmc4_flash.c ****  * --------------
  38:C:/Users/Yushev/git/optiga-trust-qi/projects/xmc4700_relax_kit/common/Libraries/XMCLib/src\xmc4_flash.c ****  *
  39:C:/Users/Yushev/git/optiga-trust-qi/projects/xmc4700_relax_kit/common/Libraries/XMCLib/src\xmc4_flash.c ****  * 2015-02-10:
  40:C:/Users/Yushev/git/optiga-trust-qi/projects/xmc4700_relax_kit/common/Libraries/XMCLib/src\xmc4_flash.c ****  *     - Initial <br>
  41:C:/Users/Yushev/git/optiga-trust-qi/projects/xmc4700_relax_kit/common/Libraries/XMCLib/src\xmc4_flash.c ****  *
  42:C:/Users/Yushev/git/optiga-trust-qi/projects/xmc4700_relax_kit/common/Libraries/XMCLib/src\xmc4_flash.c ****  * 2015-06-20: 
  43:C:/Users/Yushev/git/optiga-trust-qi/projects/xmc4700_relax_kit/common/Libraries/XMCLib/src\xmc4_flash.c ****  *     - Removed definition of GetDriverVersion API 
  44:C:/Users/Yushev/git/optiga-trust-qi/projects/xmc4700_relax_kit/common/Libraries/XMCLib/src\xmc4_flash.c ****  *
  45:C:/Users/Yushev/git/optiga-trust-qi/projects/xmc4700_relax_kit/common/Libraries/XMCLib/src\xmc4_flash.c ****  * 2015-08-17: 
  46:C:/Users/Yushev/git/optiga-trust-qi/projects/xmc4700_relax_kit/common/Libraries/XMCLib/src\xmc4_flash.c ****  *     - Added the below API's to the public interface.
  47:C:/Users/Yushev/git/optiga-trust-qi/projects/xmc4700_relax_kit/common/Libraries/XMCLib/src\xmc4_flash.c ****  *       1. XMC_FLASH_Reset
  48:C:/Users/Yushev/git/optiga-trust-qi/projects/xmc4700_relax_kit/common/Libraries/XMCLib/src\xmc4_flash.c ****  *       2. XMC_FLASH_ErasePhysicalSector
  49:C:/Users/Yushev/git/optiga-trust-qi/projects/xmc4700_relax_kit/common/Libraries/XMCLib/src\xmc4_flash.c ****  *       3. XMC_FLASH_EraseUCB
  50:C:/Users/Yushev/git/optiga-trust-qi/projects/xmc4700_relax_kit/common/Libraries/XMCLib/src\xmc4_flash.c ****  *       4. XMC_FLASH_ResumeProtection
  51:C:/Users/Yushev/git/optiga-trust-qi/projects/xmc4700_relax_kit/common/Libraries/XMCLib/src\xmc4_flash.c ****  *       5. XMC_FLASH_RepairPhysicalSector
  52:C:/Users/Yushev/git/optiga-trust-qi/projects/xmc4700_relax_kit/common/Libraries/XMCLib/src\xmc4_flash.c ****  *
  53:C:/Users/Yushev/git/optiga-trust-qi/projects/xmc4700_relax_kit/common/Libraries/XMCLib/src\xmc4_flash.c ****  * 2016-01-08: 
  54:C:/Users/Yushev/git/optiga-trust-qi/projects/xmc4700_relax_kit/common/Libraries/XMCLib/src\xmc4_flash.c ****  *     - Wait until operation is finished for the next functions:
  55:C:/Users/Yushev/git/optiga-trust-qi/projects/xmc4700_relax_kit/common/Libraries/XMCLib/src\xmc4_flash.c ****  *       1. XMC_FLASH_InstallProtection
  56:C:/Users/Yushev/git/optiga-trust-qi/projects/xmc4700_relax_kit/common/Libraries/XMCLib/src\xmc4_flash.c ****  *       2. XMC_FLASH_ConfirmProtection
  57:C:/Users/Yushev/git/optiga-trust-qi/projects/xmc4700_relax_kit/common/Libraries/XMCLib/src\xmc4_flash.c ****  *       3. XMC_FLASH_ProgramPage
  58:C:/Users/Yushev/git/optiga-trust-qi/projects/xmc4700_relax_kit/common/Libraries/XMCLib/src\xmc4_flash.c ****  *       4. XMC_FLASH_EraseSector
  59:C:/Users/Yushev/git/optiga-trust-qi/projects/xmc4700_relax_kit/common/Libraries/XMCLib/src\xmc4_flash.c ****  *       5. XMC_FLASH_ErasePhysicalSector
  60:C:/Users/Yushev/git/optiga-trust-qi/projects/xmc4700_relax_kit/common/Libraries/XMCLib/src\xmc4_flash.c ****  *       6. XMC_FLASH_EraseUCB
  61:C:/Users/Yushev/git/optiga-trust-qi/projects/xmc4700_relax_kit/common/Libraries/XMCLib/src\xmc4_flash.c ****  *     - Fix XMC_FLASH_VerifyReadProtection and XMC_FLASH_VerifyWriteProtection
  62:C:/Users/Yushev/git/optiga-trust-qi/projects/xmc4700_relax_kit/common/Libraries/XMCLib/src\xmc4_flash.c ****  *
  63:C:/Users/Yushev/git/optiga-trust-qi/projects/xmc4700_relax_kit/common/Libraries/XMCLib/src\xmc4_flash.c ****  * 2018-02-08
  64:C:/Users/Yushev/git/optiga-trust-qi/projects/xmc4700_relax_kit/common/Libraries/XMCLib/src\xmc4_flash.c ****  *     - Added implementation of XMC_FLASH_InstallBMI()
  65:C:/Users/Yushev/git/optiga-trust-qi/projects/xmc4700_relax_kit/common/Libraries/XMCLib/src\xmc4_flash.c ****  *
  66:C:/Users/Yushev/git/optiga-trust-qi/projects/xmc4700_relax_kit/common/Libraries/XMCLib/src\xmc4_flash.c ****  * @endcond 
  67:C:/Users/Yushev/git/optiga-trust-qi/projects/xmc4700_relax_kit/common/Libraries/XMCLib/src\xmc4_flash.c ****  *
  68:C:/Users/Yushev/git/optiga-trust-qi/projects/xmc4700_relax_kit/common/Libraries/XMCLib/src\xmc4_flash.c ****  */
  69:C:/Users/Yushev/git/optiga-trust-qi/projects/xmc4700_relax_kit/common/Libraries/XMCLib/src\xmc4_flash.c **** 
  70:C:/Users/Yushev/git/optiga-trust-qi/projects/xmc4700_relax_kit/common/Libraries/XMCLib/src\xmc4_flash.c **** #include "xmc_flash.h"
  71:C:/Users/Yushev/git/optiga-trust-qi/projects/xmc4700_relax_kit/common/Libraries/XMCLib/src\xmc4_flash.c **** 
  72:C:/Users/Yushev/git/optiga-trust-qi/projects/xmc4700_relax_kit/common/Libraries/XMCLib/src\xmc4_flash.c **** #if UC_FAMILY == XMC4
  73:C:/Users/Yushev/git/optiga-trust-qi/projects/xmc4700_relax_kit/common/Libraries/XMCLib/src\xmc4_flash.c **** 
  74:C:/Users/Yushev/git/optiga-trust-qi/projects/xmc4700_relax_kit/common/Libraries/XMCLib/src\xmc4_flash.c **** /**************************************************************************************************
  75:C:/Users/Yushev/git/optiga-trust-qi/projects/xmc4700_relax_kit/common/Libraries/XMCLib/src\xmc4_flash.c ****  * MACROS
  76:C:/Users/Yushev/git/optiga-trust-qi/projects/xmc4700_relax_kit/common/Libraries/XMCLib/src\xmc4_flash.c ****  **************************************************************************************************
  77:C:/Users/Yushev/git/optiga-trust-qi/projects/xmc4700_relax_kit/common/Libraries/XMCLib/src\xmc4_flash.c **** 
  78:C:/Users/Yushev/git/optiga-trust-qi/projects/xmc4700_relax_kit/common/Libraries/XMCLib/src\xmc4_flash.c **** #define XMC_FLASH_PROTECTION_CONFIGURATION_WORDS (8UL) /* Used to upadte the assembly buffer during
  79:C:/Users/Yushev/git/optiga-trust-qi/projects/xmc4700_relax_kit/common/Libraries/XMCLib/src\xmc4_flash.c ****                                                           configuration */
  80:C:/Users/Yushev/git/optiga-trust-qi/projects/xmc4700_relax_kit/common/Libraries/XMCLib/src\xmc4_flash.c **** #define XMC_FLASH_BMI_STRING_WORDS (10UL) /* Used to upadte the assembly buffer during BMI String
  81:C:/Users/Yushev/git/optiga-trust-qi/projects/xmc4700_relax_kit/common/Libraries/XMCLib/src\xmc4_flash.c ****                                                           configuration */
  82:C:/Users/Yushev/git/optiga-trust-qi/projects/xmc4700_relax_kit/common/Libraries/XMCLib/src\xmc4_flash.c **** 
  83:C:/Users/Yushev/git/optiga-trust-qi/projects/xmc4700_relax_kit/common/Libraries/XMCLib/src\xmc4_flash.c **** #define XMC_FLASH_PROT_CONFIRM_OFFSET (512UL) /* Offset address for UCB page */
  84:C:/Users/Yushev/git/optiga-trust-qi/projects/xmc4700_relax_kit/common/Libraries/XMCLib/src\xmc4_flash.c **** #define XMC_FLASH_PROT_CONFIRM_WORDS  (4UL)
  85:C:/Users/Yushev/git/optiga-trust-qi/projects/xmc4700_relax_kit/common/Libraries/XMCLib/src\xmc4_flash.c **** #define XMC_FLASH_PROT_CONFIRM_CODE   (0x8AFE15C3UL)
  86:C:/Users/Yushev/git/optiga-trust-qi/projects/xmc4700_relax_kit/common/Libraries/XMCLib/src\xmc4_flash.c **** 
  87:C:/Users/Yushev/git/optiga-trust-qi/projects/xmc4700_relax_kit/common/Libraries/XMCLib/src\xmc4_flash.c **** /**************************************************************************************************
  88:C:/Users/Yushev/git/optiga-trust-qi/projects/xmc4700_relax_kit/common/Libraries/XMCLib/src\xmc4_flash.c ****  * LOCAL FUNCTIONS
  89:C:/Users/Yushev/git/optiga-trust-qi/projects/xmc4700_relax_kit/common/Libraries/XMCLib/src\xmc4_flash.c ****  **************************************************************************************************
  90:C:/Users/Yushev/git/optiga-trust-qi/projects/xmc4700_relax_kit/common/Libraries/XMCLib/src\xmc4_flash.c **** void XMC_FLASH_lEnterPageModeCommand(void);
  91:C:/Users/Yushev/git/optiga-trust-qi/projects/xmc4700_relax_kit/common/Libraries/XMCLib/src\xmc4_flash.c **** void XMC_FLASH_lLoadPageCommand(uint32_t low_word, uint32_t high_word);
  92:C:/Users/Yushev/git/optiga-trust-qi/projects/xmc4700_relax_kit/common/Libraries/XMCLib/src\xmc4_flash.c **** void XMC_FLASH_lWritePageCommand(uint32_t *page_start_address);
  93:C:/Users/Yushev/git/optiga-trust-qi/projects/xmc4700_relax_kit/common/Libraries/XMCLib/src\xmc4_flash.c **** void XMC_FLASH_lWriteUCBPageCommand(uint32_t *page_start_address);
  94:C:/Users/Yushev/git/optiga-trust-qi/projects/xmc4700_relax_kit/common/Libraries/XMCLib/src\xmc4_flash.c **** void XMC_FLASH_lEraseSectorCommand(uint32_t *sector_start_address);
  95:C:/Users/Yushev/git/optiga-trust-qi/projects/xmc4700_relax_kit/common/Libraries/XMCLib/src\xmc4_flash.c **** void XMC_FLASH_lDisableSectorWriteProtectionCommand(uint32_t user, uint32_t password_0, uint32_t pa
  96:C:/Users/Yushev/git/optiga-trust-qi/projects/xmc4700_relax_kit/common/Libraries/XMCLib/src\xmc4_flash.c **** void XMC_FLASH_lDisableReadProtectionCommand(uint32_t password_0, uint32_t password_1);
  97:C:/Users/Yushev/git/optiga-trust-qi/projects/xmc4700_relax_kit/common/Libraries/XMCLib/src\xmc4_flash.c **** void XMC_FLASH_lRepairPhysicalSectorCommand(void);
  98:C:/Users/Yushev/git/optiga-trust-qi/projects/xmc4700_relax_kit/common/Libraries/XMCLib/src\xmc4_flash.c **** void XMC_FLASH_lErasePhysicalSectorCommand(uint32_t *sector_start_address);
  99:C:/Users/Yushev/git/optiga-trust-qi/projects/xmc4700_relax_kit/common/Libraries/XMCLib/src\xmc4_flash.c **** void XMC_FLASH_lClearStatusCommand(void);
 100:C:/Users/Yushev/git/optiga-trust-qi/projects/xmc4700_relax_kit/common/Libraries/XMCLib/src\xmc4_flash.c **** 
 101:C:/Users/Yushev/git/optiga-trust-qi/projects/xmc4700_relax_kit/common/Libraries/XMCLib/src\xmc4_flash.c **** /*
 102:C:/Users/Yushev/git/optiga-trust-qi/projects/xmc4700_relax_kit/common/Libraries/XMCLib/src\xmc4_flash.c ****  * Command to program the PFLASH in to page mode, so that assembly buffer is used 
 103:C:/Users/Yushev/git/optiga-trust-qi/projects/xmc4700_relax_kit/common/Libraries/XMCLib/src\xmc4_flash.c ****  */
 104:C:/Users/Yushev/git/optiga-trust-qi/projects/xmc4700_relax_kit/common/Libraries/XMCLib/src\xmc4_flash.c **** void XMC_FLASH_lEnterPageModeCommand(void)
 105:C:/Users/Yushev/git/optiga-trust-qi/projects/xmc4700_relax_kit/common/Libraries/XMCLib/src\xmc4_flash.c **** {
  28              	 .loc 1 105 0
  29              	 .cfi_startproc
  30              	 
  31              	 
  32              	 
  33              	.LVL0:
 106:C:/Users/Yushev/git/optiga-trust-qi/projects/xmc4700_relax_kit/common/Libraries/XMCLib/src\xmc4_flash.c ****   volatile uint32_t *address;
 107:C:/Users/Yushev/git/optiga-trust-qi/projects/xmc4700_relax_kit/common/Libraries/XMCLib/src\xmc4_flash.c **** 
 108:C:/Users/Yushev/git/optiga-trust-qi/projects/xmc4700_relax_kit/common/Libraries/XMCLib/src\xmc4_flash.c ****   address = (uint32_t *)(XMC_FLASH_UNCACHED_BASE + 0x5554U);
 109:C:/Users/Yushev/git/optiga-trust-qi/projects/xmc4700_relax_kit/common/Libraries/XMCLib/src\xmc4_flash.c ****   *address = (uint32_t)0x50U;
  34              	 .loc 1 109 0
  35 0000 014B     	 ldr r3,.L2
  36 0002 5022     	 movs r2,#80
  37 0004 1A60     	 str r2,[r3]
  38 0006 7047     	 bx lr
  39              	.L3:
  40              	 .align 2
  41              	.L2:
  42 0008 5455000C 	 .word 201348436
  43              	 .cfi_endproc
  44              	.LFE149:
  46              	 .section .text.XMC_FLASH_lLoadPageCommand,"ax",%progbits
  47              	 .align 1
  48              	 .global XMC_FLASH_lLoadPageCommand
  49              	 .thumb
  50              	 .thumb_func
  52              	XMC_FLASH_lLoadPageCommand:
  53              	.LFB150:
 110:C:/Users/Yushev/git/optiga-trust-qi/projects/xmc4700_relax_kit/common/Libraries/XMCLib/src\xmc4_flash.c **** }
 111:C:/Users/Yushev/git/optiga-trust-qi/projects/xmc4700_relax_kit/common/Libraries/XMCLib/src\xmc4_flash.c **** 
 112:C:/Users/Yushev/git/optiga-trust-qi/projects/xmc4700_relax_kit/common/Libraries/XMCLib/src\xmc4_flash.c **** /*
 113:C:/Users/Yushev/git/optiga-trust-qi/projects/xmc4700_relax_kit/common/Libraries/XMCLib/src\xmc4_flash.c ****  * Command to load the data into the page assembly buffer 
 114:C:/Users/Yushev/git/optiga-trust-qi/projects/xmc4700_relax_kit/common/Libraries/XMCLib/src\xmc4_flash.c ****  */
 115:C:/Users/Yushev/git/optiga-trust-qi/projects/xmc4700_relax_kit/common/Libraries/XMCLib/src\xmc4_flash.c **** void XMC_FLASH_lLoadPageCommand(uint32_t low_word, uint32_t high_word)
 116:C:/Users/Yushev/git/optiga-trust-qi/projects/xmc4700_relax_kit/common/Libraries/XMCLib/src\xmc4_flash.c **** {
  54              	 .loc 1 116 0
  55              	 .cfi_startproc
  56              	 
  57              	 
  58              	 
  59              	.LVL1:
 117:C:/Users/Yushev/git/optiga-trust-qi/projects/xmc4700_relax_kit/common/Libraries/XMCLib/src\xmc4_flash.c ****   volatile uint32_t *address;
 118:C:/Users/Yushev/git/optiga-trust-qi/projects/xmc4700_relax_kit/common/Libraries/XMCLib/src\xmc4_flash.c **** 
 119:C:/Users/Yushev/git/optiga-trust-qi/projects/xmc4700_relax_kit/common/Libraries/XMCLib/src\xmc4_flash.c ****   address = (uint32_t *)(XMC_FLASH_UNCACHED_BASE + 0x55f0U);
 120:C:/Users/Yushev/git/optiga-trust-qi/projects/xmc4700_relax_kit/common/Libraries/XMCLib/src\xmc4_flash.c ****   *address = low_word;
  60              	 .loc 1 120 0
  61 0000 014B     	 ldr r3,.L5
  62 0002 1860     	 str r0,[r3]
  63              	.LVL2:
 121:C:/Users/Yushev/git/optiga-trust-qi/projects/xmc4700_relax_kit/common/Libraries/XMCLib/src\xmc4_flash.c ****   address = (uint32_t *)(XMC_FLASH_UNCACHED_BASE + 0x55f4U);
 122:C:/Users/Yushev/git/optiga-trust-qi/projects/xmc4700_relax_kit/common/Libraries/XMCLib/src\xmc4_flash.c ****   *address = high_word;
  64              	 .loc 1 122 0
  65 0004 5960     	 str r1,[r3,#4]
  66 0006 7047     	 bx lr
  67              	.L6:
  68              	 .align 2
  69              	.L5:
  70 0008 F055000C 	 .word 201348592
  71              	 .cfi_endproc
  72              	.LFE150:
  74              	 .section .text.XMC_FLASH_lWritePageCommand,"ax",%progbits
  75              	 .align 1
  76              	 .global XMC_FLASH_lWritePageCommand
  77              	 .thumb
  78              	 .thumb_func
  80              	XMC_FLASH_lWritePageCommand:
  81              	.LFB151:
 123:C:/Users/Yushev/git/optiga-trust-qi/projects/xmc4700_relax_kit/common/Libraries/XMCLib/src\xmc4_flash.c **** }
 124:C:/Users/Yushev/git/optiga-trust-qi/projects/xmc4700_relax_kit/common/Libraries/XMCLib/src\xmc4_flash.c **** 
 125:C:/Users/Yushev/git/optiga-trust-qi/projects/xmc4700_relax_kit/common/Libraries/XMCLib/src\xmc4_flash.c **** /*
 126:C:/Users/Yushev/git/optiga-trust-qi/projects/xmc4700_relax_kit/common/Libraries/XMCLib/src\xmc4_flash.c ****  * Command to start the programming of one page with data from the assembly buffer
 127:C:/Users/Yushev/git/optiga-trust-qi/projects/xmc4700_relax_kit/common/Libraries/XMCLib/src\xmc4_flash.c ****  */
 128:C:/Users/Yushev/git/optiga-trust-qi/projects/xmc4700_relax_kit/common/Libraries/XMCLib/src\xmc4_flash.c **** void XMC_FLASH_lWritePageCommand(uint32_t *page_start_address)
 129:C:/Users/Yushev/git/optiga-trust-qi/projects/xmc4700_relax_kit/common/Libraries/XMCLib/src\xmc4_flash.c **** {
  82              	 .loc 1 129 0
  83              	 .cfi_startproc
  84              	 
  85              	 
  86              	.LVL3:
  87 0000 10B5     	 push {r4,lr}
  88              	.LCFI0:
  89              	 .cfi_def_cfa_offset 8
  90              	 .cfi_offset 4,-8
  91              	 .cfi_offset 14,-4
 130:C:/Users/Yushev/git/optiga-trust-qi/projects/xmc4700_relax_kit/common/Libraries/XMCLib/src\xmc4_flash.c ****   volatile uint32_t *address;
 131:C:/Users/Yushev/git/optiga-trust-qi/projects/xmc4700_relax_kit/common/Libraries/XMCLib/src\xmc4_flash.c **** 
 132:C:/Users/Yushev/git/optiga-trust-qi/projects/xmc4700_relax_kit/common/Libraries/XMCLib/src\xmc4_flash.c ****   address = (uint32_t *)(XMC_FLASH_UNCACHED_BASE + 0x5554U);
 133:C:/Users/Yushev/git/optiga-trust-qi/projects/xmc4700_relax_kit/common/Libraries/XMCLib/src\xmc4_flash.c ****   *address = 0xaaU;
  92              	 .loc 1 133 0
  93 0002 054A     	 ldr r2,.L8
 134:C:/Users/Yushev/git/optiga-trust-qi/projects/xmc4700_relax_kit/common/Libraries/XMCLib/src\xmc4_flash.c ****   address = (uint32_t *)(XMC_FLASH_UNCACHED_BASE + 0xaaa8U);
 135:C:/Users/Yushev/git/optiga-trust-qi/projects/xmc4700_relax_kit/common/Libraries/XMCLib/src\xmc4_flash.c ****   *address = 0x55U;
  94              	 .loc 1 135 0
  95 0004 0549     	 ldr r1,.L8+4
 133:C:/Users/Yushev/git/optiga-trust-qi/projects/xmc4700_relax_kit/common/Libraries/XMCLib/src\xmc4_flash.c ****   address = (uint32_t *)(XMC_FLASH_UNCACHED_BASE + 0xaaa8U);
  96              	 .loc 1 133 0
  97 0006 AA23     	 movs r3,#170
  98              	 .loc 1 135 0
  99 0008 5524     	 movs r4,#85
 133:C:/Users/Yushev/git/optiga-trust-qi/projects/xmc4700_relax_kit/common/Libraries/XMCLib/src\xmc4_flash.c ****   address = (uint32_t *)(XMC_FLASH_UNCACHED_BASE + 0xaaa8U);
 100              	 .loc 1 133 0
 101 000a 1360     	 str r3,[r2]
 102              	.LVL4:
 103              	 .loc 1 135 0
 104 000c 0C60     	 str r4,[r1]
 105              	.LVL5:
 136:C:/Users/Yushev/git/optiga-trust-qi/projects/xmc4700_relax_kit/common/Libraries/XMCLib/src\xmc4_flash.c ****   address = (uint32_t *)(XMC_FLASH_UNCACHED_BASE + 0x5554U);
 137:C:/Users/Yushev/git/optiga-trust-qi/projects/xmc4700_relax_kit/common/Libraries/XMCLib/src\xmc4_flash.c ****   *address = 0xa0U;
 106              	 .loc 1 137 0
 107 000e A021     	 movs r1,#160
 108 0010 1160     	 str r1,[r2]
 109              	.LVL6:
 138:C:/Users/Yushev/git/optiga-trust-qi/projects/xmc4700_relax_kit/common/Libraries/XMCLib/src\xmc4_flash.c ****   address = page_start_address;
 139:C:/Users/Yushev/git/optiga-trust-qi/projects/xmc4700_relax_kit/common/Libraries/XMCLib/src\xmc4_flash.c ****   *address = 0xaaU;
 110              	 .loc 1 139 0
 111 0012 0360     	 str r3,[r0]
 112 0014 10BD     	 pop {r4,pc}
 113              	.L9:
 114 0016 00BF     	 .align 2
 115              	.L8:
 116 0018 5455000C 	 .word 201348436
 117 001c A8AA000C 	 .word 201370280
 118              	 .cfi_endproc
 119              	.LFE151:
 121              	 .section .text.XMC_FLASH_lWriteUCBPageCommand,"ax",%progbits
 122              	 .align 1
 123              	 .global XMC_FLASH_lWriteUCBPageCommand
 124              	 .thumb
 125              	 .thumb_func
 127              	XMC_FLASH_lWriteUCBPageCommand:
 128              	.LFB152:
 140:C:/Users/Yushev/git/optiga-trust-qi/projects/xmc4700_relax_kit/common/Libraries/XMCLib/src\xmc4_flash.c **** }
 141:C:/Users/Yushev/git/optiga-trust-qi/projects/xmc4700_relax_kit/common/Libraries/XMCLib/src\xmc4_flash.c **** 
 142:C:/Users/Yushev/git/optiga-trust-qi/projects/xmc4700_relax_kit/common/Libraries/XMCLib/src\xmc4_flash.c **** /*
 143:C:/Users/Yushev/git/optiga-trust-qi/projects/xmc4700_relax_kit/common/Libraries/XMCLib/src\xmc4_flash.c ****  * Command to start the programming of UCB page with data from the assembly buffer
 144:C:/Users/Yushev/git/optiga-trust-qi/projects/xmc4700_relax_kit/common/Libraries/XMCLib/src\xmc4_flash.c ****  */
 145:C:/Users/Yushev/git/optiga-trust-qi/projects/xmc4700_relax_kit/common/Libraries/XMCLib/src\xmc4_flash.c **** void XMC_FLASH_lWriteUCBPageCommand(uint32_t *page_start_address)
 146:C:/Users/Yushev/git/optiga-trust-qi/projects/xmc4700_relax_kit/common/Libraries/XMCLib/src\xmc4_flash.c **** {
 129              	 .loc 1 146 0
 130              	 .cfi_startproc
 131              	 
 132              	 
 133              	.LVL7:
 134 0000 10B5     	 push {r4,lr}
 135              	.LCFI1:
 136              	 .cfi_def_cfa_offset 8
 137              	 .cfi_offset 4,-8
 138              	 .cfi_offset 14,-4
 147:C:/Users/Yushev/git/optiga-trust-qi/projects/xmc4700_relax_kit/common/Libraries/XMCLib/src\xmc4_flash.c ****   volatile uint32_t *address;
 148:C:/Users/Yushev/git/optiga-trust-qi/projects/xmc4700_relax_kit/common/Libraries/XMCLib/src\xmc4_flash.c **** 
 149:C:/Users/Yushev/git/optiga-trust-qi/projects/xmc4700_relax_kit/common/Libraries/XMCLib/src\xmc4_flash.c ****   address = (uint32_t *)(XMC_FLASH_UNCACHED_BASE + 0x5554U);
 150:C:/Users/Yushev/git/optiga-trust-qi/projects/xmc4700_relax_kit/common/Libraries/XMCLib/src\xmc4_flash.c ****   *address = 0xaaU;
 139              	 .loc 1 150 0
 140 0002 054A     	 ldr r2,.L11
 151:C:/Users/Yushev/git/optiga-trust-qi/projects/xmc4700_relax_kit/common/Libraries/XMCLib/src\xmc4_flash.c ****   address = (uint32_t *)(XMC_FLASH_UNCACHED_BASE + 0xaaa8U);
 152:C:/Users/Yushev/git/optiga-trust-qi/projects/xmc4700_relax_kit/common/Libraries/XMCLib/src\xmc4_flash.c ****   *address = 0x55U;
 141              	 .loc 1 152 0
 142 0004 0549     	 ldr r1,.L11+4
 150:C:/Users/Yushev/git/optiga-trust-qi/projects/xmc4700_relax_kit/common/Libraries/XMCLib/src\xmc4_flash.c ****   address = (uint32_t *)(XMC_FLASH_UNCACHED_BASE + 0xaaa8U);
 143              	 .loc 1 150 0
 144 0006 AA23     	 movs r3,#170
 145              	 .loc 1 152 0
 146 0008 5524     	 movs r4,#85
 150:C:/Users/Yushev/git/optiga-trust-qi/projects/xmc4700_relax_kit/common/Libraries/XMCLib/src\xmc4_flash.c ****   address = (uint32_t *)(XMC_FLASH_UNCACHED_BASE + 0xaaa8U);
 147              	 .loc 1 150 0
 148 000a 1360     	 str r3,[r2]
 149              	.LVL8:
 150              	 .loc 1 152 0
 151 000c 0C60     	 str r4,[r1]
 152              	.LVL9:
 153:C:/Users/Yushev/git/optiga-trust-qi/projects/xmc4700_relax_kit/common/Libraries/XMCLib/src\xmc4_flash.c ****   address = (uint32_t *)(XMC_FLASH_UNCACHED_BASE + 0x5554U);
 154:C:/Users/Yushev/git/optiga-trust-qi/projects/xmc4700_relax_kit/common/Libraries/XMCLib/src\xmc4_flash.c ****   *address = 0xc0U;
 153              	 .loc 1 154 0
 154 000e C021     	 movs r1,#192
 155 0010 1160     	 str r1,[r2]
 156              	.LVL10:
 155:C:/Users/Yushev/git/optiga-trust-qi/projects/xmc4700_relax_kit/common/Libraries/XMCLib/src\xmc4_flash.c ****   address = page_start_address;
 156:C:/Users/Yushev/git/optiga-trust-qi/projects/xmc4700_relax_kit/common/Libraries/XMCLib/src\xmc4_flash.c ****   *address = 0xaaU;
 157              	 .loc 1 156 0
 158 0012 0360     	 str r3,[r0]
 159 0014 10BD     	 pop {r4,pc}
 160              	.L12:
 161 0016 00BF     	 .align 2
 162              	.L11:
 163 0018 5455000C 	 .word 201348436
 164 001c A8AA000C 	 .word 201370280
 165              	 .cfi_endproc
 166              	.LFE152:
 168              	 .section .text.XMC_FLASH_lEraseSectorCommand,"ax",%progbits
 169              	 .align 1
 170              	 .global XMC_FLASH_lEraseSectorCommand
 171              	 .thumb
 172              	 .thumb_func
 174              	XMC_FLASH_lEraseSectorCommand:
 175              	.LFB153:
 157:C:/Users/Yushev/git/optiga-trust-qi/projects/xmc4700_relax_kit/common/Libraries/XMCLib/src\xmc4_flash.c **** }
 158:C:/Users/Yushev/git/optiga-trust-qi/projects/xmc4700_relax_kit/common/Libraries/XMCLib/src\xmc4_flash.c **** 
 159:C:/Users/Yushev/git/optiga-trust-qi/projects/xmc4700_relax_kit/common/Libraries/XMCLib/src\xmc4_flash.c **** /*
 160:C:/Users/Yushev/git/optiga-trust-qi/projects/xmc4700_relax_kit/common/Libraries/XMCLib/src\xmc4_flash.c ****  * Command to erase sector which is starting with the specified address
 161:C:/Users/Yushev/git/optiga-trust-qi/projects/xmc4700_relax_kit/common/Libraries/XMCLib/src\xmc4_flash.c ****  */
 162:C:/Users/Yushev/git/optiga-trust-qi/projects/xmc4700_relax_kit/common/Libraries/XMCLib/src\xmc4_flash.c **** void XMC_FLASH_lEraseSectorCommand(uint32_t *sector_start_address)
 163:C:/Users/Yushev/git/optiga-trust-qi/projects/xmc4700_relax_kit/common/Libraries/XMCLib/src\xmc4_flash.c **** {
 176              	 .loc 1 163 0
 177              	 .cfi_startproc
 178              	 
 179              	 
 180              	.LVL11:
 181 0000 30B5     	 push {r4,r5,lr}
 182              	.LCFI2:
 183              	 .cfi_def_cfa_offset 12
 184              	 .cfi_offset 4,-12
 185              	 .cfi_offset 5,-8
 186              	 .cfi_offset 14,-4
 164:C:/Users/Yushev/git/optiga-trust-qi/projects/xmc4700_relax_kit/common/Libraries/XMCLib/src\xmc4_flash.c ****   volatile uint32_t *address;
 165:C:/Users/Yushev/git/optiga-trust-qi/projects/xmc4700_relax_kit/common/Libraries/XMCLib/src\xmc4_flash.c **** 
 166:C:/Users/Yushev/git/optiga-trust-qi/projects/xmc4700_relax_kit/common/Libraries/XMCLib/src\xmc4_flash.c ****   address = (uint32_t *)(XMC_FLASH_UNCACHED_BASE + 0x5554U);
 167:C:/Users/Yushev/git/optiga-trust-qi/projects/xmc4700_relax_kit/common/Libraries/XMCLib/src\xmc4_flash.c ****   *address = 0xaaU;
 187              	 .loc 1 167 0
 188 0002 064B     	 ldr r3,.L14
 168:C:/Users/Yushev/git/optiga-trust-qi/projects/xmc4700_relax_kit/common/Libraries/XMCLib/src\xmc4_flash.c ****   address = (uint32_t *)(XMC_FLASH_UNCACHED_BASE + 0xaaa8U);
 169:C:/Users/Yushev/git/optiga-trust-qi/projects/xmc4700_relax_kit/common/Libraries/XMCLib/src\xmc4_flash.c ****   *address = 0x55U;
 189              	 .loc 1 169 0
 190 0004 064A     	 ldr r2,.L14+4
 167:C:/Users/Yushev/git/optiga-trust-qi/projects/xmc4700_relax_kit/common/Libraries/XMCLib/src\xmc4_flash.c ****   address = (uint32_t *)(XMC_FLASH_UNCACHED_BASE + 0xaaa8U);
 191              	 .loc 1 167 0
 192 0006 AA24     	 movs r4,#170
 193              	 .loc 1 169 0
 194 0008 5521     	 movs r1,#85
 170:C:/Users/Yushev/git/optiga-trust-qi/projects/xmc4700_relax_kit/common/Libraries/XMCLib/src\xmc4_flash.c ****   address = (uint32_t *)(XMC_FLASH_UNCACHED_BASE + 0x5554U);
 171:C:/Users/Yushev/git/optiga-trust-qi/projects/xmc4700_relax_kit/common/Libraries/XMCLib/src\xmc4_flash.c ****   *address = 0x80U;
 195              	 .loc 1 171 0
 196 000a 8025     	 movs r5,#128
 167:C:/Users/Yushev/git/optiga-trust-qi/projects/xmc4700_relax_kit/common/Libraries/XMCLib/src\xmc4_flash.c ****   address = (uint32_t *)(XMC_FLASH_UNCACHED_BASE + 0xaaa8U);
 197              	 .loc 1 167 0
 198 000c 1C60     	 str r4,[r3]
 199              	.LVL12:
 169:C:/Users/Yushev/git/optiga-trust-qi/projects/xmc4700_relax_kit/common/Libraries/XMCLib/src\xmc4_flash.c ****   address = (uint32_t *)(XMC_FLASH_UNCACHED_BASE + 0x5554U);
 200              	 .loc 1 169 0
 201 000e 1160     	 str r1,[r2]
 202              	.LVL13:
 203              	 .loc 1 171 0
 204 0010 1D60     	 str r5,[r3]
 172:C:/Users/Yushev/git/optiga-trust-qi/projects/xmc4700_relax_kit/common/Libraries/XMCLib/src\xmc4_flash.c ****   address = (uint32_t *)(XMC_FLASH_UNCACHED_BASE + 0x5554U);
 173:C:/Users/Yushev/git/optiga-trust-qi/projects/xmc4700_relax_kit/common/Libraries/XMCLib/src\xmc4_flash.c ****   *address = 0xaaU;
 205              	 .loc 1 173 0
 206 0012 1C60     	 str r4,[r3]
 207              	.LVL14:
 174:C:/Users/Yushev/git/optiga-trust-qi/projects/xmc4700_relax_kit/common/Libraries/XMCLib/src\xmc4_flash.c ****   address = (uint32_t *)(XMC_FLASH_UNCACHED_BASE + 0xaaa8U);
 175:C:/Users/Yushev/git/optiga-trust-qi/projects/xmc4700_relax_kit/common/Libraries/XMCLib/src\xmc4_flash.c ****   *address = 0x55U;
 176:C:/Users/Yushev/git/optiga-trust-qi/projects/xmc4700_relax_kit/common/Libraries/XMCLib/src\xmc4_flash.c ****   address = sector_start_address;
 177:C:/Users/Yushev/git/optiga-trust-qi/projects/xmc4700_relax_kit/common/Libraries/XMCLib/src\xmc4_flash.c ****   *address = 0x30U;
 208              	 .loc 1 177 0
 209 0014 3023     	 movs r3,#48
 175:C:/Users/Yushev/git/optiga-trust-qi/projects/xmc4700_relax_kit/common/Libraries/XMCLib/src\xmc4_flash.c ****   address = sector_start_address;
 210              	 .loc 1 175 0
 211 0016 1160     	 str r1,[r2]
 212              	.LVL15:
 213              	 .loc 1 177 0
 214 0018 0360     	 str r3,[r0]
 215 001a 30BD     	 pop {r4,r5,pc}
 216              	.L15:
 217              	 .align 2
 218              	.L14:
 219 001c 5455000C 	 .word 201348436
 220 0020 A8AA000C 	 .word 201370280
 221              	 .cfi_endproc
 222              	.LFE153:
 224              	 .section .text.XMC_FLASH_lDisableSectorWriteProtectionCommand,"ax",%progbits
 225              	 .align 1
 226              	 .global XMC_FLASH_lDisableSectorWriteProtectionCommand
 227              	 .thumb
 228              	 .thumb_func
 230              	XMC_FLASH_lDisableSectorWriteProtectionCommand:
 231              	.LFB154:
 178:C:/Users/Yushev/git/optiga-trust-qi/projects/xmc4700_relax_kit/common/Libraries/XMCLib/src\xmc4_flash.c **** }
 179:C:/Users/Yushev/git/optiga-trust-qi/projects/xmc4700_relax_kit/common/Libraries/XMCLib/src\xmc4_flash.c **** 
 180:C:/Users/Yushev/git/optiga-trust-qi/projects/xmc4700_relax_kit/common/Libraries/XMCLib/src\xmc4_flash.c **** 
 181:C:/Users/Yushev/git/optiga-trust-qi/projects/xmc4700_relax_kit/common/Libraries/XMCLib/src\xmc4_flash.c **** /*
 182:C:/Users/Yushev/git/optiga-trust-qi/projects/xmc4700_relax_kit/common/Libraries/XMCLib/src\xmc4_flash.c ****  * Command to temporarily disables the write protection belonging to the the USER specified, when p
 183:C:/Users/Yushev/git/optiga-trust-qi/projects/xmc4700_relax_kit/common/Libraries/XMCLib/src\xmc4_flash.c ****  * configured values
 184:C:/Users/Yushev/git/optiga-trust-qi/projects/xmc4700_relax_kit/common/Libraries/XMCLib/src\xmc4_flash.c ****  */
 185:C:/Users/Yushev/git/optiga-trust-qi/projects/xmc4700_relax_kit/common/Libraries/XMCLib/src\xmc4_flash.c **** void XMC_FLASH_lDisableSectorWriteProtectionCommand(uint32_t user, uint32_t password_0, uint32_t pa
 186:C:/Users/Yushev/git/optiga-trust-qi/projects/xmc4700_relax_kit/common/Libraries/XMCLib/src\xmc4_flash.c **** {
 232              	 .loc 1 186 0
 233              	 .cfi_startproc
 234              	 
 235              	 
 236              	.LVL16:
 187:C:/Users/Yushev/git/optiga-trust-qi/projects/xmc4700_relax_kit/common/Libraries/XMCLib/src\xmc4_flash.c ****   volatile uint32_t *address;
 188:C:/Users/Yushev/git/optiga-trust-qi/projects/xmc4700_relax_kit/common/Libraries/XMCLib/src\xmc4_flash.c **** 
 189:C:/Users/Yushev/git/optiga-trust-qi/projects/xmc4700_relax_kit/common/Libraries/XMCLib/src\xmc4_flash.c ****   address = (uint32_t *)(XMC_FLASH_UNCACHED_BASE + 0x5554U);
 190:C:/Users/Yushev/git/optiga-trust-qi/projects/xmc4700_relax_kit/common/Libraries/XMCLib/src\xmc4_flash.c ****   *address = 0xaaU;
 237              	 .loc 1 190 0
 238 0000 094B     	 ldr r3,.L17
 186:C:/Users/Yushev/git/optiga-trust-qi/projects/xmc4700_relax_kit/common/Libraries/XMCLib/src\xmc4_flash.c ****   volatile uint32_t *address;
 239              	 .loc 1 186 0
 240 0002 10B5     	 push {r4,lr}
 241              	.LCFI3:
 242              	 .cfi_def_cfa_offset 8
 243              	 .cfi_offset 4,-8
 244              	 .cfi_offset 14,-4
 245              	 .loc 1 190 0
 246 0004 AA24     	 movs r4,#170
 247 0006 1C60     	 str r4,[r3]
 248              	.LVL17:
 191:C:/Users/Yushev/git/optiga-trust-qi/projects/xmc4700_relax_kit/common/Libraries/XMCLib/src\xmc4_flash.c ****   address = (uint32_t *)(XMC_FLASH_UNCACHED_BASE + 0xaaa8U);
 192:C:/Users/Yushev/git/optiga-trust-qi/projects/xmc4700_relax_kit/common/Libraries/XMCLib/src\xmc4_flash.c ****   *address = 0x55U;
 249              	 .loc 1 192 0
 250 0008 03F5AA43 	 add r3,r3,#21760
 251 000c 5433     	 adds r3,r3,#84
 252 000e 5524     	 movs r4,#85
 253 0010 1C60     	 str r4,[r3]
 254              	.LVL18:
 193:C:/Users/Yushev/git/optiga-trust-qi/projects/xmc4700_relax_kit/common/Libraries/XMCLib/src\xmc4_flash.c ****   address = (uint32_t *)(XMC_FLASH_UNCACHED_BASE + 0x553cU);
 194:C:/Users/Yushev/git/optiga-trust-qi/projects/xmc4700_relax_kit/common/Libraries/XMCLib/src\xmc4_flash.c ****   *address = user;
 255              	 .loc 1 194 0
 256 0012 064C     	 ldr r4,.L17+4
 257 0014 2060     	 str r0,[r4]
 258              	.LVL19:
 195:C:/Users/Yushev/git/optiga-trust-qi/projects/xmc4700_relax_kit/common/Libraries/XMCLib/src\xmc4_flash.c ****   address = (uint32_t *)(XMC_FLASH_UNCACHED_BASE + 0xaaa8U);
 196:C:/Users/Yushev/git/optiga-trust-qi/projects/xmc4700_relax_kit/common/Libraries/XMCLib/src\xmc4_flash.c ****   *address = password_0;
 259              	 .loc 1 196 0
 260 0016 1960     	 str r1,[r3]
 197:C:/Users/Yushev/git/optiga-trust-qi/projects/xmc4700_relax_kit/common/Libraries/XMCLib/src\xmc4_flash.c ****   address = (uint32_t *)(XMC_FLASH_UNCACHED_BASE + 0xaaa8U);
 198:C:/Users/Yushev/git/optiga-trust-qi/projects/xmc4700_relax_kit/common/Libraries/XMCLib/src\xmc4_flash.c ****   *address = password_1;
 261              	 .loc 1 198 0
 262 0018 1A60     	 str r2,[r3]
 263              	.LVL20:
 199:C:/Users/Yushev/git/optiga-trust-qi/projects/xmc4700_relax_kit/common/Libraries/XMCLib/src\xmc4_flash.c ****   address = (uint32_t *)(XMC_FLASH_UNCACHED_BASE + 0x5558U);
 200:C:/Users/Yushev/git/optiga-trust-qi/projects/xmc4700_relax_kit/common/Libraries/XMCLib/src\xmc4_flash.c ****   *address = 0x05U;
 264              	 .loc 1 200 0
 265 001a A3F5AA43 	 sub r3,r3,#21760
 266 001e 503B     	 subs r3,r3,#80
 267 0020 0522     	 movs r2,#5
 268              	.LVL21:
 269 0022 1A60     	 str r2,[r3]
 270              	.LVL22:
 271 0024 10BD     	 pop {r4,pc}
 272              	.L18:
 273 0026 00BF     	 .align 2
 274              	.L17:
 275 0028 5455000C 	 .word 201348436
 276 002c 3C55000C 	 .word 201348412
 277              	 .cfi_endproc
 278              	.LFE154:
 280              	 .section .text.XMC_FLASH_lDisableReadProtectionCommand,"ax",%progbits
 281              	 .align 1
 282              	 .global XMC_FLASH_lDisableReadProtectionCommand
 283              	 .thumb
 284              	 .thumb_func
 286              	XMC_FLASH_lDisableReadProtectionCommand:
 287              	.LFB155:
 201:C:/Users/Yushev/git/optiga-trust-qi/projects/xmc4700_relax_kit/common/Libraries/XMCLib/src\xmc4_flash.c **** }
 202:C:/Users/Yushev/git/optiga-trust-qi/projects/xmc4700_relax_kit/common/Libraries/XMCLib/src\xmc4_flash.c **** 
 203:C:/Users/Yushev/git/optiga-trust-qi/projects/xmc4700_relax_kit/common/Libraries/XMCLib/src\xmc4_flash.c **** /*
 204:C:/Users/Yushev/git/optiga-trust-qi/projects/xmc4700_relax_kit/common/Libraries/XMCLib/src\xmc4_flash.c ****  * Command to temporarily disables the read protection along with write protection, when passwords 
 205:C:/Users/Yushev/git/optiga-trust-qi/projects/xmc4700_relax_kit/common/Libraries/XMCLib/src\xmc4_flash.c ****  * configured values
 206:C:/Users/Yushev/git/optiga-trust-qi/projects/xmc4700_relax_kit/common/Libraries/XMCLib/src\xmc4_flash.c ****  */
 207:C:/Users/Yushev/git/optiga-trust-qi/projects/xmc4700_relax_kit/common/Libraries/XMCLib/src\xmc4_flash.c **** void XMC_FLASH_lDisableReadProtectionCommand(uint32_t password_0, uint32_t password_1)
 208:C:/Users/Yushev/git/optiga-trust-qi/projects/xmc4700_relax_kit/common/Libraries/XMCLib/src\xmc4_flash.c **** {
 288              	 .loc 1 208 0
 289              	 .cfi_startproc
 290              	 
 291              	 
 292              	.LVL23:
 209:C:/Users/Yushev/git/optiga-trust-qi/projects/xmc4700_relax_kit/common/Libraries/XMCLib/src\xmc4_flash.c ****   volatile uint32_t *address;
 210:C:/Users/Yushev/git/optiga-trust-qi/projects/xmc4700_relax_kit/common/Libraries/XMCLib/src\xmc4_flash.c **** 
 211:C:/Users/Yushev/git/optiga-trust-qi/projects/xmc4700_relax_kit/common/Libraries/XMCLib/src\xmc4_flash.c ****   address = (uint32_t *)(XMC_FLASH_UNCACHED_BASE + 0x5554U);
 212:C:/Users/Yushev/git/optiga-trust-qi/projects/xmc4700_relax_kit/common/Libraries/XMCLib/src\xmc4_flash.c ****   *address = 0xaaU;
 293              	 .loc 1 212 0
 294 0000 094B     	 ldr r3,.L20
 295 0002 AA22     	 movs r2,#170
 208:C:/Users/Yushev/git/optiga-trust-qi/projects/xmc4700_relax_kit/common/Libraries/XMCLib/src\xmc4_flash.c ****   volatile uint32_t *address;
 296              	 .loc 1 208 0
 297 0004 10B5     	 push {r4,lr}
 298              	.LCFI4:
 299              	 .cfi_def_cfa_offset 8
 300              	 .cfi_offset 4,-8
 301              	 .cfi_offset 14,-4
 302              	 .loc 1 212 0
 303 0006 1A60     	 str r2,[r3]
 304              	.LVL24:
 213:C:/Users/Yushev/git/optiga-trust-qi/projects/xmc4700_relax_kit/common/Libraries/XMCLib/src\xmc4_flash.c ****   address = (uint32_t *)(XMC_FLASH_UNCACHED_BASE + 0xaaa8U);
 214:C:/Users/Yushev/git/optiga-trust-qi/projects/xmc4700_relax_kit/common/Libraries/XMCLib/src\xmc4_flash.c ****   *address = 0x55U;
 305              	 .loc 1 214 0
 306 0008 03F5AA43 	 add r3,r3,#21760
 307 000c 5433     	 adds r3,r3,#84
 308 000e 5522     	 movs r2,#85
 309 0010 1A60     	 str r2,[r3]
 310              	.LVL25:
 215:C:/Users/Yushev/git/optiga-trust-qi/projects/xmc4700_relax_kit/common/Libraries/XMCLib/src\xmc4_flash.c ****   address = (uint32_t *)(XMC_FLASH_UNCACHED_BASE + 0x553cU);
 216:C:/Users/Yushev/git/optiga-trust-qi/projects/xmc4700_relax_kit/common/Libraries/XMCLib/src\xmc4_flash.c ****   *address = 0x00U;
 311              	 .loc 1 216 0
 312 0012 064A     	 ldr r2,.L20+4
 313 0014 0024     	 movs r4,#0
 314 0016 1460     	 str r4,[r2]
 315              	.LVL26:
 217:C:/Users/Yushev/git/optiga-trust-qi/projects/xmc4700_relax_kit/common/Libraries/XMCLib/src\xmc4_flash.c ****   address = (uint32_t *)(XMC_FLASH_UNCACHED_BASE + 0xaaa8U);
 218:C:/Users/Yushev/git/optiga-trust-qi/projects/xmc4700_relax_kit/common/Libraries/XMCLib/src\xmc4_flash.c ****   *address = password_0;
 316              	 .loc 1 218 0
 317 0018 1860     	 str r0,[r3]
 219:C:/Users/Yushev/git/optiga-trust-qi/projects/xmc4700_relax_kit/common/Libraries/XMCLib/src\xmc4_flash.c ****   address = (uint32_t *)(XMC_FLASH_UNCACHED_BASE + 0xaaa8U);
 220:C:/Users/Yushev/git/optiga-trust-qi/projects/xmc4700_relax_kit/common/Libraries/XMCLib/src\xmc4_flash.c ****   *address = password_1;
 318              	 .loc 1 220 0
 319 001a 1960     	 str r1,[r3]
 320              	.LVL27:
 221:C:/Users/Yushev/git/optiga-trust-qi/projects/xmc4700_relax_kit/common/Libraries/XMCLib/src\xmc4_flash.c ****   address = (uint32_t *)(XMC_FLASH_UNCACHED_BASE + 0x5558U);
 222:C:/Users/Yushev/git/optiga-trust-qi/projects/xmc4700_relax_kit/common/Libraries/XMCLib/src\xmc4_flash.c ****   *address = 0x08U;
 321              	 .loc 1 222 0
 322 001c A3F5AA43 	 sub r3,r3,#21760
 323 0020 503B     	 subs r3,r3,#80
 324 0022 0822     	 movs r2,#8
 325 0024 1A60     	 str r2,[r3]
 326 0026 10BD     	 pop {r4,pc}
 327              	.L21:
 328              	 .align 2
 329              	.L20:
 330 0028 5455000C 	 .word 201348436
 331 002c 3C55000C 	 .word 201348412
 332              	 .cfi_endproc
 333              	.LFE155:
 335              	 .section .text.XMC_FLASH_lClearStatusCommand,"ax",%progbits
 336              	 .align 1
 337              	 .global XMC_FLASH_lClearStatusCommand
 338              	 .thumb
 339              	 .thumb_func
 341              	XMC_FLASH_lClearStatusCommand:
 342              	.LFB156:
 223:C:/Users/Yushev/git/optiga-trust-qi/projects/xmc4700_relax_kit/common/Libraries/XMCLib/src\xmc4_flash.c **** }
 224:C:/Users/Yushev/git/optiga-trust-qi/projects/xmc4700_relax_kit/common/Libraries/XMCLib/src\xmc4_flash.c **** 
 225:C:/Users/Yushev/git/optiga-trust-qi/projects/xmc4700_relax_kit/common/Libraries/XMCLib/src\xmc4_flash.c **** /*
 226:C:/Users/Yushev/git/optiga-trust-qi/projects/xmc4700_relax_kit/common/Libraries/XMCLib/src\xmc4_flash.c ****  * Command to clear FSR.PROG and FSR.ERASE and the error flags in FSR such as PFOPER, SQER, PROER, 
 227:C:/Users/Yushev/git/optiga-trust-qi/projects/xmc4700_relax_kit/common/Libraries/XMCLib/src\xmc4_flash.c ****  */
 228:C:/Users/Yushev/git/optiga-trust-qi/projects/xmc4700_relax_kit/common/Libraries/XMCLib/src\xmc4_flash.c **** void XMC_FLASH_lClearStatusCommand(void)
 229:C:/Users/Yushev/git/optiga-trust-qi/projects/xmc4700_relax_kit/common/Libraries/XMCLib/src\xmc4_flash.c **** {
 343              	 .loc 1 229 0
 344              	 .cfi_startproc
 345              	 
 346              	 
 347              	 
 348              	.LVL28:
 230:C:/Users/Yushev/git/optiga-trust-qi/projects/xmc4700_relax_kit/common/Libraries/XMCLib/src\xmc4_flash.c ****   volatile uint32_t *address;
 231:C:/Users/Yushev/git/optiga-trust-qi/projects/xmc4700_relax_kit/common/Libraries/XMCLib/src\xmc4_flash.c **** 
 232:C:/Users/Yushev/git/optiga-trust-qi/projects/xmc4700_relax_kit/common/Libraries/XMCLib/src\xmc4_flash.c ****   address = (uint32_t *)(XMC_FLASH_UNCACHED_BASE + 0x5554U);
 233:C:/Users/Yushev/git/optiga-trust-qi/projects/xmc4700_relax_kit/common/Libraries/XMCLib/src\xmc4_flash.c ****   *address = 0xf5U;
 349              	 .loc 1 233 0
 350 0000 014B     	 ldr r3,.L23
 351 0002 F522     	 movs r2,#245
 352 0004 1A60     	 str r2,[r3]
 353 0006 7047     	 bx lr
 354              	.L24:
 355              	 .align 2
 356              	.L23:
 357 0008 5455000C 	 .word 201348436
 358              	 .cfi_endproc
 359              	.LFE156:
 361              	 .section .text.XMC_FLASH_ClearStatus,"ax",%progbits
 362              	 .align 1
 363              	 .global XMC_FLASH_ClearStatus
 364              	 .thumb
 365              	 .thumb_func
 367              	XMC_FLASH_ClearStatus:
 368              	.LFB157:
 234:C:/Users/Yushev/git/optiga-trust-qi/projects/xmc4700_relax_kit/common/Libraries/XMCLib/src\xmc4_flash.c **** }
 235:C:/Users/Yushev/git/optiga-trust-qi/projects/xmc4700_relax_kit/common/Libraries/XMCLib/src\xmc4_flash.c **** 
 236:C:/Users/Yushev/git/optiga-trust-qi/projects/xmc4700_relax_kit/common/Libraries/XMCLib/src\xmc4_flash.c **** /**************************************************************************************************
 237:C:/Users/Yushev/git/optiga-trust-qi/projects/xmc4700_relax_kit/common/Libraries/XMCLib/src\xmc4_flash.c ****  * API IMPLEMENTATION
 238:C:/Users/Yushev/git/optiga-trust-qi/projects/xmc4700_relax_kit/common/Libraries/XMCLib/src\xmc4_flash.c ****  **************************************************************************************************
 239:C:/Users/Yushev/git/optiga-trust-qi/projects/xmc4700_relax_kit/common/Libraries/XMCLib/src\xmc4_flash.c **** 
 240:C:/Users/Yushev/git/optiga-trust-qi/projects/xmc4700_relax_kit/common/Libraries/XMCLib/src\xmc4_flash.c ****  /*
 241:C:/Users/Yushev/git/optiga-trust-qi/projects/xmc4700_relax_kit/common/Libraries/XMCLib/src\xmc4_flash.c ****  * This API shall clear Program, erase and error flags(PFOPER, SQER, PROER, PFDBER, ORIER, VER) of 
 242:C:/Users/Yushev/git/optiga-trust-qi/projects/xmc4700_relax_kit/common/Libraries/XMCLib/src\xmc4_flash.c ****  */
 243:C:/Users/Yushev/git/optiga-trust-qi/projects/xmc4700_relax_kit/common/Libraries/XMCLib/src\xmc4_flash.c **** void XMC_FLASH_ClearStatus(void)
 244:C:/Users/Yushev/git/optiga-trust-qi/projects/xmc4700_relax_kit/common/Libraries/XMCLib/src\xmc4_flash.c **** {
 369              	 .loc 1 244 0
 370              	 .cfi_startproc
 371              	 
 372              	 
 373              	 
 374              	.LVL29:
 375              	.LBB64:
 376              	.LBB65:
 233:C:/Users/Yushev/git/optiga-trust-qi/projects/xmc4700_relax_kit/common/Libraries/XMCLib/src\xmc4_flash.c **** }
 377              	 .loc 1 233 0
 378 0000 014B     	 ldr r3,.L26
 379 0002 F522     	 movs r2,#245
 380 0004 1A60     	 str r2,[r3]
 381 0006 7047     	 bx lr
 382              	.L27:
 383              	 .align 2
 384              	.L26:
 385 0008 5455000C 	 .word 201348436
 386              	.LBE65:
 387              	.LBE64:
 388              	 .cfi_endproc
 389              	.LFE157:
 391              	 .section .text.XMC_FLASH_GetStatus,"ax",%progbits
 392              	 .align 1
 393              	 .global XMC_FLASH_GetStatus
 394              	 .thumb
 395              	 .thumb_func
 397              	XMC_FLASH_GetStatus:
 398              	.LFB158:
 245:C:/Users/Yushev/git/optiga-trust-qi/projects/xmc4700_relax_kit/common/Libraries/XMCLib/src\xmc4_flash.c ****   XMC_FLASH_lClearStatusCommand();
 246:C:/Users/Yushev/git/optiga-trust-qi/projects/xmc4700_relax_kit/common/Libraries/XMCLib/src\xmc4_flash.c **** }
 247:C:/Users/Yushev/git/optiga-trust-qi/projects/xmc4700_relax_kit/common/Libraries/XMCLib/src\xmc4_flash.c **** 
 248:C:/Users/Yushev/git/optiga-trust-qi/projects/xmc4700_relax_kit/common/Libraries/XMCLib/src\xmc4_flash.c **** /*
 249:C:/Users/Yushev/git/optiga-trust-qi/projects/xmc4700_relax_kit/common/Libraries/XMCLib/src\xmc4_flash.c ****  * This API returns the FSR register value
 250:C:/Users/Yushev/git/optiga-trust-qi/projects/xmc4700_relax_kit/common/Libraries/XMCLib/src\xmc4_flash.c ****  */
 251:C:/Users/Yushev/git/optiga-trust-qi/projects/xmc4700_relax_kit/common/Libraries/XMCLib/src\xmc4_flash.c **** uint32_t XMC_FLASH_GetStatus(void)
 252:C:/Users/Yushev/git/optiga-trust-qi/projects/xmc4700_relax_kit/common/Libraries/XMCLib/src\xmc4_flash.c **** {
 399              	 .loc 1 252 0
 400              	 .cfi_startproc
 401              	 
 402              	 
 403              	 
 253:C:/Users/Yushev/git/optiga-trust-qi/projects/xmc4700_relax_kit/common/Libraries/XMCLib/src\xmc4_flash.c ****   return FLASH0->FSR;
 404              	 .loc 1 253 0
 405 0000 41F21003 	 movw r3,#4112
 406 0004 014A     	 ldr r2,.L29
 407 0006 D058     	 ldr r0,[r2,r3]
 254:C:/Users/Yushev/git/optiga-trust-qi/projects/xmc4700_relax_kit/common/Libraries/XMCLib/src\xmc4_flash.c **** }
 408              	 .loc 1 254 0
 409 0008 7047     	 bx lr
 410              	.L30:
 411 000a 00BF     	 .align 2
 412              	.L29:
 413 000c 00100058 	 .word 1476399104
 414              	 .cfi_endproc
 415              	.LFE158:
 417              	 .section .text.XMC_FLASH_EnableEvent,"ax",%progbits
 418              	 .align 1
 419              	 .global XMC_FLASH_EnableEvent
 420              	 .thumb
 421              	 .thumb_func
 423              	XMC_FLASH_EnableEvent:
 424              	.LFB159:
 255:C:/Users/Yushev/git/optiga-trust-qi/projects/xmc4700_relax_kit/common/Libraries/XMCLib/src\xmc4_flash.c **** 
 256:C:/Users/Yushev/git/optiga-trust-qi/projects/xmc4700_relax_kit/common/Libraries/XMCLib/src\xmc4_flash.c **** /*
 257:C:/Users/Yushev/git/optiga-trust-qi/projects/xmc4700_relax_kit/common/Libraries/XMCLib/src\xmc4_flash.c ****  * This API enables the events which required to trigger the ISR 
 258:C:/Users/Yushev/git/optiga-trust-qi/projects/xmc4700_relax_kit/common/Libraries/XMCLib/src\xmc4_flash.c ****  */
 259:C:/Users/Yushev/git/optiga-trust-qi/projects/xmc4700_relax_kit/common/Libraries/XMCLib/src\xmc4_flash.c **** void XMC_FLASH_EnableEvent(const uint32_t event_msk)
 260:C:/Users/Yushev/git/optiga-trust-qi/projects/xmc4700_relax_kit/common/Libraries/XMCLib/src\xmc4_flash.c **** {
 425              	 .loc 1 260 0
 426              	 .cfi_startproc
 427              	 
 428              	 
 429              	 
 430              	.LVL30:
 261:C:/Users/Yushev/git/optiga-trust-qi/projects/xmc4700_relax_kit/common/Libraries/XMCLib/src\xmc4_flash.c ****   FLASH0->FCON |= event_msk;
 431              	 .loc 1 261 0
 432 0000 0349     	 ldr r1,.L32
 433 0002 41F21402 	 movw r2,#4116
 434 0006 8B58     	 ldr r3,[r1,r2]
 435 0008 1843     	 orrs r0,r0,r3
 436              	.LVL31:
 437 000a 8850     	 str r0,[r1,r2]
 438 000c 7047     	 bx lr
 439              	.L33:
 440 000e 00BF     	 .align 2
 441              	.L32:
 442 0010 00100058 	 .word 1476399104
 443              	 .cfi_endproc
 444              	.LFE159:
 446              	 .section .text.XMC_FLASH_DisableEvent,"ax",%progbits
 447              	 .align 1
 448              	 .global XMC_FLASH_DisableEvent
 449              	 .thumb
 450              	 .thumb_func
 452              	XMC_FLASH_DisableEvent:
 453              	.LFB160:
 262:C:/Users/Yushev/git/optiga-trust-qi/projects/xmc4700_relax_kit/common/Libraries/XMCLib/src\xmc4_flash.c **** }
 263:C:/Users/Yushev/git/optiga-trust-qi/projects/xmc4700_relax_kit/common/Libraries/XMCLib/src\xmc4_flash.c **** 
 264:C:/Users/Yushev/git/optiga-trust-qi/projects/xmc4700_relax_kit/common/Libraries/XMCLib/src\xmc4_flash.c **** /*
 265:C:/Users/Yushev/git/optiga-trust-qi/projects/xmc4700_relax_kit/common/Libraries/XMCLib/src\xmc4_flash.c ****  * This API disables the event generation 
 266:C:/Users/Yushev/git/optiga-trust-qi/projects/xmc4700_relax_kit/common/Libraries/XMCLib/src\xmc4_flash.c ****  */
 267:C:/Users/Yushev/git/optiga-trust-qi/projects/xmc4700_relax_kit/common/Libraries/XMCLib/src\xmc4_flash.c **** void XMC_FLASH_DisableEvent(const uint32_t event_msk)
 268:C:/Users/Yushev/git/optiga-trust-qi/projects/xmc4700_relax_kit/common/Libraries/XMCLib/src\xmc4_flash.c **** {
 454              	 .loc 1 268 0
 455              	 .cfi_startproc
 456              	 
 457              	 
 458              	 
 459              	.LVL32:
 269:C:/Users/Yushev/git/optiga-trust-qi/projects/xmc4700_relax_kit/common/Libraries/XMCLib/src\xmc4_flash.c ****   FLASH0->FCON &= ~event_msk;
 460              	 .loc 1 269 0
 461 0000 0349     	 ldr r1,.L35
 462 0002 41F21402 	 movw r2,#4116
 463 0006 8B58     	 ldr r3,[r1,r2]
 464 0008 23EA0000 	 bic r0,r3,r0
 465              	.LVL33:
 466 000c 8850     	 str r0,[r1,r2]
 467 000e 7047     	 bx lr
 468              	.L36:
 469              	 .align 2
 470              	.L35:
 471 0010 00100058 	 .word 1476399104
 472              	 .cfi_endproc
 473              	.LFE160:
 475              	 .section .text.XMC_FLASH_ProgramPage,"ax",%progbits
 476              	 .align 1
 477              	 .global XMC_FLASH_ProgramPage
 478              	 .thumb
 479              	 .thumb_func
 481              	XMC_FLASH_ProgramPage:
 482              	.LFB161:
 270:C:/Users/Yushev/git/optiga-trust-qi/projects/xmc4700_relax_kit/common/Libraries/XMCLib/src\xmc4_flash.c **** }
 271:C:/Users/Yushev/git/optiga-trust-qi/projects/xmc4700_relax_kit/common/Libraries/XMCLib/src\xmc4_flash.c **** 
 272:C:/Users/Yushev/git/optiga-trust-qi/projects/xmc4700_relax_kit/common/Libraries/XMCLib/src\xmc4_flash.c **** /*
 273:C:/Users/Yushev/git/optiga-trust-qi/projects/xmc4700_relax_kit/common/Libraries/XMCLib/src\xmc4_flash.c ****  * This API write the PFLASH page
 274:C:/Users/Yushev/git/optiga-trust-qi/projects/xmc4700_relax_kit/common/Libraries/XMCLib/src\xmc4_flash.c ****  */
 275:C:/Users/Yushev/git/optiga-trust-qi/projects/xmc4700_relax_kit/common/Libraries/XMCLib/src\xmc4_flash.c **** void XMC_FLASH_ProgramPage(uint32_t *address, const uint32_t *data)
 276:C:/Users/Yushev/git/optiga-trust-qi/projects/xmc4700_relax_kit/common/Libraries/XMCLib/src\xmc4_flash.c **** {
 483              	 .loc 1 276 0
 484              	 .cfi_startproc
 485              	 
 486              	 
 487              	.LVL34:
 488 0000 38B5     	 push {r3,r4,r5,lr}
 489              	.LCFI5:
 490              	 .cfi_def_cfa_offset 16
 491              	 .cfi_offset 3,-16
 492              	 .cfi_offset 4,-12
 493              	 .cfi_offset 5,-8
 494              	 .cfi_offset 14,-4
 495              	.LBB66:
 496              	.LBB67:
 233:C:/Users/Yushev/git/optiga-trust-qi/projects/xmc4700_relax_kit/common/Libraries/XMCLib/src\xmc4_flash.c **** }
 497              	 .loc 1 233 0
 498 0002 0B4B     	 ldr r3,.L43
 499 0004 F522     	 movs r2,#245
 500 0006 1A60     	 str r2,[r3]
 501              	.LVL35:
 502              	.LBE67:
 503              	.LBE66:
 504              	.LBB68:
 505              	.LBB69:
 109:C:/Users/Yushev/git/optiga-trust-qi/projects/xmc4700_relax_kit/common/Libraries/XMCLib/src\xmc4_flash.c **** }
 506              	 .loc 1 109 0
 507 0008 5022     	 movs r2,#80
 508 000a 1A60     	 str r2,[r3]
 509              	.LVL36:
 510 000c 0023     	 movs r3,#0
 511              	.LVL37:
 512              	.L38:
 513 000e CA18     	 adds r2,r1,r3
 514              	.LBE69:
 515              	.LBE68:
 277:C:/Users/Yushev/git/optiga-trust-qi/projects/xmc4700_relax_kit/common/Libraries/XMCLib/src\xmc4_flash.c ****   uint32_t idx;
 278:C:/Users/Yushev/git/optiga-trust-qi/projects/xmc4700_relax_kit/common/Libraries/XMCLib/src\xmc4_flash.c **** 
 279:C:/Users/Yushev/git/optiga-trust-qi/projects/xmc4700_relax_kit/common/Libraries/XMCLib/src\xmc4_flash.c ****   XMC_FLASH_lClearStatusCommand();  
 280:C:/Users/Yushev/git/optiga-trust-qi/projects/xmc4700_relax_kit/common/Libraries/XMCLib/src\xmc4_flash.c ****   XMC_FLASH_lEnterPageModeCommand();
 281:C:/Users/Yushev/git/optiga-trust-qi/projects/xmc4700_relax_kit/common/Libraries/XMCLib/src\xmc4_flash.c **** 
 282:C:/Users/Yushev/git/optiga-trust-qi/projects/xmc4700_relax_kit/common/Libraries/XMCLib/src\xmc4_flash.c ****   for (idx = 0U; idx < XMC_FLASH_WORDS_PER_PAGE; idx += 2U)
 283:C:/Users/Yushev/git/optiga-trust-qi/projects/xmc4700_relax_kit/common/Libraries/XMCLib/src\xmc4_flash.c ****   {
 284:C:/Users/Yushev/git/optiga-trust-qi/projects/xmc4700_relax_kit/common/Libraries/XMCLib/src\xmc4_flash.c ****     XMC_FLASH_lLoadPageCommand(data[idx], data[idx + 1U]);
 516              	 .loc 1 284 0 discriminator 3
 517 0010 CD58     	 ldr r5,[r1,r3]
 518 0012 5468     	 ldr r4,[r2,#4]
 519              	.LVL38:
 520              	.LBB70:
 521              	.LBB71:
 120:C:/Users/Yushev/git/optiga-trust-qi/projects/xmc4700_relax_kit/common/Libraries/XMCLib/src\xmc4_flash.c ****   address = (uint32_t *)(XMC_FLASH_UNCACHED_BASE + 0x55f4U);
 522              	 .loc 1 120 0 discriminator 3
 523 0014 074A     	 ldr r2,.L43+4
 524 0016 0833     	 adds r3,r3,#8
 525              	.LBE71:
 526              	.LBE70:
 282:C:/Users/Yushev/git/optiga-trust-qi/projects/xmc4700_relax_kit/common/Libraries/XMCLib/src\xmc4_flash.c ****   {
 527              	 .loc 1 282 0 discriminator 3
 528 0018 B3F5807F 	 cmp r3,#256
 529              	.LBB73:
 530              	.LBB72:
 120:C:/Users/Yushev/git/optiga-trust-qi/projects/xmc4700_relax_kit/common/Libraries/XMCLib/src\xmc4_flash.c ****   address = (uint32_t *)(XMC_FLASH_UNCACHED_BASE + 0x55f4U);
 531              	 .loc 1 120 0 discriminator 3
 532 001c 1560     	 str r5,[r2]
 533              	.LVL39:
 122:C:/Users/Yushev/git/optiga-trust-qi/projects/xmc4700_relax_kit/common/Libraries/XMCLib/src\xmc4_flash.c **** }
 534              	 .loc 1 122 0 discriminator 3
 535 001e 5460     	 str r4,[r2,#4]
 536              	.LBE72:
 537              	.LBE73:
 282:C:/Users/Yushev/git/optiga-trust-qi/projects/xmc4700_relax_kit/common/Libraries/XMCLib/src\xmc4_flash.c ****   {
 538              	 .loc 1 282 0 discriminator 3
 539 0020 F5D1     	 bne .L38
 285:C:/Users/Yushev/git/optiga-trust-qi/projects/xmc4700_relax_kit/common/Libraries/XMCLib/src\xmc4_flash.c ****   }
 286:C:/Users/Yushev/git/optiga-trust-qi/projects/xmc4700_relax_kit/common/Libraries/XMCLib/src\xmc4_flash.c **** 
 287:C:/Users/Yushev/git/optiga-trust-qi/projects/xmc4700_relax_kit/common/Libraries/XMCLib/src\xmc4_flash.c ****   XMC_FLASH_lWritePageCommand(address);    
 540              	 .loc 1 287 0
 541 0022 FFF7FEFF 	 bl XMC_FLASH_lWritePageCommand
 542              	.LVL40:
 543              	.L39:
 288:C:/Users/Yushev/git/optiga-trust-qi/projects/xmc4700_relax_kit/common/Libraries/XMCLib/src\xmc4_flash.c **** 
 289:C:/Users/Yushev/git/optiga-trust-qi/projects/xmc4700_relax_kit/common/Libraries/XMCLib/src\xmc4_flash.c ****   /* wait until the operation is completed */
 290:C:/Users/Yushev/git/optiga-trust-qi/projects/xmc4700_relax_kit/common/Libraries/XMCLib/src\xmc4_flash.c ****   while ((FLASH0->FSR & (uint32_t)FLASH_FSR_PBUSY_Msk) != 0U){}
 544              	 .loc 1 290 0 discriminator 1
 545 0026 044B     	 ldr r3,.L43+8
 546 0028 1B68     	 ldr r3,[r3]
 547 002a DB07     	 lsls r3,r3,#31
 548 002c FBD4     	 bmi .L39
 291:C:/Users/Yushev/git/optiga-trust-qi/projects/xmc4700_relax_kit/common/Libraries/XMCLib/src\xmc4_flash.c **** }
 549              	 .loc 1 291 0
 550 002e 38BD     	 pop {r3,r4,r5,pc}
 551              	.LVL41:
 552              	.L44:
 553              	 .align 2
 554              	.L43:
 555 0030 5455000C 	 .word 201348436
 556 0034 F055000C 	 .word 201348592
 557 0038 10200058 	 .word 1476403216
 558              	 .cfi_endproc
 559              	.LFE161:
 561              	 .section .text.XMC_FLASH_EraseSector,"ax",%progbits
 562              	 .align 1
 563              	 .global XMC_FLASH_EraseSector
 564              	 .thumb
 565              	 .thumb_func
 567              	XMC_FLASH_EraseSector:
 568              	.LFB162:
 292:C:/Users/Yushev/git/optiga-trust-qi/projects/xmc4700_relax_kit/common/Libraries/XMCLib/src\xmc4_flash.c **** 
 293:C:/Users/Yushev/git/optiga-trust-qi/projects/xmc4700_relax_kit/common/Libraries/XMCLib/src\xmc4_flash.c **** /*
 294:C:/Users/Yushev/git/optiga-trust-qi/projects/xmc4700_relax_kit/common/Libraries/XMCLib/src\xmc4_flash.c ****  * This API erase the logical sector
 295:C:/Users/Yushev/git/optiga-trust-qi/projects/xmc4700_relax_kit/common/Libraries/XMCLib/src\xmc4_flash.c ****  */
 296:C:/Users/Yushev/git/optiga-trust-qi/projects/xmc4700_relax_kit/common/Libraries/XMCLib/src\xmc4_flash.c **** void XMC_FLASH_EraseSector(uint32_t *address)
 297:C:/Users/Yushev/git/optiga-trust-qi/projects/xmc4700_relax_kit/common/Libraries/XMCLib/src\xmc4_flash.c **** {
 569              	 .loc 1 297 0
 570              	 .cfi_startproc
 571              	 
 572              	 
 573              	.LVL42:
 574 0000 08B5     	 push {r3,lr}
 575              	.LCFI6:
 576              	 .cfi_def_cfa_offset 8
 577              	 .cfi_offset 3,-8
 578              	 .cfi_offset 14,-4
 579              	.LBB74:
 580              	.LBB75:
 233:C:/Users/Yushev/git/optiga-trust-qi/projects/xmc4700_relax_kit/common/Libraries/XMCLib/src\xmc4_flash.c **** }
 581              	 .loc 1 233 0
 582 0002 054B     	 ldr r3,.L48
 583 0004 F522     	 movs r2,#245
 584 0006 1A60     	 str r2,[r3]
 585              	.LBE75:
 586              	.LBE74:
 298:C:/Users/Yushev/git/optiga-trust-qi/projects/xmc4700_relax_kit/common/Libraries/XMCLib/src\xmc4_flash.c ****   XMC_FLASH_lClearStatusCommand();
 299:C:/Users/Yushev/git/optiga-trust-qi/projects/xmc4700_relax_kit/common/Libraries/XMCLib/src\xmc4_flash.c ****   XMC_FLASH_lEraseSectorCommand(address);
 587              	 .loc 1 299 0
 588 0008 FFF7FEFF 	 bl XMC_FLASH_lEraseSectorCommand
 589              	.LVL43:
 590              	.L46:
 300:C:/Users/Yushev/git/optiga-trust-qi/projects/xmc4700_relax_kit/common/Libraries/XMCLib/src\xmc4_flash.c **** 
 301:C:/Users/Yushev/git/optiga-trust-qi/projects/xmc4700_relax_kit/common/Libraries/XMCLib/src\xmc4_flash.c ****   /* wait until the operation is completed */
 302:C:/Users/Yushev/git/optiga-trust-qi/projects/xmc4700_relax_kit/common/Libraries/XMCLib/src\xmc4_flash.c ****   while ((FLASH0->FSR & (uint32_t)FLASH_FSR_PBUSY_Msk) != 0U){}
 591              	 .loc 1 302 0 discriminator 1
 592 000c 034B     	 ldr r3,.L48+4
 593 000e 1B68     	 ldr r3,[r3]
 594 0010 DB07     	 lsls r3,r3,#31
 595 0012 FBD4     	 bmi .L46
 303:C:/Users/Yushev/git/optiga-trust-qi/projects/xmc4700_relax_kit/common/Libraries/XMCLib/src\xmc4_flash.c **** }
 596              	 .loc 1 303 0
 597 0014 08BD     	 pop {r3,pc}
 598              	.L49:
 599 0016 00BF     	 .align 2
 600              	.L48:
 601 0018 5455000C 	 .word 201348436
 602 001c 10200058 	 .word 1476403216
 603              	 .cfi_endproc
 604              	.LFE162:
 606              	 .section .text.XMC_FLASH_lErasePhysicalSectorCommand,"ax",%progbits
 607              	 .align 1
 608              	 .global XMC_FLASH_lErasePhysicalSectorCommand
 609              	 .thumb
 610              	 .thumb_func
 612              	XMC_FLASH_lErasePhysicalSectorCommand:
 613              	.LFB163:
 304:C:/Users/Yushev/git/optiga-trust-qi/projects/xmc4700_relax_kit/common/Libraries/XMCLib/src\xmc4_flash.c **** 
 305:C:/Users/Yushev/git/optiga-trust-qi/projects/xmc4700_relax_kit/common/Libraries/XMCLib/src\xmc4_flash.c **** /*
 306:C:/Users/Yushev/git/optiga-trust-qi/projects/xmc4700_relax_kit/common/Libraries/XMCLib/src\xmc4_flash.c ****  * Command to erase physical sector which is starting with the specified address
 307:C:/Users/Yushev/git/optiga-trust-qi/projects/xmc4700_relax_kit/common/Libraries/XMCLib/src\xmc4_flash.c ****  */
 308:C:/Users/Yushev/git/optiga-trust-qi/projects/xmc4700_relax_kit/common/Libraries/XMCLib/src\xmc4_flash.c **** void XMC_FLASH_lErasePhysicalSectorCommand(uint32_t *sector_start_address)
 309:C:/Users/Yushev/git/optiga-trust-qi/projects/xmc4700_relax_kit/common/Libraries/XMCLib/src\xmc4_flash.c **** {
 614              	 .loc 1 309 0
 615              	 .cfi_startproc
 616              	 
 617              	 
 618              	.LVL44:
 619 0000 30B5     	 push {r4,r5,lr}
 620              	.LCFI7:
 621              	 .cfi_def_cfa_offset 12
 622              	 .cfi_offset 4,-12
 623              	 .cfi_offset 5,-8
 624              	 .cfi_offset 14,-4
 310:C:/Users/Yushev/git/optiga-trust-qi/projects/xmc4700_relax_kit/common/Libraries/XMCLib/src\xmc4_flash.c ****   volatile uint32_t *address;
 311:C:/Users/Yushev/git/optiga-trust-qi/projects/xmc4700_relax_kit/common/Libraries/XMCLib/src\xmc4_flash.c **** 
 312:C:/Users/Yushev/git/optiga-trust-qi/projects/xmc4700_relax_kit/common/Libraries/XMCLib/src\xmc4_flash.c ****   address = (uint32_t *)(XMC_FLASH_UNCACHED_BASE + 0x5554U);
 313:C:/Users/Yushev/git/optiga-trust-qi/projects/xmc4700_relax_kit/common/Libraries/XMCLib/src\xmc4_flash.c ****   *address = 0xaaU;
 625              	 .loc 1 313 0
 626 0002 064B     	 ldr r3,.L51
 314:C:/Users/Yushev/git/optiga-trust-qi/projects/xmc4700_relax_kit/common/Libraries/XMCLib/src\xmc4_flash.c ****   address = (uint32_t *)(XMC_FLASH_UNCACHED_BASE + 0xaaa8U);
 315:C:/Users/Yushev/git/optiga-trust-qi/projects/xmc4700_relax_kit/common/Libraries/XMCLib/src\xmc4_flash.c ****   *address = 0x55U;
 627              	 .loc 1 315 0
 628 0004 064A     	 ldr r2,.L51+4
 313:C:/Users/Yushev/git/optiga-trust-qi/projects/xmc4700_relax_kit/common/Libraries/XMCLib/src\xmc4_flash.c ****   address = (uint32_t *)(XMC_FLASH_UNCACHED_BASE + 0xaaa8U);
 629              	 .loc 1 313 0
 630 0006 AA24     	 movs r4,#170
 631              	 .loc 1 315 0
 632 0008 5521     	 movs r1,#85
 316:C:/Users/Yushev/git/optiga-trust-qi/projects/xmc4700_relax_kit/common/Libraries/XMCLib/src\xmc4_flash.c ****   address = (uint32_t *)(XMC_FLASH_UNCACHED_BASE + 0x5554U);
 317:C:/Users/Yushev/git/optiga-trust-qi/projects/xmc4700_relax_kit/common/Libraries/XMCLib/src\xmc4_flash.c ****   *address = 0x80U;
 633              	 .loc 1 317 0
 634 000a 8025     	 movs r5,#128
 313:C:/Users/Yushev/git/optiga-trust-qi/projects/xmc4700_relax_kit/common/Libraries/XMCLib/src\xmc4_flash.c ****   address = (uint32_t *)(XMC_FLASH_UNCACHED_BASE + 0xaaa8U);
 635              	 .loc 1 313 0
 636 000c 1C60     	 str r4,[r3]
 637              	.LVL45:
 315:C:/Users/Yushev/git/optiga-trust-qi/projects/xmc4700_relax_kit/common/Libraries/XMCLib/src\xmc4_flash.c ****   address = (uint32_t *)(XMC_FLASH_UNCACHED_BASE + 0x5554U);
 638              	 .loc 1 315 0
 639 000e 1160     	 str r1,[r2]
 640              	.LVL46:
 641              	 .loc 1 317 0
 642 0010 1D60     	 str r5,[r3]
 318:C:/Users/Yushev/git/optiga-trust-qi/projects/xmc4700_relax_kit/common/Libraries/XMCLib/src\xmc4_flash.c ****   address = (uint32_t *)(XMC_FLASH_UNCACHED_BASE + 0x5554U);
 319:C:/Users/Yushev/git/optiga-trust-qi/projects/xmc4700_relax_kit/common/Libraries/XMCLib/src\xmc4_flash.c ****   *address = 0xaaU;
 643              	 .loc 1 319 0
 644 0012 1C60     	 str r4,[r3]
 645              	.LVL47:
 320:C:/Users/Yushev/git/optiga-trust-qi/projects/xmc4700_relax_kit/common/Libraries/XMCLib/src\xmc4_flash.c ****   address = (uint32_t *)(XMC_FLASH_UNCACHED_BASE + 0xaaa8U);
 321:C:/Users/Yushev/git/optiga-trust-qi/projects/xmc4700_relax_kit/common/Libraries/XMCLib/src\xmc4_flash.c ****   *address = 0x55U;
 322:C:/Users/Yushev/git/optiga-trust-qi/projects/xmc4700_relax_kit/common/Libraries/XMCLib/src\xmc4_flash.c ****   address = sector_start_address;
 323:C:/Users/Yushev/git/optiga-trust-qi/projects/xmc4700_relax_kit/common/Libraries/XMCLib/src\xmc4_flash.c ****   *address = 0x40U;
 646              	 .loc 1 323 0
 647 0014 4023     	 movs r3,#64
 321:C:/Users/Yushev/git/optiga-trust-qi/projects/xmc4700_relax_kit/common/Libraries/XMCLib/src\xmc4_flash.c ****   address = sector_start_address;
 648              	 .loc 1 321 0
 649 0016 1160     	 str r1,[r2]
 650              	.LVL48:
 651              	 .loc 1 323 0
 652 0018 0360     	 str r3,[r0]
 653 001a 30BD     	 pop {r4,r5,pc}
 654              	.L52:
 655              	 .align 2
 656              	.L51:
 657 001c 5455000C 	 .word 201348436
 658 0020 A8AA000C 	 .word 201370280
 659              	 .cfi_endproc
 660              	.LFE163:
 662              	 .section .text.XMC_FLASH_lRepairPhysicalSectorCommand,"ax",%progbits
 663              	 .align 1
 664              	 .global XMC_FLASH_lRepairPhysicalSectorCommand
 665              	 .thumb
 666              	 .thumb_func
 668              	XMC_FLASH_lRepairPhysicalSectorCommand:
 669              	.LFB164:
 324:C:/Users/Yushev/git/optiga-trust-qi/projects/xmc4700_relax_kit/common/Libraries/XMCLib/src\xmc4_flash.c **** }
 325:C:/Users/Yushev/git/optiga-trust-qi/projects/xmc4700_relax_kit/common/Libraries/XMCLib/src\xmc4_flash.c **** 
 326:C:/Users/Yushev/git/optiga-trust-qi/projects/xmc4700_relax_kit/common/Libraries/XMCLib/src\xmc4_flash.c **** /*
 327:C:/Users/Yushev/git/optiga-trust-qi/projects/xmc4700_relax_kit/common/Libraries/XMCLib/src\xmc4_flash.c ****  * Command to erase physical sector-4 which is starting with the specified address
 328:C:/Users/Yushev/git/optiga-trust-qi/projects/xmc4700_relax_kit/common/Libraries/XMCLib/src\xmc4_flash.c ****  * This command is only available if PROCON1.PRS = 1.
 329:C:/Users/Yushev/git/optiga-trust-qi/projects/xmc4700_relax_kit/common/Libraries/XMCLib/src\xmc4_flash.c ****  */
 330:C:/Users/Yushev/git/optiga-trust-qi/projects/xmc4700_relax_kit/common/Libraries/XMCLib/src\xmc4_flash.c **** void XMC_FLASH_lRepairPhysicalSectorCommand(void)
 331:C:/Users/Yushev/git/optiga-trust-qi/projects/xmc4700_relax_kit/common/Libraries/XMCLib/src\xmc4_flash.c **** {
 670              	 .loc 1 331 0
 671              	 .cfi_startproc
 672              	 
 673              	 
 674              	.LVL49:
 675 0000 10B5     	 push {r4,lr}
 676              	.LCFI8:
 677              	 .cfi_def_cfa_offset 8
 678              	 .cfi_offset 4,-8
 679              	 .cfi_offset 14,-4
 332:C:/Users/Yushev/git/optiga-trust-qi/projects/xmc4700_relax_kit/common/Libraries/XMCLib/src\xmc4_flash.c ****   volatile uint32_t *address;
 333:C:/Users/Yushev/git/optiga-trust-qi/projects/xmc4700_relax_kit/common/Libraries/XMCLib/src\xmc4_flash.c **** 
 334:C:/Users/Yushev/git/optiga-trust-qi/projects/xmc4700_relax_kit/common/Libraries/XMCLib/src\xmc4_flash.c ****   address = (uint32_t *)(XMC_FLASH_UNCACHED_BASE + 0x5554U);
 335:C:/Users/Yushev/git/optiga-trust-qi/projects/xmc4700_relax_kit/common/Libraries/XMCLib/src\xmc4_flash.c ****   *address = 0xaaU;
 680              	 .loc 1 335 0
 681 0002 074B     	 ldr r3,.L54
 336:C:/Users/Yushev/git/optiga-trust-qi/projects/xmc4700_relax_kit/common/Libraries/XMCLib/src\xmc4_flash.c ****   address = (uint32_t *)(XMC_FLASH_UNCACHED_BASE + 0xaaa8U);
 337:C:/Users/Yushev/git/optiga-trust-qi/projects/xmc4700_relax_kit/common/Libraries/XMCLib/src\xmc4_flash.c ****   *address = 0x55U;
 682              	 .loc 1 337 0
 683 0004 074A     	 ldr r2,.L54+4
 335:C:/Users/Yushev/git/optiga-trust-qi/projects/xmc4700_relax_kit/common/Libraries/XMCLib/src\xmc4_flash.c ****   address = (uint32_t *)(XMC_FLASH_UNCACHED_BASE + 0xaaa8U);
 684              	 .loc 1 335 0
 685 0006 AA20     	 movs r0,#170
 686              	 .loc 1 337 0
 687 0008 5521     	 movs r1,#85
 338:C:/Users/Yushev/git/optiga-trust-qi/projects/xmc4700_relax_kit/common/Libraries/XMCLib/src\xmc4_flash.c ****   address = (uint32_t *)(XMC_FLASH_UNCACHED_BASE + 0x5554U);
 339:C:/Users/Yushev/git/optiga-trust-qi/projects/xmc4700_relax_kit/common/Libraries/XMCLib/src\xmc4_flash.c ****   *address = 0x80U;
 688              	 .loc 1 339 0
 689 000a 8024     	 movs r4,#128
 335:C:/Users/Yushev/git/optiga-trust-qi/projects/xmc4700_relax_kit/common/Libraries/XMCLib/src\xmc4_flash.c ****   address = (uint32_t *)(XMC_FLASH_UNCACHED_BASE + 0xaaa8U);
 690              	 .loc 1 335 0
 691 000c 1860     	 str r0,[r3]
 692              	.LVL50:
 337:C:/Users/Yushev/git/optiga-trust-qi/projects/xmc4700_relax_kit/common/Libraries/XMCLib/src\xmc4_flash.c ****   address = (uint32_t *)(XMC_FLASH_UNCACHED_BASE + 0x5554U);
 693              	 .loc 1 337 0
 694 000e 1160     	 str r1,[r2]
 695              	.LVL51:
 696              	 .loc 1 339 0
 697 0010 1C60     	 str r4,[r3]
 340:C:/Users/Yushev/git/optiga-trust-qi/projects/xmc4700_relax_kit/common/Libraries/XMCLib/src\xmc4_flash.c ****   address = (uint32_t *)(XMC_FLASH_UNCACHED_BASE + 0x5554U);
 341:C:/Users/Yushev/git/optiga-trust-qi/projects/xmc4700_relax_kit/common/Libraries/XMCLib/src\xmc4_flash.c ****   *address = 0xaaU;
 698              	 .loc 1 341 0
 699 0012 1860     	 str r0,[r3]
 700              	.LVL52:
 342:C:/Users/Yushev/git/optiga-trust-qi/projects/xmc4700_relax_kit/common/Libraries/XMCLib/src\xmc4_flash.c ****   address = (uint32_t *)(XMC_FLASH_UNCACHED_BASE + 0xaaa8U);
 343:C:/Users/Yushev/git/optiga-trust-qi/projects/xmc4700_relax_kit/common/Libraries/XMCLib/src\xmc4_flash.c ****   *address = 0x55U;
 344:C:/Users/Yushev/git/optiga-trust-qi/projects/xmc4700_relax_kit/common/Libraries/XMCLib/src\xmc4_flash.c ****   address = XMC_FLASH_PHY_SECTOR_4;
 345:C:/Users/Yushev/git/optiga-trust-qi/projects/xmc4700_relax_kit/common/Libraries/XMCLib/src\xmc4_flash.c ****   *address = 0x40U;
 701              	 .loc 1 345 0
 702 0014 044B     	 ldr r3,.L54+8
 343:C:/Users/Yushev/git/optiga-trust-qi/projects/xmc4700_relax_kit/common/Libraries/XMCLib/src\xmc4_flash.c ****   address = XMC_FLASH_PHY_SECTOR_4;
 703              	 .loc 1 343 0
 704 0016 1160     	 str r1,[r2]
 705              	.LVL53:
 706              	 .loc 1 345 0
 707 0018 4022     	 movs r2,#64
 708 001a 1A60     	 str r2,[r3]
 709 001c 10BD     	 pop {r4,pc}
 710              	.L55:
 711 001e 00BF     	 .align 2
 712              	.L54:
 713 0020 5455000C 	 .word 201348436
 714 0024 A8AA000C 	 .word 201370280
 715 0028 0000010C 	 .word 201392128
 716              	 .cfi_endproc
 717              	.LFE164:
 719              	 .section .text.XMC_FLASH_ErasePhysicalSector,"ax",%progbits
 720              	 .align 1
 721              	 .global XMC_FLASH_ErasePhysicalSector
 722              	 .thumb
 723              	 .thumb_func
 725              	XMC_FLASH_ErasePhysicalSector:
 726              	.LFB165:
 346:C:/Users/Yushev/git/optiga-trust-qi/projects/xmc4700_relax_kit/common/Libraries/XMCLib/src\xmc4_flash.c **** }
 347:C:/Users/Yushev/git/optiga-trust-qi/projects/xmc4700_relax_kit/common/Libraries/XMCLib/src\xmc4_flash.c **** 
 348:C:/Users/Yushev/git/optiga-trust-qi/projects/xmc4700_relax_kit/common/Libraries/XMCLib/src\xmc4_flash.c ****  /* 
 349:C:/Users/Yushev/git/optiga-trust-qi/projects/xmc4700_relax_kit/common/Libraries/XMCLib/src\xmc4_flash.c ****   * This API erase the physical sector
 350:C:/Users/Yushev/git/optiga-trust-qi/projects/xmc4700_relax_kit/common/Libraries/XMCLib/src\xmc4_flash.c ****   */
 351:C:/Users/Yushev/git/optiga-trust-qi/projects/xmc4700_relax_kit/common/Libraries/XMCLib/src\xmc4_flash.c **** void XMC_FLASH_ErasePhysicalSector(uint32_t *address)
 352:C:/Users/Yushev/git/optiga-trust-qi/projects/xmc4700_relax_kit/common/Libraries/XMCLib/src\xmc4_flash.c **** {
 727              	 .loc 1 352 0
 728              	 .cfi_startproc
 729              	 
 730              	 
 731              	.LVL54:
 732 0000 08B5     	 push {r3,lr}
 733              	.LCFI9:
 734              	 .cfi_def_cfa_offset 8
 735              	 .cfi_offset 3,-8
 736              	 .cfi_offset 14,-4
 737              	.LBB76:
 738              	.LBB77:
 233:C:/Users/Yushev/git/optiga-trust-qi/projects/xmc4700_relax_kit/common/Libraries/XMCLib/src\xmc4_flash.c **** }
 739              	 .loc 1 233 0
 740 0002 054B     	 ldr r3,.L59
 741 0004 F522     	 movs r2,#245
 742 0006 1A60     	 str r2,[r3]
 743              	.LBE77:
 744              	.LBE76:
 353:C:/Users/Yushev/git/optiga-trust-qi/projects/xmc4700_relax_kit/common/Libraries/XMCLib/src\xmc4_flash.c ****   XMC_FLASH_lClearStatusCommand();
 354:C:/Users/Yushev/git/optiga-trust-qi/projects/xmc4700_relax_kit/common/Libraries/XMCLib/src\xmc4_flash.c ****   XMC_FLASH_lErasePhysicalSectorCommand(address);
 745              	 .loc 1 354 0
 746 0008 FFF7FEFF 	 bl XMC_FLASH_lErasePhysicalSectorCommand
 747              	.LVL55:
 748              	.L57:
 355:C:/Users/Yushev/git/optiga-trust-qi/projects/xmc4700_relax_kit/common/Libraries/XMCLib/src\xmc4_flash.c **** 
 356:C:/Users/Yushev/git/optiga-trust-qi/projects/xmc4700_relax_kit/common/Libraries/XMCLib/src\xmc4_flash.c ****   /* wait until the operation is completed */
 357:C:/Users/Yushev/git/optiga-trust-qi/projects/xmc4700_relax_kit/common/Libraries/XMCLib/src\xmc4_flash.c ****   while ((FLASH0->FSR & (uint32_t)FLASH_FSR_PBUSY_Msk) != 0U){}
 749              	 .loc 1 357 0 discriminator 1
 750 000c 034B     	 ldr r3,.L59+4
 751 000e 1B68     	 ldr r3,[r3]
 752 0010 DB07     	 lsls r3,r3,#31
 753 0012 FBD4     	 bmi .L57
 358:C:/Users/Yushev/git/optiga-trust-qi/projects/xmc4700_relax_kit/common/Libraries/XMCLib/src\xmc4_flash.c **** }
 754              	 .loc 1 358 0
 755 0014 08BD     	 pop {r3,pc}
 756              	.L60:
 757 0016 00BF     	 .align 2
 758              	.L59:
 759 0018 5455000C 	 .word 201348436
 760 001c 10200058 	 .word 1476403216
 761              	 .cfi_endproc
 762              	.LFE165:
 764              	 .section .text.XMC_FLASH_RepairPhysicalSector,"ax",%progbits
 765              	 .align 1
 766              	 .global XMC_FLASH_RepairPhysicalSector
 767              	 .thumb
 768              	 .thumb_func
 770              	XMC_FLASH_RepairPhysicalSector:
 771              	.LFB166:
 359:C:/Users/Yushev/git/optiga-trust-qi/projects/xmc4700_relax_kit/common/Libraries/XMCLib/src\xmc4_flash.c **** 
 360:C:/Users/Yushev/git/optiga-trust-qi/projects/xmc4700_relax_kit/common/Libraries/XMCLib/src\xmc4_flash.c **** /*
 361:C:/Users/Yushev/git/optiga-trust-qi/projects/xmc4700_relax_kit/common/Libraries/XMCLib/src\xmc4_flash.c ****  * This API repair the physical sector
 362:C:/Users/Yushev/git/optiga-trust-qi/projects/xmc4700_relax_kit/common/Libraries/XMCLib/src\xmc4_flash.c ****  */
 363:C:/Users/Yushev/git/optiga-trust-qi/projects/xmc4700_relax_kit/common/Libraries/XMCLib/src\xmc4_flash.c **** void XMC_FLASH_RepairPhysicalSector(void)
 364:C:/Users/Yushev/git/optiga-trust-qi/projects/xmc4700_relax_kit/common/Libraries/XMCLib/src\xmc4_flash.c **** {
 772              	 .loc 1 364 0
 773              	 .cfi_startproc
 774              	 
 775              	 
 776              	 
 777              	.LVL56:
 778              	.LBB78:
 779              	.LBB79:
 233:C:/Users/Yushev/git/optiga-trust-qi/projects/xmc4700_relax_kit/common/Libraries/XMCLib/src\xmc4_flash.c **** }
 780              	 .loc 1 233 0
 781 0000 024B     	 ldr r3,.L62
 782 0002 F522     	 movs r2,#245
 783 0004 1A60     	 str r2,[r3]
 784              	.LBE79:
 785              	.LBE78:
 365:C:/Users/Yushev/git/optiga-trust-qi/projects/xmc4700_relax_kit/common/Libraries/XMCLib/src\xmc4_flash.c ****   XMC_FLASH_lClearStatusCommand();
 366:C:/Users/Yushev/git/optiga-trust-qi/projects/xmc4700_relax_kit/common/Libraries/XMCLib/src\xmc4_flash.c ****   XMC_FLASH_lRepairPhysicalSectorCommand();
 786              	 .loc 1 366 0
 787 0006 FFF7FEBF 	 b XMC_FLASH_lRepairPhysicalSectorCommand
 788              	.LVL57:
 789              	.L63:
 790 000a 00BF     	 .align 2
 791              	.L62:
 792 000c 5455000C 	 .word 201348436
 793              	 .cfi_endproc
 794              	.LFE166:
 796              	 .section .text.XMC_FLASH_EraseUCB,"ax",%progbits
 797              	 .align 1
 798              	 .global XMC_FLASH_EraseUCB
 799              	 .thumb
 800              	 .thumb_func
 802              	XMC_FLASH_EraseUCB:
 803              	.LFB167:
 367:C:/Users/Yushev/git/optiga-trust-qi/projects/xmc4700_relax_kit/common/Libraries/XMCLib/src\xmc4_flash.c **** }
 368:C:/Users/Yushev/git/optiga-trust-qi/projects/xmc4700_relax_kit/common/Libraries/XMCLib/src\xmc4_flash.c **** 
 369:C:/Users/Yushev/git/optiga-trust-qi/projects/xmc4700_relax_kit/common/Libraries/XMCLib/src\xmc4_flash.c **** /*
 370:C:/Users/Yushev/git/optiga-trust-qi/projects/xmc4700_relax_kit/common/Libraries/XMCLib/src\xmc4_flash.c ****  * Command to erase UCB sector which is starting with the specified address
 371:C:/Users/Yushev/git/optiga-trust-qi/projects/xmc4700_relax_kit/common/Libraries/XMCLib/src\xmc4_flash.c ****  */
 372:C:/Users/Yushev/git/optiga-trust-qi/projects/xmc4700_relax_kit/common/Libraries/XMCLib/src\xmc4_flash.c **** void XMC_FLASH_EraseUCB(uint32_t *ucb_sector_start_address)
 373:C:/Users/Yushev/git/optiga-trust-qi/projects/xmc4700_relax_kit/common/Libraries/XMCLib/src\xmc4_flash.c **** {
 804              	 .loc 1 373 0
 805              	 .cfi_startproc
 806              	 
 807              	 
 808              	.LVL58:
 374:C:/Users/Yushev/git/optiga-trust-qi/projects/xmc4700_relax_kit/common/Libraries/XMCLib/src\xmc4_flash.c ****   volatile uint32_t *address;
 375:C:/Users/Yushev/git/optiga-trust-qi/projects/xmc4700_relax_kit/common/Libraries/XMCLib/src\xmc4_flash.c **** 
 376:C:/Users/Yushev/git/optiga-trust-qi/projects/xmc4700_relax_kit/common/Libraries/XMCLib/src\xmc4_flash.c ****   address = (uint32_t *)(XMC_FLASH_UNCACHED_BASE + 0x5554U);
 377:C:/Users/Yushev/git/optiga-trust-qi/projects/xmc4700_relax_kit/common/Libraries/XMCLib/src\xmc4_flash.c ****   *address = 0xaaU;
 809              	 .loc 1 377 0
 810 0000 084B     	 ldr r3,.L67
 378:C:/Users/Yushev/git/optiga-trust-qi/projects/xmc4700_relax_kit/common/Libraries/XMCLib/src\xmc4_flash.c ****   address = (uint32_t *)(XMC_FLASH_UNCACHED_BASE + 0xaaa8U);
 379:C:/Users/Yushev/git/optiga-trust-qi/projects/xmc4700_relax_kit/common/Libraries/XMCLib/src\xmc4_flash.c ****   *address = 0x55U;
 811              	 .loc 1 379 0
 812 0002 094A     	 ldr r2,.L67+4
 373:C:/Users/Yushev/git/optiga-trust-qi/projects/xmc4700_relax_kit/common/Libraries/XMCLib/src\xmc4_flash.c ****   volatile uint32_t *address;
 813              	 .loc 1 373 0
 814 0004 30B5     	 push {r4,r5,lr}
 815              	.LCFI10:
 816              	 .cfi_def_cfa_offset 12
 817              	 .cfi_offset 4,-12
 818              	 .cfi_offset 5,-8
 819              	 .cfi_offset 14,-4
 820              	 .loc 1 379 0
 821 0006 5521     	 movs r1,#85
 377:C:/Users/Yushev/git/optiga-trust-qi/projects/xmc4700_relax_kit/common/Libraries/XMCLib/src\xmc4_flash.c ****   address = (uint32_t *)(XMC_FLASH_UNCACHED_BASE + 0xaaa8U);
 822              	 .loc 1 377 0
 823 0008 AA24     	 movs r4,#170
 380:C:/Users/Yushev/git/optiga-trust-qi/projects/xmc4700_relax_kit/common/Libraries/XMCLib/src\xmc4_flash.c ****   address = (uint32_t *)(XMC_FLASH_UNCACHED_BASE + 0x5554U);
 381:C:/Users/Yushev/git/optiga-trust-qi/projects/xmc4700_relax_kit/common/Libraries/XMCLib/src\xmc4_flash.c ****   *address = 0x80U;
 824              	 .loc 1 381 0
 825 000a 8025     	 movs r5,#128
 377:C:/Users/Yushev/git/optiga-trust-qi/projects/xmc4700_relax_kit/common/Libraries/XMCLib/src\xmc4_flash.c ****   address = (uint32_t *)(XMC_FLASH_UNCACHED_BASE + 0xaaa8U);
 826              	 .loc 1 377 0
 827 000c 1C60     	 str r4,[r3]
 828              	.LVL59:
 379:C:/Users/Yushev/git/optiga-trust-qi/projects/xmc4700_relax_kit/common/Libraries/XMCLib/src\xmc4_flash.c ****   address = (uint32_t *)(XMC_FLASH_UNCACHED_BASE + 0x5554U);
 829              	 .loc 1 379 0
 830 000e 1160     	 str r1,[r2]
 831              	.LVL60:
 832              	 .loc 1 381 0
 833 0010 1D60     	 str r5,[r3]
 382:C:/Users/Yushev/git/optiga-trust-qi/projects/xmc4700_relax_kit/common/Libraries/XMCLib/src\xmc4_flash.c ****   address = (uint32_t *)(XMC_FLASH_UNCACHED_BASE + 0x5554U);
 383:C:/Users/Yushev/git/optiga-trust-qi/projects/xmc4700_relax_kit/common/Libraries/XMCLib/src\xmc4_flash.c ****   *address = 0xaaU;
 834              	 .loc 1 383 0
 835 0012 1C60     	 str r4,[r3]
 836              	.LVL61:
 384:C:/Users/Yushev/git/optiga-trust-qi/projects/xmc4700_relax_kit/common/Libraries/XMCLib/src\xmc4_flash.c ****   address = (uint32_t *)(XMC_FLASH_UNCACHED_BASE + 0xaaa8U);
 385:C:/Users/Yushev/git/optiga-trust-qi/projects/xmc4700_relax_kit/common/Libraries/XMCLib/src\xmc4_flash.c ****   *address = 0x55U;
 386:C:/Users/Yushev/git/optiga-trust-qi/projects/xmc4700_relax_kit/common/Libraries/XMCLib/src\xmc4_flash.c ****   address = ucb_sector_start_address;
 387:C:/Users/Yushev/git/optiga-trust-qi/projects/xmc4700_relax_kit/common/Libraries/XMCLib/src\xmc4_flash.c ****   *address = 0xc0U;
 837              	 .loc 1 387 0
 838 0014 C023     	 movs r3,#192
 385:C:/Users/Yushev/git/optiga-trust-qi/projects/xmc4700_relax_kit/common/Libraries/XMCLib/src\xmc4_flash.c ****   address = ucb_sector_start_address;
 839              	 .loc 1 385 0
 840 0016 1160     	 str r1,[r2]
 841              	.LVL62:
 842              	 .loc 1 387 0
 843 0018 0360     	 str r3,[r0]
 844              	.L65:
 388:C:/Users/Yushev/git/optiga-trust-qi/projects/xmc4700_relax_kit/common/Libraries/XMCLib/src\xmc4_flash.c **** 
 389:C:/Users/Yushev/git/optiga-trust-qi/projects/xmc4700_relax_kit/common/Libraries/XMCLib/src\xmc4_flash.c ****   /* wait until the operation is completed */
 390:C:/Users/Yushev/git/optiga-trust-qi/projects/xmc4700_relax_kit/common/Libraries/XMCLib/src\xmc4_flash.c ****   while ((FLASH0->FSR & (uint32_t)FLASH_FSR_PBUSY_Msk) != 0U){}
 845              	 .loc 1 390 0 discriminator 1
 846 001a 044B     	 ldr r3,.L67+8
 847 001c 1B68     	 ldr r3,[r3]
 848 001e DB07     	 lsls r3,r3,#31
 849 0020 FBD4     	 bmi .L65
 391:C:/Users/Yushev/git/optiga-trust-qi/projects/xmc4700_relax_kit/common/Libraries/XMCLib/src\xmc4_flash.c **** }
 850              	 .loc 1 391 0
 851 0022 30BD     	 pop {r4,r5,pc}
 852              	.L68:
 853              	 .align 2
 854              	.L67:
 855 0024 5455000C 	 .word 201348436
 856 0028 A8AA000C 	 .word 201370280
 857 002c 10200058 	 .word 1476403216
 858              	 .cfi_endproc
 859              	.LFE167:
 861              	 .section .text.XMC_FLASH_Reset,"ax",%progbits
 862              	 .align 1
 863              	 .global XMC_FLASH_Reset
 864              	 .thumb
 865              	 .thumb_func
 867              	XMC_FLASH_Reset:
 868              	.LFB168:
 392:C:/Users/Yushev/git/optiga-trust-qi/projects/xmc4700_relax_kit/common/Libraries/XMCLib/src\xmc4_flash.c **** 
 393:C:/Users/Yushev/git/optiga-trust-qi/projects/xmc4700_relax_kit/common/Libraries/XMCLib/src\xmc4_flash.c **** /*
 394:C:/Users/Yushev/git/optiga-trust-qi/projects/xmc4700_relax_kit/common/Libraries/XMCLib/src\xmc4_flash.c ****  * Command to reset the status of the PFLASH
 395:C:/Users/Yushev/git/optiga-trust-qi/projects/xmc4700_relax_kit/common/Libraries/XMCLib/src\xmc4_flash.c ****  */
 396:C:/Users/Yushev/git/optiga-trust-qi/projects/xmc4700_relax_kit/common/Libraries/XMCLib/src\xmc4_flash.c **** void XMC_FLASH_Reset(void)
 397:C:/Users/Yushev/git/optiga-trust-qi/projects/xmc4700_relax_kit/common/Libraries/XMCLib/src\xmc4_flash.c **** {
 869              	 .loc 1 397 0
 870              	 .cfi_startproc
 871              	 
 872              	 
 873              	 
 874              	.LVL63:
 398:C:/Users/Yushev/git/optiga-trust-qi/projects/xmc4700_relax_kit/common/Libraries/XMCLib/src\xmc4_flash.c ****   volatile uint32_t *address;
 399:C:/Users/Yushev/git/optiga-trust-qi/projects/xmc4700_relax_kit/common/Libraries/XMCLib/src\xmc4_flash.c **** 
 400:C:/Users/Yushev/git/optiga-trust-qi/projects/xmc4700_relax_kit/common/Libraries/XMCLib/src\xmc4_flash.c ****   address = (uint32_t *)(XMC_FLASH_UNCACHED_BASE + 0x5554U);
 401:C:/Users/Yushev/git/optiga-trust-qi/projects/xmc4700_relax_kit/common/Libraries/XMCLib/src\xmc4_flash.c ****   *address = 0xf0U;
 875              	 .loc 1 401 0
 876 0000 014B     	 ldr r3,.L70
 877 0002 F022     	 movs r2,#240
 878 0004 1A60     	 str r2,[r3]
 879 0006 7047     	 bx lr
 880              	.L71:
 881              	 .align 2
 882              	.L70:
 883 0008 5455000C 	 .word 201348436
 884              	 .cfi_endproc
 885              	.LFE168:
 887              	 .section .text.XMC_FLASH_InstallBMI,"ax",%progbits
 888              	 .align 1
 889              	 .global XMC_FLASH_InstallBMI
 890              	 .thumb
 891              	 .thumb_func
 893              	XMC_FLASH_InstallBMI:
 894              	.LFB169:
 402:C:/Users/Yushev/git/optiga-trust-qi/projects/xmc4700_relax_kit/common/Libraries/XMCLib/src\xmc4_flash.c **** }
 403:C:/Users/Yushev/git/optiga-trust-qi/projects/xmc4700_relax_kit/common/Libraries/XMCLib/src\xmc4_flash.c **** 
 404:C:/Users/Yushev/git/optiga-trust-qi/projects/xmc4700_relax_kit/common/Libraries/XMCLib/src\xmc4_flash.c **** #define BMI_STRING_BYTE_CNT 30
 405:C:/Users/Yushev/git/optiga-trust-qi/projects/xmc4700_relax_kit/common/Libraries/XMCLib/src\xmc4_flash.c **** 
 406:C:/Users/Yushev/git/optiga-trust-qi/projects/xmc4700_relax_kit/common/Libraries/XMCLib/src\xmc4_flash.c **** void XMC_FLASH_InstallBMI(XMC_FLASH_BMI_STRING_t *const bmi_string)
 407:C:/Users/Yushev/git/optiga-trust-qi/projects/xmc4700_relax_kit/common/Libraries/XMCLib/src\xmc4_flash.c **** {
 895              	 .loc 1 407 0
 896              	 .cfi_startproc
 897              	 
 898              	 
 899              	.LVL64:
 900 0000 10B5     	 push {r4,lr}
 901              	.LCFI11:
 902              	 .cfi_def_cfa_offset 8
 903              	 .cfi_offset 4,-8
 904              	 .cfi_offset 14,-4
 905 0002 421E     	 subs r2,r0,#1
 906 0004 00F11D01 	 add r1,r0,#29
 408:C:/Users/Yushev/git/optiga-trust-qi/projects/xmc4700_relax_kit/common/Libraries/XMCLib/src\xmc4_flash.c ****   uint32_t checksum = 0;
 907              	 .loc 1 408 0
 908 0008 0023     	 movs r3,#0
 909              	.LVL65:
 910              	.L73:
 911              	.LBB80:
 409:C:/Users/Yushev/git/optiga-trust-qi/projects/xmc4700_relax_kit/common/Libraries/XMCLib/src\xmc4_flash.c ****   for (int i = 0; i < BMI_STRING_BYTE_CNT; ++i)
 410:C:/Users/Yushev/git/optiga-trust-qi/projects/xmc4700_relax_kit/common/Libraries/XMCLib/src\xmc4_flash.c ****   {
 411:C:/Users/Yushev/git/optiga-trust-qi/projects/xmc4700_relax_kit/common/Libraries/XMCLib/src\xmc4_flash.c **** 	checksum ^= ((const uint8_t *)bmi_string)[i];
 912              	 .loc 1 411 0 discriminator 3
 913 000a 12F8014F 	 ldrb r4,[r2,#1]!
 409:C:/Users/Yushev/git/optiga-trust-qi/projects/xmc4700_relax_kit/common/Libraries/XMCLib/src\xmc4_flash.c ****   for (int i = 0; i < BMI_STRING_BYTE_CNT; ++i)
 914              	 .loc 1 409 0 discriminator 3
 915 000e 8A42     	 cmp r2,r1
 916              	 .loc 1 411 0 discriminator 3
 917 0010 83EA0403 	 eor r3,r3,r4
 918              	.LVL66:
 409:C:/Users/Yushev/git/optiga-trust-qi/projects/xmc4700_relax_kit/common/Libraries/XMCLib/src\xmc4_flash.c ****   for (int i = 0; i < BMI_STRING_BYTE_CNT; ++i)
 919              	 .loc 1 409 0 discriminator 3
 920 0014 F9D1     	 bne .L73
 921              	.LBE80:
 412:C:/Users/Yushev/git/optiga-trust-qi/projects/xmc4700_relax_kit/common/Libraries/XMCLib/src\xmc4_flash.c ****   }
 413:C:/Users/Yushev/git/optiga-trust-qi/projects/xmc4700_relax_kit/common/Libraries/XMCLib/src\xmc4_flash.c **** 
 414:C:/Users/Yushev/git/optiga-trust-qi/projects/xmc4700_relax_kit/common/Libraries/XMCLib/src\xmc4_flash.c ****   bmi_string->reserved = checksum;
 922              	 .loc 1 414 0
 923 0016 0362     	 str r3,[r0,#32]
 924              	.LVL67:
 925              	.LBB81:
 926              	.LBB82:
 109:C:/Users/Yushev/git/optiga-trust-qi/projects/xmc4700_relax_kit/common/Libraries/XMCLib/src\xmc4_flash.c **** }
 927              	 .loc 1 109 0
 928 0018 134B     	 ldr r3,.L79
 929              	.LVL68:
 930 001a 5022     	 movs r2,#80
 931 001c 1A60     	 str r2,[r3]
 932              	.LVL69:
 933              	.LBE82:
 934              	.LBE81:
 935              	.LBB83:
 936              	.LBB84:
 120:C:/Users/Yushev/git/optiga-trust-qi/projects/xmc4700_relax_kit/common/Libraries/XMCLib/src\xmc4_flash.c ****   address = (uint32_t *)(XMC_FLASH_UNCACHED_BASE + 0x55f4U);
 937              	 .loc 1 120 0
 938 001e 134A     	 ldr r2,.L79+4
 939              	.LBE84:
 940              	.LBE83:
 415:C:/Users/Yushev/git/optiga-trust-qi/projects/xmc4700_relax_kit/common/Libraries/XMCLib/src\xmc4_flash.c **** 
 416:C:/Users/Yushev/git/optiga-trust-qi/projects/xmc4700_relax_kit/common/Libraries/XMCLib/src\xmc4_flash.c ****   XMC_FLASH_lEnterPageModeCommand();
 417:C:/Users/Yushev/git/optiga-trust-qi/projects/xmc4700_relax_kit/common/Libraries/XMCLib/src\xmc4_flash.c **** 
 418:C:/Users/Yushev/git/optiga-trust-qi/projects/xmc4700_relax_kit/common/Libraries/XMCLib/src\xmc4_flash.c ****   XMC_FLASH_lLoadPageCommand(((const uint32_t *)bmi_string)[0], ((const uint32_t *)bmi_string)[1]);
 941              	 .loc 1 418 0
 942 0020 0368     	 ldr r3,[r0]
 943 0022 4168     	 ldr r1,[r0,#4]
 944              	.LVL70:
 945              	.LBB86:
 946              	.LBB85:
 120:C:/Users/Yushev/git/optiga-trust-qi/projects/xmc4700_relax_kit/common/Libraries/XMCLib/src\xmc4_flash.c ****   address = (uint32_t *)(XMC_FLASH_UNCACHED_BASE + 0x55f4U);
 947              	 .loc 1 120 0
 948 0024 1360     	 str r3,[r2]
 949              	.LVL71:
 122:C:/Users/Yushev/git/optiga-trust-qi/projects/xmc4700_relax_kit/common/Libraries/XMCLib/src\xmc4_flash.c **** }
 950              	 .loc 1 122 0
 951 0026 124B     	 ldr r3,.L79+8
 952              	.LVL72:
 953 0028 1960     	 str r1,[r3]
 954              	.LVL73:
 955              	.LBE85:
 956              	.LBE86:
 419:C:/Users/Yushev/git/optiga-trust-qi/projects/xmc4700_relax_kit/common/Libraries/XMCLib/src\xmc4_flash.c ****   XMC_FLASH_lLoadPageCommand(((const uint32_t *)bmi_string)[2], ((const uint32_t *)bmi_string)[3]);
 957              	 .loc 1 419 0
 958 002a 8468     	 ldr r4,[r0,#8]
 959 002c C168     	 ldr r1,[r0,#12]
 960              	.LVL74:
 961              	.LBB87:
 962              	.LBB88:
 120:C:/Users/Yushev/git/optiga-trust-qi/projects/xmc4700_relax_kit/common/Libraries/XMCLib/src\xmc4_flash.c ****   address = (uint32_t *)(XMC_FLASH_UNCACHED_BASE + 0x55f4U);
 963              	 .loc 1 120 0
 964 002e 1460     	 str r4,[r2]
 965              	.LVL75:
 122:C:/Users/Yushev/git/optiga-trust-qi/projects/xmc4700_relax_kit/common/Libraries/XMCLib/src\xmc4_flash.c **** }
 966              	 .loc 1 122 0
 967 0030 1960     	 str r1,[r3]
 968              	.LBE88:
 969              	.LBE87:
 420:C:/Users/Yushev/git/optiga-trust-qi/projects/xmc4700_relax_kit/common/Libraries/XMCLib/src\xmc4_flash.c ****   XMC_FLASH_lLoadPageCommand(((const uint32_t *)bmi_string)[4], ((const uint32_t *)bmi_string)[5]);
 970              	 .loc 1 420 0
 971 0032 0469     	 ldr r4,[r0,#16]
 972              	.LVL76:
 973 0034 4169     	 ldr r1,[r0,#20]
 974              	.LVL77:
 975              	.LBB89:
 976              	.LBB90:
 120:C:/Users/Yushev/git/optiga-trust-qi/projects/xmc4700_relax_kit/common/Libraries/XMCLib/src\xmc4_flash.c ****   address = (uint32_t *)(XMC_FLASH_UNCACHED_BASE + 0x55f4U);
 977              	 .loc 1 120 0
 978 0036 1460     	 str r4,[r2]
 979              	.LVL78:
 122:C:/Users/Yushev/git/optiga-trust-qi/projects/xmc4700_relax_kit/common/Libraries/XMCLib/src\xmc4_flash.c **** }
 980              	 .loc 1 122 0
 981 0038 1960     	 str r1,[r3]
 982              	.LBE90:
 983              	.LBE89:
 421:C:/Users/Yushev/git/optiga-trust-qi/projects/xmc4700_relax_kit/common/Libraries/XMCLib/src\xmc4_flash.c ****   XMC_FLASH_lLoadPageCommand(((const uint32_t *)bmi_string)[6], ((const uint32_t *)bmi_string)[7]);
 984              	 .loc 1 421 0
 985 003a C169     	 ldr r1,[r0,#28]
 986              	.LVL79:
 987 003c 8469     	 ldr r4,[r0,#24]
 988              	.LVL80:
 989              	.LBB91:
 990              	.LBB92:
 120:C:/Users/Yushev/git/optiga-trust-qi/projects/xmc4700_relax_kit/common/Libraries/XMCLib/src\xmc4_flash.c ****   address = (uint32_t *)(XMC_FLASH_UNCACHED_BASE + 0x55f4U);
 991              	 .loc 1 120 0
 992 003e 1460     	 str r4,[r2]
 993              	.LVL81:
 122:C:/Users/Yushev/git/optiga-trust-qi/projects/xmc4700_relax_kit/common/Libraries/XMCLib/src\xmc4_flash.c **** }
 994              	 .loc 1 122 0
 995 0040 1960     	 str r1,[r3]
 996              	.LBE92:
 997              	.LBE91:
 422:C:/Users/Yushev/git/optiga-trust-qi/projects/xmc4700_relax_kit/common/Libraries/XMCLib/src\xmc4_flash.c ****   XMC_FLASH_lLoadPageCommand(((const uint32_t *)bmi_string)[8], 0);
 998              	 .loc 1 422 0
 999 0042 016A     	 ldr r1,[r0,#32]
 1000              	.LVL82:
 1001              	.LBB93:
 1002              	.LBB94:
 120:C:/Users/Yushev/git/optiga-trust-qi/projects/xmc4700_relax_kit/common/Libraries/XMCLib/src\xmc4_flash.c ****   address = (uint32_t *)(XMC_FLASH_UNCACHED_BASE + 0x55f4U);
 1003              	 .loc 1 120 0
 1004 0044 1160     	 str r1,[r2]
 1005              	.LVL83:
 122:C:/Users/Yushev/git/optiga-trust-qi/projects/xmc4700_relax_kit/common/Libraries/XMCLib/src\xmc4_flash.c **** }
 1006              	 .loc 1 122 0
 1007 0046 0021     	 movs r1,#0
 1008              	.LVL84:
 1009 0048 1960     	 str r1,[r3]
 1010              	.LVL85:
 1011 004a 1B21     	 movs r1,#27
 1012              	.LVL86:
 1013              	.L74:
 1014              	.LBE94:
 1015              	.LBE93:
 1016              	.LBB95:
 1017              	.LBB96:
 1018              	.LBB97:
 120:C:/Users/Yushev/git/optiga-trust-qi/projects/xmc4700_relax_kit/common/Libraries/XMCLib/src\xmc4_flash.c ****   address = (uint32_t *)(XMC_FLASH_UNCACHED_BASE + 0x55f4U);
 1019              	 .loc 1 120 0
 1020 004c 0020     	 movs r0,#0
 1021              	.LBE97:
 1022              	.LBE96:
 423:C:/Users/Yushev/git/optiga-trust-qi/projects/xmc4700_relax_kit/common/Libraries/XMCLib/src\xmc4_flash.c **** 
 424:C:/Users/Yushev/git/optiga-trust-qi/projects/xmc4700_relax_kit/common/Libraries/XMCLib/src\xmc4_flash.c ****   for (uint32_t idx = 0U; idx < (XMC_FLASH_WORDS_PER_PAGE - XMC_FLASH_BMI_STRING_WORDS); idx += 2U)
 1023              	 .loc 1 424 0
 1024 004e 0139     	 subs r1,r1,#1
 1025              	.LVL87:
 1026              	.LBB99:
 1027              	.LBB98:
 120:C:/Users/Yushev/git/optiga-trust-qi/projects/xmc4700_relax_kit/common/Libraries/XMCLib/src\xmc4_flash.c ****   address = (uint32_t *)(XMC_FLASH_UNCACHED_BASE + 0x55f4U);
 1028              	 .loc 1 120 0
 1029 0050 1060     	 str r0,[r2]
 1030              	.LVL88:
 122:C:/Users/Yushev/git/optiga-trust-qi/projects/xmc4700_relax_kit/common/Libraries/XMCLib/src\xmc4_flash.c **** }
 1031              	 .loc 1 122 0
 1032 0052 1860     	 str r0,[r3]
 1033              	.LVL89:
 1034              	.LBE98:
 1035              	.LBE99:
 1036              	 .loc 1 424 0
 1037 0054 FAD1     	 bne .L74
 1038              	.LBE95:
 425:C:/Users/Yushev/git/optiga-trust-qi/projects/xmc4700_relax_kit/common/Libraries/XMCLib/src\xmc4_flash.c ****   {
 426:C:/Users/Yushev/git/optiga-trust-qi/projects/xmc4700_relax_kit/common/Libraries/XMCLib/src\xmc4_flash.c ****     XMC_FLASH_lLoadPageCommand(0UL, 0UL);
 427:C:/Users/Yushev/git/optiga-trust-qi/projects/xmc4700_relax_kit/common/Libraries/XMCLib/src\xmc4_flash.c ****   }
 428:C:/Users/Yushev/git/optiga-trust-qi/projects/xmc4700_relax_kit/common/Libraries/XMCLib/src\xmc4_flash.c **** 
 429:C:/Users/Yushev/git/optiga-trust-qi/projects/xmc4700_relax_kit/common/Libraries/XMCLib/src\xmc4_flash.c ****   XMC_FLASH_lWriteUCBPageCommand((uint32_t *)((uint32_t)XMC_FLASH_UCB2 + XMC_FLASH_BYTES_PER_PAGE))
 1039              	 .loc 1 429 0
 1040 0056 0748     	 ldr r0,.L79+12
 1041 0058 FFF7FEFF 	 bl XMC_FLASH_lWriteUCBPageCommand
 1042              	.LVL90:
 1043              	.L75:
 430:C:/Users/Yushev/git/optiga-trust-qi/projects/xmc4700_relax_kit/common/Libraries/XMCLib/src\xmc4_flash.c **** 
 431:C:/Users/Yushev/git/optiga-trust-qi/projects/xmc4700_relax_kit/common/Libraries/XMCLib/src\xmc4_flash.c ****   /* wait until the operation is completed */
 432:C:/Users/Yushev/git/optiga-trust-qi/projects/xmc4700_relax_kit/common/Libraries/XMCLib/src\xmc4_flash.c ****   while ((FLASH0->FSR & (uint32_t)FLASH_FSR_PBUSY_Msk) != 0U){}
 1044              	 .loc 1 432 0 discriminator 1
 1045 005c 064B     	 ldr r3,.L79+16
 1046 005e 1B68     	 ldr r3,[r3]
 1047 0060 DB07     	 lsls r3,r3,#31
 1048 0062 FBD4     	 bmi .L75
 433:C:/Users/Yushev/git/optiga-trust-qi/projects/xmc4700_relax_kit/common/Libraries/XMCLib/src\xmc4_flash.c **** }
 1049              	 .loc 1 433 0
 1050 0064 10BD     	 pop {r4,pc}
 1051              	.LVL91:
 1052              	.L80:
 1053 0066 00BF     	 .align 2
 1054              	.L79:
 1055 0068 5455000C 	 .word 201348436
 1056 006c F055000C 	 .word 201348592
 1057 0070 F455000C 	 .word 201348596
 1058 0074 0009000C 	 .word 201328896
 1059 0078 10200058 	 .word 1476403216
 1060              	 .cfi_endproc
 1061              	.LFE169:
 1063              	 .section .text.XMC_FLASH_InstallProtection,"ax",%progbits
 1064              	 .align 1
 1065              	 .global XMC_FLASH_InstallProtection
 1066              	 .thumb
 1067              	 .thumb_func
 1069              	XMC_FLASH_InstallProtection:
 1070              	.LFB170:
 434:C:/Users/Yushev/git/optiga-trust-qi/projects/xmc4700_relax_kit/common/Libraries/XMCLib/src\xmc4_flash.c **** 
 435:C:/Users/Yushev/git/optiga-trust-qi/projects/xmc4700_relax_kit/common/Libraries/XMCLib/src\xmc4_flash.c **** /*
 436:C:/Users/Yushev/git/optiga-trust-qi/projects/xmc4700_relax_kit/common/Libraries/XMCLib/src\xmc4_flash.c ****  * This API install the global read and sector write protection for the specified user
 437:C:/Users/Yushev/git/optiga-trust-qi/projects/xmc4700_relax_kit/common/Libraries/XMCLib/src\xmc4_flash.c ****  */
 438:C:/Users/Yushev/git/optiga-trust-qi/projects/xmc4700_relax_kit/common/Libraries/XMCLib/src\xmc4_flash.c **** void XMC_FLASH_InstallProtection(uint8_t user,
 439:C:/Users/Yushev/git/optiga-trust-qi/projects/xmc4700_relax_kit/common/Libraries/XMCLib/src\xmc4_flash.c ****                                  uint32_t protection_mask,
 440:C:/Users/Yushev/git/optiga-trust-qi/projects/xmc4700_relax_kit/common/Libraries/XMCLib/src\xmc4_flash.c **** 	                             uint32_t password_0,
 441:C:/Users/Yushev/git/optiga-trust-qi/projects/xmc4700_relax_kit/common/Libraries/XMCLib/src\xmc4_flash.c ****                                  uint32_t password_1)
 442:C:/Users/Yushev/git/optiga-trust-qi/projects/xmc4700_relax_kit/common/Libraries/XMCLib/src\xmc4_flash.c **** {
 1071              	 .loc 1 442 0
 1072              	 .cfi_startproc
 1073              	 
 1074              	 
 1075              	.LVL92:
 1076 0000 70B5     	 push {r4,r5,r6,lr}
 1077              	.LCFI12:
 1078              	 .cfi_def_cfa_offset 16
 1079              	 .cfi_offset 4,-16
 1080              	 .cfi_offset 5,-12
 1081              	 .cfi_offset 6,-8
 1082              	 .cfi_offset 14,-4
 1083              	.LBB100:
 1084              	.LBB101:
 109:C:/Users/Yushev/git/optiga-trust-qi/projects/xmc4700_relax_kit/common/Libraries/XMCLib/src\xmc4_flash.c **** }
 1085              	 .loc 1 109 0
 1086 0002 0F4C     	 ldr r4,.L86
 1087 0004 5025     	 movs r5,#80
 1088 0006 2560     	 str r5,[r4]
 1089              	.LVL93:
 1090              	.LBE101:
 1091              	.LBE100:
 1092              	.LBB102:
 1093              	.LBB103:
 120:C:/Users/Yushev/git/optiga-trust-qi/projects/xmc4700_relax_kit/common/Libraries/XMCLib/src\xmc4_flash.c ****   address = (uint32_t *)(XMC_FLASH_UNCACHED_BASE + 0x55f4U);
 1094              	 .loc 1 120 0
 1095 0008 0E4D     	 ldr r5,.L86+4
 122:C:/Users/Yushev/git/optiga-trust-qi/projects/xmc4700_relax_kit/common/Libraries/XMCLib/src\xmc4_flash.c **** }
 1096              	 .loc 1 122 0
 1097 000a A034     	 adds r4,r4,#160
 1098 000c 0026     	 movs r6,#0
 120:C:/Users/Yushev/git/optiga-trust-qi/projects/xmc4700_relax_kit/common/Libraries/XMCLib/src\xmc4_flash.c ****   address = (uint32_t *)(XMC_FLASH_UNCACHED_BASE + 0x55f4U);
 1099              	 .loc 1 120 0
 1100 000e 2960     	 str r1,[r5]
 1101              	.LVL94:
 122:C:/Users/Yushev/git/optiga-trust-qi/projects/xmc4700_relax_kit/common/Libraries/XMCLib/src\xmc4_flash.c **** }
 1102              	 .loc 1 122 0
 1103 0010 2660     	 str r6,[r4]
 1104              	.LVL95:
 1105              	.LBE103:
 1106              	.LBE102:
 1107              	.LBB104:
 1108              	.LBB105:
 120:C:/Users/Yushev/git/optiga-trust-qi/projects/xmc4700_relax_kit/common/Libraries/XMCLib/src\xmc4_flash.c ****   address = (uint32_t *)(XMC_FLASH_UNCACHED_BASE + 0x55f4U);
 1109              	 .loc 1 120 0
 1110 0012 2960     	 str r1,[r5]
 1111              	.LVL96:
 122:C:/Users/Yushev/git/optiga-trust-qi/projects/xmc4700_relax_kit/common/Libraries/XMCLib/src\xmc4_flash.c **** }
 1112              	 .loc 1 122 0
 1113 0014 2660     	 str r6,[r4]
 1114              	.LVL97:
 1115              	.LBE105:
 1116              	.LBE104:
 1117              	.LBB106:
 1118              	.LBB107:
 120:C:/Users/Yushev/git/optiga-trust-qi/projects/xmc4700_relax_kit/common/Libraries/XMCLib/src\xmc4_flash.c ****   address = (uint32_t *)(XMC_FLASH_UNCACHED_BASE + 0x55f4U);
 1119              	 .loc 1 120 0
 1120 0016 2A60     	 str r2,[r5]
 1121              	.LVL98:
 122:C:/Users/Yushev/git/optiga-trust-qi/projects/xmc4700_relax_kit/common/Libraries/XMCLib/src\xmc4_flash.c **** }
 1122              	 .loc 1 122 0
 1123 0018 2360     	 str r3,[r4]
 1124              	.LVL99:
 1125              	.LBE107:
 1126              	.LBE106:
 1127              	.LBB108:
 1128              	.LBB109:
 120:C:/Users/Yushev/git/optiga-trust-qi/projects/xmc4700_relax_kit/common/Libraries/XMCLib/src\xmc4_flash.c ****   address = (uint32_t *)(XMC_FLASH_UNCACHED_BASE + 0x55f4U);
 1129              	 .loc 1 120 0
 1130 001a 2A60     	 str r2,[r5]
 1131              	.LVL100:
 122:C:/Users/Yushev/git/optiga-trust-qi/projects/xmc4700_relax_kit/common/Libraries/XMCLib/src\xmc4_flash.c **** }
 1132              	 .loc 1 122 0
 1133 001c 2360     	 str r3,[r4]
 1134              	.LVL101:
 1135 001e 1C23     	 movs r3,#28
 1136              	.LVL102:
 1137              	.L82:
 1138              	.LBE109:
 1139              	.LBE108:
 1140              	.LBB110:
 1141              	.LBB111:
 120:C:/Users/Yushev/git/optiga-trust-qi/projects/xmc4700_relax_kit/common/Libraries/XMCLib/src\xmc4_flash.c ****   address = (uint32_t *)(XMC_FLASH_UNCACHED_BASE + 0x55f4U);
 1142              	 .loc 1 120 0
 1143 0020 0022     	 movs r2,#0
 1144              	.LBE111:
 1145              	.LBE110:
 443:C:/Users/Yushev/git/optiga-trust-qi/projects/xmc4700_relax_kit/common/Libraries/XMCLib/src\xmc4_flash.c ****   uint32_t idx;
 444:C:/Users/Yushev/git/optiga-trust-qi/projects/xmc4700_relax_kit/common/Libraries/XMCLib/src\xmc4_flash.c ****   
 445:C:/Users/Yushev/git/optiga-trust-qi/projects/xmc4700_relax_kit/common/Libraries/XMCLib/src\xmc4_flash.c ****   XMC_ASSERT(" XMC_FLASH_ConfigureProtection: User level out of range", (user < 3U))
 446:C:/Users/Yushev/git/optiga-trust-qi/projects/xmc4700_relax_kit/common/Libraries/XMCLib/src\xmc4_flash.c **** 
 447:C:/Users/Yushev/git/optiga-trust-qi/projects/xmc4700_relax_kit/common/Libraries/XMCLib/src\xmc4_flash.c ****   XMC_FLASH_lEnterPageModeCommand();
 448:C:/Users/Yushev/git/optiga-trust-qi/projects/xmc4700_relax_kit/common/Libraries/XMCLib/src\xmc4_flash.c **** 
 449:C:/Users/Yushev/git/optiga-trust-qi/projects/xmc4700_relax_kit/common/Libraries/XMCLib/src\xmc4_flash.c ****   XMC_FLASH_lLoadPageCommand(protection_mask, 0UL);
 450:C:/Users/Yushev/git/optiga-trust-qi/projects/xmc4700_relax_kit/common/Libraries/XMCLib/src\xmc4_flash.c ****   XMC_FLASH_lLoadPageCommand(protection_mask, 0UL);
 451:C:/Users/Yushev/git/optiga-trust-qi/projects/xmc4700_relax_kit/common/Libraries/XMCLib/src\xmc4_flash.c ****   XMC_FLASH_lLoadPageCommand(password_0, password_1);
 452:C:/Users/Yushev/git/optiga-trust-qi/projects/xmc4700_relax_kit/common/Libraries/XMCLib/src\xmc4_flash.c ****   XMC_FLASH_lLoadPageCommand(password_0, password_1);
 453:C:/Users/Yushev/git/optiga-trust-qi/projects/xmc4700_relax_kit/common/Libraries/XMCLib/src\xmc4_flash.c ****   
 454:C:/Users/Yushev/git/optiga-trust-qi/projects/xmc4700_relax_kit/common/Libraries/XMCLib/src\xmc4_flash.c ****   for (idx = 0U; idx < (XMC_FLASH_WORDS_PER_PAGE - XMC_FLASH_PROTECTION_CONFIGURATION_WORDS); idx +
 1146              	 .loc 1 454 0
 1147 0022 013B     	 subs r3,r3,#1
 1148              	.LVL103:
 1149              	.LBB113:
 1150              	.LBB112:
 120:C:/Users/Yushev/git/optiga-trust-qi/projects/xmc4700_relax_kit/common/Libraries/XMCLib/src\xmc4_flash.c ****   address = (uint32_t *)(XMC_FLASH_UNCACHED_BASE + 0x55f4U);
 1151              	 .loc 1 120 0
 1152 0024 2A60     	 str r2,[r5]
 1153              	.LVL104:
 122:C:/Users/Yushev/git/optiga-trust-qi/projects/xmc4700_relax_kit/common/Libraries/XMCLib/src\xmc4_flash.c **** }
 1154              	 .loc 1 122 0
 1155 0026 2260     	 str r2,[r4]
 1156              	.LVL105:
 1157              	.LBE112:
 1158              	.LBE113:
 1159              	 .loc 1 454 0
 1160 0028 FAD1     	 bne .L82
 455:C:/Users/Yushev/git/optiga-trust-qi/projects/xmc4700_relax_kit/common/Libraries/XMCLib/src\xmc4_flash.c ****   {
 456:C:/Users/Yushev/git/optiga-trust-qi/projects/xmc4700_relax_kit/common/Libraries/XMCLib/src\xmc4_flash.c ****     XMC_FLASH_lLoadPageCommand(0UL, 0UL);
 457:C:/Users/Yushev/git/optiga-trust-qi/projects/xmc4700_relax_kit/common/Libraries/XMCLib/src\xmc4_flash.c ****   }
 458:C:/Users/Yushev/git/optiga-trust-qi/projects/xmc4700_relax_kit/common/Libraries/XMCLib/src\xmc4_flash.c **** 
 459:C:/Users/Yushev/git/optiga-trust-qi/projects/xmc4700_relax_kit/common/Libraries/XMCLib/src\xmc4_flash.c ****   XMC_FLASH_lWriteUCBPageCommand((uint32_t *)((uint32_t)XMC_FLASH_UCB0 + (user * XMC_FLASH_BYTES_PE
 1161              	 .loc 1 459 0
 1162 002a 00F54030 	 add r0,r0,#196608
 1163              	.LVL106:
 1164 002e 8002     	 lsls r0,r0,#10
 1165 0030 FFF7FEFF 	 bl XMC_FLASH_lWriteUCBPageCommand
 1166              	.LVL107:
 1167              	.L83:
 460:C:/Users/Yushev/git/optiga-trust-qi/projects/xmc4700_relax_kit/common/Libraries/XMCLib/src\xmc4_flash.c **** 
 461:C:/Users/Yushev/git/optiga-trust-qi/projects/xmc4700_relax_kit/common/Libraries/XMCLib/src\xmc4_flash.c ****   /* wait until the operation is completed */
 462:C:/Users/Yushev/git/optiga-trust-qi/projects/xmc4700_relax_kit/common/Libraries/XMCLib/src\xmc4_flash.c ****   while ((FLASH0->FSR & (uint32_t)FLASH_FSR_PBUSY_Msk) != 0U){}
 1168              	 .loc 1 462 0 discriminator 1
 1169 0034 044B     	 ldr r3,.L86+8
 1170 0036 1B68     	 ldr r3,[r3]
 1171 0038 DB07     	 lsls r3,r3,#31
 1172 003a FBD4     	 bmi .L83
 463:C:/Users/Yushev/git/optiga-trust-qi/projects/xmc4700_relax_kit/common/Libraries/XMCLib/src\xmc4_flash.c **** }
 1173              	 .loc 1 463 0
 1174 003c 70BD     	 pop {r4,r5,r6,pc}
 1175              	.L87:
 1176 003e 00BF     	 .align 2
 1177              	.L86:
 1178 0040 5455000C 	 .word 201348436
 1179 0044 F055000C 	 .word 201348592
 1180 0048 10200058 	 .word 1476403216
 1181              	 .cfi_endproc
 1182              	.LFE170:
 1184              	 .section .text.XMC_FLASH_ConfirmProtection,"ax",%progbits
 1185              	 .align 1
 1186              	 .global XMC_FLASH_ConfirmProtection
 1187              	 .thumb
 1188              	 .thumb_func
 1190              	XMC_FLASH_ConfirmProtection:
 1191              	.LFB171:
 464:C:/Users/Yushev/git/optiga-trust-qi/projects/xmc4700_relax_kit/common/Libraries/XMCLib/src\xmc4_flash.c **** 
 465:C:/Users/Yushev/git/optiga-trust-qi/projects/xmc4700_relax_kit/common/Libraries/XMCLib/src\xmc4_flash.c **** /*
 466:C:/Users/Yushev/git/optiga-trust-qi/projects/xmc4700_relax_kit/common/Libraries/XMCLib/src\xmc4_flash.c ****  * This API confirm the protection. So that This sectors are locked with the specified protection.
 467:C:/Users/Yushev/git/optiga-trust-qi/projects/xmc4700_relax_kit/common/Libraries/XMCLib/src\xmc4_flash.c ****  */
 468:C:/Users/Yushev/git/optiga-trust-qi/projects/xmc4700_relax_kit/common/Libraries/XMCLib/src\xmc4_flash.c **** void XMC_FLASH_ConfirmProtection(uint8_t user)
 469:C:/Users/Yushev/git/optiga-trust-qi/projects/xmc4700_relax_kit/common/Libraries/XMCLib/src\xmc4_flash.c **** {
 1192              	 .loc 1 469 0
 1193              	 .cfi_startproc
 1194              	 
 1195              	 
 1196              	.LVL108:
 1197              	.LBB114:
 1198              	.LBB115:
 109:C:/Users/Yushev/git/optiga-trust-qi/projects/xmc4700_relax_kit/common/Libraries/XMCLib/src\xmc4_flash.c **** }
 1199              	 .loc 1 109 0
 1200 0000 0F4B     	 ldr r3,.L93
 1201 0002 5022     	 movs r2,#80
 1202              	.LBE115:
 1203              	.LBE114:
 1204              	 .loc 1 469 0
 1205 0004 10B5     	 push {r4,lr}
 1206              	.LCFI13:
 1207              	 .cfi_def_cfa_offset 8
 1208              	 .cfi_offset 4,-8
 1209              	 .cfi_offset 14,-4
 1210              	.LBB117:
 1211              	.LBB118:
 122:C:/Users/Yushev/git/optiga-trust-qi/projects/xmc4700_relax_kit/common/Libraries/XMCLib/src\xmc4_flash.c **** }
 1212              	 .loc 1 122 0
 1213 0006 A033     	 adds r3,r3,#160
 1214              	.LBE118:
 1215              	.LBE117:
 1216              	.LBB120:
 1217              	.LBB116:
 109:C:/Users/Yushev/git/optiga-trust-qi/projects/xmc4700_relax_kit/common/Libraries/XMCLib/src\xmc4_flash.c **** }
 1218              	 .loc 1 109 0
 1219 0008 43F8A02C 	 str r2,[r3,#-160]
 1220              	.LVL109:
 1221              	.LBE116:
 1222              	.LBE120:
 1223              	.LBB121:
 1224              	.LBB119:
 120:C:/Users/Yushev/git/optiga-trust-qi/projects/xmc4700_relax_kit/common/Libraries/XMCLib/src\xmc4_flash.c ****   address = (uint32_t *)(XMC_FLASH_UNCACHED_BASE + 0x55f4U);
 1225              	 .loc 1 120 0
 1226 000c 0D4A     	 ldr r2,.L93+4
 1227 000e 0E4C     	 ldr r4,.L93+8
 1228 0010 1460     	 str r4,[r2]
 1229              	.LVL110:
 122:C:/Users/Yushev/git/optiga-trust-qi/projects/xmc4700_relax_kit/common/Libraries/XMCLib/src\xmc4_flash.c **** }
 1230              	 .loc 1 122 0
 1231 0012 0021     	 movs r1,#0
 1232 0014 1960     	 str r1,[r3]
 1233              	.LVL111:
 1234              	.LBE119:
 1235              	.LBE121:
 1236              	.LBB122:
 1237              	.LBB123:
 120:C:/Users/Yushev/git/optiga-trust-qi/projects/xmc4700_relax_kit/common/Libraries/XMCLib/src\xmc4_flash.c ****   address = (uint32_t *)(XMC_FLASH_UNCACHED_BASE + 0x55f4U);
 1238              	 .loc 1 120 0
 1239 0016 1460     	 str r4,[r2]
 1240              	.LVL112:
 122:C:/Users/Yushev/git/optiga-trust-qi/projects/xmc4700_relax_kit/common/Libraries/XMCLib/src\xmc4_flash.c **** }
 1241              	 .loc 1 122 0
 1242 0018 1960     	 str r1,[r3]
 1243              	.LVL113:
 1244 001a 1E21     	 movs r1,#30
 1245              	.LVL114:
 1246              	.L89:
 1247              	.LBE123:
 1248              	.LBE122:
 1249              	.LBB124:
 1250              	.LBB125:
 120:C:/Users/Yushev/git/optiga-trust-qi/projects/xmc4700_relax_kit/common/Libraries/XMCLib/src\xmc4_flash.c ****   address = (uint32_t *)(XMC_FLASH_UNCACHED_BASE + 0x55f4U);
 1251              	 .loc 1 120 0
 1252 001c 0024     	 movs r4,#0
 1253              	.LBE125:
 1254              	.LBE124:
 470:C:/Users/Yushev/git/optiga-trust-qi/projects/xmc4700_relax_kit/common/Libraries/XMCLib/src\xmc4_flash.c ****   uint32_t idx;
 471:C:/Users/Yushev/git/optiga-trust-qi/projects/xmc4700_relax_kit/common/Libraries/XMCLib/src\xmc4_flash.c **** 
 472:C:/Users/Yushev/git/optiga-trust-qi/projects/xmc4700_relax_kit/common/Libraries/XMCLib/src\xmc4_flash.c ****   XMC_ASSERT(" XMC_FLASH_ConfirmProtection: User level out of range", (user < 3U))
 473:C:/Users/Yushev/git/optiga-trust-qi/projects/xmc4700_relax_kit/common/Libraries/XMCLib/src\xmc4_flash.c **** 
 474:C:/Users/Yushev/git/optiga-trust-qi/projects/xmc4700_relax_kit/common/Libraries/XMCLib/src\xmc4_flash.c ****   XMC_FLASH_lEnterPageModeCommand();
 475:C:/Users/Yushev/git/optiga-trust-qi/projects/xmc4700_relax_kit/common/Libraries/XMCLib/src\xmc4_flash.c **** 
 476:C:/Users/Yushev/git/optiga-trust-qi/projects/xmc4700_relax_kit/common/Libraries/XMCLib/src\xmc4_flash.c ****   XMC_FLASH_lLoadPageCommand(XMC_FLASH_PROT_CONFIRM_CODE, 0U);
 477:C:/Users/Yushev/git/optiga-trust-qi/projects/xmc4700_relax_kit/common/Libraries/XMCLib/src\xmc4_flash.c ****   XMC_FLASH_lLoadPageCommand(XMC_FLASH_PROT_CONFIRM_CODE, 0U);
 478:C:/Users/Yushev/git/optiga-trust-qi/projects/xmc4700_relax_kit/common/Libraries/XMCLib/src\xmc4_flash.c **** 
 479:C:/Users/Yushev/git/optiga-trust-qi/projects/xmc4700_relax_kit/common/Libraries/XMCLib/src\xmc4_flash.c ****   /* Fill the rest of page buffer with zeros*/
 480:C:/Users/Yushev/git/optiga-trust-qi/projects/xmc4700_relax_kit/common/Libraries/XMCLib/src\xmc4_flash.c ****   for (idx = 0UL; idx < (XMC_FLASH_WORDS_PER_PAGE - XMC_FLASH_PROT_CONFIRM_WORDS); idx += 2U)
 1255              	 .loc 1 480 0
 1256 001e 0139     	 subs r1,r1,#1
 1257              	.LVL115:
 1258              	.LBB127:
 1259              	.LBB126:
 120:C:/Users/Yushev/git/optiga-trust-qi/projects/xmc4700_relax_kit/common/Libraries/XMCLib/src\xmc4_flash.c ****   address = (uint32_t *)(XMC_FLASH_UNCACHED_BASE + 0x55f4U);
 1260              	 .loc 1 120 0
 1261 0020 1460     	 str r4,[r2]
 1262              	.LVL116:
 122:C:/Users/Yushev/git/optiga-trust-qi/projects/xmc4700_relax_kit/common/Libraries/XMCLib/src\xmc4_flash.c **** }
 1263              	 .loc 1 122 0
 1264 0022 1C60     	 str r4,[r3]
 1265              	.LVL117:
 1266              	.LBE126:
 1267              	.LBE127:
 1268              	 .loc 1 480 0
 1269 0024 FAD1     	 bne .L89
 481:C:/Users/Yushev/git/optiga-trust-qi/projects/xmc4700_relax_kit/common/Libraries/XMCLib/src\xmc4_flash.c ****   {
 482:C:/Users/Yushev/git/optiga-trust-qi/projects/xmc4700_relax_kit/common/Libraries/XMCLib/src\xmc4_flash.c ****     XMC_FLASH_lLoadPageCommand(0UL, 0UL);
 483:C:/Users/Yushev/git/optiga-trust-qi/projects/xmc4700_relax_kit/common/Libraries/XMCLib/src\xmc4_flash.c ****   }
 484:C:/Users/Yushev/git/optiga-trust-qi/projects/xmc4700_relax_kit/common/Libraries/XMCLib/src\xmc4_flash.c **** 
 485:C:/Users/Yushev/git/optiga-trust-qi/projects/xmc4700_relax_kit/common/Libraries/XMCLib/src\xmc4_flash.c ****   XMC_FLASH_lWriteUCBPageCommand((uint32_t *)((uint32_t)XMC_FLASH_UCB0 + 
 1270              	 .loc 1 485 0
 1271 0026 8002     	 lsls r0,r0,#10
 1272              	.LVL118:
 1273 0028 00F14060 	 add r0,r0,#201326592
 1274 002c 00F50070 	 add r0,r0,#512
 1275 0030 FFF7FEFF 	 bl XMC_FLASH_lWriteUCBPageCommand
 1276              	.LVL119:
 1277              	.L90:
 486:C:/Users/Yushev/git/optiga-trust-qi/projects/xmc4700_relax_kit/common/Libraries/XMCLib/src\xmc4_flash.c ****                                  (user * XMC_FLASH_BYTES_PER_UCB) + XMC_FLASH_PROT_CONFIRM_OFFSET))
 487:C:/Users/Yushev/git/optiga-trust-qi/projects/xmc4700_relax_kit/common/Libraries/XMCLib/src\xmc4_flash.c **** 
 488:C:/Users/Yushev/git/optiga-trust-qi/projects/xmc4700_relax_kit/common/Libraries/XMCLib/src\xmc4_flash.c ****   /* wait until the operation is completed */
 489:C:/Users/Yushev/git/optiga-trust-qi/projects/xmc4700_relax_kit/common/Libraries/XMCLib/src\xmc4_flash.c ****   while ((FLASH0->FSR & (uint32_t)FLASH_FSR_PBUSY_Msk) != 0U){}
 1278              	 .loc 1 489 0 discriminator 1
 1279 0034 054B     	 ldr r3,.L93+12
 1280 0036 1B68     	 ldr r3,[r3]
 1281 0038 DB07     	 lsls r3,r3,#31
 1282 003a FBD4     	 bmi .L90
 490:C:/Users/Yushev/git/optiga-trust-qi/projects/xmc4700_relax_kit/common/Libraries/XMCLib/src\xmc4_flash.c **** }
 1283              	 .loc 1 490 0
 1284 003c 10BD     	 pop {r4,pc}
 1285              	.L94:
 1286 003e 00BF     	 .align 2
 1287              	.L93:
 1288 0040 5455000C 	 .word 201348436
 1289 0044 F055000C 	 .word 201348592
 1290 0048 C315FE8A 	 .word -1963059773
 1291 004c 10200058 	 .word 1476403216
 1292              	 .cfi_endproc
 1293              	.LFE171:
 1295              	 .section .text.XMC_FLASH_VerifyReadProtection,"ax",%progbits
 1296              	 .align 1
 1297              	 .global XMC_FLASH_VerifyReadProtection
 1298              	 .thumb
 1299              	 .thumb_func
 1301              	XMC_FLASH_VerifyReadProtection:
 1302              	.LFB172:
 491:C:/Users/Yushev/git/optiga-trust-qi/projects/xmc4700_relax_kit/common/Libraries/XMCLib/src\xmc4_flash.c **** 
 492:C:/Users/Yushev/git/optiga-trust-qi/projects/xmc4700_relax_kit/common/Libraries/XMCLib/src\xmc4_flash.c **** /*
 493:C:/Users/Yushev/git/optiga-trust-qi/projects/xmc4700_relax_kit/common/Libraries/XMCLib/src\xmc4_flash.c ****  * This API verify read protection configuration. And returns true if passwords are matching.
 494:C:/Users/Yushev/git/optiga-trust-qi/projects/xmc4700_relax_kit/common/Libraries/XMCLib/src\xmc4_flash.c ****  */
 495:C:/Users/Yushev/git/optiga-trust-qi/projects/xmc4700_relax_kit/common/Libraries/XMCLib/src\xmc4_flash.c **** bool XMC_FLASH_VerifyReadProtection(uint32_t password_0, uint32_t password_1)
 496:C:/Users/Yushev/git/optiga-trust-qi/projects/xmc4700_relax_kit/common/Libraries/XMCLib/src\xmc4_flash.c **** {
 1303              	 .loc 1 496 0
 1304              	 .cfi_startproc
 1305              	 
 1306              	 
 1307              	.LVL120:
 1308 0000 38B5     	 push {r3,r4,r5,lr}
 1309              	.LCFI14:
 1310              	 .cfi_def_cfa_offset 16
 1311              	 .cfi_offset 3,-16
 1312              	 .cfi_offset 4,-12
 1313              	 .cfi_offset 5,-8
 1314              	 .cfi_offset 14,-4
 1315              	.LBB128:
 1316              	.LBB129:
 253:C:/Users/Yushev/git/optiga-trust-qi/projects/xmc4700_relax_kit/common/Libraries/XMCLib/src\xmc4_flash.c **** }
 1317              	 .loc 1 253 0
 1318 0002 094D     	 ldr r5,.L98
 1319 0004 41F21004 	 movw r4,#4112
 1320 0008 2B59     	 ldr r3,[r5,r4]
 1321              	.LBE129:
 1322              	.LBE128:
 497:C:/Users/Yushev/git/optiga-trust-qi/projects/xmc4700_relax_kit/common/Libraries/XMCLib/src\xmc4_flash.c ****   bool status = false;
 498:C:/Users/Yushev/git/optiga-trust-qi/projects/xmc4700_relax_kit/common/Libraries/XMCLib/src\xmc4_flash.c ****   
 499:C:/Users/Yushev/git/optiga-trust-qi/projects/xmc4700_relax_kit/common/Libraries/XMCLib/src\xmc4_flash.c ****   /* Check if read protection is installed */
 500:C:/Users/Yushev/git/optiga-trust-qi/projects/xmc4700_relax_kit/common/Libraries/XMCLib/src\xmc4_flash.c ****   if ((XMC_FLASH_GetStatus() & (uint32_t)XMC_FLASH_STATUS_READ_PROTECTION_INSTALLED) != 0U)
 1323              	 .loc 1 500 0
 1324 000a 13F48023 	 ands r3,r3,#262144
 1325 000e 08D0     	 beq .L97
 1326              	.LVL121:
 1327              	.LBB130:
 1328              	.LBB131:
 233:C:/Users/Yushev/git/optiga-trust-qi/projects/xmc4700_relax_kit/common/Libraries/XMCLib/src\xmc4_flash.c **** }
 1329              	 .loc 1 233 0
 1330 0010 064B     	 ldr r3,.L98+4
 1331 0012 F522     	 movs r2,#245
 1332 0014 1A60     	 str r2,[r3]
 1333              	.LBE131:
 1334              	.LBE130:
 501:C:/Users/Yushev/git/optiga-trust-qi/projects/xmc4700_relax_kit/common/Libraries/XMCLib/src\xmc4_flash.c ****   {  
 502:C:/Users/Yushev/git/optiga-trust-qi/projects/xmc4700_relax_kit/common/Libraries/XMCLib/src\xmc4_flash.c ****     XMC_FLASH_lClearStatusCommand();
 503:C:/Users/Yushev/git/optiga-trust-qi/projects/xmc4700_relax_kit/common/Libraries/XMCLib/src\xmc4_flash.c ****     XMC_FLASH_lDisableReadProtectionCommand(password_0, password_1);
 1335              	 .loc 1 503 0
 1336 0016 FFF7FEFF 	 bl XMC_FLASH_lDisableReadProtectionCommand
 1337              	.LVL122:
 1338              	.LBB132:
 1339              	.LBB133:
 253:C:/Users/Yushev/git/optiga-trust-qi/projects/xmc4700_relax_kit/common/Libraries/XMCLib/src\xmc4_flash.c **** }
 1340              	 .loc 1 253 0
 1341 001a 2859     	 ldr r0,[r5,r4]
 1342              	.LBE133:
 1343              	.LBE132:
 504:C:/Users/Yushev/git/optiga-trust-qi/projects/xmc4700_relax_kit/common/Libraries/XMCLib/src\xmc4_flash.c **** 
 505:C:/Users/Yushev/git/optiga-trust-qi/projects/xmc4700_relax_kit/common/Libraries/XMCLib/src\xmc4_flash.c ****     status = (bool)(XMC_FLASH_GetStatus() & (uint32_t)XMC_FLASH_STATUS_READ_PROTECTION_DISABLED_STA
 1344              	 .loc 1 505 0
 1345 001c C0F3C040 	 ubfx r0,r0,#19,#1
 1346              	.LVL123:
 1347 0020 38BD     	 pop {r3,r4,r5,pc}
 1348              	.LVL124:
 1349              	.L97:
 497:C:/Users/Yushev/git/optiga-trust-qi/projects/xmc4700_relax_kit/common/Libraries/XMCLib/src\xmc4_flash.c ****   
 1350              	 .loc 1 497 0
 1351 0022 1846     	 mov r0,r3
 1352              	.LVL125:
 506:C:/Users/Yushev/git/optiga-trust-qi/projects/xmc4700_relax_kit/common/Libraries/XMCLib/src\xmc4_flash.c ****   }
 507:C:/Users/Yushev/git/optiga-trust-qi/projects/xmc4700_relax_kit/common/Libraries/XMCLib/src\xmc4_flash.c **** 
 508:C:/Users/Yushev/git/optiga-trust-qi/projects/xmc4700_relax_kit/common/Libraries/XMCLib/src\xmc4_flash.c ****   return status;
 509:C:/Users/Yushev/git/optiga-trust-qi/projects/xmc4700_relax_kit/common/Libraries/XMCLib/src\xmc4_flash.c **** }
 1353              	 .loc 1 509 0
 1354 0024 38BD     	 pop {r3,r4,r5,pc}
 1355              	.L99:
 1356 0026 00BF     	 .align 2
 1357              	.L98:
 1358 0028 00100058 	 .word 1476399104
 1359 002c 5455000C 	 .word 201348436
 1360              	 .cfi_endproc
 1361              	.LFE172:
 1363              	 .section .text.XMC_FLASH_VerifyWriteProtection,"ax",%progbits
 1364              	 .align 1
 1365              	 .global XMC_FLASH_VerifyWriteProtection
 1366              	 .thumb
 1367              	 .thumb_func
 1369              	XMC_FLASH_VerifyWriteProtection:
 1370              	.LFB173:
 510:C:/Users/Yushev/git/optiga-trust-qi/projects/xmc4700_relax_kit/common/Libraries/XMCLib/src\xmc4_flash.c **** 
 511:C:/Users/Yushev/git/optiga-trust-qi/projects/xmc4700_relax_kit/common/Libraries/XMCLib/src\xmc4_flash.c **** /*
 512:C:/Users/Yushev/git/optiga-trust-qi/projects/xmc4700_relax_kit/common/Libraries/XMCLib/src\xmc4_flash.c ****  * This API verify sector write protection configuration. And returns true if passwords are matchin
 513:C:/Users/Yushev/git/optiga-trust-qi/projects/xmc4700_relax_kit/common/Libraries/XMCLib/src\xmc4_flash.c ****  * specified user.
 514:C:/Users/Yushev/git/optiga-trust-qi/projects/xmc4700_relax_kit/common/Libraries/XMCLib/src\xmc4_flash.c ****  */
 515:C:/Users/Yushev/git/optiga-trust-qi/projects/xmc4700_relax_kit/common/Libraries/XMCLib/src\xmc4_flash.c **** bool XMC_FLASH_VerifyWriteProtection(uint32_t user,
 516:C:/Users/Yushev/git/optiga-trust-qi/projects/xmc4700_relax_kit/common/Libraries/XMCLib/src\xmc4_flash.c ****                                      uint32_t protection_mask, 
 517:C:/Users/Yushev/git/optiga-trust-qi/projects/xmc4700_relax_kit/common/Libraries/XMCLib/src\xmc4_flash.c ****                                      uint32_t password_0, 
 518:C:/Users/Yushev/git/optiga-trust-qi/projects/xmc4700_relax_kit/common/Libraries/XMCLib/src\xmc4_flash.c ****                                      uint32_t password_1)
 519:C:/Users/Yushev/git/optiga-trust-qi/projects/xmc4700_relax_kit/common/Libraries/XMCLib/src\xmc4_flash.c **** {
 1371              	 .loc 1 519 0
 1372              	 .cfi_startproc
 1373              	 
 1374              	 
 1375              	.LVL126:
 1376 0000 2DE9F041 	 push {r4,r5,r6,r7,r8,lr}
 1377              	.LCFI15:
 1378              	 .cfi_def_cfa_offset 24
 1379              	 .cfi_offset 4,-24
 1380              	 .cfi_offset 5,-20
 1381              	 .cfi_offset 6,-16
 1382              	 .cfi_offset 7,-12
 1383              	 .cfi_offset 8,-8
 1384              	 .cfi_offset 14,-4
 1385              	.LBB134:
 1386              	.LBB135:
 253:C:/Users/Yushev/git/optiga-trust-qi/projects/xmc4700_relax_kit/common/Libraries/XMCLib/src\xmc4_flash.c **** }
 1387              	 .loc 1 253 0
 1388 0004 DFF85880 	 ldr r8,.L105+8
 1389 0008 41F21007 	 movw r7,#4112
 1390              	.LBE135:
 1391              	.LBE134:
 1392              	 .loc 1 519 0
 1393 000c 0D46     	 mov r5,r1
 1394              	.LBB137:
 1395              	.LBB136:
 253:C:/Users/Yushev/git/optiga-trust-qi/projects/xmc4700_relax_kit/common/Libraries/XMCLib/src\xmc4_flash.c **** }
 1396              	 .loc 1 253 0
 1397 000e 58F80740 	 ldr r4,[r8,r7]
 1398              	.LBE136:
 1399              	.LBE137:
 520:C:/Users/Yushev/git/optiga-trust-qi/projects/xmc4700_relax_kit/common/Libraries/XMCLib/src\xmc4_flash.c ****   bool status = false;
 521:C:/Users/Yushev/git/optiga-trust-qi/projects/xmc4700_relax_kit/common/Libraries/XMCLib/src\xmc4_flash.c ****   uint32_t *flash_procon_ptr = (uint32_t *)(void*)(&(FLASH0->PROCON0) + user);
 522:C:/Users/Yushev/git/optiga-trust-qi/projects/xmc4700_relax_kit/common/Libraries/XMCLib/src\xmc4_flash.c **** 
 523:C:/Users/Yushev/git/optiga-trust-qi/projects/xmc4700_relax_kit/common/Libraries/XMCLib/src\xmc4_flash.c ****   XMC_ASSERT(" XMC_FLASH_VerifyWriteProtection: User level out of range", (user < 2U))
 524:C:/Users/Yushev/git/optiga-trust-qi/projects/xmc4700_relax_kit/common/Libraries/XMCLib/src\xmc4_flash.c **** 
 525:C:/Users/Yushev/git/optiga-trust-qi/projects/xmc4700_relax_kit/common/Libraries/XMCLib/src\xmc4_flash.c ****   /* Check if write protection for selected user is installed */
 526:C:/Users/Yushev/git/optiga-trust-qi/projects/xmc4700_relax_kit/common/Libraries/XMCLib/src\xmc4_flash.c ****   if ((XMC_FLASH_GetStatus() & (uint32_t)((uint32_t)1U << (uint32_t)((uint32_t)FLASH_FSR_WPROIN0_Po
 1400              	 .loc 1 526 0
 1401 0012 00F11501 	 add r1,r0,#21
 1402              	.LVL127:
 1403 0016 CC40     	 lsrs r4,r4,r1
 1404 0018 14F00104 	 ands r4,r4,#1
 519:C:/Users/Yushev/git/optiga-trust-qi/projects/xmc4700_relax_kit/common/Libraries/XMCLib/src\xmc4_flash.c ****   bool status = false;
 1405              	 .loc 1 519 0
 1406 001c 0646     	 mov r6,r0
 1407              	 .loc 1 526 0
 1408 001e 18D0     	 beq .L103
 1409              	.LVL128:
 1410              	.LBB138:
 1411              	.LBB139:
 233:C:/Users/Yushev/git/optiga-trust-qi/projects/xmc4700_relax_kit/common/Libraries/XMCLib/src\xmc4_flash.c **** }
 1412              	 .loc 1 233 0
 1413 0020 0D49     	 ldr r1,.L105
 1414 0022 F524     	 movs r4,#245
 1415 0024 0C60     	 str r4,[r1]
 1416              	.LBE139:
 1417              	.LBE138:
 527:C:/Users/Yushev/git/optiga-trust-qi/projects/xmc4700_relax_kit/common/Libraries/XMCLib/src\xmc4_flash.c ****   {  
 528:C:/Users/Yushev/git/optiga-trust-qi/projects/xmc4700_relax_kit/common/Libraries/XMCLib/src\xmc4_flash.c ****     XMC_FLASH_lClearStatusCommand();
 529:C:/Users/Yushev/git/optiga-trust-qi/projects/xmc4700_relax_kit/common/Libraries/XMCLib/src\xmc4_flash.c ****     XMC_FLASH_lDisableSectorWriteProtectionCommand(user, password_0, password_1);
 1418              	 .loc 1 529 0
 1419 0026 1146     	 mov r1,r2
 1420 0028 1A46     	 mov r2,r3
 1421              	.LVL129:
 1422 002a FFF7FEFF 	 bl XMC_FLASH_lDisableSectorWriteProtectionCommand
 1423              	.LVL130:
 1424              	.LBB140:
 1425              	.LBB141:
 253:C:/Users/Yushev/git/optiga-trust-qi/projects/xmc4700_relax_kit/common/Libraries/XMCLib/src\xmc4_flash.c **** }
 1426              	 .loc 1 253 0
 1427 002e 58F80700 	 ldr r0,[r8,r7]
 1428              	.LBE141:
 1429              	.LBE140:
 530:C:/Users/Yushev/git/optiga-trust-qi/projects/xmc4700_relax_kit/common/Libraries/XMCLib/src\xmc4_flash.c ****     
 531:C:/Users/Yushev/git/optiga-trust-qi/projects/xmc4700_relax_kit/common/Libraries/XMCLib/src\xmc4_flash.c ****     status = (bool)((XMC_FLASH_GetStatus() & (uint32_t)((uint32_t)1U << (uint32_t)((uint32_t)FLASH_
 1430              	 .loc 1 531 0
 1431 0032 06F11903 	 add r3,r6,#25
 1432 0036 D840     	 lsrs r0,r0,r3
 1433 0038 10F00100 	 ands r0,r0,#1
 1434 003c 0AD0     	 beq .L101
 1435              	 .loc 1 531 0 is_stmt 0 discriminator 1
 1436 003e 074B     	 ldr r3,.L105+4
 1437 0040 53F82630 	 ldr r3,[r3,r6,lsl#2]
 532:C:/Users/Yushev/git/optiga-trust-qi/projects/xmc4700_relax_kit/common/Libraries/XMCLib/src\xmc4_flash.c ****              (*flash_procon_ptr == (protection_mask & (uint32_t)(~(uint32_t)XMC_FLASH_PROTECTION_RE
 1438              	 .loc 1 532 0 is_stmt 1 discriminator 1
 1439 0044 25F40040 	 bic r0,r5,#32768
 531:C:/Users/Yushev/git/optiga-trust-qi/projects/xmc4700_relax_kit/common/Libraries/XMCLib/src\xmc4_flash.c ****              (*flash_procon_ptr == (protection_mask & (uint32_t)(~(uint32_t)XMC_FLASH_PROTECTION_RE
 1440              	 .loc 1 531 0 discriminator 1
 1441 0048 1B1A     	 subs r3,r3,r0
 1442 004a 5842     	 rsbs r0,r3,#0
 1443 004c 5841     	 adcs r0,r0,r3
 1444 004e BDE8F081 	 pop {r4,r5,r6,r7,r8,pc}
 1445              	.LVL131:
 1446              	.L103:
 520:C:/Users/Yushev/git/optiga-trust-qi/projects/xmc4700_relax_kit/common/Libraries/XMCLib/src\xmc4_flash.c ****   uint32_t *flash_procon_ptr = (uint32_t *)(void*)(&(FLASH0->PROCON0) + user);
 1447              	 .loc 1 520 0
 1448 0052 2046     	 mov r0,r4
 1449              	.LVL132:
 1450              	.L101:
 533:C:/Users/Yushev/git/optiga-trust-qi/projects/xmc4700_relax_kit/common/Libraries/XMCLib/src\xmc4_flash.c ****   }
 534:C:/Users/Yushev/git/optiga-trust-qi/projects/xmc4700_relax_kit/common/Libraries/XMCLib/src\xmc4_flash.c **** 
 535:C:/Users/Yushev/git/optiga-trust-qi/projects/xmc4700_relax_kit/common/Libraries/XMCLib/src\xmc4_flash.c ****   return status;
 536:C:/Users/Yushev/git/optiga-trust-qi/projects/xmc4700_relax_kit/common/Libraries/XMCLib/src\xmc4_flash.c **** }
 1451              	 .loc 1 536 0
 1452 0054 BDE8F081 	 pop {r4,r5,r6,r7,r8,pc}
 1453              	.LVL133:
 1454              	.L106:
 1455              	 .align 2
 1456              	.L105:
 1457 0058 5455000C 	 .word 201348436
 1458 005c 20200058 	 .word 1476403232
 1459 0060 00100058 	 .word 1476399104
 1460              	 .cfi_endproc
 1461              	.LFE173:
 1463              	 .section .text.XMC_FLASH_ResumeProtection,"ax",%progbits
 1464              	 .align 1
 1465              	 .global XMC_FLASH_ResumeProtection
 1466              	 .thumb
 1467              	 .thumb_func
 1469              	XMC_FLASH_ResumeProtection:
 1470              	.LFB174:
 537:C:/Users/Yushev/git/optiga-trust-qi/projects/xmc4700_relax_kit/common/Libraries/XMCLib/src\xmc4_flash.c **** 
 538:C:/Users/Yushev/git/optiga-trust-qi/projects/xmc4700_relax_kit/common/Libraries/XMCLib/src\xmc4_flash.c **** /*
 539:C:/Users/Yushev/git/optiga-trust-qi/projects/xmc4700_relax_kit/common/Libraries/XMCLib/src\xmc4_flash.c ****  * Command to enables the protection as it was configured
 540:C:/Users/Yushev/git/optiga-trust-qi/projects/xmc4700_relax_kit/common/Libraries/XMCLib/src\xmc4_flash.c ****  */
 541:C:/Users/Yushev/git/optiga-trust-qi/projects/xmc4700_relax_kit/common/Libraries/XMCLib/src\xmc4_flash.c **** void XMC_FLASH_ResumeProtection(void)
 542:C:/Users/Yushev/git/optiga-trust-qi/projects/xmc4700_relax_kit/common/Libraries/XMCLib/src\xmc4_flash.c **** {
 1471              	 .loc 1 542 0
 1472              	 .cfi_startproc
 1473              	 
 1474              	 
 1475              	 
 1476              	.LVL134:
 543:C:/Users/Yushev/git/optiga-trust-qi/projects/xmc4700_relax_kit/common/Libraries/XMCLib/src\xmc4_flash.c ****   volatile uint32_t *address;
 544:C:/Users/Yushev/git/optiga-trust-qi/projects/xmc4700_relax_kit/common/Libraries/XMCLib/src\xmc4_flash.c **** 
 545:C:/Users/Yushev/git/optiga-trust-qi/projects/xmc4700_relax_kit/common/Libraries/XMCLib/src\xmc4_flash.c ****   address = (uint32_t *)(XMC_FLASH_UNCACHED_BASE + 0x5554U);
 546:C:/Users/Yushev/git/optiga-trust-qi/projects/xmc4700_relax_kit/common/Libraries/XMCLib/src\xmc4_flash.c ****   *address = 0x5eU;
 1477              	 .loc 1 546 0
 1478 0000 014B     	 ldr r3,.L108
 1479 0002 5E22     	 movs r2,#94
 1480 0004 1A60     	 str r2,[r3]
 1481 0006 7047     	 bx lr
 1482              	.L109:
 1483              	 .align 2
 1484              	.L108:
 1485 0008 5455000C 	 .word 201348436
 1486              	 .cfi_endproc
 1487              	.LFE174:
 1489              	 .text
 1490              	.Letext0:
 1491              	 .file 2 "c:\\users\\yushev\\dave_4-4-2_32bit_2018-02-23\\dave-ide-4.4.2-32bit\\eclipse\\arm-gcc-49\\arm-none-eabi\\include\\machine\\_default_types.h"
 1492              	 .file 3 "c:\\users\\yushev\\dave_4-4-2_32bit_2018-02-23\\dave-ide-4.4.2-32bit\\eclipse\\arm-gcc-49\\arm-none-eabi\\include\\stdint.h"
 1493              	 .file 4 "C:/Users/Yushev/git/optiga-trust-qi/projects/xmc4700_relax_kit/common/Libraries/CMSIS/Infineon/XMC4700_series/Include/XMC4700.h"
 1494              	 .file 5 "C:/Users/Yushev/git/optiga-trust-qi/projects/xmc4700_relax_kit/common/Libraries/XMCLib/inc/xmc4_flash.h"
 1495              	 .file 6 "C:/Users/Yushev/git/optiga-trust-qi/projects/xmc4700_relax_kit/common/Libraries/CMSIS/Include/core_cm4.h"