   1              	 .syntax unified
   2              	 .cpu cortex-m4
   3              	 .eabi_attribute 27,3
   4              	 .fpu fpv4-sp-d16
   5              	 .eabi_attribute 20,1
   6              	 .eabi_attribute 21,1
   7              	 .eabi_attribute 23,3
   8              	 .eabi_attribute 24,1
   9              	 .eabi_attribute 25,1
  10              	 .eabi_attribute 26,1
  11              	 .eabi_attribute 30,4
  12              	 .eabi_attribute 34,1
  13              	 .eabi_attribute 18,4
  14              	 .thumb
  15              	 .file "xmc_usbd.c"
  16              	 .text
  17              	.Ltext0:
  18              	 .cfi_sections .debug_frame
  19              	 .section .text.XMC_USBD_lReadFifo,"ax",%progbits
  20              	 .align 1
  21              	 .thumb
  22              	 .thumb_func
  24              	XMC_USBD_lReadFifo:
  25              	.LFB170:
  26              	 .file 1 "C:/Users/Yushev/git/optiga-trust-qi/projects/xmc4700_relax_kit/common/Libraries/XMCLib/src/xmc_usbd.c"
   1:C:/Users/Yushev/git/optiga-trust-qi/projects/xmc4700_relax_kit/common/Libraries/XMCLib/src\xmc_usbd.c **** /**
   2:C:/Users/Yushev/git/optiga-trust-qi/projects/xmc4700_relax_kit/common/Libraries/XMCLib/src\xmc_usbd.c ****  * @file xmc_usbd.c
   3:C:/Users/Yushev/git/optiga-trust-qi/projects/xmc4700_relax_kit/common/Libraries/XMCLib/src\xmc_usbd.c ****  * @date 2015-06-20
   4:C:/Users/Yushev/git/optiga-trust-qi/projects/xmc4700_relax_kit/common/Libraries/XMCLib/src\xmc_usbd.c ****  *
   5:C:/Users/Yushev/git/optiga-trust-qi/projects/xmc4700_relax_kit/common/Libraries/XMCLib/src\xmc_usbd.c ****  * @cond
   6:C:/Users/Yushev/git/optiga-trust-qi/projects/xmc4700_relax_kit/common/Libraries/XMCLib/src\xmc_usbd.c ****  **********************************************************************************
   7:C:/Users/Yushev/git/optiga-trust-qi/projects/xmc4700_relax_kit/common/Libraries/XMCLib/src\xmc_usbd.c ****  * XMClib v2.1.20 - XMC Peripheral Driver Library 
   8:C:/Users/Yushev/git/optiga-trust-qi/projects/xmc4700_relax_kit/common/Libraries/XMCLib/src\xmc_usbd.c ****  *
   9:C:/Users/Yushev/git/optiga-trust-qi/projects/xmc4700_relax_kit/common/Libraries/XMCLib/src\xmc_usbd.c ****  * Copyright (c) 2015-2018, Infineon Technologies AG
  10:C:/Users/Yushev/git/optiga-trust-qi/projects/xmc4700_relax_kit/common/Libraries/XMCLib/src\xmc_usbd.c ****  * All rights reserved.                        
  11:C:/Users/Yushev/git/optiga-trust-qi/projects/xmc4700_relax_kit/common/Libraries/XMCLib/src\xmc_usbd.c ****  *                                             
  12:C:/Users/Yushev/git/optiga-trust-qi/projects/xmc4700_relax_kit/common/Libraries/XMCLib/src\xmc_usbd.c ****  * Redistribution and use in source and binary forms, with or without           
  13:C:/Users/Yushev/git/optiga-trust-qi/projects/xmc4700_relax_kit/common/Libraries/XMCLib/src\xmc_usbd.c ****  * modification,are permitted provided that the following conditions are met:   
  14:C:/Users/Yushev/git/optiga-trust-qi/projects/xmc4700_relax_kit/common/Libraries/XMCLib/src\xmc_usbd.c ****  *                                                                              
  15:C:/Users/Yushev/git/optiga-trust-qi/projects/xmc4700_relax_kit/common/Libraries/XMCLib/src\xmc_usbd.c ****  *   Redistributions of source code must retain the above copyright notice,      
  16:C:/Users/Yushev/git/optiga-trust-qi/projects/xmc4700_relax_kit/common/Libraries/XMCLib/src\xmc_usbd.c ****  *   this list of conditions and the following disclaimer.                        
  17:C:/Users/Yushev/git/optiga-trust-qi/projects/xmc4700_relax_kit/common/Libraries/XMCLib/src\xmc_usbd.c ****  * 
  18:C:/Users/Yushev/git/optiga-trust-qi/projects/xmc4700_relax_kit/common/Libraries/XMCLib/src\xmc_usbd.c ****  *   Redistributions in binary form must reproduce the above copyright notice,   
  19:C:/Users/Yushev/git/optiga-trust-qi/projects/xmc4700_relax_kit/common/Libraries/XMCLib/src\xmc_usbd.c ****  *   this list of conditions and the following disclaimer in the documentation    
  20:C:/Users/Yushev/git/optiga-trust-qi/projects/xmc4700_relax_kit/common/Libraries/XMCLib/src\xmc_usbd.c ****  *   and/or other materials provided with the distribution.                       
  21:C:/Users/Yushev/git/optiga-trust-qi/projects/xmc4700_relax_kit/common/Libraries/XMCLib/src\xmc_usbd.c ****  * 
  22:C:/Users/Yushev/git/optiga-trust-qi/projects/xmc4700_relax_kit/common/Libraries/XMCLib/src\xmc_usbd.c ****  *   Neither the name of the copyright holders nor the names of its contributors 
  23:C:/Users/Yushev/git/optiga-trust-qi/projects/xmc4700_relax_kit/common/Libraries/XMCLib/src\xmc_usbd.c ****  *   may be used to endorse or promote products derived from this software without
  24:C:/Users/Yushev/git/optiga-trust-qi/projects/xmc4700_relax_kit/common/Libraries/XMCLib/src\xmc_usbd.c ****  *   specific prior written permission.                                           
  25:C:/Users/Yushev/git/optiga-trust-qi/projects/xmc4700_relax_kit/common/Libraries/XMCLib/src\xmc_usbd.c ****  *                                                                              
  26:C:/Users/Yushev/git/optiga-trust-qi/projects/xmc4700_relax_kit/common/Libraries/XMCLib/src\xmc_usbd.c ****  * THIS SOFTWARE IS PROVIDED BY THE COPYRIGHT HOLDERS AND CONTRIBUTORS "AS IS"  
  27:C:/Users/Yushev/git/optiga-trust-qi/projects/xmc4700_relax_kit/common/Libraries/XMCLib/src\xmc_usbd.c ****  * AND ANY EXPRESS OR IMPLIED WARRANTIES, INCLUDING, BUT NOT LIMITED TO, THE    
  28:C:/Users/Yushev/git/optiga-trust-qi/projects/xmc4700_relax_kit/common/Libraries/XMCLib/src\xmc_usbd.c ****  * IMPLIED WARRANTIES OF MERCHANTABILITY AND FITNESS FOR A PARTICULAR PURPOSE   
  29:C:/Users/Yushev/git/optiga-trust-qi/projects/xmc4700_relax_kit/common/Libraries/XMCLib/src\xmc_usbd.c ****  * ARE  DISCLAIMED. IN NO EVENT SHALL THE COPYRIGHT HOLDER OR CONTRIBUTORS BE   
  30:C:/Users/Yushev/git/optiga-trust-qi/projects/xmc4700_relax_kit/common/Libraries/XMCLib/src\xmc_usbd.c ****  * LIABLE  FOR ANY DIRECT, INDIRECT, INCIDENTAL, SPECIAL, EXEMPLARY, OR         
  31:C:/Users/Yushev/git/optiga-trust-qi/projects/xmc4700_relax_kit/common/Libraries/XMCLib/src\xmc_usbd.c ****  * CONSEQUENTIAL DAMAGES (INCLUDING, BUT NOT LIMITED TO, PROCUREMENT OF         
  32:C:/Users/Yushev/git/optiga-trust-qi/projects/xmc4700_relax_kit/common/Libraries/XMCLib/src\xmc_usbd.c ****  * SUBSTITUTE GOODS OR  SERVICES; LOSS OF USE, DATA, OR PROFITS; OR BUSINESS    
  33:C:/Users/Yushev/git/optiga-trust-qi/projects/xmc4700_relax_kit/common/Libraries/XMCLib/src\xmc_usbd.c ****  * INTERRUPTION) HOWEVER CAUSED AND ON ANY THEORY OF LIABILITY, WHETHER IN      
  34:C:/Users/Yushev/git/optiga-trust-qi/projects/xmc4700_relax_kit/common/Libraries/XMCLib/src\xmc_usbd.c ****  * CONTRACT, STRICT LIABILITY,OR TORT (INCLUDING NEGLIGENCE OR OTHERWISE)       
  35:C:/Users/Yushev/git/optiga-trust-qi/projects/xmc4700_relax_kit/common/Libraries/XMCLib/src\xmc_usbd.c ****  * ARISING IN ANY WAY OUT OF THE USE OF THIS SOFTWARE, EVEN IF ADVISED OF THE   
  36:C:/Users/Yushev/git/optiga-trust-qi/projects/xmc4700_relax_kit/common/Libraries/XMCLib/src\xmc_usbd.c ****  * POSSIBILITY OF SUCH DAMAGE.                                                  
  37:C:/Users/Yushev/git/optiga-trust-qi/projects/xmc4700_relax_kit/common/Libraries/XMCLib/src\xmc_usbd.c ****  *                                                                              
  38:C:/Users/Yushev/git/optiga-trust-qi/projects/xmc4700_relax_kit/common/Libraries/XMCLib/src\xmc_usbd.c ****  * To improve the quality of the software, users are encouraged to share        
  39:C:/Users/Yushev/git/optiga-trust-qi/projects/xmc4700_relax_kit/common/Libraries/XMCLib/src\xmc_usbd.c ****  * modifications, enhancements or bug fixes with Infineon Technologies AG       
  40:C:/Users/Yushev/git/optiga-trust-qi/projects/xmc4700_relax_kit/common/Libraries/XMCLib/src\xmc_usbd.c ****  * dave@infineon.com).                                                          
  41:C:/Users/Yushev/git/optiga-trust-qi/projects/xmc4700_relax_kit/common/Libraries/XMCLib/src\xmc_usbd.c ****  **********************************************************************************
  42:C:/Users/Yushev/git/optiga-trust-qi/projects/xmc4700_relax_kit/common/Libraries/XMCLib/src\xmc_usbd.c ****  *
  43:C:/Users/Yushev/git/optiga-trust-qi/projects/xmc4700_relax_kit/common/Libraries/XMCLib/src\xmc_usbd.c ****  * Change History
  44:C:/Users/Yushev/git/optiga-trust-qi/projects/xmc4700_relax_kit/common/Libraries/XMCLib/src\xmc_usbd.c ****  * --------------
  45:C:/Users/Yushev/git/optiga-trust-qi/projects/xmc4700_relax_kit/common/Libraries/XMCLib/src\xmc_usbd.c ****  *
  46:C:/Users/Yushev/git/optiga-trust-qi/projects/xmc4700_relax_kit/common/Libraries/XMCLib/src\xmc_usbd.c ****  * 2015-02-16:
  47:C:/Users/Yushev/git/optiga-trust-qi/projects/xmc4700_relax_kit/common/Libraries/XMCLib/src\xmc_usbd.c ****  *     - Initial Version.<br>           
  48:C:/Users/Yushev/git/optiga-trust-qi/projects/xmc4700_relax_kit/common/Libraries/XMCLib/src\xmc_usbd.c ****  * 2015-03-18:
  49:C:/Users/Yushev/git/optiga-trust-qi/projects/xmc4700_relax_kit/common/Libraries/XMCLib/src\xmc_usbd.c ****  *     - Updated the XMC_USBD_EndpointStall() to fix issue on USB clear stall. <br>
  50:C:/Users/Yushev/git/optiga-trust-qi/projects/xmc4700_relax_kit/common/Libraries/XMCLib/src\xmc_usbd.c ****  *     - Updated the XMC_USBD_EndpointConfigure() to fix issue in EP0 configuration.<br>
  51:C:/Users/Yushev/git/optiga-trust-qi/projects/xmc4700_relax_kit/common/Libraries/XMCLib/src\xmc_usbd.c ****  *     - Updated the XMC_USBD_IRQHandler()(Removed the DAVE_CE check on SOF event).<br>
  52:C:/Users/Yushev/git/optiga-trust-qi/projects/xmc4700_relax_kit/common/Libraries/XMCLib/src\xmc_usbd.c ****  * 2015-06-20:
  53:C:/Users/Yushev/git/optiga-trust-qi/projects/xmc4700_relax_kit/common/Libraries/XMCLib/src\xmc_usbd.c ****  *     - Removed GetDriverVersion API.<br>
  54:C:/Users/Yushev/git/optiga-trust-qi/projects/xmc4700_relax_kit/common/Libraries/XMCLib/src\xmc_usbd.c ****  *     - Updated the XMC_USBD_IsEnumDone() API.<br>
  55:C:/Users/Yushev/git/optiga-trust-qi/projects/xmc4700_relax_kit/common/Libraries/XMCLib/src\xmc_usbd.c ****  *     - Updated the copy right in the file header.<br>
  56:C:/Users/Yushev/git/optiga-trust-qi/projects/xmc4700_relax_kit/common/Libraries/XMCLib/src\xmc_usbd.c ****  *     - Updated the XMC_USBD_Disable() API to gate the clock after programming the SCU registers.<
  57:C:/Users/Yushev/git/optiga-trust-qi/projects/xmc4700_relax_kit/common/Libraries/XMCLib/src\xmc_usbd.c ****  *
  58:C:/Users/Yushev/git/optiga-trust-qi/projects/xmc4700_relax_kit/common/Libraries/XMCLib/src\xmc_usbd.c ****  * @endcond 
  59:C:/Users/Yushev/git/optiga-trust-qi/projects/xmc4700_relax_kit/common/Libraries/XMCLib/src\xmc_usbd.c ****  *
  60:C:/Users/Yushev/git/optiga-trust-qi/projects/xmc4700_relax_kit/common/Libraries/XMCLib/src\xmc_usbd.c ****  */
  61:C:/Users/Yushev/git/optiga-trust-qi/projects/xmc4700_relax_kit/common/Libraries/XMCLib/src\xmc_usbd.c **** 
  62:C:/Users/Yushev/git/optiga-trust-qi/projects/xmc4700_relax_kit/common/Libraries/XMCLib/src\xmc_usbd.c **** 
  63:C:/Users/Yushev/git/optiga-trust-qi/projects/xmc4700_relax_kit/common/Libraries/XMCLib/src\xmc_usbd.c **** /*******************************************************************************
  64:C:/Users/Yushev/git/optiga-trust-qi/projects/xmc4700_relax_kit/common/Libraries/XMCLib/src\xmc_usbd.c ****  * HEADER FILES
  65:C:/Users/Yushev/git/optiga-trust-qi/projects/xmc4700_relax_kit/common/Libraries/XMCLib/src\xmc_usbd.c ****  *******************************************************************************/
  66:C:/Users/Yushev/git/optiga-trust-qi/projects/xmc4700_relax_kit/common/Libraries/XMCLib/src\xmc_usbd.c **** #include <xmc_usbd.h>
  67:C:/Users/Yushev/git/optiga-trust-qi/projects/xmc4700_relax_kit/common/Libraries/XMCLib/src\xmc_usbd.c **** 
  68:C:/Users/Yushev/git/optiga-trust-qi/projects/xmc4700_relax_kit/common/Libraries/XMCLib/src\xmc_usbd.c **** #if defined(USB0)
  69:C:/Users/Yushev/git/optiga-trust-qi/projects/xmc4700_relax_kit/common/Libraries/XMCLib/src\xmc_usbd.c **** 	
  70:C:/Users/Yushev/git/optiga-trust-qi/projects/xmc4700_relax_kit/common/Libraries/XMCLib/src\xmc_usbd.c **** /**< macro to check the maximum number of endpoints used*/
  71:C:/Users/Yushev/git/optiga-trust-qi/projects/xmc4700_relax_kit/common/Libraries/XMCLib/src\xmc_usbd.c **** #define XMC_USBD_CHECK_INPUT_MAX_NUM_EPS(usbd_max_num_eps) \
  72:C:/Users/Yushev/git/optiga-trust-qi/projects/xmc4700_relax_kit/common/Libraries/XMCLib/src\xmc_usbd.c ****   ((usbd_max_num_eps ==  XMC_USBD_MAX_NUM_EPS_1 ) || \
  73:C:/Users/Yushev/git/optiga-trust-qi/projects/xmc4700_relax_kit/common/Libraries/XMCLib/src\xmc_usbd.c ****    (usbd_max_num_eps ==  XMC_USBD_MAX_NUM_EPS_2 ) || \
  74:C:/Users/Yushev/git/optiga-trust-qi/projects/xmc4700_relax_kit/common/Libraries/XMCLib/src\xmc_usbd.c ****    (usbd_max_num_eps ==  XMC_USBD_MAX_NUM_EPS_3 ) || \
  75:C:/Users/Yushev/git/optiga-trust-qi/projects/xmc4700_relax_kit/common/Libraries/XMCLib/src\xmc_usbd.c ****    (usbd_max_num_eps ==  XMC_USBD_MAX_NUM_EPS_4 ) || \
  76:C:/Users/Yushev/git/optiga-trust-qi/projects/xmc4700_relax_kit/common/Libraries/XMCLib/src\xmc_usbd.c ****    (usbd_max_num_eps ==  XMC_USBD_MAX_NUM_EPS_5 ) || \
  77:C:/Users/Yushev/git/optiga-trust-qi/projects/xmc4700_relax_kit/common/Libraries/XMCLib/src\xmc_usbd.c ****    (usbd_max_num_eps ==  XMC_USBD_MAX_NUM_EPS_6 ) || \
  78:C:/Users/Yushev/git/optiga-trust-qi/projects/xmc4700_relax_kit/common/Libraries/XMCLib/src\xmc_usbd.c ****    (usbd_max_num_eps == XMC_USBD_MAX_NUM_EPS_7 ))
  79:C:/Users/Yushev/git/optiga-trust-qi/projects/xmc4700_relax_kit/common/Libraries/XMCLib/src\xmc_usbd.c **** 
  80:C:/Users/Yushev/git/optiga-trust-qi/projects/xmc4700_relax_kit/common/Libraries/XMCLib/src\xmc_usbd.c **** /*******************************************************************************
  81:C:/Users/Yushev/git/optiga-trust-qi/projects/xmc4700_relax_kit/common/Libraries/XMCLib/src\xmc_usbd.c ****  *GLOBAL DATA
  82:C:/Users/Yushev/git/optiga-trust-qi/projects/xmc4700_relax_kit/common/Libraries/XMCLib/src\xmc_usbd.c ****  *******************************************************************************/
  83:C:/Users/Yushev/git/optiga-trust-qi/projects/xmc4700_relax_kit/common/Libraries/XMCLib/src\xmc_usbd.c **** /*
  84:C:/Users/Yushev/git/optiga-trust-qi/projects/xmc4700_relax_kit/common/Libraries/XMCLib/src\xmc_usbd.c ****  * Endpoint Out Fifo Size
  85:C:/Users/Yushev/git/optiga-trust-qi/projects/xmc4700_relax_kit/common/Libraries/XMCLib/src\xmc_usbd.c ****  */
  86:C:/Users/Yushev/git/optiga-trust-qi/projects/xmc4700_relax_kit/common/Libraries/XMCLib/src\xmc_usbd.c **** uint32_t XMC_USBD_EP_OUT_BUFFERSIZE[7] = {0U,0U,0U,0U,0U,0U,0U};
  87:C:/Users/Yushev/git/optiga-trust-qi/projects/xmc4700_relax_kit/common/Libraries/XMCLib/src\xmc_usbd.c **** /*
  88:C:/Users/Yushev/git/optiga-trust-qi/projects/xmc4700_relax_kit/common/Libraries/XMCLib/src\xmc_usbd.c ****  * Endpoint In Fifo Size
  89:C:/Users/Yushev/git/optiga-trust-qi/projects/xmc4700_relax_kit/common/Libraries/XMCLib/src\xmc_usbd.c ****  */
  90:C:/Users/Yushev/git/optiga-trust-qi/projects/xmc4700_relax_kit/common/Libraries/XMCLib/src\xmc_usbd.c **** uint32_t XMC_USBD_EP_IN_BUFFERSIZE[7] = {0U,0U,0U,0U,0U,0U,0U};
  91:C:/Users/Yushev/git/optiga-trust-qi/projects/xmc4700_relax_kit/common/Libraries/XMCLib/src\xmc_usbd.c **** /*
  92:C:/Users/Yushev/git/optiga-trust-qi/projects/xmc4700_relax_kit/common/Libraries/XMCLib/src\xmc_usbd.c ****  * Device definition
  93:C:/Users/Yushev/git/optiga-trust-qi/projects/xmc4700_relax_kit/common/Libraries/XMCLib/src\xmc_usbd.c ****  */
  94:C:/Users/Yushev/git/optiga-trust-qi/projects/xmc4700_relax_kit/common/Libraries/XMCLib/src\xmc_usbd.c ****  XMC_USBD_DEVICE_t xmc_device;
  95:C:/Users/Yushev/git/optiga-trust-qi/projects/xmc4700_relax_kit/common/Libraries/XMCLib/src\xmc_usbd.c **** #ifdef __GNUC__															  /*GCC*/
  96:C:/Users/Yushev/git/optiga-trust-qi/projects/xmc4700_relax_kit/common/Libraries/XMCLib/src\xmc_usbd.c **** /*
  97:C:/Users/Yushev/git/optiga-trust-qi/projects/xmc4700_relax_kit/common/Libraries/XMCLib/src\xmc_usbd.c ****  * Endpoint Out Fifo
  98:C:/Users/Yushev/git/optiga-trust-qi/projects/xmc4700_relax_kit/common/Libraries/XMCLib/src\xmc_usbd.c ****  */
  99:C:/Users/Yushev/git/optiga-trust-qi/projects/xmc4700_relax_kit/common/Libraries/XMCLib/src\xmc_usbd.c **** static __attribute__((aligned(4))) uint8_t XMC_USBD_EP_OUT_BUFFER[7][256] __attribute__((section("U
 100:C:/Users/Yushev/git/optiga-trust-qi/projects/xmc4700_relax_kit/common/Libraries/XMCLib/src\xmc_usbd.c **** /*
 101:C:/Users/Yushev/git/optiga-trust-qi/projects/xmc4700_relax_kit/common/Libraries/XMCLib/src\xmc_usbd.c ****  * Endpoint In Fifo
 102:C:/Users/Yushev/git/optiga-trust-qi/projects/xmc4700_relax_kit/common/Libraries/XMCLib/src\xmc_usbd.c ****  */
 103:C:/Users/Yushev/git/optiga-trust-qi/projects/xmc4700_relax_kit/common/Libraries/XMCLib/src\xmc_usbd.c **** static __attribute__((aligned(4))) uint8_t XMC_USBD_EP_IN_BUFFER[7][256] __attribute__((section("US
 104:C:/Users/Yushev/git/optiga-trust-qi/projects/xmc4700_relax_kit/common/Libraries/XMCLib/src\xmc_usbd.c **** #endif
 105:C:/Users/Yushev/git/optiga-trust-qi/projects/xmc4700_relax_kit/common/Libraries/XMCLib/src\xmc_usbd.c **** #if defined(__ICCARM__)
 106:C:/Users/Yushev/git/optiga-trust-qi/projects/xmc4700_relax_kit/common/Libraries/XMCLib/src\xmc_usbd.c **** #pragma data_alignment=4
 107:C:/Users/Yushev/git/optiga-trust-qi/projects/xmc4700_relax_kit/common/Libraries/XMCLib/src\xmc_usbd.c **** /*
 108:C:/Users/Yushev/git/optiga-trust-qi/projects/xmc4700_relax_kit/common/Libraries/XMCLib/src\xmc_usbd.c ****  * Endpoint Out Fifo
 109:C:/Users/Yushev/git/optiga-trust-qi/projects/xmc4700_relax_kit/common/Libraries/XMCLib/src\xmc_usbd.c ****  */
 110:C:/Users/Yushev/git/optiga-trust-qi/projects/xmc4700_relax_kit/common/Libraries/XMCLib/src\xmc_usbd.c **** static uint8_t XMC_USBD_EP_OUT_BUFFER[7][256] @ ".dram";
 111:C:/Users/Yushev/git/optiga-trust-qi/projects/xmc4700_relax_kit/common/Libraries/XMCLib/src\xmc_usbd.c **** /*
 112:C:/Users/Yushev/git/optiga-trust-qi/projects/xmc4700_relax_kit/common/Libraries/XMCLib/src\xmc_usbd.c ****  * Endpoint In Fifo
 113:C:/Users/Yushev/git/optiga-trust-qi/projects/xmc4700_relax_kit/common/Libraries/XMCLib/src\xmc_usbd.c ****  */
 114:C:/Users/Yushev/git/optiga-trust-qi/projects/xmc4700_relax_kit/common/Libraries/XMCLib/src\xmc_usbd.c **** #pragma data_alignment=4
 115:C:/Users/Yushev/git/optiga-trust-qi/projects/xmc4700_relax_kit/common/Libraries/XMCLib/src\xmc_usbd.c **** static uint8_t XMC_USBD_EP_IN_BUFFER[7][256] @ ".dram";
 116:C:/Users/Yushev/git/optiga-trust-qi/projects/xmc4700_relax_kit/common/Libraries/XMCLib/src\xmc_usbd.c **** #endif
 117:C:/Users/Yushev/git/optiga-trust-qi/projects/xmc4700_relax_kit/common/Libraries/XMCLib/src\xmc_usbd.c **** #if defined(__CC_ARM)
 118:C:/Users/Yushev/git/optiga-trust-qi/projects/xmc4700_relax_kit/common/Libraries/XMCLib/src\xmc_usbd.c **** /*
 119:C:/Users/Yushev/git/optiga-trust-qi/projects/xmc4700_relax_kit/common/Libraries/XMCLib/src\xmc_usbd.c ****  * Endpoint Out Fifo
 120:C:/Users/Yushev/git/optiga-trust-qi/projects/xmc4700_relax_kit/common/Libraries/XMCLib/src\xmc_usbd.c ****  */
 121:C:/Users/Yushev/git/optiga-trust-qi/projects/xmc4700_relax_kit/common/Libraries/XMCLib/src\xmc_usbd.c **** static __attribute__((aligned(4))) uint8_t XMC_USBD_EP_OUT_BUFFER[7][256] __attribute__((section ("
 122:C:/Users/Yushev/git/optiga-trust-qi/projects/xmc4700_relax_kit/common/Libraries/XMCLib/src\xmc_usbd.c **** /*
 123:C:/Users/Yushev/git/optiga-trust-qi/projects/xmc4700_relax_kit/common/Libraries/XMCLib/src\xmc_usbd.c ****  * Endpoint In Fifo
 124:C:/Users/Yushev/git/optiga-trust-qi/projects/xmc4700_relax_kit/common/Libraries/XMCLib/src\xmc_usbd.c ****  */
 125:C:/Users/Yushev/git/optiga-trust-qi/projects/xmc4700_relax_kit/common/Libraries/XMCLib/src\xmc_usbd.c **** static __attribute__((aligned(4))) uint8_t XMC_USBD_EP_IN_BUFFER[7][256] __attribute__((section ("R
 126:C:/Users/Yushev/git/optiga-trust-qi/projects/xmc4700_relax_kit/common/Libraries/XMCLib/src\xmc_usbd.c **** #endif
 127:C:/Users/Yushev/git/optiga-trust-qi/projects/xmc4700_relax_kit/common/Libraries/XMCLib/src\xmc_usbd.c **** XMC_USBD_t *usbd_init;
 128:C:/Users/Yushev/git/optiga-trust-qi/projects/xmc4700_relax_kit/common/Libraries/XMCLib/src\xmc_usbd.c **** 
 129:C:/Users/Yushev/git/optiga-trust-qi/projects/xmc4700_relax_kit/common/Libraries/XMCLib/src\xmc_usbd.c **** /*******************************************************************************
 130:C:/Users/Yushev/git/optiga-trust-qi/projects/xmc4700_relax_kit/common/Libraries/XMCLib/src\xmc_usbd.c ****  *LOCAL ROUTINES
 131:C:/Users/Yushev/git/optiga-trust-qi/projects/xmc4700_relax_kit/common/Libraries/XMCLib/src\xmc_usbd.c ****  *******************************************************************************/
 132:C:/Users/Yushev/git/optiga-trust-qi/projects/xmc4700_relax_kit/common/Libraries/XMCLib/src\xmc_usbd.c **** /*Local routines prototypes*/
 133:C:/Users/Yushev/git/optiga-trust-qi/projects/xmc4700_relax_kit/common/Libraries/XMCLib/src\xmc_usbd.c **** uint8_t XMC_USBD_lDeviceActive(const XMC_USBD_t *const obj);
 134:C:/Users/Yushev/git/optiga-trust-qi/projects/xmc4700_relax_kit/common/Libraries/XMCLib/src\xmc_usbd.c **** static void XMC_USBD_lReadFifo(const uint32_t ep_num,const uint32_t byte_count);
 135:C:/Users/Yushev/git/optiga-trust-qi/projects/xmc4700_relax_kit/common/Libraries/XMCLib/src\xmc_usbd.c **** static uint32_t XMC_USBD_lWriteFifo(XMC_USBD_EP_t *ep);
 136:C:/Users/Yushev/git/optiga-trust-qi/projects/xmc4700_relax_kit/common/Libraries/XMCLib/src\xmc_usbd.c **** static void XMC_USBD_lFlushTXFifo(const uint8_t fifo_num);
 137:C:/Users/Yushev/git/optiga-trust-qi/projects/xmc4700_relax_kit/common/Libraries/XMCLib/src\xmc_usbd.c **** static void XMC_USBD_lFlushRXFifo(void);
 138:C:/Users/Yushev/git/optiga-trust-qi/projects/xmc4700_relax_kit/common/Libraries/XMCLib/src\xmc_usbd.c **** static uint8_t XMC_USBD_lAssignTXFifo(void);
 139:C:/Users/Yushev/git/optiga-trust-qi/projects/xmc4700_relax_kit/common/Libraries/XMCLib/src\xmc_usbd.c **** static void XMC_USBD_lStartReadXfer(XMC_USBD_EP_t *const ep);
 140:C:/Users/Yushev/git/optiga-trust-qi/projects/xmc4700_relax_kit/common/Libraries/XMCLib/src\xmc_usbd.c **** static void XMC_USBD_lStartWriteXfer(XMC_USBD_EP_t *const ep);
 141:C:/Users/Yushev/git/optiga-trust-qi/projects/xmc4700_relax_kit/common/Libraries/XMCLib/src\xmc_usbd.c **** static void XMC_USBD_lHandleEnumDone(void);
 142:C:/Users/Yushev/git/optiga-trust-qi/projects/xmc4700_relax_kit/common/Libraries/XMCLib/src\xmc_usbd.c **** static void XMC_USBD_lHandleOEPInt(const XMC_USBD_t *const obj);
 143:C:/Users/Yushev/git/optiga-trust-qi/projects/xmc4700_relax_kit/common/Libraries/XMCLib/src\xmc_usbd.c **** static void XMC_USBD_lHandleRxFLvl(void);
 144:C:/Users/Yushev/git/optiga-trust-qi/projects/xmc4700_relax_kit/common/Libraries/XMCLib/src\xmc_usbd.c **** static void XMC_USBD_lHandleIEPInt(const XMC_USBD_t *const obj);
 145:C:/Users/Yushev/git/optiga-trust-qi/projects/xmc4700_relax_kit/common/Libraries/XMCLib/src\xmc_usbd.c **** static void XMC_USBD_lUnassignFifo(const uint8_t fifo_nr);
 146:C:/Users/Yushev/git/optiga-trust-qi/projects/xmc4700_relax_kit/common/Libraries/XMCLib/src\xmc_usbd.c **** static void XMC_USBD_lHandleUSBReset(const XMC_USBD_t *const obj);
 147:C:/Users/Yushev/git/optiga-trust-qi/projects/xmc4700_relax_kit/common/Libraries/XMCLib/src\xmc_usbd.c **** static void XMC_USBD_lHandleOTGInt(void);
 148:C:/Users/Yushev/git/optiga-trust-qi/projects/xmc4700_relax_kit/common/Libraries/XMCLib/src\xmc_usbd.c **** static void XMC_USBD_lClearEventOTG(uint32_t event);
 149:C:/Users/Yushev/git/optiga-trust-qi/projects/xmc4700_relax_kit/common/Libraries/XMCLib/src\xmc_usbd.c **** 
 150:C:/Users/Yushev/git/optiga-trust-qi/projects/xmc4700_relax_kit/common/Libraries/XMCLib/src\xmc_usbd.c **** /**
 151:C:/Users/Yushev/git/optiga-trust-qi/projects/xmc4700_relax_kit/common/Libraries/XMCLib/src\xmc_usbd.c ****  *  The device driver
 152:C:/Users/Yushev/git/optiga-trust-qi/projects/xmc4700_relax_kit/common/Libraries/XMCLib/src\xmc_usbd.c ****  */
 153:C:/Users/Yushev/git/optiga-trust-qi/projects/xmc4700_relax_kit/common/Libraries/XMCLib/src\xmc_usbd.c **** const XMC_USBD_DRIVER_t Driver_USBD0 =
 154:C:/Users/Yushev/git/optiga-trust-qi/projects/xmc4700_relax_kit/common/Libraries/XMCLib/src\xmc_usbd.c **** {
 155:C:/Users/Yushev/git/optiga-trust-qi/projects/xmc4700_relax_kit/common/Libraries/XMCLib/src\xmc_usbd.c ****   .GetCapabilities = XMC_USBD_GetCapabilities,
 156:C:/Users/Yushev/git/optiga-trust-qi/projects/xmc4700_relax_kit/common/Libraries/XMCLib/src\xmc_usbd.c ****   .Initialize = XMC_USBD_Init,
 157:C:/Users/Yushev/git/optiga-trust-qi/projects/xmc4700_relax_kit/common/Libraries/XMCLib/src\xmc_usbd.c ****   .Uninitialize = XMC_USBD_Uninitialize,
 158:C:/Users/Yushev/git/optiga-trust-qi/projects/xmc4700_relax_kit/common/Libraries/XMCLib/src\xmc_usbd.c ****   .DeviceConnect = XMC_USBD_DeviceConnect,
 159:C:/Users/Yushev/git/optiga-trust-qi/projects/xmc4700_relax_kit/common/Libraries/XMCLib/src\xmc_usbd.c ****   .DeviceDisconnect = XMC_USBD_DeviceDisconnect,
 160:C:/Users/Yushev/git/optiga-trust-qi/projects/xmc4700_relax_kit/common/Libraries/XMCLib/src\xmc_usbd.c ****   .DeviceGetState = XMC_USBD_DeviceGetState,
 161:C:/Users/Yushev/git/optiga-trust-qi/projects/xmc4700_relax_kit/common/Libraries/XMCLib/src\xmc_usbd.c ****   .DeviceSetAddress = XMC_USBD_DeviceSetAddress,
 162:C:/Users/Yushev/git/optiga-trust-qi/projects/xmc4700_relax_kit/common/Libraries/XMCLib/src\xmc_usbd.c ****   .EndpointConfigure = XMC_USBD_EndpointConfigure,
 163:C:/Users/Yushev/git/optiga-trust-qi/projects/xmc4700_relax_kit/common/Libraries/XMCLib/src\xmc_usbd.c ****   .EndpointUnconfigure = XMC_USBD_EndpointUnconfigure,
 164:C:/Users/Yushev/git/optiga-trust-qi/projects/xmc4700_relax_kit/common/Libraries/XMCLib/src\xmc_usbd.c ****   .EndpointStall = XMC_USBD_EndpointStall,
 165:C:/Users/Yushev/git/optiga-trust-qi/projects/xmc4700_relax_kit/common/Libraries/XMCLib/src\xmc_usbd.c ****   .EndpointReadStart = XMC_USBD_EndpointReadStart,
 166:C:/Users/Yushev/git/optiga-trust-qi/projects/xmc4700_relax_kit/common/Libraries/XMCLib/src\xmc_usbd.c ****   .EndpointRead = XMC_USBD_EndpointRead,
 167:C:/Users/Yushev/git/optiga-trust-qi/projects/xmc4700_relax_kit/common/Libraries/XMCLib/src\xmc_usbd.c ****   .EndpointWrite = XMC_USBD_EndpointWrite,
 168:C:/Users/Yushev/git/optiga-trust-qi/projects/xmc4700_relax_kit/common/Libraries/XMCLib/src\xmc_usbd.c ****   .EndpointAbort = XMC_USBD_EndpointAbort,
 169:C:/Users/Yushev/git/optiga-trust-qi/projects/xmc4700_relax_kit/common/Libraries/XMCLib/src\xmc_usbd.c ****   .GetFrameNumber = XMC_USBD_GetFrameNumber,
 170:C:/Users/Yushev/git/optiga-trust-qi/projects/xmc4700_relax_kit/common/Libraries/XMCLib/src\xmc_usbd.c ****   .IsEnumDone = XMC_USBD_IsEnumDone
 171:C:/Users/Yushev/git/optiga-trust-qi/projects/xmc4700_relax_kit/common/Libraries/XMCLib/src\xmc_usbd.c **** };
 172:C:/Users/Yushev/git/optiga-trust-qi/projects/xmc4700_relax_kit/common/Libraries/XMCLib/src\xmc_usbd.c **** 
 173:C:/Users/Yushev/git/optiga-trust-qi/projects/xmc4700_relax_kit/common/Libraries/XMCLib/src\xmc_usbd.c **** /**
 174:C:/Users/Yushev/git/optiga-trust-qi/projects/xmc4700_relax_kit/common/Libraries/XMCLib/src\xmc_usbd.c ****  * @brief Checks if device is active
 175:C:/Users/Yushev/git/optiga-trust-qi/projects/xmc4700_relax_kit/common/Libraries/XMCLib/src\xmc_usbd.c ****  *
 176:C:/Users/Yushev/git/optiga-trust-qi/projects/xmc4700_relax_kit/common/Libraries/XMCLib/src\xmc_usbd.c ****  * Therefore the endpoint inInUse flag are checked and if one endpoint is in use, 1 is returned,
 177:C:/Users/Yushev/git/optiga-trust-qi/projects/xmc4700_relax_kit/common/Libraries/XMCLib/src\xmc_usbd.c ****  * else 0 is returned.
 178:C:/Users/Yushev/git/optiga-trust-qi/projects/xmc4700_relax_kit/common/Libraries/XMCLib/src\xmc_usbd.c ****  * @return 1 if an endpoint is active else 0
 179:C:/Users/Yushev/git/optiga-trust-qi/projects/xmc4700_relax_kit/common/Libraries/XMCLib/src\xmc_usbd.c ****  */
 180:C:/Users/Yushev/git/optiga-trust-qi/projects/xmc4700_relax_kit/common/Libraries/XMCLib/src\xmc_usbd.c **** uint8_t XMC_USBD_lDeviceActive(const XMC_USBD_t *const obj) 
 181:C:/Users/Yushev/git/optiga-trust-qi/projects/xmc4700_relax_kit/common/Libraries/XMCLib/src\xmc_usbd.c **** {
 182:C:/Users/Yushev/git/optiga-trust-qi/projects/xmc4700_relax_kit/common/Libraries/XMCLib/src\xmc_usbd.c ****   uint8_t i;
 183:C:/Users/Yushev/git/optiga-trust-qi/projects/xmc4700_relax_kit/common/Libraries/XMCLib/src\xmc_usbd.c ****   uint8_t result = 0U;
 184:C:/Users/Yushev/git/optiga-trust-qi/projects/xmc4700_relax_kit/common/Libraries/XMCLib/src\xmc_usbd.c ****   for (i = 0U; i < (uint8_t)obj->usbd_max_num_eps; i++)
 185:C:/Users/Yushev/git/optiga-trust-qi/projects/xmc4700_relax_kit/common/Libraries/XMCLib/src\xmc_usbd.c ****   {
 186:C:/Users/Yushev/git/optiga-trust-qi/projects/xmc4700_relax_kit/common/Libraries/XMCLib/src\xmc_usbd.c ****     if (xmc_device.ep[i].inInUse || xmc_device.ep[i].outInUse)
 187:C:/Users/Yushev/git/optiga-trust-qi/projects/xmc4700_relax_kit/common/Libraries/XMCLib/src\xmc_usbd.c ****     {
 188:C:/Users/Yushev/git/optiga-trust-qi/projects/xmc4700_relax_kit/common/Libraries/XMCLib/src\xmc_usbd.c ****       result = 1U;
 189:C:/Users/Yushev/git/optiga-trust-qi/projects/xmc4700_relax_kit/common/Libraries/XMCLib/src\xmc_usbd.c ****     }
 190:C:/Users/Yushev/git/optiga-trust-qi/projects/xmc4700_relax_kit/common/Libraries/XMCLib/src\xmc_usbd.c ****   }
 191:C:/Users/Yushev/git/optiga-trust-qi/projects/xmc4700_relax_kit/common/Libraries/XMCLib/src\xmc_usbd.c ****   return result;
 192:C:/Users/Yushev/git/optiga-trust-qi/projects/xmc4700_relax_kit/common/Libraries/XMCLib/src\xmc_usbd.c **** }
 193:C:/Users/Yushev/git/optiga-trust-qi/projects/xmc4700_relax_kit/common/Libraries/XMCLib/src\xmc_usbd.c **** 
 194:C:/Users/Yushev/git/optiga-trust-qi/projects/xmc4700_relax_kit/common/Libraries/XMCLib/src\xmc_usbd.c **** 
 195:C:/Users/Yushev/git/optiga-trust-qi/projects/xmc4700_relax_kit/common/Libraries/XMCLib/src\xmc_usbd.c **** /**
 196:C:/Users/Yushev/git/optiga-trust-qi/projects/xmc4700_relax_kit/common/Libraries/XMCLib/src\xmc_usbd.c ****  * @brief Read data from the rx fifo
 197:C:/Users/Yushev/git/optiga-trust-qi/projects/xmc4700_relax_kit/common/Libraries/XMCLib/src\xmc_usbd.c ****  *
 198:C:/Users/Yushev/git/optiga-trust-qi/projects/xmc4700_relax_kit/common/Libraries/XMCLib/src\xmc_usbd.c ****  * The data from the fifo is copied in to the buffer specified by @ref xfer_buffer and
 199:C:/Users/Yushev/git/optiga-trust-qi/projects/xmc4700_relax_kit/common/Libraries/XMCLib/src\xmc_usbd.c ****  * the transfer values get updated. If the endpoint is disabled or the buffer not existent
 200:C:/Users/Yushev/git/optiga-trust-qi/projects/xmc4700_relax_kit/common/Libraries/XMCLib/src\xmc_usbd.c ****  * the function exits.
 201:C:/Users/Yushev/git/optiga-trust-qi/projects/xmc4700_relax_kit/common/Libraries/XMCLib/src\xmc_usbd.c ****  *
 202:C:/Users/Yushev/git/optiga-trust-qi/projects/xmc4700_relax_kit/common/Libraries/XMCLib/src\xmc_usbd.c ****  * @arg ep_num the endpoint to read for
 203:C:/Users/Yushev/git/optiga-trust-qi/projects/xmc4700_relax_kit/common/Libraries/XMCLib/src\xmc_usbd.c ****  * @arg byte_count the byte count to read
 204:C:/Users/Yushev/git/optiga-trust-qi/projects/xmc4700_relax_kit/common/Libraries/XMCLib/src\xmc_usbd.c ****  */
 205:C:/Users/Yushev/git/optiga-trust-qi/projects/xmc4700_relax_kit/common/Libraries/XMCLib/src\xmc_usbd.c **** static void XMC_USBD_lReadFifo(const uint32_t ep_num,const uint32_t byte_count) 
 206:C:/Users/Yushev/git/optiga-trust-qi/projects/xmc4700_relax_kit/common/Libraries/XMCLib/src\xmc_usbd.c **** {
  27              	 .loc 1 206 0
  28              	 .cfi_startproc
  29              	 
  30              	 
  31              	.LVL0:
  32 0000 F0B5     	 push {r4,r5,r6,r7,lr}
  33              	.LCFI0:
  34              	 .cfi_def_cfa_offset 20
  35              	 .cfi_offset 4,-20
  36              	 .cfi_offset 5,-16
  37              	 .cfi_offset 6,-12
  38              	 .cfi_offset 7,-8
  39              	 .cfi_offset 14,-4
 207:C:/Users/Yushev/git/optiga-trust-qi/projects/xmc4700_relax_kit/common/Libraries/XMCLib/src\xmc_usbd.c ****   XMC_USBD_EP_t * ep = &xmc_device.ep[ep_num];
 208:C:/Users/Yushev/git/optiga-trust-qi/projects/xmc4700_relax_kit/common/Libraries/XMCLib/src\xmc_usbd.c ****   uint32_t word_count;
 209:C:/Users/Yushev/git/optiga-trust-qi/projects/xmc4700_relax_kit/common/Libraries/XMCLib/src\xmc_usbd.c ****   uint32_t temp_data;
 210:C:/Users/Yushev/git/optiga-trust-qi/projects/xmc4700_relax_kit/common/Libraries/XMCLib/src\xmc_usbd.c ****   uint32_t temp_word_count;
 211:C:/Users/Yushev/git/optiga-trust-qi/projects/xmc4700_relax_kit/common/Libraries/XMCLib/src\xmc_usbd.c ****   volatile uint32_t *fifo = xmc_device.fifo[0U];
  40              	 .loc 1 211 0
  41 0002 1F4C     	 ldr r4,.L17
 212:C:/Users/Yushev/git/optiga-trust-qi/projects/xmc4700_relax_kit/common/Libraries/XMCLib/src\xmc_usbd.c ****   uint32_t i;
 213:C:/Users/Yushev/git/optiga-trust-qi/projects/xmc4700_relax_kit/common/Libraries/XMCLib/src\xmc_usbd.c ****   depctl_data_t data;
 214:C:/Users/Yushev/git/optiga-trust-qi/projects/xmc4700_relax_kit/common/Libraries/XMCLib/src\xmc_usbd.c ****   data.d32 = xmc_device.endpoint_out_register[ep_num]->doepctl;
  42              	 .loc 1 214 0
  43 0004 04EB8003 	 add r3,r4,r0,lsl#2
 211:C:/Users/Yushev/git/optiga-trust-qi/projects/xmc4700_relax_kit/common/Libraries/XMCLib/src\xmc_usbd.c ****   uint32_t i;
  44              	 .loc 1 211 0
  45 0008 D4F8E051 	 ldr r5,[r4,#480]
  46              	.LVL1:
  47              	 .loc 1 214 0
  48 000c D3F8C431 	 ldr r3,[r3,#452]
  49 0010 1B68     	 ldr r3,[r3]
  50              	.LVL2:
 215:C:/Users/Yushev/git/optiga-trust-qi/projects/xmc4700_relax_kit/common/Libraries/XMCLib/src\xmc_usbd.c ****   word_count = (byte_count >> 2U );
 216:C:/Users/Yushev/git/optiga-trust-qi/projects/xmc4700_relax_kit/common/Libraries/XMCLib/src\xmc_usbd.c ****   temp_word_count = (word_count << 2U);
 217:C:/Users/Yushev/git/optiga-trust-qi/projects/xmc4700_relax_kit/common/Libraries/XMCLib/src\xmc_usbd.c ****   /* Check if ep is enabled and has buffer */
 218:C:/Users/Yushev/git/optiga-trust-qi/projects/xmc4700_relax_kit/common/Libraries/XMCLib/src\xmc_usbd.c ****   if (!data.b.usbactep)
  51              	 .loc 1 218 0
  52 0012 1B04     	 lsls r3,r3,#16
  53              	.LVL3:
  54 0014 32D5     	 bpl .L1
 219:C:/Users/Yushev/git/optiga-trust-qi/projects/xmc4700_relax_kit/common/Libraries/XMCLib/src\xmc_usbd.c ****   {
 220:C:/Users/Yushev/git/optiga-trust-qi/projects/xmc4700_relax_kit/common/Libraries/XMCLib/src\xmc_usbd.c ****     /*Do Nothing*/
 221:C:/Users/Yushev/git/optiga-trust-qi/projects/xmc4700_relax_kit/common/Libraries/XMCLib/src\xmc_usbd.c ****   }
 222:C:/Users/Yushev/git/optiga-trust-qi/projects/xmc4700_relax_kit/common/Libraries/XMCLib/src\xmc_usbd.c ****   else if (ep->xferBuffer == NULL)
  55              	 .loc 1 222 0
  56 0016 3423     	 movs r3,#52
  57 0018 03FB0043 	 mla r3,r3,r0,r4
  58              	.LVL4:
  59 001c 5B6A     	 ldr r3,[r3,#36]
  60              	.LVL5:
  61 001e 6BB3     	 cbz r3,.L1
 215:C:/Users/Yushev/git/optiga-trust-qi/projects/xmc4700_relax_kit/common/Libraries/XMCLib/src\xmc_usbd.c ****   word_count = (byte_count >> 2U );
  62              	 .loc 1 215 0
  63 0020 8E08     	 lsrs r6,r1,#2
  64              	.LVL6:
  65 0022 0022     	 movs r2,#0
  66              	.L3:
  67              	.LVL7:
 223:C:/Users/Yushev/git/optiga-trust-qi/projects/xmc4700_relax_kit/common/Libraries/XMCLib/src\xmc_usbd.c ****   {
 224:C:/Users/Yushev/git/optiga-trust-qi/projects/xmc4700_relax_kit/common/Libraries/XMCLib/src\xmc_usbd.c **** 	/*Do Nothing*/
 225:C:/Users/Yushev/git/optiga-trust-qi/projects/xmc4700_relax_kit/common/Libraries/XMCLib/src\xmc_usbd.c ****   }
 226:C:/Users/Yushev/git/optiga-trust-qi/projects/xmc4700_relax_kit/common/Libraries/XMCLib/src\xmc_usbd.c ****   else
 227:C:/Users/Yushev/git/optiga-trust-qi/projects/xmc4700_relax_kit/common/Libraries/XMCLib/src\xmc_usbd.c ****   {
 228:C:/Users/Yushev/git/optiga-trust-qi/projects/xmc4700_relax_kit/common/Libraries/XMCLib/src\xmc_usbd.c ****     /* store the data */
 229:C:/Users/Yushev/git/optiga-trust-qi/projects/xmc4700_relax_kit/common/Libraries/XMCLib/src\xmc_usbd.c ****     for (i = 0U;i < word_count; i++)
  68              	 .loc 1 229 0 discriminator 1
  69 0024 B242     	 cmp r2,r6
  70 0026 08D0     	 beq .L16
 230:C:/Users/Yushev/git/optiga-trust-qi/projects/xmc4700_relax_kit/common/Libraries/XMCLib/src\xmc_usbd.c ****     {
 231:C:/Users/Yushev/git/optiga-trust-qi/projects/xmc4700_relax_kit/common/Libraries/XMCLib/src\xmc_usbd.c ****       *(((uint32_t*)ep->xferBuffer)+i) = *fifo;
  71              	 .loc 1 231 0 discriminator 3
  72 0028 3423     	 movs r3,#52
  73 002a 03FB0043 	 mla r3,r3,r0,r4
  74 002e 2F68     	 ldr r7,[r5]
  75 0030 5B6A     	 ldr r3,[r3,#36]
  76 0032 43F82270 	 str r7,[r3,r2,lsl#2]
 229:C:/Users/Yushev/git/optiga-trust-qi/projects/xmc4700_relax_kit/common/Libraries/XMCLib/src\xmc_usbd.c ****     {
  77              	 .loc 1 229 0 discriminator 3
  78 0036 0132     	 adds r2,r2,#1
  79              	.LVL8:
  80 0038 F4E7     	 b .L3
  81              	.L16:
 216:C:/Users/Yushev/git/optiga-trust-qi/projects/xmc4700_relax_kit/common/Libraries/XMCLib/src\xmc_usbd.c ****   /* Check if ep is enabled and has buffer */
  82              	 .loc 1 216 0
  83 003a 9300     	 lsls r3,r2,#2
 232:C:/Users/Yushev/git/optiga-trust-qi/projects/xmc4700_relax_kit/common/Libraries/XMCLib/src\xmc_usbd.c ****     }
 233:C:/Users/Yushev/git/optiga-trust-qi/projects/xmc4700_relax_kit/common/Libraries/XMCLib/src\xmc_usbd.c ****     /* space is not devidable by 4 */
 234:C:/Users/Yushev/git/optiga-trust-qi/projects/xmc4700_relax_kit/common/Libraries/XMCLib/src\xmc_usbd.c ****     if (byte_count!=temp_word_count)
  84              	 .loc 1 234 0
  85 003c 9942     	 cmp r1,r3
  86 003e 09D1     	 bne .L5
  87              	.LVL9:
  88              	.L8:
 235:C:/Users/Yushev/git/optiga-trust-qi/projects/xmc4700_relax_kit/common/Libraries/XMCLib/src\xmc_usbd.c ****     {
 236:C:/Users/Yushev/git/optiga-trust-qi/projects/xmc4700_relax_kit/common/Libraries/XMCLib/src\xmc_usbd.c ****       temp_data = *fifo;
 237:C:/Users/Yushev/git/optiga-trust-qi/projects/xmc4700_relax_kit/common/Libraries/XMCLib/src\xmc_usbd.c ****       for (i = 0U;(temp_word_count + i) < byte_count;i++)
 238:C:/Users/Yushev/git/optiga-trust-qi/projects/xmc4700_relax_kit/common/Libraries/XMCLib/src\xmc_usbd.c ****       {
 239:C:/Users/Yushev/git/optiga-trust-qi/projects/xmc4700_relax_kit/common/Libraries/XMCLib/src\xmc_usbd.c ****         ep->xferBuffer[(word_count << 2)+i] = (uint8_t)((temp_data & ((uint32_t)0xFFU << (i * 8U)))
 240:C:/Users/Yushev/git/optiga-trust-qi/projects/xmc4700_relax_kit/common/Libraries/XMCLib/src\xmc_usbd.c ****       }
 241:C:/Users/Yushev/git/optiga-trust-qi/projects/xmc4700_relax_kit/common/Libraries/XMCLib/src\xmc_usbd.c ****     }
 242:C:/Users/Yushev/git/optiga-trust-qi/projects/xmc4700_relax_kit/common/Libraries/XMCLib/src\xmc_usbd.c **** 
 243:C:/Users/Yushev/git/optiga-trust-qi/projects/xmc4700_relax_kit/common/Libraries/XMCLib/src\xmc_usbd.c ****     /* save the amount of data */
 244:C:/Users/Yushev/git/optiga-trust-qi/projects/xmc4700_relax_kit/common/Libraries/XMCLib/src\xmc_usbd.c ****     ep->xferCount += byte_count;
  89              	 .loc 1 244 0
  90 0040 3423     	 movs r3,#52
  91 0042 03FB0044 	 mla r4,r3,r0,r4
  92 0046 E36A     	 ldr r3,[r4,#44]
  93 0048 0B44     	 add r3,r3,r1
  94 004a E362     	 str r3,[r4,#44]
 245:C:/Users/Yushev/git/optiga-trust-qi/projects/xmc4700_relax_kit/common/Libraries/XMCLib/src\xmc_usbd.c ****     ep->xferBuffer += byte_count;
  95              	 .loc 1 245 0
  96 004c 636A     	 ldr r3,[r4,#36]
  97 004e 1944     	 add r1,r1,r3
  98              	.LVL10:
  99 0050 6162     	 str r1,[r4,#36]
 100 0052 F0BD     	 pop {r4,r5,r6,r7,pc}
 101              	.LVL11:
 102              	.L5:
 103 0054 D207     	 lsls r2,r2,#31
 104              	.LVL12:
 236:C:/Users/Yushev/git/optiga-trust-qi/projects/xmc4700_relax_kit/common/Libraries/XMCLib/src\xmc_usbd.c ****       for (i = 0U;(temp_word_count + i) < byte_count;i++)
 105              	 .loc 1 236 0
 106 0056 2F68     	 ldr r7,[r5]
 107              	.LVL13:
 108 0058 D21A     	 subs r2,r2,r3
 109              	.LVL14:
 110              	.L6:
 237:C:/Users/Yushev/git/optiga-trust-qi/projects/xmc4700_relax_kit/common/Libraries/XMCLib/src\xmc_usbd.c ****       {
 111              	 .loc 1 237 0 discriminator 1
 112 005a 8B42     	 cmp r3,r1
 113 005c F0D2     	 bcs .L8
 239:C:/Users/Yushev/git/optiga-trust-qi/projects/xmc4700_relax_kit/common/Libraries/XMCLib/src\xmc_usbd.c ****       }
 114              	 .loc 1 239 0 discriminator 3
 115 005e 3425     	 movs r5,#52
 116 0060 05FB0045 	 mla r5,r5,r0,r4
 117 0064 9E18     	 adds r6,r3,r2
 118 0066 F600     	 lsls r6,r6,#3
 119 0068 D5F824E0 	 ldr lr,[r5,#36]
 120 006c FF25     	 movs r5,#255
 121 006e B540     	 lsls r5,r5,r6
 122 0070 3D40     	 ands r5,r5,r7
 123 0072 F540     	 lsrs r5,r5,r6
 124 0074 0EF80350 	 strb r5,[lr,r3]
 125 0078 0133     	 adds r3,r3,#1
 126 007a EEE7     	 b .L6
 127              	.LVL15:
 128              	.L1:
 129 007c F0BD     	 pop {r4,r5,r6,r7,pc}
 130              	.LVL16:
 131              	.L18:
 132 007e 00BF     	 .align 2
 133              	.L17:
 134 0080 00000000 	 .word xmc_device
 135              	 .cfi_endproc
 136              	.LFE170:
 138              	 .section .text.XMC_USBD_lFlushTXFifo,"ax",%progbits
 139              	 .align 1
 140              	 .thumb
 141              	 .thumb_func
 143              	XMC_USBD_lFlushTXFifo:
 144              	.LFB172:
 246:C:/Users/Yushev/git/optiga-trust-qi/projects/xmc4700_relax_kit/common/Libraries/XMCLib/src\xmc_usbd.c ****   }
 247:C:/Users/Yushev/git/optiga-trust-qi/projects/xmc4700_relax_kit/common/Libraries/XMCLib/src\xmc_usbd.c **** }
 248:C:/Users/Yushev/git/optiga-trust-qi/projects/xmc4700_relax_kit/common/Libraries/XMCLib/src\xmc_usbd.c **** 
 249:C:/Users/Yushev/git/optiga-trust-qi/projects/xmc4700_relax_kit/common/Libraries/XMCLib/src\xmc_usbd.c **** /**
 250:C:/Users/Yushev/git/optiga-trust-qi/projects/xmc4700_relax_kit/common/Libraries/XMCLib/src\xmc_usbd.c ****  * @brief Write data to an endpoint fifo
 251:C:/Users/Yushev/git/optiga-trust-qi/projects/xmc4700_relax_kit/common/Libraries/XMCLib/src\xmc_usbd.c ****  *
 252:C:/Users/Yushev/git/optiga-trust-qi/projects/xmc4700_relax_kit/common/Libraries/XMCLib/src\xmc_usbd.c ****  * The data from the @ref xfer_buffer gets copied in to the tx fifo of the endpoint until the buffe
 253:C:/Users/Yushev/git/optiga-trust-qi/projects/xmc4700_relax_kit/common/Libraries/XMCLib/src\xmc_usbd.c ****  *completely or the tx fifo is full. The transfer values are not updated.
 254:C:/Users/Yushev/git/optiga-trust-qi/projects/xmc4700_relax_kit/common/Libraries/XMCLib/src\xmc_usbd.c ****  *
 255:C:/Users/Yushev/git/optiga-trust-qi/projects/xmc4700_relax_kit/common/Libraries/XMCLib/src\xmc_usbd.c ****  * @arg[in] ep the endpoint to use
 256:C:/Users/Yushev/git/optiga-trust-qi/projects/xmc4700_relax_kit/common/Libraries/XMCLib/src\xmc_usbd.c ****  * @return the number of bytes written to the fifo
 257:C:/Users/Yushev/git/optiga-trust-qi/projects/xmc4700_relax_kit/common/Libraries/XMCLib/src\xmc_usbd.c ****  */
 258:C:/Users/Yushev/git/optiga-trust-qi/projects/xmc4700_relax_kit/common/Libraries/XMCLib/src\xmc_usbd.c **** static uint32_t XMC_USBD_lWriteFifo(XMC_USBD_EP_t *const ep) 
 259:C:/Users/Yushev/git/optiga-trust-qi/projects/xmc4700_relax_kit/common/Libraries/XMCLib/src\xmc_usbd.c **** {
 260:C:/Users/Yushev/git/optiga-trust-qi/projects/xmc4700_relax_kit/common/Libraries/XMCLib/src\xmc_usbd.c ****   dtxfsts_data_t freeSpace; 
 261:C:/Users/Yushev/git/optiga-trust-qi/projects/xmc4700_relax_kit/common/Libraries/XMCLib/src\xmc_usbd.c ****   volatile uint32_t *fifo;
 262:C:/Users/Yushev/git/optiga-trust-qi/projects/xmc4700_relax_kit/common/Libraries/XMCLib/src\xmc_usbd.c ****   uint32_t byte_count;
 263:C:/Users/Yushev/git/optiga-trust-qi/projects/xmc4700_relax_kit/common/Libraries/XMCLib/src\xmc_usbd.c ****   uint32_t word_count;
 264:C:/Users/Yushev/git/optiga-trust-qi/projects/xmc4700_relax_kit/common/Libraries/XMCLib/src\xmc_usbd.c ****   uint32_t result;
 265:C:/Users/Yushev/git/optiga-trust-qi/projects/xmc4700_relax_kit/common/Libraries/XMCLib/src\xmc_usbd.c ****   uint32_t i;
 266:C:/Users/Yushev/git/optiga-trust-qi/projects/xmc4700_relax_kit/common/Libraries/XMCLib/src\xmc_usbd.c ****   fifo = xmc_device.fifo[ep->address_u.address_st.number]; /* fifo */
 267:C:/Users/Yushev/git/optiga-trust-qi/projects/xmc4700_relax_kit/common/Libraries/XMCLib/src\xmc_usbd.c ****   freeSpace.d32 = xmc_device.endpoint_in_register[ep->address_u.address_st.number]->dtxfsts;
 268:C:/Users/Yushev/git/optiga-trust-qi/projects/xmc4700_relax_kit/common/Libraries/XMCLib/src\xmc_usbd.c ****   /* calculate the length and the amount of dwords to copy based on the fifo status */
 269:C:/Users/Yushev/git/optiga-trust-qi/projects/xmc4700_relax_kit/common/Libraries/XMCLib/src\xmc_usbd.c ****   byte_count = ep->xferLength - ep->xferCount;
 270:C:/Users/Yushev/git/optiga-trust-qi/projects/xmc4700_relax_kit/common/Libraries/XMCLib/src\xmc_usbd.c ****   if (!byte_count)
 271:C:/Users/Yushev/git/optiga-trust-qi/projects/xmc4700_relax_kit/common/Libraries/XMCLib/src\xmc_usbd.c ****   {
 272:C:/Users/Yushev/git/optiga-trust-qi/projects/xmc4700_relax_kit/common/Libraries/XMCLib/src\xmc_usbd.c ****     result = 0U;
 273:C:/Users/Yushev/git/optiga-trust-qi/projects/xmc4700_relax_kit/common/Libraries/XMCLib/src\xmc_usbd.c ****   }
 274:C:/Users/Yushev/git/optiga-trust-qi/projects/xmc4700_relax_kit/common/Libraries/XMCLib/src\xmc_usbd.c ****   else
 275:C:/Users/Yushev/git/optiga-trust-qi/projects/xmc4700_relax_kit/common/Libraries/XMCLib/src\xmc_usbd.c ****   {
 276:C:/Users/Yushev/git/optiga-trust-qi/projects/xmc4700_relax_kit/common/Libraries/XMCLib/src\xmc_usbd.c ****     /* add the unaligned bytes to the word count to compare with the fifo space */
 277:C:/Users/Yushev/git/optiga-trust-qi/projects/xmc4700_relax_kit/common/Libraries/XMCLib/src\xmc_usbd.c ****     word_count = ((uint32_t)byte_count + 3U) >> 2U;
 278:C:/Users/Yushev/git/optiga-trust-qi/projects/xmc4700_relax_kit/common/Libraries/XMCLib/src\xmc_usbd.c ****     if (word_count > (uint32_t)freeSpace.b.txfspcavail )
 279:C:/Users/Yushev/git/optiga-trust-qi/projects/xmc4700_relax_kit/common/Libraries/XMCLib/src\xmc_usbd.c ****     {
 280:C:/Users/Yushev/git/optiga-trust-qi/projects/xmc4700_relax_kit/common/Libraries/XMCLib/src\xmc_usbd.c ****       word_count = (uint32_t)freeSpace.b.txfspcavail;
 281:C:/Users/Yushev/git/optiga-trust-qi/projects/xmc4700_relax_kit/common/Libraries/XMCLib/src\xmc_usbd.c ****       byte_count = (uint32_t)word_count << (uint32_t)2U;
 282:C:/Users/Yushev/git/optiga-trust-qi/projects/xmc4700_relax_kit/common/Libraries/XMCLib/src\xmc_usbd.c ****     }
 283:C:/Users/Yushev/git/optiga-trust-qi/projects/xmc4700_relax_kit/common/Libraries/XMCLib/src\xmc_usbd.c **** 
 284:C:/Users/Yushev/git/optiga-trust-qi/projects/xmc4700_relax_kit/common/Libraries/XMCLib/src\xmc_usbd.c ****     /* copy data dword wise */
 285:C:/Users/Yushev/git/optiga-trust-qi/projects/xmc4700_relax_kit/common/Libraries/XMCLib/src\xmc_usbd.c ****     for (i = 0U; i < word_count;ep->xferBuffer+= 4U)
 286:C:/Users/Yushev/git/optiga-trust-qi/projects/xmc4700_relax_kit/common/Libraries/XMCLib/src\xmc_usbd.c ****     {
 287:C:/Users/Yushev/git/optiga-trust-qi/projects/xmc4700_relax_kit/common/Libraries/XMCLib/src\xmc_usbd.c ****       *fifo = *(uint32_t*)ep->xferBuffer;
 288:C:/Users/Yushev/git/optiga-trust-qi/projects/xmc4700_relax_kit/common/Libraries/XMCLib/src\xmc_usbd.c ****       i++;
 289:C:/Users/Yushev/git/optiga-trust-qi/projects/xmc4700_relax_kit/common/Libraries/XMCLib/src\xmc_usbd.c ****     }
 290:C:/Users/Yushev/git/optiga-trust-qi/projects/xmc4700_relax_kit/common/Libraries/XMCLib/src\xmc_usbd.c ****     result=byte_count;
 291:C:/Users/Yushev/git/optiga-trust-qi/projects/xmc4700_relax_kit/common/Libraries/XMCLib/src\xmc_usbd.c ****   }
 292:C:/Users/Yushev/git/optiga-trust-qi/projects/xmc4700_relax_kit/common/Libraries/XMCLib/src\xmc_usbd.c ****   return result;
 293:C:/Users/Yushev/git/optiga-trust-qi/projects/xmc4700_relax_kit/common/Libraries/XMCLib/src\xmc_usbd.c **** }
 294:C:/Users/Yushev/git/optiga-trust-qi/projects/xmc4700_relax_kit/common/Libraries/XMCLib/src\xmc_usbd.c **** 
 295:C:/Users/Yushev/git/optiga-trust-qi/projects/xmc4700_relax_kit/common/Libraries/XMCLib/src\xmc_usbd.c **** /**
 296:C:/Users/Yushev/git/optiga-trust-qi/projects/xmc4700_relax_kit/common/Libraries/XMCLib/src\xmc_usbd.c ****  * @brief Flush a tx fifo
 297:C:/Users/Yushev/git/optiga-trust-qi/projects/xmc4700_relax_kit/common/Libraries/XMCLib/src\xmc_usbd.c ****  *
 298:C:/Users/Yushev/git/optiga-trust-qi/projects/xmc4700_relax_kit/common/Libraries/XMCLib/src\xmc_usbd.c ****  * @param[in] fifo_num Fifo number to flush
 299:C:/Users/Yushev/git/optiga-trust-qi/projects/xmc4700_relax_kit/common/Libraries/XMCLib/src\xmc_usbd.c ****  *
 300:C:/Users/Yushev/git/optiga-trust-qi/projects/xmc4700_relax_kit/common/Libraries/XMCLib/src\xmc_usbd.c ****  * @note Use 0x10 as parameter to flush all tx fifos.
 301:C:/Users/Yushev/git/optiga-trust-qi/projects/xmc4700_relax_kit/common/Libraries/XMCLib/src\xmc_usbd.c ****  */
 302:C:/Users/Yushev/git/optiga-trust-qi/projects/xmc4700_relax_kit/common/Libraries/XMCLib/src\xmc_usbd.c **** static void XMC_USBD_lFlushTXFifo(const uint8_t fifo_num) 
 303:C:/Users/Yushev/git/optiga-trust-qi/projects/xmc4700_relax_kit/common/Libraries/XMCLib/src\xmc_usbd.c **** {
 145              	 .loc 1 303 0
 146              	 .cfi_startproc
 147              	 
 148              	 
 149              	 
 150              	.LVL17:
 151 0000 82B0     	 sub sp,sp,#8
 152              	.LCFI1:
 153              	 .cfi_def_cfa_offset 8
 304:C:/Users/Yushev/git/optiga-trust-qi/projects/xmc4700_relax_kit/common/Libraries/XMCLib/src\xmc_usbd.c ****   volatile grstctl_t data;  
 305:C:/Users/Yushev/git/optiga-trust-qi/projects/xmc4700_relax_kit/common/Libraries/XMCLib/src\xmc_usbd.c ****   uint32_t count;
 306:C:/Users/Yushev/git/optiga-trust-qi/projects/xmc4700_relax_kit/common/Libraries/XMCLib/src\xmc_usbd.c ****   data.d32 = 0U;
 154              	 .loc 1 306 0
 155 0002 0023     	 movs r3,#0
 156 0004 0193     	 str r3,[sp,#4]
 307:C:/Users/Yushev/git/optiga-trust-qi/projects/xmc4700_relax_kit/common/Libraries/XMCLib/src\xmc_usbd.c ****   /*flush fifo */
 308:C:/Users/Yushev/git/optiga-trust-qi/projects/xmc4700_relax_kit/common/Libraries/XMCLib/src\xmc_usbd.c ****   data.b.txfflsh = 1U;
 157              	 .loc 1 308 0
 158 0006 019B     	 ldr r3,[sp,#4]
 159 0008 43F02003 	 orr r3,r3,#32
 160 000c 0193     	 str r3,[sp,#4]
 309:C:/Users/Yushev/git/optiga-trust-qi/projects/xmc4700_relax_kit/common/Libraries/XMCLib/src\xmc_usbd.c ****   data.b.txfnum = fifo_num;
 161              	 .loc 1 309 0
 162 000e 019B     	 ldr r3,[sp,#4]
 163 0010 00F01F00 	 and r0,r0,#31
 164              	.LVL18:
 165 0014 23F4F863 	 bic r3,r3,#1984
 166 0018 43EA8010 	 orr r0,r3,r0,lsl#6
 310:C:/Users/Yushev/git/optiga-trust-qi/projects/xmc4700_relax_kit/common/Libraries/XMCLib/src\xmc_usbd.c ****   xmc_device.global_register->grstctl = data.d32;
 167              	 .loc 1 310 0
 168 001c 064B     	 ldr r3,.L22
 309:C:/Users/Yushev/git/optiga-trust-qi/projects/xmc4700_relax_kit/common/Libraries/XMCLib/src\xmc_usbd.c ****   data.b.txfnum = fifo_num;
 169              	 .loc 1 309 0
 170 001e 0190     	 str r0,[sp,#4]
 171              	 .loc 1 310 0
 172 0020 D3F8A031 	 ldr r3,[r3,#416]
 173 0024 019A     	 ldr r2,[sp,#4]
 174 0026 1A61     	 str r2,[r3,#16]
 175              	.LVL19:
 176              	.L20:
 311:C:/Users/Yushev/git/optiga-trust-qi/projects/xmc4700_relax_kit/common/Libraries/XMCLib/src\xmc_usbd.c ****   for (count = 0U;count < 1000U; count++){}
 312:C:/Users/Yushev/git/optiga-trust-qi/projects/xmc4700_relax_kit/common/Libraries/XMCLib/src\xmc_usbd.c ****   do
 313:C:/Users/Yushev/git/optiga-trust-qi/projects/xmc4700_relax_kit/common/Libraries/XMCLib/src\xmc_usbd.c ****   {
 314:C:/Users/Yushev/git/optiga-trust-qi/projects/xmc4700_relax_kit/common/Libraries/XMCLib/src\xmc_usbd.c ****    data.d32 = xmc_device.global_register->grstctl;
 177              	 .loc 1 314 0 discriminator 1
 178 0028 1A69     	 ldr r2,[r3,#16]
 179 002a 0192     	 str r2,[sp,#4]
 315:C:/Users/Yushev/git/optiga-trust-qi/projects/xmc4700_relax_kit/common/Libraries/XMCLib/src\xmc_usbd.c ****   } while (data.b.txfflsh);
 180              	 .loc 1 315 0 discriminator 1
 181 002c 019A     	 ldr r2,[sp,#4]
 182 002e 9206     	 lsls r2,r2,#26
 183 0030 FAD4     	 bmi .L20
 316:C:/Users/Yushev/git/optiga-trust-qi/projects/xmc4700_relax_kit/common/Libraries/XMCLib/src\xmc_usbd.c ****     count = 0U;
 317:C:/Users/Yushev/git/optiga-trust-qi/projects/xmc4700_relax_kit/common/Libraries/XMCLib/src\xmc_usbd.c ****   while (count++ < 1000U)
 318:C:/Users/Yushev/git/optiga-trust-qi/projects/xmc4700_relax_kit/common/Libraries/XMCLib/src\xmc_usbd.c ****   {
 319:C:/Users/Yushev/git/optiga-trust-qi/projects/xmc4700_relax_kit/common/Libraries/XMCLib/src\xmc_usbd.c ****     /* wait 3 phy clocks */
 320:C:/Users/Yushev/git/optiga-trust-qi/projects/xmc4700_relax_kit/common/Libraries/XMCLib/src\xmc_usbd.c ****   }
 321:C:/Users/Yushev/git/optiga-trust-qi/projects/xmc4700_relax_kit/common/Libraries/XMCLib/src\xmc_usbd.c **** }
 184              	 .loc 1 321 0
 185 0032 02B0     	 add sp,sp,#8
 186              	.LCFI2:
 187              	 .cfi_def_cfa_offset 0
 188              	 
 189 0034 7047     	 bx lr
 190              	.L23:
 191 0036 00BF     	 .align 2
 192              	.L22:
 193 0038 00000000 	 .word xmc_device
 194              	 .cfi_endproc
 195              	.LFE172:
 197              	 .section .text.XMC_USBD_lFlushRXFifo,"ax",%progbits
 198              	 .align 1
 199              	 .thumb
 200              	 .thumb_func
 202              	XMC_USBD_lFlushRXFifo:
 203              	.LFB173:
 322:C:/Users/Yushev/git/optiga-trust-qi/projects/xmc4700_relax_kit/common/Libraries/XMCLib/src\xmc_usbd.c **** 
 323:C:/Users/Yushev/git/optiga-trust-qi/projects/xmc4700_relax_kit/common/Libraries/XMCLib/src\xmc_usbd.c **** /**
 324:C:/Users/Yushev/git/optiga-trust-qi/projects/xmc4700_relax_kit/common/Libraries/XMCLib/src\xmc_usbd.c ****  * @brief Flush the rx fifo
 325:C:/Users/Yushev/git/optiga-trust-qi/projects/xmc4700_relax_kit/common/Libraries/XMCLib/src\xmc_usbd.c ****  */
 326:C:/Users/Yushev/git/optiga-trust-qi/projects/xmc4700_relax_kit/common/Libraries/XMCLib/src\xmc_usbd.c **** static void XMC_USBD_lFlushRXFifo(void) 
 327:C:/Users/Yushev/git/optiga-trust-qi/projects/xmc4700_relax_kit/common/Libraries/XMCLib/src\xmc_usbd.c **** {
 204              	 .loc 1 327 0
 205              	 .cfi_startproc
 206              	 
 207              	 
 208              	 
 209 0000 82B0     	 sub sp,sp,#8
 210              	.LCFI3:
 211              	 .cfi_def_cfa_offset 8
 328:C:/Users/Yushev/git/optiga-trust-qi/projects/xmc4700_relax_kit/common/Libraries/XMCLib/src\xmc_usbd.c ****   volatile grstctl_t data;  
 329:C:/Users/Yushev/git/optiga-trust-qi/projects/xmc4700_relax_kit/common/Libraries/XMCLib/src\xmc_usbd.c ****   uint32_t count;
 330:C:/Users/Yushev/git/optiga-trust-qi/projects/xmc4700_relax_kit/common/Libraries/XMCLib/src\xmc_usbd.c **** 	
 331:C:/Users/Yushev/git/optiga-trust-qi/projects/xmc4700_relax_kit/common/Libraries/XMCLib/src\xmc_usbd.c **** 	data.d32 = 0U;
 212              	 .loc 1 331 0
 213 0002 0023     	 movs r3,#0
 214 0004 0193     	 str r3,[sp,#4]
 332:C:/Users/Yushev/git/optiga-trust-qi/projects/xmc4700_relax_kit/common/Libraries/XMCLib/src\xmc_usbd.c ****   data.b.rxfflsh = 1U;
 215              	 .loc 1 332 0
 216 0006 019B     	 ldr r3,[sp,#4]
 217 0008 43F01003 	 orr r3,r3,#16
 218 000c 0193     	 str r3,[sp,#4]
 333:C:/Users/Yushev/git/optiga-trust-qi/projects/xmc4700_relax_kit/common/Libraries/XMCLib/src\xmc_usbd.c ****   /* flush FIFO */
 334:C:/Users/Yushev/git/optiga-trust-qi/projects/xmc4700_relax_kit/common/Libraries/XMCLib/src\xmc_usbd.c ****   xmc_device.global_register->grstctl = data.d32;
 219              	 .loc 1 334 0
 220 000e 064B     	 ldr r3,.L27
 221 0010 019A     	 ldr r2,[sp,#4]
 222 0012 D3F8A031 	 ldr r3,[r3,#416]
 223 0016 1A61     	 str r2,[r3,#16]
 224              	.L25:
 225              	.LVL20:
 335:C:/Users/Yushev/git/optiga-trust-qi/projects/xmc4700_relax_kit/common/Libraries/XMCLib/src\xmc_usbd.c ****   do
 336:C:/Users/Yushev/git/optiga-trust-qi/projects/xmc4700_relax_kit/common/Libraries/XMCLib/src\xmc_usbd.c ****   {
 337:C:/Users/Yushev/git/optiga-trust-qi/projects/xmc4700_relax_kit/common/Libraries/XMCLib/src\xmc_usbd.c ****     for (count = 0U; count < 1000U; count++){}
 338:C:/Users/Yushev/git/optiga-trust-qi/projects/xmc4700_relax_kit/common/Libraries/XMCLib/src\xmc_usbd.c ****     data.d32 = xmc_device.global_register->grstctl;
 226              	 .loc 1 338 0
 227 0018 1A69     	 ldr r2,[r3,#16]
 228 001a 0192     	 str r2,[sp,#4]
 339:C:/Users/Yushev/git/optiga-trust-qi/projects/xmc4700_relax_kit/common/Libraries/XMCLib/src\xmc_usbd.c ****   } while (data.b.rxfflsh);
 229              	 .loc 1 339 0
 230 001c 019A     	 ldr r2,[sp,#4]
 231 001e D206     	 lsls r2,r2,#27
 232 0020 FAD4     	 bmi .L25
 340:C:/Users/Yushev/git/optiga-trust-qi/projects/xmc4700_relax_kit/common/Libraries/XMCLib/src\xmc_usbd.c ****   count = 0U;
 341:C:/Users/Yushev/git/optiga-trust-qi/projects/xmc4700_relax_kit/common/Libraries/XMCLib/src\xmc_usbd.c ****   while (count++ < 1000U)
 342:C:/Users/Yushev/git/optiga-trust-qi/projects/xmc4700_relax_kit/common/Libraries/XMCLib/src\xmc_usbd.c ****   {
 343:C:/Users/Yushev/git/optiga-trust-qi/projects/xmc4700_relax_kit/common/Libraries/XMCLib/src\xmc_usbd.c ****     /* wait 3 phy clocks */
 344:C:/Users/Yushev/git/optiga-trust-qi/projects/xmc4700_relax_kit/common/Libraries/XMCLib/src\xmc_usbd.c ****   }
 345:C:/Users/Yushev/git/optiga-trust-qi/projects/xmc4700_relax_kit/common/Libraries/XMCLib/src\xmc_usbd.c **** }
 233              	 .loc 1 345 0
 234 0022 02B0     	 add sp,sp,#8
 235              	.LCFI4:
 236              	 .cfi_def_cfa_offset 0
 237              	 
 238 0024 7047     	 bx lr
 239              	.L28:
 240 0026 00BF     	 .align 2
 241              	.L27:
 242 0028 00000000 	 .word xmc_device
 243              	 .cfi_endproc
 244              	.LFE173:
 246              	 .section .text.XMC_USBD_lStartReadXfer,"ax",%progbits
 247              	 .align 1
 248              	 .thumb
 249              	 .thumb_func
 251              	XMC_USBD_lStartReadXfer:
 252              	.LFB176:
 346:C:/Users/Yushev/git/optiga-trust-qi/projects/xmc4700_relax_kit/common/Libraries/XMCLib/src\xmc_usbd.c **** 
 347:C:/Users/Yushev/git/optiga-trust-qi/projects/xmc4700_relax_kit/common/Libraries/XMCLib/src\xmc_usbd.c **** /*
 348:C:/Users/Yushev/git/optiga-trust-qi/projects/xmc4700_relax_kit/common/Libraries/XMCLib/src\xmc_usbd.c ****  * Support Functions
 349:C:/Users/Yushev/git/optiga-trust-qi/projects/xmc4700_relax_kit/common/Libraries/XMCLib/src\xmc_usbd.c ****  */
 350:C:/Users/Yushev/git/optiga-trust-qi/projects/xmc4700_relax_kit/common/Libraries/XMCLib/src\xmc_usbd.c **** 
 351:C:/Users/Yushev/git/optiga-trust-qi/projects/xmc4700_relax_kit/common/Libraries/XMCLib/src\xmc_usbd.c **** /**
 352:C:/Users/Yushev/git/optiga-trust-qi/projects/xmc4700_relax_kit/common/Libraries/XMCLib/src\xmc_usbd.c ****  * @brief Assign a free tx fifo
 353:C:/Users/Yushev/git/optiga-trust-qi/projects/xmc4700_relax_kit/common/Libraries/XMCLib/src\xmc_usbd.c ****  *
 354:C:/Users/Yushev/git/optiga-trust-qi/projects/xmc4700_relax_kit/common/Libraries/XMCLib/src\xmc_usbd.c ****  * A free tx fifo will be searched and the number will be returned.
 355:C:/Users/Yushev/git/optiga-trust-qi/projects/xmc4700_relax_kit/common/Libraries/XMCLib/src\xmc_usbd.c ****  *
 356:C:/Users/Yushev/git/optiga-trust-qi/projects/xmc4700_relax_kit/common/Libraries/XMCLib/src\xmc_usbd.c ****  * @return Fifo number for a free fifo
 357:C:/Users/Yushev/git/optiga-trust-qi/projects/xmc4700_relax_kit/common/Libraries/XMCLib/src\xmc_usbd.c ****  */
 358:C:/Users/Yushev/git/optiga-trust-qi/projects/xmc4700_relax_kit/common/Libraries/XMCLib/src\xmc_usbd.c **** static uint8_t XMC_USBD_lAssignTXFifo(void) 
 359:C:/Users/Yushev/git/optiga-trust-qi/projects/xmc4700_relax_kit/common/Libraries/XMCLib/src\xmc_usbd.c **** {
 360:C:/Users/Yushev/git/optiga-trust-qi/projects/xmc4700_relax_kit/common/Libraries/XMCLib/src\xmc_usbd.c ****   uint16_t mask = 1U;
 361:C:/Users/Yushev/git/optiga-trust-qi/projects/xmc4700_relax_kit/common/Libraries/XMCLib/src\xmc_usbd.c ****   uint8_t i = 0U;
 362:C:/Users/Yushev/git/optiga-trust-qi/projects/xmc4700_relax_kit/common/Libraries/XMCLib/src\xmc_usbd.c ****   uint8_t result = 0U;
 363:C:/Users/Yushev/git/optiga-trust-qi/projects/xmc4700_relax_kit/common/Libraries/XMCLib/src\xmc_usbd.c ****   while( (i < (uint8_t)XMC_USBD_NUM_TX_FIFOS)&&((xmc_device.txfifomsk & mask) != 0U))
 364:C:/Users/Yushev/git/optiga-trust-qi/projects/xmc4700_relax_kit/common/Libraries/XMCLib/src\xmc_usbd.c ****   {
 365:C:/Users/Yushev/git/optiga-trust-qi/projects/xmc4700_relax_kit/common/Libraries/XMCLib/src\xmc_usbd.c ****     mask = (uint16_t)(mask << 1U);
 366:C:/Users/Yushev/git/optiga-trust-qi/projects/xmc4700_relax_kit/common/Libraries/XMCLib/src\xmc_usbd.c ****     i++;
 367:C:/Users/Yushev/git/optiga-trust-qi/projects/xmc4700_relax_kit/common/Libraries/XMCLib/src\xmc_usbd.c ****   }
 368:C:/Users/Yushev/git/optiga-trust-qi/projects/xmc4700_relax_kit/common/Libraries/XMCLib/src\xmc_usbd.c ****   if ((xmc_device.txfifomsk & mask) == 0U)
 369:C:/Users/Yushev/git/optiga-trust-qi/projects/xmc4700_relax_kit/common/Libraries/XMCLib/src\xmc_usbd.c ****   {
 370:C:/Users/Yushev/git/optiga-trust-qi/projects/xmc4700_relax_kit/common/Libraries/XMCLib/src\xmc_usbd.c ****     xmc_device.txfifomsk |= mask;
 371:C:/Users/Yushev/git/optiga-trust-qi/projects/xmc4700_relax_kit/common/Libraries/XMCLib/src\xmc_usbd.c ****     result=i;
 372:C:/Users/Yushev/git/optiga-trust-qi/projects/xmc4700_relax_kit/common/Libraries/XMCLib/src\xmc_usbd.c ****   }
 373:C:/Users/Yushev/git/optiga-trust-qi/projects/xmc4700_relax_kit/common/Libraries/XMCLib/src\xmc_usbd.c ****   return result;
 374:C:/Users/Yushev/git/optiga-trust-qi/projects/xmc4700_relax_kit/common/Libraries/XMCLib/src\xmc_usbd.c **** }
 375:C:/Users/Yushev/git/optiga-trust-qi/projects/xmc4700_relax_kit/common/Libraries/XMCLib/src\xmc_usbd.c **** 
 376:C:/Users/Yushev/git/optiga-trust-qi/projects/xmc4700_relax_kit/common/Libraries/XMCLib/src\xmc_usbd.c **** /**
 377:C:/Users/Yushev/git/optiga-trust-qi/projects/xmc4700_relax_kit/common/Libraries/XMCLib/src\xmc_usbd.c ****  * @brief Free a tx fifo
 378:C:/Users/Yushev/git/optiga-trust-qi/projects/xmc4700_relax_kit/common/Libraries/XMCLib/src\xmc_usbd.c ****  *
 379:C:/Users/Yushev/git/optiga-trust-qi/projects/xmc4700_relax_kit/common/Libraries/XMCLib/src\xmc_usbd.c ****  * Mark an used tx fifo as free.
 380:C:/Users/Yushev/git/optiga-trust-qi/projects/xmc4700_relax_kit/common/Libraries/XMCLib/src\xmc_usbd.c ****  * @param[in] fifo_nr Fifo number to free
 381:C:/Users/Yushev/git/optiga-trust-qi/projects/xmc4700_relax_kit/common/Libraries/XMCLib/src\xmc_usbd.c ****  */
 382:C:/Users/Yushev/git/optiga-trust-qi/projects/xmc4700_relax_kit/common/Libraries/XMCLib/src\xmc_usbd.c **** static void XMC_USBD_lUnassignFifo(const uint8_t fifo_nr) 
 383:C:/Users/Yushev/git/optiga-trust-qi/projects/xmc4700_relax_kit/common/Libraries/XMCLib/src\xmc_usbd.c **** {
 384:C:/Users/Yushev/git/optiga-trust-qi/projects/xmc4700_relax_kit/common/Libraries/XMCLib/src\xmc_usbd.c ****   xmc_device.txfifomsk = (uint16_t)((uint32_t)xmc_device.txfifomsk & (uint32_t)(~((uint32_t)((uint3
 385:C:/Users/Yushev/git/optiga-trust-qi/projects/xmc4700_relax_kit/common/Libraries/XMCLib/src\xmc_usbd.c **** }
 386:C:/Users/Yushev/git/optiga-trust-qi/projects/xmc4700_relax_kit/common/Libraries/XMCLib/src\xmc_usbd.c **** 
 387:C:/Users/Yushev/git/optiga-trust-qi/projects/xmc4700_relax_kit/common/Libraries/XMCLib/src\xmc_usbd.c **** /**
 388:C:/Users/Yushev/git/optiga-trust-qi/projects/xmc4700_relax_kit/common/Libraries/XMCLib/src\xmc_usbd.c ****  * @brief Start a transfer for an out endpoint
 389:C:/Users/Yushev/git/optiga-trust-qi/projects/xmc4700_relax_kit/common/Libraries/XMCLib/src\xmc_usbd.c ****  *
 390:C:/Users/Yushev/git/optiga-trust-qi/projects/xmc4700_relax_kit/common/Libraries/XMCLib/src\xmc_usbd.c ****  * Based on the transfer values of the endpoint, the out endpoint registers will be programmed
 391:C:/Users/Yushev/git/optiga-trust-qi/projects/xmc4700_relax_kit/common/Libraries/XMCLib/src\xmc_usbd.c ****  * to start a new out transfer.
 392:C:/Users/Yushev/git/optiga-trust-qi/projects/xmc4700_relax_kit/common/Libraries/XMCLib/src\xmc_usbd.c ****  *
 393:C:/Users/Yushev/git/optiga-trust-qi/projects/xmc4700_relax_kit/common/Libraries/XMCLib/src\xmc_usbd.c ****  * @note No checking of the transfer values are done in this function. Be sure,
 394:C:/Users/Yushev/git/optiga-trust-qi/projects/xmc4700_relax_kit/common/Libraries/XMCLib/src\xmc_usbd.c ****  * that the transfer values are reasonable (e.g. buffer size is not exceeded).
 395:C:/Users/Yushev/git/optiga-trust-qi/projects/xmc4700_relax_kit/common/Libraries/XMCLib/src\xmc_usbd.c ****  *
 396:C:/Users/Yushev/git/optiga-trust-qi/projects/xmc4700_relax_kit/common/Libraries/XMCLib/src\xmc_usbd.c ****  * @param[in] ep Endpoint to start the transfer
 397:C:/Users/Yushev/git/optiga-trust-qi/projects/xmc4700_relax_kit/common/Libraries/XMCLib/src\xmc_usbd.c ****  */
 398:C:/Users/Yushev/git/optiga-trust-qi/projects/xmc4700_relax_kit/common/Libraries/XMCLib/src\xmc_usbd.c **** static void XMC_USBD_lStartReadXfer(XMC_USBD_EP_t *const ep) 
 399:C:/Users/Yushev/git/optiga-trust-qi/projects/xmc4700_relax_kit/common/Libraries/XMCLib/src\xmc_usbd.c **** {
 253              	 .loc 1 399 0
 254              	 .cfi_startproc
 255              	 
 256              	 
 257              	.LVL21:
 400:C:/Users/Yushev/git/optiga-trust-qi/projects/xmc4700_relax_kit/common/Libraries/XMCLib/src\xmc_usbd.c ****   deptsiz_data_t data;
 401:C:/Users/Yushev/git/optiga-trust-qi/projects/xmc4700_relax_kit/common/Libraries/XMCLib/src\xmc_usbd.c ****   depctl_data_t epctl;
 402:C:/Users/Yushev/git/optiga-trust-qi/projects/xmc4700_relax_kit/common/Libraries/XMCLib/src\xmc_usbd.c **** 	
 403:C:/Users/Yushev/git/optiga-trust-qi/projects/xmc4700_relax_kit/common/Libraries/XMCLib/src\xmc_usbd.c ****   data.d32 =  0U;
 404:C:/Users/Yushev/git/optiga-trust-qi/projects/xmc4700_relax_kit/common/Libraries/XMCLib/src\xmc_usbd.c ****   if ((ep->xferTotal - ep->xferLength) > ep->maxTransferSize)
 258              	 .loc 1 404 0
 259 0000 826A     	 ldr r2,[r0,#40]
 260 0002 8168     	 ldr r1,[r0,#8]
 399:C:/Users/Yushev/git/optiga-trust-qi/projects/xmc4700_relax_kit/common/Libraries/XMCLib/src\xmc_usbd.c ****   deptsiz_data_t data;
 261              	 .loc 1 399 0
 262 0004 30B5     	 push {r4,r5,lr}
 263              	.LCFI5:
 264              	 .cfi_def_cfa_offset 12
 265              	 .cfi_offset 4,-12
 266              	 .cfi_offset 5,-8
 267              	 .cfi_offset 14,-4
 268              	 .loc 1 404 0
 269 0006 046B     	 ldr r4,[r0,#48]
 270 0008 C1F31201 	 ubfx r1,r1,#0,#19
 271 000c A51A     	 subs r5,r4,r2
 272 000e 8D42     	 cmp r5,r1
 405:C:/Users/Yushev/git/optiga-trust-qi/projects/xmc4700_relax_kit/common/Libraries/XMCLib/src\xmc_usbd.c ****   {
 406:C:/Users/Yushev/git/optiga-trust-qi/projects/xmc4700_relax_kit/common/Libraries/XMCLib/src\xmc_usbd.c ****     ep->xferLength += ep->maxTransferSize;
 273              	 .loc 1 406 0
 274 0010 88BF     	 it hi
 275 0012 5218     	 addhi r2,r2,r1
 407:C:/Users/Yushev/git/optiga-trust-qi/projects/xmc4700_relax_kit/common/Libraries/XMCLib/src\xmc_usbd.c ****   }
 408:C:/Users/Yushev/git/optiga-trust-qi/projects/xmc4700_relax_kit/common/Libraries/XMCLib/src\xmc_usbd.c ****   else
 409:C:/Users/Yushev/git/optiga-trust-qi/projects/xmc4700_relax_kit/common/Libraries/XMCLib/src\xmc_usbd.c ****   {
 410:C:/Users/Yushev/git/optiga-trust-qi/projects/xmc4700_relax_kit/common/Libraries/XMCLib/src\xmc_usbd.c ****     ep->xferLength = ep->xferTotal;
 411:C:/Users/Yushev/git/optiga-trust-qi/projects/xmc4700_relax_kit/common/Libraries/XMCLib/src\xmc_usbd.c ****   }
 412:C:/Users/Yushev/git/optiga-trust-qi/projects/xmc4700_relax_kit/common/Libraries/XMCLib/src\xmc_usbd.c ****   if (ep->address_u.address_st.number == 0U)
 276              	 .loc 1 412 0
 277 0014 0178     	 ldrb r1,[r0]
 406:C:/Users/Yushev/git/optiga-trust-qi/projects/xmc4700_relax_kit/common/Libraries/XMCLib/src\xmc_usbd.c ****   }
 278              	 .loc 1 406 0
 279 0016 8CBF     	 ite hi
 280 0018 8262     	 strhi r2,[r0,#40]
 410:C:/Users/Yushev/git/optiga-trust-qi/projects/xmc4700_relax_kit/common/Libraries/XMCLib/src\xmc_usbd.c ****   }
 281              	 .loc 1 410 0
 282 001a 8462     	 strls r4,[r0,#40]
 283              	 .loc 1 412 0
 284 001c 0A07     	 lsls r2,r1,#28
 403:C:/Users/Yushev/git/optiga-trust-qi/projects/xmc4700_relax_kit/common/Libraries/XMCLib/src\xmc_usbd.c ****   if ((ep->xferTotal - ep->xferLength) > ep->maxTransferSize)
 285              	 .loc 1 403 0
 286 001e 4FF00003 	 mov r3,#0
 287              	.LVL22:
 288              	 .loc 1 412 0
 289 0022 07D1     	 bne .L32
 290              	.LVL23:
 291              	.LBB22:
 413:C:/Users/Yushev/git/optiga-trust-qi/projects/xmc4700_relax_kit/common/Libraries/XMCLib/src\xmc_usbd.c ****   {
 414:C:/Users/Yushev/git/optiga-trust-qi/projects/xmc4700_relax_kit/common/Libraries/XMCLib/src\xmc_usbd.c **** 	/* Setup the endpoint to receive 3 setup packages and one normal package.*/
 415:C:/Users/Yushev/git/optiga-trust-qi/projects/xmc4700_relax_kit/common/Libraries/XMCLib/src\xmc_usbd.c **** 	/* Cast the data pointer to use only one variable */
 416:C:/Users/Yushev/git/optiga-trust-qi/projects/xmc4700_relax_kit/common/Libraries/XMCLib/src\xmc_usbd.c ****     deptsiz0_data_t *ep0_data = (deptsiz0_data_t*)&data;
 417:C:/Users/Yushev/git/optiga-trust-qi/projects/xmc4700_relax_kit/common/Libraries/XMCLib/src\xmc_usbd.c ****     ep0_data->b.pktcnt = 0x1U;
 292              	 .loc 1 417 0
 293 0024 0122     	 movs r2,#1
 294 0026 62F3D443 	 bfi r3,r2,#19,#2
 295              	.LVL24:
 418:C:/Users/Yushev/git/optiga-trust-qi/projects/xmc4700_relax_kit/common/Libraries/XMCLib/src\xmc_usbd.c ****     ep0_data->b.supcnt = 0x3U;
 296              	 .loc 1 418 0
 297 002a 43F0C043 	 orr r3,r3,#1610612736
 298              	.LVL25:
 419:C:/Users/Yushev/git/optiga-trust-qi/projects/xmc4700_relax_kit/common/Libraries/XMCLib/src\xmc_usbd.c ****     ep0_data->b.xfersize = (uint8_t)ep->xferTotal;
 299              	 .loc 1 419 0
 300 002e 64F30603 	 bfi r3,r4,#0,#7
 301              	.LVL26:
 302              	.LBE22:
 303 0032 14E0     	 b .L33
 304              	.LVL27:
 305              	.L32:
 420:C:/Users/Yushev/git/optiga-trust-qi/projects/xmc4700_relax_kit/common/Libraries/XMCLib/src\xmc_usbd.c ****   }
 421:C:/Users/Yushev/git/optiga-trust-qi/projects/xmc4700_relax_kit/common/Libraries/XMCLib/src\xmc_usbd.c ****   else
 422:C:/Users/Yushev/git/optiga-trust-qi/projects/xmc4700_relax_kit/common/Libraries/XMCLib/src\xmc_usbd.c ****   {
 423:C:/Users/Yushev/git/optiga-trust-qi/projects/xmc4700_relax_kit/common/Libraries/XMCLib/src\xmc_usbd.c ****     /* If requested length is zero, just receive one zero length packet */
 424:C:/Users/Yushev/git/optiga-trust-qi/projects/xmc4700_relax_kit/common/Libraries/XMCLib/src\xmc_usbd.c ****     if (ep->xferLength == 0U)
 306              	 .loc 1 424 0
 307 0034 826A     	 ldr r2,[r0,#40]
 308 0036 2AB9     	 cbnz r2,.L34
 425:C:/Users/Yushev/git/optiga-trust-qi/projects/xmc4700_relax_kit/common/Libraries/XMCLib/src\xmc_usbd.c ****     {
 426:C:/Users/Yushev/git/optiga-trust-qi/projects/xmc4700_relax_kit/common/Libraries/XMCLib/src\xmc_usbd.c ****       data.b.xfersize = 0U;
 309              	 .loc 1 426 0
 310 0038 62F31203 	 bfi r3,r2,#0,#19
 311              	.LVL28:
 427:C:/Users/Yushev/git/optiga-trust-qi/projects/xmc4700_relax_kit/common/Libraries/XMCLib/src\xmc_usbd.c ****       data.b.pktcnt = 1U;
 312              	 .loc 1 427 0
 313 003c 0122     	 movs r2,#1
 314 003e 62F3DC43 	 bfi r3,r2,#19,#10
 315 0042 0CE0     	 b .L33
 316              	.LVL29:
 317              	.L34:
 428:C:/Users/Yushev/git/optiga-trust-qi/projects/xmc4700_relax_kit/common/Libraries/XMCLib/src\xmc_usbd.c ****     }
 429:C:/Users/Yushev/git/optiga-trust-qi/projects/xmc4700_relax_kit/common/Libraries/XMCLib/src\xmc_usbd.c ****     else
 430:C:/Users/Yushev/git/optiga-trust-qi/projects/xmc4700_relax_kit/common/Libraries/XMCLib/src\xmc_usbd.c ****     {
 431:C:/Users/Yushev/git/optiga-trust-qi/projects/xmc4700_relax_kit/common/Libraries/XMCLib/src\xmc_usbd.c ****       /* setup endpoint to recive a amount of packages by given size */
 432:C:/Users/Yushev/git/optiga-trust-qi/projects/xmc4700_relax_kit/common/Libraries/XMCLib/src\xmc_usbd.c ****       data.b.pktcnt = (uint16_t)(((ep->xferLength - ep->xferCount) + (ep->maxPacketSize -(uint32_t)
 318              	 .loc 1 432 0
 319 0044 C46A     	 ldr r4,[r0,#44]
 320 0046 121B     	 subs r2,r2,r4
 321 0048 4468     	 ldr r4,[r0,#4]
 322 004a C4F3C625 	 ubfx r5,r4,#11,#7
 323 004e 5419     	 adds r4,r2,r5
 324 0050 013C     	 subs r4,r4,#1
 325 0052 B4FBF5F4 	 udiv r4,r4,r5
 326 0056 64F3DC43 	 bfi r3,r4,#19,#10
 327              	.LVL30:
 433:C:/Users/Yushev/git/optiga-trust-qi/projects/xmc4700_relax_kit/common/Libraries/XMCLib/src\xmc_usbd.c ****       data.b.xfersize =(uint32_t)(ep->xferLength - ep->xferCount);
 328              	 .loc 1 433 0
 329 005a 62F31203 	 bfi r3,r2,#0,#19
 330              	.L33:
 434:C:/Users/Yushev/git/optiga-trust-qi/projects/xmc4700_relax_kit/common/Libraries/XMCLib/src\xmc_usbd.c ****     }
 435:C:/Users/Yushev/git/optiga-trust-qi/projects/xmc4700_relax_kit/common/Libraries/XMCLib/src\xmc_usbd.c ****   }
 436:C:/Users/Yushev/git/optiga-trust-qi/projects/xmc4700_relax_kit/common/Libraries/XMCLib/src\xmc_usbd.c ****   if(usbd_init->usbd_transfer_mode == XMC_USBD_USE_DMA)
 331              	 .loc 1 436 0
 332 005e 0C4A     	 ldr r2,.L36
 333 0060 1268     	 ldr r2,[r2]
 334 0062 547B     	 ldrb r4,[r2,#13]
 335 0064 0B4A     	 ldr r2,.L36+4
 336 0066 3CB9     	 cbnz r4,.L35
 437:C:/Users/Yushev/git/optiga-trust-qi/projects/xmc4700_relax_kit/common/Libraries/XMCLib/src\xmc_usbd.c ****   {
 438:C:/Users/Yushev/git/optiga-trust-qi/projects/xmc4700_relax_kit/common/Libraries/XMCLib/src\xmc_usbd.c ****     /* Programm dma address if needed */
 439:C:/Users/Yushev/git/optiga-trust-qi/projects/xmc4700_relax_kit/common/Libraries/XMCLib/src\xmc_usbd.c ****     xmc_device.endpoint_out_register[ep->address_u.address_st.number]->doepdma = (uint32_t)(ep->xfe
 337              	 .loc 1 439 0
 338 0068 01F00F04 	 and r4,r1,#15
 339 006c 02EB8404 	 add r4,r2,r4,lsl#2
 340 0070 406A     	 ldr r0,[r0,#36]
 341              	.LVL31:
 342 0072 D4F8C441 	 ldr r4,[r4,#452]
 343 0076 6061     	 str r0,[r4,#20]
 344              	.L35:
 440:C:/Users/Yushev/git/optiga-trust-qi/projects/xmc4700_relax_kit/common/Libraries/XMCLib/src\xmc_usbd.c ****   }
 441:C:/Users/Yushev/git/optiga-trust-qi/projects/xmc4700_relax_kit/common/Libraries/XMCLib/src\xmc_usbd.c ****   /* setup endpoint size and enable endpoint */
 442:C:/Users/Yushev/git/optiga-trust-qi/projects/xmc4700_relax_kit/common/Libraries/XMCLib/src\xmc_usbd.c ****   xmc_device.endpoint_out_register[ep->address_u.address_st.number]->doeptsiz = data.d32;
 345              	 .loc 1 442 0
 346 0078 01F00F01 	 and r1,r1,#15
 347 007c 02EB8101 	 add r1,r2,r1,lsl#2
 348 0080 D1F8C421 	 ldr r2,[r1,#452]
 349 0084 1361     	 str r3,[r2,#16]
 443:C:/Users/Yushev/git/optiga-trust-qi/projects/xmc4700_relax_kit/common/Libraries/XMCLib/src\xmc_usbd.c ****  
 444:C:/Users/Yushev/git/optiga-trust-qi/projects/xmc4700_relax_kit/common/Libraries/XMCLib/src\xmc_usbd.c ****   epctl.d32 = xmc_device.endpoint_out_register[ep->address_u.address_st.number]->doepctl;
 350              	 .loc 1 444 0
 351 0086 1368     	 ldr r3,[r2]
 352              	.LVL32:
 445:C:/Users/Yushev/git/optiga-trust-qi/projects/xmc4700_relax_kit/common/Libraries/XMCLib/src\xmc_usbd.c ****   epctl.b.cnak = 1U;
 446:C:/Users/Yushev/git/optiga-trust-qi/projects/xmc4700_relax_kit/common/Libraries/XMCLib/src\xmc_usbd.c ****   epctl.b.epena = 1U;
 353              	 .loc 1 446 0
 354 0088 43F00443 	 orr r3,r3,#-2080374784
 355              	.LVL33:
 447:C:/Users/Yushev/git/optiga-trust-qi/projects/xmc4700_relax_kit/common/Libraries/XMCLib/src\xmc_usbd.c ****   xmc_device.endpoint_out_register[ep->address_u.address_st.number]->doepctl = epctl.d32;
 356              	 .loc 1 447 0
 357 008c 1360     	 str r3,[r2]
 358 008e 30BD     	 pop {r4,r5,pc}
 359              	.L37:
 360              	 .align 2
 361              	.L36:
 362 0090 00000000 	 .word usbd_init
 363 0094 00000000 	 .word xmc_device
 364              	 .cfi_endproc
 365              	.LFE176:
 367              	 .section .text.XMC_USBD_lStartWriteXfer,"ax",%progbits
 368              	 .align 1
 369              	 .thumb
 370              	 .thumb_func
 372              	XMC_USBD_lStartWriteXfer:
 373              	.LFB177:
 448:C:/Users/Yushev/git/optiga-trust-qi/projects/xmc4700_relax_kit/common/Libraries/XMCLib/src\xmc_usbd.c **** }
 449:C:/Users/Yushev/git/optiga-trust-qi/projects/xmc4700_relax_kit/common/Libraries/XMCLib/src\xmc_usbd.c **** 
 450:C:/Users/Yushev/git/optiga-trust-qi/projects/xmc4700_relax_kit/common/Libraries/XMCLib/src\xmc_usbd.c **** /**
 451:C:/Users/Yushev/git/optiga-trust-qi/projects/xmc4700_relax_kit/common/Libraries/XMCLib/src\xmc_usbd.c ****  * @brief Start a new in transfer
 452:C:/Users/Yushev/git/optiga-trust-qi/projects/xmc4700_relax_kit/common/Libraries/XMCLib/src\xmc_usbd.c ****  *
 453:C:/Users/Yushev/git/optiga-trust-qi/projects/xmc4700_relax_kit/common/Libraries/XMCLib/src\xmc_usbd.c ****  * Based on the transfer values of the endpoint the in endpoint registers will be programmed
 454:C:/Users/Yushev/git/optiga-trust-qi/projects/xmc4700_relax_kit/common/Libraries/XMCLib/src\xmc_usbd.c ****  * to start a new in transfer
 455:C:/Users/Yushev/git/optiga-trust-qi/projects/xmc4700_relax_kit/common/Libraries/XMCLib/src\xmc_usbd.c ****  *
 456:C:/Users/Yushev/git/optiga-trust-qi/projects/xmc4700_relax_kit/common/Libraries/XMCLib/src\xmc_usbd.c ****  * @param[in] ep Endpoint to start the transfer
 457:C:/Users/Yushev/git/optiga-trust-qi/projects/xmc4700_relax_kit/common/Libraries/XMCLib/src\xmc_usbd.c ****  */
 458:C:/Users/Yushev/git/optiga-trust-qi/projects/xmc4700_relax_kit/common/Libraries/XMCLib/src\xmc_usbd.c **** static void XMC_USBD_lStartWriteXfer(XMC_USBD_EP_t *const ep) 
 459:C:/Users/Yushev/git/optiga-trust-qi/projects/xmc4700_relax_kit/common/Libraries/XMCLib/src\xmc_usbd.c **** {
 374              	 .loc 1 459 0
 375              	 .cfi_startproc
 376              	 
 377              	 
 378              	.LVL34:
 460:C:/Users/Yushev/git/optiga-trust-qi/projects/xmc4700_relax_kit/common/Libraries/XMCLib/src\xmc_usbd.c ****   deptsiz_data_t size;
 461:C:/Users/Yushev/git/optiga-trust-qi/projects/xmc4700_relax_kit/common/Libraries/XMCLib/src\xmc_usbd.c ****   depctl_data_t ctl;
 462:C:/Users/Yushev/git/optiga-trust-qi/projects/xmc4700_relax_kit/common/Libraries/XMCLib/src\xmc_usbd.c **** 	
 463:C:/Users/Yushev/git/optiga-trust-qi/projects/xmc4700_relax_kit/common/Libraries/XMCLib/src\xmc_usbd.c ****   size.d32 = 0U;  
 464:C:/Users/Yushev/git/optiga-trust-qi/projects/xmc4700_relax_kit/common/Libraries/XMCLib/src\xmc_usbd.c ****   ctl.d32 = xmc_device.endpoint_in_register[ep->address_u.address_st.number]->diepctl;
 379              	 .loc 1 464 0
 380 0000 0178     	 ldrb r1,[r0]
 465:C:/Users/Yushev/git/optiga-trust-qi/projects/xmc4700_relax_kit/common/Libraries/XMCLib/src\xmc_usbd.c **** 
 466:C:/Users/Yushev/git/optiga-trust-qi/projects/xmc4700_relax_kit/common/Libraries/XMCLib/src\xmc_usbd.c ****   if ((ep->xferTotal - ep->xferLength)  < ep->maxTransferSize)
 381              	 .loc 1 466 0
 382 0002 D0F830C0 	 ldr ip,[r0,#48]
 459:C:/Users/Yushev/git/optiga-trust-qi/projects/xmc4700_relax_kit/common/Libraries/XMCLib/src\xmc_usbd.c ****   deptsiz_data_t size;
 383              	 .loc 1 459 0
 384 0006 2DE9F041 	 push {r4,r5,r6,r7,r8,lr}
 385              	.LCFI6:
 386              	 .cfi_def_cfa_offset 24
 387              	 .cfi_offset 4,-24
 388              	 .cfi_offset 5,-20
 389              	 .cfi_offset 6,-16
 390              	 .cfi_offset 7,-12
 391              	 .cfi_offset 8,-8
 392              	 .cfi_offset 14,-4
 464:C:/Users/Yushev/git/optiga-trust-qi/projects/xmc4700_relax_kit/common/Libraries/XMCLib/src\xmc_usbd.c **** 
 393              	 .loc 1 464 0
 394 000a 01F00F07 	 and r7,r1,#15
 395 000e 07F16A03 	 add r3,r7,#106
 396 0012 294C     	 ldr r4,.L46
 397              	 .loc 1 466 0
 398 0014 8668     	 ldr r6,[r0,#8]
 464:C:/Users/Yushev/git/optiga-trust-qi/projects/xmc4700_relax_kit/common/Libraries/XMCLib/src\xmc_usbd.c **** 
 399              	 .loc 1 464 0
 400 0016 54F823E0 	 ldr lr,[r4,r3,lsl#2]
 401              	 .loc 1 466 0
 402 001a 836A     	 ldr r3,[r0,#40]
 464:C:/Users/Yushev/git/optiga-trust-qi/projects/xmc4700_relax_kit/common/Libraries/XMCLib/src\xmc_usbd.c **** 
 403              	 .loc 1 464 0
 404 001c DEF80050 	 ldr r5,[lr]
 405              	.LVL35:
 406              	 .loc 1 466 0
 407 0020 C3EB0C08 	 rsb r8,r3,ip
 408 0024 C6F31206 	 ubfx r6,r6,#0,#19
 409 0028 B045     	 cmp r8,r6
 467:C:/Users/Yushev/git/optiga-trust-qi/projects/xmc4700_relax_kit/common/Libraries/XMCLib/src\xmc_usbd.c ****   {
 468:C:/Users/Yushev/git/optiga-trust-qi/projects/xmc4700_relax_kit/common/Libraries/XMCLib/src\xmc_usbd.c ****     ep->xferLength = ep->xferTotal;
 469:C:/Users/Yushev/git/optiga-trust-qi/projects/xmc4700_relax_kit/common/Libraries/XMCLib/src\xmc_usbd.c ****   }
 470:C:/Users/Yushev/git/optiga-trust-qi/projects/xmc4700_relax_kit/common/Libraries/XMCLib/src\xmc_usbd.c ****   else
 471:C:/Users/Yushev/git/optiga-trust-qi/projects/xmc4700_relax_kit/common/Libraries/XMCLib/src\xmc_usbd.c ****   {
 472:C:/Users/Yushev/git/optiga-trust-qi/projects/xmc4700_relax_kit/common/Libraries/XMCLib/src\xmc_usbd.c ****     ep->xferLength += ep->maxTransferSize;
 410              	 .loc 1 472 0
 411 002a 2ABF     	 itet cs
 412 002c 9B19     	 addcs r3,r3,r6
 468:C:/Users/Yushev/git/optiga-trust-qi/projects/xmc4700_relax_kit/common/Libraries/XMCLib/src\xmc_usbd.c ****   }
 413              	 .loc 1 468 0
 414 002e C0F828C0 	 strcc ip,[r0,#40]
 415              	 .loc 1 472 0
 416 0032 8362     	 strcs r3,[r0,#40]
 473:C:/Users/Yushev/git/optiga-trust-qi/projects/xmc4700_relax_kit/common/Libraries/XMCLib/src\xmc_usbd.c ****   }
 474:C:/Users/Yushev/git/optiga-trust-qi/projects/xmc4700_relax_kit/common/Libraries/XMCLib/src\xmc_usbd.c ****   if (ep->xferLength == 0U)
 417              	 .loc 1 474 0
 418 0034 836A     	 ldr r3,[r0,#40]
 463:C:/Users/Yushev/git/optiga-trust-qi/projects/xmc4700_relax_kit/common/Libraries/XMCLib/src\xmc_usbd.c ****   ctl.d32 = xmc_device.endpoint_in_register[ep->address_u.address_st.number]->diepctl;
 419              	 .loc 1 463 0
 420 0036 0022     	 movs r2,#0
 421              	.LVL36:
 422              	 .loc 1 474 0
 423 0038 2BB9     	 cbnz r3,.L41
 475:C:/Users/Yushev/git/optiga-trust-qi/projects/xmc4700_relax_kit/common/Libraries/XMCLib/src\xmc_usbd.c ****   {
 476:C:/Users/Yushev/git/optiga-trust-qi/projects/xmc4700_relax_kit/common/Libraries/XMCLib/src\xmc_usbd.c ****     size.b.xfersize = 0U;
 424              	 .loc 1 476 0
 425 003a 63F31202 	 bfi r2,r3,#0,#19
 426              	.LVL37:
 477:C:/Users/Yushev/git/optiga-trust-qi/projects/xmc4700_relax_kit/common/Libraries/XMCLib/src\xmc_usbd.c ****     size.b.pktcnt = 1U;
 427              	 .loc 1 477 0
 428 003e 0123     	 movs r3,#1
 429 0040 63F3DC42 	 bfi r2,r3,#19,#10
 430 0044 2CE0     	 b .L42
 431              	.LVL38:
 432              	.L41:
 478:C:/Users/Yushev/git/optiga-trust-qi/projects/xmc4700_relax_kit/common/Libraries/XMCLib/src\xmc_usbd.c ****   }
 479:C:/Users/Yushev/git/optiga-trust-qi/projects/xmc4700_relax_kit/common/Libraries/XMCLib/src\xmc_usbd.c ****   else
 480:C:/Users/Yushev/git/optiga-trust-qi/projects/xmc4700_relax_kit/common/Libraries/XMCLib/src\xmc_usbd.c ****   {
 481:C:/Users/Yushev/git/optiga-trust-qi/projects/xmc4700_relax_kit/common/Libraries/XMCLib/src\xmc_usbd.c ****     if (ep->address_u.address_st.number == 0U)
 433              	 .loc 1 481 0
 434 0046 11F00F0F 	 tst r1,#15
 435 004a C66A     	 ldr r6,[r0,#44]
 436 004c 07D1     	 bne .L43
 482:C:/Users/Yushev/git/optiga-trust-qi/projects/xmc4700_relax_kit/common/Libraries/XMCLib/src\xmc_usbd.c ****     {
 483:C:/Users/Yushev/git/optiga-trust-qi/projects/xmc4700_relax_kit/common/Libraries/XMCLib/src\xmc_usbd.c ****       size.b.pktcnt = 1U;
 437              	 .loc 1 483 0
 438 004e 4FF0010C 	 mov ip,#1
 439 0052 6CF3DC42 	 bfi r2,ip,#19,#10
 440              	.LVL39:
 484:C:/Users/Yushev/git/optiga-trust-qi/projects/xmc4700_relax_kit/common/Libraries/XMCLib/src\xmc_usbd.c ****       /* ep->maxXferSize equals maxPacketSize */
 485:C:/Users/Yushev/git/optiga-trust-qi/projects/xmc4700_relax_kit/common/Libraries/XMCLib/src\xmc_usbd.c ****       size.b.xfersize = (uint32_t)(ep->xferLength - ep->xferCount);
 441              	 .loc 1 485 0
 442 0056 9B1B     	 subs r3,r3,r6
 443 0058 63F31202 	 bfi r2,r3,#0,#19
 444 005c 0FE0     	 b .L44
 445              	.LVL40:
 446              	.L43:
 486:C:/Users/Yushev/git/optiga-trust-qi/projects/xmc4700_relax_kit/common/Libraries/XMCLib/src\xmc_usbd.c ****     }
 487:C:/Users/Yushev/git/optiga-trust-qi/projects/xmc4700_relax_kit/common/Libraries/XMCLib/src\xmc_usbd.c ****     else
 488:C:/Users/Yushev/git/optiga-trust-qi/projects/xmc4700_relax_kit/common/Libraries/XMCLib/src\xmc_usbd.c ****     {
 489:C:/Users/Yushev/git/optiga-trust-qi/projects/xmc4700_relax_kit/common/Libraries/XMCLib/src\xmc_usbd.c ****       size.b.xfersize =(uint32_t)(ep->xferLength - ep->xferCount);
 447              	 .loc 1 489 0
 448 005e 9B1B     	 subs r3,r3,r6
 490:C:/Users/Yushev/git/optiga-trust-qi/projects/xmc4700_relax_kit/common/Libraries/XMCLib/src\xmc_usbd.c ****       size.b.pktcnt = (uint16_t)(((uint16_t)(ep->xferLength - ep->xferCount) + (uint16_t)((uint16_t
 449              	 .loc 1 490 0
 450 0060 4668     	 ldr r6,[r0,#4]
 451 0062 C6F3C626 	 ubfx r6,r6,#11,#7
 452 0066 06F1FF3C 	 add ip,r6,#-1
 489:C:/Users/Yushev/git/optiga-trust-qi/projects/xmc4700_relax_kit/common/Libraries/XMCLib/src\xmc_usbd.c ****       size.b.pktcnt = (uint16_t)(((uint16_t)(ep->xferLength - ep->xferCount) + (uint16_t)((uint16_t
 453              	 .loc 1 489 0
 454 006a 63F31202 	 bfi r2,r3,#0,#19
 455              	.LVL41:
 456              	 .loc 1 490 0
 457 006e 1FFA8CFC 	 uxth ip,ip
 458 0072 1CFA83F3 	 uxtah r3,ip,r3
 459 0076 93FBF6F3 	 sdiv r3,r3,r6
 460 007a 63F3DC42 	 bfi r2,r3,#19,#10
 461              	.L44:
 491:C:/Users/Yushev/git/optiga-trust-qi/projects/xmc4700_relax_kit/common/Libraries/XMCLib/src\xmc_usbd.c ****     		 ep->maxPacketSize);
 492:C:/Users/Yushev/git/optiga-trust-qi/projects/xmc4700_relax_kit/common/Libraries/XMCLib/src\xmc_usbd.c ****     }
 493:C:/Users/Yushev/git/optiga-trust-qi/projects/xmc4700_relax_kit/common/Libraries/XMCLib/src\xmc_usbd.c ****     if(usbd_init->usbd_transfer_mode == XMC_USBD_USE_DMA)
 462              	 .loc 1 493 0
 463 007e 0F4B     	 ldr r3,.L46+4
 464 0080 1B68     	 ldr r3,[r3]
 465 0082 5B7B     	 ldrb r3,[r3,#13]
 466 0084 1BB9     	 cbnz r3,.L45
 494:C:/Users/Yushev/git/optiga-trust-qi/projects/xmc4700_relax_kit/common/Libraries/XMCLib/src\xmc_usbd.c ****     {
 495:C:/Users/Yushev/git/optiga-trust-qi/projects/xmc4700_relax_kit/common/Libraries/XMCLib/src\xmc_usbd.c ****       /* Program dma*/
 496:C:/Users/Yushev/git/optiga-trust-qi/projects/xmc4700_relax_kit/common/Libraries/XMCLib/src\xmc_usbd.c ****       xmc_device.endpoint_in_register[ep->address_u.address_st.number]->diepdma = (uint32_t)ep->xfe
 467              	 .loc 1 496 0
 468 0086 436A     	 ldr r3,[r0,#36]
 469 0088 CEF81430 	 str r3,[lr,#20]
 470 008c 08E0     	 b .L42
 471              	.L45:
 497:C:/Users/Yushev/git/optiga-trust-qi/projects/xmc4700_relax_kit/common/Libraries/XMCLib/src\xmc_usbd.c ****     }
 498:C:/Users/Yushev/git/optiga-trust-qi/projects/xmc4700_relax_kit/common/Libraries/XMCLib/src\xmc_usbd.c ****     if(usbd_init->usbd_transfer_mode == XMC_USBD_USE_FIFO)
 472              	 .loc 1 498 0
 473 008e 012B     	 cmp r3,#1
 499:C:/Users/Yushev/git/optiga-trust-qi/projects/xmc4700_relax_kit/common/Libraries/XMCLib/src\xmc_usbd.c ****     {
 500:C:/Users/Yushev/git/optiga-trust-qi/projects/xmc4700_relax_kit/common/Libraries/XMCLib/src\xmc_usbd.c ****       /* enable fifo empty interrupt */
 501:C:/Users/Yushev/git/optiga-trust-qi/projects/xmc4700_relax_kit/common/Libraries/XMCLib/src\xmc_usbd.c **** 			xmc_device.device_register->dtknqr4_fifoemptymsk |= (uint32_t)((uint32_t)1U << (uint8_t)ep->addr
 474              	 .loc 1 501 0
 475 0090 01BF     	 itttt eq
 476 0092 D4F8A461 	 ldreq r6,[r4,#420]
 477 0096 706B     	 ldreq r0,[r6,#52]
 478              	.LVL42:
 479 0098 BB40     	 lsleq r3,r3,r7
 480 009a 0343     	 orreq r3,r3,r0
 481 009c 08BF     	 it eq
 482 009e 7363     	 streq r3,[r6,#52]
 483              	.L42:
 502:C:/Users/Yushev/git/optiga-trust-qi/projects/xmc4700_relax_kit/common/Libraries/XMCLib/src\xmc_usbd.c ****     }
 503:C:/Users/Yushev/git/optiga-trust-qi/projects/xmc4700_relax_kit/common/Libraries/XMCLib/src\xmc_usbd.c ****   }
 504:C:/Users/Yushev/git/optiga-trust-qi/projects/xmc4700_relax_kit/common/Libraries/XMCLib/src\xmc_usbd.c **** 
 505:C:/Users/Yushev/git/optiga-trust-qi/projects/xmc4700_relax_kit/common/Libraries/XMCLib/src\xmc_usbd.c ****   /* Program size of transfer and enable endpoint */
 506:C:/Users/Yushev/git/optiga-trust-qi/projects/xmc4700_relax_kit/common/Libraries/XMCLib/src\xmc_usbd.c ****   xmc_device.endpoint_in_register[ep->address_u.address_st.number]->dieptsiz = size.d32;
 484              	 .loc 1 506 0
 485 00a0 01F00F01 	 and r1,r1,#15
 486 00a4 6A31     	 adds r1,r1,#106
 507:C:/Users/Yushev/git/optiga-trust-qi/projects/xmc4700_relax_kit/common/Libraries/XMCLib/src\xmc_usbd.c ****   ctl.b.epena = 1U;
 508:C:/Users/Yushev/git/optiga-trust-qi/projects/xmc4700_relax_kit/common/Libraries/XMCLib/src\xmc_usbd.c ****   ctl.b.cnak = 1U;
 487              	 .loc 1 508 0
 488 00a6 45F00445 	 orr r5,r5,#-2080374784
 489              	.LVL43:
 506:C:/Users/Yushev/git/optiga-trust-qi/projects/xmc4700_relax_kit/common/Libraries/XMCLib/src\xmc_usbd.c ****   ctl.b.epena = 1U;
 490              	 .loc 1 506 0
 491 00aa 54F82130 	 ldr r3,[r4,r1,lsl#2]
 492 00ae 1A61     	 str r2,[r3,#16]
 493              	.LVL44:
 509:C:/Users/Yushev/git/optiga-trust-qi/projects/xmc4700_relax_kit/common/Libraries/XMCLib/src\xmc_usbd.c ****   xmc_device.endpoint_in_register[ep->address_u.address_st.number]->diepctl = ctl.d32;
 494              	 .loc 1 509 0
 495 00b0 1D60     	 str r5,[r3]
 496 00b2 BDE8F081 	 pop {r4,r5,r6,r7,r8,pc}
 497              	.LVL45:
 498              	.L47:
 499 00b6 00BF     	 .align 2
 500              	.L46:
 501 00b8 00000000 	 .word xmc_device
 502 00bc 00000000 	 .word usbd_init
 503              	 .cfi_endproc
 504              	.LFE177:
 506              	 .section .text.XMC_USBD_GetCapabilities,"ax",%progbits
 507              	 .align 1
 508              	 .global XMC_USBD_GetCapabilities
 509              	 .thumb
 510              	 .thumb_func
 512              	XMC_USBD_GetCapabilities:
 513              	.LFB193:
 510:C:/Users/Yushev/git/optiga-trust-qi/projects/xmc4700_relax_kit/common/Libraries/XMCLib/src\xmc_usbd.c **** }
 511:C:/Users/Yushev/git/optiga-trust-qi/projects/xmc4700_relax_kit/common/Libraries/XMCLib/src\xmc_usbd.c **** 
 512:C:/Users/Yushev/git/optiga-trust-qi/projects/xmc4700_relax_kit/common/Libraries/XMCLib/src\xmc_usbd.c **** 
 513:C:/Users/Yushev/git/optiga-trust-qi/projects/xmc4700_relax_kit/common/Libraries/XMCLib/src\xmc_usbd.c **** /**
 514:C:/Users/Yushev/git/optiga-trust-qi/projects/xmc4700_relax_kit/common/Libraries/XMCLib/src\xmc_usbd.c ****  * @brief Handles the USBD reset interrupt
 515:C:/Users/Yushev/git/optiga-trust-qi/projects/xmc4700_relax_kit/common/Libraries/XMCLib/src\xmc_usbd.c ****  *
 516:C:/Users/Yushev/git/optiga-trust-qi/projects/xmc4700_relax_kit/common/Libraries/XMCLib/src\xmc_usbd.c ****  * When ever the host sets the bus into reset condition the usb otg_core generates
 517:C:/Users/Yushev/git/optiga-trust-qi/projects/xmc4700_relax_kit/common/Libraries/XMCLib/src\xmc_usbd.c ****  * an interrupt, which is handled by this function. It resets the complete otg_core
 518:C:/Users/Yushev/git/optiga-trust-qi/projects/xmc4700_relax_kit/common/Libraries/XMCLib/src\xmc_usbd.c ****  * into the default state.
 519:C:/Users/Yushev/git/optiga-trust-qi/projects/xmc4700_relax_kit/common/Libraries/XMCLib/src\xmc_usbd.c ****  */
 520:C:/Users/Yushev/git/optiga-trust-qi/projects/xmc4700_relax_kit/common/Libraries/XMCLib/src\xmc_usbd.c **** static void XMC_USBD_lHandleUSBReset(const XMC_USBD_t *const obj) 
 521:C:/Users/Yushev/git/optiga-trust-qi/projects/xmc4700_relax_kit/common/Libraries/XMCLib/src\xmc_usbd.c **** {
 522:C:/Users/Yushev/git/optiga-trust-qi/projects/xmc4700_relax_kit/common/Libraries/XMCLib/src\xmc_usbd.c ****   uint32_t i;
 523:C:/Users/Yushev/git/optiga-trust-qi/projects/xmc4700_relax_kit/common/Libraries/XMCLib/src\xmc_usbd.c ****   depctl_data_t epctl;
 524:C:/Users/Yushev/git/optiga-trust-qi/projects/xmc4700_relax_kit/common/Libraries/XMCLib/src\xmc_usbd.c ****   dctl_data_t dctl;
 525:C:/Users/Yushev/git/optiga-trust-qi/projects/xmc4700_relax_kit/common/Libraries/XMCLib/src\xmc_usbd.c ****   fifosize_data_t gnptxfsiz;
 526:C:/Users/Yushev/git/optiga-trust-qi/projects/xmc4700_relax_kit/common/Libraries/XMCLib/src\xmc_usbd.c ****   daint_data_t daint;
 527:C:/Users/Yushev/git/optiga-trust-qi/projects/xmc4700_relax_kit/common/Libraries/XMCLib/src\xmc_usbd.c ****   dcfg_data_t dcfg;
 528:C:/Users/Yushev/git/optiga-trust-qi/projects/xmc4700_relax_kit/common/Libraries/XMCLib/src\xmc_usbd.c **** 	
 529:C:/Users/Yushev/git/optiga-trust-qi/projects/xmc4700_relax_kit/common/Libraries/XMCLib/src\xmc_usbd.c ****   /* Clear the Remote Wakeup Signaling */
 530:C:/Users/Yushev/git/optiga-trust-qi/projects/xmc4700_relax_kit/common/Libraries/XMCLib/src\xmc_usbd.c ****   dctl.d32 = xmc_device.device_register->dctl;
 531:C:/Users/Yushev/git/optiga-trust-qi/projects/xmc4700_relax_kit/common/Libraries/XMCLib/src\xmc_usbd.c ****   dctl.b.rmtwkupsig = 1U;
 532:C:/Users/Yushev/git/optiga-trust-qi/projects/xmc4700_relax_kit/common/Libraries/XMCLib/src\xmc_usbd.c ****   xmc_device.device_register->dctl = dctl.d32;
 533:C:/Users/Yushev/git/optiga-trust-qi/projects/xmc4700_relax_kit/common/Libraries/XMCLib/src\xmc_usbd.c **** 
 534:C:/Users/Yushev/git/optiga-trust-qi/projects/xmc4700_relax_kit/common/Libraries/XMCLib/src\xmc_usbd.c ****   /* enable naks for all eps */
 535:C:/Users/Yushev/git/optiga-trust-qi/projects/xmc4700_relax_kit/common/Libraries/XMCLib/src\xmc_usbd.c ****   for (i = 0U;i < (uint8_t)XMC_USBD_NUM_EPS;i++)
 536:C:/Users/Yushev/git/optiga-trust-qi/projects/xmc4700_relax_kit/common/Libraries/XMCLib/src\xmc_usbd.c ****   {
 537:C:/Users/Yushev/git/optiga-trust-qi/projects/xmc4700_relax_kit/common/Libraries/XMCLib/src\xmc_usbd.c ****     epctl.d32 = xmc_device.endpoint_out_register[i]->doepctl;
 538:C:/Users/Yushev/git/optiga-trust-qi/projects/xmc4700_relax_kit/common/Libraries/XMCLib/src\xmc_usbd.c **** 		epctl.b.snak = 1U;
 539:C:/Users/Yushev/git/optiga-trust-qi/projects/xmc4700_relax_kit/common/Libraries/XMCLib/src\xmc_usbd.c **** 		epctl.b.stall = 0U;
 540:C:/Users/Yushev/git/optiga-trust-qi/projects/xmc4700_relax_kit/common/Libraries/XMCLib/src\xmc_usbd.c **** 		xmc_device.endpoint_out_register[i]->doepctl = epctl.d32;
 541:C:/Users/Yushev/git/optiga-trust-qi/projects/xmc4700_relax_kit/common/Libraries/XMCLib/src\xmc_usbd.c ****   }
 542:C:/Users/Yushev/git/optiga-trust-qi/projects/xmc4700_relax_kit/common/Libraries/XMCLib/src\xmc_usbd.c **** 
 543:C:/Users/Yushev/git/optiga-trust-qi/projects/xmc4700_relax_kit/common/Libraries/XMCLib/src\xmc_usbd.c ****   /* Configure fifos */
 544:C:/Users/Yushev/git/optiga-trust-qi/projects/xmc4700_relax_kit/common/Libraries/XMCLib/src\xmc_usbd.c ****   /* Calculate the size of the rx fifo */
 545:C:/Users/Yushev/git/optiga-trust-qi/projects/xmc4700_relax_kit/common/Libraries/XMCLib/src\xmc_usbd.c ****   xmc_device.global_register->grxfsiz = 64U;
 546:C:/Users/Yushev/git/optiga-trust-qi/projects/xmc4700_relax_kit/common/Libraries/XMCLib/src\xmc_usbd.c ****   /* Calculate the size of the tx fifo for ep 0 */  
 547:C:/Users/Yushev/git/optiga-trust-qi/projects/xmc4700_relax_kit/common/Libraries/XMCLib/src\xmc_usbd.c ****   gnptxfsiz.d32 = 0U;
 548:C:/Users/Yushev/git/optiga-trust-qi/projects/xmc4700_relax_kit/common/Libraries/XMCLib/src\xmc_usbd.c ****   gnptxfsiz.b.depth = 16U;
 549:C:/Users/Yushev/git/optiga-trust-qi/projects/xmc4700_relax_kit/common/Libraries/XMCLib/src\xmc_usbd.c ****   gnptxfsiz.b.startaddr = 64U;
 550:C:/Users/Yushev/git/optiga-trust-qi/projects/xmc4700_relax_kit/common/Libraries/XMCLib/src\xmc_usbd.c ****   xmc_device.global_register->gnptxfsiz = gnptxfsiz.d32;
 551:C:/Users/Yushev/git/optiga-trust-qi/projects/xmc4700_relax_kit/common/Libraries/XMCLib/src\xmc_usbd.c ****   /* calculate the size for the rest */
 552:C:/Users/Yushev/git/optiga-trust-qi/projects/xmc4700_relax_kit/common/Libraries/XMCLib/src\xmc_usbd.c ****   for (i = 1U;i < (uint8_t)XMC_USBD_NUM_TX_FIFOS;i++)
 553:C:/Users/Yushev/git/optiga-trust-qi/projects/xmc4700_relax_kit/common/Libraries/XMCLib/src\xmc_usbd.c ****   {
 554:C:/Users/Yushev/git/optiga-trust-qi/projects/xmc4700_relax_kit/common/Libraries/XMCLib/src\xmc_usbd.c ****     xmc_device.global_register->dtxfsiz[i- 1U] = (uint32_t)(((256U + (i*(64U)))/4U) | ((uint32_t)16
 555:C:/Users/Yushev/git/optiga-trust-qi/projects/xmc4700_relax_kit/common/Libraries/XMCLib/src\xmc_usbd.c ****   }
 556:C:/Users/Yushev/git/optiga-trust-qi/projects/xmc4700_relax_kit/common/Libraries/XMCLib/src\xmc_usbd.c **** 
 557:C:/Users/Yushev/git/optiga-trust-qi/projects/xmc4700_relax_kit/common/Libraries/XMCLib/src\xmc_usbd.c ****   /* flush the fifos for proper operation */
 558:C:/Users/Yushev/git/optiga-trust-qi/projects/xmc4700_relax_kit/common/Libraries/XMCLib/src\xmc_usbd.c ****   XMC_USBD_lFlushTXFifo(0x10U); /* 0x10 == all fifos, see doc */
 559:C:/Users/Yushev/git/optiga-trust-qi/projects/xmc4700_relax_kit/common/Libraries/XMCLib/src\xmc_usbd.c ****   XMC_USBD_lFlushTXFifo(0x0U);
 560:C:/Users/Yushev/git/optiga-trust-qi/projects/xmc4700_relax_kit/common/Libraries/XMCLib/src\xmc_usbd.c ****   XMC_USBD_lFlushRXFifo();
 561:C:/Users/Yushev/git/optiga-trust-qi/projects/xmc4700_relax_kit/common/Libraries/XMCLib/src\xmc_usbd.c ****   /* Flush learning queue not needed due to fifo config */
 562:C:/Users/Yushev/git/optiga-trust-qi/projects/xmc4700_relax_kit/common/Libraries/XMCLib/src\xmc_usbd.c ****   /* enable ep0 interrupts */  
 563:C:/Users/Yushev/git/optiga-trust-qi/projects/xmc4700_relax_kit/common/Libraries/XMCLib/src\xmc_usbd.c ****   daint.d32 = 0U;
 564:C:/Users/Yushev/git/optiga-trust-qi/projects/xmc4700_relax_kit/common/Libraries/XMCLib/src\xmc_usbd.c ****   daint.b.inep0 = 1U;
 565:C:/Users/Yushev/git/optiga-trust-qi/projects/xmc4700_relax_kit/common/Libraries/XMCLib/src\xmc_usbd.c ****   daint.b.outep0 = 1U;
 566:C:/Users/Yushev/git/optiga-trust-qi/projects/xmc4700_relax_kit/common/Libraries/XMCLib/src\xmc_usbd.c ****   xmc_device.device_register->daintmsk = daint.d32;
 567:C:/Users/Yushev/git/optiga-trust-qi/projects/xmc4700_relax_kit/common/Libraries/XMCLib/src\xmc_usbd.c **** 
 568:C:/Users/Yushev/git/optiga-trust-qi/projects/xmc4700_relax_kit/common/Libraries/XMCLib/src\xmc_usbd.c ****   /* enable endpoint interrupts */
 569:C:/Users/Yushev/git/optiga-trust-qi/projects/xmc4700_relax_kit/common/Libraries/XMCLib/src\xmc_usbd.c ****   /* out ep interrupts */
 570:C:/Users/Yushev/git/optiga-trust-qi/projects/xmc4700_relax_kit/common/Libraries/XMCLib/src\xmc_usbd.c ****   XMC_USBD_EnableEventOUTEP(((uint32_t)XMC_USBD_EVENT_OUT_EP_TX_COMPLET | (uint32_t)XMC_USBD_EVENT_
 571:C:/Users/Yushev/git/optiga-trust-qi/projects/xmc4700_relax_kit/common/Libraries/XMCLib/src\xmc_usbd.c **** 		  	  	  	  	  	  (uint32_t)XMC_USBD_EVENT_OUT_EP_SETUP | (uint32_t)XMC_USBD_EVENT_OUT_EP_AHB_ERRO
 572:C:/Users/Yushev/git/optiga-trust-qi/projects/xmc4700_relax_kit/common/Libraries/XMCLib/src\xmc_usbd.c **** 
 573:C:/Users/Yushev/git/optiga-trust-qi/projects/xmc4700_relax_kit/common/Libraries/XMCLib/src\xmc_usbd.c ****   /*in ep interrupts */
 574:C:/Users/Yushev/git/optiga-trust-qi/projects/xmc4700_relax_kit/common/Libraries/XMCLib/src\xmc_usbd.c ****   XMC_USBD_EnableEventINEP(((uint32_t)XMC_USBD_EVENT_IN_EP_TX_COMPLET | (uint32_t)XMC_USBD_EVENT_IN
 575:C:/Users/Yushev/git/optiga-trust-qi/projects/xmc4700_relax_kit/common/Libraries/XMCLib/src\xmc_usbd.c **** 		  (uint32_t)XMC_USBD_EVENT_IN_EP_AHB_ERROR | (uint32_t)XMC_USBD_EVENT_IN_EP_TIMEOUT));
 576:C:/Users/Yushev/git/optiga-trust-qi/projects/xmc4700_relax_kit/common/Libraries/XMCLib/src\xmc_usbd.c **** 
 577:C:/Users/Yushev/git/optiga-trust-qi/projects/xmc4700_relax_kit/common/Libraries/XMCLib/src\xmc_usbd.c **** 
 578:C:/Users/Yushev/git/optiga-trust-qi/projects/xmc4700_relax_kit/common/Libraries/XMCLib/src\xmc_usbd.c ****   /* Clear device Address */  
 579:C:/Users/Yushev/git/optiga-trust-qi/projects/xmc4700_relax_kit/common/Libraries/XMCLib/src\xmc_usbd.c ****   dcfg.d32 = xmc_device.device_register->dcfg;
 580:C:/Users/Yushev/git/optiga-trust-qi/projects/xmc4700_relax_kit/common/Libraries/XMCLib/src\xmc_usbd.c ****   dcfg.b.devaddr = 0U;
 581:C:/Users/Yushev/git/optiga-trust-qi/projects/xmc4700_relax_kit/common/Libraries/XMCLib/src\xmc_usbd.c ****   xmc_device.device_register->dcfg = dcfg.d32;
 582:C:/Users/Yushev/git/optiga-trust-qi/projects/xmc4700_relax_kit/common/Libraries/XMCLib/src\xmc_usbd.c **** 
 583:C:/Users/Yushev/git/optiga-trust-qi/projects/xmc4700_relax_kit/common/Libraries/XMCLib/src\xmc_usbd.c ****   if(obj->usbd_transfer_mode == XMC_USBD_USE_FIFO)
 584:C:/Users/Yushev/git/optiga-trust-qi/projects/xmc4700_relax_kit/common/Libraries/XMCLib/src\xmc_usbd.c ****   {
 585:C:/Users/Yushev/git/optiga-trust-qi/projects/xmc4700_relax_kit/common/Libraries/XMCLib/src\xmc_usbd.c ****     /* Clear Empty interrupt */
 586:C:/Users/Yushev/git/optiga-trust-qi/projects/xmc4700_relax_kit/common/Libraries/XMCLib/src\xmc_usbd.c ****     xmc_device.device_register->dtknqr4_fifoemptymsk = 0U;
 587:C:/Users/Yushev/git/optiga-trust-qi/projects/xmc4700_relax_kit/common/Libraries/XMCLib/src\xmc_usbd.c ****   }
 588:C:/Users/Yushev/git/optiga-trust-qi/projects/xmc4700_relax_kit/common/Libraries/XMCLib/src\xmc_usbd.c **** 
 589:C:/Users/Yushev/git/optiga-trust-qi/projects/xmc4700_relax_kit/common/Libraries/XMCLib/src\xmc_usbd.c ****   xmc_device.ep[0U].outInUse = 0U;
 590:C:/Users/Yushev/git/optiga-trust-qi/projects/xmc4700_relax_kit/common/Libraries/XMCLib/src\xmc_usbd.c ****   xmc_device.ep[0U].inInUse = 0U;
 591:C:/Users/Yushev/git/optiga-trust-qi/projects/xmc4700_relax_kit/common/Libraries/XMCLib/src\xmc_usbd.c **** 
 592:C:/Users/Yushev/git/optiga-trust-qi/projects/xmc4700_relax_kit/common/Libraries/XMCLib/src\xmc_usbd.c ****   xmc_device.DeviceEvent_cb(XMC_USBD_EVENT_RESET);
 593:C:/Users/Yushev/git/optiga-trust-qi/projects/xmc4700_relax_kit/common/Libraries/XMCLib/src\xmc_usbd.c **** 
 594:C:/Users/Yushev/git/optiga-trust-qi/projects/xmc4700_relax_kit/common/Libraries/XMCLib/src\xmc_usbd.c ****   /* clear reset intr */
 595:C:/Users/Yushev/git/optiga-trust-qi/projects/xmc4700_relax_kit/common/Libraries/XMCLib/src\xmc_usbd.c ****   XMC_USBD_ClearEvent(XMC_USBD_EVENT_RESET);
 596:C:/Users/Yushev/git/optiga-trust-qi/projects/xmc4700_relax_kit/common/Libraries/XMCLib/src\xmc_usbd.c **** }
 597:C:/Users/Yushev/git/optiga-trust-qi/projects/xmc4700_relax_kit/common/Libraries/XMCLib/src\xmc_usbd.c **** 
 598:C:/Users/Yushev/git/optiga-trust-qi/projects/xmc4700_relax_kit/common/Libraries/XMCLib/src\xmc_usbd.c **** /**
 599:C:/Users/Yushev/git/optiga-trust-qi/projects/xmc4700_relax_kit/common/Libraries/XMCLib/src\xmc_usbd.c **** * @brief Handle OTG Interrupt
 600:C:/Users/Yushev/git/optiga-trust-qi/projects/xmc4700_relax_kit/common/Libraries/XMCLib/src\xmc_usbd.c **** *
 601:C:/Users/Yushev/git/optiga-trust-qi/projects/xmc4700_relax_kit/common/Libraries/XMCLib/src\xmc_usbd.c **** * It detects especially connect and disconnect events.
 602:C:/Users/Yushev/git/optiga-trust-qi/projects/xmc4700_relax_kit/common/Libraries/XMCLib/src\xmc_usbd.c **** */
 603:C:/Users/Yushev/git/optiga-trust-qi/projects/xmc4700_relax_kit/common/Libraries/XMCLib/src\xmc_usbd.c **** static void XMC_USBD_lHandleOTGInt(void) 
 604:C:/Users/Yushev/git/optiga-trust-qi/projects/xmc4700_relax_kit/common/Libraries/XMCLib/src\xmc_usbd.c **** {
 605:C:/Users/Yushev/git/optiga-trust-qi/projects/xmc4700_relax_kit/common/Libraries/XMCLib/src\xmc_usbd.c ****   gotgint_data_t data;
 606:C:/Users/Yushev/git/optiga-trust-qi/projects/xmc4700_relax_kit/common/Libraries/XMCLib/src\xmc_usbd.c ****   data.d32 = xmc_device.global_register->gotgint;
 607:C:/Users/Yushev/git/optiga-trust-qi/projects/xmc4700_relax_kit/common/Libraries/XMCLib/src\xmc_usbd.c ****   if (data.b.sesenddet)
 608:C:/Users/Yushev/git/optiga-trust-qi/projects/xmc4700_relax_kit/common/Libraries/XMCLib/src\xmc_usbd.c ****   {
 609:C:/Users/Yushev/git/optiga-trust-qi/projects/xmc4700_relax_kit/common/Libraries/XMCLib/src\xmc_usbd.c **** 		xmc_device.IsPowered = 0U;
 610:C:/Users/Yushev/git/optiga-trust-qi/projects/xmc4700_relax_kit/common/Libraries/XMCLib/src\xmc_usbd.c **** 		xmc_device.DeviceEvent_cb(XMC_USBD_EVENT_POWER_OFF);
 611:C:/Users/Yushev/git/optiga-trust-qi/projects/xmc4700_relax_kit/common/Libraries/XMCLib/src\xmc_usbd.c ****   }
 612:C:/Users/Yushev/git/optiga-trust-qi/projects/xmc4700_relax_kit/common/Libraries/XMCLib/src\xmc_usbd.c ****   XMC_USBD_lClearEventOTG(data.d32);
 613:C:/Users/Yushev/git/optiga-trust-qi/projects/xmc4700_relax_kit/common/Libraries/XMCLib/src\xmc_usbd.c **** 
 614:C:/Users/Yushev/git/optiga-trust-qi/projects/xmc4700_relax_kit/common/Libraries/XMCLib/src\xmc_usbd.c **** }
 615:C:/Users/Yushev/git/optiga-trust-qi/projects/xmc4700_relax_kit/common/Libraries/XMCLib/src\xmc_usbd.c **** 
 616:C:/Users/Yushev/git/optiga-trust-qi/projects/xmc4700_relax_kit/common/Libraries/XMCLib/src\xmc_usbd.c **** /**
 617:C:/Users/Yushev/git/optiga-trust-qi/projects/xmc4700_relax_kit/common/Libraries/XMCLib/src\xmc_usbd.c ****  * @brief Interrupt handler for device enumeration done.
 618:C:/Users/Yushev/git/optiga-trust-qi/projects/xmc4700_relax_kit/common/Libraries/XMCLib/src\xmc_usbd.c ****  *
 619:C:/Users/Yushev/git/optiga-trust-qi/projects/xmc4700_relax_kit/common/Libraries/XMCLib/src\xmc_usbd.c ****  * Handles the enumeration done from dwc_otg, when the host has enumerated the device.
 620:C:/Users/Yushev/git/optiga-trust-qi/projects/xmc4700_relax_kit/common/Libraries/XMCLib/src\xmc_usbd.c ****  */
 621:C:/Users/Yushev/git/optiga-trust-qi/projects/xmc4700_relax_kit/common/Libraries/XMCLib/src\xmc_usbd.c **** static void XMC_USBD_lHandleEnumDone(void) 
 622:C:/Users/Yushev/git/optiga-trust-qi/projects/xmc4700_relax_kit/common/Libraries/XMCLib/src\xmc_usbd.c **** {
 623:C:/Users/Yushev/git/optiga-trust-qi/projects/xmc4700_relax_kit/common/Libraries/XMCLib/src\xmc_usbd.c ****   /* Normaly we need to check dctl
 624:C:/Users/Yushev/git/optiga-trust-qi/projects/xmc4700_relax_kit/common/Libraries/XMCLib/src\xmc_usbd.c ****    * We are always fullspeed, so max it up. */
 625:C:/Users/Yushev/git/optiga-trust-qi/projects/xmc4700_relax_kit/common/Libraries/XMCLib/src\xmc_usbd.c ****   depctl_data_t epctl;
 626:C:/Users/Yushev/git/optiga-trust-qi/projects/xmc4700_relax_kit/common/Libraries/XMCLib/src\xmc_usbd.c ****   gusbcfg_data_t gusbcfg;
 627:C:/Users/Yushev/git/optiga-trust-qi/projects/xmc4700_relax_kit/common/Libraries/XMCLib/src\xmc_usbd.c **** 	
 628:C:/Users/Yushev/git/optiga-trust-qi/projects/xmc4700_relax_kit/common/Libraries/XMCLib/src\xmc_usbd.c ****   epctl.d32=xmc_device.endpoint_in_register[0U]->diepctl;
 629:C:/Users/Yushev/git/optiga-trust-qi/projects/xmc4700_relax_kit/common/Libraries/XMCLib/src\xmc_usbd.c ****   epctl.b.mps = 0x00U; /* 64 Byte, this is also automatically set for out ep */
 630:C:/Users/Yushev/git/optiga-trust-qi/projects/xmc4700_relax_kit/common/Libraries/XMCLib/src\xmc_usbd.c ****   xmc_device.endpoint_in_register[0U]->diepctl = epctl.d32;
 631:C:/Users/Yushev/git/optiga-trust-qi/projects/xmc4700_relax_kit/common/Libraries/XMCLib/src\xmc_usbd.c **** 
 632:C:/Users/Yushev/git/optiga-trust-qi/projects/xmc4700_relax_kit/common/Libraries/XMCLib/src\xmc_usbd.c ****   /* update device connected flag */
 633:C:/Users/Yushev/git/optiga-trust-qi/projects/xmc4700_relax_kit/common/Libraries/XMCLib/src\xmc_usbd.c ****   xmc_device.IsConnected = 1U;
 634:C:/Users/Yushev/git/optiga-trust-qi/projects/xmc4700_relax_kit/common/Libraries/XMCLib/src\xmc_usbd.c ****   xmc_device.IsPowered = 1U;
 635:C:/Users/Yushev/git/optiga-trust-qi/projects/xmc4700_relax_kit/common/Libraries/XMCLib/src\xmc_usbd.c **** 
 636:C:/Users/Yushev/git/optiga-trust-qi/projects/xmc4700_relax_kit/common/Libraries/XMCLib/src\xmc_usbd.c ****   xmc_device.DeviceEvent_cb(XMC_USBD_EVENT_CONNECT);
 637:C:/Users/Yushev/git/optiga-trust-qi/projects/xmc4700_relax_kit/common/Libraries/XMCLib/src\xmc_usbd.c **** 
 638:C:/Users/Yushev/git/optiga-trust-qi/projects/xmc4700_relax_kit/common/Libraries/XMCLib/src\xmc_usbd.c ****   /* Set Trim */  
 639:C:/Users/Yushev/git/optiga-trust-qi/projects/xmc4700_relax_kit/common/Libraries/XMCLib/src\xmc_usbd.c ****   gusbcfg.d32 = xmc_device.global_register->gusbcfg;
 640:C:/Users/Yushev/git/optiga-trust-qi/projects/xmc4700_relax_kit/common/Libraries/XMCLib/src\xmc_usbd.c ****   gusbcfg.b.usbtrdtim = 9U; /* default value for LS/FS */
 641:C:/Users/Yushev/git/optiga-trust-qi/projects/xmc4700_relax_kit/common/Libraries/XMCLib/src\xmc_usbd.c ****   xmc_device.global_register->gusbcfg = gusbcfg.d32;
 642:C:/Users/Yushev/git/optiga-trust-qi/projects/xmc4700_relax_kit/common/Libraries/XMCLib/src\xmc_usbd.c **** 
 643:C:/Users/Yushev/git/optiga-trust-qi/projects/xmc4700_relax_kit/common/Libraries/XMCLib/src\xmc_usbd.c ****   /* clear interrupt */
 644:C:/Users/Yushev/git/optiga-trust-qi/projects/xmc4700_relax_kit/common/Libraries/XMCLib/src\xmc_usbd.c ****   XMC_USBD_ClearEvent(XMC_USBD_EVENT_ENUMDONE);
 645:C:/Users/Yushev/git/optiga-trust-qi/projects/xmc4700_relax_kit/common/Libraries/XMCLib/src\xmc_usbd.c **** }
 646:C:/Users/Yushev/git/optiga-trust-qi/projects/xmc4700_relax_kit/common/Libraries/XMCLib/src\xmc_usbd.c **** 
 647:C:/Users/Yushev/git/optiga-trust-qi/projects/xmc4700_relax_kit/common/Libraries/XMCLib/src\xmc_usbd.c **** 
 648:C:/Users/Yushev/git/optiga-trust-qi/projects/xmc4700_relax_kit/common/Libraries/XMCLib/src\xmc_usbd.c **** /**
 649:C:/Users/Yushev/git/optiga-trust-qi/projects/xmc4700_relax_kit/common/Libraries/XMCLib/src\xmc_usbd.c ****  * @brief Handles all interrupts for all out endpoints
 650:C:/Users/Yushev/git/optiga-trust-qi/projects/xmc4700_relax_kit/common/Libraries/XMCLib/src\xmc_usbd.c ****  *
 651:C:/Users/Yushev/git/optiga-trust-qi/projects/xmc4700_relax_kit/common/Libraries/XMCLib/src\xmc_usbd.c ****  * The interrupt handler first checks, which endpoint has caused the interrupt and then
 652:C:/Users/Yushev/git/optiga-trust-qi/projects/xmc4700_relax_kit/common/Libraries/XMCLib/src\xmc_usbd.c ****  * determines, which interrupt should be handled.
 653:C:/Users/Yushev/git/optiga-trust-qi/projects/xmc4700_relax_kit/common/Libraries/XMCLib/src\xmc_usbd.c ****  */
 654:C:/Users/Yushev/git/optiga-trust-qi/projects/xmc4700_relax_kit/common/Libraries/XMCLib/src\xmc_usbd.c **** static void XMC_USBD_lHandleOEPInt(const XMC_USBD_t *const obj) 
 655:C:/Users/Yushev/git/optiga-trust-qi/projects/xmc4700_relax_kit/common/Libraries/XMCLib/src\xmc_usbd.c **** {
 656:C:/Users/Yushev/git/optiga-trust-qi/projects/xmc4700_relax_kit/common/Libraries/XMCLib/src\xmc_usbd.c ****   daint_data_t daint;
 657:C:/Users/Yushev/git/optiga-trust-qi/projects/xmc4700_relax_kit/common/Libraries/XMCLib/src\xmc_usbd.c ****   daint_data_t daintmsk;
 658:C:/Users/Yushev/git/optiga-trust-qi/projects/xmc4700_relax_kit/common/Libraries/XMCLib/src\xmc_usbd.c ****   doepmsk_data_t doepmsk;
 659:C:/Users/Yushev/git/optiga-trust-qi/projects/xmc4700_relax_kit/common/Libraries/XMCLib/src\xmc_usbd.c ****   doepint_data_t doepint;
 660:C:/Users/Yushev/git/optiga-trust-qi/projects/xmc4700_relax_kit/common/Libraries/XMCLib/src\xmc_usbd.c ****   deptsiz_data_t doeptsiz;
 661:C:/Users/Yushev/git/optiga-trust-qi/projects/xmc4700_relax_kit/common/Libraries/XMCLib/src\xmc_usbd.c ****   XMC_USBD_EP_t *ep;
 662:C:/Users/Yushev/git/optiga-trust-qi/projects/xmc4700_relax_kit/common/Libraries/XMCLib/src\xmc_usbd.c ****   uint16_t temp;
 663:C:/Users/Yushev/git/optiga-trust-qi/projects/xmc4700_relax_kit/common/Libraries/XMCLib/src\xmc_usbd.c ****   uint16_t temp1;
 664:C:/Users/Yushev/git/optiga-trust-qi/projects/xmc4700_relax_kit/common/Libraries/XMCLib/src\xmc_usbd.c ****   uint16_t mask;
 665:C:/Users/Yushev/git/optiga-trust-qi/projects/xmc4700_relax_kit/common/Libraries/XMCLib/src\xmc_usbd.c ****   uint8_t ep_num;
 666:C:/Users/Yushev/git/optiga-trust-qi/projects/xmc4700_relax_kit/common/Libraries/XMCLib/src\xmc_usbd.c **** 	
 667:C:/Users/Yushev/git/optiga-trust-qi/projects/xmc4700_relax_kit/common/Libraries/XMCLib/src\xmc_usbd.c ****   daint.d32 = xmc_device.device_register->daint;
 668:C:/Users/Yushev/git/optiga-trust-qi/projects/xmc4700_relax_kit/common/Libraries/XMCLib/src\xmc_usbd.c ****   
 669:C:/Users/Yushev/git/optiga-trust-qi/projects/xmc4700_relax_kit/common/Libraries/XMCLib/src\xmc_usbd.c ****   daintmsk.d32 = xmc_device.device_register->daintmsk;
 670:C:/Users/Yushev/git/optiga-trust-qi/projects/xmc4700_relax_kit/common/Libraries/XMCLib/src\xmc_usbd.c ****   
 671:C:/Users/Yushev/git/optiga-trust-qi/projects/xmc4700_relax_kit/common/Libraries/XMCLib/src\xmc_usbd.c ****   doepmsk.d32 = xmc_device.device_register->doepmsk;  
 672:C:/Users/Yushev/git/optiga-trust-qi/projects/xmc4700_relax_kit/common/Libraries/XMCLib/src\xmc_usbd.c ****   
 673:C:/Users/Yushev/git/optiga-trust-qi/projects/xmc4700_relax_kit/common/Libraries/XMCLib/src\xmc_usbd.c ****   mask = daint.ep.out & daintmsk.ep.out;
 674:C:/Users/Yushev/git/optiga-trust-qi/projects/xmc4700_relax_kit/common/Libraries/XMCLib/src\xmc_usbd.c ****   ep_num = 0U;
 675:C:/Users/Yushev/git/optiga-trust-qi/projects/xmc4700_relax_kit/common/Libraries/XMCLib/src\xmc_usbd.c ****   doeptsiz.d32 = 0U;
 676:C:/Users/Yushev/git/optiga-trust-qi/projects/xmc4700_relax_kit/common/Libraries/XMCLib/src\xmc_usbd.c ****  
 677:C:/Users/Yushev/git/optiga-trust-qi/projects/xmc4700_relax_kit/common/Libraries/XMCLib/src\xmc_usbd.c ****   while ((uint16_t)mask >> ep_num)
 678:C:/Users/Yushev/git/optiga-trust-qi/projects/xmc4700_relax_kit/common/Libraries/XMCLib/src\xmc_usbd.c ****   {
 679:C:/Users/Yushev/git/optiga-trust-qi/projects/xmc4700_relax_kit/common/Libraries/XMCLib/src\xmc_usbd.c ****     temp1 = (mask >> (uint16_t)ep_num);
 680:C:/Users/Yushev/git/optiga-trust-qi/projects/xmc4700_relax_kit/common/Libraries/XMCLib/src\xmc_usbd.c ****     temp = temp1 & 0x1U;
 681:C:/Users/Yushev/git/optiga-trust-qi/projects/xmc4700_relax_kit/common/Libraries/XMCLib/src\xmc_usbd.c ****     if (temp)
 682:C:/Users/Yushev/git/optiga-trust-qi/projects/xmc4700_relax_kit/common/Libraries/XMCLib/src\xmc_usbd.c ****     {
 683:C:/Users/Yushev/git/optiga-trust-qi/projects/xmc4700_relax_kit/common/Libraries/XMCLib/src\xmc_usbd.c ****       /* load register data for endpoint */
 684:C:/Users/Yushev/git/optiga-trust-qi/projects/xmc4700_relax_kit/common/Libraries/XMCLib/src\xmc_usbd.c ****       ep = &xmc_device.ep[ep_num];
 685:C:/Users/Yushev/git/optiga-trust-qi/projects/xmc4700_relax_kit/common/Libraries/XMCLib/src\xmc_usbd.c ****       doepint.d32 = xmc_device.endpoint_out_register[ep_num]->doepint & doepmsk.d32;
 686:C:/Users/Yushev/git/optiga-trust-qi/projects/xmc4700_relax_kit/common/Libraries/XMCLib/src\xmc_usbd.c ****       if(obj->usbd_transfer_mode == XMC_USBD_USE_DMA)
 687:C:/Users/Yushev/git/optiga-trust-qi/projects/xmc4700_relax_kit/common/Libraries/XMCLib/src\xmc_usbd.c ****       {
 688:C:/Users/Yushev/git/optiga-trust-qi/projects/xmc4700_relax_kit/common/Libraries/XMCLib/src\xmc_usbd.c ****         doeptsiz.d32 = xmc_device.endpoint_out_register[ep_num]->doeptsiz;
 689:C:/Users/Yushev/git/optiga-trust-qi/projects/xmc4700_relax_kit/common/Libraries/XMCLib/src\xmc_usbd.c ****       }
 690:C:/Users/Yushev/git/optiga-trust-qi/projects/xmc4700_relax_kit/common/Libraries/XMCLib/src\xmc_usbd.c **** 	  /* Setup Phase Complete */
 691:C:/Users/Yushev/git/optiga-trust-qi/projects/xmc4700_relax_kit/common/Libraries/XMCLib/src\xmc_usbd.c ****       if (doepint.b.setup)
 692:C:/Users/Yushev/git/optiga-trust-qi/projects/xmc4700_relax_kit/common/Libraries/XMCLib/src\xmc_usbd.c ****       {
 693:C:/Users/Yushev/git/optiga-trust-qi/projects/xmc4700_relax_kit/common/Libraries/XMCLib/src\xmc_usbd.c ****         /* ep0 not stalled any more */
 694:C:/Users/Yushev/git/optiga-trust-qi/projects/xmc4700_relax_kit/common/Libraries/XMCLib/src\xmc_usbd.c ****         ep->isStalled = 0U;
 695:C:/Users/Yushev/git/optiga-trust-qi/projects/xmc4700_relax_kit/common/Libraries/XMCLib/src\xmc_usbd.c ****         if(obj->usbd_transfer_mode == XMC_USBD_USE_DMA)
 696:C:/Users/Yushev/git/optiga-trust-qi/projects/xmc4700_relax_kit/common/Libraries/XMCLib/src\xmc_usbd.c ****         {
 697:C:/Users/Yushev/git/optiga-trust-qi/projects/xmc4700_relax_kit/common/Libraries/XMCLib/src\xmc_usbd.c ****           /* calculate size for setup packet */
 698:C:/Users/Yushev/git/optiga-trust-qi/projects/xmc4700_relax_kit/common/Libraries/XMCLib/src\xmc_usbd.c **** 		  ep->outBytesAvailable = (uint32_t)(((uint32_t)XMC_USBD_SETUP_COUNT -
 699:C:/Users/Yushev/git/optiga-trust-qi/projects/xmc4700_relax_kit/common/Libraries/XMCLib/src\xmc_usbd.c **** 		  (uint32_t)((deptsiz0_data_t*)&doeptsiz)->b.supcnt)*(uint32_t)XMC_USBD_SETUP_SIZE);
 700:C:/Users/Yushev/git/optiga-trust-qi/projects/xmc4700_relax_kit/common/Libraries/XMCLib/src\xmc_usbd.c ****         }
 701:C:/Users/Yushev/git/optiga-trust-qi/projects/xmc4700_relax_kit/common/Libraries/XMCLib/src\xmc_usbd.c **** 		if(obj->usbd_transfer_mode == XMC_USBD_USE_FIFO)
 702:C:/Users/Yushev/git/optiga-trust-qi/projects/xmc4700_relax_kit/common/Libraries/XMCLib/src\xmc_usbd.c **** 		{
 703:C:/Users/Yushev/git/optiga-trust-qi/projects/xmc4700_relax_kit/common/Libraries/XMCLib/src\xmc_usbd.c **** 			ep->outBytesAvailable += ep->xferCount;
 704:C:/Users/Yushev/git/optiga-trust-qi/projects/xmc4700_relax_kit/common/Libraries/XMCLib/src\xmc_usbd.c **** 		}
 705:C:/Users/Yushev/git/optiga-trust-qi/projects/xmc4700_relax_kit/common/Libraries/XMCLib/src\xmc_usbd.c **** 		ep->outInUse = 0U;
 706:C:/Users/Yushev/git/optiga-trust-qi/projects/xmc4700_relax_kit/common/Libraries/XMCLib/src\xmc_usbd.c **** 		xmc_device.EndpointEvent_cb(0U,XMC_USBD_EP_EVENT_SETUP); /* signal endpoint event */
 707:C:/Users/Yushev/git/optiga-trust-qi/projects/xmc4700_relax_kit/common/Libraries/XMCLib/src\xmc_usbd.c **** 				/* clear the interrupt */
 708:C:/Users/Yushev/git/optiga-trust-qi/projects/xmc4700_relax_kit/common/Libraries/XMCLib/src\xmc_usbd.c **** 		XMC_USBD_ClearEventOUTEP((uint32_t)XMC_USBD_EVENT_OUT_EP_SETUP,ep_num);
 709:C:/Users/Yushev/git/optiga-trust-qi/projects/xmc4700_relax_kit/common/Libraries/XMCLib/src\xmc_usbd.c ****       }
 710:C:/Users/Yushev/git/optiga-trust-qi/projects/xmc4700_relax_kit/common/Libraries/XMCLib/src\xmc_usbd.c ****       if (doepint.b.xfercompl)
 711:C:/Users/Yushev/git/optiga-trust-qi/projects/xmc4700_relax_kit/common/Libraries/XMCLib/src\xmc_usbd.c ****       {
 712:C:/Users/Yushev/git/optiga-trust-qi/projects/xmc4700_relax_kit/common/Libraries/XMCLib/src\xmc_usbd.c ****         if(obj->usbd_transfer_mode == XMC_USBD_USE_DMA)
 713:C:/Users/Yushev/git/optiga-trust-qi/projects/xmc4700_relax_kit/common/Libraries/XMCLib/src\xmc_usbd.c ****         {
 714:C:/Users/Yushev/git/optiga-trust-qi/projects/xmc4700_relax_kit/common/Libraries/XMCLib/src\xmc_usbd.c ****           uint32_t bytes = (ep->xferLength - ep->xferCount) - doeptsiz.b.xfersize;
 715:C:/Users/Yushev/git/optiga-trust-qi/projects/xmc4700_relax_kit/common/Libraries/XMCLib/src\xmc_usbd.c ****           ep->xferCount += bytes;
 716:C:/Users/Yushev/git/optiga-trust-qi/projects/xmc4700_relax_kit/common/Libraries/XMCLib/src\xmc_usbd.c ****           ep->xferBuffer += bytes;
 717:C:/Users/Yushev/git/optiga-trust-qi/projects/xmc4700_relax_kit/common/Libraries/XMCLib/src\xmc_usbd.c **** 				}
 718:C:/Users/Yushev/git/optiga-trust-qi/projects/xmc4700_relax_kit/common/Libraries/XMCLib/src\xmc_usbd.c ****         if (ep->xferTotal == ep->xferLength)
 719:C:/Users/Yushev/git/optiga-trust-qi/projects/xmc4700_relax_kit/common/Libraries/XMCLib/src\xmc_usbd.c ****         {
 720:C:/Users/Yushev/git/optiga-trust-qi/projects/xmc4700_relax_kit/common/Libraries/XMCLib/src\xmc_usbd.c ****           ep->outBytesAvailable = ep->xferCount;
 721:C:/Users/Yushev/git/optiga-trust-qi/projects/xmc4700_relax_kit/common/Libraries/XMCLib/src\xmc_usbd.c ****           ep->outInUse = 0U;
 722:C:/Users/Yushev/git/optiga-trust-qi/projects/xmc4700_relax_kit/common/Libraries/XMCLib/src\xmc_usbd.c ****           xmc_device.EndpointEvent_cb(ep_num,XMC_USBD_EP_EVENT_OUT);
 723:C:/Users/Yushev/git/optiga-trust-qi/projects/xmc4700_relax_kit/common/Libraries/XMCLib/src\xmc_usbd.c ****         }
 724:C:/Users/Yushev/git/optiga-trust-qi/projects/xmc4700_relax_kit/common/Libraries/XMCLib/src\xmc_usbd.c ****         else
 725:C:/Users/Yushev/git/optiga-trust-qi/projects/xmc4700_relax_kit/common/Libraries/XMCLib/src\xmc_usbd.c ****         {
 726:C:/Users/Yushev/git/optiga-trust-qi/projects/xmc4700_relax_kit/common/Libraries/XMCLib/src\xmc_usbd.c ****           XMC_USBD_lStartReadXfer(ep);
 727:C:/Users/Yushev/git/optiga-trust-qi/projects/xmc4700_relax_kit/common/Libraries/XMCLib/src\xmc_usbd.c ****         }
 728:C:/Users/Yushev/git/optiga-trust-qi/projects/xmc4700_relax_kit/common/Libraries/XMCLib/src\xmc_usbd.c **** 
 729:C:/Users/Yushev/git/optiga-trust-qi/projects/xmc4700_relax_kit/common/Libraries/XMCLib/src\xmc_usbd.c ****       }
 730:C:/Users/Yushev/git/optiga-trust-qi/projects/xmc4700_relax_kit/common/Libraries/XMCLib/src\xmc_usbd.c **** 
 731:C:/Users/Yushev/git/optiga-trust-qi/projects/xmc4700_relax_kit/common/Libraries/XMCLib/src\xmc_usbd.c ****       XMC_USBD_ClearEventOUTEP(doepint.d32,ep_num);
 732:C:/Users/Yushev/git/optiga-trust-qi/projects/xmc4700_relax_kit/common/Libraries/XMCLib/src\xmc_usbd.c ****     }
 733:C:/Users/Yushev/git/optiga-trust-qi/projects/xmc4700_relax_kit/common/Libraries/XMCLib/src\xmc_usbd.c ****     ep_num++;
 734:C:/Users/Yushev/git/optiga-trust-qi/projects/xmc4700_relax_kit/common/Libraries/XMCLib/src\xmc_usbd.c ****   }
 735:C:/Users/Yushev/git/optiga-trust-qi/projects/xmc4700_relax_kit/common/Libraries/XMCLib/src\xmc_usbd.c **** 
 736:C:/Users/Yushev/git/optiga-trust-qi/projects/xmc4700_relax_kit/common/Libraries/XMCLib/src\xmc_usbd.c ****   /* clear interrupt */
 737:C:/Users/Yushev/git/optiga-trust-qi/projects/xmc4700_relax_kit/common/Libraries/XMCLib/src\xmc_usbd.c ****   XMC_USBD_ClearEvent(XMC_USBD_EVENT_OUTEP);
 738:C:/Users/Yushev/git/optiga-trust-qi/projects/xmc4700_relax_kit/common/Libraries/XMCLib/src\xmc_usbd.c **** }
 739:C:/Users/Yushev/git/optiga-trust-qi/projects/xmc4700_relax_kit/common/Libraries/XMCLib/src\xmc_usbd.c **** 
 740:C:/Users/Yushev/git/optiga-trust-qi/projects/xmc4700_relax_kit/common/Libraries/XMCLib/src\xmc_usbd.c **** /**
 741:C:/Users/Yushev/git/optiga-trust-qi/projects/xmc4700_relax_kit/common/Libraries/XMCLib/src\xmc_usbd.c ****  * @brief Handles all interrupts for all in endpoints
 742:C:/Users/Yushev/git/optiga-trust-qi/projects/xmc4700_relax_kit/common/Libraries/XMCLib/src\xmc_usbd.c ****  *
 743:C:/Users/Yushev/git/optiga-trust-qi/projects/xmc4700_relax_kit/common/Libraries/XMCLib/src\xmc_usbd.c ****  * The interrupt handler first checks, which endpoint has caused the interrupt and then
 744:C:/Users/Yushev/git/optiga-trust-qi/projects/xmc4700_relax_kit/common/Libraries/XMCLib/src\xmc_usbd.c ****  * determines, which interrupt should be handled.
 745:C:/Users/Yushev/git/optiga-trust-qi/projects/xmc4700_relax_kit/common/Libraries/XMCLib/src\xmc_usbd.c ****  */
 746:C:/Users/Yushev/git/optiga-trust-qi/projects/xmc4700_relax_kit/common/Libraries/XMCLib/src\xmc_usbd.c **** static void XMC_USBD_lHandleIEPInt(const XMC_USBD_t *const obj) 
 747:C:/Users/Yushev/git/optiga-trust-qi/projects/xmc4700_relax_kit/common/Libraries/XMCLib/src\xmc_usbd.c **** {
 748:C:/Users/Yushev/git/optiga-trust-qi/projects/xmc4700_relax_kit/common/Libraries/XMCLib/src\xmc_usbd.c ****   XMC_USBD_EP_t *ep;
 749:C:/Users/Yushev/git/optiga-trust-qi/projects/xmc4700_relax_kit/common/Libraries/XMCLib/src\xmc_usbd.c ****   daint_data_t daint;
 750:C:/Users/Yushev/git/optiga-trust-qi/projects/xmc4700_relax_kit/common/Libraries/XMCLib/src\xmc_usbd.c ****   diepmsk_data_t diepmsk;
 751:C:/Users/Yushev/git/optiga-trust-qi/projects/xmc4700_relax_kit/common/Libraries/XMCLib/src\xmc_usbd.c ****   diepint_data_t diepint;
 752:C:/Users/Yushev/git/optiga-trust-qi/projects/xmc4700_relax_kit/common/Libraries/XMCLib/src\xmc_usbd.c ****   deptsiz_data_t dieptsiz;
 753:C:/Users/Yushev/git/optiga-trust-qi/projects/xmc4700_relax_kit/common/Libraries/XMCLib/src\xmc_usbd.c ****   uint16_t temp;
 754:C:/Users/Yushev/git/optiga-trust-qi/projects/xmc4700_relax_kit/common/Libraries/XMCLib/src\xmc_usbd.c ****   uint16_t temp1;
 755:C:/Users/Yushev/git/optiga-trust-qi/projects/xmc4700_relax_kit/common/Libraries/XMCLib/src\xmc_usbd.c ****   uint16_t mask;
 756:C:/Users/Yushev/git/optiga-trust-qi/projects/xmc4700_relax_kit/common/Libraries/XMCLib/src\xmc_usbd.c ****   uint8_t ep_num;
 757:C:/Users/Yushev/git/optiga-trust-qi/projects/xmc4700_relax_kit/common/Libraries/XMCLib/src\xmc_usbd.c ****   uint32_t inepint;
 758:C:/Users/Yushev/git/optiga-trust-qi/projects/xmc4700_relax_kit/common/Libraries/XMCLib/src\xmc_usbd.c **** 	
 759:C:/Users/Yushev/git/optiga-trust-qi/projects/xmc4700_relax_kit/common/Libraries/XMCLib/src\xmc_usbd.c ****   daint.d32 = xmc_device.device_register->daint;
 760:C:/Users/Yushev/git/optiga-trust-qi/projects/xmc4700_relax_kit/common/Libraries/XMCLib/src\xmc_usbd.c ****   
 761:C:/Users/Yushev/git/optiga-trust-qi/projects/xmc4700_relax_kit/common/Libraries/XMCLib/src\xmc_usbd.c ****   diepmsk.d32 = xmc_device.device_register->diepmsk;
 762:C:/Users/Yushev/git/optiga-trust-qi/projects/xmc4700_relax_kit/common/Libraries/XMCLib/src\xmc_usbd.c ****   
 763:C:/Users/Yushev/git/optiga-trust-qi/projects/xmc4700_relax_kit/common/Libraries/XMCLib/src\xmc_usbd.c ****   dieptsiz.d32 = 0U;
 764:C:/Users/Yushev/git/optiga-trust-qi/projects/xmc4700_relax_kit/common/Libraries/XMCLib/src\xmc_usbd.c ****   mask = daint.ep.in;
 765:C:/Users/Yushev/git/optiga-trust-qi/projects/xmc4700_relax_kit/common/Libraries/XMCLib/src\xmc_usbd.c ****   ep_num = 0U;
 766:C:/Users/Yushev/git/optiga-trust-qi/projects/xmc4700_relax_kit/common/Libraries/XMCLib/src\xmc_usbd.c ****   
 767:C:/Users/Yushev/git/optiga-trust-qi/projects/xmc4700_relax_kit/common/Libraries/XMCLib/src\xmc_usbd.c ****   while ((uint16_t)mask >> ep_num)
 768:C:/Users/Yushev/git/optiga-trust-qi/projects/xmc4700_relax_kit/common/Libraries/XMCLib/src\xmc_usbd.c ****   {
 769:C:/Users/Yushev/git/optiga-trust-qi/projects/xmc4700_relax_kit/common/Libraries/XMCLib/src\xmc_usbd.c ****     temp1 = ((uint16_t)mask >> (uint16_t)ep_num);
 770:C:/Users/Yushev/git/optiga-trust-qi/projects/xmc4700_relax_kit/common/Libraries/XMCLib/src\xmc_usbd.c ****     temp = (uint16_t)temp1 & (uint16_t)0x1U;
 771:C:/Users/Yushev/git/optiga-trust-qi/projects/xmc4700_relax_kit/common/Libraries/XMCLib/src\xmc_usbd.c ****     if ((uint16_t)temp)
 772:C:/Users/Yushev/git/optiga-trust-qi/projects/xmc4700_relax_kit/common/Libraries/XMCLib/src\xmc_usbd.c ****     {
 773:C:/Users/Yushev/git/optiga-trust-qi/projects/xmc4700_relax_kit/common/Libraries/XMCLib/src\xmc_usbd.c ****       ep = &xmc_device.ep[ep_num];
 774:C:/Users/Yushev/git/optiga-trust-qi/projects/xmc4700_relax_kit/common/Libraries/XMCLib/src\xmc_usbd.c **** 			inepint = (uint32_t)xmc_device.endpoint_in_register[ep_num]->diepint;
 775:C:/Users/Yushev/git/optiga-trust-qi/projects/xmc4700_relax_kit/common/Libraries/XMCLib/src\xmc_usbd.c ****       diepint.d32 = inepint &
 776:C:/Users/Yushev/git/optiga-trust-qi/projects/xmc4700_relax_kit/common/Libraries/XMCLib/src\xmc_usbd.c ****       ((((uint32_t)((uint32_t)xmc_device.device_register->dtknqr4_fifoemptymsk >> ep->address_u.add
 777:C:/Users/Yushev/git/optiga-trust-qi/projects/xmc4700_relax_kit/common/Libraries/XMCLib/src\xmc_usbd.c ****                      0x1U) << 7U) | (uint32_t)diepmsk.d32);
 778:C:/Users/Yushev/git/optiga-trust-qi/projects/xmc4700_relax_kit/common/Libraries/XMCLib/src\xmc_usbd.c ****       if(obj->usbd_transfer_mode == XMC_USBD_USE_DMA)
 779:C:/Users/Yushev/git/optiga-trust-qi/projects/xmc4700_relax_kit/common/Libraries/XMCLib/src\xmc_usbd.c ****       {
 780:C:/Users/Yushev/git/optiga-trust-qi/projects/xmc4700_relax_kit/common/Libraries/XMCLib/src\xmc_usbd.c ****         dieptsiz.d32 = xmc_device.endpoint_in_register[ep_num]->dieptsiz;
 781:C:/Users/Yushev/git/optiga-trust-qi/projects/xmc4700_relax_kit/common/Libraries/XMCLib/src\xmc_usbd.c ****       }
 782:C:/Users/Yushev/git/optiga-trust-qi/projects/xmc4700_relax_kit/common/Libraries/XMCLib/src\xmc_usbd.c ****       if(obj->usbd_transfer_mode == XMC_USBD_USE_FIFO)
 783:C:/Users/Yushev/git/optiga-trust-qi/projects/xmc4700_relax_kit/common/Libraries/XMCLib/src\xmc_usbd.c ****       {
 784:C:/Users/Yushev/git/optiga-trust-qi/projects/xmc4700_relax_kit/common/Libraries/XMCLib/src\xmc_usbd.c ****         if (diepint.b.emptyintr)
 785:C:/Users/Yushev/git/optiga-trust-qi/projects/xmc4700_relax_kit/common/Libraries/XMCLib/src\xmc_usbd.c ****         {
 786:C:/Users/Yushev/git/optiga-trust-qi/projects/xmc4700_relax_kit/common/Libraries/XMCLib/src\xmc_usbd.c ****           uint32_t bytes;
 787:C:/Users/Yushev/git/optiga-trust-qi/projects/xmc4700_relax_kit/common/Libraries/XMCLib/src\xmc_usbd.c ****           bytes = XMC_USBD_lWriteFifo(ep);
 788:C:/Users/Yushev/git/optiga-trust-qi/projects/xmc4700_relax_kit/common/Libraries/XMCLib/src\xmc_usbd.c ****           ep->xferCount += bytes;
 789:C:/Users/Yushev/git/optiga-trust-qi/projects/xmc4700_relax_kit/common/Libraries/XMCLib/src\xmc_usbd.c ****           ep->xferBuffer += bytes;
 790:C:/Users/Yushev/git/optiga-trust-qi/projects/xmc4700_relax_kit/common/Libraries/XMCLib/src\xmc_usbd.c ****         }
 791:C:/Users/Yushev/git/optiga-trust-qi/projects/xmc4700_relax_kit/common/Libraries/XMCLib/src\xmc_usbd.c ****       }
 792:C:/Users/Yushev/git/optiga-trust-qi/projects/xmc4700_relax_kit/common/Libraries/XMCLib/src\xmc_usbd.c ****       if (diepint.b.xfercompl)
 793:C:/Users/Yushev/git/optiga-trust-qi/projects/xmc4700_relax_kit/common/Libraries/XMCLib/src\xmc_usbd.c ****       {
 794:C:/Users/Yushev/git/optiga-trust-qi/projects/xmc4700_relax_kit/common/Libraries/XMCLib/src\xmc_usbd.c ****         if(obj->usbd_transfer_mode == XMC_USBD_USE_DMA)
 795:C:/Users/Yushev/git/optiga-trust-qi/projects/xmc4700_relax_kit/common/Libraries/XMCLib/src\xmc_usbd.c ****         {
 796:C:/Users/Yushev/git/optiga-trust-qi/projects/xmc4700_relax_kit/common/Libraries/XMCLib/src\xmc_usbd.c ****           /* update xfer values */
 797:C:/Users/Yushev/git/optiga-trust-qi/projects/xmc4700_relax_kit/common/Libraries/XMCLib/src\xmc_usbd.c ****           if ((dieptsiz.b.pktcnt == 0U) && (dieptsiz.b.xfersize == 0U))
 798:C:/Users/Yushev/git/optiga-trust-qi/projects/xmc4700_relax_kit/common/Libraries/XMCLib/src\xmc_usbd.c ****           {
 799:C:/Users/Yushev/git/optiga-trust-qi/projects/xmc4700_relax_kit/common/Libraries/XMCLib/src\xmc_usbd.c ****             uint32_t Bytes = ep->xferLength - ep->xferCount;
 800:C:/Users/Yushev/git/optiga-trust-qi/projects/xmc4700_relax_kit/common/Libraries/XMCLib/src\xmc_usbd.c ****             ep->xferCount += Bytes;
 801:C:/Users/Yushev/git/optiga-trust-qi/projects/xmc4700_relax_kit/common/Libraries/XMCLib/src\xmc_usbd.c ****             ep->xferBuffer += Bytes;
 802:C:/Users/Yushev/git/optiga-trust-qi/projects/xmc4700_relax_kit/common/Libraries/XMCLib/src\xmc_usbd.c ****           }
 803:C:/Users/Yushev/git/optiga-trust-qi/projects/xmc4700_relax_kit/common/Libraries/XMCLib/src\xmc_usbd.c ****         }
 804:C:/Users/Yushev/git/optiga-trust-qi/projects/xmc4700_relax_kit/common/Libraries/XMCLib/src\xmc_usbd.c ****         if (ep->xferTotal==ep->xferLength)
 805:C:/Users/Yushev/git/optiga-trust-qi/projects/xmc4700_relax_kit/common/Libraries/XMCLib/src\xmc_usbd.c ****         {
 806:C:/Users/Yushev/git/optiga-trust-qi/projects/xmc4700_relax_kit/common/Libraries/XMCLib/src\xmc_usbd.c ****           ep->inInUse = 0U;
 807:C:/Users/Yushev/git/optiga-trust-qi/projects/xmc4700_relax_kit/common/Libraries/XMCLib/src\xmc_usbd.c ****           if(obj->usbd_transfer_mode == XMC_USBD_USE_FIFO)
 808:C:/Users/Yushev/git/optiga-trust-qi/projects/xmc4700_relax_kit/common/Libraries/XMCLib/src\xmc_usbd.c ****           {
 809:C:/Users/Yushev/git/optiga-trust-qi/projects/xmc4700_relax_kit/common/Libraries/XMCLib/src\xmc_usbd.c ****             /* mask fifo empty interrupt */
 810:C:/Users/Yushev/git/optiga-trust-qi/projects/xmc4700_relax_kit/common/Libraries/XMCLib/src\xmc_usbd.c ****             xmc_device.device_register->dtknqr4_fifoemptymsk =
 811:C:/Users/Yushev/git/optiga-trust-qi/projects/xmc4700_relax_kit/common/Libraries/XMCLib/src\xmc_usbd.c ****             (uint32_t)(xmc_device.device_register->dtknqr4_fifoemptymsk & ~(((uint32_t)1U << ep_num
 812:C:/Users/Yushev/git/optiga-trust-qi/projects/xmc4700_relax_kit/common/Libraries/XMCLib/src\xmc_usbd.c ****           }
 813:C:/Users/Yushev/git/optiga-trust-qi/projects/xmc4700_relax_kit/common/Libraries/XMCLib/src\xmc_usbd.c ****           xmc_device.EndpointEvent_cb(0x80U | ep_num,XMC_USBD_EP_EVENT_IN);
 814:C:/Users/Yushev/git/optiga-trust-qi/projects/xmc4700_relax_kit/common/Libraries/XMCLib/src\xmc_usbd.c ****         }
 815:C:/Users/Yushev/git/optiga-trust-qi/projects/xmc4700_relax_kit/common/Libraries/XMCLib/src\xmc_usbd.c ****         else
 816:C:/Users/Yushev/git/optiga-trust-qi/projects/xmc4700_relax_kit/common/Libraries/XMCLib/src\xmc_usbd.c ****         {
 817:C:/Users/Yushev/git/optiga-trust-qi/projects/xmc4700_relax_kit/common/Libraries/XMCLib/src\xmc_usbd.c ****           /* start next step of transfer */
 818:C:/Users/Yushev/git/optiga-trust-qi/projects/xmc4700_relax_kit/common/Libraries/XMCLib/src\xmc_usbd.c ****           XMC_USBD_lStartWriteXfer(ep);
 819:C:/Users/Yushev/git/optiga-trust-qi/projects/xmc4700_relax_kit/common/Libraries/XMCLib/src\xmc_usbd.c ****         }
 820:C:/Users/Yushev/git/optiga-trust-qi/projects/xmc4700_relax_kit/common/Libraries/XMCLib/src\xmc_usbd.c **** 
 821:C:/Users/Yushev/git/optiga-trust-qi/projects/xmc4700_relax_kit/common/Libraries/XMCLib/src\xmc_usbd.c ****       }
 822:C:/Users/Yushev/git/optiga-trust-qi/projects/xmc4700_relax_kit/common/Libraries/XMCLib/src\xmc_usbd.c **** 
 823:C:/Users/Yushev/git/optiga-trust-qi/projects/xmc4700_relax_kit/common/Libraries/XMCLib/src\xmc_usbd.c ****       XMC_USBD_ClearEventINEP((uint32_t)diepint.d32,ep_num);
 824:C:/Users/Yushev/git/optiga-trust-qi/projects/xmc4700_relax_kit/common/Libraries/XMCLib/src\xmc_usbd.c ****     }
 825:C:/Users/Yushev/git/optiga-trust-qi/projects/xmc4700_relax_kit/common/Libraries/XMCLib/src\xmc_usbd.c ****     ep_num++;
 826:C:/Users/Yushev/git/optiga-trust-qi/projects/xmc4700_relax_kit/common/Libraries/XMCLib/src\xmc_usbd.c ****   }
 827:C:/Users/Yushev/git/optiga-trust-qi/projects/xmc4700_relax_kit/common/Libraries/XMCLib/src\xmc_usbd.c ****   XMC_USBD_ClearEvent(XMC_USBD_EVENT_INEP);
 828:C:/Users/Yushev/git/optiga-trust-qi/projects/xmc4700_relax_kit/common/Libraries/XMCLib/src\xmc_usbd.c **** }
 829:C:/Users/Yushev/git/optiga-trust-qi/projects/xmc4700_relax_kit/common/Libraries/XMCLib/src\xmc_usbd.c **** 
 830:C:/Users/Yushev/git/optiga-trust-qi/projects/xmc4700_relax_kit/common/Libraries/XMCLib/src\xmc_usbd.c **** /**
 831:C:/Users/Yushev/git/optiga-trust-qi/projects/xmc4700_relax_kit/common/Libraries/XMCLib/src\xmc_usbd.c ****  * @brief RX Fifo interrupt handler
 832:C:/Users/Yushev/git/optiga-trust-qi/projects/xmc4700_relax_kit/common/Libraries/XMCLib/src\xmc_usbd.c ****  *
 833:C:/Users/Yushev/git/optiga-trust-qi/projects/xmc4700_relax_kit/common/Libraries/XMCLib/src\xmc_usbd.c ****  * This function handles the interrupt, when the rx fifo is not empty anymore.
 834:C:/Users/Yushev/git/optiga-trust-qi/projects/xmc4700_relax_kit/common/Libraries/XMCLib/src\xmc_usbd.c ****  */
 835:C:/Users/Yushev/git/optiga-trust-qi/projects/xmc4700_relax_kit/common/Libraries/XMCLib/src\xmc_usbd.c **** static void XMC_USBD_lHandleRxFLvl(void) 
 836:C:/Users/Yushev/git/optiga-trust-qi/projects/xmc4700_relax_kit/common/Libraries/XMCLib/src\xmc_usbd.c **** {
 837:C:/Users/Yushev/git/optiga-trust-qi/projects/xmc4700_relax_kit/common/Libraries/XMCLib/src\xmc_usbd.c ****   device_grxsts_data_t data;	
 838:C:/Users/Yushev/git/optiga-trust-qi/projects/xmc4700_relax_kit/common/Libraries/XMCLib/src\xmc_usbd.c ****   data.d32 = xmc_device.global_register->grxstsp;
 839:C:/Users/Yushev/git/optiga-trust-qi/projects/xmc4700_relax_kit/common/Libraries/XMCLib/src\xmc_usbd.c **** 
 840:C:/Users/Yushev/git/optiga-trust-qi/projects/xmc4700_relax_kit/common/Libraries/XMCLib/src\xmc_usbd.c ****   switch (data.b.pktsts)
 841:C:/Users/Yushev/git/optiga-trust-qi/projects/xmc4700_relax_kit/common/Libraries/XMCLib/src\xmc_usbd.c **** 	{
 842:C:/Users/Yushev/git/optiga-trust-qi/projects/xmc4700_relax_kit/common/Libraries/XMCLib/src\xmc_usbd.c ****     case XMC_USBD_GRXSTS_PKTSTS_GOUTNAK:
 843:C:/Users/Yushev/git/optiga-trust-qi/projects/xmc4700_relax_kit/common/Libraries/XMCLib/src\xmc_usbd.c ****       break;
 844:C:/Users/Yushev/git/optiga-trust-qi/projects/xmc4700_relax_kit/common/Libraries/XMCLib/src\xmc_usbd.c ****     case XMC_USBD_GRXSTS_PKTSTS_OUTCMPL:
 845:C:/Users/Yushev/git/optiga-trust-qi/projects/xmc4700_relax_kit/common/Libraries/XMCLib/src\xmc_usbd.c ****       break;
 846:C:/Users/Yushev/git/optiga-trust-qi/projects/xmc4700_relax_kit/common/Libraries/XMCLib/src\xmc_usbd.c ****     case XMC_USBD_GRXSTS_PKTSTS_OUTDATA:
 847:C:/Users/Yushev/git/optiga-trust-qi/projects/xmc4700_relax_kit/common/Libraries/XMCLib/src\xmc_usbd.c ****       XMC_USBD_lReadFifo((uint32_t)data.b.epnum,(uint32_t)data.b.bcnt);
 848:C:/Users/Yushev/git/optiga-trust-qi/projects/xmc4700_relax_kit/common/Libraries/XMCLib/src\xmc_usbd.c ****       break;
 849:C:/Users/Yushev/git/optiga-trust-qi/projects/xmc4700_relax_kit/common/Libraries/XMCLib/src\xmc_usbd.c ****     case XMC_USBD_GRXSTS_PKTSTS_SETUP:
 850:C:/Users/Yushev/git/optiga-trust-qi/projects/xmc4700_relax_kit/common/Libraries/XMCLib/src\xmc_usbd.c ****       XMC_USBD_lReadFifo((uint32_t)data.b.epnum,(uint32_t)data.b.bcnt);
 851:C:/Users/Yushev/git/optiga-trust-qi/projects/xmc4700_relax_kit/common/Libraries/XMCLib/src\xmc_usbd.c ****       break;
 852:C:/Users/Yushev/git/optiga-trust-qi/projects/xmc4700_relax_kit/common/Libraries/XMCLib/src\xmc_usbd.c ****     case XMC_USBD_GRXSTS_PKTSTS_SETUPCMPL:
 853:C:/Users/Yushev/git/optiga-trust-qi/projects/xmc4700_relax_kit/common/Libraries/XMCLib/src\xmc_usbd.c ****       break;
 854:C:/Users/Yushev/git/optiga-trust-qi/projects/xmc4700_relax_kit/common/Libraries/XMCLib/src\xmc_usbd.c ****     default:
 855:C:/Users/Yushev/git/optiga-trust-qi/projects/xmc4700_relax_kit/common/Libraries/XMCLib/src\xmc_usbd.c ****       break;
 856:C:/Users/Yushev/git/optiga-trust-qi/projects/xmc4700_relax_kit/common/Libraries/XMCLib/src\xmc_usbd.c **** 	}
 857:C:/Users/Yushev/git/optiga-trust-qi/projects/xmc4700_relax_kit/common/Libraries/XMCLib/src\xmc_usbd.c ****   /* no need to clear */
 858:C:/Users/Yushev/git/optiga-trust-qi/projects/xmc4700_relax_kit/common/Libraries/XMCLib/src\xmc_usbd.c **** }
 859:C:/Users/Yushev/git/optiga-trust-qi/projects/xmc4700_relax_kit/common/Libraries/XMCLib/src\xmc_usbd.c **** 
 860:C:/Users/Yushev/git/optiga-trust-qi/projects/xmc4700_relax_kit/common/Libraries/XMCLib/src\xmc_usbd.c **** /**
 861:C:/Users/Yushev/git/optiga-trust-qi/projects/xmc4700_relax_kit/common/Libraries/XMCLib/src\xmc_usbd.c ****  * @brief Global interrupt handler
 862:C:/Users/Yushev/git/optiga-trust-qi/projects/xmc4700_relax_kit/common/Libraries/XMCLib/src\xmc_usbd.c ****  *
 863:C:/Users/Yushev/git/optiga-trust-qi/projects/xmc4700_relax_kit/common/Libraries/XMCLib/src\xmc_usbd.c ****  * The handler first checks, which global interrupt has caused the interrupt
 864:C:/Users/Yushev/git/optiga-trust-qi/projects/xmc4700_relax_kit/common/Libraries/XMCLib/src\xmc_usbd.c ****  * and then dispatches interrupt to the corresponding sub-handler.
 865:C:/Users/Yushev/git/optiga-trust-qi/projects/xmc4700_relax_kit/common/Libraries/XMCLib/src\xmc_usbd.c ****  */
 866:C:/Users/Yushev/git/optiga-trust-qi/projects/xmc4700_relax_kit/common/Libraries/XMCLib/src\xmc_usbd.c **** void XMC_USBD_IRQHandler(const XMC_USBD_t *const obj) 
 867:C:/Users/Yushev/git/optiga-trust-qi/projects/xmc4700_relax_kit/common/Libraries/XMCLib/src\xmc_usbd.c **** {
 868:C:/Users/Yushev/git/optiga-trust-qi/projects/xmc4700_relax_kit/common/Libraries/XMCLib/src\xmc_usbd.c ****   gintmsk_data_t gintmsk;
 869:C:/Users/Yushev/git/optiga-trust-qi/projects/xmc4700_relax_kit/common/Libraries/XMCLib/src\xmc_usbd.c ****   gintsts_data_t data;
 870:C:/Users/Yushev/git/optiga-trust-qi/projects/xmc4700_relax_kit/common/Libraries/XMCLib/src\xmc_usbd.c **** 	
 871:C:/Users/Yushev/git/optiga-trust-qi/projects/xmc4700_relax_kit/common/Libraries/XMCLib/src\xmc_usbd.c ****   gintmsk.d32 = xmc_device.global_register->gintmsk;
 872:C:/Users/Yushev/git/optiga-trust-qi/projects/xmc4700_relax_kit/common/Libraries/XMCLib/src\xmc_usbd.c ****   data.d32 = xmc_device.global_register->gintsts & gintmsk.d32;
 873:C:/Users/Yushev/git/optiga-trust-qi/projects/xmc4700_relax_kit/common/Libraries/XMCLib/src\xmc_usbd.c **** 	
 874:C:/Users/Yushev/git/optiga-trust-qi/projects/xmc4700_relax_kit/common/Libraries/XMCLib/src\xmc_usbd.c ****   if (data.b.sofintr)
 875:C:/Users/Yushev/git/optiga-trust-qi/projects/xmc4700_relax_kit/common/Libraries/XMCLib/src\xmc_usbd.c ****   {
 876:C:/Users/Yushev/git/optiga-trust-qi/projects/xmc4700_relax_kit/common/Libraries/XMCLib/src\xmc_usbd.c ****     xmc_device.DeviceEvent_cb(XMC_USBD_EVENT_SOF);
 877:C:/Users/Yushev/git/optiga-trust-qi/projects/xmc4700_relax_kit/common/Libraries/XMCLib/src\xmc_usbd.c ****     XMC_USBD_ClearEvent(XMC_USBD_EVENT_SOF);
 878:C:/Users/Yushev/git/optiga-trust-qi/projects/xmc4700_relax_kit/common/Libraries/XMCLib/src\xmc_usbd.c ****   }
 879:C:/Users/Yushev/git/optiga-trust-qi/projects/xmc4700_relax_kit/common/Libraries/XMCLib/src\xmc_usbd.c ****   if(obj->usbd_transfer_mode == XMC_USBD_USE_FIFO)
 880:C:/Users/Yushev/git/optiga-trust-qi/projects/xmc4700_relax_kit/common/Libraries/XMCLib/src\xmc_usbd.c ****   {
 881:C:/Users/Yushev/git/optiga-trust-qi/projects/xmc4700_relax_kit/common/Libraries/XMCLib/src\xmc_usbd.c ****     if (data.b.rxstsqlvl)
 882:C:/Users/Yushev/git/optiga-trust-qi/projects/xmc4700_relax_kit/common/Libraries/XMCLib/src\xmc_usbd.c ****     {
 883:C:/Users/Yushev/git/optiga-trust-qi/projects/xmc4700_relax_kit/common/Libraries/XMCLib/src\xmc_usbd.c ****       /* Masked that interrupt so its only done once */
 884:C:/Users/Yushev/git/optiga-trust-qi/projects/xmc4700_relax_kit/common/Libraries/XMCLib/src\xmc_usbd.c ****       gintmsk.b.rxstsqlvl = 0U;
 885:C:/Users/Yushev/git/optiga-trust-qi/projects/xmc4700_relax_kit/common/Libraries/XMCLib/src\xmc_usbd.c ****       xmc_device.global_register->gintmsk = gintmsk.d32;
 886:C:/Users/Yushev/git/optiga-trust-qi/projects/xmc4700_relax_kit/common/Libraries/XMCLib/src\xmc_usbd.c ****       XMC_USBD_lHandleRxFLvl(); /* handle the interrupt */
 887:C:/Users/Yushev/git/optiga-trust-qi/projects/xmc4700_relax_kit/common/Libraries/XMCLib/src\xmc_usbd.c ****       gintmsk.b.rxstsqlvl = 1U;
 888:C:/Users/Yushev/git/optiga-trust-qi/projects/xmc4700_relax_kit/common/Libraries/XMCLib/src\xmc_usbd.c ****       xmc_device.global_register->gintmsk = gintmsk.d32;
 889:C:/Users/Yushev/git/optiga-trust-qi/projects/xmc4700_relax_kit/common/Libraries/XMCLib/src\xmc_usbd.c ****     }
 890:C:/Users/Yushev/git/optiga-trust-qi/projects/xmc4700_relax_kit/common/Libraries/XMCLib/src\xmc_usbd.c ****   }
 891:C:/Users/Yushev/git/optiga-trust-qi/projects/xmc4700_relax_kit/common/Libraries/XMCLib/src\xmc_usbd.c ****   if (data.b.erlysuspend)
 892:C:/Users/Yushev/git/optiga-trust-qi/projects/xmc4700_relax_kit/common/Libraries/XMCLib/src\xmc_usbd.c ****   {
 893:C:/Users/Yushev/git/optiga-trust-qi/projects/xmc4700_relax_kit/common/Libraries/XMCLib/src\xmc_usbd.c ****     XMC_USBD_ClearEvent(XMC_USBD_EVENT_EARLYSUSPEND);
 894:C:/Users/Yushev/git/optiga-trust-qi/projects/xmc4700_relax_kit/common/Libraries/XMCLib/src\xmc_usbd.c ****   }
 895:C:/Users/Yushev/git/optiga-trust-qi/projects/xmc4700_relax_kit/common/Libraries/XMCLib/src\xmc_usbd.c ****   if (data.b.usbsuspend)
 896:C:/Users/Yushev/git/optiga-trust-qi/projects/xmc4700_relax_kit/common/Libraries/XMCLib/src\xmc_usbd.c ****   {
 897:C:/Users/Yushev/git/optiga-trust-qi/projects/xmc4700_relax_kit/common/Libraries/XMCLib/src\xmc_usbd.c ****     xmc_device.DeviceEvent_cb(XMC_USBD_EVENT_SUSPEND);
 898:C:/Users/Yushev/git/optiga-trust-qi/projects/xmc4700_relax_kit/common/Libraries/XMCLib/src\xmc_usbd.c ****     XMC_USBD_ClearEvent(XMC_USBD_EVENT_SUSPEND);
 899:C:/Users/Yushev/git/optiga-trust-qi/projects/xmc4700_relax_kit/common/Libraries/XMCLib/src\xmc_usbd.c ****   }
 900:C:/Users/Yushev/git/optiga-trust-qi/projects/xmc4700_relax_kit/common/Libraries/XMCLib/src\xmc_usbd.c ****   if (data.b.wkupintr)
 901:C:/Users/Yushev/git/optiga-trust-qi/projects/xmc4700_relax_kit/common/Libraries/XMCLib/src\xmc_usbd.c ****   {
 902:C:/Users/Yushev/git/optiga-trust-qi/projects/xmc4700_relax_kit/common/Libraries/XMCLib/src\xmc_usbd.c ****     xmc_device.DeviceEvent_cb(XMC_USBD_EVENT_REMOTE_WAKEUP);
 903:C:/Users/Yushev/git/optiga-trust-qi/projects/xmc4700_relax_kit/common/Libraries/XMCLib/src\xmc_usbd.c ****     XMC_USBD_ClearEvent(XMC_USBD_EVENT_REMOTE_WAKEUP);
 904:C:/Users/Yushev/git/optiga-trust-qi/projects/xmc4700_relax_kit/common/Libraries/XMCLib/src\xmc_usbd.c ****   }
 905:C:/Users/Yushev/git/optiga-trust-qi/projects/xmc4700_relax_kit/common/Libraries/XMCLib/src\xmc_usbd.c ****   if (data.b.sessreqintr)
 906:C:/Users/Yushev/git/optiga-trust-qi/projects/xmc4700_relax_kit/common/Libraries/XMCLib/src\xmc_usbd.c ****   {
 907:C:/Users/Yushev/git/optiga-trust-qi/projects/xmc4700_relax_kit/common/Libraries/XMCLib/src\xmc_usbd.c ****     xmc_device.IsPowered = 1U;
 908:C:/Users/Yushev/git/optiga-trust-qi/projects/xmc4700_relax_kit/common/Libraries/XMCLib/src\xmc_usbd.c ****     xmc_device.DeviceEvent_cb(XMC_USBD_EVENT_POWER_ON);
 909:C:/Users/Yushev/git/optiga-trust-qi/projects/xmc4700_relax_kit/common/Libraries/XMCLib/src\xmc_usbd.c ****     XMC_USBD_ClearEvent(XMC_USBD_EVENT_POWER_ON);
 910:C:/Users/Yushev/git/optiga-trust-qi/projects/xmc4700_relax_kit/common/Libraries/XMCLib/src\xmc_usbd.c ****   }
 911:C:/Users/Yushev/git/optiga-trust-qi/projects/xmc4700_relax_kit/common/Libraries/XMCLib/src\xmc_usbd.c ****   if (data.b.usbreset)
 912:C:/Users/Yushev/git/optiga-trust-qi/projects/xmc4700_relax_kit/common/Libraries/XMCLib/src\xmc_usbd.c ****   {
 913:C:/Users/Yushev/git/optiga-trust-qi/projects/xmc4700_relax_kit/common/Libraries/XMCLib/src\xmc_usbd.c ****     XMC_USBD_lHandleUSBReset(obj);
 914:C:/Users/Yushev/git/optiga-trust-qi/projects/xmc4700_relax_kit/common/Libraries/XMCLib/src\xmc_usbd.c ****   }
 915:C:/Users/Yushev/git/optiga-trust-qi/projects/xmc4700_relax_kit/common/Libraries/XMCLib/src\xmc_usbd.c ****   if (data.b.enumdone)
 916:C:/Users/Yushev/git/optiga-trust-qi/projects/xmc4700_relax_kit/common/Libraries/XMCLib/src\xmc_usbd.c ****   {
 917:C:/Users/Yushev/git/optiga-trust-qi/projects/xmc4700_relax_kit/common/Libraries/XMCLib/src\xmc_usbd.c ****     XMC_USBD_lHandleEnumDone();
 918:C:/Users/Yushev/git/optiga-trust-qi/projects/xmc4700_relax_kit/common/Libraries/XMCLib/src\xmc_usbd.c ****   }
 919:C:/Users/Yushev/git/optiga-trust-qi/projects/xmc4700_relax_kit/common/Libraries/XMCLib/src\xmc_usbd.c ****   if (data.b.inepint)
 920:C:/Users/Yushev/git/optiga-trust-qi/projects/xmc4700_relax_kit/common/Libraries/XMCLib/src\xmc_usbd.c ****   {
 921:C:/Users/Yushev/git/optiga-trust-qi/projects/xmc4700_relax_kit/common/Libraries/XMCLib/src\xmc_usbd.c ****     XMC_USBD_lHandleIEPInt(obj);
 922:C:/Users/Yushev/git/optiga-trust-qi/projects/xmc4700_relax_kit/common/Libraries/XMCLib/src\xmc_usbd.c ****   }
 923:C:/Users/Yushev/git/optiga-trust-qi/projects/xmc4700_relax_kit/common/Libraries/XMCLib/src\xmc_usbd.c ****   if (data.b.outepintr)
 924:C:/Users/Yushev/git/optiga-trust-qi/projects/xmc4700_relax_kit/common/Libraries/XMCLib/src\xmc_usbd.c ****   {
 925:C:/Users/Yushev/git/optiga-trust-qi/projects/xmc4700_relax_kit/common/Libraries/XMCLib/src\xmc_usbd.c **** 		XMC_USBD_lHandleOEPInt(obj);
 926:C:/Users/Yushev/git/optiga-trust-qi/projects/xmc4700_relax_kit/common/Libraries/XMCLib/src\xmc_usbd.c ****   }
 927:C:/Users/Yushev/git/optiga-trust-qi/projects/xmc4700_relax_kit/common/Libraries/XMCLib/src\xmc_usbd.c **** 	if (data.b.otgintr)
 928:C:/Users/Yushev/git/optiga-trust-qi/projects/xmc4700_relax_kit/common/Libraries/XMCLib/src\xmc_usbd.c ****   {
 929:C:/Users/Yushev/git/optiga-trust-qi/projects/xmc4700_relax_kit/common/Libraries/XMCLib/src\xmc_usbd.c **** 	  XMC_USBD_lHandleOTGInt();
 930:C:/Users/Yushev/git/optiga-trust-qi/projects/xmc4700_relax_kit/common/Libraries/XMCLib/src\xmc_usbd.c ****   }
 931:C:/Users/Yushev/git/optiga-trust-qi/projects/xmc4700_relax_kit/common/Libraries/XMCLib/src\xmc_usbd.c **** 
 932:C:/Users/Yushev/git/optiga-trust-qi/projects/xmc4700_relax_kit/common/Libraries/XMCLib/src\xmc_usbd.c **** }
 933:C:/Users/Yushev/git/optiga-trust-qi/projects/xmc4700_relax_kit/common/Libraries/XMCLib/src\xmc_usbd.c **** 
 934:C:/Users/Yushev/git/optiga-trust-qi/projects/xmc4700_relax_kit/common/Libraries/XMCLib/src\xmc_usbd.c **** 
 935:C:/Users/Yushev/git/optiga-trust-qi/projects/xmc4700_relax_kit/common/Libraries/XMCLib/src\xmc_usbd.c **** /*******************************************************************************
 936:C:/Users/Yushev/git/optiga-trust-qi/projects/xmc4700_relax_kit/common/Libraries/XMCLib/src\xmc_usbd.c ****  * API IMPLEMENTATION
 937:C:/Users/Yushev/git/optiga-trust-qi/projects/xmc4700_relax_kit/common/Libraries/XMCLib/src\xmc_usbd.c ****  *******************************************************************************/
 938:C:/Users/Yushev/git/optiga-trust-qi/projects/xmc4700_relax_kit/common/Libraries/XMCLib/src\xmc_usbd.c **** /**
 939:C:/Users/Yushev/git/optiga-trust-qi/projects/xmc4700_relax_kit/common/Libraries/XMCLib/src\xmc_usbd.c ****  * Enables the USB0 module
 940:C:/Users/Yushev/git/optiga-trust-qi/projects/xmc4700_relax_kit/common/Libraries/XMCLib/src\xmc_usbd.c ****  **/
 941:C:/Users/Yushev/git/optiga-trust-qi/projects/xmc4700_relax_kit/common/Libraries/XMCLib/src\xmc_usbd.c **** void XMC_USBD_Enable(void) 
 942:C:/Users/Yushev/git/optiga-trust-qi/projects/xmc4700_relax_kit/common/Libraries/XMCLib/src\xmc_usbd.c **** {
 943:C:/Users/Yushev/git/optiga-trust-qi/projects/xmc4700_relax_kit/common/Libraries/XMCLib/src\xmc_usbd.c **** #if defined(CLOCK_GATING_SUPPORTED)
 944:C:/Users/Yushev/git/optiga-trust-qi/projects/xmc4700_relax_kit/common/Libraries/XMCLib/src\xmc_usbd.c ****   XMC_SCU_CLOCK_UngatePeripheralClock(XMC_SCU_PERIPHERAL_CLOCK_USB0);
 945:C:/Users/Yushev/git/optiga-trust-qi/projects/xmc4700_relax_kit/common/Libraries/XMCLib/src\xmc_usbd.c **** #endif
 946:C:/Users/Yushev/git/optiga-trust-qi/projects/xmc4700_relax_kit/common/Libraries/XMCLib/src\xmc_usbd.c ****   /* Reset and power up */
 947:C:/Users/Yushev/git/optiga-trust-qi/projects/xmc4700_relax_kit/common/Libraries/XMCLib/src\xmc_usbd.c ****   XMC_SCU_RESET_DeassertPeripheralReset(XMC_SCU_PERIPHERAL_RESET_USB0);
 948:C:/Users/Yushev/git/optiga-trust-qi/projects/xmc4700_relax_kit/common/Libraries/XMCLib/src\xmc_usbd.c ****   XMC_SCU_POWER_EnableUsb();
 949:C:/Users/Yushev/git/optiga-trust-qi/projects/xmc4700_relax_kit/common/Libraries/XMCLib/src\xmc_usbd.c **** }
 950:C:/Users/Yushev/git/optiga-trust-qi/projects/xmc4700_relax_kit/common/Libraries/XMCLib/src\xmc_usbd.c **** 
 951:C:/Users/Yushev/git/optiga-trust-qi/projects/xmc4700_relax_kit/common/Libraries/XMCLib/src\xmc_usbd.c **** /**
 952:C:/Users/Yushev/git/optiga-trust-qi/projects/xmc4700_relax_kit/common/Libraries/XMCLib/src\xmc_usbd.c ****  * Disables the USB0 module
 953:C:/Users/Yushev/git/optiga-trust-qi/projects/xmc4700_relax_kit/common/Libraries/XMCLib/src\xmc_usbd.c ****  **/
 954:C:/Users/Yushev/git/optiga-trust-qi/projects/xmc4700_relax_kit/common/Libraries/XMCLib/src\xmc_usbd.c **** void XMC_USBD_Disable(void) 
 955:C:/Users/Yushev/git/optiga-trust-qi/projects/xmc4700_relax_kit/common/Libraries/XMCLib/src\xmc_usbd.c **** {
 956:C:/Users/Yushev/git/optiga-trust-qi/projects/xmc4700_relax_kit/common/Libraries/XMCLib/src\xmc_usbd.c ****   /* Clear Reset and power up */
 957:C:/Users/Yushev/git/optiga-trust-qi/projects/xmc4700_relax_kit/common/Libraries/XMCLib/src\xmc_usbd.c ****   XMC_SCU_RESET_AssertPeripheralReset(XMC_SCU_PERIPHERAL_RESET_USB0);
 958:C:/Users/Yushev/git/optiga-trust-qi/projects/xmc4700_relax_kit/common/Libraries/XMCLib/src\xmc_usbd.c **** #if defined(CLOCK_GATING_SUPPORTED)
 959:C:/Users/Yushev/git/optiga-trust-qi/projects/xmc4700_relax_kit/common/Libraries/XMCLib/src\xmc_usbd.c ****   XMC_SCU_CLOCK_GatePeripheralClock(XMC_SCU_PERIPHERAL_CLOCK_USB0);
 960:C:/Users/Yushev/git/optiga-trust-qi/projects/xmc4700_relax_kit/common/Libraries/XMCLib/src\xmc_usbd.c **** #endif
 961:C:/Users/Yushev/git/optiga-trust-qi/projects/xmc4700_relax_kit/common/Libraries/XMCLib/src\xmc_usbd.c ****   XMC_SCU_POWER_DisableUsb();
 962:C:/Users/Yushev/git/optiga-trust-qi/projects/xmc4700_relax_kit/common/Libraries/XMCLib/src\xmc_usbd.c **** }
 963:C:/Users/Yushev/git/optiga-trust-qi/projects/xmc4700_relax_kit/common/Libraries/XMCLib/src\xmc_usbd.c **** 
 964:C:/Users/Yushev/git/optiga-trust-qi/projects/xmc4700_relax_kit/common/Libraries/XMCLib/src\xmc_usbd.c **** /**
 965:C:/Users/Yushev/git/optiga-trust-qi/projects/xmc4700_relax_kit/common/Libraries/XMCLib/src\xmc_usbd.c ****  * Clear the USB device event
 966:C:/Users/Yushev/git/optiga-trust-qi/projects/xmc4700_relax_kit/common/Libraries/XMCLib/src\xmc_usbd.c ****  **/
 967:C:/Users/Yushev/git/optiga-trust-qi/projects/xmc4700_relax_kit/common/Libraries/XMCLib/src\xmc_usbd.c **** void XMC_USBD_ClearEvent(const XMC_USBD_EVENT_t event) 
 968:C:/Users/Yushev/git/optiga-trust-qi/projects/xmc4700_relax_kit/common/Libraries/XMCLib/src\xmc_usbd.c **** {
 969:C:/Users/Yushev/git/optiga-trust-qi/projects/xmc4700_relax_kit/common/Libraries/XMCLib/src\xmc_usbd.c ****   gintsts_data_t clear;
 970:C:/Users/Yushev/git/optiga-trust-qi/projects/xmc4700_relax_kit/common/Libraries/XMCLib/src\xmc_usbd.c ****   clear.d32 = 0U;
 971:C:/Users/Yushev/git/optiga-trust-qi/projects/xmc4700_relax_kit/common/Libraries/XMCLib/src\xmc_usbd.c ****   switch(event)
 972:C:/Users/Yushev/git/optiga-trust-qi/projects/xmc4700_relax_kit/common/Libraries/XMCLib/src\xmc_usbd.c ****   {
 973:C:/Users/Yushev/git/optiga-trust-qi/projects/xmc4700_relax_kit/common/Libraries/XMCLib/src\xmc_usbd.c ****     case (XMC_USBD_EVENT_POWER_ON):
 974:C:/Users/Yushev/git/optiga-trust-qi/projects/xmc4700_relax_kit/common/Libraries/XMCLib/src\xmc_usbd.c **** 	  clear.b.sessreqintr = 1U;
 975:C:/Users/Yushev/git/optiga-trust-qi/projects/xmc4700_relax_kit/common/Libraries/XMCLib/src\xmc_usbd.c **** 	  break;
 976:C:/Users/Yushev/git/optiga-trust-qi/projects/xmc4700_relax_kit/common/Libraries/XMCLib/src\xmc_usbd.c ****     case (XMC_USBD_EVENT_RESET):
 977:C:/Users/Yushev/git/optiga-trust-qi/projects/xmc4700_relax_kit/common/Libraries/XMCLib/src\xmc_usbd.c **** 	  clear.b.usbreset = 1U;
 978:C:/Users/Yushev/git/optiga-trust-qi/projects/xmc4700_relax_kit/common/Libraries/XMCLib/src\xmc_usbd.c **** 	  break;
 979:C:/Users/Yushev/git/optiga-trust-qi/projects/xmc4700_relax_kit/common/Libraries/XMCLib/src\xmc_usbd.c ****     case (XMC_USBD_EVENT_SUSPEND):
 980:C:/Users/Yushev/git/optiga-trust-qi/projects/xmc4700_relax_kit/common/Libraries/XMCLib/src\xmc_usbd.c **** 	  clear.b.usbsuspend = 1U;
 981:C:/Users/Yushev/git/optiga-trust-qi/projects/xmc4700_relax_kit/common/Libraries/XMCLib/src\xmc_usbd.c **** 	  break;
 982:C:/Users/Yushev/git/optiga-trust-qi/projects/xmc4700_relax_kit/common/Libraries/XMCLib/src\xmc_usbd.c ****     case (XMC_USBD_EVENT_RESUME):
 983:C:/Users/Yushev/git/optiga-trust-qi/projects/xmc4700_relax_kit/common/Libraries/XMCLib/src\xmc_usbd.c **** 	  clear.b.wkupintr = 1U;
 984:C:/Users/Yushev/git/optiga-trust-qi/projects/xmc4700_relax_kit/common/Libraries/XMCLib/src\xmc_usbd.c **** 	  break;
 985:C:/Users/Yushev/git/optiga-trust-qi/projects/xmc4700_relax_kit/common/Libraries/XMCLib/src\xmc_usbd.c ****     case (XMC_USBD_EVENT_REMOTE_WAKEUP):
 986:C:/Users/Yushev/git/optiga-trust-qi/projects/xmc4700_relax_kit/common/Libraries/XMCLib/src\xmc_usbd.c **** 	  clear.b.wkupintr = 1U;
 987:C:/Users/Yushev/git/optiga-trust-qi/projects/xmc4700_relax_kit/common/Libraries/XMCLib/src\xmc_usbd.c **** 	  break;
 988:C:/Users/Yushev/git/optiga-trust-qi/projects/xmc4700_relax_kit/common/Libraries/XMCLib/src\xmc_usbd.c ****     case (XMC_USBD_EVENT_SOF):
 989:C:/Users/Yushev/git/optiga-trust-qi/projects/xmc4700_relax_kit/common/Libraries/XMCLib/src\xmc_usbd.c **** 	  clear.b.sofintr = 1U;
 990:C:/Users/Yushev/git/optiga-trust-qi/projects/xmc4700_relax_kit/common/Libraries/XMCLib/src\xmc_usbd.c **** 	  break;
 991:C:/Users/Yushev/git/optiga-trust-qi/projects/xmc4700_relax_kit/common/Libraries/XMCLib/src\xmc_usbd.c ****     case (XMC_USBD_EVENT_EARLYSUSPEND):
 992:C:/Users/Yushev/git/optiga-trust-qi/projects/xmc4700_relax_kit/common/Libraries/XMCLib/src\xmc_usbd.c **** 	  clear.b.erlysuspend = 1U;
 993:C:/Users/Yushev/git/optiga-trust-qi/projects/xmc4700_relax_kit/common/Libraries/XMCLib/src\xmc_usbd.c **** 	  break;
 994:C:/Users/Yushev/git/optiga-trust-qi/projects/xmc4700_relax_kit/common/Libraries/XMCLib/src\xmc_usbd.c ****     case (XMC_USBD_EVENT_ENUMDONE):
 995:C:/Users/Yushev/git/optiga-trust-qi/projects/xmc4700_relax_kit/common/Libraries/XMCLib/src\xmc_usbd.c **** 	  clear.b.enumdone = 1U;
 996:C:/Users/Yushev/git/optiga-trust-qi/projects/xmc4700_relax_kit/common/Libraries/XMCLib/src\xmc_usbd.c **** 	  break;
 997:C:/Users/Yushev/git/optiga-trust-qi/projects/xmc4700_relax_kit/common/Libraries/XMCLib/src\xmc_usbd.c ****     case (XMC_USBD_EVENT_OUTEP):
 998:C:/Users/Yushev/git/optiga-trust-qi/projects/xmc4700_relax_kit/common/Libraries/XMCLib/src\xmc_usbd.c **** 	  clear.b.outepintr = 1U;
 999:C:/Users/Yushev/git/optiga-trust-qi/projects/xmc4700_relax_kit/common/Libraries/XMCLib/src\xmc_usbd.c **** 	  break;
1000:C:/Users/Yushev/git/optiga-trust-qi/projects/xmc4700_relax_kit/common/Libraries/XMCLib/src\xmc_usbd.c **** 		default:
1001:C:/Users/Yushev/git/optiga-trust-qi/projects/xmc4700_relax_kit/common/Libraries/XMCLib/src\xmc_usbd.c **** 		break;
1002:C:/Users/Yushev/git/optiga-trust-qi/projects/xmc4700_relax_kit/common/Libraries/XMCLib/src\xmc_usbd.c **** 	}
1003:C:/Users/Yushev/git/optiga-trust-qi/projects/xmc4700_relax_kit/common/Libraries/XMCLib/src\xmc_usbd.c **** 	xmc_device.global_register->gintsts = clear.d32;
1004:C:/Users/Yushev/git/optiga-trust-qi/projects/xmc4700_relax_kit/common/Libraries/XMCLib/src\xmc_usbd.c **** }
1005:C:/Users/Yushev/git/optiga-trust-qi/projects/xmc4700_relax_kit/common/Libraries/XMCLib/src\xmc_usbd.c **** 
1006:C:/Users/Yushev/git/optiga-trust-qi/projects/xmc4700_relax_kit/common/Libraries/XMCLib/src\xmc_usbd.c **** /**
1007:C:/Users/Yushev/git/optiga-trust-qi/projects/xmc4700_relax_kit/common/Libraries/XMCLib/src\xmc_usbd.c ****  * Clear the USB OTG events
1008:C:/Users/Yushev/git/optiga-trust-qi/projects/xmc4700_relax_kit/common/Libraries/XMCLib/src\xmc_usbd.c ****  **/
1009:C:/Users/Yushev/git/optiga-trust-qi/projects/xmc4700_relax_kit/common/Libraries/XMCLib/src\xmc_usbd.c **** static void XMC_USBD_lClearEventOTG(uint32_t event)
1010:C:/Users/Yushev/git/optiga-trust-qi/projects/xmc4700_relax_kit/common/Libraries/XMCLib/src\xmc_usbd.c **** {
1011:C:/Users/Yushev/git/optiga-trust-qi/projects/xmc4700_relax_kit/common/Libraries/XMCLib/src\xmc_usbd.c ****   gotgint_data_t clear = { .d32 = 0U};
1012:C:/Users/Yushev/git/optiga-trust-qi/projects/xmc4700_relax_kit/common/Libraries/XMCLib/src\xmc_usbd.c ****   clear.d32 = event;
1013:C:/Users/Yushev/git/optiga-trust-qi/projects/xmc4700_relax_kit/common/Libraries/XMCLib/src\xmc_usbd.c ****   xmc_device.global_register->gotgint = clear.d32;
1014:C:/Users/Yushev/git/optiga-trust-qi/projects/xmc4700_relax_kit/common/Libraries/XMCLib/src\xmc_usbd.c **** }
1015:C:/Users/Yushev/git/optiga-trust-qi/projects/xmc4700_relax_kit/common/Libraries/XMCLib/src\xmc_usbd.c **** 
1016:C:/Users/Yushev/git/optiga-trust-qi/projects/xmc4700_relax_kit/common/Libraries/XMCLib/src\xmc_usbd.c **** /**
1017:C:/Users/Yushev/git/optiga-trust-qi/projects/xmc4700_relax_kit/common/Libraries/XMCLib/src\xmc_usbd.c ****  * Clear the USB IN EP events
1018:C:/Users/Yushev/git/optiga-trust-qi/projects/xmc4700_relax_kit/common/Libraries/XMCLib/src\xmc_usbd.c ****  **/
1019:C:/Users/Yushev/git/optiga-trust-qi/projects/xmc4700_relax_kit/common/Libraries/XMCLib/src\xmc_usbd.c **** void XMC_USBD_ClearEventINEP(uint32_t event,const uint8_t ep_num)
1020:C:/Users/Yushev/git/optiga-trust-qi/projects/xmc4700_relax_kit/common/Libraries/XMCLib/src\xmc_usbd.c **** {
1021:C:/Users/Yushev/git/optiga-trust-qi/projects/xmc4700_relax_kit/common/Libraries/XMCLib/src\xmc_usbd.c ****   diepint_data_t clear;
1022:C:/Users/Yushev/git/optiga-trust-qi/projects/xmc4700_relax_kit/common/Libraries/XMCLib/src\xmc_usbd.c ****   clear.d32 = event;
1023:C:/Users/Yushev/git/optiga-trust-qi/projects/xmc4700_relax_kit/common/Libraries/XMCLib/src\xmc_usbd.c ****   xmc_device.endpoint_in_register[ep_num]->diepint = clear.d32;
1024:C:/Users/Yushev/git/optiga-trust-qi/projects/xmc4700_relax_kit/common/Libraries/XMCLib/src\xmc_usbd.c **** }
1025:C:/Users/Yushev/git/optiga-trust-qi/projects/xmc4700_relax_kit/common/Libraries/XMCLib/src\xmc_usbd.c **** 
1026:C:/Users/Yushev/git/optiga-trust-qi/projects/xmc4700_relax_kit/common/Libraries/XMCLib/src\xmc_usbd.c **** /**
1027:C:/Users/Yushev/git/optiga-trust-qi/projects/xmc4700_relax_kit/common/Libraries/XMCLib/src\xmc_usbd.c ****  * Clear the USB OUT EP events
1028:C:/Users/Yushev/git/optiga-trust-qi/projects/xmc4700_relax_kit/common/Libraries/XMCLib/src\xmc_usbd.c ****  **/
1029:C:/Users/Yushev/git/optiga-trust-qi/projects/xmc4700_relax_kit/common/Libraries/XMCLib/src\xmc_usbd.c **** void XMC_USBD_ClearEventOUTEP(uint32_t event,const uint8_t ep_num)
1030:C:/Users/Yushev/git/optiga-trust-qi/projects/xmc4700_relax_kit/common/Libraries/XMCLib/src\xmc_usbd.c **** {
1031:C:/Users/Yushev/git/optiga-trust-qi/projects/xmc4700_relax_kit/common/Libraries/XMCLib/src\xmc_usbd.c ****   doepint_data_t clear;
1032:C:/Users/Yushev/git/optiga-trust-qi/projects/xmc4700_relax_kit/common/Libraries/XMCLib/src\xmc_usbd.c ****   clear.d32 = event;
1033:C:/Users/Yushev/git/optiga-trust-qi/projects/xmc4700_relax_kit/common/Libraries/XMCLib/src\xmc_usbd.c ****   xmc_device.endpoint_out_register[ep_num]->doepint = clear.d32;
1034:C:/Users/Yushev/git/optiga-trust-qi/projects/xmc4700_relax_kit/common/Libraries/XMCLib/src\xmc_usbd.c **** }
1035:C:/Users/Yushev/git/optiga-trust-qi/projects/xmc4700_relax_kit/common/Libraries/XMCLib/src\xmc_usbd.c **** 
1036:C:/Users/Yushev/git/optiga-trust-qi/projects/xmc4700_relax_kit/common/Libraries/XMCLib/src\xmc_usbd.c **** /**
1037:C:/Users/Yushev/git/optiga-trust-qi/projects/xmc4700_relax_kit/common/Libraries/XMCLib/src\xmc_usbd.c ****  * Enable the USB OUT EP events
1038:C:/Users/Yushev/git/optiga-trust-qi/projects/xmc4700_relax_kit/common/Libraries/XMCLib/src\xmc_usbd.c ****  **/
1039:C:/Users/Yushev/git/optiga-trust-qi/projects/xmc4700_relax_kit/common/Libraries/XMCLib/src\xmc_usbd.c **** void XMC_USBD_EnableEventOUTEP(uint32_t event)
1040:C:/Users/Yushev/git/optiga-trust-qi/projects/xmc4700_relax_kit/common/Libraries/XMCLib/src\xmc_usbd.c **** {
1041:C:/Users/Yushev/git/optiga-trust-qi/projects/xmc4700_relax_kit/common/Libraries/XMCLib/src\xmc_usbd.c **** 	doepint_data_t doepint;
1042:C:/Users/Yushev/git/optiga-trust-qi/projects/xmc4700_relax_kit/common/Libraries/XMCLib/src\xmc_usbd.c **** 	doepint.d32 = event;
1043:C:/Users/Yushev/git/optiga-trust-qi/projects/xmc4700_relax_kit/common/Libraries/XMCLib/src\xmc_usbd.c **** 	xmc_device.device_register->doepmsk |= doepint.d32;
1044:C:/Users/Yushev/git/optiga-trust-qi/projects/xmc4700_relax_kit/common/Libraries/XMCLib/src\xmc_usbd.c **** }
1045:C:/Users/Yushev/git/optiga-trust-qi/projects/xmc4700_relax_kit/common/Libraries/XMCLib/src\xmc_usbd.c **** 
1046:C:/Users/Yushev/git/optiga-trust-qi/projects/xmc4700_relax_kit/common/Libraries/XMCLib/src\xmc_usbd.c **** /**
1047:C:/Users/Yushev/git/optiga-trust-qi/projects/xmc4700_relax_kit/common/Libraries/XMCLib/src\xmc_usbd.c ****  * Enable the USB IN EP events
1048:C:/Users/Yushev/git/optiga-trust-qi/projects/xmc4700_relax_kit/common/Libraries/XMCLib/src\xmc_usbd.c ****  **/
1049:C:/Users/Yushev/git/optiga-trust-qi/projects/xmc4700_relax_kit/common/Libraries/XMCLib/src\xmc_usbd.c **** void XMC_USBD_EnableEventINEP(uint32_t event)
1050:C:/Users/Yushev/git/optiga-trust-qi/projects/xmc4700_relax_kit/common/Libraries/XMCLib/src\xmc_usbd.c **** {
1051:C:/Users/Yushev/git/optiga-trust-qi/projects/xmc4700_relax_kit/common/Libraries/XMCLib/src\xmc_usbd.c **** 	diepint_data_t diepint;
1052:C:/Users/Yushev/git/optiga-trust-qi/projects/xmc4700_relax_kit/common/Libraries/XMCLib/src\xmc_usbd.c **** 	diepint.d32 = event;
1053:C:/Users/Yushev/git/optiga-trust-qi/projects/xmc4700_relax_kit/common/Libraries/XMCLib/src\xmc_usbd.c **** 	xmc_device.device_register->diepmsk |= diepint.d32;
1054:C:/Users/Yushev/git/optiga-trust-qi/projects/xmc4700_relax_kit/common/Libraries/XMCLib/src\xmc_usbd.c **** }
1055:C:/Users/Yushev/git/optiga-trust-qi/projects/xmc4700_relax_kit/common/Libraries/XMCLib/src\xmc_usbd.c **** 
1056:C:/Users/Yushev/git/optiga-trust-qi/projects/xmc4700_relax_kit/common/Libraries/XMCLib/src\xmc_usbd.c **** /**
1057:C:/Users/Yushev/git/optiga-trust-qi/projects/xmc4700_relax_kit/common/Libraries/XMCLib/src\xmc_usbd.c ****  * Gets the USB device capabilities
1058:C:/Users/Yushev/git/optiga-trust-qi/projects/xmc4700_relax_kit/common/Libraries/XMCLib/src\xmc_usbd.c ****  **/
1059:C:/Users/Yushev/git/optiga-trust-qi/projects/xmc4700_relax_kit/common/Libraries/XMCLib/src\xmc_usbd.c **** XMC_USBD_CAPABILITIES_t XMC_USBD_GetCapabilities()
1060:C:/Users/Yushev/git/optiga-trust-qi/projects/xmc4700_relax_kit/common/Libraries/XMCLib/src\xmc_usbd.c **** {
 514              	 .loc 1 1060 0
 515              	 .cfi_startproc
 516              	 
 517              	 
 518              	 
 519              	.LVL46:
1061:C:/Users/Yushev/git/optiga-trust-qi/projects/xmc4700_relax_kit/common/Libraries/XMCLib/src\xmc_usbd.c ****   XMC_USBD_CAPABILITIES_t cap={0U};
1062:C:/Users/Yushev/git/optiga-trust-qi/projects/xmc4700_relax_kit/common/Libraries/XMCLib/src\xmc_usbd.c ****   cap.event_connect = 1U;
1063:C:/Users/Yushev/git/optiga-trust-qi/projects/xmc4700_relax_kit/common/Libraries/XMCLib/src\xmc_usbd.c ****   cap.event_disconnect = 1U;
1064:C:/Users/Yushev/git/optiga-trust-qi/projects/xmc4700_relax_kit/common/Libraries/XMCLib/src\xmc_usbd.c **** #if UC_SERIES == 45
1065:C:/Users/Yushev/git/optiga-trust-qi/projects/xmc4700_relax_kit/common/Libraries/XMCLib/src\xmc_usbd.c ****   cap.event_power_off = 1U;
1066:C:/Users/Yushev/git/optiga-trust-qi/projects/xmc4700_relax_kit/common/Libraries/XMCLib/src\xmc_usbd.c ****   cap.event_power_on = 1U;
1067:C:/Users/Yushev/git/optiga-trust-qi/projects/xmc4700_relax_kit/common/Libraries/XMCLib/src\xmc_usbd.c **** #else
1068:C:/Users/Yushev/git/optiga-trust-qi/projects/xmc4700_relax_kit/common/Libraries/XMCLib/src\xmc_usbd.c ****   cap.event_power_off = 0U;
1069:C:/Users/Yushev/git/optiga-trust-qi/projects/xmc4700_relax_kit/common/Libraries/XMCLib/src\xmc_usbd.c ****   cap.event_power_on = 0U;
1070:C:/Users/Yushev/git/optiga-trust-qi/projects/xmc4700_relax_kit/common/Libraries/XMCLib/src\xmc_usbd.c **** #endif
1071:C:/Users/Yushev/git/optiga-trust-qi/projects/xmc4700_relax_kit/common/Libraries/XMCLib/src\xmc_usbd.c ****   cap.event_high_speed = 0U;
1072:C:/Users/Yushev/git/optiga-trust-qi/projects/xmc4700_relax_kit/common/Libraries/XMCLib/src\xmc_usbd.c ****   cap.event_remote_wakeup = 1U;
1073:C:/Users/Yushev/git/optiga-trust-qi/projects/xmc4700_relax_kit/common/Libraries/XMCLib/src\xmc_usbd.c ****   cap.event_reset = 1U;
1074:C:/Users/Yushev/git/optiga-trust-qi/projects/xmc4700_relax_kit/common/Libraries/XMCLib/src\xmc_usbd.c ****   cap.event_resume = 1U;
1075:C:/Users/Yushev/git/optiga-trust-qi/projects/xmc4700_relax_kit/common/Libraries/XMCLib/src\xmc_usbd.c ****   cap.event_suspend = 1U;
1076:C:/Users/Yushev/git/optiga-trust-qi/projects/xmc4700_relax_kit/common/Libraries/XMCLib/src\xmc_usbd.c ****   cap.reserved = 0U;
1077:C:/Users/Yushev/git/optiga-trust-qi/projects/xmc4700_relax_kit/common/Libraries/XMCLib/src\xmc_usbd.c ****   return cap;
 520              	 .loc 1 1077 0
 521 0000 0020     	 movs r0,#0
 522 0002 6FF30000 	 bfc r0,#0,#1
 523 0006 6FF34100 	 bfc r0,#1,#1
 524 000a 40F01C00 	 orr r0,r0,#28
 525 000e 6FF34510 	 bfc r0,#5,#1
 526 0012 40F4E070 	 orr r0,r0,#448
1078:C:/Users/Yushev/git/optiga-trust-qi/projects/xmc4700_relax_kit/common/Libraries/XMCLib/src\xmc_usbd.c **** }
 527              	 .loc 1 1078 0
 528 0016 C0F30800 	 ubfx r0,r0,#0,#9
 529 001a 7047     	 bx lr
 530              	 .cfi_endproc
 531              	.LFE193:
 533              	 .section .text.XMC_USBD_DeviceConnect,"ax",%progbits
 534              	 .align 1
 535              	 .global XMC_USBD_DeviceConnect
 536              	 .thumb
 537              	 .thumb_func
 539              	XMC_USBD_DeviceConnect:
 540              	.LFB196:
1079:C:/Users/Yushev/git/optiga-trust-qi/projects/xmc4700_relax_kit/common/Libraries/XMCLib/src\xmc_usbd.c **** 
1080:C:/Users/Yushev/git/optiga-trust-qi/projects/xmc4700_relax_kit/common/Libraries/XMCLib/src\xmc_usbd.c **** /**
1081:C:/Users/Yushev/git/optiga-trust-qi/projects/xmc4700_relax_kit/common/Libraries/XMCLib/src\xmc_usbd.c ****  * Initializes the USB device
1082:C:/Users/Yushev/git/optiga-trust-qi/projects/xmc4700_relax_kit/common/Libraries/XMCLib/src\xmc_usbd.c ****  **/
1083:C:/Users/Yushev/git/optiga-trust-qi/projects/xmc4700_relax_kit/common/Libraries/XMCLib/src\xmc_usbd.c **** XMC_USBD_STATUS_t XMC_USBD_Init(XMC_USBD_t *obj)
1084:C:/Users/Yushev/git/optiga-trust-qi/projects/xmc4700_relax_kit/common/Libraries/XMCLib/src\xmc_usbd.c **** {
1085:C:/Users/Yushev/git/optiga-trust-qi/projects/xmc4700_relax_kit/common/Libraries/XMCLib/src\xmc_usbd.c ****   uint8_t *XMC_USBD_BASE_ADDRESS;
1086:C:/Users/Yushev/git/optiga-trust-qi/projects/xmc4700_relax_kit/common/Libraries/XMCLib/src\xmc_usbd.c ****   uint32_t i;
1087:C:/Users/Yushev/git/optiga-trust-qi/projects/xmc4700_relax_kit/common/Libraries/XMCLib/src\xmc_usbd.c ****   gahbcfg_data_t gahbcfg;
1088:C:/Users/Yushev/git/optiga-trust-qi/projects/xmc4700_relax_kit/common/Libraries/XMCLib/src\xmc_usbd.c ****   gusbcfg_data_t gusbcfg;
1089:C:/Users/Yushev/git/optiga-trust-qi/projects/xmc4700_relax_kit/common/Libraries/XMCLib/src\xmc_usbd.c ****   dcfg_data_t dcfg;
1090:C:/Users/Yushev/git/optiga-trust-qi/projects/xmc4700_relax_kit/common/Libraries/XMCLib/src\xmc_usbd.c ****   dctl_data_t dctl;
1091:C:/Users/Yushev/git/optiga-trust-qi/projects/xmc4700_relax_kit/common/Libraries/XMCLib/src\xmc_usbd.c ****   gintmsk_data_t gintmsk;
1092:C:/Users/Yushev/git/optiga-trust-qi/projects/xmc4700_relax_kit/common/Libraries/XMCLib/src\xmc_usbd.c **** 
1093:C:/Users/Yushev/git/optiga-trust-qi/projects/xmc4700_relax_kit/common/Libraries/XMCLib/src\xmc_usbd.c ****   XMC_ASSERT("XMC_USBD_Init: obj.usbd_max_num_eps not of type XMC_USBD_MAX_NUM_EPS_t",
1094:C:/Users/Yushev/git/optiga-trust-qi/projects/xmc4700_relax_kit/common/Libraries/XMCLib/src\xmc_usbd.c ****  		      XMC_USBD_CHECK_INPUT_MAX_NUM_EPS(obj->usbd_max_num_eps))
1095:C:/Users/Yushev/git/optiga-trust-qi/projects/xmc4700_relax_kit/common/Libraries/XMCLib/src\xmc_usbd.c ****   
1096:C:/Users/Yushev/git/optiga-trust-qi/projects/xmc4700_relax_kit/common/Libraries/XMCLib/src\xmc_usbd.c ****   XMC_USBD_Enable();
1097:C:/Users/Yushev/git/optiga-trust-qi/projects/xmc4700_relax_kit/common/Libraries/XMCLib/src\xmc_usbd.c ****   
1098:C:/Users/Yushev/git/optiga-trust-qi/projects/xmc4700_relax_kit/common/Libraries/XMCLib/src\xmc_usbd.c ****   usbd_init = obj;
1099:C:/Users/Yushev/git/optiga-trust-qi/projects/xmc4700_relax_kit/common/Libraries/XMCLib/src\xmc_usbd.c **** 
1100:C:/Users/Yushev/git/optiga-trust-qi/projects/xmc4700_relax_kit/common/Libraries/XMCLib/src\xmc_usbd.c ****   /* Filling out buffer size */
1101:C:/Users/Yushev/git/optiga-trust-qi/projects/xmc4700_relax_kit/common/Libraries/XMCLib/src\xmc_usbd.c ****   for(i = 0U;i < (uint32_t)XMC_USBD_NUM_EPS;i++)
1102:C:/Users/Yushev/git/optiga-trust-qi/projects/xmc4700_relax_kit/common/Libraries/XMCLib/src\xmc_usbd.c ****   {
1103:C:/Users/Yushev/git/optiga-trust-qi/projects/xmc4700_relax_kit/common/Libraries/XMCLib/src\xmc_usbd.c **** 	  XMC_USBD_EP_OUT_BUFFERSIZE[i] = XMC_USBD_EP0_BUFFER_SIZE;
1104:C:/Users/Yushev/git/optiga-trust-qi/projects/xmc4700_relax_kit/common/Libraries/XMCLib/src\xmc_usbd.c **** 	  XMC_USBD_EP_IN_BUFFERSIZE[i] 	= XMC_USBD_EP0_BUFFER_SIZE;
1105:C:/Users/Yushev/git/optiga-trust-qi/projects/xmc4700_relax_kit/common/Libraries/XMCLib/src\xmc_usbd.c ****   }
1106:C:/Users/Yushev/git/optiga-trust-qi/projects/xmc4700_relax_kit/common/Libraries/XMCLib/src\xmc_usbd.c **** 
1107:C:/Users/Yushev/git/optiga-trust-qi/projects/xmc4700_relax_kit/common/Libraries/XMCLib/src\xmc_usbd.c ****   /* clear device status */
1108:C:/Users/Yushev/git/optiga-trust-qi/projects/xmc4700_relax_kit/common/Libraries/XMCLib/src\xmc_usbd.c ****   memset((void*)&xmc_device,0x0U,sizeof(XMC_USBD_DEVICE_t));
1109:C:/Users/Yushev/git/optiga-trust-qi/projects/xmc4700_relax_kit/common/Libraries/XMCLib/src\xmc_usbd.c **** 
1110:C:/Users/Yushev/git/optiga-trust-qi/projects/xmc4700_relax_kit/common/Libraries/XMCLib/src\xmc_usbd.c ****   /* assign callbacks */
1111:C:/Users/Yushev/git/optiga-trust-qi/projects/xmc4700_relax_kit/common/Libraries/XMCLib/src\xmc_usbd.c ****   xmc_device.DeviceEvent_cb = obj->cb_xmc_device_event;
1112:C:/Users/Yushev/git/optiga-trust-qi/projects/xmc4700_relax_kit/common/Libraries/XMCLib/src\xmc_usbd.c ****   xmc_device.EndpointEvent_cb = obj->cb_endpoint_event;
1113:C:/Users/Yushev/git/optiga-trust-qi/projects/xmc4700_relax_kit/common/Libraries/XMCLib/src\xmc_usbd.c ****   XMC_USBD_BASE_ADDRESS = (uint8_t *)(obj->usbd);
1114:C:/Users/Yushev/git/optiga-trust-qi/projects/xmc4700_relax_kit/common/Libraries/XMCLib/src\xmc_usbd.c ****   /* assign register address */
1115:C:/Users/Yushev/git/optiga-trust-qi/projects/xmc4700_relax_kit/common/Libraries/XMCLib/src\xmc_usbd.c ****   xmc_device.global_register = (dwc_otg_core_global_regs_t*)(obj->usbd);
1116:C:/Users/Yushev/git/optiga-trust-qi/projects/xmc4700_relax_kit/common/Libraries/XMCLib/src\xmc_usbd.c ****   xmc_device.device_register = ((dwc_otg_device_global_regs_t*)(XMC_USBD_BASE_ADDRESS + DWC_DEV_GLO
1117:C:/Users/Yushev/git/optiga-trust-qi/projects/xmc4700_relax_kit/common/Libraries/XMCLib/src\xmc_usbd.c ****   for (i = 0U;i < (uint32_t)XMC_USBD_NUM_EPS;i++)
1118:C:/Users/Yushev/git/optiga-trust-qi/projects/xmc4700_relax_kit/common/Libraries/XMCLib/src\xmc_usbd.c ****   {
1119:C:/Users/Yushev/git/optiga-trust-qi/projects/xmc4700_relax_kit/common/Libraries/XMCLib/src\xmc_usbd.c ****     xmc_device.endpoint_in_register[i] = (dwc_otg_dev_in_ep_regs_t*)(XMC_USBD_BASE_ADDRESS + DWC_DE
1120:C:/Users/Yushev/git/optiga-trust-qi/projects/xmc4700_relax_kit/common/Libraries/XMCLib/src\xmc_usbd.c ****     ((uint32_t)DWC_EP_REG_OFFSET*i));
1121:C:/Users/Yushev/git/optiga-trust-qi/projects/xmc4700_relax_kit/common/Libraries/XMCLib/src\xmc_usbd.c ****   }
1122:C:/Users/Yushev/git/optiga-trust-qi/projects/xmc4700_relax_kit/common/Libraries/XMCLib/src\xmc_usbd.c ****   for (i = 0U;i < (uint32_t)XMC_USBD_NUM_EPS;i++)
1123:C:/Users/Yushev/git/optiga-trust-qi/projects/xmc4700_relax_kit/common/Libraries/XMCLib/src\xmc_usbd.c ****   {
1124:C:/Users/Yushev/git/optiga-trust-qi/projects/xmc4700_relax_kit/common/Libraries/XMCLib/src\xmc_usbd.c ****     xmc_device.endpoint_out_register[i] = (dwc_otg_dev_out_ep_regs_t*)(XMC_USBD_BASE_ADDRESS +
1125:C:/Users/Yushev/git/optiga-trust-qi/projects/xmc4700_relax_kit/common/Libraries/XMCLib/src\xmc_usbd.c ****     									  DWC_DEV_OUT_EP_REG_OFFSET +
1126:C:/Users/Yushev/git/optiga-trust-qi/projects/xmc4700_relax_kit/common/Libraries/XMCLib/src\xmc_usbd.c ****     									  ((uint32_t)DWC_EP_REG_OFFSET*i));
1127:C:/Users/Yushev/git/optiga-trust-qi/projects/xmc4700_relax_kit/common/Libraries/XMCLib/src\xmc_usbd.c ****   }
1128:C:/Users/Yushev/git/optiga-trust-qi/projects/xmc4700_relax_kit/common/Libraries/XMCLib/src\xmc_usbd.c ****   for (i = 0U;i < (uint32_t)XMC_USBD_NUM_TX_FIFOS;i++)
1129:C:/Users/Yushev/git/optiga-trust-qi/projects/xmc4700_relax_kit/common/Libraries/XMCLib/src\xmc_usbd.c ****   {
1130:C:/Users/Yushev/git/optiga-trust-qi/projects/xmc4700_relax_kit/common/Libraries/XMCLib/src\xmc_usbd.c ****     xmc_device.fifo[i] = (uint32_t*)(XMC_USBD_BASE_ADDRESS +
1131:C:/Users/Yushev/git/optiga-trust-qi/projects/xmc4700_relax_kit/common/Libraries/XMCLib/src\xmc_usbd.c ****     						XMC_USBD_TX_FIFO_REG_OFFSET +
1132:C:/Users/Yushev/git/optiga-trust-qi/projects/xmc4700_relax_kit/common/Libraries/XMCLib/src\xmc_usbd.c ****     						(i * XMC_USBD_TX_FIFO_OFFSET));
1133:C:/Users/Yushev/git/optiga-trust-qi/projects/xmc4700_relax_kit/common/Libraries/XMCLib/src\xmc_usbd.c ****   }
1134:C:/Users/Yushev/git/optiga-trust-qi/projects/xmc4700_relax_kit/common/Libraries/XMCLib/src\xmc_usbd.c ****   /* obj data structure for endpoint 0 */
1135:C:/Users/Yushev/git/optiga-trust-qi/projects/xmc4700_relax_kit/common/Libraries/XMCLib/src\xmc_usbd.c ****   /* Done by driver core */
1136:C:/Users/Yushev/git/optiga-trust-qi/projects/xmc4700_relax_kit/common/Libraries/XMCLib/src\xmc_usbd.c ****   /* configure ahb details */  
1137:C:/Users/Yushev/git/optiga-trust-qi/projects/xmc4700_relax_kit/common/Libraries/XMCLib/src\xmc_usbd.c ****   gahbcfg.d32 = xmc_device.global_register->gahbcfg;
1138:C:/Users/Yushev/git/optiga-trust-qi/projects/xmc4700_relax_kit/common/Libraries/XMCLib/src\xmc_usbd.c ****   gahbcfg.b.glblintrmsk = 1U; /* enable interrupts ( global mask ) */
1139:C:/Users/Yushev/git/optiga-trust-qi/projects/xmc4700_relax_kit/common/Libraries/XMCLib/src\xmc_usbd.c ****   gahbcfg.b.nptxfemplvl_txfemplvl = 1U;
1140:C:/Users/Yushev/git/optiga-trust-qi/projects/xmc4700_relax_kit/common/Libraries/XMCLib/src\xmc_usbd.c ****   if(obj->usbd_transfer_mode == XMC_USBD_USE_DMA)
1141:C:/Users/Yushev/git/optiga-trust-qi/projects/xmc4700_relax_kit/common/Libraries/XMCLib/src\xmc_usbd.c ****   {
1142:C:/Users/Yushev/git/optiga-trust-qi/projects/xmc4700_relax_kit/common/Libraries/XMCLib/src\xmc_usbd.c ****     /* Enable dma if needed */
1143:C:/Users/Yushev/git/optiga-trust-qi/projects/xmc4700_relax_kit/common/Libraries/XMCLib/src\xmc_usbd.c ****     gahbcfg.b.dmaenable = 1U; /* enable dma if needed */
1144:C:/Users/Yushev/git/optiga-trust-qi/projects/xmc4700_relax_kit/common/Libraries/XMCLib/src\xmc_usbd.c ****   }
1145:C:/Users/Yushev/git/optiga-trust-qi/projects/xmc4700_relax_kit/common/Libraries/XMCLib/src\xmc_usbd.c ****   else
1146:C:/Users/Yushev/git/optiga-trust-qi/projects/xmc4700_relax_kit/common/Libraries/XMCLib/src\xmc_usbd.c ****   {
1147:C:/Users/Yushev/git/optiga-trust-qi/projects/xmc4700_relax_kit/common/Libraries/XMCLib/src\xmc_usbd.c ****     gahbcfg.b.dmaenable = 0U;
1148:C:/Users/Yushev/git/optiga-trust-qi/projects/xmc4700_relax_kit/common/Libraries/XMCLib/src\xmc_usbd.c ****   }
1149:C:/Users/Yushev/git/optiga-trust-qi/projects/xmc4700_relax_kit/common/Libraries/XMCLib/src\xmc_usbd.c ****   xmc_device.global_register->gahbcfg = gahbcfg.d32;
1150:C:/Users/Yushev/git/optiga-trust-qi/projects/xmc4700_relax_kit/common/Libraries/XMCLib/src\xmc_usbd.c ****   /* configure usb details */  
1151:C:/Users/Yushev/git/optiga-trust-qi/projects/xmc4700_relax_kit/common/Libraries/XMCLib/src\xmc_usbd.c ****   gusbcfg.d32= xmc_device.global_register->gusbcfg;
1152:C:/Users/Yushev/git/optiga-trust-qi/projects/xmc4700_relax_kit/common/Libraries/XMCLib/src\xmc_usbd.c ****   gusbcfg.b.force_dev_mode = 1U; /* force us into device mode */
1153:C:/Users/Yushev/git/optiga-trust-qi/projects/xmc4700_relax_kit/common/Libraries/XMCLib/src\xmc_usbd.c ****   gusbcfg.b.srpcap = 1U; /* enable session request protocoll */
1154:C:/Users/Yushev/git/optiga-trust-qi/projects/xmc4700_relax_kit/common/Libraries/XMCLib/src\xmc_usbd.c ****   xmc_device.global_register->gusbcfg = gusbcfg.d32;
1155:C:/Users/Yushev/git/optiga-trust-qi/projects/xmc4700_relax_kit/common/Libraries/XMCLib/src\xmc_usbd.c **** 
1156:C:/Users/Yushev/git/optiga-trust-qi/projects/xmc4700_relax_kit/common/Libraries/XMCLib/src\xmc_usbd.c ****   /* Device init */
1157:C:/Users/Yushev/git/optiga-trust-qi/projects/xmc4700_relax_kit/common/Libraries/XMCLib/src\xmc_usbd.c ****   /* configure device speed */  
1158:C:/Users/Yushev/git/optiga-trust-qi/projects/xmc4700_relax_kit/common/Libraries/XMCLib/src\xmc_usbd.c ****   dcfg.d32 = xmc_device.device_register->dcfg;
1159:C:/Users/Yushev/git/optiga-trust-qi/projects/xmc4700_relax_kit/common/Libraries/XMCLib/src\xmc_usbd.c ****   dcfg.b.devspd = XMC_USBD_DCFG_DEVSPD_FS;
1160:C:/Users/Yushev/git/optiga-trust-qi/projects/xmc4700_relax_kit/common/Libraries/XMCLib/src\xmc_usbd.c ****   dcfg.b.descdma = 0U;
1161:C:/Users/Yushev/git/optiga-trust-qi/projects/xmc4700_relax_kit/common/Libraries/XMCLib/src\xmc_usbd.c ****   xmc_device.device_register->dcfg = dcfg.d32;
1162:C:/Users/Yushev/git/optiga-trust-qi/projects/xmc4700_relax_kit/common/Libraries/XMCLib/src\xmc_usbd.c ****   /* configure device functions */  
1163:C:/Users/Yushev/git/optiga-trust-qi/projects/xmc4700_relax_kit/common/Libraries/XMCLib/src\xmc_usbd.c ****   dctl.d32 = xmc_device.device_register->dctl;
1164:C:/Users/Yushev/git/optiga-trust-qi/projects/xmc4700_relax_kit/common/Libraries/XMCLib/src\xmc_usbd.c ****   dctl.b.sftdiscon = 1U; /* disconnect the device until its connected by the user */
1165:C:/Users/Yushev/git/optiga-trust-qi/projects/xmc4700_relax_kit/common/Libraries/XMCLib/src\xmc_usbd.c ****   /* all other config is done by default register value */
1166:C:/Users/Yushev/git/optiga-trust-qi/projects/xmc4700_relax_kit/common/Libraries/XMCLib/src\xmc_usbd.c ****   xmc_device.device_register->dctl = dctl.d32;
1167:C:/Users/Yushev/git/optiga-trust-qi/projects/xmc4700_relax_kit/common/Libraries/XMCLib/src\xmc_usbd.c ****   /* flush the fifos for proper operation */
1168:C:/Users/Yushev/git/optiga-trust-qi/projects/xmc4700_relax_kit/common/Libraries/XMCLib/src\xmc_usbd.c ****   XMC_USBD_lFlushTXFifo((uint8_t)0x10U); /* 0x10 == all fifos, see doc */
1169:C:/Users/Yushev/git/optiga-trust-qi/projects/xmc4700_relax_kit/common/Libraries/XMCLib/src\xmc_usbd.c ****   XMC_USBD_lFlushRXFifo();
1170:C:/Users/Yushev/git/optiga-trust-qi/projects/xmc4700_relax_kit/common/Libraries/XMCLib/src\xmc_usbd.c ****   /* Enable Global Interrupts */
1171:C:/Users/Yushev/git/optiga-trust-qi/projects/xmc4700_relax_kit/common/Libraries/XMCLib/src\xmc_usbd.c ****   /* clear interrupt status bits prior to unmasking */
1172:C:/Users/Yushev/git/optiga-trust-qi/projects/xmc4700_relax_kit/common/Libraries/XMCLib/src\xmc_usbd.c ****   xmc_device.global_register->gintmsk = 0U; /* disable all interrupts */
1173:C:/Users/Yushev/git/optiga-trust-qi/projects/xmc4700_relax_kit/common/Libraries/XMCLib/src\xmc_usbd.c ****   xmc_device.global_register->gintsts = 0xFFFFFFFFU; /* clear all interrupts */
1174:C:/Users/Yushev/git/optiga-trust-qi/projects/xmc4700_relax_kit/common/Libraries/XMCLib/src\xmc_usbd.c ****  
1175:C:/Users/Yushev/git/optiga-trust-qi/projects/xmc4700_relax_kit/common/Libraries/XMCLib/src\xmc_usbd.c ****   gintmsk.d32 = 0U;
1176:C:/Users/Yushev/git/optiga-trust-qi/projects/xmc4700_relax_kit/common/Libraries/XMCLib/src\xmc_usbd.c ****   /* enable common interrupts */
1177:C:/Users/Yushev/git/optiga-trust-qi/projects/xmc4700_relax_kit/common/Libraries/XMCLib/src\xmc_usbd.c ****   gintmsk.b.modemismatch = 1U;
1178:C:/Users/Yushev/git/optiga-trust-qi/projects/xmc4700_relax_kit/common/Libraries/XMCLib/src\xmc_usbd.c ****   gintmsk.b.otgintr = 1U;
1179:C:/Users/Yushev/git/optiga-trust-qi/projects/xmc4700_relax_kit/common/Libraries/XMCLib/src\xmc_usbd.c ****   gintmsk.b.sessreqintr = 1U;
1180:C:/Users/Yushev/git/optiga-trust-qi/projects/xmc4700_relax_kit/common/Libraries/XMCLib/src\xmc_usbd.c ****   /* enable device interrupts */
1181:C:/Users/Yushev/git/optiga-trust-qi/projects/xmc4700_relax_kit/common/Libraries/XMCLib/src\xmc_usbd.c ****   gintmsk.b.usbreset = 1U;
1182:C:/Users/Yushev/git/optiga-trust-qi/projects/xmc4700_relax_kit/common/Libraries/XMCLib/src\xmc_usbd.c ****   gintmsk.b.enumdone = 1U;
1183:C:/Users/Yushev/git/optiga-trust-qi/projects/xmc4700_relax_kit/common/Libraries/XMCLib/src\xmc_usbd.c ****   gintmsk.b.erlysuspend = 1U;
1184:C:/Users/Yushev/git/optiga-trust-qi/projects/xmc4700_relax_kit/common/Libraries/XMCLib/src\xmc_usbd.c ****   gintmsk.b.usbsuspend = 1U;
1185:C:/Users/Yushev/git/optiga-trust-qi/projects/xmc4700_relax_kit/common/Libraries/XMCLib/src\xmc_usbd.c ****   gintmsk.b.wkupintr = 1U;
1186:C:/Users/Yushev/git/optiga-trust-qi/projects/xmc4700_relax_kit/common/Libraries/XMCLib/src\xmc_usbd.c ****   gintmsk.b.sofintr = 1U;
1187:C:/Users/Yushev/git/optiga-trust-qi/projects/xmc4700_relax_kit/common/Libraries/XMCLib/src\xmc_usbd.c ****   if(obj->usbd_transfer_mode == XMC_USBD_USE_FIFO)
1188:C:/Users/Yushev/git/optiga-trust-qi/projects/xmc4700_relax_kit/common/Libraries/XMCLib/src\xmc_usbd.c ****   {
1189:C:/Users/Yushev/git/optiga-trust-qi/projects/xmc4700_relax_kit/common/Libraries/XMCLib/src\xmc_usbd.c ****     gintmsk.b.rxstsqlvl = 1U;
1190:C:/Users/Yushev/git/optiga-trust-qi/projects/xmc4700_relax_kit/common/Libraries/XMCLib/src\xmc_usbd.c ****   }
1191:C:/Users/Yushev/git/optiga-trust-qi/projects/xmc4700_relax_kit/common/Libraries/XMCLib/src\xmc_usbd.c ****   gintmsk.b.outepintr = 1U;
1192:C:/Users/Yushev/git/optiga-trust-qi/projects/xmc4700_relax_kit/common/Libraries/XMCLib/src\xmc_usbd.c ****   gintmsk.b.inepintr = 1U;
1193:C:/Users/Yushev/git/optiga-trust-qi/projects/xmc4700_relax_kit/common/Libraries/XMCLib/src\xmc_usbd.c ****   xmc_device.global_register->gintmsk = gintmsk.d32;
1194:C:/Users/Yushev/git/optiga-trust-qi/projects/xmc4700_relax_kit/common/Libraries/XMCLib/src\xmc_usbd.c ****   return XMC_USBD_STATUS_OK;
1195:C:/Users/Yushev/git/optiga-trust-qi/projects/xmc4700_relax_kit/common/Libraries/XMCLib/src\xmc_usbd.c **** }
1196:C:/Users/Yushev/git/optiga-trust-qi/projects/xmc4700_relax_kit/common/Libraries/XMCLib/src\xmc_usbd.c **** 
1197:C:/Users/Yushev/git/optiga-trust-qi/projects/xmc4700_relax_kit/common/Libraries/XMCLib/src\xmc_usbd.c **** /**
1198:C:/Users/Yushev/git/optiga-trust-qi/projects/xmc4700_relax_kit/common/Libraries/XMCLib/src\xmc_usbd.c ****  * Uninitializes the USB device
1199:C:/Users/Yushev/git/optiga-trust-qi/projects/xmc4700_relax_kit/common/Libraries/XMCLib/src\xmc_usbd.c ****  **/
1200:C:/Users/Yushev/git/optiga-trust-qi/projects/xmc4700_relax_kit/common/Libraries/XMCLib/src\xmc_usbd.c **** XMC_USBD_STATUS_t XMC_USBD_Uninitialize() 
1201:C:/Users/Yushev/git/optiga-trust-qi/projects/xmc4700_relax_kit/common/Libraries/XMCLib/src\xmc_usbd.c **** {
1202:C:/Users/Yushev/git/optiga-trust-qi/projects/xmc4700_relax_kit/common/Libraries/XMCLib/src\xmc_usbd.c ****   /* Disconnect the device */
1203:C:/Users/Yushev/git/optiga-trust-qi/projects/xmc4700_relax_kit/common/Libraries/XMCLib/src\xmc_usbd.c ****   dctl_data_t dctl;
1204:C:/Users/Yushev/git/optiga-trust-qi/projects/xmc4700_relax_kit/common/Libraries/XMCLib/src\xmc_usbd.c **** 	dctl.d32 = xmc_device.device_register->dctl;
1205:C:/Users/Yushev/git/optiga-trust-qi/projects/xmc4700_relax_kit/common/Libraries/XMCLib/src\xmc_usbd.c ****   dctl.b.sftdiscon = 1U;
1206:C:/Users/Yushev/git/optiga-trust-qi/projects/xmc4700_relax_kit/common/Libraries/XMCLib/src\xmc_usbd.c ****   xmc_device.device_register->dctl = dctl.d32;
1207:C:/Users/Yushev/git/optiga-trust-qi/projects/xmc4700_relax_kit/common/Libraries/XMCLib/src\xmc_usbd.c ****   /* clean up */
1208:C:/Users/Yushev/git/optiga-trust-qi/projects/xmc4700_relax_kit/common/Libraries/XMCLib/src\xmc_usbd.c ****   memset((void*)&xmc_device,0U,sizeof(xmc_device));
1209:C:/Users/Yushev/git/optiga-trust-qi/projects/xmc4700_relax_kit/common/Libraries/XMCLib/src\xmc_usbd.c ****   return XMC_USBD_STATUS_OK;
1210:C:/Users/Yushev/git/optiga-trust-qi/projects/xmc4700_relax_kit/common/Libraries/XMCLib/src\xmc_usbd.c **** }
1211:C:/Users/Yushev/git/optiga-trust-qi/projects/xmc4700_relax_kit/common/Libraries/XMCLib/src\xmc_usbd.c **** 
1212:C:/Users/Yushev/git/optiga-trust-qi/projects/xmc4700_relax_kit/common/Libraries/XMCLib/src\xmc_usbd.c **** /**
1213:C:/Users/Yushev/git/optiga-trust-qi/projects/xmc4700_relax_kit/common/Libraries/XMCLib/src\xmc_usbd.c ****  * Connects the USB device to host
1214:C:/Users/Yushev/git/optiga-trust-qi/projects/xmc4700_relax_kit/common/Libraries/XMCLib/src\xmc_usbd.c ****  **/
1215:C:/Users/Yushev/git/optiga-trust-qi/projects/xmc4700_relax_kit/common/Libraries/XMCLib/src\xmc_usbd.c **** XMC_USBD_STATUS_t XMC_USBD_DeviceConnect() 
1216:C:/Users/Yushev/git/optiga-trust-qi/projects/xmc4700_relax_kit/common/Libraries/XMCLib/src\xmc_usbd.c **** {
 541              	 .loc 1 1216 0
 542              	 .cfi_startproc
 543              	 
 544              	 
 545              	 
1217:C:/Users/Yushev/git/optiga-trust-qi/projects/xmc4700_relax_kit/common/Libraries/XMCLib/src\xmc_usbd.c ****   /* Just disable softdisconnect */
1218:C:/Users/Yushev/git/optiga-trust-qi/projects/xmc4700_relax_kit/common/Libraries/XMCLib/src\xmc_usbd.c ****   dctl_data_t dctl;
1219:C:/Users/Yushev/git/optiga-trust-qi/projects/xmc4700_relax_kit/common/Libraries/XMCLib/src\xmc_usbd.c **** 	dctl.d32 = xmc_device.device_register->dctl;
 546              	 .loc 1 1219 0
 547 0000 044B     	 ldr r3,.L50
 548 0002 D3F8A421 	 ldr r2,[r3,#420]
 549 0006 5368     	 ldr r3,[r2,#4]
1220:C:/Users/Yushev/git/optiga-trust-qi/projects/xmc4700_relax_kit/common/Libraries/XMCLib/src\xmc_usbd.c ****   dctl.b.sftdiscon = 0U;
 550              	 .loc 1 1220 0
 551 0008 6FF34103 	 bfc r3,#1,#1
 552              	.LVL47:
1221:C:/Users/Yushev/git/optiga-trust-qi/projects/xmc4700_relax_kit/common/Libraries/XMCLib/src\xmc_usbd.c ****   xmc_device.device_register->dctl = dctl.d32;
 553              	 .loc 1 1221 0
 554 000c 5360     	 str r3,[r2,#4]
1222:C:/Users/Yushev/git/optiga-trust-qi/projects/xmc4700_relax_kit/common/Libraries/XMCLib/src\xmc_usbd.c ****   return XMC_USBD_STATUS_OK;
1223:C:/Users/Yushev/git/optiga-trust-qi/projects/xmc4700_relax_kit/common/Libraries/XMCLib/src\xmc_usbd.c **** }
 555              	 .loc 1 1223 0
 556 000e 0020     	 movs r0,#0
 557 0010 7047     	 bx lr
 558              	.L51:
 559 0012 00BF     	 .align 2
 560              	.L50:
 561 0014 00000000 	 .word xmc_device
 562              	 .cfi_endproc
 563              	.LFE196:
 565              	 .section .text.XMC_USBD_DeviceDisconnect,"ax",%progbits
 566              	 .align 1
 567              	 .global XMC_USBD_DeviceDisconnect
 568              	 .thumb
 569              	 .thumb_func
 571              	XMC_USBD_DeviceDisconnect:
 572              	.LFB197:
1224:C:/Users/Yushev/git/optiga-trust-qi/projects/xmc4700_relax_kit/common/Libraries/XMCLib/src\xmc_usbd.c **** 
1225:C:/Users/Yushev/git/optiga-trust-qi/projects/xmc4700_relax_kit/common/Libraries/XMCLib/src\xmc_usbd.c **** /**
1226:C:/Users/Yushev/git/optiga-trust-qi/projects/xmc4700_relax_kit/common/Libraries/XMCLib/src\xmc_usbd.c ****  * Disconnects the USB device from host
1227:C:/Users/Yushev/git/optiga-trust-qi/projects/xmc4700_relax_kit/common/Libraries/XMCLib/src\xmc_usbd.c ****  **/
1228:C:/Users/Yushev/git/optiga-trust-qi/projects/xmc4700_relax_kit/common/Libraries/XMCLib/src\xmc_usbd.c **** XMC_USBD_STATUS_t XMC_USBD_DeviceDisconnect() 
1229:C:/Users/Yushev/git/optiga-trust-qi/projects/xmc4700_relax_kit/common/Libraries/XMCLib/src\xmc_usbd.c **** {
 573              	 .loc 1 1229 0
 574              	 .cfi_startproc
 575              	 
 576              	 
 577              	 
1230:C:/Users/Yushev/git/optiga-trust-qi/projects/xmc4700_relax_kit/common/Libraries/XMCLib/src\xmc_usbd.c ****   dctl_data_t dctl;
1231:C:/Users/Yushev/git/optiga-trust-qi/projects/xmc4700_relax_kit/common/Libraries/XMCLib/src\xmc_usbd.c **** 	dctl.d32 = xmc_device.device_register->dctl;
 578              	 .loc 1 1231 0
 579 0000 044B     	 ldr r3,.L53
 580 0002 D3F8A421 	 ldr r2,[r3,#420]
 581 0006 5368     	 ldr r3,[r2,#4]
1232:C:/Users/Yushev/git/optiga-trust-qi/projects/xmc4700_relax_kit/common/Libraries/XMCLib/src\xmc_usbd.c ****   dctl.b.sftdiscon = 1U;
 582              	 .loc 1 1232 0
 583 0008 43F00203 	 orr r3,r3,#2
 584              	.LVL48:
1233:C:/Users/Yushev/git/optiga-trust-qi/projects/xmc4700_relax_kit/common/Libraries/XMCLib/src\xmc_usbd.c ****   xmc_device.device_register->dctl = dctl.d32;
 585              	 .loc 1 1233 0
 586 000c 5360     	 str r3,[r2,#4]
1234:C:/Users/Yushev/git/optiga-trust-qi/projects/xmc4700_relax_kit/common/Libraries/XMCLib/src\xmc_usbd.c ****   return XMC_USBD_STATUS_OK;
1235:C:/Users/Yushev/git/optiga-trust-qi/projects/xmc4700_relax_kit/common/Libraries/XMCLib/src\xmc_usbd.c **** }
 587              	 .loc 1 1235 0
 588 000e 0020     	 movs r0,#0
 589 0010 7047     	 bx lr
 590              	.L54:
 591 0012 00BF     	 .align 2
 592              	.L53:
 593 0014 00000000 	 .word xmc_device
 594              	 .cfi_endproc
 595              	.LFE197:
 597              	 .section .text.XMC_USBD_EndpointReadStart,"ax",%progbits
 598              	 .align 1
 599              	 .global XMC_USBD_EndpointReadStart
 600              	 .thumb
 601              	 .thumb_func
 603              	XMC_USBD_EndpointReadStart:
 604              	.LFB199:
1236:C:/Users/Yushev/git/optiga-trust-qi/projects/xmc4700_relax_kit/common/Libraries/XMCLib/src\xmc_usbd.c **** 
1237:C:/Users/Yushev/git/optiga-trust-qi/projects/xmc4700_relax_kit/common/Libraries/XMCLib/src\xmc_usbd.c **** /**
1238:C:/Users/Yushev/git/optiga-trust-qi/projects/xmc4700_relax_kit/common/Libraries/XMCLib/src\xmc_usbd.c ****  * Gets the USB device state.
1239:C:/Users/Yushev/git/optiga-trust-qi/projects/xmc4700_relax_kit/common/Libraries/XMCLib/src\xmc_usbd.c ****  **/
1240:C:/Users/Yushev/git/optiga-trust-qi/projects/xmc4700_relax_kit/common/Libraries/XMCLib/src\xmc_usbd.c **** XMC_USBD_STATE_t XMC_USBD_DeviceGetState(const XMC_USBD_t *const obj) 
1241:C:/Users/Yushev/git/optiga-trust-qi/projects/xmc4700_relax_kit/common/Libraries/XMCLib/src\xmc_usbd.c **** {
1242:C:/Users/Yushev/git/optiga-trust-qi/projects/xmc4700_relax_kit/common/Libraries/XMCLib/src\xmc_usbd.c ****   XMC_USBD_STATE_t state={0U};
1243:C:/Users/Yushev/git/optiga-trust-qi/projects/xmc4700_relax_kit/common/Libraries/XMCLib/src\xmc_usbd.c ****   state.speed = XMC_USBD_SPEED_FULL;
1244:C:/Users/Yushev/git/optiga-trust-qi/projects/xmc4700_relax_kit/common/Libraries/XMCLib/src\xmc_usbd.c ****   state.connected = xmc_device.IsConnected;
1245:C:/Users/Yushev/git/optiga-trust-qi/projects/xmc4700_relax_kit/common/Libraries/XMCLib/src\xmc_usbd.c ****   state.active = XMC_USBD_lDeviceActive(obj);
1246:C:/Users/Yushev/git/optiga-trust-qi/projects/xmc4700_relax_kit/common/Libraries/XMCLib/src\xmc_usbd.c ****   state.powered = xmc_device.IsPowered;
1247:C:/Users/Yushev/git/optiga-trust-qi/projects/xmc4700_relax_kit/common/Libraries/XMCLib/src\xmc_usbd.c ****   return state;
1248:C:/Users/Yushev/git/optiga-trust-qi/projects/xmc4700_relax_kit/common/Libraries/XMCLib/src\xmc_usbd.c **** }
1249:C:/Users/Yushev/git/optiga-trust-qi/projects/xmc4700_relax_kit/common/Libraries/XMCLib/src\xmc_usbd.c **** 
1250:C:/Users/Yushev/git/optiga-trust-qi/projects/xmc4700_relax_kit/common/Libraries/XMCLib/src\xmc_usbd.c **** /**
1251:C:/Users/Yushev/git/optiga-trust-qi/projects/xmc4700_relax_kit/common/Libraries/XMCLib/src\xmc_usbd.c ****  * Prepares the endpoint to read next OUT packet
1252:C:/Users/Yushev/git/optiga-trust-qi/projects/xmc4700_relax_kit/common/Libraries/XMCLib/src\xmc_usbd.c ****  **/
1253:C:/Users/Yushev/git/optiga-trust-qi/projects/xmc4700_relax_kit/common/Libraries/XMCLib/src\xmc_usbd.c **** XMC_USBD_STATUS_t XMC_USBD_EndpointReadStart(const uint8_t ep_addr, uint32_t size) 
1254:C:/Users/Yushev/git/optiga-trust-qi/projects/xmc4700_relax_kit/common/Libraries/XMCLib/src\xmc_usbd.c **** {
 605              	 .loc 1 1254 0
 606              	 .cfi_startproc
 607              	 
 608              	 
 609              	.LVL49:
 610 0000 10B5     	 push {r4,lr}
 611              	.LCFI7:
 612              	 .cfi_def_cfa_offset 8
 613              	 .cfi_offset 4,-8
 614              	 .cfi_offset 14,-4
1255:C:/Users/Yushev/git/optiga-trust-qi/projects/xmc4700_relax_kit/common/Libraries/XMCLib/src\xmc_usbd.c ****   XMC_USBD_EP_t *ep = &xmc_device.ep[ep_addr & (uint8_t)XMC_USBD_EP_NUM_MASK];
1256:C:/Users/Yushev/git/optiga-trust-qi/projects/xmc4700_relax_kit/common/Libraries/XMCLib/src\xmc_usbd.c ****   XMC_USBD_STATUS_t result;
1257:C:/Users/Yushev/git/optiga-trust-qi/projects/xmc4700_relax_kit/common/Libraries/XMCLib/src\xmc_usbd.c **** 	
1258:C:/Users/Yushev/git/optiga-trust-qi/projects/xmc4700_relax_kit/common/Libraries/XMCLib/src\xmc_usbd.c ****   if (ep->outInUse || !ep->isConfigured)
 615              	 .loc 1 1258 0
 616 0002 0E4A     	 ldr r2,.L59
1255:C:/Users/Yushev/git/optiga-trust-qi/projects/xmc4700_relax_kit/common/Libraries/XMCLib/src\xmc_usbd.c ****   XMC_USBD_EP_t *ep = &xmc_device.ep[ep_addr & (uint8_t)XMC_USBD_EP_NUM_MASK];
 617              	 .loc 1 1255 0
 618 0004 00F00F03 	 and r3,r0,#15
 619              	.LVL50:
 620              	 .loc 1 1258 0
 621 0008 3420     	 movs r0,#52
 622              	.LVL51:
 623 000a 00FB0320 	 mla r0,r0,r3,r2
 624              	.LVL52:
 625 000e 4468     	 ldr r4,[r0,#4]
 626 0010 C4F30014 	 ubfx r4,r4,#4,#1
 627 0014 84B9     	 cbnz r4,.L58
 628              	 .loc 1 1258 0 is_stmt 0 discriminator 1
 629 0016 0379     	 ldrb r3,[r0,#4]
 630 0018 5B07     	 lsls r3,r3,#29
 631 001a 0DD5     	 bpl .L58
1259:C:/Users/Yushev/git/optiga-trust-qi/projects/xmc4700_relax_kit/common/Libraries/XMCLib/src\xmc_usbd.c ****   {
1260:C:/Users/Yushev/git/optiga-trust-qi/projects/xmc4700_relax_kit/common/Libraries/XMCLib/src\xmc_usbd.c ****     result = XMC_USBD_STATUS_ERROR;
1261:C:/Users/Yushev/git/optiga-trust-qi/projects/xmc4700_relax_kit/common/Libraries/XMCLib/src\xmc_usbd.c ****   }
1262:C:/Users/Yushev/git/optiga-trust-qi/projects/xmc4700_relax_kit/common/Libraries/XMCLib/src\xmc_usbd.c ****   else
1263:C:/Users/Yushev/git/optiga-trust-qi/projects/xmc4700_relax_kit/common/Libraries/XMCLib/src\xmc_usbd.c ****   {
1264:C:/Users/Yushev/git/optiga-trust-qi/projects/xmc4700_relax_kit/common/Libraries/XMCLib/src\xmc_usbd.c ****     /* short the length to buffer size if needed */
1265:C:/Users/Yushev/git/optiga-trust-qi/projects/xmc4700_relax_kit/common/Libraries/XMCLib/src\xmc_usbd.c ****     if (size > ep->outBufferSize)
 632              	 .loc 1 1265 0 is_stmt 1
 633 001c 4369     	 ldr r3,[r0,#20]
 634              	.LVL53:
1266:C:/Users/Yushev/git/optiga-trust-qi/projects/xmc4700_relax_kit/common/Libraries/XMCLib/src\xmc_usbd.c ****     {
1267:C:/Users/Yushev/git/optiga-trust-qi/projects/xmc4700_relax_kit/common/Libraries/XMCLib/src\xmc_usbd.c ****       size = ep->outBufferSize;
1268:C:/Users/Yushev/git/optiga-trust-qi/projects/xmc4700_relax_kit/common/Libraries/XMCLib/src\xmc_usbd.c ****     }
1269:C:/Users/Yushev/git/optiga-trust-qi/projects/xmc4700_relax_kit/common/Libraries/XMCLib/src\xmc_usbd.c ****     /* set ep values */
1270:C:/Users/Yushev/git/optiga-trust-qi/projects/xmc4700_relax_kit/common/Libraries/XMCLib/src\xmc_usbd.c ****     ep->xferTotal = size;
 635              	 .loc 1 1270 0
 636 001e 9942     	 cmp r1,r3
 637 0020 94BF     	 ite ls
 638 0022 0163     	 strls r1,[r0,#48]
 639 0024 0363     	 strhi r3,[r0,#48]
 640              	.LVL54:
1271:C:/Users/Yushev/git/optiga-trust-qi/projects/xmc4700_relax_kit/common/Libraries/XMCLib/src\xmc_usbd.c ****     ep->xferCount = 0U;
1272:C:/Users/Yushev/git/optiga-trust-qi/projects/xmc4700_relax_kit/common/Libraries/XMCLib/src\xmc_usbd.c ****     ep->xferLength = 0U;
1273:C:/Users/Yushev/git/optiga-trust-qi/projects/xmc4700_relax_kit/common/Libraries/XMCLib/src\xmc_usbd.c ****     ep->xferBuffer = ep->outBuffer;
 641              	 .loc 1 1273 0
 642 0026 C368     	 ldr r3,[r0,#12]
1271:C:/Users/Yushev/git/optiga-trust-qi/projects/xmc4700_relax_kit/common/Libraries/XMCLib/src\xmc_usbd.c ****     ep->xferCount = 0U;
 643              	 .loc 1 1271 0
 644 0028 C462     	 str r4,[r0,#44]
1272:C:/Users/Yushev/git/optiga-trust-qi/projects/xmc4700_relax_kit/common/Libraries/XMCLib/src\xmc_usbd.c ****     ep->xferBuffer = ep->outBuffer;
 645              	 .loc 1 1272 0
 646 002a 8462     	 str r4,[r0,#40]
 647              	 .loc 1 1273 0
 648 002c 4362     	 str r3,[r0,#36]
1274:C:/Users/Yushev/git/optiga-trust-qi/projects/xmc4700_relax_kit/common/Libraries/XMCLib/src\xmc_usbd.c ****     ep->outBytesAvailable = 0U;
 649              	 .loc 1 1274 0
 650 002e 0461     	 str r4,[r0,#16]
1275:C:/Users/Yushev/git/optiga-trust-qi/projects/xmc4700_relax_kit/common/Libraries/XMCLib/src\xmc_usbd.c ****     XMC_USBD_lStartReadXfer(ep);
 651              	 .loc 1 1275 0
 652 0030 FFF7FEFF 	 bl XMC_USBD_lStartReadXfer
 653              	.LVL55:
1276:C:/Users/Yushev/git/optiga-trust-qi/projects/xmc4700_relax_kit/common/Libraries/XMCLib/src\xmc_usbd.c ****     result= XMC_USBD_STATUS_OK;
 654              	 .loc 1 1276 0
 655 0034 2046     	 mov r0,r4
 656 0036 10BD     	 pop {r4,pc}
 657              	.LVL56:
 658              	.L58:
1260:C:/Users/Yushev/git/optiga-trust-qi/projects/xmc4700_relax_kit/common/Libraries/XMCLib/src\xmc_usbd.c ****   }
 659              	 .loc 1 1260 0
 660 0038 0120     	 movs r0,#1
 661              	.LVL57:
1277:C:/Users/Yushev/git/optiga-trust-qi/projects/xmc4700_relax_kit/common/Libraries/XMCLib/src\xmc_usbd.c ****   }
1278:C:/Users/Yushev/git/optiga-trust-qi/projects/xmc4700_relax_kit/common/Libraries/XMCLib/src\xmc_usbd.c ****   return result;
1279:C:/Users/Yushev/git/optiga-trust-qi/projects/xmc4700_relax_kit/common/Libraries/XMCLib/src\xmc_usbd.c **** }
 662              	 .loc 1 1279 0
 663 003a 10BD     	 pop {r4,pc}
 664              	.L60:
 665              	 .align 2
 666              	.L59:
 667 003c 00000000 	 .word xmc_device
 668              	 .cfi_endproc
 669              	.LFE199:
 671              	 .section .text.XMC_USBD_DeviceSetAddress,"ax",%progbits
 672              	 .align 1
 673              	 .global XMC_USBD_DeviceSetAddress
 674              	 .thumb
 675              	 .thumb_func
 677              	XMC_USBD_DeviceSetAddress:
 678              	.LFB202:
1280:C:/Users/Yushev/git/optiga-trust-qi/projects/xmc4700_relax_kit/common/Libraries/XMCLib/src\xmc_usbd.c **** 
1281:C:/Users/Yushev/git/optiga-trust-qi/projects/xmc4700_relax_kit/common/Libraries/XMCLib/src\xmc_usbd.c **** /**
1282:C:/Users/Yushev/git/optiga-trust-qi/projects/xmc4700_relax_kit/common/Libraries/XMCLib/src\xmc_usbd.c ****  * Reads the number of bytes from the USB OUT endpoint
1283:C:/Users/Yushev/git/optiga-trust-qi/projects/xmc4700_relax_kit/common/Libraries/XMCLib/src\xmc_usbd.c ****  **/
1284:C:/Users/Yushev/git/optiga-trust-qi/projects/xmc4700_relax_kit/common/Libraries/XMCLib/src\xmc_usbd.c **** int32_t XMC_USBD_EndpointRead(const uint8_t ep_num,uint8_t * buffer,uint32_t length) 
1285:C:/Users/Yushev/git/optiga-trust-qi/projects/xmc4700_relax_kit/common/Libraries/XMCLib/src\xmc_usbd.c **** {
1286:C:/Users/Yushev/git/optiga-trust-qi/projects/xmc4700_relax_kit/common/Libraries/XMCLib/src\xmc_usbd.c ****   XMC_USBD_EP_t *ep = &xmc_device.ep[ep_num];
1287:C:/Users/Yushev/git/optiga-trust-qi/projects/xmc4700_relax_kit/common/Libraries/XMCLib/src\xmc_usbd.c ****   if (length > ep->outBytesAvailable)
1288:C:/Users/Yushev/git/optiga-trust-qi/projects/xmc4700_relax_kit/common/Libraries/XMCLib/src\xmc_usbd.c ****   {
1289:C:/Users/Yushev/git/optiga-trust-qi/projects/xmc4700_relax_kit/common/Libraries/XMCLib/src\xmc_usbd.c ****     length = ep->outBytesAvailable;
1290:C:/Users/Yushev/git/optiga-trust-qi/projects/xmc4700_relax_kit/common/Libraries/XMCLib/src\xmc_usbd.c ****   }
1291:C:/Users/Yushev/git/optiga-trust-qi/projects/xmc4700_relax_kit/common/Libraries/XMCLib/src\xmc_usbd.c ****   memcpy(buffer,&ep->outBuffer[ep->outOffset],length);
1292:C:/Users/Yushev/git/optiga-trust-qi/projects/xmc4700_relax_kit/common/Libraries/XMCLib/src\xmc_usbd.c ****   ep->outBytesAvailable -= length;
1293:C:/Users/Yushev/git/optiga-trust-qi/projects/xmc4700_relax_kit/common/Libraries/XMCLib/src\xmc_usbd.c ****   if (ep->outBytesAvailable)
1294:C:/Users/Yushev/git/optiga-trust-qi/projects/xmc4700_relax_kit/common/Libraries/XMCLib/src\xmc_usbd.c ****   {
1295:C:/Users/Yushev/git/optiga-trust-qi/projects/xmc4700_relax_kit/common/Libraries/XMCLib/src\xmc_usbd.c ****     ep->outOffset += length;
1296:C:/Users/Yushev/git/optiga-trust-qi/projects/xmc4700_relax_kit/common/Libraries/XMCLib/src\xmc_usbd.c ****   }
1297:C:/Users/Yushev/git/optiga-trust-qi/projects/xmc4700_relax_kit/common/Libraries/XMCLib/src\xmc_usbd.c ****   else
1298:C:/Users/Yushev/git/optiga-trust-qi/projects/xmc4700_relax_kit/common/Libraries/XMCLib/src\xmc_usbd.c ****   {
1299:C:/Users/Yushev/git/optiga-trust-qi/projects/xmc4700_relax_kit/common/Libraries/XMCLib/src\xmc_usbd.c ****     ep->outOffset = 0U;
1300:C:/Users/Yushev/git/optiga-trust-qi/projects/xmc4700_relax_kit/common/Libraries/XMCLib/src\xmc_usbd.c ****   }
1301:C:/Users/Yushev/git/optiga-trust-qi/projects/xmc4700_relax_kit/common/Libraries/XMCLib/src\xmc_usbd.c ****   return (int32_t)length;
1302:C:/Users/Yushev/git/optiga-trust-qi/projects/xmc4700_relax_kit/common/Libraries/XMCLib/src\xmc_usbd.c **** }
1303:C:/Users/Yushev/git/optiga-trust-qi/projects/xmc4700_relax_kit/common/Libraries/XMCLib/src\xmc_usbd.c **** 
1304:C:/Users/Yushev/git/optiga-trust-qi/projects/xmc4700_relax_kit/common/Libraries/XMCLib/src\xmc_usbd.c **** /**
1305:C:/Users/Yushev/git/optiga-trust-qi/projects/xmc4700_relax_kit/common/Libraries/XMCLib/src\xmc_usbd.c ****  * Writes number of bytes in to the USB IN endpoint.
1306:C:/Users/Yushev/git/optiga-trust-qi/projects/xmc4700_relax_kit/common/Libraries/XMCLib/src\xmc_usbd.c ****  **/
1307:C:/Users/Yushev/git/optiga-trust-qi/projects/xmc4700_relax_kit/common/Libraries/XMCLib/src\xmc_usbd.c **** int32_t XMC_USBD_EndpointWrite(const uint8_t ep_num,const uint8_t * buffer,uint32_t length) 
1308:C:/Users/Yushev/git/optiga-trust-qi/projects/xmc4700_relax_kit/common/Libraries/XMCLib/src\xmc_usbd.c **** {
1309:C:/Users/Yushev/git/optiga-trust-qi/projects/xmc4700_relax_kit/common/Libraries/XMCLib/src\xmc_usbd.c ****   XMC_USBD_EP_t * ep = &xmc_device.ep[ep_num & (uint8_t)XMC_USBD_EP_NUM_MASK];
1310:C:/Users/Yushev/git/optiga-trust-qi/projects/xmc4700_relax_kit/common/Libraries/XMCLib/src\xmc_usbd.c ****   int32_t result;
1311:C:/Users/Yushev/git/optiga-trust-qi/projects/xmc4700_relax_kit/common/Libraries/XMCLib/src\xmc_usbd.c ****   if (!ep->isConfigured)
1312:C:/Users/Yushev/git/optiga-trust-qi/projects/xmc4700_relax_kit/common/Libraries/XMCLib/src\xmc_usbd.c ****   {
1313:C:/Users/Yushev/git/optiga-trust-qi/projects/xmc4700_relax_kit/common/Libraries/XMCLib/src\xmc_usbd.c ****     result = (int32_t)XMC_USBD_STATUS_ERROR;
1314:C:/Users/Yushev/git/optiga-trust-qi/projects/xmc4700_relax_kit/common/Libraries/XMCLib/src\xmc_usbd.c ****   }
1315:C:/Users/Yushev/git/optiga-trust-qi/projects/xmc4700_relax_kit/common/Libraries/XMCLib/src\xmc_usbd.c ****   else if (ep->inInUse == 1U)
1316:C:/Users/Yushev/git/optiga-trust-qi/projects/xmc4700_relax_kit/common/Libraries/XMCLib/src\xmc_usbd.c ****   {
1317:C:/Users/Yushev/git/optiga-trust-qi/projects/xmc4700_relax_kit/common/Libraries/XMCLib/src\xmc_usbd.c ****     result=(int32_t)0;
1318:C:/Users/Yushev/git/optiga-trust-qi/projects/xmc4700_relax_kit/common/Libraries/XMCLib/src\xmc_usbd.c ****   }
1319:C:/Users/Yushev/git/optiga-trust-qi/projects/xmc4700_relax_kit/common/Libraries/XMCLib/src\xmc_usbd.c ****   else
1320:C:/Users/Yushev/git/optiga-trust-qi/projects/xmc4700_relax_kit/common/Libraries/XMCLib/src\xmc_usbd.c ****   {
1321:C:/Users/Yushev/git/optiga-trust-qi/projects/xmc4700_relax_kit/common/Libraries/XMCLib/src\xmc_usbd.c ****     if (length > ep->inBufferSize)
1322:C:/Users/Yushev/git/optiga-trust-qi/projects/xmc4700_relax_kit/common/Libraries/XMCLib/src\xmc_usbd.c ****     {
1323:C:/Users/Yushev/git/optiga-trust-qi/projects/xmc4700_relax_kit/common/Libraries/XMCLib/src\xmc_usbd.c ****       length = ep->inBufferSize;
1324:C:/Users/Yushev/git/optiga-trust-qi/projects/xmc4700_relax_kit/common/Libraries/XMCLib/src\xmc_usbd.c ****     }
1325:C:/Users/Yushev/git/optiga-trust-qi/projects/xmc4700_relax_kit/common/Libraries/XMCLib/src\xmc_usbd.c ****     /* copy data into input buffer for DMA and FIFO mode */
1326:C:/Users/Yushev/git/optiga-trust-qi/projects/xmc4700_relax_kit/common/Libraries/XMCLib/src\xmc_usbd.c **** 		memcpy(ep->inBuffer,(const void *)buffer,length);
1327:C:/Users/Yushev/git/optiga-trust-qi/projects/xmc4700_relax_kit/common/Libraries/XMCLib/src\xmc_usbd.c **** 		ep->xferBuffer = ep->inBuffer;
1328:C:/Users/Yushev/git/optiga-trust-qi/projects/xmc4700_relax_kit/common/Libraries/XMCLib/src\xmc_usbd.c ****     ep->xferTotal = length;
1329:C:/Users/Yushev/git/optiga-trust-qi/projects/xmc4700_relax_kit/common/Libraries/XMCLib/src\xmc_usbd.c ****     /* set transfer values */
1330:C:/Users/Yushev/git/optiga-trust-qi/projects/xmc4700_relax_kit/common/Libraries/XMCLib/src\xmc_usbd.c ****     ep->xferLength = 0U;
1331:C:/Users/Yushev/git/optiga-trust-qi/projects/xmc4700_relax_kit/common/Libraries/XMCLib/src\xmc_usbd.c ****     ep->xferCount = 0U;
1332:C:/Users/Yushev/git/optiga-trust-qi/projects/xmc4700_relax_kit/common/Libraries/XMCLib/src\xmc_usbd.c ****     ep->inInUse = 1U;
1333:C:/Users/Yushev/git/optiga-trust-qi/projects/xmc4700_relax_kit/common/Libraries/XMCLib/src\xmc_usbd.c ****     /* start the transfer */
1334:C:/Users/Yushev/git/optiga-trust-qi/projects/xmc4700_relax_kit/common/Libraries/XMCLib/src\xmc_usbd.c ****     XMC_USBD_lStartWriteXfer(ep);
1335:C:/Users/Yushev/git/optiga-trust-qi/projects/xmc4700_relax_kit/common/Libraries/XMCLib/src\xmc_usbd.c ****     result=(int32_t)ep->xferTotal;
1336:C:/Users/Yushev/git/optiga-trust-qi/projects/xmc4700_relax_kit/common/Libraries/XMCLib/src\xmc_usbd.c ****   }
1337:C:/Users/Yushev/git/optiga-trust-qi/projects/xmc4700_relax_kit/common/Libraries/XMCLib/src\xmc_usbd.c ****   return result;
1338:C:/Users/Yushev/git/optiga-trust-qi/projects/xmc4700_relax_kit/common/Libraries/XMCLib/src\xmc_usbd.c **** }
1339:C:/Users/Yushev/git/optiga-trust-qi/projects/xmc4700_relax_kit/common/Libraries/XMCLib/src\xmc_usbd.c **** 
1340:C:/Users/Yushev/git/optiga-trust-qi/projects/xmc4700_relax_kit/common/Libraries/XMCLib/src\xmc_usbd.c **** /**
1341:C:/Users/Yushev/git/optiga-trust-qi/projects/xmc4700_relax_kit/common/Libraries/XMCLib/src\xmc_usbd.c ****  * Sets the USB device address.
1342:C:/Users/Yushev/git/optiga-trust-qi/projects/xmc4700_relax_kit/common/Libraries/XMCLib/src\xmc_usbd.c ****  **/
1343:C:/Users/Yushev/git/optiga-trust-qi/projects/xmc4700_relax_kit/common/Libraries/XMCLib/src\xmc_usbd.c **** XMC_USBD_STATUS_t XMC_USBD_DeviceSetAddress(const uint8_t address,const XMC_USBD_SET_ADDRESS_STAGE_
1344:C:/Users/Yushev/git/optiga-trust-qi/projects/xmc4700_relax_kit/common/Libraries/XMCLib/src\xmc_usbd.c **** {
 679              	 .loc 1 1344 0
 680              	 .cfi_startproc
 681              	 
 682              	 
 683              	 
 684              	.LVL58:
1345:C:/Users/Yushev/git/optiga-trust-qi/projects/xmc4700_relax_kit/common/Libraries/XMCLib/src\xmc_usbd.c ****   dcfg_data_t data;
1346:C:/Users/Yushev/git/optiga-trust-qi/projects/xmc4700_relax_kit/common/Libraries/XMCLib/src\xmc_usbd.c ****   data.d32 = xmc_device.device_register->dcfg;
 685              	 .loc 1 1346 0
 686 0000 044B     	 ldr r3,.L63
 687 0002 D3F8A431 	 ldr r3,[r3,#420]
 688 0006 1A68     	 ldr r2,[r3]
 689              	.LVL59:
1347:C:/Users/Yushev/git/optiga-trust-qi/projects/xmc4700_relax_kit/common/Libraries/XMCLib/src\xmc_usbd.c ****   if (stage == XMC_USBD_SET_ADDRESS_STAGE_SETUP)
 690              	 .loc 1 1347 0
 691 0008 11B9     	 cbnz r1,.L62
1348:C:/Users/Yushev/git/optiga-trust-qi/projects/xmc4700_relax_kit/common/Libraries/XMCLib/src\xmc_usbd.c ****   {
1349:C:/Users/Yushev/git/optiga-trust-qi/projects/xmc4700_relax_kit/common/Libraries/XMCLib/src\xmc_usbd.c ****     data.b.devaddr = address;
 692              	 .loc 1 1349 0
 693 000a 60F30A12 	 bfi r2,r0,#4,#7
1350:C:/Users/Yushev/git/optiga-trust-qi/projects/xmc4700_relax_kit/common/Libraries/XMCLib/src\xmc_usbd.c ****     xmc_device.device_register->dcfg = data.d32;
 694              	 .loc 1 1350 0
 695 000e 1A60     	 str r2,[r3]
 696              	.L62:
1351:C:/Users/Yushev/git/optiga-trust-qi/projects/xmc4700_relax_kit/common/Libraries/XMCLib/src\xmc_usbd.c ****   }
1352:C:/Users/Yushev/git/optiga-trust-qi/projects/xmc4700_relax_kit/common/Libraries/XMCLib/src\xmc_usbd.c **** 	return XMC_USBD_STATUS_OK;
1353:C:/Users/Yushev/git/optiga-trust-qi/projects/xmc4700_relax_kit/common/Libraries/XMCLib/src\xmc_usbd.c **** }
 697              	 .loc 1 1353 0
 698 0010 0020     	 movs r0,#0
 699              	.LVL60:
 700 0012 7047     	 bx lr
 701              	.L64:
 702              	 .align 2
 703              	.L63:
 704 0014 00000000 	 .word xmc_device
 705              	 .cfi_endproc
 706              	.LFE202:
 708              	 .section .text.XMC_USBD_EndpointStall,"ax",%progbits
 709              	 .align 1
 710              	 .global XMC_USBD_EndpointStall
 711              	 .thumb
 712              	 .thumb_func
 714              	XMC_USBD_EndpointStall:
 715              	.LFB203:
1354:C:/Users/Yushev/git/optiga-trust-qi/projects/xmc4700_relax_kit/common/Libraries/XMCLib/src\xmc_usbd.c **** 
1355:C:/Users/Yushev/git/optiga-trust-qi/projects/xmc4700_relax_kit/common/Libraries/XMCLib/src\xmc_usbd.c **** /**
1356:C:/Users/Yushev/git/optiga-trust-qi/projects/xmc4700_relax_kit/common/Libraries/XMCLib/src\xmc_usbd.c ****  * Set/clear stall on the selected endpoint.
1357:C:/Users/Yushev/git/optiga-trust-qi/projects/xmc4700_relax_kit/common/Libraries/XMCLib/src\xmc_usbd.c ****  **/
1358:C:/Users/Yushev/git/optiga-trust-qi/projects/xmc4700_relax_kit/common/Libraries/XMCLib/src\xmc_usbd.c **** XMC_USBD_STATUS_t XMC_USBD_EndpointStall(const uint8_t ep_addr, const bool stall) 
1359:C:/Users/Yushev/git/optiga-trust-qi/projects/xmc4700_relax_kit/common/Libraries/XMCLib/src\xmc_usbd.c **** {
 716              	 .loc 1 1359 0
 717              	 .cfi_startproc
 718              	 
 719              	 
 720              	.LVL61:
 721 0000 10B5     	 push {r4,lr}
 722              	.LCFI8:
 723              	 .cfi_def_cfa_offset 8
 724              	 .cfi_offset 4,-8
 725              	 .cfi_offset 14,-4
 726 0002 1D4A     	 ldr r2,.L75
1360:C:/Users/Yushev/git/optiga-trust-qi/projects/xmc4700_relax_kit/common/Libraries/XMCLib/src\xmc_usbd.c ****   depctl_data_t data;
1361:C:/Users/Yushev/git/optiga-trust-qi/projects/xmc4700_relax_kit/common/Libraries/XMCLib/src\xmc_usbd.c ****   XMC_USBD_EP_t *ep = &xmc_device.ep[(ep_addr & (uint8_t)XMC_USBD_EP_NUM_MASK)];
 727              	 .loc 1 1361 0
 728 0004 00F00F04 	 and r4,r0,#15
 729              	.LVL62:
 730 0008 40B2     	 sxtb r0,r0
1362:C:/Users/Yushev/git/optiga-trust-qi/projects/xmc4700_relax_kit/common/Libraries/XMCLib/src\xmc_usbd.c ****   if (stall)
 731              	 .loc 1 1362 0
 732 000a C1B1     	 cbz r1,.L66
 733 000c 3423     	 movs r3,#52
1363:C:/Users/Yushev/git/optiga-trust-qi/projects/xmc4700_relax_kit/common/Libraries/XMCLib/src\xmc_usbd.c ****   {
1364:C:/Users/Yushev/git/optiga-trust-qi/projects/xmc4700_relax_kit/common/Libraries/XMCLib/src\xmc_usbd.c ****     if (ep_addr & (uint8_t)XMC_USBD_ENDPOINT_DIRECTION_MASK)
1365:C:/Users/Yushev/git/optiga-trust-qi/projects/xmc4700_relax_kit/common/Libraries/XMCLib/src\xmc_usbd.c ****     {
1366:C:/Users/Yushev/git/optiga-trust-qi/projects/xmc4700_relax_kit/common/Libraries/XMCLib/src\xmc_usbd.c ****       /*set stall bit */
1367:C:/Users/Yushev/git/optiga-trust-qi/projects/xmc4700_relax_kit/common/Libraries/XMCLib/src\xmc_usbd.c ****       data.d32 = xmc_device.endpoint_in_register[ep->address_u.address_st.number]->diepctl;
 734              	 .loc 1 1367 0
 735 000e 6343     	 muls r3,r4,r3
1364:C:/Users/Yushev/git/optiga-trust-qi/projects/xmc4700_relax_kit/common/Libraries/XMCLib/src\xmc_usbd.c ****     {
 736              	 .loc 1 1364 0
 737 0010 0028     	 cmp r0,#0
 738              	 .loc 1 1367 0
 739 0012 D35C     	 ldrb r3,[r2,r3]
 740 0014 03F00F03 	 and r3,r3,#15
1368:C:/Users/Yushev/git/optiga-trust-qi/projects/xmc4700_relax_kit/common/Libraries/XMCLib/src\xmc_usbd.c ****       data.b.stall = 1U;
1369:C:/Users/Yushev/git/optiga-trust-qi/projects/xmc4700_relax_kit/common/Libraries/XMCLib/src\xmc_usbd.c ****       xmc_device.endpoint_in_register[ep->address_u.address_st.number]->diepctl = data.d32;
1370:C:/Users/Yushev/git/optiga-trust-qi/projects/xmc4700_relax_kit/common/Libraries/XMCLib/src\xmc_usbd.c ****     }
1371:C:/Users/Yushev/git/optiga-trust-qi/projects/xmc4700_relax_kit/common/Libraries/XMCLib/src\xmc_usbd.c ****     else
1372:C:/Users/Yushev/git/optiga-trust-qi/projects/xmc4700_relax_kit/common/Libraries/XMCLib/src\xmc_usbd.c ****     {
1373:C:/Users/Yushev/git/optiga-trust-qi/projects/xmc4700_relax_kit/common/Libraries/XMCLib/src\xmc_usbd.c ****       /*set stall bit */
1374:C:/Users/Yushev/git/optiga-trust-qi/projects/xmc4700_relax_kit/common/Libraries/XMCLib/src\xmc_usbd.c ****       data.d32 = xmc_device.endpoint_out_register[ep->address_u.address_st.number]->doepctl;
 741              	 .loc 1 1374 0
 742 0018 ABBF     	 itete ge
 743 001a 02EB8303 	 addge r3,r2,r3,lsl#2
1367:C:/Users/Yushev/git/optiga-trust-qi/projects/xmc4700_relax_kit/common/Libraries/XMCLib/src\xmc_usbd.c ****       data.b.stall = 1U;
 744              	 .loc 1 1367 0
 745 001e 6A33     	 addlt r3,r3,#106
 746              	 .loc 1 1374 0
 747 0020 D3F8C411 	 ldrge r1,[r3,#452]
 748              	.LVL63:
1367:C:/Users/Yushev/git/optiga-trust-qi/projects/xmc4700_relax_kit/common/Libraries/XMCLib/src\xmc_usbd.c ****       data.b.stall = 1U;
 749              	 .loc 1 1367 0
 750 0024 52F82310 	 ldrlt r1,[r2,r3,lsl#2]
 751              	 .loc 1 1374 0
 752 0028 0B68     	 ldr r3,[r1]
1375:C:/Users/Yushev/git/optiga-trust-qi/projects/xmc4700_relax_kit/common/Libraries/XMCLib/src\xmc_usbd.c ****       data.b.stall = 1U;
 753              	 .loc 1 1375 0
 754 002a 43F40013 	 orr r3,r3,#2097152
 755              	.LVL64:
1376:C:/Users/Yushev/git/optiga-trust-qi/projects/xmc4700_relax_kit/common/Libraries/XMCLib/src\xmc_usbd.c ****       xmc_device.endpoint_out_register[ep->address_u.address_st.number]->doepctl = data.d32;
 756              	 .loc 1 1376 0
 757 002e 0B60     	 str r3,[r1]
1377:C:/Users/Yushev/git/optiga-trust-qi/projects/xmc4700_relax_kit/common/Libraries/XMCLib/src\xmc_usbd.c ****     }
1378:C:/Users/Yushev/git/optiga-trust-qi/projects/xmc4700_relax_kit/common/Libraries/XMCLib/src\xmc_usbd.c ****     ep->isStalled = 1U;
 758              	 .loc 1 1378 0
 759 0030 3423     	 movs r3,#52
 760              	.LVL65:
 761 0032 03FB0422 	 mla r2,r3,r4,r2
 762              	.LVL66:
 763 0036 1379     	 ldrb r3,[r2,#4]
 764 0038 43F02003 	 orr r3,r3,#32
 765 003c 19E0     	 b .L74
 766              	.LVL67:
 767              	.L66:
 768 003e 3423     	 movs r3,#52
1379:C:/Users/Yushev/git/optiga-trust-qi/projects/xmc4700_relax_kit/common/Libraries/XMCLib/src\xmc_usbd.c ****   }
1380:C:/Users/Yushev/git/optiga-trust-qi/projects/xmc4700_relax_kit/common/Libraries/XMCLib/src\xmc_usbd.c ****   else
1381:C:/Users/Yushev/git/optiga-trust-qi/projects/xmc4700_relax_kit/common/Libraries/XMCLib/src\xmc_usbd.c ****   {
1382:C:/Users/Yushev/git/optiga-trust-qi/projects/xmc4700_relax_kit/common/Libraries/XMCLib/src\xmc_usbd.c ****     /* just clear stall bit */
1383:C:/Users/Yushev/git/optiga-trust-qi/projects/xmc4700_relax_kit/common/Libraries/XMCLib/src\xmc_usbd.c **** 		if (ep_addr & (uint8_t)XMC_USBD_ENDPOINT_DIRECTION_MASK)
1384:C:/Users/Yushev/git/optiga-trust-qi/projects/xmc4700_relax_kit/common/Libraries/XMCLib/src\xmc_usbd.c **** 		{
1385:C:/Users/Yushev/git/optiga-trust-qi/projects/xmc4700_relax_kit/common/Libraries/XMCLib/src\xmc_usbd.c **** 			data.d32 = xmc_device.endpoint_in_register[ep->address_u.address_st.number]->diepctl;
 769              	 .loc 1 1385 0
 770 0040 6343     	 muls r3,r4,r3
1383:C:/Users/Yushev/git/optiga-trust-qi/projects/xmc4700_relax_kit/common/Libraries/XMCLib/src\xmc_usbd.c **** 		{
 771              	 .loc 1 1383 0
 772 0042 0028     	 cmp r0,#0
 773              	 .loc 1 1385 0
 774 0044 D35C     	 ldrb r3,[r2,r3]
 775 0046 03F00F03 	 and r3,r3,#15
1386:C:/Users/Yushev/git/optiga-trust-qi/projects/xmc4700_relax_kit/common/Libraries/XMCLib/src\xmc_usbd.c **** 			data.b.stall = 0U;
1387:C:/Users/Yushev/git/optiga-trust-qi/projects/xmc4700_relax_kit/common/Libraries/XMCLib/src\xmc_usbd.c **** 			data.b.setd0pid = 1U; /* reset pid to 0 */
1388:C:/Users/Yushev/git/optiga-trust-qi/projects/xmc4700_relax_kit/common/Libraries/XMCLib/src\xmc_usbd.c **** 			xmc_device.endpoint_in_register[ep->address_u.address_st.number]->diepctl = data.d32;
1389:C:/Users/Yushev/git/optiga-trust-qi/projects/xmc4700_relax_kit/common/Libraries/XMCLib/src\xmc_usbd.c **** 		}
1390:C:/Users/Yushev/git/optiga-trust-qi/projects/xmc4700_relax_kit/common/Libraries/XMCLib/src\xmc_usbd.c **** 		else
1391:C:/Users/Yushev/git/optiga-trust-qi/projects/xmc4700_relax_kit/common/Libraries/XMCLib/src\xmc_usbd.c **** 		{
1392:C:/Users/Yushev/git/optiga-trust-qi/projects/xmc4700_relax_kit/common/Libraries/XMCLib/src\xmc_usbd.c **** 			data.d32 = xmc_device.endpoint_out_register[ep->address_u.address_st.number]->doepctl;
 776              	 .loc 1 1392 0
 777 004a ABBF     	 itete ge
 778 004c 02EB8303 	 addge r3,r2,r3,lsl#2
1385:C:/Users/Yushev/git/optiga-trust-qi/projects/xmc4700_relax_kit/common/Libraries/XMCLib/src\xmc_usbd.c **** 			data.b.stall = 0U;
 779              	 .loc 1 1385 0
 780 0050 6A33     	 addlt r3,r3,#106
 781              	 .loc 1 1392 0
 782 0052 D3F8C401 	 ldrge r0,[r3,#452]
 783              	.LVL68:
1385:C:/Users/Yushev/git/optiga-trust-qi/projects/xmc4700_relax_kit/common/Libraries/XMCLib/src\xmc_usbd.c **** 			data.b.stall = 0U;
 784              	 .loc 1 1385 0
 785 0056 52F82300 	 ldrlt r0,[r2,r3,lsl#2]
 786              	 .loc 1 1392 0
 787 005a 0368     	 ldr r3,[r0]
1393:C:/Users/Yushev/git/optiga-trust-qi/projects/xmc4700_relax_kit/common/Libraries/XMCLib/src\xmc_usbd.c **** 			data.b.stall = 0U;
 788              	 .loc 1 1393 0
 789 005c 61F35553 	 bfi r3,r1,#21,#1
 790              	.LVL69:
1394:C:/Users/Yushev/git/optiga-trust-qi/projects/xmc4700_relax_kit/common/Libraries/XMCLib/src\xmc_usbd.c **** 			data.b.setd0pid = 1U; /* reset pid to 0 */
 791              	 .loc 1 1394 0
 792 0060 43F08053 	 orr r3,r3,#268435456
 793              	.LVL70:
1395:C:/Users/Yushev/git/optiga-trust-qi/projects/xmc4700_relax_kit/common/Libraries/XMCLib/src\xmc_usbd.c **** 			xmc_device.endpoint_out_register[ep->address_u.address_st.number]->doepctl = data.d32;
 794              	 .loc 1 1395 0
 795 0064 0360     	 str r3,[r0]
1396:C:/Users/Yushev/git/optiga-trust-qi/projects/xmc4700_relax_kit/common/Libraries/XMCLib/src\xmc_usbd.c **** 		}
1397:C:/Users/Yushev/git/optiga-trust-qi/projects/xmc4700_relax_kit/common/Libraries/XMCLib/src\xmc_usbd.c **** 		ep->isStalled = 0U;
 796              	 .loc 1 1397 0
 797 0066 3423     	 movs r3,#52
 798              	.LVL71:
 799 0068 03FB0422 	 mla r2,r3,r4,r2
 800 006c 1379     	 ldrb r3,[r2,#4]
 801 006e 6FF34513 	 bfc r3,#5,#1
 802              	.LVL72:
 803              	.L74:
 804 0072 1371     	 strb r3,[r2,#4]
1398:C:/Users/Yushev/git/optiga-trust-qi/projects/xmc4700_relax_kit/common/Libraries/XMCLib/src\xmc_usbd.c **** 	}
1399:C:/Users/Yushev/git/optiga-trust-qi/projects/xmc4700_relax_kit/common/Libraries/XMCLib/src\xmc_usbd.c **** 	return XMC_USBD_STATUS_OK;
1400:C:/Users/Yushev/git/optiga-trust-qi/projects/xmc4700_relax_kit/common/Libraries/XMCLib/src\xmc_usbd.c **** }
 805              	 .loc 1 1400 0
 806 0074 0020     	 movs r0,#0
 807 0076 10BD     	 pop {r4,pc}
 808              	.LVL73:
 809              	.L76:
 810              	 .align 2
 811              	.L75:
 812 0078 00000000 	 .word xmc_device
 813              	 .cfi_endproc
 814              	.LFE203:
 816              	 .section .text.XMC_USBD_EndpointAbort,"ax",%progbits
 817              	 .align 1
 818              	 .global XMC_USBD_EndpointAbort
 819              	 .thumb
 820              	 .thumb_func
 822              	XMC_USBD_EndpointAbort:
 823              	.LFB204:
1401:C:/Users/Yushev/git/optiga-trust-qi/projects/xmc4700_relax_kit/common/Libraries/XMCLib/src\xmc_usbd.c **** 
1402:C:/Users/Yushev/git/optiga-trust-qi/projects/xmc4700_relax_kit/common/Libraries/XMCLib/src\xmc_usbd.c **** /**
1403:C:/Users/Yushev/git/optiga-trust-qi/projects/xmc4700_relax_kit/common/Libraries/XMCLib/src\xmc_usbd.c ****  * Aborts the data transfer on the selected endpoint
1404:C:/Users/Yushev/git/optiga-trust-qi/projects/xmc4700_relax_kit/common/Libraries/XMCLib/src\xmc_usbd.c ****  **/
1405:C:/Users/Yushev/git/optiga-trust-qi/projects/xmc4700_relax_kit/common/Libraries/XMCLib/src\xmc_usbd.c **** XMC_USBD_STATUS_t XMC_USBD_EndpointAbort(const uint8_t ep_addr) {
 824              	 .loc 1 1405 0
 825              	 .cfi_startproc
 826              	 
 827              	 
 828              	 
 829              	.LVL74:
1406:C:/Users/Yushev/git/optiga-trust-qi/projects/xmc4700_relax_kit/common/Libraries/XMCLib/src\xmc_usbd.c ****   XMC_USBD_EP_t *ep = &xmc_device.ep[ep_addr & (uint8_t)XMC_USBD_ENDPOINT_NUMBER_MASK];
 830              	 .loc 1 1406 0
 831 0000 00F00F02 	 and r2,r0,#15
 832              	.LVL75:
1407:C:/Users/Yushev/git/optiga-trust-qi/projects/xmc4700_relax_kit/common/Libraries/XMCLib/src\xmc_usbd.c ****   if (ep->address_u.address_st.direction)
 833              	 .loc 1 1407 0
 834 0004 3421     	 movs r1,#52
 835 0006 114B     	 ldr r3,.L83
 836 0008 5143     	 muls r1,r2,r1
 837 000a 5818     	 adds r0,r3,r1
 838              	.LVL76:
 839 000c 595C     	 ldrb r1,[r3,r1]
 840 000e 0906     	 lsls r1,r1,#24
1408:C:/Users/Yushev/git/optiga-trust-qi/projects/xmc4700_relax_kit/common/Libraries/XMCLib/src\xmc_usbd.c ****   {
1409:C:/Users/Yushev/git/optiga-trust-qi/projects/xmc4700_relax_kit/common/Libraries/XMCLib/src\xmc_usbd.c ****     ep->inInUse = 0U;
 841              	 .loc 1 1409 0
 842 0010 42BF     	 ittt mi
 843 0012 4168     	 ldrmi r1,[r0,#4]
 844 0014 21F00801 	 bicmi r1,r1,#8
 845 0018 4160     	 strmi r1,[r0,#4]
1410:C:/Users/Yushev/git/optiga-trust-qi/projects/xmc4700_relax_kit/common/Libraries/XMCLib/src\xmc_usbd.c ****   }
1411:C:/Users/Yushev/git/optiga-trust-qi/projects/xmc4700_relax_kit/common/Libraries/XMCLib/src\xmc_usbd.c ****   if (!ep->address_u.address_st.direction)
 846              	 .loc 1 1411 0
 847 001a 3421     	 movs r1,#52
 848 001c 5143     	 muls r1,r2,r1
 849 001e 5818     	 adds r0,r3,r1
 850 0020 595C     	 ldrb r1,[r3,r1]
 851 0022 0906     	 lsls r1,r1,#24
1412:C:/Users/Yushev/git/optiga-trust-qi/projects/xmc4700_relax_kit/common/Libraries/XMCLib/src\xmc_usbd.c ****   {
1413:C:/Users/Yushev/git/optiga-trust-qi/projects/xmc4700_relax_kit/common/Libraries/XMCLib/src\xmc_usbd.c ****     ep->outInUse = 0U;
 852              	 .loc 1 1413 0
 853 0024 5EBF     	 ittt pl
 854 0026 4168     	 ldrpl r1,[r0,#4]
 855 0028 21F01001 	 bicpl r1,r1,#16
 856 002c 4160     	 strpl r1,[r0,#4]
1414:C:/Users/Yushev/git/optiga-trust-qi/projects/xmc4700_relax_kit/common/Libraries/XMCLib/src\xmc_usbd.c ****   }
1415:C:/Users/Yushev/git/optiga-trust-qi/projects/xmc4700_relax_kit/common/Libraries/XMCLib/src\xmc_usbd.c ****   ep->isStalled = 0U;
 857              	 .loc 1 1415 0
 858 002e 3420     	 movs r0,#52
 859              	.LVL77:
 860 0030 00FB0233 	 mla r3,r0,r2,r3
 861              	.LVL78:
1416:C:/Users/Yushev/git/optiga-trust-qi/projects/xmc4700_relax_kit/common/Libraries/XMCLib/src\xmc_usbd.c ****   ep->outBytesAvailable = 0U;
 862              	 .loc 1 1416 0
 863 0034 0020     	 movs r0,#0
1415:C:/Users/Yushev/git/optiga-trust-qi/projects/xmc4700_relax_kit/common/Libraries/XMCLib/src\xmc_usbd.c ****   ep->outBytesAvailable = 0U;
 864              	 .loc 1 1415 0
 865 0036 1A79     	 ldrb r2,[r3,#4]
 866              	 .loc 1 1416 0
 867 0038 1861     	 str r0,[r3,#16]
1415:C:/Users/Yushev/git/optiga-trust-qi/projects/xmc4700_relax_kit/common/Libraries/XMCLib/src\xmc_usbd.c ****   ep->outBytesAvailable = 0U;
 868              	 .loc 1 1415 0
 869 003a 6FF34512 	 bfc r2,#5,#1
 870 003e 1A71     	 strb r2,[r3,#4]
1417:C:/Users/Yushev/git/optiga-trust-qi/projects/xmc4700_relax_kit/common/Libraries/XMCLib/src\xmc_usbd.c ****   ep->outOffset = 0U;
 871              	 .loc 1 1417 0
 872 0040 9861     	 str r0,[r3,#24]
1418:C:/Users/Yushev/git/optiga-trust-qi/projects/xmc4700_relax_kit/common/Libraries/XMCLib/src\xmc_usbd.c ****   ep->xferLength = 0U;
 873              	 .loc 1 1418 0
 874 0042 9862     	 str r0,[r3,#40]
1419:C:/Users/Yushev/git/optiga-trust-qi/projects/xmc4700_relax_kit/common/Libraries/XMCLib/src\xmc_usbd.c ****   ep->xferCount = 0U;
 875              	 .loc 1 1419 0
 876 0044 D862     	 str r0,[r3,#44]
1420:C:/Users/Yushev/git/optiga-trust-qi/projects/xmc4700_relax_kit/common/Libraries/XMCLib/src\xmc_usbd.c ****   ep->xferTotal = 0U;
 877              	 .loc 1 1420 0
 878 0046 1863     	 str r0,[r3,#48]
1421:C:/Users/Yushev/git/optiga-trust-qi/projects/xmc4700_relax_kit/common/Libraries/XMCLib/src\xmc_usbd.c **** 
1422:C:/Users/Yushev/git/optiga-trust-qi/projects/xmc4700_relax_kit/common/Libraries/XMCLib/src\xmc_usbd.c ****   return XMC_USBD_STATUS_OK;
1423:C:/Users/Yushev/git/optiga-trust-qi/projects/xmc4700_relax_kit/common/Libraries/XMCLib/src\xmc_usbd.c **** }
 879              	 .loc 1 1423 0
 880 0048 7047     	 bx lr
 881              	.L84:
 882 004a 00BF     	 .align 2
 883              	.L83:
 884 004c 00000000 	 .word xmc_device
 885              	 .cfi_endproc
 886              	.LFE204:
 888              	 .section .text.XMC_USBD_EndpointUnconfigure,"ax",%progbits
 889              	 .align 1
 890              	 .global XMC_USBD_EndpointUnconfigure
 891              	 .thumb
 892              	 .thumb_func
 894              	XMC_USBD_EndpointUnconfigure:
 895              	.LFB206:
1424:C:/Users/Yushev/git/optiga-trust-qi/projects/xmc4700_relax_kit/common/Libraries/XMCLib/src\xmc_usbd.c **** 
1425:C:/Users/Yushev/git/optiga-trust-qi/projects/xmc4700_relax_kit/common/Libraries/XMCLib/src\xmc_usbd.c **** /**
1426:C:/Users/Yushev/git/optiga-trust-qi/projects/xmc4700_relax_kit/common/Libraries/XMCLib/src\xmc_usbd.c ****  * Configures the given endpoint
1427:C:/Users/Yushev/git/optiga-trust-qi/projects/xmc4700_relax_kit/common/Libraries/XMCLib/src\xmc_usbd.c ****  **/
1428:C:/Users/Yushev/git/optiga-trust-qi/projects/xmc4700_relax_kit/common/Libraries/XMCLib/src\xmc_usbd.c **** XMC_USBD_STATUS_t XMC_USBD_EndpointConfigure(const uint8_t ep_addr,
1429:C:/Users/Yushev/git/optiga-trust-qi/projects/xmc4700_relax_kit/common/Libraries/XMCLib/src\xmc_usbd.c **** 		                                     const XMC_USBD_ENDPOINT_TYPE_t ep_type,
1430:C:/Users/Yushev/git/optiga-trust-qi/projects/xmc4700_relax_kit/common/Libraries/XMCLib/src\xmc_usbd.c **** 		                                     const uint16_t ep_max_packet_size) 
1431:C:/Users/Yushev/git/optiga-trust-qi/projects/xmc4700_relax_kit/common/Libraries/XMCLib/src\xmc_usbd.c **** {
1432:C:/Users/Yushev/git/optiga-trust-qi/projects/xmc4700_relax_kit/common/Libraries/XMCLib/src\xmc_usbd.c ****   daint_data_t daintmsk;
1433:C:/Users/Yushev/git/optiga-trust-qi/projects/xmc4700_relax_kit/common/Libraries/XMCLib/src\xmc_usbd.c ****   XMC_USBD_EP_t *ep;
1434:C:/Users/Yushev/git/optiga-trust-qi/projects/xmc4700_relax_kit/common/Libraries/XMCLib/src\xmc_usbd.c ****   daintmsk.d32 = xmc_device.device_register->daintmsk;  
1435:C:/Users/Yushev/git/optiga-trust-qi/projects/xmc4700_relax_kit/common/Libraries/XMCLib/src\xmc_usbd.c ****   ep =&xmc_device.ep[ep_addr & (uint32_t)XMC_USBD_ENDPOINT_NUMBER_MASK];
1436:C:/Users/Yushev/git/optiga-trust-qi/projects/xmc4700_relax_kit/common/Libraries/XMCLib/src\xmc_usbd.c ****   memset((void*)ep,0x0U,sizeof(XMC_USBD_EP_t)); /* clear endpoint structure */
1437:C:/Users/Yushev/git/optiga-trust-qi/projects/xmc4700_relax_kit/common/Libraries/XMCLib/src\xmc_usbd.c ****   /* do ep configuration */
1438:C:/Users/Yushev/git/optiga-trust-qi/projects/xmc4700_relax_kit/common/Libraries/XMCLib/src\xmc_usbd.c ****   ep->address_u.address = ep_addr;
1439:C:/Users/Yushev/git/optiga-trust-qi/projects/xmc4700_relax_kit/common/Libraries/XMCLib/src\xmc_usbd.c ****   ep->isConfigured = 1U;
1440:C:/Users/Yushev/git/optiga-trust-qi/projects/xmc4700_relax_kit/common/Libraries/XMCLib/src\xmc_usbd.c ****   ep->maxPacketSize = (uint8_t)ep_max_packet_size;
1441:C:/Users/Yushev/git/optiga-trust-qi/projects/xmc4700_relax_kit/common/Libraries/XMCLib/src\xmc_usbd.c ****   if (ep->address_u.address != 0U)
1442:C:/Users/Yushev/git/optiga-trust-qi/projects/xmc4700_relax_kit/common/Libraries/XMCLib/src\xmc_usbd.c ****   {
1443:C:/Users/Yushev/git/optiga-trust-qi/projects/xmc4700_relax_kit/common/Libraries/XMCLib/src\xmc_usbd.c ****     ep->maxTransferSize = (uint32_t)XMC_USBD_MAX_TRANSFER_SIZE;
1444:C:/Users/Yushev/git/optiga-trust-qi/projects/xmc4700_relax_kit/common/Libraries/XMCLib/src\xmc_usbd.c ****   }
1445:C:/Users/Yushev/git/optiga-trust-qi/projects/xmc4700_relax_kit/common/Libraries/XMCLib/src\xmc_usbd.c ****   else
1446:C:/Users/Yushev/git/optiga-trust-qi/projects/xmc4700_relax_kit/common/Libraries/XMCLib/src\xmc_usbd.c ****   {
1447:C:/Users/Yushev/git/optiga-trust-qi/projects/xmc4700_relax_kit/common/Libraries/XMCLib/src\xmc_usbd.c ****     ep->maxTransferSize = (uint32_t)XMC_USBD_MAX_TRANSFER_SIZE_EP0;
1448:C:/Users/Yushev/git/optiga-trust-qi/projects/xmc4700_relax_kit/common/Libraries/XMCLib/src\xmc_usbd.c ****   }
1449:C:/Users/Yushev/git/optiga-trust-qi/projects/xmc4700_relax_kit/common/Libraries/XMCLib/src\xmc_usbd.c ****   /* transfer buffer */
1450:C:/Users/Yushev/git/optiga-trust-qi/projects/xmc4700_relax_kit/common/Libraries/XMCLib/src\xmc_usbd.c ****   ep->inBuffer = XMC_USBD_EP_IN_BUFFER[ep->address_u.address_st.number];
1451:C:/Users/Yushev/git/optiga-trust-qi/projects/xmc4700_relax_kit/common/Libraries/XMCLib/src\xmc_usbd.c ****   ep->outBuffer = XMC_USBD_EP_OUT_BUFFER[ep->address_u.address_st.number];
1452:C:/Users/Yushev/git/optiga-trust-qi/projects/xmc4700_relax_kit/common/Libraries/XMCLib/src\xmc_usbd.c ****   /* buffer size*/
1453:C:/Users/Yushev/git/optiga-trust-qi/projects/xmc4700_relax_kit/common/Libraries/XMCLib/src\xmc_usbd.c ****   ep->inBufferSize = XMC_USBD_EP_IN_BUFFERSIZE[ep->address_u.address_st.number];
1454:C:/Users/Yushev/git/optiga-trust-qi/projects/xmc4700_relax_kit/common/Libraries/XMCLib/src\xmc_usbd.c ****   ep->outBufferSize = XMC_USBD_EP_OUT_BUFFERSIZE[ep->address_u.address_st.number];
1455:C:/Users/Yushev/git/optiga-trust-qi/projects/xmc4700_relax_kit/common/Libraries/XMCLib/src\xmc_usbd.c ****   /* is in */
1456:C:/Users/Yushev/git/optiga-trust-qi/projects/xmc4700_relax_kit/common/Libraries/XMCLib/src\xmc_usbd.c ****   if ((ep->address_u.address_st.direction == 1U) || (ep_type == XMC_USBD_ENDPOINT_TYPE_CONTROL))
1457:C:/Users/Yushev/git/optiga-trust-qi/projects/xmc4700_relax_kit/common/Libraries/XMCLib/src\xmc_usbd.c ****   {
1458:C:/Users/Yushev/git/optiga-trust-qi/projects/xmc4700_relax_kit/common/Libraries/XMCLib/src\xmc_usbd.c ****     depctl_data_t data;
1459:C:/Users/Yushev/git/optiga-trust-qi/projects/xmc4700_relax_kit/common/Libraries/XMCLib/src\xmc_usbd.c ****     data.d32 = xmc_device.endpoint_in_register[ep->address_u.address_st.number]->diepctl;
1460:C:/Users/Yushev/git/optiga-trust-qi/projects/xmc4700_relax_kit/common/Libraries/XMCLib/src\xmc_usbd.c **** 		/*enable endpoint */
1461:C:/Users/Yushev/git/optiga-trust-qi/projects/xmc4700_relax_kit/common/Libraries/XMCLib/src\xmc_usbd.c **** 		data.b.usbactep = 1U;
1462:C:/Users/Yushev/git/optiga-trust-qi/projects/xmc4700_relax_kit/common/Libraries/XMCLib/src\xmc_usbd.c **** 		/* set ep type */
1463:C:/Users/Yushev/git/optiga-trust-qi/projects/xmc4700_relax_kit/common/Libraries/XMCLib/src\xmc_usbd.c **** 		data.b.eptype = (uint8_t)ep_type;
1464:C:/Users/Yushev/git/optiga-trust-qi/projects/xmc4700_relax_kit/common/Libraries/XMCLib/src\xmc_usbd.c **** 		/* set mps */
1465:C:/Users/Yushev/git/optiga-trust-qi/projects/xmc4700_relax_kit/common/Libraries/XMCLib/src\xmc_usbd.c ****     if (ep_type == XMC_USBD_ENDPOINT_TYPE_CONTROL)
1466:C:/Users/Yushev/git/optiga-trust-qi/projects/xmc4700_relax_kit/common/Libraries/XMCLib/src\xmc_usbd.c ****     {
1467:C:/Users/Yushev/git/optiga-trust-qi/projects/xmc4700_relax_kit/common/Libraries/XMCLib/src\xmc_usbd.c **** 			switch(ep_max_packet_size)
1468:C:/Users/Yushev/git/optiga-trust-qi/projects/xmc4700_relax_kit/common/Libraries/XMCLib/src\xmc_usbd.c **** 			{
1469:C:/Users/Yushev/git/optiga-trust-qi/projects/xmc4700_relax_kit/common/Libraries/XMCLib/src\xmc_usbd.c **** 				case (64U):
1470:C:/Users/Yushev/git/optiga-trust-qi/projects/xmc4700_relax_kit/common/Libraries/XMCLib/src\xmc_usbd.c **** 				data.b.mps = 0x0U;
1471:C:/Users/Yushev/git/optiga-trust-qi/projects/xmc4700_relax_kit/common/Libraries/XMCLib/src\xmc_usbd.c **** 				break;
1472:C:/Users/Yushev/git/optiga-trust-qi/projects/xmc4700_relax_kit/common/Libraries/XMCLib/src\xmc_usbd.c **** 				case (32U):
1473:C:/Users/Yushev/git/optiga-trust-qi/projects/xmc4700_relax_kit/common/Libraries/XMCLib/src\xmc_usbd.c **** 				data.b.mps = 0x1U;
1474:C:/Users/Yushev/git/optiga-trust-qi/projects/xmc4700_relax_kit/common/Libraries/XMCLib/src\xmc_usbd.c **** 				break;
1475:C:/Users/Yushev/git/optiga-trust-qi/projects/xmc4700_relax_kit/common/Libraries/XMCLib/src\xmc_usbd.c **** 				case (16U):
1476:C:/Users/Yushev/git/optiga-trust-qi/projects/xmc4700_relax_kit/common/Libraries/XMCLib/src\xmc_usbd.c **** 				data.b.mps = 0x2U;
1477:C:/Users/Yushev/git/optiga-trust-qi/projects/xmc4700_relax_kit/common/Libraries/XMCLib/src\xmc_usbd.c **** 				break;
1478:C:/Users/Yushev/git/optiga-trust-qi/projects/xmc4700_relax_kit/common/Libraries/XMCLib/src\xmc_usbd.c **** 				case (8U):
1479:C:/Users/Yushev/git/optiga-trust-qi/projects/xmc4700_relax_kit/common/Libraries/XMCLib/src\xmc_usbd.c **** 				data.b.mps = 0x3U;
1480:C:/Users/Yushev/git/optiga-trust-qi/projects/xmc4700_relax_kit/common/Libraries/XMCLib/src\xmc_usbd.c **** 				break;
1481:C:/Users/Yushev/git/optiga-trust-qi/projects/xmc4700_relax_kit/common/Libraries/XMCLib/src\xmc_usbd.c **** 				default:
1482:C:/Users/Yushev/git/optiga-trust-qi/projects/xmc4700_relax_kit/common/Libraries/XMCLib/src\xmc_usbd.c **** 				break;
1483:C:/Users/Yushev/git/optiga-trust-qi/projects/xmc4700_relax_kit/common/Libraries/XMCLib/src\xmc_usbd.c **** 			}
1484:C:/Users/Yushev/git/optiga-trust-qi/projects/xmc4700_relax_kit/common/Libraries/XMCLib/src\xmc_usbd.c **** 		}
1485:C:/Users/Yushev/git/optiga-trust-qi/projects/xmc4700_relax_kit/common/Libraries/XMCLib/src\xmc_usbd.c **** 		else
1486:C:/Users/Yushev/git/optiga-trust-qi/projects/xmc4700_relax_kit/common/Libraries/XMCLib/src\xmc_usbd.c **** 		{
1487:C:/Users/Yushev/git/optiga-trust-qi/projects/xmc4700_relax_kit/common/Libraries/XMCLib/src\xmc_usbd.c **** 			data.b.mps = ep_max_packet_size;
1488:C:/Users/Yushev/git/optiga-trust-qi/projects/xmc4700_relax_kit/common/Libraries/XMCLib/src\xmc_usbd.c **** 		}
1489:C:/Users/Yushev/git/optiga-trust-qi/projects/xmc4700_relax_kit/common/Libraries/XMCLib/src\xmc_usbd.c **** 		/* set first data0 pid */
1490:C:/Users/Yushev/git/optiga-trust-qi/projects/xmc4700_relax_kit/common/Libraries/XMCLib/src\xmc_usbd.c **** 		data.b.setd0pid = 1U;
1491:C:/Users/Yushev/git/optiga-trust-qi/projects/xmc4700_relax_kit/common/Libraries/XMCLib/src\xmc_usbd.c **** 		/* clear stall */
1492:C:/Users/Yushev/git/optiga-trust-qi/projects/xmc4700_relax_kit/common/Libraries/XMCLib/src\xmc_usbd.c **** 		data.b.stall = 0U;
1493:C:/Users/Yushev/git/optiga-trust-qi/projects/xmc4700_relax_kit/common/Libraries/XMCLib/src\xmc_usbd.c **** 		/* set tx fifo */
1494:C:/Users/Yushev/git/optiga-trust-qi/projects/xmc4700_relax_kit/common/Libraries/XMCLib/src\xmc_usbd.c **** 		ep->txFifoNum = XMC_USBD_lAssignTXFifo(); /* get tx fifo */
1495:C:/Users/Yushev/git/optiga-trust-qi/projects/xmc4700_relax_kit/common/Libraries/XMCLib/src\xmc_usbd.c **** 		data.b.txfnum = ep->txFifoNum;
1496:C:/Users/Yushev/git/optiga-trust-qi/projects/xmc4700_relax_kit/common/Libraries/XMCLib/src\xmc_usbd.c **** 		xmc_device.endpoint_in_register[ep->address_u.address_st.number]->diepctl = data.d32; /* configur
1497:C:/Users/Yushev/git/optiga-trust-qi/projects/xmc4700_relax_kit/common/Libraries/XMCLib/src\xmc_usbd.c **** 		daintmsk.ep.in |= (uint16_t)((uint16_t)1U << (uint8_t)ep->address_u.address_st.number); /* enable
1498:C:/Users/Yushev/git/optiga-trust-qi/projects/xmc4700_relax_kit/common/Libraries/XMCLib/src\xmc_usbd.c ****   }
1499:C:/Users/Yushev/git/optiga-trust-qi/projects/xmc4700_relax_kit/common/Libraries/XMCLib/src\xmc_usbd.c ****   if ((ep->address_u.address_st.direction == 0U) || (ep_type == XMC_USBD_ENDPOINT_TYPE_CONTROL))
1500:C:/Users/Yushev/git/optiga-trust-qi/projects/xmc4700_relax_kit/common/Libraries/XMCLib/src\xmc_usbd.c ****   {
1501:C:/Users/Yushev/git/optiga-trust-qi/projects/xmc4700_relax_kit/common/Libraries/XMCLib/src\xmc_usbd.c ****     /* is out */
1502:C:/Users/Yushev/git/optiga-trust-qi/projects/xmc4700_relax_kit/common/Libraries/XMCLib/src\xmc_usbd.c **** 		depctl_data_t data;
1503:C:/Users/Yushev/git/optiga-trust-qi/projects/xmc4700_relax_kit/common/Libraries/XMCLib/src\xmc_usbd.c **** 		data.d32 = xmc_device.endpoint_out_register[ep->address_u.address_st.number]->doepctl;
1504:C:/Users/Yushev/git/optiga-trust-qi/projects/xmc4700_relax_kit/common/Libraries/XMCLib/src\xmc_usbd.c **** 		/*enable endpoint */
1505:C:/Users/Yushev/git/optiga-trust-qi/projects/xmc4700_relax_kit/common/Libraries/XMCLib/src\xmc_usbd.c **** 		data.b.usbactep = 1U;
1506:C:/Users/Yushev/git/optiga-trust-qi/projects/xmc4700_relax_kit/common/Libraries/XMCLib/src\xmc_usbd.c **** 		/* set ep type */
1507:C:/Users/Yushev/git/optiga-trust-qi/projects/xmc4700_relax_kit/common/Libraries/XMCLib/src\xmc_usbd.c **** 		data.b.eptype = (uint8_t)ep_type;
1508:C:/Users/Yushev/git/optiga-trust-qi/projects/xmc4700_relax_kit/common/Libraries/XMCLib/src\xmc_usbd.c ****     /* set mps */
1509:C:/Users/Yushev/git/optiga-trust-qi/projects/xmc4700_relax_kit/common/Libraries/XMCLib/src\xmc_usbd.c ****     if (ep_type == XMC_USBD_ENDPOINT_TYPE_CONTROL)
1510:C:/Users/Yushev/git/optiga-trust-qi/projects/xmc4700_relax_kit/common/Libraries/XMCLib/src\xmc_usbd.c **** 		{
1511:C:/Users/Yushev/git/optiga-trust-qi/projects/xmc4700_relax_kit/common/Libraries/XMCLib/src\xmc_usbd.c **** 			switch(ep_max_packet_size)
1512:C:/Users/Yushev/git/optiga-trust-qi/projects/xmc4700_relax_kit/common/Libraries/XMCLib/src\xmc_usbd.c **** 			{
1513:C:/Users/Yushev/git/optiga-trust-qi/projects/xmc4700_relax_kit/common/Libraries/XMCLib/src\xmc_usbd.c **** 				case (64U):
1514:C:/Users/Yushev/git/optiga-trust-qi/projects/xmc4700_relax_kit/common/Libraries/XMCLib/src\xmc_usbd.c **** 					data.b.mps = 0x0U;
1515:C:/Users/Yushev/git/optiga-trust-qi/projects/xmc4700_relax_kit/common/Libraries/XMCLib/src\xmc_usbd.c **** 					break;
1516:C:/Users/Yushev/git/optiga-trust-qi/projects/xmc4700_relax_kit/common/Libraries/XMCLib/src\xmc_usbd.c **** 				case (32U):
1517:C:/Users/Yushev/git/optiga-trust-qi/projects/xmc4700_relax_kit/common/Libraries/XMCLib/src\xmc_usbd.c **** 					data.b.mps = 0x1U;
1518:C:/Users/Yushev/git/optiga-trust-qi/projects/xmc4700_relax_kit/common/Libraries/XMCLib/src\xmc_usbd.c **** 					break;
1519:C:/Users/Yushev/git/optiga-trust-qi/projects/xmc4700_relax_kit/common/Libraries/XMCLib/src\xmc_usbd.c **** 				case (16U):
1520:C:/Users/Yushev/git/optiga-trust-qi/projects/xmc4700_relax_kit/common/Libraries/XMCLib/src\xmc_usbd.c **** 					data.b.mps = 0x2U;
1521:C:/Users/Yushev/git/optiga-trust-qi/projects/xmc4700_relax_kit/common/Libraries/XMCLib/src\xmc_usbd.c **** 					break;
1522:C:/Users/Yushev/git/optiga-trust-qi/projects/xmc4700_relax_kit/common/Libraries/XMCLib/src\xmc_usbd.c **** 				case (8U):
1523:C:/Users/Yushev/git/optiga-trust-qi/projects/xmc4700_relax_kit/common/Libraries/XMCLib/src\xmc_usbd.c **** 					data.b.mps = 0x3U;
1524:C:/Users/Yushev/git/optiga-trust-qi/projects/xmc4700_relax_kit/common/Libraries/XMCLib/src\xmc_usbd.c **** 					break;
1525:C:/Users/Yushev/git/optiga-trust-qi/projects/xmc4700_relax_kit/common/Libraries/XMCLib/src\xmc_usbd.c **** 				default:
1526:C:/Users/Yushev/git/optiga-trust-qi/projects/xmc4700_relax_kit/common/Libraries/XMCLib/src\xmc_usbd.c **** 					break;
1527:C:/Users/Yushev/git/optiga-trust-qi/projects/xmc4700_relax_kit/common/Libraries/XMCLib/src\xmc_usbd.c **** 			}
1528:C:/Users/Yushev/git/optiga-trust-qi/projects/xmc4700_relax_kit/common/Libraries/XMCLib/src\xmc_usbd.c **** 		}
1529:C:/Users/Yushev/git/optiga-trust-qi/projects/xmc4700_relax_kit/common/Libraries/XMCLib/src\xmc_usbd.c **** 		else
1530:C:/Users/Yushev/git/optiga-trust-qi/projects/xmc4700_relax_kit/common/Libraries/XMCLib/src\xmc_usbd.c **** 		{
1531:C:/Users/Yushev/git/optiga-trust-qi/projects/xmc4700_relax_kit/common/Libraries/XMCLib/src\xmc_usbd.c **** 			data.b.mps = ep_max_packet_size;
1532:C:/Users/Yushev/git/optiga-trust-qi/projects/xmc4700_relax_kit/common/Libraries/XMCLib/src\xmc_usbd.c **** 		}
1533:C:/Users/Yushev/git/optiga-trust-qi/projects/xmc4700_relax_kit/common/Libraries/XMCLib/src\xmc_usbd.c **** 		/* set first data0 pid */
1534:C:/Users/Yushev/git/optiga-trust-qi/projects/xmc4700_relax_kit/common/Libraries/XMCLib/src\xmc_usbd.c **** 		data.b.setd0pid = 1U;
1535:C:/Users/Yushev/git/optiga-trust-qi/projects/xmc4700_relax_kit/common/Libraries/XMCLib/src\xmc_usbd.c **** 		/* clear stall */
1536:C:/Users/Yushev/git/optiga-trust-qi/projects/xmc4700_relax_kit/common/Libraries/XMCLib/src\xmc_usbd.c **** 		data.b.stall =(uint8_t) 0U;
1537:C:/Users/Yushev/git/optiga-trust-qi/projects/xmc4700_relax_kit/common/Libraries/XMCLib/src\xmc_usbd.c **** 		xmc_device.endpoint_out_register[ep->address_u.address_st.number]->doepctl = data.d32; /* configu
1538:C:/Users/Yushev/git/optiga-trust-qi/projects/xmc4700_relax_kit/common/Libraries/XMCLib/src\xmc_usbd.c **** 		daintmsk.ep.out |=(uint16_t) ((uint16_t)1U << (uint8_t)ep->address_u.address_st.number); /* enabl
1539:C:/Users/Yushev/git/optiga-trust-qi/projects/xmc4700_relax_kit/common/Libraries/XMCLib/src\xmc_usbd.c ****   }
1540:C:/Users/Yushev/git/optiga-trust-qi/projects/xmc4700_relax_kit/common/Libraries/XMCLib/src\xmc_usbd.c ****   xmc_device.device_register->daintmsk = daintmsk.d32;
1541:C:/Users/Yushev/git/optiga-trust-qi/projects/xmc4700_relax_kit/common/Libraries/XMCLib/src\xmc_usbd.c ****   return XMC_USBD_STATUS_OK;
1542:C:/Users/Yushev/git/optiga-trust-qi/projects/xmc4700_relax_kit/common/Libraries/XMCLib/src\xmc_usbd.c **** }
1543:C:/Users/Yushev/git/optiga-trust-qi/projects/xmc4700_relax_kit/common/Libraries/XMCLib/src\xmc_usbd.c **** 
1544:C:/Users/Yushev/git/optiga-trust-qi/projects/xmc4700_relax_kit/common/Libraries/XMCLib/src\xmc_usbd.c **** /**
1545:C:/Users/Yushev/git/optiga-trust-qi/projects/xmc4700_relax_kit/common/Libraries/XMCLib/src\xmc_usbd.c ****  * Unconfigure the selected endpoint.
1546:C:/Users/Yushev/git/optiga-trust-qi/projects/xmc4700_relax_kit/common/Libraries/XMCLib/src\xmc_usbd.c ****  **/
1547:C:/Users/Yushev/git/optiga-trust-qi/projects/xmc4700_relax_kit/common/Libraries/XMCLib/src\xmc_usbd.c **** XMC_USBD_STATUS_t XMC_USBD_EndpointUnconfigure(const uint8_t ep_addr) 
1548:C:/Users/Yushev/git/optiga-trust-qi/projects/xmc4700_relax_kit/common/Libraries/XMCLib/src\xmc_usbd.c **** {
 896              	 .loc 1 1548 0
 897              	 .cfi_startproc
 898              	 
 899              	 
 900              	.LVL79:
 901 0000 2DE9F041 	 push {r4,r5,r6,r7,r8,lr}
 902              	.LCFI9:
 903              	 .cfi_def_cfa_offset 24
 904              	 .cfi_offset 4,-24
 905              	 .cfi_offset 5,-20
 906              	 .cfi_offset 6,-16
 907              	 .cfi_offset 7,-12
 908              	 .cfi_offset 8,-8
 909              	 .cfi_offset 14,-4
1549:C:/Users/Yushev/git/optiga-trust-qi/projects/xmc4700_relax_kit/common/Libraries/XMCLib/src\xmc_usbd.c ****   XMC_USBD_EP_t *ep = &xmc_device.ep[ep_addr & (uint8_t)XMC_USBD_ENDPOINT_NUMBER_MASK];
1550:C:/Users/Yushev/git/optiga-trust-qi/projects/xmc4700_relax_kit/common/Libraries/XMCLib/src\xmc_usbd.c ****   depctl_data_t data;
1551:C:/Users/Yushev/git/optiga-trust-qi/projects/xmc4700_relax_kit/common/Libraries/XMCLib/src\xmc_usbd.c **** 	daint_data_t daintmsk;
1552:C:/Users/Yushev/git/optiga-trust-qi/projects/xmc4700_relax_kit/common/Libraries/XMCLib/src\xmc_usbd.c **** 	XMC_USBD_STATUS_t result;
1553:C:/Users/Yushev/git/optiga-trust-qi/projects/xmc4700_relax_kit/common/Libraries/XMCLib/src\xmc_usbd.c **** 	uint32_t number_temp;
1554:C:/Users/Yushev/git/optiga-trust-qi/projects/xmc4700_relax_kit/common/Libraries/XMCLib/src\xmc_usbd.c ****   data.d32 = 0U;  
1555:C:/Users/Yushev/git/optiga-trust-qi/projects/xmc4700_relax_kit/common/Libraries/XMCLib/src\xmc_usbd.c ****   daintmsk.d32 = xmc_device.device_register->daintmsk;  
 910              	 .loc 1 1555 0
 911 0004 384B     	 ldr r3,.L102
1549:C:/Users/Yushev/git/optiga-trust-qi/projects/xmc4700_relax_kit/common/Libraries/XMCLib/src\xmc_usbd.c ****   XMC_USBD_EP_t *ep = &xmc_device.ep[ep_addr & (uint8_t)XMC_USBD_ENDPOINT_NUMBER_MASK];
 912              	 .loc 1 1549 0
 913 0006 00F00F04 	 and r4,r0,#15
 914              	.LVL80:
1556:C:/Users/Yushev/git/optiga-trust-qi/projects/xmc4700_relax_kit/common/Libraries/XMCLib/src\xmc_usbd.c ****   number_temp = (uint32_t)((uint32_t)1U << (uint8_t)ep->address_u.address_st.number);
 915              	 .loc 1 1556 0
 916 000a 3422     	 movs r2,#52
 917 000c 6243     	 muls r2,r4,r2
 918 000e 03EB020E 	 add lr,r3,r2
 919              	.LVL81:
1555:C:/Users/Yushev/git/optiga-trust-qi/projects/xmc4700_relax_kit/common/Libraries/XMCLib/src\xmc_usbd.c ****   number_temp = (uint32_t)((uint32_t)1U << (uint8_t)ep->address_u.address_st.number);
 920              	 .loc 1 1555 0
 921 0012 D3F8A461 	 ldr r6,[r3,#420]
1557:C:/Users/Yushev/git/optiga-trust-qi/projects/xmc4700_relax_kit/common/Libraries/XMCLib/src\xmc_usbd.c ****   /* if not configured return an error */
1558:C:/Users/Yushev/git/optiga-trust-qi/projects/xmc4700_relax_kit/common/Libraries/XMCLib/src\xmc_usbd.c ****   if (!ep->isConfigured)
 922              	 .loc 1 1558 0
 923 0016 9EF80410 	 ldrb r1,[lr,#4]
1556:C:/Users/Yushev/git/optiga-trust-qi/projects/xmc4700_relax_kit/common/Libraries/XMCLib/src\xmc_usbd.c ****   /* if not configured return an error */
 924              	 .loc 1 1556 0
 925 001a 9A5C     	 ldrb r2,[r3,r2]
1555:C:/Users/Yushev/git/optiga-trust-qi/projects/xmc4700_relax_kit/common/Libraries/XMCLib/src\xmc_usbd.c ****   number_temp = (uint32_t)((uint32_t)1U << (uint8_t)ep->address_u.address_st.number);
 926              	 .loc 1 1555 0
 927 001c F569     	 ldr r5,[r6,#28]
 928              	.LVL82:
 929              	 .loc 1 1558 0
 930 001e 11F0040F 	 tst r1,#4
1554:C:/Users/Yushev/git/optiga-trust-qi/projects/xmc4700_relax_kit/common/Libraries/XMCLib/src\xmc_usbd.c ****   daintmsk.d32 = xmc_device.device_register->daintmsk;  
 931              	 .loc 1 1554 0
 932 0022 4FF00007 	 mov r7,#0
 933              	.LVL83:
1556:C:/Users/Yushev/git/optiga-trust-qi/projects/xmc4700_relax_kit/common/Libraries/XMCLib/src\xmc_usbd.c ****   /* if not configured return an error */
 934              	 .loc 1 1556 0
 935 0026 02F00F0C 	 and ip,r2,#15
 936              	.LVL84:
 937 002a 4FF00100 	 mov r0,#1
 938              	.LVL85:
 939              	 .loc 1 1558 0
 940 002e 58D0     	 beq .L86
1559:C:/Users/Yushev/git/optiga-trust-qi/projects/xmc4700_relax_kit/common/Libraries/XMCLib/src\xmc_usbd.c ****   {
1560:C:/Users/Yushev/git/optiga-trust-qi/projects/xmc4700_relax_kit/common/Libraries/XMCLib/src\xmc_usbd.c ****      result = XMC_USBD_STATUS_ERROR;
1561:C:/Users/Yushev/git/optiga-trust-qi/projects/xmc4700_relax_kit/common/Libraries/XMCLib/src\xmc_usbd.c ****   }
1562:C:/Users/Yushev/git/optiga-trust-qi/projects/xmc4700_relax_kit/common/Libraries/XMCLib/src\xmc_usbd.c ****   else
1563:C:/Users/Yushev/git/optiga-trust-qi/projects/xmc4700_relax_kit/common/Libraries/XMCLib/src\xmc_usbd.c ****   {
1564:C:/Users/Yushev/git/optiga-trust-qi/projects/xmc4700_relax_kit/common/Libraries/XMCLib/src\xmc_usbd.c ****     /* disable the endpoint, deactivate it and only send naks */
1565:C:/Users/Yushev/git/optiga-trust-qi/projects/xmc4700_relax_kit/common/Libraries/XMCLib/src\xmc_usbd.c ****     data.b.usbactep = 0U;
1566:C:/Users/Yushev/git/optiga-trust-qi/projects/xmc4700_relax_kit/common/Libraries/XMCLib/src\xmc_usbd.c ****     data.b.epdis =  1U;
1567:C:/Users/Yushev/git/optiga-trust-qi/projects/xmc4700_relax_kit/common/Libraries/XMCLib/src\xmc_usbd.c ****     data.b.snak =  1U;
1568:C:/Users/Yushev/git/optiga-trust-qi/projects/xmc4700_relax_kit/common/Libraries/XMCLib/src\xmc_usbd.c ****     data.b.stall =  0U;
1569:C:/Users/Yushev/git/optiga-trust-qi/projects/xmc4700_relax_kit/common/Libraries/XMCLib/src\xmc_usbd.c ****     ep->isConfigured =  0U;
1570:C:/Users/Yushev/git/optiga-trust-qi/projects/xmc4700_relax_kit/common/Libraries/XMCLib/src\xmc_usbd.c ****     ep->isStalled =  0U;
 941              	 .loc 1 1570 0
 942 0030 01F0FB01 	 and r1,r1,#251
 943 0034 6FF34511 	 bfc r1,#5,#1
 944 0038 8EF80410 	 strb r1,[lr,#4]
1571:C:/Users/Yushev/git/optiga-trust-qi/projects/xmc4700_relax_kit/common/Libraries/XMCLib/src\xmc_usbd.c ****     ep->outInUse =  0U;
 945              	 .loc 1 1571 0
 946 003c DEF80410 	 ldr r1,[lr,#4]
 947 0040 21F01001 	 bic r1,r1,#16
 948 0044 CEF80410 	 str r1,[lr,#4]
1572:C:/Users/Yushev/git/optiga-trust-qi/projects/xmc4700_relax_kit/common/Libraries/XMCLib/src\xmc_usbd.c ****     ep->inInUse =  0U;
 949              	 .loc 1 1572 0
 950 0048 DEF80410 	 ldr r1,[lr,#4]
 951              	.LVL86:
1565:C:/Users/Yushev/git/optiga-trust-qi/projects/xmc4700_relax_kit/common/Libraries/XMCLib/src\xmc_usbd.c ****     data.b.epdis =  1U;
 952              	 .loc 1 1565 0
 953 004c 67F3CF37 	 bfi r7,r7,#15,#1
 954              	 .loc 1 1572 0
 955 0050 21F00801 	 bic r1,r1,#8
1556:C:/Users/Yushev/git/optiga-trust-qi/projects/xmc4700_relax_kit/common/Libraries/XMCLib/src\xmc_usbd.c ****   /* if not configured return an error */
 956              	 .loc 1 1556 0
 957 0054 00FA0CF0 	 lsl r0,r0,ip
1567:C:/Users/Yushev/git/optiga-trust-qi/projects/xmc4700_relax_kit/common/Libraries/XMCLib/src\xmc_usbd.c ****     data.b.stall =  0U;
 958              	 .loc 1 1567 0
 959 0058 47F09047 	 orr r7,r7,#1207959552
 960              	.LVL87:
1573:C:/Users/Yushev/git/optiga-trust-qi/projects/xmc4700_relax_kit/common/Libraries/XMCLib/src\xmc_usbd.c ****     /* chose register based on the direction. Control Endpoint need both */
1574:C:/Users/Yushev/git/optiga-trust-qi/projects/xmc4700_relax_kit/common/Libraries/XMCLib/src\xmc_usbd.c ****     if ((ep->address_u.address_st.direction == 1U) || (ep->type == (uint8_t)XMC_USBD_ENDPOINT_TYPE_
 961              	 .loc 1 1574 0
 962 005c 22F07F02 	 bic r2,r2,#127
 963              	.LVL88:
1572:C:/Users/Yushev/git/optiga-trust-qi/projects/xmc4700_relax_kit/common/Libraries/XMCLib/src\xmc_usbd.c ****     /* chose register based on the direction. Control Endpoint need both */
 964              	 .loc 1 1572 0
 965 0060 CEF80410 	 str r1,[lr,#4]
1568:C:/Users/Yushev/git/optiga-trust-qi/projects/xmc4700_relax_kit/common/Libraries/XMCLib/src\xmc_usbd.c ****     ep->isConfigured =  0U;
 966              	 .loc 1 1568 0
 967 0064 6FF35557 	 bfc r7,#21,#1
 968              	.LVL89:
 969              	 .loc 1 1574 0
 970 0068 02F0FF08 	 and r8,r2,#255
 971 006c C143     	 mvns r1,r0
 972 006e AAB9     	 cbnz r2,.L87
 973              	 .loc 1 1574 0 is_stmt 0 discriminator 1
 974 0070 9EF80420 	 ldrb r2,[lr,#4]
 975 0074 9007     	 lsls r0,r2,#30
 976 0076 11D0     	 beq .L87
 977              	.LVL90:
 978              	.L90:
1575:C:/Users/Yushev/git/optiga-trust-qi/projects/xmc4700_relax_kit/common/Libraries/XMCLib/src\xmc_usbd.c ****     {
1576:C:/Users/Yushev/git/optiga-trust-qi/projects/xmc4700_relax_kit/common/Libraries/XMCLib/src\xmc_usbd.c ****       /* disable endpoint configuration */
1577:C:/Users/Yushev/git/optiga-trust-qi/projects/xmc4700_relax_kit/common/Libraries/XMCLib/src\xmc_usbd.c ****       xmc_device.endpoint_in_register[ep->address_u.address_st.number]->diepctl = data.d32;
1578:C:/Users/Yushev/git/optiga-trust-qi/projects/xmc4700_relax_kit/common/Libraries/XMCLib/src\xmc_usbd.c ****       /* disable interrupts */
1579:C:/Users/Yushev/git/optiga-trust-qi/projects/xmc4700_relax_kit/common/Libraries/XMCLib/src\xmc_usbd.c ****       daintmsk.ep.in = (uint16_t)((uint32_t)daintmsk.ep.in & (~(uint32_t)number_temp));
1580:C:/Users/Yushev/git/optiga-trust-qi/projects/xmc4700_relax_kit/common/Libraries/XMCLib/src\xmc_usbd.c ****     }
1581:C:/Users/Yushev/git/optiga-trust-qi/projects/xmc4700_relax_kit/common/Libraries/XMCLib/src\xmc_usbd.c ****     if ((ep->address_u.address_st.direction == 0U) || (ep->type == (uint8_t)XMC_USBD_ENDPOINT_TYPE_
1582:C:/Users/Yushev/git/optiga-trust-qi/projects/xmc4700_relax_kit/common/Libraries/XMCLib/src\xmc_usbd.c ****     {
1583:C:/Users/Yushev/git/optiga-trust-qi/projects/xmc4700_relax_kit/common/Libraries/XMCLib/src\xmc_usbd.c ****       xmc_device.endpoint_out_register[ep->address_u.address_st.number]->doepctl = data.d32;
 979              	 .loc 1 1583 0 is_stmt 1
 980 0078 03EB8C0C 	 add ip,r3,ip,lsl#2
 981 007c DCF8C421 	 ldr r2,[ip,#452]
 982 0080 1760     	 str r7,[r2]
1584:C:/Users/Yushev/git/optiga-trust-qi/projects/xmc4700_relax_kit/common/Libraries/XMCLib/src\xmc_usbd.c ****       daintmsk.ep.out = (uint16_t)((uint32_t)daintmsk.ep.out & (~(uint32_t)number_temp));
 983              	 .loc 1 1584 0
 984 0082 01EA1542 	 and r2,r1,r5,lsr#16
 985 0086 62F31F45 	 bfi r5,r2,#16,#16
1585:C:/Users/Yushev/git/optiga-trust-qi/projects/xmc4700_relax_kit/common/Libraries/XMCLib/src\xmc_usbd.c ****       if(usbd_init->usbd_transfer_mode == XMC_USBD_USE_FIFO)
 986              	 .loc 1 1585 0
 987 008a 184A     	 ldr r2,.L102+4
 988 008c 1268     	 ldr r2,[r2]
 989 008e 527B     	 ldrb r2,[r2,#13]
 990 0090 012A     	 cmp r2,#1
 991 0092 16D1     	 bne .L91
1586:C:/Users/Yushev/git/optiga-trust-qi/projects/xmc4700_relax_kit/common/Libraries/XMCLib/src\xmc_usbd.c ****       {
1587:C:/Users/Yushev/git/optiga-trust-qi/projects/xmc4700_relax_kit/common/Libraries/XMCLib/src\xmc_usbd.c ****         xmc_device.device_register->dtknqr4_fifoemptymsk &= ~number_temp;
 992              	 .loc 1 1587 0
 993 0094 726B     	 ldr r2,[r6,#52]
 994 0096 0A40     	 ands r2,r2,r1
 995 0098 7263     	 str r2,[r6,#52]
 996 009a 12E0     	 b .L91
 997              	.LVL91:
 998              	.L87:
1577:C:/Users/Yushev/git/optiga-trust-qi/projects/xmc4700_relax_kit/common/Libraries/XMCLib/src\xmc_usbd.c ****       /* disable interrupts */
 999              	 .loc 1 1577 0
 1000 009c 0CF16A02 	 add r2,ip,#106
 1001 00a0 53F82220 	 ldr r2,[r3,r2,lsl#2]
 1002 00a4 1760     	 str r7,[r2]
 1003              	.LVL92:
1579:C:/Users/Yushev/git/optiga-trust-qi/projects/xmc4700_relax_kit/common/Libraries/XMCLib/src\xmc_usbd.c ****     }
 1004              	 .loc 1 1579 0
 1005 00a6 01EA0502 	 and r2,r1,r5
 1006 00aa 62F30F05 	 bfi r5,r2,#0,#16
1581:C:/Users/Yushev/git/optiga-trust-qi/projects/xmc4700_relax_kit/common/Libraries/XMCLib/src\xmc_usbd.c ****     {
 1007              	 .loc 1 1581 0
 1008 00ae B8F1000F 	 cmp r8,#0
 1009 00b2 E1D0     	 beq .L90
1581:C:/Users/Yushev/git/optiga-trust-qi/projects/xmc4700_relax_kit/common/Libraries/XMCLib/src\xmc_usbd.c ****     {
 1010              	 .loc 1 1581 0 is_stmt 0 discriminator 1
 1011 00b4 0C48     	 ldr r0,.L102
 1012 00b6 3422     	 movs r2,#52
 1013 00b8 02FB0402 	 mla r2,r2,r4,r0
 1014 00bc 1279     	 ldrb r2,[r2,#4]
 1015 00be 9207     	 lsls r2,r2,#30
 1016 00c0 DAD0     	 beq .L90
 1017              	.L91:
1588:C:/Users/Yushev/git/optiga-trust-qi/projects/xmc4700_relax_kit/common/Libraries/XMCLib/src\xmc_usbd.c ****       }
1589:C:/Users/Yushev/git/optiga-trust-qi/projects/xmc4700_relax_kit/common/Libraries/XMCLib/src\xmc_usbd.c ****     }
1590:C:/Users/Yushev/git/optiga-trust-qi/projects/xmc4700_relax_kit/common/Libraries/XMCLib/src\xmc_usbd.c ****     xmc_device.device_register->daintmsk = daintmsk.d32;
1591:C:/Users/Yushev/git/optiga-trust-qi/projects/xmc4700_relax_kit/common/Libraries/XMCLib/src\xmc_usbd.c ****     XMC_USBD_lUnassignFifo(ep->txFifoNum); /* free fifo */
 1018              	 .loc 1 1591 0 is_stmt 1
 1019 00c2 3420     	 movs r0,#52
 1020 00c4 00FB0430 	 mla r0,r0,r4,r3
1590:C:/Users/Yushev/git/optiga-trust-qi/projects/xmc4700_relax_kit/common/Libraries/XMCLib/src\xmc_usbd.c ****     XMC_USBD_lUnassignFifo(ep->txFifoNum); /* free fifo */
 1021              	 .loc 1 1590 0
 1022 00c8 F561     	 str r5,[r6,#28]
 1023              	.LVL93:
 1024              	 .loc 1 1591 0
 1025 00ca 8188     	 ldrh r1,[r0,#4]
 1026              	.LBB25:
 1027              	.LBB26:
 384:C:/Users/Yushev/git/optiga-trust-qi/projects/xmc4700_relax_kit/common/Libraries/XMCLib/src\xmc_usbd.c **** }
 1028              	 .loc 1 384 0
 1029 00cc 0122     	 movs r2,#1
 1030 00ce C1F38311 	 ubfx r1,r1,#6,#4
 1031 00d2 8A40     	 lsls r2,r2,r1
 1032 00d4 B3F8FC11 	 ldrh r1,[r3,#508]
 1033 00d8 21EA0202 	 bic r2,r1,r2
 1034 00dc A3F8FC21 	 strh r2,[r3,#508]
 1035              	.LBE26:
 1036              	.LBE25:
1592:C:/Users/Yushev/git/optiga-trust-qi/projects/xmc4700_relax_kit/common/Libraries/XMCLib/src\xmc_usbd.c ****     result = XMC_USBD_STATUS_OK;
 1037              	 .loc 1 1592 0
 1038 00e0 0020     	 movs r0,#0
 1039              	.LVL94:
 1040              	.L86:
1593:C:/Users/Yushev/git/optiga-trust-qi/projects/xmc4700_relax_kit/common/Libraries/XMCLib/src\xmc_usbd.c ****   }
1594:C:/Users/Yushev/git/optiga-trust-qi/projects/xmc4700_relax_kit/common/Libraries/XMCLib/src\xmc_usbd.c ****   return result;
1595:C:/Users/Yushev/git/optiga-trust-qi/projects/xmc4700_relax_kit/common/Libraries/XMCLib/src\xmc_usbd.c **** }
 1041              	 .loc 1 1595 0
 1042 00e2 BDE8F081 	 pop {r4,r5,r6,r7,r8,pc}
 1043              	.LVL95:
 1044              	.L103:
 1045 00e6 00BF     	 .align 2
 1046              	.L102:
 1047 00e8 00000000 	 .word xmc_device
 1048 00ec 00000000 	 .word usbd_init
 1049              	 .cfi_endproc
 1050              	.LFE206:
 1052              	 .section .text.XMC_USBD_GetFrameNumber,"ax",%progbits
 1053              	 .align 1
 1054              	 .global XMC_USBD_GetFrameNumber
 1055              	 .thumb
 1056              	 .thumb_func
 1058              	XMC_USBD_GetFrameNumber:
 1059              	.LFB207:
1596:C:/Users/Yushev/git/optiga-trust-qi/projects/xmc4700_relax_kit/common/Libraries/XMCLib/src\xmc_usbd.c **** 
1597:C:/Users/Yushev/git/optiga-trust-qi/projects/xmc4700_relax_kit/common/Libraries/XMCLib/src\xmc_usbd.c **** /**
1598:C:/Users/Yushev/git/optiga-trust-qi/projects/xmc4700_relax_kit/common/Libraries/XMCLib/src\xmc_usbd.c ****  * Gets the current USB frame number
1599:C:/Users/Yushev/git/optiga-trust-qi/projects/xmc4700_relax_kit/common/Libraries/XMCLib/src\xmc_usbd.c ****  **/
1600:C:/Users/Yushev/git/optiga-trust-qi/projects/xmc4700_relax_kit/common/Libraries/XMCLib/src\xmc_usbd.c **** uint16_t XMC_USBD_GetFrameNumber(void) 
1601:C:/Users/Yushev/git/optiga-trust-qi/projects/xmc4700_relax_kit/common/Libraries/XMCLib/src\xmc_usbd.c **** {
 1060              	 .loc 1 1601 0
 1061              	 .cfi_startproc
 1062              	 
 1063              	 
 1064              	 
1602:C:/Users/Yushev/git/optiga-trust-qi/projects/xmc4700_relax_kit/common/Libraries/XMCLib/src\xmc_usbd.c ****   uint16_t result;
1603:C:/Users/Yushev/git/optiga-trust-qi/projects/xmc4700_relax_kit/common/Libraries/XMCLib/src\xmc_usbd.c ****   dsts_data_t dsts;
1604:C:/Users/Yushev/git/optiga-trust-qi/projects/xmc4700_relax_kit/common/Libraries/XMCLib/src\xmc_usbd.c ****   dsts.d32 = xmc_device.device_register->dsts;
 1065              	 .loc 1 1604 0
 1066 0000 034B     	 ldr r3,.L105
 1067 0002 D3F8A431 	 ldr r3,[r3,#420]
 1068 0006 9868     	 ldr r0,[r3,#8]
 1069              	.LVL96:
1605:C:/Users/Yushev/git/optiga-trust-qi/projects/xmc4700_relax_kit/common/Libraries/XMCLib/src\xmc_usbd.c ****   result = (uint16_t)dsts.b.soffn;
1606:C:/Users/Yushev/git/optiga-trust-qi/projects/xmc4700_relax_kit/common/Libraries/XMCLib/src\xmc_usbd.c ****   return result;
1607:C:/Users/Yushev/git/optiga-trust-qi/projects/xmc4700_relax_kit/common/Libraries/XMCLib/src\xmc_usbd.c **** }
 1070              	 .loc 1 1607 0
 1071 0008 C0F30D20 	 ubfx r0,r0,#8,#14
 1072              	.LVL97:
 1073 000c 7047     	 bx lr
 1074              	.L106:
 1075 000e 00BF     	 .align 2
 1076              	.L105:
 1077 0010 00000000 	 .word xmc_device
 1078              	 .cfi_endproc
 1079              	.LFE207:
 1081              	 .section .text.XMC_USBD_IsEnumDone,"ax",%progbits
 1082              	 .align 1
 1083              	 .global XMC_USBD_IsEnumDone
 1084              	 .thumb
 1085              	 .thumb_func
 1087              	XMC_USBD_IsEnumDone:
 1088              	.LFB208:
1608:C:/Users/Yushev/git/optiga-trust-qi/projects/xmc4700_relax_kit/common/Libraries/XMCLib/src\xmc_usbd.c **** 
1609:C:/Users/Yushev/git/optiga-trust-qi/projects/xmc4700_relax_kit/common/Libraries/XMCLib/src\xmc_usbd.c **** /**
1610:C:/Users/Yushev/git/optiga-trust-qi/projects/xmc4700_relax_kit/common/Libraries/XMCLib/src\xmc_usbd.c ****  * Gets the USB speed enumeration completion status.
1611:C:/Users/Yushev/git/optiga-trust-qi/projects/xmc4700_relax_kit/common/Libraries/XMCLib/src\xmc_usbd.c ****  * This should not be used for the actual USB enumeration completion status. For the actual USB enu
1612:C:/Users/Yushev/git/optiga-trust-qi/projects/xmc4700_relax_kit/common/Libraries/XMCLib/src\xmc_usbd.c ****  * the application layer should check for the completion of USB standard request Set configuration.
1613:C:/Users/Yushev/git/optiga-trust-qi/projects/xmc4700_relax_kit/common/Libraries/XMCLib/src\xmc_usbd.c ****  **/
1614:C:/Users/Yushev/git/optiga-trust-qi/projects/xmc4700_relax_kit/common/Libraries/XMCLib/src\xmc_usbd.c **** uint32_t XMC_USBD_IsEnumDone(void)
1615:C:/Users/Yushev/git/optiga-trust-qi/projects/xmc4700_relax_kit/common/Libraries/XMCLib/src\xmc_usbd.c **** {
 1089              	 .loc 1 1615 0
 1090              	 .cfi_startproc
 1091              	 
 1092              	 
 1093              	 
1616:C:/Users/Yushev/git/optiga-trust-qi/projects/xmc4700_relax_kit/common/Libraries/XMCLib/src\xmc_usbd.c ****   return (uint32_t)((uint8_t)xmc_device.IsConnected && (uint8_t)xmc_device.IsPowered);
 1094              	 .loc 1 1616 0
 1095 0000 044B     	 ldr r3,.L108
 1096 0002 93F8FE01 	 ldrb r0,[r3,#510]
 1097 0006 00F00500 	 and r0,r0,#5
1617:C:/Users/Yushev/git/optiga-trust-qi/projects/xmc4700_relax_kit/common/Libraries/XMCLib/src\xmc_usbd.c **** }
 1098              	 .loc 1 1617 0
 1099 000a 431F     	 subs r3,r0,#5
 1100 000c 5842     	 rsbs r0,r3,#0
 1101 000e 5841     	 adcs r0,r0,r3
 1102 0010 7047     	 bx lr
 1103              	.L109:
 1104 0012 00BF     	 .align 2
 1105              	.L108:
 1106 0014 00000000 	 .word xmc_device
 1107              	 .cfi_endproc
 1108              	.LFE208:
 1110              	 .section .text.XMC_USBD_Uninitialize,"ax",%progbits
 1111              	 .align 1
 1112              	 .global XMC_USBD_Uninitialize
 1113              	 .thumb
 1114              	 .thumb_func
 1116              	XMC_USBD_Uninitialize:
 1117              	.LFB195:
1201:C:/Users/Yushev/git/optiga-trust-qi/projects/xmc4700_relax_kit/common/Libraries/XMCLib/src\xmc_usbd.c ****   /* Disconnect the device */
 1118              	 .loc 1 1201 0
 1119              	 .cfi_startproc
 1120              	 
 1121              	 
1204:C:/Users/Yushev/git/optiga-trust-qi/projects/xmc4700_relax_kit/common/Libraries/XMCLib/src\xmc_usbd.c ****   dctl.b.sftdiscon = 1U;
 1122              	 .loc 1 1204 0
 1123 0000 0748     	 ldr r0,.L111
 1124 0002 D0F8A421 	 ldr r2,[r0,#420]
1201:C:/Users/Yushev/git/optiga-trust-qi/projects/xmc4700_relax_kit/common/Libraries/XMCLib/src\xmc_usbd.c ****   /* Disconnect the device */
 1125              	 .loc 1 1201 0
 1126 0006 08B5     	 push {r3,lr}
 1127              	.LCFI10:
 1128              	 .cfi_def_cfa_offset 8
 1129              	 .cfi_offset 3,-8
 1130              	 .cfi_offset 14,-4
1204:C:/Users/Yushev/git/optiga-trust-qi/projects/xmc4700_relax_kit/common/Libraries/XMCLib/src\xmc_usbd.c ****   dctl.b.sftdiscon = 1U;
 1131              	 .loc 1 1204 0
 1132 0008 5368     	 ldr r3,[r2,#4]
1205:C:/Users/Yushev/git/optiga-trust-qi/projects/xmc4700_relax_kit/common/Libraries/XMCLib/src\xmc_usbd.c ****   xmc_device.device_register->dctl = dctl.d32;
 1133              	 .loc 1 1205 0
 1134 000a 43F00203 	 orr r3,r3,#2
 1135              	.LVL98:
1206:C:/Users/Yushev/git/optiga-trust-qi/projects/xmc4700_relax_kit/common/Libraries/XMCLib/src\xmc_usbd.c ****   /* clean up */
 1136              	 .loc 1 1206 0
 1137 000e 5360     	 str r3,[r2,#4]
1208:C:/Users/Yushev/git/optiga-trust-qi/projects/xmc4700_relax_kit/common/Libraries/XMCLib/src\xmc_usbd.c ****   return XMC_USBD_STATUS_OK;
 1138              	 .loc 1 1208 0
 1139 0010 0021     	 movs r1,#0
 1140 0012 4FF40272 	 mov r2,#520
 1141 0016 FFF7FEFF 	 bl memset
 1142              	.LVL99:
1210:C:/Users/Yushev/git/optiga-trust-qi/projects/xmc4700_relax_kit/common/Libraries/XMCLib/src\xmc_usbd.c **** 
 1143              	 .loc 1 1210 0
 1144 001a 0020     	 movs r0,#0
 1145 001c 08BD     	 pop {r3,pc}
 1146              	.L112:
 1147 001e 00BF     	 .align 2
 1148              	.L111:
 1149 0020 00000000 	 .word xmc_device
 1150              	 .cfi_endproc
 1151              	.LFE195:
 1153              	 .section .text.XMC_USBD_EndpointConfigure,"ax",%progbits
 1154              	 .align 1
 1155              	 .global XMC_USBD_EndpointConfigure
 1156              	 .thumb
 1157              	 .thumb_func
 1159              	XMC_USBD_EndpointConfigure:
 1160              	.LFB205:
1431:C:/Users/Yushev/git/optiga-trust-qi/projects/xmc4700_relax_kit/common/Libraries/XMCLib/src\xmc_usbd.c ****   daint_data_t daintmsk;
 1161              	 .loc 1 1431 0
 1162              	 .cfi_startproc
 1163              	 
 1164              	 
 1165              	.LVL100:
 1166 0000 2DE9F84F 	 push {r3,r4,r5,r6,r7,r8,r9,r10,fp,lr}
 1167              	.LCFI11:
 1168              	 .cfi_def_cfa_offset 40
 1169              	 .cfi_offset 3,-40
 1170              	 .cfi_offset 4,-36
 1171              	 .cfi_offset 5,-32
 1172              	 .cfi_offset 6,-28
 1173              	 .cfi_offset 7,-24
 1174              	 .cfi_offset 8,-20
 1175              	 .cfi_offset 9,-16
 1176              	 .cfi_offset 10,-12
 1177              	 .cfi_offset 11,-8
 1178              	 .cfi_offset 14,-4
1434:C:/Users/Yushev/git/optiga-trust-qi/projects/xmc4700_relax_kit/common/Libraries/XMCLib/src\xmc_usbd.c ****   ep =&xmc_device.ep[ep_addr & (uint32_t)XMC_USBD_ENDPOINT_NUMBER_MASK];
 1179              	 .loc 1 1434 0
 1180 0004 DFF8B491 	 ldr r9,.L147+8
1431:C:/Users/Yushev/git/optiga-trust-qi/projects/xmc4700_relax_kit/common/Libraries/XMCLib/src\xmc_usbd.c ****   daint_data_t daintmsk;
 1181              	 .loc 1 1431 0
 1182 0008 1546     	 mov r5,r2
1435:C:/Users/Yushev/git/optiga-trust-qi/projects/xmc4700_relax_kit/common/Libraries/XMCLib/src\xmc_usbd.c ****   memset((void*)ep,0x0U,sizeof(XMC_USBD_EP_t)); /* clear endpoint structure */
 1183              	 .loc 1 1435 0
 1184 000a 00F00F08 	 and r8,r0,#15
 1185              	.LVL101:
1436:C:/Users/Yushev/git/optiga-trust-qi/projects/xmc4700_relax_kit/common/Libraries/XMCLib/src\xmc_usbd.c ****   /* do ep configuration */
 1186              	 .loc 1 1436 0
 1187 000e 3422     	 movs r2,#52
 1188              	.LVL102:
 1189 0010 02FB08FB 	 mul fp,r2,r8
 1190 0014 0BEB0904 	 add r4,fp,r9
 1191              	.LVL103:
1434:C:/Users/Yushev/git/optiga-trust-qi/projects/xmc4700_relax_kit/common/Libraries/XMCLib/src\xmc_usbd.c ****   ep =&xmc_device.ep[ep_addr & (uint32_t)XMC_USBD_ENDPOINT_NUMBER_MASK];
 1192              	 .loc 1 1434 0
 1193 0018 D9F8A431 	 ldr r3,[r9,#420]
1431:C:/Users/Yushev/git/optiga-trust-qi/projects/xmc4700_relax_kit/common/Libraries/XMCLib/src\xmc_usbd.c ****   daint_data_t daintmsk;
 1194              	 .loc 1 1431 0
 1195 001c 8246     	 mov r10,r0
 1196 001e 0E46     	 mov r6,r1
1436:C:/Users/Yushev/git/optiga-trust-qi/projects/xmc4700_relax_kit/common/Libraries/XMCLib/src\xmc_usbd.c ****   /* do ep configuration */
 1197              	 .loc 1 1436 0
 1198 0020 2046     	 mov r0,r4
 1199              	.LVL104:
 1200 0022 0021     	 movs r1,#0
 1201              	.LVL105:
1434:C:/Users/Yushev/git/optiga-trust-qi/projects/xmc4700_relax_kit/common/Libraries/XMCLib/src\xmc_usbd.c ****   ep =&xmc_device.ep[ep_addr & (uint32_t)XMC_USBD_ENDPOINT_NUMBER_MASK];
 1202              	 .loc 1 1434 0
 1203 0024 DF69     	 ldr r7,[r3,#28]
 1204              	.LVL106:
1436:C:/Users/Yushev/git/optiga-trust-qi/projects/xmc4700_relax_kit/common/Libraries/XMCLib/src\xmc_usbd.c ****   /* do ep configuration */
 1205              	 .loc 1 1436 0
 1206 0026 FFF7FEFF 	 bl memset
 1207              	.LVL107:
1439:C:/Users/Yushev/git/optiga-trust-qi/projects/xmc4700_relax_kit/common/Libraries/XMCLib/src\xmc_usbd.c ****   ep->maxPacketSize = (uint8_t)ep_max_packet_size;
 1208              	 .loc 1 1439 0
 1209 002a 2379     	 ldrb r3,[r4,#4]
1438:C:/Users/Yushev/git/optiga-trust-qi/projects/xmc4700_relax_kit/common/Libraries/XMCLib/src\xmc_usbd.c ****   ep->isConfigured = 1U;
 1210              	 .loc 1 1438 0
 1211 002c 0BF809A0 	 strb r10,[fp,r9]
1439:C:/Users/Yushev/git/optiga-trust-qi/projects/xmc4700_relax_kit/common/Libraries/XMCLib/src\xmc_usbd.c ****   ep->maxPacketSize = (uint8_t)ep_max_packet_size;
 1212              	 .loc 1 1439 0
 1213 0030 43F00403 	 orr r3,r3,#4
 1214 0034 2371     	 strb r3,[r4,#4]
1440:C:/Users/Yushev/git/optiga-trust-qi/projects/xmc4700_relax_kit/common/Libraries/XMCLib/src\xmc_usbd.c ****   if (ep->address_u.address != 0U)
 1215              	 .loc 1 1440 0
 1216 0036 6368     	 ldr r3,[r4,#4]
 1217 0038 2046     	 mov r0,r4
 1218 003a 65F3D123 	 bfi r3,r5,#11,#7
 1219 003e 40F8043F 	 str r3,[r0,#4]!
 1220 0042 4B46     	 mov r3,r9
1443:C:/Users/Yushev/git/optiga-trust-qi/projects/xmc4700_relax_kit/common/Libraries/XMCLib/src\xmc_usbd.c ****   }
 1221              	 .loc 1 1443 0
 1222 0044 4268     	 ldr r2,[r0,#4]
1441:C:/Users/Yushev/git/optiga-trust-qi/projects/xmc4700_relax_kit/common/Libraries/XMCLib/src\xmc_usbd.c ****   {
 1223              	 .loc 1 1441 0
 1224 0046 BAF1000F 	 cmp r10,#0
 1225 004a 02D0     	 beq .L114
1443:C:/Users/Yushev/git/optiga-trust-qi/projects/xmc4700_relax_kit/common/Libraries/XMCLib/src\xmc_usbd.c ****   }
 1226              	 .loc 1 1443 0
 1227 004c 4FF6C071 	 movw r1,#65472
 1228 0050 00E0     	 b .L144
 1229              	.L114:
1447:C:/Users/Yushev/git/optiga-trust-qi/projects/xmc4700_relax_kit/common/Libraries/XMCLib/src\xmc_usbd.c ****   }
 1230              	 .loc 1 1447 0
 1231 0052 4021     	 movs r1,#64
 1232              	.L144:
 1233 0054 61F31202 	 bfi r2,r1,#0,#19
 1234 0058 4260     	 str r2,[r0,#4]
1450:C:/Users/Yushev/git/optiga-trust-qi/projects/xmc4700_relax_kit/common/Libraries/XMCLib/src\xmc_usbd.c ****   ep->outBuffer = XMC_USBD_EP_OUT_BUFFER[ep->address_u.address_st.number];
 1235              	 .loc 1 1450 0
 1236 005a 3422     	 movs r2,#52
 1237 005c 02FB08F2 	 mul r2,r2,r8
 1238 0060 DFF85CE1 	 ldr lr,.L147+12
 1239 0064 995C     	 ldrb r1,[r3,r2]
 1240 0066 01F00F01 	 and r1,r1,#15
 1241 006a 0802     	 lsls r0,r1,#8
 1242 006c 9C18     	 adds r4,r3,r2
 1243              	.LVL108:
 1244 006e 0EEB000C 	 add ip,lr,r0
1451:C:/Users/Yushev/git/optiga-trust-qi/projects/xmc4700_relax_kit/common/Libraries/XMCLib/src\xmc_usbd.c ****   /* buffer size*/
 1245              	 .loc 1 1451 0
 1246 0072 0EF5E06E 	 add lr,lr,#1792
 1247 0076 7044     	 add r0,r0,lr
 1248 0078 E060     	 str r0,[r4,#12]
1453:C:/Users/Yushev/git/optiga-trust-qi/projects/xmc4700_relax_kit/common/Libraries/XMCLib/src\xmc_usbd.c ****   ep->outBufferSize = XMC_USBD_EP_OUT_BUFFERSIZE[ep->address_u.address_st.number];
 1249              	 .loc 1 1453 0
 1250 007a 4E48     	 ldr r0,.L147
1450:C:/Users/Yushev/git/optiga-trust-qi/projects/xmc4700_relax_kit/common/Libraries/XMCLib/src\xmc_usbd.c ****   ep->outBuffer = XMC_USBD_EP_OUT_BUFFER[ep->address_u.address_st.number];
 1251              	 .loc 1 1450 0
 1252 007c C4F81CC0 	 str ip,[r4,#28]
1453:C:/Users/Yushev/git/optiga-trust-qi/projects/xmc4700_relax_kit/common/Libraries/XMCLib/src\xmc_usbd.c ****   ep->outBufferSize = XMC_USBD_EP_OUT_BUFFERSIZE[ep->address_u.address_st.number];
 1253              	 .loc 1 1453 0
 1254 0080 50F82100 	 ldr r0,[r0,r1,lsl#2]
 1255 0084 2062     	 str r0,[r4,#32]
1454:C:/Users/Yushev/git/optiga-trust-qi/projects/xmc4700_relax_kit/common/Libraries/XMCLib/src\xmc_usbd.c ****   /* is in */
 1256              	 .loc 1 1454 0
 1257 0086 4C48     	 ldr r0,.L147+4
 1258 0088 50F82100 	 ldr r0,[r0,r1,lsl#2]
 1259 008c 6061     	 str r0,[r4,#20]
1456:C:/Users/Yushev/git/optiga-trust-qi/projects/xmc4700_relax_kit/common/Libraries/XMCLib/src\xmc_usbd.c ****   {
 1260              	 .loc 1 1456 0
 1261 008e 9A5C     	 ldrb r2,[r3,r2]
 1262 0090 1006     	 lsls r0,r2,#24
 1263 0092 01D4     	 bmi .L116
1456:C:/Users/Yushev/git/optiga-trust-qi/projects/xmc4700_relax_kit/common/Libraries/XMCLib/src\xmc_usbd.c ****   {
 1264              	 .loc 1 1456 0 is_stmt 0 discriminator 1
 1265 0094 002E     	 cmp r6,#0
 1266 0096 54D1     	 bne .L117
 1267              	.L116:
 1268              	.LBB31:
1459:C:/Users/Yushev/git/optiga-trust-qi/projects/xmc4700_relax_kit/common/Libraries/XMCLib/src\xmc_usbd.c **** 		/*enable endpoint */
 1269              	 .loc 1 1459 0 is_stmt 1
 1270 0098 01F16A02 	 add r2,r1,#106
 1271 009c 53F822C0 	 ldr ip,[r3,r2,lsl#2]
 1272 00a0 DCF80020 	 ldr r2,[ip]
 1273              	.LVL109:
1461:C:/Users/Yushev/git/optiga-trust-qi/projects/xmc4700_relax_kit/common/Libraries/XMCLib/src\xmc_usbd.c **** 		/* set ep type */
 1274              	 .loc 1 1461 0
 1275 00a4 42F40042 	 orr r2,r2,#32768
 1276              	.LVL110:
1463:C:/Users/Yushev/git/optiga-trust-qi/projects/xmc4700_relax_kit/common/Libraries/XMCLib/src\xmc_usbd.c **** 		/* set mps */
 1277              	 .loc 1 1463 0
 1278 00a8 66F39342 	 bfi r2,r6,#18,#2
 1279              	.LVL111:
1465:C:/Users/Yushev/git/optiga-trust-qi/projects/xmc4700_relax_kit/common/Libraries/XMCLib/src\xmc_usbd.c ****     {
 1280              	 .loc 1 1465 0
 1281 00ac 9EB9     	 cbnz r6,.L118
1467:C:/Users/Yushev/git/optiga-trust-qi/projects/xmc4700_relax_kit/common/Libraries/XMCLib/src\xmc_usbd.c **** 			{
 1282              	 .loc 1 1467 0
 1283 00ae 102D     	 cmp r5,#16
 1284 00b0 0DD0     	 beq .L120
 1285 00b2 03D8     	 bhi .L121
 1286 00b4 082D     	 cmp r5,#8
 1287 00b6 10D1     	 bne .L119
1479:C:/Users/Yushev/git/optiga-trust-qi/projects/xmc4700_relax_kit/common/Libraries/XMCLib/src\xmc_usbd.c **** 				break;
 1288              	 .loc 1 1479 0
 1289 00b8 0320     	 movs r0,#3
 1290 00ba 09E0     	 b .L145
 1291              	.L121:
1467:C:/Users/Yushev/git/optiga-trust-qi/projects/xmc4700_relax_kit/common/Libraries/XMCLib/src\xmc_usbd.c **** 			{
 1292              	 .loc 1 1467 0
 1293 00bc 202D     	 cmp r5,#32
 1294 00be 04D0     	 beq .L123
 1295 00c0 402D     	 cmp r5,#64
 1296 00c2 0AD1     	 bne .L119
1470:C:/Users/Yushev/git/optiga-trust-qi/projects/xmc4700_relax_kit/common/Libraries/XMCLib/src\xmc_usbd.c **** 				break;
 1297              	 .loc 1 1470 0
 1298 00c4 66F30A02 	 bfi r2,r6,#0,#11
1471:C:/Users/Yushev/git/optiga-trust-qi/projects/xmc4700_relax_kit/common/Libraries/XMCLib/src\xmc_usbd.c **** 				case (32U):
 1299              	 .loc 1 1471 0
 1300 00c8 07E0     	 b .L119
 1301              	.L123:
1473:C:/Users/Yushev/git/optiga-trust-qi/projects/xmc4700_relax_kit/common/Libraries/XMCLib/src\xmc_usbd.c **** 				break;
 1302              	 .loc 1 1473 0
 1303 00ca 0120     	 movs r0,#1
 1304 00cc 00E0     	 b .L145
 1305              	.L120:
1476:C:/Users/Yushev/git/optiga-trust-qi/projects/xmc4700_relax_kit/common/Libraries/XMCLib/src\xmc_usbd.c **** 				break;
 1306              	 .loc 1 1476 0
 1307 00ce 0220     	 movs r0,#2
 1308              	.L145:
1479:C:/Users/Yushev/git/optiga-trust-qi/projects/xmc4700_relax_kit/common/Libraries/XMCLib/src\xmc_usbd.c **** 				break;
 1309              	 .loc 1 1479 0
 1310 00d0 60F30A02 	 bfi r2,r0,#0,#11
1480:C:/Users/Yushev/git/optiga-trust-qi/projects/xmc4700_relax_kit/common/Libraries/XMCLib/src\xmc_usbd.c **** 				default:
 1311              	 .loc 1 1480 0
 1312 00d4 01E0     	 b .L119
 1313              	.L118:
1487:C:/Users/Yushev/git/optiga-trust-qi/projects/xmc4700_relax_kit/common/Libraries/XMCLib/src\xmc_usbd.c **** 		}
 1314              	 .loc 1 1487 0
 1315 00d6 65F30A02 	 bfi r2,r5,#0,#11
 1316              	.L119:
1490:C:/Users/Yushev/git/optiga-trust-qi/projects/xmc4700_relax_kit/common/Libraries/XMCLib/src\xmc_usbd.c **** 		/* clear stall */
 1317              	 .loc 1 1490 0 discriminator 2
 1318 00da 42F08052 	 orr r2,r2,#268435456
 1319              	.LVL112:
 1320              	.LBB32:
 1321              	.LBB33:
 363:C:/Users/Yushev/git/optiga-trust-qi/projects/xmc4700_relax_kit/common/Libraries/XMCLib/src\xmc_usbd.c ****   {
 1322              	 .loc 1 363 0 discriminator 2
 1323 00de B3F8FCE1 	 ldrh lr,[r3,#508]
 1324              	.LBE33:
 1325              	.LBE32:
1492:C:/Users/Yushev/git/optiga-trust-qi/projects/xmc4700_relax_kit/common/Libraries/XMCLib/src\xmc_usbd.c **** 		/* set tx fifo */
 1326              	 .loc 1 1492 0 discriminator 2
 1327 00e2 6FF35552 	 bfc r2,#21,#1
 1328              	.LVL113:
 1329              	.LBB36:
 1330              	.LBB34:
 363:C:/Users/Yushev/git/optiga-trust-qi/projects/xmc4700_relax_kit/common/Libraries/XMCLib/src\xmc_usbd.c ****   {
 1331              	 .loc 1 363 0 discriminator 2
 1332 00e6 4FF00009 	 mov r9,#0
 360:C:/Users/Yushev/git/optiga-trust-qi/projects/xmc4700_relax_kit/common/Libraries/XMCLib/src\xmc_usbd.c ****   uint8_t i = 0U;
 1333              	 .loc 1 360 0 discriminator 2
 1334 00ea 0120     	 movs r0,#1
 1335              	.LVL114:
 1336              	.L125:
 363:C:/Users/Yushev/git/optiga-trust-qi/projects/xmc4700_relax_kit/common/Libraries/XMCLib/src\xmc_usbd.c ****   {
 1337              	 .loc 1 363 0
 1338 00ec 10EA0E0F 	 tst r0,lr
 1339 00f0 5FFA89F4 	 uxtb r4,r9
 1340              	.LVL115:
 1341 00f4 07D0     	 beq .L126
 1342 00f6 09F10109 	 add r9,r9,#1
 365:C:/Users/Yushev/git/optiga-trust-qi/projects/xmc4700_relax_kit/common/Libraries/XMCLib/src\xmc_usbd.c ****     i++;
 1343              	 .loc 1 365 0
 1344 00fa 4000     	 lsls r0,r0,#1
 1345              	.LVL116:
 363:C:/Users/Yushev/git/optiga-trust-qi/projects/xmc4700_relax_kit/common/Libraries/XMCLib/src\xmc_usbd.c ****   {
 1346              	 .loc 1 363 0
 1347 00fc B9F1070F 	 cmp r9,#7
 365:C:/Users/Yushev/git/optiga-trust-qi/projects/xmc4700_relax_kit/common/Libraries/XMCLib/src\xmc_usbd.c ****     i++;
 1348              	 .loc 1 365 0
 1349 0100 80B2     	 uxth r0,r0
 1350              	.LVL117:
 363:C:/Users/Yushev/git/optiga-trust-qi/projects/xmc4700_relax_kit/common/Libraries/XMCLib/src\xmc_usbd.c ****   {
 1351              	 .loc 1 363 0
 1352 0102 F3D1     	 bne .L125
 1353 0104 4C46     	 mov r4,r9
 1354              	.L126:
 368:C:/Users/Yushev/git/optiga-trust-qi/projects/xmc4700_relax_kit/common/Libraries/XMCLib/src\xmc_usbd.c ****   {
 1355              	 .loc 1 368 0
 1356 0106 10EA0E0F 	 tst r0,lr
 370:C:/Users/Yushev/git/optiga-trust-qi/projects/xmc4700_relax_kit/common/Libraries/XMCLib/src\xmc_usbd.c ****     result=i;
 1357              	 .loc 1 370 0
 1358 010a 04BF     	 itt eq
 1359 010c 40EA0E00 	 orreq r0,r0,lr
 1360              	.LVL118:
 1361 0110 A3F8FC01 	 strheq r0,[r3,#508]
 1362              	.LVL119:
 1363              	.LBE34:
 1364              	.LBE36:
1494:C:/Users/Yushev/git/optiga-trust-qi/projects/xmc4700_relax_kit/common/Libraries/XMCLib/src\xmc_usbd.c **** 		data.b.txfnum = ep->txFifoNum;
 1365              	 .loc 1 1494 0
 1366 0114 4FF03400 	 mov r0,#52
 1367 0118 00FB0830 	 mla r0,r0,r8,r3
 1368              	.LBB37:
 1369              	.LBB35:
 362:C:/Users/Yushev/git/optiga-trust-qi/projects/xmc4700_relax_kit/common/Libraries/XMCLib/src\xmc_usbd.c ****   while( (i < (uint8_t)XMC_USBD_NUM_TX_FIFOS)&&((xmc_device.txfifomsk & mask) != 0U))
 1370              	 .loc 1 362 0
 1371 011c 18BF     	 it ne
 1372 011e 0024     	 movne r4,#0
 1373              	.LVL120:
 1374              	.LBE35:
 1375              	.LBE37:
1494:C:/Users/Yushev/git/optiga-trust-qi/projects/xmc4700_relax_kit/common/Libraries/XMCLib/src\xmc_usbd.c **** 		data.b.txfnum = ep->txFifoNum;
 1376              	 .loc 1 1494 0
 1377 0120 B0F804E0 	 ldrh lr,[r0,#4]
 1378 0124 04F00F04 	 and r4,r4,#15
 1379              	.LVL121:
1495:C:/Users/Yushev/git/optiga-trust-qi/projects/xmc4700_relax_kit/common/Libraries/XMCLib/src\xmc_usbd.c **** 		xmc_device.endpoint_in_register[ep->address_u.address_st.number]->diepctl = data.d32; /* configur
 1380              	 .loc 1 1495 0
 1381 0128 64F39952 	 bfi r2,r4,#22,#4
1494:C:/Users/Yushev/git/optiga-trust-qi/projects/xmc4700_relax_kit/common/Libraries/XMCLib/src\xmc_usbd.c **** 		data.b.txfnum = ep->txFifoNum;
 1382              	 .loc 1 1494 0
 1383 012c 64F3891E 	 bfi lr,r4,#6,#4
 1384 0130 A0F804E0 	 strh lr,[r0,#4]
1496:C:/Users/Yushev/git/optiga-trust-qi/projects/xmc4700_relax_kit/common/Libraries/XMCLib/src\xmc_usbd.c **** 		daintmsk.ep.in |= (uint16_t)((uint16_t)1U << (uint8_t)ep->address_u.address_st.number); /* enable
 1385              	 .loc 1 1496 0
 1386 0134 CCF80020 	 str r2,[ip]
1497:C:/Users/Yushev/git/optiga-trust-qi/projects/xmc4700_relax_kit/common/Libraries/XMCLib/src\xmc_usbd.c ****   }
 1387              	 .loc 1 1497 0
 1388 0138 0122     	 movs r2,#1
 1389              	.LVL122:
 1390 013a 8A40     	 lsls r2,r2,r1
 1391 013c 3A43     	 orrs r2,r2,r7
 1392 013e 62F30F07 	 bfi r7,r2,#0,#16
 1393              	.L117:
 1394              	.LBE31:
1499:C:/Users/Yushev/git/optiga-trust-qi/projects/xmc4700_relax_kit/common/Libraries/XMCLib/src\xmc_usbd.c ****   {
 1395              	 .loc 1 1499 0
 1396 0142 3422     	 movs r2,#52
 1397 0144 02FB08F8 	 mul r8,r2,r8
 1398              	.LVL123:
 1399 0148 13F80820 	 ldrb r2,[r3,r8]
 1400 014c 1206     	 lsls r2,r2,#24
 1401 014e 00D5     	 bpl .L129
1499:C:/Users/Yushev/git/optiga-trust-qi/projects/xmc4700_relax_kit/common/Libraries/XMCLib/src\xmc_usbd.c ****   {
 1402              	 .loc 1 1499 0 is_stmt 0 discriminator 1
 1403 0150 56BB     	 cbnz r6,.L130
 1404              	.L129:
 1405              	.LBB38:
1503:C:/Users/Yushev/git/optiga-trust-qi/projects/xmc4700_relax_kit/common/Libraries/XMCLib/src\xmc_usbd.c **** 		/*enable endpoint */
 1406              	 .loc 1 1503 0 is_stmt 1
 1407 0152 03EB8102 	 add r2,r3,r1,lsl#2
 1408 0156 D2F8C401 	 ldr r0,[r2,#452]
 1409 015a 0268     	 ldr r2,[r0]
 1410              	.LVL124:
1505:C:/Users/Yushev/git/optiga-trust-qi/projects/xmc4700_relax_kit/common/Libraries/XMCLib/src\xmc_usbd.c **** 		/* set ep type */
 1411              	 .loc 1 1505 0
 1412 015c 42F40042 	 orr r2,r2,#32768
 1413              	.LVL125:
1507:C:/Users/Yushev/git/optiga-trust-qi/projects/xmc4700_relax_kit/common/Libraries/XMCLib/src\xmc_usbd.c ****     /* set mps */
 1414              	 .loc 1 1507 0
 1415 0160 66F39342 	 bfi r2,r6,#18,#2
 1416              	.LVL126:
1509:C:/Users/Yushev/git/optiga-trust-qi/projects/xmc4700_relax_kit/common/Libraries/XMCLib/src\xmc_usbd.c **** 		{
 1417              	 .loc 1 1509 0
 1418 0164 9EB9     	 cbnz r6,.L131
1511:C:/Users/Yushev/git/optiga-trust-qi/projects/xmc4700_relax_kit/common/Libraries/XMCLib/src\xmc_usbd.c **** 			{
 1419              	 .loc 1 1511 0
 1420 0166 102D     	 cmp r5,#16
 1421 0168 0DD0     	 beq .L133
 1422 016a 03D8     	 bhi .L134
 1423 016c 082D     	 cmp r5,#8
 1424 016e 10D1     	 bne .L132
1523:C:/Users/Yushev/git/optiga-trust-qi/projects/xmc4700_relax_kit/common/Libraries/XMCLib/src\xmc_usbd.c **** 					break;
 1425              	 .loc 1 1523 0
 1426 0170 0324     	 movs r4,#3
 1427 0172 09E0     	 b .L146
 1428              	.L134:
1511:C:/Users/Yushev/git/optiga-trust-qi/projects/xmc4700_relax_kit/common/Libraries/XMCLib/src\xmc_usbd.c **** 			{
 1429              	 .loc 1 1511 0
 1430 0174 202D     	 cmp r5,#32
 1431 0176 04D0     	 beq .L136
 1432 0178 402D     	 cmp r5,#64
 1433 017a 0AD1     	 bne .L132
1514:C:/Users/Yushev/git/optiga-trust-qi/projects/xmc4700_relax_kit/common/Libraries/XMCLib/src\xmc_usbd.c **** 					break;
 1434              	 .loc 1 1514 0
 1435 017c 66F30A02 	 bfi r2,r6,#0,#11
1515:C:/Users/Yushev/git/optiga-trust-qi/projects/xmc4700_relax_kit/common/Libraries/XMCLib/src\xmc_usbd.c **** 				case (32U):
 1436              	 .loc 1 1515 0
 1437 0180 07E0     	 b .L132
 1438              	.L136:
1517:C:/Users/Yushev/git/optiga-trust-qi/projects/xmc4700_relax_kit/common/Libraries/XMCLib/src\xmc_usbd.c **** 					break;
 1439              	 .loc 1 1517 0
 1440 0182 0124     	 movs r4,#1
 1441 0184 00E0     	 b .L146
 1442              	.L133:
1520:C:/Users/Yushev/git/optiga-trust-qi/projects/xmc4700_relax_kit/common/Libraries/XMCLib/src\xmc_usbd.c **** 					break;
 1443              	 .loc 1 1520 0
 1444 0186 0224     	 movs r4,#2
 1445              	.L146:
1523:C:/Users/Yushev/git/optiga-trust-qi/projects/xmc4700_relax_kit/common/Libraries/XMCLib/src\xmc_usbd.c **** 					break;
 1446              	 .loc 1 1523 0
 1447 0188 64F30A02 	 bfi r2,r4,#0,#11
1524:C:/Users/Yushev/git/optiga-trust-qi/projects/xmc4700_relax_kit/common/Libraries/XMCLib/src\xmc_usbd.c **** 				default:
 1448              	 .loc 1 1524 0
 1449 018c 01E0     	 b .L132
 1450              	.L131:
1531:C:/Users/Yushev/git/optiga-trust-qi/projects/xmc4700_relax_kit/common/Libraries/XMCLib/src\xmc_usbd.c **** 		}
 1451              	 .loc 1 1531 0
 1452 018e 65F30A02 	 bfi r2,r5,#0,#11
 1453              	.L132:
1534:C:/Users/Yushev/git/optiga-trust-qi/projects/xmc4700_relax_kit/common/Libraries/XMCLib/src\xmc_usbd.c **** 		/* clear stall */
 1454              	 .loc 1 1534 0 discriminator 4
 1455 0192 42F08052 	 orr r2,r2,#268435456
 1456              	.LVL127:
1536:C:/Users/Yushev/git/optiga-trust-qi/projects/xmc4700_relax_kit/common/Libraries/XMCLib/src\xmc_usbd.c **** 		xmc_device.endpoint_out_register[ep->address_u.address_st.number]->doepctl = data.d32; /* configu
 1457              	 .loc 1 1536 0 discriminator 4
 1458 0196 6FF35552 	 bfc r2,#21,#1
 1459              	.LVL128:
1537:C:/Users/Yushev/git/optiga-trust-qi/projects/xmc4700_relax_kit/common/Libraries/XMCLib/src\xmc_usbd.c **** 		daintmsk.ep.out |=(uint16_t) ((uint16_t)1U << (uint8_t)ep->address_u.address_st.number); /* enabl
 1460              	 .loc 1 1537 0 discriminator 4
 1461 019a 0260     	 str r2,[r0]
1538:C:/Users/Yushev/git/optiga-trust-qi/projects/xmc4700_relax_kit/common/Libraries/XMCLib/src\xmc_usbd.c ****   }
 1462              	 .loc 1 1538 0 discriminator 4
 1463 019c 0122     	 movs r2,#1
 1464              	.LVL129:
 1465 019e 8A40     	 lsls r2,r2,r1
 1466 01a0 42EA1742 	 orr r2,r2,r7,lsr#16
 1467 01a4 62F31F47 	 bfi r7,r2,#16,#16
 1468              	.L130:
 1469              	.LBE38:
1540:C:/Users/Yushev/git/optiga-trust-qi/projects/xmc4700_relax_kit/common/Libraries/XMCLib/src\xmc_usbd.c ****   return XMC_USBD_STATUS_OK;
 1470              	 .loc 1 1540 0
 1471 01a8 D3F8A431 	 ldr r3,[r3,#420]
1542:C:/Users/Yushev/git/optiga-trust-qi/projects/xmc4700_relax_kit/common/Libraries/XMCLib/src\xmc_usbd.c **** 
 1472              	 .loc 1 1542 0
 1473 01ac 0020     	 movs r0,#0
1540:C:/Users/Yushev/git/optiga-trust-qi/projects/xmc4700_relax_kit/common/Libraries/XMCLib/src\xmc_usbd.c ****   return XMC_USBD_STATUS_OK;
 1474              	 .loc 1 1540 0
 1475 01ae DF61     	 str r7,[r3,#28]
1542:C:/Users/Yushev/git/optiga-trust-qi/projects/xmc4700_relax_kit/common/Libraries/XMCLib/src\xmc_usbd.c **** 
 1476              	 .loc 1 1542 0
 1477 01b0 BDE8F88F 	 pop {r3,r4,r5,r6,r7,r8,r9,r10,fp,pc}
 1478              	.LVL130:
 1479              	.L148:
 1480              	 .align 2
 1481              	.L147:
 1482 01b4 00000000 	 .word .LANCHOR1
 1483 01b8 00000000 	 .word .LANCHOR2
 1484 01bc 00000000 	 .word xmc_device
 1485 01c0 00000000 	 .word .LANCHOR0
 1486              	 .cfi_endproc
 1487              	.LFE205:
 1489              	 .section .text.XMC_USBD_EndpointRead,"ax",%progbits
 1490              	 .align 1
 1491              	 .global XMC_USBD_EndpointRead
 1492              	 .thumb
 1493              	 .thumb_func
 1495              	XMC_USBD_EndpointRead:
 1496              	.LFB200:
1285:C:/Users/Yushev/git/optiga-trust-qi/projects/xmc4700_relax_kit/common/Libraries/XMCLib/src\xmc_usbd.c ****   XMC_USBD_EP_t *ep = &xmc_device.ep[ep_num];
 1497              	 .loc 1 1285 0
 1498              	 .cfi_startproc
 1499              	 
 1500              	 
 1501              	.LVL131:
 1502 0000 38B5     	 push {r3,r4,r5,lr}
 1503              	.LCFI12:
 1504              	 .cfi_def_cfa_offset 16
 1505              	 .cfi_offset 3,-16
 1506              	 .cfi_offset 4,-12
 1507              	 .cfi_offset 5,-8
 1508              	 .cfi_offset 14,-4
1287:C:/Users/Yushev/git/optiga-trust-qi/projects/xmc4700_relax_kit/common/Libraries/XMCLib/src\xmc_usbd.c ****   {
 1509              	 .loc 1 1287 0
 1510 0002 0C4C     	 ldr r4,.L152
 1511 0004 3423     	 movs r3,#52
 1512 0006 03FB0044 	 mla r4,r3,r0,r4
 1513              	.LVL132:
1291:C:/Users/Yushev/git/optiga-trust-qi/projects/xmc4700_relax_kit/common/Libraries/XMCLib/src\xmc_usbd.c ****   ep->outBytesAvailable -= length;
 1514              	 .loc 1 1291 0
 1515 000a 0846     	 mov r0,r1
 1516              	.LVL133:
1287:C:/Users/Yushev/git/optiga-trust-qi/projects/xmc4700_relax_kit/common/Libraries/XMCLib/src\xmc_usbd.c ****   {
 1517              	 .loc 1 1287 0
 1518 000c 2569     	 ldr r5,[r4,#16]
1291:C:/Users/Yushev/git/optiga-trust-qi/projects/xmc4700_relax_kit/common/Libraries/XMCLib/src\xmc_usbd.c ****   ep->outBytesAvailable -= length;
 1519              	 .loc 1 1291 0
 1520 000e A369     	 ldr r3,[r4,#24]
 1521 0010 9542     	 cmp r5,r2
 1522 0012 28BF     	 it cs
 1523 0014 1546     	 movcs r5,r2
 1524              	.LVL134:
 1525 0016 E268     	 ldr r2,[r4,#12]
 1526 0018 D118     	 adds r1,r2,r3
 1527              	.LVL135:
 1528 001a 2A46     	 mov r2,r5
 1529 001c FFF7FEFF 	 bl memcpy
 1530              	.LVL136:
1292:C:/Users/Yushev/git/optiga-trust-qi/projects/xmc4700_relax_kit/common/Libraries/XMCLib/src\xmc_usbd.c ****   if (ep->outBytesAvailable)
 1531              	 .loc 1 1292 0
 1532 0020 2369     	 ldr r3,[r4,#16]
 1533 0022 5B1B     	 subs r3,r3,r5
 1534 0024 2361     	 str r3,[r4,#16]
1293:C:/Users/Yushev/git/optiga-trust-qi/projects/xmc4700_relax_kit/common/Libraries/XMCLib/src\xmc_usbd.c ****   {
 1535              	 .loc 1 1293 0
 1536 0026 0BB1     	 cbz r3,.L150
1295:C:/Users/Yushev/git/optiga-trust-qi/projects/xmc4700_relax_kit/common/Libraries/XMCLib/src\xmc_usbd.c ****   }
 1537              	 .loc 1 1295 0
 1538 0028 A369     	 ldr r3,[r4,#24]
 1539 002a 2B44     	 add r3,r3,r5
 1540              	.L150:
1299:C:/Users/Yushev/git/optiga-trust-qi/projects/xmc4700_relax_kit/common/Libraries/XMCLib/src\xmc_usbd.c ****   }
 1541              	 .loc 1 1299 0
 1542 002c A361     	 str r3,[r4,#24]
1302:C:/Users/Yushev/git/optiga-trust-qi/projects/xmc4700_relax_kit/common/Libraries/XMCLib/src\xmc_usbd.c **** 
 1543              	 .loc 1 1302 0
 1544 002e 2846     	 mov r0,r5
 1545 0030 38BD     	 pop {r3,r4,r5,pc}
 1546              	.LVL137:
 1547              	.L153:
 1548 0032 00BF     	 .align 2
 1549              	.L152:
 1550 0034 00000000 	 .word xmc_device
 1551              	 .cfi_endproc
 1552              	.LFE200:
 1554              	 .section .text.XMC_USBD_EndpointWrite,"ax",%progbits
 1555              	 .align 1
 1556              	 .global XMC_USBD_EndpointWrite
 1557              	 .thumb
 1558              	 .thumb_func
 1560              	XMC_USBD_EndpointWrite:
 1561              	.LFB201:
1308:C:/Users/Yushev/git/optiga-trust-qi/projects/xmc4700_relax_kit/common/Libraries/XMCLib/src\xmc_usbd.c ****   XMC_USBD_EP_t * ep = &xmc_device.ep[ep_num & (uint8_t)XMC_USBD_EP_NUM_MASK];
 1562              	 .loc 1 1308 0
 1563              	 .cfi_startproc
 1564              	 
 1565              	 
 1566              	.LVL138:
 1567 0000 F8B5     	 push {r3,r4,r5,r6,r7,lr}
 1568              	.LCFI13:
 1569              	 .cfi_def_cfa_offset 24
 1570              	 .cfi_offset 3,-24
 1571              	 .cfi_offset 4,-20
 1572              	 .cfi_offset 5,-16
 1573              	 .cfi_offset 6,-12
 1574              	 .cfi_offset 7,-8
 1575              	 .cfi_offset 14,-4
1311:C:/Users/Yushev/git/optiga-trust-qi/projects/xmc4700_relax_kit/common/Libraries/XMCLib/src\xmc_usbd.c ****   {
 1576              	 .loc 1 1311 0
 1577 0002 134B     	 ldr r3,.L158
1309:C:/Users/Yushev/git/optiga-trust-qi/projects/xmc4700_relax_kit/common/Libraries/XMCLib/src\xmc_usbd.c ****   int32_t result;
 1578              	 .loc 1 1309 0
 1579 0004 00F00F00 	 and r0,r0,#15
 1580              	.LVL139:
1311:C:/Users/Yushev/git/optiga-trust-qi/projects/xmc4700_relax_kit/common/Libraries/XMCLib/src\xmc_usbd.c ****   {
 1581              	 .loc 1 1311 0
 1582 0008 3424     	 movs r4,#52
 1583 000a 04FB0034 	 mla r4,r4,r0,r3
 1584              	.LVL140:
 1585 000e 2379     	 ldrb r3,[r4,#4]
 1586 0010 5807     	 lsls r0,r3,#29
 1587 0012 19D5     	 bpl .L156
1315:C:/Users/Yushev/git/optiga-trust-qi/projects/xmc4700_relax_kit/common/Libraries/XMCLib/src\xmc_usbd.c ****   {
 1588              	 .loc 1 1315 0
 1589 0014 6368     	 ldr r3,[r4,#4]
 1590 0016 1B07     	 lsls r3,r3,#28
 1591 0018 18D4     	 bmi .L157
1321:C:/Users/Yushev/git/optiga-trust-qi/projects/xmc4700_relax_kit/common/Libraries/XMCLib/src\xmc_usbd.c ****     {
 1592              	 .loc 1 1321 0
 1593 001a 236A     	 ldr r3,[r4,#32]
1326:C:/Users/Yushev/git/optiga-trust-qi/projects/xmc4700_relax_kit/common/Libraries/XMCLib/src\xmc_usbd.c **** 		ep->xferBuffer = ep->inBuffer;
 1594              	 .loc 1 1326 0
 1595 001c E069     	 ldr r0,[r4,#28]
 1596 001e 9A42     	 cmp r2,r3
 1597 0020 28BF     	 it cs
 1598 0022 1A46     	 movcs r2,r3
 1599              	.LVL141:
 1600 0024 1546     	 mov r5,r2
 1601              	.LVL142:
 1602 0026 FFF7FEFF 	 bl memcpy
 1603              	.LVL143:
1327:C:/Users/Yushev/git/optiga-trust-qi/projects/xmc4700_relax_kit/common/Libraries/XMCLib/src\xmc_usbd.c ****     ep->xferTotal = length;
 1604              	 .loc 1 1327 0
 1605 002a E369     	 ldr r3,[r4,#28]
 1606 002c 6362     	 str r3,[r4,#36]
1330:C:/Users/Yushev/git/optiga-trust-qi/projects/xmc4700_relax_kit/common/Libraries/XMCLib/src\xmc_usbd.c ****     ep->xferCount = 0U;
 1607              	 .loc 1 1330 0
 1608 002e 0023     	 movs r3,#0
 1609 0030 A362     	 str r3,[r4,#40]
1331:C:/Users/Yushev/git/optiga-trust-qi/projects/xmc4700_relax_kit/common/Libraries/XMCLib/src\xmc_usbd.c ****     ep->inInUse = 1U;
 1610              	 .loc 1 1331 0
 1611 0032 E362     	 str r3,[r4,#44]
1332:C:/Users/Yushev/git/optiga-trust-qi/projects/xmc4700_relax_kit/common/Libraries/XMCLib/src\xmc_usbd.c ****     /* start the transfer */
 1612              	 .loc 1 1332 0
 1613 0034 6368     	 ldr r3,[r4,#4]
1328:C:/Users/Yushev/git/optiga-trust-qi/projects/xmc4700_relax_kit/common/Libraries/XMCLib/src\xmc_usbd.c ****     /* set transfer values */
 1614              	 .loc 1 1328 0
 1615 0036 2563     	 str r5,[r4,#48]
1332:C:/Users/Yushev/git/optiga-trust-qi/projects/xmc4700_relax_kit/common/Libraries/XMCLib/src\xmc_usbd.c ****     /* start the transfer */
 1616              	 .loc 1 1332 0
 1617 0038 43F00803 	 orr r3,r3,#8
1334:C:/Users/Yushev/git/optiga-trust-qi/projects/xmc4700_relax_kit/common/Libraries/XMCLib/src\xmc_usbd.c ****     result=(int32_t)ep->xferTotal;
 1618              	 .loc 1 1334 0
 1619 003c 2046     	 mov r0,r4
1332:C:/Users/Yushev/git/optiga-trust-qi/projects/xmc4700_relax_kit/common/Libraries/XMCLib/src\xmc_usbd.c ****     /* start the transfer */
 1620              	 .loc 1 1332 0
 1621 003e 6360     	 str r3,[r4,#4]
1334:C:/Users/Yushev/git/optiga-trust-qi/projects/xmc4700_relax_kit/common/Libraries/XMCLib/src\xmc_usbd.c ****     result=(int32_t)ep->xferTotal;
 1622              	 .loc 1 1334 0
 1623 0040 FFF7FEFF 	 bl XMC_USBD_lStartWriteXfer
 1624              	.LVL144:
1335:C:/Users/Yushev/git/optiga-trust-qi/projects/xmc4700_relax_kit/common/Libraries/XMCLib/src\xmc_usbd.c ****   }
 1625              	 .loc 1 1335 0
 1626 0044 206B     	 ldr r0,[r4,#48]
 1627              	.LVL145:
 1628 0046 F8BD     	 pop {r3,r4,r5,r6,r7,pc}
 1629              	.LVL146:
 1630              	.L156:
1313:C:/Users/Yushev/git/optiga-trust-qi/projects/xmc4700_relax_kit/common/Libraries/XMCLib/src\xmc_usbd.c ****   }
 1631              	 .loc 1 1313 0
 1632 0048 0120     	 movs r0,#1
 1633 004a F8BD     	 pop {r3,r4,r5,r6,r7,pc}
 1634              	.LVL147:
 1635              	.L157:
1317:C:/Users/Yushev/git/optiga-trust-qi/projects/xmc4700_relax_kit/common/Libraries/XMCLib/src\xmc_usbd.c ****   }
 1636              	 .loc 1 1317 0
 1637 004c 0020     	 movs r0,#0
 1638              	.LVL148:
1338:C:/Users/Yushev/git/optiga-trust-qi/projects/xmc4700_relax_kit/common/Libraries/XMCLib/src\xmc_usbd.c **** 
 1639              	 .loc 1 1338 0
 1640 004e F8BD     	 pop {r3,r4,r5,r6,r7,pc}
 1641              	.LVL149:
 1642              	.L159:
 1643              	 .align 2
 1644              	.L158:
 1645 0050 00000000 	 .word xmc_device
 1646              	 .cfi_endproc
 1647              	.LFE201:
 1649              	 .section .text.XMC_USBD_lDeviceActive,"ax",%progbits
 1650              	 .align 1
 1651              	 .global XMC_USBD_lDeviceActive
 1652              	 .thumb
 1653              	 .thumb_func
 1655              	XMC_USBD_lDeviceActive:
 1656              	.LFB169:
 181:C:/Users/Yushev/git/optiga-trust-qi/projects/xmc4700_relax_kit/common/Libraries/XMCLib/src\xmc_usbd.c ****   uint8_t i;
 1657              	 .loc 1 181 0
 1658              	 .cfi_startproc
 1659              	 
 1660              	 
 1661              	.LVL150:
 1662 0000 10B5     	 push {r4,lr}
 1663              	.LCFI14:
 1664              	 .cfi_def_cfa_offset 8
 1665              	 .cfi_offset 4,-8
 1666              	 .cfi_offset 14,-4
 184:C:/Users/Yushev/git/optiga-trust-qi/projects/xmc4700_relax_kit/common/Libraries/XMCLib/src\xmc_usbd.c ****   {
 1667              	 .loc 1 184 0
 1668 0002 0023     	 movs r3,#0
 1669 0004 017B     	 ldrb r1,[r0,#12]
 183:C:/Users/Yushev/git/optiga-trust-qi/projects/xmc4700_relax_kit/common/Libraries/XMCLib/src\xmc_usbd.c ****   for (i = 0U; i < (uint8_t)obj->usbd_max_num_eps; i++)
 1670              	 .loc 1 183 0
 1671 0006 1846     	 mov r0,r3
 1672              	.LVL151:
 1673              	.L161:
 184:C:/Users/Yushev/git/optiga-trust-qi/projects/xmc4700_relax_kit/common/Libraries/XMCLib/src\xmc_usbd.c ****   {
 1674              	 .loc 1 184 0 discriminator 1
 1675 0008 DAB2     	 uxtb r2,r3
 1676 000a 8A42     	 cmp r2,r1
 1677 000c 0FD2     	 bcs .L166
 186:C:/Users/Yushev/git/optiga-trust-qi/projects/xmc4700_relax_kit/common/Libraries/XMCLib/src\xmc_usbd.c ****     {
 1678              	 .loc 1 186 0
 1679 000e 084C     	 ldr r4,.L167
 1680 0010 3422     	 movs r2,#52
 1681 0012 02FB0342 	 mla r2,r2,r3,r4
 1682 0016 5468     	 ldr r4,[r2,#4]
 1683 0018 2407     	 lsls r4,r4,#28
 1684 001a 05D4     	 bmi .L164
 186:C:/Users/Yushev/git/optiga-trust-qi/projects/xmc4700_relax_kit/common/Libraries/XMCLib/src\xmc_usbd.c ****     {
 1685              	 .loc 1 186 0 is_stmt 0 discriminator 1
 1686 001c 5268     	 ldr r2,[r2,#4]
 188:C:/Users/Yushev/git/optiga-trust-qi/projects/xmc4700_relax_kit/common/Libraries/XMCLib/src\xmc_usbd.c ****     }
 1687              	 .loc 1 188 0 is_stmt 1 discriminator 1
 1688 001e 12F0100F 	 tst r2,#16
 1689 0022 18BF     	 it ne
 1690 0024 0120     	 movne r0,#1
 1691              	.LVL152:
 1692 0026 00E0     	 b .L162
 1693              	.LVL153:
 1694              	.L164:
 188:C:/Users/Yushev/git/optiga-trust-qi/projects/xmc4700_relax_kit/common/Libraries/XMCLib/src\xmc_usbd.c ****     }
 1695              	 .loc 1 188 0 is_stmt 0
 1696 0028 0120     	 movs r0,#1
 1697              	.LVL154:
 1698              	.L162:
 1699 002a 0133     	 adds r3,r3,#1
 1700              	.LVL155:
 1701 002c ECE7     	 b .L161
 1702              	.LVL156:
 1703              	.L166:
 192:C:/Users/Yushev/git/optiga-trust-qi/projects/xmc4700_relax_kit/common/Libraries/XMCLib/src\xmc_usbd.c **** 
 1704              	 .loc 1 192 0 is_stmt 1
 1705 002e 10BD     	 pop {r4,pc}
 1706              	.L168:
 1707              	 .align 2
 1708              	.L167:
 1709 0030 00000000 	 .word xmc_device
 1710              	 .cfi_endproc
 1711              	.LFE169:
 1713              	 .section .text.XMC_USBD_DeviceGetState,"ax",%progbits
 1714              	 .align 1
 1715              	 .global XMC_USBD_DeviceGetState
 1716              	 .thumb
 1717              	 .thumb_func
 1719              	XMC_USBD_DeviceGetState:
 1720              	.LFB198:
1241:C:/Users/Yushev/git/optiga-trust-qi/projects/xmc4700_relax_kit/common/Libraries/XMCLib/src\xmc_usbd.c ****   XMC_USBD_STATE_t state={0U};
 1721              	 .loc 1 1241 0
 1722              	 .cfi_startproc
 1723              	 
 1724              	 
 1725              	.LVL157:
 1726 0000 70B5     	 push {r4,r5,r6,lr}
 1727              	.LCFI15:
 1728              	 .cfi_def_cfa_offset 16
 1729              	 .cfi_offset 4,-16
 1730              	 .cfi_offset 5,-12
 1731              	 .cfi_offset 6,-8
 1732              	 .cfi_offset 14,-4
1244:C:/Users/Yushev/git/optiga-trust-qi/projects/xmc4700_relax_kit/common/Libraries/XMCLib/src\xmc_usbd.c ****   state.active = XMC_USBD_lDeviceActive(obj);
 1733              	 .loc 1 1244 0
 1734 0002 0B4E     	 ldr r6,.L170
 1735 0004 96F8FE51 	 ldrb r5,[r6,#510]
1245:C:/Users/Yushev/git/optiga-trust-qi/projects/xmc4700_relax_kit/common/Libraries/XMCLib/src\xmc_usbd.c ****   state.powered = xmc_device.IsPowered;
 1736              	 .loc 1 1245 0
 1737 0008 FFF7FEFF 	 bl XMC_USBD_lDeviceActive
 1738              	.LVL158:
1246:C:/Users/Yushev/git/optiga-trust-qi/projects/xmc4700_relax_kit/common/Libraries/XMCLib/src\xmc_usbd.c ****   return state;
 1739              	 .loc 1 1246 0
 1740 000c 96F8FE31 	 ldrb r3,[r6,#510]
1242:C:/Users/Yushev/git/optiga-trust-qi/projects/xmc4700_relax_kit/common/Libraries/XMCLib/src\xmc_usbd.c ****   state.speed = XMC_USBD_SPEED_FULL;
 1741              	 .loc 1 1242 0
 1742 0010 0024     	 movs r4,#0
 1743              	.LVL159:
1247:C:/Users/Yushev/git/optiga-trust-qi/projects/xmc4700_relax_kit/common/Libraries/XMCLib/src\xmc_usbd.c **** }
 1744              	 .loc 1 1247 0
 1745 0012 C3F38003 	 ubfx r3,r3,#2,#1
1244:C:/Users/Yushev/git/optiga-trust-qi/projects/xmc4700_relax_kit/common/Libraries/XMCLib/src\xmc_usbd.c ****   state.active = XMC_USBD_lDeviceActive(obj);
 1746              	 .loc 1 1244 0
 1747 0016 05F00105 	 and r5,r5,#1
 1748              	.LVL160:
1247:C:/Users/Yushev/git/optiga-trust-qi/projects/xmc4700_relax_kit/common/Libraries/XMCLib/src\xmc_usbd.c **** }
 1749              	 .loc 1 1247 0
 1750 001a 63F30004 	 bfi r4,r3,#0,#1
 1751              	.LVL161:
 1752 001e 65F34104 	 bfi r4,r5,#1,#1
 1753 0022 60F38204 	 bfi r4,r0,#2,#1
 1754 0026 0123     	 movs r3,#1
 1755 0028 63F3C404 	 bfi r4,r3,#3,#2
1248:C:/Users/Yushev/git/optiga-trust-qi/projects/xmc4700_relax_kit/common/Libraries/XMCLib/src\xmc_usbd.c **** 
 1756              	 .loc 1 1248 0
 1757 002c 2046     	 mov r0,r4
 1758              	.LVL162:
 1759 002e 70BD     	 pop {r4,r5,r6,pc}
 1760              	.LVL163:
 1761              	.L171:
 1762              	 .align 2
 1763              	.L170:
 1764 0030 00000000 	 .word xmc_device
 1765              	 .cfi_endproc
 1766              	.LFE198:
 1768              	 .section .text.XMC_USBD_Enable,"ax",%progbits
 1769              	 .align 1
 1770              	 .global XMC_USBD_Enable
 1771              	 .thumb
 1772              	 .thumb_func
 1774              	XMC_USBD_Enable:
 1775              	.LFB185:
 942:C:/Users/Yushev/git/optiga-trust-qi/projects/xmc4700_relax_kit/common/Libraries/XMCLib/src\xmc_usbd.c **** #if defined(CLOCK_GATING_SUPPORTED)
 1776              	 .loc 1 942 0
 1777              	 .cfi_startproc
 1778              	 
 1779              	 
 1780 0000 10B5     	 push {r4,lr}
 1781              	.LCFI16:
 1782              	 .cfi_def_cfa_offset 8
 1783              	 .cfi_offset 4,-8
 1784              	 .cfi_offset 14,-4
 944:C:/Users/Yushev/git/optiga-trust-qi/projects/xmc4700_relax_kit/common/Libraries/XMCLib/src\xmc_usbd.c **** #endif
 1785              	 .loc 1 944 0
 1786 0002 054C     	 ldr r4,.L173
 1787 0004 2046     	 mov r0,r4
 1788 0006 FFF7FEFF 	 bl XMC_SCU_CLOCK_UngatePeripheralClock
 1789              	.LVL164:
 947:C:/Users/Yushev/git/optiga-trust-qi/projects/xmc4700_relax_kit/common/Libraries/XMCLib/src\xmc_usbd.c ****   XMC_SCU_POWER_EnableUsb();
 1790              	 .loc 1 947 0
 1791 000a 2046     	 mov r0,r4
 1792 000c FFF7FEFF 	 bl XMC_SCU_RESET_DeassertPeripheralReset
 1793              	.LVL165:
 949:C:/Users/Yushev/git/optiga-trust-qi/projects/xmc4700_relax_kit/common/Libraries/XMCLib/src\xmc_usbd.c **** 
 1794              	 .loc 1 949 0
 1795 0010 BDE81040 	 pop {r4,lr}
 1796              	.LCFI17:
 1797              	 .cfi_restore 14
 1798              	 .cfi_restore 4
 1799              	 .cfi_def_cfa_offset 0
 948:C:/Users/Yushev/git/optiga-trust-qi/projects/xmc4700_relax_kit/common/Libraries/XMCLib/src\xmc_usbd.c **** }
 1800              	 .loc 1 948 0
 1801 0014 FFF7FEBF 	 b XMC_SCU_POWER_EnableUsb
 1802              	.LVL166:
 1803              	.L174:
 1804              	 .align 2
 1805              	.L173:
 1806 0018 80000020 	 .word 536871040
 1807              	 .cfi_endproc
 1808              	.LFE185:
 1810              	 .section .text.XMC_USBD_Init,"ax",%progbits
 1811              	 .align 1
 1812              	 .global XMC_USBD_Init
 1813              	 .thumb
 1814              	 .thumb_func
 1816              	XMC_USBD_Init:
 1817              	.LFB194:
1084:C:/Users/Yushev/git/optiga-trust-qi/projects/xmc4700_relax_kit/common/Libraries/XMCLib/src\xmc_usbd.c ****   uint8_t *XMC_USBD_BASE_ADDRESS;
 1818              	 .loc 1 1084 0
 1819              	 .cfi_startproc
 1820              	 
 1821              	 
 1822              	.LVL167:
 1823 0000 38B5     	 push {r3,r4,r5,lr}
 1824              	.LCFI18:
 1825              	 .cfi_def_cfa_offset 16
 1826              	 .cfi_offset 3,-16
 1827              	 .cfi_offset 4,-12
 1828              	 .cfi_offset 5,-8
 1829              	 .cfi_offset 14,-4
1084:C:/Users/Yushev/git/optiga-trust-qi/projects/xmc4700_relax_kit/common/Libraries/XMCLib/src\xmc_usbd.c ****   uint8_t *XMC_USBD_BASE_ADDRESS;
 1830              	 .loc 1 1084 0
 1831 0002 0546     	 mov r5,r0
1096:C:/Users/Yushev/git/optiga-trust-qi/projects/xmc4700_relax_kit/common/Libraries/XMCLib/src\xmc_usbd.c ****   
 1832              	 .loc 1 1096 0
 1833 0004 FFF7FEFF 	 bl XMC_USBD_Enable
 1834              	.LVL168:
1098:C:/Users/Yushev/git/optiga-trust-qi/projects/xmc4700_relax_kit/common/Libraries/XMCLib/src\xmc_usbd.c **** 
 1835              	 .loc 1 1098 0
 1836 0008 394B     	 ldr r3,.L187
 1837 000a 1D60     	 str r5,[r3]
 1838              	.LVL169:
1101:C:/Users/Yushev/git/optiga-trust-qi/projects/xmc4700_relax_kit/common/Libraries/XMCLib/src\xmc_usbd.c ****   {
 1839              	 .loc 1 1101 0
 1840 000c 0023     	 movs r3,#0
 1841              	.LVL170:
 1842              	.L176:
1103:C:/Users/Yushev/git/optiga-trust-qi/projects/xmc4700_relax_kit/common/Libraries/XMCLib/src\xmc_usbd.c **** 	  XMC_USBD_EP_IN_BUFFERSIZE[i] 	= XMC_USBD_EP0_BUFFER_SIZE;
 1843              	 .loc 1 1103 0 discriminator 3
 1844 000e 3949     	 ldr r1,.L187+4
 1845 0010 4022     	 movs r2,#64
 1846 0012 41F82320 	 str r2,[r1,r3,lsl#2]
1104:C:/Users/Yushev/git/optiga-trust-qi/projects/xmc4700_relax_kit/common/Libraries/XMCLib/src\xmc_usbd.c ****   }
 1847              	 .loc 1 1104 0 discriminator 3
 1848 0016 3849     	 ldr r1,.L187+8
 1849 0018 41F82320 	 str r2,[r1,r3,lsl#2]
1101:C:/Users/Yushev/git/optiga-trust-qi/projects/xmc4700_relax_kit/common/Libraries/XMCLib/src\xmc_usbd.c ****   {
 1850              	 .loc 1 1101 0 discriminator 3
 1851 001c 0133     	 adds r3,r3,#1
 1852              	.LVL171:
 1853 001e 072B     	 cmp r3,#7
 1854 0020 F5D1     	 bne .L176
1108:C:/Users/Yushev/git/optiga-trust-qi/projects/xmc4700_relax_kit/common/Libraries/XMCLib/src\xmc_usbd.c **** 
 1855              	 .loc 1 1108 0
 1856 0022 364C     	 ldr r4,.L187+12
 1857 0024 0021     	 movs r1,#0
 1858 0026 4FF40272 	 mov r2,#520
 1859 002a 2046     	 mov r0,r4
 1860 002c FFF7FEFF 	 bl memset
 1861              	.LVL172:
1111:C:/Users/Yushev/git/optiga-trust-qi/projects/xmc4700_relax_kit/common/Libraries/XMCLib/src\xmc_usbd.c ****   xmc_device.EndpointEvent_cb = obj->cb_endpoint_event;
 1862              	 .loc 1 1111 0
 1863 0030 6B68     	 ldr r3,[r5,#4]
 1864 0032 C4F80032 	 str r3,[r4,#512]
1112:C:/Users/Yushev/git/optiga-trust-qi/projects/xmc4700_relax_kit/common/Libraries/XMCLib/src\xmc_usbd.c ****   XMC_USBD_BASE_ADDRESS = (uint8_t *)(obj->usbd);
 1865              	 .loc 1 1112 0
 1866 0036 AB68     	 ldr r3,[r5,#8]
 1867 0038 C4F80432 	 str r3,[r4,#516]
1113:C:/Users/Yushev/git/optiga-trust-qi/projects/xmc4700_relax_kit/common/Libraries/XMCLib/src\xmc_usbd.c ****   /* assign register address */
 1868              	 .loc 1 1113 0
 1869 003c 2B68     	 ldr r3,[r5]
 1870              	.LVL173:
1115:C:/Users/Yushev/git/optiga-trust-qi/projects/xmc4700_relax_kit/common/Libraries/XMCLib/src\xmc_usbd.c ****   xmc_device.device_register = ((dwc_otg_device_global_regs_t*)(XMC_USBD_BASE_ADDRESS + DWC_DEV_GLO
 1871              	 .loc 1 1115 0
 1872 003e C4F8A031 	 str r3,[r4,#416]
1116:C:/Users/Yushev/git/optiga-trust-qi/projects/xmc4700_relax_kit/common/Libraries/XMCLib/src\xmc_usbd.c ****   for (i = 0U;i < (uint32_t)XMC_USBD_NUM_EPS;i++)
 1873              	 .loc 1 1116 0
 1874 0042 03F50062 	 add r2,r3,#2048
 1875 0046 C4F8A421 	 str r2,[r4,#420]
 1876              	.LVL174:
 1877 004a 04F5D271 	 add r1,r4,#420
 1878 004e 03F51062 	 add r2,r3,#2304
 1879 0052 03F51E60 	 add r0,r3,#2528
 1880              	.LVL175:
 1881              	.L177:
1119:C:/Users/Yushev/git/optiga-trust-qi/projects/xmc4700_relax_kit/common/Libraries/XMCLib/src\xmc_usbd.c ****     ((uint32_t)DWC_EP_REG_OFFSET*i));
 1882              	 .loc 1 1119 0 discriminator 3
 1883 0056 41F8042F 	 str r2,[r1,#4]!
 1884 005a 2032     	 adds r2,r2,#32
1117:C:/Users/Yushev/git/optiga-trust-qi/projects/xmc4700_relax_kit/common/Libraries/XMCLib/src\xmc_usbd.c ****   {
 1885              	 .loc 1 1117 0 discriminator 3
 1886 005c 8242     	 cmp r2,r0
 1887 005e FAD1     	 bne .L177
 1888 0060 2749     	 ldr r1,.L187+16
 1889 0062 03F53062 	 add r2,r3,#2816
 1890 0066 03F53E60 	 add r0,r3,#3040
 1891              	.L178:
1124:C:/Users/Yushev/git/optiga-trust-qi/projects/xmc4700_relax_kit/common/Libraries/XMCLib/src\xmc_usbd.c ****     									  DWC_DEV_OUT_EP_REG_OFFSET +
 1892              	 .loc 1 1124 0 discriminator 3
 1893 006a 41F8042F 	 str r2,[r1,#4]!
 1894 006e 2032     	 adds r2,r2,#32
1122:C:/Users/Yushev/git/optiga-trust-qi/projects/xmc4700_relax_kit/common/Libraries/XMCLib/src\xmc_usbd.c ****   {
 1895              	 .loc 1 1122 0 discriminator 3
 1896 0070 8242     	 cmp r2,r0
 1897 0072 FAD1     	 bne .L178
 1898 0074 2349     	 ldr r1,.L187+20
1122:C:/Users/Yushev/git/optiga-trust-qi/projects/xmc4700_relax_kit/common/Libraries/XMCLib/src\xmc_usbd.c ****   {
 1899              	 .loc 1 1122 0 is_stmt 0
 1900 0076 0022     	 movs r2,#0
 1901              	.L179:
 1902              	.LVL176:
1131:C:/Users/Yushev/git/optiga-trust-qi/projects/xmc4700_relax_kit/common/Libraries/XMCLib/src\xmc_usbd.c ****     						(i * XMC_USBD_TX_FIFO_OFFSET));
 1903              	 .loc 1 1131 0 is_stmt 1 discriminator 3
 1904 0078 0132     	 adds r2,r2,#1
 1905              	.LVL177:
 1906 007a 03EB0230 	 add r0,r3,r2,lsl#12
1128:C:/Users/Yushev/git/optiga-trust-qi/projects/xmc4700_relax_kit/common/Libraries/XMCLib/src\xmc_usbd.c ****   {
 1907              	 .loc 1 1128 0 discriminator 3
 1908 007e 072A     	 cmp r2,#7
1130:C:/Users/Yushev/git/optiga-trust-qi/projects/xmc4700_relax_kit/common/Libraries/XMCLib/src\xmc_usbd.c ****     						XMC_USBD_TX_FIFO_REG_OFFSET +
 1909              	 .loc 1 1130 0 discriminator 3
 1910 0080 41F8040F 	 str r0,[r1,#4]!
 1911              	.LVL178:
1128:C:/Users/Yushev/git/optiga-trust-qi/projects/xmc4700_relax_kit/common/Libraries/XMCLib/src\xmc_usbd.c ****   {
 1912              	 .loc 1 1128 0 discriminator 3
 1913 0084 F8D1     	 bne .L179
1137:C:/Users/Yushev/git/optiga-trust-qi/projects/xmc4700_relax_kit/common/Libraries/XMCLib/src\xmc_usbd.c ****   gahbcfg.b.glblintrmsk = 1U; /* enable interrupts ( global mask ) */
 1914              	 .loc 1 1137 0
 1915 0086 9A68     	 ldr r2,[r3,#8]
 1916              	.LVL179:
1140:C:/Users/Yushev/git/optiga-trust-qi/projects/xmc4700_relax_kit/common/Libraries/XMCLib/src\xmc_usbd.c ****   {
 1917              	 .loc 1 1140 0
 1918 0088 697B     	 ldrb r1,[r5,#13]
1139:C:/Users/Yushev/git/optiga-trust-qi/projects/xmc4700_relax_kit/common/Libraries/XMCLib/src\xmc_usbd.c ****   if(obj->usbd_transfer_mode == XMC_USBD_USE_DMA)
 1919              	 .loc 1 1139 0
 1920 008a 42F08102 	 orr r2,r2,#129
 1921              	.LVL180:
1140:C:/Users/Yushev/git/optiga-trust-qi/projects/xmc4700_relax_kit/common/Libraries/XMCLib/src\xmc_usbd.c ****   {
 1922              	 .loc 1 1140 0
 1923 008e 11B9     	 cbnz r1,.L180
 1924              	.LVL181:
1143:C:/Users/Yushev/git/optiga-trust-qi/projects/xmc4700_relax_kit/common/Libraries/XMCLib/src\xmc_usbd.c ****   }
 1925              	 .loc 1 1143 0
 1926 0090 42F02002 	 orr r2,r2,#32
 1927              	.LVL182:
 1928 0094 01E0     	 b .L181
 1929              	.L180:
1147:C:/Users/Yushev/git/optiga-trust-qi/projects/xmc4700_relax_kit/common/Libraries/XMCLib/src\xmc_usbd.c ****   }
 1930              	 .loc 1 1147 0
 1931 0096 6FF34512 	 bfc r2,#5,#1
 1932              	.LVL183:
 1933              	.L181:
1149:C:/Users/Yushev/git/optiga-trust-qi/projects/xmc4700_relax_kit/common/Libraries/XMCLib/src\xmc_usbd.c ****   /* configure usb details */  
 1934              	 .loc 1 1149 0
 1935 009a 9A60     	 str r2,[r3,#8]
1151:C:/Users/Yushev/git/optiga-trust-qi/projects/xmc4700_relax_kit/common/Libraries/XMCLib/src\xmc_usbd.c ****   gusbcfg.b.force_dev_mode = 1U; /* force us into device mode */
 1936              	 .loc 1 1151 0
 1937 009c DA68     	 ldr r2,[r3,#12]
 1938              	.LVL184:
1153:C:/Users/Yushev/git/optiga-trust-qi/projects/xmc4700_relax_kit/common/Libraries/XMCLib/src\xmc_usbd.c ****   xmc_device.global_register->gusbcfg = gusbcfg.d32;
 1939              	 .loc 1 1153 0
 1940 009e 42F08042 	 orr r2,r2,#1073741824
 1941              	.LVL185:
 1942 00a2 42F48072 	 orr r2,r2,#256
 1943              	.LVL186:
1154:C:/Users/Yushev/git/optiga-trust-qi/projects/xmc4700_relax_kit/common/Libraries/XMCLib/src\xmc_usbd.c **** 
 1944              	 .loc 1 1154 0
 1945 00a6 DA60     	 str r2,[r3,#12]
1158:C:/Users/Yushev/git/optiga-trust-qi/projects/xmc4700_relax_kit/common/Libraries/XMCLib/src\xmc_usbd.c ****   dcfg.b.devspd = XMC_USBD_DCFG_DEVSPD_FS;
 1946              	 .loc 1 1158 0
 1947 00a8 D3F80028 	 ldr r2,[r3,#2048]
 1948              	.LVL187:
1159:C:/Users/Yushev/git/optiga-trust-qi/projects/xmc4700_relax_kit/common/Libraries/XMCLib/src\xmc_usbd.c ****   dcfg.b.descdma = 0U;
 1949              	 .loc 1 1159 0
 1950 00ac 42F00302 	 orr r2,r2,#3
 1951              	.LVL188:
1160:C:/Users/Yushev/git/optiga-trust-qi/projects/xmc4700_relax_kit/common/Libraries/XMCLib/src\xmc_usbd.c ****   xmc_device.device_register->dcfg = dcfg.d32;
 1952              	 .loc 1 1160 0
 1953 00b0 6FF3D752 	 bfc r2,#23,#1
 1954              	.LVL189:
1161:C:/Users/Yushev/git/optiga-trust-qi/projects/xmc4700_relax_kit/common/Libraries/XMCLib/src\xmc_usbd.c ****   /* configure device functions */  
 1955              	 .loc 1 1161 0
 1956 00b4 C3F80028 	 str r2,[r3,#2048]
1163:C:/Users/Yushev/git/optiga-trust-qi/projects/xmc4700_relax_kit/common/Libraries/XMCLib/src\xmc_usbd.c ****   dctl.b.sftdiscon = 1U; /* disconnect the device until its connected by the user */
 1957              	 .loc 1 1163 0
 1958 00b8 D3F80428 	 ldr r2,[r3,#2052]
 1959              	.LVL190:
1164:C:/Users/Yushev/git/optiga-trust-qi/projects/xmc4700_relax_kit/common/Libraries/XMCLib/src\xmc_usbd.c ****   /* all other config is done by default register value */
 1960              	 .loc 1 1164 0
 1961 00bc 42F00202 	 orr r2,r2,#2
 1962              	.LVL191:
1166:C:/Users/Yushev/git/optiga-trust-qi/projects/xmc4700_relax_kit/common/Libraries/XMCLib/src\xmc_usbd.c ****   /* flush the fifos for proper operation */
 1963              	 .loc 1 1166 0
 1964 00c0 C3F80428 	 str r2,[r3,#2052]
1168:C:/Users/Yushev/git/optiga-trust-qi/projects/xmc4700_relax_kit/common/Libraries/XMCLib/src\xmc_usbd.c ****   XMC_USBD_lFlushRXFifo();
 1965              	 .loc 1 1168 0
 1966 00c4 1020     	 movs r0,#16
 1967 00c6 FFF7FEFF 	 bl XMC_USBD_lFlushTXFifo
 1968              	.LVL192:
1169:C:/Users/Yushev/git/optiga-trust-qi/projects/xmc4700_relax_kit/common/Libraries/XMCLib/src\xmc_usbd.c ****   /* Enable Global Interrupts */
 1969              	 .loc 1 1169 0
 1970 00ca FFF7FEFF 	 bl XMC_USBD_lFlushRXFifo
 1971              	.LVL193:
1172:C:/Users/Yushev/git/optiga-trust-qi/projects/xmc4700_relax_kit/common/Libraries/XMCLib/src\xmc_usbd.c ****   xmc_device.global_register->gintsts = 0xFFFFFFFFU; /* clear all interrupts */
 1972              	 .loc 1 1172 0
 1973 00ce D4F8A021 	 ldr r2,[r4,#416]
1189:C:/Users/Yushev/git/optiga-trust-qi/projects/xmc4700_relax_kit/common/Libraries/XMCLib/src\xmc_usbd.c ****   }
 1974              	 .loc 1 1189 0
 1975 00d2 0D49     	 ldr r1,.L187+24
1187:C:/Users/Yushev/git/optiga-trust-qi/projects/xmc4700_relax_kit/common/Libraries/XMCLib/src\xmc_usbd.c ****   {
 1976              	 .loc 1 1187 0
 1977 00d4 6C7B     	 ldrb r4,[r5,#13]
1172:C:/Users/Yushev/git/optiga-trust-qi/projects/xmc4700_relax_kit/common/Libraries/XMCLib/src\xmc_usbd.c ****   xmc_device.global_register->gintsts = 0xFFFFFFFFU; /* clear all interrupts */
 1978              	 .loc 1 1172 0
 1979 00d6 0020     	 movs r0,#0
1173:C:/Users/Yushev/git/optiga-trust-qi/projects/xmc4700_relax_kit/common/Libraries/XMCLib/src\xmc_usbd.c ****  
 1980              	 .loc 1 1173 0
 1981 00d8 4FF0FF33 	 mov r3,#-1
1172:C:/Users/Yushev/git/optiga-trust-qi/projects/xmc4700_relax_kit/common/Libraries/XMCLib/src\xmc_usbd.c ****   xmc_device.global_register->gintsts = 0xFFFFFFFFU; /* clear all interrupts */
 1982              	 .loc 1 1172 0
 1983 00dc 9061     	 str r0,[r2,#24]
1173:C:/Users/Yushev/git/optiga-trust-qi/projects/xmc4700_relax_kit/common/Libraries/XMCLib/src\xmc_usbd.c ****  
 1984              	 .loc 1 1173 0
 1985 00de 5361     	 str r3,[r2,#20]
1186:C:/Users/Yushev/git/optiga-trust-qi/projects/xmc4700_relax_kit/common/Libraries/XMCLib/src\xmc_usbd.c ****   if(obj->usbd_transfer_mode == XMC_USBD_USE_FIFO)
 1986              	 .loc 1 1186 0
 1987 00e0 0A4B     	 ldr r3,.L187+28
 1988              	.LVL194:
1189:C:/Users/Yushev/git/optiga-trust-qi/projects/xmc4700_relax_kit/common/Libraries/XMCLib/src\xmc_usbd.c ****   }
 1989              	 .loc 1 1189 0
 1990 00e2 012C     	 cmp r4,#1
 1991 00e4 08BF     	 it eq
 1992 00e6 0B46     	 moveq r3,r1
 1993              	.LVL195:
1192:C:/Users/Yushev/git/optiga-trust-qi/projects/xmc4700_relax_kit/common/Libraries/XMCLib/src\xmc_usbd.c ****   xmc_device.global_register->gintmsk = gintmsk.d32;
 1994              	 .loc 1 1192 0
 1995 00e8 43F44023 	 orr r3,r3,#786432
 1996              	.LVL196:
1193:C:/Users/Yushev/git/optiga-trust-qi/projects/xmc4700_relax_kit/common/Libraries/XMCLib/src\xmc_usbd.c ****   return XMC_USBD_STATUS_OK;
 1997              	 .loc 1 1193 0
 1998 00ec 9361     	 str r3,[r2,#24]
1195:C:/Users/Yushev/git/optiga-trust-qi/projects/xmc4700_relax_kit/common/Libraries/XMCLib/src\xmc_usbd.c **** 
 1999              	 .loc 1 1195 0
 2000 00ee 38BD     	 pop {r3,r4,r5,pc}
 2001              	.LVL197:
 2002              	.L188:
 2003              	 .align 2
 2004              	.L187:
 2005 00f0 00000000 	 .word usbd_init
 2006 00f4 00000000 	 .word .LANCHOR2
 2007 00f8 00000000 	 .word .LANCHOR1
 2008 00fc 00000000 	 .word xmc_device
 2009 0100 C0010000 	 .word xmc_device+448
 2010 0104 DC010000 	 .word xmc_device+476
 2011 0108 1E3C00C0 	 .word -1073726434
 2012 010c 0E3C00C0 	 .word -1073726450
 2013              	 .cfi_endproc
 2014              	.LFE194:
 2016              	 .section .text.XMC_USBD_Disable,"ax",%progbits
 2017              	 .align 1
 2018              	 .global XMC_USBD_Disable
 2019              	 .thumb
 2020              	 .thumb_func
 2022              	XMC_USBD_Disable:
 2023              	.LFB186:
 955:C:/Users/Yushev/git/optiga-trust-qi/projects/xmc4700_relax_kit/common/Libraries/XMCLib/src\xmc_usbd.c ****   /* Clear Reset and power up */
 2024              	 .loc 1 955 0
 2025              	 .cfi_startproc
 2026              	 
 2027              	 
 2028 0000 10B5     	 push {r4,lr}
 2029              	.LCFI19:
 2030              	 .cfi_def_cfa_offset 8
 2031              	 .cfi_offset 4,-8
 2032              	 .cfi_offset 14,-4
 957:C:/Users/Yushev/git/optiga-trust-qi/projects/xmc4700_relax_kit/common/Libraries/XMCLib/src\xmc_usbd.c **** #if defined(CLOCK_GATING_SUPPORTED)
 2033              	 .loc 1 957 0
 2034 0002 054C     	 ldr r4,.L190
 2035 0004 2046     	 mov r0,r4
 2036 0006 FFF7FEFF 	 bl XMC_SCU_RESET_AssertPeripheralReset
 2037              	.LVL198:
 959:C:/Users/Yushev/git/optiga-trust-qi/projects/xmc4700_relax_kit/common/Libraries/XMCLib/src\xmc_usbd.c **** #endif
 2038              	 .loc 1 959 0
 2039 000a 2046     	 mov r0,r4
 2040 000c FFF7FEFF 	 bl XMC_SCU_CLOCK_GatePeripheralClock
 2041              	.LVL199:
 962:C:/Users/Yushev/git/optiga-trust-qi/projects/xmc4700_relax_kit/common/Libraries/XMCLib/src\xmc_usbd.c **** 
 2042              	 .loc 1 962 0
 2043 0010 BDE81040 	 pop {r4,lr}
 2044              	.LCFI20:
 2045              	 .cfi_restore 14
 2046              	 .cfi_restore 4
 2047              	 .cfi_def_cfa_offset 0
 961:C:/Users/Yushev/git/optiga-trust-qi/projects/xmc4700_relax_kit/common/Libraries/XMCLib/src\xmc_usbd.c **** }
 2048              	 .loc 1 961 0
 2049 0014 FFF7FEBF 	 b XMC_SCU_POWER_DisableUsb
 2050              	.LVL200:
 2051              	.L191:
 2052              	 .align 2
 2053              	.L190:
 2054 0018 80000020 	 .word 536871040
 2055              	 .cfi_endproc
 2056              	.LFE186:
 2058              	 .section .text.XMC_USBD_ClearEvent,"ax",%progbits
 2059              	 .align 1
 2060              	 .global XMC_USBD_ClearEvent
 2061              	 .thumb
 2062              	 .thumb_func
 2064              	XMC_USBD_ClearEvent:
 2065              	.LFB187:
 968:C:/Users/Yushev/git/optiga-trust-qi/projects/xmc4700_relax_kit/common/Libraries/XMCLib/src\xmc_usbd.c ****   gintsts_data_t clear;
 2066              	 .loc 1 968 0
 2067              	 .cfi_startproc
 2068              	 
 2069              	 
 2070              	 
 2071              	.LVL201:
 970:C:/Users/Yushev/git/optiga-trust-qi/projects/xmc4700_relax_kit/common/Libraries/XMCLib/src\xmc_usbd.c ****   switch(event)
 2072              	 .loc 1 970 0
 2073 0000 0023     	 movs r3,#0
 2074              	.LVL202:
 971:C:/Users/Yushev/git/optiga-trust-qi/projects/xmc4700_relax_kit/common/Libraries/XMCLib/src\xmc_usbd.c ****   {
 2075              	 .loc 1 971 0
 2076 0002 0D28     	 cmp r0,#13
 2077 0004 1ED8     	 bhi .L193
 2078 0006 DFE800F0 	 tbb [pc,r0]
 2079              	.L195:
 2080 000a 07       	 .byte (.L194-.L195)/2
 2081 000b 1D       	 .byte (.L193-.L195)/2
 2082 000c 1D       	 .byte (.L193-.L195)/2
 2083 000d 1D       	 .byte (.L193-.L195)/2
 2084 000e 0A       	 .byte (.L196-.L195)/2
 2085 000f 1D       	 .byte (.L193-.L195)/2
 2086 0010 0D       	 .byte (.L197-.L195)/2
 2087 0011 10       	 .byte (.L199-.L195)/2
 2088 0012 10       	 .byte (.L199-.L195)/2
 2089 0013 13       	 .byte (.L200-.L195)/2
 2090 0014 15       	 .byte (.L201-.L195)/2
 2091 0015 18       	 .byte (.L202-.L195)/2
 2092 0016 1D       	 .byte (.L193-.L195)/2
 2093 0017 1B       	 .byte (.L203-.L195)/2
 2094              	 .p2align 1
 2095              	.L194:
 974:C:/Users/Yushev/git/optiga-trust-qi/projects/xmc4700_relax_kit/common/Libraries/XMCLib/src\xmc_usbd.c **** 	  break;
 2096              	 .loc 1 974 0
 2097 0018 4FF08043 	 mov r3,#1073741824
 975:C:/Users/Yushev/git/optiga-trust-qi/projects/xmc4700_relax_kit/common/Libraries/XMCLib/src\xmc_usbd.c ****     case (XMC_USBD_EVENT_RESET):
 2098              	 .loc 1 975 0
 2099 001c 12E0     	 b .L193
 2100              	.L196:
 977:C:/Users/Yushev/git/optiga-trust-qi/projects/xmc4700_relax_kit/common/Libraries/XMCLib/src\xmc_usbd.c **** 	  break;
 2101              	 .loc 1 977 0
 2102 001e 4FF48053 	 mov r3,#4096
 978:C:/Users/Yushev/git/optiga-trust-qi/projects/xmc4700_relax_kit/common/Libraries/XMCLib/src\xmc_usbd.c ****     case (XMC_USBD_EVENT_SUSPEND):
 2103              	 .loc 1 978 0
 2104 0022 0FE0     	 b .L193
 2105              	.L197:
 980:C:/Users/Yushev/git/optiga-trust-qi/projects/xmc4700_relax_kit/common/Libraries/XMCLib/src\xmc_usbd.c **** 	  break;
 2106              	 .loc 1 980 0
 2107 0024 4FF40063 	 mov r3,#2048
 981:C:/Users/Yushev/git/optiga-trust-qi/projects/xmc4700_relax_kit/common/Libraries/XMCLib/src\xmc_usbd.c ****     case (XMC_USBD_EVENT_RESUME):
 2108              	 .loc 1 981 0
 2109 0028 0CE0     	 b .L193
 2110              	.L199:
 986:C:/Users/Yushev/git/optiga-trust-qi/projects/xmc4700_relax_kit/common/Libraries/XMCLib/src\xmc_usbd.c **** 	  break;
 2111              	 .loc 1 986 0
 2112 002a 4FF00043 	 mov r3,#-2147483648
 987:C:/Users/Yushev/git/optiga-trust-qi/projects/xmc4700_relax_kit/common/Libraries/XMCLib/src\xmc_usbd.c ****     case (XMC_USBD_EVENT_SOF):
 2113              	 .loc 1 987 0
 2114 002e 09E0     	 b .L193
 2115              	.L200:
 989:C:/Users/Yushev/git/optiga-trust-qi/projects/xmc4700_relax_kit/common/Libraries/XMCLib/src\xmc_usbd.c **** 	  break;
 2116              	 .loc 1 989 0
 2117 0030 0823     	 movs r3,#8
 990:C:/Users/Yushev/git/optiga-trust-qi/projects/xmc4700_relax_kit/common/Libraries/XMCLib/src\xmc_usbd.c ****     case (XMC_USBD_EVENT_EARLYSUSPEND):
 2118              	 .loc 1 990 0
 2119 0032 07E0     	 b .L193
 2120              	.L201:
 992:C:/Users/Yushev/git/optiga-trust-qi/projects/xmc4700_relax_kit/common/Libraries/XMCLib/src\xmc_usbd.c **** 	  break;
 2121              	 .loc 1 992 0
 2122 0034 4FF48063 	 mov r3,#1024
 993:C:/Users/Yushev/git/optiga-trust-qi/projects/xmc4700_relax_kit/common/Libraries/XMCLib/src\xmc_usbd.c ****     case (XMC_USBD_EVENT_ENUMDONE):
 2123              	 .loc 1 993 0
 2124 0038 04E0     	 b .L193
 2125              	.L202:
 995:C:/Users/Yushev/git/optiga-trust-qi/projects/xmc4700_relax_kit/common/Libraries/XMCLib/src\xmc_usbd.c **** 	  break;
 2126              	 .loc 1 995 0
 2127 003a 4FF40053 	 mov r3,#8192
 996:C:/Users/Yushev/git/optiga-trust-qi/projects/xmc4700_relax_kit/common/Libraries/XMCLib/src\xmc_usbd.c ****     case (XMC_USBD_EVENT_OUTEP):
 2128              	 .loc 1 996 0
 2129 003e 01E0     	 b .L193
 2130              	.L203:
 998:C:/Users/Yushev/git/optiga-trust-qi/projects/xmc4700_relax_kit/common/Libraries/XMCLib/src\xmc_usbd.c **** 	  break;
 2131              	 .loc 1 998 0
 2132 0040 4FF40023 	 mov r3,#524288
 2133              	.L193:
1003:C:/Users/Yushev/git/optiga-trust-qi/projects/xmc4700_relax_kit/common/Libraries/XMCLib/src\xmc_usbd.c **** }
 2134              	 .loc 1 1003 0
 2135 0044 024A     	 ldr r2,.L204
 2136 0046 D2F8A021 	 ldr r2,[r2,#416]
 2137              	.LVL203:
 2138 004a 5361     	 str r3,[r2,#20]
 2139 004c 7047     	 bx lr
 2140              	.L205:
 2141 004e 00BF     	 .align 2
 2142              	.L204:
 2143 0050 00000000 	 .word xmc_device
 2144              	 .cfi_endproc
 2145              	.LFE187:
 2147              	 .section .text.XMC_USBD_ClearEventINEP,"ax",%progbits
 2148              	 .align 1
 2149              	 .global XMC_USBD_ClearEventINEP
 2150              	 .thumb
 2151              	 .thumb_func
 2153              	XMC_USBD_ClearEventINEP:
 2154              	.LFB189:
1020:C:/Users/Yushev/git/optiga-trust-qi/projects/xmc4700_relax_kit/common/Libraries/XMCLib/src\xmc_usbd.c ****   diepint_data_t clear;
 2155              	 .loc 1 1020 0
 2156              	 .cfi_startproc
 2157              	 
 2158              	 
 2159              	 
 2160              	.LVL204:
1023:C:/Users/Yushev/git/optiga-trust-qi/projects/xmc4700_relax_kit/common/Libraries/XMCLib/src\xmc_usbd.c **** }
 2161              	 .loc 1 1023 0
 2162 0000 6A31     	 adds r1,r1,#106
 2163              	.LVL205:
 2164 0002 024B     	 ldr r3,.L207
 2165 0004 53F82130 	 ldr r3,[r3,r1,lsl#2]
 2166 0008 9860     	 str r0,[r3,#8]
 2167 000a 7047     	 bx lr
 2168              	.L208:
 2169              	 .align 2
 2170              	.L207:
 2171 000c 00000000 	 .word xmc_device
 2172              	 .cfi_endproc
 2173              	.LFE189:
 2175              	 .section .text.XMC_USBD_ClearEventOUTEP,"ax",%progbits
 2176              	 .align 1
 2177              	 .global XMC_USBD_ClearEventOUTEP
 2178              	 .thumb
 2179              	 .thumb_func
 2181              	XMC_USBD_ClearEventOUTEP:
 2182              	.LFB190:
1030:C:/Users/Yushev/git/optiga-trust-qi/projects/xmc4700_relax_kit/common/Libraries/XMCLib/src\xmc_usbd.c ****   doepint_data_t clear;
 2183              	 .loc 1 1030 0
 2184              	 .cfi_startproc
 2185              	 
 2186              	 
 2187              	 
 2188              	.LVL206:
1033:C:/Users/Yushev/git/optiga-trust-qi/projects/xmc4700_relax_kit/common/Libraries/XMCLib/src\xmc_usbd.c **** }
 2189              	 .loc 1 1033 0
 2190 0000 034B     	 ldr r3,.L210
 2191 0002 03EB8101 	 add r1,r3,r1,lsl#2
 2192              	.LVL207:
 2193 0006 D1F8C431 	 ldr r3,[r1,#452]
 2194 000a 9860     	 str r0,[r3,#8]
 2195 000c 7047     	 bx lr
 2196              	.L211:
 2197 000e 00BF     	 .align 2
 2198              	.L210:
 2199 0010 00000000 	 .word xmc_device
 2200              	 .cfi_endproc
 2201              	.LFE190:
 2203              	 .section .text.XMC_USBD_EnableEventOUTEP,"ax",%progbits
 2204              	 .align 1
 2205              	 .global XMC_USBD_EnableEventOUTEP
 2206              	 .thumb
 2207              	 .thumb_func
 2209              	XMC_USBD_EnableEventOUTEP:
 2210              	.LFB191:
1040:C:/Users/Yushev/git/optiga-trust-qi/projects/xmc4700_relax_kit/common/Libraries/XMCLib/src\xmc_usbd.c **** 	doepint_data_t doepint;
 2211              	 .loc 1 1040 0
 2212              	 .cfi_startproc
 2213              	 
 2214              	 
 2215              	 
 2216              	.LVL208:
1043:C:/Users/Yushev/git/optiga-trust-qi/projects/xmc4700_relax_kit/common/Libraries/XMCLib/src\xmc_usbd.c **** }
 2217              	 .loc 1 1043 0
 2218 0000 034B     	 ldr r3,.L213
 2219 0002 D3F8A421 	 ldr r2,[r3,#420]
 2220 0006 5369     	 ldr r3,[r2,#20]
 2221 0008 1843     	 orrs r0,r0,r3
 2222              	.LVL209:
 2223 000a 5061     	 str r0,[r2,#20]
 2224 000c 7047     	 bx lr
 2225              	.L214:
 2226 000e 00BF     	 .align 2
 2227              	.L213:
 2228 0010 00000000 	 .word xmc_device
 2229              	 .cfi_endproc
 2230              	.LFE191:
 2232              	 .section .text.XMC_USBD_EnableEventINEP,"ax",%progbits
 2233              	 .align 1
 2234              	 .global XMC_USBD_EnableEventINEP
 2235              	 .thumb
 2236              	 .thumb_func
 2238              	XMC_USBD_EnableEventINEP:
 2239              	.LFB192:
1050:C:/Users/Yushev/git/optiga-trust-qi/projects/xmc4700_relax_kit/common/Libraries/XMCLib/src\xmc_usbd.c **** 	diepint_data_t diepint;
 2240              	 .loc 1 1050 0
 2241              	 .cfi_startproc
 2242              	 
 2243              	 
 2244              	 
 2245              	.LVL210:
1053:C:/Users/Yushev/git/optiga-trust-qi/projects/xmc4700_relax_kit/common/Libraries/XMCLib/src\xmc_usbd.c **** }
 2246              	 .loc 1 1053 0
 2247 0000 034B     	 ldr r3,.L216
 2248 0002 D3F8A421 	 ldr r2,[r3,#420]
 2249 0006 1369     	 ldr r3,[r2,#16]
 2250 0008 1843     	 orrs r0,r0,r3
 2251              	.LVL211:
 2252 000a 1061     	 str r0,[r2,#16]
 2253 000c 7047     	 bx lr
 2254              	.L217:
 2255 000e 00BF     	 .align 2
 2256              	.L216:
 2257 0010 00000000 	 .word xmc_device
 2258              	 .cfi_endproc
 2259              	.LFE192:
 2261              	 .section .text.XMC_USBD_IRQHandler,"ax",%progbits
 2262              	 .align 1
 2263              	 .global XMC_USBD_IRQHandler
 2264              	 .thumb
 2265              	 .thumb_func
 2267              	XMC_USBD_IRQHandler:
 2268              	.LFB184:
 867:C:/Users/Yushev/git/optiga-trust-qi/projects/xmc4700_relax_kit/common/Libraries/XMCLib/src\xmc_usbd.c ****   gintmsk_data_t gintmsk;
 2269              	 .loc 1 867 0
 2270              	 .cfi_startproc
 2271              	 
 2272              	 
 2273              	.LVL212:
 2274 0000 2DE9F04F 	 push {r4,r5,r6,r7,r8,r9,r10,fp,lr}
 2275              	.LCFI21:
 2276              	 .cfi_def_cfa_offset 36
 2277              	 .cfi_offset 4,-36
 2278              	 .cfi_offset 5,-32
 2279              	 .cfi_offset 6,-28
 2280              	 .cfi_offset 7,-24
 2281              	 .cfi_offset 8,-20
 2282              	 .cfi_offset 9,-16
 2283              	 .cfi_offset 10,-12
 2284              	 .cfi_offset 11,-8
 2285              	 .cfi_offset 14,-4
 871:C:/Users/Yushev/git/optiga-trust-qi/projects/xmc4700_relax_kit/common/Libraries/XMCLib/src\xmc_usbd.c ****   data.d32 = xmc_device.global_register->gintsts & gintmsk.d32;
 2286              	 .loc 1 871 0
 2287 0004 C14C     	 ldr r4,.L322
 2288 0006 D4F8A031 	 ldr r3,[r4,#416]
 2289 000a 9F69     	 ldr r7,[r3,#24]
 2290              	.LVL213:
 872:C:/Users/Yushev/git/optiga-trust-qi/projects/xmc4700_relax_kit/common/Libraries/XMCLib/src\xmc_usbd.c **** 	
 2291              	 .loc 1 872 0
 2292 000c 5D69     	 ldr r5,[r3,#20]
 2293              	.LVL214:
 2294 000e 3D40     	 ands r5,r5,r7
 2295              	.LVL215:
 874:C:/Users/Yushev/git/optiga-trust-qi/projects/xmc4700_relax_kit/common/Libraries/XMCLib/src\xmc_usbd.c ****   {
 2296              	 .loc 1 874 0
 2297 0010 5FFA85F8 	 uxtb r8,r5
 2298 0014 18F0080F 	 tst r8,#8
 867:C:/Users/Yushev/git/optiga-trust-qi/projects/xmc4700_relax_kit/common/Libraries/XMCLib/src\xmc_usbd.c ****   gintmsk_data_t gintmsk;
 2299              	 .loc 1 867 0
 2300 0018 85B0     	 sub sp,sp,#20
 2301              	.LCFI22:
 2302              	 .cfi_def_cfa_offset 56
 867:C:/Users/Yushev/git/optiga-trust-qi/projects/xmc4700_relax_kit/common/Libraries/XMCLib/src\xmc_usbd.c ****   gintmsk_data_t gintmsk;
 2303              	 .loc 1 867 0
 2304 001a 0646     	 mov r6,r0
 874:C:/Users/Yushev/git/optiga-trust-qi/projects/xmc4700_relax_kit/common/Libraries/XMCLib/src\xmc_usbd.c ****   {
 2305              	 .loc 1 874 0
 2306 001c 06D0     	 beq .L219
 876:C:/Users/Yushev/git/optiga-trust-qi/projects/xmc4700_relax_kit/common/Libraries/XMCLib/src\xmc_usbd.c ****     XMC_USBD_ClearEvent(XMC_USBD_EVENT_SOF);
 2307              	 .loc 1 876 0
 2308 001e 0920     	 movs r0,#9
 2309              	.LVL216:
 2310 0020 D4F80032 	 ldr r3,[r4,#512]
 2311 0024 9847     	 blx r3
 2312              	.LVL217:
 877:C:/Users/Yushev/git/optiga-trust-qi/projects/xmc4700_relax_kit/common/Libraries/XMCLib/src\xmc_usbd.c ****   }
 2313              	 .loc 1 877 0
 2314 0026 0920     	 movs r0,#9
 2315 0028 FFF7FEFF 	 bl XMC_USBD_ClearEvent
 2316              	.LVL218:
 2317              	.L219:
 879:C:/Users/Yushev/git/optiga-trust-qi/projects/xmc4700_relax_kit/common/Libraries/XMCLib/src\xmc_usbd.c ****   {
 2318              	 .loc 1 879 0
 2319 002c 737B     	 ldrb r3,[r6,#13]
 2320 002e 012B     	 cmp r3,#1
 2321 0030 19D1     	 bne .L220
 881:C:/Users/Yushev/git/optiga-trust-qi/projects/xmc4700_relax_kit/common/Libraries/XMCLib/src\xmc_usbd.c ****     {
 2322              	 .loc 1 881 0
 2323 0032 18F0100F 	 tst r8,#16
 2324 0036 16D0     	 beq .L220
 885:C:/Users/Yushev/git/optiga-trust-qi/projects/xmc4700_relax_kit/common/Libraries/XMCLib/src\xmc_usbd.c ****       XMC_USBD_lHandleRxFLvl(); /* handle the interrupt */
 2325              	 .loc 1 885 0
 2326 0038 D4F8A031 	 ldr r3,[r4,#416]
 884:C:/Users/Yushev/git/optiga-trust-qi/projects/xmc4700_relax_kit/common/Libraries/XMCLib/src\xmc_usbd.c ****       xmc_device.global_register->gintmsk = gintmsk.d32;
 2327              	 .loc 1 884 0
 2328 003c 6FF30417 	 bfc r7,#4,#1
 885:C:/Users/Yushev/git/optiga-trust-qi/projects/xmc4700_relax_kit/common/Libraries/XMCLib/src\xmc_usbd.c ****       XMC_USBD_lHandleRxFLvl(); /* handle the interrupt */
 2329              	 .loc 1 885 0
 2330 0040 9F61     	 str r7,[r3,#24]
 2331              	.LBB64:
 2332              	.LBB65:
 838:C:/Users/Yushev/git/optiga-trust-qi/projects/xmc4700_relax_kit/common/Libraries/XMCLib/src\xmc_usbd.c **** 
 2333              	 .loc 1 838 0
 2334 0042 196A     	 ldr r1,[r3,#32]
 840:C:/Users/Yushev/git/optiga-trust-qi/projects/xmc4700_relax_kit/common/Libraries/XMCLib/src\xmc_usbd.c **** 	{
 2335              	 .loc 1 840 0
 2336 0044 C1F34343 	 ubfx r3,r1,#17,#4
 2337 0048 022B     	 cmp r3,#2
 2338 004a 01D0     	 beq .L223
 2339 004c 062B     	 cmp r3,#6
 2340 004e 05D1     	 bne .L221
 2341              	.L223:
 850:C:/Users/Yushev/git/optiga-trust-qi/projects/xmc4700_relax_kit/common/Libraries/XMCLib/src\xmc_usbd.c ****       break;
 2342              	 .loc 1 850 0
 2343 0050 01F00F00 	 and r0,r1,#15
 2344 0054 C1F30A11 	 ubfx r1,r1,#4,#11
 2345 0058 FFF7FEFF 	 bl XMC_USBD_lReadFifo
 2346              	.LVL219:
 2347              	.L221:
 2348              	.LBE65:
 2349              	.LBE64:
 888:C:/Users/Yushev/git/optiga-trust-qi/projects/xmc4700_relax_kit/common/Libraries/XMCLib/src\xmc_usbd.c ****     }
 2350              	 .loc 1 888 0
 2351 005c D4F8A031 	 ldr r3,[r4,#416]
 887:C:/Users/Yushev/git/optiga-trust-qi/projects/xmc4700_relax_kit/common/Libraries/XMCLib/src\xmc_usbd.c ****       xmc_device.global_register->gintmsk = gintmsk.d32;
 2352              	 .loc 1 887 0
 2353 0060 47F01007 	 orr r7,r7,#16
 2354              	.LVL220:
 888:C:/Users/Yushev/git/optiga-trust-qi/projects/xmc4700_relax_kit/common/Libraries/XMCLib/src\xmc_usbd.c ****     }
 2355              	 .loc 1 888 0
 2356 0064 9F61     	 str r7,[r3,#24]
 2357              	.L220:
 891:C:/Users/Yushev/git/optiga-trust-qi/projects/xmc4700_relax_kit/common/Libraries/XMCLib/src\xmc_usbd.c ****   {
 2358              	 .loc 1 891 0
 2359 0066 C5F30727 	 ubfx r7,r5,#8,#8
 2360              	.LVL221:
 2361 006a 7A07     	 lsls r2,r7,#29
 2362 006c 02D5     	 bpl .L224
 893:C:/Users/Yushev/git/optiga-trust-qi/projects/xmc4700_relax_kit/common/Libraries/XMCLib/src\xmc_usbd.c ****   }
 2363              	 .loc 1 893 0
 2364 006e 0A20     	 movs r0,#10
 2365 0070 FFF7FEFF 	 bl XMC_USBD_ClearEvent
 2366              	.LVL222:
 2367              	.L224:
 895:C:/Users/Yushev/git/optiga-trust-qi/projects/xmc4700_relax_kit/common/Libraries/XMCLib/src\xmc_usbd.c ****   {
 2368              	 .loc 1 895 0
 2369 0074 3B07     	 lsls r3,r7,#28
 2370 0076 06D5     	 bpl .L225
 897:C:/Users/Yushev/git/optiga-trust-qi/projects/xmc4700_relax_kit/common/Libraries/XMCLib/src\xmc_usbd.c ****     XMC_USBD_ClearEvent(XMC_USBD_EVENT_SUSPEND);
 2371              	 .loc 1 897 0
 2372 0078 0620     	 movs r0,#6
 2373 007a D4F80032 	 ldr r3,[r4,#512]
 2374 007e 9847     	 blx r3
 2375              	.LVL223:
 898:C:/Users/Yushev/git/optiga-trust-qi/projects/xmc4700_relax_kit/common/Libraries/XMCLib/src\xmc_usbd.c ****   }
 2376              	 .loc 1 898 0
 2377 0080 0620     	 movs r0,#6
 2378 0082 FFF7FEFF 	 bl XMC_USBD_ClearEvent
 2379              	.LVL224:
 2380              	.L225:
 900:C:/Users/Yushev/git/optiga-trust-qi/projects/xmc4700_relax_kit/common/Libraries/XMCLib/src\xmc_usbd.c ****   {
 2381              	 .loc 1 900 0
 2382 0086 4FEA1568 	 lsr r8,r5,#24
 2383 008a 18F0800F 	 tst r8,#128
 2384 008e 06D0     	 beq .L226
 902:C:/Users/Yushev/git/optiga-trust-qi/projects/xmc4700_relax_kit/common/Libraries/XMCLib/src\xmc_usbd.c ****     XMC_USBD_ClearEvent(XMC_USBD_EVENT_REMOTE_WAKEUP);
 2385              	 .loc 1 902 0
 2386 0090 0820     	 movs r0,#8
 2387 0092 D4F80032 	 ldr r3,[r4,#512]
 2388 0096 9847     	 blx r3
 2389              	.LVL225:
 903:C:/Users/Yushev/git/optiga-trust-qi/projects/xmc4700_relax_kit/common/Libraries/XMCLib/src\xmc_usbd.c ****   }
 2390              	 .loc 1 903 0
 2391 0098 0820     	 movs r0,#8
 2392 009a FFF7FEFF 	 bl XMC_USBD_ClearEvent
 2393              	.LVL226:
 2394              	.L226:
 905:C:/Users/Yushev/git/optiga-trust-qi/projects/xmc4700_relax_kit/common/Libraries/XMCLib/src\xmc_usbd.c ****   {
 2395              	 .loc 1 905 0
 2396 009e 18F0400F 	 tst r8,#64
 2397 00a2 0CD0     	 beq .L227
 907:C:/Users/Yushev/git/optiga-trust-qi/projects/xmc4700_relax_kit/common/Libraries/XMCLib/src\xmc_usbd.c ****     xmc_device.DeviceEvent_cb(XMC_USBD_EVENT_POWER_ON);
 2398              	 .loc 1 907 0
 2399 00a4 94F8FE31 	 ldrb r3,[r4,#510]
 2400 00a8 43F00403 	 orr r3,r3,#4
 2401 00ac 84F8FE31 	 strb r3,[r4,#510]
 908:C:/Users/Yushev/git/optiga-trust-qi/projects/xmc4700_relax_kit/common/Libraries/XMCLib/src\xmc_usbd.c ****     XMC_USBD_ClearEvent(XMC_USBD_EVENT_POWER_ON);
 2402              	 .loc 1 908 0
 2403 00b0 0020     	 movs r0,#0
 2404 00b2 D4F80032 	 ldr r3,[r4,#512]
 2405 00b6 9847     	 blx r3
 2406              	.LVL227:
 909:C:/Users/Yushev/git/optiga-trust-qi/projects/xmc4700_relax_kit/common/Libraries/XMCLib/src\xmc_usbd.c ****   }
 2407              	 .loc 1 909 0
 2408 00b8 0020     	 movs r0,#0
 2409 00ba FFF7FEFF 	 bl XMC_USBD_ClearEvent
 2410              	.LVL228:
 2411              	.L227:
 911:C:/Users/Yushev/git/optiga-trust-qi/projects/xmc4700_relax_kit/common/Libraries/XMCLib/src\xmc_usbd.c ****   {
 2412              	 .loc 1 911 0
 2413 00be F806     	 lsls r0,r7,#27
 2414 00c0 5CD5     	 bpl .L228
 2415              	.LVL229:
 2416              	.LBB66:
 2417              	.LBB67:
 530:C:/Users/Yushev/git/optiga-trust-qi/projects/xmc4700_relax_kit/common/Libraries/XMCLib/src\xmc_usbd.c ****   dctl.b.rmtwkupsig = 1U;
 2418              	 .loc 1 530 0
 2419 00c2 D4F8A421 	 ldr r2,[r4,#420]
 2420 00c6 5368     	 ldr r3,[r2,#4]
 531:C:/Users/Yushev/git/optiga-trust-qi/projects/xmc4700_relax_kit/common/Libraries/XMCLib/src\xmc_usbd.c ****   xmc_device.device_register->dctl = dctl.d32;
 2421              	 .loc 1 531 0
 2422 00c8 43F00103 	 orr r3,r3,#1
 2423              	.LVL230:
 532:C:/Users/Yushev/git/optiga-trust-qi/projects/xmc4700_relax_kit/common/Libraries/XMCLib/src\xmc_usbd.c **** 
 2424              	 .loc 1 532 0
 2425 00cc 5360     	 str r3,[r2,#4]
 2426              	.LVL231:
 2427 00ce 904B     	 ldr r3,.L322+4
 2428              	.LVL232:
 2429 00d0 03F11C00 	 add r0,r3,#28
 2430              	.LVL233:
 2431              	.L229:
 537:C:/Users/Yushev/git/optiga-trust-qi/projects/xmc4700_relax_kit/common/Libraries/XMCLib/src\xmc_usbd.c **** 		epctl.b.snak = 1U;
 2432              	 .loc 1 537 0
 2433 00d4 53F8041F 	 ldr r1,[r3,#4]!
 2434 00d8 0A68     	 ldr r2,[r1]
 2435              	.LVL234:
 538:C:/Users/Yushev/git/optiga-trust-qi/projects/xmc4700_relax_kit/common/Libraries/XMCLib/src\xmc_usbd.c **** 		epctl.b.stall = 0U;
 2436              	 .loc 1 538 0
 2437 00da 42F00062 	 orr r2,r2,#134217728
 539:C:/Users/Yushev/git/optiga-trust-qi/projects/xmc4700_relax_kit/common/Libraries/XMCLib/src\xmc_usbd.c **** 		xmc_device.endpoint_out_register[i]->doepctl = epctl.d32;
 2438              	 .loc 1 539 0
 2439 00de 6FF35552 	 bfc r2,#21,#1
 2440              	.LVL235:
 535:C:/Users/Yushev/git/optiga-trust-qi/projects/xmc4700_relax_kit/common/Libraries/XMCLib/src\xmc_usbd.c ****   {
 2441              	 .loc 1 535 0
 2442 00e2 8342     	 cmp r3,r0
 540:C:/Users/Yushev/git/optiga-trust-qi/projects/xmc4700_relax_kit/common/Libraries/XMCLib/src\xmc_usbd.c ****   }
 2443              	 .loc 1 540 0
 2444 00e4 0A60     	 str r2,[r1]
 535:C:/Users/Yushev/git/optiga-trust-qi/projects/xmc4700_relax_kit/common/Libraries/XMCLib/src\xmc_usbd.c ****   {
 2445              	 .loc 1 535 0
 2446 00e6 F5D1     	 bne .L229
 545:C:/Users/Yushev/git/optiga-trust-qi/projects/xmc4700_relax_kit/common/Libraries/XMCLib/src\xmc_usbd.c ****   /* Calculate the size of the tx fifo for ep 0 */  
 2447              	 .loc 1 545 0
 2448 00e8 D4F8A031 	 ldr r3,[r4,#416]
 2449 00ec 4021     	 movs r1,#64
 548:C:/Users/Yushev/git/optiga-trust-qi/projects/xmc4700_relax_kit/common/Libraries/XMCLib/src\xmc_usbd.c ****   gnptxfsiz.b.startaddr = 64U;
 2450              	 .loc 1 548 0
 2451 00ee 4FF48012 	 mov r2,#1048576
 2452              	.LVL236:
 549:C:/Users/Yushev/git/optiga-trust-qi/projects/xmc4700_relax_kit/common/Libraries/XMCLib/src\xmc_usbd.c ****   xmc_device.global_register->gnptxfsiz = gnptxfsiz.d32;
 2453              	 .loc 1 549 0
 2454 00f2 61F30F02 	 bfi r2,r1,#0,#16
 2455              	.LVL237:
 545:C:/Users/Yushev/git/optiga-trust-qi/projects/xmc4700_relax_kit/common/Libraries/XMCLib/src\xmc_usbd.c ****   /* Calculate the size of the tx fifo for ep 0 */  
 2456              	 .loc 1 545 0
 2457 00f6 5962     	 str r1,[r3,#36]
 550:C:/Users/Yushev/git/optiga-trust-qi/projects/xmc4700_relax_kit/common/Libraries/XMCLib/src\xmc_usbd.c ****   /* calculate the size for the rest */
 2458              	 .loc 1 550 0
 2459 00f8 9A62     	 str r2,[r3,#40]
 2460              	.LVL238:
 554:C:/Users/Yushev/git/optiga-trust-qi/projects/xmc4700_relax_kit/common/Libraries/XMCLib/src\xmc_usbd.c ****   }
 2461              	 .loc 1 554 0
 2462 00fa 864A     	 ldr r2,.L322+8
 2463              	.LVL239:
 2464 00fc C3F80421 	 str r2,[r3,#260]
 2465              	.LVL240:
 2466 0100 1032     	 adds r2,r2,#16
 2467 0102 C3F80821 	 str r2,[r3,#264]
 2468              	.LVL241:
 2469 0106 1032     	 adds r2,r2,#16
 2470 0108 C3F80C21 	 str r2,[r3,#268]
 2471              	.LVL242:
 2472 010c 1032     	 adds r2,r2,#16
 2473 010e C3F81021 	 str r2,[r3,#272]
 2474              	.LVL243:
 2475 0112 1032     	 adds r2,r2,#16
 2476 0114 C3F81421 	 str r2,[r3,#276]
 2477              	.LVL244:
 2478 0118 1032     	 adds r2,r2,#16
 2479 011a C3F81821 	 str r2,[r3,#280]
 2480              	.LVL245:
 558:C:/Users/Yushev/git/optiga-trust-qi/projects/xmc4700_relax_kit/common/Libraries/XMCLib/src\xmc_usbd.c ****   XMC_USBD_lFlushTXFifo(0x0U);
 2481              	 .loc 1 558 0
 2482 011e 1020     	 movs r0,#16
 2483 0120 FFF7FEFF 	 bl XMC_USBD_lFlushTXFifo
 2484              	.LVL246:
 559:C:/Users/Yushev/git/optiga-trust-qi/projects/xmc4700_relax_kit/common/Libraries/XMCLib/src\xmc_usbd.c ****   XMC_USBD_lFlushRXFifo();
 2485              	 .loc 1 559 0
 2486 0124 0020     	 movs r0,#0
 2487 0126 FFF7FEFF 	 bl XMC_USBD_lFlushTXFifo
 2488              	.LVL247:
 560:C:/Users/Yushev/git/optiga-trust-qi/projects/xmc4700_relax_kit/common/Libraries/XMCLib/src\xmc_usbd.c ****   /* Flush learning queue not needed due to fifo config */
 2489              	 .loc 1 560 0
 2490 012a FFF7FEFF 	 bl XMC_USBD_lFlushRXFifo
 2491              	.LVL248:
 566:C:/Users/Yushev/git/optiga-trust-qi/projects/xmc4700_relax_kit/common/Libraries/XMCLib/src\xmc_usbd.c **** 
 2492              	 .loc 1 566 0
 2493 012e D4F8A431 	 ldr r3,[r4,#420]
 2494 0132 4FF00112 	 mov r2,#65537
 2495              	.LVL249:
 2496 0136 DA61     	 str r2,[r3,#28]
 570:C:/Users/Yushev/git/optiga-trust-qi/projects/xmc4700_relax_kit/common/Libraries/XMCLib/src\xmc_usbd.c **** 		  	  	  	  	  	  (uint32_t)XMC_USBD_EVENT_OUT_EP_SETUP | (uint32_t)XMC_USBD_EVENT_OUT_EP_AHB_ERRO
 2497              	 .loc 1 570 0
 2498 0138 0F20     	 movs r0,#15
 2499 013a FFF7FEFF 	 bl XMC_USBD_EnableEventOUTEP
 2500              	.LVL250:
 574:C:/Users/Yushev/git/optiga-trust-qi/projects/xmc4700_relax_kit/common/Libraries/XMCLib/src\xmc_usbd.c **** 		  (uint32_t)XMC_USBD_EVENT_IN_EP_AHB_ERROR | (uint32_t)XMC_USBD_EVENT_IN_EP_TIMEOUT));
 2501              	 .loc 1 574 0
 2502 013e 0F20     	 movs r0,#15
 2503 0140 FFF7FEFF 	 bl XMC_USBD_EnableEventINEP
 2504              	.LVL251:
 579:C:/Users/Yushev/git/optiga-trust-qi/projects/xmc4700_relax_kit/common/Libraries/XMCLib/src\xmc_usbd.c ****   dcfg.b.devaddr = 0U;
 2505              	 .loc 1 579 0
 2506 0144 D4F8A421 	 ldr r2,[r4,#420]
 2507 0148 1368     	 ldr r3,[r2]
 564:C:/Users/Yushev/git/optiga-trust-qi/projects/xmc4700_relax_kit/common/Libraries/XMCLib/src\xmc_usbd.c ****   daint.b.outep0 = 1U;
 2508              	 .loc 1 564 0
 2509 014a 4FF00008 	 mov r8,#0
 2510              	.LVL252:
 580:C:/Users/Yushev/git/optiga-trust-qi/projects/xmc4700_relax_kit/common/Libraries/XMCLib/src\xmc_usbd.c ****   xmc_device.device_register->dcfg = dcfg.d32;
 2511              	 .loc 1 580 0
 2512 014e 68F30A13 	 bfi r3,r8,#4,#7
 2513              	.LVL253:
 581:C:/Users/Yushev/git/optiga-trust-qi/projects/xmc4700_relax_kit/common/Libraries/XMCLib/src\xmc_usbd.c **** 
 2514              	 .loc 1 581 0
 2515 0152 1360     	 str r3,[r2]
 583:C:/Users/Yushev/git/optiga-trust-qi/projects/xmc4700_relax_kit/common/Libraries/XMCLib/src\xmc_usbd.c ****   {
 2516              	 .loc 1 583 0
 2517 0154 737B     	 ldrb r3,[r6,#13]
 2518              	.LVL254:
 2519 0156 012B     	 cmp r3,#1
 586:C:/Users/Yushev/git/optiga-trust-qi/projects/xmc4700_relax_kit/common/Libraries/XMCLib/src\xmc_usbd.c ****   }
 2520              	 .loc 1 586 0
 2521 0158 08BF     	 it eq
 2522 015a C2F83480 	 streq r8,[r2,#52]
 589:C:/Users/Yushev/git/optiga-trust-qi/projects/xmc4700_relax_kit/common/Libraries/XMCLib/src\xmc_usbd.c ****   xmc_device.ep[0U].inInUse = 0U;
 2523              	 .loc 1 589 0
 2524 015e 6368     	 ldr r3,[r4,#4]
 2525 0160 23F01003 	 bic r3,r3,#16
 2526 0164 6360     	 str r3,[r4,#4]
 590:C:/Users/Yushev/git/optiga-trust-qi/projects/xmc4700_relax_kit/common/Libraries/XMCLib/src\xmc_usbd.c **** 
 2527              	 .loc 1 590 0
 2528 0166 6368     	 ldr r3,[r4,#4]
 2529 0168 23F00803 	 bic r3,r3,#8
 2530 016c 6360     	 str r3,[r4,#4]
 592:C:/Users/Yushev/git/optiga-trust-qi/projects/xmc4700_relax_kit/common/Libraries/XMCLib/src\xmc_usbd.c **** 
 2531              	 .loc 1 592 0
 2532 016e 0420     	 movs r0,#4
 2533 0170 D4F80032 	 ldr r3,[r4,#512]
 2534 0174 9847     	 blx r3
 2535              	.LVL255:
 595:C:/Users/Yushev/git/optiga-trust-qi/projects/xmc4700_relax_kit/common/Libraries/XMCLib/src\xmc_usbd.c **** }
 2536              	 .loc 1 595 0
 2537 0176 0420     	 movs r0,#4
 2538 0178 FFF7FEFF 	 bl XMC_USBD_ClearEvent
 2539              	.LVL256:
 2540              	.L228:
 2541              	.LBE67:
 2542              	.LBE66:
 915:C:/Users/Yushev/git/optiga-trust-qi/projects/xmc4700_relax_kit/common/Libraries/XMCLib/src\xmc_usbd.c ****   {
 2543              	 .loc 1 915 0
 2544 017c B906     	 lsls r1,r7,#26
 2545 017e 19D5     	 bpl .L231
 2546              	.LBB68:
 2547              	.LBB69:
 628:C:/Users/Yushev/git/optiga-trust-qi/projects/xmc4700_relax_kit/common/Libraries/XMCLib/src\xmc_usbd.c ****   epctl.b.mps = 0x00U; /* 64 Byte, this is also automatically set for out ep */
 2548              	 .loc 1 628 0
 2549 0180 D4F8A821 	 ldr r2,[r4,#424]
 2550 0184 1368     	 ldr r3,[r2]
 629:C:/Users/Yushev/git/optiga-trust-qi/projects/xmc4700_relax_kit/common/Libraries/XMCLib/src\xmc_usbd.c ****   xmc_device.endpoint_in_register[0U]->diepctl = epctl.d32;
 2551              	 .loc 1 629 0
 2552 0186 6FF30A03 	 bfc r3,#0,#11
 2553              	.LVL257:
 630:C:/Users/Yushev/git/optiga-trust-qi/projects/xmc4700_relax_kit/common/Libraries/XMCLib/src\xmc_usbd.c **** 
 2554              	 .loc 1 630 0
 2555 018a 1360     	 str r3,[r2]
 633:C:/Users/Yushev/git/optiga-trust-qi/projects/xmc4700_relax_kit/common/Libraries/XMCLib/src\xmc_usbd.c ****   xmc_device.IsPowered = 1U;
 2556              	 .loc 1 633 0
 2557 018c 94F8FE31 	 ldrb r3,[r4,#510]
 2558              	.LVL258:
 634:C:/Users/Yushev/git/optiga-trust-qi/projects/xmc4700_relax_kit/common/Libraries/XMCLib/src\xmc_usbd.c **** 
 2559              	 .loc 1 634 0
 2560 0190 43F00503 	 orr r3,r3,#5
 2561 0194 84F8FE31 	 strb r3,[r4,#510]
 636:C:/Users/Yushev/git/optiga-trust-qi/projects/xmc4700_relax_kit/common/Libraries/XMCLib/src\xmc_usbd.c **** 
 2562              	 .loc 1 636 0
 2563 0198 0220     	 movs r0,#2
 2564 019a D4F80032 	 ldr r3,[r4,#512]
 2565 019e 9847     	 blx r3
 2566              	.LVL259:
 639:C:/Users/Yushev/git/optiga-trust-qi/projects/xmc4700_relax_kit/common/Libraries/XMCLib/src\xmc_usbd.c ****   gusbcfg.b.usbtrdtim = 9U; /* default value for LS/FS */
 2567              	 .loc 1 639 0
 2568 01a0 D4F8A021 	 ldr r2,[r4,#416]
 2569 01a4 D368     	 ldr r3,[r2,#12]
 640:C:/Users/Yushev/git/optiga-trust-qi/projects/xmc4700_relax_kit/common/Libraries/XMCLib/src\xmc_usbd.c ****   xmc_device.global_register->gusbcfg = gusbcfg.d32;
 2570              	 .loc 1 640 0
 2571 01a6 0921     	 movs r1,#9
 2572 01a8 61F38D23 	 bfi r3,r1,#10,#4
 2573              	.LVL260:
 641:C:/Users/Yushev/git/optiga-trust-qi/projects/xmc4700_relax_kit/common/Libraries/XMCLib/src\xmc_usbd.c **** 
 2574              	 .loc 1 641 0
 2575 01ac D360     	 str r3,[r2,#12]
 644:C:/Users/Yushev/git/optiga-trust-qi/projects/xmc4700_relax_kit/common/Libraries/XMCLib/src\xmc_usbd.c **** }
 2576              	 .loc 1 644 0
 2577 01ae 0B20     	 movs r0,#11
 2578 01b0 FFF7FEFF 	 bl XMC_USBD_ClearEvent
 2579              	.LVL261:
 2580              	.L231:
 2581              	.LBE69:
 2582              	.LBE68:
 919:C:/Users/Yushev/git/optiga-trust-qi/projects/xmc4700_relax_kit/common/Libraries/XMCLib/src\xmc_usbd.c ****   {
 2583              	 .loc 1 919 0
 2584 01b4 C5F30747 	 ubfx r7,r5,#16,#8
 2585 01b8 7A07     	 lsls r2,r7,#29
 2586 01ba 40F1BB80 	 bpl .L232
 2587              	.LVL262:
 2588              	.LBB70:
 2589              	.LBB71:
 759:C:/Users/Yushev/git/optiga-trust-qi/projects/xmc4700_relax_kit/common/Libraries/XMCLib/src\xmc_usbd.c ****   
 2590              	 .loc 1 759 0
 2591 01be D4F8A431 	 ldr r3,[r4,#420]
 2592 01c2 9A69     	 ldr r2,[r3,#24]
 761:C:/Users/Yushev/git/optiga-trust-qi/projects/xmc4700_relax_kit/common/Libraries/XMCLib/src\xmc_usbd.c ****   
 2593              	 .loc 1 761 0
 2594 01c4 1B69     	 ldr r3,[r3,#16]
 2595 01c6 0193     	 str r3,[sp,#4]
 2596              	.LVL263:
 764:C:/Users/Yushev/git/optiga-trust-qi/projects/xmc4700_relax_kit/common/Libraries/XMCLib/src\xmc_usbd.c ****   ep_num = 0U;
 2597              	 .loc 1 764 0
 2598 01c8 4FF0000A 	 mov r10,#0
 2599 01cc 93B2     	 uxth r3,r2
 2600              	.LVL264:
 2601 01ce 0293     	 str r3,[sp,#8]
 2602              	.LVL265:
 763:C:/Users/Yushev/git/optiga-trust-qi/projects/xmc4700_relax_kit/common/Libraries/XMCLib/src\xmc_usbd.c ****   mask = daint.ep.in;
 2603              	 .loc 1 763 0
 2604 01d0 D046     	 mov r8,r10
 2605              	.LVL266:
 2606              	.L233:
 767:C:/Users/Yushev/git/optiga-trust-qi/projects/xmc4700_relax_kit/common/Libraries/XMCLib/src\xmc_usbd.c ****   {
 2607              	 .loc 1 767 0
 2608 01d2 029B     	 ldr r3,[sp,#8]
 2609 01d4 5FFA8AF4 	 uxtb r4,r10
 2610              	.LVL267:
 2611 01d8 2341     	 asrs r3,r3,r4
 2612 01da 00F0A880 	 beq .L320
 2613              	.LVL268:
 771:C:/Users/Yushev/git/optiga-trust-qi/projects/xmc4700_relax_kit/common/Libraries/XMCLib/src\xmc_usbd.c ****     {
 2614              	 .loc 1 771 0
 2615 01de DB07     	 lsls r3,r3,#31
 2616              	.LVL269:
 2617 01e0 40F1A280 	 bpl .L234
 2618              	.LVL270:
 774:C:/Users/Yushev/git/optiga-trust-qi/projects/xmc4700_relax_kit/common/Libraries/XMCLib/src\xmc_usbd.c ****       diepint.d32 = inepint &
 2619              	 .loc 1 774 0
 2620 01e4 494A     	 ldr r2,.L322
 2621 01e6 04F16A03 	 add r3,r4,#106
 776:C:/Users/Yushev/git/optiga-trust-qi/projects/xmc4700_relax_kit/common/Libraries/XMCLib/src\xmc_usbd.c ****                      0x1U) << 7U) | (uint32_t)diepmsk.d32);
 2622              	 .loc 1 776 0
 2623 01ea 4FF0340E 	 mov lr,#52
 2624 01ee 0EFB04FE 	 mul lr,lr,r4
 774:C:/Users/Yushev/git/optiga-trust-qi/projects/xmc4700_relax_kit/common/Libraries/XMCLib/src\xmc_usbd.c ****       diepint.d32 = inepint &
 2625              	 .loc 1 774 0
 2626 01f2 52F82300 	 ldr r0,[r2,r3,lsl#2]
 776:C:/Users/Yushev/git/optiga-trust-qi/projects/xmc4700_relax_kit/common/Libraries/XMCLib/src\xmc_usbd.c ****                      0x1U) << 7U) | (uint32_t)diepmsk.d32);
 2627              	 .loc 1 776 0
 2628 01f6 D2F8A431 	 ldr r3,[r2,#420]
 774:C:/Users/Yushev/git/optiga-trust-qi/projects/xmc4700_relax_kit/common/Libraries/XMCLib/src\xmc_usbd.c ****       diepint.d32 = inepint &
 2629              	 .loc 1 774 0
 2630 01fa D0F808C0 	 ldr ip,[r0,#8]
 2631              	.LVL271:
 776:C:/Users/Yushev/git/optiga-trust-qi/projects/xmc4700_relax_kit/common/Libraries/XMCLib/src\xmc_usbd.c ****                      0x1U) << 7U) | (uint32_t)diepmsk.d32);
 2632              	 .loc 1 776 0
 2633 01fe 5B6B     	 ldr r3,[r3,#52]
 2634 0200 02EB0E01 	 add r1,r2,lr
 2635              	.LVL272:
 2636 0204 12F80EE0 	 ldrb lr,[r2,lr]
 2637 0208 0EF00F09 	 and r9,lr,#15
 2638 020c 23FA09F3 	 lsr r3,r3,r9
 777:C:/Users/Yushev/git/optiga-trust-qi/projects/xmc4700_relax_kit/common/Libraries/XMCLib/src\xmc_usbd.c ****       if(obj->usbd_transfer_mode == XMC_USBD_USE_DMA)
 2639              	 .loc 1 777 0
 2640 0210 4FEAC319 	 lsl r9,r3,#7
 2641 0214 019B     	 ldr r3,[sp,#4]
 2642 0216 5FFA89F9 	 uxtb r9,r9
 2643 021a 49EA0309 	 orr r9,r9,r3
 778:C:/Users/Yushev/git/optiga-trust-qi/projects/xmc4700_relax_kit/common/Libraries/XMCLib/src\xmc_usbd.c ****       {
 2644              	 .loc 1 778 0
 2645 021e 737B     	 ldrb r3,[r6,#13]
 775:C:/Users/Yushev/git/optiga-trust-qi/projects/xmc4700_relax_kit/common/Libraries/XMCLib/src\xmc_usbd.c ****       ((((uint32_t)((uint32_t)xmc_device.device_register->dtknqr4_fifoemptymsk >> ep->address_u.add
 2646              	 .loc 1 775 0
 2647 0220 09EA0C09 	 and r9,r9,ip
 2648              	.LVL273:
 778:C:/Users/Yushev/git/optiga-trust-qi/projects/xmc4700_relax_kit/common/Libraries/XMCLib/src\xmc_usbd.c ****       {
 2649              	 .loc 1 778 0
 2650 0224 13B9     	 cbnz r3,.L235
 780:C:/Users/Yushev/git/optiga-trust-qi/projects/xmc4700_relax_kit/common/Libraries/XMCLib/src\xmc_usbd.c ****       }
 2651              	 .loc 1 780 0
 2652 0226 D0F81080 	 ldr r8,[r0,#16]
 2653              	.LVL274:
 2654 022a 3CE0     	 b .L236
 2655              	.L235:
 782:C:/Users/Yushev/git/optiga-trust-qi/projects/xmc4700_relax_kit/common/Libraries/XMCLib/src\xmc_usbd.c ****       {
 2656              	 .loc 1 782 0
 2657 022c 012B     	 cmp r3,#1
 2658 022e 3AD1     	 bne .L236
 2659              	.LVL275:
 784:C:/Users/Yushev/git/optiga-trust-qi/projects/xmc4700_relax_kit/common/Libraries/XMCLib/src\xmc_usbd.c ****         {
 2660              	 .loc 1 784 0
 2661 0230 19F0800F 	 tst r9,#128
 2662 0234 37D0     	 beq .L236
 2663              	.LVL276:
 2664              	.LBB72:
 2665              	.LBB73:
 2666              	.LBB74:
 266:C:/Users/Yushev/git/optiga-trust-qi/projects/xmc4700_relax_kit/common/Libraries/XMCLib/src\xmc_usbd.c ****   freeSpace.d32 = xmc_device.endpoint_in_register[ep->address_u.address_st.number]->dtxfsts;
 2667              	 .loc 1 266 0
 2668 0236 0EF00F0E 	 and lr,lr,#15
 2669 023a 0EF17800 	 add r0,lr,#120
 267:C:/Users/Yushev/git/optiga-trust-qi/projects/xmc4700_relax_kit/common/Libraries/XMCLib/src\xmc_usbd.c ****   /* calculate the length and the amount of dwords to copy based on the fifo status */
 2670              	 .loc 1 267 0
 2671 023e 0EF16A0E 	 add lr,lr,#106
 266:C:/Users/Yushev/git/optiga-trust-qi/projects/xmc4700_relax_kit/common/Libraries/XMCLib/src\xmc_usbd.c ****   freeSpace.d32 = xmc_device.endpoint_in_register[ep->address_u.address_st.number]->dtxfsts;
 2672              	 .loc 1 266 0
 2673 0242 52F82000 	 ldr r0,[r2,r0,lsl#2]
 2674 0246 0390     	 str r0,[sp,#12]
 2675              	.LVL277:
 269:C:/Users/Yushev/git/optiga-trust-qi/projects/xmc4700_relax_kit/common/Libraries/XMCLib/src\xmc_usbd.c ****   if (!byte_count)
 2676              	 .loc 1 269 0
 2677 0248 886A     	 ldr r0,[r1,#40]
 2678              	.LVL278:
 2679 024a C96A     	 ldr r1,[r1,#44]
 2680              	.LVL279:
 267:C:/Users/Yushev/git/optiga-trust-qi/projects/xmc4700_relax_kit/common/Libraries/XMCLib/src\xmc_usbd.c ****   /* calculate the length and the amount of dwords to copy based on the fifo status */
 2681              	 .loc 1 267 0
 2682 024c 52F82E20 	 ldr r2,[r2,lr,lsl#2]
 2683              	.LVL280:
 270:C:/Users/Yushev/git/optiga-trust-qi/projects/xmc4700_relax_kit/common/Libraries/XMCLib/src\xmc_usbd.c ****   {
 2684              	 .loc 1 270 0
 2685 0250 401A     	 subs r0,r0,r1
 2686              	.LVL281:
 267:C:/Users/Yushev/git/optiga-trust-qi/projects/xmc4700_relax_kit/common/Libraries/XMCLib/src\xmc_usbd.c ****   /* calculate the length and the amount of dwords to copy based on the fifo status */
 2687              	 .loc 1 267 0
 2688 0252 9269     	 ldr r2,[r2,#24]
 270:C:/Users/Yushev/git/optiga-trust-qi/projects/xmc4700_relax_kit/common/Libraries/XMCLib/src\xmc_usbd.c ****   {
 2689              	 .loc 1 270 0
 2690 0254 1DD0     	 beq .L237
 277:C:/Users/Yushev/git/optiga-trust-qi/projects/xmc4700_relax_kit/common/Libraries/XMCLib/src\xmc_usbd.c ****     if (word_count > (uint32_t)freeSpace.b.txfspcavail )
 2691              	 .loc 1 277 0
 2692 0256 00F1030C 	 add ip,r0,#3
 2693              	.LVL282:
 278:C:/Users/Yushev/git/optiga-trust-qi/projects/xmc4700_relax_kit/common/Libraries/XMCLib/src\xmc_usbd.c ****     {
 2694              	 .loc 1 278 0
 2695 025a 92B2     	 uxth r2,r2
 277:C:/Users/Yushev/git/optiga-trust-qi/projects/xmc4700_relax_kit/common/Libraries/XMCLib/src\xmc_usbd.c ****     if (word_count > (uint32_t)freeSpace.b.txfspcavail )
 2696              	 .loc 1 277 0
 2697 025c 4FEA9C0C 	 lsr ip,ip,#2
 2698              	.LVL283:
 278:C:/Users/Yushev/git/optiga-trust-qi/projects/xmc4700_relax_kit/common/Libraries/XMCLib/src\xmc_usbd.c ****     {
 2699              	 .loc 1 278 0
 2700 0260 9445     	 cmp ip,r2
 2701              	.LVL284:
 281:C:/Users/Yushev/git/optiga-trust-qi/projects/xmc4700_relax_kit/common/Libraries/XMCLib/src\xmc_usbd.c ****     }
 2702              	 .loc 1 281 0
 2703 0262 84BF     	 itt hi
 2704 0264 9000     	 lslhi r0,r2,#2
 2705              	.LVL285:
 2706 0266 9446     	 movhi ip,r2
 2707              	.LVL286:
 285:C:/Users/Yushev/git/optiga-trust-qi/projects/xmc4700_relax_kit/common/Libraries/XMCLib/src\xmc_usbd.c ****     {
 2708              	 .loc 1 285 0
 2709 0268 4FF0000B 	 mov fp,#0
 2710              	.LVL287:
 2711              	.L239:
 2712 026c E345     	 cmp fp,ip
 2713 026e 10D0     	 beq .L237
 287:C:/Users/Yushev/git/optiga-trust-qi/projects/xmc4700_relax_kit/common/Libraries/XMCLib/src\xmc_usbd.c ****       i++;
 2714              	 .loc 1 287 0
 2715 0270 2649     	 ldr r1,.L322
 2716 0272 3422     	 movs r2,#52
 2717 0274 02FB041E 	 mla lr,r2,r4,r1
 288:C:/Users/Yushev/git/optiga-trust-qi/projects/xmc4700_relax_kit/common/Libraries/XMCLib/src\xmc_usbd.c ****     }
 2718              	 .loc 1 288 0
 2719 0278 0BF1010B 	 add fp,fp,#1
 2720              	.LVL288:
 287:C:/Users/Yushev/git/optiga-trust-qi/projects/xmc4700_relax_kit/common/Libraries/XMCLib/src\xmc_usbd.c ****       i++;
 2721              	 .loc 1 287 0
 2722 027c DEF82410 	 ldr r1,[lr,#36]
 2723 0280 0A68     	 ldr r2,[r1]
 2724 0282 0399     	 ldr r1,[sp,#12]
 2725 0284 0A60     	 str r2,[r1]
 285:C:/Users/Yushev/git/optiga-trust-qi/projects/xmc4700_relax_kit/common/Libraries/XMCLib/src\xmc_usbd.c ****     {
 2726              	 .loc 1 285 0
 2727 0286 DEF82420 	 ldr r2,[lr,#36]
 2728 028a 0432     	 adds r2,r2,#4
 2729 028c CEF82420 	 str r2,[lr,#36]
 2730 0290 ECE7     	 b .L239
 2731              	.LVL289:
 2732              	.L237:
 2733              	.LBE74:
 2734              	.LBE73:
 788:C:/Users/Yushev/git/optiga-trust-qi/projects/xmc4700_relax_kit/common/Libraries/XMCLib/src\xmc_usbd.c ****           ep->xferBuffer += bytes;
 2735              	 .loc 1 788 0
 2736 0292 1E4A     	 ldr r2,.L322
 2737 0294 3421     	 movs r1,#52
 2738 0296 01FB0421 	 mla r1,r1,r4,r2
 2739 029a CA6A     	 ldr r2,[r1,#44]
 2740 029c 0244     	 add r2,r2,r0
 2741 029e CA62     	 str r2,[r1,#44]
 789:C:/Users/Yushev/git/optiga-trust-qi/projects/xmc4700_relax_kit/common/Libraries/XMCLib/src\xmc_usbd.c ****         }
 2742              	 .loc 1 789 0
 2743 02a0 4A6A     	 ldr r2,[r1,#36]
 2744 02a2 0244     	 add r2,r2,r0
 2745 02a4 4A62     	 str r2,[r1,#36]
 2746              	.LVL290:
 2747              	.L236:
 2748              	.LBE72:
 792:C:/Users/Yushev/git/optiga-trust-qi/projects/xmc4700_relax_kit/common/Libraries/XMCLib/src\xmc_usbd.c ****       {
 2749              	 .loc 1 792 0
 2750 02a6 19F0010F 	 tst r9,#1
 2751 02aa 37D0     	 beq .L241
 794:C:/Users/Yushev/git/optiga-trust-qi/projects/xmc4700_relax_kit/common/Libraries/XMCLib/src\xmc_usbd.c ****         {
 2752              	 .loc 1 794 0
 2753 02ac 83B9     	 cbnz r3,.L243
 797:C:/Users/Yushev/git/optiga-trust-qi/projects/xmc4700_relax_kit/common/Libraries/XMCLib/src\xmc_usbd.c ****           {
 2754              	 .loc 1 797 0
 2755 02ae 28F06042 	 bic r2,r8,#-536870912
 2756 02b2 6AB9     	 cbnz r2,.L243
 2757              	.LBB75:
 799:C:/Users/Yushev/git/optiga-trust-qi/projects/xmc4700_relax_kit/common/Libraries/XMCLib/src\xmc_usbd.c ****             ep->xferCount += Bytes;
 2758              	 .loc 1 799 0
 2759 02b4 154A     	 ldr r2,.L322
 2760 02b6 3421     	 movs r1,#52
 2761 02b8 01FB0421 	 mla r1,r1,r4,r2
 2762 02bc D1F828E0 	 ldr lr,[r1,#40]
 2763 02c0 CA6A     	 ldr r2,[r1,#44]
 801:C:/Users/Yushev/git/optiga-trust-qi/projects/xmc4700_relax_kit/common/Libraries/XMCLib/src\xmc_usbd.c ****           }
 2764              	 .loc 1 801 0
 2765 02c2 486A     	 ldr r0,[r1,#36]
 800:C:/Users/Yushev/git/optiga-trust-qi/projects/xmc4700_relax_kit/common/Libraries/XMCLib/src\xmc_usbd.c ****             ep->xferBuffer += Bytes;
 2766              	 .loc 1 800 0
 2767 02c4 C1F82CE0 	 str lr,[r1,#44]
 799:C:/Users/Yushev/git/optiga-trust-qi/projects/xmc4700_relax_kit/common/Libraries/XMCLib/src\xmc_usbd.c ****             ep->xferCount += Bytes;
 2768              	 .loc 1 799 0
 2769 02c8 C2EB0E02 	 rsb r2,r2,lr
 2770              	.LVL291:
 801:C:/Users/Yushev/git/optiga-trust-qi/projects/xmc4700_relax_kit/common/Libraries/XMCLib/src\xmc_usbd.c ****           }
 2771              	 .loc 1 801 0
 2772 02cc 0244     	 add r2,r2,r0
 2773              	.LVL292:
 2774 02ce 4A62     	 str r2,[r1,#36]
 2775              	.LVL293:
 2776              	.L243:
 2777              	.LBE75:
 804:C:/Users/Yushev/git/optiga-trust-qi/projects/xmc4700_relax_kit/common/Libraries/XMCLib/src\xmc_usbd.c ****         {
 2778              	 .loc 1 804 0
 2779 02d0 DFF838E0 	 ldr lr,.L322
 2780 02d4 3420     	 movs r0,#52
 2781 02d6 00FB04E0 	 mla r0,r0,r4,lr
 2782 02da 016B     	 ldr r1,[r0,#48]
 2783 02dc 826A     	 ldr r2,[r0,#40]
 2784 02de 9142     	 cmp r1,r2
 2785 02e0 1AD1     	 bne .L245
 806:C:/Users/Yushev/git/optiga-trust-qi/projects/xmc4700_relax_kit/common/Libraries/XMCLib/src\xmc_usbd.c ****           if(obj->usbd_transfer_mode == XMC_USBD_USE_FIFO)
 2786              	 .loc 1 806 0
 2787 02e2 4268     	 ldr r2,[r0,#4]
 2788 02e4 22F00802 	 bic r2,r2,#8
 807:C:/Users/Yushev/git/optiga-trust-qi/projects/xmc4700_relax_kit/common/Libraries/XMCLib/src\xmc_usbd.c ****           {
 2789              	 .loc 1 807 0
 2790 02e8 012B     	 cmp r3,#1
 806:C:/Users/Yushev/git/optiga-trust-qi/projects/xmc4700_relax_kit/common/Libraries/XMCLib/src\xmc_usbd.c ****           if(obj->usbd_transfer_mode == XMC_USBD_USE_FIFO)
 2791              	 .loc 1 806 0
 2792 02ea 4260     	 str r2,[r0,#4]
 811:C:/Users/Yushev/git/optiga-trust-qi/projects/xmc4700_relax_kit/common/Libraries/XMCLib/src\xmc_usbd.c ****           }
 2793              	 .loc 1 811 0
 2794 02ec 01BF     	 itttt eq
 2795 02ee DEF8A421 	 ldreq r2,[lr,#420]
 2796 02f2 516B     	 ldreq r1,[r2,#52]
 2797 02f4 A340     	 lsleq r3,r3,r4
 2798 02f6 21EA0303 	 biceq r3,r1,r3
 810:C:/Users/Yushev/git/optiga-trust-qi/projects/xmc4700_relax_kit/common/Libraries/XMCLib/src\xmc_usbd.c ****             (uint32_t)(xmc_device.device_register->dtknqr4_fifoemptymsk & ~(((uint32_t)1U << ep_num
 2799              	 .loc 1 810 0
 2800 02fa 08BF     	 it eq
 2801 02fc 5363     	 streq r3,[r2,#52]
 813:C:/Users/Yushev/git/optiga-trust-qi/projects/xmc4700_relax_kit/common/Libraries/XMCLib/src\xmc_usbd.c ****         }
 2802              	 .loc 1 813 0
 2803 02fe 44F08000 	 orr r0,r4,#128
 2804 0302 DEF80432 	 ldr r3,[lr,#516]
 2805 0306 0221     	 movs r1,#2
 2806 0308 9847     	 blx r3
 2807              	.LVL294:
 2808 030a 07E0     	 b .L241
 2809              	.L323:
 2810              	 .align 2
 2811              	.L322:
 2812 030c 00000000 	 .word xmc_device
 2813 0310 C0010000 	 .word xmc_device+448
 2814 0314 50001000 	 .word 1048656
 2815              	.L245:
 818:C:/Users/Yushev/git/optiga-trust-qi/projects/xmc4700_relax_kit/common/Libraries/XMCLib/src\xmc_usbd.c ****         }
 2816              	 .loc 1 818 0
 2817 0318 FFF7FEFF 	 bl XMC_USBD_lStartWriteXfer
 2818              	.LVL295:
 2819              	.L241:
 2820              	.LBB76:
 2821              	.LBB77:
1023:C:/Users/Yushev/git/optiga-trust-qi/projects/xmc4700_relax_kit/common/Libraries/XMCLib/src\xmc_usbd.c **** }
 2822              	 .loc 1 1023 0
 2823 031c 6A34     	 adds r4,r4,#106
 2824              	.LVL296:
 2825 031e 564B     	 ldr r3,.L324
 2826 0320 53F82430 	 ldr r3,[r3,r4,lsl#2]
 2827 0324 C3F80890 	 str r9,[r3,#8]
 2828              	.LVL297:
 2829              	.L234:
 2830 0328 0AF1010A 	 add r10,r10,#1
 2831              	.LVL298:
 2832 032c 51E7     	 b .L233
 2833              	.LVL299:
 2834              	.L320:
 2835              	.LBE77:
 2836              	.LBE76:
 827:C:/Users/Yushev/git/optiga-trust-qi/projects/xmc4700_relax_kit/common/Libraries/XMCLib/src\xmc_usbd.c **** }
 2837              	 .loc 1 827 0
 2838 032e 0E20     	 movs r0,#14
 2839 0330 FFF7FEFF 	 bl XMC_USBD_ClearEvent
 2840              	.LVL300:
 2841              	.L232:
 2842              	.LBE71:
 2843              	.LBE70:
 923:C:/Users/Yushev/git/optiga-trust-qi/projects/xmc4700_relax_kit/common/Libraries/XMCLib/src\xmc_usbd.c ****   {
 2844              	 .loc 1 923 0
 2845 0334 3807     	 lsls r0,r7,#28
 2846 0336 40F18780 	 bpl .L248
 2847              	.LVL301:
 2848              	.LBB78:
 2849              	.LBB79:
 667:C:/Users/Yushev/git/optiga-trust-qi/projects/xmc4700_relax_kit/common/Libraries/XMCLib/src\xmc_usbd.c ****   
 2850              	 .loc 1 667 0
 2851 033a 4F4A     	 ldr r2,.L324
 2852 033c D2F8A411 	 ldr r1,[r2,#420]
 2853 0340 8B69     	 ldr r3,[r1,#24]
 669:C:/Users/Yushev/git/optiga-trust-qi/projects/xmc4700_relax_kit/common/Libraries/XMCLib/src\xmc_usbd.c ****   
 2854              	 .loc 1 669 0
 2855 0342 CF69     	 ldr r7,[r1,#28]
 671:C:/Users/Yushev/git/optiga-trust-qi/projects/xmc4700_relax_kit/common/Libraries/XMCLib/src\xmc_usbd.c ****   
 2856              	 .loc 1 671 0
 2857 0344 4969     	 ldr r1,[r1,#20]
 2858 0346 0191     	 str r1,[sp,#4]
 2859              	.LVL302:
 673:C:/Users/Yushev/git/optiga-trust-qi/projects/xmc4700_relax_kit/common/Libraries/XMCLib/src\xmc_usbd.c ****   ep_num = 0U;
 2860              	 .loc 1 673 0
 2861 0348 C3F30F43 	 ubfx r3,r3,#16,#16
 675:C:/Users/Yushev/git/optiga-trust-qi/projects/xmc4700_relax_kit/common/Libraries/XMCLib/src\xmc_usbd.c ****  
 2862              	 .loc 1 675 0
 2863 034c 4FF00008 	 mov r8,#0
 2864              	.LVL303:
 673:C:/Users/Yushev/git/optiga-trust-qi/projects/xmc4700_relax_kit/common/Libraries/XMCLib/src\xmc_usbd.c ****   ep_num = 0U;
 2865              	 .loc 1 673 0
 2866 0350 03EA1747 	 and r7,r3,r7,lsr#16
 2867              	.LVL304:
 675:C:/Users/Yushev/git/optiga-trust-qi/projects/xmc4700_relax_kit/common/Libraries/XMCLib/src\xmc_usbd.c ****  
 2868              	 .loc 1 675 0
 2869 0354 C246     	 mov r10,r8
 2870 0356 9346     	 mov fp,r2
 2871              	.LVL305:
 2872              	.L249:
 2873 0358 5FFA8AF4 	 uxtb r4,r10
 2874              	.LVL306:
 677:C:/Users/Yushev/git/optiga-trust-qi/projects/xmc4700_relax_kit/common/Libraries/XMCLib/src\xmc_usbd.c ****   {
 2875              	 .loc 1 677 0
 2876 035c 57FA04F3 	 asrs r3,r7,r4
 2877 0360 6FD0     	 beq .L321
 2878              	.LVL307:
 681:C:/Users/Yushev/git/optiga-trust-qi/projects/xmc4700_relax_kit/common/Libraries/XMCLib/src\xmc_usbd.c ****     {
 2879              	 .loc 1 681 0
 2880 0362 D907     	 lsls r1,r3,#31
 2881 0364 6AD5     	 bpl .L250
 2882              	.LVL308:
 685:C:/Users/Yushev/git/optiga-trust-qi/projects/xmc4700_relax_kit/common/Libraries/XMCLib/src\xmc_usbd.c ****       if(obj->usbd_transfer_mode == XMC_USBD_USE_DMA)
 2883              	 .loc 1 685 0
 2884 0366 0BEB8403 	 add r3,fp,r4,lsl#2
 2885              	.LVL309:
 2886 036a 019A     	 ldr r2,[sp,#4]
 2887 036c D3F8C411 	 ldr r1,[r3,#452]
 2888 0370 8B68     	 ldr r3,[r1,#8]
 2889 0372 03EA0209 	 and r9,r3,r2
 2890              	.LVL310:
 686:C:/Users/Yushev/git/optiga-trust-qi/projects/xmc4700_relax_kit/common/Libraries/XMCLib/src\xmc_usbd.c ****       {
 2891              	 .loc 1 686 0
 2892 0376 737B     	 ldrb r3,[r6,#13]
 2893 0378 0BB9     	 cbnz r3,.L251
 688:C:/Users/Yushev/git/optiga-trust-qi/projects/xmc4700_relax_kit/common/Libraries/XMCLib/src\xmc_usbd.c ****       }
 2894              	 .loc 1 688 0
 2895 037a D1F81080 	 ldr r8,[r1,#16]
 2896              	.L251:
 2897              	.LVL311:
 691:C:/Users/Yushev/git/optiga-trust-qi/projects/xmc4700_relax_kit/common/Libraries/XMCLib/src\xmc_usbd.c ****       {
 2898              	 .loc 1 691 0
 2899 037e 5FFA89FC 	 uxtb ip,r9
 2900 0382 1CF0080F 	 tst ip,#8
 2901 0386 29D0     	 beq .L252
 694:C:/Users/Yushev/git/optiga-trust-qi/projects/xmc4700_relax_kit/common/Libraries/XMCLib/src\xmc_usbd.c ****         if(obj->usbd_transfer_mode == XMC_USBD_USE_DMA)
 2902              	 .loc 1 694 0
 2903 0388 3420     	 movs r0,#52
 2904 038a 00FB04B0 	 mla r0,r0,r4,fp
 2905 038e 0179     	 ldrb r1,[r0,#4]
 2906 0390 6FF34511 	 bfc r1,#5,#1
 2907 0394 0171     	 strb r1,[r0,#4]
 695:C:/Users/Yushev/git/optiga-trust-qi/projects/xmc4700_relax_kit/common/Libraries/XMCLib/src\xmc_usbd.c ****         {
 2908              	 .loc 1 695 0
 2909 0396 2BB9     	 cbnz r3,.L253
 699:C:/Users/Yushev/git/optiga-trust-qi/projects/xmc4700_relax_kit/common/Libraries/XMCLib/src\xmc_usbd.c ****         }
 2910              	 .loc 1 699 0
 2911 0398 C8F34173 	 ubfx r3,r8,#29,#2
 698:C:/Users/Yushev/git/optiga-trust-qi/projects/xmc4700_relax_kit/common/Libraries/XMCLib/src\xmc_usbd.c **** 		  (uint32_t)((deptsiz0_data_t*)&doeptsiz)->b.supcnt)*(uint32_t)XMC_USBD_SETUP_SIZE);
 2912              	 .loc 1 698 0
 2913 039c DB00     	 lsls r3,r3,#3
 2914 039e C3F11803 	 rsb r3,r3,#24
 2915 03a2 04E0     	 b .L319
 2916              	.L253:
 701:C:/Users/Yushev/git/optiga-trust-qi/projects/xmc4700_relax_kit/common/Libraries/XMCLib/src\xmc_usbd.c **** 		{
 2917              	 .loc 1 701 0
 2918 03a4 012B     	 cmp r3,#1
 2919 03a6 03D1     	 bne .L254
 703:C:/Users/Yushev/git/optiga-trust-qi/projects/xmc4700_relax_kit/common/Libraries/XMCLib/src\xmc_usbd.c **** 		}
 2920              	 .loc 1 703 0
 2921 03a8 C16A     	 ldr r1,[r0,#44]
 2922 03aa 0369     	 ldr r3,[r0,#16]
 2923 03ac 0B44     	 add r3,r3,r1
 2924              	.L319:
 2925 03ae 0361     	 str r3,[r0,#16]
 2926              	.L254:
 705:C:/Users/Yushev/git/optiga-trust-qi/projects/xmc4700_relax_kit/common/Libraries/XMCLib/src\xmc_usbd.c **** 		xmc_device.EndpointEvent_cb(0U,XMC_USBD_EP_EVENT_SETUP); /* signal endpoint event */
 2927              	 .loc 1 705 0
 2928 03b0 3423     	 movs r3,#52
 2929 03b2 03FB04B3 	 mla r3,r3,r4,fp
 2930 03b6 CDF808C0 	 str ip,[sp,#8]
 2931 03ba 5968     	 ldr r1,[r3,#4]
 2932 03bc 21F01001 	 bic r1,r1,#16
 2933 03c0 5960     	 str r1,[r3,#4]
 706:C:/Users/Yushev/git/optiga-trust-qi/projects/xmc4700_relax_kit/common/Libraries/XMCLib/src\xmc_usbd.c **** 				/* clear the interrupt */
 2934              	 .loc 1 706 0
 2935 03c2 0020     	 movs r0,#0
 2936 03c4 DBF80432 	 ldr r3,[fp,#516]
 2937 03c8 0146     	 mov r1,r0
 2938 03ca 9847     	 blx r3
 2939              	.LVL312:
 2940              	.LBB80:
 2941              	.LBB81:
1033:C:/Users/Yushev/git/optiga-trust-qi/projects/xmc4700_relax_kit/common/Libraries/XMCLib/src\xmc_usbd.c **** }
 2942              	 .loc 1 1033 0
 2943 03cc 0BEB8403 	 add r3,fp,r4,lsl#2
 2944 03d0 0821     	 movs r1,#8
 2945 03d2 D3F8C431 	 ldr r3,[r3,#452]
 2946 03d6 DDF808C0 	 ldr ip,[sp,#8]
 2947 03da 9960     	 str r1,[r3,#8]
 2948              	.LVL313:
 2949              	.L252:
 2950              	.LBE81:
 2951              	.LBE80:
 710:C:/Users/Yushev/git/optiga-trust-qi/projects/xmc4700_relax_kit/common/Libraries/XMCLib/src\xmc_usbd.c ****       {
 2952              	 .loc 1 710 0
 2953 03dc 1CF0010F 	 tst ip,#1
 2954 03e0 26D0     	 beq .L255
 712:C:/Users/Yushev/git/optiga-trust-qi/projects/xmc4700_relax_kit/common/Libraries/XMCLib/src\xmc_usbd.c ****         {
 2955              	 .loc 1 712 0
 2956 03e2 737B     	 ldrb r3,[r6,#13]
 2957 03e4 73B9     	 cbnz r3,.L256
 2958              	.LBB82:
 714:C:/Users/Yushev/git/optiga-trust-qi/projects/xmc4700_relax_kit/common/Libraries/XMCLib/src\xmc_usbd.c ****           ep->xferCount += bytes;
 2959              	 .loc 1 714 0
 2960 03e6 3423     	 movs r3,#52
 2961 03e8 03FB04B3 	 mla r3,r3,r4,fp
 2962 03ec C8F3120C 	 ubfx ip,r8,#0,#19
 2963 03f0 D96A     	 ldr r1,[r3,#44]
 2964 03f2 986A     	 ldr r0,[r3,#40]
 2965 03f4 401A     	 subs r0,r0,r1
 2966 03f6 CCEB0000 	 rsb r0,ip,r0
 2967              	.LVL314:
 715:C:/Users/Yushev/git/optiga-trust-qi/projects/xmc4700_relax_kit/common/Libraries/XMCLib/src\xmc_usbd.c ****           ep->xferBuffer += bytes;
 2968              	 .loc 1 715 0
 2969 03fa 0144     	 add r1,r1,r0
 2970 03fc D962     	 str r1,[r3,#44]
 716:C:/Users/Yushev/git/optiga-trust-qi/projects/xmc4700_relax_kit/common/Libraries/XMCLib/src\xmc_usbd.c **** 				}
 2971              	 .loc 1 716 0
 2972 03fe 596A     	 ldr r1,[r3,#36]
 2973 0400 0144     	 add r1,r1,r0
 2974 0402 5962     	 str r1,[r3,#36]
 2975              	.LVL315:
 2976              	.L256:
 2977              	.LBE82:
 718:C:/Users/Yushev/git/optiga-trust-qi/projects/xmc4700_relax_kit/common/Libraries/XMCLib/src\xmc_usbd.c ****         {
 2978              	 .loc 1 718 0
 2979 0404 3420     	 movs r0,#52
 2980 0406 00FB04B0 	 mla r0,r0,r4,fp
 2981 040a 016B     	 ldr r1,[r0,#48]
 2982 040c 836A     	 ldr r3,[r0,#40]
 2983 040e 9942     	 cmp r1,r3
 2984 0410 0CD1     	 bne .L257
 720:C:/Users/Yushev/git/optiga-trust-qi/projects/xmc4700_relax_kit/common/Libraries/XMCLib/src\xmc_usbd.c ****           ep->outInUse = 0U;
 2985              	 .loc 1 720 0
 2986 0412 C36A     	 ldr r3,[r0,#44]
 2987 0414 0361     	 str r3,[r0,#16]
 721:C:/Users/Yushev/git/optiga-trust-qi/projects/xmc4700_relax_kit/common/Libraries/XMCLib/src\xmc_usbd.c ****           xmc_device.EndpointEvent_cb(ep_num,XMC_USBD_EP_EVENT_OUT);
 2988              	 .loc 1 721 0
 2989 0416 4368     	 ldr r3,[r0,#4]
 2990 0418 23F01003 	 bic r3,r3,#16
 2991 041c 4360     	 str r3,[r0,#4]
 722:C:/Users/Yushev/git/optiga-trust-qi/projects/xmc4700_relax_kit/common/Libraries/XMCLib/src\xmc_usbd.c ****         }
 2992              	 .loc 1 722 0
 2993 041e 164B     	 ldr r3,.L324
 2994 0420 2046     	 mov r0,r4
 2995 0422 D3F80432 	 ldr r3,[r3,#516]
 2996 0426 0121     	 movs r1,#1
 2997 0428 9847     	 blx r3
 2998              	.LVL316:
 2999 042a 01E0     	 b .L255
 3000              	.L257:
 726:C:/Users/Yushev/git/optiga-trust-qi/projects/xmc4700_relax_kit/common/Libraries/XMCLib/src\xmc_usbd.c ****         }
 3001              	 .loc 1 726 0
 3002 042c FFF7FEFF 	 bl XMC_USBD_lStartReadXfer
 3003              	.LVL317:
 3004              	.L255:
 3005              	.LBB83:
 3006              	.LBB84:
1033:C:/Users/Yushev/git/optiga-trust-qi/projects/xmc4700_relax_kit/common/Libraries/XMCLib/src\xmc_usbd.c **** }
 3007              	 .loc 1 1033 0
 3008 0430 0BEB8404 	 add r4,fp,r4,lsl#2
 3009              	.LVL318:
 3010 0434 D4F8C431 	 ldr r3,[r4,#452]
 3011 0438 C3F80890 	 str r9,[r3,#8]
 3012              	.LVL319:
 3013              	.L250:
 3014 043c 0AF1010A 	 add r10,r10,#1
 3015              	.LVL320:
 3016 0440 8AE7     	 b .L249
 3017              	.LVL321:
 3018              	.L321:
 3019              	.LBE84:
 3020              	.LBE83:
 737:C:/Users/Yushev/git/optiga-trust-qi/projects/xmc4700_relax_kit/common/Libraries/XMCLib/src\xmc_usbd.c **** }
 3021              	 .loc 1 737 0
 3022 0442 0D20     	 movs r0,#13
 3023 0444 FFF7FEFF 	 bl XMC_USBD_ClearEvent
 3024              	.LVL322:
 3025              	.L248:
 3026              	.LBE79:
 3027              	.LBE78:
 927:C:/Users/Yushev/git/optiga-trust-qi/projects/xmc4700_relax_kit/common/Libraries/XMCLib/src\xmc_usbd.c ****   {
 3028              	 .loc 1 927 0
 3029 0448 6A07     	 lsls r2,r5,#29
 3030 044a 12D5     	 bpl .L218
 3031              	.LBB85:
 3032              	.LBB86:
 606:C:/Users/Yushev/git/optiga-trust-qi/projects/xmc4700_relax_kit/common/Libraries/XMCLib/src\xmc_usbd.c ****   if (data.b.sesenddet)
 3033              	 .loc 1 606 0
 3034 044c 0A4C     	 ldr r4,.L324
 3035 044e D4F8A031 	 ldr r3,[r4,#416]
 3036 0452 5D68     	 ldr r5,[r3,#4]
 3037              	.LVL323:
 607:C:/Users/Yushev/git/optiga-trust-qi/projects/xmc4700_relax_kit/common/Libraries/XMCLib/src\xmc_usbd.c ****   {
 3038              	 .loc 1 607 0
 3039 0454 6B07     	 lsls r3,r5,#29
 3040 0456 09D5     	 bpl .L260
 609:C:/Users/Yushev/git/optiga-trust-qi/projects/xmc4700_relax_kit/common/Libraries/XMCLib/src\xmc_usbd.c **** 		xmc_device.DeviceEvent_cb(XMC_USBD_EVENT_POWER_OFF);
 3041              	 .loc 1 609 0
 3042 0458 94F8FE31 	 ldrb r3,[r4,#510]
 3043 045c 6FF38203 	 bfc r3,#2,#1
 3044 0460 84F8FE31 	 strb r3,[r4,#510]
 610:C:/Users/Yushev/git/optiga-trust-qi/projects/xmc4700_relax_kit/common/Libraries/XMCLib/src\xmc_usbd.c ****   }
 3045              	 .loc 1 610 0
 3046 0464 0120     	 movs r0,#1
 3047 0466 D4F80032 	 ldr r3,[r4,#512]
 3048 046a 9847     	 blx r3
 3049              	.LVL324:
 3050              	.L260:
 3051              	.LBB87:
 3052              	.LBB88:
1013:C:/Users/Yushev/git/optiga-trust-qi/projects/xmc4700_relax_kit/common/Libraries/XMCLib/src\xmc_usbd.c **** }
 3053              	 .loc 1 1013 0
 3054 046c D4F8A031 	 ldr r3,[r4,#416]
 3055 0470 5D60     	 str r5,[r3,#4]
 3056              	.LVL325:
 3057              	.L218:
 3058              	.LBE88:
 3059              	.LBE87:
 3060              	.LBE86:
 3061              	.LBE85:
 932:C:/Users/Yushev/git/optiga-trust-qi/projects/xmc4700_relax_kit/common/Libraries/XMCLib/src\xmc_usbd.c **** 
 3062              	 .loc 1 932 0
 3063 0472 05B0     	 add sp,sp,#20
 3064              	.LCFI23:
 3065              	 .cfi_def_cfa_offset 36
 3066              	 
 3067 0474 BDE8F08F 	 pop {r4,r5,r6,r7,r8,r9,r10,fp,pc}
 3068              	.LVL326:
 3069              	.L325:
 3070              	 .align 2
 3071              	.L324:
 3072 0478 00000000 	 .word xmc_device
 3073              	 .cfi_endproc
 3074              	.LFE184:
 3076              	 .global Driver_USBD0
 3077              	 .comm usbd_init,4,4
 3078              	 .comm xmc_device,520,4
 3079              	 .global XMC_USBD_EP_IN_BUFFERSIZE
 3080              	 .global XMC_USBD_EP_OUT_BUFFERSIZE
 3081              	 .section .rodata.Driver_USBD0,"a",%progbits
 3082              	 .align 2
 3085              	Driver_USBD0:
 3086 0000 00000000 	 .word XMC_USBD_GetCapabilities
 3087 0004 00000000 	 .word XMC_USBD_Init
 3088 0008 00000000 	 .word XMC_USBD_Uninitialize
 3089 000c 00000000 	 .word XMC_USBD_DeviceConnect
 3090 0010 00000000 	 .word XMC_USBD_DeviceDisconnect
 3091 0014 00000000 	 .word XMC_USBD_DeviceGetState
 3092 0018 00000000 	 .word XMC_USBD_DeviceSetAddress
 3093 001c 00000000 	 .word XMC_USBD_EndpointConfigure
 3094 0020 00000000 	 .word XMC_USBD_EndpointUnconfigure
 3095 0024 00000000 	 .word XMC_USBD_EndpointStall
 3096 0028 00000000 	 .word XMC_USBD_EndpointReadStart
 3097 002c 00000000 	 .word XMC_USBD_EndpointRead
 3098 0030 00000000 	 .word XMC_USBD_EndpointWrite
 3099 0034 00000000 	 .word XMC_USBD_EndpointAbort
 3100 0038 00000000 	 .word XMC_USBD_GetFrameNumber
 3101 003c 00000000 	 .word XMC_USBD_IsEnumDone
 3102              	 .section USB_RAM,"aw",%progbits
 3103              	 .align 2
 3104              	 .set .LANCHOR0,.+0
 3107              	XMC_USBD_EP_IN_BUFFER:
 3108 0000 00000000 	 .space 1792
 3108      00000000 
 3108      00000000 
 3108      00000000 
 3108      00000000 
 3111              	XMC_USBD_EP_OUT_BUFFER:
 3112 0700 00000000 	 .space 1792
 3112      00000000 
 3112      00000000 
 3112      00000000 
 3112      00000000 
 3113              	 .section .bss.XMC_USBD_EP_OUT_BUFFERSIZE,"aw",%nobits
 3114              	 .align 2
 3115              	 .set .LANCHOR2,.+0
 3118              	XMC_USBD_EP_OUT_BUFFERSIZE:
 3119 0000 00000000 	 .space 28
 3119      00000000 
 3119      00000000 
 3119      00000000 
 3119      00000000 
 3120              	 .section .bss.XMC_USBD_EP_IN_BUFFERSIZE,"aw",%nobits
 3121              	 .align 2
 3122              	 .set .LANCHOR1,.+0
 3125              	XMC_USBD_EP_IN_BUFFERSIZE:
 3126 0000 00000000 	 .space 28
 3126      00000000 
 3126      00000000 
 3126      00000000 
 3126      00000000 
 3127              	 .text
 3128              	.Letext0:
 3129              	 .file 2 "c:\\users\\yushev\\dave_4-4-2_32bit_2018-02-23\\dave-ide-4.4.2-32bit\\eclipse\\arm-gcc-49\\arm-none-eabi\\include\\machine\\_default_types.h"
 3130              	 .file 3 "c:\\users\\yushev\\dave_4-4-2_32bit_2018-02-23\\dave-ide-4.4.2-32bit\\eclipse\\arm-gcc-49\\arm-none-eabi\\include\\stdint.h"
 3131              	 .file 4 "C:/Users/Yushev/git/optiga-trust-qi/projects/xmc4700_relax_kit/common/Libraries/CMSIS/Infineon/XMC4700_series/Include/XMC4700.h"
 3132              	 .file 5 "C:/Users/Yushev/git/optiga-trust-qi/projects/xmc4700_relax_kit/common/Libraries/XMCLib/inc/xmc_usbd_regs.h"
 3133              	 .file 6 "C:/Users/Yushev/git/optiga-trust-qi/projects/xmc4700_relax_kit/common/Libraries/XMCLib/inc/xmc4_scu.h"
 3134              	 .file 7 "C:/Users/Yushev/git/optiga-trust-qi/projects/xmc4700_relax_kit/common/Libraries/XMCLib/inc/xmc_usbd.h"
 3135              	 .file 8 "C:/Users/Yushev/git/optiga-trust-qi/projects/xmc4700_relax_kit/common/Libraries/CMSIS/Include/core_cm4.h"
 3136              	 .file 9 "C:/Users/Yushev/git/optiga-trust-qi/projects/xmc4700_relax_kit/common/Libraries/CMSIS/Infineon/XMC4700_series/Include/system_XMC4700.h"
 3137              	 .file 10 "C:/Users/Yushev/git/optiga-trust-qi/projects/xmc4700_relax_kit/common/Libraries/XMCLib/inc/xmc_scu.h"
DEFINED SYMBOLS
                            *ABS*:00000000 xmc_usbd.c
    {standard input}:20     .text.XMC_USBD_lReadFifo:00000000 $t
    {standard input}:24     .text.XMC_USBD_lReadFifo:00000000 XMC_USBD_lReadFifo
    {standard input}:134    .text.XMC_USBD_lReadFifo:00000080 $d
                            *COM*:00000208 xmc_device
    {standard input}:139    .text.XMC_USBD_lFlushTXFifo:00000000 $t
    {standard input}:143    .text.XMC_USBD_lFlushTXFifo:00000000 XMC_USBD_lFlushTXFifo
    {standard input}:193    .text.XMC_USBD_lFlushTXFifo:00000038 $d
    {standard input}:198    .text.XMC_USBD_lFlushRXFifo:00000000 $t
    {standard input}:202    .text.XMC_USBD_lFlushRXFifo:00000000 XMC_USBD_lFlushRXFifo
    {standard input}:242    .text.XMC_USBD_lFlushRXFifo:00000028 $d
    {standard input}:247    .text.XMC_USBD_lStartReadXfer:00000000 $t
    {standard input}:251    .text.XMC_USBD_lStartReadXfer:00000000 XMC_USBD_lStartReadXfer
    {standard input}:362    .text.XMC_USBD_lStartReadXfer:00000090 $d
                            *COM*:00000004 usbd_init
    {standard input}:368    .text.XMC_USBD_lStartWriteXfer:00000000 $t
    {standard input}:372    .text.XMC_USBD_lStartWriteXfer:00000000 XMC_USBD_lStartWriteXfer
    {standard input}:501    .text.XMC_USBD_lStartWriteXfer:000000b8 $d
    {standard input}:507    .text.XMC_USBD_GetCapabilities:00000000 $t
    {standard input}:512    .text.XMC_USBD_GetCapabilities:00000000 XMC_USBD_GetCapabilities
    {standard input}:534    .text.XMC_USBD_DeviceConnect:00000000 $t
    {standard input}:539    .text.XMC_USBD_DeviceConnect:00000000 XMC_USBD_DeviceConnect
    {standard input}:561    .text.XMC_USBD_DeviceConnect:00000014 $d
    {standard input}:566    .text.XMC_USBD_DeviceDisconnect:00000000 $t
    {standard input}:571    .text.XMC_USBD_DeviceDisconnect:00000000 XMC_USBD_DeviceDisconnect
    {standard input}:593    .text.XMC_USBD_DeviceDisconnect:00000014 $d
    {standard input}:598    .text.XMC_USBD_EndpointReadStart:00000000 $t
    {standard input}:603    .text.XMC_USBD_EndpointReadStart:00000000 XMC_USBD_EndpointReadStart
    {standard input}:667    .text.XMC_USBD_EndpointReadStart:0000003c $d
    {standard input}:672    .text.XMC_USBD_DeviceSetAddress:00000000 $t
    {standard input}:677    .text.XMC_USBD_DeviceSetAddress:00000000 XMC_USBD_DeviceSetAddress
    {standard input}:704    .text.XMC_USBD_DeviceSetAddress:00000014 $d
    {standard input}:709    .text.XMC_USBD_EndpointStall:00000000 $t
    {standard input}:714    .text.XMC_USBD_EndpointStall:00000000 XMC_USBD_EndpointStall
    {standard input}:812    .text.XMC_USBD_EndpointStall:00000078 $d
    {standard input}:817    .text.XMC_USBD_EndpointAbort:00000000 $t
    {standard input}:822    .text.XMC_USBD_EndpointAbort:00000000 XMC_USBD_EndpointAbort
    {standard input}:884    .text.XMC_USBD_EndpointAbort:0000004c $d
    {standard input}:889    .text.XMC_USBD_EndpointUnconfigure:00000000 $t
    {standard input}:894    .text.XMC_USBD_EndpointUnconfigure:00000000 XMC_USBD_EndpointUnconfigure
    {standard input}:1047   .text.XMC_USBD_EndpointUnconfigure:000000e8 $d
    {standard input}:1053   .text.XMC_USBD_GetFrameNumber:00000000 $t
    {standard input}:1058   .text.XMC_USBD_GetFrameNumber:00000000 XMC_USBD_GetFrameNumber
    {standard input}:1077   .text.XMC_USBD_GetFrameNumber:00000010 $d
    {standard input}:1082   .text.XMC_USBD_IsEnumDone:00000000 $t
    {standard input}:1087   .text.XMC_USBD_IsEnumDone:00000000 XMC_USBD_IsEnumDone
    {standard input}:1106   .text.XMC_USBD_IsEnumDone:00000014 $d
    {standard input}:1111   .text.XMC_USBD_Uninitialize:00000000 $t
    {standard input}:1116   .text.XMC_USBD_Uninitialize:00000000 XMC_USBD_Uninitialize
    {standard input}:1149   .text.XMC_USBD_Uninitialize:00000020 $d
    {standard input}:1154   .text.XMC_USBD_EndpointConfigure:00000000 $t
    {standard input}:1159   .text.XMC_USBD_EndpointConfigure:00000000 XMC_USBD_EndpointConfigure
    {standard input}:1482   .text.XMC_USBD_EndpointConfigure:000001b4 $d
    {standard input}:1490   .text.XMC_USBD_EndpointRead:00000000 $t
    {standard input}:1495   .text.XMC_USBD_EndpointRead:00000000 XMC_USBD_EndpointRead
    {standard input}:1550   .text.XMC_USBD_EndpointRead:00000034 $d
    {standard input}:1555   .text.XMC_USBD_EndpointWrite:00000000 $t
    {standard input}:1560   .text.XMC_USBD_EndpointWrite:00000000 XMC_USBD_EndpointWrite
    {standard input}:1645   .text.XMC_USBD_EndpointWrite:00000050 $d
    {standard input}:1650   .text.XMC_USBD_lDeviceActive:00000000 $t
    {standard input}:1655   .text.XMC_USBD_lDeviceActive:00000000 XMC_USBD_lDeviceActive
    {standard input}:1709   .text.XMC_USBD_lDeviceActive:00000030 $d
    {standard input}:1714   .text.XMC_USBD_DeviceGetState:00000000 $t
    {standard input}:1719   .text.XMC_USBD_DeviceGetState:00000000 XMC_USBD_DeviceGetState
    {standard input}:1764   .text.XMC_USBD_DeviceGetState:00000030 $d
    {standard input}:1769   .text.XMC_USBD_Enable:00000000 $t
    {standard input}:1774   .text.XMC_USBD_Enable:00000000 XMC_USBD_Enable
    {standard input}:1806   .text.XMC_USBD_Enable:00000018 $d
    {standard input}:1811   .text.XMC_USBD_Init:00000000 $t
    {standard input}:1816   .text.XMC_USBD_Init:00000000 XMC_USBD_Init
    {standard input}:2005   .text.XMC_USBD_Init:000000f0 $d
    {standard input}:2017   .text.XMC_USBD_Disable:00000000 $t
    {standard input}:2022   .text.XMC_USBD_Disable:00000000 XMC_USBD_Disable
    {standard input}:2054   .text.XMC_USBD_Disable:00000018 $d
    {standard input}:2059   .text.XMC_USBD_ClearEvent:00000000 $t
    {standard input}:2064   .text.XMC_USBD_ClearEvent:00000000 XMC_USBD_ClearEvent
    {standard input}:2080   .text.XMC_USBD_ClearEvent:0000000a $d
    {standard input}:2094   .text.XMC_USBD_ClearEvent:00000018 $t
    {standard input}:2143   .text.XMC_USBD_ClearEvent:00000050 $d
    {standard input}:2148   .text.XMC_USBD_ClearEventINEP:00000000 $t
    {standard input}:2153   .text.XMC_USBD_ClearEventINEP:00000000 XMC_USBD_ClearEventINEP
    {standard input}:2171   .text.XMC_USBD_ClearEventINEP:0000000c $d
    {standard input}:2176   .text.XMC_USBD_ClearEventOUTEP:00000000 $t
    {standard input}:2181   .text.XMC_USBD_ClearEventOUTEP:00000000 XMC_USBD_ClearEventOUTEP
    {standard input}:2199   .text.XMC_USBD_ClearEventOUTEP:00000010 $d
    {standard input}:2204   .text.XMC_USBD_EnableEventOUTEP:00000000 $t
    {standard input}:2209   .text.XMC_USBD_EnableEventOUTEP:00000000 XMC_USBD_EnableEventOUTEP
    {standard input}:2228   .text.XMC_USBD_EnableEventOUTEP:00000010 $d
    {standard input}:2233   .text.XMC_USBD_EnableEventINEP:00000000 $t
    {standard input}:2238   .text.XMC_USBD_EnableEventINEP:00000000 XMC_USBD_EnableEventINEP
    {standard input}:2257   .text.XMC_USBD_EnableEventINEP:00000010 $d
    {standard input}:2262   .text.XMC_USBD_IRQHandler:00000000 $t
    {standard input}:2267   .text.XMC_USBD_IRQHandler:00000000 XMC_USBD_IRQHandler
    {standard input}:2812   .text.XMC_USBD_IRQHandler:0000030c $d
    {standard input}:2817   .text.XMC_USBD_IRQHandler:00000318 $t
    {standard input}:3072   .text.XMC_USBD_IRQHandler:00000478 $d
    {standard input}:3085   .rodata.Driver_USBD0:00000000 Driver_USBD0
    {standard input}:3125   .bss.XMC_USBD_EP_IN_BUFFERSIZE:00000000 XMC_USBD_EP_IN_BUFFERSIZE
    {standard input}:3118   .bss.XMC_USBD_EP_OUT_BUFFERSIZE:00000000 XMC_USBD_EP_OUT_BUFFERSIZE
    {standard input}:3082   .rodata.Driver_USBD0:00000000 $d
    {standard input}:3103   USB_RAM:00000000 $d
    {standard input}:3107   USB_RAM:00000000 XMC_USBD_EP_IN_BUFFER
    {standard input}:3111   USB_RAM:00000700 XMC_USBD_EP_OUT_BUFFER
    {standard input}:3114   .bss.XMC_USBD_EP_OUT_BUFFERSIZE:00000000 $d
    {standard input}:3121   .bss.XMC_USBD_EP_IN_BUFFERSIZE:00000000 $d
                     .debug_frame:00000010 $d

UNDEFINED SYMBOLS
memset
memcpy
XMC_SCU_CLOCK_UngatePeripheralClock
XMC_SCU_RESET_DeassertPeripheralReset
XMC_SCU_POWER_EnableUsb
XMC_SCU_RESET_AssertPeripheralReset
XMC_SCU_CLOCK_GatePeripheralClock
XMC_SCU_POWER_DisableUsb
