   1              	 .syntax unified
   2              	 .cpu cortex-m4
   3              	 .eabi_attribute 27,3
   4              	 .fpu fpv4-sp-d16
   5              	 .eabi_attribute 20,1
   6              	 .eabi_attribute 21,1
   7              	 .eabi_attribute 23,3
   8              	 .eabi_attribute 24,1
   9              	 .eabi_attribute 25,1
  10              	 .eabi_attribute 26,1
  11              	 .eabi_attribute 30,4
  12              	 .eabi_attribute 34,1
  13              	 .eabi_attribute 18,4
  14              	 .thumb
  15              	 .file "xmc_dsd.c"
  16              	 .text
  17              	.Ltext0:
  18              	 .cfi_sections .debug_frame
  19              	 .section .text.XMC_DSD_Enable,"ax",%progbits
  20              	 .align 1
  21              	 .global XMC_DSD_Enable
  22              	 .thumb
  23              	 .thumb_func
  25              	XMC_DSD_Enable:
  26              	.LFB187:
  27              	 .file 1 "C:/Users/Yushev/git/optiga-trust-qi/projects/xmc4700_relax_kit/common/Libraries/XMCLib/src/xmc_dsd.c"
   1:C:/Users/Yushev/git/optiga-trust-qi/projects/xmc4700_relax_kit/common/Libraries/XMCLib/src\xmc_dsd.c **** /**
   2:C:/Users/Yushev/git/optiga-trust-qi/projects/xmc4700_relax_kit/common/Libraries/XMCLib/src\xmc_dsd.c ****  * @file xmc_dsd.c
   3:C:/Users/Yushev/git/optiga-trust-qi/projects/xmc4700_relax_kit/common/Libraries/XMCLib/src\xmc_dsd.c ****  * @date 2015-09-18
   4:C:/Users/Yushev/git/optiga-trust-qi/projects/xmc4700_relax_kit/common/Libraries/XMCLib/src\xmc_dsd.c ****  *
   5:C:/Users/Yushev/git/optiga-trust-qi/projects/xmc4700_relax_kit/common/Libraries/XMCLib/src\xmc_dsd.c ****  * @cond
   6:C:/Users/Yushev/git/optiga-trust-qi/projects/xmc4700_relax_kit/common/Libraries/XMCLib/src\xmc_dsd.c ****  **********************************************************************************
   7:C:/Users/Yushev/git/optiga-trust-qi/projects/xmc4700_relax_kit/common/Libraries/XMCLib/src\xmc_dsd.c ****  * XMClib v2.1.20 - XMC Peripheral Driver Library 
   8:C:/Users/Yushev/git/optiga-trust-qi/projects/xmc4700_relax_kit/common/Libraries/XMCLib/src\xmc_dsd.c ****  *
   9:C:/Users/Yushev/git/optiga-trust-qi/projects/xmc4700_relax_kit/common/Libraries/XMCLib/src\xmc_dsd.c ****  * Copyright (c) 2015-2018, Infineon Technologies AG
  10:C:/Users/Yushev/git/optiga-trust-qi/projects/xmc4700_relax_kit/common/Libraries/XMCLib/src\xmc_dsd.c ****  * All rights reserved.                        
  11:C:/Users/Yushev/git/optiga-trust-qi/projects/xmc4700_relax_kit/common/Libraries/XMCLib/src\xmc_dsd.c ****  *                                             
  12:C:/Users/Yushev/git/optiga-trust-qi/projects/xmc4700_relax_kit/common/Libraries/XMCLib/src\xmc_dsd.c ****  * Redistribution and use in source and binary forms, with or without           
  13:C:/Users/Yushev/git/optiga-trust-qi/projects/xmc4700_relax_kit/common/Libraries/XMCLib/src\xmc_dsd.c ****  * modification,are permitted provided that the following conditions are met:   
  14:C:/Users/Yushev/git/optiga-trust-qi/projects/xmc4700_relax_kit/common/Libraries/XMCLib/src\xmc_dsd.c ****  *                                                                              
  15:C:/Users/Yushev/git/optiga-trust-qi/projects/xmc4700_relax_kit/common/Libraries/XMCLib/src\xmc_dsd.c ****  *   Redistributions of source code must retain the above copyright notice,      
  16:C:/Users/Yushev/git/optiga-trust-qi/projects/xmc4700_relax_kit/common/Libraries/XMCLib/src\xmc_dsd.c ****  *   this list of conditions and the following disclaimer.                        
  17:C:/Users/Yushev/git/optiga-trust-qi/projects/xmc4700_relax_kit/common/Libraries/XMCLib/src\xmc_dsd.c ****  * 
  18:C:/Users/Yushev/git/optiga-trust-qi/projects/xmc4700_relax_kit/common/Libraries/XMCLib/src\xmc_dsd.c ****  *   Redistributions in binary form must reproduce the above copyright notice,   
  19:C:/Users/Yushev/git/optiga-trust-qi/projects/xmc4700_relax_kit/common/Libraries/XMCLib/src\xmc_dsd.c ****  *   this list of conditions and the following disclaimer in the documentation    
  20:C:/Users/Yushev/git/optiga-trust-qi/projects/xmc4700_relax_kit/common/Libraries/XMCLib/src\xmc_dsd.c ****  *   and/or other materials provided with the distribution.                       
  21:C:/Users/Yushev/git/optiga-trust-qi/projects/xmc4700_relax_kit/common/Libraries/XMCLib/src\xmc_dsd.c ****  * 
  22:C:/Users/Yushev/git/optiga-trust-qi/projects/xmc4700_relax_kit/common/Libraries/XMCLib/src\xmc_dsd.c ****  *   Neither the name of the copyright holders nor the names of its contributors 
  23:C:/Users/Yushev/git/optiga-trust-qi/projects/xmc4700_relax_kit/common/Libraries/XMCLib/src\xmc_dsd.c ****  *   may be used to endorse or promote products derived from this software without
  24:C:/Users/Yushev/git/optiga-trust-qi/projects/xmc4700_relax_kit/common/Libraries/XMCLib/src\xmc_dsd.c ****  *   specific prior written permission.                                           
  25:C:/Users/Yushev/git/optiga-trust-qi/projects/xmc4700_relax_kit/common/Libraries/XMCLib/src\xmc_dsd.c ****  *                                                                              
  26:C:/Users/Yushev/git/optiga-trust-qi/projects/xmc4700_relax_kit/common/Libraries/XMCLib/src\xmc_dsd.c ****  * THIS SOFTWARE IS PROVIDED BY THE COPYRIGHT HOLDERS AND CONTRIBUTORS "AS IS"  
  27:C:/Users/Yushev/git/optiga-trust-qi/projects/xmc4700_relax_kit/common/Libraries/XMCLib/src\xmc_dsd.c ****  * AND ANY EXPRESS OR IMPLIED WARRANTIES, INCLUDING, BUT NOT LIMITED TO, THE    
  28:C:/Users/Yushev/git/optiga-trust-qi/projects/xmc4700_relax_kit/common/Libraries/XMCLib/src\xmc_dsd.c ****  * IMPLIED WARRANTIES OF MERCHANTABILITY AND FITNESS FOR A PARTICULAR PURPOSE   
  29:C:/Users/Yushev/git/optiga-trust-qi/projects/xmc4700_relax_kit/common/Libraries/XMCLib/src\xmc_dsd.c ****  * ARE  DISCLAIMED. IN NO EVENT SHALL THE COPYRIGHT HOLDER OR CONTRIBUTORS BE   
  30:C:/Users/Yushev/git/optiga-trust-qi/projects/xmc4700_relax_kit/common/Libraries/XMCLib/src\xmc_dsd.c ****  * LIABLE  FOR ANY DIRECT, INDIRECT, INCIDENTAL, SPECIAL, EXEMPLARY, OR         
  31:C:/Users/Yushev/git/optiga-trust-qi/projects/xmc4700_relax_kit/common/Libraries/XMCLib/src\xmc_dsd.c ****  * CONSEQUENTIAL DAMAGES (INCLUDING, BUT NOT LIMITED TO, PROCUREMENT OF         
  32:C:/Users/Yushev/git/optiga-trust-qi/projects/xmc4700_relax_kit/common/Libraries/XMCLib/src\xmc_dsd.c ****  * SUBSTITUTE GOODS OR  SERVICES; LOSS OF USE, DATA, OR PROFITS; OR BUSINESS    
  33:C:/Users/Yushev/git/optiga-trust-qi/projects/xmc4700_relax_kit/common/Libraries/XMCLib/src\xmc_dsd.c ****  * INTERRUPTION) HOWEVER CAUSED AND ON ANY THEORY OF LIABILITY, WHETHER IN      
  34:C:/Users/Yushev/git/optiga-trust-qi/projects/xmc4700_relax_kit/common/Libraries/XMCLib/src\xmc_dsd.c ****  * CONTRACT, STRICT LIABILITY,OR TORT (INCLUDING NEGLIGENCE OR OTHERWISE)       
  35:C:/Users/Yushev/git/optiga-trust-qi/projects/xmc4700_relax_kit/common/Libraries/XMCLib/src\xmc_dsd.c ****  * ARISING IN ANY WAY OUT OF THE USE OF THIS SOFTWARE, EVEN IF ADVISED OF THE   
  36:C:/Users/Yushev/git/optiga-trust-qi/projects/xmc4700_relax_kit/common/Libraries/XMCLib/src\xmc_dsd.c ****  * POSSIBILITY OF SUCH DAMAGE.                                                  
  37:C:/Users/Yushev/git/optiga-trust-qi/projects/xmc4700_relax_kit/common/Libraries/XMCLib/src\xmc_dsd.c ****  *                                                                              
  38:C:/Users/Yushev/git/optiga-trust-qi/projects/xmc4700_relax_kit/common/Libraries/XMCLib/src\xmc_dsd.c ****  * To improve the quality of the software, users are encouraged to share        
  39:C:/Users/Yushev/git/optiga-trust-qi/projects/xmc4700_relax_kit/common/Libraries/XMCLib/src\xmc_dsd.c ****  * modifications, enhancements or bug fixes with Infineon Technologies AG       
  40:C:/Users/Yushev/git/optiga-trust-qi/projects/xmc4700_relax_kit/common/Libraries/XMCLib/src\xmc_dsd.c ****  * dave@infineon.com).                                                          
  41:C:/Users/Yushev/git/optiga-trust-qi/projects/xmc4700_relax_kit/common/Libraries/XMCLib/src\xmc_dsd.c ****  **********************************************************************************
  42:C:/Users/Yushev/git/optiga-trust-qi/projects/xmc4700_relax_kit/common/Libraries/XMCLib/src\xmc_dsd.c ****  *
  43:C:/Users/Yushev/git/optiga-trust-qi/projects/xmc4700_relax_kit/common/Libraries/XMCLib/src\xmc_dsd.c ****  * Change History
  44:C:/Users/Yushev/git/optiga-trust-qi/projects/xmc4700_relax_kit/common/Libraries/XMCLib/src\xmc_dsd.c ****  * --------------
  45:C:/Users/Yushev/git/optiga-trust-qi/projects/xmc4700_relax_kit/common/Libraries/XMCLib/src\xmc_dsd.c ****  *
  46:C:/Users/Yushev/git/optiga-trust-qi/projects/xmc4700_relax_kit/common/Libraries/XMCLib/src\xmc_dsd.c ****  * 2015-03-30:
  47:C:/Users/Yushev/git/optiga-trust-qi/projects/xmc4700_relax_kit/common/Libraries/XMCLib/src\xmc_dsd.c ****  *     - Initial version
  48:C:/Users/Yushev/git/optiga-trust-qi/projects/xmc4700_relax_kit/common/Libraries/XMCLib/src\xmc_dsd.c ****  *      
  49:C:/Users/Yushev/git/optiga-trust-qi/projects/xmc4700_relax_kit/common/Libraries/XMCLib/src\xmc_dsd.c ****  * 2015-06-19:
  50:C:/Users/Yushev/git/optiga-trust-qi/projects/xmc4700_relax_kit/common/Libraries/XMCLib/src\xmc_dsd.c ****  *     - Removed GetDriverVersion API <BR>
  51:C:/Users/Yushev/git/optiga-trust-qi/projects/xmc4700_relax_kit/common/Libraries/XMCLib/src\xmc_dsd.c ****  * 
  52:C:/Users/Yushev/git/optiga-trust-qi/projects/xmc4700_relax_kit/common/Libraries/XMCLib/src\xmc_dsd.c ****  * 2015-09-18:
  53:C:/Users/Yushev/git/optiga-trust-qi/projects/xmc4700_relax_kit/common/Libraries/XMCLib/src\xmc_dsd.c ****  *     - Support added for XMC4800 microcontroller family <BR>
  54:C:/Users/Yushev/git/optiga-trust-qi/projects/xmc4700_relax_kit/common/Libraries/XMCLib/src\xmc_dsd.c ****  * @endcond 
  55:C:/Users/Yushev/git/optiga-trust-qi/projects/xmc4700_relax_kit/common/Libraries/XMCLib/src\xmc_dsd.c ****  *
  56:C:/Users/Yushev/git/optiga-trust-qi/projects/xmc4700_relax_kit/common/Libraries/XMCLib/src\xmc_dsd.c ****  */
  57:C:/Users/Yushev/git/optiga-trust-qi/projects/xmc4700_relax_kit/common/Libraries/XMCLib/src\xmc_dsd.c **** 
  58:C:/Users/Yushev/git/optiga-trust-qi/projects/xmc4700_relax_kit/common/Libraries/XMCLib/src\xmc_dsd.c **** /**************************************************************************************************
  59:C:/Users/Yushev/git/optiga-trust-qi/projects/xmc4700_relax_kit/common/Libraries/XMCLib/src\xmc_dsd.c ****  * HEADER FILES
  60:C:/Users/Yushev/git/optiga-trust-qi/projects/xmc4700_relax_kit/common/Libraries/XMCLib/src\xmc_dsd.c ****  **************************************************************************************************
  61:C:/Users/Yushev/git/optiga-trust-qi/projects/xmc4700_relax_kit/common/Libraries/XMCLib/src\xmc_dsd.c **** #include "xmc_dsd.h"
  62:C:/Users/Yushev/git/optiga-trust-qi/projects/xmc4700_relax_kit/common/Libraries/XMCLib/src\xmc_dsd.c **** 
  63:C:/Users/Yushev/git/optiga-trust-qi/projects/xmc4700_relax_kit/common/Libraries/XMCLib/src\xmc_dsd.c **** #if defined(DSD)
  64:C:/Users/Yushev/git/optiga-trust-qi/projects/xmc4700_relax_kit/common/Libraries/XMCLib/src\xmc_dsd.c **** 
  65:C:/Users/Yushev/git/optiga-trust-qi/projects/xmc4700_relax_kit/common/Libraries/XMCLib/src\xmc_dsd.c **** /**************************************************************************************************
  66:C:/Users/Yushev/git/optiga-trust-qi/projects/xmc4700_relax_kit/common/Libraries/XMCLib/src\xmc_dsd.c ****  * MACROS
  67:C:/Users/Yushev/git/optiga-trust-qi/projects/xmc4700_relax_kit/common/Libraries/XMCLib/src\xmc_dsd.c ****  **************************************************************************************************
  68:C:/Users/Yushev/git/optiga-trust-qi/projects/xmc4700_relax_kit/common/Libraries/XMCLib/src\xmc_dsd.c **** 
  69:C:/Users/Yushev/git/optiga-trust-qi/projects/xmc4700_relax_kit/common/Libraries/XMCLib/src\xmc_dsd.c **** #define XMC_DSD_MIN_FILTER_START  (4U)
  70:C:/Users/Yushev/git/optiga-trust-qi/projects/xmc4700_relax_kit/common/Libraries/XMCLib/src\xmc_dsd.c **** #define XMC_DSD_MIN_DECIMATION_FACTOR (4U)
  71:C:/Users/Yushev/git/optiga-trust-qi/projects/xmc4700_relax_kit/common/Libraries/XMCLib/src\xmc_dsd.c **** #define XMC_DSD_MAX_DECIMATION_FACTOR (256U)
  72:C:/Users/Yushev/git/optiga-trust-qi/projects/xmc4700_relax_kit/common/Libraries/XMCLib/src\xmc_dsd.c **** #define XMC_DSD_MAX_DECIMATION_FACTOR_AUX (32U)
  73:C:/Users/Yushev/git/optiga-trust-qi/projects/xmc4700_relax_kit/common/Libraries/XMCLib/src\xmc_dsd.c **** 
  74:C:/Users/Yushev/git/optiga-trust-qi/projects/xmc4700_relax_kit/common/Libraries/XMCLib/src\xmc_dsd.c **** /**************************************************************************************************
  75:C:/Users/Yushev/git/optiga-trust-qi/projects/xmc4700_relax_kit/common/Libraries/XMCLib/src\xmc_dsd.c ****  * API IMPLEMENTATION
  76:C:/Users/Yushev/git/optiga-trust-qi/projects/xmc4700_relax_kit/common/Libraries/XMCLib/src\xmc_dsd.c ****  **************************************************************************************************
  77:C:/Users/Yushev/git/optiga-trust-qi/projects/xmc4700_relax_kit/common/Libraries/XMCLib/src\xmc_dsd.c **** 
  78:C:/Users/Yushev/git/optiga-trust-qi/projects/xmc4700_relax_kit/common/Libraries/XMCLib/src\xmc_dsd.c **** /*Enable the DSD Module*/
  79:C:/Users/Yushev/git/optiga-trust-qi/projects/xmc4700_relax_kit/common/Libraries/XMCLib/src\xmc_dsd.c **** void XMC_DSD_Enable(XMC_DSD_t *const dsd)
  80:C:/Users/Yushev/git/optiga-trust-qi/projects/xmc4700_relax_kit/common/Libraries/XMCLib/src\xmc_dsd.c **** {
  28              	 .loc 1 80 0
  29              	 .cfi_startproc
  30              	 
  31              	 
  32              	.LVL0:
  33 0000 08B5     	 push {r3,lr}
  34              	.LCFI0:
  35              	 .cfi_def_cfa_offset 8
  36              	 .cfi_offset 3,-8
  37              	 .cfi_offset 14,-4
  81:C:/Users/Yushev/git/optiga-trust-qi/projects/xmc4700_relax_kit/common/Libraries/XMCLib/src\xmc_dsd.c ****   XMC_ASSERT("XMC_DSD_Enable:Invalid module pointer", XMC_DSD_CHECK_MODULE_PTR(dsd));
  82:C:/Users/Yushev/git/optiga-trust-qi/projects/xmc4700_relax_kit/common/Libraries/XMCLib/src\xmc_dsd.c ****   XMC_UNUSED_ARG(dsd);
  83:C:/Users/Yushev/git/optiga-trust-qi/projects/xmc4700_relax_kit/common/Libraries/XMCLib/src\xmc_dsd.c **** 
  84:C:/Users/Yushev/git/optiga-trust-qi/projects/xmc4700_relax_kit/common/Libraries/XMCLib/src\xmc_dsd.c **** #if defined(CLOCK_GATING_SUPPORTED)
  85:C:/Users/Yushev/git/optiga-trust-qi/projects/xmc4700_relax_kit/common/Libraries/XMCLib/src\xmc_dsd.c ****   XMC_SCU_CLOCK_UngatePeripheralClock(XMC_SCU_PERIPHERAL_CLOCK_DSD);
  38              	 .loc 1 85 0
  39 0002 0220     	 movs r0,#2
  40              	.LVL1:
  41 0004 FFF7FEFF 	 bl XMC_SCU_CLOCK_UngatePeripheralClock
  42              	.LVL2:
  86:C:/Users/Yushev/git/optiga-trust-qi/projects/xmc4700_relax_kit/common/Libraries/XMCLib/src\xmc_dsd.c **** #endif
  87:C:/Users/Yushev/git/optiga-trust-qi/projects/xmc4700_relax_kit/common/Libraries/XMCLib/src\xmc_dsd.c ****   XMC_SCU_RESET_DeassertPeripheralReset(XMC_SCU_PERIPHERAL_RESET_DSD);
  43              	 .loc 1 87 0
  44 0008 0220     	 movs r0,#2
  88:C:/Users/Yushev/git/optiga-trust-qi/projects/xmc4700_relax_kit/common/Libraries/XMCLib/src\xmc_dsd.c **** }
  45              	 .loc 1 88 0
  46 000a BDE80840 	 pop {r3,lr}
  47              	.LCFI1:
  48              	 .cfi_restore 14
  49              	 .cfi_restore 3
  50              	 .cfi_def_cfa_offset 0
  87:C:/Users/Yushev/git/optiga-trust-qi/projects/xmc4700_relax_kit/common/Libraries/XMCLib/src\xmc_dsd.c **** }
  51              	 .loc 1 87 0
  52 000e FFF7FEBF 	 b XMC_SCU_RESET_DeassertPeripheralReset
  53              	.LVL3:
  54              	 .cfi_endproc
  55              	.LFE187:
  57              	 .section .text.XMC_DSD_Disable,"ax",%progbits
  58              	 .align 1
  59              	 .global XMC_DSD_Disable
  60              	 .thumb
  61              	 .thumb_func
  63              	XMC_DSD_Disable:
  64              	.LFB188:
  89:C:/Users/Yushev/git/optiga-trust-qi/projects/xmc4700_relax_kit/common/Libraries/XMCLib/src\xmc_dsd.c **** 
  90:C:/Users/Yushev/git/optiga-trust-qi/projects/xmc4700_relax_kit/common/Libraries/XMCLib/src\xmc_dsd.c **** /*Disable the DSD Module*/
  91:C:/Users/Yushev/git/optiga-trust-qi/projects/xmc4700_relax_kit/common/Libraries/XMCLib/src\xmc_dsd.c **** void XMC_DSD_Disable(XMC_DSD_t *const dsd)
  92:C:/Users/Yushev/git/optiga-trust-qi/projects/xmc4700_relax_kit/common/Libraries/XMCLib/src\xmc_dsd.c **** {
  65              	 .loc 1 92 0
  66              	 .cfi_startproc
  67              	 
  68              	 
  69              	.LVL4:
  70 0000 08B5     	 push {r3,lr}
  71              	.LCFI2:
  72              	 .cfi_def_cfa_offset 8
  73              	 .cfi_offset 3,-8
  74              	 .cfi_offset 14,-4
  93:C:/Users/Yushev/git/optiga-trust-qi/projects/xmc4700_relax_kit/common/Libraries/XMCLib/src\xmc_dsd.c ****   XMC_ASSERT("XMC_DSD_Disable:Invalid module pointer", XMC_DSD_CHECK_MODULE_PTR(dsd));
  94:C:/Users/Yushev/git/optiga-trust-qi/projects/xmc4700_relax_kit/common/Libraries/XMCLib/src\xmc_dsd.c ****   XMC_UNUSED_ARG(dsd);
  95:C:/Users/Yushev/git/optiga-trust-qi/projects/xmc4700_relax_kit/common/Libraries/XMCLib/src\xmc_dsd.c **** 
  96:C:/Users/Yushev/git/optiga-trust-qi/projects/xmc4700_relax_kit/common/Libraries/XMCLib/src\xmc_dsd.c ****   XMC_SCU_RESET_AssertPeripheralReset(XMC_SCU_PERIPHERAL_RESET_DSD);
  75              	 .loc 1 96 0
  76 0002 0220     	 movs r0,#2
  77              	.LVL5:
  78 0004 FFF7FEFF 	 bl XMC_SCU_RESET_AssertPeripheralReset
  79              	.LVL6:
  97:C:/Users/Yushev/git/optiga-trust-qi/projects/xmc4700_relax_kit/common/Libraries/XMCLib/src\xmc_dsd.c **** #if defined(CLOCK_GATING_SUPPORTED)
  98:C:/Users/Yushev/git/optiga-trust-qi/projects/xmc4700_relax_kit/common/Libraries/XMCLib/src\xmc_dsd.c ****   XMC_SCU_CLOCK_GatePeripheralClock(XMC_SCU_PERIPHERAL_CLOCK_DSD);
  80              	 .loc 1 98 0
  81 0008 0220     	 movs r0,#2
  99:C:/Users/Yushev/git/optiga-trust-qi/projects/xmc4700_relax_kit/common/Libraries/XMCLib/src\xmc_dsd.c **** #endif
 100:C:/Users/Yushev/git/optiga-trust-qi/projects/xmc4700_relax_kit/common/Libraries/XMCLib/src\xmc_dsd.c **** }
  82              	 .loc 1 100 0
  83 000a BDE80840 	 pop {r3,lr}
  84              	.LCFI3:
  85              	 .cfi_restore 14
  86              	 .cfi_restore 3
  87              	 .cfi_def_cfa_offset 0
  98:C:/Users/Yushev/git/optiga-trust-qi/projects/xmc4700_relax_kit/common/Libraries/XMCLib/src\xmc_dsd.c **** #endif
  88              	 .loc 1 98 0
  89 000e FFF7FEBF 	 b XMC_SCU_CLOCK_GatePeripheralClock
  90              	.LVL7:
  91              	 .cfi_endproc
  92              	.LFE188:
  94              	 .section .text.XMC_DSD_EnableClock,"ax",%progbits
  95              	 .align 1
  96              	 .global XMC_DSD_EnableClock
  97              	 .thumb
  98              	 .thumb_func
 100              	XMC_DSD_EnableClock:
 101              	.LFB189:
 101:C:/Users/Yushev/git/optiga-trust-qi/projects/xmc4700_relax_kit/common/Libraries/XMCLib/src\xmc_dsd.c **** 
 102:C:/Users/Yushev/git/optiga-trust-qi/projects/xmc4700_relax_kit/common/Libraries/XMCLib/src\xmc_dsd.c **** /* Enable the module clock*/
 103:C:/Users/Yushev/git/optiga-trust-qi/projects/xmc4700_relax_kit/common/Libraries/XMCLib/src\xmc_dsd.c **** void XMC_DSD_EnableClock(XMC_DSD_t *const dsd)
 104:C:/Users/Yushev/git/optiga-trust-qi/projects/xmc4700_relax_kit/common/Libraries/XMCLib/src\xmc_dsd.c **** {
 102              	 .loc 1 104 0
 103              	 .cfi_startproc
 104              	 
 105              	 
 106              	 
 107              	.LVL8:
 105:C:/Users/Yushev/git/optiga-trust-qi/projects/xmc4700_relax_kit/common/Libraries/XMCLib/src\xmc_dsd.c ****   XMC_ASSERT("XMC_DSD_EnableClock:Invalid module pointer", XMC_DSD_CHECK_MODULE_PTR(dsd));
 106:C:/Users/Yushev/git/optiga-trust-qi/projects/xmc4700_relax_kit/common/Libraries/XMCLib/src\xmc_dsd.c ****   /* Enable the module clock */
 107:C:/Users/Yushev/git/optiga-trust-qi/projects/xmc4700_relax_kit/common/Libraries/XMCLib/src\xmc_dsd.c ****   dsd->CLC &= ~(uint32_t)DSD_CLC_DISR_Msk;
 108              	 .loc 1 107 0
 109 0000 0368     	 ldr r3,[r0]
 110 0002 23F00103 	 bic r3,r3,#1
 111 0006 0360     	 str r3,[r0]
 108:C:/Users/Yushev/git/optiga-trust-qi/projects/xmc4700_relax_kit/common/Libraries/XMCLib/src\xmc_dsd.c ****   /* enable internal module clock */
 109:C:/Users/Yushev/git/optiga-trust-qi/projects/xmc4700_relax_kit/common/Libraries/XMCLib/src\xmc_dsd.c ****   dsd ->GLOBCFG |= (uint32_t)0x01;
 112              	 .loc 1 109 0
 113 0008 D0F88030 	 ldr r3,[r0,#128]
 114 000c 43F00103 	 orr r3,r3,#1
 115 0010 C0F88030 	 str r3,[r0,#128]
 116 0014 7047     	 bx lr
 117              	 .cfi_endproc
 118              	.LFE189:
 120              	 .section .text.XMC_DSD_DisableClock,"ax",%progbits
 121              	 .align 1
 122              	 .global XMC_DSD_DisableClock
 123              	 .thumb
 124              	 .thumb_func
 126              	XMC_DSD_DisableClock:
 127              	.LFB190:
 110:C:/Users/Yushev/git/optiga-trust-qi/projects/xmc4700_relax_kit/common/Libraries/XMCLib/src\xmc_dsd.c **** }
 111:C:/Users/Yushev/git/optiga-trust-qi/projects/xmc4700_relax_kit/common/Libraries/XMCLib/src\xmc_dsd.c **** 
 112:C:/Users/Yushev/git/optiga-trust-qi/projects/xmc4700_relax_kit/common/Libraries/XMCLib/src\xmc_dsd.c **** void XMC_DSD_DisableClock(XMC_DSD_t *const dsd)
 113:C:/Users/Yushev/git/optiga-trust-qi/projects/xmc4700_relax_kit/common/Libraries/XMCLib/src\xmc_dsd.c **** {
 128              	 .loc 1 113 0
 129              	 .cfi_startproc
 130              	 
 131              	 
 132              	 
 133              	.LVL9:
 114:C:/Users/Yushev/git/optiga-trust-qi/projects/xmc4700_relax_kit/common/Libraries/XMCLib/src\xmc_dsd.c ****   XMC_ASSERT("XMC_DSD_DisableClock:Invalid module pointer", XMC_DSD_CHECK_MODULE_PTR(dsd));
 115:C:/Users/Yushev/git/optiga-trust-qi/projects/xmc4700_relax_kit/common/Libraries/XMCLib/src\xmc_dsd.c **** 
 116:C:/Users/Yushev/git/optiga-trust-qi/projects/xmc4700_relax_kit/common/Libraries/XMCLib/src\xmc_dsd.c ****   /* disable internal module clock */
 117:C:/Users/Yushev/git/optiga-trust-qi/projects/xmc4700_relax_kit/common/Libraries/XMCLib/src\xmc_dsd.c ****   dsd->GLOBCFG &= ~(uint32_t)DSD_GLOBCFG_MCSEL_Msk;
 134              	 .loc 1 117 0
 135 0000 D0F88030 	 ldr r3,[r0,#128]
 136 0004 23F00703 	 bic r3,r3,#7
 137 0008 C0F88030 	 str r3,[r0,#128]
 118:C:/Users/Yushev/git/optiga-trust-qi/projects/xmc4700_relax_kit/common/Libraries/XMCLib/src\xmc_dsd.c **** 
 119:C:/Users/Yushev/git/optiga-trust-qi/projects/xmc4700_relax_kit/common/Libraries/XMCLib/src\xmc_dsd.c ****   /* stop the module clock */
 120:C:/Users/Yushev/git/optiga-trust-qi/projects/xmc4700_relax_kit/common/Libraries/XMCLib/src\xmc_dsd.c ****   dsd->CLC |= (uint32_t)DSD_CLC_DISR_Msk;
 138              	 .loc 1 120 0
 139 000c 0368     	 ldr r3,[r0]
 140 000e 43F00103 	 orr r3,r3,#1
 141 0012 0360     	 str r3,[r0]
 142 0014 7047     	 bx lr
 143              	 .cfi_endproc
 144              	.LFE190:
 146              	 .section .text.XMC_DSD_Init,"ax",%progbits
 147              	 .align 1
 148              	 .global XMC_DSD_Init
 149              	 .thumb
 150              	 .thumb_func
 152              	XMC_DSD_Init:
 153              	.LFB191:
 121:C:/Users/Yushev/git/optiga-trust-qi/projects/xmc4700_relax_kit/common/Libraries/XMCLib/src\xmc_dsd.c **** 
 122:C:/Users/Yushev/git/optiga-trust-qi/projects/xmc4700_relax_kit/common/Libraries/XMCLib/src\xmc_dsd.c **** }
 123:C:/Users/Yushev/git/optiga-trust-qi/projects/xmc4700_relax_kit/common/Libraries/XMCLib/src\xmc_dsd.c **** 
 124:C:/Users/Yushev/git/optiga-trust-qi/projects/xmc4700_relax_kit/common/Libraries/XMCLib/src\xmc_dsd.c **** /* Enable the DSD module and clock */
 125:C:/Users/Yushev/git/optiga-trust-qi/projects/xmc4700_relax_kit/common/Libraries/XMCLib/src\xmc_dsd.c **** void XMC_DSD_Init(XMC_DSD_t *const dsd)
 126:C:/Users/Yushev/git/optiga-trust-qi/projects/xmc4700_relax_kit/common/Libraries/XMCLib/src\xmc_dsd.c **** {
 154              	 .loc 1 126 0
 155              	 .cfi_startproc
 156              	 
 157              	 
 158              	.LVL10:
 159 0000 10B5     	 push {r4,lr}
 160              	.LCFI4:
 161              	 .cfi_def_cfa_offset 8
 162              	 .cfi_offset 4,-8
 163              	 .cfi_offset 14,-4
 164              	 .loc 1 126 0
 165 0002 0446     	 mov r4,r0
 127:C:/Users/Yushev/git/optiga-trust-qi/projects/xmc4700_relax_kit/common/Libraries/XMCLib/src\xmc_dsd.c ****   XMC_ASSERT("XMC_DSD_Init:Invalid module pointer", XMC_DSD_CHECK_MODULE_PTR(dsd));
 128:C:/Users/Yushev/git/optiga-trust-qi/projects/xmc4700_relax_kit/common/Libraries/XMCLib/src\xmc_dsd.c ****   XMC_DSD_Enable(dsd);
 166              	 .loc 1 128 0
 167 0004 FFF7FEFF 	 bl XMC_DSD_Enable
 168              	.LVL11:
 129:C:/Users/Yushev/git/optiga-trust-qi/projects/xmc4700_relax_kit/common/Libraries/XMCLib/src\xmc_dsd.c ****   XMC_DSD_EnableClock(dsd);
 169              	 .loc 1 129 0
 170 0008 2046     	 mov r0,r4
 130:C:/Users/Yushev/git/optiga-trust-qi/projects/xmc4700_relax_kit/common/Libraries/XMCLib/src\xmc_dsd.c **** }
 171              	 .loc 1 130 0
 172 000a BDE81040 	 pop {r4,lr}
 173              	.LCFI5:
 174              	 .cfi_restore 14
 175              	 .cfi_restore 4
 176              	 .cfi_def_cfa_offset 0
 177              	.LVL12:
 129:C:/Users/Yushev/git/optiga-trust-qi/projects/xmc4700_relax_kit/common/Libraries/XMCLib/src\xmc_dsd.c ****   XMC_DSD_EnableClock(dsd);
 178              	 .loc 1 129 0
 179 000e FFF7FEBF 	 b XMC_DSD_EnableClock
 180              	.LVL13:
 181              	 .cfi_endproc
 182              	.LFE191:
 184              	 .section .text.XMC_DSD_IsEnabled,"ax",%progbits
 185              	 .align 1
 186              	 .global XMC_DSD_IsEnabled
 187              	 .thumb
 188              	 .thumb_func
 190              	XMC_DSD_IsEnabled:
 191              	.LFB192:
 131:C:/Users/Yushev/git/optiga-trust-qi/projects/xmc4700_relax_kit/common/Libraries/XMCLib/src\xmc_dsd.c **** 
 132:C:/Users/Yushev/git/optiga-trust-qi/projects/xmc4700_relax_kit/common/Libraries/XMCLib/src\xmc_dsd.c **** bool XMC_DSD_IsEnabled(XMC_DSD_t *const dsd)
 133:C:/Users/Yushev/git/optiga-trust-qi/projects/xmc4700_relax_kit/common/Libraries/XMCLib/src\xmc_dsd.c **** {
 192              	 .loc 1 133 0
 193              	 .cfi_startproc
 194              	 
 195              	 
 196              	.LVL14:
 197 0000 08B5     	 push {r3,lr}
 198              	.LCFI6:
 199              	 .cfi_def_cfa_offset 8
 200              	 .cfi_offset 3,-8
 201              	 .cfi_offset 14,-4
 134:C:/Users/Yushev/git/optiga-trust-qi/projects/xmc4700_relax_kit/common/Libraries/XMCLib/src\xmc_dsd.c ****   bool status;
 135:C:/Users/Yushev/git/optiga-trust-qi/projects/xmc4700_relax_kit/common/Libraries/XMCLib/src\xmc_dsd.c ****   XMC_ASSERT("XMC_DSD_Disable:Invalid module pointer", XMC_DSD_CHECK_MODULE_PTR(dsd));
 136:C:/Users/Yushev/git/optiga-trust-qi/projects/xmc4700_relax_kit/common/Libraries/XMCLib/src\xmc_dsd.c ****   XMC_UNUSED_ARG(dsd);
 137:C:/Users/Yushev/git/optiga-trust-qi/projects/xmc4700_relax_kit/common/Libraries/XMCLib/src\xmc_dsd.c ****   
 138:C:/Users/Yushev/git/optiga-trust-qi/projects/xmc4700_relax_kit/common/Libraries/XMCLib/src\xmc_dsd.c ****   #if ((UC_SERIES == XMC44) || (UC_SERIES == XMC48)||(UC_SERIES == XMC47))
 139:C:/Users/Yushev/git/optiga-trust-qi/projects/xmc4700_relax_kit/common/Libraries/XMCLib/src\xmc_dsd.c ****   if(XMC_SCU_RESET_IsPeripheralResetAsserted(XMC_SCU_PERIPHERAL_RESET_DSD) == false) 
 202              	 .loc 1 139 0
 203 0002 0220     	 movs r0,#2
 204              	.LVL15:
 205 0004 FFF7FEFF 	 bl XMC_SCU_RESET_IsPeripheralResetAsserted
 206              	.LVL16:
 207 0008 30B9     	 cbnz r0,.L8
 140:C:/Users/Yushev/git/optiga-trust-qi/projects/xmc4700_relax_kit/common/Libraries/XMCLib/src\xmc_dsd.c ****   {
 141:C:/Users/Yushev/git/optiga-trust-qi/projects/xmc4700_relax_kit/common/Libraries/XMCLib/src\xmc_dsd.c ****     if(XMC_SCU_CLOCK_IsPeripheralClockGated(XMC_SCU_PERIPHERAL_CLOCK_DSD) == false)
 208              	 .loc 1 141 0
 209 000a 0220     	 movs r0,#2
 210 000c FFF7FEFF 	 bl XMC_SCU_CLOCK_IsPeripheralClockGated
 211              	.LVL17:
 212 0010 80F00100 	 eor r0,r0,#1
 213 0014 C0B2     	 uxtb r0,r0
 214 0016 08BD     	 pop {r3,pc}
 215              	.L8:
 142:C:/Users/Yushev/git/optiga-trust-qi/projects/xmc4700_relax_kit/common/Libraries/XMCLib/src\xmc_dsd.c ****     {
 143:C:/Users/Yushev/git/optiga-trust-qi/projects/xmc4700_relax_kit/common/Libraries/XMCLib/src\xmc_dsd.c ****       status = true;
 144:C:/Users/Yushev/git/optiga-trust-qi/projects/xmc4700_relax_kit/common/Libraries/XMCLib/src\xmc_dsd.c ****     }
 145:C:/Users/Yushev/git/optiga-trust-qi/projects/xmc4700_relax_kit/common/Libraries/XMCLib/src\xmc_dsd.c **** 	else
 146:C:/Users/Yushev/git/optiga-trust-qi/projects/xmc4700_relax_kit/common/Libraries/XMCLib/src\xmc_dsd.c **** 	{
 147:C:/Users/Yushev/git/optiga-trust-qi/projects/xmc4700_relax_kit/common/Libraries/XMCLib/src\xmc_dsd.c ****       status = false;
 148:C:/Users/Yushev/git/optiga-trust-qi/projects/xmc4700_relax_kit/common/Libraries/XMCLib/src\xmc_dsd.c **** 	}
 149:C:/Users/Yushev/git/optiga-trust-qi/projects/xmc4700_relax_kit/common/Libraries/XMCLib/src\xmc_dsd.c ****   }
 150:C:/Users/Yushev/git/optiga-trust-qi/projects/xmc4700_relax_kit/common/Libraries/XMCLib/src\xmc_dsd.c ****   else
 151:C:/Users/Yushev/git/optiga-trust-qi/projects/xmc4700_relax_kit/common/Libraries/XMCLib/src\xmc_dsd.c ****   {
 152:C:/Users/Yushev/git/optiga-trust-qi/projects/xmc4700_relax_kit/common/Libraries/XMCLib/src\xmc_dsd.c ****     status = false;
 216              	 .loc 1 152 0
 217 0018 0020     	 movs r0,#0
 218              	.LVL18:
 153:C:/Users/Yushev/git/optiga-trust-qi/projects/xmc4700_relax_kit/common/Libraries/XMCLib/src\xmc_dsd.c ****   }
 154:C:/Users/Yushev/git/optiga-trust-qi/projects/xmc4700_relax_kit/common/Libraries/XMCLib/src\xmc_dsd.c ****   #else
 155:C:/Users/Yushev/git/optiga-trust-qi/projects/xmc4700_relax_kit/common/Libraries/XMCLib/src\xmc_dsd.c ****   if(XMC_SCU_RESET_IsPeripheralResetAsserted(XMC_SCU_PERIPHERAL_RESET_DSD) == false)
 156:C:/Users/Yushev/git/optiga-trust-qi/projects/xmc4700_relax_kit/common/Libraries/XMCLib/src\xmc_dsd.c ****   {
 157:C:/Users/Yushev/git/optiga-trust-qi/projects/xmc4700_relax_kit/common/Libraries/XMCLib/src\xmc_dsd.c ****     status = true;
 158:C:/Users/Yushev/git/optiga-trust-qi/projects/xmc4700_relax_kit/common/Libraries/XMCLib/src\xmc_dsd.c ****   }
 159:C:/Users/Yushev/git/optiga-trust-qi/projects/xmc4700_relax_kit/common/Libraries/XMCLib/src\xmc_dsd.c ****   else
 160:C:/Users/Yushev/git/optiga-trust-qi/projects/xmc4700_relax_kit/common/Libraries/XMCLib/src\xmc_dsd.c ****   {
 161:C:/Users/Yushev/git/optiga-trust-qi/projects/xmc4700_relax_kit/common/Libraries/XMCLib/src\xmc_dsd.c ****     status = false;
 162:C:/Users/Yushev/git/optiga-trust-qi/projects/xmc4700_relax_kit/common/Libraries/XMCLib/src\xmc_dsd.c ****   }
 163:C:/Users/Yushev/git/optiga-trust-qi/projects/xmc4700_relax_kit/common/Libraries/XMCLib/src\xmc_dsd.c ****   #endif
 164:C:/Users/Yushev/git/optiga-trust-qi/projects/xmc4700_relax_kit/common/Libraries/XMCLib/src\xmc_dsd.c ****   
 165:C:/Users/Yushev/git/optiga-trust-qi/projects/xmc4700_relax_kit/common/Libraries/XMCLib/src\xmc_dsd.c ****   return (status);
 166:C:/Users/Yushev/git/optiga-trust-qi/projects/xmc4700_relax_kit/common/Libraries/XMCLib/src\xmc_dsd.c **** }
 219              	 .loc 1 166 0
 220 001a 08BD     	 pop {r3,pc}
 221              	 .cfi_endproc
 222              	.LFE192:
 224              	 .section .text.XMC_DSD_Generator_Init,"ax",%progbits
 225              	 .align 1
 226              	 .global XMC_DSD_Generator_Init
 227              	 .thumb
 228              	 .thumb_func
 230              	XMC_DSD_Generator_Init:
 231              	.LFB193:
 167:C:/Users/Yushev/git/optiga-trust-qi/projects/xmc4700_relax_kit/common/Libraries/XMCLib/src\xmc_dsd.c **** 
 168:C:/Users/Yushev/git/optiga-trust-qi/projects/xmc4700_relax_kit/common/Libraries/XMCLib/src\xmc_dsd.c **** /*Initializes the Waveform Generator*/
 169:C:/Users/Yushev/git/optiga-trust-qi/projects/xmc4700_relax_kit/common/Libraries/XMCLib/src\xmc_dsd.c **** void XMC_DSD_Generator_Init(XMC_DSD_t *const dsd, const XMC_DSD_GENERATOR_CONFIG_t *const config)
 170:C:/Users/Yushev/git/optiga-trust-qi/projects/xmc4700_relax_kit/common/Libraries/XMCLib/src\xmc_dsd.c **** {
 232              	 .loc 1 170 0
 233              	 .cfi_startproc
 234              	 
 235              	 
 236              	 
 237              	.LVL19:
 171:C:/Users/Yushev/git/optiga-trust-qi/projects/xmc4700_relax_kit/common/Libraries/XMCLib/src\xmc_dsd.c ****   XMC_ASSERT("XMC_DSD_GENERATOR_Init:Invalid module pointer", XMC_DSD_CHECK_MODULE_PTR(dsd));
 172:C:/Users/Yushev/git/optiga-trust-qi/projects/xmc4700_relax_kit/common/Libraries/XMCLib/src\xmc_dsd.c ****   XMC_ASSERT("XMC_DSD_GENERATOR_Init:NULL Pointer", (config != (XMC_DSD_GENERATOR_CONFIG_t *)NULL) 
 173:C:/Users/Yushev/git/optiga-trust-qi/projects/xmc4700_relax_kit/common/Libraries/XMCLib/src\xmc_dsd.c ****   /* Reset Generator */
 174:C:/Users/Yushev/git/optiga-trust-qi/projects/xmc4700_relax_kit/common/Libraries/XMCLib/src\xmc_dsd.c ****   dsd ->CGCFG &= ~((uint32_t)DSD_CGCFG_CGMOD_Msk | (uint32_t)DSD_CGCFG_BREV_Msk | (uint32_t)DSD_CGC
 238              	 .loc 1 174 0
 239 0000 D0F8A030 	 ldr r3,[r0,#160]
 240 0004 23F0FF03 	 bic r3,r3,#255
 241 0008 C0F8A030 	 str r3,[r0,#160]
 175:C:/Users/Yushev/git/optiga-trust-qi/projects/xmc4700_relax_kit/common/Libraries/XMCLib/src\xmc_dsd.c **** 
 176:C:/Users/Yushev/git/optiga-trust-qi/projects/xmc4700_relax_kit/common/Libraries/XMCLib/src\xmc_dsd.c ****   /* Generator configuration */
 177:C:/Users/Yushev/git/optiga-trust-qi/projects/xmc4700_relax_kit/common/Libraries/XMCLib/src\xmc_dsd.c ****   dsd ->CGCFG = config->generator_conf;
 242              	 .loc 1 177 0
 243 000c 0B68     	 ldr r3,[r1]
 244 000e C0F8A030 	 str r3,[r0,#160]
 245 0012 7047     	 bx lr
 246              	 .cfi_endproc
 247              	.LFE193:
 249              	 .section .text.XMC_DSD_CH_MainFilter_Init,"ax",%progbits
 250              	 .align 1
 251              	 .global XMC_DSD_CH_MainFilter_Init
 252              	 .thumb
 253              	 .thumb_func
 255              	XMC_DSD_CH_MainFilter_Init:
 256              	.LFB195:
 178:C:/Users/Yushev/git/optiga-trust-qi/projects/xmc4700_relax_kit/common/Libraries/XMCLib/src\xmc_dsd.c **** }
 179:C:/Users/Yushev/git/optiga-trust-qi/projects/xmc4700_relax_kit/common/Libraries/XMCLib/src\xmc_dsd.c **** 
 180:C:/Users/Yushev/git/optiga-trust-qi/projects/xmc4700_relax_kit/common/Libraries/XMCLib/src\xmc_dsd.c **** /* Initialize main filter,auxiliary filter,integrator, rectifier and timestamp of DSD*/
 181:C:/Users/Yushev/git/optiga-trust-qi/projects/xmc4700_relax_kit/common/Libraries/XMCLib/src\xmc_dsd.c **** XMC_DSD_STATUS_t XMC_DSD_CH_Init( XMC_DSD_CH_t *const channel, const XMC_DSD_CH_CONFIG_t *const con
 182:C:/Users/Yushev/git/optiga-trust-qi/projects/xmc4700_relax_kit/common/Libraries/XMCLib/src\xmc_dsd.c **** {
 183:C:/Users/Yushev/git/optiga-trust-qi/projects/xmc4700_relax_kit/common/Libraries/XMCLib/src\xmc_dsd.c ****   XMC_DSD_STATUS_t status;
 184:C:/Users/Yushev/git/optiga-trust-qi/projects/xmc4700_relax_kit/common/Libraries/XMCLib/src\xmc_dsd.c **** 
 185:C:/Users/Yushev/git/optiga-trust-qi/projects/xmc4700_relax_kit/common/Libraries/XMCLib/src\xmc_dsd.c ****   XMC_ASSERT("XMC_DSD_CH_Init:Invalid module pointer", XMC_DSD_CHECK_CHANNEL_PTR(channel));
 186:C:/Users/Yushev/git/optiga-trust-qi/projects/xmc4700_relax_kit/common/Libraries/XMCLib/src\xmc_dsd.c ****   XMC_ASSERT("XMC_DSD_CH_Init:NULL Pointer", (config != (XMC_DSD_CH_CONFIG_t *)NULL) );
 187:C:/Users/Yushev/git/optiga-trust-qi/projects/xmc4700_relax_kit/common/Libraries/XMCLib/src\xmc_dsd.c **** 
 188:C:/Users/Yushev/git/optiga-trust-qi/projects/xmc4700_relax_kit/common/Libraries/XMCLib/src\xmc_dsd.c ****   if (config->filter != (XMC_DSD_CH_FILTER_CONFIG_t*)NULL)
 189:C:/Users/Yushev/git/optiga-trust-qi/projects/xmc4700_relax_kit/common/Libraries/XMCLib/src\xmc_dsd.c ****   {
 190:C:/Users/Yushev/git/optiga-trust-qi/projects/xmc4700_relax_kit/common/Libraries/XMCLib/src\xmc_dsd.c ****     XMC_DSD_CH_MainFilter_Init(channel, config->filter);
 191:C:/Users/Yushev/git/optiga-trust-qi/projects/xmc4700_relax_kit/common/Libraries/XMCLib/src\xmc_dsd.c **** 
 192:C:/Users/Yushev/git/optiga-trust-qi/projects/xmc4700_relax_kit/common/Libraries/XMCLib/src\xmc_dsd.c ****     if (config->aux != (XMC_DSD_CH_AUX_FILTER_CONFIG_t*)NULL)
 193:C:/Users/Yushev/git/optiga-trust-qi/projects/xmc4700_relax_kit/common/Libraries/XMCLib/src\xmc_dsd.c ****     {
 194:C:/Users/Yushev/git/optiga-trust-qi/projects/xmc4700_relax_kit/common/Libraries/XMCLib/src\xmc_dsd.c ****       XMC_DSD_CH_AuxFilter_Init(channel, config->aux);
 195:C:/Users/Yushev/git/optiga-trust-qi/projects/xmc4700_relax_kit/common/Libraries/XMCLib/src\xmc_dsd.c ****     }
 196:C:/Users/Yushev/git/optiga-trust-qi/projects/xmc4700_relax_kit/common/Libraries/XMCLib/src\xmc_dsd.c ****     if (config->integrator != (XMC_DSD_CH_INTEGRATOR_CONFIG_t*)NULL)
 197:C:/Users/Yushev/git/optiga-trust-qi/projects/xmc4700_relax_kit/common/Libraries/XMCLib/src\xmc_dsd.c ****     {
 198:C:/Users/Yushev/git/optiga-trust-qi/projects/xmc4700_relax_kit/common/Libraries/XMCLib/src\xmc_dsd.c ****       XMC_DSD_CH_Integrator_Init(channel, config->integrator);
 199:C:/Users/Yushev/git/optiga-trust-qi/projects/xmc4700_relax_kit/common/Libraries/XMCLib/src\xmc_dsd.c ****     }
 200:C:/Users/Yushev/git/optiga-trust-qi/projects/xmc4700_relax_kit/common/Libraries/XMCLib/src\xmc_dsd.c ****     if (config->rectify != (XMC_DSD_CH_RECTIFY_CONFIG_t*)NULL)
 201:C:/Users/Yushev/git/optiga-trust-qi/projects/xmc4700_relax_kit/common/Libraries/XMCLib/src\xmc_dsd.c ****     {
 202:C:/Users/Yushev/git/optiga-trust-qi/projects/xmc4700_relax_kit/common/Libraries/XMCLib/src\xmc_dsd.c ****       XMC_DSD_CH_Rectify_Init(channel, config->rectify);
 203:C:/Users/Yushev/git/optiga-trust-qi/projects/xmc4700_relax_kit/common/Libraries/XMCLib/src\xmc_dsd.c ****     }
 204:C:/Users/Yushev/git/optiga-trust-qi/projects/xmc4700_relax_kit/common/Libraries/XMCLib/src\xmc_dsd.c ****     if (config->timestamp != (XMC_DSD_CH_TIMESTAMP_CONFIG_t*)NULL)
 205:C:/Users/Yushev/git/optiga-trust-qi/projects/xmc4700_relax_kit/common/Libraries/XMCLib/src\xmc_dsd.c ****     {
 206:C:/Users/Yushev/git/optiga-trust-qi/projects/xmc4700_relax_kit/common/Libraries/XMCLib/src\xmc_dsd.c ****       XMC_DSD_CH_Timestamp_Init(channel, config->timestamp);
 207:C:/Users/Yushev/git/optiga-trust-qi/projects/xmc4700_relax_kit/common/Libraries/XMCLib/src\xmc_dsd.c ****     }
 208:C:/Users/Yushev/git/optiga-trust-qi/projects/xmc4700_relax_kit/common/Libraries/XMCLib/src\xmc_dsd.c ****     status =  XMC_DSD_STATUS_OK;
 209:C:/Users/Yushev/git/optiga-trust-qi/projects/xmc4700_relax_kit/common/Libraries/XMCLib/src\xmc_dsd.c ****   }
 210:C:/Users/Yushev/git/optiga-trust-qi/projects/xmc4700_relax_kit/common/Libraries/XMCLib/src\xmc_dsd.c ****   else
 211:C:/Users/Yushev/git/optiga-trust-qi/projects/xmc4700_relax_kit/common/Libraries/XMCLib/src\xmc_dsd.c ****   {
 212:C:/Users/Yushev/git/optiga-trust-qi/projects/xmc4700_relax_kit/common/Libraries/XMCLib/src\xmc_dsd.c ****     status =  XMC_DSD_STATUS_ERROR;
 213:C:/Users/Yushev/git/optiga-trust-qi/projects/xmc4700_relax_kit/common/Libraries/XMCLib/src\xmc_dsd.c ****   }
 214:C:/Users/Yushev/git/optiga-trust-qi/projects/xmc4700_relax_kit/common/Libraries/XMCLib/src\xmc_dsd.c ****   return (status);
 215:C:/Users/Yushev/git/optiga-trust-qi/projects/xmc4700_relax_kit/common/Libraries/XMCLib/src\xmc_dsd.c **** 
 216:C:/Users/Yushev/git/optiga-trust-qi/projects/xmc4700_relax_kit/common/Libraries/XMCLib/src\xmc_dsd.c **** }
 217:C:/Users/Yushev/git/optiga-trust-qi/projects/xmc4700_relax_kit/common/Libraries/XMCLib/src\xmc_dsd.c **** 
 218:C:/Users/Yushev/git/optiga-trust-qi/projects/xmc4700_relax_kit/common/Libraries/XMCLib/src\xmc_dsd.c **** /* Initialize main filter of DSD */
 219:C:/Users/Yushev/git/optiga-trust-qi/projects/xmc4700_relax_kit/common/Libraries/XMCLib/src\xmc_dsd.c **** void XMC_DSD_CH_MainFilter_Init(XMC_DSD_CH_t *const channel, const XMC_DSD_CH_FILTER_CONFIG_t *cons
 220:C:/Users/Yushev/git/optiga-trust-qi/projects/xmc4700_relax_kit/common/Libraries/XMCLib/src\xmc_dsd.c **** {
 257              	 .loc 1 220 0
 258              	 .cfi_startproc
 259              	 
 260              	 
 261              	 
 262              	.LVL20:
 221:C:/Users/Yushev/git/optiga-trust-qi/projects/xmc4700_relax_kit/common/Libraries/XMCLib/src\xmc_dsd.c ****   uint32_t decimation_factor_temp;
 222:C:/Users/Yushev/git/optiga-trust-qi/projects/xmc4700_relax_kit/common/Libraries/XMCLib/src\xmc_dsd.c ****   uint32_t filter_start_value_temp;
 223:C:/Users/Yushev/git/optiga-trust-qi/projects/xmc4700_relax_kit/common/Libraries/XMCLib/src\xmc_dsd.c **** 
 224:C:/Users/Yushev/git/optiga-trust-qi/projects/xmc4700_relax_kit/common/Libraries/XMCLib/src\xmc_dsd.c ****   XMC_ASSERT("XMC_DSD_MAIN_FILTER_Init:Invalid module pointer", XMC_DSD_CHECK_CHANNEL_PTR(channel))
 225:C:/Users/Yushev/git/optiga-trust-qi/projects/xmc4700_relax_kit/common/Libraries/XMCLib/src\xmc_dsd.c ****   XMC_ASSERT("XMC_DSD_MAIN_FILTER_Init:NULL Pointer", (config != (XMC_DSD_CH_FILTER_CONFIG_t *)NULL
 226:C:/Users/Yushev/git/optiga-trust-qi/projects/xmc4700_relax_kit/common/Libraries/XMCLib/src\xmc_dsd.c ****   XMC_ASSERT("XMC_DSD_MAIN_FILTER_Init:Invalid Filter Start Value", (config->filter_start_value >= 
 227:C:/Users/Yushev/git/optiga-trust-qi/projects/xmc4700_relax_kit/common/Libraries/XMCLib/src\xmc_dsd.c ****   XMC_ASSERT("XMC_DSD_MAIN_FILTER_Init:Invalid Filter Start Value", (config->filter_start_value <= 
 228:C:/Users/Yushev/git/optiga-trust-qi/projects/xmc4700_relax_kit/common/Libraries/XMCLib/src\xmc_dsd.c ****   XMC_ASSERT("XMC_DSD_MAIN_FILTER_Init:Invalid Decimation Factor",
 229:C:/Users/Yushev/git/optiga-trust-qi/projects/xmc4700_relax_kit/common/Libraries/XMCLib/src\xmc_dsd.c ****       ((config->decimation_factor >= XMC_DSD_MIN_DECIMATION_FACTOR) && (config->decimation_factor <
 230:C:/Users/Yushev/git/optiga-trust-qi/projects/xmc4700_relax_kit/common/Libraries/XMCLib/src\xmc_dsd.c ****   XMC_ASSERT("XMC_DSD_MAIN_FILTER_Init:Invalid divider",(((uint32_t)config->clock_divider <= XMC_DS
 231:C:/Users/Yushev/git/optiga-trust-qi/projects/xmc4700_relax_kit/common/Libraries/XMCLib/src\xmc_dsd.c **** 
 232:C:/Users/Yushev/git/optiga-trust-qi/projects/xmc4700_relax_kit/common/Libraries/XMCLib/src\xmc_dsd.c ****   /*Set Channel frequency*/
 233:C:/Users/Yushev/git/optiga-trust-qi/projects/xmc4700_relax_kit/common/Libraries/XMCLib/src\xmc_dsd.c ****   channel->MODCFG = ((uint32_t)config->clock_divider << DSD_CH_MODCFG_DIVM_Pos) | (uint32_t)DSD_CH_
 263              	 .loc 1 233 0
 264 0000 0B78     	 ldrb r3,[r1]
 265 0002 03F00F03 	 and r3,r3,#15
 266 0006 1B04     	 lsls r3,r3,#16
 267 0008 43F40003 	 orr r3,r3,#8388608
 268 000c 0360     	 str r3,[r0]
 234:C:/Users/Yushev/git/optiga-trust-qi/projects/xmc4700_relax_kit/common/Libraries/XMCLib/src\xmc_dsd.c **** 
 235:C:/Users/Yushev/git/optiga-trust-qi/projects/xmc4700_relax_kit/common/Libraries/XMCLib/src\xmc_dsd.c ****   /* Input Data/Clk */
 236:C:/Users/Yushev/git/optiga-trust-qi/projects/xmc4700_relax_kit/common/Libraries/XMCLib/src\xmc_dsd.c ****   channel->DICFG = config->demodulator_conf | (uint32_t)DSD_CH_DICFG_DSWC_Msk | (uint32_t)DSD_CH_DI
 269              	 .loc 1 236 0
 270 000e 4B68     	 ldr r3,[r1,#4]
 271 0010 43F00043 	 orr r3,r3,#-2147483648
 272 0014 43F08003 	 orr r3,r3,#128
 273 0018 8360     	 str r3,[r0,#8]
 274              	.LVL21:
 275 001a 8B68     	 ldr r3,[r1,#8]
 276 001c 43F48062 	 orr r2,r3,#1024
 237:C:/Users/Yushev/git/optiga-trust-qi/projects/xmc4700_relax_kit/common/Libraries/XMCLib/src\xmc_dsd.c **** 
 238:C:/Users/Yushev/git/optiga-trust-qi/projects/xmc4700_relax_kit/common/Libraries/XMCLib/src\xmc_dsd.c ****   /*The decimation factor of the Main CIC filter is CFMDF + 1.*/
 239:C:/Users/Yushev/git/optiga-trust-qi/projects/xmc4700_relax_kit/common/Libraries/XMCLib/src\xmc_dsd.c ****   decimation_factor_temp = config->decimation_factor-1U;
 277              	 .loc 1 239 0
 278 0020 CB68     	 ldr r3,[r1,#12]
 279 0022 013B     	 subs r3,r3,#1
 280              	.LVL22:
 281 0024 1A43     	 orrs r2,r2,r3
 240:C:/Users/Yushev/git/optiga-trust-qi/projects/xmc4700_relax_kit/common/Libraries/XMCLib/src\xmc_dsd.c ****   filter_start_value_temp = config->filter_start_value-1U;
 282              	 .loc 1 240 0
 283 0026 0B69     	 ldr r3,[r1,#16]
 284              	.LVL23:
 285 0028 013B     	 subs r3,r3,#1
 286              	.LVL24:
 241:C:/Users/Yushev/git/optiga-trust-qi/projects/xmc4700_relax_kit/common/Libraries/XMCLib/src\xmc_dsd.c **** 
 242:C:/Users/Yushev/git/optiga-trust-qi/projects/xmc4700_relax_kit/common/Libraries/XMCLib/src\xmc_dsd.c ****   /* Filter setup*/
 243:C:/Users/Yushev/git/optiga-trust-qi/projects/xmc4700_relax_kit/common/Libraries/XMCLib/src\xmc_dsd.c ****   channel->FCFGC = (decimation_factor_temp |
 244:C:/Users/Yushev/git/optiga-trust-qi/projects/xmc4700_relax_kit/common/Libraries/XMCLib/src\xmc_dsd.c **** 		  (filter_start_value_temp << (uint32_t)DSD_CH_FCFGC_CFMSV_Pos)|
 245:C:/Users/Yushev/git/optiga-trust-qi/projects/xmc4700_relax_kit/common/Libraries/XMCLib/src\xmc_dsd.c **** 		  config->main_filter_conf|
 287              	 .loc 1 245 0
 288 002a 42EA0343 	 orr r3,r2,r3,lsl#16
 289              	.LVL25:
 243:C:/Users/Yushev/git/optiga-trust-qi/projects/xmc4700_relax_kit/common/Libraries/XMCLib/src\xmc_dsd.c **** 		  (filter_start_value_temp << (uint32_t)DSD_CH_FCFGC_CFMSV_Pos)|
 290              	 .loc 1 243 0
 291 002e 4361     	 str r3,[r0,#20]
 292              	.LVL26:
 246:C:/Users/Yushev/git/optiga-trust-qi/projects/xmc4700_relax_kit/common/Libraries/XMCLib/src\xmc_dsd.c **** 		  (uint32_t)DSD_CH_FCFGC_CFEN_Msk);
 247:C:/Users/Yushev/git/optiga-trust-qi/projects/xmc4700_relax_kit/common/Libraries/XMCLib/src\xmc_dsd.c **** 
 248:C:/Users/Yushev/git/optiga-trust-qi/projects/xmc4700_relax_kit/common/Libraries/XMCLib/src\xmc_dsd.c ****   /* Offset */
 249:C:/Users/Yushev/git/optiga-trust-qi/projects/xmc4700_relax_kit/common/Libraries/XMCLib/src\xmc_dsd.c ****   channel->OFFM = (uint16_t)config->offset;
 293              	 .loc 1 249 0
 294 0030 4B88     	 ldrh r3,[r1,#2]
 295 0032 8363     	 str r3,[r0,#56]
 296 0034 7047     	 bx lr
 297              	 .cfi_endproc
 298              	.LFE195:
 300              	 .section .text.XMC_DSD_CH_Timestamp_Init,"ax",%progbits
 301              	 .align 1
 302              	 .global XMC_DSD_CH_Timestamp_Init
 303              	 .thumb
 304              	 .thumb_func
 306              	XMC_DSD_CH_Timestamp_Init:
 307              	.LFB196:
 250:C:/Users/Yushev/git/optiga-trust-qi/projects/xmc4700_relax_kit/common/Libraries/XMCLib/src\xmc_dsd.c **** }
 251:C:/Users/Yushev/git/optiga-trust-qi/projects/xmc4700_relax_kit/common/Libraries/XMCLib/src\xmc_dsd.c **** 
 252:C:/Users/Yushev/git/optiga-trust-qi/projects/xmc4700_relax_kit/common/Libraries/XMCLib/src\xmc_dsd.c **** /* Initialize timestamp mode of DSD */
 253:C:/Users/Yushev/git/optiga-trust-qi/projects/xmc4700_relax_kit/common/Libraries/XMCLib/src\xmc_dsd.c **** void XMC_DSD_CH_Timestamp_Init(XMC_DSD_CH_t *const channel, const XMC_DSD_CH_TIMESTAMP_CONFIG_t *co
 254:C:/Users/Yushev/git/optiga-trust-qi/projects/xmc4700_relax_kit/common/Libraries/XMCLib/src\xmc_dsd.c **** {
 308              	 .loc 1 254 0
 309              	 .cfi_startproc
 310              	 
 311              	 
 312              	 
 313              	.LVL27:
 255:C:/Users/Yushev/git/optiga-trust-qi/projects/xmc4700_relax_kit/common/Libraries/XMCLib/src\xmc_dsd.c ****   uint32_t temp;
 256:C:/Users/Yushev/git/optiga-trust-qi/projects/xmc4700_relax_kit/common/Libraries/XMCLib/src\xmc_dsd.c ****   XMC_ASSERT("XMC_DSD_MAIN_FILTER_Init:Invalid module pointer", XMC_DSD_CHECK_CHANNEL_PTR(channel))
 257:C:/Users/Yushev/git/optiga-trust-qi/projects/xmc4700_relax_kit/common/Libraries/XMCLib/src\xmc_dsd.c ****   XMC_ASSERT("XMC_DSD_MAIN_FILTER_Init:NULL Pointer", (config != (XMC_DSD_CH_TIMESTAMP_CONFIG_t *)N
 258:C:/Users/Yushev/git/optiga-trust-qi/projects/xmc4700_relax_kit/common/Libraries/XMCLib/src\xmc_dsd.c **** 
 259:C:/Users/Yushev/git/optiga-trust-qi/projects/xmc4700_relax_kit/common/Libraries/XMCLib/src\xmc_dsd.c ****   temp = (channel->DICFG | (uint32_t)DSD_CH_DICFG_TRWC_Msk);
 314              	 .loc 1 259 0
 315 0000 8368     	 ldr r3,[r0,#8]
 316              	.LVL28:
 317 0002 0A68     	 ldr r2,[r1]
 260:C:/Users/Yushev/git/optiga-trust-qi/projects/xmc4700_relax_kit/common/Libraries/XMCLib/src\xmc_dsd.c ****   temp &= ~((uint32_t)DSD_CH_DICFG_TSTRMODE_Msk|(uint32_t)DSD_CH_DICFG_TRSEL_Msk);
 318              	 .loc 1 260 0
 319 0004 23F4F843 	 bic r3,r3,#31744
 320              	.LVL29:
 321 0008 42F40042 	 orr r2,r2,#32768
 261:C:/Users/Yushev/git/optiga-trust-qi/projects/xmc4700_relax_kit/common/Libraries/XMCLib/src\xmc_dsd.c ****   temp |= config->timestamp_conf;
 322              	 .loc 1 261 0
 323 000c 1343     	 orrs r3,r3,r2
 324              	.LVL30:
 262:C:/Users/Yushev/git/optiga-trust-qi/projects/xmc4700_relax_kit/common/Libraries/XMCLib/src\xmc_dsd.c ****   channel->DICFG = temp;
 325              	 .loc 1 262 0
 326 000e 8360     	 str r3,[r0,#8]
 327 0010 7047     	 bx lr
 328              	 .cfi_endproc
 329              	.LFE196:
 331              	 .section .text.XMC_DSD_CH_AuxFilter_Init,"ax",%progbits
 332              	 .align 1
 333              	 .global XMC_DSD_CH_AuxFilter_Init
 334              	 .thumb
 335              	 .thumb_func
 337              	XMC_DSD_CH_AuxFilter_Init:
 338              	.LFB197:
 263:C:/Users/Yushev/git/optiga-trust-qi/projects/xmc4700_relax_kit/common/Libraries/XMCLib/src\xmc_dsd.c **** }
 264:C:/Users/Yushev/git/optiga-trust-qi/projects/xmc4700_relax_kit/common/Libraries/XMCLib/src\xmc_dsd.c **** 
 265:C:/Users/Yushev/git/optiga-trust-qi/projects/xmc4700_relax_kit/common/Libraries/XMCLib/src\xmc_dsd.c **** /* Initialize auxiliary filter of DSD */
 266:C:/Users/Yushev/git/optiga-trust-qi/projects/xmc4700_relax_kit/common/Libraries/XMCLib/src\xmc_dsd.c **** void XMC_DSD_CH_AuxFilter_Init(XMC_DSD_CH_t *const channel, const XMC_DSD_CH_AUX_FILTER_CONFIG_t *c
 267:C:/Users/Yushev/git/optiga-trust-qi/projects/xmc4700_relax_kit/common/Libraries/XMCLib/src\xmc_dsd.c **** {
 339              	 .loc 1 267 0
 340              	 .cfi_startproc
 341              	 
 342              	 
 343              	 
 344              	.LVL31:
 268:C:/Users/Yushev/git/optiga-trust-qi/projects/xmc4700_relax_kit/common/Libraries/XMCLib/src\xmc_dsd.c ****   uint32_t decimation_factor_temp;
 269:C:/Users/Yushev/git/optiga-trust-qi/projects/xmc4700_relax_kit/common/Libraries/XMCLib/src\xmc_dsd.c **** 
 270:C:/Users/Yushev/git/optiga-trust-qi/projects/xmc4700_relax_kit/common/Libraries/XMCLib/src\xmc_dsd.c ****   XMC_ASSERT("XMC_DSD_AUX_FILTER_Init:Invalid module pointer", XMC_DSD_CHECK_CHANNEL_PTR(channel));
 271:C:/Users/Yushev/git/optiga-trust-qi/projects/xmc4700_relax_kit/common/Libraries/XMCLib/src\xmc_dsd.c ****   XMC_ASSERT("XMC_DSD_AUX_FILTER_Init:NULL Pointer", (config != (XMC_DSD_CH_AUX_FILTER_CONFIG_t *)N
 272:C:/Users/Yushev/git/optiga-trust-qi/projects/xmc4700_relax_kit/common/Libraries/XMCLib/src\xmc_dsd.c ****   XMC_ASSERT("XMC_DSD_AUX_FILTER_Init:Invalid Decimation Factor",
 273:C:/Users/Yushev/git/optiga-trust-qi/projects/xmc4700_relax_kit/common/Libraries/XMCLib/src\xmc_dsd.c ****       ((config->decimation_factor >= XMC_DSD_MIN_DECIMATION_FACTOR) && (config->decimation_factor <
 274:C:/Users/Yushev/git/optiga-trust-qi/projects/xmc4700_relax_kit/common/Libraries/XMCLib/src\xmc_dsd.c **** 
 275:C:/Users/Yushev/git/optiga-trust-qi/projects/xmc4700_relax_kit/common/Libraries/XMCLib/src\xmc_dsd.c ****   channel->BOUNDSEL = config->boundary_conf;
 345              	 .loc 1 275 0
 346 0000 4B68     	 ldr r3,[r1,#4]
 347 0002 8362     	 str r3,[r0,#40]
 348              	.LVL32:
 276:C:/Users/Yushev/git/optiga-trust-qi/projects/xmc4700_relax_kit/common/Libraries/XMCLib/src\xmc_dsd.c ****   /*The decimation factor of the Aux CIC filter is CFMDF + 1.*/
 277:C:/Users/Yushev/git/optiga-trust-qi/projects/xmc4700_relax_kit/common/Libraries/XMCLib/src\xmc_dsd.c ****   decimation_factor_temp = config->decimation_factor-1U;
 349              	 .loc 1 277 0
 350 0004 8B68     	 ldr r3,[r1,#8]
 351 0006 5A1E     	 subs r2,r3,#1
 352              	.LVL33:
 278:C:/Users/Yushev/git/optiga-trust-qi/projects/xmc4700_relax_kit/common/Libraries/XMCLib/src\xmc_dsd.c ****   channel->FCFGA = (decimation_factor_temp | config->aux_filter_conf);
 353              	 .loc 1 278 0
 354 0008 0B68     	 ldr r3,[r1]
 355 000a 1343     	 orrs r3,r3,r2
 356 000c 8361     	 str r3,[r0,#24]
 357 000e 7047     	 bx lr
 358              	 .cfi_endproc
 359              	.LFE197:
 361              	 .section .text.XMC_DSD_CH_Integrator_Init,"ax",%progbits
 362              	 .align 1
 363              	 .global XMC_DSD_CH_Integrator_Init
 364              	 .thumb
 365              	 .thumb_func
 367              	XMC_DSD_CH_Integrator_Init:
 368              	.LFB198:
 279:C:/Users/Yushev/git/optiga-trust-qi/projects/xmc4700_relax_kit/common/Libraries/XMCLib/src\xmc_dsd.c **** }
 280:C:/Users/Yushev/git/optiga-trust-qi/projects/xmc4700_relax_kit/common/Libraries/XMCLib/src\xmc_dsd.c **** 
 281:C:/Users/Yushev/git/optiga-trust-qi/projects/xmc4700_relax_kit/common/Libraries/XMCLib/src\xmc_dsd.c **** /* Integrator initialization of DSD */
 282:C:/Users/Yushev/git/optiga-trust-qi/projects/xmc4700_relax_kit/common/Libraries/XMCLib/src\xmc_dsd.c **** void XMC_DSD_CH_Integrator_Init(XMC_DSD_CH_t *const channel, const XMC_DSD_CH_INTEGRATOR_CONFIG_t *
 283:C:/Users/Yushev/git/optiga-trust-qi/projects/xmc4700_relax_kit/common/Libraries/XMCLib/src\xmc_dsd.c **** {
 369              	 .loc 1 283 0
 370              	 .cfi_startproc
 371              	 
 372              	 
 373              	.LVL34:
 284:C:/Users/Yushev/git/optiga-trust-qi/projects/xmc4700_relax_kit/common/Libraries/XMCLib/src\xmc_dsd.c ****   uint32_t temp;
 285:C:/Users/Yushev/git/optiga-trust-qi/projects/xmc4700_relax_kit/common/Libraries/XMCLib/src\xmc_dsd.c ****   XMC_ASSERT("XMC_DSD_INTEGRATOR_Init:Invalid module pointer", XMC_DSD_CHECK_CHANNEL_PTR(channel));
 286:C:/Users/Yushev/git/optiga-trust-qi/projects/xmc4700_relax_kit/common/Libraries/XMCLib/src\xmc_dsd.c ****   XMC_ASSERT("XMC_DSD_INTEGRATOR_Init:NULL Pointer", (config != (XMC_DSD_CH_INTEGRATOR_CONFIG_t *)N
 287:C:/Users/Yushev/git/optiga-trust-qi/projects/xmc4700_relax_kit/common/Libraries/XMCLib/src\xmc_dsd.c ****   XMC_ASSERT("XMC_DSD_INTEGRATOR_Init:Invalid integration_loop", (config->integration_loop > 0U ));
 288:C:/Users/Yushev/git/optiga-trust-qi/projects/xmc4700_relax_kit/common/Libraries/XMCLib/src\xmc_dsd.c ****   XMC_ASSERT("XMC_DSD_INTEGRATOR_Init:Invalid counted_values", (config->counted_values > 0U ));
 289:C:/Users/Yushev/git/optiga-trust-qi/projects/xmc4700_relax_kit/common/Libraries/XMCLib/src\xmc_dsd.c **** 
 290:C:/Users/Yushev/git/optiga-trust-qi/projects/xmc4700_relax_kit/common/Libraries/XMCLib/src\xmc_dsd.c ****   channel->IWCTR = ((config->integration_loop - 1U) << DSD_CH_IWCTR_REPVAL_Pos)
 291:C:/Users/Yushev/git/optiga-trust-qi/projects/xmc4700_relax_kit/common/Libraries/XMCLib/src\xmc_dsd.c ****                    | (config->discarded_values << DSD_CH_IWCTR_NVALDIS_Pos)
 374              	 .loc 1 291 0
 375 0000 8B68     	 ldr r3,[r1,#8]
 292:C:/Users/Yushev/git/optiga-trust-qi/projects/xmc4700_relax_kit/common/Libraries/XMCLib/src\xmc_dsd.c ****                    | (config->stop_condition << DSD_CH_IWCTR_IWS_Pos)
 376              	 .loc 1 292 0
 377 0002 CA68     	 ldr r2,[r1,#12]
 291:C:/Users/Yushev/git/optiga-trust-qi/projects/xmc4700_relax_kit/common/Libraries/XMCLib/src\xmc_dsd.c ****                    | (config->stop_condition << DSD_CH_IWCTR_IWS_Pos)
 378              	 .loc 1 291 0
 379 0004 1B04     	 lsls r3,r3,#16
 283:C:/Users/Yushev/git/optiga-trust-qi/projects/xmc4700_relax_kit/common/Libraries/XMCLib/src\xmc_dsd.c ****   uint32_t temp;
 380              	 .loc 1 283 0
 381 0006 10B5     	 push {r4,lr}
 382              	.LCFI7:
 383              	 .cfi_def_cfa_offset 8
 384              	 .cfi_offset 4,-8
 385              	 .cfi_offset 14,-4
 386 0008 43EAC254 	 orr r4,r3,r2,lsl#23
 290:C:/Users/Yushev/git/optiga-trust-qi/projects/xmc4700_relax_kit/common/Libraries/XMCLib/src\xmc_dsd.c ****                    | (config->discarded_values << DSD_CH_IWCTR_NVALDIS_Pos)
 387              	 .loc 1 290 0
 388 000c 4B68     	 ldr r3,[r1,#4]
 389 000e 013B     	 subs r3,r3,#1
 390              	 .loc 1 292 0
 391 0010 44EA0332 	 orr r2,r4,r3,lsl#12
 293:C:/Users/Yushev/git/optiga-trust-qi/projects/xmc4700_relax_kit/common/Libraries/XMCLib/src\xmc_dsd.c ****                    | ((config->counted_values - 1U) << DSD_CH_IWCTR_NVALINT_Pos);
 392              	 .loc 1 293 0
 393 0014 0B69     	 ldr r3,[r1,#16]
 394 0016 013B     	 subs r3,r3,#1
 395 0018 42EA0363 	 orr r3,r2,r3,lsl#24
 290:C:/Users/Yushev/git/optiga-trust-qi/projects/xmc4700_relax_kit/common/Libraries/XMCLib/src\xmc_dsd.c ****                    | (config->discarded_values << DSD_CH_IWCTR_NVALDIS_Pos)
 396              	 .loc 1 290 0
 397 001c 0362     	 str r3,[r0,#32]
 294:C:/Users/Yushev/git/optiga-trust-qi/projects/xmc4700_relax_kit/common/Libraries/XMCLib/src\xmc_dsd.c **** 
 295:C:/Users/Yushev/git/optiga-trust-qi/projects/xmc4700_relax_kit/common/Libraries/XMCLib/src\xmc_dsd.c ****   /*To ensure proper operation, ensure that bit field ITRMODE is zero before selecting any other tr
 296:C:/Users/Yushev/git/optiga-trust-qi/projects/xmc4700_relax_kit/common/Libraries/XMCLib/src\xmc_dsd.c ****   temp = (channel->DICFG & ~((uint32_t)DSD_CH_DICFG_ITRMODE_Msk|(uint32_t)DSD_CH_DICFG_TRSEL_Msk)) 
 398              	 .loc 1 296 0
 399 001e 8368     	 ldr r3,[r0,#8]
 400 0020 23F47343 	 bic r3,r3,#62208
 401 0024 43F40043 	 orr r3,r3,#32768
 402              	.LVL35:
 297:C:/Users/Yushev/git/optiga-trust-qi/projects/xmc4700_relax_kit/common/Libraries/XMCLib/src\xmc_dsd.c **** 
 298:C:/Users/Yushev/git/optiga-trust-qi/projects/xmc4700_relax_kit/common/Libraries/XMCLib/src\xmc_dsd.c ****   channel->DICFG = temp;
 403              	 .loc 1 298 0
 404 0028 8360     	 str r3,[r0,#8]
 299:C:/Users/Yushev/git/optiga-trust-qi/projects/xmc4700_relax_kit/common/Libraries/XMCLib/src\xmc_dsd.c **** 
 300:C:/Users/Yushev/git/optiga-trust-qi/projects/xmc4700_relax_kit/common/Libraries/XMCLib/src\xmc_dsd.c ****   temp |=  config->integrator_trigger;
 405              	 .loc 1 300 0
 406 002a 0A68     	 ldr r2,[r1]
 407 002c 1343     	 orrs r3,r3,r2
 408              	.LVL36:
 301:C:/Users/Yushev/git/optiga-trust-qi/projects/xmc4700_relax_kit/common/Libraries/XMCLib/src\xmc_dsd.c ****   channel->DICFG = temp;
 409              	 .loc 1 301 0
 410 002e 8360     	 str r3,[r0,#8]
 411 0030 10BD     	 pop {r4,pc}
 412              	 .cfi_endproc
 413              	.LFE198:
 415              	 .section .text.XMC_DSD_CH_Rectify_Init,"ax",%progbits
 416              	 .align 1
 417              	 .global XMC_DSD_CH_Rectify_Init
 418              	 .thumb
 419              	 .thumb_func
 421              	XMC_DSD_CH_Rectify_Init:
 422              	.LFB199:
 302:C:/Users/Yushev/git/optiga-trust-qi/projects/xmc4700_relax_kit/common/Libraries/XMCLib/src\xmc_dsd.c **** }
 303:C:/Users/Yushev/git/optiga-trust-qi/projects/xmc4700_relax_kit/common/Libraries/XMCLib/src\xmc_dsd.c **** 
 304:C:/Users/Yushev/git/optiga-trust-qi/projects/xmc4700_relax_kit/common/Libraries/XMCLib/src\xmc_dsd.c **** /* Rectifier initialization of DSD */
 305:C:/Users/Yushev/git/optiga-trust-qi/projects/xmc4700_relax_kit/common/Libraries/XMCLib/src\xmc_dsd.c **** void XMC_DSD_CH_Rectify_Init(XMC_DSD_CH_t *const channel, const XMC_DSD_CH_RECTIFY_CONFIG_t *const 
 306:C:/Users/Yushev/git/optiga-trust-qi/projects/xmc4700_relax_kit/common/Libraries/XMCLib/src\xmc_dsd.c **** {
 423              	 .loc 1 306 0
 424              	 .cfi_startproc
 425              	 
 426              	 
 427              	 
 428              	.LVL37:
 307:C:/Users/Yushev/git/optiga-trust-qi/projects/xmc4700_relax_kit/common/Libraries/XMCLib/src\xmc_dsd.c ****   XMC_ASSERT("XMC_DSD_RECTIFY_Init:Invalid module pointer", XMC_DSD_CHECK_CHANNEL_PTR(channel));
 308:C:/Users/Yushev/git/optiga-trust-qi/projects/xmc4700_relax_kit/common/Libraries/XMCLib/src\xmc_dsd.c ****   XMC_ASSERT("XMC_DSD_RECTIFY_Init:NULL Pointer", (config != (XMC_DSD_CH_RECTIFY_CONFIG_t *)NULL));
 309:C:/Users/Yushev/git/optiga-trust-qi/projects/xmc4700_relax_kit/common/Libraries/XMCLib/src\xmc_dsd.c ****   XMC_ASSERT("XMC_DSD_RECTIFY_Init:NULL Pointer", (((uint16_t)config->delay + (uint16_t)config->hal
 310:C:/Users/Yushev/git/optiga-trust-qi/projects/xmc4700_relax_kit/common/Libraries/XMCLib/src\xmc_dsd.c **** 
 311:C:/Users/Yushev/git/optiga-trust-qi/projects/xmc4700_relax_kit/common/Libraries/XMCLib/src\xmc_dsd.c ****   channel->RECTCFG = config->rectify_config | (uint32_t)DSD_CH_RECTCFG_RFEN_Msk;
 429              	 .loc 1 311 0
 430 0000 0B68     	 ldr r3,[r1]
 431 0002 43F00103 	 orr r3,r3,#1
 432 0006 C0F8A830 	 str r3,[r0,#168]
 312:C:/Users/Yushev/git/optiga-trust-qi/projects/xmc4700_relax_kit/common/Libraries/XMCLib/src\xmc_dsd.c ****   channel->CGSYNC = (((uint32_t) config->delay << (uint32_t)DSD_CH_CGSYNC_SDPOS_Pos)
 433              	 .loc 1 312 0
 434 000a 0B79     	 ldrb r3,[r1,#4]
 313:C:/Users/Yushev/git/optiga-trust-qi/projects/xmc4700_relax_kit/common/Libraries/XMCLib/src\xmc_dsd.c ****                       | (((uint32_t)config->delay + (uint32_t)config->half_cycle) << (uint32_t)DSD_
 435              	 .loc 1 313 0
 436 000c 4A79     	 ldrb r2,[r1,#5]
 437 000e 1A44     	 add r2,r2,r3
 312:C:/Users/Yushev/git/optiga-trust-qi/projects/xmc4700_relax_kit/common/Libraries/XMCLib/src\xmc_dsd.c ****   channel->CGSYNC = (((uint32_t) config->delay << (uint32_t)DSD_CH_CGSYNC_SDPOS_Pos)
 438              	 .loc 1 312 0
 439 0010 1B04     	 lsls r3,r3,#16
 440              	 .loc 1 313 0
 441 0012 43EA0263 	 orr r3,r3,r2,lsl#24
 312:C:/Users/Yushev/git/optiga-trust-qi/projects/xmc4700_relax_kit/common/Libraries/XMCLib/src\xmc_dsd.c ****   channel->CGSYNC = (((uint32_t) config->delay << (uint32_t)DSD_CH_CGSYNC_SDPOS_Pos)
 442              	 .loc 1 312 0
 443 0016 C0F8A030 	 str r3,[r0,#160]
 444 001a 7047     	 bx lr
 445              	 .cfi_endproc
 446              	.LFE199:
 448              	 .section .text.XMC_DSD_CH_Init,"ax",%progbits
 449              	 .align 1
 450              	 .global XMC_DSD_CH_Init
 451              	 .thumb
 452              	 .thumb_func
 454              	XMC_DSD_CH_Init:
 455              	.LFB194:
 182:C:/Users/Yushev/git/optiga-trust-qi/projects/xmc4700_relax_kit/common/Libraries/XMCLib/src\xmc_dsd.c ****   XMC_DSD_STATUS_t status;
 456              	 .loc 1 182 0
 457              	 .cfi_startproc
 458              	 
 459              	 
 460              	.LVL38:
 461 0000 38B5     	 push {r3,r4,r5,lr}
 462              	.LCFI8:
 463              	 .cfi_def_cfa_offset 16
 464              	 .cfi_offset 3,-16
 465              	 .cfi_offset 4,-12
 466              	 .cfi_offset 5,-8
 467              	 .cfi_offset 14,-4
 182:C:/Users/Yushev/git/optiga-trust-qi/projects/xmc4700_relax_kit/common/Libraries/XMCLib/src\xmc_dsd.c ****   XMC_DSD_STATUS_t status;
 468              	 .loc 1 182 0
 469 0002 0C46     	 mov r4,r1
 188:C:/Users/Yushev/git/optiga-trust-qi/projects/xmc4700_relax_kit/common/Libraries/XMCLib/src\xmc_dsd.c ****   {
 470              	 .loc 1 188 0
 471 0004 0968     	 ldr r1,[r1]
 472              	.LVL39:
 182:C:/Users/Yushev/git/optiga-trust-qi/projects/xmc4700_relax_kit/common/Libraries/XMCLib/src\xmc_dsd.c ****   XMC_DSD_STATUS_t status;
 473              	 .loc 1 182 0
 474 0006 0546     	 mov r5,r0
 188:C:/Users/Yushev/git/optiga-trust-qi/projects/xmc4700_relax_kit/common/Libraries/XMCLib/src\xmc_dsd.c ****   {
 475              	 .loc 1 188 0
 476 0008 B9B1     	 cbz r1,.L21
 190:C:/Users/Yushev/git/optiga-trust-qi/projects/xmc4700_relax_kit/common/Libraries/XMCLib/src\xmc_dsd.c **** 
 477              	 .loc 1 190 0
 478 000a FFF7FEFF 	 bl XMC_DSD_CH_MainFilter_Init
 479              	.LVL40:
 192:C:/Users/Yushev/git/optiga-trust-qi/projects/xmc4700_relax_kit/common/Libraries/XMCLib/src\xmc_dsd.c ****     {
 480              	 .loc 1 192 0
 481 000e E168     	 ldr r1,[r4,#12]
 482 0010 11B1     	 cbz r1,.L18
 194:C:/Users/Yushev/git/optiga-trust-qi/projects/xmc4700_relax_kit/common/Libraries/XMCLib/src\xmc_dsd.c ****     }
 483              	 .loc 1 194 0
 484 0012 2846     	 mov r0,r5
 485 0014 FFF7FEFF 	 bl XMC_DSD_CH_AuxFilter_Init
 486              	.LVL41:
 487              	.L18:
 196:C:/Users/Yushev/git/optiga-trust-qi/projects/xmc4700_relax_kit/common/Libraries/XMCLib/src\xmc_dsd.c ****     {
 488              	 .loc 1 196 0
 489 0018 6168     	 ldr r1,[r4,#4]
 490 001a 11B1     	 cbz r1,.L19
 198:C:/Users/Yushev/git/optiga-trust-qi/projects/xmc4700_relax_kit/common/Libraries/XMCLib/src\xmc_dsd.c ****     }
 491              	 .loc 1 198 0
 492 001c 2846     	 mov r0,r5
 493 001e FFF7FEFF 	 bl XMC_DSD_CH_Integrator_Init
 494              	.LVL42:
 495              	.L19:
 200:C:/Users/Yushev/git/optiga-trust-qi/projects/xmc4700_relax_kit/common/Libraries/XMCLib/src\xmc_dsd.c ****     {
 496              	 .loc 1 200 0
 497 0022 2169     	 ldr r1,[r4,#16]
 498 0024 11B1     	 cbz r1,.L20
 202:C:/Users/Yushev/git/optiga-trust-qi/projects/xmc4700_relax_kit/common/Libraries/XMCLib/src\xmc_dsd.c ****     }
 499              	 .loc 1 202 0
 500 0026 2846     	 mov r0,r5
 501 0028 FFF7FEFF 	 bl XMC_DSD_CH_Rectify_Init
 502              	.LVL43:
 503              	.L20:
 204:C:/Users/Yushev/git/optiga-trust-qi/projects/xmc4700_relax_kit/common/Libraries/XMCLib/src\xmc_dsd.c ****     {
 504              	 .loc 1 204 0
 505 002c A168     	 ldr r1,[r4,#8]
 506 002e 11B1     	 cbz r1,.L32
 206:C:/Users/Yushev/git/optiga-trust-qi/projects/xmc4700_relax_kit/common/Libraries/XMCLib/src\xmc_dsd.c ****     }
 507              	 .loc 1 206 0
 508 0030 2846     	 mov r0,r5
 509 0032 FFF7FEFF 	 bl XMC_DSD_CH_Timestamp_Init
 510              	.LVL44:
 511              	.L32:
 208:C:/Users/Yushev/git/optiga-trust-qi/projects/xmc4700_relax_kit/common/Libraries/XMCLib/src\xmc_dsd.c ****   }
 512              	 .loc 1 208 0
 513 0036 0020     	 movs r0,#0
 514 0038 38BD     	 pop {r3,r4,r5,pc}
 515              	.LVL45:
 516              	.L21:
 212:C:/Users/Yushev/git/optiga-trust-qi/projects/xmc4700_relax_kit/common/Libraries/XMCLib/src\xmc_dsd.c ****   }
 517              	 .loc 1 212 0
 518 003a 0120     	 movs r0,#1
 519              	.LVL46:
 520 003c 38BD     	 pop {r3,r4,r5,pc}
 521              	 .cfi_endproc
 522              	.LFE194:
 524              	 .section .text.XMC_DSD_CH_GetResult_TS,"ax",%progbits
 525              	 .align 1
 526              	 .global XMC_DSD_CH_GetResult_TS
 527              	 .thumb
 528              	 .thumb_func
 530              	XMC_DSD_CH_GetResult_TS:
 531              	.LFB200:
 314:C:/Users/Yushev/git/optiga-trust-qi/projects/xmc4700_relax_kit/common/Libraries/XMCLib/src\xmc_dsd.c **** }
 315:C:/Users/Yushev/git/optiga-trust-qi/projects/xmc4700_relax_kit/common/Libraries/XMCLib/src\xmc_dsd.c **** 
 316:C:/Users/Yushev/git/optiga-trust-qi/projects/xmc4700_relax_kit/common/Libraries/XMCLib/src\xmc_dsd.c **** /* API to get the result of the last conversion */
 317:C:/Users/Yushev/git/optiga-trust-qi/projects/xmc4700_relax_kit/common/Libraries/XMCLib/src\xmc_dsd.c **** void XMC_DSD_CH_GetResult_TS(XMC_DSD_CH_t* const channel,
 318:C:/Users/Yushev/git/optiga-trust-qi/projects/xmc4700_relax_kit/common/Libraries/XMCLib/src\xmc_dsd.c ****                              int16_t* dsd_result,
 319:C:/Users/Yushev/git/optiga-trust-qi/projects/xmc4700_relax_kit/common/Libraries/XMCLib/src\xmc_dsd.c ****                              uint8_t* dsd_filter_count,
 320:C:/Users/Yushev/git/optiga-trust-qi/projects/xmc4700_relax_kit/common/Libraries/XMCLib/src\xmc_dsd.c ****                              uint8_t* dsd_integration_count)
 321:C:/Users/Yushev/git/optiga-trust-qi/projects/xmc4700_relax_kit/common/Libraries/XMCLib/src\xmc_dsd.c **** {
 532              	 .loc 1 321 0
 533              	 .cfi_startproc
 534              	 
 535              	 
 536              	 
 537              	.LVL47:
 322:C:/Users/Yushev/git/optiga-trust-qi/projects/xmc4700_relax_kit/common/Libraries/XMCLib/src\xmc_dsd.c ****   uint32_t timestamp;
 323:C:/Users/Yushev/git/optiga-trust-qi/projects/xmc4700_relax_kit/common/Libraries/XMCLib/src\xmc_dsd.c ****   uint16_t result;
 324:C:/Users/Yushev/git/optiga-trust-qi/projects/xmc4700_relax_kit/common/Libraries/XMCLib/src\xmc_dsd.c **** 
 325:C:/Users/Yushev/git/optiga-trust-qi/projects/xmc4700_relax_kit/common/Libraries/XMCLib/src\xmc_dsd.c ****   timestamp = channel->TSTMP;
 538              	 .loc 1 325 0
 539 0000 006D     	 ldr r0,[r0,#80]
 540              	.LVL48:
 326:C:/Users/Yushev/git/optiga-trust-qi/projects/xmc4700_relax_kit/common/Libraries/XMCLib/src\xmc_dsd.c ****   result = (uint16_t)((uint32_t)timestamp & DSD_CH_TSTMP_RESULT_Msk);
 327:C:/Users/Yushev/git/optiga-trust-qi/projects/xmc4700_relax_kit/common/Libraries/XMCLib/src\xmc_dsd.c ****   *dsd_result = (int16_t)(result);
 541              	 .loc 1 327 0
 542 0002 0880     	 strh r0,[r1]
 328:C:/Users/Yushev/git/optiga-trust-qi/projects/xmc4700_relax_kit/common/Libraries/XMCLib/src\xmc_dsd.c ****   *dsd_filter_count = (uint8_t) ((timestamp & (uint32_t)DSD_CH_TSTMP_CFMDCNT_Msk)>>(uint32_t)DSD_CH
 543              	 .loc 1 328 0
 544 0004 C0F30741 	 ubfx r1,r0,#16,#8
 545              	.LVL49:
 329:C:/Users/Yushev/git/optiga-trust-qi/projects/xmc4700_relax_kit/common/Libraries/XMCLib/src\xmc_dsd.c ****   *dsd_integration_count = (uint8_t) ((timestamp & (uint32_t)DSD_CH_TSTMP_NVALCNT_Msk)>>(uint32_t)D
 546              	 .loc 1 329 0
 547 0008 C0F30560 	 ubfx r0,r0,#24,#6
 548              	.LVL50:
 328:C:/Users/Yushev/git/optiga-trust-qi/projects/xmc4700_relax_kit/common/Libraries/XMCLib/src\xmc_dsd.c ****   *dsd_filter_count = (uint8_t) ((timestamp & (uint32_t)DSD_CH_TSTMP_CFMDCNT_Msk)>>(uint32_t)DSD_CH
 549              	 .loc 1 328 0
 550 000c 1170     	 strb r1,[r2]
 551              	.LVL51:
 552              	 .loc 1 329 0
 553 000e 1870     	 strb r0,[r3]
 554 0010 7047     	 bx lr
 555              	 .cfi_endproc
 556              	.LFE200:
 558              	 .section .text.XMC_DSD_CH_GetResult_TS_Time,"ax",%progbits
 559              	 .align 1
 560              	 .global XMC_DSD_CH_GetResult_TS_Time
 561              	 .thumb
 562              	 .thumb_func
 564              	XMC_DSD_CH_GetResult_TS_Time:
 565              	.LFB201:
 330:C:/Users/Yushev/git/optiga-trust-qi/projects/xmc4700_relax_kit/common/Libraries/XMCLib/src\xmc_dsd.c **** }
 331:C:/Users/Yushev/git/optiga-trust-qi/projects/xmc4700_relax_kit/common/Libraries/XMCLib/src\xmc_dsd.c **** 
 332:C:/Users/Yushev/git/optiga-trust-qi/projects/xmc4700_relax_kit/common/Libraries/XMCLib/src\xmc_dsd.c **** /* API to get the result of the last conversion with the time */
 333:C:/Users/Yushev/git/optiga-trust-qi/projects/xmc4700_relax_kit/common/Libraries/XMCLib/src\xmc_dsd.c **** void XMC_DSD_CH_GetResult_TS_Time(XMC_DSD_CH_t* const channel, int16_t* dsd_Result, uint32_t* time)
 334:C:/Users/Yushev/git/optiga-trust-qi/projects/xmc4700_relax_kit/common/Libraries/XMCLib/src\xmc_dsd.c **** {
 566              	 .loc 1 334 0
 567              	 .cfi_startproc
 568              	 
 569              	 
 570              	.LVL52:
 571 0000 70B5     	 push {r4,r5,r6,lr}
 572              	.LCFI9:
 573              	 .cfi_def_cfa_offset 16
 574              	 .cfi_offset 4,-16
 575              	 .cfi_offset 5,-12
 576              	 .cfi_offset 6,-8
 577              	 .cfi_offset 14,-4
 335:C:/Users/Yushev/git/optiga-trust-qi/projects/xmc4700_relax_kit/common/Libraries/XMCLib/src\xmc_dsd.c ****   uint32_t timestamp;
 336:C:/Users/Yushev/git/optiga-trust-qi/projects/xmc4700_relax_kit/common/Libraries/XMCLib/src\xmc_dsd.c ****   uint16_t filter_count;
 337:C:/Users/Yushev/git/optiga-trust-qi/projects/xmc4700_relax_kit/common/Libraries/XMCLib/src\xmc_dsd.c ****   uint16_t integrator_count;
 338:C:/Users/Yushev/git/optiga-trust-qi/projects/xmc4700_relax_kit/common/Libraries/XMCLib/src\xmc_dsd.c ****   uint16_t decimation;
 339:C:/Users/Yushev/git/optiga-trust-qi/projects/xmc4700_relax_kit/common/Libraries/XMCLib/src\xmc_dsd.c ****   uint16_t result;
 340:C:/Users/Yushev/git/optiga-trust-qi/projects/xmc4700_relax_kit/common/Libraries/XMCLib/src\xmc_dsd.c **** 
 341:C:/Users/Yushev/git/optiga-trust-qi/projects/xmc4700_relax_kit/common/Libraries/XMCLib/src\xmc_dsd.c ****   timestamp = channel->TSTMP;
 578              	 .loc 1 341 0
 579 0002 056D     	 ldr r5,[r0,#80]
 580              	.LVL53:
 342:C:/Users/Yushev/git/optiga-trust-qi/projects/xmc4700_relax_kit/common/Libraries/XMCLib/src\xmc_dsd.c ****   decimation = (uint16_t)(channel->FCFGC & DSD_CH_FCFGC_CFMDF_Msk);
 581              	 .loc 1 342 0
 582 0004 4369     	 ldr r3,[r0,#20]
 583 0006 DCB2     	 uxtb r4,r3
 584              	.LVL54:
 343:C:/Users/Yushev/git/optiga-trust-qi/projects/xmc4700_relax_kit/common/Libraries/XMCLib/src\xmc_dsd.c ****   filter_count = (uint16_t)((timestamp & DSD_CH_TSTMP_CFMDCNT_Msk)>>DSD_CH_TSTMP_CFMDCNT_Pos);
 344:C:/Users/Yushev/git/optiga-trust-qi/projects/xmc4700_relax_kit/common/Libraries/XMCLib/src\xmc_dsd.c **** 
 345:C:/Users/Yushev/git/optiga-trust-qi/projects/xmc4700_relax_kit/common/Libraries/XMCLib/src\xmc_dsd.c ****   /* Integration enabled? */
 346:C:/Users/Yushev/git/optiga-trust-qi/projects/xmc4700_relax_kit/common/Libraries/XMCLib/src\xmc_dsd.c ****   if ((channel->IWCTR & DSD_CH_IWCTR_INTEN_Msk))
 585              	 .loc 1 346 0
 586 0008 036A     	 ldr r3,[r0,#32]
 343:C:/Users/Yushev/git/optiga-trust-qi/projects/xmc4700_relax_kit/common/Libraries/XMCLib/src\xmc_dsd.c ****   filter_count = (uint16_t)((timestamp & DSD_CH_TSTMP_CFMDCNT_Msk)>>DSD_CH_TSTMP_CFMDCNT_Pos);
 587              	 .loc 1 343 0
 588 000a C5F30746 	 ubfx r6,r5,#16,#8
 589              	.LVL55:
 590              	 .loc 1 346 0
 591 000e 13F0800F 	 tst r3,#128
 592 0012 A4EB0600 	 sub r0,r4,r6
 593              	.LVL56:
 594 0016 09D0     	 beq .L35
 347:C:/Users/Yushev/git/optiga-trust-qi/projects/xmc4700_relax_kit/common/Libraries/XMCLib/src\xmc_dsd.c ****   {
 348:C:/Users/Yushev/git/optiga-trust-qi/projects/xmc4700_relax_kit/common/Libraries/XMCLib/src\xmc_dsd.c ****     integrator_count = (uint16_t) ((timestamp & DSD_CH_TSTMP_NVALCNT_Msk)>>DSD_CH_TSTMP_NVALCNT_Pos
 595              	 .loc 1 348 0
 596 0018 C5F30563 	 ubfx r3,r5,#24,#6
 597              	.LVL57:
 349:C:/Users/Yushev/git/optiga-trust-qi/projects/xmc4700_relax_kit/common/Libraries/XMCLib/src\xmc_dsd.c **** 
 350:C:/Users/Yushev/git/optiga-trust-qi/projects/xmc4700_relax_kit/common/Libraries/XMCLib/src\xmc_dsd.c ****     /*See Errata number: xxyy */
 351:C:/Users/Yushev/git/optiga-trust-qi/projects/xmc4700_relax_kit/common/Libraries/XMCLib/src\xmc_dsd.c ****     if (filter_count == decimation)
 598              	 .loc 1 351 0
 599 001c A642     	 cmp r6,r4
 352:C:/Users/Yushev/git/optiga-trust-qi/projects/xmc4700_relax_kit/common/Libraries/XMCLib/src\xmc_dsd.c ****     {
 353:C:/Users/Yushev/git/optiga-trust-qi/projects/xmc4700_relax_kit/common/Libraries/XMCLib/src\xmc_dsd.c ****       integrator_count++;
 600              	 .loc 1 353 0
 601 001e 08BF     	 it eq
 602 0020 0133     	 addeq r3,r3,#1
 603              	.LVL58:
 354:C:/Users/Yushev/git/optiga-trust-qi/projects/xmc4700_relax_kit/common/Libraries/XMCLib/src\xmc_dsd.c ****     }
 355:C:/Users/Yushev/git/optiga-trust-qi/projects/xmc4700_relax_kit/common/Libraries/XMCLib/src\xmc_dsd.c ****     *time = (uint32_t)(((uint32_t) integrator_count * ((uint32_t) decimation + 1U)) + (uint32_t) ((
 604              	 .loc 1 355 0
 605 0022 04FB0333 	 mla r3,r4,r3,r3
 606              	.LVL59:
 607 0026 0344     	 add r3,r3,r0
 608 0028 1360     	 str r3,[r2]
 609 002a 00E0     	 b .L37
 610              	.LVL60:
 611              	.L35:
 356:C:/Users/Yushev/git/optiga-trust-qi/projects/xmc4700_relax_kit/common/Libraries/XMCLib/src\xmc_dsd.c ****   }
 357:C:/Users/Yushev/git/optiga-trust-qi/projects/xmc4700_relax_kit/common/Libraries/XMCLib/src\xmc_dsd.c ****   else
 358:C:/Users/Yushev/git/optiga-trust-qi/projects/xmc4700_relax_kit/common/Libraries/XMCLib/src\xmc_dsd.c ****   {
 359:C:/Users/Yushev/git/optiga-trust-qi/projects/xmc4700_relax_kit/common/Libraries/XMCLib/src\xmc_dsd.c ****     *time = (uint32_t) ((uint32_t)decimation - filter_count);
 612              	 .loc 1 359 0
 613 002c 1060     	 str r0,[r2]
 614              	.L37:
 615              	.LVL61:
 360:C:/Users/Yushev/git/optiga-trust-qi/projects/xmc4700_relax_kit/common/Libraries/XMCLib/src\xmc_dsd.c ****   }
 361:C:/Users/Yushev/git/optiga-trust-qi/projects/xmc4700_relax_kit/common/Libraries/XMCLib/src\xmc_dsd.c ****   result = (uint16_t)((uint32_t)timestamp & DSD_CH_TSTMP_RESULT_Msk);
 362:C:/Users/Yushev/git/optiga-trust-qi/projects/xmc4700_relax_kit/common/Libraries/XMCLib/src\xmc_dsd.c ****   *dsd_Result = (int16_t)(result);
 616              	 .loc 1 362 0
 617 002e 0D80     	 strh r5,[r1]
 618 0030 70BD     	 pop {r4,r5,r6,pc}
 619              	 .cfi_endproc
 620              	.LFE201:
 622              	 .text
 623              	.Letext0:
 624              	 .file 2 "c:\\users\\yushev\\dave_4-4-2_32bit_2018-02-23\\dave-ide-4.4.2-32bit\\eclipse\\arm-gcc-49\\arm-none-eabi\\include\\machine\\_default_types.h"
 625              	 .file 3 "c:\\users\\yushev\\dave_4-4-2_32bit_2018-02-23\\dave-ide-4.4.2-32bit\\eclipse\\arm-gcc-49\\arm-none-eabi\\include\\stdint.h"
 626              	 .file 4 "C:/Users/Yushev/git/optiga-trust-qi/projects/xmc4700_relax_kit/common/Libraries/CMSIS/Infineon/XMC4700_series/Include/XMC4700.h"
 627              	 .file 5 "C:/Users/Yushev/git/optiga-trust-qi/projects/xmc4700_relax_kit/common/Libraries/XMCLib/inc/xmc4_scu.h"
 628              	 .file 6 "C:/Users/Yushev/git/optiga-trust-qi/projects/xmc4700_relax_kit/common/Libraries/XMCLib/inc/xmc_dsd.h"
 629              	 .file 7 "C:/Users/Yushev/git/optiga-trust-qi/projects/xmc4700_relax_kit/common/Libraries/CMSIS/Include/core_cm4.h"
 630              	 .file 8 "C:/Users/Yushev/git/optiga-trust-qi/projects/xmc4700_relax_kit/common/Libraries/CMSIS/Infineon/XMC4700_series/Include/system_XMC4700.h"
 631              	 .file 9 "C:/Users/Yushev/git/optiga-trust-qi/projects/xmc4700_relax_kit/common/Libraries/XMCLib/inc/xmc_scu.h"