   1              	 .syntax unified
   2              	 .cpu cortex-m4
   3              	 .eabi_attribute 27,3
   4              	 .fpu fpv4-sp-d16
   5              	 .eabi_attribute 20,1
   6              	 .eabi_attribute 21,1
   7              	 .eabi_attribute 23,3
   8              	 .eabi_attribute 24,1
   9              	 .eabi_attribute 25,1
  10              	 .eabi_attribute 26,1
  11              	 .eabi_attribute 30,4
  12              	 .eabi_attribute 34,1
  13              	 .eabi_attribute 18,4
  14              	 .thumb
  15              	 .file "xmc_eth_mac.c"
  16              	 .text
  17              	.Ltext0:
  18              	 .cfi_sections .debug_frame
  19              	 .section .text.XMC_ETH_MAC_InitRxDescriptors,"ax",%progbits
  20              	 .align 1
  21              	 .global XMC_ETH_MAC_InitRxDescriptors
  22              	 .thumb
  23              	 .thumb_func
  25              	XMC_ETH_MAC_InitRxDescriptors:
  26              	.LFB229:
  27              	 .file 1 "C:/Users/Yushev/git/optiga-trust-qi/projects/xmc4700_relax_kit/common/Libraries/XMCLib/src/xmc_eth_mac.c"
   1:C:/Users/Yushev/git/optiga-trust-qi/projects/xmc4700_relax_kit/common/Libraries/XMCLib/src\xmc_eth_mac.c **** 
   2:C:/Users/Yushev/git/optiga-trust-qi/projects/xmc4700_relax_kit/common/Libraries/XMCLib/src\xmc_eth_mac.c **** /**
   3:C:/Users/Yushev/git/optiga-trust-qi/projects/xmc4700_relax_kit/common/Libraries/XMCLib/src\xmc_eth_mac.c ****  * @file xmc_eth_mac.c
   4:C:/Users/Yushev/git/optiga-trust-qi/projects/xmc4700_relax_kit/common/Libraries/XMCLib/src\xmc_eth_mac.c ****  * @date 2018-08-08
   5:C:/Users/Yushev/git/optiga-trust-qi/projects/xmc4700_relax_kit/common/Libraries/XMCLib/src\xmc_eth_mac.c ****  *
   6:C:/Users/Yushev/git/optiga-trust-qi/projects/xmc4700_relax_kit/common/Libraries/XMCLib/src\xmc_eth_mac.c ****  * @cond
   7:C:/Users/Yushev/git/optiga-trust-qi/projects/xmc4700_relax_kit/common/Libraries/XMCLib/src\xmc_eth_mac.c ****  **************************************************************************************************
   8:C:/Users/Yushev/git/optiga-trust-qi/projects/xmc4700_relax_kit/common/Libraries/XMCLib/src\xmc_eth_mac.c ****  * XMClib v2.1.20 - XMC Peripheral Driver Library
   9:C:/Users/Yushev/git/optiga-trust-qi/projects/xmc4700_relax_kit/common/Libraries/XMCLib/src\xmc_eth_mac.c ****  *
  10:C:/Users/Yushev/git/optiga-trust-qi/projects/xmc4700_relax_kit/common/Libraries/XMCLib/src\xmc_eth_mac.c ****  * Copyright (c) 2015-2018, Infineon Technologies AG
  11:C:/Users/Yushev/git/optiga-trust-qi/projects/xmc4700_relax_kit/common/Libraries/XMCLib/src\xmc_eth_mac.c ****  * All rights reserved.                        
  12:C:/Users/Yushev/git/optiga-trust-qi/projects/xmc4700_relax_kit/common/Libraries/XMCLib/src\xmc_eth_mac.c ****  *                                             
  13:C:/Users/Yushev/git/optiga-trust-qi/projects/xmc4700_relax_kit/common/Libraries/XMCLib/src\xmc_eth_mac.c ****  * Redistribution and use in source and binary forms, with or without modification,are permitted pr
  14:C:/Users/Yushev/git/optiga-trust-qi/projects/xmc4700_relax_kit/common/Libraries/XMCLib/src\xmc_eth_mac.c ****  * following conditions are met:   
  15:C:/Users/Yushev/git/optiga-trust-qi/projects/xmc4700_relax_kit/common/Libraries/XMCLib/src\xmc_eth_mac.c ****  *                                                                              
  16:C:/Users/Yushev/git/optiga-trust-qi/projects/xmc4700_relax_kit/common/Libraries/XMCLib/src\xmc_eth_mac.c ****  * Redistributions of source code must retain the above copyright notice, this list of conditions a
  17:C:/Users/Yushev/git/optiga-trust-qi/projects/xmc4700_relax_kit/common/Libraries/XMCLib/src\xmc_eth_mac.c ****  * disclaimer.                        
  18:C:/Users/Yushev/git/optiga-trust-qi/projects/xmc4700_relax_kit/common/Libraries/XMCLib/src\xmc_eth_mac.c ****  * 
  19:C:/Users/Yushev/git/optiga-trust-qi/projects/xmc4700_relax_kit/common/Libraries/XMCLib/src\xmc_eth_mac.c ****  * Redistributions in binary form must reproduce the above copyright notice, this list of condition
  20:C:/Users/Yushev/git/optiga-trust-qi/projects/xmc4700_relax_kit/common/Libraries/XMCLib/src\xmc_eth_mac.c ****  * disclaimer in the documentation and/or other materials provided with the distribution.
  21:C:/Users/Yushev/git/optiga-trust-qi/projects/xmc4700_relax_kit/common/Libraries/XMCLib/src\xmc_eth_mac.c ****  * 
  22:C:/Users/Yushev/git/optiga-trust-qi/projects/xmc4700_relax_kit/common/Libraries/XMCLib/src\xmc_eth_mac.c ****  * Neither the name of the copyright holders nor the names of its contributors may be used to endor
  23:C:/Users/Yushev/git/optiga-trust-qi/projects/xmc4700_relax_kit/common/Libraries/XMCLib/src\xmc_eth_mac.c ****  * products derived from this software without specific prior written permission.                  
  24:C:/Users/Yushev/git/optiga-trust-qi/projects/xmc4700_relax_kit/common/Libraries/XMCLib/src\xmc_eth_mac.c ****  *                                                                              
  25:C:/Users/Yushev/git/optiga-trust-qi/projects/xmc4700_relax_kit/common/Libraries/XMCLib/src\xmc_eth_mac.c ****  * THIS SOFTWARE IS PROVIDED BY THE COPYRIGHT HOLDERS AND CONTRIBUTORS "AS IS" AND ANY EXPRESS OR I
  26:C:/Users/Yushev/git/optiga-trust-qi/projects/xmc4700_relax_kit/common/Libraries/XMCLib/src\xmc_eth_mac.c ****  * INCLUDING, BUT NOT LIMITED TO, THE IMPLIED WARRANTIES OF MERCHANTABILITY AND FITNESS FOR A PARTI
  27:C:/Users/Yushev/git/optiga-trust-qi/projects/xmc4700_relax_kit/common/Libraries/XMCLib/src\xmc_eth_mac.c ****  * DISCLAIMED. IN NO EVENT SHALL THE COPYRIGHT HOLDER OR CONTRIBUTORS BE LIABLE  FOR ANY DIRECT, IN
  28:C:/Users/Yushev/git/optiga-trust-qi/projects/xmc4700_relax_kit/common/Libraries/XMCLib/src\xmc_eth_mac.c ****  * SPECIAL, EXEMPLARY, OR CONSEQUENTIAL DAMAGES (INCLUDING, BUT NOT LIMITED TO, PROCUREMENT OF SUBS
  29:C:/Users/Yushev/git/optiga-trust-qi/projects/xmc4700_relax_kit/common/Libraries/XMCLib/src\xmc_eth_mac.c ****  * SERVICES; LOSS OF USE, DATA, OR PROFITS; OR BUSINESS INTERRUPTION) HOWEVER CAUSED AND ON ANY THE
  30:C:/Users/Yushev/git/optiga-trust-qi/projects/xmc4700_relax_kit/common/Libraries/XMCLib/src\xmc_eth_mac.c ****  * WHETHER IN CONTRACT, STRICT LIABILITY,OR TORT (INCLUDING NEGLIGENCE OR OTHERWISE) ARISING IN ANY
  31:C:/Users/Yushev/git/optiga-trust-qi/projects/xmc4700_relax_kit/common/Libraries/XMCLib/src\xmc_eth_mac.c ****  * OF THIS SOFTWARE, EVEN IF ADVISED OF THE POSSIBILITY OF SUCH DAMAGE.                            
  32:C:/Users/Yushev/git/optiga-trust-qi/projects/xmc4700_relax_kit/common/Libraries/XMCLib/src\xmc_eth_mac.c ****  *                                                                              
  33:C:/Users/Yushev/git/optiga-trust-qi/projects/xmc4700_relax_kit/common/Libraries/XMCLib/src\xmc_eth_mac.c ****  * To improve the quality of the software, users are encouraged to share modifications, enhancement
  34:C:/Users/Yushev/git/optiga-trust-qi/projects/xmc4700_relax_kit/common/Libraries/XMCLib/src\xmc_eth_mac.c ****  * Infineon Technologies AG dave@infineon.com).                                                    
  35:C:/Users/Yushev/git/optiga-trust-qi/projects/xmc4700_relax_kit/common/Libraries/XMCLib/src\xmc_eth_mac.c ****  **************************************************************************************************
  36:C:/Users/Yushev/git/optiga-trust-qi/projects/xmc4700_relax_kit/common/Libraries/XMCLib/src\xmc_eth_mac.c ****  *
  37:C:/Users/Yushev/git/optiga-trust-qi/projects/xmc4700_relax_kit/common/Libraries/XMCLib/src\xmc_eth_mac.c ****  * Change History
  38:C:/Users/Yushev/git/optiga-trust-qi/projects/xmc4700_relax_kit/common/Libraries/XMCLib/src\xmc_eth_mac.c ****  * --------------
  39:C:/Users/Yushev/git/optiga-trust-qi/projects/xmc4700_relax_kit/common/Libraries/XMCLib/src\xmc_eth_mac.c ****  *
  40:C:/Users/Yushev/git/optiga-trust-qi/projects/xmc4700_relax_kit/common/Libraries/XMCLib/src\xmc_eth_mac.c ****  * 2015-06-20:
  41:C:/Users/Yushev/git/optiga-trust-qi/projects/xmc4700_relax_kit/common/Libraries/XMCLib/src\xmc_eth_mac.c ****  *     - Initial
  42:C:/Users/Yushev/git/optiga-trust-qi/projects/xmc4700_relax_kit/common/Libraries/XMCLib/src\xmc_eth_mac.c ****  *
  43:C:/Users/Yushev/git/optiga-trust-qi/projects/xmc4700_relax_kit/common/Libraries/XMCLib/src\xmc_eth_mac.c ****  * 2015-09-01:
  44:C:/Users/Yushev/git/optiga-trust-qi/projects/xmc4700_relax_kit/common/Libraries/XMCLib/src\xmc_eth_mac.c ****  *     - Add clock gating control in enable/disable APIs
  45:C:/Users/Yushev/git/optiga-trust-qi/projects/xmc4700_relax_kit/common/Libraries/XMCLib/src\xmc_eth_mac.c ****  *     - Add transmit polling if run out of buffers
  46:C:/Users/Yushev/git/optiga-trust-qi/projects/xmc4700_relax_kit/common/Libraries/XMCLib/src\xmc_eth_mac.c ****  *
  47:C:/Users/Yushev/git/optiga-trust-qi/projects/xmc4700_relax_kit/common/Libraries/XMCLib/src\xmc_eth_mac.c ****  * 2015-11-30:
  48:C:/Users/Yushev/git/optiga-trust-qi/projects/xmc4700_relax_kit/common/Libraries/XMCLib/src\xmc_eth_mac.c ****  *     - Fix XMC_ETH_MAC_GetRxFrameSize return value in case of errors
  49:C:/Users/Yushev/git/optiga-trust-qi/projects/xmc4700_relax_kit/common/Libraries/XMCLib/src\xmc_eth_mac.c ****  *
  50:C:/Users/Yushev/git/optiga-trust-qi/projects/xmc4700_relax_kit/common/Libraries/XMCLib/src\xmc_eth_mac.c ****  * 2016-03-16:
  51:C:/Users/Yushev/git/optiga-trust-qi/projects/xmc4700_relax_kit/common/Libraries/XMCLib/src\xmc_eth_mac.c ****  *     - Fix XMC_ETH_MAC_DisableEvent
  52:C:/Users/Yushev/git/optiga-trust-qi/projects/xmc4700_relax_kit/common/Libraries/XMCLib/src\xmc_eth_mac.c ****  *
  53:C:/Users/Yushev/git/optiga-trust-qi/projects/xmc4700_relax_kit/common/Libraries/XMCLib/src\xmc_eth_mac.c ****  * 2016-05-19:
  54:C:/Users/Yushev/git/optiga-trust-qi/projects/xmc4700_relax_kit/common/Libraries/XMCLib/src\xmc_eth_mac.c ****  *     - Changed XMC_ETH_MAC_ReturnTxDescriptor and XMC_ETH_MAC_ReturnRxDescriptor
  55:C:/Users/Yushev/git/optiga-trust-qi/projects/xmc4700_relax_kit/common/Libraries/XMCLib/src\xmc_eth_mac.c ****  *
  56:C:/Users/Yushev/git/optiga-trust-qi/projects/xmc4700_relax_kit/common/Libraries/XMCLib/src\xmc_eth_mac.c ****  * 2016-08-30:
  57:C:/Users/Yushev/git/optiga-trust-qi/projects/xmc4700_relax_kit/common/Libraries/XMCLib/src\xmc_eth_mac.c ****  *     - Changed XMC_ETH_MAC_Init() to disable MMC interrupt events
  58:C:/Users/Yushev/git/optiga-trust-qi/projects/xmc4700_relax_kit/common/Libraries/XMCLib/src\xmc_eth_mac.c ****  *
  59:C:/Users/Yushev/git/optiga-trust-qi/projects/xmc4700_relax_kit/common/Libraries/XMCLib/src\xmc_eth_mac.c ****  * 2016-11-22:
  60:C:/Users/Yushev/git/optiga-trust-qi/projects/xmc4700_relax_kit/common/Libraries/XMCLib/src\xmc_eth_mac.c ****  *     - Changed XMC_ETH_MAC_Init() to optimize access to bus
  61:C:/Users/Yushev/git/optiga-trust-qi/projects/xmc4700_relax_kit/common/Libraries/XMCLib/src\xmc_eth_mac.c ****  *
  62:C:/Users/Yushev/git/optiga-trust-qi/projects/xmc4700_relax_kit/common/Libraries/XMCLib/src\xmc_eth_mac.c ****  * 2017-02-25:
  63:C:/Users/Yushev/git/optiga-trust-qi/projects/xmc4700_relax_kit/common/Libraries/XMCLib/src\xmc_eth_mac.c ****  *     - XMC_ETH_MAC_Enable() and XMC_ETH_MAC_Disable(), fixed compilation warnings
  64:C:/Users/Yushev/git/optiga-trust-qi/projects/xmc4700_relax_kit/common/Libraries/XMCLib/src\xmc_eth_mac.c ****  *
  65:C:/Users/Yushev/git/optiga-trust-qi/projects/xmc4700_relax_kit/common/Libraries/XMCLib/src\xmc_eth_mac.c ****  * 2017-03-27:
  66:C:/Users/Yushev/git/optiga-trust-qi/projects/xmc4700_relax_kit/common/Libraries/XMCLib/src\xmc_eth_mac.c ****  *     - Changed XMC_ETH_MAC_Init() to disable PMT and timestamp interrupt events
  67:C:/Users/Yushev/git/optiga-trust-qi/projects/xmc4700_relax_kit/common/Libraries/XMCLib/src\xmc_eth_mac.c ****  *
  68:C:/Users/Yushev/git/optiga-trust-qi/projects/xmc4700_relax_kit/common/Libraries/XMCLib/src\xmc_eth_mac.c ****  * 2017-04-02:
  69:C:/Users/Yushev/git/optiga-trust-qi/projects/xmc4700_relax_kit/common/Libraries/XMCLib/src\xmc_eth_mac.c ****  *     - Added XMC_ETH_MAC_InitPTPEx()
  70:C:/Users/Yushev/git/optiga-trust-qi/projects/xmc4700_relax_kit/common/Libraries/XMCLib/src\xmc_eth_mac.c ****  *     - Added XMC_ETH_MAC_SetPTPTime()
  71:C:/Users/Yushev/git/optiga-trust-qi/projects/xmc4700_relax_kit/common/Libraries/XMCLib/src\xmc_eth_mac.c ****  *     - Added XMC_ETH_MAC_UpdateAddend() 
  72:C:/Users/Yushev/git/optiga-trust-qi/projects/xmc4700_relax_kit/common/Libraries/XMCLib/src\xmc_eth_mac.c ****  *     - Fixed XMC_ETH_MAC_InitPTP(), XMC_ETH_MAC_UpdatePTPTime(), XMC_ETH_MAC_SetPTPAlarm()
  73:C:/Users/Yushev/git/optiga-trust-qi/projects/xmc4700_relax_kit/common/Libraries/XMCLib/src\xmc_eth_mac.c ****  *       - nanoseconds initializazion
  74:C:/Users/Yushev/git/optiga-trust-qi/projects/xmc4700_relax_kit/common/Libraries/XMCLib/src\xmc_eth_mac.c ****  *       - added polling to wait for setup
  75:C:/Users/Yushev/git/optiga-trust-qi/projects/xmc4700_relax_kit/common/Libraries/XMCLib/src\xmc_eth_mac.c ****  *
  76:C:/Users/Yushev/git/optiga-trust-qi/projects/xmc4700_relax_kit/common/Libraries/XMCLib/src\xmc_eth_mac.c ****  * 2017-04-04:
  77:C:/Users/Yushev/git/optiga-trust-qi/projects/xmc4700_relax_kit/common/Libraries/XMCLib/src\xmc_eth_mac.c ****  *     - Changed XMC_ETH_MAC_Init() to disable MMC IPC receive interrupt events
  78:C:/Users/Yushev/git/optiga-trust-qi/projects/xmc4700_relax_kit/common/Libraries/XMCLib/src\xmc_eth_mac.c ****  *
  79:C:/Users/Yushev/git/optiga-trust-qi/projects/xmc4700_relax_kit/common/Libraries/XMCLib/src\xmc_eth_mac.c ****  * 2017-04-11:
  80:C:/Users/Yushev/git/optiga-trust-qi/projects/xmc4700_relax_kit/common/Libraries/XMCLib/src\xmc_eth_mac.c ****  *     - Fixed XMC_ETH_MAC_SetPTPAlarm() nanoseconds conversion
  81:C:/Users/Yushev/git/optiga-trust-qi/projects/xmc4700_relax_kit/common/Libraries/XMCLib/src\xmc_eth_mac.c ****  *
  82:C:/Users/Yushev/git/optiga-trust-qi/projects/xmc4700_relax_kit/common/Libraries/XMCLib/src\xmc_eth_mac.c ****  * 2017-04-17:
  83:C:/Users/Yushev/git/optiga-trust-qi/projects/xmc4700_relax_kit/common/Libraries/XMCLib/src\xmc_eth_mac.c ****  *     - Changed XMC_ETH_MAC_GetTxTimeStamp() and XMC_ETH_MAC_GetRxTimeStamp() return the timestamp
  84:C:/Users/Yushev/git/optiga-trust-qi/projects/xmc4700_relax_kit/common/Libraries/XMCLib/src\xmc_eth_mac.c ****  *
  85:C:/Users/Yushev/git/optiga-trust-qi/projects/xmc4700_relax_kit/common/Libraries/XMCLib/src\xmc_eth_mac.c ****  * 2017-04-27:
  86:C:/Users/Yushev/git/optiga-trust-qi/projects/xmc4700_relax_kit/common/Libraries/XMCLib/src\xmc_eth_mac.c ****  *     - Fixed XMC_ETH_MAC_GetRxTimeStamp() and XMC_ETH_MAC_GetTxTimeStamp() fixed returned nanosec
  87:C:/Users/Yushev/git/optiga-trust-qi/projects/xmc4700_relax_kit/common/Libraries/XMCLib/src\xmc_eth_mac.c ****  *
  88:C:/Users/Yushev/git/optiga-trust-qi/projects/xmc4700_relax_kit/common/Libraries/XMCLib/src\xmc_eth_mac.c ****  * 2017-08-03:
  89:C:/Users/Yushev/git/optiga-trust-qi/projects/xmc4700_relax_kit/common/Libraries/XMCLib/src\xmc_eth_mac.c ****  *     - Changed XMC_ETH_MAC_InitPTP(), XMC_ETH_MAC_InitPTPEx(), XMC_ETH_MAC_GetPTPTime(), XMC_ETH_
  90:C:/Users/Yushev/git/optiga-trust-qi/projects/xmc4700_relax_kit/common/Libraries/XMCLib/src\xmc_eth_mac.c ****  *       rollover mode of nanosecond counter from binary to digital mode, i.e 1ns resolution
  91:C:/Users/Yushev/git/optiga-trust-qi/projects/xmc4700_relax_kit/common/Libraries/XMCLib/src\xmc_eth_mac.c ****  *
  92:C:/Users/Yushev/git/optiga-trust-qi/projects/xmc4700_relax_kit/common/Libraries/XMCLib/src\xmc_eth_mac.c ****  * 2017-09-27:
  93:C:/Users/Yushev/git/optiga-trust-qi/projects/xmc4700_relax_kit/common/Libraries/XMCLib/src\xmc_eth_mac.c ****  *     - Added XMC_ETH_MAC_InitEx()
  94:C:/Users/Yushev/git/optiga-trust-qi/projects/xmc4700_relax_kit/common/Libraries/XMCLib/src\xmc_eth_mac.c ****  *     - XMC_ETH_MAC_SetAddressEx(), XMC_ETH_MAC_GetAddressEx() and XMC_ETH_MAC_SetAddressPerfectFi
  95:C:/Users/Yushev/git/optiga-trust-qi/projects/xmc4700_relax_kit/common/Libraries/XMCLib/src\xmc_eth_mac.c ****  *
  96:C:/Users/Yushev/git/optiga-trust-qi/projects/xmc4700_relax_kit/common/Libraries/XMCLib/src\xmc_eth_mac.c ****  * 2018-06-21:
  97:C:/Users/Yushev/git/optiga-trust-qi/projects/xmc4700_relax_kit/common/Libraries/XMCLib/src\xmc_eth_mac.c ****  *     - Fixed XMC_ETH_MAC_SetAddressPerfectFilterEx()
  98:C:/Users/Yushev/git/optiga-trust-qi/projects/xmc4700_relax_kit/common/Libraries/XMCLib/src\xmc_eth_mac.c ****  *
  99:C:/Users/Yushev/git/optiga-trust-qi/projects/xmc4700_relax_kit/common/Libraries/XMCLib/src\xmc_eth_mac.c ****  * 2018-08-08:
 100:C:/Users/Yushev/git/optiga-trust-qi/projects/xmc4700_relax_kit/common/Libraries/XMCLib/src\xmc_eth_mac.c ****  *      - Fixed XMC_ETH_MAC_SetVLANTag() which now accepts a 32bit tag parameter that allows settin
 101:C:/Users/Yushev/git/optiga-trust-qi/projects/xmc4700_relax_kit/common/Libraries/XMCLib/src\xmc_eth_mac.c ****  *
 102:C:/Users/Yushev/git/optiga-trust-qi/projects/xmc4700_relax_kit/common/Libraries/XMCLib/src\xmc_eth_mac.c ****  * @endcond
 103:C:/Users/Yushev/git/optiga-trust-qi/projects/xmc4700_relax_kit/common/Libraries/XMCLib/src\xmc_eth_mac.c ****  */
 104:C:/Users/Yushev/git/optiga-trust-qi/projects/xmc4700_relax_kit/common/Libraries/XMCLib/src\xmc_eth_mac.c **** 
 105:C:/Users/Yushev/git/optiga-trust-qi/projects/xmc4700_relax_kit/common/Libraries/XMCLib/src\xmc_eth_mac.c **** /*******************************************************************************
 106:C:/Users/Yushev/git/optiga-trust-qi/projects/xmc4700_relax_kit/common/Libraries/XMCLib/src\xmc_eth_mac.c ****  * HEADER FILES
 107:C:/Users/Yushev/git/optiga-trust-qi/projects/xmc4700_relax_kit/common/Libraries/XMCLib/src\xmc_eth_mac.c ****  *******************************************************************************/
 108:C:/Users/Yushev/git/optiga-trust-qi/projects/xmc4700_relax_kit/common/Libraries/XMCLib/src\xmc_eth_mac.c **** #include <xmc_eth_mac.h>
 109:C:/Users/Yushev/git/optiga-trust-qi/projects/xmc4700_relax_kit/common/Libraries/XMCLib/src\xmc_eth_mac.c **** 
 110:C:/Users/Yushev/git/optiga-trust-qi/projects/xmc4700_relax_kit/common/Libraries/XMCLib/src\xmc_eth_mac.c **** #if defined (ETH0)
 111:C:/Users/Yushev/git/optiga-trust-qi/projects/xmc4700_relax_kit/common/Libraries/XMCLib/src\xmc_eth_mac.c **** 
 112:C:/Users/Yushev/git/optiga-trust-qi/projects/xmc4700_relax_kit/common/Libraries/XMCLib/src\xmc_eth_mac.c **** #include <stdlib.h>
 113:C:/Users/Yushev/git/optiga-trust-qi/projects/xmc4700_relax_kit/common/Libraries/XMCLib/src\xmc_eth_mac.c **** #include <xmc_scu.h>
 114:C:/Users/Yushev/git/optiga-trust-qi/projects/xmc4700_relax_kit/common/Libraries/XMCLib/src\xmc_eth_mac.c **** 
 115:C:/Users/Yushev/git/optiga-trust-qi/projects/xmc4700_relax_kit/common/Libraries/XMCLib/src\xmc_eth_mac.c **** /*******************************************************************************
 116:C:/Users/Yushev/git/optiga-trust-qi/projects/xmc4700_relax_kit/common/Libraries/XMCLib/src\xmc_eth_mac.c ****  * MACROS
 117:C:/Users/Yushev/git/optiga-trust-qi/projects/xmc4700_relax_kit/common/Libraries/XMCLib/src\xmc_eth_mac.c ****  *******************************************************************************/
 118:C:/Users/Yushev/git/optiga-trust-qi/projects/xmc4700_relax_kit/common/Libraries/XMCLib/src\xmc_eth_mac.c **** 
 119:C:/Users/Yushev/git/optiga-trust-qi/projects/xmc4700_relax_kit/common/Libraries/XMCLib/src\xmc_eth_mac.c **** /**
 120:C:/Users/Yushev/git/optiga-trust-qi/projects/xmc4700_relax_kit/common/Libraries/XMCLib/src\xmc_eth_mac.c ****  * ETH MAC clock speed
 121:C:/Users/Yushev/git/optiga-trust-qi/projects/xmc4700_relax_kit/common/Libraries/XMCLib/src\xmc_eth_mac.c ****  */
 122:C:/Users/Yushev/git/optiga-trust-qi/projects/xmc4700_relax_kit/common/Libraries/XMCLib/src\xmc_eth_mac.c **** #define XMC_ETH_MAC_CLK_SPEED_35MHZ  (35000000U)  /**< ETH MAC clock speed 35 MHZ */
 123:C:/Users/Yushev/git/optiga-trust-qi/projects/xmc4700_relax_kit/common/Libraries/XMCLib/src\xmc_eth_mac.c **** #define XMC_ETH_MAC_CLK_SPEED_60MHZ  (60000000U)  /**< ETH MAC clock speed 60 MHZ */
 124:C:/Users/Yushev/git/optiga-trust-qi/projects/xmc4700_relax_kit/common/Libraries/XMCLib/src\xmc_eth_mac.c **** #define XMC_ETH_MAC_CLK_SPEED_100MHZ (100000000U) /**< ETH MAC clock speed 100 MHZ */
 125:C:/Users/Yushev/git/optiga-trust-qi/projects/xmc4700_relax_kit/common/Libraries/XMCLib/src\xmc_eth_mac.c **** #define XMC_ETH_MAC_CLK_SPEED_150MHZ (150000000U) /**< ETH MAC clock speed 150 MHZ */
 126:C:/Users/Yushev/git/optiga-trust-qi/projects/xmc4700_relax_kit/common/Libraries/XMCLib/src\xmc_eth_mac.c **** #define XMC_ETH_MAC_CLK_SPEED_200MHZ (200000000U) /**< ETH MAC clock speed 200 MHZ */
 127:C:/Users/Yushev/git/optiga-trust-qi/projects/xmc4700_relax_kit/common/Libraries/XMCLib/src\xmc_eth_mac.c **** #define XMC_ETH_MAC_CLK_SPEED_250MHZ (250000000U) /**< ETH MAC clock speed 250 MHZ */
 128:C:/Users/Yushev/git/optiga-trust-qi/projects/xmc4700_relax_kit/common/Libraries/XMCLib/src\xmc_eth_mac.c **** 
 129:C:/Users/Yushev/git/optiga-trust-qi/projects/xmc4700_relax_kit/common/Libraries/XMCLib/src\xmc_eth_mac.c **** /**
 130:C:/Users/Yushev/git/optiga-trust-qi/projects/xmc4700_relax_kit/common/Libraries/XMCLib/src\xmc_eth_mac.c ****  * ETH MAC MDC divider
 131:C:/Users/Yushev/git/optiga-trust-qi/projects/xmc4700_relax_kit/common/Libraries/XMCLib/src\xmc_eth_mac.c ****  */
 132:C:/Users/Yushev/git/optiga-trust-qi/projects/xmc4700_relax_kit/common/Libraries/XMCLib/src\xmc_eth_mac.c **** #define XMC_ETH_MAC_MDC_DIVIDER_16  (2U << ETH_GMII_ADDRESS_CR_Pos) /**< MDC clock: ETH clock/16 */
 133:C:/Users/Yushev/git/optiga-trust-qi/projects/xmc4700_relax_kit/common/Libraries/XMCLib/src\xmc_eth_mac.c **** #define XMC_ETH_MAC_MDC_DIVIDER_26  (3U << ETH_GMII_ADDRESS_CR_Pos) /**< MDC clock: ETH clock/26 */
 134:C:/Users/Yushev/git/optiga-trust-qi/projects/xmc4700_relax_kit/common/Libraries/XMCLib/src\xmc_eth_mac.c **** #define XMC_ETH_MAC_MDC_DIVIDER_42  (0U << ETH_GMII_ADDRESS_CR_Pos) /**< MDC clock: ETH clock/42 */
 135:C:/Users/Yushev/git/optiga-trust-qi/projects/xmc4700_relax_kit/common/Libraries/XMCLib/src\xmc_eth_mac.c **** #define XMC_ETH_MAC_MDC_DIVIDER_62  (1U << ETH_GMII_ADDRESS_CR_Pos) /**< MDC clock: ETH clock/62 */
 136:C:/Users/Yushev/git/optiga-trust-qi/projects/xmc4700_relax_kit/common/Libraries/XMCLib/src\xmc_eth_mac.c **** #define XMC_ETH_MAC_MDC_DIVIDER_102 (4U << ETH_GMII_ADDRESS_CR_Pos) /**< MDC clock: ETH clock/102 *
 137:C:/Users/Yushev/git/optiga-trust-qi/projects/xmc4700_relax_kit/common/Libraries/XMCLib/src\xmc_eth_mac.c **** #define XMC_ETH_MAC_MDC_DIVIDER_124 (5U << ETH_GMII_ADDRESS_CR_Pos) /**< MDC clock: ETH clock/124 *
 138:C:/Users/Yushev/git/optiga-trust-qi/projects/xmc4700_relax_kit/common/Libraries/XMCLib/src\xmc_eth_mac.c **** 
 139:C:/Users/Yushev/git/optiga-trust-qi/projects/xmc4700_relax_kit/common/Libraries/XMCLib/src\xmc_eth_mac.c **** 
 140:C:/Users/Yushev/git/optiga-trust-qi/projects/xmc4700_relax_kit/common/Libraries/XMCLib/src\xmc_eth_mac.c **** /**
 141:C:/Users/Yushev/git/optiga-trust-qi/projects/xmc4700_relax_kit/common/Libraries/XMCLib/src\xmc_eth_mac.c ****  * RDES1 Descriptor RX Packet Control
 142:C:/Users/Yushev/git/optiga-trust-qi/projects/xmc4700_relax_kit/common/Libraries/XMCLib/src\xmc_eth_mac.c ****  */
 143:C:/Users/Yushev/git/optiga-trust-qi/projects/xmc4700_relax_kit/common/Libraries/XMCLib/src\xmc_eth_mac.c **** #define ETH_MAC_DMA_RDES1_RBS2 (0x1FFF0000U) /**< Receive buffer 2 size */
 144:C:/Users/Yushev/git/optiga-trust-qi/projects/xmc4700_relax_kit/common/Libraries/XMCLib/src\xmc_eth_mac.c **** #define ETH_MAC_DMA_RDES1_RER  (0x00008000U) /**< Receive end of ring */
 145:C:/Users/Yushev/git/optiga-trust-qi/projects/xmc4700_relax_kit/common/Libraries/XMCLib/src\xmc_eth_mac.c **** #define ETH_MAC_DMA_RDES1_RCH  (0x00004000U) /**< Second address chained */
 146:C:/Users/Yushev/git/optiga-trust-qi/projects/xmc4700_relax_kit/common/Libraries/XMCLib/src\xmc_eth_mac.c **** #define ETH_MAC_DMA_RDES1_RBS1 (0x00001FFFU) /**< Receive buffer 1 size */
 147:C:/Users/Yushev/git/optiga-trust-qi/projects/xmc4700_relax_kit/common/Libraries/XMCLib/src\xmc_eth_mac.c **** 
 148:C:/Users/Yushev/git/optiga-trust-qi/projects/xmc4700_relax_kit/common/Libraries/XMCLib/src\xmc_eth_mac.c **** /**
 149:C:/Users/Yushev/git/optiga-trust-qi/projects/xmc4700_relax_kit/common/Libraries/XMCLib/src\xmc_eth_mac.c ****  * Interrupt masking
 150:C:/Users/Yushev/git/optiga-trust-qi/projects/xmc4700_relax_kit/common/Libraries/XMCLib/src\xmc_eth_mac.c ****  */
 151:C:/Users/Yushev/git/optiga-trust-qi/projects/xmc4700_relax_kit/common/Libraries/XMCLib/src\xmc_eth_mac.c **** #define ETH_MAC_DISABLE_MMC_INTERRUPT_MSK              (0x03ffffffU) /**< Bit mask to disable MMMC 
 152:C:/Users/Yushev/git/optiga-trust-qi/projects/xmc4700_relax_kit/common/Libraries/XMCLib/src\xmc_eth_mac.c **** #define ETH_MAC_DISABLE_MMC_IPC_RECEIVE_INTERRUPT_MSK  (0x3fff3fffU) /**< Bit mask to disable MMC I
 153:C:/Users/Yushev/git/optiga-trust-qi/projects/xmc4700_relax_kit/common/Libraries/XMCLib/src\xmc_eth_mac.c **** 
 154:C:/Users/Yushev/git/optiga-trust-qi/projects/xmc4700_relax_kit/common/Libraries/XMCLib/src\xmc_eth_mac.c **** /**
 155:C:/Users/Yushev/git/optiga-trust-qi/projects/xmc4700_relax_kit/common/Libraries/XMCLib/src\xmc_eth_mac.c ****  * Normal MAC events
 156:C:/Users/Yushev/git/optiga-trust-qi/projects/xmc4700_relax_kit/common/Libraries/XMCLib/src\xmc_eth_mac.c ****  */
 157:C:/Users/Yushev/git/optiga-trust-qi/projects/xmc4700_relax_kit/common/Libraries/XMCLib/src\xmc_eth_mac.c **** #define ETH_MAC_EVENT_NORMAL (XMC_ETH_MAC_EVENT_TRANSMIT |\
 158:C:/Users/Yushev/git/optiga-trust-qi/projects/xmc4700_relax_kit/common/Libraries/XMCLib/src\xmc_eth_mac.c ****                               XMC_ETH_MAC_EVENT_TRANSMIT_BUFFER_UNAVAILABLE |\
 159:C:/Users/Yushev/git/optiga-trust-qi/projects/xmc4700_relax_kit/common/Libraries/XMCLib/src\xmc_eth_mac.c ****                               XMC_ETH_MAC_EVENT_RECEIVE |\
 160:C:/Users/Yushev/git/optiga-trust-qi/projects/xmc4700_relax_kit/common/Libraries/XMCLib/src\xmc_eth_mac.c ****                               XMC_ETH_MAC_EVENT_EARLY_RECEIVE)
 161:C:/Users/Yushev/git/optiga-trust-qi/projects/xmc4700_relax_kit/common/Libraries/XMCLib/src\xmc_eth_mac.c **** 
 162:C:/Users/Yushev/git/optiga-trust-qi/projects/xmc4700_relax_kit/common/Libraries/XMCLib/src\xmc_eth_mac.c **** /**
 163:C:/Users/Yushev/git/optiga-trust-qi/projects/xmc4700_relax_kit/common/Libraries/XMCLib/src\xmc_eth_mac.c ****  * Abnormal MAC events
 164:C:/Users/Yushev/git/optiga-trust-qi/projects/xmc4700_relax_kit/common/Libraries/XMCLib/src\xmc_eth_mac.c ****  */
 165:C:/Users/Yushev/git/optiga-trust-qi/projects/xmc4700_relax_kit/common/Libraries/XMCLib/src\xmc_eth_mac.c **** #define ETH_MAC_EVENT_ABNORMAL (XMC_ETH_MAC_EVENT_TRANSMIT_PROCESS_STOPPED |\
 166:C:/Users/Yushev/git/optiga-trust-qi/projects/xmc4700_relax_kit/common/Libraries/XMCLib/src\xmc_eth_mac.c ****                                 XMC_ETH_MAC_EVENT_TRANSMIT_JABBER_TIMEOUT |\
 167:C:/Users/Yushev/git/optiga-trust-qi/projects/xmc4700_relax_kit/common/Libraries/XMCLib/src\xmc_eth_mac.c ****                                 XMC_ETH_MAC_EVENT_RECEIVE_OVERFLOW |\
 168:C:/Users/Yushev/git/optiga-trust-qi/projects/xmc4700_relax_kit/common/Libraries/XMCLib/src\xmc_eth_mac.c ****                                 XMC_ETH_MAC_EVENT_TRANSMIT_UNDERFLOW |\
 169:C:/Users/Yushev/git/optiga-trust-qi/projects/xmc4700_relax_kit/common/Libraries/XMCLib/src\xmc_eth_mac.c ****                                 XMC_ETH_MAC_EVENT_RECEIVE_BUFFER_UNAVAILABLE |\
 170:C:/Users/Yushev/git/optiga-trust-qi/projects/xmc4700_relax_kit/common/Libraries/XMCLib/src\xmc_eth_mac.c ****                                 XMC_ETH_MAC_EVENT_RECEIVE_PROCESS_STOPPED |\
 171:C:/Users/Yushev/git/optiga-trust-qi/projects/xmc4700_relax_kit/common/Libraries/XMCLib/src\xmc_eth_mac.c ****                                 XMC_ETH_MAC_EVENT_RECEIVE_WATCHDOG_TIMEOUT |\
 172:C:/Users/Yushev/git/optiga-trust-qi/projects/xmc4700_relax_kit/common/Libraries/XMCLib/src\xmc_eth_mac.c ****                                 XMC_ETH_MAC_EVENT_EARLY_TRANSMIT |\
 173:C:/Users/Yushev/git/optiga-trust-qi/projects/xmc4700_relax_kit/common/Libraries/XMCLib/src\xmc_eth_mac.c ****                                 XMC_ETH_MAC_EVENT_BUS_ERROR)
 174:C:/Users/Yushev/git/optiga-trust-qi/projects/xmc4700_relax_kit/common/Libraries/XMCLib/src\xmc_eth_mac.c **** 
 175:C:/Users/Yushev/git/optiga-trust-qi/projects/xmc4700_relax_kit/common/Libraries/XMCLib/src\xmc_eth_mac.c **** /* Definition needed in case of device header file previous to v1.5.1*/
 176:C:/Users/Yushev/git/optiga-trust-qi/projects/xmc4700_relax_kit/common/Libraries/XMCLib/src\xmc_eth_mac.c **** #ifndef ETH_BUS_MODE_ATDS_Msk
 177:C:/Users/Yushev/git/optiga-trust-qi/projects/xmc4700_relax_kit/common/Libraries/XMCLib/src\xmc_eth_mac.c **** #define ETH_BUS_MODE_ATDS_Msk  (0x00000080UL)
 178:C:/Users/Yushev/git/optiga-trust-qi/projects/xmc4700_relax_kit/common/Libraries/XMCLib/src\xmc_eth_mac.c **** #endif
 179:C:/Users/Yushev/git/optiga-trust-qi/projects/xmc4700_relax_kit/common/Libraries/XMCLib/src\xmc_eth_mac.c **** 
 180:C:/Users/Yushev/git/optiga-trust-qi/projects/xmc4700_relax_kit/common/Libraries/XMCLib/src\xmc_eth_mac.c **** /* Resolution of sub second counter ~ 20ns */
 181:C:/Users/Yushev/git/optiga-trust-qi/projects/xmc4700_relax_kit/common/Libraries/XMCLib/src\xmc_eth_mac.c **** #define XMC_ETH_SUB_SECOND_UPDATE_FREQ (50000000)
 182:C:/Users/Yushev/git/optiga-trust-qi/projects/xmc4700_relax_kit/common/Libraries/XMCLib/src\xmc_eth_mac.c **** 
 183:C:/Users/Yushev/git/optiga-trust-qi/projects/xmc4700_relax_kit/common/Libraries/XMCLib/src\xmc_eth_mac.c **** /*******************************************************************************
 184:C:/Users/Yushev/git/optiga-trust-qi/projects/xmc4700_relax_kit/common/Libraries/XMCLib/src\xmc_eth_mac.c ****  * API IMPLEMENTATION
 185:C:/Users/Yushev/git/optiga-trust-qi/projects/xmc4700_relax_kit/common/Libraries/XMCLib/src\xmc_eth_mac.c ****  *******************************************************************************/
 186:C:/Users/Yushev/git/optiga-trust-qi/projects/xmc4700_relax_kit/common/Libraries/XMCLib/src\xmc_eth_mac.c **** 
 187:C:/Users/Yushev/git/optiga-trust-qi/projects/xmc4700_relax_kit/common/Libraries/XMCLib/src\xmc_eth_mac.c **** /* Check if the event passed is a normal event */
 188:C:/Users/Yushev/git/optiga-trust-qi/projects/xmc4700_relax_kit/common/Libraries/XMCLib/src\xmc_eth_mac.c **** __STATIC_INLINE bool XCM_ETH_MAC_IsNormalEvent(uint32_t event)
 189:C:/Users/Yushev/git/optiga-trust-qi/projects/xmc4700_relax_kit/common/Libraries/XMCLib/src\xmc_eth_mac.c **** {
 190:C:/Users/Yushev/git/optiga-trust-qi/projects/xmc4700_relax_kit/common/Libraries/XMCLib/src\xmc_eth_mac.c ****   return (bool)((event & ((uint32_t)XMC_ETH_MAC_EVENT_TRANSMIT |
 191:C:/Users/Yushev/git/optiga-trust-qi/projects/xmc4700_relax_kit/common/Libraries/XMCLib/src\xmc_eth_mac.c ****                           (uint32_t)XMC_ETH_MAC_EVENT_TRANSMIT_BUFFER_UNAVAILABLE |
 192:C:/Users/Yushev/git/optiga-trust-qi/projects/xmc4700_relax_kit/common/Libraries/XMCLib/src\xmc_eth_mac.c ****                           (uint32_t)XMC_ETH_MAC_EVENT_RECEIVE |
 193:C:/Users/Yushev/git/optiga-trust-qi/projects/xmc4700_relax_kit/common/Libraries/XMCLib/src\xmc_eth_mac.c ****                           (uint32_t)XMC_ETH_MAC_EVENT_EARLY_RECEIVE)) != (uint32_t)0);
 194:C:/Users/Yushev/git/optiga-trust-qi/projects/xmc4700_relax_kit/common/Libraries/XMCLib/src\xmc_eth_mac.c **** }
 195:C:/Users/Yushev/git/optiga-trust-qi/projects/xmc4700_relax_kit/common/Libraries/XMCLib/src\xmc_eth_mac.c **** 
 196:C:/Users/Yushev/git/optiga-trust-qi/projects/xmc4700_relax_kit/common/Libraries/XMCLib/src\xmc_eth_mac.c **** /* Check if the event passed is an abnormal event */
 197:C:/Users/Yushev/git/optiga-trust-qi/projects/xmc4700_relax_kit/common/Libraries/XMCLib/src\xmc_eth_mac.c **** __STATIC_INLINE bool XCM_ETH_MAC_IsAbnormalEvent(uint32_t event)
 198:C:/Users/Yushev/git/optiga-trust-qi/projects/xmc4700_relax_kit/common/Libraries/XMCLib/src\xmc_eth_mac.c **** {
 199:C:/Users/Yushev/git/optiga-trust-qi/projects/xmc4700_relax_kit/common/Libraries/XMCLib/src\xmc_eth_mac.c ****    return (bool)((event & ((uint32_t)XMC_ETH_MAC_EVENT_TRANSMIT_PROCESS_STOPPED |
 200:C:/Users/Yushev/git/optiga-trust-qi/projects/xmc4700_relax_kit/common/Libraries/XMCLib/src\xmc_eth_mac.c ****                            (uint32_t)XMC_ETH_MAC_EVENT_TRANSMIT_JABBER_TIMEOUT |
 201:C:/Users/Yushev/git/optiga-trust-qi/projects/xmc4700_relax_kit/common/Libraries/XMCLib/src\xmc_eth_mac.c ****                            (uint32_t)XMC_ETH_MAC_EVENT_RECEIVE_OVERFLOW |
 202:C:/Users/Yushev/git/optiga-trust-qi/projects/xmc4700_relax_kit/common/Libraries/XMCLib/src\xmc_eth_mac.c ****                            (uint32_t)XMC_ETH_MAC_EVENT_TRANSMIT_UNDERFLOW |
 203:C:/Users/Yushev/git/optiga-trust-qi/projects/xmc4700_relax_kit/common/Libraries/XMCLib/src\xmc_eth_mac.c ****                            (uint32_t)XMC_ETH_MAC_EVENT_RECEIVE_BUFFER_UNAVAILABLE |
 204:C:/Users/Yushev/git/optiga-trust-qi/projects/xmc4700_relax_kit/common/Libraries/XMCLib/src\xmc_eth_mac.c ****                            (uint32_t)XMC_ETH_MAC_EVENT_RECEIVE_PROCESS_STOPPED |
 205:C:/Users/Yushev/git/optiga-trust-qi/projects/xmc4700_relax_kit/common/Libraries/XMCLib/src\xmc_eth_mac.c ****                            (uint32_t)XMC_ETH_MAC_EVENT_RECEIVE_WATCHDOG_TIMEOUT |
 206:C:/Users/Yushev/git/optiga-trust-qi/projects/xmc4700_relax_kit/common/Libraries/XMCLib/src\xmc_eth_mac.c ****                            (uint32_t)XMC_ETH_MAC_EVENT_EARLY_TRANSMIT |
 207:C:/Users/Yushev/git/optiga-trust-qi/projects/xmc4700_relax_kit/common/Libraries/XMCLib/src\xmc_eth_mac.c ****                            (uint32_t)XMC_ETH_MAC_EVENT_BUS_ERROR)) != (uint32_t)0);
 208:C:/Users/Yushev/git/optiga-trust-qi/projects/xmc4700_relax_kit/common/Libraries/XMCLib/src\xmc_eth_mac.c ****  }
 209:C:/Users/Yushev/git/optiga-trust-qi/projects/xmc4700_relax_kit/common/Libraries/XMCLib/src\xmc_eth_mac.c **** 
 210:C:/Users/Yushev/git/optiga-trust-qi/projects/xmc4700_relax_kit/common/Libraries/XMCLib/src\xmc_eth_mac.c **** #ifdef XMC_ASSERT_ENABLE 
 211:C:/Users/Yushev/git/optiga-trust-qi/projects/xmc4700_relax_kit/common/Libraries/XMCLib/src\xmc_eth_mac.c ****  
 212:C:/Users/Yushev/git/optiga-trust-qi/projects/xmc4700_relax_kit/common/Libraries/XMCLib/src\xmc_eth_mac.c **** /* Check if the passed argument is a valid ETH module */ 
 213:C:/Users/Yushev/git/optiga-trust-qi/projects/xmc4700_relax_kit/common/Libraries/XMCLib/src\xmc_eth_mac.c **** __STATIC_INLINE bool XMC_ETH_MAC_IsValidModule(ETH_GLOBAL_TypeDef *const eth)
 214:C:/Users/Yushev/git/optiga-trust-qi/projects/xmc4700_relax_kit/common/Libraries/XMCLib/src\xmc_eth_mac.c **** {
 215:C:/Users/Yushev/git/optiga-trust-qi/projects/xmc4700_relax_kit/common/Libraries/XMCLib/src\xmc_eth_mac.c ****   return (eth == ETH0);
 216:C:/Users/Yushev/git/optiga-trust-qi/projects/xmc4700_relax_kit/common/Libraries/XMCLib/src\xmc_eth_mac.c **** }
 217:C:/Users/Yushev/git/optiga-trust-qi/projects/xmc4700_relax_kit/common/Libraries/XMCLib/src\xmc_eth_mac.c **** 
 218:C:/Users/Yushev/git/optiga-trust-qi/projects/xmc4700_relax_kit/common/Libraries/XMCLib/src\xmc_eth_mac.c **** #endif
 219:C:/Users/Yushev/git/optiga-trust-qi/projects/xmc4700_relax_kit/common/Libraries/XMCLib/src\xmc_eth_mac.c **** 
 220:C:/Users/Yushev/git/optiga-trust-qi/projects/xmc4700_relax_kit/common/Libraries/XMCLib/src\xmc_eth_mac.c **** void XMC_ETH_MAC_InitEx(XMC_ETH_MAC_t *const eth_mac)
 221:C:/Users/Yushev/git/optiga-trust-qi/projects/xmc4700_relax_kit/common/Libraries/XMCLib/src\xmc_eth_mac.c **** {
 222:C:/Users/Yushev/git/optiga-trust-qi/projects/xmc4700_relax_kit/common/Libraries/XMCLib/src\xmc_eth_mac.c ****   XMC_ASSERT("XMC_ETH_MAC_InitEx: eth_mac is invalid", XMC_ETH_MAC_IsValidModule(eth_mac->regs));
 223:C:/Users/Yushev/git/optiga-trust-qi/projects/xmc4700_relax_kit/common/Libraries/XMCLib/src\xmc_eth_mac.c **** 
 224:C:/Users/Yushev/git/optiga-trust-qi/projects/xmc4700_relax_kit/common/Libraries/XMCLib/src\xmc_eth_mac.c ****   XMC_ETH_MAC_Reset(eth_mac);
 225:C:/Users/Yushev/git/optiga-trust-qi/projects/xmc4700_relax_kit/common/Libraries/XMCLib/src\xmc_eth_mac.c **** 
 226:C:/Users/Yushev/git/optiga-trust-qi/projects/xmc4700_relax_kit/common/Libraries/XMCLib/src\xmc_eth_mac.c ****   /* Initialize MAC configuration */
 227:C:/Users/Yushev/git/optiga-trust-qi/projects/xmc4700_relax_kit/common/Libraries/XMCLib/src\xmc_eth_mac.c ****   eth_mac->regs->MAC_CONFIGURATION = (uint32_t)ETH_MAC_CONFIGURATION_IPC_Msk;
 228:C:/Users/Yushev/git/optiga-trust-qi/projects/xmc4700_relax_kit/common/Libraries/XMCLib/src\xmc_eth_mac.c **** 
 229:C:/Users/Yushev/git/optiga-trust-qi/projects/xmc4700_relax_kit/common/Libraries/XMCLib/src\xmc_eth_mac.c ****   /* Initialize Filter registers */
 230:C:/Users/Yushev/git/optiga-trust-qi/projects/xmc4700_relax_kit/common/Libraries/XMCLib/src\xmc_eth_mac.c ****   eth_mac->regs->FLOW_CONTROL = ETH_FLOW_CONTROL_DZPQ_Msk; /* Disable Zero Quanta Pause */
 231:C:/Users/Yushev/git/optiga-trust-qi/projects/xmc4700_relax_kit/common/Libraries/XMCLib/src\xmc_eth_mac.c **** 
 232:C:/Users/Yushev/git/optiga-trust-qi/projects/xmc4700_relax_kit/common/Libraries/XMCLib/src\xmc_eth_mac.c ****   eth_mac->regs->OPERATION_MODE = (uint32_t)ETH_OPERATION_MODE_RSF_Msk |
 233:C:/Users/Yushev/git/optiga-trust-qi/projects/xmc4700_relax_kit/common/Libraries/XMCLib/src\xmc_eth_mac.c **** 	                              (uint32_t)ETH_OPERATION_MODE_TSF_Msk |
 234:C:/Users/Yushev/git/optiga-trust-qi/projects/xmc4700_relax_kit/common/Libraries/XMCLib/src\xmc_eth_mac.c **** 	                              (uint32_t)ETH_OPERATION_MODE_OSF_Msk;
 235:C:/Users/Yushev/git/optiga-trust-qi/projects/xmc4700_relax_kit/common/Libraries/XMCLib/src\xmc_eth_mac.c **** 
 236:C:/Users/Yushev/git/optiga-trust-qi/projects/xmc4700_relax_kit/common/Libraries/XMCLib/src\xmc_eth_mac.c ****   /* Increase enhanced descriptor to 8 WORDS, required when the Advanced Time-Stamp feature or Full
 237:C:/Users/Yushev/git/optiga-trust-qi/projects/xmc4700_relax_kit/common/Libraries/XMCLib/src\xmc_eth_mac.c ****   eth_mac->regs->BUS_MODE = (uint32_t)ETH_BUS_MODE_ATDS_Msk |
 238:C:/Users/Yushev/git/optiga-trust-qi/projects/xmc4700_relax_kit/common/Libraries/XMCLib/src\xmc_eth_mac.c **** 	                        (uint32_t)ETH_BUS_MODE_AAL_Msk | /* the AHB interface generates all bursts
 239:C:/Users/Yushev/git/optiga-trust-qi/projects/xmc4700_relax_kit/common/Libraries/XMCLib/src\xmc_eth_mac.c **** 	                        (uint32_t)ETH_BUS_MODE_FB_Msk | /* DMA attempts to execute fixed-length Bu
 240:C:/Users/Yushev/git/optiga-trust-qi/projects/xmc4700_relax_kit/common/Libraries/XMCLib/src\xmc_eth_mac.c **** 	                        (uint32_t)(0x20 << ETH_BUS_MODE_PBL_Pos); /* maximum Burst length */
 241:C:/Users/Yushev/git/optiga-trust-qi/projects/xmc4700_relax_kit/common/Libraries/XMCLib/src\xmc_eth_mac.c **** 
 242:C:/Users/Yushev/git/optiga-trust-qi/projects/xmc4700_relax_kit/common/Libraries/XMCLib/src\xmc_eth_mac.c ****   /* Initialize DMA Descriptors */
 243:C:/Users/Yushev/git/optiga-trust-qi/projects/xmc4700_relax_kit/common/Libraries/XMCLib/src\xmc_eth_mac.c ****   XMC_ETH_MAC_InitRxDescriptors(eth_mac);
 244:C:/Users/Yushev/git/optiga-trust-qi/projects/xmc4700_relax_kit/common/Libraries/XMCLib/src\xmc_eth_mac.c ****   XMC_ETH_MAC_InitTxDescriptors(eth_mac);
 245:C:/Users/Yushev/git/optiga-trust-qi/projects/xmc4700_relax_kit/common/Libraries/XMCLib/src\xmc_eth_mac.c **** 
 246:C:/Users/Yushev/git/optiga-trust-qi/projects/xmc4700_relax_kit/common/Libraries/XMCLib/src\xmc_eth_mac.c ****   /* Clear interrupts */
 247:C:/Users/Yushev/git/optiga-trust-qi/projects/xmc4700_relax_kit/common/Libraries/XMCLib/src\xmc_eth_mac.c ****   eth_mac->regs->STATUS = 0xFFFFFFFFUL;
 248:C:/Users/Yushev/git/optiga-trust-qi/projects/xmc4700_relax_kit/common/Libraries/XMCLib/src\xmc_eth_mac.c **** 
 249:C:/Users/Yushev/git/optiga-trust-qi/projects/xmc4700_relax_kit/common/Libraries/XMCLib/src\xmc_eth_mac.c ****   /* Disable MMC interrupt events */
 250:C:/Users/Yushev/git/optiga-trust-qi/projects/xmc4700_relax_kit/common/Libraries/XMCLib/src\xmc_eth_mac.c ****   eth_mac->regs->MMC_TRANSMIT_INTERRUPT_MASK = ETH_MAC_DISABLE_MMC_INTERRUPT_MSK;
 251:C:/Users/Yushev/git/optiga-trust-qi/projects/xmc4700_relax_kit/common/Libraries/XMCLib/src\xmc_eth_mac.c ****   eth_mac->regs->MMC_RECEIVE_INTERRUPT_MASK = ETH_MAC_DISABLE_MMC_INTERRUPT_MSK;
 252:C:/Users/Yushev/git/optiga-trust-qi/projects/xmc4700_relax_kit/common/Libraries/XMCLib/src\xmc_eth_mac.c ****   eth_mac->regs->MMC_IPC_RECEIVE_INTERRUPT_MASK = ETH_MAC_DISABLE_MMC_IPC_RECEIVE_INTERRUPT_MSK;
 253:C:/Users/Yushev/git/optiga-trust-qi/projects/xmc4700_relax_kit/common/Libraries/XMCLib/src\xmc_eth_mac.c **** 
 254:C:/Users/Yushev/git/optiga-trust-qi/projects/xmc4700_relax_kit/common/Libraries/XMCLib/src\xmc_eth_mac.c ****   /* Disable PMT and timestamp interrupt events */
 255:C:/Users/Yushev/git/optiga-trust-qi/projects/xmc4700_relax_kit/common/Libraries/XMCLib/src\xmc_eth_mac.c ****   eth_mac->regs->INTERRUPT_MASK = ETH_INTERRUPT_MASK_PMTIM_Msk | ETH_INTERRUPT_MASK_TSIM_Msk;
 256:C:/Users/Yushev/git/optiga-trust-qi/projects/xmc4700_relax_kit/common/Libraries/XMCLib/src\xmc_eth_mac.c **** 
 257:C:/Users/Yushev/git/optiga-trust-qi/projects/xmc4700_relax_kit/common/Libraries/XMCLib/src\xmc_eth_mac.c ****   eth_mac->frame_end = NULL;
 258:C:/Users/Yushev/git/optiga-trust-qi/projects/xmc4700_relax_kit/common/Libraries/XMCLib/src\xmc_eth_mac.c **** }
 259:C:/Users/Yushev/git/optiga-trust-qi/projects/xmc4700_relax_kit/common/Libraries/XMCLib/src\xmc_eth_mac.c **** 
 260:C:/Users/Yushev/git/optiga-trust-qi/projects/xmc4700_relax_kit/common/Libraries/XMCLib/src\xmc_eth_mac.c **** /* ETH MAC initialize */
 261:C:/Users/Yushev/git/optiga-trust-qi/projects/xmc4700_relax_kit/common/Libraries/XMCLib/src\xmc_eth_mac.c **** XMC_ETH_MAC_STATUS_t XMC_ETH_MAC_Init(XMC_ETH_MAC_t *const eth_mac)
 262:C:/Users/Yushev/git/optiga-trust-qi/projects/xmc4700_relax_kit/common/Libraries/XMCLib/src\xmc_eth_mac.c **** {
 263:C:/Users/Yushev/git/optiga-trust-qi/projects/xmc4700_relax_kit/common/Libraries/XMCLib/src\xmc_eth_mac.c ****   XMC_ETH_MAC_STATUS_t status;
 264:C:/Users/Yushev/git/optiga-trust-qi/projects/xmc4700_relax_kit/common/Libraries/XMCLib/src\xmc_eth_mac.c **** 
 265:C:/Users/Yushev/git/optiga-trust-qi/projects/xmc4700_relax_kit/common/Libraries/XMCLib/src\xmc_eth_mac.c ****   XMC_ASSERT("XMC_ETH_MAC_Init: eth_mac is invalid", XMC_ETH_MAC_IsValidModule(eth_mac->regs));
 266:C:/Users/Yushev/git/optiga-trust-qi/projects/xmc4700_relax_kit/common/Libraries/XMCLib/src\xmc_eth_mac.c **** 
 267:C:/Users/Yushev/git/optiga-trust-qi/projects/xmc4700_relax_kit/common/Libraries/XMCLib/src\xmc_eth_mac.c ****   XMC_ETH_MAC_Enable(eth_mac);
 268:C:/Users/Yushev/git/optiga-trust-qi/projects/xmc4700_relax_kit/common/Libraries/XMCLib/src\xmc_eth_mac.c ****   status = XMC_ETH_MAC_SetManagmentClockDivider(eth_mac);
 269:C:/Users/Yushev/git/optiga-trust-qi/projects/xmc4700_relax_kit/common/Libraries/XMCLib/src\xmc_eth_mac.c **** 
 270:C:/Users/Yushev/git/optiga-trust-qi/projects/xmc4700_relax_kit/common/Libraries/XMCLib/src\xmc_eth_mac.c ****   XMC_ETH_MAC_InitEx(eth_mac);
 271:C:/Users/Yushev/git/optiga-trust-qi/projects/xmc4700_relax_kit/common/Libraries/XMCLib/src\xmc_eth_mac.c **** 
 272:C:/Users/Yushev/git/optiga-trust-qi/projects/xmc4700_relax_kit/common/Libraries/XMCLib/src\xmc_eth_mac.c ****   XMC_ETH_MAC_SetAddress(eth_mac, eth_mac->address);
 273:C:/Users/Yushev/git/optiga-trust-qi/projects/xmc4700_relax_kit/common/Libraries/XMCLib/src\xmc_eth_mac.c **** 
 274:C:/Users/Yushev/git/optiga-trust-qi/projects/xmc4700_relax_kit/common/Libraries/XMCLib/src\xmc_eth_mac.c ****   return status;
 275:C:/Users/Yushev/git/optiga-trust-qi/projects/xmc4700_relax_kit/common/Libraries/XMCLib/src\xmc_eth_mac.c **** }
 276:C:/Users/Yushev/git/optiga-trust-qi/projects/xmc4700_relax_kit/common/Libraries/XMCLib/src\xmc_eth_mac.c **** 
 277:C:/Users/Yushev/git/optiga-trust-qi/projects/xmc4700_relax_kit/common/Libraries/XMCLib/src\xmc_eth_mac.c **** /* Initialize RX descriptors */
 278:C:/Users/Yushev/git/optiga-trust-qi/projects/xmc4700_relax_kit/common/Libraries/XMCLib/src\xmc_eth_mac.c **** void XMC_ETH_MAC_InitRxDescriptors(XMC_ETH_MAC_t *const eth_mac)
 279:C:/Users/Yushev/git/optiga-trust-qi/projects/xmc4700_relax_kit/common/Libraries/XMCLib/src\xmc_eth_mac.c **** {
  28              	 .loc 1 279 0
  29              	 .cfi_startproc
  30              	 
  31              	 
  32              	.LVL0:
  33 0000 30B5     	 push {r4,r5,lr}
  34              	.LCFI0:
  35              	 .cfi_def_cfa_offset 12
  36              	 .cfi_offset 4,-12
  37              	 .cfi_offset 5,-8
  38              	 .cfi_offset 14,-4
 280:C:/Users/Yushev/git/optiga-trust-qi/projects/xmc4700_relax_kit/common/Libraries/XMCLib/src\xmc_eth_mac.c ****   uint32_t i;
 281:C:/Users/Yushev/git/optiga-trust-qi/projects/xmc4700_relax_kit/common/Libraries/XMCLib/src\xmc_eth_mac.c ****   uint32_t next;
 282:C:/Users/Yushev/git/optiga-trust-qi/projects/xmc4700_relax_kit/common/Libraries/XMCLib/src\xmc_eth_mac.c **** 
 283:C:/Users/Yushev/git/optiga-trust-qi/projects/xmc4700_relax_kit/common/Libraries/XMCLib/src\xmc_eth_mac.c ****   XMC_ASSERT("XMC_ETH_MAC_InitRxDescriptors: eth_mac is invalid", XMC_ETH_MAC_IsValidModule(eth_mac
 284:C:/Users/Yushev/git/optiga-trust-qi/projects/xmc4700_relax_kit/common/Libraries/XMCLib/src\xmc_eth_mac.c **** 
 285:C:/Users/Yushev/git/optiga-trust-qi/projects/xmc4700_relax_kit/common/Libraries/XMCLib/src\xmc_eth_mac.c ****   /*
 286:C:/Users/Yushev/git/optiga-trust-qi/projects/xmc4700_relax_kit/common/Libraries/XMCLib/src\xmc_eth_mac.c ****    * Chained structure (ETH_MAC_DMA_RDES1_RCH), second address in the descriptor
 287:C:/Users/Yushev/git/optiga-trust-qi/projects/xmc4700_relax_kit/common/Libraries/XMCLib/src\xmc_eth_mac.c ****    * (buffer2) is the next descriptor address
 288:C:/Users/Yushev/git/optiga-trust-qi/projects/xmc4700_relax_kit/common/Libraries/XMCLib/src\xmc_eth_mac.c ****    */
 289:C:/Users/Yushev/git/optiga-trust-qi/projects/xmc4700_relax_kit/common/Libraries/XMCLib/src\xmc_eth_mac.c ****   for (i = 0U; i < eth_mac->num_rx_buf; ++i)
  39              	 .loc 1 289 0
  40 0002 0023     	 movs r3,#0
  41              	.LVL1:
  42              	.L2:
  43              	 .loc 1 289 0 is_stmt 0 discriminator 1
  44 0004 90F82420 	 ldrb r2,[r0,#36]
  45 0008 9342     	 cmp r3,r2
  46 000a 0269     	 ldr r2,[r0,#16]
  47 000c 18D2     	 bcs .L7
  48 000e 5C01     	 lsls r4,r3,#5
 290:C:/Users/Yushev/git/optiga-trust-qi/projects/xmc4700_relax_kit/common/Libraries/XMCLib/src\xmc_eth_mac.c ****   {
 291:C:/Users/Yushev/git/optiga-trust-qi/projects/xmc4700_relax_kit/common/Libraries/XMCLib/src\xmc_eth_mac.c ****   eth_mac->rx_desc[i].status = (uint32_t)ETH_MAC_DMA_RDES0_OWN;
  49              	 .loc 1 291 0 is_stmt 1
  50 0010 1119     	 adds r1,r2,r4
  51 0012 4FF00045 	 mov r5,#-2147483648
  52 0016 1551     	 str r5,[r2,r4]
 292:C:/Users/Yushev/git/optiga-trust-qi/projects/xmc4700_relax_kit/common/Libraries/XMCLib/src\xmc_eth_mac.c ****   eth_mac->rx_desc[i].length = (uint32_t)ETH_MAC_DMA_RDES1_RCH | (uint32_t)XMC_ETH_MAC_BUF_SIZE;
 293:C:/Users/Yushev/git/optiga-trust-qi/projects/xmc4700_relax_kit/common/Libraries/XMCLib/src\xmc_eth_mac.c ****   eth_mac->rx_desc[i].buffer1 = (uint32_t)&(eth_mac->rx_buf[i * XMC_ETH_MAC_BUF_SIZE]);
  53              	 .loc 1 293 0
  54 0018 8569     	 ldr r5,[r0,#24]
 292:C:/Users/Yushev/git/optiga-trust-qi/projects/xmc4700_relax_kit/common/Libraries/XMCLib/src\xmc_eth_mac.c ****   eth_mac->rx_desc[i].length = (uint32_t)ETH_MAC_DMA_RDES1_RCH | (uint32_t)XMC_ETH_MAC_BUF_SIZE;
  55              	 .loc 1 292 0
  56 001a 44F2F454 	 movw r4,#17908
  57 001e 4C60     	 str r4,[r1,#4]
  58              	 .loc 1 293 0
  59 0020 40F2F454 	 movw r4,#1524
  60 0024 04FB0354 	 mla r4,r4,r3,r5
  61 0028 8C60     	 str r4,[r1,#8]
 294:C:/Users/Yushev/git/optiga-trust-qi/projects/xmc4700_relax_kit/common/Libraries/XMCLib/src\xmc_eth_mac.c ****     next = i + 1U;
 295:C:/Users/Yushev/git/optiga-trust-qi/projects/xmc4700_relax_kit/common/Libraries/XMCLib/src\xmc_eth_mac.c ****     if (next == eth_mac->num_rx_buf)
  62              	 .loc 1 295 0
  63 002a 90F82440 	 ldrb r4,[r0,#36]
 294:C:/Users/Yushev/git/optiga-trust-qi/projects/xmc4700_relax_kit/common/Libraries/XMCLib/src\xmc_eth_mac.c ****     next = i + 1U;
  64              	 .loc 1 294 0
  65 002e 0133     	 adds r3,r3,#1
  66              	.LVL2:
 296:C:/Users/Yushev/git/optiga-trust-qi/projects/xmc4700_relax_kit/common/Libraries/XMCLib/src\xmc_eth_mac.c ****     {
 297:C:/Users/Yushev/git/optiga-trust-qi/projects/xmc4700_relax_kit/common/Libraries/XMCLib/src\xmc_eth_mac.c ****       next = 0U;
  67              	 .loc 1 297 0
  68 0030 A342     	 cmp r3,r4
  69 0032 14BF     	 ite ne
  70 0034 1C46     	 movne r4,r3
  71 0036 0024     	 moveq r4,#0
  72              	.LVL3:
 298:C:/Users/Yushev/git/optiga-trust-qi/projects/xmc4700_relax_kit/common/Libraries/XMCLib/src\xmc_eth_mac.c ****     }
 299:C:/Users/Yushev/git/optiga-trust-qi/projects/xmc4700_relax_kit/common/Libraries/XMCLib/src\xmc_eth_mac.c ****     eth_mac->rx_desc[i].buffer2 = (uint32_t)&(eth_mac->rx_desc[next]);
  73              	 .loc 1 299 0
  74 0038 02EB4412 	 add r2,r2,r4,lsl#5
  75 003c CA60     	 str r2,[r1,#12]
  76              	.LVL4:
  77 003e E1E7     	 b .L2
  78              	.LVL5:
  79              	.L7:
 300:C:/Users/Yushev/git/optiga-trust-qi/projects/xmc4700_relax_kit/common/Libraries/XMCLib/src\xmc_eth_mac.c ****   }
 301:C:/Users/Yushev/git/optiga-trust-qi/projects/xmc4700_relax_kit/common/Libraries/XMCLib/src\xmc_eth_mac.c ****   eth_mac->regs->RECEIVE_DESCRIPTOR_LIST_ADDRESS = (uint32_t)&(eth_mac->rx_desc[0]);
  80              	 .loc 1 301 0
  81 0040 41F20C03 	 movw r3,#4108
  82              	.LVL6:
  83 0044 0168     	 ldr r1,[r0]
  84 0046 CA50     	 str r2,[r1,r3]
 302:C:/Users/Yushev/git/optiga-trust-qi/projects/xmc4700_relax_kit/common/Libraries/XMCLib/src\xmc_eth_mac.c ****   eth_mac->rx_index = 0U;
  85              	 .loc 1 302 0
  86 0048 0023     	 movs r3,#0
  87 004a 80F82730 	 strb r3,[r0,#39]
  88 004e 30BD     	 pop {r4,r5,pc}
  89              	 .cfi_endproc
  90              	.LFE229:
  92              	 .section .text.XMC_ETH_MAC_InitTxDescriptors,"ax",%progbits
  93              	 .align 1
  94              	 .global XMC_ETH_MAC_InitTxDescriptors
  95              	 .thumb
  96              	 .thumb_func
  98              	XMC_ETH_MAC_InitTxDescriptors:
  99              	.LFB230:
 303:C:/Users/Yushev/git/optiga-trust-qi/projects/xmc4700_relax_kit/common/Libraries/XMCLib/src\xmc_eth_mac.c **** }
 304:C:/Users/Yushev/git/optiga-trust-qi/projects/xmc4700_relax_kit/common/Libraries/XMCLib/src\xmc_eth_mac.c **** 
 305:C:/Users/Yushev/git/optiga-trust-qi/projects/xmc4700_relax_kit/common/Libraries/XMCLib/src\xmc_eth_mac.c **** /* Initialize TX descriptors */
 306:C:/Users/Yushev/git/optiga-trust-qi/projects/xmc4700_relax_kit/common/Libraries/XMCLib/src\xmc_eth_mac.c **** void XMC_ETH_MAC_InitTxDescriptors(XMC_ETH_MAC_t *const eth_mac)
 307:C:/Users/Yushev/git/optiga-trust-qi/projects/xmc4700_relax_kit/common/Libraries/XMCLib/src\xmc_eth_mac.c **** {
 100              	 .loc 1 307 0
 101              	 .cfi_startproc
 102              	 
 103              	 
 104              	.LVL7:
 105 0000 30B5     	 push {r4,r5,lr}
 106              	.LCFI1:
 107              	 .cfi_def_cfa_offset 12
 108              	 .cfi_offset 4,-12
 109              	 .cfi_offset 5,-8
 110              	 .cfi_offset 14,-4
 308:C:/Users/Yushev/git/optiga-trust-qi/projects/xmc4700_relax_kit/common/Libraries/XMCLib/src\xmc_eth_mac.c ****   uint32_t i;
 309:C:/Users/Yushev/git/optiga-trust-qi/projects/xmc4700_relax_kit/common/Libraries/XMCLib/src\xmc_eth_mac.c ****   uint32_t next;
 310:C:/Users/Yushev/git/optiga-trust-qi/projects/xmc4700_relax_kit/common/Libraries/XMCLib/src\xmc_eth_mac.c **** 
 311:C:/Users/Yushev/git/optiga-trust-qi/projects/xmc4700_relax_kit/common/Libraries/XMCLib/src\xmc_eth_mac.c ****   XMC_ASSERT("XMC_ETH_MAC_InitTxDescriptors: eth_mac is invalid", XMC_ETH_MAC_IsValidModule(eth_mac
 312:C:/Users/Yushev/git/optiga-trust-qi/projects/xmc4700_relax_kit/common/Libraries/XMCLib/src\xmc_eth_mac.c **** 
 313:C:/Users/Yushev/git/optiga-trust-qi/projects/xmc4700_relax_kit/common/Libraries/XMCLib/src\xmc_eth_mac.c ****   /* Chained structure (ETH_MAC_DMA_TDES0_TCH), second address in the descriptor (buffer2) is the n
 314:C:/Users/Yushev/git/optiga-trust-qi/projects/xmc4700_relax_kit/common/Libraries/XMCLib/src\xmc_eth_mac.c ****   for (i = 0U; i < eth_mac->num_tx_buf; ++i)
 111              	 .loc 1 314 0
 112 0002 0023     	 movs r3,#0
 113              	.LVL8:
 114              	.L9:
 115              	 .loc 1 314 0 is_stmt 0 discriminator 1
 116 0004 90F82520 	 ldrb r2,[r0,#37]
 117 0008 9342     	 cmp r3,r2
 118 000a 4269     	 ldr r2,[r0,#20]
 119 000c 14D2     	 bcs .L13
 120 000e 5901     	 lsls r1,r3,#5
 315:C:/Users/Yushev/git/optiga-trust-qi/projects/xmc4700_relax_kit/common/Libraries/XMCLib/src\xmc_eth_mac.c ****   {
 316:C:/Users/Yushev/git/optiga-trust-qi/projects/xmc4700_relax_kit/common/Libraries/XMCLib/src\xmc_eth_mac.c ****   eth_mac->tx_desc[i].status = ETH_MAC_DMA_TDES0_TCH | ETH_MAC_DMA_TDES0_LS | ETH_MAC_DMA_TDES0_FS;
 121              	 .loc 1 316 0 is_stmt 1
 122 0010 0D4D     	 ldr r5,.L14
 123 0012 5550     	 str r5,[r2,r1]
 317:C:/Users/Yushev/git/optiga-trust-qi/projects/xmc4700_relax_kit/common/Libraries/XMCLib/src\xmc_eth_mac.c ****   eth_mac->tx_desc[i].buffer1 = (uint32_t)&(eth_mac->tx_buf[i * XMC_ETH_MAC_BUF_SIZE]);
 124              	 .loc 1 317 0
 125 0014 C569     	 ldr r5,[r0,#28]
 316:C:/Users/Yushev/git/optiga-trust-qi/projects/xmc4700_relax_kit/common/Libraries/XMCLib/src\xmc_eth_mac.c ****   eth_mac->tx_desc[i].buffer1 = (uint32_t)&(eth_mac->tx_buf[i * XMC_ETH_MAC_BUF_SIZE]);
 126              	 .loc 1 316 0
 127 0016 5418     	 adds r4,r2,r1
 128              	 .loc 1 317 0
 129 0018 40F2F451 	 movw r1,#1524
 130 001c 01FB0351 	 mla r1,r1,r3,r5
 131 0020 A160     	 str r1,[r4,#8]
 318:C:/Users/Yushev/git/optiga-trust-qi/projects/xmc4700_relax_kit/common/Libraries/XMCLib/src\xmc_eth_mac.c ****     next = i + 1U;
 319:C:/Users/Yushev/git/optiga-trust-qi/projects/xmc4700_relax_kit/common/Libraries/XMCLib/src\xmc_eth_mac.c ****     if (next == eth_mac->num_tx_buf)
 132              	 .loc 1 319 0
 133 0022 90F82510 	 ldrb r1,[r0,#37]
 318:C:/Users/Yushev/git/optiga-trust-qi/projects/xmc4700_relax_kit/common/Libraries/XMCLib/src\xmc_eth_mac.c ****     next = i + 1U;
 134              	 .loc 1 318 0
 135 0026 0133     	 adds r3,r3,#1
 136              	.LVL9:
 320:C:/Users/Yushev/git/optiga-trust-qi/projects/xmc4700_relax_kit/common/Libraries/XMCLib/src\xmc_eth_mac.c ****     {
 321:C:/Users/Yushev/git/optiga-trust-qi/projects/xmc4700_relax_kit/common/Libraries/XMCLib/src\xmc_eth_mac.c ****         next = 0U;
 137              	 .loc 1 321 0
 138 0028 8B42     	 cmp r3,r1
 139 002a 14BF     	 ite ne
 140 002c 1946     	 movne r1,r3
 141 002e 0021     	 moveq r1,#0
 142              	.LVL10:
 322:C:/Users/Yushev/git/optiga-trust-qi/projects/xmc4700_relax_kit/common/Libraries/XMCLib/src\xmc_eth_mac.c ****     }
 323:C:/Users/Yushev/git/optiga-trust-qi/projects/xmc4700_relax_kit/common/Libraries/XMCLib/src\xmc_eth_mac.c ****     eth_mac->tx_desc[i].buffer2 = (uint32_t)&(eth_mac->tx_desc[next]);
 143              	 .loc 1 323 0
 144 0030 02EB4112 	 add r2,r2,r1,lsl#5
 145 0034 E260     	 str r2,[r4,#12]
 146              	.LVL11:
 147 0036 E5E7     	 b .L9
 148              	.LVL12:
 149              	.L13:
 324:C:/Users/Yushev/git/optiga-trust-qi/projects/xmc4700_relax_kit/common/Libraries/XMCLib/src\xmc_eth_mac.c ****   }
 325:C:/Users/Yushev/git/optiga-trust-qi/projects/xmc4700_relax_kit/common/Libraries/XMCLib/src\xmc_eth_mac.c ****   eth_mac->regs->TRANSMIT_DESCRIPTOR_LIST_ADDRESS = (uint32_t)&(eth_mac->tx_desc[0]);
 150              	 .loc 1 325 0
 151 0038 41F21003 	 movw r3,#4112
 152              	.LVL13:
 153 003c 0168     	 ldr r1,[r0]
 154 003e CA50     	 str r2,[r1,r3]
 326:C:/Users/Yushev/git/optiga-trust-qi/projects/xmc4700_relax_kit/common/Libraries/XMCLib/src\xmc_eth_mac.c ****   eth_mac->tx_index = 0U;
 155              	 .loc 1 326 0
 156 0040 0023     	 movs r3,#0
 157 0042 80F82630 	 strb r3,[r0,#38]
 158 0046 30BD     	 pop {r4,r5,pc}
 159              	.L15:
 160              	 .align 2
 161              	.L14:
 162 0048 00001030 	 .word 806354944
 163              	 .cfi_endproc
 164              	.LFE230:
 166              	 .section .text.XMC_ETH_MAC_InitEx,"ax",%progbits
 167              	 .align 1
 168              	 .global XMC_ETH_MAC_InitEx
 169              	 .thumb
 170              	 .thumb_func
 172              	XMC_ETH_MAC_InitEx:
 173              	.LFB227:
 221:C:/Users/Yushev/git/optiga-trust-qi/projects/xmc4700_relax_kit/common/Libraries/XMCLib/src\xmc_eth_mac.c ****   XMC_ASSERT("XMC_ETH_MAC_InitEx: eth_mac is invalid", XMC_ETH_MAC_IsValidModule(eth_mac->regs));
 174              	 .loc 1 221 0
 175              	 .cfi_startproc
 176              	 
 177              	 
 178              	.LVL14:
 179 0000 0268     	 ldr r2,[r0]
 180              	.LVL15:
 181 0002 38B5     	 push {r3,r4,r5,lr}
 182              	.LCFI2:
 183              	 .cfi_def_cfa_offset 16
 184              	 .cfi_offset 3,-16
 185              	 .cfi_offset 4,-12
 186              	 .cfi_offset 5,-8
 187              	 .cfi_offset 14,-4
 188              	.LBB10:
 189              	.LBB11:
 190              	 .file 2 "C:/Users/Yushev/git/optiga-trust-qi/projects/xmc4700_relax_kit/common/Libraries/XMCLib/inc/xmc_eth_mac.h"
   1:C:/Users/Yushev/git/optiga-trust-qi/projects/xmc4700_relax_kit/common/Libraries/XMCLib/inc\xmc_eth_mac.h **** 
   2:C:/Users/Yushev/git/optiga-trust-qi/projects/xmc4700_relax_kit/common/Libraries/XMCLib/inc\xmc_eth_mac.h **** /**
   3:C:/Users/Yushev/git/optiga-trust-qi/projects/xmc4700_relax_kit/common/Libraries/XMCLib/inc\xmc_eth_mac.h ****  * @file xmc_eth_mac.h
   4:C:/Users/Yushev/git/optiga-trust-qi/projects/xmc4700_relax_kit/common/Libraries/XMCLib/inc\xmc_eth_mac.h ****  * @date 2018-08-08
   5:C:/Users/Yushev/git/optiga-trust-qi/projects/xmc4700_relax_kit/common/Libraries/XMCLib/inc\xmc_eth_mac.h ****  *
   6:C:/Users/Yushev/git/optiga-trust-qi/projects/xmc4700_relax_kit/common/Libraries/XMCLib/inc\xmc_eth_mac.h ****  * @cond
   7:C:/Users/Yushev/git/optiga-trust-qi/projects/xmc4700_relax_kit/common/Libraries/XMCLib/inc\xmc_eth_mac.h ****  **************************************************************************************************
   8:C:/Users/Yushev/git/optiga-trust-qi/projects/xmc4700_relax_kit/common/Libraries/XMCLib/inc\xmc_eth_mac.h ****  * XMClib v2.1.20 - XMC Peripheral Driver Library 
   9:C:/Users/Yushev/git/optiga-trust-qi/projects/xmc4700_relax_kit/common/Libraries/XMCLib/inc\xmc_eth_mac.h ****  *
  10:C:/Users/Yushev/git/optiga-trust-qi/projects/xmc4700_relax_kit/common/Libraries/XMCLib/inc\xmc_eth_mac.h ****  * Copyright (c) 2015-2018, Infineon Technologies AG
  11:C:/Users/Yushev/git/optiga-trust-qi/projects/xmc4700_relax_kit/common/Libraries/XMCLib/inc\xmc_eth_mac.h ****  * All rights reserved.                        
  12:C:/Users/Yushev/git/optiga-trust-qi/projects/xmc4700_relax_kit/common/Libraries/XMCLib/inc\xmc_eth_mac.h ****  *                                             
  13:C:/Users/Yushev/git/optiga-trust-qi/projects/xmc4700_relax_kit/common/Libraries/XMCLib/inc\xmc_eth_mac.h ****  * Redistribution and use in source and binary forms, with or without modification,are permitted pr
  14:C:/Users/Yushev/git/optiga-trust-qi/projects/xmc4700_relax_kit/common/Libraries/XMCLib/inc\xmc_eth_mac.h ****  * following conditions are met:   
  15:C:/Users/Yushev/git/optiga-trust-qi/projects/xmc4700_relax_kit/common/Libraries/XMCLib/inc\xmc_eth_mac.h ****  *                                                                              
  16:C:/Users/Yushev/git/optiga-trust-qi/projects/xmc4700_relax_kit/common/Libraries/XMCLib/inc\xmc_eth_mac.h ****  * Redistributions of source code must retain the above copyright notice, this list of conditions a
  17:C:/Users/Yushev/git/optiga-trust-qi/projects/xmc4700_relax_kit/common/Libraries/XMCLib/inc\xmc_eth_mac.h ****  * disclaimer.                        
  18:C:/Users/Yushev/git/optiga-trust-qi/projects/xmc4700_relax_kit/common/Libraries/XMCLib/inc\xmc_eth_mac.h ****  * 
  19:C:/Users/Yushev/git/optiga-trust-qi/projects/xmc4700_relax_kit/common/Libraries/XMCLib/inc\xmc_eth_mac.h ****  * Redistributions in binary form must reproduce the above copyright notice, this list of condition
  20:C:/Users/Yushev/git/optiga-trust-qi/projects/xmc4700_relax_kit/common/Libraries/XMCLib/inc\xmc_eth_mac.h ****  * disclaimer in the documentation and/or other materials provided with the distribution.          
  21:C:/Users/Yushev/git/optiga-trust-qi/projects/xmc4700_relax_kit/common/Libraries/XMCLib/inc\xmc_eth_mac.h ****  * 
  22:C:/Users/Yushev/git/optiga-trust-qi/projects/xmc4700_relax_kit/common/Libraries/XMCLib/inc\xmc_eth_mac.h ****  * Neither the name of the copyright holders nor the names of its contributors may be used to endor
  23:C:/Users/Yushev/git/optiga-trust-qi/projects/xmc4700_relax_kit/common/Libraries/XMCLib/inc\xmc_eth_mac.h ****  * products derived from this software without specific prior written permission.                  
  24:C:/Users/Yushev/git/optiga-trust-qi/projects/xmc4700_relax_kit/common/Libraries/XMCLib/inc\xmc_eth_mac.h ****  *                                                                              
  25:C:/Users/Yushev/git/optiga-trust-qi/projects/xmc4700_relax_kit/common/Libraries/XMCLib/inc\xmc_eth_mac.h ****  * THIS SOFTWARE IS PROVIDED BY THE COPYRIGHT HOLDERS AND CONTRIBUTORS "AS IS" AND ANY EXPRESS OR I
  26:C:/Users/Yushev/git/optiga-trust-qi/projects/xmc4700_relax_kit/common/Libraries/XMCLib/inc\xmc_eth_mac.h ****  * INCLUDING, BUT NOT LIMITED TO, THE IMPLIED WARRANTIES OF MERCHANTABILITY AND FITNESS FOR A PARTI
  27:C:/Users/Yushev/git/optiga-trust-qi/projects/xmc4700_relax_kit/common/Libraries/XMCLib/inc\xmc_eth_mac.h ****  * DISCLAIMED. IN NO EVENT SHALL THE COPYRIGHT HOLDER OR CONTRIBUTORS BE LIABLE  FOR ANY DIRECT, IN
  28:C:/Users/Yushev/git/optiga-trust-qi/projects/xmc4700_relax_kit/common/Libraries/XMCLib/inc\xmc_eth_mac.h ****  * SPECIAL, EXEMPLARY, OR CONSEQUENTIAL DAMAGES (INCLUDING, BUT NOT LIMITED TO, PROCUREMENT OF SUBS
  29:C:/Users/Yushev/git/optiga-trust-qi/projects/xmc4700_relax_kit/common/Libraries/XMCLib/inc\xmc_eth_mac.h ****  * SERVICES; LOSS OF USE, DATA, OR PROFITS; OR BUSINESS INTERRUPTION) HOWEVER CAUSED AND ON ANY THE
  30:C:/Users/Yushev/git/optiga-trust-qi/projects/xmc4700_relax_kit/common/Libraries/XMCLib/inc\xmc_eth_mac.h ****  * WHETHER IN CONTRACT, STRICT LIABILITY,OR TORT (INCLUDING NEGLIGENCE OR OTHERWISE) ARISING IN ANY
  31:C:/Users/Yushev/git/optiga-trust-qi/projects/xmc4700_relax_kit/common/Libraries/XMCLib/inc\xmc_eth_mac.h ****  * OF THIS SOFTWARE, EVEN IF ADVISED OF THE POSSIBILITY OF SUCH DAMAGE.                            
  32:C:/Users/Yushev/git/optiga-trust-qi/projects/xmc4700_relax_kit/common/Libraries/XMCLib/inc\xmc_eth_mac.h ****  *                                                                              
  33:C:/Users/Yushev/git/optiga-trust-qi/projects/xmc4700_relax_kit/common/Libraries/XMCLib/inc\xmc_eth_mac.h ****  * To improve the quality of the software, users are encouraged to share modifications, enhancement
  34:C:/Users/Yushev/git/optiga-trust-qi/projects/xmc4700_relax_kit/common/Libraries/XMCLib/inc\xmc_eth_mac.h ****  * Infineon Technologies AG dave@infineon.com).                                                    
  35:C:/Users/Yushev/git/optiga-trust-qi/projects/xmc4700_relax_kit/common/Libraries/XMCLib/inc\xmc_eth_mac.h ****  **************************************************************************************************
  36:C:/Users/Yushev/git/optiga-trust-qi/projects/xmc4700_relax_kit/common/Libraries/XMCLib/inc\xmc_eth_mac.h ****  *
  37:C:/Users/Yushev/git/optiga-trust-qi/projects/xmc4700_relax_kit/common/Libraries/XMCLib/inc\xmc_eth_mac.h ****  * Change History
  38:C:/Users/Yushev/git/optiga-trust-qi/projects/xmc4700_relax_kit/common/Libraries/XMCLib/inc\xmc_eth_mac.h ****  * --------------
  39:C:/Users/Yushev/git/optiga-trust-qi/projects/xmc4700_relax_kit/common/Libraries/XMCLib/inc\xmc_eth_mac.h ****  *
  40:C:/Users/Yushev/git/optiga-trust-qi/projects/xmc4700_relax_kit/common/Libraries/XMCLib/inc\xmc_eth_mac.h ****  * 2015-06-20:
  41:C:/Users/Yushev/git/optiga-trust-qi/projects/xmc4700_relax_kit/common/Libraries/XMCLib/inc\xmc_eth_mac.h ****  *     - Initial
  42:C:/Users/Yushev/git/optiga-trust-qi/projects/xmc4700_relax_kit/common/Libraries/XMCLib/inc\xmc_eth_mac.h ****  *
  43:C:/Users/Yushev/git/optiga-trust-qi/projects/xmc4700_relax_kit/common/Libraries/XMCLib/inc\xmc_eth_mac.h ****  * 2016-04-25:
  44:C:/Users/Yushev/git/optiga-trust-qi/projects/xmc4700_relax_kit/common/Libraries/XMCLib/inc\xmc_eth_mac.h ****  *     - Change XMC_ETH_MAC_BUF_SIZE to 1524 to allow for Tagged MAC frame format
  45:C:/Users/Yushev/git/optiga-trust-qi/projects/xmc4700_relax_kit/common/Libraries/XMCLib/inc\xmc_eth_mac.h ****  *  
  46:C:/Users/Yushev/git/optiga-trust-qi/projects/xmc4700_relax_kit/common/Libraries/XMCLib/inc\xmc_eth_mac.h ****  * 2016-05-19:
  47:C:/Users/Yushev/git/optiga-trust-qi/projects/xmc4700_relax_kit/common/Libraries/XMCLib/inc\xmc_eth_mac.h ****  *      - Added XMC_ETH_MAC_GetTxBuffer() and XMC_ETH_MAC_GetRxBuffer()
  48:C:/Users/Yushev/git/optiga-trust-qi/projects/xmc4700_relax_kit/common/Libraries/XMCLib/inc\xmc_eth_mac.h ****  *      - Added XMC_ETH_MAC_SetTxBufferSize()
  49:C:/Users/Yushev/git/optiga-trust-qi/projects/xmc4700_relax_kit/common/Libraries/XMCLib/inc\xmc_eth_mac.h ****  *
  50:C:/Users/Yushev/git/optiga-trust-qi/projects/xmc4700_relax_kit/common/Libraries/XMCLib/inc\xmc_eth_mac.h ****  * 2016-06-08:
  51:C:/Users/Yushev/git/optiga-trust-qi/projects/xmc4700_relax_kit/common/Libraries/XMCLib/inc\xmc_eth_mac.h ****  *      - Added XMC_ETH_MAC_IsRxDescriptorOwnedByDma()
  52:C:/Users/Yushev/git/optiga-trust-qi/projects/xmc4700_relax_kit/common/Libraries/XMCLib/inc\xmc_eth_mac.h ****  * 
  53:C:/Users/Yushev/git/optiga-trust-qi/projects/xmc4700_relax_kit/common/Libraries/XMCLib/inc\xmc_eth_mac.h ****  * 2017-02-25:
  54:C:/Users/Yushev/git/optiga-trust-qi/projects/xmc4700_relax_kit/common/Libraries/XMCLib/inc\xmc_eth_mac.h ****  *      - XMC_ETH_MAC_SetPortControl() fixed compilation warning
  55:C:/Users/Yushev/git/optiga-trust-qi/projects/xmc4700_relax_kit/common/Libraries/XMCLib/inc\xmc_eth_mac.h ****  *
  56:C:/Users/Yushev/git/optiga-trust-qi/projects/xmc4700_relax_kit/common/Libraries/XMCLib/inc\xmc_eth_mac.h ****  * 2017-04-02:
  57:C:/Users/Yushev/git/optiga-trust-qi/projects/xmc4700_relax_kit/common/Libraries/XMCLib/inc\xmc_eth_mac.h ****  *     - Added XMC_ETH_MAC_InitPTPEx()
  58:C:/Users/Yushev/git/optiga-trust-qi/projects/xmc4700_relax_kit/common/Libraries/XMCLib/inc\xmc_eth_mac.h ****  *     - Added XMC_ETH_MAC_SetPTPTime()
  59:C:/Users/Yushev/git/optiga-trust-qi/projects/xmc4700_relax_kit/common/Libraries/XMCLib/inc\xmc_eth_mac.h ****  *     - Added XMC_ETH_MAC_UpdateAddend()
  60:C:/Users/Yushev/git/optiga-trust-qi/projects/xmc4700_relax_kit/common/Libraries/XMCLib/inc\xmc_eth_mac.h ****  *
  61:C:/Users/Yushev/git/optiga-trust-qi/projects/xmc4700_relax_kit/common/Libraries/XMCLib/inc\xmc_eth_mac.h ****  * 2017-04-11:
  62:C:/Users/Yushev/git/optiga-trust-qi/projects/xmc4700_relax_kit/common/Libraries/XMCLib/inc\xmc_eth_mac.h ****  *     - Added XMC_ETH_MAC_EnablePTPAlarm() and XMC_ETH_MAC_DisablePTPAlarm
  63:C:/Users/Yushev/git/optiga-trust-qi/projects/xmc4700_relax_kit/common/Libraries/XMCLib/inc\xmc_eth_mac.h ****  *
  64:C:/Users/Yushev/git/optiga-trust-qi/projects/xmc4700_relax_kit/common/Libraries/XMCLib/inc\xmc_eth_mac.h ****  * 2017-04-17:
  65:C:/Users/Yushev/git/optiga-trust-qi/projects/xmc4700_relax_kit/common/Libraries/XMCLib/inc\xmc_eth_mac.h ****  *     - Fixed ordering of PTP nanoseconds and seconds in XMC_ETH_MAC_DMA_DESC_t
  66:C:/Users/Yushev/git/optiga-trust-qi/projects/xmc4700_relax_kit/common/Libraries/XMCLib/inc\xmc_eth_mac.h ****  *
  67:C:/Users/Yushev/git/optiga-trust-qi/projects/xmc4700_relax_kit/common/Libraries/XMCLib/inc\xmc_eth_mac.h ****  * 2017-08-07:
  68:C:/Users/Yushev/git/optiga-trust-qi/projects/xmc4700_relax_kit/common/Libraries/XMCLib/inc\xmc_eth_mac.h ****  *     - Added XMC_ETH_MAC_TIMESTAMP_STATUS_t
  69:C:/Users/Yushev/git/optiga-trust-qi/projects/xmc4700_relax_kit/common/Libraries/XMCLib/inc\xmc_eth_mac.h ****  *
  70:C:/Users/Yushev/git/optiga-trust-qi/projects/xmc4700_relax_kit/common/Libraries/XMCLib/inc\xmc_eth_mac.h ****  * 2017-09-27:
  71:C:/Users/Yushev/git/optiga-trust-qi/projects/xmc4700_relax_kit/common/Libraries/XMCLib/inc\xmc_eth_mac.h ****  *     - Added XMC_ETH_MAC_InitEx()
  72:C:/Users/Yushev/git/optiga-trust-qi/projects/xmc4700_relax_kit/common/Libraries/XMCLib/inc\xmc_eth_mac.h ****  *     - XMC_ETH_MAC_SetAddressEx(), XMC_ETH_MAC_GetAddressEx() and XMC_ETH_MAC_SetAddressPerfectFi
  73:C:/Users/Yushev/git/optiga-trust-qi/projects/xmc4700_relax_kit/common/Libraries/XMCLib/inc\xmc_eth_mac.h ****  *
  74:C:/Users/Yushev/git/optiga-trust-qi/projects/xmc4700_relax_kit/common/Libraries/XMCLib/inc\xmc_eth_mac.h ****  * 2018-06-21:
  75:C:/Users/Yushev/git/optiga-trust-qi/projects/xmc4700_relax_kit/common/Libraries/XMCLib/inc\xmc_eth_mac.h ****  *     - Changed definition of XMC_ETH_MAC_DMA_DESC_t declaring its fields volatile
  76:C:/Users/Yushev/git/optiga-trust-qi/projects/xmc4700_relax_kit/common/Libraries/XMCLib/inc\xmc_eth_mac.h ****  *
  77:C:/Users/Yushev/git/optiga-trust-qi/projects/xmc4700_relax_kit/common/Libraries/XMCLib/inc\xmc_eth_mac.h ****  * 2018-08-08:
  78:C:/Users/Yushev/git/optiga-trust-qi/projects/xmc4700_relax_kit/common/Libraries/XMCLib/inc\xmc_eth_mac.h ****  *     - Fixed XMC_ETH_MAC_SetVLANTag() which now accepts a 32bit tag parameter that allows setting
  79:C:/Users/Yushev/git/optiga-trust-qi/projects/xmc4700_relax_kit/common/Libraries/XMCLib/inc\xmc_eth_mac.h ****  *
  80:C:/Users/Yushev/git/optiga-trust-qi/projects/xmc4700_relax_kit/common/Libraries/XMCLib/inc\xmc_eth_mac.h ****  * @endcond
  81:C:/Users/Yushev/git/optiga-trust-qi/projects/xmc4700_relax_kit/common/Libraries/XMCLib/inc\xmc_eth_mac.h ****  */
  82:C:/Users/Yushev/git/optiga-trust-qi/projects/xmc4700_relax_kit/common/Libraries/XMCLib/inc\xmc_eth_mac.h **** 
  83:C:/Users/Yushev/git/optiga-trust-qi/projects/xmc4700_relax_kit/common/Libraries/XMCLib/inc\xmc_eth_mac.h **** /**
  84:C:/Users/Yushev/git/optiga-trust-qi/projects/xmc4700_relax_kit/common/Libraries/XMCLib/inc\xmc_eth_mac.h ****  * @addtogroup XMClib XMC Peripheral Library
  85:C:/Users/Yushev/git/optiga-trust-qi/projects/xmc4700_relax_kit/common/Libraries/XMCLib/inc\xmc_eth_mac.h ****  * @{
  86:C:/Users/Yushev/git/optiga-trust-qi/projects/xmc4700_relax_kit/common/Libraries/XMCLib/inc\xmc_eth_mac.h ****  */
  87:C:/Users/Yushev/git/optiga-trust-qi/projects/xmc4700_relax_kit/common/Libraries/XMCLib/inc\xmc_eth_mac.h **** 
  88:C:/Users/Yushev/git/optiga-trust-qi/projects/xmc4700_relax_kit/common/Libraries/XMCLib/inc\xmc_eth_mac.h **** /**
  89:C:/Users/Yushev/git/optiga-trust-qi/projects/xmc4700_relax_kit/common/Libraries/XMCLib/inc\xmc_eth_mac.h ****  * @addtogroup ETH_MAC
  90:C:/Users/Yushev/git/optiga-trust-qi/projects/xmc4700_relax_kit/common/Libraries/XMCLib/inc\xmc_eth_mac.h ****  * @brief Ethernet Low level driver for XMC4000 microcontroller family.
  91:C:/Users/Yushev/git/optiga-trust-qi/projects/xmc4700_relax_kit/common/Libraries/XMCLib/inc\xmc_eth_mac.h ****  *
  92:C:/Users/Yushev/git/optiga-trust-qi/projects/xmc4700_relax_kit/common/Libraries/XMCLib/inc\xmc_eth_mac.h ****  * The Ethernet MAC (ETH) is a major communication peripheral that supports 10/100
  93:C:/Users/Yushev/git/optiga-trust-qi/projects/xmc4700_relax_kit/common/Libraries/XMCLib/inc\xmc_eth_mac.h ****  * MBit/s data transfer rates in compliance with the IEEE 802.3-2002 standard. The ETH
  94:C:/Users/Yushev/git/optiga-trust-qi/projects/xmc4700_relax_kit/common/Libraries/XMCLib/inc\xmc_eth_mac.h ****  * may be used to implement internet connected applications using IPv4 and IPv6. The
  95:C:/Users/Yushev/git/optiga-trust-qi/projects/xmc4700_relax_kit/common/Libraries/XMCLib/inc\xmc_eth_mac.h ****  * ETH also includes support for IEEE1588 time synchronisation to allow implementation
  96:C:/Users/Yushev/git/optiga-trust-qi/projects/xmc4700_relax_kit/common/Libraries/XMCLib/inc\xmc_eth_mac.h ****  * of Real Time Ethernet protocols.
  97:C:/Users/Yushev/git/optiga-trust-qi/projects/xmc4700_relax_kit/common/Libraries/XMCLib/inc\xmc_eth_mac.h ****  *
  98:C:/Users/Yushev/git/optiga-trust-qi/projects/xmc4700_relax_kit/common/Libraries/XMCLib/inc\xmc_eth_mac.h ****  * The XMC_ETH_MAC low level driver provides functions to configure and initialize
  99:C:/Users/Yushev/git/optiga-trust-qi/projects/xmc4700_relax_kit/common/Libraries/XMCLib/inc\xmc_eth_mac.h ****  * the ETH_MAC hardware peripheral.
 100:C:/Users/Yushev/git/optiga-trust-qi/projects/xmc4700_relax_kit/common/Libraries/XMCLib/inc\xmc_eth_mac.h ****  * @{
 101:C:/Users/Yushev/git/optiga-trust-qi/projects/xmc4700_relax_kit/common/Libraries/XMCLib/inc\xmc_eth_mac.h ****  */
 102:C:/Users/Yushev/git/optiga-trust-qi/projects/xmc4700_relax_kit/common/Libraries/XMCLib/inc\xmc_eth_mac.h **** 
 103:C:/Users/Yushev/git/optiga-trust-qi/projects/xmc4700_relax_kit/common/Libraries/XMCLib/inc\xmc_eth_mac.h **** #ifndef XMC_ETH_MAC_H
 104:C:/Users/Yushev/git/optiga-trust-qi/projects/xmc4700_relax_kit/common/Libraries/XMCLib/inc\xmc_eth_mac.h **** #define XMC_ETH_MAC_H
 105:C:/Users/Yushev/git/optiga-trust-qi/projects/xmc4700_relax_kit/common/Libraries/XMCLib/inc\xmc_eth_mac.h **** 
 106:C:/Users/Yushev/git/optiga-trust-qi/projects/xmc4700_relax_kit/common/Libraries/XMCLib/inc\xmc_eth_mac.h **** /**************************************************************************************************
 107:C:/Users/Yushev/git/optiga-trust-qi/projects/xmc4700_relax_kit/common/Libraries/XMCLib/inc\xmc_eth_mac.h ****  * HEADER FILES
 108:C:/Users/Yushev/git/optiga-trust-qi/projects/xmc4700_relax_kit/common/Libraries/XMCLib/inc\xmc_eth_mac.h ****  **************************************************************************************************
 109:C:/Users/Yushev/git/optiga-trust-qi/projects/xmc4700_relax_kit/common/Libraries/XMCLib/inc\xmc_eth_mac.h **** 
 110:C:/Users/Yushev/git/optiga-trust-qi/projects/xmc4700_relax_kit/common/Libraries/XMCLib/inc\xmc_eth_mac.h **** #include "xmc_common.h"
 111:C:/Users/Yushev/git/optiga-trust-qi/projects/xmc4700_relax_kit/common/Libraries/XMCLib/inc\xmc_eth_mac.h **** 
 112:C:/Users/Yushev/git/optiga-trust-qi/projects/xmc4700_relax_kit/common/Libraries/XMCLib/inc\xmc_eth_mac.h **** #if defined (ETH0)
 113:C:/Users/Yushev/git/optiga-trust-qi/projects/xmc4700_relax_kit/common/Libraries/XMCLib/inc\xmc_eth_mac.h **** 
 114:C:/Users/Yushev/git/optiga-trust-qi/projects/xmc4700_relax_kit/common/Libraries/XMCLib/inc\xmc_eth_mac.h **** #include "xmc_eth_mac_map.h"
 115:C:/Users/Yushev/git/optiga-trust-qi/projects/xmc4700_relax_kit/common/Libraries/XMCLib/inc\xmc_eth_mac.h **** 
 116:C:/Users/Yushev/git/optiga-trust-qi/projects/xmc4700_relax_kit/common/Libraries/XMCLib/inc\xmc_eth_mac.h **** /**************************************************************************************************
 117:C:/Users/Yushev/git/optiga-trust-qi/projects/xmc4700_relax_kit/common/Libraries/XMCLib/inc\xmc_eth_mac.h ****  * MACROS
 118:C:/Users/Yushev/git/optiga-trust-qi/projects/xmc4700_relax_kit/common/Libraries/XMCLib/inc\xmc_eth_mac.h ****  **************************************************************************************************
 119:C:/Users/Yushev/git/optiga-trust-qi/projects/xmc4700_relax_kit/common/Libraries/XMCLib/inc\xmc_eth_mac.h **** 
 120:C:/Users/Yushev/git/optiga-trust-qi/projects/xmc4700_relax_kit/common/Libraries/XMCLib/inc\xmc_eth_mac.h **** #define XMC_ETH_MAC_BUF_SIZE           (1524)     /**< ETH MAC buffer size */
 121:C:/Users/Yushev/git/optiga-trust-qi/projects/xmc4700_relax_kit/common/Libraries/XMCLib/inc\xmc_eth_mac.h **** #define XMC_ETH_MAC_PHY_MAX_RETRIES    (0xffffUL) /**< Maximum retries */
 122:C:/Users/Yushev/git/optiga-trust-qi/projects/xmc4700_relax_kit/common/Libraries/XMCLib/inc\xmc_eth_mac.h **** #define XMC_ETH_WAKEUP_REGISTER_LENGTH (8U)       /**< Remote wakeup frame reg length */
 123:C:/Users/Yushev/git/optiga-trust-qi/projects/xmc4700_relax_kit/common/Libraries/XMCLib/inc\xmc_eth_mac.h **** 
 124:C:/Users/Yushev/git/optiga-trust-qi/projects/xmc4700_relax_kit/common/Libraries/XMCLib/inc\xmc_eth_mac.h **** /**
 125:C:/Users/Yushev/git/optiga-trust-qi/projects/xmc4700_relax_kit/common/Libraries/XMCLib/inc\xmc_eth_mac.h ****  * TDES0 Descriptor TX Packet Control/Status
 126:C:/Users/Yushev/git/optiga-trust-qi/projects/xmc4700_relax_kit/common/Libraries/XMCLib/inc\xmc_eth_mac.h ****  */
 127:C:/Users/Yushev/git/optiga-trust-qi/projects/xmc4700_relax_kit/common/Libraries/XMCLib/inc\xmc_eth_mac.h **** #define ETH_MAC_DMA_TDES0_OWN  (0x80000000U) /**< Own bit 1=DMA, 0=CPU */
 128:C:/Users/Yushev/git/optiga-trust-qi/projects/xmc4700_relax_kit/common/Libraries/XMCLib/inc\xmc_eth_mac.h **** #define ETH_MAC_DMA_TDES0_IC   (0x40000000U) /**< Interrupt on competition */
 129:C:/Users/Yushev/git/optiga-trust-qi/projects/xmc4700_relax_kit/common/Libraries/XMCLib/inc\xmc_eth_mac.h **** #define ETH_MAC_DMA_TDES0_LS   (0x20000000U) /**< Last segment */
 130:C:/Users/Yushev/git/optiga-trust-qi/projects/xmc4700_relax_kit/common/Libraries/XMCLib/inc\xmc_eth_mac.h **** #define ETH_MAC_DMA_TDES0_FS   (0x10000000U) /**< First segment */
 131:C:/Users/Yushev/git/optiga-trust-qi/projects/xmc4700_relax_kit/common/Libraries/XMCLib/inc\xmc_eth_mac.h **** #define ETH_MAC_DMA_TDES0_DC   (0x08000000U) /**< Disable CRC */
 132:C:/Users/Yushev/git/optiga-trust-qi/projects/xmc4700_relax_kit/common/Libraries/XMCLib/inc\xmc_eth_mac.h **** #define ETH_MAC_DMA_TDES0_DP   (0x04000000U) /**< Disable pad */
 133:C:/Users/Yushev/git/optiga-trust-qi/projects/xmc4700_relax_kit/common/Libraries/XMCLib/inc\xmc_eth_mac.h **** #define ETH_MAC_DMA_TDES0_TTSE (0x02000000U) /**< Transmit time stamp enable */
 134:C:/Users/Yushev/git/optiga-trust-qi/projects/xmc4700_relax_kit/common/Libraries/XMCLib/inc\xmc_eth_mac.h **** #define ETH_MAC_DMA_TDES0_CIC  (0x00C00000U) /**< Checksum insertion control */
 135:C:/Users/Yushev/git/optiga-trust-qi/projects/xmc4700_relax_kit/common/Libraries/XMCLib/inc\xmc_eth_mac.h **** #define ETH_MAC_DMA_TDES0_TER  (0x00200000U) /**< Transmit end of ring */
 136:C:/Users/Yushev/git/optiga-trust-qi/projects/xmc4700_relax_kit/common/Libraries/XMCLib/inc\xmc_eth_mac.h **** #define ETH_MAC_DMA_TDES0_TCH  (0x00100000U) /**< Second address chained */
 137:C:/Users/Yushev/git/optiga-trust-qi/projects/xmc4700_relax_kit/common/Libraries/XMCLib/inc\xmc_eth_mac.h **** #define ETH_MAC_DMA_TDES0_TTSS (0x00020000U) /**< Transmit time stamp status */
 138:C:/Users/Yushev/git/optiga-trust-qi/projects/xmc4700_relax_kit/common/Libraries/XMCLib/inc\xmc_eth_mac.h **** #define ETH_MAC_DMA_TDES0_IHE  (0x00010000U) /**< IP header error */
 139:C:/Users/Yushev/git/optiga-trust-qi/projects/xmc4700_relax_kit/common/Libraries/XMCLib/inc\xmc_eth_mac.h **** #define ETH_MAC_DMA_TDES0_ES   (0x00008000U) /**< Error summary */
 140:C:/Users/Yushev/git/optiga-trust-qi/projects/xmc4700_relax_kit/common/Libraries/XMCLib/inc\xmc_eth_mac.h **** #define ETH_MAC_DMA_TDES0_JT   (0x00004000U) /**< Jabber timeout */
 141:C:/Users/Yushev/git/optiga-trust-qi/projects/xmc4700_relax_kit/common/Libraries/XMCLib/inc\xmc_eth_mac.h **** #define ETH_MAC_DMA_TDES0_FF   (0x00002000U) /**< Frame flushed */
 142:C:/Users/Yushev/git/optiga-trust-qi/projects/xmc4700_relax_kit/common/Libraries/XMCLib/inc\xmc_eth_mac.h **** #define ETH_MAC_DMA_TDES0_IPE  (0x00001000U) /**< IP payload error */
 143:C:/Users/Yushev/git/optiga-trust-qi/projects/xmc4700_relax_kit/common/Libraries/XMCLib/inc\xmc_eth_mac.h **** #define ETH_MAC_DMA_TDES0_LOC  (0x00000800U) /**< Loss of carrier */
 144:C:/Users/Yushev/git/optiga-trust-qi/projects/xmc4700_relax_kit/common/Libraries/XMCLib/inc\xmc_eth_mac.h **** #define ETH_MAC_DMA_TDES0_NC   (0x00000400U) /**< No carrier */
 145:C:/Users/Yushev/git/optiga-trust-qi/projects/xmc4700_relax_kit/common/Libraries/XMCLib/inc\xmc_eth_mac.h **** #define ETH_MAC_DMA_TDES0_LC   (0x00000200U) /**< Late collision */
 146:C:/Users/Yushev/git/optiga-trust-qi/projects/xmc4700_relax_kit/common/Libraries/XMCLib/inc\xmc_eth_mac.h **** #define ETH_MAC_DMA_TDES0_EC   (0x00000100U) /**< Excessive collision */
 147:C:/Users/Yushev/git/optiga-trust-qi/projects/xmc4700_relax_kit/common/Libraries/XMCLib/inc\xmc_eth_mac.h **** #define ETH_MAC_DMA_TDES0_VF   (0x00000080U) /**< VLAN frame */
 148:C:/Users/Yushev/git/optiga-trust-qi/projects/xmc4700_relax_kit/common/Libraries/XMCLib/inc\xmc_eth_mac.h **** #define ETH_MAC_DMA_TDES0_CC   (0x00000078U) /**< Collision count */
 149:C:/Users/Yushev/git/optiga-trust-qi/projects/xmc4700_relax_kit/common/Libraries/XMCLib/inc\xmc_eth_mac.h **** #define ETH_MAC_DMA_TDES0_ED   (0x00000004U) /**< Excessive deferral */
 150:C:/Users/Yushev/git/optiga-trust-qi/projects/xmc4700_relax_kit/common/Libraries/XMCLib/inc\xmc_eth_mac.h **** #define ETH_MAC_DMA_TDES0_UF   (0x00000002U) /**< Underflow error */
 151:C:/Users/Yushev/git/optiga-trust-qi/projects/xmc4700_relax_kit/common/Libraries/XMCLib/inc\xmc_eth_mac.h **** #define ETH_MAC_DMA_TDES0_DB   (0x00000001U) /**< Deferred bit */
 152:C:/Users/Yushev/git/optiga-trust-qi/projects/xmc4700_relax_kit/common/Libraries/XMCLib/inc\xmc_eth_mac.h **** 
 153:C:/Users/Yushev/git/optiga-trust-qi/projects/xmc4700_relax_kit/common/Libraries/XMCLib/inc\xmc_eth_mac.h **** /**
 154:C:/Users/Yushev/git/optiga-trust-qi/projects/xmc4700_relax_kit/common/Libraries/XMCLib/inc\xmc_eth_mac.h ****  * RDES0 Descriptor RX Packet Status
 155:C:/Users/Yushev/git/optiga-trust-qi/projects/xmc4700_relax_kit/common/Libraries/XMCLib/inc\xmc_eth_mac.h ****  */
 156:C:/Users/Yushev/git/optiga-trust-qi/projects/xmc4700_relax_kit/common/Libraries/XMCLib/inc\xmc_eth_mac.h **** #define ETH_MAC_DMA_RDES0_OWN  (0x80000000U) /**< Own bit 1=DMA, 0=CPU */
 157:C:/Users/Yushev/git/optiga-trust-qi/projects/xmc4700_relax_kit/common/Libraries/XMCLib/inc\xmc_eth_mac.h **** #define ETH_MAC_DMA_RDES0_AFM  (0x40000000U) /**< Destination address filter fail */
 158:C:/Users/Yushev/git/optiga-trust-qi/projects/xmc4700_relax_kit/common/Libraries/XMCLib/inc\xmc_eth_mac.h **** #define ETH_MAC_DMA_RDES0_FL   (0x3FFF0000U) /**< Frame length mask */
 159:C:/Users/Yushev/git/optiga-trust-qi/projects/xmc4700_relax_kit/common/Libraries/XMCLib/inc\xmc_eth_mac.h **** #define ETH_MAC_DMA_RDES0_ES   (0x00008000U) /**< Error summary */
 160:C:/Users/Yushev/git/optiga-trust-qi/projects/xmc4700_relax_kit/common/Libraries/XMCLib/inc\xmc_eth_mac.h **** #define ETH_MAC_DMA_RDES0_DE   (0x00004000U) /**< Descriptor error */
 161:C:/Users/Yushev/git/optiga-trust-qi/projects/xmc4700_relax_kit/common/Libraries/XMCLib/inc\xmc_eth_mac.h **** #define ETH_MAC_DMA_RDES0_SAF  (0x00002000U) /**< Source address filter fail */
 162:C:/Users/Yushev/git/optiga-trust-qi/projects/xmc4700_relax_kit/common/Libraries/XMCLib/inc\xmc_eth_mac.h **** #define ETH_MAC_DMA_RDES0_LE   (0x00001000U) /**< Length error */
 163:C:/Users/Yushev/git/optiga-trust-qi/projects/xmc4700_relax_kit/common/Libraries/XMCLib/inc\xmc_eth_mac.h **** #define ETH_MAC_DMA_RDES0_OE   (0x00000800U) /**< Overflow error */
 164:C:/Users/Yushev/git/optiga-trust-qi/projects/xmc4700_relax_kit/common/Libraries/XMCLib/inc\xmc_eth_mac.h **** #define ETH_MAC_DMA_RDES0_VLAN (0x00000400U) /**< VLAN tag */
 165:C:/Users/Yushev/git/optiga-trust-qi/projects/xmc4700_relax_kit/common/Libraries/XMCLib/inc\xmc_eth_mac.h **** #define ETH_MAC_DMA_RDES0_FS   (0x00000200U) /**< First descriptor */
 166:C:/Users/Yushev/git/optiga-trust-qi/projects/xmc4700_relax_kit/common/Libraries/XMCLib/inc\xmc_eth_mac.h **** #define ETH_MAC_DMA_RDES0_LS   (0x00000100U) /**< Last descriptor */
 167:C:/Users/Yushev/git/optiga-trust-qi/projects/xmc4700_relax_kit/common/Libraries/XMCLib/inc\xmc_eth_mac.h **** #define ETH_MAC_DMA_RDES0_TSA  (0x00000080U) /**< Timestamp available */
 168:C:/Users/Yushev/git/optiga-trust-qi/projects/xmc4700_relax_kit/common/Libraries/XMCLib/inc\xmc_eth_mac.h **** #define ETH_MAC_DMA_RDES0_LC   (0x00000040U) /**< Late collision */
 169:C:/Users/Yushev/git/optiga-trust-qi/projects/xmc4700_relax_kit/common/Libraries/XMCLib/inc\xmc_eth_mac.h **** #define ETH_MAC_DMA_RDES0_FT   (0x00000020U) /**< Frame type */
 170:C:/Users/Yushev/git/optiga-trust-qi/projects/xmc4700_relax_kit/common/Libraries/XMCLib/inc\xmc_eth_mac.h **** #define ETH_MAC_DMA_RDES0_RWT  (0x00000010U) /**< Receive watchdog timeout */
 171:C:/Users/Yushev/git/optiga-trust-qi/projects/xmc4700_relax_kit/common/Libraries/XMCLib/inc\xmc_eth_mac.h **** #define ETH_MAC_DMA_RDES0_RE   (0x00000008U) /**< Receive error */
 172:C:/Users/Yushev/git/optiga-trust-qi/projects/xmc4700_relax_kit/common/Libraries/XMCLib/inc\xmc_eth_mac.h **** #define ETH_MAC_DMA_RDES0_DBE  (0x00000004U) /**< Dribble bit error */
 173:C:/Users/Yushev/git/optiga-trust-qi/projects/xmc4700_relax_kit/common/Libraries/XMCLib/inc\xmc_eth_mac.h **** #define ETH_MAC_DMA_RDES0_CE   (0x00000002U) /**< CRC error */
 174:C:/Users/Yushev/git/optiga-trust-qi/projects/xmc4700_relax_kit/common/Libraries/XMCLib/inc\xmc_eth_mac.h **** #define ETH_MAC_DMA_RDES0_ESA  (0x00000001U) /**< Extended Status/Rx MAC address */
 175:C:/Users/Yushev/git/optiga-trust-qi/projects/xmc4700_relax_kit/common/Libraries/XMCLib/inc\xmc_eth_mac.h **** 
 176:C:/Users/Yushev/git/optiga-trust-qi/projects/xmc4700_relax_kit/common/Libraries/XMCLib/inc\xmc_eth_mac.h **** /**************************************************************************************************
 177:C:/Users/Yushev/git/optiga-trust-qi/projects/xmc4700_relax_kit/common/Libraries/XMCLib/inc\xmc_eth_mac.h ****  * ENUMS
 178:C:/Users/Yushev/git/optiga-trust-qi/projects/xmc4700_relax_kit/common/Libraries/XMCLib/inc\xmc_eth_mac.h ****  **************************************************************************************************
 179:C:/Users/Yushev/git/optiga-trust-qi/projects/xmc4700_relax_kit/common/Libraries/XMCLib/inc\xmc_eth_mac.h **** 
 180:C:/Users/Yushev/git/optiga-trust-qi/projects/xmc4700_relax_kit/common/Libraries/XMCLib/inc\xmc_eth_mac.h **** /**
 181:C:/Users/Yushev/git/optiga-trust-qi/projects/xmc4700_relax_kit/common/Libraries/XMCLib/inc\xmc_eth_mac.h ****  * Ethernet MAC status return values
 182:C:/Users/Yushev/git/optiga-trust-qi/projects/xmc4700_relax_kit/common/Libraries/XMCLib/inc\xmc_eth_mac.h ****  */
 183:C:/Users/Yushev/git/optiga-trust-qi/projects/xmc4700_relax_kit/common/Libraries/XMCLib/inc\xmc_eth_mac.h **** typedef enum XMC_ETH_MAC_STATUS
 184:C:/Users/Yushev/git/optiga-trust-qi/projects/xmc4700_relax_kit/common/Libraries/XMCLib/inc\xmc_eth_mac.h **** {
 185:C:/Users/Yushev/git/optiga-trust-qi/projects/xmc4700_relax_kit/common/Libraries/XMCLib/inc\xmc_eth_mac.h ****   XMC_ETH_MAC_STATUS_OK    = 0U, /**< Driver accepted application request */
 186:C:/Users/Yushev/git/optiga-trust-qi/projects/xmc4700_relax_kit/common/Libraries/XMCLib/inc\xmc_eth_mac.h ****   XMC_ETH_MAC_STATUS_BUSY  = 1U, /**< Driver is busy and cannot handle request */
 187:C:/Users/Yushev/git/optiga-trust-qi/projects/xmc4700_relax_kit/common/Libraries/XMCLib/inc\xmc_eth_mac.h ****   XMC_ETH_MAC_STATUS_ERROR = 2U  /**< Driver could not fulfil application request */
 188:C:/Users/Yushev/git/optiga-trust-qi/projects/xmc4700_relax_kit/common/Libraries/XMCLib/inc\xmc_eth_mac.h **** } XMC_ETH_MAC_STATUS_t;
 189:C:/Users/Yushev/git/optiga-trust-qi/projects/xmc4700_relax_kit/common/Libraries/XMCLib/inc\xmc_eth_mac.h **** 
 190:C:/Users/Yushev/git/optiga-trust-qi/projects/xmc4700_relax_kit/common/Libraries/XMCLib/inc\xmc_eth_mac.h **** /**
 191:C:/Users/Yushev/git/optiga-trust-qi/projects/xmc4700_relax_kit/common/Libraries/XMCLib/inc\xmc_eth_mac.h ****  * Transmission frame
 192:C:/Users/Yushev/git/optiga-trust-qi/projects/xmc4700_relax_kit/common/Libraries/XMCLib/inc\xmc_eth_mac.h ****  */
 193:C:/Users/Yushev/git/optiga-trust-qi/projects/xmc4700_relax_kit/common/Libraries/XMCLib/inc\xmc_eth_mac.h **** typedef enum XMC_ETH_MAC_TX_FRAME
 194:C:/Users/Yushev/git/optiga-trust-qi/projects/xmc4700_relax_kit/common/Libraries/XMCLib/inc\xmc_eth_mac.h **** {
 195:C:/Users/Yushev/git/optiga-trust-qi/projects/xmc4700_relax_kit/common/Libraries/XMCLib/inc\xmc_eth_mac.h ****   XMC_ETH_MAC_TX_FRAME_FRAGMENT  = 0x1U, /**< Indicate frame fragment */
 196:C:/Users/Yushev/git/optiga-trust-qi/projects/xmc4700_relax_kit/common/Libraries/XMCLib/inc\xmc_eth_mac.h ****   XMC_ETH_MAC_TX_FRAME_EVENT     = 0x2U, /**< Generate event when frame is transmitted */
 197:C:/Users/Yushev/git/optiga-trust-qi/projects/xmc4700_relax_kit/common/Libraries/XMCLib/inc\xmc_eth_mac.h ****   XMC_ETH_MAC_TX_FRAME_TIMESTAMP = 0x4U  /**< Capture frame time stamp */
 198:C:/Users/Yushev/git/optiga-trust-qi/projects/xmc4700_relax_kit/common/Libraries/XMCLib/inc\xmc_eth_mac.h **** } XMC_ETH_MAC_TX_FRAME_t;
 199:C:/Users/Yushev/git/optiga-trust-qi/projects/xmc4700_relax_kit/common/Libraries/XMCLib/inc\xmc_eth_mac.h **** 
 200:C:/Users/Yushev/git/optiga-trust-qi/projects/xmc4700_relax_kit/common/Libraries/XMCLib/inc\xmc_eth_mac.h **** /**
 201:C:/Users/Yushev/git/optiga-trust-qi/projects/xmc4700_relax_kit/common/Libraries/XMCLib/inc\xmc_eth_mac.h ****  * ETH MAC event
 202:C:/Users/Yushev/git/optiga-trust-qi/projects/xmc4700_relax_kit/common/Libraries/XMCLib/inc\xmc_eth_mac.h ****  */
 203:C:/Users/Yushev/git/optiga-trust-qi/projects/xmc4700_relax_kit/common/Libraries/XMCLib/inc\xmc_eth_mac.h **** typedef enum XMC_ETH_MAC_EVENT
 204:C:/Users/Yushev/git/optiga-trust-qi/projects/xmc4700_relax_kit/common/Libraries/XMCLib/inc\xmc_eth_mac.h **** {
 205:C:/Users/Yushev/git/optiga-trust-qi/projects/xmc4700_relax_kit/common/Libraries/XMCLib/inc\xmc_eth_mac.h ****   XMC_ETH_MAC_EVENT_PMT = ETH_INTERRUPT_MASK_PMTIM_Msk << 16,        /**< Power management event */
 206:C:/Users/Yushev/git/optiga-trust-qi/projects/xmc4700_relax_kit/common/Libraries/XMCLib/inc\xmc_eth_mac.h ****   XMC_ETH_MAC_EVENT_TIMESTAMP = ETH_INTERRUPT_MASK_TSIM_Msk << 16,   /**< Time stamp event */
 207:C:/Users/Yushev/git/optiga-trust-qi/projects/xmc4700_relax_kit/common/Libraries/XMCLib/inc\xmc_eth_mac.h ****   XMC_ETH_MAC_EVENT_EARLY_RECEIVE = ETH_STATUS_ERI_Msk,              /**< Early receive */
 208:C:/Users/Yushev/git/optiga-trust-qi/projects/xmc4700_relax_kit/common/Libraries/XMCLib/inc\xmc_eth_mac.h ****   XMC_ETH_MAC_EVENT_BUS_ERROR = ETH_STATUS_FBI_Msk,                  /**< Bus error */
 209:C:/Users/Yushev/git/optiga-trust-qi/projects/xmc4700_relax_kit/common/Libraries/XMCLib/inc\xmc_eth_mac.h ****   XMC_ETH_MAC_EVENT_EARLY_TRANSMIT = ETH_STATUS_ETI_Msk,             /**< Early transmit */
 210:C:/Users/Yushev/git/optiga-trust-qi/projects/xmc4700_relax_kit/common/Libraries/XMCLib/inc\xmc_eth_mac.h ****   XMC_ETH_MAC_EVENT_RECEIVE_WATCHDOG_TIMEOUT = ETH_STATUS_RWT_Msk,   /**< Receive watchdog time-out
 211:C:/Users/Yushev/git/optiga-trust-qi/projects/xmc4700_relax_kit/common/Libraries/XMCLib/inc\xmc_eth_mac.h ****   XMC_ETH_MAC_EVENT_RECEIVE_PROCESS_STOPPED = ETH_STATUS_RPS_Msk,    /**< Receive process stopped *
 212:C:/Users/Yushev/git/optiga-trust-qi/projects/xmc4700_relax_kit/common/Libraries/XMCLib/inc\xmc_eth_mac.h ****   XMC_ETH_MAC_EVENT_RECEIVE_BUFFER_UNAVAILABLE = ETH_STATUS_RU_Msk,  /**< Receive buffer unavailabl
 213:C:/Users/Yushev/git/optiga-trust-qi/projects/xmc4700_relax_kit/common/Libraries/XMCLib/inc\xmc_eth_mac.h ****   XMC_ETH_MAC_EVENT_RECEIVE = ETH_STATUS_RI_Msk,                     /**< Receive event */
 214:C:/Users/Yushev/git/optiga-trust-qi/projects/xmc4700_relax_kit/common/Libraries/XMCLib/inc\xmc_eth_mac.h ****   XMC_ETH_MAC_EVENT_TRANSMIT_UNDERFLOW = ETH_STATUS_UNF_Msk,         /**< Transmit underflow */
 215:C:/Users/Yushev/git/optiga-trust-qi/projects/xmc4700_relax_kit/common/Libraries/XMCLib/inc\xmc_eth_mac.h ****   XMC_ETH_MAC_EVENT_RECEIVE_OVERFLOW = ETH_STATUS_OVF_Msk,           /**< Receive overflow */
 216:C:/Users/Yushev/git/optiga-trust-qi/projects/xmc4700_relax_kit/common/Libraries/XMCLib/inc\xmc_eth_mac.h ****   XMC_ETH_MAC_EVENT_TRANSMIT_JABBER_TIMEOUT = ETH_STATUS_TJT_Msk,    /**< Transmit jabber time-out 
 217:C:/Users/Yushev/git/optiga-trust-qi/projects/xmc4700_relax_kit/common/Libraries/XMCLib/inc\xmc_eth_mac.h ****   XMC_ETH_MAC_EVENT_TRANSMIT_BUFFER_UNAVAILABLE = ETH_STATUS_TU_Msk, /**< Transmit buffer unavailab
 218:C:/Users/Yushev/git/optiga-trust-qi/projects/xmc4700_relax_kit/common/Libraries/XMCLib/inc\xmc_eth_mac.h ****   XMC_ETH_MAC_EVENT_TRANSMIT_PROCESS_STOPPED = ETH_STATUS_TPS_Msk,   /**< Transmit process stopped 
 219:C:/Users/Yushev/git/optiga-trust-qi/projects/xmc4700_relax_kit/common/Libraries/XMCLib/inc\xmc_eth_mac.h ****   XMC_ETH_MAC_EVENT_TRANSMIT = ETH_STATUS_TI_Msk                     /**< Transmit event */
 220:C:/Users/Yushev/git/optiga-trust-qi/projects/xmc4700_relax_kit/common/Libraries/XMCLib/inc\xmc_eth_mac.h **** } XMC_ETH_MAC_EVENT_t;
 221:C:/Users/Yushev/git/optiga-trust-qi/projects/xmc4700_relax_kit/common/Libraries/XMCLib/inc\xmc_eth_mac.h **** 
 222:C:/Users/Yushev/git/optiga-trust-qi/projects/xmc4700_relax_kit/common/Libraries/XMCLib/inc\xmc_eth_mac.h **** /**
 223:C:/Users/Yushev/git/optiga-trust-qi/projects/xmc4700_relax_kit/common/Libraries/XMCLib/inc\xmc_eth_mac.h ****  * Link interface
 224:C:/Users/Yushev/git/optiga-trust-qi/projects/xmc4700_relax_kit/common/Libraries/XMCLib/inc\xmc_eth_mac.h ****  */
 225:C:/Users/Yushev/git/optiga-trust-qi/projects/xmc4700_relax_kit/common/Libraries/XMCLib/inc\xmc_eth_mac.h **** typedef enum XMC_ETH_LINK_INTERFACE
 226:C:/Users/Yushev/git/optiga-trust-qi/projects/xmc4700_relax_kit/common/Libraries/XMCLib/inc\xmc_eth_mac.h **** {
 227:C:/Users/Yushev/git/optiga-trust-qi/projects/xmc4700_relax_kit/common/Libraries/XMCLib/inc\xmc_eth_mac.h ****   XMC_ETH_LINK_INTERFACE_MII, /**< Link interface: Media independent interface */
 228:C:/Users/Yushev/git/optiga-trust-qi/projects/xmc4700_relax_kit/common/Libraries/XMCLib/inc\xmc_eth_mac.h ****   XMC_ETH_LINK_INTERFACE_RMII /**< Link interface: Reduced media independent interface */
 229:C:/Users/Yushev/git/optiga-trust-qi/projects/xmc4700_relax_kit/common/Libraries/XMCLib/inc\xmc_eth_mac.h **** } XMC_ETH_LINK_INTERFACE_t;
 230:C:/Users/Yushev/git/optiga-trust-qi/projects/xmc4700_relax_kit/common/Libraries/XMCLib/inc\xmc_eth_mac.h **** 
 231:C:/Users/Yushev/git/optiga-trust-qi/projects/xmc4700_relax_kit/common/Libraries/XMCLib/inc\xmc_eth_mac.h **** /**
 232:C:/Users/Yushev/git/optiga-trust-qi/projects/xmc4700_relax_kit/common/Libraries/XMCLib/inc\xmc_eth_mac.h ****  * ETH link status
 233:C:/Users/Yushev/git/optiga-trust-qi/projects/xmc4700_relax_kit/common/Libraries/XMCLib/inc\xmc_eth_mac.h ****  */
 234:C:/Users/Yushev/git/optiga-trust-qi/projects/xmc4700_relax_kit/common/Libraries/XMCLib/inc\xmc_eth_mac.h **** typedef enum XMC_ETH_LINK_STATUS
 235:C:/Users/Yushev/git/optiga-trust-qi/projects/xmc4700_relax_kit/common/Libraries/XMCLib/inc\xmc_eth_mac.h **** {
 236:C:/Users/Yushev/git/optiga-trust-qi/projects/xmc4700_relax_kit/common/Libraries/XMCLib/inc\xmc_eth_mac.h ****   XMC_ETH_LINK_STATUS_DOWN, /**< Link status down */
 237:C:/Users/Yushev/git/optiga-trust-qi/projects/xmc4700_relax_kit/common/Libraries/XMCLib/inc\xmc_eth_mac.h ****   XMC_ETH_LINK_STATUS_UP    /**< Link status up */
 238:C:/Users/Yushev/git/optiga-trust-qi/projects/xmc4700_relax_kit/common/Libraries/XMCLib/inc\xmc_eth_mac.h **** } XMC_ETH_LINK_STATUS_t;
 239:C:/Users/Yushev/git/optiga-trust-qi/projects/xmc4700_relax_kit/common/Libraries/XMCLib/inc\xmc_eth_mac.h **** 
 240:C:/Users/Yushev/git/optiga-trust-qi/projects/xmc4700_relax_kit/common/Libraries/XMCLib/inc\xmc_eth_mac.h **** /**
 241:C:/Users/Yushev/git/optiga-trust-qi/projects/xmc4700_relax_kit/common/Libraries/XMCLib/inc\xmc_eth_mac.h ****  * ETH link speed
 242:C:/Users/Yushev/git/optiga-trust-qi/projects/xmc4700_relax_kit/common/Libraries/XMCLib/inc\xmc_eth_mac.h ****  */
 243:C:/Users/Yushev/git/optiga-trust-qi/projects/xmc4700_relax_kit/common/Libraries/XMCLib/inc\xmc_eth_mac.h **** typedef enum XMC_ETH_LINK_SPEED
 244:C:/Users/Yushev/git/optiga-trust-qi/projects/xmc4700_relax_kit/common/Libraries/XMCLib/inc\xmc_eth_mac.h **** {
 245:C:/Users/Yushev/git/optiga-trust-qi/projects/xmc4700_relax_kit/common/Libraries/XMCLib/inc\xmc_eth_mac.h ****   XMC_ETH_LINK_SPEED_10M  = 0UL << ETH_MAC_CONFIGURATION_FES_Pos, /**< Link speed: 10M */
 246:C:/Users/Yushev/git/optiga-trust-qi/projects/xmc4700_relax_kit/common/Libraries/XMCLib/inc\xmc_eth_mac.h ****   XMC_ETH_LINK_SPEED_100M = 1UL << ETH_MAC_CONFIGURATION_FES_Pos  /**< Link speed: 100M */
 247:C:/Users/Yushev/git/optiga-trust-qi/projects/xmc4700_relax_kit/common/Libraries/XMCLib/inc\xmc_eth_mac.h **** } XMC_ETH_LINK_SPEED_t;
 248:C:/Users/Yushev/git/optiga-trust-qi/projects/xmc4700_relax_kit/common/Libraries/XMCLib/inc\xmc_eth_mac.h **** 
 249:C:/Users/Yushev/git/optiga-trust-qi/projects/xmc4700_relax_kit/common/Libraries/XMCLib/inc\xmc_eth_mac.h **** /**
 250:C:/Users/Yushev/git/optiga-trust-qi/projects/xmc4700_relax_kit/common/Libraries/XMCLib/inc\xmc_eth_mac.h ****  * ETH duplex settings (full/half?)
 251:C:/Users/Yushev/git/optiga-trust-qi/projects/xmc4700_relax_kit/common/Libraries/XMCLib/inc\xmc_eth_mac.h ****  */
 252:C:/Users/Yushev/git/optiga-trust-qi/projects/xmc4700_relax_kit/common/Libraries/XMCLib/inc\xmc_eth_mac.h **** typedef enum XMC_ETH_LINK_DUPLEX
 253:C:/Users/Yushev/git/optiga-trust-qi/projects/xmc4700_relax_kit/common/Libraries/XMCLib/inc\xmc_eth_mac.h **** {
 254:C:/Users/Yushev/git/optiga-trust-qi/projects/xmc4700_relax_kit/common/Libraries/XMCLib/inc\xmc_eth_mac.h ****   XMC_ETH_LINK_DUPLEX_HALF = 0UL << ETH_MAC_CONFIGURATION_DM_Pos, /**< Half duplex */
 255:C:/Users/Yushev/git/optiga-trust-qi/projects/xmc4700_relax_kit/common/Libraries/XMCLib/inc\xmc_eth_mac.h ****   XMC_ETH_LINK_DUPLEX_FULL = 1UL << ETH_MAC_CONFIGURATION_DM_Pos  /**< Full duplex */
 256:C:/Users/Yushev/git/optiga-trust-qi/projects/xmc4700_relax_kit/common/Libraries/XMCLib/inc\xmc_eth_mac.h **** } XMC_ETH_LINK_DUPLEX_t;
 257:C:/Users/Yushev/git/optiga-trust-qi/projects/xmc4700_relax_kit/common/Libraries/XMCLib/inc\xmc_eth_mac.h **** 
 258:C:/Users/Yushev/git/optiga-trust-qi/projects/xmc4700_relax_kit/common/Libraries/XMCLib/inc\xmc_eth_mac.h **** /**
 259:C:/Users/Yushev/git/optiga-trust-qi/projects/xmc4700_relax_kit/common/Libraries/XMCLib/inc\xmc_eth_mac.h ****  * MAC address filter
 260:C:/Users/Yushev/git/optiga-trust-qi/projects/xmc4700_relax_kit/common/Libraries/XMCLib/inc\xmc_eth_mac.h ****  */
 261:C:/Users/Yushev/git/optiga-trust-qi/projects/xmc4700_relax_kit/common/Libraries/XMCLib/inc\xmc_eth_mac.h **** typedef enum XMC_ETH_MAC_ADDR_FILTER
 262:C:/Users/Yushev/git/optiga-trust-qi/projects/xmc4700_relax_kit/common/Libraries/XMCLib/inc\xmc_eth_mac.h **** {
 263:C:/Users/Yushev/git/optiga-trust-qi/projects/xmc4700_relax_kit/common/Libraries/XMCLib/inc\xmc_eth_mac.h ****   XMC_ETH_MAC_ADDR_FILTER_MASK_BYTE0 = 0x01000000UL, /**< Address filter mask: byte 0 */
 264:C:/Users/Yushev/git/optiga-trust-qi/projects/xmc4700_relax_kit/common/Libraries/XMCLib/inc\xmc_eth_mac.h ****   XMC_ETH_MAC_ADDR_FILTER_MASK_BYTE1 = 0x02000000UL, /**< Address filter mask: byte 1 */
 265:C:/Users/Yushev/git/optiga-trust-qi/projects/xmc4700_relax_kit/common/Libraries/XMCLib/inc\xmc_eth_mac.h ****   XMC_ETH_MAC_ADDR_FILTER_MASK_BYTE2 = 0x04000000UL, /**< Address filter mask: byte 2 */
 266:C:/Users/Yushev/git/optiga-trust-qi/projects/xmc4700_relax_kit/common/Libraries/XMCLib/inc\xmc_eth_mac.h ****   XMC_ETH_MAC_ADDR_FILTER_MASK_BYTE3 = 0x08000000UL, /**< Address filter mask: byte 3 */
 267:C:/Users/Yushev/git/optiga-trust-qi/projects/xmc4700_relax_kit/common/Libraries/XMCLib/inc\xmc_eth_mac.h ****   XMC_ETH_MAC_ADDR_FILTER_MASK_BYTE4 = 0x10000000UL, /**< Address filter mask: byte 4 */
 268:C:/Users/Yushev/git/optiga-trust-qi/projects/xmc4700_relax_kit/common/Libraries/XMCLib/inc\xmc_eth_mac.h ****   XMC_ETH_MAC_ADDR_FILTER_MASK_BYTE5 = 0x20000000UL, /**< Address filter mask: byte 5 */
 269:C:/Users/Yushev/git/optiga-trust-qi/projects/xmc4700_relax_kit/common/Libraries/XMCLib/inc\xmc_eth_mac.h ****   XMC_ETH_MAC_ADDR_FILTER_SA         = 0x40000000UL  /**< Address filter SA */
 270:C:/Users/Yushev/git/optiga-trust-qi/projects/xmc4700_relax_kit/common/Libraries/XMCLib/inc\xmc_eth_mac.h **** } XMC_ETH_MAC_ADDR_FILTER_t;
 271:C:/Users/Yushev/git/optiga-trust-qi/projects/xmc4700_relax_kit/common/Libraries/XMCLib/inc\xmc_eth_mac.h **** 
 272:C:/Users/Yushev/git/optiga-trust-qi/projects/xmc4700_relax_kit/common/Libraries/XMCLib/inc\xmc_eth_mac.h **** /**
 273:C:/Users/Yushev/git/optiga-trust-qi/projects/xmc4700_relax_kit/common/Libraries/XMCLib/inc\xmc_eth_mac.h ****  * Power management events that triggers a PMT interrupt
 274:C:/Users/Yushev/git/optiga-trust-qi/projects/xmc4700_relax_kit/common/Libraries/XMCLib/inc\xmc_eth_mac.h ****  */
 275:C:/Users/Yushev/git/optiga-trust-qi/projects/xmc4700_relax_kit/common/Libraries/XMCLib/inc\xmc_eth_mac.h **** typedef enum XMC_ETH_MAC_PMT_EVENT
 276:C:/Users/Yushev/git/optiga-trust-qi/projects/xmc4700_relax_kit/common/Libraries/XMCLib/inc\xmc_eth_mac.h **** {
 277:C:/Users/Yushev/git/optiga-trust-qi/projects/xmc4700_relax_kit/common/Libraries/XMCLib/inc\xmc_eth_mac.h ****   XMC_ETH_MAC_PMT_EVENT_ON_WAKEUP_FRAME         = ETH_PMT_CONTROL_STATUS_RWKPKTEN_Msk,  /**< Wakeup
 278:C:/Users/Yushev/git/optiga-trust-qi/projects/xmc4700_relax_kit/common/Libraries/XMCLib/inc\xmc_eth_mac.h ****   XMC_ETH_MAC_PMT_EVENT_ON_MAGIC_PACKET         = ETH_PMT_CONTROL_STATUS_MGKPKTEN_Msk,  /**< Magic 
 279:C:/Users/Yushev/git/optiga-trust-qi/projects/xmc4700_relax_kit/common/Libraries/XMCLib/inc\xmc_eth_mac.h ****   XMC_ETH_MAC_PMT_EVENT_ON_UNICAST_FRAME_FILTER = ETH_PMT_CONTROL_STATUS_GLBLUCAST_Msk  /**< Unicas
 280:C:/Users/Yushev/git/optiga-trust-qi/projects/xmc4700_relax_kit/common/Libraries/XMCLib/inc\xmc_eth_mac.h **** } XMC_ETH_MAC_PMT_EVENT_t;
 281:C:/Users/Yushev/git/optiga-trust-qi/projects/xmc4700_relax_kit/common/Libraries/XMCLib/inc\xmc_eth_mac.h **** 
 282:C:/Users/Yushev/git/optiga-trust-qi/projects/xmc4700_relax_kit/common/Libraries/XMCLib/inc\xmc_eth_mac.h **** 
 283:C:/Users/Yushev/git/optiga-trust-qi/projects/xmc4700_relax_kit/common/Libraries/XMCLib/inc\xmc_eth_mac.h **** /**
 284:C:/Users/Yushev/git/optiga-trust-qi/projects/xmc4700_relax_kit/common/Libraries/XMCLib/inc\xmc_eth_mac.h ****  * ETH MAC time-stamp configuration enable
 285:C:/Users/Yushev/git/optiga-trust-qi/projects/xmc4700_relax_kit/common/Libraries/XMCLib/inc\xmc_eth_mac.h ****  */
 286:C:/Users/Yushev/git/optiga-trust-qi/projects/xmc4700_relax_kit/common/Libraries/XMCLib/inc\xmc_eth_mac.h **** typedef enum XMC_ETH_MAC_TIMESTAMP_CONFIG
 287:C:/Users/Yushev/git/optiga-trust-qi/projects/xmc4700_relax_kit/common/Libraries/XMCLib/inc\xmc_eth_mac.h **** {
 288:C:/Users/Yushev/git/optiga-trust-qi/projects/xmc4700_relax_kit/common/Libraries/XMCLib/inc\xmc_eth_mac.h ****   XMC_ETH_MAC_TIMESTAMP_CONFIG_FINE_UPDATE = ETH_TIMESTAMP_CONTROL_TSCFUPDT_Msk,             /**< F
 289:C:/Users/Yushev/git/optiga-trust-qi/projects/xmc4700_relax_kit/common/Libraries/XMCLib/inc\xmc_eth_mac.h ****   XMC_ETH_MAC_TIMESTAMP_CONFIG_ENABLE_TS_INTERRUPT = ETH_TIMESTAMP_CONTROL_TSTRIG_Msk,       /**< T
 290:C:/Users/Yushev/git/optiga-trust-qi/projects/xmc4700_relax_kit/common/Libraries/XMCLib/inc\xmc_eth_mac.h ****   XMC_ETH_MAC_TIMESTAMP_CONFIG_ENABLE_ALL_FRAMES = ETH_TIMESTAMP_CONTROL_TSENALL_Msk,        /**< E
 291:C:/Users/Yushev/git/optiga-trust-qi/projects/xmc4700_relax_kit/common/Libraries/XMCLib/inc\xmc_eth_mac.h ****   XMC_ETH_MAC_TIMESTAMP_CONFIG_ENABLE_PTPV2 = ETH_TIMESTAMP_CONTROL_TSVER2ENA_Msk,           /**< P
 292:C:/Users/Yushev/git/optiga-trust-qi/projects/xmc4700_relax_kit/common/Libraries/XMCLib/inc\xmc_eth_mac.h ****   XMC_ETH_MAC_TIMESTAMP_CONFIG_ENABLE_PTP_OVER_ETHERNET = ETH_TIMESTAMP_CONTROL_TSIPENA_Msk, /**< P
 293:C:/Users/Yushev/git/optiga-trust-qi/projects/xmc4700_relax_kit/common/Libraries/XMCLib/inc\xmc_eth_mac.h ****   XMC_ETH_MAC_TIMESTAMP_CONFIG_ENABLE_PTP_OVER_IPV6 = ETH_TIMESTAMP_CONTROL_TSIPV6ENA_Msk,   /**< P
 294:C:/Users/Yushev/git/optiga-trust-qi/projects/xmc4700_relax_kit/common/Libraries/XMCLib/inc\xmc_eth_mac.h ****   XMC_ETH_MAC_TIMESTAMP_CONFIG_ENABLE_PTP_OVER_IPV4 = ETH_TIMESTAMP_CONTROL_TSIPV4ENA_Msk,   /**< P
 295:C:/Users/Yushev/git/optiga-trust-qi/projects/xmc4700_relax_kit/common/Libraries/XMCLib/inc\xmc_eth_mac.h ****   XMC_ETH_MAC_TIMESTAMP_CONFIG_ENABLE_MAC_ADDRESS_FILTER = ETH_TIMESTAMP_CONTROL_TSENMACADDR_Msk /*
 296:C:/Users/Yushev/git/optiga-trust-qi/projects/xmc4700_relax_kit/common/Libraries/XMCLib/inc\xmc_eth_mac.h **** } XMC_ETH_MAC_TIMESTAMP_CONFIG_t;
 297:C:/Users/Yushev/git/optiga-trust-qi/projects/xmc4700_relax_kit/common/Libraries/XMCLib/inc\xmc_eth_mac.h **** 
 298:C:/Users/Yushev/git/optiga-trust-qi/projects/xmc4700_relax_kit/common/Libraries/XMCLib/inc\xmc_eth_mac.h **** /**
 299:C:/Users/Yushev/git/optiga-trust-qi/projects/xmc4700_relax_kit/common/Libraries/XMCLib/inc\xmc_eth_mac.h ****  * ETH MAC time-stamp status
 300:C:/Users/Yushev/git/optiga-trust-qi/projects/xmc4700_relax_kit/common/Libraries/XMCLib/inc\xmc_eth_mac.h ****  */
 301:C:/Users/Yushev/git/optiga-trust-qi/projects/xmc4700_relax_kit/common/Libraries/XMCLib/inc\xmc_eth_mac.h **** typedef enum XMC_ETH_MAC_TIMESTAMP_STATUS
 302:C:/Users/Yushev/git/optiga-trust-qi/projects/xmc4700_relax_kit/common/Libraries/XMCLib/inc\xmc_eth_mac.h **** {
 303:C:/Users/Yushev/git/optiga-trust-qi/projects/xmc4700_relax_kit/common/Libraries/XMCLib/inc\xmc_eth_mac.h ****   XMC_ETH_MAC_TIMESTAMP_STATUS_SECONDS_OVERFLOW = ETH_TIMESTAMP_STATUS_TSSOVF_Msk,           /**< I
 304:C:/Users/Yushev/git/optiga-trust-qi/projects/xmc4700_relax_kit/common/Libraries/XMCLib/inc\xmc_eth_mac.h ****   XMC_ETH_MAC_TIMESTAMP_STATUS_TARGET_TIME_REACHED = ETH_TIMESTAMP_STATUS_TSTARGT_Msk,       /**< I
 305:C:/Users/Yushev/git/optiga-trust-qi/projects/xmc4700_relax_kit/common/Libraries/XMCLib/inc\xmc_eth_mac.h ****   XMC_ETH_MAC_TIMESTAMP_STATUS_TARGET_TIMER_ERROR = ETH_TIMESTAMP_STATUS_TSTRGTERR_Msk,      /**< S
 306:C:/Users/Yushev/git/optiga-trust-qi/projects/xmc4700_relax_kit/common/Libraries/XMCLib/inc\xmc_eth_mac.h **** } XMC_ETH_MAC_TIMESTAMP_STATUS_t;
 307:C:/Users/Yushev/git/optiga-trust-qi/projects/xmc4700_relax_kit/common/Libraries/XMCLib/inc\xmc_eth_mac.h **** 
 308:C:/Users/Yushev/git/optiga-trust-qi/projects/xmc4700_relax_kit/common/Libraries/XMCLib/inc\xmc_eth_mac.h **** 
 309:C:/Users/Yushev/git/optiga-trust-qi/projects/xmc4700_relax_kit/common/Libraries/XMCLib/inc\xmc_eth_mac.h **** /**************************************************************************************************
 310:C:/Users/Yushev/git/optiga-trust-qi/projects/xmc4700_relax_kit/common/Libraries/XMCLib/inc\xmc_eth_mac.h ****  * DATA STRUCTURES
 311:C:/Users/Yushev/git/optiga-trust-qi/projects/xmc4700_relax_kit/common/Libraries/XMCLib/inc\xmc_eth_mac.h ****  **************************************************************************************************
 312:C:/Users/Yushev/git/optiga-trust-qi/projects/xmc4700_relax_kit/common/Libraries/XMCLib/inc\xmc_eth_mac.h **** 
 313:C:/Users/Yushev/git/optiga-trust-qi/projects/xmc4700_relax_kit/common/Libraries/XMCLib/inc\xmc_eth_mac.h **** /* Anonymous structure/union guard start */
 314:C:/Users/Yushev/git/optiga-trust-qi/projects/xmc4700_relax_kit/common/Libraries/XMCLib/inc\xmc_eth_mac.h **** #if defined (__CC_ARM)
 315:C:/Users/Yushev/git/optiga-trust-qi/projects/xmc4700_relax_kit/common/Libraries/XMCLib/inc\xmc_eth_mac.h **** #pragma push
 316:C:/Users/Yushev/git/optiga-trust-qi/projects/xmc4700_relax_kit/common/Libraries/XMCLib/inc\xmc_eth_mac.h **** #pragma anon_unions
 317:C:/Users/Yushev/git/optiga-trust-qi/projects/xmc4700_relax_kit/common/Libraries/XMCLib/inc\xmc_eth_mac.h **** #elif defined (__TASKING__)
 318:C:/Users/Yushev/git/optiga-trust-qi/projects/xmc4700_relax_kit/common/Libraries/XMCLib/inc\xmc_eth_mac.h **** #pragma warning 586
 319:C:/Users/Yushev/git/optiga-trust-qi/projects/xmc4700_relax_kit/common/Libraries/XMCLib/inc\xmc_eth_mac.h **** #endif
 320:C:/Users/Yushev/git/optiga-trust-qi/projects/xmc4700_relax_kit/common/Libraries/XMCLib/inc\xmc_eth_mac.h **** 
 321:C:/Users/Yushev/git/optiga-trust-qi/projects/xmc4700_relax_kit/common/Libraries/XMCLib/inc\xmc_eth_mac.h **** /**
 322:C:/Users/Yushev/git/optiga-trust-qi/projects/xmc4700_relax_kit/common/Libraries/XMCLib/inc\xmc_eth_mac.h ****  * ETH MAC port control
 323:C:/Users/Yushev/git/optiga-trust-qi/projects/xmc4700_relax_kit/common/Libraries/XMCLib/inc\xmc_eth_mac.h ****  */
 324:C:/Users/Yushev/git/optiga-trust-qi/projects/xmc4700_relax_kit/common/Libraries/XMCLib/inc\xmc_eth_mac.h **** typedef union XMC_ETH_MAC_PORT_CTRL
 325:C:/Users/Yushev/git/optiga-trust-qi/projects/xmc4700_relax_kit/common/Libraries/XMCLib/inc\xmc_eth_mac.h **** {
 326:C:/Users/Yushev/git/optiga-trust-qi/projects/xmc4700_relax_kit/common/Libraries/XMCLib/inc\xmc_eth_mac.h ****   struct
 327:C:/Users/Yushev/git/optiga-trust-qi/projects/xmc4700_relax_kit/common/Libraries/XMCLib/inc\xmc_eth_mac.h ****   {
 328:C:/Users/Yushev/git/optiga-trust-qi/projects/xmc4700_relax_kit/common/Libraries/XMCLib/inc\xmc_eth_mac.h ****     uint32_t rxd0: 2;     /**< Receive data bit 0 (::XMC_ETH_MAC_PORT_CTRL_RXD0_t) */
 329:C:/Users/Yushev/git/optiga-trust-qi/projects/xmc4700_relax_kit/common/Libraries/XMCLib/inc\xmc_eth_mac.h ****     uint32_t rxd1: 2;     /**< Receive data bit 1 (::XMC_ETH_MAC_PORT_CTRL_RXD1_t) */
 330:C:/Users/Yushev/git/optiga-trust-qi/projects/xmc4700_relax_kit/common/Libraries/XMCLib/inc\xmc_eth_mac.h ****     uint32_t rxd2: 2;     /**< Receive data bit 2 (only MII) (::XMC_ETH_MAC_PORT_CTRL_RXD2_t) */
 331:C:/Users/Yushev/git/optiga-trust-qi/projects/xmc4700_relax_kit/common/Libraries/XMCLib/inc\xmc_eth_mac.h ****     uint32_t rxd3: 2;     /**< Receive data bit 3 (only MII) (::XMC_ETH_MAC_PORT_CTRL_RXD3_t) */
 332:C:/Users/Yushev/git/optiga-trust-qi/projects/xmc4700_relax_kit/common/Libraries/XMCLib/inc\xmc_eth_mac.h ****     uint32_t clk_rmii: 2; /**< RMII: Continuous 50 MHz reference clock.
 333:C:/Users/Yushev/git/optiga-trust-qi/projects/xmc4700_relax_kit/common/Libraries/XMCLib/inc\xmc_eth_mac.h ****                                MII: Receive clock, 25 MHz for 100Mbit/s, 2.5 MHz for 10Mbit/s
 334:C:/Users/Yushev/git/optiga-trust-qi/projects/xmc4700_relax_kit/common/Libraries/XMCLib/inc\xmc_eth_mac.h ****                                (::XMC_ETH_MAC_PORT_CTRL_CLK_RMII_t) */
 335:C:/Users/Yushev/git/optiga-trust-qi/projects/xmc4700_relax_kit/common/Libraries/XMCLib/inc\xmc_eth_mac.h ****     uint32_t crs_dv: 2;   /**< RMII: carrier sense/RX_Data valid. MII: RX_Data valid (::XMC_ETH_MAC
 336:C:/Users/Yushev/git/optiga-trust-qi/projects/xmc4700_relax_kit/common/Libraries/XMCLib/inc\xmc_eth_mac.h ****     uint32_t crs: 2;      /**< Carrier sense for only MII (::XMC_ETH_MAC_PORT_CTRL_CRS_t) */
 337:C:/Users/Yushev/git/optiga-trust-qi/projects/xmc4700_relax_kit/common/Libraries/XMCLib/inc\xmc_eth_mac.h ****     uint32_t rxer: 2;     /**< Receive error (::XMC_ETH_MAC_PORT_CTRL_RXER_t) */
 338:C:/Users/Yushev/git/optiga-trust-qi/projects/xmc4700_relax_kit/common/Libraries/XMCLib/inc\xmc_eth_mac.h ****     uint32_t col: 2;      /**< Collision Detect for only MII (::XMC_ETH_MAC_PORT_CTRL_COL_t) */
 339:C:/Users/Yushev/git/optiga-trust-qi/projects/xmc4700_relax_kit/common/Libraries/XMCLib/inc\xmc_eth_mac.h ****     uint32_t clk_tx: 2;   /**< Transmit clock (only MII), 25 MHz for 100Mbit/s, 2.5 MHz for 10Mbit/
 340:C:/Users/Yushev/git/optiga-trust-qi/projects/xmc4700_relax_kit/common/Libraries/XMCLib/inc\xmc_eth_mac.h ****     uint32_t: 2;          /**< Reserved bits */
 341:C:/Users/Yushev/git/optiga-trust-qi/projects/xmc4700_relax_kit/common/Libraries/XMCLib/inc\xmc_eth_mac.h ****     uint32_t mdio: 2;     /**< Bidirectional, push-pull management data I/O line (::XMC_ETH_MAC_POR
 342:C:/Users/Yushev/git/optiga-trust-qi/projects/xmc4700_relax_kit/common/Libraries/XMCLib/inc\xmc_eth_mac.h ****     uint32_t: 2;          /**< Reserved bits */
 343:C:/Users/Yushev/git/optiga-trust-qi/projects/xmc4700_relax_kit/common/Libraries/XMCLib/inc\xmc_eth_mac.h ****     uint32_t mode: 1;     /**< RMII or MII (::XMC_ETH_MAC_PORT_CTRL_MODE_t) */
 344:C:/Users/Yushev/git/optiga-trust-qi/projects/xmc4700_relax_kit/common/Libraries/XMCLib/inc\xmc_eth_mac.h ****   };
 345:C:/Users/Yushev/git/optiga-trust-qi/projects/xmc4700_relax_kit/common/Libraries/XMCLib/inc\xmc_eth_mac.h **** 
 346:C:/Users/Yushev/git/optiga-trust-qi/projects/xmc4700_relax_kit/common/Libraries/XMCLib/inc\xmc_eth_mac.h ****   uint32_t raw;
 347:C:/Users/Yushev/git/optiga-trust-qi/projects/xmc4700_relax_kit/common/Libraries/XMCLib/inc\xmc_eth_mac.h **** } XMC_ETH_MAC_PORT_CTRL_t;
 348:C:/Users/Yushev/git/optiga-trust-qi/projects/xmc4700_relax_kit/common/Libraries/XMCLib/inc\xmc_eth_mac.h **** 
 349:C:/Users/Yushev/git/optiga-trust-qi/projects/xmc4700_relax_kit/common/Libraries/XMCLib/inc\xmc_eth_mac.h **** /**
 350:C:/Users/Yushev/git/optiga-trust-qi/projects/xmc4700_relax_kit/common/Libraries/XMCLib/inc\xmc_eth_mac.h ****  * ETH MAC DMA descriptor
 351:C:/Users/Yushev/git/optiga-trust-qi/projects/xmc4700_relax_kit/common/Libraries/XMCLib/inc\xmc_eth_mac.h ****  */
 352:C:/Users/Yushev/git/optiga-trust-qi/projects/xmc4700_relax_kit/common/Libraries/XMCLib/inc\xmc_eth_mac.h **** typedef struct XMC_ETH_MAC_DMA_DESC
 353:C:/Users/Yushev/git/optiga-trust-qi/projects/xmc4700_relax_kit/common/Libraries/XMCLib/inc\xmc_eth_mac.h **** {
 354:C:/Users/Yushev/git/optiga-trust-qi/projects/xmc4700_relax_kit/common/Libraries/XMCLib/inc\xmc_eth_mac.h ****   volatile uint32_t status;                 /**< DMA descriptor status */
 355:C:/Users/Yushev/git/optiga-trust-qi/projects/xmc4700_relax_kit/common/Libraries/XMCLib/inc\xmc_eth_mac.h ****   volatile uint32_t length;                 /**< Descriptor length */
 356:C:/Users/Yushev/git/optiga-trust-qi/projects/xmc4700_relax_kit/common/Libraries/XMCLib/inc\xmc_eth_mac.h ****   volatile uint32_t buffer1;                /**< Buffer 1 */
 357:C:/Users/Yushev/git/optiga-trust-qi/projects/xmc4700_relax_kit/common/Libraries/XMCLib/inc\xmc_eth_mac.h ****   volatile uint32_t buffer2;                /**< Buffer 2 */
 358:C:/Users/Yushev/git/optiga-trust-qi/projects/xmc4700_relax_kit/common/Libraries/XMCLib/inc\xmc_eth_mac.h ****   volatile uint32_t extended_status;        /**< Extended status */
 359:C:/Users/Yushev/git/optiga-trust-qi/projects/xmc4700_relax_kit/common/Libraries/XMCLib/inc\xmc_eth_mac.h ****   volatile uint32_t reserved;               /**< Reserved */
 360:C:/Users/Yushev/git/optiga-trust-qi/projects/xmc4700_relax_kit/common/Libraries/XMCLib/inc\xmc_eth_mac.h ****   volatile uint32_t time_stamp_nanoseconds; /**< Time stamp low */
 361:C:/Users/Yushev/git/optiga-trust-qi/projects/xmc4700_relax_kit/common/Libraries/XMCLib/inc\xmc_eth_mac.h ****   volatile uint32_t time_stamp_seconds;     /**< Time stamp high */
 362:C:/Users/Yushev/git/optiga-trust-qi/projects/xmc4700_relax_kit/common/Libraries/XMCLib/inc\xmc_eth_mac.h **** } XMC_ETH_MAC_DMA_DESC_t;
 363:C:/Users/Yushev/git/optiga-trust-qi/projects/xmc4700_relax_kit/common/Libraries/XMCLib/inc\xmc_eth_mac.h **** 
 364:C:/Users/Yushev/git/optiga-trust-qi/projects/xmc4700_relax_kit/common/Libraries/XMCLib/inc\xmc_eth_mac.h **** /**
 365:C:/Users/Yushev/git/optiga-trust-qi/projects/xmc4700_relax_kit/common/Libraries/XMCLib/inc\xmc_eth_mac.h ****  * ETH MAC time
 366:C:/Users/Yushev/git/optiga-trust-qi/projects/xmc4700_relax_kit/common/Libraries/XMCLib/inc\xmc_eth_mac.h ****  */
 367:C:/Users/Yushev/git/optiga-trust-qi/projects/xmc4700_relax_kit/common/Libraries/XMCLib/inc\xmc_eth_mac.h **** typedef struct XMC_ETH_MAC_TIME
 368:C:/Users/Yushev/git/optiga-trust-qi/projects/xmc4700_relax_kit/common/Libraries/XMCLib/inc\xmc_eth_mac.h **** {
 369:C:/Users/Yushev/git/optiga-trust-qi/projects/xmc4700_relax_kit/common/Libraries/XMCLib/inc\xmc_eth_mac.h ****   uint32_t seconds;                 /**< Seconds */
 370:C:/Users/Yushev/git/optiga-trust-qi/projects/xmc4700_relax_kit/common/Libraries/XMCLib/inc\xmc_eth_mac.h ****   int32_t nanoseconds;              /**< Nanoseconds */
 371:C:/Users/Yushev/git/optiga-trust-qi/projects/xmc4700_relax_kit/common/Libraries/XMCLib/inc\xmc_eth_mac.h **** } XMC_ETH_MAC_TIME_t;
 372:C:/Users/Yushev/git/optiga-trust-qi/projects/xmc4700_relax_kit/common/Libraries/XMCLib/inc\xmc_eth_mac.h **** 
 373:C:/Users/Yushev/git/optiga-trust-qi/projects/xmc4700_relax_kit/common/Libraries/XMCLib/inc\xmc_eth_mac.h **** /**
 374:C:/Users/Yushev/git/optiga-trust-qi/projects/xmc4700_relax_kit/common/Libraries/XMCLib/inc\xmc_eth_mac.h ****  * ETH driver structure
 375:C:/Users/Yushev/git/optiga-trust-qi/projects/xmc4700_relax_kit/common/Libraries/XMCLib/inc\xmc_eth_mac.h ****  */
 376:C:/Users/Yushev/git/optiga-trust-qi/projects/xmc4700_relax_kit/common/Libraries/XMCLib/inc\xmc_eth_mac.h **** typedef struct XMC_ETH_MAC
 377:C:/Users/Yushev/git/optiga-trust-qi/projects/xmc4700_relax_kit/common/Libraries/XMCLib/inc\xmc_eth_mac.h **** {
 378:C:/Users/Yushev/git/optiga-trust-qi/projects/xmc4700_relax_kit/common/Libraries/XMCLib/inc\xmc_eth_mac.h ****   ETH_GLOBAL_TypeDef *regs;        /**< ETH module 0 (now, we have a single ETH module) */
 379:C:/Users/Yushev/git/optiga-trust-qi/projects/xmc4700_relax_kit/common/Libraries/XMCLib/inc\xmc_eth_mac.h ****   uint64_t address;              /**< MAC address */
 380:C:/Users/Yushev/git/optiga-trust-qi/projects/xmc4700_relax_kit/common/Libraries/XMCLib/inc\xmc_eth_mac.h ****   XMC_ETH_MAC_DMA_DESC_t *rx_desc; /**< DMA descriptor: RX */
 381:C:/Users/Yushev/git/optiga-trust-qi/projects/xmc4700_relax_kit/common/Libraries/XMCLib/inc\xmc_eth_mac.h ****   XMC_ETH_MAC_DMA_DESC_t *tx_desc; /**< DMA descriptor: TX */
 382:C:/Users/Yushev/git/optiga-trust-qi/projects/xmc4700_relax_kit/common/Libraries/XMCLib/inc\xmc_eth_mac.h ****   uint8_t *rx_buf;                /**< RX buffer */
 383:C:/Users/Yushev/git/optiga-trust-qi/projects/xmc4700_relax_kit/common/Libraries/XMCLib/inc\xmc_eth_mac.h ****   uint8_t *tx_buf;                /**< TX buffer */
 384:C:/Users/Yushev/git/optiga-trust-qi/projects/xmc4700_relax_kit/common/Libraries/XMCLib/inc\xmc_eth_mac.h ****   uint8_t *frame_end;              /**< End of assembled frame fragments */
 385:C:/Users/Yushev/git/optiga-trust-qi/projects/xmc4700_relax_kit/common/Libraries/XMCLib/inc\xmc_eth_mac.h ****   uint8_t num_rx_buf;              /**< How many RX descriptors? */
 386:C:/Users/Yushev/git/optiga-trust-qi/projects/xmc4700_relax_kit/common/Libraries/XMCLib/inc\xmc_eth_mac.h ****   uint8_t num_tx_buf;              /**< How many TX descriptors? */
 387:C:/Users/Yushev/git/optiga-trust-qi/projects/xmc4700_relax_kit/common/Libraries/XMCLib/inc\xmc_eth_mac.h ****   uint8_t tx_index;                /**< Transmit descriptor index */
 388:C:/Users/Yushev/git/optiga-trust-qi/projects/xmc4700_relax_kit/common/Libraries/XMCLib/inc\xmc_eth_mac.h ****   uint8_t rx_index;                /**< Receive descriptor index */
 389:C:/Users/Yushev/git/optiga-trust-qi/projects/xmc4700_relax_kit/common/Libraries/XMCLib/inc\xmc_eth_mac.h ****   uint8_t tx_ts_index;             /**< Transmit time-stamp descriptor index */
 390:C:/Users/Yushev/git/optiga-trust-qi/projects/xmc4700_relax_kit/common/Libraries/XMCLib/inc\xmc_eth_mac.h **** } XMC_ETH_MAC_t;
 391:C:/Users/Yushev/git/optiga-trust-qi/projects/xmc4700_relax_kit/common/Libraries/XMCLib/inc\xmc_eth_mac.h **** 
 392:C:/Users/Yushev/git/optiga-trust-qi/projects/xmc4700_relax_kit/common/Libraries/XMCLib/inc\xmc_eth_mac.h **** /* Anonymous structure/union guard end */
 393:C:/Users/Yushev/git/optiga-trust-qi/projects/xmc4700_relax_kit/common/Libraries/XMCLib/inc\xmc_eth_mac.h **** #if defined (__CC_ARM)
 394:C:/Users/Yushev/git/optiga-trust-qi/projects/xmc4700_relax_kit/common/Libraries/XMCLib/inc\xmc_eth_mac.h **** #pragma pop
 395:C:/Users/Yushev/git/optiga-trust-qi/projects/xmc4700_relax_kit/common/Libraries/XMCLib/inc\xmc_eth_mac.h **** #elif defined (__TASKING__)
 396:C:/Users/Yushev/git/optiga-trust-qi/projects/xmc4700_relax_kit/common/Libraries/XMCLib/inc\xmc_eth_mac.h **** #pragma warning restore
 397:C:/Users/Yushev/git/optiga-trust-qi/projects/xmc4700_relax_kit/common/Libraries/XMCLib/inc\xmc_eth_mac.h **** #endif
 398:C:/Users/Yushev/git/optiga-trust-qi/projects/xmc4700_relax_kit/common/Libraries/XMCLib/inc\xmc_eth_mac.h **** 
 399:C:/Users/Yushev/git/optiga-trust-qi/projects/xmc4700_relax_kit/common/Libraries/XMCLib/inc\xmc_eth_mac.h **** /**************************************************************************************************
 400:C:/Users/Yushev/git/optiga-trust-qi/projects/xmc4700_relax_kit/common/Libraries/XMCLib/inc\xmc_eth_mac.h ****  * API PROTOTYPES
 401:C:/Users/Yushev/git/optiga-trust-qi/projects/xmc4700_relax_kit/common/Libraries/XMCLib/inc\xmc_eth_mac.h ****  **************************************************************************************************
 402:C:/Users/Yushev/git/optiga-trust-qi/projects/xmc4700_relax_kit/common/Libraries/XMCLib/inc\xmc_eth_mac.h **** 
 403:C:/Users/Yushev/git/optiga-trust-qi/projects/xmc4700_relax_kit/common/Libraries/XMCLib/inc\xmc_eth_mac.h **** #ifdef __cplusplus
 404:C:/Users/Yushev/git/optiga-trust-qi/projects/xmc4700_relax_kit/common/Libraries/XMCLib/inc\xmc_eth_mac.h **** extern "C" {
 405:C:/Users/Yushev/git/optiga-trust-qi/projects/xmc4700_relax_kit/common/Libraries/XMCLib/inc\xmc_eth_mac.h **** #endif
 406:C:/Users/Yushev/git/optiga-trust-qi/projects/xmc4700_relax_kit/common/Libraries/XMCLib/inc\xmc_eth_mac.h **** 
 407:C:/Users/Yushev/git/optiga-trust-qi/projects/xmc4700_relax_kit/common/Libraries/XMCLib/inc\xmc_eth_mac.h **** /**
 408:C:/Users/Yushev/git/optiga-trust-qi/projects/xmc4700_relax_kit/common/Libraries/XMCLib/inc\xmc_eth_mac.h ****  * @param eth_mac A constant pointer to XMC_ETH_MAC_t, pointing to the ETH MAC base address
 409:C:/Users/Yushev/git/optiga-trust-qi/projects/xmc4700_relax_kit/common/Libraries/XMCLib/inc\xmc_eth_mac.h ****  * @return XMC_ETH_MAC_STATUS_t Initialization status
 410:C:/Users/Yushev/git/optiga-trust-qi/projects/xmc4700_relax_kit/common/Libraries/XMCLib/inc\xmc_eth_mac.h ****  *
 411:C:/Users/Yushev/git/optiga-trust-qi/projects/xmc4700_relax_kit/common/Libraries/XMCLib/inc\xmc_eth_mac.h ****  * \par<b>Description: </b><br>
 412:C:/Users/Yushev/git/optiga-trust-qi/projects/xmc4700_relax_kit/common/Libraries/XMCLib/inc\xmc_eth_mac.h ****  * Initialize the Ethernet MAC peripheral <br>
 413:C:/Users/Yushev/git/optiga-trust-qi/projects/xmc4700_relax_kit/common/Libraries/XMCLib/inc\xmc_eth_mac.h ****  *
 414:C:/Users/Yushev/git/optiga-trust-qi/projects/xmc4700_relax_kit/common/Libraries/XMCLib/inc\xmc_eth_mac.h ****  * \par
 415:C:/Users/Yushev/git/optiga-trust-qi/projects/xmc4700_relax_kit/common/Libraries/XMCLib/inc\xmc_eth_mac.h ****  * The function sets the link speed, applies the duplex mode, sets auto-negotiation
 416:C:/Users/Yushev/git/optiga-trust-qi/projects/xmc4700_relax_kit/common/Libraries/XMCLib/inc\xmc_eth_mac.h ****  * and loop-back settings.
 417:C:/Users/Yushev/git/optiga-trust-qi/projects/xmc4700_relax_kit/common/Libraries/XMCLib/inc\xmc_eth_mac.h ****  */
 418:C:/Users/Yushev/git/optiga-trust-qi/projects/xmc4700_relax_kit/common/Libraries/XMCLib/inc\xmc_eth_mac.h **** XMC_ETH_MAC_STATUS_t XMC_ETH_MAC_Init(XMC_ETH_MAC_t *const eth_mac);
 419:C:/Users/Yushev/git/optiga-trust-qi/projects/xmc4700_relax_kit/common/Libraries/XMCLib/inc\xmc_eth_mac.h **** 
 420:C:/Users/Yushev/git/optiga-trust-qi/projects/xmc4700_relax_kit/common/Libraries/XMCLib/inc\xmc_eth_mac.h **** /**
 421:C:/Users/Yushev/git/optiga-trust-qi/projects/xmc4700_relax_kit/common/Libraries/XMCLib/inc\xmc_eth_mac.h ****  * @param eth_mac A constant pointer to XMC_ETH_MAC_t, pointing to the ETH MAC base address
 422:C:/Users/Yushev/git/optiga-trust-qi/projects/xmc4700_relax_kit/common/Libraries/XMCLib/inc\xmc_eth_mac.h ****  * @return None
 423:C:/Users/Yushev/git/optiga-trust-qi/projects/xmc4700_relax_kit/common/Libraries/XMCLib/inc\xmc_eth_mac.h ****  *
 424:C:/Users/Yushev/git/optiga-trust-qi/projects/xmc4700_relax_kit/common/Libraries/XMCLib/inc\xmc_eth_mac.h ****  * \par<b>Description: </b><br>
 425:C:/Users/Yushev/git/optiga-trust-qi/projects/xmc4700_relax_kit/common/Libraries/XMCLib/inc\xmc_eth_mac.h ****  * Initialize the Ethernet MAC peripheral. <br>
 426:C:/Users/Yushev/git/optiga-trust-qi/projects/xmc4700_relax_kit/common/Libraries/XMCLib/inc\xmc_eth_mac.h ****  * Required when initializing the PHY, to deliver the clocks to the MAC, before MAC is reseted.
 427:C:/Users/Yushev/git/optiga-trust-qi/projects/xmc4700_relax_kit/common/Libraries/XMCLib/inc\xmc_eth_mac.h ****  * \note The module needs to be enabled before using XMC_ETH_MAC_Enable() <br>
 428:C:/Users/Yushev/git/optiga-trust-qi/projects/xmc4700_relax_kit/common/Libraries/XMCLib/inc\xmc_eth_mac.h ****  *
 429:C:/Users/Yushev/git/optiga-trust-qi/projects/xmc4700_relax_kit/common/Libraries/XMCLib/inc\xmc_eth_mac.h ****  * \par
 430:C:/Users/Yushev/git/optiga-trust-qi/projects/xmc4700_relax_kit/common/Libraries/XMCLib/inc\xmc_eth_mac.h ****  * The function sets the link speed, applies the duplex mode, sets auto-negotiation
 431:C:/Users/Yushev/git/optiga-trust-qi/projects/xmc4700_relax_kit/common/Libraries/XMCLib/inc\xmc_eth_mac.h ****  * and loop-back settings.
 432:C:/Users/Yushev/git/optiga-trust-qi/projects/xmc4700_relax_kit/common/Libraries/XMCLib/inc\xmc_eth_mac.h ****  */
 433:C:/Users/Yushev/git/optiga-trust-qi/projects/xmc4700_relax_kit/common/Libraries/XMCLib/inc\xmc_eth_mac.h **** void XMC_ETH_MAC_InitEx(XMC_ETH_MAC_t *const eth_mac);
 434:C:/Users/Yushev/git/optiga-trust-qi/projects/xmc4700_relax_kit/common/Libraries/XMCLib/inc\xmc_eth_mac.h **** 
 435:C:/Users/Yushev/git/optiga-trust-qi/projects/xmc4700_relax_kit/common/Libraries/XMCLib/inc\xmc_eth_mac.h **** /**
 436:C:/Users/Yushev/git/optiga-trust-qi/projects/xmc4700_relax_kit/common/Libraries/XMCLib/inc\xmc_eth_mac.h ****  * @param eth_mac A constant pointer to XMC_ETH_MAC_t, pointing to the ETH MAC base address
 437:C:/Users/Yushev/git/optiga-trust-qi/projects/xmc4700_relax_kit/common/Libraries/XMCLib/inc\xmc_eth_mac.h ****  * @return None
 438:C:/Users/Yushev/git/optiga-trust-qi/projects/xmc4700_relax_kit/common/Libraries/XMCLib/inc\xmc_eth_mac.h ****  *
 439:C:/Users/Yushev/git/optiga-trust-qi/projects/xmc4700_relax_kit/common/Libraries/XMCLib/inc\xmc_eth_mac.h ****  * \par<b>Description: </b><br>
 440:C:/Users/Yushev/git/optiga-trust-qi/projects/xmc4700_relax_kit/common/Libraries/XMCLib/inc\xmc_eth_mac.h ****  * Initialize the RX DMA descriptors <br>
 441:C:/Users/Yushev/git/optiga-trust-qi/projects/xmc4700_relax_kit/common/Libraries/XMCLib/inc\xmc_eth_mac.h ****  *
 442:C:/Users/Yushev/git/optiga-trust-qi/projects/xmc4700_relax_kit/common/Libraries/XMCLib/inc\xmc_eth_mac.h ****  * \par
 443:C:/Users/Yushev/git/optiga-trust-qi/projects/xmc4700_relax_kit/common/Libraries/XMCLib/inc\xmc_eth_mac.h ****  * The function initializes the RX descriptors in a chained configuration. It sets
 444:C:/Users/Yushev/git/optiga-trust-qi/projects/xmc4700_relax_kit/common/Libraries/XMCLib/inc\xmc_eth_mac.h ****  * up the status bit, control bit, buffer length and the buffer pointer.
 445:C:/Users/Yushev/git/optiga-trust-qi/projects/xmc4700_relax_kit/common/Libraries/XMCLib/inc\xmc_eth_mac.h ****  */
 446:C:/Users/Yushev/git/optiga-trust-qi/projects/xmc4700_relax_kit/common/Libraries/XMCLib/inc\xmc_eth_mac.h **** void XMC_ETH_MAC_InitRxDescriptors(XMC_ETH_MAC_t *const eth_mac);
 447:C:/Users/Yushev/git/optiga-trust-qi/projects/xmc4700_relax_kit/common/Libraries/XMCLib/inc\xmc_eth_mac.h **** 
 448:C:/Users/Yushev/git/optiga-trust-qi/projects/xmc4700_relax_kit/common/Libraries/XMCLib/inc\xmc_eth_mac.h **** /**
 449:C:/Users/Yushev/git/optiga-trust-qi/projects/xmc4700_relax_kit/common/Libraries/XMCLib/inc\xmc_eth_mac.h ****  * @param eth_mac A constant pointer to XMC_ETH_MAC_t, pointing to the ETH MAC base address
 450:C:/Users/Yushev/git/optiga-trust-qi/projects/xmc4700_relax_kit/common/Libraries/XMCLib/inc\xmc_eth_mac.h ****  * @return None
 451:C:/Users/Yushev/git/optiga-trust-qi/projects/xmc4700_relax_kit/common/Libraries/XMCLib/inc\xmc_eth_mac.h ****  *
 452:C:/Users/Yushev/git/optiga-trust-qi/projects/xmc4700_relax_kit/common/Libraries/XMCLib/inc\xmc_eth_mac.h ****  * \par<b>Description: </b><br>
 453:C:/Users/Yushev/git/optiga-trust-qi/projects/xmc4700_relax_kit/common/Libraries/XMCLib/inc\xmc_eth_mac.h ****  * Initialize the TX DMA descriptors <br>
 454:C:/Users/Yushev/git/optiga-trust-qi/projects/xmc4700_relax_kit/common/Libraries/XMCLib/inc\xmc_eth_mac.h ****  *
 455:C:/Users/Yushev/git/optiga-trust-qi/projects/xmc4700_relax_kit/common/Libraries/XMCLib/inc\xmc_eth_mac.h ****  * \par
 456:C:/Users/Yushev/git/optiga-trust-qi/projects/xmc4700_relax_kit/common/Libraries/XMCLib/inc\xmc_eth_mac.h ****  * The function initializes the TX descriptors in a chained configuration. It sets
 457:C:/Users/Yushev/git/optiga-trust-qi/projects/xmc4700_relax_kit/common/Libraries/XMCLib/inc\xmc_eth_mac.h ****  * up the status bit, control bit, buffer length and the buffer pointer.
 458:C:/Users/Yushev/git/optiga-trust-qi/projects/xmc4700_relax_kit/common/Libraries/XMCLib/inc\xmc_eth_mac.h ****  */
 459:C:/Users/Yushev/git/optiga-trust-qi/projects/xmc4700_relax_kit/common/Libraries/XMCLib/inc\xmc_eth_mac.h **** void XMC_ETH_MAC_InitTxDescriptors(XMC_ETH_MAC_t *const eth_mac);
 460:C:/Users/Yushev/git/optiga-trust-qi/projects/xmc4700_relax_kit/common/Libraries/XMCLib/inc\xmc_eth_mac.h ****  
 461:C:/Users/Yushev/git/optiga-trust-qi/projects/xmc4700_relax_kit/common/Libraries/XMCLib/inc\xmc_eth_mac.h **** /**
 462:C:/Users/Yushev/git/optiga-trust-qi/projects/xmc4700_relax_kit/common/Libraries/XMCLib/inc\xmc_eth_mac.h ****  * @param eth_mac A constant pointer to XMC_ETH_MAC_t, pointing to the ETH MAC base address
 463:C:/Users/Yushev/git/optiga-trust-qi/projects/xmc4700_relax_kit/common/Libraries/XMCLib/inc\xmc_eth_mac.h ****  * @return None
 464:C:/Users/Yushev/git/optiga-trust-qi/projects/xmc4700_relax_kit/common/Libraries/XMCLib/inc\xmc_eth_mac.h ****  *
 465:C:/Users/Yushev/git/optiga-trust-qi/projects/xmc4700_relax_kit/common/Libraries/XMCLib/inc\xmc_eth_mac.h ****  * \par<b>Description: </b><br>
 466:C:/Users/Yushev/git/optiga-trust-qi/projects/xmc4700_relax_kit/common/Libraries/XMCLib/inc\xmc_eth_mac.h ****  * Enable the Ethernet MAC peripheral <br>
 467:C:/Users/Yushev/git/optiga-trust-qi/projects/xmc4700_relax_kit/common/Libraries/XMCLib/inc\xmc_eth_mac.h ****  *
 468:C:/Users/Yushev/git/optiga-trust-qi/projects/xmc4700_relax_kit/common/Libraries/XMCLib/inc\xmc_eth_mac.h ****  * \par
 469:C:/Users/Yushev/git/optiga-trust-qi/projects/xmc4700_relax_kit/common/Libraries/XMCLib/inc\xmc_eth_mac.h ****  * The function de-asserts the peripheral reset.
 470:C:/Users/Yushev/git/optiga-trust-qi/projects/xmc4700_relax_kit/common/Libraries/XMCLib/inc\xmc_eth_mac.h ****  */
 471:C:/Users/Yushev/git/optiga-trust-qi/projects/xmc4700_relax_kit/common/Libraries/XMCLib/inc\xmc_eth_mac.h **** void XMC_ETH_MAC_Enable(XMC_ETH_MAC_t *const eth_mac);
 472:C:/Users/Yushev/git/optiga-trust-qi/projects/xmc4700_relax_kit/common/Libraries/XMCLib/inc\xmc_eth_mac.h **** 
 473:C:/Users/Yushev/git/optiga-trust-qi/projects/xmc4700_relax_kit/common/Libraries/XMCLib/inc\xmc_eth_mac.h **** /**
 474:C:/Users/Yushev/git/optiga-trust-qi/projects/xmc4700_relax_kit/common/Libraries/XMCLib/inc\xmc_eth_mac.h ****  * @param eth_mac A constant pointer to XMC_ETH_MAC_t, pointing to the ETH MAC base address
 475:C:/Users/Yushev/git/optiga-trust-qi/projects/xmc4700_relax_kit/common/Libraries/XMCLib/inc\xmc_eth_mac.h ****  * @return None
 476:C:/Users/Yushev/git/optiga-trust-qi/projects/xmc4700_relax_kit/common/Libraries/XMCLib/inc\xmc_eth_mac.h ****  *
 477:C:/Users/Yushev/git/optiga-trust-qi/projects/xmc4700_relax_kit/common/Libraries/XMCLib/inc\xmc_eth_mac.h ****  * \par<b>Description: </b><br>
 478:C:/Users/Yushev/git/optiga-trust-qi/projects/xmc4700_relax_kit/common/Libraries/XMCLib/inc\xmc_eth_mac.h ****  * Disable the Ethernet MAC peripheral <br>
 479:C:/Users/Yushev/git/optiga-trust-qi/projects/xmc4700_relax_kit/common/Libraries/XMCLib/inc\xmc_eth_mac.h ****  *
 480:C:/Users/Yushev/git/optiga-trust-qi/projects/xmc4700_relax_kit/common/Libraries/XMCLib/inc\xmc_eth_mac.h ****  * \par
 481:C:/Users/Yushev/git/optiga-trust-qi/projects/xmc4700_relax_kit/common/Libraries/XMCLib/inc\xmc_eth_mac.h ****  * The function asserts the peripheral reset.
 482:C:/Users/Yushev/git/optiga-trust-qi/projects/xmc4700_relax_kit/common/Libraries/XMCLib/inc\xmc_eth_mac.h ****  */
 483:C:/Users/Yushev/git/optiga-trust-qi/projects/xmc4700_relax_kit/common/Libraries/XMCLib/inc\xmc_eth_mac.h **** void XMC_ETH_MAC_Disable(XMC_ETH_MAC_t *const eth_mac);
 484:C:/Users/Yushev/git/optiga-trust-qi/projects/xmc4700_relax_kit/common/Libraries/XMCLib/inc\xmc_eth_mac.h **** 
 485:C:/Users/Yushev/git/optiga-trust-qi/projects/xmc4700_relax_kit/common/Libraries/XMCLib/inc\xmc_eth_mac.h **** /**
 486:C:/Users/Yushev/git/optiga-trust-qi/projects/xmc4700_relax_kit/common/Libraries/XMCLib/inc\xmc_eth_mac.h ****  * @param eth_mac A constant pointer to XMC_ETH_MAC_t, pointing to the ETH MAC base address
 487:C:/Users/Yushev/git/optiga-trust-qi/projects/xmc4700_relax_kit/common/Libraries/XMCLib/inc\xmc_eth_mac.h ****  * @return bool
 488:C:/Users/Yushev/git/optiga-trust-qi/projects/xmc4700_relax_kit/common/Libraries/XMCLib/inc\xmc_eth_mac.h ****  *
 489:C:/Users/Yushev/git/optiga-trust-qi/projects/xmc4700_relax_kit/common/Libraries/XMCLib/inc\xmc_eth_mac.h ****  * \par<b>Description: </b><br>
 490:C:/Users/Yushev/git/optiga-trust-qi/projects/xmc4700_relax_kit/common/Libraries/XMCLib/inc\xmc_eth_mac.h ****  * Check if the ETH MAC is enabled <br>
 491:C:/Users/Yushev/git/optiga-trust-qi/projects/xmc4700_relax_kit/common/Libraries/XMCLib/inc\xmc_eth_mac.h ****  *
 492:C:/Users/Yushev/git/optiga-trust-qi/projects/xmc4700_relax_kit/common/Libraries/XMCLib/inc\xmc_eth_mac.h ****  * \par
 493:C:/Users/Yushev/git/optiga-trust-qi/projects/xmc4700_relax_kit/common/Libraries/XMCLib/inc\xmc_eth_mac.h ****  * The function checks if the ETH MAC is enabled or not. It returns "true" if the
 494:C:/Users/Yushev/git/optiga-trust-qi/projects/xmc4700_relax_kit/common/Libraries/XMCLib/inc\xmc_eth_mac.h ****  * peripheral is enabled, "false" otherwise.
 495:C:/Users/Yushev/git/optiga-trust-qi/projects/xmc4700_relax_kit/common/Libraries/XMCLib/inc\xmc_eth_mac.h ****  */
 496:C:/Users/Yushev/git/optiga-trust-qi/projects/xmc4700_relax_kit/common/Libraries/XMCLib/inc\xmc_eth_mac.h **** bool XMC_ETH_MAC_IsEnabled(const XMC_ETH_MAC_t *const eth_mac);
 497:C:/Users/Yushev/git/optiga-trust-qi/projects/xmc4700_relax_kit/common/Libraries/XMCLib/inc\xmc_eth_mac.h **** 
 498:C:/Users/Yushev/git/optiga-trust-qi/projects/xmc4700_relax_kit/common/Libraries/XMCLib/inc\xmc_eth_mac.h **** /**
 499:C:/Users/Yushev/git/optiga-trust-qi/projects/xmc4700_relax_kit/common/Libraries/XMCLib/inc\xmc_eth_mac.h ****  * @param eth_mac A constant pointer to XMC_ETH_MAC_t, pointing to the ETH MAC base address
 500:C:/Users/Yushev/git/optiga-trust-qi/projects/xmc4700_relax_kit/common/Libraries/XMCLib/inc\xmc_eth_mac.h ****  * @return None
 501:C:/Users/Yushev/git/optiga-trust-qi/projects/xmc4700_relax_kit/common/Libraries/XMCLib/inc\xmc_eth_mac.h ****  *
 502:C:/Users/Yushev/git/optiga-trust-qi/projects/xmc4700_relax_kit/common/Libraries/XMCLib/inc\xmc_eth_mac.h ****  * \par<b>Description: </b><br>
 503:C:/Users/Yushev/git/optiga-trust-qi/projects/xmc4700_relax_kit/common/Libraries/XMCLib/inc\xmc_eth_mac.h ****  * Reset the ETH MAC peripheral <br>
 504:C:/Users/Yushev/git/optiga-trust-qi/projects/xmc4700_relax_kit/common/Libraries/XMCLib/inc\xmc_eth_mac.h ****  *
 505:C:/Users/Yushev/git/optiga-trust-qi/projects/xmc4700_relax_kit/common/Libraries/XMCLib/inc\xmc_eth_mac.h ****  * \par
 506:C:/Users/Yushev/git/optiga-trust-qi/projects/xmc4700_relax_kit/common/Libraries/XMCLib/inc\xmc_eth_mac.h ****  * The function resets the ETH MAC peripheral. It blocks until reset.
 507:C:/Users/Yushev/git/optiga-trust-qi/projects/xmc4700_relax_kit/common/Libraries/XMCLib/inc\xmc_eth_mac.h ****  */
 508:C:/Users/Yushev/git/optiga-trust-qi/projects/xmc4700_relax_kit/common/Libraries/XMCLib/inc\xmc_eth_mac.h **** __STATIC_INLINE void XMC_ETH_MAC_Reset(XMC_ETH_MAC_t *const eth_mac)
 509:C:/Users/Yushev/git/optiga-trust-qi/projects/xmc4700_relax_kit/common/Libraries/XMCLib/inc\xmc_eth_mac.h **** {
 510:C:/Users/Yushev/git/optiga-trust-qi/projects/xmc4700_relax_kit/common/Libraries/XMCLib/inc\xmc_eth_mac.h ****   eth_mac->regs->BUS_MODE |= (uint32_t)ETH_BUS_MODE_SWR_Msk;
 191              	 .loc 2 510 0
 192 0004 02F58053 	 add r3,r2,#4096
 193              	.LBE11:
 194              	.LBE10:
 221:C:/Users/Yushev/git/optiga-trust-qi/projects/xmc4700_relax_kit/common/Libraries/XMCLib/src\xmc_eth_mac.c ****   XMC_ASSERT("XMC_ETH_MAC_InitEx: eth_mac is invalid", XMC_ETH_MAC_IsValidModule(eth_mac->regs));
 195              	 .loc 1 221 0
 196 0008 0446     	 mov r4,r0
 197              	.LBB13:
 198              	.LBB12:
 199              	 .loc 2 510 0
 200 000a 1968     	 ldr r1,[r3]
 201 000c 41F00101 	 orr r1,r1,#1
 202 0010 1960     	 str r1,[r3]
 203              	.L17:
 511:C:/Users/Yushev/git/optiga-trust-qi/projects/xmc4700_relax_kit/common/Libraries/XMCLib/inc\xmc_eth_mac.h ****   while ((eth_mac->regs->BUS_MODE & (uint32_t)ETH_BUS_MODE_SWR_Msk) != 0U)
 204              	 .loc 2 511 0
 205 0012 1968     	 ldr r1,[r3]
 206 0014 11F00105 	 ands r5,r1,#1
 207 0018 FBD1     	 bne .L17
 208              	.LBE12:
 209              	.LBE13:
 227:C:/Users/Yushev/git/optiga-trust-qi/projects/xmc4700_relax_kit/common/Libraries/XMCLib/src\xmc_eth_mac.c **** 
 210              	 .loc 1 227 0
 211 001a 4FF48061 	 mov r1,#1024
 212 001e 1160     	 str r1,[r2]
 230:C:/Users/Yushev/git/optiga-trust-qi/projects/xmc4700_relax_kit/common/Libraries/XMCLib/src\xmc_eth_mac.c **** 
 213              	 .loc 1 230 0
 214 0020 8021     	 movs r1,#128
 215 0022 9161     	 str r1,[r2,#24]
 232:C:/Users/Yushev/git/optiga-trust-qi/projects/xmc4700_relax_kit/common/Libraries/XMCLib/src\xmc_eth_mac.c **** 	                              (uint32_t)ETH_OPERATION_MODE_TSF_Msk |
 216              	 .loc 1 232 0
 217 0024 41F21801 	 movw r1,#4120
 218 0028 0F48     	 ldr r0,.L19
 219              	.LVL16:
 220 002a 5050     	 str r0,[r2,r1]
 237:C:/Users/Yushev/git/optiga-trust-qi/projects/xmc4700_relax_kit/common/Libraries/XMCLib/src\xmc_eth_mac.c **** 	                        (uint32_t)ETH_BUS_MODE_AAL_Msk | /* the AHB interface generates all bursts
 221              	 .loc 1 237 0
 222 002c 0F4A     	 ldr r2,.L19+4
 223 002e 1A60     	 str r2,[r3]
 243:C:/Users/Yushev/git/optiga-trust-qi/projects/xmc4700_relax_kit/common/Libraries/XMCLib/src\xmc_eth_mac.c ****   XMC_ETH_MAC_InitTxDescriptors(eth_mac);
 224              	 .loc 1 243 0
 225 0030 2046     	 mov r0,r4
 226 0032 FFF7FEFF 	 bl XMC_ETH_MAC_InitRxDescriptors
 227              	.LVL17:
 244:C:/Users/Yushev/git/optiga-trust-qi/projects/xmc4700_relax_kit/common/Libraries/XMCLib/src\xmc_eth_mac.c **** 
 228              	 .loc 1 244 0
 229 0036 2046     	 mov r0,r4
 230 0038 FFF7FEFF 	 bl XMC_ETH_MAC_InitTxDescriptors
 231              	.LVL18:
 247:C:/Users/Yushev/git/optiga-trust-qi/projects/xmc4700_relax_kit/common/Libraries/XMCLib/src\xmc_eth_mac.c **** 
 232              	 .loc 1 247 0
 233 003c 2368     	 ldr r3,[r4]
 234 003e 41F21402 	 movw r2,#4116
 235 0042 4FF0FF31 	 mov r1,#-1
 236 0046 9950     	 str r1,[r3,r2]
 250:C:/Users/Yushev/git/optiga-trust-qi/projects/xmc4700_relax_kit/common/Libraries/XMCLib/src\xmc_eth_mac.c ****   eth_mac->regs->MMC_RECEIVE_INTERRUPT_MASK = ETH_MAC_DISABLE_MMC_INTERRUPT_MSK;
 237              	 .loc 1 250 0
 238 0048 6FF07C42 	 mvn r2,#-67108864
 239 004c C3F81021 	 str r2,[r3,#272]
 251:C:/Users/Yushev/git/optiga-trust-qi/projects/xmc4700_relax_kit/common/Libraries/XMCLib/src\xmc_eth_mac.c ****   eth_mac->regs->MMC_IPC_RECEIVE_INTERRUPT_MASK = ETH_MAC_DISABLE_MMC_IPC_RECEIVE_INTERRUPT_MSK;
 240              	 .loc 1 251 0
 241 0050 C3F80C21 	 str r2,[r3,#268]
 252:C:/Users/Yushev/git/optiga-trust-qi/projects/xmc4700_relax_kit/common/Libraries/XMCLib/src\xmc_eth_mac.c **** 
 242              	 .loc 1 252 0
 243 0054 6FF0C022 	 mvn r2,#-1073692672
 244 0058 C3F80022 	 str r2,[r3,#512]
 255:C:/Users/Yushev/git/optiga-trust-qi/projects/xmc4700_relax_kit/common/Libraries/XMCLib/src\xmc_eth_mac.c **** 
 245              	 .loc 1 255 0
 246 005c 4FF40272 	 mov r2,#520
 247 0060 DA63     	 str r2,[r3,#60]
 257:C:/Users/Yushev/git/optiga-trust-qi/projects/xmc4700_relax_kit/common/Libraries/XMCLib/src\xmc_eth_mac.c **** }
 248              	 .loc 1 257 0
 249 0062 2562     	 str r5,[r4,#32]
 250 0064 38BD     	 pop {r3,r4,r5,pc}
 251              	.LVL19:
 252              	.L20:
 253 0066 00BF     	 .align 2
 254              	.L19:
 255 0068 04002002 	 .word 35651588
 256 006c 80200102 	 .word 33628288
 257              	 .cfi_endproc
 258              	.LFE227:
 260              	 .section .text.XMC_ETH_MAC_SetAddressEx,"ax",%progbits
 261              	 .align 1
 262              	 .global XMC_ETH_MAC_SetAddressEx
 263              	 .thumb
 264              	 .thumb_func
 266              	XMC_ETH_MAC_SetAddressEx:
 267              	.LFB231:
 327:C:/Users/Yushev/git/optiga-trust-qi/projects/xmc4700_relax_kit/common/Libraries/XMCLib/src\xmc_eth_mac.c **** }
 328:C:/Users/Yushev/git/optiga-trust-qi/projects/xmc4700_relax_kit/common/Libraries/XMCLib/src\xmc_eth_mac.c **** 
 329:C:/Users/Yushev/git/optiga-trust-qi/projects/xmc4700_relax_kit/common/Libraries/XMCLib/src\xmc_eth_mac.c **** void XMC_ETH_MAC_SetAddressEx(XMC_ETH_MAC_t *const eth_mac, uint8_t *const addr)
 330:C:/Users/Yushev/git/optiga-trust-qi/projects/xmc4700_relax_kit/common/Libraries/XMCLib/src\xmc_eth_mac.c **** {
 268              	 .loc 1 330 0
 269              	 .cfi_startproc
 270              	 
 271              	 
 272              	 
 273              	.LVL20:
 331:C:/Users/Yushev/git/optiga-trust-qi/projects/xmc4700_relax_kit/common/Libraries/XMCLib/src\xmc_eth_mac.c ****   eth_mac->regs->MAC_ADDRESS0_HIGH = addr[4] | (addr[5] << 8); 
 274              	 .loc 1 331 0
 275 0000 4A79     	 ldrb r2,[r1,#5]
 276 0002 0B79     	 ldrb r3,[r1,#4]
 277 0004 0068     	 ldr r0,[r0]
 278              	.LVL21:
 279 0006 43EA0223 	 orr r3,r3,r2,lsl#8
 280 000a 0364     	 str r3,[r0,#64]
 332:C:/Users/Yushev/git/optiga-trust-qi/projects/xmc4700_relax_kit/common/Libraries/XMCLib/src\xmc_eth_mac.c ****   eth_mac->regs->MAC_ADDRESS0_LOW = addr[0] | (addr[1] << 8) | (addr[2] << 16) | (addr[3] << 24); 
 281              	 .loc 1 332 0
 282 000c 8B78     	 ldrb r3,[r1,#2]
 283 000e 4A78     	 ldrb r2,[r1,#1]
 284 0010 1B04     	 lsls r3,r3,#16
 285 0012 43EA0223 	 orr r3,r3,r2,lsl#8
 286 0016 0A78     	 ldrb r2,[r1]
 287 0018 1343     	 orrs r3,r3,r2
 288 001a CA78     	 ldrb r2,[r1,#3]
 289 001c 43EA0263 	 orr r3,r3,r2,lsl#24
 290 0020 4364     	 str r3,[r0,#68]
 291 0022 7047     	 bx lr
 292              	 .cfi_endproc
 293              	.LFE231:
 295              	 .section .text.XMC_ETH_MAC_GetAddressEx,"ax",%progbits
 296              	 .align 1
 297              	 .global XMC_ETH_MAC_GetAddressEx
 298              	 .thumb
 299              	 .thumb_func
 301              	XMC_ETH_MAC_GetAddressEx:
 302              	.LFB232:
 333:C:/Users/Yushev/git/optiga-trust-qi/projects/xmc4700_relax_kit/common/Libraries/XMCLib/src\xmc_eth_mac.c **** }
 334:C:/Users/Yushev/git/optiga-trust-qi/projects/xmc4700_relax_kit/common/Libraries/XMCLib/src\xmc_eth_mac.c **** 
 335:C:/Users/Yushev/git/optiga-trust-qi/projects/xmc4700_relax_kit/common/Libraries/XMCLib/src\xmc_eth_mac.c **** void XMC_ETH_MAC_GetAddressEx(XMC_ETH_MAC_t *const eth_mac, uint8_t *const addr)
 336:C:/Users/Yushev/git/optiga-trust-qi/projects/xmc4700_relax_kit/common/Libraries/XMCLib/src\xmc_eth_mac.c **** {
 303              	 .loc 1 336 0
 304              	 .cfi_startproc
 305              	 
 306              	 
 307              	 
 308              	.LVL22:
 337:C:/Users/Yushev/git/optiga-trust-qi/projects/xmc4700_relax_kit/common/Libraries/XMCLib/src\xmc_eth_mac.c ****   uint32_t low_addr = eth_mac->regs->MAC_ADDRESS0_LOW;
 309              	 .loc 1 337 0
 310 0000 0268     	 ldr r2,[r0]
 311 0002 536C     	 ldr r3,[r2,#68]
 312              	.LVL23:
 338:C:/Users/Yushev/git/optiga-trust-qi/projects/xmc4700_relax_kit/common/Libraries/XMCLib/src\xmc_eth_mac.c ****   uint32_t high_addr = eth_mac->regs->MAC_ADDRESS0_HIGH;
 313              	 .loc 1 338 0
 314 0004 126C     	 ldr r2,[r2,#64]
 315              	.LVL24:
 339:C:/Users/Yushev/git/optiga-trust-qi/projects/xmc4700_relax_kit/common/Libraries/XMCLib/src\xmc_eth_mac.c **** 
 340:C:/Users/Yushev/git/optiga-trust-qi/projects/xmc4700_relax_kit/common/Libraries/XMCLib/src\xmc_eth_mac.c ****   addr[0] = low_addr & 0xff;
 341:C:/Users/Yushev/git/optiga-trust-qi/projects/xmc4700_relax_kit/common/Libraries/XMCLib/src\xmc_eth_mac.c ****   addr[1] = (low_addr >> 8) & 0xff;
 342:C:/Users/Yushev/git/optiga-trust-qi/projects/xmc4700_relax_kit/common/Libraries/XMCLib/src\xmc_eth_mac.c ****   addr[2] = (low_addr >> 16) & 0xff;
 343:C:/Users/Yushev/git/optiga-trust-qi/projects/xmc4700_relax_kit/common/Libraries/XMCLib/src\xmc_eth_mac.c ****   addr[3] = (low_addr >> 24) & 0xff;
 344:C:/Users/Yushev/git/optiga-trust-qi/projects/xmc4700_relax_kit/common/Libraries/XMCLib/src\xmc_eth_mac.c ****   addr[4] = high_addr & 0xff;
 316              	 .loc 1 344 0
 317 0006 0A71     	 strb r2,[r1,#4]
 341:C:/Users/Yushev/git/optiga-trust-qi/projects/xmc4700_relax_kit/common/Libraries/XMCLib/src\xmc_eth_mac.c ****   addr[2] = (low_addr >> 16) & 0xff;
 318              	 .loc 1 341 0
 319 0008 180A     	 lsrs r0,r3,#8
 320              	.LVL25:
 340:C:/Users/Yushev/git/optiga-trust-qi/projects/xmc4700_relax_kit/common/Libraries/XMCLib/src\xmc_eth_mac.c ****   addr[1] = (low_addr >> 8) & 0xff;
 321              	 .loc 1 340 0
 322 000a 0B70     	 strb r3,[r1]
 341:C:/Users/Yushev/git/optiga-trust-qi/projects/xmc4700_relax_kit/common/Libraries/XMCLib/src\xmc_eth_mac.c ****   addr[2] = (low_addr >> 16) & 0xff;
 323              	 .loc 1 341 0
 324 000c 4870     	 strb r0,[r1,#1]
 345:C:/Users/Yushev/git/optiga-trust-qi/projects/xmc4700_relax_kit/common/Libraries/XMCLib/src\xmc_eth_mac.c ****   addr[5] = (high_addr >> 8) & 0xff;
 325              	 .loc 1 345 0
 326 000e 120A     	 lsrs r2,r2,#8
 327              	.LVL26:
 342:C:/Users/Yushev/git/optiga-trust-qi/projects/xmc4700_relax_kit/common/Libraries/XMCLib/src\xmc_eth_mac.c ****   addr[3] = (low_addr >> 24) & 0xff;
 328              	 .loc 1 342 0
 329 0010 180C     	 lsrs r0,r3,#16
 343:C:/Users/Yushev/git/optiga-trust-qi/projects/xmc4700_relax_kit/common/Libraries/XMCLib/src\xmc_eth_mac.c ****   addr[4] = high_addr & 0xff;
 330              	 .loc 1 343 0
 331 0012 1B0E     	 lsrs r3,r3,#24
 332              	.LVL27:
 342:C:/Users/Yushev/git/optiga-trust-qi/projects/xmc4700_relax_kit/common/Libraries/XMCLib/src\xmc_eth_mac.c ****   addr[3] = (low_addr >> 24) & 0xff;
 333              	 .loc 1 342 0
 334 0014 8870     	 strb r0,[r1,#2]
 343:C:/Users/Yushev/git/optiga-trust-qi/projects/xmc4700_relax_kit/common/Libraries/XMCLib/src\xmc_eth_mac.c ****   addr[4] = high_addr & 0xff;
 335              	 .loc 1 343 0
 336 0016 CB70     	 strb r3,[r1,#3]
 337              	 .loc 1 345 0
 338 0018 4A71     	 strb r2,[r1,#5]
 339 001a 7047     	 bx lr
 340              	 .cfi_endproc
 341              	.LFE232:
 343              	 .section .text.XMC_ETH_MAC_SetAddressPerfectFilter,"ax",%progbits
 344              	 .align 1
 345              	 .global XMC_ETH_MAC_SetAddressPerfectFilter
 346              	 .thumb
 347              	 .thumb_func
 349              	XMC_ETH_MAC_SetAddressPerfectFilter:
 350              	.LFB233:
 346:C:/Users/Yushev/git/optiga-trust-qi/projects/xmc4700_relax_kit/common/Libraries/XMCLib/src\xmc_eth_mac.c **** }
 347:C:/Users/Yushev/git/optiga-trust-qi/projects/xmc4700_relax_kit/common/Libraries/XMCLib/src\xmc_eth_mac.c **** 
 348:C:/Users/Yushev/git/optiga-trust-qi/projects/xmc4700_relax_kit/common/Libraries/XMCLib/src\xmc_eth_mac.c **** /* Set address perfect filter */
 349:C:/Users/Yushev/git/optiga-trust-qi/projects/xmc4700_relax_kit/common/Libraries/XMCLib/src\xmc_eth_mac.c **** void XMC_ETH_MAC_SetAddressPerfectFilter(XMC_ETH_MAC_t *const eth_mac,
 350:C:/Users/Yushev/git/optiga-trust-qi/projects/xmc4700_relax_kit/common/Libraries/XMCLib/src\xmc_eth_mac.c ****                                          uint8_t index,
 351:C:/Users/Yushev/git/optiga-trust-qi/projects/xmc4700_relax_kit/common/Libraries/XMCLib/src\xmc_eth_mac.c ****                                          const uint64_t addr,
 352:C:/Users/Yushev/git/optiga-trust-qi/projects/xmc4700_relax_kit/common/Libraries/XMCLib/src\xmc_eth_mac.c ****                                          uint32_t flags)
 353:C:/Users/Yushev/git/optiga-trust-qi/projects/xmc4700_relax_kit/common/Libraries/XMCLib/src\xmc_eth_mac.c **** {
 351              	 .loc 1 353 0
 352              	 .cfi_startproc
 353              	 
 354              	 
 355              	.LVL28:
 356 0000 30B5     	 push {r4,r5,lr}
 357              	.LCFI3:
 358              	 .cfi_def_cfa_offset 12
 359              	 .cfi_offset 4,-12
 360              	 .cfi_offset 5,-8
 361              	 .cfi_offset 14,-4
 354:C:/Users/Yushev/git/optiga-trust-qi/projects/xmc4700_relax_kit/common/Libraries/XMCLib/src\xmc_eth_mac.c ****   __IO uint32_t *reg;
 355:C:/Users/Yushev/git/optiga-trust-qi/projects/xmc4700_relax_kit/common/Libraries/XMCLib/src\xmc_eth_mac.c **** 
 356:C:/Users/Yushev/git/optiga-trust-qi/projects/xmc4700_relax_kit/common/Libraries/XMCLib/src\xmc_eth_mac.c ****   XMC_ASSERT("XMC_ETH_MAC_SetAddressPerfectFilter: eth_mac is invalid", XMC_ETH_MAC_IsValidModule(e
 357:C:/Users/Yushev/git/optiga-trust-qi/projects/xmc4700_relax_kit/common/Libraries/XMCLib/src\xmc_eth_mac.c ****   XMC_ASSERT("XMC_ETH_MAC_SetAddressFilter: index is out of range", ((index > 0) && (index < 4)));
 358:C:/Users/Yushev/git/optiga-trust-qi/projects/xmc4700_relax_kit/common/Libraries/XMCLib/src\xmc_eth_mac.c **** 
 359:C:/Users/Yushev/git/optiga-trust-qi/projects/xmc4700_relax_kit/common/Libraries/XMCLib/src\xmc_eth_mac.c ****   reg = &(eth_mac->regs->MAC_ADDRESS0_HIGH);
 362              	 .loc 1 359 0
 363 0002 0068     	 ldr r0,[r0]
 364              	.LVL29:
 360:C:/Users/Yushev/git/optiga-trust-qi/projects/xmc4700_relax_kit/common/Libraries/XMCLib/src\xmc_eth_mac.c ****   reg[index] = (uint32_t)(addr >> 32U) | flags;
 365              	 .loc 1 360 0
 366 0004 039D     	 ldr r5,[sp,#12]
 367 0006 8C00     	 lsls r4,r1,#2
 359:C:/Users/Yushev/git/optiga-trust-qi/projects/xmc4700_relax_kit/common/Libraries/XMCLib/src\xmc_eth_mac.c ****   reg[index] = (uint32_t)(addr >> 32U) | flags;
 368              	 .loc 1 359 0
 369 0008 4030     	 adds r0,r0,#64
 370              	.LVL30:
 361:C:/Users/Yushev/git/optiga-trust-qi/projects/xmc4700_relax_kit/common/Libraries/XMCLib/src\xmc_eth_mac.c ****   reg[index + 1U] = (uint32_t)addr;
 371              	 .loc 1 361 0
 372 000a 0434     	 adds r4,r4,#4
 360:C:/Users/Yushev/git/optiga-trust-qi/projects/xmc4700_relax_kit/common/Libraries/XMCLib/src\xmc_eth_mac.c ****   reg[index] = (uint32_t)(addr >> 32U) | flags;
 373              	 .loc 1 360 0
 374 000c 2B43     	 orrs r3,r3,r5
 375 000e 40F82130 	 str r3,[r0,r1,lsl#2]
 376              	 .loc 1 361 0
 377 0012 0251     	 str r2,[r0,r4]
 378 0014 30BD     	 pop {r4,r5,pc}
 379              	 .cfi_endproc
 380              	.LFE233:
 382              	 .section .text.XMC_ETH_MAC_SetAddressPerfectFilterEx,"ax",%progbits
 383              	 .align 1
 384              	 .global XMC_ETH_MAC_SetAddressPerfectFilterEx
 385              	 .thumb
 386              	 .thumb_func
 388              	XMC_ETH_MAC_SetAddressPerfectFilterEx:
 389              	.LFB234:
 362:C:/Users/Yushev/git/optiga-trust-qi/projects/xmc4700_relax_kit/common/Libraries/XMCLib/src\xmc_eth_mac.c **** }
 363:C:/Users/Yushev/git/optiga-trust-qi/projects/xmc4700_relax_kit/common/Libraries/XMCLib/src\xmc_eth_mac.c **** 
 364:C:/Users/Yushev/git/optiga-trust-qi/projects/xmc4700_relax_kit/common/Libraries/XMCLib/src\xmc_eth_mac.c **** void XMC_ETH_MAC_SetAddressPerfectFilterEx(XMC_ETH_MAC_t *const eth_mac,
 365:C:/Users/Yushev/git/optiga-trust-qi/projects/xmc4700_relax_kit/common/Libraries/XMCLib/src\xmc_eth_mac.c ****                                            uint8_t index,
 366:C:/Users/Yushev/git/optiga-trust-qi/projects/xmc4700_relax_kit/common/Libraries/XMCLib/src\xmc_eth_mac.c ****                                            uint8_t *const addr,
 367:C:/Users/Yushev/git/optiga-trust-qi/projects/xmc4700_relax_kit/common/Libraries/XMCLib/src\xmc_eth_mac.c ****                                            uint32_t flags)
 368:C:/Users/Yushev/git/optiga-trust-qi/projects/xmc4700_relax_kit/common/Libraries/XMCLib/src\xmc_eth_mac.c **** {
 390              	 .loc 1 368 0
 391              	 .cfi_startproc
 392              	 
 393              	 
 394              	.LVL31:
 395 0000 70B5     	 push {r4,r5,r6,lr}
 396              	.LCFI4:
 397              	 .cfi_def_cfa_offset 16
 398              	 .cfi_offset 4,-16
 399              	 .cfi_offset 5,-12
 400              	 .cfi_offset 6,-8
 401              	 .cfi_offset 14,-4
 369:C:/Users/Yushev/git/optiga-trust-qi/projects/xmc4700_relax_kit/common/Libraries/XMCLib/src\xmc_eth_mac.c ****   __IO uint32_t *reg;
 370:C:/Users/Yushev/git/optiga-trust-qi/projects/xmc4700_relax_kit/common/Libraries/XMCLib/src\xmc_eth_mac.c **** 
 371:C:/Users/Yushev/git/optiga-trust-qi/projects/xmc4700_relax_kit/common/Libraries/XMCLib/src\xmc_eth_mac.c ****   XMC_ASSERT("XMC_ETH_MAC_SetAddressPerfectFilter: eth_mac is invalid", XMC_ETH_MAC_IsValidModule(e
 372:C:/Users/Yushev/git/optiga-trust-qi/projects/xmc4700_relax_kit/common/Libraries/XMCLib/src\xmc_eth_mac.c ****   XMC_ASSERT("XMC_ETH_MAC_SetAddressFilter: index is out of range", ((index > 0) && (index < 4)));
 373:C:/Users/Yushev/git/optiga-trust-qi/projects/xmc4700_relax_kit/common/Libraries/XMCLib/src\xmc_eth_mac.c **** 
 374:C:/Users/Yushev/git/optiga-trust-qi/projects/xmc4700_relax_kit/common/Libraries/XMCLib/src\xmc_eth_mac.c ****   reg = &(eth_mac->regs->MAC_ADDRESS0_HIGH);
 402              	 .loc 1 374 0
 403 0002 0468     	 ldr r4,[r0]
 375:C:/Users/Yushev/git/optiga-trust-qi/projects/xmc4700_relax_kit/common/Libraries/XMCLib/src\xmc_eth_mac.c ****   reg[index] = addr[4] | (addr[5] << 8) | flags; 
 404              	 .loc 1 375 0
 405 0004 5679     	 ldrb r6,[r2,#5]
 406 0006 1079     	 ldrb r0,[r2,#4]
 407              	.LVL32:
 374:C:/Users/Yushev/git/optiga-trust-qi/projects/xmc4700_relax_kit/common/Libraries/XMCLib/src\xmc_eth_mac.c ****   reg[index] = addr[4] | (addr[5] << 8) | flags; 
 408              	 .loc 1 374 0
 409 0008 4034     	 adds r4,r4,#64
 410              	.LVL33:
 411              	 .loc 1 375 0
 412 000a 40EA0620 	 orr r0,r0,r6,lsl#8
 413 000e 0343     	 orrs r3,r3,r0
 414              	.LVL34:
 415 0010 44F82130 	 str r3,[r4,r1,lsl#2]
 376:C:/Users/Yushev/git/optiga-trust-qi/projects/xmc4700_relax_kit/common/Libraries/XMCLib/src\xmc_eth_mac.c ****   reg[index + 1U] = addr[0] | (addr[1] << 8) | (addr[2] << 16) | (addr[3] << 24); 
 416              	 .loc 1 376 0
 417 0014 9378     	 ldrb r3,[r2,#2]
 375:C:/Users/Yushev/git/optiga-trust-qi/projects/xmc4700_relax_kit/common/Libraries/XMCLib/src\xmc_eth_mac.c ****   reg[index] = addr[4] | (addr[5] << 8) | flags; 
 418              	 .loc 1 375 0
 419 0016 8D00     	 lsls r5,r1,#2
 420              	 .loc 1 376 0
 421 0018 5178     	 ldrb r1,[r2,#1]
 422              	.LVL35:
 423 001a 1B04     	 lsls r3,r3,#16
 424 001c 43EA0123 	 orr r3,r3,r1,lsl#8
 425 0020 1178     	 ldrb r1,[r2]
 426 0022 D278     	 ldrb r2,[r2,#3]
 427              	.LVL36:
 428 0024 0435     	 adds r5,r5,#4
 429 0026 0B43     	 orrs r3,r3,r1
 430 0028 43EA0263 	 orr r3,r3,r2,lsl#24
 431 002c 6351     	 str r3,[r4,r5]
 432 002e 70BD     	 pop {r4,r5,r6,pc}
 433              	 .cfi_endproc
 434              	.LFE234:
 436              	 .section .text.XMC_ETH_MAC_SetAddressHashFilter,"ax",%progbits
 437              	 .align 1
 438              	 .global XMC_ETH_MAC_SetAddressHashFilter
 439              	 .thumb
 440              	 .thumb_func
 442              	XMC_ETH_MAC_SetAddressHashFilter:
 443              	.LFB235:
 377:C:/Users/Yushev/git/optiga-trust-qi/projects/xmc4700_relax_kit/common/Libraries/XMCLib/src\xmc_eth_mac.c **** }
 378:C:/Users/Yushev/git/optiga-trust-qi/projects/xmc4700_relax_kit/common/Libraries/XMCLib/src\xmc_eth_mac.c **** 
 379:C:/Users/Yushev/git/optiga-trust-qi/projects/xmc4700_relax_kit/common/Libraries/XMCLib/src\xmc_eth_mac.c **** /* Set address hash filter */
 380:C:/Users/Yushev/git/optiga-trust-qi/projects/xmc4700_relax_kit/common/Libraries/XMCLib/src\xmc_eth_mac.c **** void XMC_ETH_MAC_SetAddressHashFilter(XMC_ETH_MAC_t *const eth_mac, const uint64_t hash)
 381:C:/Users/Yushev/git/optiga-trust-qi/projects/xmc4700_relax_kit/common/Libraries/XMCLib/src\xmc_eth_mac.c **** {
 444              	 .loc 1 381 0
 445              	 .cfi_startproc
 446              	 
 447              	 
 448              	 
 449              	.LVL37:
 382:C:/Users/Yushev/git/optiga-trust-qi/projects/xmc4700_relax_kit/common/Libraries/XMCLib/src\xmc_eth_mac.c ****   eth_mac->regs->HASH_TABLE_HIGH = (uint32_t)(hash >> 32);
 450              	 .loc 1 382 0
 451 0000 0168     	 ldr r1,[r0]
 452 0002 8B60     	 str r3,[r1,#8]
 383:C:/Users/Yushev/git/optiga-trust-qi/projects/xmc4700_relax_kit/common/Libraries/XMCLib/src\xmc_eth_mac.c ****   eth_mac->regs->HASH_TABLE_LOW = (uint32_t)hash;
 453              	 .loc 1 383 0
 454 0004 CA60     	 str r2,[r1,#12]
 455 0006 7047     	 bx lr
 456              	 .cfi_endproc
 457              	.LFE235:
 459              	 .section .text.XMC_ETH_MAC_SendFrame,"ax",%progbits
 460              	 .align 1
 461              	 .global XMC_ETH_MAC_SendFrame
 462              	 .thumb
 463              	 .thumb_func
 465              	XMC_ETH_MAC_SendFrame:
 466              	.LFB236:
 384:C:/Users/Yushev/git/optiga-trust-qi/projects/xmc4700_relax_kit/common/Libraries/XMCLib/src\xmc_eth_mac.c **** }
 385:C:/Users/Yushev/git/optiga-trust-qi/projects/xmc4700_relax_kit/common/Libraries/XMCLib/src\xmc_eth_mac.c **** 
 386:C:/Users/Yushev/git/optiga-trust-qi/projects/xmc4700_relax_kit/common/Libraries/XMCLib/src\xmc_eth_mac.c **** /* Send frame */
 387:C:/Users/Yushev/git/optiga-trust-qi/projects/xmc4700_relax_kit/common/Libraries/XMCLib/src\xmc_eth_mac.c **** XMC_ETH_MAC_STATUS_t XMC_ETH_MAC_SendFrame(XMC_ETH_MAC_t *const eth_mac, const uint8_t *frame, uint
 388:C:/Users/Yushev/git/optiga-trust-qi/projects/xmc4700_relax_kit/common/Libraries/XMCLib/src\xmc_eth_mac.c **** {
 467              	 .loc 1 388 0
 468              	 .cfi_startproc
 469              	 
 470              	 
 471              	.LVL38:
 472 0000 F8B5     	 push {r3,r4,r5,r6,r7,lr}
 473              	.LCFI5:
 474              	 .cfi_def_cfa_offset 24
 475              	 .cfi_offset 3,-24
 476              	 .cfi_offset 4,-20
 477              	 .cfi_offset 5,-16
 478              	 .cfi_offset 6,-12
 479              	 .cfi_offset 7,-8
 480              	 .cfi_offset 14,-4
 389:C:/Users/Yushev/git/optiga-trust-qi/projects/xmc4700_relax_kit/common/Libraries/XMCLib/src\xmc_eth_mac.c ****   XMC_ETH_MAC_STATUS_t status;
 390:C:/Users/Yushev/git/optiga-trust-qi/projects/xmc4700_relax_kit/common/Libraries/XMCLib/src\xmc_eth_mac.c ****   uint8_t *dst;
 391:C:/Users/Yushev/git/optiga-trust-qi/projects/xmc4700_relax_kit/common/Libraries/XMCLib/src\xmc_eth_mac.c ****   uint32_t ctrl;
 392:C:/Users/Yushev/git/optiga-trust-qi/projects/xmc4700_relax_kit/common/Libraries/XMCLib/src\xmc_eth_mac.c **** 
 393:C:/Users/Yushev/git/optiga-trust-qi/projects/xmc4700_relax_kit/common/Libraries/XMCLib/src\xmc_eth_mac.c ****   XMC_ASSERT("XMC_ETH_MAC_SendFrame:", eth_mac != NULL);
 394:C:/Users/Yushev/git/optiga-trust-qi/projects/xmc4700_relax_kit/common/Libraries/XMCLib/src\xmc_eth_mac.c ****   XMC_ASSERT("XMC_ETH_MAC_SendFrame:", eth_mac->regs == ETH0);
 395:C:/Users/Yushev/git/optiga-trust-qi/projects/xmc4700_relax_kit/common/Libraries/XMCLib/src\xmc_eth_mac.c ****   XMC_ASSERT("XMC_ETH_MAC_SendFrame:", (frame != NULL) && (len > 0));
 396:C:/Users/Yushev/git/optiga-trust-qi/projects/xmc4700_relax_kit/common/Libraries/XMCLib/src\xmc_eth_mac.c **** 
 397:C:/Users/Yushev/git/optiga-trust-qi/projects/xmc4700_relax_kit/common/Libraries/XMCLib/src\xmc_eth_mac.c ****   dst = eth_mac->frame_end;
 398:C:/Users/Yushev/git/optiga-trust-qi/projects/xmc4700_relax_kit/common/Libraries/XMCLib/src\xmc_eth_mac.c **** 
 399:C:/Users/Yushev/git/optiga-trust-qi/projects/xmc4700_relax_kit/common/Libraries/XMCLib/src\xmc_eth_mac.c ****   if (eth_mac->tx_desc[eth_mac->tx_index].status & ETH_MAC_DMA_TDES0_OWN)
 481              	 .loc 1 399 0
 482 0002 90F82660 	 ldrb r6,[r0,#38]
 397:C:/Users/Yushev/git/optiga-trust-qi/projects/xmc4700_relax_kit/common/Libraries/XMCLib/src\xmc_eth_mac.c **** 
 483              	 .loc 1 397 0
 484 0006 056A     	 ldr r5,[r0,#32]
 485              	.LVL39:
 486              	 .loc 1 399 0
 487 0008 7601     	 lsls r6,r6,#5
 388:C:/Users/Yushev/git/optiga-trust-qi/projects/xmc4700_relax_kit/common/Libraries/XMCLib/src\xmc_eth_mac.c ****   XMC_ETH_MAC_STATUS_t status;
 488              	 .loc 1 388 0
 489 000a 1F46     	 mov r7,r3
 490              	 .loc 1 399 0
 491 000c 4369     	 ldr r3,[r0,#20]
 492              	.LVL40:
 388:C:/Users/Yushev/git/optiga-trust-qi/projects/xmc4700_relax_kit/common/Libraries/XMCLib/src\xmc_eth_mac.c ****   XMC_ETH_MAC_STATUS_t status;
 493              	 .loc 1 388 0
 494 000e 0446     	 mov r4,r0
 495              	 .loc 1 399 0
 496 0010 9819     	 adds r0,r3,r6
 497              	.LVL41:
 498 0012 9B59     	 ldr r3,[r3,r6]
 499 0014 002B     	 cmp r3,#0
 500 0016 0CDA     	 bge .L27
 501              	.LVL42:
 400:C:/Users/Yushev/git/optiga-trust-qi/projects/xmc4700_relax_kit/common/Libraries/XMCLib/src\xmc_eth_mac.c ****   {
 401:C:/Users/Yushev/git/optiga-trust-qi/projects/xmc4700_relax_kit/common/Libraries/XMCLib/src\xmc_eth_mac.c ****     /* Transmitter is busy, wait */
 402:C:/Users/Yushev/git/optiga-trust-qi/projects/xmc4700_relax_kit/common/Libraries/XMCLib/src\xmc_eth_mac.c ****     status = XMC_ETH_MAC_STATUS_BUSY;
 403:C:/Users/Yushev/git/optiga-trust-qi/projects/xmc4700_relax_kit/common/Libraries/XMCLib/src\xmc_eth_mac.c ****     if (eth_mac->regs->STATUS & ETH_STATUS_TU_Msk)
 502              	 .loc 1 403 0
 503 0018 2368     	 ldr r3,[r4]
 504 001a 41F21402 	 movw r2,#4116
 505              	.LVL43:
 506 001e 9958     	 ldr r1,[r3,r2]
 507              	.LVL44:
 508 0020 4907     	 lsls r1,r1,#29
 509 0022 46D5     	 bpl .L36
 404:C:/Users/Yushev/git/optiga-trust-qi/projects/xmc4700_relax_kit/common/Libraries/XMCLib/src\xmc_eth_mac.c ****     {
 405:C:/Users/Yushev/git/optiga-trust-qi/projects/xmc4700_relax_kit/common/Libraries/XMCLib/src\xmc_eth_mac.c ****       /* Receive buffer unavailable, resume DMA */
 406:C:/Users/Yushev/git/optiga-trust-qi/projects/xmc4700_relax_kit/common/Libraries/XMCLib/src\xmc_eth_mac.c ****       eth_mac->regs->STATUS = (uint32_t)ETH_STATUS_TU_Msk;
 510              	 .loc 1 406 0
 511 0024 0421     	 movs r1,#4
 512 0026 9950     	 str r1,[r3,r2]
 407:C:/Users/Yushev/git/optiga-trust-qi/projects/xmc4700_relax_kit/common/Libraries/XMCLib/src\xmc_eth_mac.c ****       eth_mac->regs->TRANSMIT_POLL_DEMAND = 0U;
 513              	 .loc 1 407 0
 514 0028 41F20402 	 movw r2,#4100
 515 002c 0021     	 movs r1,#0
 516 002e 9950     	 str r1,[r3,r2]
 517 0030 3FE0     	 b .L36
 518              	.LVL45:
 519              	.L27:
 408:C:/Users/Yushev/git/optiga-trust-qi/projects/xmc4700_relax_kit/common/Libraries/XMCLib/src\xmc_eth_mac.c ****     }
 409:C:/Users/Yushev/git/optiga-trust-qi/projects/xmc4700_relax_kit/common/Libraries/XMCLib/src\xmc_eth_mac.c **** 
 410:C:/Users/Yushev/git/optiga-trust-qi/projects/xmc4700_relax_kit/common/Libraries/XMCLib/src\xmc_eth_mac.c ****   }
 411:C:/Users/Yushev/git/optiga-trust-qi/projects/xmc4700_relax_kit/common/Libraries/XMCLib/src\xmc_eth_mac.c ****   else
 412:C:/Users/Yushev/git/optiga-trust-qi/projects/xmc4700_relax_kit/common/Libraries/XMCLib/src\xmc_eth_mac.c ****   {
 413:C:/Users/Yushev/git/optiga-trust-qi/projects/xmc4700_relax_kit/common/Libraries/XMCLib/src\xmc_eth_mac.c ****     if (dst == NULL)
 520              	 .loc 1 413 0
 521 0032 15B9     	 cbnz r5,.L29
 414:C:/Users/Yushev/git/optiga-trust-qi/projects/xmc4700_relax_kit/common/Libraries/XMCLib/src\xmc_eth_mac.c ****     {
 415:C:/Users/Yushev/git/optiga-trust-qi/projects/xmc4700_relax_kit/common/Libraries/XMCLib/src\xmc_eth_mac.c ****       /* Start of a new transmit frame */
 416:C:/Users/Yushev/git/optiga-trust-qi/projects/xmc4700_relax_kit/common/Libraries/XMCLib/src\xmc_eth_mac.c ****       dst = (uint8_t *)eth_mac->tx_desc[eth_mac->tx_index].buffer1;
 522              	 .loc 1 416 0
 523 0034 8568     	 ldr r5,[r0,#8]
 524              	.LVL46:
 417:C:/Users/Yushev/git/optiga-trust-qi/projects/xmc4700_relax_kit/common/Libraries/XMCLib/src\xmc_eth_mac.c ****       eth_mac->tx_desc[eth_mac->tx_index].length = len;
 525              	 .loc 1 417 0
 526 0036 4260     	 str r2,[r0,#4]
 527 0038 02E0     	 b .L30
 528              	.L29:
 418:C:/Users/Yushev/git/optiga-trust-qi/projects/xmc4700_relax_kit/common/Libraries/XMCLib/src\xmc_eth_mac.c ****     }
 419:C:/Users/Yushev/git/optiga-trust-qi/projects/xmc4700_relax_kit/common/Libraries/XMCLib/src\xmc_eth_mac.c ****     else
 420:C:/Users/Yushev/git/optiga-trust-qi/projects/xmc4700_relax_kit/common/Libraries/XMCLib/src\xmc_eth_mac.c ****     {
 421:C:/Users/Yushev/git/optiga-trust-qi/projects/xmc4700_relax_kit/common/Libraries/XMCLib/src\xmc_eth_mac.c ****       /* Sending data fragments in progress */
 422:C:/Users/Yushev/git/optiga-trust-qi/projects/xmc4700_relax_kit/common/Libraries/XMCLib/src\xmc_eth_mac.c ****       eth_mac->tx_desc[eth_mac->tx_index].length += len;
 529              	 .loc 1 422 0
 530 003a 4368     	 ldr r3,[r0,#4]
 531 003c 1344     	 add r3,r3,r2
 532 003e 4360     	 str r3,[r0,#4]
 533              	.L30:
 423:C:/Users/Yushev/git/optiga-trust-qi/projects/xmc4700_relax_kit/common/Libraries/XMCLib/src\xmc_eth_mac.c ****     }
 424:C:/Users/Yushev/git/optiga-trust-qi/projects/xmc4700_relax_kit/common/Libraries/XMCLib/src\xmc_eth_mac.c **** 
 425:C:/Users/Yushev/git/optiga-trust-qi/projects/xmc4700_relax_kit/common/Libraries/XMCLib/src\xmc_eth_mac.c ****     memcpy(dst, frame, len);
 534              	 .loc 1 425 0
 535 0040 2846     	 mov r0,r5
 536 0042 FFF7FEFF 	 bl memcpy
 537              	.LVL47:
 426:C:/Users/Yushev/git/optiga-trust-qi/projects/xmc4700_relax_kit/common/Libraries/XMCLib/src\xmc_eth_mac.c **** 
 427:C:/Users/Yushev/git/optiga-trust-qi/projects/xmc4700_relax_kit/common/Libraries/XMCLib/src\xmc_eth_mac.c ****     if (flags & (uint32_t)XMC_ETH_MAC_TX_FRAME_FRAGMENT)
 538              	 .loc 1 427 0
 539 0046 FB07     	 lsls r3,r7,#31
 540 0048 01D5     	 bpl .L31
 428:C:/Users/Yushev/git/optiga-trust-qi/projects/xmc4700_relax_kit/common/Libraries/XMCLib/src\xmc_eth_mac.c ****     {
 429:C:/Users/Yushev/git/optiga-trust-qi/projects/xmc4700_relax_kit/common/Libraries/XMCLib/src\xmc_eth_mac.c ****       /* More data to come, remember current write position */
 430:C:/Users/Yushev/git/optiga-trust-qi/projects/xmc4700_relax_kit/common/Libraries/XMCLib/src\xmc_eth_mac.c ****       eth_mac->frame_end = dst;
 541              	 .loc 1 430 0
 542 004a 2562     	 str r5,[r4,#32]
 543 004c 2FE0     	 b .L40
 544              	.L31:
 431:C:/Users/Yushev/git/optiga-trust-qi/projects/xmc4700_relax_kit/common/Libraries/XMCLib/src\xmc_eth_mac.c ****     }
 432:C:/Users/Yushev/git/optiga-trust-qi/projects/xmc4700_relax_kit/common/Libraries/XMCLib/src\xmc_eth_mac.c ****     else
 433:C:/Users/Yushev/git/optiga-trust-qi/projects/xmc4700_relax_kit/common/Libraries/XMCLib/src\xmc_eth_mac.c ****     {
 434:C:/Users/Yushev/git/optiga-trust-qi/projects/xmc4700_relax_kit/common/Libraries/XMCLib/src\xmc_eth_mac.c ****       /* Frame is now ready, send it to DMA */
 435:C:/Users/Yushev/git/optiga-trust-qi/projects/xmc4700_relax_kit/common/Libraries/XMCLib/src\xmc_eth_mac.c ****       ctrl = eth_mac->tx_desc[eth_mac->tx_index].status | ETH_MAC_DMA_TDES0_CIC;
 545              	 .loc 1 435 0
 546 004e 94F82600 	 ldrb r0,[r4,#38]
 547 0052 6169     	 ldr r1,[r4,#20]
 548 0054 4301     	 lsls r3,r0,#5
 436:C:/Users/Yushev/git/optiga-trust-qi/projects/xmc4700_relax_kit/common/Libraries/XMCLib/src\xmc_eth_mac.c ****       ctrl &= ~(ETH_MAC_DMA_TDES0_IC | ETH_MAC_DMA_TDES0_TTSE);
 437:C:/Users/Yushev/git/optiga-trust-qi/projects/xmc4700_relax_kit/common/Libraries/XMCLib/src\xmc_eth_mac.c **** 
 438:C:/Users/Yushev/git/optiga-trust-qi/projects/xmc4700_relax_kit/common/Libraries/XMCLib/src\xmc_eth_mac.c ****       if (flags & (uint32_t)XMC_ETH_MAC_TX_FRAME_EVENT)
 549              	 .loc 1 438 0
 550 0056 BE07     	 lsls r6,r7,#30
 435:C:/Users/Yushev/git/optiga-trust-qi/projects/xmc4700_relax_kit/common/Libraries/XMCLib/src\xmc_eth_mac.c ****       ctrl &= ~(ETH_MAC_DMA_TDES0_IC | ETH_MAC_DMA_TDES0_TTSE);
 551              	 .loc 1 435 0
 552 0058 CA58     	 ldr r2,[r1,r3]
 553              	.LVL48:
 439:C:/Users/Yushev/git/optiga-trust-qi/projects/xmc4700_relax_kit/common/Libraries/XMCLib/src\xmc_eth_mac.c ****       {
 440:C:/Users/Yushev/git/optiga-trust-qi/projects/xmc4700_relax_kit/common/Libraries/XMCLib/src\xmc_eth_mac.c ****       ctrl |= ETH_MAC_DMA_TDES0_IC;
 441:C:/Users/Yushev/git/optiga-trust-qi/projects/xmc4700_relax_kit/common/Libraries/XMCLib/src\xmc_eth_mac.c ****       }
 442:C:/Users/Yushev/git/optiga-trust-qi/projects/xmc4700_relax_kit/common/Libraries/XMCLib/src\xmc_eth_mac.c **** 
 443:C:/Users/Yushev/git/optiga-trust-qi/projects/xmc4700_relax_kit/common/Libraries/XMCLib/src\xmc_eth_mac.c ****       if (flags & (uint32_t)XMC_ETH_MAC_TX_FRAME_TIMESTAMP)
 444:C:/Users/Yushev/git/optiga-trust-qi/projects/xmc4700_relax_kit/common/Libraries/XMCLib/src\xmc_eth_mac.c ****       {
 445:C:/Users/Yushev/git/optiga-trust-qi/projects/xmc4700_relax_kit/common/Libraries/XMCLib/src\xmc_eth_mac.c ****       ctrl |= ETH_MAC_DMA_TDES0_TTSE;
 446:C:/Users/Yushev/git/optiga-trust-qi/projects/xmc4700_relax_kit/common/Libraries/XMCLib/src\xmc_eth_mac.c ****       }
 447:C:/Users/Yushev/git/optiga-trust-qi/projects/xmc4700_relax_kit/common/Libraries/XMCLib/src\xmc_eth_mac.c ****       eth_mac->tx_ts_index = eth_mac->tx_index;
 554              	 .loc 1 447 0
 555 005a 84F82800 	 strb r0,[r4,#40]
 436:C:/Users/Yushev/git/optiga-trust-qi/projects/xmc4700_relax_kit/common/Libraries/XMCLib/src\xmc_eth_mac.c **** 
 556              	 .loc 1 436 0
 557 005e 22F08442 	 bic r2,r2,#1107296256
 558              	.LVL49:
 440:C:/Users/Yushev/git/optiga-trust-qi/projects/xmc4700_relax_kit/common/Libraries/XMCLib/src\xmc_eth_mac.c ****       }
 559              	 .loc 1 440 0
 560 0062 46BF     	 itte mi
 561 0064 42F08142 	 orrmi r2,r2,#1082130432
 562              	.LVL50:
 563 0068 42F48002 	 orrmi r2,r2,#4194304
 436:C:/Users/Yushev/git/optiga-trust-qi/projects/xmc4700_relax_kit/common/Libraries/XMCLib/src\xmc_eth_mac.c **** 
 564              	 .loc 1 436 0
 565 006c 42F44002 	 orrpl r2,r2,#12582912
 566              	.LVL51:
 443:C:/Users/Yushev/git/optiga-trust-qi/projects/xmc4700_relax_kit/common/Libraries/XMCLib/src\xmc_eth_mac.c ****       {
 567              	 .loc 1 443 0
 568 0070 7D07     	 lsls r5,r7,#29
 569              	.LVL52:
 445:C:/Users/Yushev/git/optiga-trust-qi/projects/xmc4700_relax_kit/common/Libraries/XMCLib/src\xmc_eth_mac.c ****       }
 570              	 .loc 1 445 0
 571 0072 48BF     	 it mi
 572 0074 42F00072 	 orrmi r2,r2,#33554432
 573              	.LVL53:
 448:C:/Users/Yushev/git/optiga-trust-qi/projects/xmc4700_relax_kit/common/Libraries/XMCLib/src\xmc_eth_mac.c **** 
 449:C:/Users/Yushev/git/optiga-trust-qi/projects/xmc4700_relax_kit/common/Libraries/XMCLib/src\xmc_eth_mac.c ****       eth_mac->tx_desc[eth_mac->tx_index].status = ctrl | ETH_MAC_DMA_TDES0_OWN;
 574              	 .loc 1 449 0
 575 0078 42F00042 	 orr r2,r2,#-2147483648
 576              	.LVL54:
 577 007c CA50     	 str r2,[r1,r3]
 450:C:/Users/Yushev/git/optiga-trust-qi/projects/xmc4700_relax_kit/common/Libraries/XMCLib/src\xmc_eth_mac.c **** 
 451:C:/Users/Yushev/git/optiga-trust-qi/projects/xmc4700_relax_kit/common/Libraries/XMCLib/src\xmc_eth_mac.c ****       eth_mac->tx_index++;
 578              	 .loc 1 451 0
 579 007e 94F82630 	 ldrb r3,[r4,#38]
 452:C:/Users/Yushev/git/optiga-trust-qi/projects/xmc4700_relax_kit/common/Libraries/XMCLib/src\xmc_eth_mac.c ****       if (eth_mac->tx_index == eth_mac->num_tx_buf)
 580              	 .loc 1 452 0
 581 0082 94F82520 	 ldrb r2,[r4,#37]
 451:C:/Users/Yushev/git/optiga-trust-qi/projects/xmc4700_relax_kit/common/Libraries/XMCLib/src\xmc_eth_mac.c ****       if (eth_mac->tx_index == eth_mac->num_tx_buf)
 582              	 .loc 1 451 0
 583 0086 0133     	 adds r3,r3,#1
 584 0088 DBB2     	 uxtb r3,r3
 585              	 .loc 1 452 0
 586 008a 9A42     	 cmp r2,r3
 453:C:/Users/Yushev/git/optiga-trust-qi/projects/xmc4700_relax_kit/common/Libraries/XMCLib/src\xmc_eth_mac.c ****       {
 454:C:/Users/Yushev/git/optiga-trust-qi/projects/xmc4700_relax_kit/common/Libraries/XMCLib/src\xmc_eth_mac.c ****       eth_mac->tx_index = 0U;
 455:C:/Users/Yushev/git/optiga-trust-qi/projects/xmc4700_relax_kit/common/Libraries/XMCLib/src\xmc_eth_mac.c ****       }
 456:C:/Users/Yushev/git/optiga-trust-qi/projects/xmc4700_relax_kit/common/Libraries/XMCLib/src\xmc_eth_mac.c ****       eth_mac->frame_end = NULL;
 457:C:/Users/Yushev/git/optiga-trust-qi/projects/xmc4700_relax_kit/common/Libraries/XMCLib/src\xmc_eth_mac.c **** 
 458:C:/Users/Yushev/git/optiga-trust-qi/projects/xmc4700_relax_kit/common/Libraries/XMCLib/src\xmc_eth_mac.c ****       /* Start frame transmission */
 459:C:/Users/Yushev/git/optiga-trust-qi/projects/xmc4700_relax_kit/common/Libraries/XMCLib/src\xmc_eth_mac.c ****       eth_mac->regs->STATUS = (uint32_t)ETH_STATUS_TPS_Msk;
 587              	 .loc 1 459 0
 588 008c 41F21401 	 movw r1,#4116
 589 0090 2268     	 ldr r2,[r4]
 451:C:/Users/Yushev/git/optiga-trust-qi/projects/xmc4700_relax_kit/common/Libraries/XMCLib/src\xmc_eth_mac.c ****       if (eth_mac->tx_index == eth_mac->num_tx_buf)
 590              	 .loc 1 451 0
 591 0092 84F82630 	 strb r3,[r4,#38]
 592              	 .loc 1 459 0
 593 0096 4FF00200 	 mov r0,#2
 594 009a 4FF00003 	 mov r3,#0
 454:C:/Users/Yushev/git/optiga-trust-qi/projects/xmc4700_relax_kit/common/Libraries/XMCLib/src\xmc_eth_mac.c ****       }
 595              	 .loc 1 454 0
 596 009e 08BF     	 it eq
 597 00a0 84F82630 	 strbeq r3,[r4,#38]
 456:C:/Users/Yushev/git/optiga-trust-qi/projects/xmc4700_relax_kit/common/Libraries/XMCLib/src\xmc_eth_mac.c **** 
 598              	 .loc 1 456 0
 599 00a4 2362     	 str r3,[r4,#32]
 600              	 .loc 1 459 0
 601 00a6 5050     	 str r0,[r2,r1]
 460:C:/Users/Yushev/git/optiga-trust-qi/projects/xmc4700_relax_kit/common/Libraries/XMCLib/src\xmc_eth_mac.c ****       eth_mac->regs->TRANSMIT_POLL_DEMAND = 0U;
 602              	 .loc 1 460 0
 603 00a8 41F20401 	 movw r1,#4100
 604 00ac 5350     	 str r3,[r2,r1]
 605              	.L40:
 461:C:/Users/Yushev/git/optiga-trust-qi/projects/xmc4700_relax_kit/common/Libraries/XMCLib/src\xmc_eth_mac.c ****     }
 462:C:/Users/Yushev/git/optiga-trust-qi/projects/xmc4700_relax_kit/common/Libraries/XMCLib/src\xmc_eth_mac.c ****     status = XMC_ETH_MAC_STATUS_OK;
 606              	 .loc 1 462 0
 607 00ae 0020     	 movs r0,#0
 608 00b0 F8BD     	 pop {r3,r4,r5,r6,r7,pc}
 609              	.LVL55:
 610              	.L36:
 402:C:/Users/Yushev/git/optiga-trust-qi/projects/xmc4700_relax_kit/common/Libraries/XMCLib/src\xmc_eth_mac.c ****     if (eth_mac->regs->STATUS & ETH_STATUS_TU_Msk)
 611              	 .loc 1 402 0
 612 00b2 0120     	 movs r0,#1
 613              	.LVL56:
 463:C:/Users/Yushev/git/optiga-trust-qi/projects/xmc4700_relax_kit/common/Libraries/XMCLib/src\xmc_eth_mac.c ****   }
 464:C:/Users/Yushev/git/optiga-trust-qi/projects/xmc4700_relax_kit/common/Libraries/XMCLib/src\xmc_eth_mac.c **** 
 465:C:/Users/Yushev/git/optiga-trust-qi/projects/xmc4700_relax_kit/common/Libraries/XMCLib/src\xmc_eth_mac.c ****   return status;
 466:C:/Users/Yushev/git/optiga-trust-qi/projects/xmc4700_relax_kit/common/Libraries/XMCLib/src\xmc_eth_mac.c **** }
 614              	 .loc 1 466 0
 615 00b4 F8BD     	 pop {r3,r4,r5,r6,r7,pc}
 616              	 .cfi_endproc
 617              	.LFE236:
 619              	 .section .text.XMC_ETH_MAC_ReadFrame,"ax",%progbits
 620              	 .align 1
 621              	 .global XMC_ETH_MAC_ReadFrame
 622              	 .thumb
 623              	 .thumb_func
 625              	XMC_ETH_MAC_ReadFrame:
 626              	.LFB237:
 467:C:/Users/Yushev/git/optiga-trust-qi/projects/xmc4700_relax_kit/common/Libraries/XMCLib/src\xmc_eth_mac.c **** 
 468:C:/Users/Yushev/git/optiga-trust-qi/projects/xmc4700_relax_kit/common/Libraries/XMCLib/src\xmc_eth_mac.c **** /* Read frame */
 469:C:/Users/Yushev/git/optiga-trust-qi/projects/xmc4700_relax_kit/common/Libraries/XMCLib/src\xmc_eth_mac.c **** uint32_t XMC_ETH_MAC_ReadFrame(XMC_ETH_MAC_t *const eth_mac, uint8_t *frame, uint32_t len)
 470:C:/Users/Yushev/git/optiga-trust-qi/projects/xmc4700_relax_kit/common/Libraries/XMCLib/src\xmc_eth_mac.c **** {
 627              	 .loc 1 470 0
 628              	 .cfi_startproc
 629              	 
 630              	 
 631              	.LVL57:
 632 0000 38B5     	 push {r3,r4,r5,lr}
 633              	.LCFI6:
 634              	 .cfi_def_cfa_offset 16
 635              	 .cfi_offset 3,-16
 636              	 .cfi_offset 4,-12
 637              	 .cfi_offset 5,-8
 638              	 .cfi_offset 14,-4
 639              	 .loc 1 470 0
 640 0002 0446     	 mov r4,r0
 471:C:/Users/Yushev/git/optiga-trust-qi/projects/xmc4700_relax_kit/common/Libraries/XMCLib/src\xmc_eth_mac.c ****   uint8_t const *src;
 472:C:/Users/Yushev/git/optiga-trust-qi/projects/xmc4700_relax_kit/common/Libraries/XMCLib/src\xmc_eth_mac.c **** 
 473:C:/Users/Yushev/git/optiga-trust-qi/projects/xmc4700_relax_kit/common/Libraries/XMCLib/src\xmc_eth_mac.c ****   XMC_ASSERT("XMC_ETH_MAC_ReadFrame:", eth_mac != NULL);
 474:C:/Users/Yushev/git/optiga-trust-qi/projects/xmc4700_relax_kit/common/Libraries/XMCLib/src\xmc_eth_mac.c ****   XMC_ASSERT("XMC_ETH_MAC_ReadFrame:", eth_mac->regs == ETH0);
 475:C:/Users/Yushev/git/optiga-trust-qi/projects/xmc4700_relax_kit/common/Libraries/XMCLib/src\xmc_eth_mac.c ****   XMC_ASSERT("XMC_ETH_MAC_ReadFrame:", (frame != NULL) && (len > 0));
 476:C:/Users/Yushev/git/optiga-trust-qi/projects/xmc4700_relax_kit/common/Libraries/XMCLib/src\xmc_eth_mac.c **** 
 477:C:/Users/Yushev/git/optiga-trust-qi/projects/xmc4700_relax_kit/common/Libraries/XMCLib/src\xmc_eth_mac.c ****   /* Fast-copy data to packet buffer */
 478:C:/Users/Yushev/git/optiga-trust-qi/projects/xmc4700_relax_kit/common/Libraries/XMCLib/src\xmc_eth_mac.c ****   src = (uint8_t const *)eth_mac->rx_desc[eth_mac->rx_index].buffer1;
 641              	 .loc 1 478 0
 642 0004 90F82700 	 ldrb r0,[r0,#39]
 643              	.LVL58:
 644 0008 2369     	 ldr r3,[r4,#16]
 645 000a 03EB4013 	 add r3,r3,r0,lsl#5
 479:C:/Users/Yushev/git/optiga-trust-qi/projects/xmc4700_relax_kit/common/Libraries/XMCLib/src\xmc_eth_mac.c **** 
 480:C:/Users/Yushev/git/optiga-trust-qi/projects/xmc4700_relax_kit/common/Libraries/XMCLib/src\xmc_eth_mac.c ****   memcpy(frame, src, len);
 646              	 .loc 1 480 0
 647 000e 0846     	 mov r0,r1
 478:C:/Users/Yushev/git/optiga-trust-qi/projects/xmc4700_relax_kit/common/Libraries/XMCLib/src\xmc_eth_mac.c **** 
 648              	 .loc 1 478 0
 649 0010 9B68     	 ldr r3,[r3,#8]
 650              	.LVL59:
 651              	 .loc 1 480 0
 652 0012 1946     	 mov r1,r3
 653              	.LVL60:
 470:C:/Users/Yushev/git/optiga-trust-qi/projects/xmc4700_relax_kit/common/Libraries/XMCLib/src\xmc_eth_mac.c ****   uint8_t const *src;
 654              	 .loc 1 470 0
 655 0014 1546     	 mov r5,r2
 656              	 .loc 1 480 0
 657 0016 FFF7FEFF 	 bl memcpy
 658              	.LVL61:
 481:C:/Users/Yushev/git/optiga-trust-qi/projects/xmc4700_relax_kit/common/Libraries/XMCLib/src\xmc_eth_mac.c **** 
 482:C:/Users/Yushev/git/optiga-trust-qi/projects/xmc4700_relax_kit/common/Libraries/XMCLib/src\xmc_eth_mac.c ****   /* Return this block back to DMA */
 483:C:/Users/Yushev/git/optiga-trust-qi/projects/xmc4700_relax_kit/common/Libraries/XMCLib/src\xmc_eth_mac.c ****   eth_mac->rx_desc[eth_mac->rx_index].status = ETH_MAC_DMA_RDES0_OWN;
 659              	 .loc 1 483 0
 660 001a 94F82730 	 ldrb r3,[r4,#39]
 661 001e 2269     	 ldr r2,[r4,#16]
 662 0020 5B01     	 lsls r3,r3,#5
 663 0022 4FF00041 	 mov r1,#-2147483648
 664 0026 D150     	 str r1,[r2,r3]
 484:C:/Users/Yushev/git/optiga-trust-qi/projects/xmc4700_relax_kit/common/Libraries/XMCLib/src\xmc_eth_mac.c **** 
 485:C:/Users/Yushev/git/optiga-trust-qi/projects/xmc4700_relax_kit/common/Libraries/XMCLib/src\xmc_eth_mac.c ****   eth_mac->rx_index++;
 665              	 .loc 1 485 0
 666 0028 94F82730 	 ldrb r3,[r4,#39]
 486:C:/Users/Yushev/git/optiga-trust-qi/projects/xmc4700_relax_kit/common/Libraries/XMCLib/src\xmc_eth_mac.c ****   if (eth_mac->rx_index == eth_mac->num_rx_buf)
 667              	 .loc 1 486 0
 668 002c 94F82420 	 ldrb r2,[r4,#36]
 485:C:/Users/Yushev/git/optiga-trust-qi/projects/xmc4700_relax_kit/common/Libraries/XMCLib/src\xmc_eth_mac.c ****   if (eth_mac->rx_index == eth_mac->num_rx_buf)
 669              	 .loc 1 485 0
 670 0030 0133     	 adds r3,r3,#1
 671 0032 DBB2     	 uxtb r3,r3
 672              	 .loc 1 486 0
 673 0034 9A42     	 cmp r2,r3
 485:C:/Users/Yushev/git/optiga-trust-qi/projects/xmc4700_relax_kit/common/Libraries/XMCLib/src\xmc_eth_mac.c ****   if (eth_mac->rx_index == eth_mac->num_rx_buf)
 674              	 .loc 1 485 0
 675 0036 84F82730 	 strb r3,[r4,#39]
 487:C:/Users/Yushev/git/optiga-trust-qi/projects/xmc4700_relax_kit/common/Libraries/XMCLib/src\xmc_eth_mac.c ****   {
 488:C:/Users/Yushev/git/optiga-trust-qi/projects/xmc4700_relax_kit/common/Libraries/XMCLib/src\xmc_eth_mac.c ****     eth_mac->rx_index = 0U;
 676              	 .loc 1 488 0
 677 003a 04BF     	 itt eq
 678 003c 0023     	 moveq r3,#0
 679 003e 84F82730 	 strbeq r3,[r4,#39]
 489:C:/Users/Yushev/git/optiga-trust-qi/projects/xmc4700_relax_kit/common/Libraries/XMCLib/src\xmc_eth_mac.c ****   }
 490:C:/Users/Yushev/git/optiga-trust-qi/projects/xmc4700_relax_kit/common/Libraries/XMCLib/src\xmc_eth_mac.c **** 
 491:C:/Users/Yushev/git/optiga-trust-qi/projects/xmc4700_relax_kit/common/Libraries/XMCLib/src\xmc_eth_mac.c ****   if (eth_mac->regs->STATUS & ETH_STATUS_RU_Msk)
 680              	 .loc 1 491 0
 681 0042 41F21402 	 movw r2,#4116
 682 0046 2368     	 ldr r3,[r4]
 683 0048 9958     	 ldr r1,[r3,r2]
 684 004a 0906     	 lsls r1,r1,#24
 492:C:/Users/Yushev/git/optiga-trust-qi/projects/xmc4700_relax_kit/common/Libraries/XMCLib/src\xmc_eth_mac.c ****   {
 493:C:/Users/Yushev/git/optiga-trust-qi/projects/xmc4700_relax_kit/common/Libraries/XMCLib/src\xmc_eth_mac.c ****     /* Receive buffer unavailable, resume DMA */
 494:C:/Users/Yushev/git/optiga-trust-qi/projects/xmc4700_relax_kit/common/Libraries/XMCLib/src\xmc_eth_mac.c ****   eth_mac->regs->STATUS = (uint32_t)ETH_STATUS_RU_Msk;
 685              	 .loc 1 494 0
 686 004c 41BF     	 itttt mi
 687 004e 8021     	 movmi r1,#128
 688 0050 9950     	 strmi r1,[r3,r2]
 495:C:/Users/Yushev/git/optiga-trust-qi/projects/xmc4700_relax_kit/common/Libraries/XMCLib/src\xmc_eth_mac.c ****   eth_mac->regs->RECEIVE_POLL_DEMAND = 0U;
 689              	 .loc 1 495 0
 690 0052 41F20802 	 movwmi r2,#4104
 691 0056 0021     	 movmi r1,#0
 692 0058 48BF     	 it mi
 693 005a 9950     	 strmi r1,[r3,r2]
 496:C:/Users/Yushev/git/optiga-trust-qi/projects/xmc4700_relax_kit/common/Libraries/XMCLib/src\xmc_eth_mac.c ****   }
 497:C:/Users/Yushev/git/optiga-trust-qi/projects/xmc4700_relax_kit/common/Libraries/XMCLib/src\xmc_eth_mac.c **** 
 498:C:/Users/Yushev/git/optiga-trust-qi/projects/xmc4700_relax_kit/common/Libraries/XMCLib/src\xmc_eth_mac.c ****   return (len);
 499:C:/Users/Yushev/git/optiga-trust-qi/projects/xmc4700_relax_kit/common/Libraries/XMCLib/src\xmc_eth_mac.c **** }
 694              	 .loc 1 499 0
 695 005c 2846     	 mov r0,r5
 696 005e 38BD     	 pop {r3,r4,r5,pc}
 697              	 .cfi_endproc
 698              	.LFE237:
 700              	 .section .text.XMC_ETH_MAC_GetRxFrameSize,"ax",%progbits
 701              	 .align 1
 702              	 .global XMC_ETH_MAC_GetRxFrameSize
 703              	 .thumb
 704              	 .thumb_func
 706              	XMC_ETH_MAC_GetRxFrameSize:
 707              	.LFB238:
 500:C:/Users/Yushev/git/optiga-trust-qi/projects/xmc4700_relax_kit/common/Libraries/XMCLib/src\xmc_eth_mac.c **** 
 501:C:/Users/Yushev/git/optiga-trust-qi/projects/xmc4700_relax_kit/common/Libraries/XMCLib/src\xmc_eth_mac.c **** /* Get RX frame size */
 502:C:/Users/Yushev/git/optiga-trust-qi/projects/xmc4700_relax_kit/common/Libraries/XMCLib/src\xmc_eth_mac.c **** uint32_t XMC_ETH_MAC_GetRxFrameSize(XMC_ETH_MAC_t *const eth_mac)
 503:C:/Users/Yushev/git/optiga-trust-qi/projects/xmc4700_relax_kit/common/Libraries/XMCLib/src\xmc_eth_mac.c **** {
 708              	 .loc 1 503 0
 709              	 .cfi_startproc
 710              	 
 711              	 
 712              	 
 713              	.LVL62:
 504:C:/Users/Yushev/git/optiga-trust-qi/projects/xmc4700_relax_kit/common/Libraries/XMCLib/src\xmc_eth_mac.c ****   uint32_t status;
 505:C:/Users/Yushev/git/optiga-trust-qi/projects/xmc4700_relax_kit/common/Libraries/XMCLib/src\xmc_eth_mac.c ****   uint32_t len = 0U;
 506:C:/Users/Yushev/git/optiga-trust-qi/projects/xmc4700_relax_kit/common/Libraries/XMCLib/src\xmc_eth_mac.c **** 
 507:C:/Users/Yushev/git/optiga-trust-qi/projects/xmc4700_relax_kit/common/Libraries/XMCLib/src\xmc_eth_mac.c ****   status = eth_mac->rx_desc[eth_mac->rx_index].status;
 714              	 .loc 1 507 0
 715 0000 90F82730 	 ldrb r3,[r0,#39]
 716 0004 0269     	 ldr r2,[r0,#16]
 717 0006 5B01     	 lsls r3,r3,#5
 718 0008 D058     	 ldr r0,[r2,r3]
 719              	.LVL63:
 508:C:/Users/Yushev/git/optiga-trust-qi/projects/xmc4700_relax_kit/common/Libraries/XMCLib/src\xmc_eth_mac.c **** 
 509:C:/Users/Yushev/git/optiga-trust-qi/projects/xmc4700_relax_kit/common/Libraries/XMCLib/src\xmc_eth_mac.c ****   if (status & ETH_MAC_DMA_RDES0_OWN)
 720              	 .loc 1 509 0
 721 000a 0028     	 cmp r0,#0
 722 000c 08DB     	 blt .L49
 510:C:/Users/Yushev/git/optiga-trust-qi/projects/xmc4700_relax_kit/common/Libraries/XMCLib/src\xmc_eth_mac.c ****   {
 511:C:/Users/Yushev/git/optiga-trust-qi/projects/xmc4700_relax_kit/common/Libraries/XMCLib/src\xmc_eth_mac.c ****     /* Owned by DMA */
 512:C:/Users/Yushev/git/optiga-trust-qi/projects/xmc4700_relax_kit/common/Libraries/XMCLib/src\xmc_eth_mac.c ****     len = 0U;
 513:C:/Users/Yushev/git/optiga-trust-qi/projects/xmc4700_relax_kit/common/Libraries/XMCLib/src\xmc_eth_mac.c ****   }
 514:C:/Users/Yushev/git/optiga-trust-qi/projects/xmc4700_relax_kit/common/Libraries/XMCLib/src\xmc_eth_mac.c ****   else if (((status & ETH_MAC_DMA_RDES0_ES) != 0U) ||
 515:C:/Users/Yushev/git/optiga-trust-qi/projects/xmc4700_relax_kit/common/Libraries/XMCLib/src\xmc_eth_mac.c ****            ((status & ETH_MAC_DMA_RDES0_FS) == 0U) ||
 723              	 .loc 1 515 0
 724 000e 00F40343 	 and r3,r0,#33536
 514:C:/Users/Yushev/git/optiga-trust-qi/projects/xmc4700_relax_kit/common/Libraries/XMCLib/src\xmc_eth_mac.c ****            ((status & ETH_MAC_DMA_RDES0_FS) == 0U) ||
 725              	 .loc 1 514 0
 726 0012 B3F5407F 	 cmp r3,#768
 727 0016 05D1     	 bne .L50
 516:C:/Users/Yushev/git/optiga-trust-qi/projects/xmc4700_relax_kit/common/Libraries/XMCLib/src\xmc_eth_mac.c ****            ((status & ETH_MAC_DMA_RDES0_LS) == 0U)) 
 517:C:/Users/Yushev/git/optiga-trust-qi/projects/xmc4700_relax_kit/common/Libraries/XMCLib/src\xmc_eth_mac.c ****   {
 518:C:/Users/Yushev/git/optiga-trust-qi/projects/xmc4700_relax_kit/common/Libraries/XMCLib/src\xmc_eth_mac.c ****     /* Error, this block is invalid */
 519:C:/Users/Yushev/git/optiga-trust-qi/projects/xmc4700_relax_kit/common/Libraries/XMCLib/src\xmc_eth_mac.c ****     len = 0xFFFFFFFFU;
 520:C:/Users/Yushev/git/optiga-trust-qi/projects/xmc4700_relax_kit/common/Libraries/XMCLib/src\xmc_eth_mac.c ****   }
 521:C:/Users/Yushev/git/optiga-trust-qi/projects/xmc4700_relax_kit/common/Libraries/XMCLib/src\xmc_eth_mac.c ****   else 
 522:C:/Users/Yushev/git/optiga-trust-qi/projects/xmc4700_relax_kit/common/Libraries/XMCLib/src\xmc_eth_mac.c ****   {
 523:C:/Users/Yushev/git/optiga-trust-qi/projects/xmc4700_relax_kit/common/Libraries/XMCLib/src\xmc_eth_mac.c ****     /* Subtract CRC */
 524:C:/Users/Yushev/git/optiga-trust-qi/projects/xmc4700_relax_kit/common/Libraries/XMCLib/src\xmc_eth_mac.c ****     len = ((status & ETH_MAC_DMA_RDES0_FL) >> 16U) - 4U;
 728              	 .loc 1 524 0
 729 0018 C0F30D40 	 ubfx r0,r0,#16,#14
 730              	.LVL64:
 731 001c 0438     	 subs r0,r0,#4
 732              	.LVL65:
 733 001e 7047     	 bx lr
 734              	.LVL66:
 735              	.L49:
 512:C:/Users/Yushev/git/optiga-trust-qi/projects/xmc4700_relax_kit/common/Libraries/XMCLib/src\xmc_eth_mac.c ****   }
 736              	 .loc 1 512 0
 737 0020 0020     	 movs r0,#0
 738              	.LVL67:
 739 0022 7047     	 bx lr
 740              	.LVL68:
 741              	.L50:
 519:C:/Users/Yushev/git/optiga-trust-qi/projects/xmc4700_relax_kit/common/Libraries/XMCLib/src\xmc_eth_mac.c ****   }
 742              	 .loc 1 519 0
 743 0024 4FF0FF30 	 mov r0,#-1
 744              	.LVL69:
 525:C:/Users/Yushev/git/optiga-trust-qi/projects/xmc4700_relax_kit/common/Libraries/XMCLib/src\xmc_eth_mac.c ****   }
 526:C:/Users/Yushev/git/optiga-trust-qi/projects/xmc4700_relax_kit/common/Libraries/XMCLib/src\xmc_eth_mac.c **** 
 527:C:/Users/Yushev/git/optiga-trust-qi/projects/xmc4700_relax_kit/common/Libraries/XMCLib/src\xmc_eth_mac.c ****   return len;
 528:C:/Users/Yushev/git/optiga-trust-qi/projects/xmc4700_relax_kit/common/Libraries/XMCLib/src\xmc_eth_mac.c **** }
 745              	 .loc 1 528 0
 746 0028 7047     	 bx lr
 747              	 .cfi_endproc
 748              	.LFE238:
 750              	 .section .text.XMC_ETH_MAC_SetManagmentClockDivider,"ax",%progbits
 751              	 .align 1
 752              	 .global XMC_ETH_MAC_SetManagmentClockDivider
 753              	 .thumb
 754              	 .thumb_func
 756              	XMC_ETH_MAC_SetManagmentClockDivider:
 757              	.LFB239:
 529:C:/Users/Yushev/git/optiga-trust-qi/projects/xmc4700_relax_kit/common/Libraries/XMCLib/src\xmc_eth_mac.c **** 
 530:C:/Users/Yushev/git/optiga-trust-qi/projects/xmc4700_relax_kit/common/Libraries/XMCLib/src\xmc_eth_mac.c **** /* Set management clock divider */
 531:C:/Users/Yushev/git/optiga-trust-qi/projects/xmc4700_relax_kit/common/Libraries/XMCLib/src\xmc_eth_mac.c **** XMC_ETH_MAC_STATUS_t XMC_ETH_MAC_SetManagmentClockDivider(XMC_ETH_MAC_t *const eth_mac)
 532:C:/Users/Yushev/git/optiga-trust-qi/projects/xmc4700_relax_kit/common/Libraries/XMCLib/src\xmc_eth_mac.c **** {
 758              	 .loc 1 532 0
 759              	 .cfi_startproc
 760              	 
 761              	 
 762              	 
 763              	.LVL70:
 764              	.LBB18:
 765              	.LBB19:
 766              	.LBB20:
 767              	.LBB21:
 768              	 .file 3 "C:/Users/Yushev/git/optiga-trust-qi/projects/xmc4700_relax_kit/common/Libraries/XMCLib/inc/xmc4_scu.h"
   1:C:/Users/Yushev/git/optiga-trust-qi/projects/xmc4700_relax_kit/common/Libraries/XMCLib/inc\xmc4_scu.h **** /**
   2:C:/Users/Yushev/git/optiga-trust-qi/projects/xmc4700_relax_kit/common/Libraries/XMCLib/inc\xmc4_scu.h ****  * @file xmc4_scu.h
   3:C:/Users/Yushev/git/optiga-trust-qi/projects/xmc4700_relax_kit/common/Libraries/XMCLib/inc\xmc4_scu.h ****  * @date 2016-06-15
   4:C:/Users/Yushev/git/optiga-trust-qi/projects/xmc4700_relax_kit/common/Libraries/XMCLib/inc\xmc4_scu.h ****  *
   5:C:/Users/Yushev/git/optiga-trust-qi/projects/xmc4700_relax_kit/common/Libraries/XMCLib/inc\xmc4_scu.h ****  * @cond
   6:C:/Users/Yushev/git/optiga-trust-qi/projects/xmc4700_relax_kit/common/Libraries/XMCLib/inc\xmc4_scu.h ****  **************************************************************************************************
   7:C:/Users/Yushev/git/optiga-trust-qi/projects/xmc4700_relax_kit/common/Libraries/XMCLib/inc\xmc4_scu.h ****  * XMClib v2.1.20 - XMC Peripheral Driver Library 
   8:C:/Users/Yushev/git/optiga-trust-qi/projects/xmc4700_relax_kit/common/Libraries/XMCLib/inc\xmc4_scu.h ****  *
   9:C:/Users/Yushev/git/optiga-trust-qi/projects/xmc4700_relax_kit/common/Libraries/XMCLib/inc\xmc4_scu.h ****  * Copyright (c) 2015-2018, Infineon Technologies AG
  10:C:/Users/Yushev/git/optiga-trust-qi/projects/xmc4700_relax_kit/common/Libraries/XMCLib/inc\xmc4_scu.h ****  * All rights reserved.                        
  11:C:/Users/Yushev/git/optiga-trust-qi/projects/xmc4700_relax_kit/common/Libraries/XMCLib/inc\xmc4_scu.h ****  *                                             
  12:C:/Users/Yushev/git/optiga-trust-qi/projects/xmc4700_relax_kit/common/Libraries/XMCLib/inc\xmc4_scu.h ****  * Redistribution and use in source and binary forms, with or without modification,are permitted pr
  13:C:/Users/Yushev/git/optiga-trust-qi/projects/xmc4700_relax_kit/common/Libraries/XMCLib/inc\xmc4_scu.h ****  * following conditions are met:   
  14:C:/Users/Yushev/git/optiga-trust-qi/projects/xmc4700_relax_kit/common/Libraries/XMCLib/inc\xmc4_scu.h ****  *                                                                              
  15:C:/Users/Yushev/git/optiga-trust-qi/projects/xmc4700_relax_kit/common/Libraries/XMCLib/inc\xmc4_scu.h ****  * Redistributions of source code must retain the above copyright notice, this list of conditions a
  16:C:/Users/Yushev/git/optiga-trust-qi/projects/xmc4700_relax_kit/common/Libraries/XMCLib/inc\xmc4_scu.h ****  * disclaimer.                        
  17:C:/Users/Yushev/git/optiga-trust-qi/projects/xmc4700_relax_kit/common/Libraries/XMCLib/inc\xmc4_scu.h ****  * 
  18:C:/Users/Yushev/git/optiga-trust-qi/projects/xmc4700_relax_kit/common/Libraries/XMCLib/inc\xmc4_scu.h ****  * Redistributions in binary form must reproduce the above copyright notice, this list of condition
  19:C:/Users/Yushev/git/optiga-trust-qi/projects/xmc4700_relax_kit/common/Libraries/XMCLib/inc\xmc4_scu.h ****  * disclaimer in the documentation and/or other materials provided with the distribution.          
  20:C:/Users/Yushev/git/optiga-trust-qi/projects/xmc4700_relax_kit/common/Libraries/XMCLib/inc\xmc4_scu.h ****  * 
  21:C:/Users/Yushev/git/optiga-trust-qi/projects/xmc4700_relax_kit/common/Libraries/XMCLib/inc\xmc4_scu.h ****  * Neither the name of the copyright holders nor the names of its contributors may be used to endor
  22:C:/Users/Yushev/git/optiga-trust-qi/projects/xmc4700_relax_kit/common/Libraries/XMCLib/inc\xmc4_scu.h ****  * products derived from this software without specific prior written permission.                  
  23:C:/Users/Yushev/git/optiga-trust-qi/projects/xmc4700_relax_kit/common/Libraries/XMCLib/inc\xmc4_scu.h ****  *                                                                              
  24:C:/Users/Yushev/git/optiga-trust-qi/projects/xmc4700_relax_kit/common/Libraries/XMCLib/inc\xmc4_scu.h ****  * THIS SOFTWARE IS PROVIDED BY THE COPYRIGHT HOLDERS AND CONTRIBUTORS "AS IS" AND ANY EXPRESS OR I
  25:C:/Users/Yushev/git/optiga-trust-qi/projects/xmc4700_relax_kit/common/Libraries/XMCLib/inc\xmc4_scu.h ****  * INCLUDING, BUT NOT LIMITED TO, THE IMPLIED WARRANTIES OF MERCHANTABILITY AND FITNESS FOR A PARTI
  26:C:/Users/Yushev/git/optiga-trust-qi/projects/xmc4700_relax_kit/common/Libraries/XMCLib/inc\xmc4_scu.h ****  * DISCLAIMED. IN NO EVENT SHALL THE COPYRIGHT HOLDER OR CONTRIBUTORS BE LIABLE  FOR ANY DIRECT, IN
  27:C:/Users/Yushev/git/optiga-trust-qi/projects/xmc4700_relax_kit/common/Libraries/XMCLib/inc\xmc4_scu.h ****  * SPECIAL, EXEMPLARY, OR CONSEQUENTIAL DAMAGES (INCLUDING, BUT NOT LIMITED TO, PROCUREMENT OF SUBS
  28:C:/Users/Yushev/git/optiga-trust-qi/projects/xmc4700_relax_kit/common/Libraries/XMCLib/inc\xmc4_scu.h ****  * SERVICES; LOSS OF USE, DATA, OR PROFITS; OR BUSINESS INTERRUPTION) HOWEVER CAUSED AND ON ANY THE
  29:C:/Users/Yushev/git/optiga-trust-qi/projects/xmc4700_relax_kit/common/Libraries/XMCLib/inc\xmc4_scu.h ****  * WHETHER IN CONTRACT, STRICT LIABILITY,OR TORT (INCLUDING NEGLIGENCE OR OTHERWISE) ARISING IN ANY
  30:C:/Users/Yushev/git/optiga-trust-qi/projects/xmc4700_relax_kit/common/Libraries/XMCLib/inc\xmc4_scu.h ****  * OF THIS SOFTWARE, EVEN IF ADVISED OF THE POSSIBILITY OF SUCH DAMAGE.                            
  31:C:/Users/Yushev/git/optiga-trust-qi/projects/xmc4700_relax_kit/common/Libraries/XMCLib/inc\xmc4_scu.h ****  *                                                                              
  32:C:/Users/Yushev/git/optiga-trust-qi/projects/xmc4700_relax_kit/common/Libraries/XMCLib/inc\xmc4_scu.h ****  * To improve the quality of the software, users are encouraged to share modifications, enhancement
  33:C:/Users/Yushev/git/optiga-trust-qi/projects/xmc4700_relax_kit/common/Libraries/XMCLib/inc\xmc4_scu.h ****  * Infineon Technologies AG dave@infineon.com).                                                    
  34:C:/Users/Yushev/git/optiga-trust-qi/projects/xmc4700_relax_kit/common/Libraries/XMCLib/inc\xmc4_scu.h ****  **************************************************************************************************
  35:C:/Users/Yushev/git/optiga-trust-qi/projects/xmc4700_relax_kit/common/Libraries/XMCLib/inc\xmc4_scu.h ****  *
  36:C:/Users/Yushev/git/optiga-trust-qi/projects/xmc4700_relax_kit/common/Libraries/XMCLib/inc\xmc4_scu.h ****  * Change History
  37:C:/Users/Yushev/git/optiga-trust-qi/projects/xmc4700_relax_kit/common/Libraries/XMCLib/inc\xmc4_scu.h ****  * --------------
  38:C:/Users/Yushev/git/optiga-trust-qi/projects/xmc4700_relax_kit/common/Libraries/XMCLib/inc\xmc4_scu.h ****  *
  39:C:/Users/Yushev/git/optiga-trust-qi/projects/xmc4700_relax_kit/common/Libraries/XMCLib/inc\xmc4_scu.h ****  * 2015-06-20:
  40:C:/Users/Yushev/git/optiga-trust-qi/projects/xmc4700_relax_kit/common/Libraries/XMCLib/inc\xmc4_scu.h ****  *     - Initial version
  41:C:/Users/Yushev/git/optiga-trust-qi/projects/xmc4700_relax_kit/common/Libraries/XMCLib/inc\xmc4_scu.h ****  *     - Documentation improved
  42:C:/Users/Yushev/git/optiga-trust-qi/projects/xmc4700_relax_kit/common/Libraries/XMCLib/inc\xmc4_scu.h ****  *
  43:C:/Users/Yushev/git/optiga-trust-qi/projects/xmc4700_relax_kit/common/Libraries/XMCLib/inc\xmc4_scu.h ****  * 2015-11-30:
  44:C:/Users/Yushev/git/optiga-trust-qi/projects/xmc4700_relax_kit/common/Libraries/XMCLib/inc\xmc4_scu.h ****  *     - Documentation improved
  45:C:/Users/Yushev/git/optiga-trust-qi/projects/xmc4700_relax_kit/common/Libraries/XMCLib/inc\xmc4_scu.h ****  *      
  46:C:/Users/Yushev/git/optiga-trust-qi/projects/xmc4700_relax_kit/common/Libraries/XMCLib/inc\xmc4_scu.h ****  * 2016-03-09:
  47:C:/Users/Yushev/git/optiga-trust-qi/projects/xmc4700_relax_kit/common/Libraries/XMCLib/inc\xmc4_scu.h ****  *     - Added XMC_SCU_POWER_EnableMonitor/XMC_SCU_POWER_DisableMonitor
  48:C:/Users/Yushev/git/optiga-trust-qi/projects/xmc4700_relax_kit/common/Libraries/XMCLib/inc\xmc4_scu.h ****  *             XMC_SCU_POWER_GetEVRStatus, XMC_SCU_POWER_GetEVR13Voltage, XMC_SCU_POWER_GetEVR33Vol
  49:C:/Users/Yushev/git/optiga-trust-qi/projects/xmc4700_relax_kit/common/Libraries/XMCLib/inc\xmc4_scu.h ****  *     - Added XMC_SCU_HIB_GetHibernateControlStatus,
  50:C:/Users/Yushev/git/optiga-trust-qi/projects/xmc4700_relax_kit/common/Libraries/XMCLib/inc\xmc4_scu.h ****  *             XMC_SCU_HIB_GetEventStatus, XMC_SCU_HIB_ClearEventStatus, XMC_SCU_HIB_TriggerEvent, 
  51:C:/Users/Yushev/git/optiga-trust-qi/projects/xmc4700_relax_kit/common/Libraries/XMCLib/inc\xmc4_scu.h ****  *             XMC_SCU_HIB_EnableEvent, XMC_SCU_HIB_DisableEvent
  52:C:/Users/Yushev/git/optiga-trust-qi/projects/xmc4700_relax_kit/common/Libraries/XMCLib/inc\xmc4_scu.h ****  *     - Added XMC_SCU_HIB_SetWakeupTriggerInput, XMC_SCU_HIB_SetPinMode, XMC_SCU_HIB_SetOutputPinL
  53:C:/Users/Yushev/git/optiga-trust-qi/projects/xmc4700_relax_kit/common/Libraries/XMCLib/inc\xmc4_scu.h ****  *             XMC_SCU_HIB_SetInput0, XMC_SCU_HIB_EnterHibernateState
  54:C:/Users/Yushev/git/optiga-trust-qi/projects/xmc4700_relax_kit/common/Libraries/XMCLib/inc\xmc4_scu.h ****  *
  55:C:/Users/Yushev/git/optiga-trust-qi/projects/xmc4700_relax_kit/common/Libraries/XMCLib/inc\xmc4_scu.h ****  * 2016-04-15:
  56:C:/Users/Yushev/git/optiga-trust-qi/projects/xmc4700_relax_kit/common/Libraries/XMCLib/inc\xmc4_scu.h ****  *     - Fixed naming of XMC_SCU_CLOCK_DEEPSLEEP_MODE_CONFIG peripheral clock.
  57:C:/Users/Yushev/git/optiga-trust-qi/projects/xmc4700_relax_kit/common/Libraries/XMCLib/inc\xmc4_scu.h ****  *       Added enable and disable for peripheral clocks       
  58:C:/Users/Yushev/git/optiga-trust-qi/projects/xmc4700_relax_kit/common/Libraries/XMCLib/inc\xmc4_scu.h ****  * 
  59:C:/Users/Yushev/git/optiga-trust-qi/projects/xmc4700_relax_kit/common/Libraries/XMCLib/inc\xmc4_scu.h ****  * 2016-05-19:
  60:C:/Users/Yushev/git/optiga-trust-qi/projects/xmc4700_relax_kit/common/Libraries/XMCLib/inc\xmc4_scu.h ****  *     - Added XMC_SCU_CLOCK_IsLowPowerOscillatorStable() and XMC_SCU_CLOCK_IsHighPerformanceOscill
  61:C:/Users/Yushev/git/optiga-trust-qi/projects/xmc4700_relax_kit/common/Libraries/XMCLib/inc\xmc4_scu.h ****  *     - Added XMC_SCU_POWER_WaitForInterrupt() and XMC_SCU_POWER_WaitForEvent()
  62:C:/Users/Yushev/git/optiga-trust-qi/projects/xmc4700_relax_kit/common/Libraries/XMCLib/inc\xmc4_scu.h ****  *     - Added XMC_SCU_CLOCK_EnableLowPowerOscillatorGeneralPurposeInput(), 
  63:C:/Users/Yushev/git/optiga-trust-qi/projects/xmc4700_relax_kit/common/Libraries/XMCLib/inc\xmc4_scu.h ****  *             XMC_SCU_CLOCK_DisableLowPowerOscillatorGeneralPurposeInput(),
  64:C:/Users/Yushev/git/optiga-trust-qi/projects/xmc4700_relax_kit/common/Libraries/XMCLib/inc\xmc4_scu.h ****  *             XMC_SCU_CLOCK_GetLowPowerOscillatorGeneralPurposeInputStatus()
  65:C:/Users/Yushev/git/optiga-trust-qi/projects/xmc4700_relax_kit/common/Libraries/XMCLib/inc\xmc4_scu.h ****  *     - Added XMC_SCU_CLOCK_EnableHighPerformanceOscillatorGeneralPurposeInput(), 
  66:C:/Users/Yushev/git/optiga-trust-qi/projects/xmc4700_relax_kit/common/Libraries/XMCLib/inc\xmc4_scu.h ****  *             XMC_SCU_CLOCK_DisableHighPerformanceOscillatorGeneralPurposeInput(),
  67:C:/Users/Yushev/git/optiga-trust-qi/projects/xmc4700_relax_kit/common/Libraries/XMCLib/inc\xmc4_scu.h ****  *             XMC_SCU_CLOCK_GetHighPerformanceOscillatorGeneralPurposeInputStatus()
  68:C:/Users/Yushev/git/optiga-trust-qi/projects/xmc4700_relax_kit/common/Libraries/XMCLib/inc\xmc4_scu.h ****  *     - Removed XMC_SCU_INTERRUPT_EVENT_OSCULSTAT_UPDATED, XMC_SCU_INTERRUPT_EVENT_HDSTAT_UPDATED
  69:C:/Users/Yushev/git/optiga-trust-qi/projects/xmc4700_relax_kit/common/Libraries/XMCLib/inc\xmc4_scu.h ****  *
  70:C:/Users/Yushev/git/optiga-trust-qi/projects/xmc4700_relax_kit/common/Libraries/XMCLib/inc\xmc4_scu.h ****  * 2016-06-14:
  71:C:/Users/Yushev/git/optiga-trust-qi/projects/xmc4700_relax_kit/common/Libraries/XMCLib/inc\xmc4_scu.h ****  *     - Added XMC_SCU_HIB_IsWakeupEventDetected() and XMC_SCU_HIB_ClearWakeupEventDetectionStatus(
  72:C:/Users/Yushev/git/optiga-trust-qi/projects/xmc4700_relax_kit/common/Libraries/XMCLib/inc\xmc4_scu.h ****  *
  73:C:/Users/Yushev/git/optiga-trust-qi/projects/xmc4700_relax_kit/common/Libraries/XMCLib/inc\xmc4_scu.h ****  * 2016-06-15:
  74:C:/Users/Yushev/git/optiga-trust-qi/projects/xmc4700_relax_kit/common/Libraries/XMCLib/inc\xmc4_scu.h ****  *     - Added XMC_SCU_HIB_EnterHibernateStateEx() which allows to select between external or inter
  75:C:/Users/Yushev/git/optiga-trust-qi/projects/xmc4700_relax_kit/common/Libraries/XMCLib/inc\xmc4_scu.h ****  *     - Extended wakeup hibernate events using LPAC wakeup on events. Only available in XMC44, XMC
  76:C:/Users/Yushev/git/optiga-trust-qi/projects/xmc4700_relax_kit/common/Libraries/XMCLib/inc\xmc4_scu.h ****  *     - Added LPAC APIs. Only available in XMC44, XMC42 and XMC41 series.
  77:C:/Users/Yushev/git/optiga-trust-qi/projects/xmc4700_relax_kit/common/Libraries/XMCLib/inc\xmc4_scu.h ****  *
  78:C:/Users/Yushev/git/optiga-trust-qi/projects/xmc4700_relax_kit/common/Libraries/XMCLib/inc\xmc4_scu.h ****  * @endcond 
  79:C:/Users/Yushev/git/optiga-trust-qi/projects/xmc4700_relax_kit/common/Libraries/XMCLib/inc\xmc4_scu.h ****  *
  80:C:/Users/Yushev/git/optiga-trust-qi/projects/xmc4700_relax_kit/common/Libraries/XMCLib/inc\xmc4_scu.h ****  */
  81:C:/Users/Yushev/git/optiga-trust-qi/projects/xmc4700_relax_kit/common/Libraries/XMCLib/inc\xmc4_scu.h **** 
  82:C:/Users/Yushev/git/optiga-trust-qi/projects/xmc4700_relax_kit/common/Libraries/XMCLib/inc\xmc4_scu.h **** #ifndef XMC4_SCU_H
  83:C:/Users/Yushev/git/optiga-trust-qi/projects/xmc4700_relax_kit/common/Libraries/XMCLib/inc\xmc4_scu.h **** #define XMC4_SCU_H
  84:C:/Users/Yushev/git/optiga-trust-qi/projects/xmc4700_relax_kit/common/Libraries/XMCLib/inc\xmc4_scu.h **** 
  85:C:/Users/Yushev/git/optiga-trust-qi/projects/xmc4700_relax_kit/common/Libraries/XMCLib/inc\xmc4_scu.h **** /**************************************************************************************************
  86:C:/Users/Yushev/git/optiga-trust-qi/projects/xmc4700_relax_kit/common/Libraries/XMCLib/inc\xmc4_scu.h ****  * HEADER FILES
  87:C:/Users/Yushev/git/optiga-trust-qi/projects/xmc4700_relax_kit/common/Libraries/XMCLib/inc\xmc4_scu.h ****  **************************************************************************************************
  88:C:/Users/Yushev/git/optiga-trust-qi/projects/xmc4700_relax_kit/common/Libraries/XMCLib/inc\xmc4_scu.h **** 
  89:C:/Users/Yushev/git/optiga-trust-qi/projects/xmc4700_relax_kit/common/Libraries/XMCLib/inc\xmc4_scu.h **** #include "xmc_common.h"
  90:C:/Users/Yushev/git/optiga-trust-qi/projects/xmc4700_relax_kit/common/Libraries/XMCLib/inc\xmc4_scu.h **** 
  91:C:/Users/Yushev/git/optiga-trust-qi/projects/xmc4700_relax_kit/common/Libraries/XMCLib/inc\xmc4_scu.h **** #if UC_FAMILY == XMC4
  92:C:/Users/Yushev/git/optiga-trust-qi/projects/xmc4700_relax_kit/common/Libraries/XMCLib/inc\xmc4_scu.h **** 
  93:C:/Users/Yushev/git/optiga-trust-qi/projects/xmc4700_relax_kit/common/Libraries/XMCLib/inc\xmc4_scu.h **** /**
  94:C:/Users/Yushev/git/optiga-trust-qi/projects/xmc4700_relax_kit/common/Libraries/XMCLib/inc\xmc4_scu.h ****  * @addtogroup XMClib XMC Peripheral Library
  95:C:/Users/Yushev/git/optiga-trust-qi/projects/xmc4700_relax_kit/common/Libraries/XMCLib/inc\xmc4_scu.h ****  * @{
  96:C:/Users/Yushev/git/optiga-trust-qi/projects/xmc4700_relax_kit/common/Libraries/XMCLib/inc\xmc4_scu.h ****  */
  97:C:/Users/Yushev/git/optiga-trust-qi/projects/xmc4700_relax_kit/common/Libraries/XMCLib/inc\xmc4_scu.h ****  
  98:C:/Users/Yushev/git/optiga-trust-qi/projects/xmc4700_relax_kit/common/Libraries/XMCLib/inc\xmc4_scu.h **** /**
  99:C:/Users/Yushev/git/optiga-trust-qi/projects/xmc4700_relax_kit/common/Libraries/XMCLib/inc\xmc4_scu.h ****  * @addtogroup SCU
 100:C:/Users/Yushev/git/optiga-trust-qi/projects/xmc4700_relax_kit/common/Libraries/XMCLib/inc\xmc4_scu.h ****  * @{
 101:C:/Users/Yushev/git/optiga-trust-qi/projects/xmc4700_relax_kit/common/Libraries/XMCLib/inc\xmc4_scu.h ****  */
 102:C:/Users/Yushev/git/optiga-trust-qi/projects/xmc4700_relax_kit/common/Libraries/XMCLib/inc\xmc4_scu.h **** 
 103:C:/Users/Yushev/git/optiga-trust-qi/projects/xmc4700_relax_kit/common/Libraries/XMCLib/inc\xmc4_scu.h **** /**************************************************************************************************
 104:C:/Users/Yushev/git/optiga-trust-qi/projects/xmc4700_relax_kit/common/Libraries/XMCLib/inc\xmc4_scu.h ****  * MACROS
 105:C:/Users/Yushev/git/optiga-trust-qi/projects/xmc4700_relax_kit/common/Libraries/XMCLib/inc\xmc4_scu.h ****  **************************************************************************************************
 106:C:/Users/Yushev/git/optiga-trust-qi/projects/xmc4700_relax_kit/common/Libraries/XMCLib/inc\xmc4_scu.h **** #define PLL_PDIV_XTAL_8MHZ (1U)  /* PDIV value for main PLL settings, fPLL = 120MHz with fOSC = 8MH
 107:C:/Users/Yushev/git/optiga-trust-qi/projects/xmc4700_relax_kit/common/Libraries/XMCLib/inc\xmc4_scu.h **** #define PLL_NDIV_XTAL_8MHZ (89U)  /* NDIV value for main PLL settings, fPLL = 120MHz with fOSC = 8M
 108:C:/Users/Yushev/git/optiga-trust-qi/projects/xmc4700_relax_kit/common/Libraries/XMCLib/inc\xmc4_scu.h **** #define PLL_K2DIV_XTAL_8MHZ (2U)  /* K2DIV value for main PLL settings, fPLL = 120MHz with fOSC = 8
 109:C:/Users/Yushev/git/optiga-trust-qi/projects/xmc4700_relax_kit/common/Libraries/XMCLib/inc\xmc4_scu.h **** 
 110:C:/Users/Yushev/git/optiga-trust-qi/projects/xmc4700_relax_kit/common/Libraries/XMCLib/inc\xmc4_scu.h **** #define PLL_PDIV_XTAL_12MHZ (1U)  /* PDIV value for main PLL settings, fPLL = 120MHz with fOSC = 12
 111:C:/Users/Yushev/git/optiga-trust-qi/projects/xmc4700_relax_kit/common/Libraries/XMCLib/inc\xmc4_scu.h **** #define PLL_NDIV_XTAL_12MHZ (79U)  /* NDIV value for main PLL settings, fPLL = 120MHz with fOSC = 1
 112:C:/Users/Yushev/git/optiga-trust-qi/projects/xmc4700_relax_kit/common/Libraries/XMCLib/inc\xmc4_scu.h **** #define PLL_K2DIV_XTAL_12MHZ (3U)  /* K2DIV value for main PLL settings, fPLL = 120MHz with fOSC = 
 113:C:/Users/Yushev/git/optiga-trust-qi/projects/xmc4700_relax_kit/common/Libraries/XMCLib/inc\xmc4_scu.h **** 
 114:C:/Users/Yushev/git/optiga-trust-qi/projects/xmc4700_relax_kit/common/Libraries/XMCLib/inc\xmc4_scu.h **** #define PLL_PDIV_XTAL_16MHZ (1U)  /* PDIV value for main PLL settings, fPLL = 120MHz with fOSC = 16
 115:C:/Users/Yushev/git/optiga-trust-qi/projects/xmc4700_relax_kit/common/Libraries/XMCLib/inc\xmc4_scu.h **** #define PLL_NDIV_XTAL_16MHZ (59U)  /* NDIV value for main PLL settings, fPLL = 120MHz with fOSC = 1
 116:C:/Users/Yushev/git/optiga-trust-qi/projects/xmc4700_relax_kit/common/Libraries/XMCLib/inc\xmc4_scu.h **** #define PLL_K2DIV_XTAL_16MHZ (3U)  /* K2DIV value for main PLL settings, fPLL = 120MHz with fOSC = 
 117:C:/Users/Yushev/git/optiga-trust-qi/projects/xmc4700_relax_kit/common/Libraries/XMCLib/inc\xmc4_scu.h **** 
 118:C:/Users/Yushev/git/optiga-trust-qi/projects/xmc4700_relax_kit/common/Libraries/XMCLib/inc\xmc4_scu.h **** #define XMC_SCU_INTERRUPT_EVENT_WDT_WARN           SCU_INTERRUPT_SRSTAT_PRWARN_Msk /**< Watchdog pr
 119:C:/Users/Yushev/git/optiga-trust-qi/projects/xmc4700_relax_kit/common/Libraries/XMCLib/inc\xmc4_scu.h **** #define XMC_SCU_INTERRUPT_EVENT_RTC_PERIODIC       SCU_INTERRUPT_SRSTAT_PI_Msk     /**< RTC periodi
 120:C:/Users/Yushev/git/optiga-trust-qi/projects/xmc4700_relax_kit/common/Libraries/XMCLib/inc\xmc4_scu.h **** #define XMC_SCU_INTERRUPT_EVENT_RTC_ALARM          SCU_INTERRUPT_SRSTAT_AI_Msk     /**< RTC alarm e
 121:C:/Users/Yushev/git/optiga-trust-qi/projects/xmc4700_relax_kit/common/Libraries/XMCLib/inc\xmc4_scu.h **** #define XMC_SCU_INTERRUPT_EVENT_DLR_OVERRUN        SCU_INTERRUPT_SRSTAT_DLROVR_Msk /**< DLR overrun
 122:C:/Users/Yushev/git/optiga-trust-qi/projects/xmc4700_relax_kit/common/Libraries/XMCLib/inc\xmc4_scu.h **** #if defined(SCU_INTERRUPT_SRSTAT_LPACCR_Msk)
 123:C:/Users/Yushev/git/optiga-trust-qi/projects/xmc4700_relax_kit/common/Libraries/XMCLib/inc\xmc4_scu.h **** #define XMC_SCU_INTERRUPT_EVENT_LPACCR_UPDATED     SCU_INTERRUPT_SRSTAT_LPACCR_Msk /**< LPAC Contro
 124:C:/Users/Yushev/git/optiga-trust-qi/projects/xmc4700_relax_kit/common/Libraries/XMCLib/inc\xmc4_scu.h **** #endif
 125:C:/Users/Yushev/git/optiga-trust-qi/projects/xmc4700_relax_kit/common/Libraries/XMCLib/inc\xmc4_scu.h **** #if defined(SCU_INTERRUPT_SRSTAT_LPACTH0_Msk)
 126:C:/Users/Yushev/git/optiga-trust-qi/projects/xmc4700_relax_kit/common/Libraries/XMCLib/inc\xmc4_scu.h **** #define XMC_SCU_INTERRUPT_EVENT_LPACTH0_UPDATED    SCU_INTERRUPT_SRSTAT_LPACTH0_Msk /**< LPAC Thres
 127:C:/Users/Yushev/git/optiga-trust-qi/projects/xmc4700_relax_kit/common/Libraries/XMCLib/inc\xmc4_scu.h **** #endif
 128:C:/Users/Yushev/git/optiga-trust-qi/projects/xmc4700_relax_kit/common/Libraries/XMCLib/inc\xmc4_scu.h **** #if defined(SCU_INTERRUPT_SRSTAT_LPACTH1_Msk)
 129:C:/Users/Yushev/git/optiga-trust-qi/projects/xmc4700_relax_kit/common/Libraries/XMCLib/inc\xmc4_scu.h **** #define XMC_SCU_INTERRUPT_EVENT_LPACTH1_UPDATED    SCU_INTERRUPT_SRSTAT_LPACTH1_Msk  /**< LPAC Thre
 130:C:/Users/Yushev/git/optiga-trust-qi/projects/xmc4700_relax_kit/common/Libraries/XMCLib/inc\xmc4_scu.h **** #endif
 131:C:/Users/Yushev/git/optiga-trust-qi/projects/xmc4700_relax_kit/common/Libraries/XMCLib/inc\xmc4_scu.h **** #if defined(SCU_INTERRUPT_SRSTAT_LPACST_Msk)
 132:C:/Users/Yushev/git/optiga-trust-qi/projects/xmc4700_relax_kit/common/Libraries/XMCLib/inc\xmc4_scu.h **** #define XMC_SCU_INTERRUPT_EVENT_LPACST_UPDATED     SCU_INTERRUPT_SRSTAT_LPACST_Msk  /**< LPAC Statu
 133:C:/Users/Yushev/git/optiga-trust-qi/projects/xmc4700_relax_kit/common/Libraries/XMCLib/inc\xmc4_scu.h **** #endif
 134:C:/Users/Yushev/git/optiga-trust-qi/projects/xmc4700_relax_kit/common/Libraries/XMCLib/inc\xmc4_scu.h **** #if defined(SCU_INTERRUPT_SRSTAT_LPACCLR_Msk)
 135:C:/Users/Yushev/git/optiga-trust-qi/projects/xmc4700_relax_kit/common/Libraries/XMCLib/inc\xmc4_scu.h **** #define XMC_SCU_INTERRUPT_EVENT_LPACCLR_UPDATED    SCU_INTERRUPT_SRSTAT_LPACCLR_Msk /**< LPAC event
 136:C:/Users/Yushev/git/optiga-trust-qi/projects/xmc4700_relax_kit/common/Libraries/XMCLib/inc\xmc4_scu.h **** #endif
 137:C:/Users/Yushev/git/optiga-trust-qi/projects/xmc4700_relax_kit/common/Libraries/XMCLib/inc\xmc4_scu.h **** #if defined(SCU_INTERRUPT_SRSTAT_LPACSET_Msk)
 138:C:/Users/Yushev/git/optiga-trust-qi/projects/xmc4700_relax_kit/common/Libraries/XMCLib/inc\xmc4_scu.h **** #define XMC_SCU_INTERRUPT_EVENT_LPACSET_UPDATED    SCU_INTERRUPT_SRSTAT_LPACSET_Msk /**< LPAC event
 139:C:/Users/Yushev/git/optiga-trust-qi/projects/xmc4700_relax_kit/common/Libraries/XMCLib/inc\xmc4_scu.h **** #endif
 140:C:/Users/Yushev/git/optiga-trust-qi/projects/xmc4700_relax_kit/common/Libraries/XMCLib/inc\xmc4_scu.h **** #if defined(SCU_INTERRUPT_SRSTAT_HINTST_Msk)
 141:C:/Users/Yushev/git/optiga-trust-qi/projects/xmc4700_relax_kit/common/Libraries/XMCLib/inc\xmc4_scu.h **** #define XMC_SCU_INTERRUPT_EVENT_HINTST_UPDATED     SCU_INTERRUPT_SRSTAT_HINTST_Msk /**< HIB HINTST 
 142:C:/Users/Yushev/git/optiga-trust-qi/projects/xmc4700_relax_kit/common/Libraries/XMCLib/inc\xmc4_scu.h **** #endif
 143:C:/Users/Yushev/git/optiga-trust-qi/projects/xmc4700_relax_kit/common/Libraries/XMCLib/inc\xmc4_scu.h **** #if defined(SCU_INTERRUPT_SRSTAT_HINTCLR_Msk)
 144:C:/Users/Yushev/git/optiga-trust-qi/projects/xmc4700_relax_kit/common/Libraries/XMCLib/inc\xmc4_scu.h **** #define XMC_SCU_INTERRUPT_EVENT_HINTCLR_UPDATED    SCU_INTERRUPT_SRSTAT_HINTCLR_Msk /**< HIB HINTCL
 145:C:/Users/Yushev/git/optiga-trust-qi/projects/xmc4700_relax_kit/common/Libraries/XMCLib/inc\xmc4_scu.h **** #endif
 146:C:/Users/Yushev/git/optiga-trust-qi/projects/xmc4700_relax_kit/common/Libraries/XMCLib/inc\xmc4_scu.h **** #if defined(SCU_INTERRUPT_SRSTAT_HINTSET_Msk)
 147:C:/Users/Yushev/git/optiga-trust-qi/projects/xmc4700_relax_kit/common/Libraries/XMCLib/inc\xmc4_scu.h **** #define XMC_SCU_INTERRUPT_EVENT_HINTSET_UPDATED    SCU_INTERRUPT_SRSTAT_HINTSET_Msk /**< HIB HINTSE
 148:C:/Users/Yushev/git/optiga-trust-qi/projects/xmc4700_relax_kit/common/Libraries/XMCLib/inc\xmc4_scu.h **** #endif
 149:C:/Users/Yushev/git/optiga-trust-qi/projects/xmc4700_relax_kit/common/Libraries/XMCLib/inc\xmc4_scu.h **** #define XMC_SCU_INTERRUPT_EVENT_HDCLR_UPDATED      SCU_INTERRUPT_SRSTAT_HDCLR_Msk /**< HIB HDCLR re
 150:C:/Users/Yushev/git/optiga-trust-qi/projects/xmc4700_relax_kit/common/Libraries/XMCLib/inc\xmc4_scu.h **** #define XMC_SCU_INTERRUPT_EVENT_HDSET_UPDATED      SCU_INTERRUPT_SRSTAT_HDSET_Msk /**< HIB HDSET re
 151:C:/Users/Yushev/git/optiga-trust-qi/projects/xmc4700_relax_kit/common/Libraries/XMCLib/inc\xmc4_scu.h **** #define XMC_SCU_INTERRUPT_EVENT_HDCR_UPDATED       SCU_INTERRUPT_SRSTAT_HDCR_Msk /**< HIB HDCR regi
 152:C:/Users/Yushev/git/optiga-trust-qi/projects/xmc4700_relax_kit/common/Libraries/XMCLib/inc\xmc4_scu.h **** #define XMC_SCU_INTERRUPT_EVENT_OSCSICTRL_UPDATED  SCU_INTERRUPT_SRSTAT_OSCSICTRL_Msk /**< HIB OSCS
 153:C:/Users/Yushev/git/optiga-trust-qi/projects/xmc4700_relax_kit/common/Libraries/XMCLib/inc\xmc4_scu.h **** #define XMC_SCU_INTERRUPT_EVENT_OSCULCTRL_UPDATED  SCU_INTERRUPT_SRSTAT_OSCULCTRL_Msk /**< HIB OSCU
 154:C:/Users/Yushev/git/optiga-trust-qi/projects/xmc4700_relax_kit/common/Libraries/XMCLib/inc\xmc4_scu.h **** #define XMC_SCU_INTERRUPT_EVENT_RTCCTR_UPDATED     SCU_INTERRUPT_SRSTAT_RTC_CTR_Msk /**< HIB RTCCTR
 155:C:/Users/Yushev/git/optiga-trust-qi/projects/xmc4700_relax_kit/common/Libraries/XMCLib/inc\xmc4_scu.h **** #define XMC_SCU_INTERRUPT_EVENT_RTCATIM0_UPDATED   SCU_INTERRUPT_SRSTAT_RTC_ATIM0_Msk /**< HIB RTCA
 156:C:/Users/Yushev/git/optiga-trust-qi/projects/xmc4700_relax_kit/common/Libraries/XMCLib/inc\xmc4_scu.h **** #define XMC_SCU_INTERRUPT_EVENT_RTCATIM1_UPDATED   SCU_INTERRUPT_SRSTAT_RTC_ATIM1_Msk /**< HIB RTCA
 157:C:/Users/Yushev/git/optiga-trust-qi/projects/xmc4700_relax_kit/common/Libraries/XMCLib/inc\xmc4_scu.h **** #define XMC_SCU_INTERRUPT_EVENT_RTCTIM0_UPDATED    SCU_INTERRUPT_SRSTAT_RTC_TIM0_Msk /**< HIB TIM0 
 158:C:/Users/Yushev/git/optiga-trust-qi/projects/xmc4700_relax_kit/common/Libraries/XMCLib/inc\xmc4_scu.h **** #define XMC_SCU_INTERRUPT_EVENT_RTCTIM1_UPDATED    SCU_INTERRUPT_SRSTAT_RTC_TIM1_Msk /**< HIB TIM1 
 159:C:/Users/Yushev/git/optiga-trust-qi/projects/xmc4700_relax_kit/common/Libraries/XMCLib/inc\xmc4_scu.h **** #define XMC_SCU_INTERRUPT_EVENT_RMX_UPDATED        SCU_INTERRUPT_SRSTAT_RMX_Msk /**< HIB RMX regist
 160:C:/Users/Yushev/git/optiga-trust-qi/projects/xmc4700_relax_kit/common/Libraries/XMCLib/inc\xmc4_scu.h **** 
 161:C:/Users/Yushev/git/optiga-trust-qi/projects/xmc4700_relax_kit/common/Libraries/XMCLib/inc\xmc4_scu.h **** /**************************************************************************************************
 162:C:/Users/Yushev/git/optiga-trust-qi/projects/xmc4700_relax_kit/common/Libraries/XMCLib/inc\xmc4_scu.h ****  * ENUMS
 163:C:/Users/Yushev/git/optiga-trust-qi/projects/xmc4700_relax_kit/common/Libraries/XMCLib/inc\xmc4_scu.h ****  **************************************************************************************************
 164:C:/Users/Yushev/git/optiga-trust-qi/projects/xmc4700_relax_kit/common/Libraries/XMCLib/inc\xmc4_scu.h **** /**
 165:C:/Users/Yushev/git/optiga-trust-qi/projects/xmc4700_relax_kit/common/Libraries/XMCLib/inc\xmc4_scu.h ****  *  Defines Capture/Compare unit timer slice trigger, that enables synchronous start function avail
 166:C:/Users/Yushev/git/optiga-trust-qi/projects/xmc4700_relax_kit/common/Libraries/XMCLib/inc\xmc4_scu.h ****  *  CCUCON register. Use type \a XMC_SCU_CCU_TRIGGER_t for accessing these enum parameters.
 167:C:/Users/Yushev/git/optiga-trust-qi/projects/xmc4700_relax_kit/common/Libraries/XMCLib/inc\xmc4_scu.h ****  */
 168:C:/Users/Yushev/git/optiga-trust-qi/projects/xmc4700_relax_kit/common/Libraries/XMCLib/inc\xmc4_scu.h **** typedef enum XMC_SCU_CCU_TRIGGER
 169:C:/Users/Yushev/git/optiga-trust-qi/projects/xmc4700_relax_kit/common/Libraries/XMCLib/inc\xmc4_scu.h **** {
 170:C:/Users/Yushev/git/optiga-trust-qi/projects/xmc4700_relax_kit/common/Libraries/XMCLib/inc\xmc4_scu.h **** #if defined(CCU40)
 171:C:/Users/Yushev/git/optiga-trust-qi/projects/xmc4700_relax_kit/common/Libraries/XMCLib/inc\xmc4_scu.h ****   XMC_SCU_CCU_TRIGGER_CCU40 = SCU_GENERAL_CCUCON_GSC40_Msk, /**< Trigger mask used for Global Start
 172:C:/Users/Yushev/git/optiga-trust-qi/projects/xmc4700_relax_kit/common/Libraries/XMCLib/inc\xmc4_scu.h ****                                                                  CCU40 peripheral. */
 173:C:/Users/Yushev/git/optiga-trust-qi/projects/xmc4700_relax_kit/common/Libraries/XMCLib/inc\xmc4_scu.h **** #endif
 174:C:/Users/Yushev/git/optiga-trust-qi/projects/xmc4700_relax_kit/common/Libraries/XMCLib/inc\xmc4_scu.h **** #if defined(CCU41)
 175:C:/Users/Yushev/git/optiga-trust-qi/projects/xmc4700_relax_kit/common/Libraries/XMCLib/inc\xmc4_scu.h ****   XMC_SCU_CCU_TRIGGER_CCU41 = SCU_GENERAL_CCUCON_GSC41_Msk, /**< Trigger mask used for Global Start
 176:C:/Users/Yushev/git/optiga-trust-qi/projects/xmc4700_relax_kit/common/Libraries/XMCLib/inc\xmc4_scu.h ****                                                                  CCU41 peripheral. */
 177:C:/Users/Yushev/git/optiga-trust-qi/projects/xmc4700_relax_kit/common/Libraries/XMCLib/inc\xmc4_scu.h **** #endif
 178:C:/Users/Yushev/git/optiga-trust-qi/projects/xmc4700_relax_kit/common/Libraries/XMCLib/inc\xmc4_scu.h **** #if defined(CCU42)
 179:C:/Users/Yushev/git/optiga-trust-qi/projects/xmc4700_relax_kit/common/Libraries/XMCLib/inc\xmc4_scu.h ****   XMC_SCU_CCU_TRIGGER_CCU42 = SCU_GENERAL_CCUCON_GSC42_Msk, /**< Trigger mask used for Global Start
 180:C:/Users/Yushev/git/optiga-trust-qi/projects/xmc4700_relax_kit/common/Libraries/XMCLib/inc\xmc4_scu.h ****                                                                  CCU42 peripheral. */
 181:C:/Users/Yushev/git/optiga-trust-qi/projects/xmc4700_relax_kit/common/Libraries/XMCLib/inc\xmc4_scu.h **** #endif
 182:C:/Users/Yushev/git/optiga-trust-qi/projects/xmc4700_relax_kit/common/Libraries/XMCLib/inc\xmc4_scu.h **** #if defined(CCU43)
 183:C:/Users/Yushev/git/optiga-trust-qi/projects/xmc4700_relax_kit/common/Libraries/XMCLib/inc\xmc4_scu.h ****   XMC_SCU_CCU_TRIGGER_CCU43 = SCU_GENERAL_CCUCON_GSC43_Msk, /**< Trigger mask used for Global Start
 184:C:/Users/Yushev/git/optiga-trust-qi/projects/xmc4700_relax_kit/common/Libraries/XMCLib/inc\xmc4_scu.h ****                                                                  CCU43 peripheral. */
 185:C:/Users/Yushev/git/optiga-trust-qi/projects/xmc4700_relax_kit/common/Libraries/XMCLib/inc\xmc4_scu.h **** #endif
 186:C:/Users/Yushev/git/optiga-trust-qi/projects/xmc4700_relax_kit/common/Libraries/XMCLib/inc\xmc4_scu.h **** #if defined(CCU80)
 187:C:/Users/Yushev/git/optiga-trust-qi/projects/xmc4700_relax_kit/common/Libraries/XMCLib/inc\xmc4_scu.h ****   XMC_SCU_CCU_TRIGGER_CCU80 = SCU_GENERAL_CCUCON_GSC80_Msk, /**< Trigger mask used for Global Start
 188:C:/Users/Yushev/git/optiga-trust-qi/projects/xmc4700_relax_kit/common/Libraries/XMCLib/inc\xmc4_scu.h ****                                                                  CCU80 peripheral. */
 189:C:/Users/Yushev/git/optiga-trust-qi/projects/xmc4700_relax_kit/common/Libraries/XMCLib/inc\xmc4_scu.h **** #endif
 190:C:/Users/Yushev/git/optiga-trust-qi/projects/xmc4700_relax_kit/common/Libraries/XMCLib/inc\xmc4_scu.h **** #if defined(CCU81)
 191:C:/Users/Yushev/git/optiga-trust-qi/projects/xmc4700_relax_kit/common/Libraries/XMCLib/inc\xmc4_scu.h ****   XMC_SCU_CCU_TRIGGER_CCU81 = SCU_GENERAL_CCUCON_GSC81_Msk /**< Trigger mask used for Global Start 
 192:C:/Users/Yushev/git/optiga-trust-qi/projects/xmc4700_relax_kit/common/Libraries/XMCLib/inc\xmc4_scu.h ****                                                                  CCU81 peripheral. */
 193:C:/Users/Yushev/git/optiga-trust-qi/projects/xmc4700_relax_kit/common/Libraries/XMCLib/inc\xmc4_scu.h **** #endif
 194:C:/Users/Yushev/git/optiga-trust-qi/projects/xmc4700_relax_kit/common/Libraries/XMCLib/inc\xmc4_scu.h **** } XMC_SCU_CCU_TRIGGER_t;
 195:C:/Users/Yushev/git/optiga-trust-qi/projects/xmc4700_relax_kit/common/Libraries/XMCLib/inc\xmc4_scu.h **** 
 196:C:/Users/Yushev/git/optiga-trust-qi/projects/xmc4700_relax_kit/common/Libraries/XMCLib/inc\xmc4_scu.h **** /**
 197:C:/Users/Yushev/git/optiga-trust-qi/projects/xmc4700_relax_kit/common/Libraries/XMCLib/inc\xmc4_scu.h ****  *  Defines enumerations representing the status of trap cause. The cause of the trap gets automati
 198:C:/Users/Yushev/git/optiga-trust-qi/projects/xmc4700_relax_kit/common/Libraries/XMCLib/inc\xmc4_scu.h ****  *  the \a TRAPSTAT register and can be checked by user software to determine the state of the syst
 199:C:/Users/Yushev/git/optiga-trust-qi/projects/xmc4700_relax_kit/common/Libraries/XMCLib/inc\xmc4_scu.h ****  *  purpose. 
 200:C:/Users/Yushev/git/optiga-trust-qi/projects/xmc4700_relax_kit/common/Libraries/XMCLib/inc\xmc4_scu.h ****  *  Use type \a XMC_SCU_TRAP_t for accessing these enum parameters.
 201:C:/Users/Yushev/git/optiga-trust-qi/projects/xmc4700_relax_kit/common/Libraries/XMCLib/inc\xmc4_scu.h ****  */
 202:C:/Users/Yushev/git/optiga-trust-qi/projects/xmc4700_relax_kit/common/Libraries/XMCLib/inc\xmc4_scu.h **** typedef enum XMC_SCU_TRAP 
 203:C:/Users/Yushev/git/optiga-trust-qi/projects/xmc4700_relax_kit/common/Libraries/XMCLib/inc\xmc4_scu.h **** {
 204:C:/Users/Yushev/git/optiga-trust-qi/projects/xmc4700_relax_kit/common/Libraries/XMCLib/inc\xmc4_scu.h ****   XMC_SCU_TRAP_OSC_WDG      = SCU_TRAP_TRAPSTAT_SOSCWDGT_Msk, /**< OSC_HP Oscillator Watchdog trap.
 205:C:/Users/Yushev/git/optiga-trust-qi/projects/xmc4700_relax_kit/common/Libraries/XMCLib/inc\xmc4_scu.h ****   XMC_SCU_TRAP_VCO_LOCK     = SCU_TRAP_TRAPSTAT_SVCOLCKT_Msk, /**< PLL loss of lock trap. */
 206:C:/Users/Yushev/git/optiga-trust-qi/projects/xmc4700_relax_kit/common/Libraries/XMCLib/inc\xmc4_scu.h ****   XMC_SCU_TRAP_USB_VCO_LOCK = SCU_TRAP_TRAPSTAT_UVCOLCKT_Msk, /**< USB PLL loss of lock trap. */ 
 207:C:/Users/Yushev/git/optiga-trust-qi/projects/xmc4700_relax_kit/common/Libraries/XMCLib/inc\xmc4_scu.h ****   XMC_SCU_TRAP_PARITY_ERROR = SCU_TRAP_TRAPSTAT_PET_Msk,      /**< Memory Parity error trap. */  
 208:C:/Users/Yushev/git/optiga-trust-qi/projects/xmc4700_relax_kit/common/Libraries/XMCLib/inc\xmc4_scu.h ****   XMC_SCU_TRAP_BROWNOUT     = SCU_TRAP_TRAPSTAT_BRWNT_Msk,    /**< Brownout trap. */ 
 209:C:/Users/Yushev/git/optiga-trust-qi/projects/xmc4700_relax_kit/common/Libraries/XMCLib/inc\xmc4_scu.h ****   XMC_SCU_TRAP_ULP_WDG      = SCU_TRAP_TRAPSTAT_ULPWDGT_Msk,  /**< Unstable 32KHz clock trap. */ 
 210:C:/Users/Yushev/git/optiga-trust-qi/projects/xmc4700_relax_kit/common/Libraries/XMCLib/inc\xmc4_scu.h ****   XMC_SCU_TRAP_PER_BRIDGE0  = SCU_TRAP_TRAPSTAT_BWERR0T_Msk,  /**< Bad memory access of peripherals
 211:C:/Users/Yushev/git/optiga-trust-qi/projects/xmc4700_relax_kit/common/Libraries/XMCLib/inc\xmc4_scu.h ****   XMC_SCU_TRAP_PER_BRIDGE1  = SCU_TRAP_TRAPSTAT_BWERR1T_Msk,  /**< Bad memory access of peripherals
 212:C:/Users/Yushev/git/optiga-trust-qi/projects/xmc4700_relax_kit/common/Libraries/XMCLib/inc\xmc4_scu.h **** #if defined(SCU_TRAP_TRAPSTAT_TEMPHIT_Msk)
 213:C:/Users/Yushev/git/optiga-trust-qi/projects/xmc4700_relax_kit/common/Libraries/XMCLib/inc\xmc4_scu.h ****   XMC_SCU_TRAP_DIETEMP_HIGH = SCU_TRAP_TRAPSTAT_TEMPHIT_Msk,  /**< Die temperature higher than expe
 214:C:/Users/Yushev/git/optiga-trust-qi/projects/xmc4700_relax_kit/common/Libraries/XMCLib/inc\xmc4_scu.h **** #endif
 215:C:/Users/Yushev/git/optiga-trust-qi/projects/xmc4700_relax_kit/common/Libraries/XMCLib/inc\xmc4_scu.h **** #if defined(SCU_TRAP_TRAPSTAT_TEMPLOT_Msk)
 216:C:/Users/Yushev/git/optiga-trust-qi/projects/xmc4700_relax_kit/common/Libraries/XMCLib/inc\xmc4_scu.h ****   XMC_SCU_TRAP_DIETEMP_LOW  = SCU_TRAP_TRAPSTAT_TEMPLOT_Msk,  /**< Die temperature lower than expec
 217:C:/Users/Yushev/git/optiga-trust-qi/projects/xmc4700_relax_kit/common/Libraries/XMCLib/inc\xmc4_scu.h **** #endif
 218:C:/Users/Yushev/git/optiga-trust-qi/projects/xmc4700_relax_kit/common/Libraries/XMCLib/inc\xmc4_scu.h **** #if defined(ECAT0)
 219:C:/Users/Yushev/git/optiga-trust-qi/projects/xmc4700_relax_kit/common/Libraries/XMCLib/inc\xmc4_scu.h ****   XMC_SCU_TRAP_ECAT_RESET = SCU_TRAP_TRAPSTAT_ECAT0RST_Msk, /**< EtherCat Reset */ 
 220:C:/Users/Yushev/git/optiga-trust-qi/projects/xmc4700_relax_kit/common/Libraries/XMCLib/inc\xmc4_scu.h **** #endif
 221:C:/Users/Yushev/git/optiga-trust-qi/projects/xmc4700_relax_kit/common/Libraries/XMCLib/inc\xmc4_scu.h **** } XMC_SCU_TRAP_t;
 222:C:/Users/Yushev/git/optiga-trust-qi/projects/xmc4700_relax_kit/common/Libraries/XMCLib/inc\xmc4_scu.h **** 
 223:C:/Users/Yushev/git/optiga-trust-qi/projects/xmc4700_relax_kit/common/Libraries/XMCLib/inc\xmc4_scu.h **** /**
 224:C:/Users/Yushev/git/optiga-trust-qi/projects/xmc4700_relax_kit/common/Libraries/XMCLib/inc\xmc4_scu.h ****  *  Defines enumerations for different parity event generating modules that in turn generate a trap
 225:C:/Users/Yushev/git/optiga-trust-qi/projects/xmc4700_relax_kit/common/Libraries/XMCLib/inc\xmc4_scu.h ****  *  Parity can be enabled with \a PETE register in order to get the trap flag reflected in \a TRAPR
 226:C:/Users/Yushev/git/optiga-trust-qi/projects/xmc4700_relax_kit/common/Libraries/XMCLib/inc\xmc4_scu.h ****  *  configure parity error trap generation mechanism bits of \a PETE register.
 227:C:/Users/Yushev/git/optiga-trust-qi/projects/xmc4700_relax_kit/common/Libraries/XMCLib/inc\xmc4_scu.h ****  *  All the enum items are tabulated as per bits present in \a PETE register.
 228:C:/Users/Yushev/git/optiga-trust-qi/projects/xmc4700_relax_kit/common/Libraries/XMCLib/inc\xmc4_scu.h ****  *  Use type \a XMC_SCU_PARITY_t for accessing these enum parameters.
 229:C:/Users/Yushev/git/optiga-trust-qi/projects/xmc4700_relax_kit/common/Libraries/XMCLib/inc\xmc4_scu.h ****  */
 230:C:/Users/Yushev/git/optiga-trust-qi/projects/xmc4700_relax_kit/common/Libraries/XMCLib/inc\xmc4_scu.h **** typedef enum XMC_SCU_PARITY
 231:C:/Users/Yushev/git/optiga-trust-qi/projects/xmc4700_relax_kit/common/Libraries/XMCLib/inc\xmc4_scu.h **** {
 232:C:/Users/Yushev/git/optiga-trust-qi/projects/xmc4700_relax_kit/common/Libraries/XMCLib/inc\xmc4_scu.h ****   XMC_SCU_PARITY_PSRAM_MEM  = SCU_PARITY_PEEN_PEENPS_Msk,   /**< Program SRAM parity error trap. */
 233:C:/Users/Yushev/git/optiga-trust-qi/projects/xmc4700_relax_kit/common/Libraries/XMCLib/inc\xmc4_scu.h ****   XMC_SCU_PARITY_DSRAM1_MEM = SCU_PARITY_PEEN_PEENDS1_Msk,  /**< Data SRAM-1 parity error trap. */ 
 234:C:/Users/Yushev/git/optiga-trust-qi/projects/xmc4700_relax_kit/common/Libraries/XMCLib/inc\xmc4_scu.h **** #if defined(XMC_SCU_PARITY_DSRAM2_MEM)
 235:C:/Users/Yushev/git/optiga-trust-qi/projects/xmc4700_relax_kit/common/Libraries/XMCLib/inc\xmc4_scu.h ****   XMC_SCU_PARITY_DSRAM2_MEM = SCU_PARITY_PEEN_PEENDS2_Msk,  /**< Data SRAM-2 parity error trap. */ 
 236:C:/Users/Yushev/git/optiga-trust-qi/projects/xmc4700_relax_kit/common/Libraries/XMCLib/inc\xmc4_scu.h **** #endif
 237:C:/Users/Yushev/git/optiga-trust-qi/projects/xmc4700_relax_kit/common/Libraries/XMCLib/inc\xmc4_scu.h ****   XMC_SCU_PARITY_USIC0_MEM  = SCU_PARITY_PEEN_PEENU0_Msk,   /**< USIC0 memory parity error trap. */
 238:C:/Users/Yushev/git/optiga-trust-qi/projects/xmc4700_relax_kit/common/Libraries/XMCLib/inc\xmc4_scu.h **** #if defined(XMC_SCU_PARITY_USIC1_MEM)
 239:C:/Users/Yushev/git/optiga-trust-qi/projects/xmc4700_relax_kit/common/Libraries/XMCLib/inc\xmc4_scu.h ****   XMC_SCU_PARITY_USIC1_MEM  = SCU_PARITY_PEEN_PEENU1_Msk,   /**< USIC1 memory parity error trap. */
 240:C:/Users/Yushev/git/optiga-trust-qi/projects/xmc4700_relax_kit/common/Libraries/XMCLib/inc\xmc4_scu.h **** #endif
 241:C:/Users/Yushev/git/optiga-trust-qi/projects/xmc4700_relax_kit/common/Libraries/XMCLib/inc\xmc4_scu.h **** #if defined(XMC_SCU_PARITY_USIC2_MEM)
 242:C:/Users/Yushev/git/optiga-trust-qi/projects/xmc4700_relax_kit/common/Libraries/XMCLib/inc\xmc4_scu.h ****   XMC_SCU_PARITY_USIC2_MEM  = SCU_PARITY_PEEN_PEENU2_Msk,   /**< USIC2 memory parity error trap. */
 243:C:/Users/Yushev/git/optiga-trust-qi/projects/xmc4700_relax_kit/common/Libraries/XMCLib/inc\xmc4_scu.h **** #endif
 244:C:/Users/Yushev/git/optiga-trust-qi/projects/xmc4700_relax_kit/common/Libraries/XMCLib/inc\xmc4_scu.h ****   XMC_SCU_PARITY_MCAN_MEM   = SCU_PARITY_PEEN_PEENMC_Msk,   /**< CAN memory parity error trap. */
 245:C:/Users/Yushev/git/optiga-trust-qi/projects/xmc4700_relax_kit/common/Libraries/XMCLib/inc\xmc4_scu.h ****   XMC_SCU_PARITY_PMU_MEM    = SCU_PARITY_PEEN_PEENPPRF_Msk, /**< PMU Prefetch memory parity error t
 246:C:/Users/Yushev/git/optiga-trust-qi/projects/xmc4700_relax_kit/common/Libraries/XMCLib/inc\xmc4_scu.h ****   XMC_SCU_PARITY_USB_MEM    = SCU_PARITY_PEEN_PEENUSB_Msk,  /**< USB memory parity error trap. */ 
 247:C:/Users/Yushev/git/optiga-trust-qi/projects/xmc4700_relax_kit/common/Libraries/XMCLib/inc\xmc4_scu.h **** #if defined(SCU_PARITY_PEEN_PEENETH0TX_Msk)
 248:C:/Users/Yushev/git/optiga-trust-qi/projects/xmc4700_relax_kit/common/Libraries/XMCLib/inc\xmc4_scu.h ****   XMC_SCU_PARITY_ETH_TXMEM  = SCU_PARITY_PEEN_PEENETH0TX_Msk, /**< Ethernet transmit memory parity 
 249:C:/Users/Yushev/git/optiga-trust-qi/projects/xmc4700_relax_kit/common/Libraries/XMCLib/inc\xmc4_scu.h **** #endif
 250:C:/Users/Yushev/git/optiga-trust-qi/projects/xmc4700_relax_kit/common/Libraries/XMCLib/inc\xmc4_scu.h **** #if defined(SCU_PARITY_PEEN_PEENETH0RX_Msk)
 251:C:/Users/Yushev/git/optiga-trust-qi/projects/xmc4700_relax_kit/common/Libraries/XMCLib/inc\xmc4_scu.h ****   XMC_SCU_PARITY_ETH_RXMEM  = SCU_PARITY_PEEN_PEENETH0RX_Msk, /**< Ethernet receive memory parity e
 252:C:/Users/Yushev/git/optiga-trust-qi/projects/xmc4700_relax_kit/common/Libraries/XMCLib/inc\xmc4_scu.h **** #endif
 253:C:/Users/Yushev/git/optiga-trust-qi/projects/xmc4700_relax_kit/common/Libraries/XMCLib/inc\xmc4_scu.h **** #if defined(SCU_PARITY_PEEN_PEENSD0_Msk)
 254:C:/Users/Yushev/git/optiga-trust-qi/projects/xmc4700_relax_kit/common/Libraries/XMCLib/inc\xmc4_scu.h ****   XMC_SCU_PARITY_SDMMC_MEM0 = SCU_PARITY_PEEN_PEENSD0_Msk, /**< SDMMC Memory-0 parity error trap. *
 255:C:/Users/Yushev/git/optiga-trust-qi/projects/xmc4700_relax_kit/common/Libraries/XMCLib/inc\xmc4_scu.h **** #endif
 256:C:/Users/Yushev/git/optiga-trust-qi/projects/xmc4700_relax_kit/common/Libraries/XMCLib/inc\xmc4_scu.h **** #if defined(SCU_PARITY_PEEN_PEENSD1_Msk)
 257:C:/Users/Yushev/git/optiga-trust-qi/projects/xmc4700_relax_kit/common/Libraries/XMCLib/inc\xmc4_scu.h ****   XMC_SCU_PARITY_SDMMC_MEM1 = SCU_PARITY_PEEN_PEENSD1_Msk, /**< SDMMC Memory-1 parity error trap. *
 258:C:/Users/Yushev/git/optiga-trust-qi/projects/xmc4700_relax_kit/common/Libraries/XMCLib/inc\xmc4_scu.h **** #endif
 259:C:/Users/Yushev/git/optiga-trust-qi/projects/xmc4700_relax_kit/common/Libraries/XMCLib/inc\xmc4_scu.h **** } XMC_SCU_PARITY_t;
 260:C:/Users/Yushev/git/optiga-trust-qi/projects/xmc4700_relax_kit/common/Libraries/XMCLib/inc\xmc4_scu.h **** 
 261:C:/Users/Yushev/git/optiga-trust-qi/projects/xmc4700_relax_kit/common/Libraries/XMCLib/inc\xmc4_scu.h **** /**
 262:C:/Users/Yushev/git/optiga-trust-qi/projects/xmc4700_relax_kit/common/Libraries/XMCLib/inc\xmc4_scu.h ****  *  Defines the different causes for last reset. The cause of the last reset gets automatically sto
 263:C:/Users/Yushev/git/optiga-trust-qi/projects/xmc4700_relax_kit/common/Libraries/XMCLib/inc\xmc4_scu.h ****  *  the \a SCU_RSTSTAT register and can be checked by user software to determine the state of the s
 264:C:/Users/Yushev/git/optiga-trust-qi/projects/xmc4700_relax_kit/common/Libraries/XMCLib/inc\xmc4_scu.h ****  *  purpose. All the enum items are tabulated as per bits present in \a SCU_RSTSTAT register.
 265:C:/Users/Yushev/git/optiga-trust-qi/projects/xmc4700_relax_kit/common/Libraries/XMCLib/inc\xmc4_scu.h ****  *  Use type \a XMC_SCU_RESET_REASON_t for accessing these enum parameters.
 266:C:/Users/Yushev/git/optiga-trust-qi/projects/xmc4700_relax_kit/common/Libraries/XMCLib/inc\xmc4_scu.h ****  */
 267:C:/Users/Yushev/git/optiga-trust-qi/projects/xmc4700_relax_kit/common/Libraries/XMCLib/inc\xmc4_scu.h **** typedef enum XMC_SCU_RESET_REASON
 268:C:/Users/Yushev/git/optiga-trust-qi/projects/xmc4700_relax_kit/common/Libraries/XMCLib/inc\xmc4_scu.h **** {
 269:C:/Users/Yushev/git/optiga-trust-qi/projects/xmc4700_relax_kit/common/Libraries/XMCLib/inc\xmc4_scu.h ****   XMC_SCU_RESET_REASON_PORST        = (1UL << SCU_RESET_RSTSTAT_RSTSTAT_Pos), /**< Reset due to Pow
 270:C:/Users/Yushev/git/optiga-trust-qi/projects/xmc4700_relax_kit/common/Libraries/XMCLib/inc\xmc4_scu.h ****   XMC_SCU_RESET_REASON_SWD          = (2UL << SCU_RESET_RSTSTAT_RSTSTAT_Pos), /**< Reset due to Sup
 271:C:/Users/Yushev/git/optiga-trust-qi/projects/xmc4700_relax_kit/common/Libraries/XMCLib/inc\xmc4_scu.h ****   XMC_SCU_RESET_REASON_PV           = (4UL << SCU_RESET_RSTSTAT_RSTSTAT_Pos), /**< Reset due to Pow
 272:C:/Users/Yushev/git/optiga-trust-qi/projects/xmc4700_relax_kit/common/Libraries/XMCLib/inc\xmc4_scu.h ****   XMC_SCU_RESET_REASON_SW           = (8UL << SCU_RESET_RSTSTAT_RSTSTAT_Pos), /**< Reset due to Sof
 273:C:/Users/Yushev/git/optiga-trust-qi/projects/xmc4700_relax_kit/common/Libraries/XMCLib/inc\xmc4_scu.h ****   XMC_SCU_RESET_REASON_LOCKUP       = (16UL << SCU_RESET_RSTSTAT_RSTSTAT_Pos), /**< Reset due to re
 274:C:/Users/Yushev/git/optiga-trust-qi/projects/xmc4700_relax_kit/common/Libraries/XMCLib/inc\xmc4_scu.h ****   XMC_SCU_RESET_REASON_WATCHDOG     = (32UL << SCU_RESET_RSTSTAT_RSTSTAT_Pos), /**< Reset due to Wa
 275:C:/Users/Yushev/git/optiga-trust-qi/projects/xmc4700_relax_kit/common/Libraries/XMCLib/inc\xmc4_scu.h ****   XMC_SCU_RESET_REASON_PARITY_ERROR = (128UL << SCU_RESET_RSTSTAT_RSTSTAT_Pos), /**< Reset due to r
 276:C:/Users/Yushev/git/optiga-trust-qi/projects/xmc4700_relax_kit/common/Libraries/XMCLib/inc\xmc4_scu.h **** } XMC_SCU_RESET_REASON_t;
 277:C:/Users/Yushev/git/optiga-trust-qi/projects/xmc4700_relax_kit/common/Libraries/XMCLib/inc\xmc4_scu.h **** 
 278:C:/Users/Yushev/git/optiga-trust-qi/projects/xmc4700_relax_kit/common/Libraries/XMCLib/inc\xmc4_scu.h **** /**
 279:C:/Users/Yushev/git/optiga-trust-qi/projects/xmc4700_relax_kit/common/Libraries/XMCLib/inc\xmc4_scu.h ****  *  Defines enumerations for events which can lead to interrupt. These enumeration values represent
 280:C:/Users/Yushev/git/optiga-trust-qi/projects/xmc4700_relax_kit/common/Libraries/XMCLib/inc\xmc4_scu.h ****  * status of one of the bits in \a SRSTAT register. 
 281:C:/Users/Yushev/git/optiga-trust-qi/projects/xmc4700_relax_kit/common/Libraries/XMCLib/inc\xmc4_scu.h ****  *  Use type \a XMC_SCU_INTERRUPT_EVENT_t for accessing these enum parameters.
 282:C:/Users/Yushev/git/optiga-trust-qi/projects/xmc4700_relax_kit/common/Libraries/XMCLib/inc\xmc4_scu.h ****  */
 283:C:/Users/Yushev/git/optiga-trust-qi/projects/xmc4700_relax_kit/common/Libraries/XMCLib/inc\xmc4_scu.h **** typedef uint32_t XMC_SCU_INTERRUPT_EVENT_t;
 284:C:/Users/Yushev/git/optiga-trust-qi/projects/xmc4700_relax_kit/common/Libraries/XMCLib/inc\xmc4_scu.h **** 
 285:C:/Users/Yushev/git/optiga-trust-qi/projects/xmc4700_relax_kit/common/Libraries/XMCLib/inc\xmc4_scu.h ****  
 286:C:/Users/Yushev/git/optiga-trust-qi/projects/xmc4700_relax_kit/common/Libraries/XMCLib/inc\xmc4_scu.h **** /**
 287:C:/Users/Yushev/git/optiga-trust-qi/projects/xmc4700_relax_kit/common/Libraries/XMCLib/inc\xmc4_scu.h ****  *  Defines enumeration for the events that can generate non maskable interrupt(NMI).
 288:C:/Users/Yushev/git/optiga-trust-qi/projects/xmc4700_relax_kit/common/Libraries/XMCLib/inc\xmc4_scu.h ****  *  The NMI generation can be enabled with \a NMIREQEN register. The event will be reflected in \a 
 289:C:/Users/Yushev/git/optiga-trust-qi/projects/xmc4700_relax_kit/common/Libraries/XMCLib/inc\xmc4_scu.h ****  *  mirrored in the TRAPSTAT register. These enums can be used to configure NMI request generation 
 290:C:/Users/Yushev/git/optiga-trust-qi/projects/xmc4700_relax_kit/common/Libraries/XMCLib/inc\xmc4_scu.h ****  *  NMIREQEN register.  Once configured, these events can generate non maskable interrupt.
 291:C:/Users/Yushev/git/optiga-trust-qi/projects/xmc4700_relax_kit/common/Libraries/XMCLib/inc\xmc4_scu.h ****  *  All the enum items are tabulated as per bits present in \a NMIREQEN register.
 292:C:/Users/Yushev/git/optiga-trust-qi/projects/xmc4700_relax_kit/common/Libraries/XMCLib/inc\xmc4_scu.h ****  *  Use type \a XMC_SCU_NMIREQ_t for accessing these enum parameters.
 293:C:/Users/Yushev/git/optiga-trust-qi/projects/xmc4700_relax_kit/common/Libraries/XMCLib/inc\xmc4_scu.h ****  */
 294:C:/Users/Yushev/git/optiga-trust-qi/projects/xmc4700_relax_kit/common/Libraries/XMCLib/inc\xmc4_scu.h **** typedef enum XMC_SCU_NMIREQ
 295:C:/Users/Yushev/git/optiga-trust-qi/projects/xmc4700_relax_kit/common/Libraries/XMCLib/inc\xmc4_scu.h **** {
 296:C:/Users/Yushev/git/optiga-trust-qi/projects/xmc4700_relax_kit/common/Libraries/XMCLib/inc\xmc4_scu.h ****   XMC_SCU_NMIREQ_WDT_WARN = SCU_INTERRUPT_NMIREQEN_PRWARN_Msk, /**< Watchdog timer Pre-Warning even
 297:C:/Users/Yushev/git/optiga-trust-qi/projects/xmc4700_relax_kit/common/Libraries/XMCLib/inc\xmc4_scu.h ****   XMC_SCU_NMIREQ_RTC_PI   = SCU_INTERRUPT_NMIREQEN_PI_Msk,     /**< RTC Periodic event */ 
 298:C:/Users/Yushev/git/optiga-trust-qi/projects/xmc4700_relax_kit/common/Libraries/XMCLib/inc\xmc4_scu.h ****   XMC_SCU_NMIREQ_RTC_AI   = SCU_INTERRUPT_NMIREQEN_AI_Msk,     /**< RTC Alarm event */ 
 299:C:/Users/Yushev/git/optiga-trust-qi/projects/xmc4700_relax_kit/common/Libraries/XMCLib/inc\xmc4_scu.h ****   XMC_SCU_NMIREQ_ERU0_0   = SCU_INTERRUPT_NMIREQEN_ERU00_Msk,  /**< Channel 0 event of ERU0 */  
 300:C:/Users/Yushev/git/optiga-trust-qi/projects/xmc4700_relax_kit/common/Libraries/XMCLib/inc\xmc4_scu.h ****   XMC_SCU_NMIREQ_ERU0_1   = SCU_INTERRUPT_NMIREQEN_ERU01_Msk,  /**< Channel 1 event of ERU0 */ 
 301:C:/Users/Yushev/git/optiga-trust-qi/projects/xmc4700_relax_kit/common/Libraries/XMCLib/inc\xmc4_scu.h ****   XMC_SCU_NMIREQ_ERU0_2   = SCU_INTERRUPT_NMIREQEN_ERU02_Msk,  /**< Channel 2 event of ERU0 */ 
 302:C:/Users/Yushev/git/optiga-trust-qi/projects/xmc4700_relax_kit/common/Libraries/XMCLib/inc\xmc4_scu.h ****   XMC_SCU_NMIREQ_ERU0_3   = SCU_INTERRUPT_NMIREQEN_ERU03_Msk   /**< Channel 3 event of ERU0 */ 
 303:C:/Users/Yushev/git/optiga-trust-qi/projects/xmc4700_relax_kit/common/Libraries/XMCLib/inc\xmc4_scu.h **** } XMC_SCU_NMIREQ_t;
 304:C:/Users/Yushev/git/optiga-trust-qi/projects/xmc4700_relax_kit/common/Libraries/XMCLib/inc\xmc4_scu.h ****   
 305:C:/Users/Yushev/git/optiga-trust-qi/projects/xmc4700_relax_kit/common/Libraries/XMCLib/inc\xmc4_scu.h **** 
 306:C:/Users/Yushev/git/optiga-trust-qi/projects/xmc4700_relax_kit/common/Libraries/XMCLib/inc\xmc4_scu.h **** /**
 307:C:/Users/Yushev/git/optiga-trust-qi/projects/xmc4700_relax_kit/common/Libraries/XMCLib/inc\xmc4_scu.h ****  *  Defines enumeration representing different peripheral reset bits in the \a PRSTAT registers.
 308:C:/Users/Yushev/git/optiga-trust-qi/projects/xmc4700_relax_kit/common/Libraries/XMCLib/inc\xmc4_scu.h ****  *  All the enum items are tabulated as per bits present in \a PRSTAT0,  \a PRSTAT1,  \a PRSTAT2,
 309:C:/Users/Yushev/git/optiga-trust-qi/projects/xmc4700_relax_kit/common/Libraries/XMCLib/inc\xmc4_scu.h ****  *  \a PRSTAT3 registers. Use type \a XMC_SCU_PERIPHERAL_RESET_t for accessing these enum parameter
 310:C:/Users/Yushev/git/optiga-trust-qi/projects/xmc4700_relax_kit/common/Libraries/XMCLib/inc\xmc4_scu.h ****  *  Note: Release of reset should be prevented when the peripheral clock is gated in cases where ke
 311:C:/Users/Yushev/git/optiga-trust-qi/projects/xmc4700_relax_kit/common/Libraries/XMCLib/inc\xmc4_scu.h ****  *  clock and bus interface clocks are shared, in order to avoid system hang-up.
 312:C:/Users/Yushev/git/optiga-trust-qi/projects/xmc4700_relax_kit/common/Libraries/XMCLib/inc\xmc4_scu.h ****  */
 313:C:/Users/Yushev/git/optiga-trust-qi/projects/xmc4700_relax_kit/common/Libraries/XMCLib/inc\xmc4_scu.h **** typedef enum XMC_SCU_PERIPHERAL_RESET
 314:C:/Users/Yushev/git/optiga-trust-qi/projects/xmc4700_relax_kit/common/Libraries/XMCLib/inc\xmc4_scu.h **** {
 315:C:/Users/Yushev/git/optiga-trust-qi/projects/xmc4700_relax_kit/common/Libraries/XMCLib/inc\xmc4_scu.h ****   XMC_SCU_PERIPHERAL_RESET_VADC   = SCU_RESET_PRSTAT0_VADCRS_Msk,   /**< VADC reset. */ 
 316:C:/Users/Yushev/git/optiga-trust-qi/projects/xmc4700_relax_kit/common/Libraries/XMCLib/inc\xmc4_scu.h **** #if defined(DSD)
 317:C:/Users/Yushev/git/optiga-trust-qi/projects/xmc4700_relax_kit/common/Libraries/XMCLib/inc\xmc4_scu.h ****   XMC_SCU_PERIPHERAL_RESET_DSD    = SCU_RESET_PRSTAT0_DSDRS_Msk,    /**< DSD reset. */
 318:C:/Users/Yushev/git/optiga-trust-qi/projects/xmc4700_relax_kit/common/Libraries/XMCLib/inc\xmc4_scu.h **** #endif
 319:C:/Users/Yushev/git/optiga-trust-qi/projects/xmc4700_relax_kit/common/Libraries/XMCLib/inc\xmc4_scu.h ****   XMC_SCU_PERIPHERAL_RESET_CCU40  = SCU_RESET_PRSTAT0_CCU40RS_Msk,  /**< CCU40 reset. */
 320:C:/Users/Yushev/git/optiga-trust-qi/projects/xmc4700_relax_kit/common/Libraries/XMCLib/inc\xmc4_scu.h **** #if defined(CCU41)
 321:C:/Users/Yushev/git/optiga-trust-qi/projects/xmc4700_relax_kit/common/Libraries/XMCLib/inc\xmc4_scu.h ****   XMC_SCU_PERIPHERAL_RESET_CCU41  = SCU_RESET_PRSTAT0_CCU41RS_Msk,  /**< CCU41 reset. */
