   1              	 .syntax unified
   2              	 .cpu cortex-m4
   3              	 .eabi_attribute 27,3
   4              	 .fpu fpv4-sp-d16
   5              	 .eabi_attribute 20,1
   6              	 .eabi_attribute 21,1
   7              	 .eabi_attribute 23,3
   8              	 .eabi_attribute 24,1
   9              	 .eabi_attribute 25,1
  10              	 .eabi_attribute 26,1
  11              	 .eabi_attribute 30,4
  12              	 .eabi_attribute 34,1
  13              	 .eabi_attribute 18,4
  14              	 .thumb
  15              	 .file "xmc_fce.c"
  16              	 .text
  17              	.Ltext0:
  18              	 .cfi_sections .debug_frame
  19              	 .section .text.XMC_FCE_Init,"ax",%progbits
  20              	 .align 1
  21              	 .global XMC_FCE_Init
  22              	 .thumb
  23              	 .thumb_func
  25              	XMC_FCE_Init:
  26              	.LFB185:
  27              	 .file 1 "C:/Users/Yushev/git/optiga-trust-qi/projects/xmc4700_relax_kit/common/Libraries/XMCLib/src/xmc_fce.c"
   1:C:/Users/Yushev/git/optiga-trust-qi/projects/xmc4700_relax_kit/common/Libraries/XMCLib/src\xmc_fce.c **** /**
   2:C:/Users/Yushev/git/optiga-trust-qi/projects/xmc4700_relax_kit/common/Libraries/XMCLib/src\xmc_fce.c ****  * @file xmc_fce.c
   3:C:/Users/Yushev/git/optiga-trust-qi/projects/xmc4700_relax_kit/common/Libraries/XMCLib/src\xmc_fce.c ****  * @date 2017-12-14
   4:C:/Users/Yushev/git/optiga-trust-qi/projects/xmc4700_relax_kit/common/Libraries/XMCLib/src\xmc_fce.c ****  *
   5:C:/Users/Yushev/git/optiga-trust-qi/projects/xmc4700_relax_kit/common/Libraries/XMCLib/src\xmc_fce.c ****  * @cond
   6:C:/Users/Yushev/git/optiga-trust-qi/projects/xmc4700_relax_kit/common/Libraries/XMCLib/src\xmc_fce.c ****  **************************************************************************************************
   7:C:/Users/Yushev/git/optiga-trust-qi/projects/xmc4700_relax_kit/common/Libraries/XMCLib/src\xmc_fce.c ****  * XMClib v2.1.20 - XMC Peripheral Driver Library 
   8:C:/Users/Yushev/git/optiga-trust-qi/projects/xmc4700_relax_kit/common/Libraries/XMCLib/src\xmc_fce.c ****  *
   9:C:/Users/Yushev/git/optiga-trust-qi/projects/xmc4700_relax_kit/common/Libraries/XMCLib/src\xmc_fce.c ****  * Copyright (c) 2015-2018, Infineon Technologies AG
  10:C:/Users/Yushev/git/optiga-trust-qi/projects/xmc4700_relax_kit/common/Libraries/XMCLib/src\xmc_fce.c ****  * All rights reserved.                        
  11:C:/Users/Yushev/git/optiga-trust-qi/projects/xmc4700_relax_kit/common/Libraries/XMCLib/src\xmc_fce.c ****  *                                             
  12:C:/Users/Yushev/git/optiga-trust-qi/projects/xmc4700_relax_kit/common/Libraries/XMCLib/src\xmc_fce.c ****  * Redistribution and use in source and binary forms, with or without modification,are permitted pr
  13:C:/Users/Yushev/git/optiga-trust-qi/projects/xmc4700_relax_kit/common/Libraries/XMCLib/src\xmc_fce.c ****  * following conditions are met:   
  14:C:/Users/Yushev/git/optiga-trust-qi/projects/xmc4700_relax_kit/common/Libraries/XMCLib/src\xmc_fce.c ****  *                                                                              
  15:C:/Users/Yushev/git/optiga-trust-qi/projects/xmc4700_relax_kit/common/Libraries/XMCLib/src\xmc_fce.c ****  * Redistributions of source code must retain the above copyright notice, this list of conditions a
  16:C:/Users/Yushev/git/optiga-trust-qi/projects/xmc4700_relax_kit/common/Libraries/XMCLib/src\xmc_fce.c ****  * disclaimer.                        
  17:C:/Users/Yushev/git/optiga-trust-qi/projects/xmc4700_relax_kit/common/Libraries/XMCLib/src\xmc_fce.c ****  * 
  18:C:/Users/Yushev/git/optiga-trust-qi/projects/xmc4700_relax_kit/common/Libraries/XMCLib/src\xmc_fce.c ****  * Redistributions in binary form must reproduce the above copyright notice, this list of condition
  19:C:/Users/Yushev/git/optiga-trust-qi/projects/xmc4700_relax_kit/common/Libraries/XMCLib/src\xmc_fce.c ****  * disclaimer in the documentation and/or other materials provided with the distribution.          
  20:C:/Users/Yushev/git/optiga-trust-qi/projects/xmc4700_relax_kit/common/Libraries/XMCLib/src\xmc_fce.c ****  * 
  21:C:/Users/Yushev/git/optiga-trust-qi/projects/xmc4700_relax_kit/common/Libraries/XMCLib/src\xmc_fce.c ****  * Neither the name of the copyright holders nor the names of its contributors may be used to endor
  22:C:/Users/Yushev/git/optiga-trust-qi/projects/xmc4700_relax_kit/common/Libraries/XMCLib/src\xmc_fce.c ****  * products derived from this software without specific prior written permission.                  
  23:C:/Users/Yushev/git/optiga-trust-qi/projects/xmc4700_relax_kit/common/Libraries/XMCLib/src\xmc_fce.c ****  *                                                                              
  24:C:/Users/Yushev/git/optiga-trust-qi/projects/xmc4700_relax_kit/common/Libraries/XMCLib/src\xmc_fce.c ****  * THIS SOFTWARE IS PROVIDED BY THE COPYRIGHT HOLDERS AND CONTRIBUTORS "AS IS" AND ANY EXPRESS OR I
  25:C:/Users/Yushev/git/optiga-trust-qi/projects/xmc4700_relax_kit/common/Libraries/XMCLib/src\xmc_fce.c ****  * INCLUDING, BUT NOT LIMITED TO, THE IMPLIED WARRANTIES OF MERCHANTABILITY AND FITNESS FOR A PARTI
  26:C:/Users/Yushev/git/optiga-trust-qi/projects/xmc4700_relax_kit/common/Libraries/XMCLib/src\xmc_fce.c ****  * DISCLAIMED. IN NO EVENT SHALL THE COPYRIGHT HOLDER OR CONTRIBUTORS BE LIABLE  FOR ANY DIRECT, IN
  27:C:/Users/Yushev/git/optiga-trust-qi/projects/xmc4700_relax_kit/common/Libraries/XMCLib/src\xmc_fce.c ****  * SPECIAL, EXEMPLARY, OR CONSEQUENTIAL DAMAGES (INCLUDING, BUT NOT LIMITED TO, PROCUREMENT OF SUBS
  28:C:/Users/Yushev/git/optiga-trust-qi/projects/xmc4700_relax_kit/common/Libraries/XMCLib/src\xmc_fce.c ****  * SERVICES; LOSS OF USE, DATA, OR PROFITS; OR BUSINESS INTERRUPTION) HOWEVER CAUSED AND ON ANY THE
  29:C:/Users/Yushev/git/optiga-trust-qi/projects/xmc4700_relax_kit/common/Libraries/XMCLib/src\xmc_fce.c ****  * WHETHER IN CONTRACT, STRICT LIABILITY,OR TORT (INCLUDING NEGLIGENCE OR OTHERWISE) ARISING IN ANY
  30:C:/Users/Yushev/git/optiga-trust-qi/projects/xmc4700_relax_kit/common/Libraries/XMCLib/src\xmc_fce.c ****  * OF THIS SOFTWARE, EVEN IF ADVISED OF THE POSSIBILITY OF SUCH DAMAGE.                            
  31:C:/Users/Yushev/git/optiga-trust-qi/projects/xmc4700_relax_kit/common/Libraries/XMCLib/src\xmc_fce.c ****  *                                                                              
  32:C:/Users/Yushev/git/optiga-trust-qi/projects/xmc4700_relax_kit/common/Libraries/XMCLib/src\xmc_fce.c ****  * To improve the quality of the software, users are encouraged to share modifications, enhancement
  33:C:/Users/Yushev/git/optiga-trust-qi/projects/xmc4700_relax_kit/common/Libraries/XMCLib/src\xmc_fce.c ****  * Infineon Technologies AG dave@infineon.com).                                                    
  34:C:/Users/Yushev/git/optiga-trust-qi/projects/xmc4700_relax_kit/common/Libraries/XMCLib/src\xmc_fce.c ****  **************************************************************************************************
  35:C:/Users/Yushev/git/optiga-trust-qi/projects/xmc4700_relax_kit/common/Libraries/XMCLib/src\xmc_fce.c ****  *
  36:C:/Users/Yushev/git/optiga-trust-qi/projects/xmc4700_relax_kit/common/Libraries/XMCLib/src\xmc_fce.c ****  * Change History
  37:C:/Users/Yushev/git/optiga-trust-qi/projects/xmc4700_relax_kit/common/Libraries/XMCLib/src\xmc_fce.c ****  * --------------
  38:C:/Users/Yushev/git/optiga-trust-qi/projects/xmc4700_relax_kit/common/Libraries/XMCLib/src\xmc_fce.c ****  *
  39:C:/Users/Yushev/git/optiga-trust-qi/projects/xmc4700_relax_kit/common/Libraries/XMCLib/src\xmc_fce.c ****  * 2015-02-20:
  40:C:/Users/Yushev/git/optiga-trust-qi/projects/xmc4700_relax_kit/common/Libraries/XMCLib/src\xmc_fce.c ****  *     - Initial <br>
  41:C:/Users/Yushev/git/optiga-trust-qi/projects/xmc4700_relax_kit/common/Libraries/XMCLib/src\xmc_fce.c ****  *      
  42:C:/Users/Yushev/git/optiga-trust-qi/projects/xmc4700_relax_kit/common/Libraries/XMCLib/src\xmc_fce.c ****  * 2015-06-20:
  43:C:/Users/Yushev/git/optiga-trust-qi/projects/xmc4700_relax_kit/common/Libraries/XMCLib/src\xmc_fce.c ****  *     - Removed GetDriverVersion API
  44:C:/Users/Yushev/git/optiga-trust-qi/projects/xmc4700_relax_kit/common/Libraries/XMCLib/src\xmc_fce.c ****  *
  45:C:/Users/Yushev/git/optiga-trust-qi/projects/xmc4700_relax_kit/common/Libraries/XMCLib/src\xmc_fce.c ****  * 2017-12-14:
  46:C:/Users/Yushev/git/optiga-trust-qi/projects/xmc4700_relax_kit/common/Libraries/XMCLib/src\xmc_fce.c ****  *     - XMC_FCE_CalculateCRC8()
  47:C:/Users/Yushev/git/optiga-trust-qi/projects/xmc4700_relax_kit/common/Libraries/XMCLib/src\xmc_fce.c ****  *       Ensure 32bit access to IR register
  48:C:/Users/Yushev/git/optiga-trust-qi/projects/xmc4700_relax_kit/common/Libraries/XMCLib/src\xmc_fce.c ****  *     - XMC_FCE_CalculateCRC16()
  49:C:/Users/Yushev/git/optiga-trust-qi/projects/xmc4700_relax_kit/common/Libraries/XMCLib/src\xmc_fce.c ****  *       Ensure 32bit access to IR register
  50:C:/Users/Yushev/git/optiga-trust-qi/projects/xmc4700_relax_kit/common/Libraries/XMCLib/src\xmc_fce.c ****  *       Remove restriction on data source allignment
  51:C:/Users/Yushev/git/optiga-trust-qi/projects/xmc4700_relax_kit/common/Libraries/XMCLib/src\xmc_fce.c ****  *     - XMC_FCE_CalculateCRC32()
  52:C:/Users/Yushev/git/optiga-trust-qi/projects/xmc4700_relax_kit/common/Libraries/XMCLib/src\xmc_fce.c ****  *       Ensure 32bit access to IR register
  53:C:/Users/Yushev/git/optiga-trust-qi/projects/xmc4700_relax_kit/common/Libraries/XMCLib/src\xmc_fce.c ****  *       Remove restriction on data source allignment
  54:C:/Users/Yushev/git/optiga-trust-qi/projects/xmc4700_relax_kit/common/Libraries/XMCLib/src\xmc_fce.c ****  *
  55:C:/Users/Yushev/git/optiga-trust-qi/projects/xmc4700_relax_kit/common/Libraries/XMCLib/src\xmc_fce.c ****  * @endcond 
  56:C:/Users/Yushev/git/optiga-trust-qi/projects/xmc4700_relax_kit/common/Libraries/XMCLib/src\xmc_fce.c ****  *
  57:C:/Users/Yushev/git/optiga-trust-qi/projects/xmc4700_relax_kit/common/Libraries/XMCLib/src\xmc_fce.c ****  */
  58:C:/Users/Yushev/git/optiga-trust-qi/projects/xmc4700_relax_kit/common/Libraries/XMCLib/src\xmc_fce.c **** 
  59:C:/Users/Yushev/git/optiga-trust-qi/projects/xmc4700_relax_kit/common/Libraries/XMCLib/src\xmc_fce.c **** /**************************************************************************************************
  60:C:/Users/Yushev/git/optiga-trust-qi/projects/xmc4700_relax_kit/common/Libraries/XMCLib/src\xmc_fce.c ****  * HEADER FILES
  61:C:/Users/Yushev/git/optiga-trust-qi/projects/xmc4700_relax_kit/common/Libraries/XMCLib/src\xmc_fce.c ****  **************************************************************************************************
  62:C:/Users/Yushev/git/optiga-trust-qi/projects/xmc4700_relax_kit/common/Libraries/XMCLib/src\xmc_fce.c **** #include <xmc_fce.h>
  63:C:/Users/Yushev/git/optiga-trust-qi/projects/xmc4700_relax_kit/common/Libraries/XMCLib/src\xmc_fce.c **** 
  64:C:/Users/Yushev/git/optiga-trust-qi/projects/xmc4700_relax_kit/common/Libraries/XMCLib/src\xmc_fce.c **** #if defined (FCE)
  65:C:/Users/Yushev/git/optiga-trust-qi/projects/xmc4700_relax_kit/common/Libraries/XMCLib/src\xmc_fce.c **** #include <xmc_scu.h>
  66:C:/Users/Yushev/git/optiga-trust-qi/projects/xmc4700_relax_kit/common/Libraries/XMCLib/src\xmc_fce.c **** 
  67:C:/Users/Yushev/git/optiga-trust-qi/projects/xmc4700_relax_kit/common/Libraries/XMCLib/src\xmc_fce.c **** /*******************************************************************************
  68:C:/Users/Yushev/git/optiga-trust-qi/projects/xmc4700_relax_kit/common/Libraries/XMCLib/src\xmc_fce.c ****  * API IMPLEMENTATION
  69:C:/Users/Yushev/git/optiga-trust-qi/projects/xmc4700_relax_kit/common/Libraries/XMCLib/src\xmc_fce.c ****  **************************************************************************************************
  70:C:/Users/Yushev/git/optiga-trust-qi/projects/xmc4700_relax_kit/common/Libraries/XMCLib/src\xmc_fce.c **** 
  71:C:/Users/Yushev/git/optiga-trust-qi/projects/xmc4700_relax_kit/common/Libraries/XMCLib/src\xmc_fce.c **** /*
  72:C:/Users/Yushev/git/optiga-trust-qi/projects/xmc4700_relax_kit/common/Libraries/XMCLib/src\xmc_fce.c ****  * Initialize the FCE peripheral:
  73:C:/Users/Yushev/git/optiga-trust-qi/projects/xmc4700_relax_kit/common/Libraries/XMCLib/src\xmc_fce.c ****  * Update FCE configuration and initialize seed value
  74:C:/Users/Yushev/git/optiga-trust-qi/projects/xmc4700_relax_kit/common/Libraries/XMCLib/src\xmc_fce.c ****  */
  75:C:/Users/Yushev/git/optiga-trust-qi/projects/xmc4700_relax_kit/common/Libraries/XMCLib/src\xmc_fce.c **** XMC_FCE_STATUS_t XMC_FCE_Init(const XMC_FCE_t *const engine)
  76:C:/Users/Yushev/git/optiga-trust-qi/projects/xmc4700_relax_kit/common/Libraries/XMCLib/src\xmc_fce.c **** {
  28              	 .loc 1 76 0
  29              	 .cfi_startproc
  30              	 
  31              	 
  32              	 
  33              	.LVL0:
  77:C:/Users/Yushev/git/optiga-trust-qi/projects/xmc4700_relax_kit/common/Libraries/XMCLib/src\xmc_fce.c ****   engine->kernel_ptr->CFG = engine->fce_cfg_update.regval;
  34              	 .loc 1 77 0
  35 0000 0368     	 ldr r3,[r0]
  36 0002 4268     	 ldr r2,[r0,#4]
  37 0004 9A60     	 str r2,[r3,#8]
  78:C:/Users/Yushev/git/optiga-trust-qi/projects/xmc4700_relax_kit/common/Libraries/XMCLib/src\xmc_fce.c ****   engine->kernel_ptr->CRC = engine->seedvalue;
  38              	 .loc 1 78 0
  39 0006 8268     	 ldr r2,[r0,#8]
  40 0008 9A61     	 str r2,[r3,#24]
  79:C:/Users/Yushev/git/optiga-trust-qi/projects/xmc4700_relax_kit/common/Libraries/XMCLib/src\xmc_fce.c ****   
  80:C:/Users/Yushev/git/optiga-trust-qi/projects/xmc4700_relax_kit/common/Libraries/XMCLib/src\xmc_fce.c ****   return XMC_FCE_STATUS_OK;
  81:C:/Users/Yushev/git/optiga-trust-qi/projects/xmc4700_relax_kit/common/Libraries/XMCLib/src\xmc_fce.c **** }
  41              	 .loc 1 81 0
  42 000a 0020     	 movs r0,#0
  43              	.LVL1:
  44 000c 7047     	 bx lr
  45              	 .cfi_endproc
  46              	.LFE185:
  48              	 .section .text.XMC_FCE_Disable,"ax",%progbits
  49              	 .align 1
  50              	 .global XMC_FCE_Disable
  51              	 .thumb
  52              	 .thumb_func
  54              	XMC_FCE_Disable:
  55              	.LFB186:
  82:C:/Users/Yushev/git/optiga-trust-qi/projects/xmc4700_relax_kit/common/Libraries/XMCLib/src\xmc_fce.c **** 
  83:C:/Users/Yushev/git/optiga-trust-qi/projects/xmc4700_relax_kit/common/Libraries/XMCLib/src\xmc_fce.c **** /* Disable FCE */
  84:C:/Users/Yushev/git/optiga-trust-qi/projects/xmc4700_relax_kit/common/Libraries/XMCLib/src\xmc_fce.c **** void XMC_FCE_Disable(void)
  85:C:/Users/Yushev/git/optiga-trust-qi/projects/xmc4700_relax_kit/common/Libraries/XMCLib/src\xmc_fce.c **** {
  56              	 .loc 1 85 0
  57              	 .cfi_startproc
  58              	 
  59              	 
  86:C:/Users/Yushev/git/optiga-trust-qi/projects/xmc4700_relax_kit/common/Libraries/XMCLib/src\xmc_fce.c ****   FCE->CLC |= (uint32_t)FCE_CLC_DISR_Msk;
  60              	 .loc 1 86 0
  61 0000 074A     	 ldr r2,.L3
  85:C:/Users/Yushev/git/optiga-trust-qi/projects/xmc4700_relax_kit/common/Libraries/XMCLib/src\xmc_fce.c ****   FCE->CLC |= (uint32_t)FCE_CLC_DISR_Msk;
  62              	 .loc 1 85 0
  63 0002 10B5     	 push {r4,lr}
  64              	.LCFI0:
  65              	 .cfi_def_cfa_offset 8
  66              	 .cfi_offset 4,-8
  67              	 .cfi_offset 14,-4
  68              	 .loc 1 86 0
  69 0004 1368     	 ldr r3,[r2]
  87:C:/Users/Yushev/git/optiga-trust-qi/projects/xmc4700_relax_kit/common/Libraries/XMCLib/src\xmc_fce.c ****   
  88:C:/Users/Yushev/git/optiga-trust-qi/projects/xmc4700_relax_kit/common/Libraries/XMCLib/src\xmc_fce.c ****   XMC_SCU_RESET_AssertPeripheralReset(XMC_SCU_PERIPHERAL_RESET_FCE);
  70              	 .loc 1 88 0
  71 0006 074C     	 ldr r4,.L3+4
  86:C:/Users/Yushev/git/optiga-trust-qi/projects/xmc4700_relax_kit/common/Libraries/XMCLib/src\xmc_fce.c ****   
  72              	 .loc 1 86 0
  73 0008 43F00103 	 orr r3,r3,#1
  74              	 .loc 1 88 0
  75 000c 2046     	 mov r0,r4
  86:C:/Users/Yushev/git/optiga-trust-qi/projects/xmc4700_relax_kit/common/Libraries/XMCLib/src\xmc_fce.c ****   
  76              	 .loc 1 86 0
  77 000e 1360     	 str r3,[r2]
  78              	 .loc 1 88 0
  79 0010 FFF7FEFF 	 bl XMC_SCU_RESET_AssertPeripheralReset
  80              	.LVL2:
  89:C:/Users/Yushev/git/optiga-trust-qi/projects/xmc4700_relax_kit/common/Libraries/XMCLib/src\xmc_fce.c **** 
  90:C:/Users/Yushev/git/optiga-trust-qi/projects/xmc4700_relax_kit/common/Libraries/XMCLib/src\xmc_fce.c **** #if defined(CLOCK_GATING_SUPPORTED)
  91:C:/Users/Yushev/git/optiga-trust-qi/projects/xmc4700_relax_kit/common/Libraries/XMCLib/src\xmc_fce.c ****   XMC_SCU_CLOCK_GatePeripheralClock(XMC_SCU_PERIPHERAL_CLOCK_FCE);
  81              	 .loc 1 91 0
  82 0014 2046     	 mov r0,r4
  92:C:/Users/Yushev/git/optiga-trust-qi/projects/xmc4700_relax_kit/common/Libraries/XMCLib/src\xmc_fce.c **** #endif
  93:C:/Users/Yushev/git/optiga-trust-qi/projects/xmc4700_relax_kit/common/Libraries/XMCLib/src\xmc_fce.c **** 
  94:C:/Users/Yushev/git/optiga-trust-qi/projects/xmc4700_relax_kit/common/Libraries/XMCLib/src\xmc_fce.c **** }
  83              	 .loc 1 94 0
  84 0016 BDE81040 	 pop {r4,lr}
  85              	.LCFI1:
  86              	 .cfi_restore 14
  87              	 .cfi_restore 4
  88              	 .cfi_def_cfa_offset 0
  91:C:/Users/Yushev/git/optiga-trust-qi/projects/xmc4700_relax_kit/common/Libraries/XMCLib/src\xmc_fce.c **** #endif
  89              	 .loc 1 91 0
  90 001a FFF7FEBF 	 b XMC_SCU_CLOCK_GatePeripheralClock
  91              	.LVL3:
  92              	.L4:
  93 001e 00BF     	 .align 2
  94              	.L3:
  95 0020 00000250 	 .word 1342308352
  96 0024 40000020 	 .word 536870976
  97              	 .cfi_endproc
  98              	.LFE186:
 100              	 .section .text.XMC_FCE_Enable,"ax",%progbits
 101              	 .align 1
 102              	 .global XMC_FCE_Enable
 103              	 .thumb
 104              	 .thumb_func
 106              	XMC_FCE_Enable:
 107              	.LFB187:
  95:C:/Users/Yushev/git/optiga-trust-qi/projects/xmc4700_relax_kit/common/Libraries/XMCLib/src\xmc_fce.c **** 
  96:C:/Users/Yushev/git/optiga-trust-qi/projects/xmc4700_relax_kit/common/Libraries/XMCLib/src\xmc_fce.c **** /* Enable FCE */
  97:C:/Users/Yushev/git/optiga-trust-qi/projects/xmc4700_relax_kit/common/Libraries/XMCLib/src\xmc_fce.c **** void XMC_FCE_Enable(void)
  98:C:/Users/Yushev/git/optiga-trust-qi/projects/xmc4700_relax_kit/common/Libraries/XMCLib/src\xmc_fce.c **** {
 108              	 .loc 1 98 0
 109              	 .cfi_startproc
 110              	 
 111              	 
 112 0000 10B5     	 push {r4,lr}
 113              	.LCFI2:
 114              	 .cfi_def_cfa_offset 8
 115              	 .cfi_offset 4,-8
 116              	 .cfi_offset 14,-4
  99:C:/Users/Yushev/git/optiga-trust-qi/projects/xmc4700_relax_kit/common/Libraries/XMCLib/src\xmc_fce.c **** #if defined(CLOCK_GATING_SUPPORTED)
 100:C:/Users/Yushev/git/optiga-trust-qi/projects/xmc4700_relax_kit/common/Libraries/XMCLib/src\xmc_fce.c ****   XMC_SCU_CLOCK_UngatePeripheralClock(XMC_SCU_PERIPHERAL_CLOCK_FCE);
 117              	 .loc 1 100 0
 118 0002 064C     	 ldr r4,.L6
 119 0004 2046     	 mov r0,r4
 120 0006 FFF7FEFF 	 bl XMC_SCU_CLOCK_UngatePeripheralClock
 121              	.LVL4:
 101:C:/Users/Yushev/git/optiga-trust-qi/projects/xmc4700_relax_kit/common/Libraries/XMCLib/src\xmc_fce.c **** #endif
 102:C:/Users/Yushev/git/optiga-trust-qi/projects/xmc4700_relax_kit/common/Libraries/XMCLib/src\xmc_fce.c **** 
 103:C:/Users/Yushev/git/optiga-trust-qi/projects/xmc4700_relax_kit/common/Libraries/XMCLib/src\xmc_fce.c ****   XMC_SCU_RESET_DeassertPeripheralReset(XMC_SCU_PERIPHERAL_RESET_FCE);
 122              	 .loc 1 103 0
 123 000a 2046     	 mov r0,r4
 124 000c FFF7FEFF 	 bl XMC_SCU_RESET_DeassertPeripheralReset
 125              	.LVL5:
 104:C:/Users/Yushev/git/optiga-trust-qi/projects/xmc4700_relax_kit/common/Libraries/XMCLib/src\xmc_fce.c **** 
 105:C:/Users/Yushev/git/optiga-trust-qi/projects/xmc4700_relax_kit/common/Libraries/XMCLib/src\xmc_fce.c ****   FCE->CLC &= (uint32_t)~FCE_CLC_DISR_Msk;
 126              	 .loc 1 105 0
 127 0010 034A     	 ldr r2,.L6+4
 128 0012 1368     	 ldr r3,[r2]
 129 0014 23F00103 	 bic r3,r3,#1
 130 0018 1360     	 str r3,[r2]
 131 001a 10BD     	 pop {r4,pc}
 132              	.L7:
 133              	 .align 2
 134              	.L6:
 135 001c 40000020 	 .word 536870976
 136 0020 00000250 	 .word 1342308352
 137              	 .cfi_endproc
 138              	.LFE187:
 140              	 .section .text.XMC_FCE_CalculateCRC8,"ax",%progbits
 141              	 .align 1
 142              	 .global XMC_FCE_CalculateCRC8
 143              	 .thumb
 144              	 .thumb_func
 146              	XMC_FCE_CalculateCRC8:
 147              	.LFB188:
 106:C:/Users/Yushev/git/optiga-trust-qi/projects/xmc4700_relax_kit/common/Libraries/XMCLib/src\xmc_fce.c **** }
 107:C:/Users/Yushev/git/optiga-trust-qi/projects/xmc4700_relax_kit/common/Libraries/XMCLib/src\xmc_fce.c **** 
 108:C:/Users/Yushev/git/optiga-trust-qi/projects/xmc4700_relax_kit/common/Libraries/XMCLib/src\xmc_fce.c **** /* Calculate and return the SAE J1850 CRC8 checksum */
 109:C:/Users/Yushev/git/optiga-trust-qi/projects/xmc4700_relax_kit/common/Libraries/XMCLib/src\xmc_fce.c **** XMC_FCE_STATUS_t XMC_FCE_CalculateCRC8(const XMC_FCE_t *const engine,
 110:C:/Users/Yushev/git/optiga-trust-qi/projects/xmc4700_relax_kit/common/Libraries/XMCLib/src\xmc_fce.c ****                                        const uint8_t *data,
 111:C:/Users/Yushev/git/optiga-trust-qi/projects/xmc4700_relax_kit/common/Libraries/XMCLib/src\xmc_fce.c **** 									   uint32_t length,
 112:C:/Users/Yushev/git/optiga-trust-qi/projects/xmc4700_relax_kit/common/Libraries/XMCLib/src\xmc_fce.c **** 									   uint8_t *result)
 113:C:/Users/Yushev/git/optiga-trust-qi/projects/xmc4700_relax_kit/common/Libraries/XMCLib/src\xmc_fce.c **** {
 148              	 .loc 1 113 0
 149              	 .cfi_startproc
 150              	 
 151              	 
 152              	.LVL6:
 153 0000 10B5     	 push {r4,lr}
 154              	.LCFI3:
 155              	 .cfi_def_cfa_offset 8
 156              	 .cfi_offset 4,-8
 157              	 .cfi_offset 14,-4
 114:C:/Users/Yushev/git/optiga-trust-qi/projects/xmc4700_relax_kit/common/Libraries/XMCLib/src\xmc_fce.c ****   XMC_FCE_STATUS_t status = XMC_FCE_STATUS_OK;
 115:C:/Users/Yushev/git/optiga-trust-qi/projects/xmc4700_relax_kit/common/Libraries/XMCLib/src\xmc_fce.c **** 	
 116:C:/Users/Yushev/git/optiga-trust-qi/projects/xmc4700_relax_kit/common/Libraries/XMCLib/src\xmc_fce.c ****   XMC_ASSERT("XMC_FCE_CalculateCRC8: Wrong FCE kernel used", (engine -> kernel_ptr == XMC_FCE_CRC8)
 117:C:/Users/Yushev/git/optiga-trust-qi/projects/xmc4700_relax_kit/common/Libraries/XMCLib/src\xmc_fce.c **** 
 118:C:/Users/Yushev/git/optiga-trust-qi/projects/xmc4700_relax_kit/common/Libraries/XMCLib/src\xmc_fce.c ****   if (length == 0UL)
 158              	 .loc 1 118 0
 159 0002 52B1     	 cbz r2,.L11
 119:C:/Users/Yushev/git/optiga-trust-qi/projects/xmc4700_relax_kit/common/Libraries/XMCLib/src\xmc_fce.c ****   {
 120:C:/Users/Yushev/git/optiga-trust-qi/projects/xmc4700_relax_kit/common/Libraries/XMCLib/src\xmc_fce.c ****     status = XMC_FCE_STATUS_ERROR;
 121:C:/Users/Yushev/git/optiga-trust-qi/projects/xmc4700_relax_kit/common/Libraries/XMCLib/src\xmc_fce.c ****   }
 122:C:/Users/Yushev/git/optiga-trust-qi/projects/xmc4700_relax_kit/common/Libraries/XMCLib/src\xmc_fce.c ****   else
 123:C:/Users/Yushev/git/optiga-trust-qi/projects/xmc4700_relax_kit/common/Libraries/XMCLib/src\xmc_fce.c ****   {
 124:C:/Users/Yushev/git/optiga-trust-qi/projects/xmc4700_relax_kit/common/Libraries/XMCLib/src\xmc_fce.c ****     while (0UL != length)
 125:C:/Users/Yushev/git/optiga-trust-qi/projects/xmc4700_relax_kit/common/Libraries/XMCLib/src\xmc_fce.c ****     {
 126:C:/Users/Yushev/git/optiga-trust-qi/projects/xmc4700_relax_kit/common/Libraries/XMCLib/src\xmc_fce.c ****       engine->kernel_ptr->IR = (uint32_t)*data;
 160              	 .loc 1 126 0
 161 0004 0068     	 ldr r0,[r0]
 162              	.LVL7:
 163 0006 0A44     	 add r2,r2,r1
 164              	.LVL8:
 165              	.L10:
 166 0008 11F8014B 	 ldrb r4,[r1],#1
 167              	.LVL9:
 168 000c 0460     	 str r4,[r0]
 169              	.LVL10:
 124:C:/Users/Yushev/git/optiga-trust-qi/projects/xmc4700_relax_kit/common/Libraries/XMCLib/src\xmc_fce.c ****     {
 170              	 .loc 1 124 0
 171 000e 9142     	 cmp r1,r2
 172 0010 FAD1     	 bne .L10
 127:C:/Users/Yushev/git/optiga-trust-qi/projects/xmc4700_relax_kit/common/Libraries/XMCLib/src\xmc_fce.c ****       data++;
 128:C:/Users/Yushev/git/optiga-trust-qi/projects/xmc4700_relax_kit/common/Libraries/XMCLib/src\xmc_fce.c ****       length -= 1U;
 129:C:/Users/Yushev/git/optiga-trust-qi/projects/xmc4700_relax_kit/common/Libraries/XMCLib/src\xmc_fce.c ****     }
 130:C:/Users/Yushev/git/optiga-trust-qi/projects/xmc4700_relax_kit/common/Libraries/XMCLib/src\xmc_fce.c **** 
 131:C:/Users/Yushev/git/optiga-trust-qi/projects/xmc4700_relax_kit/common/Libraries/XMCLib/src\xmc_fce.c ****     *result = (uint8_t)engine->kernel_ptr->CRC;
 173              	 .loc 1 131 0
 174 0012 8269     	 ldr r2,[r0,#24]
 175 0014 1A70     	 strb r2,[r3]
 114:C:/Users/Yushev/git/optiga-trust-qi/projects/xmc4700_relax_kit/common/Libraries/XMCLib/src\xmc_fce.c **** 	
 176              	 .loc 1 114 0
 177 0016 0020     	 movs r0,#0
 178 0018 10BD     	 pop {r4,pc}
 179              	.LVL11:
 180              	.L11:
 120:C:/Users/Yushev/git/optiga-trust-qi/projects/xmc4700_relax_kit/common/Libraries/XMCLib/src\xmc_fce.c ****   }
 181              	 .loc 1 120 0
 182 001a 0220     	 movs r0,#2
 183              	.LVL12:
 132:C:/Users/Yushev/git/optiga-trust-qi/projects/xmc4700_relax_kit/common/Libraries/XMCLib/src\xmc_fce.c ****   }
 133:C:/Users/Yushev/git/optiga-trust-qi/projects/xmc4700_relax_kit/common/Libraries/XMCLib/src\xmc_fce.c **** 
 134:C:/Users/Yushev/git/optiga-trust-qi/projects/xmc4700_relax_kit/common/Libraries/XMCLib/src\xmc_fce.c ****   return status;
 135:C:/Users/Yushev/git/optiga-trust-qi/projects/xmc4700_relax_kit/common/Libraries/XMCLib/src\xmc_fce.c **** }
 184              	 .loc 1 135 0
 185 001c 10BD     	 pop {r4,pc}
 186              	 .cfi_endproc
 187              	.LFE188:
 189              	 .section .text.XMC_FCE_CalculateCRC16,"ax",%progbits
 190              	 .align 1
 191              	 .global XMC_FCE_CalculateCRC16
 192              	 .thumb
 193              	 .thumb_func
 195              	XMC_FCE_CalculateCRC16:
 196              	.LFB189:
 136:C:/Users/Yushev/git/optiga-trust-qi/projects/xmc4700_relax_kit/common/Libraries/XMCLib/src\xmc_fce.c **** 
 137:C:/Users/Yushev/git/optiga-trust-qi/projects/xmc4700_relax_kit/common/Libraries/XMCLib/src\xmc_fce.c **** /* Calculate and return calculated CCITT CRC16 checksum */
 138:C:/Users/Yushev/git/optiga-trust-qi/projects/xmc4700_relax_kit/common/Libraries/XMCLib/src\xmc_fce.c **** XMC_FCE_STATUS_t XMC_FCE_CalculateCRC16(const XMC_FCE_t *const engine,
 139:C:/Users/Yushev/git/optiga-trust-qi/projects/xmc4700_relax_kit/common/Libraries/XMCLib/src\xmc_fce.c ****                                         const uint16_t *data,
 140:C:/Users/Yushev/git/optiga-trust-qi/projects/xmc4700_relax_kit/common/Libraries/XMCLib/src\xmc_fce.c **** 										uint32_t length,
 141:C:/Users/Yushev/git/optiga-trust-qi/projects/xmc4700_relax_kit/common/Libraries/XMCLib/src\xmc_fce.c **** 										uint16_t *result)
 142:C:/Users/Yushev/git/optiga-trust-qi/projects/xmc4700_relax_kit/common/Libraries/XMCLib/src\xmc_fce.c **** {
 197              	 .loc 1 142 0
 198              	 .cfi_startproc
 199              	 
 200              	 
 201              	.LVL13:
 202 0000 30B5     	 push {r4,r5,lr}
 203              	.LCFI4:
 204              	 .cfi_def_cfa_offset 12
 205              	 .cfi_offset 4,-12
 206              	 .cfi_offset 5,-8
 207              	 .cfi_offset 14,-4
 143:C:/Users/Yushev/git/optiga-trust-qi/projects/xmc4700_relax_kit/common/Libraries/XMCLib/src\xmc_fce.c ****   XMC_FCE_STATUS_t status = XMC_FCE_STATUS_OK;
 144:C:/Users/Yushev/git/optiga-trust-qi/projects/xmc4700_relax_kit/common/Libraries/XMCLib/src\xmc_fce.c **** 	
 145:C:/Users/Yushev/git/optiga-trust-qi/projects/xmc4700_relax_kit/common/Libraries/XMCLib/src\xmc_fce.c ****   XMC_ASSERT("XMC_FCE_CalculateCRC16: Wrong FCE kernel used", (engine -> kernel_ptr == XMC_FCE_CRC1
 146:C:/Users/Yushev/git/optiga-trust-qi/projects/xmc4700_relax_kit/common/Libraries/XMCLib/src\xmc_fce.c ****   XMC_ASSERT("XMC_FCE_CalculateCRC16: Length field is empty", (length != 0));
 147:C:/Users/Yushev/git/optiga-trust-qi/projects/xmc4700_relax_kit/common/Libraries/XMCLib/src\xmc_fce.c ****   XMC_ASSERT("XMC_FCE_CalculateCRC16: Length is not aligned", ((length & 0x1U) == 0));
 148:C:/Users/Yushev/git/optiga-trust-qi/projects/xmc4700_relax_kit/common/Libraries/XMCLib/src\xmc_fce.c **** 
 149:C:/Users/Yushev/git/optiga-trust-qi/projects/xmc4700_relax_kit/common/Libraries/XMCLib/src\xmc_fce.c ****   /* Check length is a multiple of 2 */
 150:C:/Users/Yushev/git/optiga-trust-qi/projects/xmc4700_relax_kit/common/Libraries/XMCLib/src\xmc_fce.c ****   if ((length == 0) || ((length & 0x1U) != 0U))
 208              	 .loc 1 150 0
 209 0002 62B1     	 cbz r2,.L18
 210              	 .loc 1 150 0 is_stmt 0 discriminator 1
 211 0004 D407     	 lsls r4,r2,#31
 212 0006 0AD4     	 bmi .L18
 151:C:/Users/Yushev/git/optiga-trust-qi/projects/xmc4700_relax_kit/common/Libraries/XMCLib/src\xmc_fce.c ****   {
 152:C:/Users/Yushev/git/optiga-trust-qi/projects/xmc4700_relax_kit/common/Libraries/XMCLib/src\xmc_fce.c ****     status = XMC_FCE_STATUS_ERROR;
 153:C:/Users/Yushev/git/optiga-trust-qi/projects/xmc4700_relax_kit/common/Libraries/XMCLib/src\xmc_fce.c ****   }
 154:C:/Users/Yushev/git/optiga-trust-qi/projects/xmc4700_relax_kit/common/Libraries/XMCLib/src\xmc_fce.c ****   else
 155:C:/Users/Yushev/git/optiga-trust-qi/projects/xmc4700_relax_kit/common/Libraries/XMCLib/src\xmc_fce.c ****   {
 156:C:/Users/Yushev/git/optiga-trust-qi/projects/xmc4700_relax_kit/common/Libraries/XMCLib/src\xmc_fce.c ****     while (0UL != length)
 157:C:/Users/Yushev/git/optiga-trust-qi/projects/xmc4700_relax_kit/common/Libraries/XMCLib/src\xmc_fce.c ****     {
 158:C:/Users/Yushev/git/optiga-trust-qi/projects/xmc4700_relax_kit/common/Libraries/XMCLib/src\xmc_fce.c ****       engine->kernel_ptr->IR = (uint32_t)*data;
 213              	 .loc 1 158 0 is_stmt 1
 214 0008 0568     	 ldr r5,[r0]
 215 000a 0C46     	 mov r4,r1
 216              	.LVL14:
 217              	.L16:
 218 000c 34F8020B 	 ldrh r0,[r4],#2
 219              	.LVL15:
 220 0010 2860     	 str r0,[r5]
 221              	.LVL16:
 222 0012 101B     	 subs r0,r2,r4
 156:C:/Users/Yushev/git/optiga-trust-qi/projects/xmc4700_relax_kit/common/Libraries/XMCLib/src\xmc_fce.c ****     {
 223              	 .loc 1 156 0
 224 0014 0818     	 adds r0,r1,r0
 225 0016 F9D1     	 bne .L16
 159:C:/Users/Yushev/git/optiga-trust-qi/projects/xmc4700_relax_kit/common/Libraries/XMCLib/src\xmc_fce.c ****       data++;
 160:C:/Users/Yushev/git/optiga-trust-qi/projects/xmc4700_relax_kit/common/Libraries/XMCLib/src\xmc_fce.c ****       length -= 2U;
 161:C:/Users/Yushev/git/optiga-trust-qi/projects/xmc4700_relax_kit/common/Libraries/XMCLib/src\xmc_fce.c ****     }
 162:C:/Users/Yushev/git/optiga-trust-qi/projects/xmc4700_relax_kit/common/Libraries/XMCLib/src\xmc_fce.c **** 	
 163:C:/Users/Yushev/git/optiga-trust-qi/projects/xmc4700_relax_kit/common/Libraries/XMCLib/src\xmc_fce.c ****     *result = (uint16_t)engine->kernel_ptr->CRC;
 226              	 .loc 1 163 0
 227 0018 AA69     	 ldr r2,[r5,#24]
 228              	.LVL17:
 229 001a 1A80     	 strh r2,[r3]
 230 001c 30BD     	 pop {r4,r5,pc}
 231              	.LVL18:
 232              	.L18:
 152:C:/Users/Yushev/git/optiga-trust-qi/projects/xmc4700_relax_kit/common/Libraries/XMCLib/src\xmc_fce.c ****   }
 233              	 .loc 1 152 0
 234 001e 0220     	 movs r0,#2
 235              	.LVL19:
 164:C:/Users/Yushev/git/optiga-trust-qi/projects/xmc4700_relax_kit/common/Libraries/XMCLib/src\xmc_fce.c ****   }
 165:C:/Users/Yushev/git/optiga-trust-qi/projects/xmc4700_relax_kit/common/Libraries/XMCLib/src\xmc_fce.c **** 
 166:C:/Users/Yushev/git/optiga-trust-qi/projects/xmc4700_relax_kit/common/Libraries/XMCLib/src\xmc_fce.c ****   return status;
 167:C:/Users/Yushev/git/optiga-trust-qi/projects/xmc4700_relax_kit/common/Libraries/XMCLib/src\xmc_fce.c **** }
 236              	 .loc 1 167 0
 237 0020 30BD     	 pop {r4,r5,pc}
 238              	 .cfi_endproc
 239              	.LFE189:
 241              	 .section .text.XMC_FCE_CalculateCRC32,"ax",%progbits
 242              	 .align 1
 243              	 .global XMC_FCE_CalculateCRC32
 244              	 .thumb
 245              	 .thumb_func
 247              	XMC_FCE_CalculateCRC32:
 248              	.LFB190:
 168:C:/Users/Yushev/git/optiga-trust-qi/projects/xmc4700_relax_kit/common/Libraries/XMCLib/src\xmc_fce.c **** 
 169:C:/Users/Yushev/git/optiga-trust-qi/projects/xmc4700_relax_kit/common/Libraries/XMCLib/src\xmc_fce.c **** /* Calculate and return the IEEE 802.3 Ethernet CRC32 checksum */
 170:C:/Users/Yushev/git/optiga-trust-qi/projects/xmc4700_relax_kit/common/Libraries/XMCLib/src\xmc_fce.c **** XMC_FCE_STATUS_t XMC_FCE_CalculateCRC32(const XMC_FCE_t *const engine,
 171:C:/Users/Yushev/git/optiga-trust-qi/projects/xmc4700_relax_kit/common/Libraries/XMCLib/src\xmc_fce.c ****                                         const uint32_t *data,
 172:C:/Users/Yushev/git/optiga-trust-qi/projects/xmc4700_relax_kit/common/Libraries/XMCLib/src\xmc_fce.c **** 										uint32_t length,
 173:C:/Users/Yushev/git/optiga-trust-qi/projects/xmc4700_relax_kit/common/Libraries/XMCLib/src\xmc_fce.c **** 										uint32_t *result)
 174:C:/Users/Yushev/git/optiga-trust-qi/projects/xmc4700_relax_kit/common/Libraries/XMCLib/src\xmc_fce.c **** {
 249              	 .loc 1 174 0
 250              	 .cfi_startproc
 251              	 
 252              	 
 253              	.LVL20:
 254 0000 30B5     	 push {r4,r5,lr}
 255              	.LCFI5:
 256              	 .cfi_def_cfa_offset 12
 257              	 .cfi_offset 4,-12
 258              	 .cfi_offset 5,-8
 259              	 .cfi_offset 14,-4
 175:C:/Users/Yushev/git/optiga-trust-qi/projects/xmc4700_relax_kit/common/Libraries/XMCLib/src\xmc_fce.c ****   XMC_FCE_STATUS_t status = XMC_FCE_STATUS_OK;
 176:C:/Users/Yushev/git/optiga-trust-qi/projects/xmc4700_relax_kit/common/Libraries/XMCLib/src\xmc_fce.c **** 	
 177:C:/Users/Yushev/git/optiga-trust-qi/projects/xmc4700_relax_kit/common/Libraries/XMCLib/src\xmc_fce.c ****   XMC_ASSERT("XMC_FCE_CalculateCRC32: Wrong FCE kernel used", ((engine->kernel_ptr == XMC_FCE_CRC32
 178:C:/Users/Yushev/git/optiga-trust-qi/projects/xmc4700_relax_kit/common/Libraries/XMCLib/src\xmc_fce.c ****                                                                (engine->kernel_ptr == XMC_FCE_CRC32
 179:C:/Users/Yushev/git/optiga-trust-qi/projects/xmc4700_relax_kit/common/Libraries/XMCLib/src\xmc_fce.c ****   XMC_ASSERT("XMC_FCE_CalculateCRC32: Length field is empty", (length != 0));
 180:C:/Users/Yushev/git/optiga-trust-qi/projects/xmc4700_relax_kit/common/Libraries/XMCLib/src\xmc_fce.c ****   XMC_ASSERT("XMC_FCE_CalculateCRC32: Length is not aligned", ((length & 0x3U) == 0));
 181:C:/Users/Yushev/git/optiga-trust-qi/projects/xmc4700_relax_kit/common/Libraries/XMCLib/src\xmc_fce.c **** 
 182:C:/Users/Yushev/git/optiga-trust-qi/projects/xmc4700_relax_kit/common/Libraries/XMCLib/src\xmc_fce.c ****   /* Check length is a multiple of 4 */
 183:C:/Users/Yushev/git/optiga-trust-qi/projects/xmc4700_relax_kit/common/Libraries/XMCLib/src\xmc_fce.c ****   if ((length == 0) || ((length & 0x3U) != 0U))
 260              	 .loc 1 183 0
 261 0002 62B1     	 cbz r2,.L24
 262              	 .loc 1 183 0 is_stmt 0 discriminator 1
 263 0004 9407     	 lsls r4,r2,#30
 264 0006 0AD1     	 bne .L24
 184:C:/Users/Yushev/git/optiga-trust-qi/projects/xmc4700_relax_kit/common/Libraries/XMCLib/src\xmc_fce.c ****   {
 185:C:/Users/Yushev/git/optiga-trust-qi/projects/xmc4700_relax_kit/common/Libraries/XMCLib/src\xmc_fce.c ****     status = XMC_FCE_STATUS_ERROR;
 186:C:/Users/Yushev/git/optiga-trust-qi/projects/xmc4700_relax_kit/common/Libraries/XMCLib/src\xmc_fce.c ****   }
 187:C:/Users/Yushev/git/optiga-trust-qi/projects/xmc4700_relax_kit/common/Libraries/XMCLib/src\xmc_fce.c ****   else
 188:C:/Users/Yushev/git/optiga-trust-qi/projects/xmc4700_relax_kit/common/Libraries/XMCLib/src\xmc_fce.c ****   {
 189:C:/Users/Yushev/git/optiga-trust-qi/projects/xmc4700_relax_kit/common/Libraries/XMCLib/src\xmc_fce.c ****     while (0UL != length)
 190:C:/Users/Yushev/git/optiga-trust-qi/projects/xmc4700_relax_kit/common/Libraries/XMCLib/src\xmc_fce.c ****     {
 191:C:/Users/Yushev/git/optiga-trust-qi/projects/xmc4700_relax_kit/common/Libraries/XMCLib/src\xmc_fce.c ****       engine->kernel_ptr->IR = *data;
 265              	 .loc 1 191 0 is_stmt 1
 266 0008 0568     	 ldr r5,[r0]
 267 000a 0C46     	 mov r4,r1
 268              	.LVL21:
 269              	.L22:
 270 000c 54F8040B 	 ldr r0,[r4],#4
 271              	.LVL22:
 272 0010 2860     	 str r0,[r5]
 273              	.LVL23:
 274 0012 101B     	 subs r0,r2,r4
 189:C:/Users/Yushev/git/optiga-trust-qi/projects/xmc4700_relax_kit/common/Libraries/XMCLib/src\xmc_fce.c ****     {
 275              	 .loc 1 189 0
 276 0014 0818     	 adds r0,r1,r0
 277 0016 F9D1     	 bne .L22
 192:C:/Users/Yushev/git/optiga-trust-qi/projects/xmc4700_relax_kit/common/Libraries/XMCLib/src\xmc_fce.c ****       data++;
 193:C:/Users/Yushev/git/optiga-trust-qi/projects/xmc4700_relax_kit/common/Libraries/XMCLib/src\xmc_fce.c ****       length -= 4U;
 194:C:/Users/Yushev/git/optiga-trust-qi/projects/xmc4700_relax_kit/common/Libraries/XMCLib/src\xmc_fce.c ****     }
 195:C:/Users/Yushev/git/optiga-trust-qi/projects/xmc4700_relax_kit/common/Libraries/XMCLib/src\xmc_fce.c **** 
 196:C:/Users/Yushev/git/optiga-trust-qi/projects/xmc4700_relax_kit/common/Libraries/XMCLib/src\xmc_fce.c ****     *result = engine->kernel_ptr->CRC;
 278              	 .loc 1 196 0
 279 0018 AA69     	 ldr r2,[r5,#24]
 280              	.LVL24:
 281 001a 1A60     	 str r2,[r3]
 282 001c 30BD     	 pop {r4,r5,pc}
 283              	.LVL25:
 284              	.L24:
 185:C:/Users/Yushev/git/optiga-trust-qi/projects/xmc4700_relax_kit/common/Libraries/XMCLib/src\xmc_fce.c ****   }
 285              	 .loc 1 185 0
 286 001e 0220     	 movs r0,#2
 287              	.LVL26:
 197:C:/Users/Yushev/git/optiga-trust-qi/projects/xmc4700_relax_kit/common/Libraries/XMCLib/src\xmc_fce.c ****   }
 198:C:/Users/Yushev/git/optiga-trust-qi/projects/xmc4700_relax_kit/common/Libraries/XMCLib/src\xmc_fce.c ****   
 199:C:/Users/Yushev/git/optiga-trust-qi/projects/xmc4700_relax_kit/common/Libraries/XMCLib/src\xmc_fce.c ****   return status;
 200:C:/Users/Yushev/git/optiga-trust-qi/projects/xmc4700_relax_kit/common/Libraries/XMCLib/src\xmc_fce.c **** }
 288              	 .loc 1 200 0
 289 0020 30BD     	 pop {r4,r5,pc}
 290              	 .cfi_endproc
 291              	.LFE190:
 293              	 .section .text.XMC_FCE_TriggerMismatch,"ax",%progbits
 294              	 .align 1
 295              	 .global XMC_FCE_TriggerMismatch
 296              	 .thumb
 297              	 .thumb_func
 299              	XMC_FCE_TriggerMismatch:
 300              	.LFB191:
 201:C:/Users/Yushev/git/optiga-trust-qi/projects/xmc4700_relax_kit/common/Libraries/XMCLib/src\xmc_fce.c **** 
 202:C:/Users/Yushev/git/optiga-trust-qi/projects/xmc4700_relax_kit/common/Libraries/XMCLib/src\xmc_fce.c **** /* Trigger mismatch in the CRC registers */
 203:C:/Users/Yushev/git/optiga-trust-qi/projects/xmc4700_relax_kit/common/Libraries/XMCLib/src\xmc_fce.c **** void XMC_FCE_TriggerMismatch(const XMC_FCE_t *const engine, XMC_FCE_CTR_TEST_t test)
 204:C:/Users/Yushev/git/optiga-trust-qi/projects/xmc4700_relax_kit/common/Libraries/XMCLib/src\xmc_fce.c **** {
 301              	 .loc 1 204 0
 302              	 .cfi_startproc
 303              	 
 304              	 
 305              	.LVL27:
 205:C:/Users/Yushev/git/optiga-trust-qi/projects/xmc4700_relax_kit/common/Libraries/XMCLib/src\xmc_fce.c ****   /* Create a 0 to 1 transition and clear to 0 once it is done */
 206:C:/Users/Yushev/git/optiga-trust-qi/projects/xmc4700_relax_kit/common/Libraries/XMCLib/src\xmc_fce.c ****   engine->kernel_ptr->CTR &= ~((uint32_t)test);
 306              	 .loc 1 206 0
 307 0000 0368     	 ldr r3,[r0]
 308 0002 D869     	 ldr r0,[r3,#28]
 309              	.LVL28:
 204:C:/Users/Yushev/git/optiga-trust-qi/projects/xmc4700_relax_kit/common/Libraries/XMCLib/src\xmc_fce.c ****   /* Create a 0 to 1 transition and clear to 0 once it is done */
 310              	 .loc 1 204 0
 311 0004 10B5     	 push {r4,lr}
 312              	.LCFI6:
 313              	 .cfi_def_cfa_offset 8
 314              	 .cfi_offset 4,-8
 315              	 .cfi_offset 14,-4
 316              	 .loc 1 206 0
 317 0006 CC43     	 mvns r4,r1
 318 0008 2040     	 ands r0,r0,r4
 319 000a D861     	 str r0,[r3,#28]
 207:C:/Users/Yushev/git/optiga-trust-qi/projects/xmc4700_relax_kit/common/Libraries/XMCLib/src\xmc_fce.c ****   engine->kernel_ptr->CTR |= (uint32_t)test;
 320              	 .loc 1 207 0
 321 000c D869     	 ldr r0,[r3,#28]
 322 000e 0143     	 orrs r1,r1,r0
 323              	.LVL29:
 324 0010 D961     	 str r1,[r3,#28]
 208:C:/Users/Yushev/git/optiga-trust-qi/projects/xmc4700_relax_kit/common/Libraries/XMCLib/src\xmc_fce.c ****   engine->kernel_ptr->CTR &= ~((uint32_t)test);
 325              	 .loc 1 208 0
 326 0012 DA69     	 ldr r2,[r3,#28]
 327 0014 2240     	 ands r2,r2,r4
 328 0016 DA61     	 str r2,[r3,#28]
 329 0018 10BD     	 pop {r4,pc}
 330              	 .cfi_endproc
 331              	.LFE191:
 333              	 .section .text.XMC_FCE_LittleEndian16bit,"ax",%progbits
 334              	 .align 1
 335              	 .global XMC_FCE_LittleEndian16bit
 336              	 .thumb
 337              	 .thumb_func
 339              	XMC_FCE_LittleEndian16bit:
 340              	.LFB192:
 209:C:/Users/Yushev/git/optiga-trust-qi/projects/xmc4700_relax_kit/common/Libraries/XMCLib/src\xmc_fce.c **** }
 210:C:/Users/Yushev/git/optiga-trust-qi/projects/xmc4700_relax_kit/common/Libraries/XMCLib/src\xmc_fce.c **** 
 211:C:/Users/Yushev/git/optiga-trust-qi/projects/xmc4700_relax_kit/common/Libraries/XMCLib/src\xmc_fce.c **** /* Change endianness of 16-bit input buffer */
 212:C:/Users/Yushev/git/optiga-trust-qi/projects/xmc4700_relax_kit/common/Libraries/XMCLib/src\xmc_fce.c **** void XMC_FCE_LittleEndian16bit(uint8_t* inbuffer, uint16_t* outbuffer, uint16_t length)
 213:C:/Users/Yushev/git/optiga-trust-qi/projects/xmc4700_relax_kit/common/Libraries/XMCLib/src\xmc_fce.c **** {
 341              	 .loc 1 213 0
 342              	 .cfi_startproc
 343              	 
 344              	 
 345              	.LVL30:
 214:C:/Users/Yushev/git/optiga-trust-qi/projects/xmc4700_relax_kit/common/Libraries/XMCLib/src\xmc_fce.c ****   uint16_t counter = 0U;
 215:C:/Users/Yushev/git/optiga-trust-qi/projects/xmc4700_relax_kit/common/Libraries/XMCLib/src\xmc_fce.c ****   uint16_t bytecounter = 0U;
 216:C:/Users/Yushev/git/optiga-trust-qi/projects/xmc4700_relax_kit/common/Libraries/XMCLib/src\xmc_fce.c **** 
 217:C:/Users/Yushev/git/optiga-trust-qi/projects/xmc4700_relax_kit/common/Libraries/XMCLib/src\xmc_fce.c ****   if ((length & 0x01U)  == 0)
 346              	 .loc 1 217 0
 347 0000 D307     	 lsls r3,r2,#31
 213:C:/Users/Yushev/git/optiga-trust-qi/projects/xmc4700_relax_kit/common/Libraries/XMCLib/src\xmc_fce.c ****   uint16_t counter = 0U;
 348              	 .loc 1 213 0
 349 0002 70B5     	 push {r4,r5,r6,lr}
 350              	.LCFI7:
 351              	 .cfi_def_cfa_offset 16
 352              	 .cfi_offset 4,-16
 353              	 .cfi_offset 5,-12
 354              	 .cfi_offset 6,-8
 355              	 .cfi_offset 14,-4
 356              	 .loc 1 217 0
 357 0004 1AD4     	 bmi .L27
 358 0006 5508     	 lsrs r5,r2,#1
 359 0008 0C46     	 mov r4,r1
 360 000a 01EB4506 	 add r6,r1,r5,lsl#1
 361              	.LVL31:
 362              	.L29:
 218:C:/Users/Yushev/git/optiga-trust-qi/projects/xmc4700_relax_kit/common/Libraries/XMCLib/src\xmc_fce.c ****   {
 219:C:/Users/Yushev/git/optiga-trust-qi/projects/xmc4700_relax_kit/common/Libraries/XMCLib/src\xmc_fce.c ****     for (counter = 0U; counter < (length >> 1); counter++)
 363              	 .loc 1 219 0 discriminator 1
 364 000e B442     	 cmp r4,r6
 365 0010 4FF00003 	 mov r3,#0
 366 0014 02D0     	 beq .L34
 220:C:/Users/Yushev/git/optiga-trust-qi/projects/xmc4700_relax_kit/common/Libraries/XMCLib/src\xmc_fce.c ****     {
 221:C:/Users/Yushev/git/optiga-trust-qi/projects/xmc4700_relax_kit/common/Libraries/XMCLib/src\xmc_fce.c ****       outbuffer[counter] = 0U;
 367              	 .loc 1 221 0 discriminator 3
 368 0016 24F8023B 	 strh r3,[r4],#2
 369 001a F8E7     	 b .L29
 370              	.L34:
 222:C:/Users/Yushev/git/optiga-trust-qi/projects/xmc4700_relax_kit/common/Libraries/XMCLib/src\xmc_fce.c ****     }
 223:C:/Users/Yushev/git/optiga-trust-qi/projects/xmc4700_relax_kit/common/Libraries/XMCLib/src\xmc_fce.c **** 
 224:C:/Users/Yushev/git/optiga-trust-qi/projects/xmc4700_relax_kit/common/Libraries/XMCLib/src\xmc_fce.c ****     outbuffer[counter] = 0U;
 371              	 .loc 1 224 0
 372 001c 21F81530 	 strh r3,[r1,r5,lsl#1]
 373              	.LVL32:
 374              	.L31:
 375 0020 5C00     	 lsls r4,r3,#1
 376 0022 A4B2     	 uxth r4,r4
 377              	.LVL33:
 225:C:/Users/Yushev/git/optiga-trust-qi/projects/xmc4700_relax_kit/common/Libraries/XMCLib/src\xmc_fce.c ****     counter = 0U;
 226:C:/Users/Yushev/git/optiga-trust-qi/projects/xmc4700_relax_kit/common/Libraries/XMCLib/src\xmc_fce.c **** 
 227:C:/Users/Yushev/git/optiga-trust-qi/projects/xmc4700_relax_kit/common/Libraries/XMCLib/src\xmc_fce.c ****     while (length)
 378              	 .loc 1 227 0
 379 0024 A242     	 cmp r2,r4
 380 0026 09D0     	 beq .L27
 228:C:/Users/Yushev/git/optiga-trust-qi/projects/xmc4700_relax_kit/common/Libraries/XMCLib/src\xmc_fce.c ****     {
 229:C:/Users/Yushev/git/optiga-trust-qi/projects/xmc4700_relax_kit/common/Libraries/XMCLib/src\xmc_fce.c ****       outbuffer[counter] = ((uint16_t)((uint16_t)inbuffer[bytecounter] << 8U) |
 230:C:/Users/Yushev/git/optiga-trust-qi/projects/xmc4700_relax_kit/common/Libraries/XMCLib/src\xmc_fce.c ****                             (inbuffer[bytecounter + 1U]));
 381              	 .loc 1 230 0
 382 0028 0519     	 adds r5,r0,r4
 229:C:/Users/Yushev/git/optiga-trust-qi/projects/xmc4700_relax_kit/common/Libraries/XMCLib/src\xmc_fce.c ****                             (inbuffer[bytecounter + 1U]));
 383              	 .loc 1 229 0
 384 002a 045D     	 ldrb r4,[r0,r4]
 385              	.LVL34:
 386 002c 6D78     	 ldrb r5,[r5,#1]
 387 002e 9EB2     	 uxth r6,r3
 388 0030 45EA0424 	 orr r4,r5,r4,lsl#8
 389 0034 21F81640 	 strh r4,[r1,r6,lsl#1]
 390              	.LVL35:
 391 0038 0133     	 adds r3,r3,#1
 392              	.LVL36:
 393 003a F1E7     	 b .L31
 394              	.LVL37:
 395              	.L27:
 396 003c 70BD     	 pop {r4,r5,r6,pc}
 397              	 .cfi_endproc
 398              	.LFE192:
 400              	 .section .text.XMC_FCE_LittleEndian32bit,"ax",%progbits
 401              	 .align 1
 402              	 .global XMC_FCE_LittleEndian32bit
 403              	 .thumb
 404              	 .thumb_func
 406              	XMC_FCE_LittleEndian32bit:
 407              	.LFB193:
 231:C:/Users/Yushev/git/optiga-trust-qi/projects/xmc4700_relax_kit/common/Libraries/XMCLib/src\xmc_fce.c ****       counter += 1U;
 232:C:/Users/Yushev/git/optiga-trust-qi/projects/xmc4700_relax_kit/common/Libraries/XMCLib/src\xmc_fce.c ****       bytecounter += 2U;
 233:C:/Users/Yushev/git/optiga-trust-qi/projects/xmc4700_relax_kit/common/Libraries/XMCLib/src\xmc_fce.c ****       length -= 2U;
 234:C:/Users/Yushev/git/optiga-trust-qi/projects/xmc4700_relax_kit/common/Libraries/XMCLib/src\xmc_fce.c ****     }
 235:C:/Users/Yushev/git/optiga-trust-qi/projects/xmc4700_relax_kit/common/Libraries/XMCLib/src\xmc_fce.c ****   }
 236:C:/Users/Yushev/git/optiga-trust-qi/projects/xmc4700_relax_kit/common/Libraries/XMCLib/src\xmc_fce.c **** }
 237:C:/Users/Yushev/git/optiga-trust-qi/projects/xmc4700_relax_kit/common/Libraries/XMCLib/src\xmc_fce.c **** 
 238:C:/Users/Yushev/git/optiga-trust-qi/projects/xmc4700_relax_kit/common/Libraries/XMCLib/src\xmc_fce.c **** /* Change endianness of 32-bit input buffer */
 239:C:/Users/Yushev/git/optiga-trust-qi/projects/xmc4700_relax_kit/common/Libraries/XMCLib/src\xmc_fce.c **** void XMC_FCE_LittleEndian32bit(uint8_t* inbuffer, uint32_t* outbuffer, uint16_t length)
 240:C:/Users/Yushev/git/optiga-trust-qi/projects/xmc4700_relax_kit/common/Libraries/XMCLib/src\xmc_fce.c **** {
 408              	 .loc 1 240 0
 409              	 .cfi_startproc
 410              	 
 411              	 
 412              	.LVL38:
 241:C:/Users/Yushev/git/optiga-trust-qi/projects/xmc4700_relax_kit/common/Libraries/XMCLib/src\xmc_fce.c ****   uint16_t counter = 0U;
 242:C:/Users/Yushev/git/optiga-trust-qi/projects/xmc4700_relax_kit/common/Libraries/XMCLib/src\xmc_fce.c ****   uint16_t bytecounter = 0U;
 243:C:/Users/Yushev/git/optiga-trust-qi/projects/xmc4700_relax_kit/common/Libraries/XMCLib/src\xmc_fce.c ****  
 244:C:/Users/Yushev/git/optiga-trust-qi/projects/xmc4700_relax_kit/common/Libraries/XMCLib/src\xmc_fce.c ****   if ((length & 0x03U) == 0)
 413              	 .loc 1 244 0
 414 0000 9307     	 lsls r3,r2,#30
 240:C:/Users/Yushev/git/optiga-trust-qi/projects/xmc4700_relax_kit/common/Libraries/XMCLib/src\xmc_fce.c ****   uint16_t counter = 0U;
 415              	 .loc 1 240 0
 416 0002 F0B5     	 push {r4,r5,r6,r7,lr}
 417              	.LCFI8:
 418              	 .cfi_def_cfa_offset 20
 419              	 .cfi_offset 4,-20
 420              	 .cfi_offset 5,-16
 421              	 .cfi_offset 6,-12
 422              	 .cfi_offset 7,-8
 423              	 .cfi_offset 14,-4
 424              	 .loc 1 244 0
 425 0004 20D1     	 bne .L35
 426 0006 9508     	 lsrs r5,r2,#2
 427 0008 0C46     	 mov r4,r1
 428 000a 01EB8506 	 add r6,r1,r5,lsl#2
 429              	.LVL39:
 430              	.L37:
 245:C:/Users/Yushev/git/optiga-trust-qi/projects/xmc4700_relax_kit/common/Libraries/XMCLib/src\xmc_fce.c ****   {
 246:C:/Users/Yushev/git/optiga-trust-qi/projects/xmc4700_relax_kit/common/Libraries/XMCLib/src\xmc_fce.c ****     for (counter = 0U; counter < (length >> 2U); counter++)
 431              	 .loc 1 246 0 discriminator 1
 432 000e B442     	 cmp r4,r6
 433 0010 4FF00003 	 mov r3,#0
 434 0014 02D0     	 beq .L42
 247:C:/Users/Yushev/git/optiga-trust-qi/projects/xmc4700_relax_kit/common/Libraries/XMCLib/src\xmc_fce.c ****     {
 248:C:/Users/Yushev/git/optiga-trust-qi/projects/xmc4700_relax_kit/common/Libraries/XMCLib/src\xmc_fce.c ****       outbuffer[counter] = 0U;
 435              	 .loc 1 248 0 discriminator 3
 436 0016 44F8043B 	 str r3,[r4],#4
 437 001a F8E7     	 b .L37
 438              	.L42:
 249:C:/Users/Yushev/git/optiga-trust-qi/projects/xmc4700_relax_kit/common/Libraries/XMCLib/src\xmc_fce.c ****     }
 250:C:/Users/Yushev/git/optiga-trust-qi/projects/xmc4700_relax_kit/common/Libraries/XMCLib/src\xmc_fce.c **** 
 251:C:/Users/Yushev/git/optiga-trust-qi/projects/xmc4700_relax_kit/common/Libraries/XMCLib/src\xmc_fce.c ****     outbuffer[counter] = 0U;
 439              	 .loc 1 251 0
 440 001c 41F82530 	 str r3,[r1,r5,lsl#2]
 441              	.LVL40:
 442              	.L39:
 443 0020 9D00     	 lsls r5,r3,#2
 444 0022 ADB2     	 uxth r5,r5
 445              	.LVL41:
 252:C:/Users/Yushev/git/optiga-trust-qi/projects/xmc4700_relax_kit/common/Libraries/XMCLib/src\xmc_fce.c ****     counter = 0U;
 253:C:/Users/Yushev/git/optiga-trust-qi/projects/xmc4700_relax_kit/common/Libraries/XMCLib/src\xmc_fce.c **** 
 254:C:/Users/Yushev/git/optiga-trust-qi/projects/xmc4700_relax_kit/common/Libraries/XMCLib/src\xmc_fce.c ****     while (length)
 446              	 .loc 1 254 0
 447 0024 AA42     	 cmp r2,r5
 448 0026 0FD0     	 beq .L35
 255:C:/Users/Yushev/git/optiga-trust-qi/projects/xmc4700_relax_kit/common/Libraries/XMCLib/src\xmc_fce.c ****     {
 256:C:/Users/Yushev/git/optiga-trust-qi/projects/xmc4700_relax_kit/common/Libraries/XMCLib/src\xmc_fce.c ****       outbuffer[counter] = ((uint32_t)inbuffer[bytecounter]      << 24U) |
 257:C:/Users/Yushev/git/optiga-trust-qi/projects/xmc4700_relax_kit/common/Libraries/XMCLib/src\xmc_fce.c ****                            ((uint32_t)inbuffer[bytecounter + 1U] << 16U) |
 258:C:/Users/Yushev/git/optiga-trust-qi/projects/xmc4700_relax_kit/common/Libraries/XMCLib/src\xmc_fce.c ****                            ((uint32_t)inbuffer[bytecounter + 2U] <<  8U) |
 259:C:/Users/Yushev/git/optiga-trust-qi/projects/xmc4700_relax_kit/common/Libraries/XMCLib/src\xmc_fce.c ****                            (inbuffer[bytecounter + 3U]);
 449              	 .loc 1 259 0
 450 0028 4619     	 adds r6,r0,r5
 256:C:/Users/Yushev/git/optiga-trust-qi/projects/xmc4700_relax_kit/common/Libraries/XMCLib/src\xmc_fce.c ****                            ((uint32_t)inbuffer[bytecounter + 1U] << 16U) |
 451              	 .loc 1 256 0
 452 002a 455D     	 ldrb r5,[r0,r5]
 453              	.LVL42:
 258:C:/Users/Yushev/git/optiga-trust-qi/projects/xmc4700_relax_kit/common/Libraries/XMCLib/src\xmc_fce.c ****                            (inbuffer[bytecounter + 3U]);
 454              	 .loc 1 258 0
 455 002c F478     	 ldrb r4,[r6,#3]
 456 002e 44EA0564 	 orr r4,r4,r5,lsl#24
 257:C:/Users/Yushev/git/optiga-trust-qi/projects/xmc4700_relax_kit/common/Libraries/XMCLib/src\xmc_fce.c ****                            ((uint32_t)inbuffer[bytecounter + 2U] <<  8U) |
 457              	 .loc 1 257 0
 458 0032 7578     	 ldrb r5,[r6,#1]
 459 0034 44EA0544 	 orr r4,r4,r5,lsl#16
 258:C:/Users/Yushev/git/optiga-trust-qi/projects/xmc4700_relax_kit/common/Libraries/XMCLib/src\xmc_fce.c ****                            (inbuffer[bytecounter + 3U]);
 460              	 .loc 1 258 0
 461 0038 B578     	 ldrb r5,[r6,#2]
 256:C:/Users/Yushev/git/optiga-trust-qi/projects/xmc4700_relax_kit/common/Libraries/XMCLib/src\xmc_fce.c ****                            ((uint32_t)inbuffer[bytecounter + 1U] << 16U) |
 462              	 .loc 1 256 0
 463 003a 9FB2     	 uxth r7,r3
 258:C:/Users/Yushev/git/optiga-trust-qi/projects/xmc4700_relax_kit/common/Libraries/XMCLib/src\xmc_fce.c ****                            (inbuffer[bytecounter + 3U]);
 464              	 .loc 1 258 0
 465 003c 44EA0524 	 orr r4,r4,r5,lsl#8
 256:C:/Users/Yushev/git/optiga-trust-qi/projects/xmc4700_relax_kit/common/Libraries/XMCLib/src\xmc_fce.c ****                            ((uint32_t)inbuffer[bytecounter + 1U] << 16U) |
 466              	 .loc 1 256 0
 467 0040 41F82740 	 str r4,[r1,r7,lsl#2]
 468              	.LVL43:
 469 0044 0133     	 adds r3,r3,#1
 470              	.LVL44:
 471 0046 EBE7     	 b .L39
 472              	.LVL45:
 473              	.L35:
 474 0048 F0BD     	 pop {r4,r5,r6,r7,pc}
 475              	 .cfi_endproc
 476              	.LFE193:
 478              	 .text
 479              	.Letext0:
 480              	 .file 2 "c:\\users\\yushev\\dave_4-4-2_32bit_2018-02-23\\dave-ide-4.4.2-32bit\\eclipse\\arm-gcc-49\\arm-none-eabi\\include\\machine\\_default_types.h"
 481              	 .file 3 "c:\\users\\yushev\\dave_4-4-2_32bit_2018-02-23\\dave-ide-4.4.2-32bit\\eclipse\\arm-gcc-49\\arm-none-eabi\\include\\stdint.h"
 482              	 .file 4 "C:/Users/Yushev/git/optiga-trust-qi/projects/xmc4700_relax_kit/common/Libraries/CMSIS/Infineon/XMC4700_series/Include/XMC4700.h"
 483              	 .file 5 "C:/Users/Yushev/git/optiga-trust-qi/projects/xmc4700_relax_kit/common/Libraries/XMCLib/inc/xmc_fce.h"
 484              	 .file 6 "C:/Users/Yushev/git/optiga-trust-qi/projects/xmc4700_relax_kit/common/Libraries/XMCLib/inc/xmc4_scu.h"
 485              	 .file 7 "C:/Users/Yushev/git/optiga-trust-qi/projects/xmc4700_relax_kit/common/Libraries/CMSIS/Include/core_cm4.h"
 486              	 .file 8 "C:/Users/Yushev/git/optiga-trust-qi/projects/xmc4700_relax_kit/common/Libraries/CMSIS/Infineon/XMC4700_series/Include/system_XMC4700.h"
 487              	 .file 9 "C:/Users/Yushev/git/optiga-trust-qi/projects/xmc4700_relax_kit/common/Libraries/XMCLib/inc/xmc_scu.h"