   1              	 .syntax unified
   2              	 .cpu cortex-m4
   3              	 .eabi_attribute 27,3
   4              	 .fpu fpv4-sp-d16
   5              	 .eabi_attribute 20,1
   6              	 .eabi_attribute 21,1
   7              	 .eabi_attribute 23,3
   8              	 .eabi_attribute 24,1
   9              	 .eabi_attribute 25,1
  10              	 .eabi_attribute 26,1
  11              	 .eabi_attribute 30,4
  12              	 .eabi_attribute 34,1
  13              	 .eabi_attribute 18,4
  14              	 .thumb
  15              	 .file "xmc_ccu8.c"
  16              	 .text
  17              	.Ltext0:
  18              	 .cfi_sections .debug_frame
  19              	 .section .text.XMC_CCU8_EnableModule,"ax",%progbits
  20              	 .align 1
  21              	 .global XMC_CCU8_EnableModule
  22              	 .thumb
  23              	 .thumb_func
  25              	XMC_CCU8_EnableModule:
  26              	.LFB229:
  27              	 .file 1 "C:/Users/Yushev/git/optiga-trust-qi/projects/xmc4700_relax_kit/common/Libraries/XMCLib/src/xmc_ccu8.c"
   1:C:/Users/Yushev/git/optiga-trust-qi/projects/xmc4700_relax_kit/common/Libraries/XMCLib/src\xmc_ccu8.c **** /**
   2:C:/Users/Yushev/git/optiga-trust-qi/projects/xmc4700_relax_kit/common/Libraries/XMCLib/src\xmc_ccu8.c ****  * @file xmc_ccu8.c
   3:C:/Users/Yushev/git/optiga-trust-qi/projects/xmc4700_relax_kit/common/Libraries/XMCLib/src\xmc_ccu8.c ****  * @date 2017-04-27
   4:C:/Users/Yushev/git/optiga-trust-qi/projects/xmc4700_relax_kit/common/Libraries/XMCLib/src\xmc_ccu8.c ****  *
   5:C:/Users/Yushev/git/optiga-trust-qi/projects/xmc4700_relax_kit/common/Libraries/XMCLib/src\xmc_ccu8.c ****  * @cond
   6:C:/Users/Yushev/git/optiga-trust-qi/projects/xmc4700_relax_kit/common/Libraries/XMCLib/src\xmc_ccu8.c ****  **************************************************************************************************
   7:C:/Users/Yushev/git/optiga-trust-qi/projects/xmc4700_relax_kit/common/Libraries/XMCLib/src\xmc_ccu8.c ****  * XMClib v2.1.20 - XMC Peripheral Driver Library 
   8:C:/Users/Yushev/git/optiga-trust-qi/projects/xmc4700_relax_kit/common/Libraries/XMCLib/src\xmc_ccu8.c ****  *
   9:C:/Users/Yushev/git/optiga-trust-qi/projects/xmc4700_relax_kit/common/Libraries/XMCLib/src\xmc_ccu8.c ****  * Copyright (c) 2015-2018, Infineon Technologies AG
  10:C:/Users/Yushev/git/optiga-trust-qi/projects/xmc4700_relax_kit/common/Libraries/XMCLib/src\xmc_ccu8.c ****  * All rights reserved.                        
  11:C:/Users/Yushev/git/optiga-trust-qi/projects/xmc4700_relax_kit/common/Libraries/XMCLib/src\xmc_ccu8.c ****  *                                             
  12:C:/Users/Yushev/git/optiga-trust-qi/projects/xmc4700_relax_kit/common/Libraries/XMCLib/src\xmc_ccu8.c ****  * Redistribution and use in source and binary forms, with or without modification,are permitted pr
  13:C:/Users/Yushev/git/optiga-trust-qi/projects/xmc4700_relax_kit/common/Libraries/XMCLib/src\xmc_ccu8.c ****  * following conditions are met:   
  14:C:/Users/Yushev/git/optiga-trust-qi/projects/xmc4700_relax_kit/common/Libraries/XMCLib/src\xmc_ccu8.c ****  *                                                                              
  15:C:/Users/Yushev/git/optiga-trust-qi/projects/xmc4700_relax_kit/common/Libraries/XMCLib/src\xmc_ccu8.c ****  * Redistributions of source code must retain the above copyright notice, this list of conditions a
  16:C:/Users/Yushev/git/optiga-trust-qi/projects/xmc4700_relax_kit/common/Libraries/XMCLib/src\xmc_ccu8.c ****  * disclaimer.                        
  17:C:/Users/Yushev/git/optiga-trust-qi/projects/xmc4700_relax_kit/common/Libraries/XMCLib/src\xmc_ccu8.c ****  * 
  18:C:/Users/Yushev/git/optiga-trust-qi/projects/xmc4700_relax_kit/common/Libraries/XMCLib/src\xmc_ccu8.c ****  * Redistributions in binary form must reproduce the above copyright notice, this list of condition
  19:C:/Users/Yushev/git/optiga-trust-qi/projects/xmc4700_relax_kit/common/Libraries/XMCLib/src\xmc_ccu8.c ****  * disclaimer in the documentation and/or other materials provided with the distribution.          
  20:C:/Users/Yushev/git/optiga-trust-qi/projects/xmc4700_relax_kit/common/Libraries/XMCLib/src\xmc_ccu8.c ****  * 
  21:C:/Users/Yushev/git/optiga-trust-qi/projects/xmc4700_relax_kit/common/Libraries/XMCLib/src\xmc_ccu8.c ****  * Neither the name of the copyright holders nor the names of its contributors may be used to endor
  22:C:/Users/Yushev/git/optiga-trust-qi/projects/xmc4700_relax_kit/common/Libraries/XMCLib/src\xmc_ccu8.c ****  * products derived from this software without specific prior written permission.                  
  23:C:/Users/Yushev/git/optiga-trust-qi/projects/xmc4700_relax_kit/common/Libraries/XMCLib/src\xmc_ccu8.c ****  *                                                                              
  24:C:/Users/Yushev/git/optiga-trust-qi/projects/xmc4700_relax_kit/common/Libraries/XMCLib/src\xmc_ccu8.c ****  * THIS SOFTWARE IS PROVIDED BY THE COPYRIGHT HOLDERS AND CONTRIBUTORS "AS IS" AND ANY EXPRESS OR I
  25:C:/Users/Yushev/git/optiga-trust-qi/projects/xmc4700_relax_kit/common/Libraries/XMCLib/src\xmc_ccu8.c ****  * INCLUDING, BUT NOT LIMITED TO, THE IMPLIED WARRANTIES OF MERCHANTABILITY AND FITNESS FOR A PARTI
  26:C:/Users/Yushev/git/optiga-trust-qi/projects/xmc4700_relax_kit/common/Libraries/XMCLib/src\xmc_ccu8.c ****  * DISCLAIMED. IN NO EVENT SHALL THE COPYRIGHT HOLDER OR CONTRIBUTORS BE LIABLE  FOR ANY DIRECT, IN
  27:C:/Users/Yushev/git/optiga-trust-qi/projects/xmc4700_relax_kit/common/Libraries/XMCLib/src\xmc_ccu8.c ****  * SPECIAL, EXEMPLARY, OR CONSEQUENTIAL DAMAGES (INCLUDING, BUT NOT LIMITED TO, PROCUREMENT OF SUBS
  28:C:/Users/Yushev/git/optiga-trust-qi/projects/xmc4700_relax_kit/common/Libraries/XMCLib/src\xmc_ccu8.c ****  * SERVICES; LOSS OF USE, DATA, OR PROFITS; OR BUSINESS INTERRUPTION) HOWEVER CAUSED AND ON ANY THE
  29:C:/Users/Yushev/git/optiga-trust-qi/projects/xmc4700_relax_kit/common/Libraries/XMCLib/src\xmc_ccu8.c ****  * WHETHER IN CONTRACT, STRICT LIABILITY,OR TORT (INCLUDING NEGLIGENCE OR OTHERWISE) ARISING IN ANY
  30:C:/Users/Yushev/git/optiga-trust-qi/projects/xmc4700_relax_kit/common/Libraries/XMCLib/src\xmc_ccu8.c ****  * OF THIS SOFTWARE, EVEN IF ADVISED OF THE POSSIBILITY OF SUCH DAMAGE.                            
  31:C:/Users/Yushev/git/optiga-trust-qi/projects/xmc4700_relax_kit/common/Libraries/XMCLib/src\xmc_ccu8.c ****  *                                                                              
  32:C:/Users/Yushev/git/optiga-trust-qi/projects/xmc4700_relax_kit/common/Libraries/XMCLib/src\xmc_ccu8.c ****  * To improve the quality of the software, users are encouraged to share modifications, enhancement
  33:C:/Users/Yushev/git/optiga-trust-qi/projects/xmc4700_relax_kit/common/Libraries/XMCLib/src\xmc_ccu8.c ****  * Infineon Technologies AG dave@infineon.com).                                                    
  34:C:/Users/Yushev/git/optiga-trust-qi/projects/xmc4700_relax_kit/common/Libraries/XMCLib/src\xmc_ccu8.c ****  **************************************************************************************************
  35:C:/Users/Yushev/git/optiga-trust-qi/projects/xmc4700_relax_kit/common/Libraries/XMCLib/src\xmc_ccu8.c ****  *
  36:C:/Users/Yushev/git/optiga-trust-qi/projects/xmc4700_relax_kit/common/Libraries/XMCLib/src\xmc_ccu8.c ****  * Change History
  37:C:/Users/Yushev/git/optiga-trust-qi/projects/xmc4700_relax_kit/common/Libraries/XMCLib/src\xmc_ccu8.c ****  * --------------
  38:C:/Users/Yushev/git/optiga-trust-qi/projects/xmc4700_relax_kit/common/Libraries/XMCLib/src\xmc_ccu8.c ****  *
  39:C:/Users/Yushev/git/optiga-trust-qi/projects/xmc4700_relax_kit/common/Libraries/XMCLib/src\xmc_ccu8.c ****  * 2015-02-20:
  40:C:/Users/Yushev/git/optiga-trust-qi/projects/xmc4700_relax_kit/common/Libraries/XMCLib/src\xmc_ccu8.c ****  *     - Initial <br>
  41:C:/Users/Yushev/git/optiga-trust-qi/projects/xmc4700_relax_kit/common/Libraries/XMCLib/src\xmc_ccu8.c ****  *
  42:C:/Users/Yushev/git/optiga-trust-qi/projects/xmc4700_relax_kit/common/Libraries/XMCLib/src\xmc_ccu8.c ****  * 2015-06-20:
  43:C:/Users/Yushev/git/optiga-trust-qi/projects/xmc4700_relax_kit/common/Libraries/XMCLib/src\xmc_ccu8.c ****  *     - Removed definition of GetDriverVersion API <br>
  44:C:/Users/Yushev/git/optiga-trust-qi/projects/xmc4700_relax_kit/common/Libraries/XMCLib/src\xmc_ccu8.c ****  *     - Added XMC_CCU8_SLICE_LoadSelector() API, to select which compare register value has to be 
  45:C:/Users/Yushev/git/optiga-trust-qi/projects/xmc4700_relax_kit/common/Libraries/XMCLib/src\xmc_ccu8.c ****  *       during external load event. 
  46:C:/Users/Yushev/git/optiga-trust-qi/projects/xmc4700_relax_kit/common/Libraries/XMCLib/src\xmc_ccu8.c ****  *
  47:C:/Users/Yushev/git/optiga-trust-qi/projects/xmc4700_relax_kit/common/Libraries/XMCLib/src\xmc_ccu8.c ****  * 2015-07-24:
  48:C:/Users/Yushev/git/optiga-trust-qi/projects/xmc4700_relax_kit/common/Libraries/XMCLib/src\xmc_ccu8.c ****  *     - XMC_CCU8_SLICE_ConfigureStatusBitOverrideEvent() is updated to support XMC14 device. <br>
  49:C:/Users/Yushev/git/optiga-trust-qi/projects/xmc4700_relax_kit/common/Libraries/XMCLib/src\xmc_ccu8.c ****  *
  50:C:/Users/Yushev/git/optiga-trust-qi/projects/xmc4700_relax_kit/common/Libraries/XMCLib/src\xmc_ccu8.c ****  * 2015-08-17:
  51:C:/Users/Yushev/git/optiga-trust-qi/projects/xmc4700_relax_kit/common/Libraries/XMCLib/src\xmc_ccu8.c ****  *     - XMC_CCU8_SLICE_CHC_CONFIG_MASK is not applicable to XMC14 devices. <br>
  52:C:/Users/Yushev/git/optiga-trust-qi/projects/xmc4700_relax_kit/common/Libraries/XMCLib/src\xmc_ccu8.c ****  *     - Start of prescaler XMC_CCU8_StartPrescaler() is invoked in XMC_CCU8_Init() API. <br>
  53:C:/Users/Yushev/git/optiga-trust-qi/projects/xmc4700_relax_kit/common/Libraries/XMCLib/src\xmc_ccu8.c ****  *     - In XMC_CCU8_SLICE_CompareInit(), CHC register is updated according to the device. <br>
  54:C:/Users/Yushev/git/optiga-trust-qi/projects/xmc4700_relax_kit/common/Libraries/XMCLib/src\xmc_ccu8.c ****  *     - Bug fix XMC_CCU8_SLICE_ConfigureEvent() during the level setting for XMC14 devices. <br>
  55:C:/Users/Yushev/git/optiga-trust-qi/projects/xmc4700_relax_kit/common/Libraries/XMCLib/src\xmc_ccu8.c ****  *     - XMC_CCU8_EnableShadowTransfer() definition is removed, since the API is made as inline. <b
  56:C:/Users/Yushev/git/optiga-trust-qi/projects/xmc4700_relax_kit/common/Libraries/XMCLib/src\xmc_ccu8.c ****  * 
  57:C:/Users/Yushev/git/optiga-trust-qi/projects/xmc4700_relax_kit/common/Libraries/XMCLib/src\xmc_ccu8.c ****  * 2015-10-07:
  58:C:/Users/Yushev/git/optiga-trust-qi/projects/xmc4700_relax_kit/common/Libraries/XMCLib/src\xmc_ccu8.c ****  *     - XMC_CCU8_SLICE_GetEvent() is made as inline.
  59:C:/Users/Yushev/git/optiga-trust-qi/projects/xmc4700_relax_kit/common/Libraries/XMCLib/src\xmc_ccu8.c ****  *     - DOC updates for the newly added APIs.
  60:C:/Users/Yushev/git/optiga-trust-qi/projects/xmc4700_relax_kit/common/Libraries/XMCLib/src\xmc_ccu8.c ****  *
  61:C:/Users/Yushev/git/optiga-trust-qi/projects/xmc4700_relax_kit/common/Libraries/XMCLib/src\xmc_ccu8.c ****  * 2017-02-25:
  62:C:/Users/Yushev/git/optiga-trust-qi/projects/xmc4700_relax_kit/common/Libraries/XMCLib/src\xmc_ccu8.c ****  *     - XMC_CCU8_lAssertReset(), XMC_CCU8_lDeassertReset(), XMC_CCU8_lGateClock() and XMC_CCU8_lUn
  63:C:/Users/Yushev/git/optiga-trust-qi/projects/xmc4700_relax_kit/common/Libraries/XMCLib/src\xmc_ccu8.c ****  *
  64:C:/Users/Yushev/git/optiga-trust-qi/projects/xmc4700_relax_kit/common/Libraries/XMCLib/src\xmc_ccu8.c ****  * 2017-04-27:
  65:C:/Users/Yushev/git/optiga-trust-qi/projects/xmc4700_relax_kit/common/Libraries/XMCLib/src\xmc_ccu8.c ****  *     - XMC_CCU8_SLICE_SetPrescaler() changed div_val parameter to type XMC_CCU8_SLICE_PRESCALER_t
  66:C:/Users/Yushev/git/optiga-trust-qi/projects/xmc4700_relax_kit/common/Libraries/XMCLib/src\xmc_ccu8.c ****  *
  67:C:/Users/Yushev/git/optiga-trust-qi/projects/xmc4700_relax_kit/common/Libraries/XMCLib/src\xmc_ccu8.c ****  * @endcond
  68:C:/Users/Yushev/git/optiga-trust-qi/projects/xmc4700_relax_kit/common/Libraries/XMCLib/src\xmc_ccu8.c ****  */
  69:C:/Users/Yushev/git/optiga-trust-qi/projects/xmc4700_relax_kit/common/Libraries/XMCLib/src\xmc_ccu8.c **** /**************************************************************************************************
  70:C:/Users/Yushev/git/optiga-trust-qi/projects/xmc4700_relax_kit/common/Libraries/XMCLib/src\xmc_ccu8.c ****  * HEADER FILES
  71:C:/Users/Yushev/git/optiga-trust-qi/projects/xmc4700_relax_kit/common/Libraries/XMCLib/src\xmc_ccu8.c ****  **************************************************************************************************
  72:C:/Users/Yushev/git/optiga-trust-qi/projects/xmc4700_relax_kit/common/Libraries/XMCLib/src\xmc_ccu8.c **** #include "xmc_ccu8.h"
  73:C:/Users/Yushev/git/optiga-trust-qi/projects/xmc4700_relax_kit/common/Libraries/XMCLib/src\xmc_ccu8.c **** 
  74:C:/Users/Yushev/git/optiga-trust-qi/projects/xmc4700_relax_kit/common/Libraries/XMCLib/src\xmc_ccu8.c **** #if defined(CCU80)
  75:C:/Users/Yushev/git/optiga-trust-qi/projects/xmc4700_relax_kit/common/Libraries/XMCLib/src\xmc_ccu8.c **** #include "xmc_scu.h"
  76:C:/Users/Yushev/git/optiga-trust-qi/projects/xmc4700_relax_kit/common/Libraries/XMCLib/src\xmc_ccu8.c **** 
  77:C:/Users/Yushev/git/optiga-trust-qi/projects/xmc4700_relax_kit/common/Libraries/XMCLib/src\xmc_ccu8.c **** /**************************************************************************************************
  78:C:/Users/Yushev/git/optiga-trust-qi/projects/xmc4700_relax_kit/common/Libraries/XMCLib/src\xmc_ccu8.c ****  * MACROS
  79:C:/Users/Yushev/git/optiga-trust-qi/projects/xmc4700_relax_kit/common/Libraries/XMCLib/src\xmc_ccu8.c ****  **************************************************************************************************
  80:C:/Users/Yushev/git/optiga-trust-qi/projects/xmc4700_relax_kit/common/Libraries/XMCLib/src\xmc_ccu8.c **** #define XMC_CCU8_NUM_SLICES_PER_MODULE          (4U)
  81:C:/Users/Yushev/git/optiga-trust-qi/projects/xmc4700_relax_kit/common/Libraries/XMCLib/src\xmc_ccu8.c **** #define XMC_CCU8_SLICE_DITHER_PERIOD_MASK       (1U)
  82:C:/Users/Yushev/git/optiga-trust-qi/projects/xmc4700_relax_kit/common/Libraries/XMCLib/src\xmc_ccu8.c **** #define XMC_CCU8_SLICE_DITHER_DUTYCYCLE_MASK    (2U)
  83:C:/Users/Yushev/git/optiga-trust-qi/projects/xmc4700_relax_kit/common/Libraries/XMCLib/src\xmc_ccu8.c **** #define XMC_CCU8_SLICE_EVENT_EDGE_CONFIG_MASK   (3U)
  84:C:/Users/Yushev/git/optiga-trust-qi/projects/xmc4700_relax_kit/common/Libraries/XMCLib/src\xmc_ccu8.c **** #define XMC_CCU8_SLICE_EVENT_LEVEL_CONFIG_MASK  (1U)
  85:C:/Users/Yushev/git/optiga-trust-qi/projects/xmc4700_relax_kit/common/Libraries/XMCLib/src\xmc_ccu8.c **** #define XMC_CCU8_SLICE_EVENT_FILTER_CONFIG_MASK (3U)
  86:C:/Users/Yushev/git/optiga-trust-qi/projects/xmc4700_relax_kit/common/Libraries/XMCLib/src\xmc_ccu8.c **** #if defined(CCU8V3) /* Defined for XMC1400 devices */
  87:C:/Users/Yushev/git/optiga-trust-qi/projects/xmc4700_relax_kit/common/Libraries/XMCLib/src\xmc_ccu8.c **** #define XMC_CCU8_SLICE_EVENT_INPUT_CONFIG_MASK  CCU8_CC8_INS1_EV0IS_Msk
  88:C:/Users/Yushev/git/optiga-trust-qi/projects/xmc4700_relax_kit/common/Libraries/XMCLib/src\xmc_ccu8.c **** #else
  89:C:/Users/Yushev/git/optiga-trust-qi/projects/xmc4700_relax_kit/common/Libraries/XMCLib/src\xmc_ccu8.c **** #define XMC_CCU8_SLICE_EVENT_INPUT_CONFIG_MASK  CCU8_CC8_INS_EV0IS_Msk
  90:C:/Users/Yushev/git/optiga-trust-qi/projects/xmc4700_relax_kit/common/Libraries/XMCLib/src\xmc_ccu8.c **** #endif
  91:C:/Users/Yushev/git/optiga-trust-qi/projects/xmc4700_relax_kit/common/Libraries/XMCLib/src\xmc_ccu8.c **** #define XMC_CCU8_GIDLC_CLOCK_MASK               (15U)
  92:C:/Users/Yushev/git/optiga-trust-qi/projects/xmc4700_relax_kit/common/Libraries/XMCLib/src\xmc_ccu8.c **** #define XMC_CCU8_GCSS_SLICE0_MASK               (1U)
  93:C:/Users/Yushev/git/optiga-trust-qi/projects/xmc4700_relax_kit/common/Libraries/XMCLib/src\xmc_ccu8.c **** #define XMC_CCU8_GCSS_SLICE1_MASK               (16U)
  94:C:/Users/Yushev/git/optiga-trust-qi/projects/xmc4700_relax_kit/common/Libraries/XMCLib/src\xmc_ccu8.c **** #define XMC_CCU8_GCSS_SLICE2_MASK               (256U)
  95:C:/Users/Yushev/git/optiga-trust-qi/projects/xmc4700_relax_kit/common/Libraries/XMCLib/src\xmc_ccu8.c **** #define XMC_CCU8_GCSS_SLICE3_MASK               (4096U)
  96:C:/Users/Yushev/git/optiga-trust-qi/projects/xmc4700_relax_kit/common/Libraries/XMCLib/src\xmc_ccu8.c **** #define XMC_CCU8_SLICE_DEAD_TIME_CONFIG_MASK    (63U)
  97:C:/Users/Yushev/git/optiga-trust-qi/projects/xmc4700_relax_kit/common/Libraries/XMCLib/src\xmc_ccu8.c **** #if !defined(CCU8V3) /* Defined for all devices except XMC1400 */
  98:C:/Users/Yushev/git/optiga-trust-qi/projects/xmc4700_relax_kit/common/Libraries/XMCLib/src\xmc_ccu8.c **** #define XMC_CCU8_SLICE_CHC_CONFIG_MASK          (20U)
  99:C:/Users/Yushev/git/optiga-trust-qi/projects/xmc4700_relax_kit/common/Libraries/XMCLib/src\xmc_ccu8.c **** #endif
 100:C:/Users/Yushev/git/optiga-trust-qi/projects/xmc4700_relax_kit/common/Libraries/XMCLib/src\xmc_ccu8.c **** 
 101:C:/Users/Yushev/git/optiga-trust-qi/projects/xmc4700_relax_kit/common/Libraries/XMCLib/src\xmc_ccu8.c **** #define XMC_CCU8_SLICE_CHECK_DTC_DIV(div) \
 102:C:/Users/Yushev/git/optiga-trust-qi/projects/xmc4700_relax_kit/common/Libraries/XMCLib/src\xmc_ccu8.c ****     ((div == XMC_CCU8_SLICE_DTC_DIV_1) || \
 103:C:/Users/Yushev/git/optiga-trust-qi/projects/xmc4700_relax_kit/common/Libraries/XMCLib/src\xmc_ccu8.c ****      (div == XMC_CCU8_SLICE_DTC_DIV_2) || \
 104:C:/Users/Yushev/git/optiga-trust-qi/projects/xmc4700_relax_kit/common/Libraries/XMCLib/src\xmc_ccu8.c ****      (div == XMC_CCU8_SLICE_DTC_DIV_4) || \
 105:C:/Users/Yushev/git/optiga-trust-qi/projects/xmc4700_relax_kit/common/Libraries/XMCLib/src\xmc_ccu8.c ****      (div == XMC_CCU8_SLICE_DTC_DIV_8))
 106:C:/Users/Yushev/git/optiga-trust-qi/projects/xmc4700_relax_kit/common/Libraries/XMCLib/src\xmc_ccu8.c **** 
 107:C:/Users/Yushev/git/optiga-trust-qi/projects/xmc4700_relax_kit/common/Libraries/XMCLib/src\xmc_ccu8.c **** #define XMC_CCU8_SLICE_CHECK_CLOCK(clock) \
 108:C:/Users/Yushev/git/optiga-trust-qi/projects/xmc4700_relax_kit/common/Libraries/XMCLib/src\xmc_ccu8.c ****     ((clock == XMC_CCU8_CLOCK_SCU)        || \
 109:C:/Users/Yushev/git/optiga-trust-qi/projects/xmc4700_relax_kit/common/Libraries/XMCLib/src\xmc_ccu8.c ****      (clock == XMC_CCU8_CLOCK_EXTERNAL_A) || \
 110:C:/Users/Yushev/git/optiga-trust-qi/projects/xmc4700_relax_kit/common/Libraries/XMCLib/src\xmc_ccu8.c ****      (clock == XMC_CCU8_CLOCK_EXTERNAL_B) || \
 111:C:/Users/Yushev/git/optiga-trust-qi/projects/xmc4700_relax_kit/common/Libraries/XMCLib/src\xmc_ccu8.c ****      (clock == XMC_CCU8_CLOCK_EXTERNAL_C))
 112:C:/Users/Yushev/git/optiga-trust-qi/projects/xmc4700_relax_kit/common/Libraries/XMCLib/src\xmc_ccu8.c **** 
 113:C:/Users/Yushev/git/optiga-trust-qi/projects/xmc4700_relax_kit/common/Libraries/XMCLib/src\xmc_ccu8.c **** #define XMC_CCU8_SLICE_CHECK_OUTPUT(out) \
 114:C:/Users/Yushev/git/optiga-trust-qi/projects/xmc4700_relax_kit/common/Libraries/XMCLib/src\xmc_ccu8.c ****     ((out == XMC_CCU8_SLICE_OUTPUT_0) || \
 115:C:/Users/Yushev/git/optiga-trust-qi/projects/xmc4700_relax_kit/common/Libraries/XMCLib/src\xmc_ccu8.c ****      (out == XMC_CCU8_SLICE_OUTPUT_1) || \
 116:C:/Users/Yushev/git/optiga-trust-qi/projects/xmc4700_relax_kit/common/Libraries/XMCLib/src\xmc_ccu8.c ****      (out == XMC_CCU8_SLICE_OUTPUT_2) || \
 117:C:/Users/Yushev/git/optiga-trust-qi/projects/xmc4700_relax_kit/common/Libraries/XMCLib/src\xmc_ccu8.c ****      (out == XMC_CCU8_SLICE_OUTPUT_3))
 118:C:/Users/Yushev/git/optiga-trust-qi/projects/xmc4700_relax_kit/common/Libraries/XMCLib/src\xmc_ccu8.c **** 
 119:C:/Users/Yushev/git/optiga-trust-qi/projects/xmc4700_relax_kit/common/Libraries/XMCLib/src\xmc_ccu8.c **** #define XMC_CCU8_SLICE_CHECK_END_MODE(end_mode) \
 120:C:/Users/Yushev/git/optiga-trust-qi/projects/xmc4700_relax_kit/common/Libraries/XMCLib/src\xmc_ccu8.c ****     ((end_mode == XMC_CCU8_SLICE_END_MODE_TIMER_STOP) || \
 121:C:/Users/Yushev/git/optiga-trust-qi/projects/xmc4700_relax_kit/common/Libraries/XMCLib/src\xmc_ccu8.c ****      (end_mode == XMC_CCU8_SLICE_END_MODE_TIMER_CLEAR) || \
 122:C:/Users/Yushev/git/optiga-trust-qi/projects/xmc4700_relax_kit/common/Libraries/XMCLib/src\xmc_ccu8.c ****      (end_mode == XMC_CCU8_SLICE_END_MODE_TIMER_STOP_CLEAR))
 123:C:/Users/Yushev/git/optiga-trust-qi/projects/xmc4700_relax_kit/common/Libraries/XMCLib/src\xmc_ccu8.c **** 
 124:C:/Users/Yushev/git/optiga-trust-qi/projects/xmc4700_relax_kit/common/Libraries/XMCLib/src\xmc_ccu8.c **** #define XMC_CCU8_SLICE_CHECK_EVENT_ID(event_id) \
 125:C:/Users/Yushev/git/optiga-trust-qi/projects/xmc4700_relax_kit/common/Libraries/XMCLib/src\xmc_ccu8.c ****     ((event_id == XMC_CCU8_SLICE_EVENT_NONE)|| \
 126:C:/Users/Yushev/git/optiga-trust-qi/projects/xmc4700_relax_kit/common/Libraries/XMCLib/src\xmc_ccu8.c ****      (event_id == XMC_CCU8_SLICE_EVENT_0)   || \
 127:C:/Users/Yushev/git/optiga-trust-qi/projects/xmc4700_relax_kit/common/Libraries/XMCLib/src\xmc_ccu8.c ****      (event_id == XMC_CCU8_SLICE_EVENT_1)   || \
 128:C:/Users/Yushev/git/optiga-trust-qi/projects/xmc4700_relax_kit/common/Libraries/XMCLib/src\xmc_ccu8.c ****      (event_id == XMC_CCU8_SLICE_EVENT_2))
 129:C:/Users/Yushev/git/optiga-trust-qi/projects/xmc4700_relax_kit/common/Libraries/XMCLib/src\xmc_ccu8.c **** 
 130:C:/Users/Yushev/git/optiga-trust-qi/projects/xmc4700_relax_kit/common/Libraries/XMCLib/src\xmc_ccu8.c **** #define XMC_CCU8_SLICE_CHECK_EDGE_SENSITIVITY(edge) \
 131:C:/Users/Yushev/git/optiga-trust-qi/projects/xmc4700_relax_kit/common/Libraries/XMCLib/src\xmc_ccu8.c ****     ((edge == XMC_CCU8_SLICE_EVENT_EDGE_SENSITIVITY_NONE)        || \
 132:C:/Users/Yushev/git/optiga-trust-qi/projects/xmc4700_relax_kit/common/Libraries/XMCLib/src\xmc_ccu8.c ****      (edge == XMC_CCU8_SLICE_EVENT_EDGE_SENSITIVITY_RISING_EDGE) || \
 133:C:/Users/Yushev/git/optiga-trust-qi/projects/xmc4700_relax_kit/common/Libraries/XMCLib/src\xmc_ccu8.c ****      (edge == XMC_CCU8_SLICE_EVENT_EDGE_SENSITIVITY_FALLING_EDGE)|| \
 134:C:/Users/Yushev/git/optiga-trust-qi/projects/xmc4700_relax_kit/common/Libraries/XMCLib/src\xmc_ccu8.c ****      (edge == XMC_CCU8_SLICE_EVENT_EDGE_SENSITIVITY_DUAL_EDGE))
 135:C:/Users/Yushev/git/optiga-trust-qi/projects/xmc4700_relax_kit/common/Libraries/XMCLib/src\xmc_ccu8.c **** 
 136:C:/Users/Yushev/git/optiga-trust-qi/projects/xmc4700_relax_kit/common/Libraries/XMCLib/src\xmc_ccu8.c **** #define XMC_CCU8_SLICE_CHECK_EVENT_FILTER(cycles) \
 137:C:/Users/Yushev/git/optiga-trust-qi/projects/xmc4700_relax_kit/common/Libraries/XMCLib/src\xmc_ccu8.c ****     ((cycles == XMC_CCU8_SLICE_EVENT_FILTER_DISABLED) || \
 138:C:/Users/Yushev/git/optiga-trust-qi/projects/xmc4700_relax_kit/common/Libraries/XMCLib/src\xmc_ccu8.c ****      (cycles == XMC_CCU8_SLICE_EVENT_FILTER_3_CYCLES) || \
 139:C:/Users/Yushev/git/optiga-trust-qi/projects/xmc4700_relax_kit/common/Libraries/XMCLib/src\xmc_ccu8.c ****      (cycles == XMC_CCU8_SLICE_EVENT_FILTER_5_CYCLES) || \
 140:C:/Users/Yushev/git/optiga-trust-qi/projects/xmc4700_relax_kit/common/Libraries/XMCLib/src\xmc_ccu8.c ****      (cycles == XMC_CCU8_SLICE_EVENT_FILTER_7_CYCLES))
 141:C:/Users/Yushev/git/optiga-trust-qi/projects/xmc4700_relax_kit/common/Libraries/XMCLib/src\xmc_ccu8.c **** 
 142:C:/Users/Yushev/git/optiga-trust-qi/projects/xmc4700_relax_kit/common/Libraries/XMCLib/src\xmc_ccu8.c **** #define XMC_CCU8_SLICE_CHECK_CAP_TIMER_CLEAR_MODE(mode) \
 143:C:/Users/Yushev/git/optiga-trust-qi/projects/xmc4700_relax_kit/common/Libraries/XMCLib/src\xmc_ccu8.c ****     ((mode == XMC_CCU8_SLICE_TIMER_CLEAR_MODE_NEVER)   || \
 144:C:/Users/Yushev/git/optiga-trust-qi/projects/xmc4700_relax_kit/common/Libraries/XMCLib/src\xmc_ccu8.c ****      (mode == XMC_CCU8_SLICE_TIMER_CLEAR_MODE_CAP_HIGH)|| \
 145:C:/Users/Yushev/git/optiga-trust-qi/projects/xmc4700_relax_kit/common/Libraries/XMCLib/src\xmc_ccu8.c ****      (mode == XMC_CCU8_SLICE_TIMER_CLEAR_MODE_CAP_LOW) || \
 146:C:/Users/Yushev/git/optiga-trust-qi/projects/xmc4700_relax_kit/common/Libraries/XMCLib/src\xmc_ccu8.c ****      (mode == XMC_CCU8_SLICE_TIMER_CLEAR_MODE_ALWAYS))
 147:C:/Users/Yushev/git/optiga-trust-qi/projects/xmc4700_relax_kit/common/Libraries/XMCLib/src\xmc_ccu8.c **** 
 148:C:/Users/Yushev/git/optiga-trust-qi/projects/xmc4700_relax_kit/common/Libraries/XMCLib/src\xmc_ccu8.c **** #define XMC_CCU8_SLICE_CHECK_MCS_ACTION(mcs_action) \
 149:C:/Users/Yushev/git/optiga-trust-qi/projects/xmc4700_relax_kit/common/Libraries/XMCLib/src\xmc_ccu8.c ****     ((mcs_action == XMC_CCU8_SLICE_MCMS_ACTION_TRANSFER_PR_CR)      || \
 150:C:/Users/Yushev/git/optiga-trust-qi/projects/xmc4700_relax_kit/common/Libraries/XMCLib/src\xmc_ccu8.c ****      (mcs_action == XMC_CCU8_SLICE_MCMS_ACTION_TRANSFER_PR_CR_PCMP) || \
 151:C:/Users/Yushev/git/optiga-trust-qi/projects/xmc4700_relax_kit/common/Libraries/XMCLib/src\xmc_ccu8.c ****      (mcs_action == XMC_CCU8_SLICE_MCMS_ACTION_TRANSFER_PR_CR_PCMP_DIT))
 152:C:/Users/Yushev/git/optiga-trust-qi/projects/xmc4700_relax_kit/common/Libraries/XMCLib/src\xmc_ccu8.c **** 
 153:C:/Users/Yushev/git/optiga-trust-qi/projects/xmc4700_relax_kit/common/Libraries/XMCLib/src\xmc_ccu8.c **** #define XMC_CCU8_SLICE_CHECK_SR_ID(id) \
 154:C:/Users/Yushev/git/optiga-trust-qi/projects/xmc4700_relax_kit/common/Libraries/XMCLib/src\xmc_ccu8.c ****     ((id == XMC_CCU8_SLICE_SR_ID_0) || \
 155:C:/Users/Yushev/git/optiga-trust-qi/projects/xmc4700_relax_kit/common/Libraries/XMCLib/src\xmc_ccu8.c ****      (id == XMC_CCU8_SLICE_SR_ID_1) || \
 156:C:/Users/Yushev/git/optiga-trust-qi/projects/xmc4700_relax_kit/common/Libraries/XMCLib/src\xmc_ccu8.c ****      (id == XMC_CCU8_SLICE_SR_ID_2) || \
 157:C:/Users/Yushev/git/optiga-trust-qi/projects/xmc4700_relax_kit/common/Libraries/XMCLib/src\xmc_ccu8.c ****      (id == XMC_CCU8_SLICE_SR_ID_3))
 158:C:/Users/Yushev/git/optiga-trust-qi/projects/xmc4700_relax_kit/common/Libraries/XMCLib/src\xmc_ccu8.c **** 
 159:C:/Users/Yushev/git/optiga-trust-qi/projects/xmc4700_relax_kit/common/Libraries/XMCLib/src\xmc_ccu8.c **** #define XMC_CCU8_SLICE_CHECK_MODULATION_CHANNEL(channel) \
 160:C:/Users/Yushev/git/optiga-trust-qi/projects/xmc4700_relax_kit/common/Libraries/XMCLib/src\xmc_ccu8.c ****     ((channel == XMC_CCU8_SLICE_MODULATION_CHANNEL_NONE) || \
 161:C:/Users/Yushev/git/optiga-trust-qi/projects/xmc4700_relax_kit/common/Libraries/XMCLib/src\xmc_ccu8.c ****      (channel == XMC_CCU8_SLICE_MODULATION_CHANNEL_1)    || \
 162:C:/Users/Yushev/git/optiga-trust-qi/projects/xmc4700_relax_kit/common/Libraries/XMCLib/src\xmc_ccu8.c ****      (channel == XMC_CCU8_SLICE_MODULATION_CHANNEL_2)    || \
 163:C:/Users/Yushev/git/optiga-trust-qi/projects/xmc4700_relax_kit/common/Libraries/XMCLib/src\xmc_ccu8.c ****      (channel == XMC_CCU8_SLICE_MODULATION_CHANNEL_1_AND_2))
 164:C:/Users/Yushev/git/optiga-trust-qi/projects/xmc4700_relax_kit/common/Libraries/XMCLib/src\xmc_ccu8.c **** 
 165:C:/Users/Yushev/git/optiga-trust-qi/projects/xmc4700_relax_kit/common/Libraries/XMCLib/src\xmc_ccu8.c **** #if((UC_SERIES == XMC13) || (UC_SERIES == XMC14))
 166:C:/Users/Yushev/git/optiga-trust-qi/projects/xmc4700_relax_kit/common/Libraries/XMCLib/src\xmc_ccu8.c **** #define XMC_CCU8_SLICE_CHECK_SLICE_STATUS(channel) \
 167:C:/Users/Yushev/git/optiga-trust-qi/projects/xmc4700_relax_kit/common/Libraries/XMCLib/src\xmc_ccu8.c ****     ((channel == XMC_CCU8_SLICE_STATUS_CHANNEL_1)       || \
 168:C:/Users/Yushev/git/optiga-trust-qi/projects/xmc4700_relax_kit/common/Libraries/XMCLib/src\xmc_ccu8.c ****      (channel == XMC_CCU8_SLICE_STATUS_CHANNEL_2)       || \
 169:C:/Users/Yushev/git/optiga-trust-qi/projects/xmc4700_relax_kit/common/Libraries/XMCLib/src\xmc_ccu8.c ****      (channel == XMC_CCU8_SLICE_STATUS_CHANNEL_1_AND_2) || \
 170:C:/Users/Yushev/git/optiga-trust-qi/projects/xmc4700_relax_kit/common/Libraries/XMCLib/src\xmc_ccu8.c ****      (channel == XMC_CCU8_SLICE_STATUS_CHANNEL_1_OR_2))
 171:C:/Users/Yushev/git/optiga-trust-qi/projects/xmc4700_relax_kit/common/Libraries/XMCLib/src\xmc_ccu8.c **** #else
 172:C:/Users/Yushev/git/optiga-trust-qi/projects/xmc4700_relax_kit/common/Libraries/XMCLib/src\xmc_ccu8.c **** #define XMC_CCU8_SLICE_CHECK_SLICE_STATUS(channel) \
 173:C:/Users/Yushev/git/optiga-trust-qi/projects/xmc4700_relax_kit/common/Libraries/XMCLib/src\xmc_ccu8.c ****     ((channel == XMC_CCU8_SLICE_STATUS_CHANNEL_1)       || \
 174:C:/Users/Yushev/git/optiga-trust-qi/projects/xmc4700_relax_kit/common/Libraries/XMCLib/src\xmc_ccu8.c ****      (channel == XMC_CCU8_SLICE_STATUS_CHANNEL_2)       || \
 175:C:/Users/Yushev/git/optiga-trust-qi/projects/xmc4700_relax_kit/common/Libraries/XMCLib/src\xmc_ccu8.c ****      (channel == XMC_CCU8_SLICE_STATUS_CHANNEL_1_AND_2))
 176:C:/Users/Yushev/git/optiga-trust-qi/projects/xmc4700_relax_kit/common/Libraries/XMCLib/src\xmc_ccu8.c **** #endif
 177:C:/Users/Yushev/git/optiga-trust-qi/projects/xmc4700_relax_kit/common/Libraries/XMCLib/src\xmc_ccu8.c **** 
 178:C:/Users/Yushev/git/optiga-trust-qi/projects/xmc4700_relax_kit/common/Libraries/XMCLib/src\xmc_ccu8.c **** /**************************************************************************************************
 179:C:/Users/Yushev/git/optiga-trust-qi/projects/xmc4700_relax_kit/common/Libraries/XMCLib/src\xmc_ccu8.c ****  * LOCAL ROUTINES
 180:C:/Users/Yushev/git/optiga-trust-qi/projects/xmc4700_relax_kit/common/Libraries/XMCLib/src\xmc_ccu8.c ****  **************************************************************************************************
 181:C:/Users/Yushev/git/optiga-trust-qi/projects/xmc4700_relax_kit/common/Libraries/XMCLib/src\xmc_ccu8.c **** #if defined(PERIPHERAL_RESET_SUPPORTED)
 182:C:/Users/Yushev/git/optiga-trust-qi/projects/xmc4700_relax_kit/common/Libraries/XMCLib/src\xmc_ccu8.c **** __STATIC_INLINE void XMC_CCU8_lAssertReset(const XMC_CCU8_MODULE_t *const module)
 183:C:/Users/Yushev/git/optiga-trust-qi/projects/xmc4700_relax_kit/common/Libraries/XMCLib/src\xmc_ccu8.c **** {
 184:C:/Users/Yushev/git/optiga-trust-qi/projects/xmc4700_relax_kit/common/Libraries/XMCLib/src\xmc_ccu8.c ****   if (module == CCU80)
 185:C:/Users/Yushev/git/optiga-trust-qi/projects/xmc4700_relax_kit/common/Libraries/XMCLib/src\xmc_ccu8.c ****   {
 186:C:/Users/Yushev/git/optiga-trust-qi/projects/xmc4700_relax_kit/common/Libraries/XMCLib/src\xmc_ccu8.c ****     XMC_SCU_RESET_AssertPeripheralReset(XMC_SCU_PERIPHERAL_RESET_CCU80);
 187:C:/Users/Yushev/git/optiga-trust-qi/projects/xmc4700_relax_kit/common/Libraries/XMCLib/src\xmc_ccu8.c ****   }
 188:C:/Users/Yushev/git/optiga-trust-qi/projects/xmc4700_relax_kit/common/Libraries/XMCLib/src\xmc_ccu8.c **** #if defined(CCU81)
 189:C:/Users/Yushev/git/optiga-trust-qi/projects/xmc4700_relax_kit/common/Libraries/XMCLib/src\xmc_ccu8.c ****   else if (module == CCU81)
 190:C:/Users/Yushev/git/optiga-trust-qi/projects/xmc4700_relax_kit/common/Libraries/XMCLib/src\xmc_ccu8.c ****   {
 191:C:/Users/Yushev/git/optiga-trust-qi/projects/xmc4700_relax_kit/common/Libraries/XMCLib/src\xmc_ccu8.c ****     XMC_SCU_RESET_AssertPeripheralReset(XMC_SCU_PERIPHERAL_RESET_CCU81);
 192:C:/Users/Yushev/git/optiga-trust-qi/projects/xmc4700_relax_kit/common/Libraries/XMCLib/src\xmc_ccu8.c ****   }
 193:C:/Users/Yushev/git/optiga-trust-qi/projects/xmc4700_relax_kit/common/Libraries/XMCLib/src\xmc_ccu8.c **** #endif
 194:C:/Users/Yushev/git/optiga-trust-qi/projects/xmc4700_relax_kit/common/Libraries/XMCLib/src\xmc_ccu8.c ****   else
 195:C:/Users/Yushev/git/optiga-trust-qi/projects/xmc4700_relax_kit/common/Libraries/XMCLib/src\xmc_ccu8.c ****   {
 196:C:/Users/Yushev/git/optiga-trust-qi/projects/xmc4700_relax_kit/common/Libraries/XMCLib/src\xmc_ccu8.c ****     XMC_ASSERT("XMC_CCU8_lAssertReset:Invalid Module Pointer", 0);
 197:C:/Users/Yushev/git/optiga-trust-qi/projects/xmc4700_relax_kit/common/Libraries/XMCLib/src\xmc_ccu8.c ****   }
 198:C:/Users/Yushev/git/optiga-trust-qi/projects/xmc4700_relax_kit/common/Libraries/XMCLib/src\xmc_ccu8.c **** }
 199:C:/Users/Yushev/git/optiga-trust-qi/projects/xmc4700_relax_kit/common/Libraries/XMCLib/src\xmc_ccu8.c **** 
 200:C:/Users/Yushev/git/optiga-trust-qi/projects/xmc4700_relax_kit/common/Libraries/XMCLib/src\xmc_ccu8.c **** __STATIC_INLINE void XMC_CCU8_lDeassertReset(const XMC_CCU8_MODULE_t *const module)
 201:C:/Users/Yushev/git/optiga-trust-qi/projects/xmc4700_relax_kit/common/Libraries/XMCLib/src\xmc_ccu8.c **** {
 202:C:/Users/Yushev/git/optiga-trust-qi/projects/xmc4700_relax_kit/common/Libraries/XMCLib/src\xmc_ccu8.c ****   if (module == CCU80)
 203:C:/Users/Yushev/git/optiga-trust-qi/projects/xmc4700_relax_kit/common/Libraries/XMCLib/src\xmc_ccu8.c ****   {
 204:C:/Users/Yushev/git/optiga-trust-qi/projects/xmc4700_relax_kit/common/Libraries/XMCLib/src\xmc_ccu8.c ****     XMC_SCU_RESET_DeassertPeripheralReset(XMC_SCU_PERIPHERAL_RESET_CCU80);
 205:C:/Users/Yushev/git/optiga-trust-qi/projects/xmc4700_relax_kit/common/Libraries/XMCLib/src\xmc_ccu8.c ****   }
 206:C:/Users/Yushev/git/optiga-trust-qi/projects/xmc4700_relax_kit/common/Libraries/XMCLib/src\xmc_ccu8.c **** #if defined(CCU81)
 207:C:/Users/Yushev/git/optiga-trust-qi/projects/xmc4700_relax_kit/common/Libraries/XMCLib/src\xmc_ccu8.c ****   else if (module == CCU81)
 208:C:/Users/Yushev/git/optiga-trust-qi/projects/xmc4700_relax_kit/common/Libraries/XMCLib/src\xmc_ccu8.c ****   {
 209:C:/Users/Yushev/git/optiga-trust-qi/projects/xmc4700_relax_kit/common/Libraries/XMCLib/src\xmc_ccu8.c ****     XMC_SCU_RESET_DeassertPeripheralReset(XMC_SCU_PERIPHERAL_RESET_CCU81);
 210:C:/Users/Yushev/git/optiga-trust-qi/projects/xmc4700_relax_kit/common/Libraries/XMCLib/src\xmc_ccu8.c ****   }
 211:C:/Users/Yushev/git/optiga-trust-qi/projects/xmc4700_relax_kit/common/Libraries/XMCLib/src\xmc_ccu8.c **** #endif
 212:C:/Users/Yushev/git/optiga-trust-qi/projects/xmc4700_relax_kit/common/Libraries/XMCLib/src\xmc_ccu8.c ****   else
 213:C:/Users/Yushev/git/optiga-trust-qi/projects/xmc4700_relax_kit/common/Libraries/XMCLib/src\xmc_ccu8.c ****   {
 214:C:/Users/Yushev/git/optiga-trust-qi/projects/xmc4700_relax_kit/common/Libraries/XMCLib/src\xmc_ccu8.c ****     XMC_ASSERT("XMC_CCU8_lDeassertReset:Invalid Module Pointer", 0);
 215:C:/Users/Yushev/git/optiga-trust-qi/projects/xmc4700_relax_kit/common/Libraries/XMCLib/src\xmc_ccu8.c ****   }
 216:C:/Users/Yushev/git/optiga-trust-qi/projects/xmc4700_relax_kit/common/Libraries/XMCLib/src\xmc_ccu8.c **** }
 217:C:/Users/Yushev/git/optiga-trust-qi/projects/xmc4700_relax_kit/common/Libraries/XMCLib/src\xmc_ccu8.c **** #endif
 218:C:/Users/Yushev/git/optiga-trust-qi/projects/xmc4700_relax_kit/common/Libraries/XMCLib/src\xmc_ccu8.c **** 
 219:C:/Users/Yushev/git/optiga-trust-qi/projects/xmc4700_relax_kit/common/Libraries/XMCLib/src\xmc_ccu8.c **** #if defined(CLOCK_GATING_SUPPORTED)
 220:C:/Users/Yushev/git/optiga-trust-qi/projects/xmc4700_relax_kit/common/Libraries/XMCLib/src\xmc_ccu8.c **** __STATIC_INLINE void XMC_CCU8_lGateClock(XMC_CCU8_MODULE_t *const module)
 221:C:/Users/Yushev/git/optiga-trust-qi/projects/xmc4700_relax_kit/common/Libraries/XMCLib/src\xmc_ccu8.c **** {
 222:C:/Users/Yushev/git/optiga-trust-qi/projects/xmc4700_relax_kit/common/Libraries/XMCLib/src\xmc_ccu8.c ****   if (module == CCU80)
 223:C:/Users/Yushev/git/optiga-trust-qi/projects/xmc4700_relax_kit/common/Libraries/XMCLib/src\xmc_ccu8.c ****   {
 224:C:/Users/Yushev/git/optiga-trust-qi/projects/xmc4700_relax_kit/common/Libraries/XMCLib/src\xmc_ccu8.c ****     XMC_SCU_CLOCK_GatePeripheralClock(XMC_SCU_PERIPHERAL_CLOCK_CCU80);
 225:C:/Users/Yushev/git/optiga-trust-qi/projects/xmc4700_relax_kit/common/Libraries/XMCLib/src\xmc_ccu8.c ****   }
 226:C:/Users/Yushev/git/optiga-trust-qi/projects/xmc4700_relax_kit/common/Libraries/XMCLib/src\xmc_ccu8.c **** #if defined(CCU81)
 227:C:/Users/Yushev/git/optiga-trust-qi/projects/xmc4700_relax_kit/common/Libraries/XMCLib/src\xmc_ccu8.c ****   else if (module == CCU81)
 228:C:/Users/Yushev/git/optiga-trust-qi/projects/xmc4700_relax_kit/common/Libraries/XMCLib/src\xmc_ccu8.c ****   {
 229:C:/Users/Yushev/git/optiga-trust-qi/projects/xmc4700_relax_kit/common/Libraries/XMCLib/src\xmc_ccu8.c ****     XMC_SCU_CLOCK_GatePeripheralClock(XMC_SCU_PERIPHERAL_CLOCK_CCU81);
 230:C:/Users/Yushev/git/optiga-trust-qi/projects/xmc4700_relax_kit/common/Libraries/XMCLib/src\xmc_ccu8.c ****   }
 231:C:/Users/Yushev/git/optiga-trust-qi/projects/xmc4700_relax_kit/common/Libraries/XMCLib/src\xmc_ccu8.c **** #endif
 232:C:/Users/Yushev/git/optiga-trust-qi/projects/xmc4700_relax_kit/common/Libraries/XMCLib/src\xmc_ccu8.c ****   else
 233:C:/Users/Yushev/git/optiga-trust-qi/projects/xmc4700_relax_kit/common/Libraries/XMCLib/src\xmc_ccu8.c ****   {
 234:C:/Users/Yushev/git/optiga-trust-qi/projects/xmc4700_relax_kit/common/Libraries/XMCLib/src\xmc_ccu8.c ****     XMC_ASSERT("XMC_CCU8_lGateClock:Invalid Module Pointer", 0);
 235:C:/Users/Yushev/git/optiga-trust-qi/projects/xmc4700_relax_kit/common/Libraries/XMCLib/src\xmc_ccu8.c ****   }
 236:C:/Users/Yushev/git/optiga-trust-qi/projects/xmc4700_relax_kit/common/Libraries/XMCLib/src\xmc_ccu8.c **** }
 237:C:/Users/Yushev/git/optiga-trust-qi/projects/xmc4700_relax_kit/common/Libraries/XMCLib/src\xmc_ccu8.c **** 
 238:C:/Users/Yushev/git/optiga-trust-qi/projects/xmc4700_relax_kit/common/Libraries/XMCLib/src\xmc_ccu8.c **** __STATIC_INLINE void XMC_CCU8_lUngateClock(XMC_CCU8_MODULE_t *const module)
 239:C:/Users/Yushev/git/optiga-trust-qi/projects/xmc4700_relax_kit/common/Libraries/XMCLib/src\xmc_ccu8.c **** {
 240:C:/Users/Yushev/git/optiga-trust-qi/projects/xmc4700_relax_kit/common/Libraries/XMCLib/src\xmc_ccu8.c ****   if (module == CCU80)
 241:C:/Users/Yushev/git/optiga-trust-qi/projects/xmc4700_relax_kit/common/Libraries/XMCLib/src\xmc_ccu8.c ****   {
 242:C:/Users/Yushev/git/optiga-trust-qi/projects/xmc4700_relax_kit/common/Libraries/XMCLib/src\xmc_ccu8.c ****     XMC_SCU_CLOCK_UngatePeripheralClock(XMC_SCU_PERIPHERAL_CLOCK_CCU80);
 243:C:/Users/Yushev/git/optiga-trust-qi/projects/xmc4700_relax_kit/common/Libraries/XMCLib/src\xmc_ccu8.c ****   }
 244:C:/Users/Yushev/git/optiga-trust-qi/projects/xmc4700_relax_kit/common/Libraries/XMCLib/src\xmc_ccu8.c **** #if defined(CCU81)
 245:C:/Users/Yushev/git/optiga-trust-qi/projects/xmc4700_relax_kit/common/Libraries/XMCLib/src\xmc_ccu8.c ****   else if (module == CCU81)
 246:C:/Users/Yushev/git/optiga-trust-qi/projects/xmc4700_relax_kit/common/Libraries/XMCLib/src\xmc_ccu8.c ****   {
 247:C:/Users/Yushev/git/optiga-trust-qi/projects/xmc4700_relax_kit/common/Libraries/XMCLib/src\xmc_ccu8.c ****     XMC_SCU_CLOCK_UngatePeripheralClock(XMC_SCU_PERIPHERAL_CLOCK_CCU81);
 248:C:/Users/Yushev/git/optiga-trust-qi/projects/xmc4700_relax_kit/common/Libraries/XMCLib/src\xmc_ccu8.c ****   }
 249:C:/Users/Yushev/git/optiga-trust-qi/projects/xmc4700_relax_kit/common/Libraries/XMCLib/src\xmc_ccu8.c **** #endif
 250:C:/Users/Yushev/git/optiga-trust-qi/projects/xmc4700_relax_kit/common/Libraries/XMCLib/src\xmc_ccu8.c ****   else
 251:C:/Users/Yushev/git/optiga-trust-qi/projects/xmc4700_relax_kit/common/Libraries/XMCLib/src\xmc_ccu8.c ****   {
 252:C:/Users/Yushev/git/optiga-trust-qi/projects/xmc4700_relax_kit/common/Libraries/XMCLib/src\xmc_ccu8.c ****     XMC_ASSERT("XMC_CCU8_lUngateClock:Invalid Module Pointer", 0);
 253:C:/Users/Yushev/git/optiga-trust-qi/projects/xmc4700_relax_kit/common/Libraries/XMCLib/src\xmc_ccu8.c ****   }
 254:C:/Users/Yushev/git/optiga-trust-qi/projects/xmc4700_relax_kit/common/Libraries/XMCLib/src\xmc_ccu8.c **** }
 255:C:/Users/Yushev/git/optiga-trust-qi/projects/xmc4700_relax_kit/common/Libraries/XMCLib/src\xmc_ccu8.c **** #endif
 256:C:/Users/Yushev/git/optiga-trust-qi/projects/xmc4700_relax_kit/common/Libraries/XMCLib/src\xmc_ccu8.c **** 
 257:C:/Users/Yushev/git/optiga-trust-qi/projects/xmc4700_relax_kit/common/Libraries/XMCLib/src\xmc_ccu8.c **** #if defined (XMC_ASSERT_ENABLE)
 258:C:/Users/Yushev/git/optiga-trust-qi/projects/xmc4700_relax_kit/common/Libraries/XMCLib/src\xmc_ccu8.c **** __STATIC_INLINE bool XMC_CCU8_SLICE_IsInputvalid(XMC_CCU8_SLICE_INPUT_t input)
 259:C:/Users/Yushev/git/optiga-trust-qi/projects/xmc4700_relax_kit/common/Libraries/XMCLib/src\xmc_ccu8.c **** {
 260:C:/Users/Yushev/git/optiga-trust-qi/projects/xmc4700_relax_kit/common/Libraries/XMCLib/src\xmc_ccu8.c **** #if (UC_SERIES == XMC14)
 261:C:/Users/Yushev/git/optiga-trust-qi/projects/xmc4700_relax_kit/common/Libraries/XMCLib/src\xmc_ccu8.c ****   return (input < 48U);
 262:C:/Users/Yushev/git/optiga-trust-qi/projects/xmc4700_relax_kit/common/Libraries/XMCLib/src\xmc_ccu8.c **** #else
 263:C:/Users/Yushev/git/optiga-trust-qi/projects/xmc4700_relax_kit/common/Libraries/XMCLib/src\xmc_ccu8.c ****   return (input < 16U);
 264:C:/Users/Yushev/git/optiga-trust-qi/projects/xmc4700_relax_kit/common/Libraries/XMCLib/src\xmc_ccu8.c **** #endif
 265:C:/Users/Yushev/git/optiga-trust-qi/projects/xmc4700_relax_kit/common/Libraries/XMCLib/src\xmc_ccu8.c **** }
 266:C:/Users/Yushev/git/optiga-trust-qi/projects/xmc4700_relax_kit/common/Libraries/XMCLib/src\xmc_ccu8.c **** #endif
 267:C:/Users/Yushev/git/optiga-trust-qi/projects/xmc4700_relax_kit/common/Libraries/XMCLib/src\xmc_ccu8.c **** /**************************************************************************************************
 268:C:/Users/Yushev/git/optiga-trust-qi/projects/xmc4700_relax_kit/common/Libraries/XMCLib/src\xmc_ccu8.c ****  * API IMPLEMENTATION
 269:C:/Users/Yushev/git/optiga-trust-qi/projects/xmc4700_relax_kit/common/Libraries/XMCLib/src\xmc_ccu8.c ****  **************************************************************************************************
 270:C:/Users/Yushev/git/optiga-trust-qi/projects/xmc4700_relax_kit/common/Libraries/XMCLib/src\xmc_ccu8.c **** 
 271:C:/Users/Yushev/git/optiga-trust-qi/projects/xmc4700_relax_kit/common/Libraries/XMCLib/src\xmc_ccu8.c **** /* API to set the CCU8 module as active and enable the clock  */
 272:C:/Users/Yushev/git/optiga-trust-qi/projects/xmc4700_relax_kit/common/Libraries/XMCLib/src\xmc_ccu8.c **** void XMC_CCU8_EnableModule(XMC_CCU8_MODULE_t *const module)
 273:C:/Users/Yushev/git/optiga-trust-qi/projects/xmc4700_relax_kit/common/Libraries/XMCLib/src\xmc_ccu8.c **** {
  28              	 .loc 1 273 0
  29              	 .cfi_startproc
  30              	 
  31              	 
  32              	.LVL0:
  33 0000 10B5     	 push {r4,lr}
  34              	.LCFI0:
  35              	 .cfi_def_cfa_offset 8
  36              	 .cfi_offset 4,-8
  37              	 .cfi_offset 14,-4
  38              	 .loc 1 273 0
  39 0002 0446     	 mov r4,r0
 274:C:/Users/Yushev/git/optiga-trust-qi/projects/xmc4700_relax_kit/common/Libraries/XMCLib/src\xmc_ccu8.c ****   XMC_ASSERT("XMC_CCU8_EnableModule:Invalid Module Pointer", XMC_CCU8_IsValidModule(module));
 275:C:/Users/Yushev/git/optiga-trust-qi/projects/xmc4700_relax_kit/common/Libraries/XMCLib/src\xmc_ccu8.c **** 
 276:C:/Users/Yushev/git/optiga-trust-qi/projects/xmc4700_relax_kit/common/Libraries/XMCLib/src\xmc_ccu8.c **** #if (UC_FAMILY == XMC4)
 277:C:/Users/Yushev/git/optiga-trust-qi/projects/xmc4700_relax_kit/common/Libraries/XMCLib/src\xmc_ccu8.c ****   /* Enable CCU8 module clock */
 278:C:/Users/Yushev/git/optiga-trust-qi/projects/xmc4700_relax_kit/common/Libraries/XMCLib/src\xmc_ccu8.c ****   XMC_SCU_CLOCK_EnableClock(XMC_SCU_CLOCK_CCU);
  40              	 .loc 1 278 0
  41 0004 1020     	 movs r0,#16
  42              	.LVL1:
  43 0006 FFF7FEFF 	 bl XMC_SCU_CLOCK_EnableClock
  44              	.LVL2:
  45              	.LBB14:
  46              	.LBB15:
 240:C:/Users/Yushev/git/optiga-trust-qi/projects/xmc4700_relax_kit/common/Libraries/XMCLib/src\xmc_ccu8.c ****   {
  47              	 .loc 1 240 0
  48 000a 0B4B     	 ldr r3,.L6
  49 000c 9C42     	 cmp r4,r3
  50 000e 04D1     	 bne .L2
 242:C:/Users/Yushev/git/optiga-trust-qi/projects/xmc4700_relax_kit/common/Libraries/XMCLib/src\xmc_ccu8.c ****   }
  51              	 .loc 1 242 0
  52 0010 8020     	 movs r0,#128
  53 0012 FFF7FEFF 	 bl XMC_SCU_CLOCK_UngatePeripheralClock
  54              	.LVL3:
  55              	.LBE15:
  56              	.LBE14:
  57              	.LBB17:
  58              	.LBB18:
 204:C:/Users/Yushev/git/optiga-trust-qi/projects/xmc4700_relax_kit/common/Libraries/XMCLib/src\xmc_ccu8.c ****   }
  59              	 .loc 1 204 0
  60 0016 8020     	 movs r0,#128
  61 0018 08E0     	 b .L4
  62              	.LVL4:
  63              	.L2:
  64              	.LBE18:
  65              	.LBE17:
  66              	.LBB21:
  67              	.LBB16:
 245:C:/Users/Yushev/git/optiga-trust-qi/projects/xmc4700_relax_kit/common/Libraries/XMCLib/src\xmc_ccu8.c ****   {
  68              	 .loc 1 245 0
  69 001a 084B     	 ldr r3,.L6+4
  70 001c 9C42     	 cmp r4,r3
  71 001e 09D1     	 bne .L1
 247:C:/Users/Yushev/git/optiga-trust-qi/projects/xmc4700_relax_kit/common/Libraries/XMCLib/src\xmc_ccu8.c ****   }
  72              	 .loc 1 247 0
  73 0020 4FF48070 	 mov r0,#256
  74 0024 FFF7FEFF 	 bl XMC_SCU_CLOCK_UngatePeripheralClock
  75              	.LVL5:
  76              	.LBE16:
  77              	.LBE21:
  78              	.LBB22:
  79              	.LBB19:
 209:C:/Users/Yushev/git/optiga-trust-qi/projects/xmc4700_relax_kit/common/Libraries/XMCLib/src\xmc_ccu8.c ****   }
  80              	 .loc 1 209 0
  81 0028 4FF48070 	 mov r0,#256
  82              	.LVL6:
  83              	.L4:
  84              	.LBE19:
  85              	.LBE22:
 279:C:/Users/Yushev/git/optiga-trust-qi/projects/xmc4700_relax_kit/common/Libraries/XMCLib/src\xmc_ccu8.c **** #endif
 280:C:/Users/Yushev/git/optiga-trust-qi/projects/xmc4700_relax_kit/common/Libraries/XMCLib/src\xmc_ccu8.c **** 
 281:C:/Users/Yushev/git/optiga-trust-qi/projects/xmc4700_relax_kit/common/Libraries/XMCLib/src\xmc_ccu8.c **** #if defined(CLOCK_GATING_SUPPORTED)
 282:C:/Users/Yushev/git/optiga-trust-qi/projects/xmc4700_relax_kit/common/Libraries/XMCLib/src\xmc_ccu8.c ****   XMC_CCU8_lUngateClock(module);
 283:C:/Users/Yushev/git/optiga-trust-qi/projects/xmc4700_relax_kit/common/Libraries/XMCLib/src\xmc_ccu8.c **** #endif
 284:C:/Users/Yushev/git/optiga-trust-qi/projects/xmc4700_relax_kit/common/Libraries/XMCLib/src\xmc_ccu8.c **** 
 285:C:/Users/Yushev/git/optiga-trust-qi/projects/xmc4700_relax_kit/common/Libraries/XMCLib/src\xmc_ccu8.c **** #if defined(PERIPHERAL_RESET_SUPPORTED)
 286:C:/Users/Yushev/git/optiga-trust-qi/projects/xmc4700_relax_kit/common/Libraries/XMCLib/src\xmc_ccu8.c ****   XMC_CCU8_lDeassertReset(module);
 287:C:/Users/Yushev/git/optiga-trust-qi/projects/xmc4700_relax_kit/common/Libraries/XMCLib/src\xmc_ccu8.c **** #endif
 288:C:/Users/Yushev/git/optiga-trust-qi/projects/xmc4700_relax_kit/common/Libraries/XMCLib/src\xmc_ccu8.c **** }
  86              	 .loc 1 288 0
  87 002c BDE81040 	 pop {r4,lr}
  88              	.LCFI1:
  89              	 .cfi_remember_state
  90              	 .cfi_restore 14
  91              	 .cfi_restore 4
  92              	 .cfi_def_cfa_offset 0
  93              	.LVL7:
  94              	.LBB23:
  95              	.LBB20:
 209:C:/Users/Yushev/git/optiga-trust-qi/projects/xmc4700_relax_kit/common/Libraries/XMCLib/src\xmc_ccu8.c ****   }
  96              	 .loc 1 209 0
  97 0030 FFF7FEBF 	 b XMC_SCU_RESET_DeassertPeripheralReset
  98              	.LVL8:
  99              	.L1:
 100              	.LCFI2:
 101              	 .cfi_restore_state
 102 0034 10BD     	 pop {r4,pc}
 103              	.LVL9:
 104              	.L7:
 105 0036 00BF     	 .align 2
 106              	.L6:
 107 0038 00000240 	 .word 1073872896
 108 003c 00400240 	 .word 1073889280
 109              	.LBE20:
 110              	.LBE23:
 111              	 .cfi_endproc
 112              	.LFE229:
 114              	 .section .text.XMC_CCU8_DisableModule,"ax",%progbits
 115              	 .align 1
 116              	 .global XMC_CCU8_DisableModule
 117              	 .thumb
 118              	 .thumb_func
 120              	XMC_CCU8_DisableModule:
 121              	.LFB230:
 289:C:/Users/Yushev/git/optiga-trust-qi/projects/xmc4700_relax_kit/common/Libraries/XMCLib/src\xmc_ccu8.c **** 
 290:C:/Users/Yushev/git/optiga-trust-qi/projects/xmc4700_relax_kit/common/Libraries/XMCLib/src\xmc_ccu8.c **** /* API to set the CCU8 module as idle and disable the clock  */
 291:C:/Users/Yushev/git/optiga-trust-qi/projects/xmc4700_relax_kit/common/Libraries/XMCLib/src\xmc_ccu8.c **** void XMC_CCU8_DisableModule(XMC_CCU8_MODULE_t *const module)
 292:C:/Users/Yushev/git/optiga-trust-qi/projects/xmc4700_relax_kit/common/Libraries/XMCLib/src\xmc_ccu8.c **** {
 122              	 .loc 1 292 0
 123              	 .cfi_startproc
 124              	 
 125              	 
 126              	.LVL10:
 127 0000 08B5     	 push {r3,lr}
 128              	.LCFI3:
 129              	 .cfi_def_cfa_offset 8
 130              	 .cfi_offset 3,-8
 131              	 .cfi_offset 14,-4
 132              	.LBB28:
 133              	.LBB29:
 184:C:/Users/Yushev/git/optiga-trust-qi/projects/xmc4700_relax_kit/common/Libraries/XMCLib/src\xmc_ccu8.c ****   {
 134              	 .loc 1 184 0
 135 0002 0B4B     	 ldr r3,.L12
 136 0004 9842     	 cmp r0,r3
 137 0006 04D1     	 bne .L9
 186:C:/Users/Yushev/git/optiga-trust-qi/projects/xmc4700_relax_kit/common/Libraries/XMCLib/src\xmc_ccu8.c ****   }
 138              	 .loc 1 186 0
 139 0008 8020     	 movs r0,#128
 140              	.LVL11:
 141 000a FFF7FEFF 	 bl XMC_SCU_RESET_AssertPeripheralReset
 142              	.LVL12:
 143              	.LBE29:
 144              	.LBE28:
 145              	.LBB31:
 146              	.LBB32:
 224:C:/Users/Yushev/git/optiga-trust-qi/projects/xmc4700_relax_kit/common/Libraries/XMCLib/src\xmc_ccu8.c ****   }
 147              	 .loc 1 224 0
 148 000e 8020     	 movs r0,#128
 149 0010 08E0     	 b .L11
 150              	.LVL13:
 151              	.L9:
 152              	.LBE32:
 153              	.LBE31:
 154              	.LBB35:
 155              	.LBB30:
 189:C:/Users/Yushev/git/optiga-trust-qi/projects/xmc4700_relax_kit/common/Libraries/XMCLib/src\xmc_ccu8.c ****   {
 156              	 .loc 1 189 0
 157 0012 084B     	 ldr r3,.L12+4
 158 0014 9842     	 cmp r0,r3
 159 0016 09D1     	 bne .L8
 191:C:/Users/Yushev/git/optiga-trust-qi/projects/xmc4700_relax_kit/common/Libraries/XMCLib/src\xmc_ccu8.c ****   }
 160              	 .loc 1 191 0
 161 0018 4FF48070 	 mov r0,#256
 162              	.LVL14:
 163 001c FFF7FEFF 	 bl XMC_SCU_RESET_AssertPeripheralReset
 164              	.LVL15:
 165              	.LBE30:
 166              	.LBE35:
 167              	.LBB36:
 168              	.LBB33:
 229:C:/Users/Yushev/git/optiga-trust-qi/projects/xmc4700_relax_kit/common/Libraries/XMCLib/src\xmc_ccu8.c ****   }
 169              	 .loc 1 229 0
 170 0020 4FF48070 	 mov r0,#256
 171              	.LVL16:
 172              	.L11:
 173              	.LBE33:
 174              	.LBE36:
 293:C:/Users/Yushev/git/optiga-trust-qi/projects/xmc4700_relax_kit/common/Libraries/XMCLib/src\xmc_ccu8.c ****   XMC_ASSERT("XMC_CCU8_DisableModule:Invalid Module Pointer", XMC_CCU8_IsValidModule(module));
 294:C:/Users/Yushev/git/optiga-trust-qi/projects/xmc4700_relax_kit/common/Libraries/XMCLib/src\xmc_ccu8.c **** 
 295:C:/Users/Yushev/git/optiga-trust-qi/projects/xmc4700_relax_kit/common/Libraries/XMCLib/src\xmc_ccu8.c **** #if defined(PERIPHERAL_RESET_SUPPORTED)
 296:C:/Users/Yushev/git/optiga-trust-qi/projects/xmc4700_relax_kit/common/Libraries/XMCLib/src\xmc_ccu8.c ****   XMC_CCU8_lAssertReset(module);
 297:C:/Users/Yushev/git/optiga-trust-qi/projects/xmc4700_relax_kit/common/Libraries/XMCLib/src\xmc_ccu8.c **** #endif
 298:C:/Users/Yushev/git/optiga-trust-qi/projects/xmc4700_relax_kit/common/Libraries/XMCLib/src\xmc_ccu8.c **** 
 299:C:/Users/Yushev/git/optiga-trust-qi/projects/xmc4700_relax_kit/common/Libraries/XMCLib/src\xmc_ccu8.c **** #if defined(CLOCK_GATING_SUPPORTED)
 300:C:/Users/Yushev/git/optiga-trust-qi/projects/xmc4700_relax_kit/common/Libraries/XMCLib/src\xmc_ccu8.c ****   XMC_CCU8_lGateClock(module);
 301:C:/Users/Yushev/git/optiga-trust-qi/projects/xmc4700_relax_kit/common/Libraries/XMCLib/src\xmc_ccu8.c **** #endif
 302:C:/Users/Yushev/git/optiga-trust-qi/projects/xmc4700_relax_kit/common/Libraries/XMCLib/src\xmc_ccu8.c **** }
 175              	 .loc 1 302 0
 176 0024 BDE80840 	 pop {r3,lr}
 177              	.LCFI4:
 178              	 .cfi_remember_state
 179              	 .cfi_restore 14
 180              	 .cfi_restore 3
 181              	 .cfi_def_cfa_offset 0
 182              	.LBB37:
 183              	.LBB34:
 229:C:/Users/Yushev/git/optiga-trust-qi/projects/xmc4700_relax_kit/common/Libraries/XMCLib/src\xmc_ccu8.c ****   }
 184              	 .loc 1 229 0
 185 0028 FFF7FEBF 	 b XMC_SCU_CLOCK_GatePeripheralClock
 186              	.LVL17:
 187              	.L8:
 188              	.LCFI5:
 189              	 .cfi_restore_state
 190 002c 08BD     	 pop {r3,pc}
 191              	.L13:
 192 002e 00BF     	 .align 2
 193              	.L12:
 194 0030 00000240 	 .word 1073872896
 195 0034 00400240 	 .word 1073889280
 196              	.LBE34:
 197              	.LBE37:
 198              	 .cfi_endproc
 199              	.LFE230:
 201              	 .section .text.XMC_CCU8_Init,"ax",%progbits
 202              	 .align 1
 203              	 .global XMC_CCU8_Init
 204              	 .thumb
 205              	 .thumb_func
 207              	XMC_CCU8_Init:
 208              	.LFB231:
 303:C:/Users/Yushev/git/optiga-trust-qi/projects/xmc4700_relax_kit/common/Libraries/XMCLib/src\xmc_ccu8.c **** 
 304:C:/Users/Yushev/git/optiga-trust-qi/projects/xmc4700_relax_kit/common/Libraries/XMCLib/src\xmc_ccu8.c **** /* API to initialize CCU8 global resources  */
 305:C:/Users/Yushev/git/optiga-trust-qi/projects/xmc4700_relax_kit/common/Libraries/XMCLib/src\xmc_ccu8.c **** void XMC_CCU8_Init(XMC_CCU8_MODULE_t *const module, const XMC_CCU8_SLICE_MCMS_ACTION_t mcs_action)
 306:C:/Users/Yushev/git/optiga-trust-qi/projects/xmc4700_relax_kit/common/Libraries/XMCLib/src\xmc_ccu8.c **** {
 209              	 .loc 1 306 0
 210              	 .cfi_startproc
 211              	 
 212              	 
 213              	.LVL18:
 214 0000 38B5     	 push {r3,r4,r5,lr}
 215              	.LCFI6:
 216              	 .cfi_def_cfa_offset 16
 217              	 .cfi_offset 3,-16
 218              	 .cfi_offset 4,-12
 219              	 .cfi_offset 5,-8
 220              	 .cfi_offset 14,-4
 221              	 .loc 1 306 0
 222 0002 0446     	 mov r4,r0
 223 0004 0D46     	 mov r5,r1
 307:C:/Users/Yushev/git/optiga-trust-qi/projects/xmc4700_relax_kit/common/Libraries/XMCLib/src\xmc_ccu8.c ****   uint32_t gctrl;
 308:C:/Users/Yushev/git/optiga-trust-qi/projects/xmc4700_relax_kit/common/Libraries/XMCLib/src\xmc_ccu8.c **** 
 309:C:/Users/Yushev/git/optiga-trust-qi/projects/xmc4700_relax_kit/common/Libraries/XMCLib/src\xmc_ccu8.c ****   XMC_ASSERT("XMC_CCU8_Init:Invalid Module Pointer", XMC_CCU8_IsValidModule(module));
 310:C:/Users/Yushev/git/optiga-trust-qi/projects/xmc4700_relax_kit/common/Libraries/XMCLib/src\xmc_ccu8.c ****   XMC_ASSERT("XMC_CCU8_Init:Invalid mcs action", XMC_CCU8_SLICE_CHECK_MCS_ACTION(mcs_action));
 311:C:/Users/Yushev/git/optiga-trust-qi/projects/xmc4700_relax_kit/common/Libraries/XMCLib/src\xmc_ccu8.c **** 
 312:C:/Users/Yushev/git/optiga-trust-qi/projects/xmc4700_relax_kit/common/Libraries/XMCLib/src\xmc_ccu8.c ****   /* Enable CCU8 module */
 313:C:/Users/Yushev/git/optiga-trust-qi/projects/xmc4700_relax_kit/common/Libraries/XMCLib/src\xmc_ccu8.c ****   XMC_CCU8_EnableModule(module);
 224              	 .loc 1 313 0
 225 0006 FFF7FEFF 	 bl XMC_CCU8_EnableModule
 226              	.LVL19:
 227              	.LBB38:
 228              	.LBB39:
 229              	 .file 2 "C:/Users/Yushev/git/optiga-trust-qi/projects/xmc4700_relax_kit/common/Libraries/XMCLib/inc/xmc_ccu8.h"
   1:C:/Users/Yushev/git/optiga-trust-qi/projects/xmc4700_relax_kit/common/Libraries/XMCLib/inc\xmc_ccu8.h **** /**
   2:C:/Users/Yushev/git/optiga-trust-qi/projects/xmc4700_relax_kit/common/Libraries/XMCLib/inc\xmc_ccu8.h ****  * @file xmc_ccu8.h
   3:C:/Users/Yushev/git/optiga-trust-qi/projects/xmc4700_relax_kit/common/Libraries/XMCLib/inc\xmc_ccu8.h ****  * @date 2017-09-15
   4:C:/Users/Yushev/git/optiga-trust-qi/projects/xmc4700_relax_kit/common/Libraries/XMCLib/inc\xmc_ccu8.h ****  *
   5:C:/Users/Yushev/git/optiga-trust-qi/projects/xmc4700_relax_kit/common/Libraries/XMCLib/inc\xmc_ccu8.h ****  * @cond
   6:C:/Users/Yushev/git/optiga-trust-qi/projects/xmc4700_relax_kit/common/Libraries/XMCLib/inc\xmc_ccu8.h ****  **************************************************************************************************
   7:C:/Users/Yushev/git/optiga-trust-qi/projects/xmc4700_relax_kit/common/Libraries/XMCLib/inc\xmc_ccu8.h ****  * XMClib v2.1.20 - XMC Peripheral Driver Library 
   8:C:/Users/Yushev/git/optiga-trust-qi/projects/xmc4700_relax_kit/common/Libraries/XMCLib/inc\xmc_ccu8.h ****  *
   9:C:/Users/Yushev/git/optiga-trust-qi/projects/xmc4700_relax_kit/common/Libraries/XMCLib/inc\xmc_ccu8.h ****  * Copyright (c) 2015-2018, Infineon Technologies AG
  10:C:/Users/Yushev/git/optiga-trust-qi/projects/xmc4700_relax_kit/common/Libraries/XMCLib/inc\xmc_ccu8.h ****  * All rights reserved.                        
  11:C:/Users/Yushev/git/optiga-trust-qi/projects/xmc4700_relax_kit/common/Libraries/XMCLib/inc\xmc_ccu8.h ****  *                                             
  12:C:/Users/Yushev/git/optiga-trust-qi/projects/xmc4700_relax_kit/common/Libraries/XMCLib/inc\xmc_ccu8.h ****  * Redistribution and use in source and binary forms, with or without modification,are permitted pr
  13:C:/Users/Yushev/git/optiga-trust-qi/projects/xmc4700_relax_kit/common/Libraries/XMCLib/inc\xmc_ccu8.h ****  * following conditions are met:   
  14:C:/Users/Yushev/git/optiga-trust-qi/projects/xmc4700_relax_kit/common/Libraries/XMCLib/inc\xmc_ccu8.h ****  *                                                                              
  15:C:/Users/Yushev/git/optiga-trust-qi/projects/xmc4700_relax_kit/common/Libraries/XMCLib/inc\xmc_ccu8.h ****  * Redistributions of source code must retain the above copyright notice, this list of conditions a
  16:C:/Users/Yushev/git/optiga-trust-qi/projects/xmc4700_relax_kit/common/Libraries/XMCLib/inc\xmc_ccu8.h ****  * disclaimer.                        
  17:C:/Users/Yushev/git/optiga-trust-qi/projects/xmc4700_relax_kit/common/Libraries/XMCLib/inc\xmc_ccu8.h ****  * 
  18:C:/Users/Yushev/git/optiga-trust-qi/projects/xmc4700_relax_kit/common/Libraries/XMCLib/inc\xmc_ccu8.h ****  * Redistributions in binary form must reproduce the above copyright notice, this list of condition
  19:C:/Users/Yushev/git/optiga-trust-qi/projects/xmc4700_relax_kit/common/Libraries/XMCLib/inc\xmc_ccu8.h ****  * disclaimer in the documentation and/or other materials provided with the distribution.          
  20:C:/Users/Yushev/git/optiga-trust-qi/projects/xmc4700_relax_kit/common/Libraries/XMCLib/inc\xmc_ccu8.h ****  * 
  21:C:/Users/Yushev/git/optiga-trust-qi/projects/xmc4700_relax_kit/common/Libraries/XMCLib/inc\xmc_ccu8.h ****  * Neither the name of the copyright holders nor the names of its contributors may be used to endor
  22:C:/Users/Yushev/git/optiga-trust-qi/projects/xmc4700_relax_kit/common/Libraries/XMCLib/inc\xmc_ccu8.h ****  * products derived from this software without specific prior written permission.                  
  23:C:/Users/Yushev/git/optiga-trust-qi/projects/xmc4700_relax_kit/common/Libraries/XMCLib/inc\xmc_ccu8.h ****  *                                                                              
  24:C:/Users/Yushev/git/optiga-trust-qi/projects/xmc4700_relax_kit/common/Libraries/XMCLib/inc\xmc_ccu8.h ****  * THIS SOFTWARE IS PROVIDED BY THE COPYRIGHT HOLDERS AND CONTRIBUTORS "AS IS" AND ANY EXPRESS OR I
  25:C:/Users/Yushev/git/optiga-trust-qi/projects/xmc4700_relax_kit/common/Libraries/XMCLib/inc\xmc_ccu8.h ****  * INCLUDING, BUT NOT LIMITED TO, THE IMPLIED WARRANTIES OF MERCHANTABILITY AND FITNESS FOR A PARTI
  26:C:/Users/Yushev/git/optiga-trust-qi/projects/xmc4700_relax_kit/common/Libraries/XMCLib/inc\xmc_ccu8.h ****  * DISCLAIMED. IN NO EVENT SHALL THE COPYRIGHT HOLDER OR CONTRIBUTORS BE LIABLE  FOR ANY DIRECT, IN
  27:C:/Users/Yushev/git/optiga-trust-qi/projects/xmc4700_relax_kit/common/Libraries/XMCLib/inc\xmc_ccu8.h ****  * SPECIAL, EXEMPLARY, OR CONSEQUENTIAL DAMAGES (INCLUDING, BUT NOT LIMITED TO, PROCUREMENT OF SUBS
  28:C:/Users/Yushev/git/optiga-trust-qi/projects/xmc4700_relax_kit/common/Libraries/XMCLib/inc\xmc_ccu8.h ****  * SERVICES; LOSS OF USE, DATA, OR PROFITS; OR BUSINESS INTERRUPTION) HOWEVER CAUSED AND ON ANY THE
  29:C:/Users/Yushev/git/optiga-trust-qi/projects/xmc4700_relax_kit/common/Libraries/XMCLib/inc\xmc_ccu8.h ****  * WHETHER IN CONTRACT, STRICT LIABILITY,OR TORT (INCLUDING NEGLIGENCE OR OTHERWISE) ARISING IN ANY
  30:C:/Users/Yushev/git/optiga-trust-qi/projects/xmc4700_relax_kit/common/Libraries/XMCLib/inc\xmc_ccu8.h ****  * OF THIS SOFTWARE, EVEN IF ADVISED OF THE POSSIBILITY OF SUCH DAMAGE.                            
  31:C:/Users/Yushev/git/optiga-trust-qi/projects/xmc4700_relax_kit/common/Libraries/XMCLib/inc\xmc_ccu8.h ****  *                                                                              
  32:C:/Users/Yushev/git/optiga-trust-qi/projects/xmc4700_relax_kit/common/Libraries/XMCLib/inc\xmc_ccu8.h ****  * To improve the quality of the software, users are encouraged to share modifications, enhancement
  33:C:/Users/Yushev/git/optiga-trust-qi/projects/xmc4700_relax_kit/common/Libraries/XMCLib/inc\xmc_ccu8.h ****  * Infineon Technologies AG dave@infineon.com).                                                    
  34:C:/Users/Yushev/git/optiga-trust-qi/projects/xmc4700_relax_kit/common/Libraries/XMCLib/inc\xmc_ccu8.h ****  **************************************************************************************************
  35:C:/Users/Yushev/git/optiga-trust-qi/projects/xmc4700_relax_kit/common/Libraries/XMCLib/inc\xmc_ccu8.h ****  *
  36:C:/Users/Yushev/git/optiga-trust-qi/projects/xmc4700_relax_kit/common/Libraries/XMCLib/inc\xmc_ccu8.h ****  * Change History
  37:C:/Users/Yushev/git/optiga-trust-qi/projects/xmc4700_relax_kit/common/Libraries/XMCLib/inc\xmc_ccu8.h ****  * --------------
  38:C:/Users/Yushev/git/optiga-trust-qi/projects/xmc4700_relax_kit/common/Libraries/XMCLib/inc\xmc_ccu8.h ****  *
  39:C:/Users/Yushev/git/optiga-trust-qi/projects/xmc4700_relax_kit/common/Libraries/XMCLib/inc\xmc_ccu8.h ****  * 2015-02-20:
  40:C:/Users/Yushev/git/optiga-trust-qi/projects/xmc4700_relax_kit/common/Libraries/XMCLib/inc\xmc_ccu8.h ****  *     - Initial <br>
  41:C:/Users/Yushev/git/optiga-trust-qi/projects/xmc4700_relax_kit/common/Libraries/XMCLib/inc\xmc_ccu8.h ****  *     - Documentation updates <br>
  42:C:/Users/Yushev/git/optiga-trust-qi/projects/xmc4700_relax_kit/common/Libraries/XMCLib/inc\xmc_ccu8.h ****  *
  43:C:/Users/Yushev/git/optiga-trust-qi/projects/xmc4700_relax_kit/common/Libraries/XMCLib/inc\xmc_ccu8.h ****  * 2015-06-20:
  44:C:/Users/Yushev/git/optiga-trust-qi/projects/xmc4700_relax_kit/common/Libraries/XMCLib/inc\xmc_ccu8.h ****  *     - Removed version macros and declaration of GetDriverVersion API <br>
  45:C:/Users/Yushev/git/optiga-trust-qi/projects/xmc4700_relax_kit/common/Libraries/XMCLib/inc\xmc_ccu8.h ****  *     - Added XMC_CCU8_SLICE_LoadSelector() API, to select which compare register value has to be 
  46:C:/Users/Yushev/git/optiga-trust-qi/projects/xmc4700_relax_kit/common/Libraries/XMCLib/inc\xmc_ccu8.h ****  *       during external load event.
  47:C:/Users/Yushev/git/optiga-trust-qi/projects/xmc4700_relax_kit/common/Libraries/XMCLib/inc\xmc_ccu8.h ****  *
  48:C:/Users/Yushev/git/optiga-trust-qi/projects/xmc4700_relax_kit/common/Libraries/XMCLib/inc\xmc_ccu8.h ****  * 2015-07-01:
  49:C:/Users/Yushev/git/optiga-trust-qi/projects/xmc4700_relax_kit/common/Libraries/XMCLib/inc\xmc_ccu8.h ****  *     - In XMC_CCU8_SLICE_CHECK_INTERRUPT macro, fixed the missing item for compare match down for
  50:C:/Users/Yushev/git/optiga-trust-qi/projects/xmc4700_relax_kit/common/Libraries/XMCLib/inc\xmc_ccu8.h ****  *
  51:C:/Users/Yushev/git/optiga-trust-qi/projects/xmc4700_relax_kit/common/Libraries/XMCLib/inc\xmc_ccu8.h ****  * 2015-07-24:
  52:C:/Users/Yushev/git/optiga-trust-qi/projects/xmc4700_relax_kit/common/Libraries/XMCLib/inc\xmc_ccu8.h ****  *     - XMC_CCU8_SLICE_ConfigureStatusBitOverrideEvent() is updated to support XMC14 device. <br>
  53:C:/Users/Yushev/git/optiga-trust-qi/projects/xmc4700_relax_kit/common/Libraries/XMCLib/inc\xmc_ccu8.h ****  *
  54:C:/Users/Yushev/git/optiga-trust-qi/projects/xmc4700_relax_kit/common/Libraries/XMCLib/inc\xmc_ccu8.h ****  * 2015-08-17:
  55:C:/Users/Yushev/git/optiga-trust-qi/projects/xmc4700_relax_kit/common/Libraries/XMCLib/inc\xmc_ccu8.h ****  *     - XMC_CCU8_SLICE_PRESCALER_t enum is added to set the prescaler divider. <br>
  56:C:/Users/Yushev/git/optiga-trust-qi/projects/xmc4700_relax_kit/common/Libraries/XMCLib/inc\xmc_ccu8.h ****  *     - XMC_CCU8_SLICE_SHADOW_TRANSFER_MODE_t is added for all the devices except XMC45 devices, t
  57:C:/Users/Yushev/git/optiga-trust-qi/projects/xmc4700_relax_kit/common/Libraries/XMCLib/inc\xmc_ccu8.h ****  *       shadow transfer has to happen. <br>
  58:C:/Users/Yushev/git/optiga-trust-qi/projects/xmc4700_relax_kit/common/Libraries/XMCLib/inc\xmc_ccu8.h ****  *     - XMC_CCU8_SOURCE_OUT0_t, XMC_CCU8_SOURCE_OUT1_t, XMC_CCU8_SOURCE_OUT2_t, XMC_CCU8_SOURCE_OU
  59:C:/Users/Yushev/git/optiga-trust-qi/projects/xmc4700_relax_kit/common/Libraries/XMCLib/inc\xmc_ccu8.h ****  *       to maps one of the ST to OUT0, OUT1, OUT3, OUT4 signals.
  60:C:/Users/Yushev/git/optiga-trust-qi/projects/xmc4700_relax_kit/common/Libraries/XMCLib/inc\xmc_ccu8.h ****  *     - In XMC_CCU8_SLICE_COMPARE_CONFIG_t structure, selector_out0, selector_out1, selector_out2,
  61:C:/Users/Yushev/git/optiga-trust-qi/projects/xmc4700_relax_kit/common/Libraries/XMCLib/inc\xmc_ccu8.h ****  *       added to support XMC14 devices.
  62:C:/Users/Yushev/git/optiga-trust-qi/projects/xmc4700_relax_kit/common/Libraries/XMCLib/inc\xmc_ccu8.h ****  *     - XMC_CCU8_EnableShadowTransfer() API is made as inline, to improve the speed. <br>
  63:C:/Users/Yushev/git/optiga-trust-qi/projects/xmc4700_relax_kit/common/Libraries/XMCLib/inc\xmc_ccu8.h ****  *     - XMC_CCU8_SLICE_EnableCascadedShadowTransfer(), XMC_CCU8_SLICE_DisableCascadedShadowTransfe
  64:C:/Users/Yushev/git/optiga-trust-qi/projects/xmc4700_relax_kit/common/Libraries/XMCLib/inc\xmc_ccu8.h ****  *       XMC_CCU8_SLICE_SetShadowTransferMode() API are supported for all the devices except XMC45.
  65:C:/Users/Yushev/git/optiga-trust-qi/projects/xmc4700_relax_kit/common/Libraries/XMCLib/inc\xmc_ccu8.h ****  *
  66:C:/Users/Yushev/git/optiga-trust-qi/projects/xmc4700_relax_kit/common/Libraries/XMCLib/inc\xmc_ccu8.h ****  * 2015-09-29:
  67:C:/Users/Yushev/git/optiga-trust-qi/projects/xmc4700_relax_kit/common/Libraries/XMCLib/inc\xmc_ccu8.h ****  *     - In XMC_CCU8_SLICE_EVENT_LEVEL_SENSITIVITY_t, two more enum items are added to support exte
  68:C:/Users/Yushev/git/optiga-trust-qi/projects/xmc4700_relax_kit/common/Libraries/XMCLib/inc\xmc_ccu8.h ****  *       settings.
  69:C:/Users/Yushev/git/optiga-trust-qi/projects/xmc4700_relax_kit/common/Libraries/XMCLib/inc\xmc_ccu8.h ****  *
  70:C:/Users/Yushev/git/optiga-trust-qi/projects/xmc4700_relax_kit/common/Libraries/XMCLib/inc\xmc_ccu8.h ****  * 2015-10-07:
  71:C:/Users/Yushev/git/optiga-trust-qi/projects/xmc4700_relax_kit/common/Libraries/XMCLib/inc\xmc_ccu8.h ****  *     - XMC_CCU8_SLICE_SetTimerCompareMatchChannel1(), XMC_CCU8_SLICE_SetTimerCompareMatchChannel2
  72:C:/Users/Yushev/git/optiga-trust-qi/projects/xmc4700_relax_kit/common/Libraries/XMCLib/inc\xmc_ccu8.h ****  *       added to update the respective compare registers directly.
  73:C:/Users/Yushev/git/optiga-trust-qi/projects/xmc4700_relax_kit/common/Libraries/XMCLib/inc\xmc_ccu8.h ****  *     - XMC_CCU8_SLICE_GetEvent() is made as inline.
  74:C:/Users/Yushev/git/optiga-trust-qi/projects/xmc4700_relax_kit/common/Libraries/XMCLib/inc\xmc_ccu8.h ****  *     - XMC_CCU8_SLICE_MULTI_IRQ_ID_t is added to support the XMC_CCU8_SLICE_EnableMultipleEvents(
  75:C:/Users/Yushev/git/optiga-trust-qi/projects/xmc4700_relax_kit/common/Libraries/XMCLib/inc\xmc_ccu8.h ****  *       XMC_CCU8_SLICE_DisableMultipleEvents() APIs.
  76:C:/Users/Yushev/git/optiga-trust-qi/projects/xmc4700_relax_kit/common/Libraries/XMCLib/inc\xmc_ccu8.h ****  *     - DOC updates for the newly added APIs.
  77:C:/Users/Yushev/git/optiga-trust-qi/projects/xmc4700_relax_kit/common/Libraries/XMCLib/inc\xmc_ccu8.h ****  *
  78:C:/Users/Yushev/git/optiga-trust-qi/projects/xmc4700_relax_kit/common/Libraries/XMCLib/inc\xmc_ccu8.h ****  * 2016-03-09:
  79:C:/Users/Yushev/git/optiga-trust-qi/projects/xmc4700_relax_kit/common/Libraries/XMCLib/inc\xmc_ccu8.h ****  *     - Optimization of write only registers
  80:C:/Users/Yushev/git/optiga-trust-qi/projects/xmc4700_relax_kit/common/Libraries/XMCLib/inc\xmc_ccu8.h ****  *
  81:C:/Users/Yushev/git/optiga-trust-qi/projects/xmc4700_relax_kit/common/Libraries/XMCLib/inc\xmc_ccu8.h ****  * 2016-05-20:
  82:C:/Users/Yushev/git/optiga-trust-qi/projects/xmc4700_relax_kit/common/Libraries/XMCLib/inc\xmc_ccu8.h ****  *     - Added XMC_CCU8_SLICE_StopClearTimer()
  83:C:/Users/Yushev/git/optiga-trust-qi/projects/xmc4700_relax_kit/common/Libraries/XMCLib/inc\xmc_ccu8.h ****  *     - Changed XMC_CCU8_SLICE_StopTimer() and XMC_CCU8_SLICE_ClearTimer() 
  84:C:/Users/Yushev/git/optiga-trust-qi/projects/xmc4700_relax_kit/common/Libraries/XMCLib/inc\xmc_ccu8.h ****  *
  85:C:/Users/Yushev/git/optiga-trust-qi/projects/xmc4700_relax_kit/common/Libraries/XMCLib/inc\xmc_ccu8.h ****  * 2017-04-27:
  86:C:/Users/Yushev/git/optiga-trust-qi/projects/xmc4700_relax_kit/common/Libraries/XMCLib/inc\xmc_ccu8.h ****  *     - XMC_CCU8_SLICE_SetPrescaler() changed div_val parameter to type XMC_CCU8_SLICE_PRESCALER_t
  87:C:/Users/Yushev/git/optiga-trust-qi/projects/xmc4700_relax_kit/common/Libraries/XMCLib/inc\xmc_ccu8.h ****  *
  88:C:/Users/Yushev/git/optiga-trust-qi/projects/xmc4700_relax_kit/common/Libraries/XMCLib/inc\xmc_ccu8.h ****  * 2017-09-15:
  89:C:/Users/Yushev/git/optiga-trust-qi/projects/xmc4700_relax_kit/common/Libraries/XMCLib/inc\xmc_ccu8.h ****  *     - Fix XMC_CCU8_SLICE_SetShadowTransferMode()
  90:C:/Users/Yushev/git/optiga-trust-qi/projects/xmc4700_relax_kit/common/Libraries/XMCLib/inc\xmc_ccu8.h ****  *     - Added parity checking functionality
  91:C:/Users/Yushev/git/optiga-trust-qi/projects/xmc4700_relax_kit/common/Libraries/XMCLib/inc\xmc_ccu8.h ****  *
  92:C:/Users/Yushev/git/optiga-trust-qi/projects/xmc4700_relax_kit/common/Libraries/XMCLib/inc\xmc_ccu8.h ****  * @endcond
  93:C:/Users/Yushev/git/optiga-trust-qi/projects/xmc4700_relax_kit/common/Libraries/XMCLib/inc\xmc_ccu8.h ****  */
  94:C:/Users/Yushev/git/optiga-trust-qi/projects/xmc4700_relax_kit/common/Libraries/XMCLib/inc\xmc_ccu8.h **** 
  95:C:/Users/Yushev/git/optiga-trust-qi/projects/xmc4700_relax_kit/common/Libraries/XMCLib/inc\xmc_ccu8.h **** #ifndef XMC_CCU8_H
  96:C:/Users/Yushev/git/optiga-trust-qi/projects/xmc4700_relax_kit/common/Libraries/XMCLib/inc\xmc_ccu8.h **** #define XMC_CCU8_H
  97:C:/Users/Yushev/git/optiga-trust-qi/projects/xmc4700_relax_kit/common/Libraries/XMCLib/inc\xmc_ccu8.h **** 
  98:C:/Users/Yushev/git/optiga-trust-qi/projects/xmc4700_relax_kit/common/Libraries/XMCLib/inc\xmc_ccu8.h **** /**************************************************************************************************
  99:C:/Users/Yushev/git/optiga-trust-qi/projects/xmc4700_relax_kit/common/Libraries/XMCLib/inc\xmc_ccu8.h ****  * HEADER FILES
 100:C:/Users/Yushev/git/optiga-trust-qi/projects/xmc4700_relax_kit/common/Libraries/XMCLib/inc\xmc_ccu8.h ****  **************************************************************************************************
 101:C:/Users/Yushev/git/optiga-trust-qi/projects/xmc4700_relax_kit/common/Libraries/XMCLib/inc\xmc_ccu8.h **** #include "xmc_common.h"
 102:C:/Users/Yushev/git/optiga-trust-qi/projects/xmc4700_relax_kit/common/Libraries/XMCLib/inc\xmc_ccu8.h **** 
 103:C:/Users/Yushev/git/optiga-trust-qi/projects/xmc4700_relax_kit/common/Libraries/XMCLib/inc\xmc_ccu8.h **** #if defined(CCU80)
 104:C:/Users/Yushev/git/optiga-trust-qi/projects/xmc4700_relax_kit/common/Libraries/XMCLib/inc\xmc_ccu8.h **** 
 105:C:/Users/Yushev/git/optiga-trust-qi/projects/xmc4700_relax_kit/common/Libraries/XMCLib/inc\xmc_ccu8.h **** #if UC_FAMILY == XMC1
 106:C:/Users/Yushev/git/optiga-trust-qi/projects/xmc4700_relax_kit/common/Libraries/XMCLib/inc\xmc_ccu8.h ****  #include "xmc1_ccu8_map.h"
 107:C:/Users/Yushev/git/optiga-trust-qi/projects/xmc4700_relax_kit/common/Libraries/XMCLib/inc\xmc_ccu8.h **** #endif
 108:C:/Users/Yushev/git/optiga-trust-qi/projects/xmc4700_relax_kit/common/Libraries/XMCLib/inc\xmc_ccu8.h **** 
 109:C:/Users/Yushev/git/optiga-trust-qi/projects/xmc4700_relax_kit/common/Libraries/XMCLib/inc\xmc_ccu8.h **** #if UC_FAMILY == XMC4
 110:C:/Users/Yushev/git/optiga-trust-qi/projects/xmc4700_relax_kit/common/Libraries/XMCLib/inc\xmc_ccu8.h ****  #include "xmc4_ccu8_map.h"
 111:C:/Users/Yushev/git/optiga-trust-qi/projects/xmc4700_relax_kit/common/Libraries/XMCLib/inc\xmc_ccu8.h **** #endif
 112:C:/Users/Yushev/git/optiga-trust-qi/projects/xmc4700_relax_kit/common/Libraries/XMCLib/inc\xmc_ccu8.h **** 
 113:C:/Users/Yushev/git/optiga-trust-qi/projects/xmc4700_relax_kit/common/Libraries/XMCLib/inc\xmc_ccu8.h **** /**
 114:C:/Users/Yushev/git/optiga-trust-qi/projects/xmc4700_relax_kit/common/Libraries/XMCLib/inc\xmc_ccu8.h ****  * @addtogroup XMClib XMC Peripheral Library
 115:C:/Users/Yushev/git/optiga-trust-qi/projects/xmc4700_relax_kit/common/Libraries/XMCLib/inc\xmc_ccu8.h ****  * @{
 116:C:/Users/Yushev/git/optiga-trust-qi/projects/xmc4700_relax_kit/common/Libraries/XMCLib/inc\xmc_ccu8.h ****  */
 117:C:/Users/Yushev/git/optiga-trust-qi/projects/xmc4700_relax_kit/common/Libraries/XMCLib/inc\xmc_ccu8.h **** 
 118:C:/Users/Yushev/git/optiga-trust-qi/projects/xmc4700_relax_kit/common/Libraries/XMCLib/inc\xmc_ccu8.h **** /**
 119:C:/Users/Yushev/git/optiga-trust-qi/projects/xmc4700_relax_kit/common/Libraries/XMCLib/inc\xmc_ccu8.h ****  * @addtogroup CCU8
 120:C:/Users/Yushev/git/optiga-trust-qi/projects/xmc4700_relax_kit/common/Libraries/XMCLib/inc\xmc_ccu8.h ****  *
 121:C:/Users/Yushev/git/optiga-trust-qi/projects/xmc4700_relax_kit/common/Libraries/XMCLib/inc\xmc_ccu8.h ****  * @brief Capture Compare Unit 8 (CCU8) low level driver for XMC family of microcontrollers<br>
 122:C:/Users/Yushev/git/optiga-trust-qi/projects/xmc4700_relax_kit/common/Libraries/XMCLib/inc\xmc_ccu8.h ****  *
 123:C:/Users/Yushev/git/optiga-trust-qi/projects/xmc4700_relax_kit/common/Libraries/XMCLib/inc\xmc_ccu8.h ****  * The CCU8 peripheral functions play a major role in applications that need complex Pulse Width Mo
 124:C:/Users/Yushev/git/optiga-trust-qi/projects/xmc4700_relax_kit/common/Libraries/XMCLib/inc\xmc_ccu8.h ****  * generation, with complementary high side and low side switches, multi phase control. These funct
 125:C:/Users/Yushev/git/optiga-trust-qi/projects/xmc4700_relax_kit/common/Libraries/XMCLib/inc\xmc_ccu8.h ****  * with a very flexible and programmable signal conditioning scheme, make the CCU8 the must have pe
 126:C:/Users/Yushev/git/optiga-trust-qi/projects/xmc4700_relax_kit/common/Libraries/XMCLib/inc\xmc_ccu8.h ****  * of the art motor control, multi phase and multi level power electronics systems.\n
 127:C:/Users/Yushev/git/optiga-trust-qi/projects/xmc4700_relax_kit/common/Libraries/XMCLib/inc\xmc_ccu8.h ****  * Each CCU8 module is comprised of four identical 16 bit Capture/Compare Timer slices, CC8y (where
 128:C:/Users/Yushev/git/optiga-trust-qi/projects/xmc4700_relax_kit/common/Libraries/XMCLib/inc\xmc_ccu8.h ****  * timer slice can work in compare mode or in capture mode.
 129:C:/Users/Yushev/git/optiga-trust-qi/projects/xmc4700_relax_kit/common/Libraries/XMCLib/inc\xmc_ccu8.h ****  *
 130:C:/Users/Yushev/git/optiga-trust-qi/projects/xmc4700_relax_kit/common/Libraries/XMCLib/inc\xmc_ccu8.h ****  * APIs provided in this file cover the following functional blocks of CCU8:
 131:C:/Users/Yushev/git/optiga-trust-qi/projects/xmc4700_relax_kit/common/Libraries/XMCLib/inc\xmc_ccu8.h ****  * -- Timer configuration, Capture configuration, Function/Event configuration, Interrupt configura
 132:C:/Users/Yushev/git/optiga-trust-qi/projects/xmc4700_relax_kit/common/Libraries/XMCLib/inc\xmc_ccu8.h ****  * \par Note:
 133:C:/Users/Yushev/git/optiga-trust-qi/projects/xmc4700_relax_kit/common/Libraries/XMCLib/inc\xmc_ccu8.h ****  * 1. SLICE (APIs prefixed with e.g. XMC_CCU8_SLICE_)
 134:C:/Users/Yushev/git/optiga-trust-qi/projects/xmc4700_relax_kit/common/Libraries/XMCLib/inc\xmc_ccu8.h ****  * 2. Module (APIs are not having any prefix e.g. XMC_CCU8_)
 135:C:/Users/Yushev/git/optiga-trust-qi/projects/xmc4700_relax_kit/common/Libraries/XMCLib/inc\xmc_ccu8.h ****  *
 136:C:/Users/Yushev/git/optiga-trust-qi/projects/xmc4700_relax_kit/common/Libraries/XMCLib/inc\xmc_ccu8.h ****  * \par Timer(Compare mode) configuration:
 137:C:/Users/Yushev/git/optiga-trust-qi/projects/xmc4700_relax_kit/common/Libraries/XMCLib/inc\xmc_ccu8.h ****  * This section of the LLD provides the configuration structure XMC_CCU8_SLICE_COMPARE_CONFIG_t, 
 138:C:/Users/Yushev/git/optiga-trust-qi/projects/xmc4700_relax_kit/common/Libraries/XMCLib/inc\xmc_ccu8.h ****  * XMC_CCU8_SLICE_DEAD_TIME_CONFIG_t and the initialization functions XMC_CCU8_SLICE_CompareInit(),
 139:C:/Users/Yushev/git/optiga-trust-qi/projects/xmc4700_relax_kit/common/Libraries/XMCLib/inc\xmc_ccu8.h ****  *
 140:C:/Users/Yushev/git/optiga-trust-qi/projects/xmc4700_relax_kit/common/Libraries/XMCLib/inc\xmc_ccu8.h ****  * It can be used to:
 141:C:/Users/Yushev/git/optiga-trust-qi/projects/xmc4700_relax_kit/common/Libraries/XMCLib/inc\xmc_ccu8.h ****  * -# Start and Stop the timer. (XMC_CCU8_SLICE_StartTimer(), XMC_CCU8_SLICE_StopTimer())
 142:C:/Users/Yushev/git/optiga-trust-qi/projects/xmc4700_relax_kit/common/Libraries/XMCLib/inc\xmc_ccu8.h ****  * -# Update the period, compare, Dither, Prescaler  and Passive values. (XMC_CCU8_SLICE_SetTimerPe
 143:C:/Users/Yushev/git/optiga-trust-qi/projects/xmc4700_relax_kit/common/Libraries/XMCLib/inc\xmc_ccu8.h ****  *    XMC_CCU8_SLICE_SetTimerCompareMatch(), XMC_CCU8_SLICE_SetPrescaler(), XMC_CCU8_SLICE_SetDithe
 144:C:/Users/Yushev/git/optiga-trust-qi/projects/xmc4700_relax_kit/common/Libraries/XMCLib/inc\xmc_ccu8.h ****  *    XMC_CCU8_SLICE_SetPassiveLevel())
 145:C:/Users/Yushev/git/optiga-trust-qi/projects/xmc4700_relax_kit/common/Libraries/XMCLib/inc\xmc_ccu8.h ****  * -# Configure the dead time.(XMC_CCU8_SLICE_SetDeadTimeValue(), XMC_CCU8_SLICE_SetDeadTimePrescal
 146:C:/Users/Yushev/git/optiga-trust-qi/projects/xmc4700_relax_kit/common/Libraries/XMCLib/inc\xmc_ccu8.h ****  * -# Enable the slices to support multichannel mode. (XMC_CCU8_SLICE_EnableMultiChannelMode())
 147:C:/Users/Yushev/git/optiga-trust-qi/projects/xmc4700_relax_kit/common/Libraries/XMCLib/inc\xmc_ccu8.h ****  * 
 148:C:/Users/Yushev/git/optiga-trust-qi/projects/xmc4700_relax_kit/common/Libraries/XMCLib/inc\xmc_ccu8.h ****  * \par Capture configuration:
 149:C:/Users/Yushev/git/optiga-trust-qi/projects/xmc4700_relax_kit/common/Libraries/XMCLib/inc\xmc_ccu8.h ****  * This section of the LLD provides the configuration structure XMC_CCU8_SLICE_CAPTURE_CONFIG_t and
 150:C:/Users/Yushev/git/optiga-trust-qi/projects/xmc4700_relax_kit/common/Libraries/XMCLib/inc\xmc_ccu8.h ****  * function XMC_CCU8_SLICE_CaptureInit().
 151:C:/Users/Yushev/git/optiga-trust-qi/projects/xmc4700_relax_kit/common/Libraries/XMCLib/inc\xmc_ccu8.h ****  *
 152:C:/Users/Yushev/git/optiga-trust-qi/projects/xmc4700_relax_kit/common/Libraries/XMCLib/inc\xmc_ccu8.h ****  * It can be used to:
 153:C:/Users/Yushev/git/optiga-trust-qi/projects/xmc4700_relax_kit/common/Libraries/XMCLib/inc\xmc_ccu8.h ****  * -# Configure the capture functionality. (XMC_CCU8_SLICE_Capture0Config(), XMC_CCU8_SLICE_Capture
 154:C:/Users/Yushev/git/optiga-trust-qi/projects/xmc4700_relax_kit/common/Libraries/XMCLib/inc\xmc_ccu8.h ****  * -# Read the captured values along with the status, which indicate the value is latest or not.
 155:C:/Users/Yushev/git/optiga-trust-qi/projects/xmc4700_relax_kit/common/Libraries/XMCLib/inc\xmc_ccu8.h ****  *    (XMC_CCU8_SLICE_GetCaptureRegisterValue())
 156:C:/Users/Yushev/git/optiga-trust-qi/projects/xmc4700_relax_kit/common/Libraries/XMCLib/inc\xmc_ccu8.h ****  * 
 157:C:/Users/Yushev/git/optiga-trust-qi/projects/xmc4700_relax_kit/common/Libraries/XMCLib/inc\xmc_ccu8.h ****  * \par Function/Event configuration:
 158:C:/Users/Yushev/git/optiga-trust-qi/projects/xmc4700_relax_kit/common/Libraries/XMCLib/inc\xmc_ccu8.h ****  * This section of the LLD provides the configuration structure XMC_CCU8_SLICE_EVENT_CONFIG_t.
 159:C:/Users/Yushev/git/optiga-trust-qi/projects/xmc4700_relax_kit/common/Libraries/XMCLib/inc\xmc_ccu8.h ****  * 
 160:C:/Users/Yushev/git/optiga-trust-qi/projects/xmc4700_relax_kit/common/Libraries/XMCLib/inc\xmc_ccu8.h ****  * It can be used to:
 161:C:/Users/Yushev/git/optiga-trust-qi/projects/xmc4700_relax_kit/common/Libraries/XMCLib/inc\xmc_ccu8.h ****  * -# Enable and Disable the events. (XMC_CCU8_SLICE_EnableEvent(), XMC_CCU8_SLICE_DisableEvent())
 162:C:/Users/Yushev/git/optiga-trust-qi/projects/xmc4700_relax_kit/common/Libraries/XMCLib/inc\xmc_ccu8.h ****  * -# Configure to start and stop the timer on external events.(XMC_CCU8_SLICE_StartConfig(), XMC_C
 163:C:/Users/Yushev/git/optiga-trust-qi/projects/xmc4700_relax_kit/common/Libraries/XMCLib/inc\xmc_ccu8.h ****  * -# Modulation, external load and Gating of the timer output.(XMC_CCU8_SLICE_ModulationConfig(), 
 164:C:/Users/Yushev/git/optiga-trust-qi/projects/xmc4700_relax_kit/common/Libraries/XMCLib/inc\xmc_ccu8.h ****  *    XMC_CCU8_SLICE_LoadConfig(), XMC_CCU8_SLICE_GateConfig())
 165:C:/Users/Yushev/git/optiga-trust-qi/projects/xmc4700_relax_kit/common/Libraries/XMCLib/inc\xmc_ccu8.h ****  * -# Control the count direction of the timer based on the external event. (XMC_CCU8_SLICE_Directi
 166:C:/Users/Yushev/git/optiga-trust-qi/projects/xmc4700_relax_kit/common/Libraries/XMCLib/inc\xmc_ccu8.h ****  * -# Count the external events.(XMC_CCU8_SLICE_CountConfig())
 167:C:/Users/Yushev/git/optiga-trust-qi/projects/xmc4700_relax_kit/common/Libraries/XMCLib/inc\xmc_ccu8.h ****  * -# External Trap. Which can be used as protective feature.(XMC_CCU8_SLICE_EnableTrap(), XMC_CCU8
 168:C:/Users/Yushev/git/optiga-trust-qi/projects/xmc4700_relax_kit/common/Libraries/XMCLib/inc\xmc_ccu8.h ****  *    XMC_CCU8_SLICE_TrapConfig())
 169:C:/Users/Yushev/git/optiga-trust-qi/projects/xmc4700_relax_kit/common/Libraries/XMCLib/inc\xmc_ccu8.h ****  *
 170:C:/Users/Yushev/git/optiga-trust-qi/projects/xmc4700_relax_kit/common/Libraries/XMCLib/inc\xmc_ccu8.h ****  * \par Interrupt configuration:
 171:C:/Users/Yushev/git/optiga-trust-qi/projects/xmc4700_relax_kit/common/Libraries/XMCLib/inc\xmc_ccu8.h ****  * This section of the LLD provides the function to configure the interrupt node to each event (XMC
 172:C:/Users/Yushev/git/optiga-trust-qi/projects/xmc4700_relax_kit/common/Libraries/XMCLib/inc\xmc_ccu8.h ****  *
 173:C:/Users/Yushev/git/optiga-trust-qi/projects/xmc4700_relax_kit/common/Libraries/XMCLib/inc\xmc_ccu8.h ****  * @{
 174:C:/Users/Yushev/git/optiga-trust-qi/projects/xmc4700_relax_kit/common/Libraries/XMCLib/inc\xmc_ccu8.h ****  */
 175:C:/Users/Yushev/git/optiga-trust-qi/projects/xmc4700_relax_kit/common/Libraries/XMCLib/inc\xmc_ccu8.h **** 
 176:C:/Users/Yushev/git/optiga-trust-qi/projects/xmc4700_relax_kit/common/Libraries/XMCLib/inc\xmc_ccu8.h **** /**************************************************************************************************
 177:C:/Users/Yushev/git/optiga-trust-qi/projects/xmc4700_relax_kit/common/Libraries/XMCLib/inc\xmc_ccu8.h ****  * MACROS
 178:C:/Users/Yushev/git/optiga-trust-qi/projects/xmc4700_relax_kit/common/Libraries/XMCLib/inc\xmc_ccu8.h ****  **************************************************************************************************
 179:C:/Users/Yushev/git/optiga-trust-qi/projects/xmc4700_relax_kit/common/Libraries/XMCLib/inc\xmc_ccu8.h **** #define XMC_CCU8_SLICE_CHECK_INTERRUPT(interrupt) \
 180:C:/Users/Yushev/git/optiga-trust-qi/projects/xmc4700_relax_kit/common/Libraries/XMCLib/inc\xmc_ccu8.h ****     ((interrupt == XMC_CCU8_SLICE_IRQ_ID_PERIOD_MATCH)           || \
 181:C:/Users/Yushev/git/optiga-trust-qi/projects/xmc4700_relax_kit/common/Libraries/XMCLib/inc\xmc_ccu8.h ****      (interrupt == XMC_CCU8_SLICE_IRQ_ID_ONE_MATCH)              || \
 182:C:/Users/Yushev/git/optiga-trust-qi/projects/xmc4700_relax_kit/common/Libraries/XMCLib/inc\xmc_ccu8.h ****      (interrupt == XMC_CCU8_SLICE_IRQ_ID_COMPARE_MATCH_UP_CH_1)  || \
 183:C:/Users/Yushev/git/optiga-trust-qi/projects/xmc4700_relax_kit/common/Libraries/XMCLib/inc\xmc_ccu8.h ****      (interrupt == XMC_CCU8_SLICE_IRQ_ID_COMPARE_MATCH_DOWN_CH_1)|| \
 184:C:/Users/Yushev/git/optiga-trust-qi/projects/xmc4700_relax_kit/common/Libraries/XMCLib/inc\xmc_ccu8.h ****      (interrupt == XMC_CCU8_SLICE_IRQ_ID_COMPARE_MATCH_UP_CH_2)  || \
 185:C:/Users/Yushev/git/optiga-trust-qi/projects/xmc4700_relax_kit/common/Libraries/XMCLib/inc\xmc_ccu8.h ****      (interrupt == XMC_CCU8_SLICE_IRQ_ID_COMPARE_MATCH_DOWN_CH_2)|| \
 186:C:/Users/Yushev/git/optiga-trust-qi/projects/xmc4700_relax_kit/common/Libraries/XMCLib/inc\xmc_ccu8.h ****      (interrupt == XMC_CCU8_SLICE_IRQ_ID_EVENT0)                 || \
 187:C:/Users/Yushev/git/optiga-trust-qi/projects/xmc4700_relax_kit/common/Libraries/XMCLib/inc\xmc_ccu8.h ****      (interrupt == XMC_CCU8_SLICE_IRQ_ID_EVENT1)                 || \
 188:C:/Users/Yushev/git/optiga-trust-qi/projects/xmc4700_relax_kit/common/Libraries/XMCLib/inc\xmc_ccu8.h ****      (interrupt == XMC_CCU8_SLICE_IRQ_ID_EVENT2)                 || \
 189:C:/Users/Yushev/git/optiga-trust-qi/projects/xmc4700_relax_kit/common/Libraries/XMCLib/inc\xmc_ccu8.h ****      (interrupt == XMC_CCU8_SLICE_IRQ_ID_TRAP))
 190:C:/Users/Yushev/git/optiga-trust-qi/projects/xmc4700_relax_kit/common/Libraries/XMCLib/inc\xmc_ccu8.h ****      
 191:C:/Users/Yushev/git/optiga-trust-qi/projects/xmc4700_relax_kit/common/Libraries/XMCLib/inc\xmc_ccu8.h **** /* Macro to check if the slice ptr passed is valid */
 192:C:/Users/Yushev/git/optiga-trust-qi/projects/xmc4700_relax_kit/common/Libraries/XMCLib/inc\xmc_ccu8.h **** #define XMC_CCU8_SLICE_CHECK_COMP_CHANNEL(cmp_channel) \
 193:C:/Users/Yushev/git/optiga-trust-qi/projects/xmc4700_relax_kit/common/Libraries/XMCLib/inc\xmc_ccu8.h ****     ((cmp_channel == XMC_CCU8_SLICE_COMPARE_CHANNEL_1) || \
 194:C:/Users/Yushev/git/optiga-trust-qi/projects/xmc4700_relax_kit/common/Libraries/XMCLib/inc\xmc_ccu8.h ****      (cmp_channel == XMC_CCU8_SLICE_COMPARE_CHANNEL_2))
 195:C:/Users/Yushev/git/optiga-trust-qi/projects/xmc4700_relax_kit/common/Libraries/XMCLib/inc\xmc_ccu8.h **** 
 196:C:/Users/Yushev/git/optiga-trust-qi/projects/xmc4700_relax_kit/common/Libraries/XMCLib/inc\xmc_ccu8.h **** /**************************************************************************************************
 197:C:/Users/Yushev/git/optiga-trust-qi/projects/xmc4700_relax_kit/common/Libraries/XMCLib/inc\xmc_ccu8.h ****  * ENUMS
 198:C:/Users/Yushev/git/optiga-trust-qi/projects/xmc4700_relax_kit/common/Libraries/XMCLib/inc\xmc_ccu8.h ****  **************************************************************************************************
 199:C:/Users/Yushev/git/optiga-trust-qi/projects/xmc4700_relax_kit/common/Libraries/XMCLib/inc\xmc_ccu8.h **** 
 200:C:/Users/Yushev/git/optiga-trust-qi/projects/xmc4700_relax_kit/common/Libraries/XMCLib/inc\xmc_ccu8.h **** /**
 201:C:/Users/Yushev/git/optiga-trust-qi/projects/xmc4700_relax_kit/common/Libraries/XMCLib/inc\xmc_ccu8.h ****  * Typedef for CCU8 Global data structure
 202:C:/Users/Yushev/git/optiga-trust-qi/projects/xmc4700_relax_kit/common/Libraries/XMCLib/inc\xmc_ccu8.h ****  */
 203:C:/Users/Yushev/git/optiga-trust-qi/projects/xmc4700_relax_kit/common/Libraries/XMCLib/inc\xmc_ccu8.h **** typedef CCU8_GLOBAL_TypeDef XMC_CCU8_MODULE_t;
 204:C:/Users/Yushev/git/optiga-trust-qi/projects/xmc4700_relax_kit/common/Libraries/XMCLib/inc\xmc_ccu8.h **** 
 205:C:/Users/Yushev/git/optiga-trust-qi/projects/xmc4700_relax_kit/common/Libraries/XMCLib/inc\xmc_ccu8.h **** /**
 206:C:/Users/Yushev/git/optiga-trust-qi/projects/xmc4700_relax_kit/common/Libraries/XMCLib/inc\xmc_ccu8.h ****  * Typedef for CCU8 Slice data structure
 207:C:/Users/Yushev/git/optiga-trust-qi/projects/xmc4700_relax_kit/common/Libraries/XMCLib/inc\xmc_ccu8.h ****  */
 208:C:/Users/Yushev/git/optiga-trust-qi/projects/xmc4700_relax_kit/common/Libraries/XMCLib/inc\xmc_ccu8.h **** typedef CCU8_CC8_TypeDef XMC_CCU8_SLICE_t;
 209:C:/Users/Yushev/git/optiga-trust-qi/projects/xmc4700_relax_kit/common/Libraries/XMCLib/inc\xmc_ccu8.h **** 
 210:C:/Users/Yushev/git/optiga-trust-qi/projects/xmc4700_relax_kit/common/Libraries/XMCLib/inc\xmc_ccu8.h **** /**
 211:C:/Users/Yushev/git/optiga-trust-qi/projects/xmc4700_relax_kit/common/Libraries/XMCLib/inc\xmc_ccu8.h ****  *  Return Value of an API
 212:C:/Users/Yushev/git/optiga-trust-qi/projects/xmc4700_relax_kit/common/Libraries/XMCLib/inc\xmc_ccu8.h ****  */
 213:C:/Users/Yushev/git/optiga-trust-qi/projects/xmc4700_relax_kit/common/Libraries/XMCLib/inc\xmc_ccu8.h **** typedef enum XMC_CCU8_STATUS
 214:C:/Users/Yushev/git/optiga-trust-qi/projects/xmc4700_relax_kit/common/Libraries/XMCLib/inc\xmc_ccu8.h **** {
 215:C:/Users/Yushev/git/optiga-trust-qi/projects/xmc4700_relax_kit/common/Libraries/XMCLib/inc\xmc_ccu8.h ****   XMC_CCU8_STATUS_OK      = 0U, /**< API fulfils request */
 216:C:/Users/Yushev/git/optiga-trust-qi/projects/xmc4700_relax_kit/common/Libraries/XMCLib/inc\xmc_ccu8.h ****   XMC_CCU8_STATUS_ERROR       , /**< API cannot fulfil request */
 217:C:/Users/Yushev/git/optiga-trust-qi/projects/xmc4700_relax_kit/common/Libraries/XMCLib/inc\xmc_ccu8.h ****   XMC_CCU8_STATUS_RUNNING     , /**< The timer slice is currently running */
 218:C:/Users/Yushev/git/optiga-trust-qi/projects/xmc4700_relax_kit/common/Libraries/XMCLib/inc\xmc_ccu8.h ****   XMC_CCU8_STATUS_IDLE          /**< The timer slice is currently idle */
 219:C:/Users/Yushev/git/optiga-trust-qi/projects/xmc4700_relax_kit/common/Libraries/XMCLib/inc\xmc_ccu8.h **** } XMC_CCU8_STATUS_t;
 220:C:/Users/Yushev/git/optiga-trust-qi/projects/xmc4700_relax_kit/common/Libraries/XMCLib/inc\xmc_ccu8.h **** 
 221:C:/Users/Yushev/git/optiga-trust-qi/projects/xmc4700_relax_kit/common/Libraries/XMCLib/inc\xmc_ccu8.h **** /**
 222:C:/Users/Yushev/git/optiga-trust-qi/projects/xmc4700_relax_kit/common/Libraries/XMCLib/inc\xmc_ccu8.h ****  * CCU8 module clock
 223:C:/Users/Yushev/git/optiga-trust-qi/projects/xmc4700_relax_kit/common/Libraries/XMCLib/inc\xmc_ccu8.h ****  */
 224:C:/Users/Yushev/git/optiga-trust-qi/projects/xmc4700_relax_kit/common/Libraries/XMCLib/inc\xmc_ccu8.h **** typedef enum XMC_CCU8_CLOCK
 225:C:/Users/Yushev/git/optiga-trust-qi/projects/xmc4700_relax_kit/common/Libraries/XMCLib/inc\xmc_ccu8.h **** {
 226:C:/Users/Yushev/git/optiga-trust-qi/projects/xmc4700_relax_kit/common/Libraries/XMCLib/inc\xmc_ccu8.h ****   XMC_CCU8_CLOCK_SCU        = 0U, /**< Select the fCCU as the clock */
 227:C:/Users/Yushev/git/optiga-trust-qi/projects/xmc4700_relax_kit/common/Libraries/XMCLib/inc\xmc_ccu8.h ****   XMC_CCU8_CLOCK_EXTERNAL_A     , /**< External clock-A */
 228:C:/Users/Yushev/git/optiga-trust-qi/projects/xmc4700_relax_kit/common/Libraries/XMCLib/inc\xmc_ccu8.h ****   XMC_CCU8_CLOCK_EXTERNAL_B     , /**< External clock-B */
 229:C:/Users/Yushev/git/optiga-trust-qi/projects/xmc4700_relax_kit/common/Libraries/XMCLib/inc\xmc_ccu8.h ****   XMC_CCU8_CLOCK_EXTERNAL_C       /**< External clock-C */
 230:C:/Users/Yushev/git/optiga-trust-qi/projects/xmc4700_relax_kit/common/Libraries/XMCLib/inc\xmc_ccu8.h **** } XMC_CCU8_CLOCK_t;
 231:C:/Users/Yushev/git/optiga-trust-qi/projects/xmc4700_relax_kit/common/Libraries/XMCLib/inc\xmc_ccu8.h **** 
 232:C:/Users/Yushev/git/optiga-trust-qi/projects/xmc4700_relax_kit/common/Libraries/XMCLib/inc\xmc_ccu8.h **** /**
 233:C:/Users/Yushev/git/optiga-trust-qi/projects/xmc4700_relax_kit/common/Libraries/XMCLib/inc\xmc_ccu8.h ****  * CCU8 set the shadow transfer type for multichannel mode
 234:C:/Users/Yushev/git/optiga-trust-qi/projects/xmc4700_relax_kit/common/Libraries/XMCLib/inc\xmc_ccu8.h ****  */
 235:C:/Users/Yushev/git/optiga-trust-qi/projects/xmc4700_relax_kit/common/Libraries/XMCLib/inc\xmc_ccu8.h **** typedef enum XMC_CCU8_MULTI_CHANNEL_SHADOW_TRANSFER
 236:C:/Users/Yushev/git/optiga-trust-qi/projects/xmc4700_relax_kit/common/Libraries/XMCLib/inc\xmc_ccu8.h **** {
 237:C:/Users/Yushev/git/optiga-trust-qi/projects/xmc4700_relax_kit/common/Libraries/XMCLib/inc\xmc_ccu8.h ****   XMC_CCU8_MULTI_CHANNEL_SHADOW_TRANSFER_SW_SLICE0       = (uint32_t)0x4000000, /**< Shadow transfe
 238:C:/Users/Yushev/git/optiga-trust-qi/projects/xmc4700_relax_kit/common/Libraries/XMCLib/inc\xmc_ccu8.h ****                                                                                      only for slice
 239:C:/Users/Yushev/git/optiga-trust-qi/projects/xmc4700_relax_kit/common/Libraries/XMCLib/inc\xmc_ccu8.h ****   XMC_CCU8_MULTI_CHANNEL_SHADOW_TRANSFER_SW_MCSS_SLICE0  = (uint32_t)0x4000400, /**< Shadow transfe
 240:C:/Users/Yushev/git/optiga-trust-qi/projects/xmc4700_relax_kit/common/Libraries/XMCLib/inc\xmc_ccu8.h ****                                                                                      and hardware f
 241:C:/Users/Yushev/git/optiga-trust-qi/projects/xmc4700_relax_kit/common/Libraries/XMCLib/inc\xmc_ccu8.h ****   XMC_CCU8_MULTI_CHANNEL_SHADOW_TRANSFER_SW_SLICE1       = (uint32_t)0x8000000, /**< Shadow transfe
 242:C:/Users/Yushev/git/optiga-trust-qi/projects/xmc4700_relax_kit/common/Libraries/XMCLib/inc\xmc_ccu8.h ****                                                                                      only for slice
 243:C:/Users/Yushev/git/optiga-trust-qi/projects/xmc4700_relax_kit/common/Libraries/XMCLib/inc\xmc_ccu8.h ****   XMC_CCU8_MULTI_CHANNEL_SHADOW_TRANSFER_SW_MCSS_SLICE1  = (uint32_t)0x8000800, /**< Shadow transfe
 244:C:/Users/Yushev/git/optiga-trust-qi/projects/xmc4700_relax_kit/common/Libraries/XMCLib/inc\xmc_ccu8.h ****                                                                                      and hardware f
 245:C:/Users/Yushev/git/optiga-trust-qi/projects/xmc4700_relax_kit/common/Libraries/XMCLib/inc\xmc_ccu8.h ****   XMC_CCU8_MULTI_CHANNEL_SHADOW_TRANSFER_SW_SLICE2       = (uint32_t)0x10000000, /**< Shadow transf
 246:C:/Users/Yushev/git/optiga-trust-qi/projects/xmc4700_relax_kit/common/Libraries/XMCLib/inc\xmc_ccu8.h ****                                                                                       only for slic
 247:C:/Users/Yushev/git/optiga-trust-qi/projects/xmc4700_relax_kit/common/Libraries/XMCLib/inc\xmc_ccu8.h ****   XMC_CCU8_MULTI_CHANNEL_SHADOW_TRANSFER_SW_MCSS_SLICE2  = (uint32_t)0x10001000, /**< Shadow transf
 248:C:/Users/Yushev/git/optiga-trust-qi/projects/xmc4700_relax_kit/common/Libraries/XMCLib/inc\xmc_ccu8.h ****                                                                                       and hardware 
 249:C:/Users/Yushev/git/optiga-trust-qi/projects/xmc4700_relax_kit/common/Libraries/XMCLib/inc\xmc_ccu8.h ****   XMC_CCU8_MULTI_CHANNEL_SHADOW_TRANSFER_SW_SLICE3       = (uint32_t)0x20000000, /**< Shadow transf
 250:C:/Users/Yushev/git/optiga-trust-qi/projects/xmc4700_relax_kit/common/Libraries/XMCLib/inc\xmc_ccu8.h ****                                                                                       only for slic
 251:C:/Users/Yushev/git/optiga-trust-qi/projects/xmc4700_relax_kit/common/Libraries/XMCLib/inc\xmc_ccu8.h ****   XMC_CCU8_MULTI_CHANNEL_SHADOW_TRANSFER_SW_MCSS_SLICE3  = (uint32_t)0x20002000  /**< Shadow transf
 252:C:/Users/Yushev/git/optiga-trust-qi/projects/xmc4700_relax_kit/common/Libraries/XMCLib/inc\xmc_ccu8.h ****                                                                                       and hardware 
 253:C:/Users/Yushev/git/optiga-trust-qi/projects/xmc4700_relax_kit/common/Libraries/XMCLib/inc\xmc_ccu8.h **** } XMC_CCU8_MULTI_CHANNEL_SHADOW_TRANSFER_t;
 254:C:/Users/Yushev/git/optiga-trust-qi/projects/xmc4700_relax_kit/common/Libraries/XMCLib/inc\xmc_ccu8.h **** 
 255:C:/Users/Yushev/git/optiga-trust-qi/projects/xmc4700_relax_kit/common/Libraries/XMCLib/inc\xmc_ccu8.h **** /**
 256:C:/Users/Yushev/git/optiga-trust-qi/projects/xmc4700_relax_kit/common/Libraries/XMCLib/inc\xmc_ccu8.h ****  *  Operational modes of CCU8 slice
 257:C:/Users/Yushev/git/optiga-trust-qi/projects/xmc4700_relax_kit/common/Libraries/XMCLib/inc\xmc_ccu8.h ****  */
 258:C:/Users/Yushev/git/optiga-trust-qi/projects/xmc4700_relax_kit/common/Libraries/XMCLib/inc\xmc_ccu8.h **** typedef enum XMC_CCU8_SLICE_MODE
 259:C:/Users/Yushev/git/optiga-trust-qi/projects/xmc4700_relax_kit/common/Libraries/XMCLib/inc\xmc_ccu8.h **** {
 260:C:/Users/Yushev/git/optiga-trust-qi/projects/xmc4700_relax_kit/common/Libraries/XMCLib/inc\xmc_ccu8.h ****   XMC_CCU8_SLICE_MODE_COMPARE  = 0U, /**< slice(CC8y) operates in Compare Mode */
 261:C:/Users/Yushev/git/optiga-trust-qi/projects/xmc4700_relax_kit/common/Libraries/XMCLib/inc\xmc_ccu8.h ****   XMC_CCU8_SLICE_MODE_CAPTURE        /**< slice(CC8y) operates in Capture Mode */
 262:C:/Users/Yushev/git/optiga-trust-qi/projects/xmc4700_relax_kit/common/Libraries/XMCLib/inc\xmc_ccu8.h **** } XMC_CCU8_SLICE_MODE_t;
 263:C:/Users/Yushev/git/optiga-trust-qi/projects/xmc4700_relax_kit/common/Libraries/XMCLib/inc\xmc_ccu8.h **** 
 264:C:/Users/Yushev/git/optiga-trust-qi/projects/xmc4700_relax_kit/common/Libraries/XMCLib/inc\xmc_ccu8.h **** /**
 265:C:/Users/Yushev/git/optiga-trust-qi/projects/xmc4700_relax_kit/common/Libraries/XMCLib/inc\xmc_ccu8.h ****  * Slice Output selection
 266:C:/Users/Yushev/git/optiga-trust-qi/projects/xmc4700_relax_kit/common/Libraries/XMCLib/inc\xmc_ccu8.h ****  */
 267:C:/Users/Yushev/git/optiga-trust-qi/projects/xmc4700_relax_kit/common/Libraries/XMCLib/inc\xmc_ccu8.h **** typedef enum XMC_CCU8_SLICE_OUTPUT
 268:C:/Users/Yushev/git/optiga-trust-qi/projects/xmc4700_relax_kit/common/Libraries/XMCLib/inc\xmc_ccu8.h **** {
 269:C:/Users/Yushev/git/optiga-trust-qi/projects/xmc4700_relax_kit/common/Libraries/XMCLib/inc\xmc_ccu8.h ****   XMC_CCU8_SLICE_OUTPUT_0  = 1U, /**< Slice Output-0 */
 270:C:/Users/Yushev/git/optiga-trust-qi/projects/xmc4700_relax_kit/common/Libraries/XMCLib/inc\xmc_ccu8.h ****   XMC_CCU8_SLICE_OUTPUT_1  = 2U, /**< Slice Output-1 */
 271:C:/Users/Yushev/git/optiga-trust-qi/projects/xmc4700_relax_kit/common/Libraries/XMCLib/inc\xmc_ccu8.h ****   XMC_CCU8_SLICE_OUTPUT_2  = 4U, /**< Slice Output-2 */
 272:C:/Users/Yushev/git/optiga-trust-qi/projects/xmc4700_relax_kit/common/Libraries/XMCLib/inc\xmc_ccu8.h ****   XMC_CCU8_SLICE_OUTPUT_3  = 8U  /**< Slice Output-3 */
 273:C:/Users/Yushev/git/optiga-trust-qi/projects/xmc4700_relax_kit/common/Libraries/XMCLib/inc\xmc_ccu8.h **** } XMC_CCU8_SLICE_OUTPUT_t;
 274:C:/Users/Yushev/git/optiga-trust-qi/projects/xmc4700_relax_kit/common/Libraries/XMCLib/inc\xmc_ccu8.h **** 
 275:C:/Users/Yushev/git/optiga-trust-qi/projects/xmc4700_relax_kit/common/Libraries/XMCLib/inc\xmc_ccu8.h **** /**
 276:C:/Users/Yushev/git/optiga-trust-qi/projects/xmc4700_relax_kit/common/Libraries/XMCLib/inc\xmc_ccu8.h ****  *  Timer counting modes for the slice
 277:C:/Users/Yushev/git/optiga-trust-qi/projects/xmc4700_relax_kit/common/Libraries/XMCLib/inc\xmc_ccu8.h ****  */
 278:C:/Users/Yushev/git/optiga-trust-qi/projects/xmc4700_relax_kit/common/Libraries/XMCLib/inc\xmc_ccu8.h **** typedef enum XMC_CCU8_SLICE_TIMER_COUNT_MODE
 279:C:/Users/Yushev/git/optiga-trust-qi/projects/xmc4700_relax_kit/common/Libraries/XMCLib/inc\xmc_ccu8.h **** {
 280:C:/Users/Yushev/git/optiga-trust-qi/projects/xmc4700_relax_kit/common/Libraries/XMCLib/inc\xmc_ccu8.h ****   XMC_CCU8_SLICE_TIMER_COUNT_MODE_EA  = 0U, /**< Edge Aligned Mode */
 281:C:/Users/Yushev/git/optiga-trust-qi/projects/xmc4700_relax_kit/common/Libraries/XMCLib/inc\xmc_ccu8.h ****   XMC_CCU8_SLICE_TIMER_COUNT_MODE_CA        /**< Centre Aligned Mode */
 282:C:/Users/Yushev/git/optiga-trust-qi/projects/xmc4700_relax_kit/common/Libraries/XMCLib/inc\xmc_ccu8.h **** } XMC_CCU8_SLICE_TIMER_COUNT_MODE_t;
 283:C:/Users/Yushev/git/optiga-trust-qi/projects/xmc4700_relax_kit/common/Libraries/XMCLib/inc\xmc_ccu8.h **** 
 284:C:/Users/Yushev/git/optiga-trust-qi/projects/xmc4700_relax_kit/common/Libraries/XMCLib/inc\xmc_ccu8.h **** /**
 285:C:/Users/Yushev/git/optiga-trust-qi/projects/xmc4700_relax_kit/common/Libraries/XMCLib/inc\xmc_ccu8.h ****  *  Timer repetition mode for the slice
 286:C:/Users/Yushev/git/optiga-trust-qi/projects/xmc4700_relax_kit/common/Libraries/XMCLib/inc\xmc_ccu8.h ****  */
 287:C:/Users/Yushev/git/optiga-trust-qi/projects/xmc4700_relax_kit/common/Libraries/XMCLib/inc\xmc_ccu8.h **** typedef enum XMC_CCU8_SLICE_TIMER_REPEAT_MODE
 288:C:/Users/Yushev/git/optiga-trust-qi/projects/xmc4700_relax_kit/common/Libraries/XMCLib/inc\xmc_ccu8.h **** {
 289:C:/Users/Yushev/git/optiga-trust-qi/projects/xmc4700_relax_kit/common/Libraries/XMCLib/inc\xmc_ccu8.h ****   XMC_CCU8_SLICE_TIMER_REPEAT_MODE_REPEAT = 0U, /**< Repetitive mode: continuous mode of operation 
 290:C:/Users/Yushev/git/optiga-trust-qi/projects/xmc4700_relax_kit/common/Libraries/XMCLib/inc\xmc_ccu8.h ****   XMC_CCU8_SLICE_TIMER_REPEAT_MODE_SINGLE       /**< Single shot mode: Once a Period match/One matc
 291:C:/Users/Yushev/git/optiga-trust-qi/projects/xmc4700_relax_kit/common/Libraries/XMCLib/inc\xmc_ccu8.h ****                                                      occurs timer goes to idle state */
 292:C:/Users/Yushev/git/optiga-trust-qi/projects/xmc4700_relax_kit/common/Libraries/XMCLib/inc\xmc_ccu8.h **** } XMC_CCU8_SLICE_TIMER_REPEAT_MODE_t;
 293:C:/Users/Yushev/git/optiga-trust-qi/projects/xmc4700_relax_kit/common/Libraries/XMCLib/inc\xmc_ccu8.h **** 
 294:C:/Users/Yushev/git/optiga-trust-qi/projects/xmc4700_relax_kit/common/Libraries/XMCLib/inc\xmc_ccu8.h **** /**
 295:C:/Users/Yushev/git/optiga-trust-qi/projects/xmc4700_relax_kit/common/Libraries/XMCLib/inc\xmc_ccu8.h ****  * Timer counting direction for the CCU8 slice
 296:C:/Users/Yushev/git/optiga-trust-qi/projects/xmc4700_relax_kit/common/Libraries/XMCLib/inc\xmc_ccu8.h ****  */
 297:C:/Users/Yushev/git/optiga-trust-qi/projects/xmc4700_relax_kit/common/Libraries/XMCLib/inc\xmc_ccu8.h **** typedef enum XMC_CCU8_SLICE_TIMER_COUNT_DIR
 298:C:/Users/Yushev/git/optiga-trust-qi/projects/xmc4700_relax_kit/common/Libraries/XMCLib/inc\xmc_ccu8.h **** {
 299:C:/Users/Yushev/git/optiga-trust-qi/projects/xmc4700_relax_kit/common/Libraries/XMCLib/inc\xmc_ccu8.h ****   XMC_CCU8_SLICE_TIMER_COUNT_DIR_UP   = 0U, /**< Counting up */
 300:C:/Users/Yushev/git/optiga-trust-qi/projects/xmc4700_relax_kit/common/Libraries/XMCLib/inc\xmc_ccu8.h ****   XMC_CCU8_SLICE_TIMER_COUNT_DIR_DOWN       /**< Counting down */
 301:C:/Users/Yushev/git/optiga-trust-qi/projects/xmc4700_relax_kit/common/Libraries/XMCLib/inc\xmc_ccu8.h **** } XMC_CCU8_SLICE_TIMER_COUNT_DIR_t;
 302:C:/Users/Yushev/git/optiga-trust-qi/projects/xmc4700_relax_kit/common/Libraries/XMCLib/inc\xmc_ccu8.h **** 
 303:C:/Users/Yushev/git/optiga-trust-qi/projects/xmc4700_relax_kit/common/Libraries/XMCLib/inc\xmc_ccu8.h **** /**
 304:C:/Users/Yushev/git/optiga-trust-qi/projects/xmc4700_relax_kit/common/Libraries/XMCLib/inc\xmc_ccu8.h ****  *  Capture mode register sets
 305:C:/Users/Yushev/git/optiga-trust-qi/projects/xmc4700_relax_kit/common/Libraries/XMCLib/inc\xmc_ccu8.h ****  */
 306:C:/Users/Yushev/git/optiga-trust-qi/projects/xmc4700_relax_kit/common/Libraries/XMCLib/inc\xmc_ccu8.h **** typedef enum XMC_CCU8_SLICE_CAP_REG_SET
 307:C:/Users/Yushev/git/optiga-trust-qi/projects/xmc4700_relax_kit/common/Libraries/XMCLib/inc\xmc_ccu8.h **** {
 308:C:/Users/Yushev/git/optiga-trust-qi/projects/xmc4700_relax_kit/common/Libraries/XMCLib/inc\xmc_ccu8.h ****   XMC_CCU8_SLICE_CAP_REG_SET_LOW  = 0U, /**< Capture register-0, Capture register-1 used */
 309:C:/Users/Yushev/git/optiga-trust-qi/projects/xmc4700_relax_kit/common/Libraries/XMCLib/inc\xmc_ccu8.h ****   XMC_CCU8_SLICE_CAP_REG_SET_HIGH       /**< Capture register-0, Capture register-1 used */
 310:C:/Users/Yushev/git/optiga-trust-qi/projects/xmc4700_relax_kit/common/Libraries/XMCLib/inc\xmc_ccu8.h **** } XMC_CCU8_SLICE_CAP_REG_SET_t;
 311:C:/Users/Yushev/git/optiga-trust-qi/projects/xmc4700_relax_kit/common/Libraries/XMCLib/inc\xmc_ccu8.h **** 
 312:C:/Users/Yushev/git/optiga-trust-qi/projects/xmc4700_relax_kit/common/Libraries/XMCLib/inc\xmc_ccu8.h **** /**
 313:C:/Users/Yushev/git/optiga-trust-qi/projects/xmc4700_relax_kit/common/Libraries/XMCLib/inc\xmc_ccu8.h ****  *  Prescaler mode
 314:C:/Users/Yushev/git/optiga-trust-qi/projects/xmc4700_relax_kit/common/Libraries/XMCLib/inc\xmc_ccu8.h ****  */
 315:C:/Users/Yushev/git/optiga-trust-qi/projects/xmc4700_relax_kit/common/Libraries/XMCLib/inc\xmc_ccu8.h **** typedef enum XMC_CCU8_SLICE_PRESCALER_MODE
 316:C:/Users/Yushev/git/optiga-trust-qi/projects/xmc4700_relax_kit/common/Libraries/XMCLib/inc\xmc_ccu8.h **** {
 317:C:/Users/Yushev/git/optiga-trust-qi/projects/xmc4700_relax_kit/common/Libraries/XMCLib/inc\xmc_ccu8.h ****   XMC_CCU8_SLICE_PRESCALER_MODE_NORMAL = 0U, /**< Fixed division of module clock */
 318:C:/Users/Yushev/git/optiga-trust-qi/projects/xmc4700_relax_kit/common/Libraries/XMCLib/inc\xmc_ccu8.h ****   XMC_CCU8_SLICE_PRESCALER_MODE_FLOAT        /**< Floating divider */
 319:C:/Users/Yushev/git/optiga-trust-qi/projects/xmc4700_relax_kit/common/Libraries/XMCLib/inc\xmc_ccu8.h **** } XMC_CCU8_SLICE_PRESCALER_MODE_t;
 320:C:/Users/Yushev/git/optiga-trust-qi/projects/xmc4700_relax_kit/common/Libraries/XMCLib/inc\xmc_ccu8.h **** 
 321:C:/Users/Yushev/git/optiga-trust-qi/projects/xmc4700_relax_kit/common/Libraries/XMCLib/inc\xmc_ccu8.h **** /**
 322:C:/Users/Yushev/git/optiga-trust-qi/projects/xmc4700_relax_kit/common/Libraries/XMCLib/inc\xmc_ccu8.h ****  *  Timer output passive level
 323:C:/Users/Yushev/git/optiga-trust-qi/projects/xmc4700_relax_kit/common/Libraries/XMCLib/inc\xmc_ccu8.h ****  */
 324:C:/Users/Yushev/git/optiga-trust-qi/projects/xmc4700_relax_kit/common/Libraries/XMCLib/inc\xmc_ccu8.h **** typedef enum XMC_CCU8_SLICE_OUTPUT_PASSIVE_LEVEL
 325:C:/Users/Yushev/git/optiga-trust-qi/projects/xmc4700_relax_kit/common/Libraries/XMCLib/inc\xmc_ccu8.h **** {
 326:C:/Users/Yushev/git/optiga-trust-qi/projects/xmc4700_relax_kit/common/Libraries/XMCLib/inc\xmc_ccu8.h ****   XMC_CCU8_SLICE_OUTPUT_PASSIVE_LEVEL_LOW  = 0U, /**< Passive level = Low */
 327:C:/Users/Yushev/git/optiga-trust-qi/projects/xmc4700_relax_kit/common/Libraries/XMCLib/inc\xmc_ccu8.h ****   XMC_CCU8_SLICE_OUTPUT_PASSIVE_LEVEL_HIGH       /**< Passive level = High */
 328:C:/Users/Yushev/git/optiga-trust-qi/projects/xmc4700_relax_kit/common/Libraries/XMCLib/inc\xmc_ccu8.h **** } XMC_CCU8_SLICE_OUTPUT_PASSIVE_LEVEL_t;
 329:C:/Users/Yushev/git/optiga-trust-qi/projects/xmc4700_relax_kit/common/Libraries/XMCLib/inc\xmc_ccu8.h **** 
 330:C:/Users/Yushev/git/optiga-trust-qi/projects/xmc4700_relax_kit/common/Libraries/XMCLib/inc\xmc_ccu8.h **** /**
 331:C:/Users/Yushev/git/optiga-trust-qi/projects/xmc4700_relax_kit/common/Libraries/XMCLib/inc\xmc_ccu8.h ****  *  Compare Channel selection
 332:C:/Users/Yushev/git/optiga-trust-qi/projects/xmc4700_relax_kit/common/Libraries/XMCLib/inc\xmc_ccu8.h ****  */
 333:C:/Users/Yushev/git/optiga-trust-qi/projects/xmc4700_relax_kit/common/Libraries/XMCLib/inc\xmc_ccu8.h **** typedef enum XMC_CCU8_SLICE_COMPARE_CHANNEL
 334:C:/Users/Yushev/git/optiga-trust-qi/projects/xmc4700_relax_kit/common/Libraries/XMCLib/inc\xmc_ccu8.h **** {
 335:C:/Users/Yushev/git/optiga-trust-qi/projects/xmc4700_relax_kit/common/Libraries/XMCLib/inc\xmc_ccu8.h ****   XMC_CCU8_SLICE_COMPARE_CHANNEL_1  = 0U, /**< Compare Channel-1 */
 336:C:/Users/Yushev/git/optiga-trust-qi/projects/xmc4700_relax_kit/common/Libraries/XMCLib/inc\xmc_ccu8.h ****   XMC_CCU8_SLICE_COMPARE_CHANNEL_2        /**< Compare Channel-2 */
 337:C:/Users/Yushev/git/optiga-trust-qi/projects/xmc4700_relax_kit/common/Libraries/XMCLib/inc\xmc_ccu8.h **** } XMC_CCU8_SLICE_COMPARE_CHANNEL_t;
 338:C:/Users/Yushev/git/optiga-trust-qi/projects/xmc4700_relax_kit/common/Libraries/XMCLib/inc\xmc_ccu8.h **** 
 339:C:/Users/Yushev/git/optiga-trust-qi/projects/xmc4700_relax_kit/common/Libraries/XMCLib/inc\xmc_ccu8.h **** /**
 340:C:/Users/Yushev/git/optiga-trust-qi/projects/xmc4700_relax_kit/common/Libraries/XMCLib/inc\xmc_ccu8.h ****  * Timer clock Divider
 341:C:/Users/Yushev/git/optiga-trust-qi/projects/xmc4700_relax_kit/common/Libraries/XMCLib/inc\xmc_ccu8.h ****  */
 342:C:/Users/Yushev/git/optiga-trust-qi/projects/xmc4700_relax_kit/common/Libraries/XMCLib/inc\xmc_ccu8.h **** typedef enum XMC_CCU8_SLICE_PRESCALER
 343:C:/Users/Yushev/git/optiga-trust-qi/projects/xmc4700_relax_kit/common/Libraries/XMCLib/inc\xmc_ccu8.h **** {
 344:C:/Users/Yushev/git/optiga-trust-qi/projects/xmc4700_relax_kit/common/Libraries/XMCLib/inc\xmc_ccu8.h ****   XMC_CCU8_SLICE_PRESCALER_1  = 0U, /**< Slice Clock = fccu8 */
 345:C:/Users/Yushev/git/optiga-trust-qi/projects/xmc4700_relax_kit/common/Libraries/XMCLib/inc\xmc_ccu8.h ****   XMC_CCU8_SLICE_PRESCALER_2      , /**< Slice Clock = fccu8/2 */
 346:C:/Users/Yushev/git/optiga-trust-qi/projects/xmc4700_relax_kit/common/Libraries/XMCLib/inc\xmc_ccu8.h ****   XMC_CCU8_SLICE_PRESCALER_4      , /**< Slice Clock = fccu8/4 */
 347:C:/Users/Yushev/git/optiga-trust-qi/projects/xmc4700_relax_kit/common/Libraries/XMCLib/inc\xmc_ccu8.h ****   XMC_CCU8_SLICE_PRESCALER_8      , /**< Slice Clock = fccu8/8 */
 348:C:/Users/Yushev/git/optiga-trust-qi/projects/xmc4700_relax_kit/common/Libraries/XMCLib/inc\xmc_ccu8.h ****   XMC_CCU8_SLICE_PRESCALER_16     , /**< Slice Clock = fccu8/16 */
 349:C:/Users/Yushev/git/optiga-trust-qi/projects/xmc4700_relax_kit/common/Libraries/XMCLib/inc\xmc_ccu8.h ****   XMC_CCU8_SLICE_PRESCALER_32     , /**< Slice Clock = fccu8/32 */
 350:C:/Users/Yushev/git/optiga-trust-qi/projects/xmc4700_relax_kit/common/Libraries/XMCLib/inc\xmc_ccu8.h ****   XMC_CCU8_SLICE_PRESCALER_64     , /**< Slice Clock = fccu8/64 */
 351:C:/Users/Yushev/git/optiga-trust-qi/projects/xmc4700_relax_kit/common/Libraries/XMCLib/inc\xmc_ccu8.h ****   XMC_CCU8_SLICE_PRESCALER_128    , /**< Slice Clock = fccu8/128 */
 352:C:/Users/Yushev/git/optiga-trust-qi/projects/xmc4700_relax_kit/common/Libraries/XMCLib/inc\xmc_ccu8.h ****   XMC_CCU8_SLICE_PRESCALER_256    , /**< Slice Clock = fccu8/256 */
 353:C:/Users/Yushev/git/optiga-trust-qi/projects/xmc4700_relax_kit/common/Libraries/XMCLib/inc\xmc_ccu8.h ****   XMC_CCU8_SLICE_PRESCALER_512    , /**< Slice Clock = fccu8/512 */
 354:C:/Users/Yushev/git/optiga-trust-qi/projects/xmc4700_relax_kit/common/Libraries/XMCLib/inc\xmc_ccu8.h ****   XMC_CCU8_SLICE_PRESCALER_1024   , /**< Slice Clock = fccu8/1024 */
 355:C:/Users/Yushev/git/optiga-trust-qi/projects/xmc4700_relax_kit/common/Libraries/XMCLib/inc\xmc_ccu8.h ****   XMC_CCU8_SLICE_PRESCALER_2048   , /**< Slice Clock = fccu8/2048 */
 356:C:/Users/Yushev/git/optiga-trust-qi/projects/xmc4700_relax_kit/common/Libraries/XMCLib/inc\xmc_ccu8.h ****   XMC_CCU8_SLICE_PRESCALER_4096   , /**< Slice Clock = fccu8/4096 */
 357:C:/Users/Yushev/git/optiga-trust-qi/projects/xmc4700_relax_kit/common/Libraries/XMCLib/inc\xmc_ccu8.h ****   XMC_CCU8_SLICE_PRESCALER_8192   , /**< Slice Clock = fccu8/8192 */
 358:C:/Users/Yushev/git/optiga-trust-qi/projects/xmc4700_relax_kit/common/Libraries/XMCLib/inc\xmc_ccu8.h ****   XMC_CCU8_SLICE_PRESCALER_16384  , /**< Slice Clock = fccu8/16384 */
 359:C:/Users/Yushev/git/optiga-trust-qi/projects/xmc4700_relax_kit/common/Libraries/XMCLib/inc\xmc_ccu8.h ****   XMC_CCU8_SLICE_PRESCALER_32768    /**< Slice Clock = fccu8/32768 */
 360:C:/Users/Yushev/git/optiga-trust-qi/projects/xmc4700_relax_kit/common/Libraries/XMCLib/inc\xmc_ccu8.h **** } XMC_CCU8_SLICE_PRESCALER_t;
 361:C:/Users/Yushev/git/optiga-trust-qi/projects/xmc4700_relax_kit/common/Libraries/XMCLib/inc\xmc_ccu8.h **** 
 362:C:/Users/Yushev/git/optiga-trust-qi/projects/xmc4700_relax_kit/common/Libraries/XMCLib/inc\xmc_ccu8.h **** /**
 363:C:/Users/Yushev/git/optiga-trust-qi/projects/xmc4700_relax_kit/common/Libraries/XMCLib/inc\xmc_ccu8.h ****  * Dead Time Generator Clock Divider
 364:C:/Users/Yushev/git/optiga-trust-qi/projects/xmc4700_relax_kit/common/Libraries/XMCLib/inc\xmc_ccu8.h ****  */
 365:C:/Users/Yushev/git/optiga-trust-qi/projects/xmc4700_relax_kit/common/Libraries/XMCLib/inc\xmc_ccu8.h **** typedef enum XMC_CCU8_SLICE_DTC_DIV
 366:C:/Users/Yushev/git/optiga-trust-qi/projects/xmc4700_relax_kit/common/Libraries/XMCLib/inc\xmc_ccu8.h **** {
 367:C:/Users/Yushev/git/optiga-trust-qi/projects/xmc4700_relax_kit/common/Libraries/XMCLib/inc\xmc_ccu8.h ****   XMC_CCU8_SLICE_DTC_DIV_1  = 0U, /**< DTC clock = Slice Clock */
 368:C:/Users/Yushev/git/optiga-trust-qi/projects/xmc4700_relax_kit/common/Libraries/XMCLib/inc\xmc_ccu8.h ****   XMC_CCU8_SLICE_DTC_DIV_2      , /**< DTC clock = Slice Clock/2 */
 369:C:/Users/Yushev/git/optiga-trust-qi/projects/xmc4700_relax_kit/common/Libraries/XMCLib/inc\xmc_ccu8.h ****   XMC_CCU8_SLICE_DTC_DIV_4      , /**< DTC clock = Slice Clock/4 */
 370:C:/Users/Yushev/git/optiga-trust-qi/projects/xmc4700_relax_kit/common/Libraries/XMCLib/inc\xmc_ccu8.h ****   XMC_CCU8_SLICE_DTC_DIV_8        /**< DTC clock = Slice Clock/8 */
 371:C:/Users/Yushev/git/optiga-trust-qi/projects/xmc4700_relax_kit/common/Libraries/XMCLib/inc\xmc_ccu8.h **** } XMC_CCU8_SLICE_DTC_DIV_t;
 372:C:/Users/Yushev/git/optiga-trust-qi/projects/xmc4700_relax_kit/common/Libraries/XMCLib/inc\xmc_ccu8.h **** 
 373:C:/Users/Yushev/git/optiga-trust-qi/projects/xmc4700_relax_kit/common/Libraries/XMCLib/inc\xmc_ccu8.h **** 
 374:C:/Users/Yushev/git/optiga-trust-qi/projects/xmc4700_relax_kit/common/Libraries/XMCLib/inc\xmc_ccu8.h **** /**
 375:C:/Users/Yushev/git/optiga-trust-qi/projects/xmc4700_relax_kit/common/Libraries/XMCLib/inc\xmc_ccu8.h ****  *  The compare channel output which is routed to the slice output signal(STy).
 376:C:/Users/Yushev/git/optiga-trust-qi/projects/xmc4700_relax_kit/common/Libraries/XMCLib/inc\xmc_ccu8.h ****  */
 377:C:/Users/Yushev/git/optiga-trust-qi/projects/xmc4700_relax_kit/common/Libraries/XMCLib/inc\xmc_ccu8.h **** typedef enum XMC_CCU8_SLICE_STATUS
 378:C:/Users/Yushev/git/optiga-trust-qi/projects/xmc4700_relax_kit/common/Libraries/XMCLib/inc\xmc_ccu8.h **** {
 379:C:/Users/Yushev/git/optiga-trust-qi/projects/xmc4700_relax_kit/common/Libraries/XMCLib/inc\xmc_ccu8.h ****   XMC_CCU8_SLICE_STATUS_CHANNEL_1        = 0U, /**< Channel-1 status connected to Slice Status */
 380:C:/Users/Yushev/git/optiga-trust-qi/projects/xmc4700_relax_kit/common/Libraries/XMCLib/inc\xmc_ccu8.h ****   XMC_CCU8_SLICE_STATUS_CHANNEL_2            , /**< Channel-2 status connected to Slice Status */
 381:C:/Users/Yushev/git/optiga-trust-qi/projects/xmc4700_relax_kit/common/Libraries/XMCLib/inc\xmc_ccu8.h ****   XMC_CCU8_SLICE_STATUS_CHANNEL_1_AND_2      , /**< \b Wired \b AND of Channel-1 and Channel-2 stat
 382:C:/Users/Yushev/git/optiga-trust-qi/projects/xmc4700_relax_kit/common/Libraries/XMCLib/inc\xmc_ccu8.h ****                                                     Slice status */
 383:C:/Users/Yushev/git/optiga-trust-qi/projects/xmc4700_relax_kit/common/Libraries/XMCLib/inc\xmc_ccu8.h **** #if ((UC_SERIES == XMC13) || (UC_SERIES == XMC14)) || defined(DOXYGEN)
 384:C:/Users/Yushev/git/optiga-trust-qi/projects/xmc4700_relax_kit/common/Libraries/XMCLib/inc\xmc_ccu8.h ****   XMC_CCU8_SLICE_STATUS_CHANNEL_1_OR_2         /**< \b Wired \b OR of Channel-1 and Channel-2 statu
 385:C:/Users/Yushev/git/optiga-trust-qi/projects/xmc4700_relax_kit/common/Libraries/XMCLib/inc\xmc_ccu8.h ****                                                     status. @note Only available for XMC1300 and XM
 386:C:/Users/Yushev/git/optiga-trust-qi/projects/xmc4700_relax_kit/common/Libraries/XMCLib/inc\xmc_ccu8.h **** #endif
 387:C:/Users/Yushev/git/optiga-trust-qi/projects/xmc4700_relax_kit/common/Libraries/XMCLib/inc\xmc_ccu8.h **** } XMC_CCU8_SLICE_STATUS_t;
 388:C:/Users/Yushev/git/optiga-trust-qi/projects/xmc4700_relax_kit/common/Libraries/XMCLib/inc\xmc_ccu8.h **** 
 389:C:/Users/Yushev/git/optiga-trust-qi/projects/xmc4700_relax_kit/common/Libraries/XMCLib/inc\xmc_ccu8.h **** /**
 390:C:/Users/Yushev/git/optiga-trust-qi/projects/xmc4700_relax_kit/common/Libraries/XMCLib/inc\xmc_ccu8.h ****  *  Compare channel for which modulation has to be applied
 391:C:/Users/Yushev/git/optiga-trust-qi/projects/xmc4700_relax_kit/common/Libraries/XMCLib/inc\xmc_ccu8.h ****  */
 392:C:/Users/Yushev/git/optiga-trust-qi/projects/xmc4700_relax_kit/common/Libraries/XMCLib/inc\xmc_ccu8.h **** typedef enum XMC_CCU8_SLICE_MODULATION_CHANNEL
 393:C:/Users/Yushev/git/optiga-trust-qi/projects/xmc4700_relax_kit/common/Libraries/XMCLib/inc\xmc_ccu8.h **** {
 394:C:/Users/Yushev/git/optiga-trust-qi/projects/xmc4700_relax_kit/common/Libraries/XMCLib/inc\xmc_ccu8.h ****   XMC_CCU8_SLICE_MODULATION_CHANNEL_NONE  = 0U, /**< No modulation */
 395:C:/Users/Yushev/git/optiga-trust-qi/projects/xmc4700_relax_kit/common/Libraries/XMCLib/inc\xmc_ccu8.h ****   XMC_CCU8_SLICE_MODULATION_CHANNEL_1         , /**< Modulation for Compare Channel-1 */
 396:C:/Users/Yushev/git/optiga-trust-qi/projects/xmc4700_relax_kit/common/Libraries/XMCLib/inc\xmc_ccu8.h ****   XMC_CCU8_SLICE_MODULATION_CHANNEL_2         , /**< Modulation for Compare Channel-2 */
 397:C:/Users/Yushev/git/optiga-trust-qi/projects/xmc4700_relax_kit/common/Libraries/XMCLib/inc\xmc_ccu8.h ****   XMC_CCU8_SLICE_MODULATION_CHANNEL_1_AND_2     /**< Modulation for Compare Channel-1 and Compare C
 398:C:/Users/Yushev/git/optiga-trust-qi/projects/xmc4700_relax_kit/common/Libraries/XMCLib/inc\xmc_ccu8.h **** } XMC_CCU8_SLICE_MODULATION_CHANNEL_t;
 399:C:/Users/Yushev/git/optiga-trust-qi/projects/xmc4700_relax_kit/common/Libraries/XMCLib/inc\xmc_ccu8.h **** 
 400:C:/Users/Yushev/git/optiga-trust-qi/projects/xmc4700_relax_kit/common/Libraries/XMCLib/inc\xmc_ccu8.h **** /**
 401:C:/Users/Yushev/git/optiga-trust-qi/projects/xmc4700_relax_kit/common/Libraries/XMCLib/inc\xmc_ccu8.h ****  *  External Function list
 402:C:/Users/Yushev/git/optiga-trust-qi/projects/xmc4700_relax_kit/common/Libraries/XMCLib/inc\xmc_ccu8.h ****  */
 403:C:/Users/Yushev/git/optiga-trust-qi/projects/xmc4700_relax_kit/common/Libraries/XMCLib/inc\xmc_ccu8.h **** typedef enum XMC_CCU8_SLICE_FUNCTION
 404:C:/Users/Yushev/git/optiga-trust-qi/projects/xmc4700_relax_kit/common/Libraries/XMCLib/inc\xmc_ccu8.h **** {
 405:C:/Users/Yushev/git/optiga-trust-qi/projects/xmc4700_relax_kit/common/Libraries/XMCLib/inc\xmc_ccu8.h ****   XMC_CCU8_SLICE_FUNCTION_START           = 0U, /**< Start function */
 406:C:/Users/Yushev/git/optiga-trust-qi/projects/xmc4700_relax_kit/common/Libraries/XMCLib/inc\xmc_ccu8.h ****   XMC_CCU8_SLICE_FUNCTION_STOP                , /**< Stop function */
 407:C:/Users/Yushev/git/optiga-trust-qi/projects/xmc4700_relax_kit/common/Libraries/XMCLib/inc\xmc_ccu8.h ****   XMC_CCU8_SLICE_FUNCTION_CAPTURE_EVENT0      , /**< Capture Event-0 function, CCycapt0 signal is u
 408:C:/Users/Yushev/git/optiga-trust-qi/projects/xmc4700_relax_kit/common/Libraries/XMCLib/inc\xmc_ccu8.h ****                                                      generation */
 409:C:/Users/Yushev/git/optiga-trust-qi/projects/xmc4700_relax_kit/common/Libraries/XMCLib/inc\xmc_ccu8.h ****   XMC_CCU8_SLICE_FUNCTION_CAPTURE_EVENT1      , /**< Capture Event-1 function, CCycapt1 signal is u
 410:C:/Users/Yushev/git/optiga-trust-qi/projects/xmc4700_relax_kit/common/Libraries/XMCLib/inc\xmc_ccu8.h ****                                                      generation */
 411:C:/Users/Yushev/git/optiga-trust-qi/projects/xmc4700_relax_kit/common/Libraries/XMCLib/inc\xmc_ccu8.h ****   XMC_CCU8_SLICE_FUNCTION_GATING              , /**< Gating function */
 412:C:/Users/Yushev/git/optiga-trust-qi/projects/xmc4700_relax_kit/common/Libraries/XMCLib/inc\xmc_ccu8.h ****   XMC_CCU8_SLICE_FUNCTION_DIRECTION           , /**< Direction function */
 413:C:/Users/Yushev/git/optiga-trust-qi/projects/xmc4700_relax_kit/common/Libraries/XMCLib/inc\xmc_ccu8.h ****   XMC_CCU8_SLICE_FUNCTION_LOAD                , /**< Load function */
 414:C:/Users/Yushev/git/optiga-trust-qi/projects/xmc4700_relax_kit/common/Libraries/XMCLib/inc\xmc_ccu8.h ****   XMC_CCU8_SLICE_FUNCTION_COUNT               , /**< Counting function */
 415:C:/Users/Yushev/git/optiga-trust-qi/projects/xmc4700_relax_kit/common/Libraries/XMCLib/inc\xmc_ccu8.h ****   XMC_CCU8_SLICE_FUNCTION_OVERRIDE            , /**< Override function */
 416:C:/Users/Yushev/git/optiga-trust-qi/projects/xmc4700_relax_kit/common/Libraries/XMCLib/inc\xmc_ccu8.h ****   XMC_CCU8_SLICE_FUNCTION_MODULATION          , /**< Modulation function */
 417:C:/Users/Yushev/git/optiga-trust-qi/projects/xmc4700_relax_kit/common/Libraries/XMCLib/inc\xmc_ccu8.h ****   XMC_CCU8_SLICE_FUNCTION_TRAP                  /**< Trap function */
 418:C:/Users/Yushev/git/optiga-trust-qi/projects/xmc4700_relax_kit/common/Libraries/XMCLib/inc\xmc_ccu8.h **** } XMC_CCU8_SLICE_FUNCTION_t;
 419:C:/Users/Yushev/git/optiga-trust-qi/projects/xmc4700_relax_kit/common/Libraries/XMCLib/inc\xmc_ccu8.h **** 
 420:C:/Users/Yushev/git/optiga-trust-qi/projects/xmc4700_relax_kit/common/Libraries/XMCLib/inc\xmc_ccu8.h **** /**
 421:C:/Users/Yushev/git/optiga-trust-qi/projects/xmc4700_relax_kit/common/Libraries/XMCLib/inc\xmc_ccu8.h ****  *  External Event list
 422:C:/Users/Yushev/git/optiga-trust-qi/projects/xmc4700_relax_kit/common/Libraries/XMCLib/inc\xmc_ccu8.h ****  */
 423:C:/Users/Yushev/git/optiga-trust-qi/projects/xmc4700_relax_kit/common/Libraries/XMCLib/inc\xmc_ccu8.h **** typedef enum XMC_CCU8_SLICE_EVENT
 424:C:/Users/Yushev/git/optiga-trust-qi/projects/xmc4700_relax_kit/common/Libraries/XMCLib/inc\xmc_ccu8.h **** {
 425:C:/Users/Yushev/git/optiga-trust-qi/projects/xmc4700_relax_kit/common/Libraries/XMCLib/inc\xmc_ccu8.h ****   XMC_CCU8_SLICE_EVENT_NONE  = 0U, /**< None */
 426:C:/Users/Yushev/git/optiga-trust-qi/projects/xmc4700_relax_kit/common/Libraries/XMCLib/inc\xmc_ccu8.h ****   XMC_CCU8_SLICE_EVENT_0         , /**< Event-0 */
 427:C:/Users/Yushev/git/optiga-trust-qi/projects/xmc4700_relax_kit/common/Libraries/XMCLib/inc\xmc_ccu8.h ****   XMC_CCU8_SLICE_EVENT_1         , /**< Event-1 */
 428:C:/Users/Yushev/git/optiga-trust-qi/projects/xmc4700_relax_kit/common/Libraries/XMCLib/inc\xmc_ccu8.h ****   XMC_CCU8_SLICE_EVENT_2           /**< Event-2 */
 429:C:/Users/Yushev/git/optiga-trust-qi/projects/xmc4700_relax_kit/common/Libraries/XMCLib/inc\xmc_ccu8.h **** } XMC_CCU8_SLICE_EVENT_t;
 430:C:/Users/Yushev/git/optiga-trust-qi/projects/xmc4700_relax_kit/common/Libraries/XMCLib/inc\xmc_ccu8.h **** 
 431:C:/Users/Yushev/git/optiga-trust-qi/projects/xmc4700_relax_kit/common/Libraries/XMCLib/inc\xmc_ccu8.h **** /**
 432:C:/Users/Yushev/git/optiga-trust-qi/projects/xmc4700_relax_kit/common/Libraries/XMCLib/inc\xmc_ccu8.h ****  *  External Event trigger criteria  - Edge sensitivity
 433:C:/Users/Yushev/git/optiga-trust-qi/projects/xmc4700_relax_kit/common/Libraries/XMCLib/inc\xmc_ccu8.h ****  */
 434:C:/Users/Yushev/git/optiga-trust-qi/projects/xmc4700_relax_kit/common/Libraries/XMCLib/inc\xmc_ccu8.h **** typedef enum XMC_CCU8_SLICE_EVENT_EDGE_SENSITIVITY
 435:C:/Users/Yushev/git/optiga-trust-qi/projects/xmc4700_relax_kit/common/Libraries/XMCLib/inc\xmc_ccu8.h **** {
 436:C:/Users/Yushev/git/optiga-trust-qi/projects/xmc4700_relax_kit/common/Libraries/XMCLib/inc\xmc_ccu8.h ****   XMC_CCU8_SLICE_EVENT_EDGE_SENSITIVITY_NONE          = 0U, /**< None */
 437:C:/Users/Yushev/git/optiga-trust-qi/projects/xmc4700_relax_kit/common/Libraries/XMCLib/inc\xmc_ccu8.h ****   XMC_CCU8_SLICE_EVENT_EDGE_SENSITIVITY_RISING_EDGE       , /**< Rising Edge of the input signal ge
 438:C:/Users/Yushev/git/optiga-trust-qi/projects/xmc4700_relax_kit/common/Libraries/XMCLib/inc\xmc_ccu8.h ****                                                                  event trigger */
 439:C:/Users/Yushev/git/optiga-trust-qi/projects/xmc4700_relax_kit/common/Libraries/XMCLib/inc\xmc_ccu8.h ****   XMC_CCU8_SLICE_EVENT_EDGE_SENSITIVITY_FALLING_EDGE      , /**< Falling Edge of the input signal g
 440:C:/Users/Yushev/git/optiga-trust-qi/projects/xmc4700_relax_kit/common/Libraries/XMCLib/inc\xmc_ccu8.h ****                                                                  trigger */
 441:C:/Users/Yushev/git/optiga-trust-qi/projects/xmc4700_relax_kit/common/Libraries/XMCLib/inc\xmc_ccu8.h ****   XMC_CCU8_SLICE_EVENT_EDGE_SENSITIVITY_DUAL_EDGE           /**< Both Rising and Falling edges caus
 442:C:/Users/Yushev/git/optiga-trust-qi/projects/xmc4700_relax_kit/common/Libraries/XMCLib/inc\xmc_ccu8.h **** } XMC_CCU8_SLICE_EVENT_EDGE_SENSITIVITY_t;
 443:C:/Users/Yushev/git/optiga-trust-qi/projects/xmc4700_relax_kit/common/Libraries/XMCLib/inc\xmc_ccu8.h **** 
 444:C:/Users/Yushev/git/optiga-trust-qi/projects/xmc4700_relax_kit/common/Libraries/XMCLib/inc\xmc_ccu8.h **** /**
 445:C:/Users/Yushev/git/optiga-trust-qi/projects/xmc4700_relax_kit/common/Libraries/XMCLib/inc\xmc_ccu8.h ****  *  External Event trigger criteria  - Level sensitivity
 446:C:/Users/Yushev/git/optiga-trust-qi/projects/xmc4700_relax_kit/common/Libraries/XMCLib/inc\xmc_ccu8.h ****  */
 447:C:/Users/Yushev/git/optiga-trust-qi/projects/xmc4700_relax_kit/common/Libraries/XMCLib/inc\xmc_ccu8.h **** typedef enum XMC_CCU8_SLICE_EVENT_LEVEL_SENSITIVITY
 448:C:/Users/Yushev/git/optiga-trust-qi/projects/xmc4700_relax_kit/common/Libraries/XMCLib/inc\xmc_ccu8.h **** {
 449:C:/Users/Yushev/git/optiga-trust-qi/projects/xmc4700_relax_kit/common/Libraries/XMCLib/inc\xmc_ccu8.h ****   XMC_CCU8_SLICE_EVENT_LEVEL_SENSITIVITY_ACTIVE_HIGH = 0U, /**< Level sensitive functions react to 
 450:C:/Users/Yushev/git/optiga-trust-qi/projects/xmc4700_relax_kit/common/Libraries/XMCLib/inc\xmc_ccu8.h ****   XMC_CCU8_SLICE_EVENT_LEVEL_SENSITIVITY_ACTIVE_LOW  = 1U, /**< Level sensitive functions react to 
 451:C:/Users/Yushev/git/optiga-trust-qi/projects/xmc4700_relax_kit/common/Libraries/XMCLib/inc\xmc_ccu8.h ****     /* Below enum items can be utilised specific to the functionality */
 452:C:/Users/Yushev/git/optiga-trust-qi/projects/xmc4700_relax_kit/common/Libraries/XMCLib/inc\xmc_ccu8.h ****   XMC_CCU8_SLICE_EVENT_LEVEL_SENSITIVITY_COUNT_UP_ON_LOW = 0U, /**< Timer counts up, during Low sta
 453:C:/Users/Yushev/git/optiga-trust-qi/projects/xmc4700_relax_kit/common/Libraries/XMCLib/inc\xmc_ccu8.h ****   XMC_CCU8_SLICE_EVENT_LEVEL_SENSITIVITY_COUNT_UP_ON_HIGH = 1U /**< Timer counts up, during High st
 454:C:/Users/Yushev/git/optiga-trust-qi/projects/xmc4700_relax_kit/common/Libraries/XMCLib/inc\xmc_ccu8.h **** } XMC_CCU8_SLICE_EVENT_LEVEL_SENSITIVITY_t;
 455:C:/Users/Yushev/git/optiga-trust-qi/projects/xmc4700_relax_kit/common/Libraries/XMCLib/inc\xmc_ccu8.h **** 
 456:C:/Users/Yushev/git/optiga-trust-qi/projects/xmc4700_relax_kit/common/Libraries/XMCLib/inc\xmc_ccu8.h **** /**
 457:C:/Users/Yushev/git/optiga-trust-qi/projects/xmc4700_relax_kit/common/Libraries/XMCLib/inc\xmc_ccu8.h ****  *  Low pass filter Configuration. The External Event input should be stable for a selected number 
 458:C:/Users/Yushev/git/optiga-trust-qi/projects/xmc4700_relax_kit/common/Libraries/XMCLib/inc\xmc_ccu8.h ****  */
 459:C:/Users/Yushev/git/optiga-trust-qi/projects/xmc4700_relax_kit/common/Libraries/XMCLib/inc\xmc_ccu8.h **** typedef enum XMC_CCU8_SLICE_EVENT_FILTER
 460:C:/Users/Yushev/git/optiga-trust-qi/projects/xmc4700_relax_kit/common/Libraries/XMCLib/inc\xmc_ccu8.h **** {
 461:C:/Users/Yushev/git/optiga-trust-qi/projects/xmc4700_relax_kit/common/Libraries/XMCLib/inc\xmc_ccu8.h ****   XMC_CCU8_SLICE_EVENT_FILTER_DISABLED  = 0U, /**< No Low Pass Filtering is applied */
 462:C:/Users/Yushev/git/optiga-trust-qi/projects/xmc4700_relax_kit/common/Libraries/XMCLib/inc\xmc_ccu8.h ****   XMC_CCU8_SLICE_EVENT_FILTER_3_CYCLES      , /**< Input should be stable for 3 clock cycles */
 463:C:/Users/Yushev/git/optiga-trust-qi/projects/xmc4700_relax_kit/common/Libraries/XMCLib/inc\xmc_ccu8.h ****   XMC_CCU8_SLICE_EVENT_FILTER_5_CYCLES      , /**< Input should be stable for 5 clock cycles */
 464:C:/Users/Yushev/git/optiga-trust-qi/projects/xmc4700_relax_kit/common/Libraries/XMCLib/inc\xmc_ccu8.h ****   XMC_CCU8_SLICE_EVENT_FILTER_7_CYCLES        /**< Input should be stable for 7 clock cycles */
 465:C:/Users/Yushev/git/optiga-trust-qi/projects/xmc4700_relax_kit/common/Libraries/XMCLib/inc\xmc_ccu8.h **** } XMC_CCU8_SLICE_EVENT_FILTER_t;
 466:C:/Users/Yushev/git/optiga-trust-qi/projects/xmc4700_relax_kit/common/Libraries/XMCLib/inc\xmc_ccu8.h **** 
 467:C:/Users/Yushev/git/optiga-trust-qi/projects/xmc4700_relax_kit/common/Libraries/XMCLib/inc\xmc_ccu8.h **** /**
 468:C:/Users/Yushev/git/optiga-trust-qi/projects/xmc4700_relax_kit/common/Libraries/XMCLib/inc\xmc_ccu8.h ****  *  External Event Input list. This list depicts the possible input connections to the CCU8 slice.
 469:C:/Users/Yushev/git/optiga-trust-qi/projects/xmc4700_relax_kit/common/Libraries/XMCLib/inc\xmc_ccu8.h ****  *  Interconnects are specific to each device.
 470:C:/Users/Yushev/git/optiga-trust-qi/projects/xmc4700_relax_kit/common/Libraries/XMCLib/inc\xmc_ccu8.h ****  */
 471:C:/Users/Yushev/git/optiga-trust-qi/projects/xmc4700_relax_kit/common/Libraries/XMCLib/inc\xmc_ccu8.h **** typedef uint8_t XMC_CCU8_SLICE_INPUT_t;
 472:C:/Users/Yushev/git/optiga-trust-qi/projects/xmc4700_relax_kit/common/Libraries/XMCLib/inc\xmc_ccu8.h **** 
 473:C:/Users/Yushev/git/optiga-trust-qi/projects/xmc4700_relax_kit/common/Libraries/XMCLib/inc\xmc_ccu8.h **** 
 474:C:/Users/Yushev/git/optiga-trust-qi/projects/xmc4700_relax_kit/common/Libraries/XMCLib/inc\xmc_ccu8.h **** /**
 475:C:/Users/Yushev/git/optiga-trust-qi/projects/xmc4700_relax_kit/common/Libraries/XMCLib/inc\xmc_ccu8.h ****  * Actions that can be performed upon detection of an external Timer STOP event
 476:C:/Users/Yushev/git/optiga-trust-qi/projects/xmc4700_relax_kit/common/Libraries/XMCLib/inc\xmc_ccu8.h ****  */
 477:C:/Users/Yushev/git/optiga-trust-qi/projects/xmc4700_relax_kit/common/Libraries/XMCLib/inc\xmc_ccu8.h **** typedef enum XMC_CCU8_SLICE_END_MODE
 478:C:/Users/Yushev/git/optiga-trust-qi/projects/xmc4700_relax_kit/common/Libraries/XMCLib/inc\xmc_ccu8.h **** {
 479:C:/Users/Yushev/git/optiga-trust-qi/projects/xmc4700_relax_kit/common/Libraries/XMCLib/inc\xmc_ccu8.h ****   XMC_CCU8_SLICE_END_MODE_TIMER_STOP       = 0U, /**< Stops the timer, without clearing TIMER regis
 480:C:/Users/Yushev/git/optiga-trust-qi/projects/xmc4700_relax_kit/common/Libraries/XMCLib/inc\xmc_ccu8.h ****   XMC_CCU8_SLICE_END_MODE_TIMER_CLEAR          , /**< Without stopping timer, clears the TIMER regi
 481:C:/Users/Yushev/git/optiga-trust-qi/projects/xmc4700_relax_kit/common/Libraries/XMCLib/inc\xmc_ccu8.h ****   XMC_CCU8_SLICE_END_MODE_TIMER_STOP_CLEAR       /**< Stops the timer and clears the TIMER register
 482:C:/Users/Yushev/git/optiga-trust-qi/projects/xmc4700_relax_kit/common/Libraries/XMCLib/inc\xmc_ccu8.h **** } XMC_CCU8_SLICE_END_MODE_t;
 483:C:/Users/Yushev/git/optiga-trust-qi/projects/xmc4700_relax_kit/common/Libraries/XMCLib/inc\xmc_ccu8.h **** 
 484:C:/Users/Yushev/git/optiga-trust-qi/projects/xmc4700_relax_kit/common/Libraries/XMCLib/inc\xmc_ccu8.h **** /**
 485:C:/Users/Yushev/git/optiga-trust-qi/projects/xmc4700_relax_kit/common/Libraries/XMCLib/inc\xmc_ccu8.h ****  *  Actions that can be performed upon detection of an external Timer START event
 486:C:/Users/Yushev/git/optiga-trust-qi/projects/xmc4700_relax_kit/common/Libraries/XMCLib/inc\xmc_ccu8.h ****  */
 487:C:/Users/Yushev/git/optiga-trust-qi/projects/xmc4700_relax_kit/common/Libraries/XMCLib/inc\xmc_ccu8.h **** typedef enum XMC_CCU8_SLICE_START_MODE
 488:C:/Users/Yushev/git/optiga-trust-qi/projects/xmc4700_relax_kit/common/Libraries/XMCLib/inc\xmc_ccu8.h **** {
 489:C:/Users/Yushev/git/optiga-trust-qi/projects/xmc4700_relax_kit/common/Libraries/XMCLib/inc\xmc_ccu8.h ****   XMC_CCU8_SLICE_START_MODE_TIMER_START       = 0U, /**< Start the timer from the current count of 
 490:C:/Users/Yushev/git/optiga-trust-qi/projects/xmc4700_relax_kit/common/Libraries/XMCLib/inc\xmc_ccu8.h ****   XMC_CCU8_SLICE_START_MODE_TIMER_START_CLEAR       /**< Clears the TIMER register and start the ti
 491:C:/Users/Yushev/git/optiga-trust-qi/projects/xmc4700_relax_kit/common/Libraries/XMCLib/inc\xmc_ccu8.h **** } XMC_CCU8_SLICE_START_MODE_t;
 492:C:/Users/Yushev/git/optiga-trust-qi/projects/xmc4700_relax_kit/common/Libraries/XMCLib/inc\xmc_ccu8.h **** 
 493:C:/Users/Yushev/git/optiga-trust-qi/projects/xmc4700_relax_kit/common/Libraries/XMCLib/inc\xmc_ccu8.h **** /**
 494:C:/Users/Yushev/git/optiga-trust-qi/projects/xmc4700_relax_kit/common/Libraries/XMCLib/inc\xmc_ccu8.h ****  *  Modulation of timer output signals
 495:C:/Users/Yushev/git/optiga-trust-qi/projects/xmc4700_relax_kit/common/Libraries/XMCLib/inc\xmc_ccu8.h ****  */
 496:C:/Users/Yushev/git/optiga-trust-qi/projects/xmc4700_relax_kit/common/Libraries/XMCLib/inc\xmc_ccu8.h **** typedef enum XMC_CCU8_SLICE_MODULATION_MODE
 497:C:/Users/Yushev/git/optiga-trust-qi/projects/xmc4700_relax_kit/common/Libraries/XMCLib/inc\xmc_ccu8.h **** {
 498:C:/Users/Yushev/git/optiga-trust-qi/projects/xmc4700_relax_kit/common/Libraries/XMCLib/inc\xmc_ccu8.h ****   XMC_CCU8_SLICE_MODULATION_MODE_CLEAR_ST_OUT  = 0U, /**< Clear ST and OUT signals */
 499:C:/Users/Yushev/git/optiga-trust-qi/projects/xmc4700_relax_kit/common/Libraries/XMCLib/inc\xmc_ccu8.h ****   XMC_CCU8_SLICE_MODULATION_MODE_CLEAR_OUT           /**< Clear only the OUT signal */
 500:C:/Users/Yushev/git/optiga-trust-qi/projects/xmc4700_relax_kit/common/Libraries/XMCLib/inc\xmc_ccu8.h **** } XMC_CCU8_SLICE_MODULATION_MODE_t;
 501:C:/Users/Yushev/git/optiga-trust-qi/projects/xmc4700_relax_kit/common/Libraries/XMCLib/inc\xmc_ccu8.h **** 
 502:C:/Users/Yushev/git/optiga-trust-qi/projects/xmc4700_relax_kit/common/Libraries/XMCLib/inc\xmc_ccu8.h **** /**
 503:C:/Users/Yushev/git/optiga-trust-qi/projects/xmc4700_relax_kit/common/Libraries/XMCLib/inc\xmc_ccu8.h ****  *  Trap exit mode
 504:C:/Users/Yushev/git/optiga-trust-qi/projects/xmc4700_relax_kit/common/Libraries/XMCLib/inc\xmc_ccu8.h ****  */
 505:C:/Users/Yushev/git/optiga-trust-qi/projects/xmc4700_relax_kit/common/Libraries/XMCLib/inc\xmc_ccu8.h **** typedef enum XMC_CCU8_SLICE_TRAP_EXIT_MODE
 506:C:/Users/Yushev/git/optiga-trust-qi/projects/xmc4700_relax_kit/common/Libraries/XMCLib/inc\xmc_ccu8.h **** {
 507:C:/Users/Yushev/git/optiga-trust-qi/projects/xmc4700_relax_kit/common/Libraries/XMCLib/inc\xmc_ccu8.h ****   XMC_CCU8_SLICE_TRAP_EXIT_MODE_AUTOMATIC = 0U, /**< Clear trap state as soon as the trap signal is
 508:C:/Users/Yushev/git/optiga-trust-qi/projects/xmc4700_relax_kit/common/Libraries/XMCLib/inc\xmc_ccu8.h ****   XMC_CCU8_SLICE_TRAP_EXIT_MODE_SW              /**< Clear only when acknowledged by software */
 509:C:/Users/Yushev/git/optiga-trust-qi/projects/xmc4700_relax_kit/common/Libraries/XMCLib/inc\xmc_ccu8.h **** } XMC_CCU8_SLICE_TRAP_EXIT_MODE_t;
 510:C:/Users/Yushev/git/optiga-trust-qi/projects/xmc4700_relax_kit/common/Libraries/XMCLib/inc\xmc_ccu8.h **** 
 511:C:/Users/Yushev/git/optiga-trust-qi/projects/xmc4700_relax_kit/common/Libraries/XMCLib/inc\xmc_ccu8.h **** /**
 512:C:/Users/Yushev/git/optiga-trust-qi/projects/xmc4700_relax_kit/common/Libraries/XMCLib/inc\xmc_ccu8.h ****  *  Timer clear on capture
 513:C:/Users/Yushev/git/optiga-trust-qi/projects/xmc4700_relax_kit/common/Libraries/XMCLib/inc\xmc_ccu8.h ****  */
 514:C:/Users/Yushev/git/optiga-trust-qi/projects/xmc4700_relax_kit/common/Libraries/XMCLib/inc\xmc_ccu8.h **** typedef enum XMC_CCU8_SLICE_TIMER_CLEAR_MODE
 515:C:/Users/Yushev/git/optiga-trust-qi/projects/xmc4700_relax_kit/common/Libraries/XMCLib/inc\xmc_ccu8.h **** {
 516:C:/Users/Yushev/git/optiga-trust-qi/projects/xmc4700_relax_kit/common/Libraries/XMCLib/inc\xmc_ccu8.h ****   XMC_CCU8_SLICE_TIMER_CLEAR_MODE_NEVER    = 0U, /**< Never clear the timer on any capture event */
 517:C:/Users/Yushev/git/optiga-trust-qi/projects/xmc4700_relax_kit/common/Libraries/XMCLib/inc\xmc_ccu8.h ****   XMC_CCU8_SLICE_TIMER_CLEAR_MODE_CAP_HIGH     , /**< Clear only when timer value has been captured
 518:C:/Users/Yushev/git/optiga-trust-qi/projects/xmc4700_relax_kit/common/Libraries/XMCLib/inc\xmc_ccu8.h ****   XMC_CCU8_SLICE_TIMER_CLEAR_MODE_CAP_LOW      , /**< Clear only when timer value has been captured
 519:C:/Users/Yushev/git/optiga-trust-qi/projects/xmc4700_relax_kit/common/Libraries/XMCLib/inc\xmc_ccu8.h ****   XMC_CCU8_SLICE_TIMER_CLEAR_MODE_ALWAYS         /**< Always clear the timer upon detection of any 
 520:C:/Users/Yushev/git/optiga-trust-qi/projects/xmc4700_relax_kit/common/Libraries/XMCLib/inc\xmc_ccu8.h **** } XMC_CCU8_SLICE_TIMER_CLEAR_MODE_t;
 521:C:/Users/Yushev/git/optiga-trust-qi/projects/xmc4700_relax_kit/common/Libraries/XMCLib/inc\xmc_ccu8.h **** 
 522:C:/Users/Yushev/git/optiga-trust-qi/projects/xmc4700_relax_kit/common/Libraries/XMCLib/inc\xmc_ccu8.h **** /**
 523:C:/Users/Yushev/git/optiga-trust-qi/projects/xmc4700_relax_kit/common/Libraries/XMCLib/inc\xmc_ccu8.h ****  *  Multi Channel Shadow transfer request configuration options
 524:C:/Users/Yushev/git/optiga-trust-qi/projects/xmc4700_relax_kit/common/Libraries/XMCLib/inc\xmc_ccu8.h ****  */
 525:C:/Users/Yushev/git/optiga-trust-qi/projects/xmc4700_relax_kit/common/Libraries/XMCLib/inc\xmc_ccu8.h **** typedef enum XMC_CCU8_SLICE_MCMS_ACTION
 526:C:/Users/Yushev/git/optiga-trust-qi/projects/xmc4700_relax_kit/common/Libraries/XMCLib/inc\xmc_ccu8.h **** {
 527:C:/Users/Yushev/git/optiga-trust-qi/projects/xmc4700_relax_kit/common/Libraries/XMCLib/inc\xmc_ccu8.h ****   XMC_CCU8_SLICE_MCMS_ACTION_TRANSFER_PR_CR          = 0U, /**< Transfer Compare and Period Shadow 
 528:C:/Users/Yushev/git/optiga-trust-qi/projects/xmc4700_relax_kit/common/Libraries/XMCLib/inc\xmc_ccu8.h ****                                                                 the actual registers upon MCS xfer 
 529:C:/Users/Yushev/git/optiga-trust-qi/projects/xmc4700_relax_kit/common/Libraries/XMCLib/inc\xmc_ccu8.h ****   XMC_CCU8_SLICE_MCMS_ACTION_TRANSFER_PR_CR_PCMP     = 1U, /**< Transfer Compare, Period and Presca
 530:C:/Users/Yushev/git/optiga-trust-qi/projects/xmc4700_relax_kit/common/Libraries/XMCLib/inc\xmc_ccu8.h ****                                                                 register values to the actual regis
 531:C:/Users/Yushev/git/optiga-trust-qi/projects/xmc4700_relax_kit/common/Libraries/XMCLib/inc\xmc_ccu8.h ****                                                                 request */
 532:C:/Users/Yushev/git/optiga-trust-qi/projects/xmc4700_relax_kit/common/Libraries/XMCLib/inc\xmc_ccu8.h ****   XMC_CCU8_SLICE_MCMS_ACTION_TRANSFER_PR_CR_PCMP_DIT = 3U  /**< Transfer Compare, Period ,Prescaler
 533:C:/Users/Yushev/git/optiga-trust-qi/projects/xmc4700_relax_kit/common/Libraries/XMCLib/inc\xmc_ccu8.h ****                                                                 Compare register values to the actu
 534:C:/Users/Yushev/git/optiga-trust-qi/projects/xmc4700_relax_kit/common/Libraries/XMCLib/inc\xmc_ccu8.h ****                                                                 MCS xfer request */
 535:C:/Users/Yushev/git/optiga-trust-qi/projects/xmc4700_relax_kit/common/Libraries/XMCLib/inc\xmc_ccu8.h **** } XMC_CCU8_SLICE_MCMS_ACTION_t;
 536:C:/Users/Yushev/git/optiga-trust-qi/projects/xmc4700_relax_kit/common/Libraries/XMCLib/inc\xmc_ccu8.h **** 
 537:C:/Users/Yushev/git/optiga-trust-qi/projects/xmc4700_relax_kit/common/Libraries/XMCLib/inc\xmc_ccu8.h **** /**
 538:C:/Users/Yushev/git/optiga-trust-qi/projects/xmc4700_relax_kit/common/Libraries/XMCLib/inc\xmc_ccu8.h ****  * Available Interrupt Event Ids
 539:C:/Users/Yushev/git/optiga-trust-qi/projects/xmc4700_relax_kit/common/Libraries/XMCLib/inc\xmc_ccu8.h ****  */
 540:C:/Users/Yushev/git/optiga-trust-qi/projects/xmc4700_relax_kit/common/Libraries/XMCLib/inc\xmc_ccu8.h **** typedef enum XMC_CCU8_SLICE_IRQ_ID
 541:C:/Users/Yushev/git/optiga-trust-qi/projects/xmc4700_relax_kit/common/Libraries/XMCLib/inc\xmc_ccu8.h **** {
 542:C:/Users/Yushev/git/optiga-trust-qi/projects/xmc4700_relax_kit/common/Libraries/XMCLib/inc\xmc_ccu8.h ****   XMC_CCU8_SLICE_IRQ_ID_PERIOD_MATCH            = 0U , /**< Period match counting up */
 543:C:/Users/Yushev/git/optiga-trust-qi/projects/xmc4700_relax_kit/common/Libraries/XMCLib/inc\xmc_ccu8.h ****   XMC_CCU8_SLICE_IRQ_ID_ONE_MATCH               = 1U , /**< One match counting down */
 544:C:/Users/Yushev/git/optiga-trust-qi/projects/xmc4700_relax_kit/common/Libraries/XMCLib/inc\xmc_ccu8.h ****   XMC_CCU8_SLICE_IRQ_ID_COMPARE_MATCH_UP_CH_1   = 2U , /**< Compare match counting up for channel 1
 545:C:/Users/Yushev/git/optiga-trust-qi/projects/xmc4700_relax_kit/common/Libraries/XMCLib/inc\xmc_ccu8.h ****   XMC_CCU8_SLICE_IRQ_ID_COMPARE_MATCH_DOWN_CH_1 = 3U , /**< Compare match counting down for channel
 546:C:/Users/Yushev/git/optiga-trust-qi/projects/xmc4700_relax_kit/common/Libraries/XMCLib/inc\xmc_ccu8.h ****   XMC_CCU8_SLICE_IRQ_ID_COMPARE_MATCH_UP_CH_2   = 4U , /**< Compare match counting up for channel 2
 547:C:/Users/Yushev/git/optiga-trust-qi/projects/xmc4700_relax_kit/common/Libraries/XMCLib/inc\xmc_ccu8.h ****   XMC_CCU8_SLICE_IRQ_ID_COMPARE_MATCH_DOWN_CH_2 = 5U , /**< Compare match counting down for channel
 548:C:/Users/Yushev/git/optiga-trust-qi/projects/xmc4700_relax_kit/common/Libraries/XMCLib/inc\xmc_ccu8.h ****   XMC_CCU8_SLICE_IRQ_ID_EVENT0                  = 8U , /**< Event-0 occurrence */
 549:C:/Users/Yushev/git/optiga-trust-qi/projects/xmc4700_relax_kit/common/Libraries/XMCLib/inc\xmc_ccu8.h ****   XMC_CCU8_SLICE_IRQ_ID_EVENT1                  = 9U , /**< Event-1 occurrence */
 550:C:/Users/Yushev/git/optiga-trust-qi/projects/xmc4700_relax_kit/common/Libraries/XMCLib/inc\xmc_ccu8.h ****   XMC_CCU8_SLICE_IRQ_ID_EVENT2                  = 10U, /**< Event-2 occurrence */
 551:C:/Users/Yushev/git/optiga-trust-qi/projects/xmc4700_relax_kit/common/Libraries/XMCLib/inc\xmc_ccu8.h ****   XMC_CCU8_SLICE_IRQ_ID_TRAP                    = 11U  /**< Trap occurrence */
 552:C:/Users/Yushev/git/optiga-trust-qi/projects/xmc4700_relax_kit/common/Libraries/XMCLib/inc\xmc_ccu8.h **** } XMC_CCU8_SLICE_IRQ_ID_t;
 553:C:/Users/Yushev/git/optiga-trust-qi/projects/xmc4700_relax_kit/common/Libraries/XMCLib/inc\xmc_ccu8.h **** 
 554:C:/Users/Yushev/git/optiga-trust-qi/projects/xmc4700_relax_kit/common/Libraries/XMCLib/inc\xmc_ccu8.h **** /**
 555:C:/Users/Yushev/git/optiga-trust-qi/projects/xmc4700_relax_kit/common/Libraries/XMCLib/inc\xmc_ccu8.h ****  * Available Interrupt Event Ids, which is added to support multi event APIs
 556:C:/Users/Yushev/git/optiga-trust-qi/projects/xmc4700_relax_kit/common/Libraries/XMCLib/inc\xmc_ccu8.h ****  */
 557:C:/Users/Yushev/git/optiga-trust-qi/projects/xmc4700_relax_kit/common/Libraries/XMCLib/inc\xmc_ccu8.h **** typedef enum XMC_CCU8_SLICE_MULTI_IRQ_ID
 558:C:/Users/Yushev/git/optiga-trust-qi/projects/xmc4700_relax_kit/common/Libraries/XMCLib/inc\xmc_ccu8.h **** {
 559:C:/Users/Yushev/git/optiga-trust-qi/projects/xmc4700_relax_kit/common/Libraries/XMCLib/inc\xmc_ccu8.h ****   XMC_CCU8_SLICE_MULTI_IRQ_ID_PERIOD_MATCH            = 0x1U,   /**< Period match counting up */
 560:C:/Users/Yushev/git/optiga-trust-qi/projects/xmc4700_relax_kit/common/Libraries/XMCLib/inc\xmc_ccu8.h ****   XMC_CCU8_SLICE_MULTI_IRQ_ID_ONE_MATCH               = 0x2U,   /**< One match counting down */
 561:C:/Users/Yushev/git/optiga-trust-qi/projects/xmc4700_relax_kit/common/Libraries/XMCLib/inc\xmc_ccu8.h ****   XMC_CCU8_SLICE_MULTI_IRQ_ID_COMPARE_MATCH_UP_CH_1   = 0x4U,   /**< Compare match counting up for 
 562:C:/Users/Yushev/git/optiga-trust-qi/projects/xmc4700_relax_kit/common/Libraries/XMCLib/inc\xmc_ccu8.h ****   XMC_CCU8_SLICE_MULTI_IRQ_ID_COMPARE_MATCH_DOWN_CH_1 = 0x8U,   /**< Compare match counting down fo
 563:C:/Users/Yushev/git/optiga-trust-qi/projects/xmc4700_relax_kit/common/Libraries/XMCLib/inc\xmc_ccu8.h ****   XMC_CCU8_SLICE_MULTI_IRQ_ID_COMPARE_MATCH_UP_CH_2   = 0x10U,  /**< Compare match counting up for 
 564:C:/Users/Yushev/git/optiga-trust-qi/projects/xmc4700_relax_kit/common/Libraries/XMCLib/inc\xmc_ccu8.h ****   XMC_CCU8_SLICE_MULTI_IRQ_ID_COMPARE_MATCH_DOWN_CH_2 = 0x20U,  /**< Compare match counting down fo
 565:C:/Users/Yushev/git/optiga-trust-qi/projects/xmc4700_relax_kit/common/Libraries/XMCLib/inc\xmc_ccu8.h ****   XMC_CCU8_SLICE_MULTI_IRQ_ID_EVENT0                  = 0x100U, /**< Event-0 occurrence */
 566:C:/Users/Yushev/git/optiga-trust-qi/projects/xmc4700_relax_kit/common/Libraries/XMCLib/inc\xmc_ccu8.h ****   XMC_CCU8_SLICE_MULTI_IRQ_ID_EVENT1                  = 0x200U, /**< Event-1 occurrence */
 567:C:/Users/Yushev/git/optiga-trust-qi/projects/xmc4700_relax_kit/common/Libraries/XMCLib/inc\xmc_ccu8.h ****   XMC_CCU8_SLICE_MULTI_IRQ_ID_EVENT2                  = 0x400U, /**< Event-2 occurrence */
 568:C:/Users/Yushev/git/optiga-trust-qi/projects/xmc4700_relax_kit/common/Libraries/XMCLib/inc\xmc_ccu8.h **** } XMC_CCU8_SLICE_MULTI_IRQ_ID_t;
 569:C:/Users/Yushev/git/optiga-trust-qi/projects/xmc4700_relax_kit/common/Libraries/XMCLib/inc\xmc_ccu8.h **** 
 570:C:/Users/Yushev/git/optiga-trust-qi/projects/xmc4700_relax_kit/common/Libraries/XMCLib/inc\xmc_ccu8.h **** /**
 571:C:/Users/Yushev/git/optiga-trust-qi/projects/xmc4700_relax_kit/common/Libraries/XMCLib/inc\xmc_ccu8.h ****  * Service Request Lines for CCU8. Event are mapped to these SR lines and these are used to generat
 572:C:/Users/Yushev/git/optiga-trust-qi/projects/xmc4700_relax_kit/common/Libraries/XMCLib/inc\xmc_ccu8.h ****  */
 573:C:/Users/Yushev/git/optiga-trust-qi/projects/xmc4700_relax_kit/common/Libraries/XMCLib/inc\xmc_ccu8.h **** typedef enum XMC_CCU8_SLICE_SR_ID
 574:C:/Users/Yushev/git/optiga-trust-qi/projects/xmc4700_relax_kit/common/Libraries/XMCLib/inc\xmc_ccu8.h **** {
 575:C:/Users/Yushev/git/optiga-trust-qi/projects/xmc4700_relax_kit/common/Libraries/XMCLib/inc\xmc_ccu8.h ****   XMC_CCU8_SLICE_SR_ID_0    = 0U, /**< Service Request Line-0 selected  */
 576:C:/Users/Yushev/git/optiga-trust-qi/projects/xmc4700_relax_kit/common/Libraries/XMCLib/inc\xmc_ccu8.h ****   XMC_CCU8_SLICE_SR_ID_1        , /**< Service Request Line-1 selected  */
 577:C:/Users/Yushev/git/optiga-trust-qi/projects/xmc4700_relax_kit/common/Libraries/XMCLib/inc\xmc_ccu8.h ****   XMC_CCU8_SLICE_SR_ID_2        , /**< Service Request Line-2 selected  */
 578:C:/Users/Yushev/git/optiga-trust-qi/projects/xmc4700_relax_kit/common/Libraries/XMCLib/inc\xmc_ccu8.h ****   XMC_CCU8_SLICE_SR_ID_3          /**< Service Request Line-3 selected  */
 579:C:/Users/Yushev/git/optiga-trust-qi/projects/xmc4700_relax_kit/common/Libraries/XMCLib/inc\xmc_ccu8.h **** } XMC_CCU8_SLICE_SR_ID_t;
 580:C:/Users/Yushev/git/optiga-trust-qi/projects/xmc4700_relax_kit/common/Libraries/XMCLib/inc\xmc_ccu8.h **** 
 581:C:/Users/Yushev/git/optiga-trust-qi/projects/xmc4700_relax_kit/common/Libraries/XMCLib/inc\xmc_ccu8.h **** 
 582:C:/Users/Yushev/git/optiga-trust-qi/projects/xmc4700_relax_kit/common/Libraries/XMCLib/inc\xmc_ccu8.h **** /**
 583:C:/Users/Yushev/git/optiga-trust-qi/projects/xmc4700_relax_kit/common/Libraries/XMCLib/inc\xmc_ccu8.h ****  *  Slice shadow transfer options.
 584:C:/Users/Yushev/git/optiga-trust-qi/projects/xmc4700_relax_kit/common/Libraries/XMCLib/inc\xmc_ccu8.h ****  */
 585:C:/Users/Yushev/git/optiga-trust-qi/projects/xmc4700_relax_kit/common/Libraries/XMCLib/inc\xmc_ccu8.h **** typedef enum XMC_CCU8_SHADOW_TRANSFER
 586:C:/Users/Yushev/git/optiga-trust-qi/projects/xmc4700_relax_kit/common/Libraries/XMCLib/inc\xmc_ccu8.h **** {
 587:C:/Users/Yushev/git/optiga-trust-qi/projects/xmc4700_relax_kit/common/Libraries/XMCLib/inc\xmc_ccu8.h ****   XMC_CCU8_SHADOW_TRANSFER_SLICE_0            = CCU8_GCSS_S0SE_Msk,  /**< Transfer Period, Compare 
 588:C:/Users/Yushev/git/optiga-trust-qi/projects/xmc4700_relax_kit/common/Libraries/XMCLib/inc\xmc_ccu8.h ****                                                                           shadow register values to
 589:C:/Users/Yushev/git/optiga-trust-qi/projects/xmc4700_relax_kit/common/Libraries/XMCLib/inc\xmc_ccu8.h ****                                                                           SLICE-0 */
 590:C:/Users/Yushev/git/optiga-trust-qi/projects/xmc4700_relax_kit/common/Libraries/XMCLib/inc\xmc_ccu8.h ****   XMC_CCU8_SHADOW_TRANSFER_DITHER_SLICE_0     = CCU8_GCSS_S0DSE_Msk, /**< Transfer Dither compare s
 591:C:/Users/Yushev/git/optiga-trust-qi/projects/xmc4700_relax_kit/common/Libraries/XMCLib/inc\xmc_ccu8.h ****                                                                           to actual register for SL
 592:C:/Users/Yushev/git/optiga-trust-qi/projects/xmc4700_relax_kit/common/Libraries/XMCLib/inc\xmc_ccu8.h ****   XMC_CCU8_SHADOW_TRANSFER_PRESCALER_SLICE_0  = CCU8_GCSS_S0PSE_Msk, /**< Transfer Prescaler shadow
 593:C:/Users/Yushev/git/optiga-trust-qi/projects/xmc4700_relax_kit/common/Libraries/XMCLib/inc\xmc_ccu8.h ****                                                                           actual register for SLICE
 594:C:/Users/Yushev/git/optiga-trust-qi/projects/xmc4700_relax_kit/common/Libraries/XMCLib/inc\xmc_ccu8.h ****   XMC_CCU8_SHADOW_TRANSFER_SLICE_1            = CCU8_GCSS_S1SE_Msk,  /**< Transfer Period, Compare 
 595:C:/Users/Yushev/git/optiga-trust-qi/projects/xmc4700_relax_kit/common/Libraries/XMCLib/inc\xmc_ccu8.h ****                                                                           shadow register values to
 596:C:/Users/Yushev/git/optiga-trust-qi/projects/xmc4700_relax_kit/common/Libraries/XMCLib/inc\xmc_ccu8.h ****                                                                           SLICE-1 */
 597:C:/Users/Yushev/git/optiga-trust-qi/projects/xmc4700_relax_kit/common/Libraries/XMCLib/inc\xmc_ccu8.h ****   XMC_CCU8_SHADOW_TRANSFER_DITHER_SLICE_1     = CCU8_GCSS_S1DSE_Msk, /**< Transfer Dither compare s
 598:C:/Users/Yushev/git/optiga-trust-qi/projects/xmc4700_relax_kit/common/Libraries/XMCLib/inc\xmc_ccu8.h ****                                                                           to actual registers for S
 599:C:/Users/Yushev/git/optiga-trust-qi/projects/xmc4700_relax_kit/common/Libraries/XMCLib/inc\xmc_ccu8.h ****   XMC_CCU8_SHADOW_TRANSFER_PRESCALER_SLICE_1  = CCU8_GCSS_S1PSE_Msk, /**< Transfer Prescaler shadow
 600:C:/Users/Yushev/git/optiga-trust-qi/projects/xmc4700_relax_kit/common/Libraries/XMCLib/inc\xmc_ccu8.h ****                                                                           actual register for SLICE
 601:C:/Users/Yushev/git/optiga-trust-qi/projects/xmc4700_relax_kit/common/Libraries/XMCLib/inc\xmc_ccu8.h ****   XMC_CCU8_SHADOW_TRANSFER_SLICE_2            = CCU8_GCSS_S2SE_Msk,  /**< Transfer Period, Compare 
 602:C:/Users/Yushev/git/optiga-trust-qi/projects/xmc4700_relax_kit/common/Libraries/XMCLib/inc\xmc_ccu8.h ****                                                                           shadow register values to
 603:C:/Users/Yushev/git/optiga-trust-qi/projects/xmc4700_relax_kit/common/Libraries/XMCLib/inc\xmc_ccu8.h ****                                                                           SLICE-2 */
 604:C:/Users/Yushev/git/optiga-trust-qi/projects/xmc4700_relax_kit/common/Libraries/XMCLib/inc\xmc_ccu8.h ****   XMC_CCU8_SHADOW_TRANSFER_DITHER_SLICE_2     = CCU8_GCSS_S2DSE_Msk, /**< Transfer Dither compare s
 605:C:/Users/Yushev/git/optiga-trust-qi/projects/xmc4700_relax_kit/common/Libraries/XMCLib/inc\xmc_ccu8.h ****                                                                           to actual register for SL
 606:C:/Users/Yushev/git/optiga-trust-qi/projects/xmc4700_relax_kit/common/Libraries/XMCLib/inc\xmc_ccu8.h ****   XMC_CCU8_SHADOW_TRANSFER_PRESCALER_SLICE_2  = CCU8_GCSS_S2PSE_Msk, /**< Transfer Prescaler shadow
 607:C:/Users/Yushev/git/optiga-trust-qi/projects/xmc4700_relax_kit/common/Libraries/XMCLib/inc\xmc_ccu8.h ****                                                                           actual register for SLICE
 608:C:/Users/Yushev/git/optiga-trust-qi/projects/xmc4700_relax_kit/common/Libraries/XMCLib/inc\xmc_ccu8.h ****   XMC_CCU8_SHADOW_TRANSFER_SLICE_3            = CCU8_GCSS_S3SE_Msk,  /**< Transfer Period, Compare 
 609:C:/Users/Yushev/git/optiga-trust-qi/projects/xmc4700_relax_kit/common/Libraries/XMCLib/inc\xmc_ccu8.h ****                                                                           shadow register values to
 610:C:/Users/Yushev/git/optiga-trust-qi/projects/xmc4700_relax_kit/common/Libraries/XMCLib/inc\xmc_ccu8.h ****                                                                           SLICE-3 */
 611:C:/Users/Yushev/git/optiga-trust-qi/projects/xmc4700_relax_kit/common/Libraries/XMCLib/inc\xmc_ccu8.h ****   XMC_CCU8_SHADOW_TRANSFER_DITHER_SLICE_3     = CCU8_GCSS_S3DSE_Msk, /**< Transfer Dither compare s
 612:C:/Users/Yushev/git/optiga-trust-qi/projects/xmc4700_relax_kit/common/Libraries/XMCLib/inc\xmc_ccu8.h ****                                                                           to actual register for SL
 613:C:/Users/Yushev/git/optiga-trust-qi/projects/xmc4700_relax_kit/common/Libraries/XMCLib/inc\xmc_ccu8.h ****   XMC_CCU8_SHADOW_TRANSFER_PRESCALER_SLICE_3  = CCU8_GCSS_S3PSE_Msk  /**< Transfer Prescaler shadow
 614:C:/Users/Yushev/git/optiga-trust-qi/projects/xmc4700_relax_kit/common/Libraries/XMCLib/inc\xmc_ccu8.h ****                                                                           actual register for SLICE
 615:C:/Users/Yushev/git/optiga-trust-qi/projects/xmc4700_relax_kit/common/Libraries/XMCLib/inc\xmc_ccu8.h **** } XMC_CCU8_SHADOW_TRANSFER_t;
 616:C:/Users/Yushev/git/optiga-trust-qi/projects/xmc4700_relax_kit/common/Libraries/XMCLib/inc\xmc_ccu8.h **** 
 617:C:/Users/Yushev/git/optiga-trust-qi/projects/xmc4700_relax_kit/common/Libraries/XMCLib/inc\xmc_ccu8.h **** #if (UC_SERIES != XMC45) || defined(DOXYGEN)
 618:C:/Users/Yushev/git/optiga-trust-qi/projects/xmc4700_relax_kit/common/Libraries/XMCLib/inc\xmc_ccu8.h **** /**
 619:C:/Users/Yushev/git/optiga-trust-qi/projects/xmc4700_relax_kit/common/Libraries/XMCLib/inc\xmc_ccu8.h ****  *  Slice shadow transfer mode options.
 620:C:/Users/Yushev/git/optiga-trust-qi/projects/xmc4700_relax_kit/common/Libraries/XMCLib/inc\xmc_ccu8.h ****  * @note Not available for XMC4500 series
 621:C:/Users/Yushev/git/optiga-trust-qi/projects/xmc4700_relax_kit/common/Libraries/XMCLib/inc\xmc_ccu8.h ****  */
 622:C:/Users/Yushev/git/optiga-trust-qi/projects/xmc4700_relax_kit/common/Libraries/XMCLib/inc\xmc_ccu8.h **** typedef enum XMC_CCU8_SLICE_SHADOW_TRANSFER_MODE
 623:C:/Users/Yushev/git/optiga-trust-qi/projects/xmc4700_relax_kit/common/Libraries/XMCLib/inc\xmc_ccu8.h **** {
 624:C:/Users/Yushev/git/optiga-trust-qi/projects/xmc4700_relax_kit/common/Libraries/XMCLib/inc\xmc_ccu8.h ****   XMC_CCU8_SLICE_SHADOW_TRANSFER_MODE_IN_PERIOD_MATCH_AND_ONE_MATCH = 0U, /**< Shadow transfer is d
 625:C:/Users/Yushev/git/optiga-trust-qi/projects/xmc4700_relax_kit/common/Libraries/XMCLib/inc\xmc_ccu8.h ****                                                                                One match. */
 626:C:/Users/Yushev/git/optiga-trust-qi/projects/xmc4700_relax_kit/common/Libraries/XMCLib/inc\xmc_ccu8.h ****   XMC_CCU8_SLICE_SHADOW_TRANSFER_MODE_ONLY_IN_PERIOD_MATCH = 1U,  /**< Shadow transfer is done only
 627:C:/Users/Yushev/git/optiga-trust-qi/projects/xmc4700_relax_kit/common/Libraries/XMCLib/inc\xmc_ccu8.h ****   XMC_CCU8_SLICE_SHADOW_TRANSFER_MODE_ONLY_IN_ONE_MATCH = 2U  /**< Shadow transfer is done only in 
 628:C:/Users/Yushev/git/optiga-trust-qi/projects/xmc4700_relax_kit/common/Libraries/XMCLib/inc\xmc_ccu8.h **** } XMC_CCU8_SLICE_SHADOW_TRANSFER_MODE_t;
 629:C:/Users/Yushev/git/optiga-trust-qi/projects/xmc4700_relax_kit/common/Libraries/XMCLib/inc\xmc_ccu8.h **** #endif
 630:C:/Users/Yushev/git/optiga-trust-qi/projects/xmc4700_relax_kit/common/Libraries/XMCLib/inc\xmc_ccu8.h **** 
 631:C:/Users/Yushev/git/optiga-trust-qi/projects/xmc4700_relax_kit/common/Libraries/XMCLib/inc\xmc_ccu8.h **** #if defined(CCU8V3) || defined(DOXYGEN) /* Defined for XMC1400 devices only */
 632:C:/Users/Yushev/git/optiga-trust-qi/projects/xmc4700_relax_kit/common/Libraries/XMCLib/inc\xmc_ccu8.h **** /**
 633:C:/Users/Yushev/git/optiga-trust-qi/projects/xmc4700_relax_kit/common/Libraries/XMCLib/inc\xmc_ccu8.h ****  *  Output sources for OUTy0 signal
 634:C:/Users/Yushev/git/optiga-trust-qi/projects/xmc4700_relax_kit/common/Libraries/XMCLib/inc\xmc_ccu8.h ****  * @note Only available for XMC1400 series
 635:C:/Users/Yushev/git/optiga-trust-qi/projects/xmc4700_relax_kit/common/Libraries/XMCLib/inc\xmc_ccu8.h ****  */
 636:C:/Users/Yushev/git/optiga-trust-qi/projects/xmc4700_relax_kit/common/Libraries/XMCLib/inc\xmc_ccu8.h ****  typedef enum XMC_CCU8_SOURCE_OUT0
 637:C:/Users/Yushev/git/optiga-trust-qi/projects/xmc4700_relax_kit/common/Libraries/XMCLib/inc\xmc_ccu8.h **** {
 638:C:/Users/Yushev/git/optiga-trust-qi/projects/xmc4700_relax_kit/common/Libraries/XMCLib/inc\xmc_ccu8.h ****   XMC_CCU8_SOURCE_OUT0_ST1      = (uint32_t)0x0, /**< CCU8yST1 signal path is connected the CCU8x.O
 639:C:/Users/Yushev/git/optiga-trust-qi/projects/xmc4700_relax_kit/common/Libraries/XMCLib/inc\xmc_ccu8.h ****   XMC_CCU8_SOURCE_OUT0_INV_ST1  = (uint32_t)0x1, /**< Inverted CCU8yST1 signal path is connected th
 640:C:/Users/Yushev/git/optiga-trust-qi/projects/xmc4700_relax_kit/common/Libraries/XMCLib/inc\xmc_ccu8.h ****   XMC_CCU8_SOURCE_OUT0_ST2      = (uint32_t)0x2, /**< CCU8yST2 signal path is connected the CCU8x.O
 641:C:/Users/Yushev/git/optiga-trust-qi/projects/xmc4700_relax_kit/common/Libraries/XMCLib/inc\xmc_ccu8.h ****   XMC_CCU8_SOURCE_OUT0_INV_ST2  = (uint32_t)0x3  /**< Inverted CCU8yST2 signal path is connected th
 642:C:/Users/Yushev/git/optiga-trust-qi/projects/xmc4700_relax_kit/common/Libraries/XMCLib/inc\xmc_ccu8.h **** } XMC_CCU8_SOURCE_OUT0_t;
 643:C:/Users/Yushev/git/optiga-trust-qi/projects/xmc4700_relax_kit/common/Libraries/XMCLib/inc\xmc_ccu8.h **** 
 644:C:/Users/Yushev/git/optiga-trust-qi/projects/xmc4700_relax_kit/common/Libraries/XMCLib/inc\xmc_ccu8.h **** /**
 645:C:/Users/Yushev/git/optiga-trust-qi/projects/xmc4700_relax_kit/common/Libraries/XMCLib/inc\xmc_ccu8.h ****  *  Output sources for OUTy1 signal
 646:C:/Users/Yushev/git/optiga-trust-qi/projects/xmc4700_relax_kit/common/Libraries/XMCLib/inc\xmc_ccu8.h ****  *  @note Only available for XMC1400 series
 647:C:/Users/Yushev/git/optiga-trust-qi/projects/xmc4700_relax_kit/common/Libraries/XMCLib/inc\xmc_ccu8.h ****  */
 648:C:/Users/Yushev/git/optiga-trust-qi/projects/xmc4700_relax_kit/common/Libraries/XMCLib/inc\xmc_ccu8.h ****  typedef enum XMC_CCU8_SOURCE_OUT1
 649:C:/Users/Yushev/git/optiga-trust-qi/projects/xmc4700_relax_kit/common/Libraries/XMCLib/inc\xmc_ccu8.h **** {
 650:C:/Users/Yushev/git/optiga-trust-qi/projects/xmc4700_relax_kit/common/Libraries/XMCLib/inc\xmc_ccu8.h ****   XMC_CCU8_SOURCE_OUT1_ST1      = (uint32_t)0x1, /**< CCU8yST1 signal path is connected the CCU8x.O
 651:C:/Users/Yushev/git/optiga-trust-qi/projects/xmc4700_relax_kit/common/Libraries/XMCLib/inc\xmc_ccu8.h ****   XMC_CCU8_SOURCE_OUT1_INV_ST1  = (uint32_t)0x0, /**< Inverted CCU8yST1 signal path is connected th
 652:C:/Users/Yushev/git/optiga-trust-qi/projects/xmc4700_relax_kit/common/Libraries/XMCLib/inc\xmc_ccu8.h ****   XMC_CCU8_SOURCE_OUT1_ST2      = (uint32_t)0x3, /**< CCU8yST2 signal path is connected the CCU8x.O
 653:C:/Users/Yushev/git/optiga-trust-qi/projects/xmc4700_relax_kit/common/Libraries/XMCLib/inc\xmc_ccu8.h ****   XMC_CCU8_SOURCE_OUT1_INV_ST2  = (uint32_t)0x2  /**< Inverted CCU8yST2 signal path is connected th
 654:C:/Users/Yushev/git/optiga-trust-qi/projects/xmc4700_relax_kit/common/Libraries/XMCLib/inc\xmc_ccu8.h **** } XMC_CCU8_SOURCE_OUT1_t;
 655:C:/Users/Yushev/git/optiga-trust-qi/projects/xmc4700_relax_kit/common/Libraries/XMCLib/inc\xmc_ccu8.h **** 
 656:C:/Users/Yushev/git/optiga-trust-qi/projects/xmc4700_relax_kit/common/Libraries/XMCLib/inc\xmc_ccu8.h **** /**
 657:C:/Users/Yushev/git/optiga-trust-qi/projects/xmc4700_relax_kit/common/Libraries/XMCLib/inc\xmc_ccu8.h ****  * Output sources for OUTy2 signal
 658:C:/Users/Yushev/git/optiga-trust-qi/projects/xmc4700_relax_kit/common/Libraries/XMCLib/inc\xmc_ccu8.h ****  * @note Only available for XMC1400 series
 659:C:/Users/Yushev/git/optiga-trust-qi/projects/xmc4700_relax_kit/common/Libraries/XMCLib/inc\xmc_ccu8.h ****  */
 660:C:/Users/Yushev/git/optiga-trust-qi/projects/xmc4700_relax_kit/common/Libraries/XMCLib/inc\xmc_ccu8.h ****  typedef enum XMC_CCU8_SOURCE_OUT2
 661:C:/Users/Yushev/git/optiga-trust-qi/projects/xmc4700_relax_kit/common/Libraries/XMCLib/inc\xmc_ccu8.h **** {
 662:C:/Users/Yushev/git/optiga-trust-qi/projects/xmc4700_relax_kit/common/Libraries/XMCLib/inc\xmc_ccu8.h ****   XMC_CCU8_SOURCE_OUT2_ST2      = (uint32_t)0x0, /**< CCU8yST2 signal path is connected the CCU8x.O
 663:C:/Users/Yushev/git/optiga-trust-qi/projects/xmc4700_relax_kit/common/Libraries/XMCLib/inc\xmc_ccu8.h ****   XMC_CCU8_SOURCE_OUT2_INV_ST2  = (uint32_t)0x1, /**< Inverted CCU8yST2 signal path is connected th
 664:C:/Users/Yushev/git/optiga-trust-qi/projects/xmc4700_relax_kit/common/Libraries/XMCLib/inc\xmc_ccu8.h ****   XMC_CCU8_SOURCE_OUT2_ST1      = (uint32_t)0x2, /**< CCU8yST1 signal path is connected the CCU8x.O
 665:C:/Users/Yushev/git/optiga-trust-qi/projects/xmc4700_relax_kit/common/Libraries/XMCLib/inc\xmc_ccu8.h ****   XMC_CCU8_SOURCE_OUT2_INV_ST1  = (uint32_t)0x3  /**< Inverted CCU8yST1 signal path is connected th
 666:C:/Users/Yushev/git/optiga-trust-qi/projects/xmc4700_relax_kit/common/Libraries/XMCLib/inc\xmc_ccu8.h **** } XMC_CCU8_SOURCE_OUT2_t;
 667:C:/Users/Yushev/git/optiga-trust-qi/projects/xmc4700_relax_kit/common/Libraries/XMCLib/inc\xmc_ccu8.h **** 
 668:C:/Users/Yushev/git/optiga-trust-qi/projects/xmc4700_relax_kit/common/Libraries/XMCLib/inc\xmc_ccu8.h **** /**
 669:C:/Users/Yushev/git/optiga-trust-qi/projects/xmc4700_relax_kit/common/Libraries/XMCLib/inc\xmc_ccu8.h ****  *  Output sources for OUTy3 signal
 670:C:/Users/Yushev/git/optiga-trust-qi/projects/xmc4700_relax_kit/common/Libraries/XMCLib/inc\xmc_ccu8.h ****  *  @note Only available for XMC1400 series
 671:C:/Users/Yushev/git/optiga-trust-qi/projects/xmc4700_relax_kit/common/Libraries/XMCLib/inc\xmc_ccu8.h ****  */
 672:C:/Users/Yushev/git/optiga-trust-qi/projects/xmc4700_relax_kit/common/Libraries/XMCLib/inc\xmc_ccu8.h ****  typedef enum XMC_CCU8_SOURCE_OUT3
 673:C:/Users/Yushev/git/optiga-trust-qi/projects/xmc4700_relax_kit/common/Libraries/XMCLib/inc\xmc_ccu8.h **** {
 674:C:/Users/Yushev/git/optiga-trust-qi/projects/xmc4700_relax_kit/common/Libraries/XMCLib/inc\xmc_ccu8.h ****   XMC_CCU8_SOURCE_OUT3_ST2      = (uint32_t)0x1, /**< CCU8yST2 signal path is connected the CCU8x.O
 675:C:/Users/Yushev/git/optiga-trust-qi/projects/xmc4700_relax_kit/common/Libraries/XMCLib/inc\xmc_ccu8.h ****   XMC_CCU8_SOURCE_OUT3_INV_ST2  = (uint32_t)0x0, /**< Inverted CCU8yST2 signal path is connected th
 676:C:/Users/Yushev/git/optiga-trust-qi/projects/xmc4700_relax_kit/common/Libraries/XMCLib/inc\xmc_ccu8.h ****   XMC_CCU8_SOURCE_OUT3_ST1      = (uint32_t)0x3, /**< CCU8yST1 signal path is connected the CCU8x.O
 677:C:/Users/Yushev/git/optiga-trust-qi/projects/xmc4700_relax_kit/common/Libraries/XMCLib/inc\xmc_ccu8.h ****   XMC_CCU8_SOURCE_OUT3_INV_ST1  = (uint32_t)0x2  /**< Inverted CCU8yST1 signal path is connected th
 678:C:/Users/Yushev/git/optiga-trust-qi/projects/xmc4700_relax_kit/common/Libraries/XMCLib/inc\xmc_ccu8.h **** } XMC_CCU8_SOURCE_OUT3_t;
 679:C:/Users/Yushev/git/optiga-trust-qi/projects/xmc4700_relax_kit/common/Libraries/XMCLib/inc\xmc_ccu8.h **** #endif
 680:C:/Users/Yushev/git/optiga-trust-qi/projects/xmc4700_relax_kit/common/Libraries/XMCLib/inc\xmc_ccu8.h **** 
 681:C:/Users/Yushev/git/optiga-trust-qi/projects/xmc4700_relax_kit/common/Libraries/XMCLib/inc\xmc_ccu8.h **** 
 682:C:/Users/Yushev/git/optiga-trust-qi/projects/xmc4700_relax_kit/common/Libraries/XMCLib/inc\xmc_ccu8.h **** /**
 683:C:/Users/Yushev/git/optiga-trust-qi/projects/xmc4700_relax_kit/common/Libraries/XMCLib/inc\xmc_ccu8.h ****  *  Output selector for CCU8x.OUT0-3
 684:C:/Users/Yushev/git/optiga-trust-qi/projects/xmc4700_relax_kit/common/Libraries/XMCLib/inc\xmc_ccu8.h ****  */
 685:C:/Users/Yushev/git/optiga-trust-qi/projects/xmc4700_relax_kit/common/Libraries/XMCLib/inc\xmc_ccu8.h **** #if !defined(CCU8V3) /* Defined for all devices except XMC1400 */
 686:C:/Users/Yushev/git/optiga-trust-qi/projects/xmc4700_relax_kit/common/Libraries/XMCLib/inc\xmc_ccu8.h **** typedef enum XMC_CCU8_OUT_PATH
 687:C:/Users/Yushev/git/optiga-trust-qi/projects/xmc4700_relax_kit/common/Libraries/XMCLib/inc\xmc_ccu8.h **** {
 688:C:/Users/Yushev/git/optiga-trust-qi/projects/xmc4700_relax_kit/common/Libraries/XMCLib/inc\xmc_ccu8.h ****   XMC_CCU8_OUT_PATH_OUT0_ST1      = (uint32_t)0x20000, /**< CCU8yST1 signal path is connected the C
 689:C:/Users/Yushev/git/optiga-trust-qi/projects/xmc4700_relax_kit/common/Libraries/XMCLib/inc\xmc_ccu8.h ****   XMC_CCU8_OUT_PATH_OUT0_INV_ST1  = (uint32_t)0x20002, /**< Inverted CCU8yST1 signal path is connec
 690:C:/Users/Yushev/git/optiga-trust-qi/projects/xmc4700_relax_kit/common/Libraries/XMCLib/inc\xmc_ccu8.h ****   XMC_CCU8_OUT_PATH_OUT1_ST1      = (uint32_t)0x40000, /**< CCU8yST1 signal path is connected the C
 691:C:/Users/Yushev/git/optiga-trust-qi/projects/xmc4700_relax_kit/common/Libraries/XMCLib/inc\xmc_ccu8.h ****   XMC_CCU8_OUT_PATH_OUT1_INV_ST1  = (uint32_t)0x40004, /**< Inverted CCU8yST1 signal path is connec
 692:C:/Users/Yushev/git/optiga-trust-qi/projects/xmc4700_relax_kit/common/Libraries/XMCLib/inc\xmc_ccu8.h ****   XMC_CCU8_OUT_PATH_OUT2_ST2      = (uint32_t)0x80000, /**< CCU8yST2 signal path is connected the C
 693:C:/Users/Yushev/git/optiga-trust-qi/projects/xmc4700_relax_kit/common/Libraries/XMCLib/inc\xmc_ccu8.h ****   XMC_CCU8_OUT_PATH_OUT2_INV_ST2  = (uint32_t)0x80008, /**< Inverted CCU8yST2 signal path is connec
 694:C:/Users/Yushev/git/optiga-trust-qi/projects/xmc4700_relax_kit/common/Libraries/XMCLib/inc\xmc_ccu8.h ****   XMC_CCU8_OUT_PATH_OUT3_ST2      = (uint32_t)0x100000,/**< CCU8yST2 signal path is connected the C
 695:C:/Users/Yushev/git/optiga-trust-qi/projects/xmc4700_relax_kit/common/Libraries/XMCLib/inc\xmc_ccu8.h ****   XMC_CCU8_OUT_PATH_OUT3_INV_ST1  = (uint32_t)0x100010 /**< Inverted CCU8yST2 signal path is connec
 696:C:/Users/Yushev/git/optiga-trust-qi/projects/xmc4700_relax_kit/common/Libraries/XMCLib/inc\xmc_ccu8.h **** } XMC_CCU8_OUT_PATH_t;
 697:C:/Users/Yushev/git/optiga-trust-qi/projects/xmc4700_relax_kit/common/Libraries/XMCLib/inc\xmc_ccu8.h **** #else
 698:C:/Users/Yushev/git/optiga-trust-qi/projects/xmc4700_relax_kit/common/Libraries/XMCLib/inc\xmc_ccu8.h **** typedef enum XMC_CCU8_OUT_PATH
 699:C:/Users/Yushev/git/optiga-trust-qi/projects/xmc4700_relax_kit/common/Libraries/XMCLib/inc\xmc_ccu8.h **** {
 700:C:/Users/Yushev/git/optiga-trust-qi/projects/xmc4700_relax_kit/common/Libraries/XMCLib/inc\xmc_ccu8.h ****   XMC_CCU8_OUT_PATH_OUT0_ST1      = (uint32_t)0x000C0, /**< CCU8yST1 signal path is connected the C
 701:C:/Users/Yushev/git/optiga-trust-qi/projects/xmc4700_relax_kit/common/Libraries/XMCLib/inc\xmc_ccu8.h ****   XMC_CCU8_OUT_PATH_OUT0_INV_ST1  = (uint32_t)0x000D0, /**< Inverted CCU8yST1 signal path is connec
 702:C:/Users/Yushev/git/optiga-trust-qi/projects/xmc4700_relax_kit/common/Libraries/XMCLib/inc\xmc_ccu8.h ****   XMC_CCU8_OUT_PATH_OUT0_ST2      = (uint32_t)0x000E0, /**< CCU8yST2 signal path is connected the C
 703:C:/Users/Yushev/git/optiga-trust-qi/projects/xmc4700_relax_kit/common/Libraries/XMCLib/inc\xmc_ccu8.h ****   XMC_CCU8_OUT_PATH_OUT0_INV_ST2  = (uint32_t)0x000F0, /**< Inverted CCU8yST2 signal path is connec
 704:C:/Users/Yushev/git/optiga-trust-qi/projects/xmc4700_relax_kit/common/Libraries/XMCLib/inc\xmc_ccu8.h ****   XMC_CCU8_OUT_PATH_OUT1_ST1      = (uint32_t)0x00D00, /**< CCU8yST1 signal path is connected the C
 705:C:/Users/Yushev/git/optiga-trust-qi/projects/xmc4700_relax_kit/common/Libraries/XMCLib/inc\xmc_ccu8.h ****   XMC_CCU8_OUT_PATH_OUT1_INV_ST1  = (uint32_t)0x00C00, /**< Inverted CCU8yST1 signal path is connec
 706:C:/Users/Yushev/git/optiga-trust-qi/projects/xmc4700_relax_kit/common/Libraries/XMCLib/inc\xmc_ccu8.h ****   XMC_CCU8_OUT_PATH_OUT1_ST2      = (uint32_t)0x00F00, /**< CCU8yST2 signal path is connected the C
 707:C:/Users/Yushev/git/optiga-trust-qi/projects/xmc4700_relax_kit/common/Libraries/XMCLib/inc\xmc_ccu8.h ****   XMC_CCU8_OUT_PATH_OUT1_INV_ST2  = (uint32_t)0x00E00, /**< Inverted CCU8yST2 signal path is connec
 708:C:/Users/Yushev/git/optiga-trust-qi/projects/xmc4700_relax_kit/common/Libraries/XMCLib/inc\xmc_ccu8.h ****   XMC_CCU8_OUT_PATH_OUT2_ST2      = (uint32_t)0x0C000, /**< CCU8yST2 signal path is connected the C
 709:C:/Users/Yushev/git/optiga-trust-qi/projects/xmc4700_relax_kit/common/Libraries/XMCLib/inc\xmc_ccu8.h ****   XMC_CCU8_OUT_PATH_OUT2_INV_ST2  = (uint32_t)0x0D000, /**< Inverted CCU8yST2 signal path is connec
 710:C:/Users/Yushev/git/optiga-trust-qi/projects/xmc4700_relax_kit/common/Libraries/XMCLib/inc\xmc_ccu8.h ****   XMC_CCU8_OUT_PATH_OUT2_ST1      = (uint32_t)0x0E000, /**< CCU8yST1 signal path is connected the C
 711:C:/Users/Yushev/git/optiga-trust-qi/projects/xmc4700_relax_kit/common/Libraries/XMCLib/inc\xmc_ccu8.h ****   XMC_CCU8_OUT_PATH_OUT2_INV_ST1  = (uint32_t)0x0F000, /**< Inverted CCU8yST1 signal path is connec
 712:C:/Users/Yushev/git/optiga-trust-qi/projects/xmc4700_relax_kit/common/Libraries/XMCLib/inc\xmc_ccu8.h ****   XMC_CCU8_OUT_PATH_OUT3_ST2      = (uint32_t)0xD0000, /**< CCU8yST2 signal path is connected the C
 713:C:/Users/Yushev/git/optiga-trust-qi/projects/xmc4700_relax_kit/common/Libraries/XMCLib/inc\xmc_ccu8.h ****   XMC_CCU8_OUT_PATH_OUT3_INV_ST2  = (uint32_t)0xC0000, /**< Inverted CCU8yST2 signal path is connec
 714:C:/Users/Yushev/git/optiga-trust-qi/projects/xmc4700_relax_kit/common/Libraries/XMCLib/inc\xmc_ccu8.h ****   XMC_CCU8_OUT_PATH_OUT3_ST1      = (uint32_t)0xF0000, /**< CCU8yST1 signal path is connected the C
 715:C:/Users/Yushev/git/optiga-trust-qi/projects/xmc4700_relax_kit/common/Libraries/XMCLib/inc\xmc_ccu8.h ****   XMC_CCU8_OUT_PATH_OUT3_INV_ST1  = (uint32_t)0xE0000  /**< Inverted CCU8yST1 signal path is connec
 716:C:/Users/Yushev/git/optiga-trust-qi/projects/xmc4700_relax_kit/common/Libraries/XMCLib/inc\xmc_ccu8.h **** } XMC_CCU8_OUT_PATH_t;
 717:C:/Users/Yushev/git/optiga-trust-qi/projects/xmc4700_relax_kit/common/Libraries/XMCLib/inc\xmc_ccu8.h **** 
 718:C:/Users/Yushev/git/optiga-trust-qi/projects/xmc4700_relax_kit/common/Libraries/XMCLib/inc\xmc_ccu8.h **** /**
 719:C:/Users/Yushev/git/optiga-trust-qi/projects/xmc4700_relax_kit/common/Libraries/XMCLib/inc\xmc_ccu8.h ****  *  Immediate write into configuration register
 720:C:/Users/Yushev/git/optiga-trust-qi/projects/xmc4700_relax_kit/common/Libraries/XMCLib/inc\xmc_ccu8.h ****  *  @note Only available for XMC1400 series
 721:C:/Users/Yushev/git/optiga-trust-qi/projects/xmc4700_relax_kit/common/Libraries/XMCLib/inc\xmc_ccu8.h ****  */
 722:C:/Users/Yushev/git/optiga-trust-qi/projects/xmc4700_relax_kit/common/Libraries/XMCLib/inc\xmc_ccu8.h **** typedef enum XMC_CCU8_SLICE_WRITE_INTO
 723:C:/Users/Yushev/git/optiga-trust-qi/projects/xmc4700_relax_kit/common/Libraries/XMCLib/inc\xmc_ccu8.h **** {
 724:C:/Users/Yushev/git/optiga-trust-qi/projects/xmc4700_relax_kit/common/Libraries/XMCLib/inc\xmc_ccu8.h ****   XMC_CCU8_SLICE_WRITE_INTO_PERIOD_CONFIGURATION = CCU8_CC8_STC_IRPC_Msk,                  /**< Imm
 725:C:/Users/Yushev/git/optiga-trust-qi/projects/xmc4700_relax_kit/common/Libraries/XMCLib/inc\xmc_ccu8.h ****                                                                                                 Wri
 726:C:/Users/Yushev/git/optiga-trust-qi/projects/xmc4700_relax_kit/common/Libraries/XMCLib/inc\xmc_ccu8.h ****                                                                                                 Con
 727:C:/Users/Yushev/git/optiga-trust-qi/projects/xmc4700_relax_kit/common/Libraries/XMCLib/inc\xmc_ccu8.h ****   XMC_CCU8_SLICE_WRITE_INTO_COMPARE1_CONFIGURATION = CCU8_CC8_STC_IRCC1_Msk,               /**< Imm
 728:C:/Users/Yushev/git/optiga-trust-qi/projects/xmc4700_relax_kit/common/Libraries/XMCLib/inc\xmc_ccu8.h ****                                                                                                 Wri
 729:C:/Users/Yushev/git/optiga-trust-qi/projects/xmc4700_relax_kit/common/Libraries/XMCLib/inc\xmc_ccu8.h ****                                                                                                 Con
 730:C:/Users/Yushev/git/optiga-trust-qi/projects/xmc4700_relax_kit/common/Libraries/XMCLib/inc\xmc_ccu8.h ****   XMC_CCU8_SLICE_WRITE_INTO_COMPARE2_CONFIGURATION = CCU8_CC8_STC_IRCC2_Msk,               /**< Imm
 731:C:/Users/Yushev/git/optiga-trust-qi/projects/xmc4700_relax_kit/common/Libraries/XMCLib/inc\xmc_ccu8.h ****                                                                                                 Wri
 732:C:/Users/Yushev/git/optiga-trust-qi/projects/xmc4700_relax_kit/common/Libraries/XMCLib/inc\xmc_ccu8.h ****                                                                                                 Con
 733:C:/Users/Yushev/git/optiga-trust-qi/projects/xmc4700_relax_kit/common/Libraries/XMCLib/inc\xmc_ccu8.h ****   XMC_CCU8_SLICE_WRITE_INTO_PASSIVE_LEVEL_CONFIGURATION = CCU8_CC8_STC_IRLC_Msk,           /**< Imm
 734:C:/Users/Yushev/git/optiga-trust-qi/projects/xmc4700_relax_kit/common/Libraries/XMCLib/inc\xmc_ccu8.h ****                                                                                                 Wri
 735:C:/Users/Yushev/git/optiga-trust-qi/projects/xmc4700_relax_kit/common/Libraries/XMCLib/inc\xmc_ccu8.h **** 	                                                                                            Config
 736:C:/Users/Yushev/git/optiga-trust-qi/projects/xmc4700_relax_kit/common/Libraries/XMCLib/inc\xmc_ccu8.h ****   XMC_CCU8_SLICE_WRITE_INTO_DITHER_VALUE_CONFIGURATION = CCU8_CC8_STC_IRDC_Msk,            /**< Imm
 737:C:/Users/Yushev/git/optiga-trust-qi/projects/xmc4700_relax_kit/common/Libraries/XMCLib/inc\xmc_ccu8.h ****                                                                                                 Wri
 738:C:/Users/Yushev/git/optiga-trust-qi/projects/xmc4700_relax_kit/common/Libraries/XMCLib/inc\xmc_ccu8.h **** 	                                                                                            Config
 739:C:/Users/Yushev/git/optiga-trust-qi/projects/xmc4700_relax_kit/common/Libraries/XMCLib/inc\xmc_ccu8.h ****   XMC_CCU8_SLICE_WRITE_INTO_FLOATING_PRESCALER_VALUE_CONFIGURATION = CCU8_CC8_STC_IRFC_Msk /**< Imm
 740:C:/Users/Yushev/git/optiga-trust-qi/projects/xmc4700_relax_kit/common/Libraries/XMCLib/inc\xmc_ccu8.h ****                                                                                                 Wri
 741:C:/Users/Yushev/git/optiga-trust-qi/projects/xmc4700_relax_kit/common/Libraries/XMCLib/inc\xmc_ccu8.h ****                                                                                                 Val
 742:C:/Users/Yushev/git/optiga-trust-qi/projects/xmc4700_relax_kit/common/Libraries/XMCLib/inc\xmc_ccu8.h **** } XMC_CCU8_SLICE_WRITE_INTO_t;
 743:C:/Users/Yushev/git/optiga-trust-qi/projects/xmc4700_relax_kit/common/Libraries/XMCLib/inc\xmc_ccu8.h **** 
 744:C:/Users/Yushev/git/optiga-trust-qi/projects/xmc4700_relax_kit/common/Libraries/XMCLib/inc\xmc_ccu8.h **** 
 745:C:/Users/Yushev/git/optiga-trust-qi/projects/xmc4700_relax_kit/common/Libraries/XMCLib/inc\xmc_ccu8.h **** /**
 746:C:/Users/Yushev/git/optiga-trust-qi/projects/xmc4700_relax_kit/common/Libraries/XMCLib/inc\xmc_ccu8.h ****  *  Automatic Shadow Transfer request when writing into shadow register
 747:C:/Users/Yushev/git/optiga-trust-qi/projects/xmc4700_relax_kit/common/Libraries/XMCLib/inc\xmc_ccu8.h ****  *  @note Only available for XMC1400 series
 748:C:/Users/Yushev/git/optiga-trust-qi/projects/xmc4700_relax_kit/common/Libraries/XMCLib/inc\xmc_ccu8.h ****  */
 749:C:/Users/Yushev/git/optiga-trust-qi/projects/xmc4700_relax_kit/common/Libraries/XMCLib/inc\xmc_ccu8.h **** typedef enum XMC_CCU8_SLICE_AUTOMAIC_SHADOW_TRANSFER_WRITE_INTO
 750:C:/Users/Yushev/git/optiga-trust-qi/projects/xmc4700_relax_kit/common/Libraries/XMCLib/inc\xmc_ccu8.h **** {
 751:C:/Users/Yushev/git/optiga-trust-qi/projects/xmc4700_relax_kit/common/Libraries/XMCLib/inc\xmc_ccu8.h ****   XMC_CCU8_SLICE_AUTOMAIC_SHADOW_TRANSFER_WRITE_INTO_PERIOD_SHADOW = CCU8_CC8_STC_ASPC_Msk,        
 752:C:/Users/Yushev/git/optiga-trust-qi/projects/xmc4700_relax_kit/common/Libraries/XMCLib/inc\xmc_ccu8.h **** 	                                                                                                  
 753:C:/Users/Yushev/git/optiga-trust-qi/projects/xmc4700_relax_kit/common/Libraries/XMCLib/inc\xmc_ccu8.h ****                                                                                                    
 754:C:/Users/Yushev/git/optiga-trust-qi/projects/xmc4700_relax_kit/common/Libraries/XMCLib/inc\xmc_ccu8.h ****                                                                                                    
 755:C:/Users/Yushev/git/optiga-trust-qi/projects/xmc4700_relax_kit/common/Libraries/XMCLib/inc\xmc_ccu8.h ****   XMC_CCU8_SLICE_AUTOMAIC_SHADOW_TRANSFER_WRITE_INTO_COMPARE1_SHADOW = CCU8_CC8_STC_ASCC1_Msk,     
 756:C:/Users/Yushev/git/optiga-trust-qi/projects/xmc4700_relax_kit/common/Libraries/XMCLib/inc\xmc_ccu8.h **** 	                                                                                                  
 757:C:/Users/Yushev/git/optiga-trust-qi/projects/xmc4700_relax_kit/common/Libraries/XMCLib/inc\xmc_ccu8.h **** 	                                                                                                  
 758:C:/Users/Yushev/git/optiga-trust-qi/projects/xmc4700_relax_kit/common/Libraries/XMCLib/inc\xmc_ccu8.h **** 	                                                                                                  
 759:C:/Users/Yushev/git/optiga-trust-qi/projects/xmc4700_relax_kit/common/Libraries/XMCLib/inc\xmc_ccu8.h ****   XMC_CCU8_SLICE_AUTOMAIC_SHADOW_TRANSFER_WRITE_INTO_COMPARE2_SHADOW = CCU8_CC8_STC_ASCC2_Msk,     
 760:C:/Users/Yushev/git/optiga-trust-qi/projects/xmc4700_relax_kit/common/Libraries/XMCLib/inc\xmc_ccu8.h **** 	                                                                                                  
 761:C:/Users/Yushev/git/optiga-trust-qi/projects/xmc4700_relax_kit/common/Libraries/XMCLib/inc\xmc_ccu8.h **** 	                                                                                                  
 762:C:/Users/Yushev/git/optiga-trust-qi/projects/xmc4700_relax_kit/common/Libraries/XMCLib/inc\xmc_ccu8.h **** 	                                                                                                  
 763:C:/Users/Yushev/git/optiga-trust-qi/projects/xmc4700_relax_kit/common/Libraries/XMCLib/inc\xmc_ccu8.h ****   XMC_CCU8_SLICE_AUTOMAIC_SHADOW_TRANSFER_WRITE_INTO_PASSIVE_LEVEL = CCU8_CC8_STC_ASLC_Msk,        
 764:C:/Users/Yushev/git/optiga-trust-qi/projects/xmc4700_relax_kit/common/Libraries/XMCLib/inc\xmc_ccu8.h **** 	                                                                                                  
 765:C:/Users/Yushev/git/optiga-trust-qi/projects/xmc4700_relax_kit/common/Libraries/XMCLib/inc\xmc_ccu8.h ****                                                                                                    
 766:C:/Users/Yushev/git/optiga-trust-qi/projects/xmc4700_relax_kit/common/Libraries/XMCLib/inc\xmc_ccu8.h ****   XMC_CCU8_SLICE_AUTOMAIC_SHADOW_TRANSFER_WRITE_INTO_DITHER_SHADOW = CCU8_CC8_STC_ASDC_Msk,        
 767:C:/Users/Yushev/git/optiga-trust-qi/projects/xmc4700_relax_kit/common/Libraries/XMCLib/inc\xmc_ccu8.h ****                                                                                                    
 768:C:/Users/Yushev/git/optiga-trust-qi/projects/xmc4700_relax_kit/common/Libraries/XMCLib/inc\xmc_ccu8.h ****                                                                                                    
 769:C:/Users/Yushev/git/optiga-trust-qi/projects/xmc4700_relax_kit/common/Libraries/XMCLib/inc\xmc_ccu8.h ****   XMC_CCU8_SLICE_AUTOMAIC_SHADOW_TRANSFER_WRITE_INTO_FLOATING_PRESCALER_SHADOW = CCU8_CC8_STC_ASFC_
 770:C:/Users/Yushev/git/optiga-trust-qi/projects/xmc4700_relax_kit/common/Libraries/XMCLib/inc\xmc_ccu8.h **** 	                                                                                                  
 771:C:/Users/Yushev/git/optiga-trust-qi/projects/xmc4700_relax_kit/common/Libraries/XMCLib/inc\xmc_ccu8.h ****                                                                                                    
 772:C:/Users/Yushev/git/optiga-trust-qi/projects/xmc4700_relax_kit/common/Libraries/XMCLib/inc\xmc_ccu8.h ****                                                                                                    
 773:C:/Users/Yushev/git/optiga-trust-qi/projects/xmc4700_relax_kit/common/Libraries/XMCLib/inc\xmc_ccu8.h **** 
 774:C:/Users/Yushev/git/optiga-trust-qi/projects/xmc4700_relax_kit/common/Libraries/XMCLib/inc\xmc_ccu8.h **** } XMC_CCU8_SLICE_AUTOMAIC_SHADOW_TRANSFER_WRITE_INTO_t;
 775:C:/Users/Yushev/git/optiga-trust-qi/projects/xmc4700_relax_kit/common/Libraries/XMCLib/inc\xmc_ccu8.h **** #endif
 776:C:/Users/Yushev/git/optiga-trust-qi/projects/xmc4700_relax_kit/common/Libraries/XMCLib/inc\xmc_ccu8.h **** 
 777:C:/Users/Yushev/git/optiga-trust-qi/projects/xmc4700_relax_kit/common/Libraries/XMCLib/inc\xmc_ccu8.h **** /**
 778:C:/Users/Yushev/git/optiga-trust-qi/projects/xmc4700_relax_kit/common/Libraries/XMCLib/inc\xmc_ccu8.h ****  *  CCU8 slice mask which can be used for the APIs as input where multi slice support is available
 779:C:/Users/Yushev/git/optiga-trust-qi/projects/xmc4700_relax_kit/common/Libraries/XMCLib/inc\xmc_ccu8.h ****  */
 780:C:/Users/Yushev/git/optiga-trust-qi/projects/xmc4700_relax_kit/common/Libraries/XMCLib/inc\xmc_ccu8.h **** typedef enum XMC_CCU8_SLICE_MASK
 781:C:/Users/Yushev/git/optiga-trust-qi/projects/xmc4700_relax_kit/common/Libraries/XMCLib/inc\xmc_ccu8.h **** {
 782:C:/Users/Yushev/git/optiga-trust-qi/projects/xmc4700_relax_kit/common/Libraries/XMCLib/inc\xmc_ccu8.h ****   XMC_CCU8_SLICE_MASK_SLICE_0  = 1U , /**< SLICE-0 */
 783:C:/Users/Yushev/git/optiga-trust-qi/projects/xmc4700_relax_kit/common/Libraries/XMCLib/inc\xmc_ccu8.h ****   XMC_CCU8_SLICE_MASK_SLICE_1  = 2U , /**< SLICE-1 */
 784:C:/Users/Yushev/git/optiga-trust-qi/projects/xmc4700_relax_kit/common/Libraries/XMCLib/inc\xmc_ccu8.h ****   XMC_CCU8_SLICE_MASK_SLICE_2  = 4U , /**< SLICE-2 */
 785:C:/Users/Yushev/git/optiga-trust-qi/projects/xmc4700_relax_kit/common/Libraries/XMCLib/inc\xmc_ccu8.h ****   XMC_CCU8_SLICE_MASK_SLICE_3  = 8U   /**< SLICE-3 */
 786:C:/Users/Yushev/git/optiga-trust-qi/projects/xmc4700_relax_kit/common/Libraries/XMCLib/inc\xmc_ccu8.h **** } XMC_CCU8_SLICE_MASK_t;
 787:C:/Users/Yushev/git/optiga-trust-qi/projects/xmc4700_relax_kit/common/Libraries/XMCLib/inc\xmc_ccu8.h **** 
 788:C:/Users/Yushev/git/optiga-trust-qi/projects/xmc4700_relax_kit/common/Libraries/XMCLib/inc\xmc_ccu8.h **** /**
 789:C:/Users/Yushev/git/optiga-trust-qi/projects/xmc4700_relax_kit/common/Libraries/XMCLib/inc\xmc_ccu8.h ****  *  Selects which signal is controlling the delay between the change at the CCU8 outputs and effect
 790:C:/Users/Yushev/git/optiga-trust-qi/projects/xmc4700_relax_kit/common/Libraries/XMCLib/inc\xmc_ccu8.h ****  */
 791:C:/Users/Yushev/git/optiga-trust-qi/projects/xmc4700_relax_kit/common/Libraries/XMCLib/inc\xmc_ccu8.h **** typedef enum XMC_CCU8_PARITY_CHECKER_DELAY_INPUT
 792:C:/Users/Yushev/git/optiga-trust-qi/projects/xmc4700_relax_kit/common/Libraries/XMCLib/inc\xmc_ccu8.h **** {
 793:C:/Users/Yushev/git/optiga-trust-qi/projects/xmc4700_relax_kit/common/Libraries/XMCLib/inc\xmc_ccu8.h ****   XMC_CCU8_PARITY_CHECKER_DELAY_INPUT_IGBTA = 0 << CCU8_GPCHK_PCDS_Pos,
 794:C:/Users/Yushev/git/optiga-trust-qi/projects/xmc4700_relax_kit/common/Libraries/XMCLib/inc\xmc_ccu8.h ****   XMC_CCU8_PARITY_CHECKER_DELAY_INPUT_IGBTB = 1 << CCU8_GPCHK_PCDS_Pos,
 795:C:/Users/Yushev/git/optiga-trust-qi/projects/xmc4700_relax_kit/common/Libraries/XMCLib/inc\xmc_ccu8.h ****   XMC_CCU8_PARITY_CHECKER_DELAY_INPUT_IGBTC = 2 << CCU8_GPCHK_PCDS_Pos,
 796:C:/Users/Yushev/git/optiga-trust-qi/projects/xmc4700_relax_kit/common/Libraries/XMCLib/inc\xmc_ccu8.h ****   XMC_CCU8_PARITY_CHECKER_DELAY_INPUT_IGBTD = 3 << CCU8_GPCHK_PCDS_Pos
 797:C:/Users/Yushev/git/optiga-trust-qi/projects/xmc4700_relax_kit/common/Libraries/XMCLib/inc\xmc_ccu8.h **** } XMC_CCU8_PARITY_CHECKER_DELAY_INPUT_t;
 798:C:/Users/Yushev/git/optiga-trust-qi/projects/xmc4700_relax_kit/common/Libraries/XMCLib/inc\xmc_ccu8.h **** 
 799:C:/Users/Yushev/git/optiga-trust-qi/projects/xmc4700_relax_kit/common/Libraries/XMCLib/inc\xmc_ccu8.h **** 
 800:C:/Users/Yushev/git/optiga-trust-qi/projects/xmc4700_relax_kit/common/Libraries/XMCLib/inc\xmc_ccu8.h **** /**
 801:C:/Users/Yushev/git/optiga-trust-qi/projects/xmc4700_relax_kit/common/Libraries/XMCLib/inc\xmc_ccu8.h ****  *  Selects which signal contains the driver parity information
 802:C:/Users/Yushev/git/optiga-trust-qi/projects/xmc4700_relax_kit/common/Libraries/XMCLib/inc\xmc_ccu8.h ****  */
 803:C:/Users/Yushev/git/optiga-trust-qi/projects/xmc4700_relax_kit/common/Libraries/XMCLib/inc\xmc_ccu8.h **** typedef enum XMC_CCU8_PARITY_CHECKER_DRIVER_INPUT
 804:C:/Users/Yushev/git/optiga-trust-qi/projects/xmc4700_relax_kit/common/Libraries/XMCLib/inc\xmc_ccu8.h **** {
 805:C:/Users/Yushev/git/optiga-trust-qi/projects/xmc4700_relax_kit/common/Libraries/XMCLib/inc\xmc_ccu8.h ****   XMC_CCU8_PARITY_CHECKER_DRIVER_INPUT_SLICE_0 = 0 << CCU8_GPCHK_PISEL_Pos,
 806:C:/Users/Yushev/git/optiga-trust-qi/projects/xmc4700_relax_kit/common/Libraries/XMCLib/inc\xmc_ccu8.h ****   XMC_CCU8_PARITY_CHECKER_DRIVER_INPUT_SLICE_1 = 1 << CCU8_GPCHK_PISEL_Pos,
 807:C:/Users/Yushev/git/optiga-trust-qi/projects/xmc4700_relax_kit/common/Libraries/XMCLib/inc\xmc_ccu8.h ****   XMC_CCU8_PARITY_CHECKER_DRIVER_INPUT_SLICE_2 = 2 << CCU8_GPCHK_PISEL_Pos,
 808:C:/Users/Yushev/git/optiga-trust-qi/projects/xmc4700_relax_kit/common/Libraries/XMCLib/inc\xmc_ccu8.h ****   XMC_CCU8_PARITY_CHECKER_DRIVER_INPUT_SLICE_3 = 3 << CCU8_GPCHK_PISEL_Pos,
 809:C:/Users/Yushev/git/optiga-trust-qi/projects/xmc4700_relax_kit/common/Libraries/XMCLib/inc\xmc_ccu8.h **** } XMC_CCU8_PARITY_CHECKER_DRIVER_INPUT_t;
 810:C:/Users/Yushev/git/optiga-trust-qi/projects/xmc4700_relax_kit/common/Libraries/XMCLib/inc\xmc_ccu8.h **** 
 811:C:/Users/Yushev/git/optiga-trust-qi/projects/xmc4700_relax_kit/common/Libraries/XMCLib/inc\xmc_ccu8.h **** /**
 812:C:/Users/Yushev/git/optiga-trust-qi/projects/xmc4700_relax_kit/common/Libraries/XMCLib/inc\xmc_ccu8.h ****  *  Selects if we have an odd or even parity
 813:C:/Users/Yushev/git/optiga-trust-qi/projects/xmc4700_relax_kit/common/Libraries/XMCLib/inc\xmc_ccu8.h ****  */
 814:C:/Users/Yushev/git/optiga-trust-qi/projects/xmc4700_relax_kit/common/Libraries/XMCLib/inc\xmc_ccu8.h **** typedef enum XMC_CCU8_PARITY_CHECKER_TYPE
 815:C:/Users/Yushev/git/optiga-trust-qi/projects/xmc4700_relax_kit/common/Libraries/XMCLib/inc\xmc_ccu8.h **** {
 816:C:/Users/Yushev/git/optiga-trust-qi/projects/xmc4700_relax_kit/common/Libraries/XMCLib/inc\xmc_ccu8.h ****   XMC_CCU8_PARITY_CHECKER_TYPE_EVEN = 0 << CCU8_GPCHK_PCTS_Pos,
 817:C:/Users/Yushev/git/optiga-trust-qi/projects/xmc4700_relax_kit/common/Libraries/XMCLib/inc\xmc_ccu8.h ****   XMC_CCU8_PARITY_CHECKER_TYPE_ODD = 1 << CCU8_GPCHK_PCTS_Pos,
 818:C:/Users/Yushev/git/optiga-trust-qi/projects/xmc4700_relax_kit/common/Libraries/XMCLib/inc\xmc_ccu8.h **** } XMC_CCU8_PARITY_CHECKER_TYPE_t;
 819:C:/Users/Yushev/git/optiga-trust-qi/projects/xmc4700_relax_kit/common/Libraries/XMCLib/inc\xmc_ccu8.h **** 
 820:C:/Users/Yushev/git/optiga-trust-qi/projects/xmc4700_relax_kit/common/Libraries/XMCLib/inc\xmc_ccu8.h **** /**************************************************************************************************
 821:C:/Users/Yushev/git/optiga-trust-qi/projects/xmc4700_relax_kit/common/Libraries/XMCLib/inc\xmc_ccu8.h ****  * DATA STRUCTURES
 822:C:/Users/Yushev/git/optiga-trust-qi/projects/xmc4700_relax_kit/common/Libraries/XMCLib/inc\xmc_ccu8.h ****  **************************************************************************************************
 823:C:/Users/Yushev/git/optiga-trust-qi/projects/xmc4700_relax_kit/common/Libraries/XMCLib/inc\xmc_ccu8.h **** 
 824:C:/Users/Yushev/git/optiga-trust-qi/projects/xmc4700_relax_kit/common/Libraries/XMCLib/inc\xmc_ccu8.h **** /**
 825:C:/Users/Yushev/git/optiga-trust-qi/projects/xmc4700_relax_kit/common/Libraries/XMCLib/inc\xmc_ccu8.h ****  *  Configuration data structure of an External Event(Event-0/1/2).
 826:C:/Users/Yushev/git/optiga-trust-qi/projects/xmc4700_relax_kit/common/Libraries/XMCLib/inc\xmc_ccu8.h ****  *  Needed to configure the various aspects of an External Event.
 827:C:/Users/Yushev/git/optiga-trust-qi/projects/xmc4700_relax_kit/common/Libraries/XMCLib/inc\xmc_ccu8.h ****  *  This structure will not connect the external event with an external function.
 828:C:/Users/Yushev/git/optiga-trust-qi/projects/xmc4700_relax_kit/common/Libraries/XMCLib/inc\xmc_ccu8.h ****  */
 829:C:/Users/Yushev/git/optiga-trust-qi/projects/xmc4700_relax_kit/common/Libraries/XMCLib/inc\xmc_ccu8.h **** typedef struct XMC_CCU8_SLICE_EVENT_CONFIG
 830:C:/Users/Yushev/git/optiga-trust-qi/projects/xmc4700_relax_kit/common/Libraries/XMCLib/inc\xmc_ccu8.h **** {
 831:C:/Users/Yushev/git/optiga-trust-qi/projects/xmc4700_relax_kit/common/Libraries/XMCLib/inc\xmc_ccu8.h ****   XMC_CCU8_SLICE_INPUT_t                   mapped_input; /**< Required input signal for the Event. 
 832:C:/Users/Yushev/git/optiga-trust-qi/projects/xmc4700_relax_kit/common/Libraries/XMCLib/inc\xmc_ccu8.h ****   XMC_CCU8_SLICE_EVENT_EDGE_SENSITIVITY_t  edge;         /**< Select the event edge of the input si
 833:C:/Users/Yushev/git/optiga-trust-qi/projects/xmc4700_relax_kit/common/Libraries/XMCLib/inc\xmc_ccu8.h ****                                                               This is needed for an edge sensitive 
 834:C:/Users/Yushev/git/optiga-trust-qi/projects/xmc4700_relax_kit/common/Libraries/XMCLib/inc\xmc_ccu8.h ****   XMC_CCU8_SLICE_EVENT_LEVEL_SENSITIVITY_t level;        /**< Select the event level of the input s
 835:C:/Users/Yushev/git/optiga-trust-qi/projects/xmc4700_relax_kit/common/Libraries/XMCLib/inc\xmc_ccu8.h ****                                                               This is needed for an level sensitive
 836:C:/Users/Yushev/git/optiga-trust-qi/projects/xmc4700_relax_kit/common/Libraries/XMCLib/inc\xmc_ccu8.h ****   XMC_CCU8_SLICE_EVENT_FILTER_t            duration;     /**< Low Pass filter duration in terms of 
 837:C:/Users/Yushev/git/optiga-trust-qi/projects/xmc4700_relax_kit/common/Libraries/XMCLib/inc\xmc_ccu8.h **** } XMC_CCU8_SLICE_EVENT_CONFIG_t;
 838:C:/Users/Yushev/git/optiga-trust-qi/projects/xmc4700_relax_kit/common/Libraries/XMCLib/inc\xmc_ccu8.h **** 
 839:C:/Users/Yushev/git/optiga-trust-qi/projects/xmc4700_relax_kit/common/Libraries/XMCLib/inc\xmc_ccu8.h **** /*Anonymous structure/union guard start*/
 840:C:/Users/Yushev/git/optiga-trust-qi/projects/xmc4700_relax_kit/common/Libraries/XMCLib/inc\xmc_ccu8.h **** #if defined(__CC_ARM)
 841:C:/Users/Yushev/git/optiga-trust-qi/projects/xmc4700_relax_kit/common/Libraries/XMCLib/inc\xmc_ccu8.h ****   #pragma push
 842:C:/Users/Yushev/git/optiga-trust-qi/projects/xmc4700_relax_kit/common/Libraries/XMCLib/inc\xmc_ccu8.h ****   #pragma anon_unions
 843:C:/Users/Yushev/git/optiga-trust-qi/projects/xmc4700_relax_kit/common/Libraries/XMCLib/inc\xmc_ccu8.h **** #elif defined(__TASKING__)
 844:C:/Users/Yushev/git/optiga-trust-qi/projects/xmc4700_relax_kit/common/Libraries/XMCLib/inc\xmc_ccu8.h ****   #pragma warning 586
 845:C:/Users/Yushev/git/optiga-trust-qi/projects/xmc4700_relax_kit/common/Libraries/XMCLib/inc\xmc_ccu8.h **** #endif
 846:C:/Users/Yushev/git/optiga-trust-qi/projects/xmc4700_relax_kit/common/Libraries/XMCLib/inc\xmc_ccu8.h **** 
 847:C:/Users/Yushev/git/optiga-trust-qi/projects/xmc4700_relax_kit/common/Libraries/XMCLib/inc\xmc_ccu8.h **** /**
 848:C:/Users/Yushev/git/optiga-trust-qi/projects/xmc4700_relax_kit/common/Libraries/XMCLib/inc\xmc_ccu8.h ****  * Dead Time configuration
 849:C:/Users/Yushev/git/optiga-trust-qi/projects/xmc4700_relax_kit/common/Libraries/XMCLib/inc\xmc_ccu8.h ****  */
 850:C:/Users/Yushev/git/optiga-trust-qi/projects/xmc4700_relax_kit/common/Libraries/XMCLib/inc\xmc_ccu8.h **** typedef struct XMC_CCU8_SLICE_DEAD_TIME_CONFIG
 851:C:/Users/Yushev/git/optiga-trust-qi/projects/xmc4700_relax_kit/common/Libraries/XMCLib/inc\xmc_ccu8.h **** {
 852:C:/Users/Yushev/git/optiga-trust-qi/projects/xmc4700_relax_kit/common/Libraries/XMCLib/inc\xmc_ccu8.h ****   union
 853:C:/Users/Yushev/git/optiga-trust-qi/projects/xmc4700_relax_kit/common/Libraries/XMCLib/inc\xmc_ccu8.h ****   {
 854:C:/Users/Yushev/git/optiga-trust-qi/projects/xmc4700_relax_kit/common/Libraries/XMCLib/inc\xmc_ccu8.h ****     struct
 855:C:/Users/Yushev/git/optiga-trust-qi/projects/xmc4700_relax_kit/common/Libraries/XMCLib/inc\xmc_ccu8.h ****     {
 856:C:/Users/Yushev/git/optiga-trust-qi/projects/xmc4700_relax_kit/common/Libraries/XMCLib/inc\xmc_ccu8.h ****       uint32_t enable_dead_time_channel1 : 1; /**< Enable dead time for Compare Channel-1 */
 857:C:/Users/Yushev/git/optiga-trust-qi/projects/xmc4700_relax_kit/common/Libraries/XMCLib/inc\xmc_ccu8.h ****       uint32_t enable_dead_time_channel2 : 1; /**< Enable dead time for Compare Channel-2 */
 858:C:/Users/Yushev/git/optiga-trust-qi/projects/xmc4700_relax_kit/common/Libraries/XMCLib/inc\xmc_ccu8.h ****       uint32_t channel1_st_path : 1;          /**< Should dead time be applied to ST output of Comp
 859:C:/Users/Yushev/git/optiga-trust-qi/projects/xmc4700_relax_kit/common/Libraries/XMCLib/inc\xmc_ccu8.h ****       uint32_t channel1_inv_st_path : 1;      /**< Should dead time be applied to inverse ST output
 860:C:/Users/Yushev/git/optiga-trust-qi/projects/xmc4700_relax_kit/common/Libraries/XMCLib/inc\xmc_ccu8.h ****                                                    Compare Channel-1? */
 861:C:/Users/Yushev/git/optiga-trust-qi/projects/xmc4700_relax_kit/common/Libraries/XMCLib/inc\xmc_ccu8.h ****       uint32_t channel2_st_path : 1;          /**< Should dead time be applied to ST output of Comp
 862:C:/Users/Yushev/git/optiga-trust-qi/projects/xmc4700_relax_kit/common/Libraries/XMCLib/inc\xmc_ccu8.h ****       uint32_t channel2_inv_st_path : 1;      /**< Should dead time be applied to inverse ST output
 863:C:/Users/Yushev/git/optiga-trust-qi/projects/xmc4700_relax_kit/common/Libraries/XMCLib/inc\xmc_ccu8.h ****                                                    Compare Channel-2? */
 864:C:/Users/Yushev/git/optiga-trust-qi/projects/xmc4700_relax_kit/common/Libraries/XMCLib/inc\xmc_ccu8.h ****       uint32_t div : 2;                       /**< Dead time prescaler divider value.
 865:C:/Users/Yushev/git/optiga-trust-qi/projects/xmc4700_relax_kit/common/Libraries/XMCLib/inc\xmc_ccu8.h ****                                                    Accepts enum ::XMC_CCU8_SLICE_DTC_DIV_t*/
 866:C:/Users/Yushev/git/optiga-trust-qi/projects/xmc4700_relax_kit/common/Libraries/XMCLib/inc\xmc_ccu8.h ****       uint32_t : 24;
 867:C:/Users/Yushev/git/optiga-trust-qi/projects/xmc4700_relax_kit/common/Libraries/XMCLib/inc\xmc_ccu8.h ****     };
 868:C:/Users/Yushev/git/optiga-trust-qi/projects/xmc4700_relax_kit/common/Libraries/XMCLib/inc\xmc_ccu8.h ****     uint32_t dtc;
 869:C:/Users/Yushev/git/optiga-trust-qi/projects/xmc4700_relax_kit/common/Libraries/XMCLib/inc\xmc_ccu8.h ****   };
 870:C:/Users/Yushev/git/optiga-trust-qi/projects/xmc4700_relax_kit/common/Libraries/XMCLib/inc\xmc_ccu8.h ****   union
 871:C:/Users/Yushev/git/optiga-trust-qi/projects/xmc4700_relax_kit/common/Libraries/XMCLib/inc\xmc_ccu8.h ****   {
 872:C:/Users/Yushev/git/optiga-trust-qi/projects/xmc4700_relax_kit/common/Libraries/XMCLib/inc\xmc_ccu8.h ****     struct
 873:C:/Users/Yushev/git/optiga-trust-qi/projects/xmc4700_relax_kit/common/Libraries/XMCLib/inc\xmc_ccu8.h ****     {
 874:C:/Users/Yushev/git/optiga-trust-qi/projects/xmc4700_relax_kit/common/Libraries/XMCLib/inc\xmc_ccu8.h ****       uint32_t channel1_st_rising_edge_counter : 8; /**< Contains the delay value that is applied t
 875:C:/Users/Yushev/git/optiga-trust-qi/projects/xmc4700_relax_kit/common/Libraries/XMCLib/inc\xmc_ccu8.h **** 	                                                       for compare channel-1. Range: [0x0 to 0xFF]
 876:C:/Users/Yushev/git/optiga-trust-qi/projects/xmc4700_relax_kit/common/Libraries/XMCLib/inc\xmc_ccu8.h ****       uint32_t channel1_st_falling_edge_counter : 8; /**< Contains the delay value that is applied 
 877:C:/Users/Yushev/git/optiga-trust-qi/projects/xmc4700_relax_kit/common/Libraries/XMCLib/inc\xmc_ccu8.h **** 	                                                        for compare channel-1. Range: [0x0 to 0xFF
 878:C:/Users/Yushev/git/optiga-trust-qi/projects/xmc4700_relax_kit/common/Libraries/XMCLib/inc\xmc_ccu8.h ****       uint32_t : 16;
 879:C:/Users/Yushev/git/optiga-trust-qi/projects/xmc4700_relax_kit/common/Libraries/XMCLib/inc\xmc_ccu8.h ****     };
 880:C:/Users/Yushev/git/optiga-trust-qi/projects/xmc4700_relax_kit/common/Libraries/XMCLib/inc\xmc_ccu8.h ****     uint32_t dc1r;
 881:C:/Users/Yushev/git/optiga-trust-qi/projects/xmc4700_relax_kit/common/Libraries/XMCLib/inc\xmc_ccu8.h ****   };
 882:C:/Users/Yushev/git/optiga-trust-qi/projects/xmc4700_relax_kit/common/Libraries/XMCLib/inc\xmc_ccu8.h ****   union
 883:C:/Users/Yushev/git/optiga-trust-qi/projects/xmc4700_relax_kit/common/Libraries/XMCLib/inc\xmc_ccu8.h ****   {
 884:C:/Users/Yushev/git/optiga-trust-qi/projects/xmc4700_relax_kit/common/Libraries/XMCLib/inc\xmc_ccu8.h ****     struct
 885:C:/Users/Yushev/git/optiga-trust-qi/projects/xmc4700_relax_kit/common/Libraries/XMCLib/inc\xmc_ccu8.h ****     {
 886:C:/Users/Yushev/git/optiga-trust-qi/projects/xmc4700_relax_kit/common/Libraries/XMCLib/inc\xmc_ccu8.h ****       uint32_t channel2_st_rising_edge_counter : 8; /**< Contains the delay value that is applied t
 887:C:/Users/Yushev/git/optiga-trust-qi/projects/xmc4700_relax_kit/common/Libraries/XMCLib/inc\xmc_ccu8.h **** 	                                                     for compare channel-2. Range: [0x0 to 0xFF]*/
 888:C:/Users/Yushev/git/optiga-trust-qi/projects/xmc4700_relax_kit/common/Libraries/XMCLib/inc\xmc_ccu8.h ****       uint32_t channel2_st_falling_edge_counter : 8; /**< Contains the delay value that is applied 
 889:C:/Users/Yushev/git/optiga-trust-qi/projects/xmc4700_relax_kit/common/Libraries/XMCLib/inc\xmc_ccu8.h **** 	                                                     for compare channel-2. Range: [0x0 to 0xFF]*/
 890:C:/Users/Yushev/git/optiga-trust-qi/projects/xmc4700_relax_kit/common/Libraries/XMCLib/inc\xmc_ccu8.h ****       uint32_t : 16;
 891:C:/Users/Yushev/git/optiga-trust-qi/projects/xmc4700_relax_kit/common/Libraries/XMCLib/inc\xmc_ccu8.h ****     };
 892:C:/Users/Yushev/git/optiga-trust-qi/projects/xmc4700_relax_kit/common/Libraries/XMCLib/inc\xmc_ccu8.h ****     uint32_t dc2r;
 893:C:/Users/Yushev/git/optiga-trust-qi/projects/xmc4700_relax_kit/common/Libraries/XMCLib/inc\xmc_ccu8.h ****   };
 894:C:/Users/Yushev/git/optiga-trust-qi/projects/xmc4700_relax_kit/common/Libraries/XMCLib/inc\xmc_ccu8.h **** } XMC_CCU8_SLICE_DEAD_TIME_CONFIG_t;
 895:C:/Users/Yushev/git/optiga-trust-qi/projects/xmc4700_relax_kit/common/Libraries/XMCLib/inc\xmc_ccu8.h **** 
 896:C:/Users/Yushev/git/optiga-trust-qi/projects/xmc4700_relax_kit/common/Libraries/XMCLib/inc\xmc_ccu8.h **** /**
 897:C:/Users/Yushev/git/optiga-trust-qi/projects/xmc4700_relax_kit/common/Libraries/XMCLib/inc\xmc_ccu8.h ****  *  Configuration data structure for CCU8 slice. Specifically configures the CCU8 slice to compare 
 898:C:/Users/Yushev/git/optiga-trust-qi/projects/xmc4700_relax_kit/common/Libraries/XMCLib/inc\xmc_ccu8.h ****  *  This excludes event and function configuration.
 899:C:/Users/Yushev/git/optiga-trust-qi/projects/xmc4700_relax_kit/common/Libraries/XMCLib/inc\xmc_ccu8.h ****  */
 900:C:/Users/Yushev/git/optiga-trust-qi/projects/xmc4700_relax_kit/common/Libraries/XMCLib/inc\xmc_ccu8.h **** typedef struct XMC_CCU8_SLICE_COMPARE_CONFIG
 901:C:/Users/Yushev/git/optiga-trust-qi/projects/xmc4700_relax_kit/common/Libraries/XMCLib/inc\xmc_ccu8.h **** {
 902:C:/Users/Yushev/git/optiga-trust-qi/projects/xmc4700_relax_kit/common/Libraries/XMCLib/inc\xmc_ccu8.h ****   union
 903:C:/Users/Yushev/git/optiga-trust-qi/projects/xmc4700_relax_kit/common/Libraries/XMCLib/inc\xmc_ccu8.h ****   {
 904:C:/Users/Yushev/git/optiga-trust-qi/projects/xmc4700_relax_kit/common/Libraries/XMCLib/inc\xmc_ccu8.h ****     struct
 905:C:/Users/Yushev/git/optiga-trust-qi/projects/xmc4700_relax_kit/common/Libraries/XMCLib/inc\xmc_ccu8.h ****     {
 906:C:/Users/Yushev/git/optiga-trust-qi/projects/xmc4700_relax_kit/common/Libraries/XMCLib/inc\xmc_ccu8.h ****       uint32_t timer_mode : 1;         /**< Edge aligned or Centre Aligned.
 907:C:/Users/Yushev/git/optiga-trust-qi/projects/xmc4700_relax_kit/common/Libraries/XMCLib/inc\xmc_ccu8.h ****                                             Accepts enum :: XMC_CCU8_SLICE_TIMER_COUNT_MODE_t */
 908:C:/Users/Yushev/git/optiga-trust-qi/projects/xmc4700_relax_kit/common/Libraries/XMCLib/inc\xmc_ccu8.h ****       uint32_t monoshot : 1;           /**< Single shot or Continuous mode .
 909:C:/Users/Yushev/git/optiga-trust-qi/projects/xmc4700_relax_kit/common/Libraries/XMCLib/inc\xmc_ccu8.h ****                                             Accepts enum :: XMC_CCU8_SLICE_TIMER_REPEAT_MODE_t */
 910:C:/Users/Yushev/git/optiga-trust-qi/projects/xmc4700_relax_kit/common/Libraries/XMCLib/inc\xmc_ccu8.h ****       uint32_t shadow_xfer_clear : 1; /**< Should PR and CR shadow xfer happen when timer is cleare
 911:C:/Users/Yushev/git/optiga-trust-qi/projects/xmc4700_relax_kit/common/Libraries/XMCLib/inc\xmc_ccu8.h ****       uint32_t : 10;
 912:C:/Users/Yushev/git/optiga-trust-qi/projects/xmc4700_relax_kit/common/Libraries/XMCLib/inc\xmc_ccu8.h ****       uint32_t dither_timer_period: 1; /**< Can the period of the timer dither? */
 913:C:/Users/Yushev/git/optiga-trust-qi/projects/xmc4700_relax_kit/common/Libraries/XMCLib/inc\xmc_ccu8.h ****       uint32_t dither_duty_cycle : 1;  /**< Can the compare match of the timer dither? */
 914:C:/Users/Yushev/git/optiga-trust-qi/projects/xmc4700_relax_kit/common/Libraries/XMCLib/inc\xmc_ccu8.h ****       uint32_t : 1;
 915:C:/Users/Yushev/git/optiga-trust-qi/projects/xmc4700_relax_kit/common/Libraries/XMCLib/inc\xmc_ccu8.h ****       uint32_t prescaler_mode: 1;      /**< Normal or floating prescaler mode.
 916:C:/Users/Yushev/git/optiga-trust-qi/projects/xmc4700_relax_kit/common/Libraries/XMCLib/inc\xmc_ccu8.h ****                                             Accepts enum :: XMC_CCU8_SLICE_PRESCALER_MODE_t */
 917:C:/Users/Yushev/git/optiga-trust-qi/projects/xmc4700_relax_kit/common/Libraries/XMCLib/inc\xmc_ccu8.h ****       uint32_t : 8;
 918:C:/Users/Yushev/git/optiga-trust-qi/projects/xmc4700_relax_kit/common/Libraries/XMCLib/inc\xmc_ccu8.h ****       uint32_t mcm_ch1_enable : 1;     /**< Multi-Channel mode for compare channel 1 enable? */
 919:C:/Users/Yushev/git/optiga-trust-qi/projects/xmc4700_relax_kit/common/Libraries/XMCLib/inc\xmc_ccu8.h ****       uint32_t mcm_ch2_enable : 1;     /**< Multi-Channel mode for compare channel 2 enable? */
 920:C:/Users/Yushev/git/optiga-trust-qi/projects/xmc4700_relax_kit/common/Libraries/XMCLib/inc\xmc_ccu8.h ****       uint32_t : 2;
 921:C:/Users/Yushev/git/optiga-trust-qi/projects/xmc4700_relax_kit/common/Libraries/XMCLib/inc\xmc_ccu8.h ****       uint32_t slice_status : 2;       /**< Which of the two channels drives the slice status outpu
 922:C:/Users/Yushev/git/optiga-trust-qi/projects/xmc4700_relax_kit/common/Libraries/XMCLib/inc\xmc_ccu8.h **** 	                                          Accepts enum :: XMC_CCU8_SLICE_STATUS_t*/
 923:C:/Users/Yushev/git/optiga-trust-qi/projects/xmc4700_relax_kit/common/Libraries/XMCLib/inc\xmc_ccu8.h ****       uint32_t : 1;
 924:C:/Users/Yushev/git/optiga-trust-qi/projects/xmc4700_relax_kit/common/Libraries/XMCLib/inc\xmc_ccu8.h ****     };
 925:C:/Users/Yushev/git/optiga-trust-qi/projects/xmc4700_relax_kit/common/Libraries/XMCLib/inc\xmc_ccu8.h ****     uint32_t tc;
 926:C:/Users/Yushev/git/optiga-trust-qi/projects/xmc4700_relax_kit/common/Libraries/XMCLib/inc\xmc_ccu8.h ****   };
 927:C:/Users/Yushev/git/optiga-trust-qi/projects/xmc4700_relax_kit/common/Libraries/XMCLib/inc\xmc_ccu8.h ****   union
 928:C:/Users/Yushev/git/optiga-trust-qi/projects/xmc4700_relax_kit/common/Libraries/XMCLib/inc\xmc_ccu8.h ****   {
 929:C:/Users/Yushev/git/optiga-trust-qi/projects/xmc4700_relax_kit/common/Libraries/XMCLib/inc\xmc_ccu8.h ****     struct
 930:C:/Users/Yushev/git/optiga-trust-qi/projects/xmc4700_relax_kit/common/Libraries/XMCLib/inc\xmc_ccu8.h ****     {
 931:C:/Users/Yushev/git/optiga-trust-qi/projects/xmc4700_relax_kit/common/Libraries/XMCLib/inc\xmc_ccu8.h ****       uint32_t passive_level_out0 : 1; /**< ST and OUT passive levels Configuration for OUT0. 
 932:C:/Users/Yushev/git/optiga-trust-qi/projects/xmc4700_relax_kit/common/Libraries/XMCLib/inc\xmc_ccu8.h **** 	                                          Accepts enum :: XMC_CCU8_SLICE_OUTPUT_PASSIVE_LEVEL_t */
 933:C:/Users/Yushev/git/optiga-trust-qi/projects/xmc4700_relax_kit/common/Libraries/XMCLib/inc\xmc_ccu8.h ****       uint32_t passive_level_out1 : 1; /**< ST and OUT passive levels Configuration for OUT1. 
 934:C:/Users/Yushev/git/optiga-trust-qi/projects/xmc4700_relax_kit/common/Libraries/XMCLib/inc\xmc_ccu8.h **** 	                                          Accepts enum :: XMC_CCU8_SLICE_OUTPUT_PASSIVE_LEVEL_t */
 935:C:/Users/Yushev/git/optiga-trust-qi/projects/xmc4700_relax_kit/common/Libraries/XMCLib/inc\xmc_ccu8.h ****       uint32_t passive_level_out2 : 1; /**< ST and OUT passive levels Configuration for OUT2. 
 936:C:/Users/Yushev/git/optiga-trust-qi/projects/xmc4700_relax_kit/common/Libraries/XMCLib/inc\xmc_ccu8.h **** 	                                          Accepts enum :: XMC_CCU8_SLICE_OUTPUT_PASSIVE_LEVEL_t */
 937:C:/Users/Yushev/git/optiga-trust-qi/projects/xmc4700_relax_kit/common/Libraries/XMCLib/inc\xmc_ccu8.h ****       uint32_t passive_level_out3 : 1; /**< ST and OUT passive levels Configuration for OUT3. 
 938:C:/Users/Yushev/git/optiga-trust-qi/projects/xmc4700_relax_kit/common/Libraries/XMCLib/inc\xmc_ccu8.h **** 	                                          Accepts enum :: XMC_CCU8_SLICE_OUTPUT_PASSIVE_LEVEL_t */
 939:C:/Users/Yushev/git/optiga-trust-qi/projects/xmc4700_relax_kit/common/Libraries/XMCLib/inc\xmc_ccu8.h ****       uint32_t : 28;
 940:C:/Users/Yushev/git/optiga-trust-qi/projects/xmc4700_relax_kit/common/Libraries/XMCLib/inc\xmc_ccu8.h ****     };
 941:C:/Users/Yushev/git/optiga-trust-qi/projects/xmc4700_relax_kit/common/Libraries/XMCLib/inc\xmc_ccu8.h ****     uint32_t psl;
 942:C:/Users/Yushev/git/optiga-trust-qi/projects/xmc4700_relax_kit/common/Libraries/XMCLib/inc\xmc_ccu8.h ****   };
 943:C:/Users/Yushev/git/optiga-trust-qi/projects/xmc4700_relax_kit/common/Libraries/XMCLib/inc\xmc_ccu8.h ****   union
 944:C:/Users/Yushev/git/optiga-trust-qi/projects/xmc4700_relax_kit/common/Libraries/XMCLib/inc\xmc_ccu8.h ****   {
 945:C:/Users/Yushev/git/optiga-trust-qi/projects/xmc4700_relax_kit/common/Libraries/XMCLib/inc\xmc_ccu8.h ****     struct
 946:C:/Users/Yushev/git/optiga-trust-qi/projects/xmc4700_relax_kit/common/Libraries/XMCLib/inc\xmc_ccu8.h ****     {
 947:C:/Users/Yushev/git/optiga-trust-qi/projects/xmc4700_relax_kit/common/Libraries/XMCLib/inc\xmc_ccu8.h ****       uint32_t asymmetric_pwm : 1;     /**< Should the PWM be a function of the 2 compare channels
 948:C:/Users/Yushev/git/optiga-trust-qi/projects/xmc4700_relax_kit/common/Libraries/XMCLib/inc\xmc_ccu8.h ****                                             rather than period value? */
 949:C:/Users/Yushev/git/optiga-trust-qi/projects/xmc4700_relax_kit/common/Libraries/XMCLib/inc\xmc_ccu8.h ****   #if !defined(CCU8V3)    /* Defined for all devices except XMC1400 */                             
 950:C:/Users/Yushev/git/optiga-trust-qi/projects/xmc4700_relax_kit/common/Libraries/XMCLib/inc\xmc_ccu8.h ****       uint32_t invert_out0 : 1;        /**< Should inverted ST of Channel-1 be connected to OUT0? *
 951:C:/Users/Yushev/git/optiga-trust-qi/projects/xmc4700_relax_kit/common/Libraries/XMCLib/inc\xmc_ccu8.h ****       uint32_t invert_out1 : 1;        /**< Should inverted ST of Channel-1 be connected to OUT1? *
 952:C:/Users/Yushev/git/optiga-trust-qi/projects/xmc4700_relax_kit/common/Libraries/XMCLib/inc\xmc_ccu8.h ****       uint32_t invert_out2 : 1;        /**< Should inverted ST of Channel-2 be connected to OUT2? *
 953:C:/Users/Yushev/git/optiga-trust-qi/projects/xmc4700_relax_kit/common/Libraries/XMCLib/inc\xmc_ccu8.h ****       uint32_t invert_out3 : 1;        /**< Should inverted ST of Channel-2 be connected to OUT3? *
 954:C:/Users/Yushev/git/optiga-trust-qi/projects/xmc4700_relax_kit/common/Libraries/XMCLib/inc\xmc_ccu8.h ****       uint32_t : 27;
 955:C:/Users/Yushev/git/optiga-trust-qi/projects/xmc4700_relax_kit/common/Libraries/XMCLib/inc\xmc_ccu8.h ****   #else
 956:C:/Users/Yushev/git/optiga-trust-qi/projects/xmc4700_relax_kit/common/Libraries/XMCLib/inc\xmc_ccu8.h ****       uint32_t : 3;
 957:C:/Users/Yushev/git/optiga-trust-qi/projects/xmc4700_relax_kit/common/Libraries/XMCLib/inc\xmc_ccu8.h ****       uint32_t selector_out0 : 2;      /**< Connect ST or inverted ST of Channel-1 or Channel-2 be 
 958:C:/Users/Yushev/git/optiga-trust-qi/projects/xmc4700_relax_kit/common/Libraries/XMCLib/inc\xmc_ccu8.h ****                                             Accepts enum :: XMC_CCU8_SOURCE_OUT0_t 
 959:C:/Users/Yushev/git/optiga-trust-qi/projects/xmc4700_relax_kit/common/Libraries/XMCLib/inc\xmc_ccu8.h ****                                             refer OCS1 bit-field of CHC register. 
 960:C:/Users/Yushev/git/optiga-trust-qi/projects/xmc4700_relax_kit/common/Libraries/XMCLib/inc\xmc_ccu8.h **** 											@note Only available for XMC1400 series */
 961:C:/Users/Yushev/git/optiga-trust-qi/projects/xmc4700_relax_kit/common/Libraries/XMCLib/inc\xmc_ccu8.h ****       uint32_t : 2;
 962:C:/Users/Yushev/git/optiga-trust-qi/projects/xmc4700_relax_kit/common/Libraries/XMCLib/inc\xmc_ccu8.h ****       uint32_t selector_out1 : 2;      /**< Connect ST or inverted ST of Channel-1 or Channel-2 be 
 963:C:/Users/Yushev/git/optiga-trust-qi/projects/xmc4700_relax_kit/common/Libraries/XMCLib/inc\xmc_ccu8.h ****                                             Accepts enum :: XMC_CCU8_SOURCE_OUT1_t 
 964:C:/Users/Yushev/git/optiga-trust-qi/projects/xmc4700_relax_kit/common/Libraries/XMCLib/inc\xmc_ccu8.h ****                                             refer OCS2 bit-field of CHC register. 
 965:C:/Users/Yushev/git/optiga-trust-qi/projects/xmc4700_relax_kit/common/Libraries/XMCLib/inc\xmc_ccu8.h **** 											@note Only available for XMC1400 series */
 966:C:/Users/Yushev/git/optiga-trust-qi/projects/xmc4700_relax_kit/common/Libraries/XMCLib/inc\xmc_ccu8.h ****       uint32_t : 2;
 967:C:/Users/Yushev/git/optiga-trust-qi/projects/xmc4700_relax_kit/common/Libraries/XMCLib/inc\xmc_ccu8.h ****       uint32_t selector_out2 : 2;      /**< Connect ST or inverted ST of Channel-1 or Channel-2 be 
 968:C:/Users/Yushev/git/optiga-trust-qi/projects/xmc4700_relax_kit/common/Libraries/XMCLib/inc\xmc_ccu8.h ****                                             Accepts enum :: XMC_CCU8_SOURCE_OUT2_t 
 969:C:/Users/Yushev/git/optiga-trust-qi/projects/xmc4700_relax_kit/common/Libraries/XMCLib/inc\xmc_ccu8.h ****                                             refer OCS3 bit-field of CHC register.
 970:C:/Users/Yushev/git/optiga-trust-qi/projects/xmc4700_relax_kit/common/Libraries/XMCLib/inc\xmc_ccu8.h **** 											@note Only available for XMC1400 series */
 971:C:/Users/Yushev/git/optiga-trust-qi/projects/xmc4700_relax_kit/common/Libraries/XMCLib/inc\xmc_ccu8.h ****       uint32_t : 2;
 972:C:/Users/Yushev/git/optiga-trust-qi/projects/xmc4700_relax_kit/common/Libraries/XMCLib/inc\xmc_ccu8.h ****       uint32_t selector_out3 : 2;      /**< Connect ST or inverted ST of Channel-1 or Channel-2 be 
 973:C:/Users/Yushev/git/optiga-trust-qi/projects/xmc4700_relax_kit/common/Libraries/XMCLib/inc\xmc_ccu8.h ****                                             Accepts enum :: XMC_CCU8_SOURCE_OUT3_t 
 974:C:/Users/Yushev/git/optiga-trust-qi/projects/xmc4700_relax_kit/common/Libraries/XMCLib/inc\xmc_ccu8.h ****                                             refer OCS4 bit-field of CHC register.
 975:C:/Users/Yushev/git/optiga-trust-qi/projects/xmc4700_relax_kit/common/Libraries/XMCLib/inc\xmc_ccu8.h **** 											@note Only available for XMC1400 series */
 976:C:/Users/Yushev/git/optiga-trust-qi/projects/xmc4700_relax_kit/common/Libraries/XMCLib/inc\xmc_ccu8.h ****       uint32_t : 14;
 977:C:/Users/Yushev/git/optiga-trust-qi/projects/xmc4700_relax_kit/common/Libraries/XMCLib/inc\xmc_ccu8.h ****   #endif
 978:C:/Users/Yushev/git/optiga-trust-qi/projects/xmc4700_relax_kit/common/Libraries/XMCLib/inc\xmc_ccu8.h ****     };
 979:C:/Users/Yushev/git/optiga-trust-qi/projects/xmc4700_relax_kit/common/Libraries/XMCLib/inc\xmc_ccu8.h ****     uint32_t chc;
 980:C:/Users/Yushev/git/optiga-trust-qi/projects/xmc4700_relax_kit/common/Libraries/XMCLib/inc\xmc_ccu8.h ****   };
 981:C:/Users/Yushev/git/optiga-trust-qi/projects/xmc4700_relax_kit/common/Libraries/XMCLib/inc\xmc_ccu8.h ****   uint32_t prescaler_initval : 4;      /**< Initial prescaler divider value 
 982:C:/Users/Yushev/git/optiga-trust-qi/projects/xmc4700_relax_kit/common/Libraries/XMCLib/inc\xmc_ccu8.h ****                                             Accepts enum :: XMC_CCU8_SLICE_PRESCALER_t */
 983:C:/Users/Yushev/git/optiga-trust-qi/projects/xmc4700_relax_kit/common/Libraries/XMCLib/inc\xmc_ccu8.h ****   uint32_t float_limit : 4;            /**< The max value which the prescaler divider can increment
 984:C:/Users/Yushev/git/optiga-trust-qi/projects/xmc4700_relax_kit/common/Libraries/XMCLib/inc\xmc_ccu8.h ****                                             Range : [0 to 15] */
 985:C:/Users/Yushev/git/optiga-trust-qi/projects/xmc4700_relax_kit/common/Libraries/XMCLib/inc\xmc_ccu8.h ****   uint32_t dither_limit : 4;           /**< The value that determines the spreading of dithering 
 986:C:/Users/Yushev/git/optiga-trust-qi/projects/xmc4700_relax_kit/common/Libraries/XMCLib/inc\xmc_ccu8.h ****                                             Range : [0 to 15] */
 987:C:/Users/Yushev/git/optiga-trust-qi/projects/xmc4700_relax_kit/common/Libraries/XMCLib/inc\xmc_ccu8.h ****   uint32_t timer_concatenation : 1;    /**< Enables the concatenation of the timer if true*/
 988:C:/Users/Yushev/git/optiga-trust-qi/projects/xmc4700_relax_kit/common/Libraries/XMCLib/inc\xmc_ccu8.h **** } XMC_CCU8_SLICE_COMPARE_CONFIG_t;
 989:C:/Users/Yushev/git/optiga-trust-qi/projects/xmc4700_relax_kit/common/Libraries/XMCLib/inc\xmc_ccu8.h **** 
 990:C:/Users/Yushev/git/optiga-trust-qi/projects/xmc4700_relax_kit/common/Libraries/XMCLib/inc\xmc_ccu8.h **** /**
 991:C:/Users/Yushev/git/optiga-trust-qi/projects/xmc4700_relax_kit/common/Libraries/XMCLib/inc\xmc_ccu8.h ****  *  Configuration data structure for CCU8 slice. Specifically configures the CCU8 slice to capture 
 992:C:/Users/Yushev/git/optiga-trust-qi/projects/xmc4700_relax_kit/common/Libraries/XMCLib/inc\xmc_ccu8.h ****  *  This excludes event and function configuration.
 993:C:/Users/Yushev/git/optiga-trust-qi/projects/xmc4700_relax_kit/common/Libraries/XMCLib/inc\xmc_ccu8.h ****  */
 994:C:/Users/Yushev/git/optiga-trust-qi/projects/xmc4700_relax_kit/common/Libraries/XMCLib/inc\xmc_ccu8.h **** typedef struct XMC_CCU8_SLICE_CAPTURE_CONFIG
 995:C:/Users/Yushev/git/optiga-trust-qi/projects/xmc4700_relax_kit/common/Libraries/XMCLib/inc\xmc_ccu8.h **** {
 996:C:/Users/Yushev/git/optiga-trust-qi/projects/xmc4700_relax_kit/common/Libraries/XMCLib/inc\xmc_ccu8.h ****   union
 997:C:/Users/Yushev/git/optiga-trust-qi/projects/xmc4700_relax_kit/common/Libraries/XMCLib/inc\xmc_ccu8.h ****   {
 998:C:/Users/Yushev/git/optiga-trust-qi/projects/xmc4700_relax_kit/common/Libraries/XMCLib/inc\xmc_ccu8.h ****     struct
 999:C:/Users/Yushev/git/optiga-trust-qi/projects/xmc4700_relax_kit/common/Libraries/XMCLib/inc\xmc_ccu8.h ****     {
1000:C:/Users/Yushev/git/optiga-trust-qi/projects/xmc4700_relax_kit/common/Libraries/XMCLib/inc\xmc_ccu8.h ****       uint32_t : 4;
1001:C:/Users/Yushev/git/optiga-trust-qi/projects/xmc4700_relax_kit/common/Libraries/XMCLib/inc\xmc_ccu8.h ****       uint32_t fifo_enable : 1;      /**< Should the capture registers be setup as a FIFO?(Extended
1002:C:/Users/Yushev/git/optiga-trust-qi/projects/xmc4700_relax_kit/common/Libraries/XMCLib/inc\xmc_ccu8.h ****       uint32_t timer_clear_mode : 2; /**< How should the timer register be cleared upon detection o
1003:C:/Users/Yushev/git/optiga-trust-qi/projects/xmc4700_relax_kit/common/Libraries/XMCLib/inc\xmc_ccu8.h ****                                           Accepts enum ::XMC_CCU8_SLICE_TIMER_CLEAR_MODE_t */
1004:C:/Users/Yushev/git/optiga-trust-qi/projects/xmc4700_relax_kit/common/Libraries/XMCLib/inc\xmc_ccu8.h ****       uint32_t : 4;
1005:C:/Users/Yushev/git/optiga-trust-qi/projects/xmc4700_relax_kit/common/Libraries/XMCLib/inc\xmc_ccu8.h ****       uint32_t same_event : 1;       /**< Should the capture event for C1V/C0V and C3V/C2V be same 
1006:C:/Users/Yushev/git/optiga-trust-qi/projects/xmc4700_relax_kit/common/Libraries/XMCLib/inc\xmc_ccu8.h ****       uint32_t ignore_full_flag : 1; /**< Should updates to capture registers follow full flag rule
1007:C:/Users/Yushev/git/optiga-trust-qi/projects/xmc4700_relax_kit/common/Libraries/XMCLib/inc\xmc_ccu8.h ****       uint32_t : 3;
1008:C:/Users/Yushev/git/optiga-trust-qi/projects/xmc4700_relax_kit/common/Libraries/XMCLib/inc\xmc_ccu8.h ****       uint32_t prescaler_mode: 1;    /**< Normal or floating prescaler Accepts enum :: XMC_CCU8_SLI
1009:C:/Users/Yushev/git/optiga-trust-qi/projects/xmc4700_relax_kit/common/Libraries/XMCLib/inc\xmc_ccu8.h ****       uint32_t : 15;
1010:C:/Users/Yushev/git/optiga-trust-qi/projects/xmc4700_relax_kit/common/Libraries/XMCLib/inc\xmc_ccu8.h ****     };
1011:C:/Users/Yushev/git/optiga-trust-qi/projects/xmc4700_relax_kit/common/Libraries/XMCLib/inc\xmc_ccu8.h ****     uint32_t tc;
1012:C:/Users/Yushev/git/optiga-trust-qi/projects/xmc4700_relax_kit/common/Libraries/XMCLib/inc\xmc_ccu8.h ****   };
1013:C:/Users/Yushev/git/optiga-trust-qi/projects/xmc4700_relax_kit/common/Libraries/XMCLib/inc\xmc_ccu8.h ****   uint32_t prescaler_initval : 4;    /**< Prescaler divider value */
1014:C:/Users/Yushev/git/optiga-trust-qi/projects/xmc4700_relax_kit/common/Libraries/XMCLib/inc\xmc_ccu8.h ****   uint32_t float_limit : 4;          /**< The max value which the prescaler divider can increment t
1015:C:/Users/Yushev/git/optiga-trust-qi/projects/xmc4700_relax_kit/common/Libraries/XMCLib/inc\xmc_ccu8.h ****   uint32_t timer_concatenation : 1;    /**< Enables the concatenation of the timer */
1016:C:/Users/Yushev/git/optiga-trust-qi/projects/xmc4700_relax_kit/common/Libraries/XMCLib/inc\xmc_ccu8.h **** } XMC_CCU8_SLICE_CAPTURE_CONFIG_t;
1017:C:/Users/Yushev/git/optiga-trust-qi/projects/xmc4700_relax_kit/common/Libraries/XMCLib/inc\xmc_ccu8.h **** /*Anonymous structure/union guard end*/
1018:C:/Users/Yushev/git/optiga-trust-qi/projects/xmc4700_relax_kit/common/Libraries/XMCLib/inc\xmc_ccu8.h **** #if defined(__CC_ARM)
1019:C:/Users/Yushev/git/optiga-trust-qi/projects/xmc4700_relax_kit/common/Libraries/XMCLib/inc\xmc_ccu8.h ****   #pragma pop
1020:C:/Users/Yushev/git/optiga-trust-qi/projects/xmc4700_relax_kit/common/Libraries/XMCLib/inc\xmc_ccu8.h **** #elif defined(__TASKING__)
1021:C:/Users/Yushev/git/optiga-trust-qi/projects/xmc4700_relax_kit/common/Libraries/XMCLib/inc\xmc_ccu8.h ****   #pragma warning restore
1022:C:/Users/Yushev/git/optiga-trust-qi/projects/xmc4700_relax_kit/common/Libraries/XMCLib/inc\xmc_ccu8.h **** #endif
1023:C:/Users/Yushev/git/optiga-trust-qi/projects/xmc4700_relax_kit/common/Libraries/XMCLib/inc\xmc_ccu8.h **** /**************************************************************************************************
1024:C:/Users/Yushev/git/optiga-trust-qi/projects/xmc4700_relax_kit/common/Libraries/XMCLib/inc\xmc_ccu8.h ****  * API Prototypes
1025:C:/Users/Yushev/git/optiga-trust-qi/projects/xmc4700_relax_kit/common/Libraries/XMCLib/inc\xmc_ccu8.h ****  **************************************************************************************************
1026:C:/Users/Yushev/git/optiga-trust-qi/projects/xmc4700_relax_kit/common/Libraries/XMCLib/inc\xmc_ccu8.h **** #ifdef __cplusplus
1027:C:/Users/Yushev/git/optiga-trust-qi/projects/xmc4700_relax_kit/common/Libraries/XMCLib/inc\xmc_ccu8.h **** extern "C" {
1028:C:/Users/Yushev/git/optiga-trust-qi/projects/xmc4700_relax_kit/common/Libraries/XMCLib/inc\xmc_ccu8.h **** #endif
1029:C:/Users/Yushev/git/optiga-trust-qi/projects/xmc4700_relax_kit/common/Libraries/XMCLib/inc\xmc_ccu8.h **** 
1030:C:/Users/Yushev/git/optiga-trust-qi/projects/xmc4700_relax_kit/common/Libraries/XMCLib/inc\xmc_ccu8.h **** __STATIC_INLINE bool XMC_CCU8_IsValidModule(const XMC_CCU8_MODULE_t *const module)
1031:C:/Users/Yushev/git/optiga-trust-qi/projects/xmc4700_relax_kit/common/Libraries/XMCLib/inc\xmc_ccu8.h **** {
1032:C:/Users/Yushev/git/optiga-trust-qi/projects/xmc4700_relax_kit/common/Libraries/XMCLib/inc\xmc_ccu8.h ****   bool tmp = false;
1033:C:/Users/Yushev/git/optiga-trust-qi/projects/xmc4700_relax_kit/common/Libraries/XMCLib/inc\xmc_ccu8.h ****   
1034:C:/Users/Yushev/git/optiga-trust-qi/projects/xmc4700_relax_kit/common/Libraries/XMCLib/inc\xmc_ccu8.h ****   tmp = (module == CCU80);
1035:C:/Users/Yushev/git/optiga-trust-qi/projects/xmc4700_relax_kit/common/Libraries/XMCLib/inc\xmc_ccu8.h ****   
1036:C:/Users/Yushev/git/optiga-trust-qi/projects/xmc4700_relax_kit/common/Libraries/XMCLib/inc\xmc_ccu8.h **** #if defined(CCU81)
1037:C:/Users/Yushev/git/optiga-trust-qi/projects/xmc4700_relax_kit/common/Libraries/XMCLib/inc\xmc_ccu8.h ****   tmp = tmp || (module == CCU81);
1038:C:/Users/Yushev/git/optiga-trust-qi/projects/xmc4700_relax_kit/common/Libraries/XMCLib/inc\xmc_ccu8.h **** #endif
1039:C:/Users/Yushev/git/optiga-trust-qi/projects/xmc4700_relax_kit/common/Libraries/XMCLib/inc\xmc_ccu8.h ****   
1040:C:/Users/Yushev/git/optiga-trust-qi/projects/xmc4700_relax_kit/common/Libraries/XMCLib/inc\xmc_ccu8.h ****   return tmp;  
1041:C:/Users/Yushev/git/optiga-trust-qi/projects/xmc4700_relax_kit/common/Libraries/XMCLib/inc\xmc_ccu8.h **** } 
1042:C:/Users/Yushev/git/optiga-trust-qi/projects/xmc4700_relax_kit/common/Libraries/XMCLib/inc\xmc_ccu8.h **** 
1043:C:/Users/Yushev/git/optiga-trust-qi/projects/xmc4700_relax_kit/common/Libraries/XMCLib/inc\xmc_ccu8.h **** __STATIC_INLINE bool XMC_CCU8_IsValidSlice(const XMC_CCU8_SLICE_t *const slice)
1044:C:/Users/Yushev/git/optiga-trust-qi/projects/xmc4700_relax_kit/common/Libraries/XMCLib/inc\xmc_ccu8.h **** {
1045:C:/Users/Yushev/git/optiga-trust-qi/projects/xmc4700_relax_kit/common/Libraries/XMCLib/inc\xmc_ccu8.h ****   bool tmp = false;
1046:C:/Users/Yushev/git/optiga-trust-qi/projects/xmc4700_relax_kit/common/Libraries/XMCLib/inc\xmc_ccu8.h ****   
1047:C:/Users/Yushev/git/optiga-trust-qi/projects/xmc4700_relax_kit/common/Libraries/XMCLib/inc\xmc_ccu8.h ****   tmp = (slice == CCU80_CC80);
1048:C:/Users/Yushev/git/optiga-trust-qi/projects/xmc4700_relax_kit/common/Libraries/XMCLib/inc\xmc_ccu8.h **** #if defined(CCU80_CC81)  
1049:C:/Users/Yushev/git/optiga-trust-qi/projects/xmc4700_relax_kit/common/Libraries/XMCLib/inc\xmc_ccu8.h ****   tmp = tmp || (slice == CCU80_CC81);
1050:C:/Users/Yushev/git/optiga-trust-qi/projects/xmc4700_relax_kit/common/Libraries/XMCLib/inc\xmc_ccu8.h **** #endif
1051:C:/Users/Yushev/git/optiga-trust-qi/projects/xmc4700_relax_kit/common/Libraries/XMCLib/inc\xmc_ccu8.h **** #if defined(CCU80_CC82)  
1052:C:/Users/Yushev/git/optiga-trust-qi/projects/xmc4700_relax_kit/common/Libraries/XMCLib/inc\xmc_ccu8.h ****   tmp = tmp || (slice == CCU80_CC82);
1053:C:/Users/Yushev/git/optiga-trust-qi/projects/xmc4700_relax_kit/common/Libraries/XMCLib/inc\xmc_ccu8.h **** #endif
1054:C:/Users/Yushev/git/optiga-trust-qi/projects/xmc4700_relax_kit/common/Libraries/XMCLib/inc\xmc_ccu8.h **** #if defined(CCU80_CC83)  
1055:C:/Users/Yushev/git/optiga-trust-qi/projects/xmc4700_relax_kit/common/Libraries/XMCLib/inc\xmc_ccu8.h ****   tmp = tmp || (slice == CCU80_CC83);
1056:C:/Users/Yushev/git/optiga-trust-qi/projects/xmc4700_relax_kit/common/Libraries/XMCLib/inc\xmc_ccu8.h **** #endif
1057:C:/Users/Yushev/git/optiga-trust-qi/projects/xmc4700_relax_kit/common/Libraries/XMCLib/inc\xmc_ccu8.h **** #if defined(CCU81)  
1058:C:/Users/Yushev/git/optiga-trust-qi/projects/xmc4700_relax_kit/common/Libraries/XMCLib/inc\xmc_ccu8.h ****   tmp = tmp || (slice == CCU81_CC80);
1059:C:/Users/Yushev/git/optiga-trust-qi/projects/xmc4700_relax_kit/common/Libraries/XMCLib/inc\xmc_ccu8.h **** #if defined(CCU81_CC81)  
1060:C:/Users/Yushev/git/optiga-trust-qi/projects/xmc4700_relax_kit/common/Libraries/XMCLib/inc\xmc_ccu8.h ****   tmp = tmp || (slice == CCU81_CC81);
1061:C:/Users/Yushev/git/optiga-trust-qi/projects/xmc4700_relax_kit/common/Libraries/XMCLib/inc\xmc_ccu8.h **** #endif
1062:C:/Users/Yushev/git/optiga-trust-qi/projects/xmc4700_relax_kit/common/Libraries/XMCLib/inc\xmc_ccu8.h **** #if defined(CCU81_CC82)  
1063:C:/Users/Yushev/git/optiga-trust-qi/projects/xmc4700_relax_kit/common/Libraries/XMCLib/inc\xmc_ccu8.h ****   tmp = tmp || (slice == CCU81_CC82);
1064:C:/Users/Yushev/git/optiga-trust-qi/projects/xmc4700_relax_kit/common/Libraries/XMCLib/inc\xmc_ccu8.h **** #endif
1065:C:/Users/Yushev/git/optiga-trust-qi/projects/xmc4700_relax_kit/common/Libraries/XMCLib/inc\xmc_ccu8.h **** #if defined(CCU81_CC83)  
1066:C:/Users/Yushev/git/optiga-trust-qi/projects/xmc4700_relax_kit/common/Libraries/XMCLib/inc\xmc_ccu8.h ****   tmp = tmp || (slice == CCU81_CC83);
1067:C:/Users/Yushev/git/optiga-trust-qi/projects/xmc4700_relax_kit/common/Libraries/XMCLib/inc\xmc_ccu8.h **** #endif
1068:C:/Users/Yushev/git/optiga-trust-qi/projects/xmc4700_relax_kit/common/Libraries/XMCLib/inc\xmc_ccu8.h **** #endif 
1069:C:/Users/Yushev/git/optiga-trust-qi/projects/xmc4700_relax_kit/common/Libraries/XMCLib/inc\xmc_ccu8.h ****  
1070:C:/Users/Yushev/git/optiga-trust-qi/projects/xmc4700_relax_kit/common/Libraries/XMCLib/inc\xmc_ccu8.h ****   return tmp;  
1071:C:/Users/Yushev/git/optiga-trust-qi/projects/xmc4700_relax_kit/common/Libraries/XMCLib/inc\xmc_ccu8.h **** } 
1072:C:/Users/Yushev/git/optiga-trust-qi/projects/xmc4700_relax_kit/common/Libraries/XMCLib/inc\xmc_ccu8.h **** 
1073:C:/Users/Yushev/git/optiga-trust-qi/projects/xmc4700_relax_kit/common/Libraries/XMCLib/inc\xmc_ccu8.h **** /**
1074:C:/Users/Yushev/git/optiga-trust-qi/projects/xmc4700_relax_kit/common/Libraries/XMCLib/inc\xmc_ccu8.h ****  * @param module Constant pointer to CCU8 module
1075:C:/Users/Yushev/git/optiga-trust-qi/projects/xmc4700_relax_kit/common/Libraries/XMCLib/inc\xmc_ccu8.h ****  * @param mcs_action multi-channel shadow transfer request configuration
1076:C:/Users/Yushev/git/optiga-trust-qi/projects/xmc4700_relax_kit/common/Libraries/XMCLib/inc\xmc_ccu8.h ****  * @return <BR>
1077:C:/Users/Yushev/git/optiga-trust-qi/projects/xmc4700_relax_kit/common/Libraries/XMCLib/inc\xmc_ccu8.h ****  *    None<BR>
1078:C:/Users/Yushev/git/optiga-trust-qi/projects/xmc4700_relax_kit/common/Libraries/XMCLib/inc\xmc_ccu8.h ****  *
1079:C:/Users/Yushev/git/optiga-trust-qi/projects/xmc4700_relax_kit/common/Libraries/XMCLib/inc\xmc_ccu8.h ****  * \par<b>Description:</b><br>
1080:C:/Users/Yushev/git/optiga-trust-qi/projects/xmc4700_relax_kit/common/Libraries/XMCLib/inc\xmc_ccu8.h ****  *  Initialization of global register GCTRL.\n\n
1081:C:/Users/Yushev/git/optiga-trust-qi/projects/xmc4700_relax_kit/common/Libraries/XMCLib/inc\xmc_ccu8.h ****  *  As part of module initialization, behaviour of the module upon detection
1082:C:/Users/Yushev/git/optiga-trust-qi/projects/xmc4700_relax_kit/common/Libraries/XMCLib/inc\xmc_ccu8.h ****  *  Multi-Channel Mode trigger is configured. Will also invoke the XMC_CCU8_EnableModule().
1083:C:/Users/Yushev/git/optiga-trust-qi/projects/xmc4700_relax_kit/common/Libraries/XMCLib/inc\xmc_ccu8.h ****  *  The API call would bring up the required CCU8 module and also initialize the module for
1084:C:/Users/Yushev/git/optiga-trust-qi/projects/xmc4700_relax_kit/common/Libraries/XMCLib/inc\xmc_ccu8.h ****  *  the required multi-channel shadow transfer.
1085:C:/Users/Yushev/git/optiga-trust-qi/projects/xmc4700_relax_kit/common/Libraries/XMCLib/inc\xmc_ccu8.h ****  *
1086:C:/Users/Yushev/git/optiga-trust-qi/projects/xmc4700_relax_kit/common/Libraries/XMCLib/inc\xmc_ccu8.h ****  * \par<b>Related APIs:</b><br>
1087:C:/Users/Yushev/git/optiga-trust-qi/projects/xmc4700_relax_kit/common/Libraries/XMCLib/inc\xmc_ccu8.h ****  * XMC_CCU8_SLICE_CompareInit()<BR> XMC_CCU8_SLICE_CaptureInit().
1088:C:/Users/Yushev/git/optiga-trust-qi/projects/xmc4700_relax_kit/common/Libraries/XMCLib/inc\xmc_ccu8.h ****  */
1089:C:/Users/Yushev/git/optiga-trust-qi/projects/xmc4700_relax_kit/common/Libraries/XMCLib/inc\xmc_ccu8.h **** void XMC_CCU8_Init(XMC_CCU8_MODULE_t *const module, const XMC_CCU8_SLICE_MCMS_ACTION_t mcs_action);
1090:C:/Users/Yushev/git/optiga-trust-qi/projects/xmc4700_relax_kit/common/Libraries/XMCLib/inc\xmc_ccu8.h **** 
1091:C:/Users/Yushev/git/optiga-trust-qi/projects/xmc4700_relax_kit/common/Libraries/XMCLib/inc\xmc_ccu8.h **** /**
1092:C:/Users/Yushev/git/optiga-trust-qi/projects/xmc4700_relax_kit/common/Libraries/XMCLib/inc\xmc_ccu8.h ****  * @param module Constant pointer to CCU8 module
1093:C:/Users/Yushev/git/optiga-trust-qi/projects/xmc4700_relax_kit/common/Libraries/XMCLib/inc\xmc_ccu8.h ****  * @return <BR>
1094:C:/Users/Yushev/git/optiga-trust-qi/projects/xmc4700_relax_kit/common/Libraries/XMCLib/inc\xmc_ccu8.h ****  *    None<BR>
1095:C:/Users/Yushev/git/optiga-trust-qi/projects/xmc4700_relax_kit/common/Libraries/XMCLib/inc\xmc_ccu8.h ****  *
1096:C:/Users/Yushev/git/optiga-trust-qi/projects/xmc4700_relax_kit/common/Libraries/XMCLib/inc\xmc_ccu8.h ****  * \par<b>Description:</b><br>
1097:C:/Users/Yushev/git/optiga-trust-qi/projects/xmc4700_relax_kit/common/Libraries/XMCLib/inc\xmc_ccu8.h ****  * Enables the CCU8 module and brings it to active state.\n\n
1098:C:/Users/Yushev/git/optiga-trust-qi/projects/xmc4700_relax_kit/common/Libraries/XMCLib/inc\xmc_ccu8.h ****  * Also disables the gating of the clock signal (if applicable depending on the device being select
1099:C:/Users/Yushev/git/optiga-trust-qi/projects/xmc4700_relax_kit/common/Libraries/XMCLib/inc\xmc_ccu8.h ****  * Invoke this API before any operations are done on the CCU8 module. Invoked from  XMC_CCU8_Init()
1100:C:/Users/Yushev/git/optiga-trust-qi/projects/xmc4700_relax_kit/common/Libraries/XMCLib/inc\xmc_ccu8.h ****  *
1101:C:/Users/Yushev/git/optiga-trust-qi/projects/xmc4700_relax_kit/common/Libraries/XMCLib/inc\xmc_ccu8.h ****  * \par<b>Related APIs:</b><br>
1102:C:/Users/Yushev/git/optiga-trust-qi/projects/xmc4700_relax_kit/common/Libraries/XMCLib/inc\xmc_ccu8.h ****  * XMC_CCU8_SetModuleClock()<BR>  XMC_CCU8_DisableModule()<BR>  XMC_CCU8_StartPrescaler().
1103:C:/Users/Yushev/git/optiga-trust-qi/projects/xmc4700_relax_kit/common/Libraries/XMCLib/inc\xmc_ccu8.h ****  */
1104:C:/Users/Yushev/git/optiga-trust-qi/projects/xmc4700_relax_kit/common/Libraries/XMCLib/inc\xmc_ccu8.h **** void XMC_CCU8_EnableModule(XMC_CCU8_MODULE_t *const module);
1105:C:/Users/Yushev/git/optiga-trust-qi/projects/xmc4700_relax_kit/common/Libraries/XMCLib/inc\xmc_ccu8.h **** 
1106:C:/Users/Yushev/git/optiga-trust-qi/projects/xmc4700_relax_kit/common/Libraries/XMCLib/inc\xmc_ccu8.h **** /**
1107:C:/Users/Yushev/git/optiga-trust-qi/projects/xmc4700_relax_kit/common/Libraries/XMCLib/inc\xmc_ccu8.h ****  * @param module Constant pointer to CCU8 module
1108:C:/Users/Yushev/git/optiga-trust-qi/projects/xmc4700_relax_kit/common/Libraries/XMCLib/inc\xmc_ccu8.h ****  * @return <BR>
1109:C:/Users/Yushev/git/optiga-trust-qi/projects/xmc4700_relax_kit/common/Libraries/XMCLib/inc\xmc_ccu8.h ****  *    None<BR>
1110:C:/Users/Yushev/git/optiga-trust-qi/projects/xmc4700_relax_kit/common/Libraries/XMCLib/inc\xmc_ccu8.h ****  *
1111:C:/Users/Yushev/git/optiga-trust-qi/projects/xmc4700_relax_kit/common/Libraries/XMCLib/inc\xmc_ccu8.h ****  * \par<b>Description:</b><br>
1112:C:/Users/Yushev/git/optiga-trust-qi/projects/xmc4700_relax_kit/common/Libraries/XMCLib/inc\xmc_ccu8.h ****  * Brings the CCU8 module to reset state and enables gating of the clock signal(if applicable depen
1113:C:/Users/Yushev/git/optiga-trust-qi/projects/xmc4700_relax_kit/common/Libraries/XMCLib/inc\xmc_ccu8.h ****  * on the device being selected).\n\n
1114:C:/Users/Yushev/git/optiga-trust-qi/projects/xmc4700_relax_kit/common/Libraries/XMCLib/inc\xmc_ccu8.h ****  * Invoke this API when a CCU8 module needs to be disabled completely.
1115:C:/Users/Yushev/git/optiga-trust-qi/projects/xmc4700_relax_kit/common/Libraries/XMCLib/inc\xmc_ccu8.h ****  * Any operation on the CCU8 module will have no effect after this API is called.
1116:C:/Users/Yushev/git/optiga-trust-qi/projects/xmc4700_relax_kit/common/Libraries/XMCLib/inc\xmc_ccu8.h ****  *
1117:C:/Users/Yushev/git/optiga-trust-qi/projects/xmc4700_relax_kit/common/Libraries/XMCLib/inc\xmc_ccu8.h ****  * \par<b>Related APIs:</b><br>
1118:C:/Users/Yushev/git/optiga-trust-qi/projects/xmc4700_relax_kit/common/Libraries/XMCLib/inc\xmc_ccu8.h ****  * XMC_CCU8_EnableModule()<BR> XMC_CCU8_DisableModule().
1119:C:/Users/Yushev/git/optiga-trust-qi/projects/xmc4700_relax_kit/common/Libraries/XMCLib/inc\xmc_ccu8.h ****  */
1120:C:/Users/Yushev/git/optiga-trust-qi/projects/xmc4700_relax_kit/common/Libraries/XMCLib/inc\xmc_ccu8.h **** void XMC_CCU8_DisableModule(XMC_CCU8_MODULE_t *const module);
1121:C:/Users/Yushev/git/optiga-trust-qi/projects/xmc4700_relax_kit/common/Libraries/XMCLib/inc\xmc_ccu8.h **** 
1122:C:/Users/Yushev/git/optiga-trust-qi/projects/xmc4700_relax_kit/common/Libraries/XMCLib/inc\xmc_ccu8.h **** /**
1123:C:/Users/Yushev/git/optiga-trust-qi/projects/xmc4700_relax_kit/common/Libraries/XMCLib/inc\xmc_ccu8.h ****  * @param module Constant pointer to CCU8 module
1124:C:/Users/Yushev/git/optiga-trust-qi/projects/xmc4700_relax_kit/common/Libraries/XMCLib/inc\xmc_ccu8.h ****  * @param clock Choice of input clock to the module
1125:C:/Users/Yushev/git/optiga-trust-qi/projects/xmc4700_relax_kit/common/Libraries/XMCLib/inc\xmc_ccu8.h ****  * @return <BR>
1126:C:/Users/Yushev/git/optiga-trust-qi/projects/xmc4700_relax_kit/common/Libraries/XMCLib/inc\xmc_ccu8.h ****  *    None<BR>
1127:C:/Users/Yushev/git/optiga-trust-qi/projects/xmc4700_relax_kit/common/Libraries/XMCLib/inc\xmc_ccu8.h ****  *
1128:C:/Users/Yushev/git/optiga-trust-qi/projects/xmc4700_relax_kit/common/Libraries/XMCLib/inc\xmc_ccu8.h ****  * \par<b>Description:</b><br>
1129:C:/Users/Yushev/git/optiga-trust-qi/projects/xmc4700_relax_kit/common/Libraries/XMCLib/inc\xmc_ccu8.h ****  *  Selects the Module Clock by configuring GCTRL.PCIS bits.\n\n
1130:C:/Users/Yushev/git/optiga-trust-qi/projects/xmc4700_relax_kit/common/Libraries/XMCLib/inc\xmc_ccu8.h ****  *  There are 3 potential clock sources. This API helps to select the required clock source.
1131:C:/Users/Yushev/git/optiga-trust-qi/projects/xmc4700_relax_kit/common/Libraries/XMCLib/inc\xmc_ccu8.h ****  *  Call to this API is valid after the XMC_CCU8_Init().
1132:C:/Users/Yushev/git/optiga-trust-qi/projects/xmc4700_relax_kit/common/Libraries/XMCLib/inc\xmc_ccu8.h ****  *
1133:C:/Users/Yushev/git/optiga-trust-qi/projects/xmc4700_relax_kit/common/Libraries/XMCLib/inc\xmc_ccu8.h ****  * \par<b>Related APIs:</b><br>
1134:C:/Users/Yushev/git/optiga-trust-qi/projects/xmc4700_relax_kit/common/Libraries/XMCLib/inc\xmc_ccu8.h ****  * None.<BR>
1135:C:/Users/Yushev/git/optiga-trust-qi/projects/xmc4700_relax_kit/common/Libraries/XMCLib/inc\xmc_ccu8.h ****  */
1136:C:/Users/Yushev/git/optiga-trust-qi/projects/xmc4700_relax_kit/common/Libraries/XMCLib/inc\xmc_ccu8.h **** void XMC_CCU8_SetModuleClock(XMC_CCU8_MODULE_t *const module, const XMC_CCU8_CLOCK_t clock);
1137:C:/Users/Yushev/git/optiga-trust-qi/projects/xmc4700_relax_kit/common/Libraries/XMCLib/inc\xmc_ccu8.h **** 
1138:C:/Users/Yushev/git/optiga-trust-qi/projects/xmc4700_relax_kit/common/Libraries/XMCLib/inc\xmc_ccu8.h **** 
1139:C:/Users/Yushev/git/optiga-trust-qi/projects/xmc4700_relax_kit/common/Libraries/XMCLib/inc\xmc_ccu8.h **** /**
1140:C:/Users/Yushev/git/optiga-trust-qi/projects/xmc4700_relax_kit/common/Libraries/XMCLib/inc\xmc_ccu8.h ****  * @param module Constant pointer to CCU8 module
1141:C:/Users/Yushev/git/optiga-trust-qi/projects/xmc4700_relax_kit/common/Libraries/XMCLib/inc\xmc_ccu8.h ****  * @return <BR>
1142:C:/Users/Yushev/git/optiga-trust-qi/projects/xmc4700_relax_kit/common/Libraries/XMCLib/inc\xmc_ccu8.h ****  *    None<BR>
1143:C:/Users/Yushev/git/optiga-trust-qi/projects/xmc4700_relax_kit/common/Libraries/XMCLib/inc\xmc_ccu8.h ****  *
1144:C:/Users/Yushev/git/optiga-trust-qi/projects/xmc4700_relax_kit/common/Libraries/XMCLib/inc\xmc_ccu8.h ****  * \par<b>Description:</b><br>
1145:C:/Users/Yushev/git/optiga-trust-qi/projects/xmc4700_relax_kit/common/Libraries/XMCLib/inc\xmc_ccu8.h ****  *  Starts the prescaler and restores clocks to the timer slices, by setting GIDLC.SPRB bit.<br>\n
1146:C:/Users/Yushev/git/optiga-trust-qi/projects/xmc4700_relax_kit/common/Libraries/XMCLib/inc\xmc_ccu8.h ****  *  Once the input to the prescaler has been chosen and the prescaler divider of all slices program
1147:C:/Users/Yushev/git/optiga-trust-qi/projects/xmc4700_relax_kit/common/Libraries/XMCLib/inc\xmc_ccu8.h ****  *  the prescaler itself may be started. Invoke this  API after XMC_CCU8_Init()
1148:C:/Users/Yushev/git/optiga-trust-qi/projects/xmc4700_relax_kit/common/Libraries/XMCLib/inc\xmc_ccu8.h ****  *  (Mandatory to fully initialize the module).
1149:C:/Users/Yushev/git/optiga-trust-qi/projects/xmc4700_relax_kit/common/Libraries/XMCLib/inc\xmc_ccu8.h ****  *
1150:C:/Users/Yushev/git/optiga-trust-qi/projects/xmc4700_relax_kit/common/Libraries/XMCLib/inc\xmc_ccu8.h ****  * \par<b>Related APIs:</b><br>
1151:C:/Users/Yushev/git/optiga-trust-qi/projects/xmc4700_relax_kit/common/Libraries/XMCLib/inc\xmc_ccu8.h ****  * XMC_CCU8_Init()<BR>  XMC_CCU8_EnableClock()<BR>  XMC_CCU8_DisableClock()<BR>  XMC_CCU8_StartPres
1152:C:/Users/Yushev/git/optiga-trust-qi/projects/xmc4700_relax_kit/common/Libraries/XMCLib/inc\xmc_ccu8.h ****  *  XMC_CCU8_StopPrescaler().
1153:C:/Users/Yushev/git/optiga-trust-qi/projects/xmc4700_relax_kit/common/Libraries/XMCLib/inc\xmc_ccu8.h ****  */
1154:C:/Users/Yushev/git/optiga-trust-qi/projects/xmc4700_relax_kit/common/Libraries/XMCLib/inc\xmc_ccu8.h **** __STATIC_INLINE void XMC_CCU8_StartPrescaler(XMC_CCU8_MODULE_t *const module)
1155:C:/Users/Yushev/git/optiga-trust-qi/projects/xmc4700_relax_kit/common/Libraries/XMCLib/inc\xmc_ccu8.h **** {
1156:C:/Users/Yushev/git/optiga-trust-qi/projects/xmc4700_relax_kit/common/Libraries/XMCLib/inc\xmc_ccu8.h ****   XMC_ASSERT("XMC_CCU8_StartPrescaler:Invalid Module Pointer", XMC_CCU8_IsValidModule(module));
1157:C:/Users/Yushev/git/optiga-trust-qi/projects/xmc4700_relax_kit/common/Libraries/XMCLib/inc\xmc_ccu8.h ****   module->GIDLC |= (uint32_t) CCU8_GIDLC_SPRB_Msk;
 230              	 .loc 2 1157 0
 231 000a E368     	 ldr r3,[r4,#12]
 232 000c 43F48073 	 orr r3,r3,#256
 233 0010 E360     	 str r3,[r4,#12]
 234              	.LBE39:
 235              	.LBE38:
 314:C:/Users/Yushev/git/optiga-trust-qi/projects/xmc4700_relax_kit/common/Libraries/XMCLib/src\xmc_ccu8.c ****   /* Start the prescaler */
 315:C:/Users/Yushev/git/optiga-trust-qi/projects/xmc4700_relax_kit/common/Libraries/XMCLib/src\xmc_ccu8.c ****   XMC_CCU8_StartPrescaler(module);
 316:C:/Users/Yushev/git/optiga-trust-qi/projects/xmc4700_relax_kit/common/Libraries/XMCLib/src\xmc_ccu8.c ****   
 317:C:/Users/Yushev/git/optiga-trust-qi/projects/xmc4700_relax_kit/common/Libraries/XMCLib/src\xmc_ccu8.c ****   gctrl = module->GCTRL;
 236              	 .loc 1 317 0
 237 0012 2368     	 ldr r3,[r4]
 238              	.LVL20:
 318:C:/Users/Yushev/git/optiga-trust-qi/projects/xmc4700_relax_kit/common/Libraries/XMCLib/src\xmc_ccu8.c ****   gctrl &= ~((uint32_t) CCU8_GCTRL_MSDE_Msk);
 239              	 .loc 1 318 0
 240 0014 23F44043 	 bic r3,r3,#49152
 241              	.LVL21:
 319:C:/Users/Yushev/git/optiga-trust-qi/projects/xmc4700_relax_kit/common/Libraries/XMCLib/src\xmc_ccu8.c ****   gctrl |= (uint32_t)mcs_action << CCU8_GCTRL_MSDE_Pos;
 242              	 .loc 1 319 0
 243 0018 43EA8531 	 orr r1,r3,r5,lsl#14
 244              	.LVL22:
 320:C:/Users/Yushev/git/optiga-trust-qi/projects/xmc4700_relax_kit/common/Libraries/XMCLib/src\xmc_ccu8.c ****   
 321:C:/Users/Yushev/git/optiga-trust-qi/projects/xmc4700_relax_kit/common/Libraries/XMCLib/src\xmc_ccu8.c ****   module->GCTRL = gctrl;
 245              	 .loc 1 321 0
 246 001c 2160     	 str r1,[r4]
 247 001e 38BD     	 pop {r3,r4,r5,pc}
 248              	 .cfi_endproc
 249              	.LFE231:
 251              	 .section .text.XMC_CCU8_SetModuleClock,"ax",%progbits
 252              	 .align 1
 253              	 .global XMC_CCU8_SetModuleClock
 254              	 .thumb
 255              	 .thumb_func
 257              	XMC_CCU8_SetModuleClock:
 258              	.LFB232:
 322:C:/Users/Yushev/git/optiga-trust-qi/projects/xmc4700_relax_kit/common/Libraries/XMCLib/src\xmc_ccu8.c **** }
 323:C:/Users/Yushev/git/optiga-trust-qi/projects/xmc4700_relax_kit/common/Libraries/XMCLib/src\xmc_ccu8.c **** 
 324:C:/Users/Yushev/git/optiga-trust-qi/projects/xmc4700_relax_kit/common/Libraries/XMCLib/src\xmc_ccu8.c **** /* API to select CCU8 module clock */
 325:C:/Users/Yushev/git/optiga-trust-qi/projects/xmc4700_relax_kit/common/Libraries/XMCLib/src\xmc_ccu8.c **** void XMC_CCU8_SetModuleClock(XMC_CCU8_MODULE_t *const module, const XMC_CCU8_CLOCK_t clock)
 326:C:/Users/Yushev/git/optiga-trust-qi/projects/xmc4700_relax_kit/common/Libraries/XMCLib/src\xmc_ccu8.c **** {
 259              	 .loc 1 326 0
 260              	 .cfi_startproc
 261              	 
 262              	 
 263              	 
 264              	.LVL23:
 327:C:/Users/Yushev/git/optiga-trust-qi/projects/xmc4700_relax_kit/common/Libraries/XMCLib/src\xmc_ccu8.c ****   uint32_t gctrl;
 328:C:/Users/Yushev/git/optiga-trust-qi/projects/xmc4700_relax_kit/common/Libraries/XMCLib/src\xmc_ccu8.c **** 
 329:C:/Users/Yushev/git/optiga-trust-qi/projects/xmc4700_relax_kit/common/Libraries/XMCLib/src\xmc_ccu8.c ****   XMC_ASSERT("XMC_CCU8_SetModuleClock:Invalid Module Pointer", XMC_CCU8_IsValidModule(module));
 330:C:/Users/Yushev/git/optiga-trust-qi/projects/xmc4700_relax_kit/common/Libraries/XMCLib/src\xmc_ccu8.c ****   XMC_ASSERT("XMC_CCU8_SetModuleClock:Invalid Module Clock", XMC_CCU8_SLICE_CHECK_CLOCK(clock));
 331:C:/Users/Yushev/git/optiga-trust-qi/projects/xmc4700_relax_kit/common/Libraries/XMCLib/src\xmc_ccu8.c **** 
 332:C:/Users/Yushev/git/optiga-trust-qi/projects/xmc4700_relax_kit/common/Libraries/XMCLib/src\xmc_ccu8.c ****   gctrl = module->GCTRL;
 265              	 .loc 1 332 0
 266 0000 0368     	 ldr r3,[r0]
 267              	.LVL24:
 333:C:/Users/Yushev/git/optiga-trust-qi/projects/xmc4700_relax_kit/common/Libraries/XMCLib/src\xmc_ccu8.c ****   gctrl &= ~((uint32_t) CCU8_GCTRL_PCIS_Msk);
 268              	 .loc 1 333 0
 269 0002 23F03003 	 bic r3,r3,#48
 270              	.LVL25:
 334:C:/Users/Yushev/git/optiga-trust-qi/projects/xmc4700_relax_kit/common/Libraries/XMCLib/src\xmc_ccu8.c ****   gctrl |= ((uint32_t) clock) << CCU8_GCTRL_PCIS_Pos;
 271              	 .loc 1 334 0
 272 0006 43EA0111 	 orr r1,r3,r1,lsl#4
 273              	.LVL26:
 335:C:/Users/Yushev/git/optiga-trust-qi/projects/xmc4700_relax_kit/common/Libraries/XMCLib/src\xmc_ccu8.c **** 
 336:C:/Users/Yushev/git/optiga-trust-qi/projects/xmc4700_relax_kit/common/Libraries/XMCLib/src\xmc_ccu8.c ****   module->GCTRL = gctrl;
 274              	 .loc 1 336 0
 275 000a 0160     	 str r1,[r0]
 276 000c 7047     	 bx lr
 277              	 .cfi_endproc
 278              	.LFE232:
 280              	 .section .text.XMC_CCU8_SLICE_CompareInit,"ax",%progbits
 281              	 .align 1
 282              	 .global XMC_CCU8_SLICE_CompareInit
 283              	 .thumb
 284              	 .thumb_func
 286              	XMC_CCU8_SLICE_CompareInit:
 287              	.LFB233:
 337:C:/Users/Yushev/git/optiga-trust-qi/projects/xmc4700_relax_kit/common/Libraries/XMCLib/src\xmc_ccu8.c **** }
 338:C:/Users/Yushev/git/optiga-trust-qi/projects/xmc4700_relax_kit/common/Libraries/XMCLib/src\xmc_ccu8.c **** 
 339:C:/Users/Yushev/git/optiga-trust-qi/projects/xmc4700_relax_kit/common/Libraries/XMCLib/src\xmc_ccu8.c **** /* API to configure CC8 Slice in Compare mode */
 340:C:/Users/Yushev/git/optiga-trust-qi/projects/xmc4700_relax_kit/common/Libraries/XMCLib/src\xmc_ccu8.c **** void XMC_CCU8_SLICE_CompareInit(XMC_CCU8_SLICE_t *const slice,
 341:C:/Users/Yushev/git/optiga-trust-qi/projects/xmc4700_relax_kit/common/Libraries/XMCLib/src\xmc_ccu8.c ****                                 const XMC_CCU8_SLICE_COMPARE_CONFIG_t *const compare_init)
 342:C:/Users/Yushev/git/optiga-trust-qi/projects/xmc4700_relax_kit/common/Libraries/XMCLib/src\xmc_ccu8.c **** {
 288              	 .loc 1 342 0
 289              	 .cfi_startproc
 290              	 
 291              	 
 292              	 
 293              	.LVL27:
 294              	.LBB40:
 295              	.LBB41:
1158:C:/Users/Yushev/git/optiga-trust-qi/projects/xmc4700_relax_kit/common/Libraries/XMCLib/inc\xmc_ccu8.h **** }
1159:C:/Users/Yushev/git/optiga-trust-qi/projects/xmc4700_relax_kit/common/Libraries/XMCLib/inc\xmc_ccu8.h **** 
1160:C:/Users/Yushev/git/optiga-trust-qi/projects/xmc4700_relax_kit/common/Libraries/XMCLib/inc\xmc_ccu8.h **** /**
1161:C:/Users/Yushev/git/optiga-trust-qi/projects/xmc4700_relax_kit/common/Libraries/XMCLib/inc\xmc_ccu8.h ****  * @param module Constant pointer to CCU8 module
