   1              	 .syntax unified
   2              	 .cpu cortex-m4
   3              	 .eabi_attribute 27,3
   4              	 .fpu fpv4-sp-d16
   5              	 .eabi_attribute 20,1
   6              	 .eabi_attribute 21,1
   7              	 .eabi_attribute 23,3
   8              	 .eabi_attribute 24,1
   9              	 .eabi_attribute 25,1
  10              	 .eabi_attribute 26,1
  11              	 .eabi_attribute 30,4
  12              	 .eabi_attribute 34,1
  13              	 .eabi_attribute 18,4
  14              	 .thumb
  15              	 .file "xmc_usbd.c"
  16              	 .text
  17              	.Ltext0:
  18              	 .cfi_sections .debug_frame
  19              	 .section .text.XMC_USBD_lReadFifo,"ax",%progbits
  20              	 .align 1
  21              	 .thumb
  22              	 .thumb_func
  24              	XMC_USBD_lReadFifo:
  25              	.LFB170:
  26              	 .file 1 "C:/Users/Yushev/git/optiga-trust-qi/projects/xmc4700_relax_kit/common/Libraries/XMCLib/src/xmc_usbd.c"
   1:C:/Users/Yushev/git/optiga-trust-qi/projects/xmc4700_relax_kit/common/Libraries/XMCLib/src\xmc_usbd.c **** /**
   2:C:/Users/Yushev/git/optiga-trust-qi/projects/xmc4700_relax_kit/common/Libraries/XMCLib/src\xmc_usbd.c ****  * @file xmc_usbd.c
   3:C:/Users/Yushev/git/optiga-trust-qi/projects/xmc4700_relax_kit/common/Libraries/XMCLib/src\xmc_usbd.c ****  * @date 2015-06-20
   4:C:/Users/Yushev/git/optiga-trust-qi/projects/xmc4700_relax_kit/common/Libraries/XMCLib/src\xmc_usbd.c ****  *
   5:C:/Users/Yushev/git/optiga-trust-qi/projects/xmc4700_relax_kit/common/Libraries/XMCLib/src\xmc_usbd.c ****  * @cond
   6:C:/Users/Yushev/git/optiga-trust-qi/projects/xmc4700_relax_kit/common/Libraries/XMCLib/src\xmc_usbd.c ****  **********************************************************************************
   7:C:/Users/Yushev/git/optiga-trust-qi/projects/xmc4700_relax_kit/common/Libraries/XMCLib/src\xmc_usbd.c ****  * XMClib v2.1.20 - XMC Peripheral Driver Library 
   8:C:/Users/Yushev/git/optiga-trust-qi/projects/xmc4700_relax_kit/common/Libraries/XMCLib/src\xmc_usbd.c ****  *
   9:C:/Users/Yushev/git/optiga-trust-qi/projects/xmc4700_relax_kit/common/Libraries/XMCLib/src\xmc_usbd.c ****  * Copyright (c) 2015-2018, Infineon Technologies AG
  10:C:/Users/Yushev/git/optiga-trust-qi/projects/xmc4700_relax_kit/common/Libraries/XMCLib/src\xmc_usbd.c ****  * All rights reserved.                        
  11:C:/Users/Yushev/git/optiga-trust-qi/projects/xmc4700_relax_kit/common/Libraries/XMCLib/src\xmc_usbd.c ****  *                                             
  12:C:/Users/Yushev/git/optiga-trust-qi/projects/xmc4700_relax_kit/common/Libraries/XMCLib/src\xmc_usbd.c ****  * Redistribution and use in source and binary forms, with or without           
  13:C:/Users/Yushev/git/optiga-trust-qi/projects/xmc4700_relax_kit/common/Libraries/XMCLib/src\xmc_usbd.c ****  * modification,are permitted provided that the following conditions are met:   
  14:C:/Users/Yushev/git/optiga-trust-qi/projects/xmc4700_relax_kit/common/Libraries/XMCLib/src\xmc_usbd.c ****  *                                                                              
  15:C:/Users/Yushev/git/optiga-trust-qi/projects/xmc4700_relax_kit/common/Libraries/XMCLib/src\xmc_usbd.c ****  *   Redistributions of source code must retain the above copyright notice,      
  16:C:/Users/Yushev/git/optiga-trust-qi/projects/xmc4700_relax_kit/common/Libraries/XMCLib/src\xmc_usbd.c ****  *   this list of conditions and the following disclaimer.                        
  17:C:/Users/Yushev/git/optiga-trust-qi/projects/xmc4700_relax_kit/common/Libraries/XMCLib/src\xmc_usbd.c ****  * 
  18:C:/Users/Yushev/git/optiga-trust-qi/projects/xmc4700_relax_kit/common/Libraries/XMCLib/src\xmc_usbd.c ****  *   Redistributions in binary form must reproduce the above copyright notice,   
  19:C:/Users/Yushev/git/optiga-trust-qi/projects/xmc4700_relax_kit/common/Libraries/XMCLib/src\xmc_usbd.c ****  *   this list of conditions and the following disclaimer in the documentation    
  20:C:/Users/Yushev/git/optiga-trust-qi/projects/xmc4700_relax_kit/common/Libraries/XMCLib/src\xmc_usbd.c ****  *   and/or other materials provided with the distribution.                       
  21:C:/Users/Yushev/git/optiga-trust-qi/projects/xmc4700_relax_kit/common/Libraries/XMCLib/src\xmc_usbd.c ****  * 
  22:C:/Users/Yushev/git/optiga-trust-qi/projects/xmc4700_relax_kit/common/Libraries/XMCLib/src\xmc_usbd.c ****  *   Neither the name of the copyright holders nor the names of its contributors 
  23:C:/Users/Yushev/git/optiga-trust-qi/projects/xmc4700_relax_kit/common/Libraries/XMCLib/src\xmc_usbd.c ****  *   may be used to endorse or promote products derived from this software without
  24:C:/Users/Yushev/git/optiga-trust-qi/projects/xmc4700_relax_kit/common/Libraries/XMCLib/src\xmc_usbd.c ****  *   specific prior written permission.                                           
  25:C:/Users/Yushev/git/optiga-trust-qi/projects/xmc4700_relax_kit/common/Libraries/XMCLib/src\xmc_usbd.c ****  *                                                                              
  26:C:/Users/Yushev/git/optiga-trust-qi/projects/xmc4700_relax_kit/common/Libraries/XMCLib/src\xmc_usbd.c ****  * THIS SOFTWARE IS PROVIDED BY THE COPYRIGHT HOLDERS AND CONTRIBUTORS "AS IS"  
  27:C:/Users/Yushev/git/optiga-trust-qi/projects/xmc4700_relax_kit/common/Libraries/XMCLib/src\xmc_usbd.c ****  * AND ANY EXPRESS OR IMPLIED WARRANTIES, INCLUDING, BUT NOT LIMITED TO, THE    
  28:C:/Users/Yushev/git/optiga-trust-qi/projects/xmc4700_relax_kit/common/Libraries/XMCLib/src\xmc_usbd.c ****  * IMPLIED WARRANTIES OF MERCHANTABILITY AND FITNESS FOR A PARTICULAR PURPOSE   
  29:C:/Users/Yushev/git/optiga-trust-qi/projects/xmc4700_relax_kit/common/Libraries/XMCLib/src\xmc_usbd.c ****  * ARE  DISCLAIMED. IN NO EVENT SHALL THE COPYRIGHT HOLDER OR CONTRIBUTORS BE   
  30:C:/Users/Yushev/git/optiga-trust-qi/projects/xmc4700_relax_kit/common/Libraries/XMCLib/src\xmc_usbd.c ****  * LIABLE  FOR ANY DIRECT, INDIRECT, INCIDENTAL, SPECIAL, EXEMPLARY, OR         
  31:C:/Users/Yushev/git/optiga-trust-qi/projects/xmc4700_relax_kit/common/Libraries/XMCLib/src\xmc_usbd.c ****  * CONSEQUENTIAL DAMAGES (INCLUDING, BUT NOT LIMITED TO, PROCUREMENT OF         
  32:C:/Users/Yushev/git/optiga-trust-qi/projects/xmc4700_relax_kit/common/Libraries/XMCLib/src\xmc_usbd.c ****  * SUBSTITUTE GOODS OR  SERVICES; LOSS OF USE, DATA, OR PROFITS; OR BUSINESS    
  33:C:/Users/Yushev/git/optiga-trust-qi/projects/xmc4700_relax_kit/common/Libraries/XMCLib/src\xmc_usbd.c ****  * INTERRUPTION) HOWEVER CAUSED AND ON ANY THEORY OF LIABILITY, WHETHER IN      
  34:C:/Users/Yushev/git/optiga-trust-qi/projects/xmc4700_relax_kit/common/Libraries/XMCLib/src\xmc_usbd.c ****  * CONTRACT, STRICT LIABILITY,OR TORT (INCLUDING NEGLIGENCE OR OTHERWISE)       
  35:C:/Users/Yushev/git/optiga-trust-qi/projects/xmc4700_relax_kit/common/Libraries/XMCLib/src\xmc_usbd.c ****  * ARISING IN ANY WAY OUT OF THE USE OF THIS SOFTWARE, EVEN IF ADVISED OF THE   
  36:C:/Users/Yushev/git/optiga-trust-qi/projects/xmc4700_relax_kit/common/Libraries/XMCLib/src\xmc_usbd.c ****  * POSSIBILITY OF SUCH DAMAGE.                                                  
  37:C:/Users/Yushev/git/optiga-trust-qi/projects/xmc4700_relax_kit/common/Libraries/XMCLib/src\xmc_usbd.c ****  *                                                                              
  38:C:/Users/Yushev/git/optiga-trust-qi/projects/xmc4700_relax_kit/common/Libraries/XMCLib/src\xmc_usbd.c ****  * To improve the quality of the software, users are encouraged to share        
  39:C:/Users/Yushev/git/optiga-trust-qi/projects/xmc4700_relax_kit/common/Libraries/XMCLib/src\xmc_usbd.c ****  * modifications, enhancements or bug fixes with Infineon Technologies AG       
  40:C:/Users/Yushev/git/optiga-trust-qi/projects/xmc4700_relax_kit/common/Libraries/XMCLib/src\xmc_usbd.c ****  * dave@infineon.com).                                                          
  41:C:/Users/Yushev/git/optiga-trust-qi/projects/xmc4700_relax_kit/common/Libraries/XMCLib/src\xmc_usbd.c ****  **********************************************************************************
  42:C:/Users/Yushev/git/optiga-trust-qi/projects/xmc4700_relax_kit/common/Libraries/XMCLib/src\xmc_usbd.c ****  *
  43:C:/Users/Yushev/git/optiga-trust-qi/projects/xmc4700_relax_kit/common/Libraries/XMCLib/src\xmc_usbd.c ****  * Change History
  44:C:/Users/Yushev/git/optiga-trust-qi/projects/xmc4700_relax_kit/common/Libraries/XMCLib/src\xmc_usbd.c ****  * --------------
  45:C:/Users/Yushev/git/optiga-trust-qi/projects/xmc4700_relax_kit/common/Libraries/XMCLib/src\xmc_usbd.c ****  *
  46:C:/Users/Yushev/git/optiga-trust-qi/projects/xmc4700_relax_kit/common/Libraries/XMCLib/src\xmc_usbd.c ****  * 2015-02-16:
  47:C:/Users/Yushev/git/optiga-trust-qi/projects/xmc4700_relax_kit/common/Libraries/XMCLib/src\xmc_usbd.c ****  *     - Initial Version.<br>           
  48:C:/Users/Yushev/git/optiga-trust-qi/projects/xmc4700_relax_kit/common/Libraries/XMCLib/src\xmc_usbd.c ****  * 2015-03-18:
  49:C:/Users/Yushev/git/optiga-trust-qi/projects/xmc4700_relax_kit/common/Libraries/XMCLib/src\xmc_usbd.c ****  *     - Updated the XMC_USBD_EndpointStall() to fix issue on USB clear stall. <br>
  50:C:/Users/Yushev/git/optiga-trust-qi/projects/xmc4700_relax_kit/common/Libraries/XMCLib/src\xmc_usbd.c ****  *     - Updated the XMC_USBD_EndpointConfigure() to fix issue in EP0 configuration.<br>
  51:C:/Users/Yushev/git/optiga-trust-qi/projects/xmc4700_relax_kit/common/Libraries/XMCLib/src\xmc_usbd.c ****  *     - Updated the XMC_USBD_IRQHandler()(Removed the DAVE_CE check on SOF event).<br>
  52:C:/Users/Yushev/git/optiga-trust-qi/projects/xmc4700_relax_kit/common/Libraries/XMCLib/src\xmc_usbd.c ****  * 2015-06-20:
  53:C:/Users/Yushev/git/optiga-trust-qi/projects/xmc4700_relax_kit/common/Libraries/XMCLib/src\xmc_usbd.c ****  *     - Removed GetDriverVersion API.<br>
  54:C:/Users/Yushev/git/optiga-trust-qi/projects/xmc4700_relax_kit/common/Libraries/XMCLib/src\xmc_usbd.c ****  *     - Updated the XMC_USBD_IsEnumDone() API.<br>
  55:C:/Users/Yushev/git/optiga-trust-qi/projects/xmc4700_relax_kit/common/Libraries/XMCLib/src\xmc_usbd.c ****  *     - Updated the copy right in the file header.<br>
  56:C:/Users/Yushev/git/optiga-trust-qi/projects/xmc4700_relax_kit/common/Libraries/XMCLib/src\xmc_usbd.c ****  *     - Updated the XMC_USBD_Disable() API to gate the clock after programming the SCU registers.<
  57:C:/Users/Yushev/git/optiga-trust-qi/projects/xmc4700_relax_kit/common/Libraries/XMCLib/src\xmc_usbd.c ****  *
  58:C:/Users/Yushev/git/optiga-trust-qi/projects/xmc4700_relax_kit/common/Libraries/XMCLib/src\xmc_usbd.c ****  * @endcond 
  59:C:/Users/Yushev/git/optiga-trust-qi/projects/xmc4700_relax_kit/common/Libraries/XMCLib/src\xmc_usbd.c ****  *
  60:C:/Users/Yushev/git/optiga-trust-qi/projects/xmc4700_relax_kit/common/Libraries/XMCLib/src\xmc_usbd.c ****  */
  61:C:/Users/Yushev/git/optiga-trust-qi/projects/xmc4700_relax_kit/common/Libraries/XMCLib/src\xmc_usbd.c **** 
  62:C:/Users/Yushev/git/optiga-trust-qi/projects/xmc4700_relax_kit/common/Libraries/XMCLib/src\xmc_usbd.c **** 
  63:C:/Users/Yushev/git/optiga-trust-qi/projects/xmc4700_relax_kit/common/Libraries/XMCLib/src\xmc_usbd.c **** /*******************************************************************************
  64:C:/Users/Yushev/git/optiga-trust-qi/projects/xmc4700_relax_kit/common/Libraries/XMCLib/src\xmc_usbd.c ****  * HEADER FILES
  65:C:/Users/Yushev/git/optiga-trust-qi/projects/xmc4700_relax_kit/common/Libraries/XMCLib/src\xmc_usbd.c ****  *******************************************************************************/
  66:C:/Users/Yushev/git/optiga-trust-qi/projects/xmc4700_relax_kit/common/Libraries/XMCLib/src\xmc_usbd.c **** #include <xmc_usbd.h>
  67:C:/Users/Yushev/git/optiga-trust-qi/projects/xmc4700_relax_kit/common/Libraries/XMCLib/src\xmc_usbd.c **** 
  68:C:/Users/Yushev/git/optiga-trust-qi/projects/xmc4700_relax_kit/common/Libraries/XMCLib/src\xmc_usbd.c **** #if defined(USB0)
  69:C:/Users/Yushev/git/optiga-trust-qi/projects/xmc4700_relax_kit/common/Libraries/XMCLib/src\xmc_usbd.c **** 	
  70:C:/Users/Yushev/git/optiga-trust-qi/projects/xmc4700_relax_kit/common/Libraries/XMCLib/src\xmc_usbd.c **** /**< macro to check the maximum number of endpoints used*/
  71:C:/Users/Yushev/git/optiga-trust-qi/projects/xmc4700_relax_kit/common/Libraries/XMCLib/src\xmc_usbd.c **** #define XMC_USBD_CHECK_INPUT_MAX_NUM_EPS(usbd_max_num_eps) \
  72:C:/Users/Yushev/git/optiga-trust-qi/projects/xmc4700_relax_kit/common/Libraries/XMCLib/src\xmc_usbd.c ****   ((usbd_max_num_eps ==  XMC_USBD_MAX_NUM_EPS_1 ) || \
  73:C:/Users/Yushev/git/optiga-trust-qi/projects/xmc4700_relax_kit/common/Libraries/XMCLib/src\xmc_usbd.c ****    (usbd_max_num_eps ==  XMC_USBD_MAX_NUM_EPS_2 ) || \
  74:C:/Users/Yushev/git/optiga-trust-qi/projects/xmc4700_relax_kit/common/Libraries/XMCLib/src\xmc_usbd.c ****    (usbd_max_num_eps ==  XMC_USBD_MAX_NUM_EPS_3 ) || \
  75:C:/Users/Yushev/git/optiga-trust-qi/projects/xmc4700_relax_kit/common/Libraries/XMCLib/src\xmc_usbd.c ****    (usbd_max_num_eps ==  XMC_USBD_MAX_NUM_EPS_4 ) || \
  76:C:/Users/Yushev/git/optiga-trust-qi/projects/xmc4700_relax_kit/common/Libraries/XMCLib/src\xmc_usbd.c ****    (usbd_max_num_eps ==  XMC_USBD_MAX_NUM_EPS_5 ) || \
  77:C:/Users/Yushev/git/optiga-trust-qi/projects/xmc4700_relax_kit/common/Libraries/XMCLib/src\xmc_usbd.c ****    (usbd_max_num_eps ==  XMC_USBD_MAX_NUM_EPS_6 ) || \
  78:C:/Users/Yushev/git/optiga-trust-qi/projects/xmc4700_relax_kit/common/Libraries/XMCLib/src\xmc_usbd.c ****    (usbd_max_num_eps == XMC_USBD_MAX_NUM_EPS_7 ))
  79:C:/Users/Yushev/git/optiga-trust-qi/projects/xmc4700_relax_kit/common/Libraries/XMCLib/src\xmc_usbd.c **** 
  80:C:/Users/Yushev/git/optiga-trust-qi/projects/xmc4700_relax_kit/common/Libraries/XMCLib/src\xmc_usbd.c **** /*******************************************************************************
  81:C:/Users/Yushev/git/optiga-trust-qi/projects/xmc4700_relax_kit/common/Libraries/XMCLib/src\xmc_usbd.c ****  *GLOBAL DATA
  82:C:/Users/Yushev/git/optiga-trust-qi/projects/xmc4700_relax_kit/common/Libraries/XMCLib/src\xmc_usbd.c ****  *******************************************************************************/
  83:C:/Users/Yushev/git/optiga-trust-qi/projects/xmc4700_relax_kit/common/Libraries/XMCLib/src\xmc_usbd.c **** /*
  84:C:/Users/Yushev/git/optiga-trust-qi/projects/xmc4700_relax_kit/common/Libraries/XMCLib/src\xmc_usbd.c ****  * Endpoint Out Fifo Size
  85:C:/Users/Yushev/git/optiga-trust-qi/projects/xmc4700_relax_kit/common/Libraries/XMCLib/src\xmc_usbd.c ****  */
  86:C:/Users/Yushev/git/optiga-trust-qi/projects/xmc4700_relax_kit/common/Libraries/XMCLib/src\xmc_usbd.c **** uint32_t XMC_USBD_EP_OUT_BUFFERSIZE[7] = {0U,0U,0U,0U,0U,0U,0U};
  87:C:/Users/Yushev/git/optiga-trust-qi/projects/xmc4700_relax_kit/common/Libraries/XMCLib/src\xmc_usbd.c **** /*
  88:C:/Users/Yushev/git/optiga-trust-qi/projects/xmc4700_relax_kit/common/Libraries/XMCLib/src\xmc_usbd.c ****  * Endpoint In Fifo Size
  89:C:/Users/Yushev/git/optiga-trust-qi/projects/xmc4700_relax_kit/common/Libraries/XMCLib/src\xmc_usbd.c ****  */
  90:C:/Users/Yushev/git/optiga-trust-qi/projects/xmc4700_relax_kit/common/Libraries/XMCLib/src\xmc_usbd.c **** uint32_t XMC_USBD_EP_IN_BUFFERSIZE[7] = {0U,0U,0U,0U,0U,0U,0U};
  91:C:/Users/Yushev/git/optiga-trust-qi/projects/xmc4700_relax_kit/common/Libraries/XMCLib/src\xmc_usbd.c **** /*
  92:C:/Users/Yushev/git/optiga-trust-qi/projects/xmc4700_relax_kit/common/Libraries/XMCLib/src\xmc_usbd.c ****  * Device definition
  93:C:/Users/Yushev/git/optiga-trust-qi/projects/xmc4700_relax_kit/common/Libraries/XMCLib/src\xmc_usbd.c ****  */
  94:C:/Users/Yushev/git/optiga-trust-qi/projects/xmc4700_relax_kit/common/Libraries/XMCLib/src\xmc_usbd.c ****  XMC_USBD_DEVICE_t xmc_device;
  95:C:/Users/Yushev/git/optiga-trust-qi/projects/xmc4700_relax_kit/common/Libraries/XMCLib/src\xmc_usbd.c **** #ifdef __GNUC__															  /*GCC*/
  96:C:/Users/Yushev/git/optiga-trust-qi/projects/xmc4700_relax_kit/common/Libraries/XMCLib/src\xmc_usbd.c **** /*
  97:C:/Users/Yushev/git/optiga-trust-qi/projects/xmc4700_relax_kit/common/Libraries/XMCLib/src\xmc_usbd.c ****  * Endpoint Out Fifo
  98:C:/Users/Yushev/git/optiga-trust-qi/projects/xmc4700_relax_kit/common/Libraries/XMCLib/src\xmc_usbd.c ****  */
  99:C:/Users/Yushev/git/optiga-trust-qi/projects/xmc4700_relax_kit/common/Libraries/XMCLib/src\xmc_usbd.c **** static __attribute__((aligned(4))) uint8_t XMC_USBD_EP_OUT_BUFFER[7][256] __attribute__((section("U
 100:C:/Users/Yushev/git/optiga-trust-qi/projects/xmc4700_relax_kit/common/Libraries/XMCLib/src\xmc_usbd.c **** /*
 101:C:/Users/Yushev/git/optiga-trust-qi/projects/xmc4700_relax_kit/common/Libraries/XMCLib/src\xmc_usbd.c ****  * Endpoint In Fifo
 102:C:/Users/Yushev/git/optiga-trust-qi/projects/xmc4700_relax_kit/common/Libraries/XMCLib/src\xmc_usbd.c ****  */
 103:C:/Users/Yushev/git/optiga-trust-qi/projects/xmc4700_relax_kit/common/Libraries/XMCLib/src\xmc_usbd.c **** static __attribute__((aligned(4))) uint8_t XMC_USBD_EP_IN_BUFFER[7][256] __attribute__((section("US
 104:C:/Users/Yushev/git/optiga-trust-qi/projects/xmc4700_relax_kit/common/Libraries/XMCLib/src\xmc_usbd.c **** #endif
 105:C:/Users/Yushev/git/optiga-trust-qi/projects/xmc4700_relax_kit/common/Libraries/XMCLib/src\xmc_usbd.c **** #if defined(__ICCARM__)
 106:C:/Users/Yushev/git/optiga-trust-qi/projects/xmc4700_relax_kit/common/Libraries/XMCLib/src\xmc_usbd.c **** #pragma data_alignment=4
 107:C:/Users/Yushev/git/optiga-trust-qi/projects/xmc4700_relax_kit/common/Libraries/XMCLib/src\xmc_usbd.c **** /*
 108:C:/Users/Yushev/git/optiga-trust-qi/projects/xmc4700_relax_kit/common/Libraries/XMCLib/src\xmc_usbd.c ****  * Endpoint Out Fifo
 109:C:/Users/Yushev/git/optiga-trust-qi/projects/xmc4700_relax_kit/common/Libraries/XMCLib/src\xmc_usbd.c ****  */
 110:C:/Users/Yushev/git/optiga-trust-qi/projects/xmc4700_relax_kit/common/Libraries/XMCLib/src\xmc_usbd.c **** static uint8_t XMC_USBD_EP_OUT_BUFFER[7][256] @ ".dram";
 111:C:/Users/Yushev/git/optiga-trust-qi/projects/xmc4700_relax_kit/common/Libraries/XMCLib/src\xmc_usbd.c **** /*
 112:C:/Users/Yushev/git/optiga-trust-qi/projects/xmc4700_relax_kit/common/Libraries/XMCLib/src\xmc_usbd.c ****  * Endpoint In Fifo
 113:C:/Users/Yushev/git/optiga-trust-qi/projects/xmc4700_relax_kit/common/Libraries/XMCLib/src\xmc_usbd.c ****  */
 114:C:/Users/Yushev/git/optiga-trust-qi/projects/xmc4700_relax_kit/common/Libraries/XMCLib/src\xmc_usbd.c **** #pragma data_alignment=4
 115:C:/Users/Yushev/git/optiga-trust-qi/projects/xmc4700_relax_kit/common/Libraries/XMCLib/src\xmc_usbd.c **** static uint8_t XMC_USBD_EP_IN_BUFFER[7][256] @ ".dram";
 116:C:/Users/Yushev/git/optiga-trust-qi/projects/xmc4700_relax_kit/common/Libraries/XMCLib/src\xmc_usbd.c **** #endif
 117:C:/Users/Yushev/git/optiga-trust-qi/projects/xmc4700_relax_kit/common/Libraries/XMCLib/src\xmc_usbd.c **** #if defined(__CC_ARM)
 118:C:/Users/Yushev/git/optiga-trust-qi/projects/xmc4700_relax_kit/common/Libraries/XMCLib/src\xmc_usbd.c **** /*
 119:C:/Users/Yushev/git/optiga-trust-qi/projects/xmc4700_relax_kit/common/Libraries/XMCLib/src\xmc_usbd.c ****  * Endpoint Out Fifo
 120:C:/Users/Yushev/git/optiga-trust-qi/projects/xmc4700_relax_kit/common/Libraries/XMCLib/src\xmc_usbd.c ****  */
 121:C:/Users/Yushev/git/optiga-trust-qi/projects/xmc4700_relax_kit/common/Libraries/XMCLib/src\xmc_usbd.c **** static __attribute__((aligned(4))) uint8_t XMC_USBD_EP_OUT_BUFFER[7][256] __attribute__((section ("
 122:C:/Users/Yushev/git/optiga-trust-qi/projects/xmc4700_relax_kit/common/Libraries/XMCLib/src\xmc_usbd.c **** /*
 123:C:/Users/Yushev/git/optiga-trust-qi/projects/xmc4700_relax_kit/common/Libraries/XMCLib/src\xmc_usbd.c ****  * Endpoint In Fifo
 124:C:/Users/Yushev/git/optiga-trust-qi/projects/xmc4700_relax_kit/common/Libraries/XMCLib/src\xmc_usbd.c ****  */
 125:C:/Users/Yushev/git/optiga-trust-qi/projects/xmc4700_relax_kit/common/Libraries/XMCLib/src\xmc_usbd.c **** static __attribute__((aligned(4))) uint8_t XMC_USBD_EP_IN_BUFFER[7][256] __attribute__((section ("R
 126:C:/Users/Yushev/git/optiga-trust-qi/projects/xmc4700_relax_kit/common/Libraries/XMCLib/src\xmc_usbd.c **** #endif
 127:C:/Users/Yushev/git/optiga-trust-qi/projects/xmc4700_relax_kit/common/Libraries/XMCLib/src\xmc_usbd.c **** XMC_USBD_t *usbd_init;
 128:C:/Users/Yushev/git/optiga-trust-qi/projects/xmc4700_relax_kit/common/Libraries/XMCLib/src\xmc_usbd.c **** 
 129:C:/Users/Yushev/git/optiga-trust-qi/projects/xmc4700_relax_kit/common/Libraries/XMCLib/src\xmc_usbd.c **** /*******************************************************************************
 130:C:/Users/Yushev/git/optiga-trust-qi/projects/xmc4700_relax_kit/common/Libraries/XMCLib/src\xmc_usbd.c ****  *LOCAL ROUTINES
 131:C:/Users/Yushev/git/optiga-trust-qi/projects/xmc4700_relax_kit/common/Libraries/XMCLib/src\xmc_usbd.c ****  *******************************************************************************/
 132:C:/Users/Yushev/git/optiga-trust-qi/projects/xmc4700_relax_kit/common/Libraries/XMCLib/src\xmc_usbd.c **** /*Local routines prototypes*/
 133:C:/Users/Yushev/git/optiga-trust-qi/projects/xmc4700_relax_kit/common/Libraries/XMCLib/src\xmc_usbd.c **** uint8_t XMC_USBD_lDeviceActive(const XMC_USBD_t *const obj);
 134:C:/Users/Yushev/git/optiga-trust-qi/projects/xmc4700_relax_kit/common/Libraries/XMCLib/src\xmc_usbd.c **** static void XMC_USBD_lReadFifo(const uint32_t ep_num,const uint32_t byte_count);
 135:C:/Users/Yushev/git/optiga-trust-qi/projects/xmc4700_relax_kit/common/Libraries/XMCLib/src\xmc_usbd.c **** static uint32_t XMC_USBD_lWriteFifo(XMC_USBD_EP_t *ep);
 136:C:/Users/Yushev/git/optiga-trust-qi/projects/xmc4700_relax_kit/common/Libraries/XMCLib/src\xmc_usbd.c **** static void XMC_USBD_lFlushTXFifo(const uint8_t fifo_num);
 137:C:/Users/Yushev/git/optiga-trust-qi/projects/xmc4700_relax_kit/common/Libraries/XMCLib/src\xmc_usbd.c **** static void XMC_USBD_lFlushRXFifo(void);
 138:C:/Users/Yushev/git/optiga-trust-qi/projects/xmc4700_relax_kit/common/Libraries/XMCLib/src\xmc_usbd.c **** static uint8_t XMC_USBD_lAssignTXFifo(void);
 139:C:/Users/Yushev/git/optiga-trust-qi/projects/xmc4700_relax_kit/common/Libraries/XMCLib/src\xmc_usbd.c **** static void XMC_USBD_lStartReadXfer(XMC_USBD_EP_t *const ep);
 140:C:/Users/Yushev/git/optiga-trust-qi/projects/xmc4700_relax_kit/common/Libraries/XMCLib/src\xmc_usbd.c **** static void XMC_USBD_lStartWriteXfer(XMC_USBD_EP_t *const ep);
 141:C:/Users/Yushev/git/optiga-trust-qi/projects/xmc4700_relax_kit/common/Libraries/XMCLib/src\xmc_usbd.c **** static void XMC_USBD_lHandleEnumDone(void);
 142:C:/Users/Yushev/git/optiga-trust-qi/projects/xmc4700_relax_kit/common/Libraries/XMCLib/src\xmc_usbd.c **** static void XMC_USBD_lHandleOEPInt(const XMC_USBD_t *const obj);
 143:C:/Users/Yushev/git/optiga-trust-qi/projects/xmc4700_relax_kit/common/Libraries/XMCLib/src\xmc_usbd.c **** static void XMC_USBD_lHandleRxFLvl(void);
 144:C:/Users/Yushev/git/optiga-trust-qi/projects/xmc4700_relax_kit/common/Libraries/XMCLib/src\xmc_usbd.c **** static void XMC_USBD_lHandleIEPInt(const XMC_USBD_t *const obj);
 145:C:/Users/Yushev/git/optiga-trust-qi/projects/xmc4700_relax_kit/common/Libraries/XMCLib/src\xmc_usbd.c **** static void XMC_USBD_lUnassignFifo(const uint8_t fifo_nr);
 146:C:/Users/Yushev/git/optiga-trust-qi/projects/xmc4700_relax_kit/common/Libraries/XMCLib/src\xmc_usbd.c **** static void XMC_USBD_lHandleUSBReset(const XMC_USBD_t *const obj);
 147:C:/Users/Yushev/git/optiga-trust-qi/projects/xmc4700_relax_kit/common/Libraries/XMCLib/src\xmc_usbd.c **** static void XMC_USBD_lHandleOTGInt(void);
 148:C:/Users/Yushev/git/optiga-trust-qi/projects/xmc4700_relax_kit/common/Libraries/XMCLib/src\xmc_usbd.c **** static void XMC_USBD_lClearEventOTG(uint32_t event);
 149:C:/Users/Yushev/git/optiga-trust-qi/projects/xmc4700_relax_kit/common/Libraries/XMCLib/src\xmc_usbd.c **** 
 150:C:/Users/Yushev/git/optiga-trust-qi/projects/xmc4700_relax_kit/common/Libraries/XMCLib/src\xmc_usbd.c **** /**
 151:C:/Users/Yushev/git/optiga-trust-qi/projects/xmc4700_relax_kit/common/Libraries/XMCLib/src\xmc_usbd.c ****  *  The device driver
 152:C:/Users/Yushev/git/optiga-trust-qi/projects/xmc4700_relax_kit/common/Libraries/XMCLib/src\xmc_usbd.c ****  */
 153:C:/Users/Yushev/git/optiga-trust-qi/projects/xmc4700_relax_kit/common/Libraries/XMCLib/src\xmc_usbd.c **** const XMC_USBD_DRIVER_t Driver_USBD0 =
 154:C:/Users/Yushev/git/optiga-trust-qi/projects/xmc4700_relax_kit/common/Libraries/XMCLib/src\xmc_usbd.c **** {
 155:C:/Users/Yushev/git/optiga-trust-qi/projects/xmc4700_relax_kit/common/Libraries/XMCLib/src\xmc_usbd.c ****   .GetCapabilities = XMC_USBD_GetCapabilities,
 156:C:/Users/Yushev/git/optiga-trust-qi/projects/xmc4700_relax_kit/common/Libraries/XMCLib/src\xmc_usbd.c ****   .Initialize = XMC_USBD_Init,
 157:C:/Users/Yushev/git/optiga-trust-qi/projects/xmc4700_relax_kit/common/Libraries/XMCLib/src\xmc_usbd.c ****   .Uninitialize = XMC_USBD_Uninitialize,
 158:C:/Users/Yushev/git/optiga-trust-qi/projects/xmc4700_relax_kit/common/Libraries/XMCLib/src\xmc_usbd.c ****   .DeviceConnect = XMC_USBD_DeviceConnect,
 159:C:/Users/Yushev/git/optiga-trust-qi/projects/xmc4700_relax_kit/common/Libraries/XMCLib/src\xmc_usbd.c ****   .DeviceDisconnect = XMC_USBD_DeviceDisconnect,
 160:C:/Users/Yushev/git/optiga-trust-qi/projects/xmc4700_relax_kit/common/Libraries/XMCLib/src\xmc_usbd.c ****   .DeviceGetState = XMC_USBD_DeviceGetState,
 161:C:/Users/Yushev/git/optiga-trust-qi/projects/xmc4700_relax_kit/common/Libraries/XMCLib/src\xmc_usbd.c ****   .DeviceSetAddress = XMC_USBD_DeviceSetAddress,
 162:C:/Users/Yushev/git/optiga-trust-qi/projects/xmc4700_relax_kit/common/Libraries/XMCLib/src\xmc_usbd.c ****   .EndpointConfigure = XMC_USBD_EndpointConfigure,
 163:C:/Users/Yushev/git/optiga-trust-qi/projects/xmc4700_relax_kit/common/Libraries/XMCLib/src\xmc_usbd.c ****   .EndpointUnconfigure = XMC_USBD_EndpointUnconfigure,
 164:C:/Users/Yushev/git/optiga-trust-qi/projects/xmc4700_relax_kit/common/Libraries/XMCLib/src\xmc_usbd.c ****   .EndpointStall = XMC_USBD_EndpointStall,
 165:C:/Users/Yushev/git/optiga-trust-qi/projects/xmc4700_relax_kit/common/Libraries/XMCLib/src\xmc_usbd.c ****   .EndpointReadStart = XMC_USBD_EndpointReadStart,
 166:C:/Users/Yushev/git/optiga-trust-qi/projects/xmc4700_relax_kit/common/Libraries/XMCLib/src\xmc_usbd.c ****   .EndpointRead = XMC_USBD_EndpointRead,
 167:C:/Users/Yushev/git/optiga-trust-qi/projects/xmc4700_relax_kit/common/Libraries/XMCLib/src\xmc_usbd.c ****   .EndpointWrite = XMC_USBD_EndpointWrite,
 168:C:/Users/Yushev/git/optiga-trust-qi/projects/xmc4700_relax_kit/common/Libraries/XMCLib/src\xmc_usbd.c ****   .EndpointAbort = XMC_USBD_EndpointAbort,
 169:C:/Users/Yushev/git/optiga-trust-qi/projects/xmc4700_relax_kit/common/Libraries/XMCLib/src\xmc_usbd.c ****   .GetFrameNumber = XMC_USBD_GetFrameNumber,
 170:C:/Users/Yushev/git/optiga-trust-qi/projects/xmc4700_relax_kit/common/Libraries/XMCLib/src\xmc_usbd.c ****   .IsEnumDone = XMC_USBD_IsEnumDone
 171:C:/Users/Yushev/git/optiga-trust-qi/projects/xmc4700_relax_kit/common/Libraries/XMCLib/src\xmc_usbd.c **** };
 172:C:/Users/Yushev/git/optiga-trust-qi/projects/xmc4700_relax_kit/common/Libraries/XMCLib/src\xmc_usbd.c **** 
 173:C:/Users/Yushev/git/optiga-trust-qi/projects/xmc4700_relax_kit/common/Libraries/XMCLib/src\xmc_usbd.c **** /**
 174:C:/Users/Yushev/git/optiga-trust-qi/projects/xmc4700_relax_kit/common/Libraries/XMCLib/src\xmc_usbd.c ****  * @brief Checks if device is active
 175:C:/Users/Yushev/git/optiga-trust-qi/projects/xmc4700_relax_kit/common/Libraries/XMCLib/src\xmc_usbd.c ****  *
 176:C:/Users/Yushev/git/optiga-trust-qi/projects/xmc4700_relax_kit/common/Libraries/XMCLib/src\xmc_usbd.c ****  * Therefore the endpoint inInUse flag are checked and if one endpoint is in use, 1 is returned,
 177:C:/Users/Yushev/git/optiga-trust-qi/projects/xmc4700_relax_kit/common/Libraries/XMCLib/src\xmc_usbd.c ****  * else 0 is returned.
 178:C:/Users/Yushev/git/optiga-trust-qi/projects/xmc4700_relax_kit/common/Libraries/XMCLib/src\xmc_usbd.c ****  * @return 1 if an endpoint is active else 0
 179:C:/Users/Yushev/git/optiga-trust-qi/projects/xmc4700_relax_kit/common/Libraries/XMCLib/src\xmc_usbd.c ****  */
 180:C:/Users/Yushev/git/optiga-trust-qi/projects/xmc4700_relax_kit/common/Libraries/XMCLib/src\xmc_usbd.c **** uint8_t XMC_USBD_lDeviceActive(const XMC_USBD_t *const obj) 
 181:C:/Users/Yushev/git/optiga-trust-qi/projects/xmc4700_relax_kit/common/Libraries/XMCLib/src\xmc_usbd.c **** {
 182:C:/Users/Yushev/git/optiga-trust-qi/projects/xmc4700_relax_kit/common/Libraries/XMCLib/src\xmc_usbd.c ****   uint8_t i;
 183:C:/Users/Yushev/git/optiga-trust-qi/projects/xmc4700_relax_kit/common/Libraries/XMCLib/src\xmc_usbd.c ****   uint8_t result = 0U;
 184:C:/Users/Yushev/git/optiga-trust-qi/projects/xmc4700_relax_kit/common/Libraries/XMCLib/src\xmc_usbd.c ****   for (i = 0U; i < (uint8_t)obj->usbd_max_num_eps; i++)
 185:C:/Users/Yushev/git/optiga-trust-qi/projects/xmc4700_relax_kit/common/Libraries/XMCLib/src\xmc_usbd.c ****   {
 186:C:/Users/Yushev/git/optiga-trust-qi/projects/xmc4700_relax_kit/common/Libraries/XMCLib/src\xmc_usbd.c ****     if (xmc_device.ep[i].inInUse || xmc_device.ep[i].outInUse)
 187:C:/Users/Yushev/git/optiga-trust-qi/projects/xmc4700_relax_kit/common/Libraries/XMCLib/src\xmc_usbd.c ****     {
 188:C:/Users/Yushev/git/optiga-trust-qi/projects/xmc4700_relax_kit/common/Libraries/XMCLib/src\xmc_usbd.c ****       result = 1U;
 189:C:/Users/Yushev/git/optiga-trust-qi/projects/xmc4700_relax_kit/common/Libraries/XMCLib/src\xmc_usbd.c ****     }
 190:C:/Users/Yushev/git/optiga-trust-qi/projects/xmc4700_relax_kit/common/Libraries/XMCLib/src\xmc_usbd.c ****   }
 191:C:/Users/Yushev/git/optiga-trust-qi/projects/xmc4700_relax_kit/common/Libraries/XMCLib/src\xmc_usbd.c ****   return result;
 192:C:/Users/Yushev/git/optiga-trust-qi/projects/xmc4700_relax_kit/common/Libraries/XMCLib/src\xmc_usbd.c **** }
 193:C:/Users/Yushev/git/optiga-trust-qi/projects/xmc4700_relax_kit/common/Libraries/XMCLib/src\xmc_usbd.c **** 
 194:C:/Users/Yushev/git/optiga-trust-qi/projects/xmc4700_relax_kit/common/Libraries/XMCLib/src\xmc_usbd.c **** 
 195:C:/Users/Yushev/git/optiga-trust-qi/projects/xmc4700_relax_kit/common/Libraries/XMCLib/src\xmc_usbd.c **** /**
 196:C:/Users/Yushev/git/optiga-trust-qi/projects/xmc4700_relax_kit/common/Libraries/XMCLib/src\xmc_usbd.c ****  * @brief Read data from the rx fifo
 197:C:/Users/Yushev/git/optiga-trust-qi/projects/xmc4700_relax_kit/common/Libraries/XMCLib/src\xmc_usbd.c ****  *
 198:C:/Users/Yushev/git/optiga-trust-qi/projects/xmc4700_relax_kit/common/Libraries/XMCLib/src\xmc_usbd.c ****  * The data from the fifo is copied in to the buffer specified by @ref xfer_buffer and
 199:C:/Users/Yushev/git/optiga-trust-qi/projects/xmc4700_relax_kit/common/Libraries/XMCLib/src\xmc_usbd.c ****  * the transfer values get updated. If the endpoint is disabled or the buffer not existent
 200:C:/Users/Yushev/git/optiga-trust-qi/projects/xmc4700_relax_kit/common/Libraries/XMCLib/src\xmc_usbd.c ****  * the function exits.
 201:C:/Users/Yushev/git/optiga-trust-qi/projects/xmc4700_relax_kit/common/Libraries/XMCLib/src\xmc_usbd.c ****  *
 202:C:/Users/Yushev/git/optiga-trust-qi/projects/xmc4700_relax_kit/common/Libraries/XMCLib/src\xmc_usbd.c ****  * @arg ep_num the endpoint to read for
 203:C:/Users/Yushev/git/optiga-trust-qi/projects/xmc4700_relax_kit/common/Libraries/XMCLib/src\xmc_usbd.c ****  * @arg byte_count the byte count to read
 204:C:/Users/Yushev/git/optiga-trust-qi/projects/xmc4700_relax_kit/common/Libraries/XMCLib/src\xmc_usbd.c ****  */
 205:C:/Users/Yushev/git/optiga-trust-qi/projects/xmc4700_relax_kit/common/Libraries/XMCLib/src\xmc_usbd.c **** static void XMC_USBD_lReadFifo(const uint32_t ep_num,const uint32_t byte_count) 
 206:C:/Users/Yushev/git/optiga-trust-qi/projects/xmc4700_relax_kit/common/Libraries/XMCLib/src\xmc_usbd.c **** {
  27              	 .loc 1 206 0
  28              	 .cfi_startproc
  29              	 
  30              	 
  31              	.LVL0:
  32 0000 F0B5     	 push {r4,r5,r6,r7,lr}
  33              	.LCFI0:
  34              	 .cfi_def_cfa_offset 20
  35              	 .cfi_offset 4,-20
  36              	 .cfi_offset 5,-16
  37              	 .cfi_offset 6,-12
  38              	 .cfi_offset 7,-8
  39              	 .cfi_offset 14,-4
 207:C:/Users/Yushev/git/optiga-trust-qi/projects/xmc4700_relax_kit/common/Libraries/XMCLib/src\xmc_usbd.c ****   XMC_USBD_EP_t * ep = &xmc_device.ep[ep_num];
 208:C:/Users/Yushev/git/optiga-trust-qi/projects/xmc4700_relax_kit/common/Libraries/XMCLib/src\xmc_usbd.c ****   uint32_t word_count;
 209:C:/Users/Yushev/git/optiga-trust-qi/projects/xmc4700_relax_kit/common/Libraries/XMCLib/src\xmc_usbd.c ****   uint32_t temp_data;
 210:C:/Users/Yushev/git/optiga-trust-qi/projects/xmc4700_relax_kit/common/Libraries/XMCLib/src\xmc_usbd.c ****   uint32_t temp_word_count;
 211:C:/Users/Yushev/git/optiga-trust-qi/projects/xmc4700_relax_kit/common/Libraries/XMCLib/src\xmc_usbd.c ****   volatile uint32_t *fifo = xmc_device.fifo[0U];
  40              	 .loc 1 211 0
  41 0002 1F4C     	 ldr r4,.L17
 212:C:/Users/Yushev/git/optiga-trust-qi/projects/xmc4700_relax_kit/common/Libraries/XMCLib/src\xmc_usbd.c ****   uint32_t i;
 213:C:/Users/Yushev/git/optiga-trust-qi/projects/xmc4700_relax_kit/common/Libraries/XMCLib/src\xmc_usbd.c ****   depctl_data_t data;
 214:C:/Users/Yushev/git/optiga-trust-qi/projects/xmc4700_relax_kit/common/Libraries/XMCLib/src\xmc_usbd.c ****   data.d32 = xmc_device.endpoint_out_register[ep_num]->doepctl;
  42              	 .loc 1 214 0
  43 0004 04EB8003 	 add r3,r4,r0,lsl#2
 211:C:/Users/Yushev/git/optiga-trust-qi/projects/xmc4700_relax_kit/common/Libraries/XMCLib/src\xmc_usbd.c ****   uint32_t i;
  44              	 .loc 1 211 0
  45 0008 D4F8E051 	 ldr r5,[r4,#480]
  46              	.LVL1:
  47              	 .loc 1 214 0
  48 000c D3F8C431 	 ldr r3,[r3,#452]
  49 0010 1B68     	 ldr r3,[r3]
  50              	.LVL2:
 215:C:/Users/Yushev/git/optiga-trust-qi/projects/xmc4700_relax_kit/common/Libraries/XMCLib/src\xmc_usbd.c ****   word_count = (byte_count >> 2U );
 216:C:/Users/Yushev/git/optiga-trust-qi/projects/xmc4700_relax_kit/common/Libraries/XMCLib/src\xmc_usbd.c ****   temp_word_count = (word_count << 2U);
 217:C:/Users/Yushev/git/optiga-trust-qi/projects/xmc4700_relax_kit/common/Libraries/XMCLib/src\xmc_usbd.c ****   /* Check if ep is enabled and has buffer */
 218:C:/Users/Yushev/git/optiga-trust-qi/projects/xmc4700_relax_kit/common/Libraries/XMCLib/src\xmc_usbd.c ****   if (!data.b.usbactep)
  51              	 .loc 1 218 0
  52 0012 1B04     	 lsls r3,r3,#16
  53              	.LVL3:
  54 0014 32D5     	 bpl .L1
 219:C:/Users/Yushev/git/optiga-trust-qi/projects/xmc4700_relax_kit/common/Libraries/XMCLib/src\xmc_usbd.c ****   {
 220:C:/Users/Yushev/git/optiga-trust-qi/projects/xmc4700_relax_kit/common/Libraries/XMCLib/src\xmc_usbd.c ****     /*Do Nothing*/
 221:C:/Users/Yushev/git/optiga-trust-qi/projects/xmc4700_relax_kit/common/Libraries/XMCLib/src\xmc_usbd.c ****   }
 222:C:/Users/Yushev/git/optiga-trust-qi/projects/xmc4700_relax_kit/common/Libraries/XMCLib/src\xmc_usbd.c ****   else if (ep->xferBuffer == NULL)
  55              	 .loc 1 222 0
  56 0016 3423     	 movs r3,#52
  57 0018 03FB0043 	 mla r3,r3,r0,r4
  58              	.LVL4:
  59 001c 5B6A     	 ldr r3,[r3,#36]
  60              	.LVL5:
  61 001e 6BB3     	 cbz r3,.L1
 215:C:/Users/Yushev/git/optiga-trust-qi/projects/xmc4700_relax_kit/common/Libraries/XMCLib/src\xmc_usbd.c ****   word_count = (byte_count >> 2U );
  62              	 .loc 1 215 0
  63 0020 8E08     	 lsrs r6,r1,#2
  64              	.LVL6:
  65 0022 0022     	 movs r2,#0
  66              	.L3:
  67              	.LVL7:
 223:C:/Users/Yushev/git/optiga-trust-qi/projects/xmc4700_relax_kit/common/Libraries/XMCLib/src\xmc_usbd.c ****   {
 224:C:/Users/Yushev/git/optiga-trust-qi/projects/xmc4700_relax_kit/common/Libraries/XMCLib/src\xmc_usbd.c **** 	/*Do Nothing*/
 225:C:/Users/Yushev/git/optiga-trust-qi/projects/xmc4700_relax_kit/common/Libraries/XMCLib/src\xmc_usbd.c ****   }
 226:C:/Users/Yushev/git/optiga-trust-qi/projects/xmc4700_relax_kit/common/Libraries/XMCLib/src\xmc_usbd.c ****   else
 227:C:/Users/Yushev/git/optiga-trust-qi/projects/xmc4700_relax_kit/common/Libraries/XMCLib/src\xmc_usbd.c ****   {
 228:C:/Users/Yushev/git/optiga-trust-qi/projects/xmc4700_relax_kit/common/Libraries/XMCLib/src\xmc_usbd.c ****     /* store the data */
 229:C:/Users/Yushev/git/optiga-trust-qi/projects/xmc4700_relax_kit/common/Libraries/XMCLib/src\xmc_usbd.c ****     for (i = 0U;i < word_count; i++)
  68              	 .loc 1 229 0 discriminator 1
  69 0024 B242     	 cmp r2,r6
  70 0026 08D0     	 beq .L16
 230:C:/Users/Yushev/git/optiga-trust-qi/projects/xmc4700_relax_kit/common/Libraries/XMCLib/src\xmc_usbd.c ****     {
 231:C:/Users/Yushev/git/optiga-trust-qi/projects/xmc4700_relax_kit/common/Libraries/XMCLib/src\xmc_usbd.c ****       *(((uint32_t*)ep->xferBuffer)+i) = *fifo;
  71              	 .loc 1 231 0 discriminator 3
  72 0028 3423     	 movs r3,#52
  73 002a 03FB0043 	 mla r3,r3,r0,r4
  74 002e 2F68     	 ldr r7,[r5]
  75 0030 5B6A     	 ldr r3,[r3,#36]
  76 0032 43F82270 	 str r7,[r3,r2,lsl#2]
 229:C:/Users/Yushev/git/optiga-trust-qi/projects/xmc4700_relax_kit/common/Libraries/XMCLib/src\xmc_usbd.c ****     {
  77              	 .loc 1 229 0 discriminator 3
  78 0036 0132     	 adds r2,r2,#1
  79              	.LVL8:
  80 0038 F4E7     	 b .L3
  81              	.L16:
 216:C:/Users/Yushev/git/optiga-trust-qi/projects/xmc4700_relax_kit/common/Libraries/XMCLib/src\xmc_usbd.c ****   /* Check if ep is enabled and has buffer */
  82              	 .loc 1 216 0
  83 003a 9300     	 lsls r3,r2,#2
 232:C:/Users/Yushev/git/optiga-trust-qi/projects/xmc4700_relax_kit/common/Libraries/XMCLib/src\xmc_usbd.c ****     }
 233:C:/Users/Yushev/git/optiga-trust-qi/projects/xmc4700_relax_kit/common/Libraries/XMCLib/src\xmc_usbd.c ****     /* space is not devidable by 4 */
 234:C:/Users/Yushev/git/optiga-trust-qi/projects/xmc4700_relax_kit/common/Libraries/XMCLib/src\xmc_usbd.c ****     if (byte_count!=temp_word_count)
  84              	 .loc 1 234 0
  85 003c 9942     	 cmp r1,r3
  86 003e 09D1     	 bne .L5
  87              	.LVL9:
  88              	.L8:
 235:C:/Users/Yushev/git/optiga-trust-qi/projects/xmc4700_relax_kit/common/Libraries/XMCLib/src\xmc_usbd.c ****     {
 236:C:/Users/Yushev/git/optiga-trust-qi/projects/xmc4700_relax_kit/common/Libraries/XMCLib/src\xmc_usbd.c ****       temp_data = *fifo;
 237:C:/Users/Yushev/git/optiga-trust-qi/projects/xmc4700_relax_kit/common/Libraries/XMCLib/src\xmc_usbd.c ****       for (i = 0U;(temp_word_count + i) < byte_count;i++)
 238:C:/Users/Yushev/git/optiga-trust-qi/projects/xmc4700_relax_kit/common/Libraries/XMCLib/src\xmc_usbd.c ****       {
 239:C:/Users/Yushev/git/optiga-trust-qi/projects/xmc4700_relax_kit/common/Libraries/XMCLib/src\xmc_usbd.c ****         ep->xferBuffer[(word_count << 2)+i] = (uint8_t)((temp_data & ((uint32_t)0xFFU << (i * 8U)))
 240:C:/Users/Yushev/git/optiga-trust-qi/projects/xmc4700_relax_kit/common/Libraries/XMCLib/src\xmc_usbd.c ****       }
 241:C:/Users/Yushev/git/optiga-trust-qi/projects/xmc4700_relax_kit/common/Libraries/XMCLib/src\xmc_usbd.c ****     }
 242:C:/Users/Yushev/git/optiga-trust-qi/projects/xmc4700_relax_kit/common/Libraries/XMCLib/src\xmc_usbd.c **** 
 243:C:/Users/Yushev/git/optiga-trust-qi/projects/xmc4700_relax_kit/common/Libraries/XMCLib/src\xmc_usbd.c ****     /* save the amount of data */
 244:C:/Users/Yushev/git/optiga-trust-qi/projects/xmc4700_relax_kit/common/Libraries/XMCLib/src\xmc_usbd.c ****     ep->xferCount += byte_count;
  89              	 .loc 1 244 0
  90 0040 3423     	 movs r3,#52
  91 0042 03FB0044 	 mla r4,r3,r0,r4
  92 0046 E36A     	 ldr r3,[r4,#44]
  93 0048 0B44     	 add r3,r3,r1
  94 004a E362     	 str r3,[r4,#44]
 245:C:/Users/Yushev/git/optiga-trust-qi/projects/xmc4700_relax_kit/common/Libraries/XMCLib/src\xmc_usbd.c ****     ep->xferBuffer += byte_count;
  95              	 .loc 1 245 0
  96 004c 636A     	 ldr r3,[r4,#36]
  97 004e 1944     	 add r1,r1,r3
  98              	.LVL10:
  99 0050 6162     	 str r1,[r4,#36]
 100 0052 F0BD     	 pop {r4,r5,r6,r7,pc}
 101              	.LVL11:
 102              	.L5:
 103 0054 D207     	 lsls r2,r2,#31
 104              	.LVL12:
 236:C:/Users/Yushev/git/optiga-trust-qi/projects/xmc4700_relax_kit/common/Libraries/XMCLib/src\xmc_usbd.c ****       for (i = 0U;(temp_word_count + i) < byte_count;i++)
 105              	 .loc 1 236 0
 106 0056 2F68     	 ldr r7,[r5]
 107              	.LVL13:
 108 0058 D21A     	 subs r2,r2,r3
 109              	.LVL14:
 110              	.L6:
 237:C:/Users/Yushev/git/optiga-trust-qi/projects/xmc4700_relax_kit/common/Libraries/XMCLib/src\xmc_usbd.c ****       {
 111              	 .loc 1 237 0 discriminator 1
 112 005a 8B42     	 cmp r3,r1
 113 005c F0D2     	 bcs .L8
 239:C:/Users/Yushev/git/optiga-trust-qi/projects/xmc4700_relax_kit/common/Libraries/XMCLib/src\xmc_usbd.c ****       }
 114              	 .loc 1 239 0 discriminator 3
 115 005e 3425     	 movs r5,#52
 116 0060 05FB0045 	 mla r5,r5,r0,r4
 117 0064 9E18     	 adds r6,r3,r2
 118 0066 F600     	 lsls r6,r6,#3
 119 0068 D5F824E0 	 ldr lr,[r5,#36]
 120 006c FF25     	 movs r5,#255
 121 006e B540     	 lsls r5,r5,r6
 122 0070 3D40     	 ands r5,r5,r7
 123 0072 F540     	 lsrs r5,r5,r6
 124 0074 0EF80350 	 strb r5,[lr,r3]
 125 0078 0133     	 adds r3,r3,#1
 126 007a EEE7     	 b .L6
 127              	.LVL15:
 128              	.L1:
 129 007c F0BD     	 pop {r4,r5,r6,r7,pc}
 130              	.LVL16:
 131              	.L18:
 132 007e 00BF     	 .align 2
 133              	.L17:
 134 0080 00000000 	 .word xmc_device
 135              	 .cfi_endproc
 136              	.LFE170:
 138              	 .section .text.XMC_USBD_lFlushTXFifo,"ax",%progbits
 139              	 .align 1
 140              	 .thumb
 141              	 .thumb_func
 143              	XMC_USBD_lFlushTXFifo:
 144              	.LFB172:
 246:C:/Users/Yushev/git/optiga-trust-qi/projects/xmc4700_relax_kit/common/Libraries/XMCLib/src\xmc_usbd.c ****   }
 247:C:/Users/Yushev/git/optiga-trust-qi/projects/xmc4700_relax_kit/common/Libraries/XMCLib/src\xmc_usbd.c **** }
 248:C:/Users/Yushev/git/optiga-trust-qi/projects/xmc4700_relax_kit/common/Libraries/XMCLib/src\xmc_usbd.c **** 
 249:C:/Users/Yushev/git/optiga-trust-qi/projects/xmc4700_relax_kit/common/Libraries/XMCLib/src\xmc_usbd.c **** /**
 250:C:/Users/Yushev/git/optiga-trust-qi/projects/xmc4700_relax_kit/common/Libraries/XMCLib/src\xmc_usbd.c ****  * @brief Write data to an endpoint fifo
 251:C:/Users/Yushev/git/optiga-trust-qi/projects/xmc4700_relax_kit/common/Libraries/XMCLib/src\xmc_usbd.c ****  *
 252:C:/Users/Yushev/git/optiga-trust-qi/projects/xmc4700_relax_kit/common/Libraries/XMCLib/src\xmc_usbd.c ****  * The data from the @ref xfer_buffer gets copied in to the tx fifo of the endpoint until the buffe
 253:C:/Users/Yushev/git/optiga-trust-qi/projects/xmc4700_relax_kit/common/Libraries/XMCLib/src\xmc_usbd.c ****  *completely or the tx fifo is full. The transfer values are not updated.
 254:C:/Users/Yushev/git/optiga-trust-qi/projects/xmc4700_relax_kit/common/Libraries/XMCLib/src\xmc_usbd.c ****  *
 255:C:/Users/Yushev/git/optiga-trust-qi/projects/xmc4700_relax_kit/common/Libraries/XMCLib/src\xmc_usbd.c ****  * @arg[in] ep the endpoint to use
 256:C:/Users/Yushev/git/optiga-trust-qi/projects/xmc4700_relax_kit/common/Libraries/XMCLib/src\xmc_usbd.c ****  * @return the number of bytes written to the fifo
 257:C:/Users/Yushev/git/optiga-trust-qi/projects/xmc4700_relax_kit/common/Libraries/XMCLib/src\xmc_usbd.c ****  */
 258:C:/Users/Yushev/git/optiga-trust-qi/projects/xmc4700_relax_kit/common/Libraries/XMCLib/src\xmc_usbd.c **** static uint32_t XMC_USBD_lWriteFifo(XMC_USBD_EP_t *const ep) 
 259:C:/Users/Yushev/git/optiga-trust-qi/projects/xmc4700_relax_kit/common/Libraries/XMCLib/src\xmc_usbd.c **** {
 260:C:/Users/Yushev/git/optiga-trust-qi/projects/xmc4700_relax_kit/common/Libraries/XMCLib/src\xmc_usbd.c ****   dtxfsts_data_t freeSpace; 
 261:C:/Users/Yushev/git/optiga-trust-qi/projects/xmc4700_relax_kit/common/Libraries/XMCLib/src\xmc_usbd.c ****   volatile uint32_t *fifo;
 262:C:/Users/Yushev/git/optiga-trust-qi/projects/xmc4700_relax_kit/common/Libraries/XMCLib/src\xmc_usbd.c ****   uint32_t byte_count;
 263:C:/Users/Yushev/git/optiga-trust-qi/projects/xmc4700_relax_kit/common/Libraries/XMCLib/src\xmc_usbd.c ****   uint32_t word_count;
 264:C:/Users/Yushev/git/optiga-trust-qi/projects/xmc4700_relax_kit/common/Libraries/XMCLib/src\xmc_usbd.c ****   uint32_t result;
 265:C:/Users/Yushev/git/optiga-trust-qi/projects/xmc4700_relax_kit/common/Libraries/XMCLib/src\xmc_usbd.c ****   uint32_t i;
 266:C:/Users/Yushev/git/optiga-trust-qi/projects/xmc4700_relax_kit/common/Libraries/XMCLib/src\xmc_usbd.c ****   fifo = xmc_device.fifo[ep->address_u.address_st.number]; /* fifo */
 267:C:/Users/Yushev/git/optiga-trust-qi/projects/xmc4700_relax_kit/common/Libraries/XMCLib/src\xmc_usbd.c ****   freeSpace.d32 = xmc_device.endpoint_in_register[ep->address_u.address_st.number]->dtxfsts;
 268:C:/Users/Yushev/git/optiga-trust-qi/projects/xmc4700_relax_kit/common/Libraries/XMCLib/src\xmc_usbd.c ****   /* calculate the length and the amount of dwords to copy based on the fifo status */
 269:C:/Users/Yushev/git/optiga-trust-qi/projects/xmc4700_relax_kit/common/Libraries/XMCLib/src\xmc_usbd.c ****   byte_count = ep->xferLength - ep->xferCount;
 270:C:/Users/Yushev/git/optiga-trust-qi/projects/xmc4700_relax_kit/common/Libraries/XMCLib/src\xmc_usbd.c ****   if (!byte_count)
 271:C:/Users/Yushev/git/optiga-trust-qi/projects/xmc4700_relax_kit/common/Libraries/XMCLib/src\xmc_usbd.c ****   {
 272:C:/Users/Yushev/git/optiga-trust-qi/projects/xmc4700_relax_kit/common/Libraries/XMCLib/src\xmc_usbd.c ****     result = 0U;
 273:C:/Users/Yushev/git/optiga-trust-qi/projects/xmc4700_relax_kit/common/Libraries/XMCLib/src\xmc_usbd.c ****   }
 274:C:/Users/Yushev/git/optiga-trust-qi/projects/xmc4700_relax_kit/common/Libraries/XMCLib/src\xmc_usbd.c ****   else
 275:C:/Users/Yushev/git/optiga-trust-qi/projects/xmc4700_relax_kit/common/Libraries/XMCLib/src\xmc_usbd.c ****   {
 276:C:/Users/Yushev/git/optiga-trust-qi/projects/xmc4700_relax_kit/common/Libraries/XMCLib/src\xmc_usbd.c ****     /* add the unaligned bytes to the word count to compare with the fifo space */
 277:C:/Users/Yushev/git/optiga-trust-qi/projects/xmc4700_relax_kit/common/Libraries/XMCLib/src\xmc_usbd.c ****     word_count = ((uint32_t)byte_count + 3U) >> 2U;
 278:C:/Users/Yushev/git/optiga-trust-qi/projects/xmc4700_relax_kit/common/Libraries/XMCLib/src\xmc_usbd.c ****     if (word_count > (uint32_t)freeSpace.b.txfspcavail )
 279:C:/Users/Yushev/git/optiga-trust-qi/projects/xmc4700_relax_kit/common/Libraries/XMCLib/src\xmc_usbd.c ****     {
 280:C:/Users/Yushev/git/optiga-trust-qi/projects/xmc4700_relax_kit/common/Libraries/XMCLib/src\xmc_usbd.c ****       word_count = (uint32_t)freeSpace.b.txfspcavail;
 281:C:/Users/Yushev/git/optiga-trust-qi/projects/xmc4700_relax_kit/common/Libraries/XMCLib/src\xmc_usbd.c ****       byte_count = (uint32_t)word_count << (uint32_t)2U;
 282:C:/Users/Yushev/git/optiga-trust-qi/projects/xmc4700_relax_kit/common/Libraries/XMCLib/src\xmc_usbd.c ****     }
 283:C:/Users/Yushev/git/optiga-trust-qi/projects/xmc4700_relax_kit/common/Libraries/XMCLib/src\xmc_usbd.c **** 
 284:C:/Users/Yushev/git/optiga-trust-qi/projects/xmc4700_relax_kit/common/Libraries/XMCLib/src\xmc_usbd.c ****     /* copy data dword wise */
 285:C:/Users/Yushev/git/optiga-trust-qi/projects/xmc4700_relax_kit/common/Libraries/XMCLib/src\xmc_usbd.c ****     for (i = 0U; i < word_count;ep->xferBuffer+= 4U)
 286:C:/Users/Yushev/git/optiga-trust-qi/projects/xmc4700_relax_kit/common/Libraries/XMCLib/src\xmc_usbd.c ****     {
 287:C:/Users/Yushev/git/optiga-trust-qi/projects/xmc4700_relax_kit/common/Libraries/XMCLib/src\xmc_usbd.c ****       *fifo = *(uint32_t*)ep->xferBuffer;
 288:C:/Users/Yushev/git/optiga-trust-qi/projects/xmc4700_relax_kit/common/Libraries/XMCLib/src\xmc_usbd.c ****       i++;
 289:C:/Users/Yushev/git/optiga-trust-qi/projects/xmc4700_relax_kit/common/Libraries/XMCLib/src\xmc_usbd.c ****     }
 290:C:/Users/Yushev/git/optiga-trust-qi/projects/xmc4700_relax_kit/common/Libraries/XMCLib/src\xmc_usbd.c ****     result=byte_count;
 291:C:/Users/Yushev/git/optiga-trust-qi/projects/xmc4700_relax_kit/common/Libraries/XMCLib/src\xmc_usbd.c ****   }
 292:C:/Users/Yushev/git/optiga-trust-qi/projects/xmc4700_relax_kit/common/Libraries/XMCLib/src\xmc_usbd.c ****   return result;
 293:C:/Users/Yushev/git/optiga-trust-qi/projects/xmc4700_relax_kit/common/Libraries/XMCLib/src\xmc_usbd.c **** }
 294:C:/Users/Yushev/git/optiga-trust-qi/projects/xmc4700_relax_kit/common/Libraries/XMCLib/src\xmc_usbd.c **** 
 295:C:/Users/Yushev/git/optiga-trust-qi/projects/xmc4700_relax_kit/common/Libraries/XMCLib/src\xmc_usbd.c **** /**
 296:C:/Users/Yushev/git/optiga-trust-qi/projects/xmc4700_relax_kit/common/Libraries/XMCLib/src\xmc_usbd.c ****  * @brief Flush a tx fifo
 297:C:/Users/Yushev/git/optiga-trust-qi/projects/xmc4700_relax_kit/common/Libraries/XMCLib/src\xmc_usbd.c ****  *
 298:C:/Users/Yushev/git/optiga-trust-qi/projects/xmc4700_relax_kit/common/Libraries/XMCLib/src\xmc_usbd.c ****  * @param[in] fifo_num Fifo number to flush
 299:C:/Users/Yushev/git/optiga-trust-qi/projects/xmc4700_relax_kit/common/Libraries/XMCLib/src\xmc_usbd.c ****  *
 300:C:/Users/Yushev/git/optiga-trust-qi/projects/xmc4700_relax_kit/common/Libraries/XMCLib/src\xmc_usbd.c ****  * @note Use 0x10 as parameter to flush all tx fifos.
 301:C:/Users/Yushev/git/optiga-trust-qi/projects/xmc4700_relax_kit/common/Libraries/XMCLib/src\xmc_usbd.c ****  */
 302:C:/Users/Yushev/git/optiga-trust-qi/projects/xmc4700_relax_kit/common/Libraries/XMCLib/src\xmc_usbd.c **** static void XMC_USBD_lFlushTXFifo(const uint8_t fifo_num) 
 303:C:/Users/Yushev/git/optiga-trust-qi/projects/xmc4700_relax_kit/common/Libraries/XMCLib/src\xmc_usbd.c **** {
 145              	 .loc 1 303 0
 146              	 .cfi_startproc
 147              	 
 148              	 
 149              	 
 150              	.LVL17:
 151 0000 82B0     	 sub sp,sp,#8
 152              	.LCFI1:
 153              	 .cfi_def_cfa_offset 8
 304:C:/Users/Yushev/git/optiga-trust-qi/projects/xmc4700_relax_kit/common/Libraries/XMCLib/src\xmc_usbd.c ****   volatile grstctl_t data;  
 305:C:/Users/Yushev/git/optiga-trust-qi/projects/xmc4700_relax_kit/common/Libraries/XMCLib/src\xmc_usbd.c ****   uint32_t count;
 306:C:/Users/Yushev/git/optiga-trust-qi/projects/xmc4700_relax_kit/common/Libraries/XMCLib/src\xmc_usbd.c ****   data.d32 = 0U;
 154              	 .loc 1 306 0
 155 0002 0023     	 movs r3,#0
 156 0004 0193     	 str r3,[sp,#4]
 307:C:/Users/Yushev/git/optiga-trust-qi/projects/xmc4700_relax_kit/common/Libraries/XMCLib/src\xmc_usbd.c ****   /*flush fifo */
 308:C:/Users/Yushev/git/optiga-trust-qi/projects/xmc4700_relax_kit/common/Libraries/XMCLib/src\xmc_usbd.c ****   data.b.txfflsh = 1U;
 157              	 .loc 1 308 0
 158 0006 019B     	 ldr r3,[sp,#4]
 159 0008 43F02003 	 orr r3,r3,#32
 160 000c 0193     	 str r3,[sp,#4]
 309:C:/Users/Yushev/git/optiga-trust-qi/projects/xmc4700_relax_kit/common/Libraries/XMCLib/src\xmc_usbd.c ****   data.b.txfnum = fifo_num;
 161              	 .loc 1 309 0
 162 000e 019B     	 ldr r3,[sp,#4]
 163 0010 00F01F00 	 and r0,r0,#31
 164              	.LVL18:
 165 0014 23F4F863 	 bic r3,r3,#1984
 166 0018 43EA8010 	 orr r0,r3,r0,lsl#6
 310:C:/Users/Yushev/git/optiga-trust-qi/projects/xmc4700_relax_kit/common/Libraries/XMCLib/src\xmc_usbd.c ****   xmc_device.global_register->grstctl = data.d32;
 167              	 .loc 1 310 0
 168 001c 064B     	 ldr r3,.L22
 309:C:/Users/Yushev/git/optiga-trust-qi/projects/xmc4700_relax_kit/common/Libraries/XMCLib/src\xmc_usbd.c ****   data.b.txfnum = fifo_num;
 169              	 .loc 1 309 0
 170 001e 0190     	 str r0,[sp,#4]
 171              	 .loc 1 310 0
 172 0020 D3F8A031 	 ldr r3,[r3,#416]
 173 0024 019A     	 ldr r2,[sp,#4]
 174 0026 1A61     	 str r2,[r3,#16]
 175              	.LVL19:
 176              	.L20:
 311:C:/Users/Yushev/git/optiga-trust-qi/projects/xmc4700_relax_kit/common/Libraries/XMCLib/src\xmc_usbd.c ****   for (count = 0U;count < 1000U; count++){}
 312:C:/Users/Yushev/git/optiga-trust-qi/projects/xmc4700_relax_kit/common/Libraries/XMCLib/src\xmc_usbd.c ****   do
 313:C:/Users/Yushev/git/optiga-trust-qi/projects/xmc4700_relax_kit/common/Libraries/XMCLib/src\xmc_usbd.c ****   {
 314:C:/Users/Yushev/git/optiga-trust-qi/projects/xmc4700_relax_kit/common/Libraries/XMCLib/src\xmc_usbd.c ****    data.d32 = xmc_device.global_register->grstctl;
 177              	 .loc 1 314 0 discriminator 1
 178 0028 1A69     	 ldr r2,[r3,#16]
 179 002a 0192     	 str r2,[sp,#4]
 315:C:/Users/Yushev/git/optiga-trust-qi/projects/xmc4700_relax_kit/common/Libraries/XMCLib/src\xmc_usbd.c ****   } while (data.b.txfflsh);
 180              	 .loc 1 315 0 discriminator 1
 181 002c 019A     	 ldr r2,[sp,#4]
 182 002e 9206     	 lsls r2,r2,#26
 183 0030 FAD4     	 bmi .L20
 316:C:/Users/Yushev/git/optiga-trust-qi/projects/xmc4700_relax_kit/common/Libraries/XMCLib/src\xmc_usbd.c ****     count = 0U;
 317:C:/Users/Yushev/git/optiga-trust-qi/projects/xmc4700_relax_kit/common/Libraries/XMCLib/src\xmc_usbd.c ****   while (count++ < 1000U)
 318:C:/Users/Yushev/git/optiga-trust-qi/projects/xmc4700_relax_kit/common/Libraries/XMCLib/src\xmc_usbd.c ****   {
 319:C:/Users/Yushev/git/optiga-trust-qi/projects/xmc4700_relax_kit/common/Libraries/XMCLib/src\xmc_usbd.c ****     /* wait 3 phy clocks */
 320:C:/Users/Yushev/git/optiga-trust-qi/projects/xmc4700_relax_kit/common/Libraries/XMCLib/src\xmc_usbd.c ****   }
 321:C:/Users/Yushev/git/optiga-trust-qi/projects/xmc4700_relax_kit/common/Libraries/XMCLib/src\xmc_usbd.c **** }
 184              	 .loc 1 321 0
 185 0032 02B0     	 add sp,sp,#8
 186              	.LCFI2:
 187              	 .cfi_def_cfa_offset 0
 188              	 
 189 0034 7047     	 bx lr
 190              	.L23:
 191 0036 00BF     	 .align 2
 192              	.L22:
 193 0038 00000000 	 .word xmc_device
 194              	 .cfi_endproc
 195              	.LFE172:
 197              	 .section .text.XMC_USBD_lFlushRXFifo,"ax",%progbits
 198              	 .align 1
 199              	 .thumb
 200              	 .thumb_func
 202              	XMC_USBD_lFlushRXFifo:
 203              	.LFB173:
 322:C:/Users/Yushev/git/optiga-trust-qi/projects/xmc4700_relax_kit/common/Libraries/XMCLib/src\xmc_usbd.c **** 
 323:C:/Users/Yushev/git/optiga-trust-qi/projects/xmc4700_relax_kit/common/Libraries/XMCLib/src\xmc_usbd.c **** /**
 324:C:/Users/Yushev/git/optiga-trust-qi/projects/xmc4700_relax_kit/common/Libraries/XMCLib/src\xmc_usbd.c ****  * @brief Flush the rx fifo
 325:C:/Users/Yushev/git/optiga-trust-qi/projects/xmc4700_relax_kit/common/Libraries/XMCLib/src\xmc_usbd.c ****  */
 326:C:/Users/Yushev/git/optiga-trust-qi/projects/xmc4700_relax_kit/common/Libraries/XMCLib/src\xmc_usbd.c **** static void XMC_USBD_lFlushRXFifo(void) 
 327:C:/Users/Yushev/git/optiga-trust-qi/projects/xmc4700_relax_kit/common/Libraries/XMCLib/src\xmc_usbd.c **** {
 204              	 .loc 1 327 0
 205              	 .cfi_startproc
 206              	 
 207              	 
 208              	 
 209 0000 82B0     	 sub sp,sp,#8
 210              	.LCFI3:
 211              	 .cfi_def_cfa_offset 8
 328:C:/Users/Yushev/git/optiga-trust-qi/projects/xmc4700_relax_kit/common/Libraries/XMCLib/src\xmc_usbd.c ****   volatile grstctl_t data;  
 329:C:/Users/Yushev/git/optiga-trust-qi/projects/xmc4700_relax_kit/common/Libraries/XMCLib/src\xmc_usbd.c ****   uint32_t count;
 330:C:/Users/Yushev/git/optiga-trust-qi/projects/xmc4700_relax_kit/common/Libraries/XMCLib/src\xmc_usbd.c **** 	
 331:C:/Users/Yushev/git/optiga-trust-qi/projects/xmc4700_relax_kit/common/Libraries/XMCLib/src\xmc_usbd.c **** 	data.d32 = 0U;
 212              	 .loc 1 331 0
 213 0002 0023     	 movs r3,#0
 214 0004 0193     	 str r3,[sp,#4]
 332:C:/Users/Yushev/git/optiga-trust-qi/projects/xmc4700_relax_kit/common/Libraries/XMCLib/src\xmc_usbd.c ****   data.b.rxfflsh = 1U;
 215              	 .loc 1 332 0
 216 0006 019B     	 ldr r3,[sp,#4]
 217 0008 43F01003 	 orr r3,r3,#16
 218 000c 0193     	 str r3,[sp,#4]
 333:C:/Users/Yushev/git/optiga-trust-qi/projects/xmc4700_relax_kit/common/Libraries/XMCLib/src\xmc_usbd.c ****   /* flush FIFO */
 334:C:/Users/Yushev/git/optiga-trust-qi/projects/xmc4700_relax_kit/common/Libraries/XMCLib/src\xmc_usbd.c ****   xmc_device.global_register->grstctl = data.d32;
 219              	 .loc 1 334 0
 220 000e 064B     	 ldr r3,.L27
 221 0010 019A     	 ldr r2,[sp,#4]
 222 0012 D3F8A031 	 ldr r3,[r3,#416]
 223 0016 1A61     	 str r2,[r3,#16]
 224              	.L25:
 225              	.LVL20:
 335:C:/Users/Yushev/git/optiga-trust-qi/projects/xmc4700_relax_kit/common/Libraries/XMCLib/src\xmc_usbd.c ****   do
 336:C:/Users/Yushev/git/optiga-trust-qi/projects/xmc4700_relax_kit/common/Libraries/XMCLib/src\xmc_usbd.c ****   {
 337:C:/Users/Yushev/git/optiga-trust-qi/projects/xmc4700_relax_kit/common/Libraries/XMCLib/src\xmc_usbd.c ****     for (count = 0U; count < 1000U; count++){}
 338:C:/Users/Yushev/git/optiga-trust-qi/projects/xmc4700_relax_kit/common/Libraries/XMCLib/src\xmc_usbd.c ****     data.d32 = xmc_device.global_register->grstctl;
 226              	 .loc 1 338 0
 227 0018 1A69     	 ldr r2,[r3,#16]
 228 001a 0192     	 str r2,[sp,#4]
 339:C:/Users/Yushev/git/optiga-trust-qi/projects/xmc4700_relax_kit/common/Libraries/XMCLib/src\xmc_usbd.c ****   } while (data.b.rxfflsh);
 229              	 .loc 1 339 0
 230 001c 019A     	 ldr r2,[sp,#4]
 231 001e D206     	 lsls r2,r2,#27
 232 0020 FAD4     	 bmi .L25
 340:C:/Users/Yushev/git/optiga-trust-qi/projects/xmc4700_relax_kit/common/Libraries/XMCLib/src\xmc_usbd.c ****   count = 0U;
 341:C:/Users/Yushev/git/optiga-trust-qi/projects/xmc4700_relax_kit/common/Libraries/XMCLib/src\xmc_usbd.c ****   while (count++ < 1000U)
 342:C:/Users/Yushev/git/optiga-trust-qi/projects/xmc4700_relax_kit/common/Libraries/XMCLib/src\xmc_usbd.c ****   {
 343:C:/Users/Yushev/git/optiga-trust-qi/projects/xmc4700_relax_kit/common/Libraries/XMCLib/src\xmc_usbd.c ****     /* wait 3 phy clocks */
 344:C:/Users/Yushev/git/optiga-trust-qi/projects/xmc4700_relax_kit/common/Libraries/XMCLib/src\xmc_usbd.c ****   }
 345:C:/Users/Yushev/git/optiga-trust-qi/projects/xmc4700_relax_kit/common/Libraries/XMCLib/src\xmc_usbd.c **** }
 233              	 .loc 1 345 0
 234 0022 02B0     	 add sp,sp,#8
 235              	.LCFI4:
 236              	 .cfi_def_cfa_offset 0
 237              	 
 238 0024 7047     	 bx lr
 239              	.L28:
 240 0026 00BF     	 .align 2
 241              	.L27:
 242 0028 00000000 	 .word xmc_device
 243              	 .cfi_endproc
 244              	.LFE173:
 246              	 .section .text.XMC_USBD_lStartReadXfer,"ax",%progbits
 247              	 .align 1
 248              	 .thumb
 249              	 .thumb_func
 251              	XMC_USBD_lStartReadXfer:
 252              	.LFB176:
 346:C:/Users/Yushev/git/optiga-trust-qi/projects/xmc4700_relax_kit/common/Libraries/XMCLib/src\xmc_usbd.c **** 
 347:C:/Users/Yushev/git/optiga-trust-qi/projects/xmc4700_relax_kit/common/Libraries/XMCLib/src\xmc_usbd.c **** /*
 348:C:/Users/Yushev/git/optiga-trust-qi/projects/xmc4700_relax_kit/common/Libraries/XMCLib/src\xmc_usbd.c ****  * Support Functions
 349:C:/Users/Yushev/git/optiga-trust-qi/projects/xmc4700_relax_kit/common/Libraries/XMCLib/src\xmc_usbd.c ****  */
 350:C:/Users/Yushev/git/optiga-trust-qi/projects/xmc4700_relax_kit/common/Libraries/XMCLib/src\xmc_usbd.c **** 
 351:C:/Users/Yushev/git/optiga-trust-qi/projects/xmc4700_relax_kit/common/Libraries/XMCLib/src\xmc_usbd.c **** /**
 352:C:/Users/Yushev/git/optiga-trust-qi/projects/xmc4700_relax_kit/common/Libraries/XMCLib/src\xmc_usbd.c ****  * @brief Assign a free tx fifo
 353:C:/Users/Yushev/git/optiga-trust-qi/projects/xmc4700_relax_kit/common/Libraries/XMCLib/src\xmc_usbd.c ****  *
 354:C:/Users/Yushev/git/optiga-trust-qi/projects/xmc4700_relax_kit/common/Libraries/XMCLib/src\xmc_usbd.c ****  * A free tx fifo will be searched and the number will be returned.
 355:C:/Users/Yushev/git/optiga-trust-qi/projects/xmc4700_relax_kit/common/Libraries/XMCLib/src\xmc_usbd.c ****  *
 356:C:/Users/Yushev/git/optiga-trust-qi/projects/xmc4700_relax_kit/common/Libraries/XMCLib/src\xmc_usbd.c ****  * @return Fifo number for a free fifo
 357:C:/Users/Yushev/git/optiga-trust-qi/projects/xmc4700_relax_kit/common/Libraries/XMCLib/src\xmc_usbd.c ****  */
 358:C:/Users/Yushev/git/optiga-trust-qi/projects/xmc4700_relax_kit/common/Libraries/XMCLib/src\xmc_usbd.c **** static uint8_t XMC_USBD_lAssignTXFifo(void) 
 359:C:/Users/Yushev/git/optiga-trust-qi/projects/xmc4700_relax_kit/common/Libraries/XMCLib/src\xmc_usbd.c **** {
 360:C:/Users/Yushev/git/optiga-trust-qi/projects/xmc4700_relax_kit/common/Libraries/XMCLib/src\xmc_usbd.c ****   uint16_t mask = 1U;
 361:C:/Users/Yushev/git/optiga-trust-qi/projects/xmc4700_relax_kit/common/Libraries/XMCLib/src\xmc_usbd.c ****   uint8_t i = 0U;
 362:C:/Users/Yushev/git/optiga-trust-qi/projects/xmc4700_relax_kit/common/Libraries/XMCLib/src\xmc_usbd.c ****   uint8_t result = 0U;
 363:C:/Users/Yushev/git/optiga-trust-qi/projects/xmc4700_relax_kit/common/Libraries/XMCLib/src\xmc_usbd.c ****   while( (i < (uint8_t)XMC_USBD_NUM_TX_FIFOS)&&((xmc_device.txfifomsk & mask) != 0U))
 364:C:/Users/Yushev/git/optiga-trust-qi/projects/xmc4700_relax_kit/common/Libraries/XMCLib/src\xmc_usbd.c ****   {
 365:C:/Users/Yushev/git/optiga-trust-qi/projects/xmc4700_relax_kit/common/Libraries/XMCLib/src\xmc_usbd.c ****     mask = (uint16_t)(mask << 1U);
 366:C:/Users/Yushev/git/optiga-trust-qi/projects/xmc4700_relax_kit/common/Libraries/XMCLib/src\xmc_usbd.c ****     i++;
 367:C:/Users/Yushev/git/optiga-trust-qi/projects/xmc4700_relax_kit/common/Libraries/XMCLib/src\xmc_usbd.c ****   }
 368:C:/Users/Yushev/git/optiga-trust-qi/projects/xmc4700_relax_kit/common/Libraries/XMCLib/src\xmc_usbd.c ****   if ((xmc_device.txfifomsk & mask) == 0U)
 369:C:/Users/Yushev/git/optiga-trust-qi/projects/xmc4700_relax_kit/common/Libraries/XMCLib/src\xmc_usbd.c ****   {
 370:C:/Users/Yushev/git/optiga-trust-qi/projects/xmc4700_relax_kit/common/Libraries/XMCLib/src\xmc_usbd.c ****     xmc_device.txfifomsk |= mask;
 371:C:/Users/Yushev/git/optiga-trust-qi/projects/xmc4700_relax_kit/common/Libraries/XMCLib/src\xmc_usbd.c ****     result=i;
 372:C:/Users/Yushev/git/optiga-trust-qi/projects/xmc4700_relax_kit/common/Libraries/XMCLib/src\xmc_usbd.c ****   }
 373:C:/Users/Yushev/git/optiga-trust-qi/projects/xmc4700_relax_kit/common/Libraries/XMCLib/src\xmc_usbd.c ****   return result;
 374:C:/Users/Yushev/git/optiga-trust-qi/projects/xmc4700_relax_kit/common/Libraries/XMCLib/src\xmc_usbd.c **** }
 375:C:/Users/Yushev/git/optiga-trust-qi/projects/xmc4700_relax_kit/common/Libraries/XMCLib/src\xmc_usbd.c **** 
 376:C:/Users/Yushev/git/optiga-trust-qi/projects/xmc4700_relax_kit/common/Libraries/XMCLib/src\xmc_usbd.c **** /**
 377:C:/Users/Yushev/git/optiga-trust-qi/projects/xmc4700_relax_kit/common/Libraries/XMCLib/src\xmc_usbd.c ****  * @brief Free a tx fifo
 378:C:/Users/Yushev/git/optiga-trust-qi/projects/xmc4700_relax_kit/common/Libraries/XMCLib/src\xmc_usbd.c ****  *
 379:C:/Users/Yushev/git/optiga-trust-qi/projects/xmc4700_relax_kit/common/Libraries/XMCLib/src\xmc_usbd.c ****  * Mark an used tx fifo as free.
 380:C:/Users/Yushev/git/optiga-trust-qi/projects/xmc4700_relax_kit/common/Libraries/XMCLib/src\xmc_usbd.c ****  * @param[in] fifo_nr Fifo number to free
 381:C:/Users/Yushev/git/optiga-trust-qi/projects/xmc4700_relax_kit/common/Libraries/XMCLib/src\xmc_usbd.c ****  */
 382:C:/Users/Yushev/git/optiga-trust-qi/projects/xmc4700_relax_kit/common/Libraries/XMCLib/src\xmc_usbd.c **** static void XMC_USBD_lUnassignFifo(const uint8_t fifo_nr) 
 383:C:/Users/Yushev/git/optiga-trust-qi/projects/xmc4700_relax_kit/common/Libraries/XMCLib/src\xmc_usbd.c **** {
 384:C:/Users/Yushev/git/optiga-trust-qi/projects/xmc4700_relax_kit/common/Libraries/XMCLib/src\xmc_usbd.c ****   xmc_device.txfifomsk = (uint16_t)((uint32_t)xmc_device.txfifomsk & (uint32_t)(~((uint32_t)((uint3
 385:C:/Users/Yushev/git/optiga-trust-qi/projects/xmc4700_relax_kit/common/Libraries/XMCLib/src\xmc_usbd.c **** }
 386:C:/Users/Yushev/git/optiga-trust-qi/projects/xmc4700_relax_kit/common/Libraries/XMCLib/src\xmc_usbd.c **** 
 387:C:/Users/Yushev/git/optiga-trust-qi/projects/xmc4700_relax_kit/common/Libraries/XMCLib/src\xmc_usbd.c **** /**
 388:C:/Users/Yushev/git/optiga-trust-qi/projects/xmc4700_relax_kit/common/Libraries/XMCLib/src\xmc_usbd.c ****  * @brief Start a transfer for an out endpoint
 389:C:/Users/Yushev/git/optiga-trust-qi/projects/xmc4700_relax_kit/common/Libraries/XMCLib/src\xmc_usbd.c ****  *
 390:C:/Users/Yushev/git/optiga-trust-qi/projects/xmc4700_relax_kit/common/Libraries/XMCLib/src\xmc_usbd.c ****  * Based on the transfer values of the endpoint, the out endpoint registers will be programmed
 391:C:/Users/Yushev/git/optiga-trust-qi/projects/xmc4700_relax_kit/common/Libraries/XMCLib/src\xmc_usbd.c ****  * to start a new out transfer.
 392:C:/Users/Yushev/git/optiga-trust-qi/projects/xmc4700_relax_kit/common/Libraries/XMCLib/src\xmc_usbd.c ****  *
 393:C:/Users/Yushev/git/optiga-trust-qi/projects/xmc4700_relax_kit/common/Libraries/XMCLib/src\xmc_usbd.c ****  * @note No checking of the transfer values are done in this function. Be sure,
 394:C:/Users/Yushev/git/optiga-trust-qi/projects/xmc4700_relax_kit/common/Libraries/XMCLib/src\xmc_usbd.c ****  * that the transfer values are reasonable (e.g. buffer size is not exceeded).
 395:C:/Users/Yushev/git/optiga-trust-qi/projects/xmc4700_relax_kit/common/Libraries/XMCLib/src\xmc_usbd.c ****  *
 396:C:/Users/Yushev/git/optiga-trust-qi/projects/xmc4700_relax_kit/common/Libraries/XMCLib/src\xmc_usbd.c ****  * @param[in] ep Endpoint to start the transfer
 397:C:/Users/Yushev/git/optiga-trust-qi/projects/xmc4700_relax_kit/common/Libraries/XMCLib/src\xmc_usbd.c ****  */
 398:C:/Users/Yushev/git/optiga-trust-qi/projects/xmc4700_relax_kit/common/Libraries/XMCLib/src\xmc_usbd.c **** static void XMC_USBD_lStartReadXfer(XMC_USBD_EP_t *const ep) 
 399:C:/Users/Yushev/git/optiga-trust-qi/projects/xmc4700_relax_kit/common/Libraries/XMCLib/src\xmc_usbd.c **** {
 253              	 .loc 1 399 0
 254              	 .cfi_startproc
 255              	 
 256              	 
 257              	.LVL21:
 400:C:/Users/Yushev/git/optiga-trust-qi/projects/xmc4700_relax_kit/common/Libraries/XMCLib/src\xmc_usbd.c ****   deptsiz_data_t data;
 401:C:/Users/Yushev/git/optiga-trust-qi/projects/xmc4700_relax_kit/common/Libraries/XMCLib/src\xmc_usbd.c ****   depctl_data_t epctl;
 402:C:/Users/Yushev/git/optiga-trust-qi/projects/xmc4700_relax_kit/common/Libraries/XMCLib/src\xmc_usbd.c **** 	
 403:C:/Users/Yushev/git/optiga-trust-qi/projects/xmc4700_relax_kit/common/Libraries/XMCLib/src\xmc_usbd.c ****   data.d32 =  0U;
 404:C:/Users/Yushev/git/optiga-trust-qi/projects/xmc4700_relax_kit/common/Libraries/XMCLib/src\xmc_usbd.c ****   if ((ep->xferTotal - ep->xferLength) > ep->maxTransferSize)
 258              	 .loc 1 404 0
 259 0000 826A     	 ldr r2,[r0,#40]
 260 0002 8168     	 ldr r1,[r0,#8]
 399:C:/Users/Yushev/git/optiga-trust-qi/projects/xmc4700_relax_kit/common/Libraries/XMCLib/src\xmc_usbd.c ****   deptsiz_data_t data;
 261              	 .loc 1 399 0
 262 0004 30B5     	 push {r4,r5,lr}
 263              	.LCFI5:
 264              	 .cfi_def_cfa_offset 12
 265              	 .cfi_offset 4,-12
 266              	 .cfi_offset 5,-8
 267              	 .cfi_offset 14,-4
 268              	 .loc 1 404 0
 269 0006 046B     	 ldr r4,[r0,#48]
 270 0008 C1F31201 	 ubfx r1,r1,#0,#19
 271 000c A51A     	 subs r5,r4,r2
 272 000e 8D42     	 cmp r5,r1
 405:C:/Users/Yushev/git/optiga-trust-qi/projects/xmc4700_relax_kit/common/Libraries/XMCLib/src\xmc_usbd.c ****   {
 406:C:/Users/Yushev/git/optiga-trust-qi/projects/xmc4700_relax_kit/common/Libraries/XMCLib/src\xmc_usbd.c ****     ep->xferLength += ep->maxTransferSize;
 273              	 .loc 1 406 0
 274 0010 88BF     	 it hi
 275 0012 5218     	 addhi r2,r2,r1
 407:C:/Users/Yushev/git/optiga-trust-qi/projects/xmc4700_relax_kit/common/Libraries/XMCLib/src\xmc_usbd.c ****   }
 408:C:/Users/Yushev/git/optiga-trust-qi/projects/xmc4700_relax_kit/common/Libraries/XMCLib/src\xmc_usbd.c ****   else
 409:C:/Users/Yushev/git/optiga-trust-qi/projects/xmc4700_relax_kit/common/Libraries/XMCLib/src\xmc_usbd.c ****   {
 410:C:/Users/Yushev/git/optiga-trust-qi/projects/xmc4700_relax_kit/common/Libraries/XMCLib/src\xmc_usbd.c ****     ep->xferLength = ep->xferTotal;
 411:C:/Users/Yushev/git/optiga-trust-qi/projects/xmc4700_relax_kit/common/Libraries/XMCLib/src\xmc_usbd.c ****   }
 412:C:/Users/Yushev/git/optiga-trust-qi/projects/xmc4700_relax_kit/common/Libraries/XMCLib/src\xmc_usbd.c ****   if (ep->address_u.address_st.number == 0U)
 276              	 .loc 1 412 0
 277 0014 0178     	 ldrb r1,[r0]
 406:C:/Users/Yushev/git/optiga-trust-qi/projects/xmc4700_relax_kit/common/Libraries/XMCLib/src\xmc_usbd.c ****   }
 278              	 .loc 1 406 0
 279 0016 8CBF     	 ite hi
 280 0018 8262     	 strhi r2,[r0,#40]
 410:C:/Users/Yushev/git/optiga-trust-qi/projects/xmc4700_relax_kit/common/Libraries/XMCLib/src\xmc_usbd.c ****   }
 281              	 .loc 1 410 0
 282 001a 8462     	 strls r4,[r0,#40]
 283              	 .loc 1 412 0
 284 001c 0A07     	 lsls r2,r1,#28
 403:C:/Users/Yushev/git/optiga-trust-qi/projects/xmc4700_relax_kit/common/Libraries/XMCLib/src\xmc_usbd.c ****   if ((ep->xferTotal - ep->xferLength) > ep->maxTransferSize)
 285              	 .loc 1 403 0
 286 001e 4FF00003 	 mov r3,#0
 287              	.LVL22:
 288              	 .loc 1 412 0
 289 0022 07D1     	 bne .L32
 290              	.LVL23:
 291              	.LBB22:
 413:C:/Users/Yushev/git/optiga-trust-qi/projects/xmc4700_relax_kit/common/Libraries/XMCLib/src\xmc_usbd.c ****   {
 414:C:/Users/Yushev/git/optiga-trust-qi/projects/xmc4700_relax_kit/common/Libraries/XMCLib/src\xmc_usbd.c **** 	/* Setup the endpoint to receive 3 setup packages and one normal package.*/
 415:C:/Users/Yushev/git/optiga-trust-qi/projects/xmc4700_relax_kit/common/Libraries/XMCLib/src\xmc_usbd.c **** 	/* Cast the data pointer to use only one variable */
 416:C:/Users/Yushev/git/optiga-trust-qi/projects/xmc4700_relax_kit/common/Libraries/XMCLib/src\xmc_usbd.c ****     deptsiz0_data_t *ep0_data = (deptsiz0_data_t*)&data;
 417:C:/Users/Yushev/git/optiga-trust-qi/projects/xmc4700_relax_kit/common/Libraries/XMCLib/src\xmc_usbd.c ****     ep0_data->b.pktcnt = 0x1U;
 292              	 .loc 1 417 0
 293 0024 0122     	 movs r2,#1
 294 0026 62F3D443 	 bfi r3,r2,#19,#2
 295              	.LVL24:
 418:C:/Users/Yushev/git/optiga-trust-qi/projects/xmc4700_relax_kit/common/Libraries/XMCLib/src\xmc_usbd.c ****     ep0_data->b.supcnt = 0x3U;
 296              	 .loc 1 418 0
 297 002a 43F0C043 	 orr r3,r3,#1610612736
 298              	.LVL25:
 419:C:/Users/Yushev/git/optiga-trust-qi/projects/xmc4700_relax_kit/common/Libraries/XMCLib/src\xmc_usbd.c ****     ep0_data->b.xfersize = (uint8_t)ep->xferTotal;
 299              	 .loc 1 419 0
 300 002e 64F30603 	 bfi r3,r4,#0,#7
 301              	.LVL26:
 302              	.LBE22:
 303 0032 14E0     	 b .L33
 304              	.LVL27:
 305              	.L32:
 420:C:/Users/Yushev/git/optiga-trust-qi/projects/xmc4700_relax_kit/common/Libraries/XMCLib/src\xmc_usbd.c ****   }
 421:C:/Users/Yushev/git/optiga-trust-qi/projects/xmc4700_relax_kit/common/Libraries/XMCLib/src\xmc_usbd.c ****   else
 422:C:/Users/Yushev/git/optiga-trust-qi/projects/xmc4700_relax_kit/common/Libraries/XMCLib/src\xmc_usbd.c ****   {
 423:C:/Users/Yushev/git/optiga-trust-qi/projects/xmc4700_relax_kit/common/Libraries/XMCLib/src\xmc_usbd.c ****     /* If requested length is zero, just receive one zero length packet */
 424:C:/Users/Yushev/git/optiga-trust-qi/projects/xmc4700_relax_kit/common/Libraries/XMCLib/src\xmc_usbd.c ****     if (ep->xferLength == 0U)
 306              	 .loc 1 424 0
 307 0034 826A     	 ldr r2,[r0,#40]
 308 0036 2AB9     	 cbnz r2,.L34
 425:C:/Users/Yushev/git/optiga-trust-qi/projects/xmc4700_relax_kit/common/Libraries/XMCLib/src\xmc_usbd.c ****     {
 426:C:/Users/Yushev/git/optiga-trust-qi/projects/xmc4700_relax_kit/common/Libraries/XMCLib/src\xmc_usbd.c ****       data.b.xfersize = 0U;
 309              	 .loc 1 426 0
 310 0038 62F31203 	 bfi r3,r2,#0,#19
 311              	.LVL28:
 427:C:/Users/Yushev/git/optiga-trust-qi/projects/xmc4700_relax_kit/common/Libraries/XMCLib/src\xmc_usbd.c ****       data.b.pktcnt = 1U;
 312              	 .loc 1 427 0
 313 003c 0122     	 movs r2,#1
 314 003e 62F3DC43 	 bfi r3,r2,#19,#10
 315 0042 0CE0     	 b .L33
 316              	.LVL29:
 317              	.L34:
 428:C:/Users/Yushev/git/optiga-trust-qi/projects/xmc4700_relax_kit/common/Libraries/XMCLib/src\xmc_usbd.c ****     }
 429:C:/Users/Yushev/git/optiga-trust-qi/projects/xmc4700_relax_kit/common/Libraries/XMCLib/src\xmc_usbd.c ****     else
 430:C:/Users/Yushev/git/optiga-trust-qi/projects/xmc4700_relax_kit/common/Libraries/XMCLib/src\xmc_usbd.c ****     {
 431:C:/Users/Yushev/git/optiga-trust-qi/projects/xmc4700_relax_kit/common/Libraries/XMCLib/src\xmc_usbd.c ****       /* setup endpoint to recive a amount of packages by given size */
 432:C:/Users/Yushev/git/optiga-trust-qi/projects/xmc4700_relax_kit/common/Libraries/XMCLib/src\xmc_usbd.c ****       data.b.pktcnt = (uint16_t)(((ep->xferLength - ep->xferCount) + (ep->maxPacketSize -(uint32_t)
 318              	 .loc 1 432 0
 319 0044 C46A     	 ldr r4,[r0,#44]
 320 0046 121B     	 subs r2,r2,r4
 321 0048 4468     	 ldr r4,[r0,#4]
 322 004a C4F3C625 	 ubfx r5,r4,#11,#7
 323 004e 5419     	 adds r4,r2,r5
 324 0050 013C     	 subs r4,r4,#1
 325 0052 B4FBF5F4 	 udiv r4,r4,r5
 326 0056 64F3DC43 	 bfi r3,r4,#19,#10
 327              	.LVL30:
 433:C:/Users/Yushev/git/optiga-trust-qi/projects/xmc4700_relax_kit/common/Libraries/XMCLib/src\xmc_usbd.c ****       data.b.xfersize =(uint32_t)(ep->xferLength - ep->xferCount);
 328              	 .loc 1 433 0
 329 005a 62F31203 	 bfi r3,r2,#0,#19
 330              	.L33:
 434:C:/Users/Yushev/git/optiga-trust-qi/projects/xmc4700_relax_kit/common/Libraries/XMCLib/src\xmc_usbd.c ****     }
 435:C:/Users/Yushev/git/optiga-trust-qi/projects/xmc4700_relax_kit/common/Libraries/XMCLib/src\xmc_usbd.c ****   }
 436:C:/Users/Yushev/git/optiga-trust-qi/projects/xmc4700_relax_kit/common/Libraries/XMCLib/src\xmc_usbd.c ****   if(usbd_init->usbd_transfer_mode == XMC_USBD_USE_DMA)
 331              	 .loc 1 436 0
 332 005e 0C4A     	 ldr r2,.L36
 333 0060 1268     	 ldr r2,[r2]
 334 0062 547B     	 ldrb r4,[r2,#13]
 335 0064 0B4A     	 ldr r2,.L36+4
 336 0066 3CB9     	 cbnz r4,.L35
 437:C:/Users/Yushev/git/optiga-trust-qi/projects/xmc4700_relax_kit/common/Libraries/XMCLib/src\xmc_usbd.c ****   {
 438:C:/Users/Yushev/git/optiga-trust-qi/projects/xmc4700_relax_kit/common/Libraries/XMCLib/src\xmc_usbd.c ****     /* Programm dma address if needed */
 439:C:/Users/Yushev/git/optiga-trust-qi/projects/xmc4700_relax_kit/common/Libraries/XMCLib/src\xmc_usbd.c ****     xmc_device.endpoint_out_register[ep->address_u.address_st.number]->doepdma = (uint32_t)(ep->xfe
 337              	 .loc 1 439 0
 338 0068 01F00F04 	 and r4,r1,#15
 339 006c 02EB8404 	 add r4,r2,r4,lsl#2
 340 0070 406A     	 ldr r0,[r0,#36]
 341              	.LVL31:
 342 0072 D4F8C441 	 ldr r4,[r4,#452]
 343 0076 6061     	 str r0,[r4,#20]
 344              	.L35:
 440:C:/Users/Yushev/git/optiga-trust-qi/projects/xmc4700_relax_kit/common/Libraries/XMCLib/src\xmc_usbd.c ****   }
 441:C:/Users/Yushev/git/optiga-trust-qi/projects/xmc4700_relax_kit/common/Libraries/XMCLib/src\xmc_usbd.c ****   /* setup endpoint size and enable endpoint */
 442:C:/Users/Yushev/git/optiga-trust-qi/projects/xmc4700_relax_kit/common/Libraries/XMCLib/src\xmc_usbd.c ****   xmc_device.endpoint_out_register[ep->address_u.address_st.number]->doeptsiz = data.d32;
 345              	 .loc 1 442 0
 346 0078 01F00F01 	 and r1,r1,#15
 347 007c 02EB8101 	 add r1,r2,r1,lsl#2
 348 0080 D1F8C421 	 ldr r2,[r1,#452]
 349 0084 1361     	 str r3,[r2,#16]
 443:C:/Users/Yushev/git/optiga-trust-qi/projects/xmc4700_relax_kit/common/Libraries/XMCLib/src\xmc_usbd.c ****  
 444:C:/Users/Yushev/git/optiga-trust-qi/projects/xmc4700_relax_kit/common/Libraries/XMCLib/src\xmc_usbd.c ****   epctl.d32 = xmc_device.endpoint_out_register[ep->address_u.address_st.number]->doepctl;
 350              	 .loc 1 444 0
 351 0086 1368     	 ldr r3,[r2]
 352              	.LVL32:
 445:C:/Users/Yushev/git/optiga-trust-qi/projects/xmc4700_relax_kit/common/Libraries/XMCLib/src\xmc_usbd.c ****   epctl.b.cnak = 1U;
 446:C:/Users/Yushev/git/optiga-trust-qi/projects/xmc4700_relax_kit/common/Libraries/XMCLib/src\xmc_usbd.c ****   epctl.b.epena = 1U;
 353              	 .loc 1 446 0
 354 0088 43F00443 	 orr r3,r3,#-2080374784
 355              	.LVL33:
 447:C:/Users/Yushev/git/optiga-trust-qi/projects/xmc4700_relax_kit/common/Libraries/XMCLib/src\xmc_usbd.c ****   xmc_device.endpoint_out_register[ep->address_u.address_st.number]->doepctl = epctl.d32;
 356              	 .loc 1 447 0
 357 008c 1360     	 str r3,[r2]
 358 008e 30BD     	 pop {r4,r5,pc}
 359              	.L37:
 360              	 .align 2
 361              	.L36:
 362 0090 00000000 	 .word usbd_init
 363 0094 00000000 	 .word xmc_device
 364              	 .cfi_endproc
 365              	.LFE176:
 367              	 .section .text.XMC_USBD_lStartWriteXfer,"ax",%progbits
 368              	 .align 1
 369              	 .thumb
 370              	 .thumb_func
 372              	XMC_USBD_lStartWriteXfer:
 373              	.LFB177:
 448:C:/Users/Yushev/git/optiga-trust-qi/projects/xmc4700_relax_kit/common/Libraries/XMCLib/src\xmc_usbd.c **** }
 449:C:/Users/Yushev/git/optiga-trust-qi/projects/xmc4700_relax_kit/common/Libraries/XMCLib/src\xmc_usbd.c **** 
 450:C:/Users/Yushev/git/optiga-trust-qi/projects/xmc4700_relax_kit/common/Libraries/XMCLib/src\xmc_usbd.c **** /**
 451:C:/Users/Yushev/git/optiga-trust-qi/projects/xmc4700_relax_kit/common/Libraries/XMCLib/src\xmc_usbd.c ****  * @brief Start a new in transfer
 452:C:/Users/Yushev/git/optiga-trust-qi/projects/xmc4700_relax_kit/common/Libraries/XMCLib/src\xmc_usbd.c ****  *
 453:C:/Users/Yushev/git/optiga-trust-qi/projects/xmc4700_relax_kit/common/Libraries/XMCLib/src\xmc_usbd.c ****  * Based on the transfer values of the endpoint the in endpoint registers will be programmed
 454:C:/Users/Yushev/git/optiga-trust-qi/projects/xmc4700_relax_kit/common/Libraries/XMCLib/src\xmc_usbd.c ****  * to start a new in transfer
 455:C:/Users/Yushev/git/optiga-trust-qi/projects/xmc4700_relax_kit/common/Libraries/XMCLib/src\xmc_usbd.c ****  *
 456:C:/Users/Yushev/git/optiga-trust-qi/projects/xmc4700_relax_kit/common/Libraries/XMCLib/src\xmc_usbd.c ****  * @param[in] ep Endpoint to start the transfer
 457:C:/Users/Yushev/git/optiga-trust-qi/projects/xmc4700_relax_kit/common/Libraries/XMCLib/src\xmc_usbd.c ****  */
 458:C:/Users/Yushev/git/optiga-trust-qi/projects/xmc4700_relax_kit/common/Libraries/XMCLib/src\xmc_usbd.c **** static void XMC_USBD_lStartWriteXfer(XMC_USBD_EP_t *const ep) 
 459:C:/Users/Yushev/git/optiga-trust-qi/projects/xmc4700_relax_kit/common/Libraries/XMCLib/src\xmc_usbd.c **** {
 374              	 .loc 1 459 0
 375              	 .cfi_startproc
 376              	 
 377              	 
 378              	.LVL34:
 460:C:/Users/Yushev/git/optiga-trust-qi/projects/xmc4700_relax_kit/common/Libraries/XMCLib/src\xmc_usbd.c ****   deptsiz_data_t size;
 461:C:/Users/Yushev/git/optiga-trust-qi/projects/xmc4700_relax_kit/common/Libraries/XMCLib/src\xmc_usbd.c ****   depctl_data_t ctl;
 462:C:/Users/Yushev/git/optiga-trust-qi/projects/xmc4700_relax_kit/common/Libraries/XMCLib/src\xmc_usbd.c **** 	
 463:C:/Users/Yushev/git/optiga-trust-qi/projects/xmc4700_relax_kit/common/Libraries/XMCLib/src\xmc_usbd.c ****   size.d32 = 0U;  
 464:C:/Users/Yushev/git/optiga-trust-qi/projects/xmc4700_relax_kit/common/Libraries/XMCLib/src\xmc_usbd.c ****   ctl.d32 = xmc_device.endpoint_in_register[ep->address_u.address_st.number]->diepctl;
 379              	 .loc 1 464 0
 380 0000 0178     	 ldrb r1,[r0]
 465:C:/Users/Yushev/git/optiga-trust-qi/projects/xmc4700_relax_kit/common/Libraries/XMCLib/src\xmc_usbd.c **** 
 466:C:/Users/Yushev/git/optiga-trust-qi/projects/xmc4700_relax_kit/common/Libraries/XMCLib/src\xmc_usbd.c ****   if ((ep->xferTotal - ep->xferLength)  < ep->maxTransferSize)
 381              	 .loc 1 466 0
 382 0002 D0F830C0 	 ldr ip,[r0,#48]
 459:C:/Users/Yushev/git/optiga-trust-qi/projects/xmc4700_relax_kit/common/Libraries/XMCLib/src\xmc_usbd.c ****   deptsiz_data_t size;
 383              	 .loc 1 459 0
 384 0006 2DE9F041 	 push {r4,r5,r6,r7,r8,lr}
 385              	.LCFI6:
 386              	 .cfi_def_cfa_offset 24
 387              	 .cfi_offset 4,-24
 388              	 .cfi_offset 5,-20
 389              	 .cfi_offset 6,-16
 390              	 .cfi_offset 7,-12
 391              	 .cfi_offset 8,-8
 392              	 .cfi_offset 14,-4
 464:C:/Users/Yushev/git/optiga-trust-qi/projects/xmc4700_relax_kit/common/Libraries/XMCLib/src\xmc_usbd.c **** 
 393              	 .loc 1 464 0
 394 000a 01F00F07 	 and r7,r1,#15
 395 000e 07F16A03 	 add r3,r7,#106
 396 0012 294C     	 ldr r4,.L46
 397              	 .loc 1 466 0
 398 0014 8668     	 ldr r6,[r0,#8]
 464:C:/Users/Yushev/git/optiga-trust-qi/projects/xmc4700_relax_kit/common/Libraries/XMCLib/src\xmc_usbd.c **** 
 399              	 .loc 1 464 0
 400 0016 54F823E0 	 ldr lr,[r4,r3,lsl#2]
 401              	 .loc 1 466 0
 402 001a 836A     	 ldr r3,[r0,#40]
 464:C:/Users/Yushev/git/optiga-trust-qi/projects/xmc4700_relax_kit/common/Libraries/XMCLib/src\xmc_usbd.c **** 
 403              	 .loc 1 464 0
 404 001c DEF80050 	 ldr r5,[lr]
 405              	.LVL35:
 406              	 .loc 1 466 0
 407 0020 C3EB0C08 	 rsb r8,r3,ip
 408 0024 C6F31206 	 ubfx r6,r6,#0,#19
 409 0028 B045     	 cmp r8,r6
 467:C:/Users/Yushev/git/optiga-trust-qi/projects/xmc4700_relax_kit/common/Libraries/XMCLib/src\xmc_usbd.c ****   {
 468:C:/Users/Yushev/git/optiga-trust-qi/projects/xmc4700_relax_kit/common/Libraries/XMCLib/src\xmc_usbd.c ****     ep->xferLength = ep->xferTotal;
 469:C:/Users/Yushev/git/optiga-trust-qi/projects/xmc4700_relax_kit/common/Libraries/XMCLib/src\xmc_usbd.c ****   }
 470:C:/Users/Yushev/git/optiga-trust-qi/projects/xmc4700_relax_kit/common/Libraries/XMCLib/src\xmc_usbd.c ****   else
 471:C:/Users/Yushev/git/optiga-trust-qi/projects/xmc4700_relax_kit/common/Libraries/XMCLib/src\xmc_usbd.c ****   {
 472:C:/Users/Yushev/git/optiga-trust-qi/projects/xmc4700_relax_kit/common/Libraries/XMCLib/src\xmc_usbd.c ****     ep->xferLength += ep->maxTransferSize;
 410              	 .loc 1 472 0
 411 002a 2ABF     	 itet cs
 412 002c 9B19     	 addcs r3,r3,r6
 468:C:/Users/Yushev/git/optiga-trust-qi/projects/xmc4700_relax_kit/common/Libraries/XMCLib/src\xmc_usbd.c ****   }
 413              	 .loc 1 468 0
 414 002e C0F828C0 	 strcc ip,[r0,#40]
 415              	 .loc 1 472 0
 416 0032 8362     	 strcs r3,[r0,#40]
 473:C:/Users/Yushev/git/optiga-trust-qi/projects/xmc4700_relax_kit/common/Libraries/XMCLib/src\xmc_usbd.c ****   }
 474:C:/Users/Yushev/git/optiga-trust-qi/projects/xmc4700_relax_kit/common/Libraries/XMCLib/src\xmc_usbd.c ****   if (ep->xferLength == 0U)
 417              	 .loc 1 474 0
 418 0034 836A     	 ldr r3,[r0,#40]
 463:C:/Users/Yushev/git/optiga-trust-qi/projects/xmc4700_relax_kit/common/Libraries/XMCLib/src\xmc_usbd.c ****   ctl.d32 = xmc_device.endpoint_in_register[ep->address_u.address_st.number]->diepctl;
 419              	 .loc 1 463 0
 420 0036 0022     	 movs r2,#0
 421              	.LVL36:
 422              	 .loc 1 474 0
 423 0038 2BB9     	 cbnz r3,.L41
 475:C:/Users/Yushev/git/optiga-trust-qi/projects/xmc4700_relax_kit/common/Libraries/XMCLib/src\xmc_usbd.c ****   {
 476:C:/Users/Yushev/git/optiga-trust-qi/projects/xmc4700_relax_kit/common/Libraries/XMCLib/src\xmc_usbd.c ****     size.b.xfersize = 0U;
 424              	 .loc 1 476 0
 425 003a 63F31202 	 bfi r2,r3,#0,#19
 426              	.LVL37:
 477:C:/Users/Yushev/git/optiga-trust-qi/projects/xmc4700_relax_kit/common/Libraries/XMCLib/src\xmc_usbd.c ****     size.b.pktcnt = 1U;
 427              	 .loc 1 477 0
 428 003e 0123     	 movs r3,#1
 429 0040 63F3DC42 	 bfi r2,r3,#19,#10
 430 0044 2CE0     	 b .L42
 431              	.LVL38:
 432              	.L41:
 478:C:/Users/Yushev/git/optiga-trust-qi/projects/xmc4700_relax_kit/common/Libraries/XMCLib/src\xmc_usbd.c ****   }
 479:C:/Users/Yushev/git/optiga-trust-qi/projects/xmc4700_relax_kit/common/Libraries/XMCLib/src\xmc_usbd.c ****   else
 480:C:/Users/Yushev/git/optiga-trust-qi/projects/xmc4700_relax_kit/common/Libraries/XMCLib/src\xmc_usbd.c ****   {
 481:C:/Users/Yushev/git/optiga-trust-qi/projects/xmc4700_relax_kit/common/Libraries/XMCLib/src\xmc_usbd.c ****     if (ep->address_u.address_st.number == 0U)
 433              	 .loc 1 481 0
 434 0046 11F00F0F 	 tst r1,#15
 435 004a C66A     	 ldr r6,[r0,#44]
 436 004c 07D1     	 bne .L43
 482:C:/Users/Yushev/git/optiga-trust-qi/projects/xmc4700_relax_kit/common/Libraries/XMCLib/src\xmc_usbd.c ****     {
 483:C:/Users/Yushev/git/optiga-trust-qi/projects/xmc4700_relax_kit/common/Libraries/XMCLib/src\xmc_usbd.c ****       size.b.pktcnt = 1U;
 437              	 .loc 1 483 0
 438 004e 4FF0010C 	 mov ip,#1
 439 0052 6CF3DC42 	 bfi r2,ip,#19,#10
 440              	.LVL39:
 484:C:/Users/Yushev/git/optiga-trust-qi/projects/xmc4700_relax_kit/common/Libraries/XMCLib/src\xmc_usbd.c ****       /* ep->maxXferSize equals maxPacketSize */
 485:C:/Users/Yushev/git/optiga-trust-qi/projects/xmc4700_relax_kit/common/Libraries/XMCLib/src\xmc_usbd.c ****       size.b.xfersize = (uint32_t)(ep->xferLength - ep->xferCount);
 441              	 .loc 1 485 0
 442 0056 9B1B     	 subs r3,r3,r6
 443 0058 63F31202 	 bfi r2,r3,#0,#19
 444 005c 0FE0     	 b .L44
 445              	.LVL40:
 446              	.L43:
 486:C:/Users/Yushev/git/optiga-trust-qi/projects/xmc4700_relax_kit/common/Libraries/XMCLib/src\xmc_usbd.c ****     }
 487:C:/Users/Yushev/git/optiga-trust-qi/projects/xmc4700_relax_kit/common/Libraries/XMCLib/src\xmc_usbd.c ****     else
 488:C:/Users/Yushev/git/optiga-trust-qi/projects/xmc4700_relax_kit/common/Libraries/XMCLib/src\xmc_usbd.c ****     {
 489:C:/Users/Yushev/git/optiga-trust-qi/projects/xmc4700_relax_kit/common/Libraries/XMCLib/src\xmc_usbd.c ****       size.b.xfersize =(uint32_t)(ep->xferLength - ep->xferCount);
 447              	 .loc 1 489 0
 448 005e 9B1B     	 subs r3,r3,r6
 490:C:/Users/Yushev/git/optiga-trust-qi/projects/xmc4700_relax_kit/common/Libraries/XMCLib/src\xmc_usbd.c ****       size.b.pktcnt = (uint16_t)(((uint16_t)(ep->xferLength - ep->xferCount) + (uint16_t)((uint16_t
 449              	 .loc 1 490 0
 450 0060 4668     	 ldr r6,[r0,#4]
 451 0062 C6F3C626 	 ubfx r6,r6,#11,#7
 452 0066 06F1FF3C 	 add ip,r6,#-1
 489:C:/Users/Yushev/git/optiga-trust-qi/projects/xmc4700_relax_kit/common/Libraries/XMCLib/src\xmc_usbd.c ****       size.b.pktcnt = (uint16_t)(((uint16_t)(ep->xferLength - ep->xferCount) + (uint16_t)((uint16_t
 453              	 .loc 1 489 0
 454 006a 63F31202 	 bfi r2,r3,#0,#19
 455              	.LVL41:
 456              	 .loc 1 490 0
 457 006e 1FFA8CFC 	 uxth ip,ip
 458 0072 1CFA83F3 	 uxtah r3,ip,r3
 459 0076 93FBF6F3 	 sdiv r3,r3,r6
 460 007a 63F3DC42 	 bfi r2,r3,#19,#10
 461              	.L44:
 491:C:/Users/Yushev/git/optiga-trust-qi/projects/xmc4700_relax_kit/common/Libraries/XMCLib/src\xmc_usbd.c ****     		 ep->maxPacketSize);
 492:C:/Users/Yushev/git/optiga-trust-qi/projects/xmc4700_relax_kit/common/Libraries/XMCLib/src\xmc_usbd.c ****     }
 493:C:/Users/Yushev/git/optiga-trust-qi/projects/xmc4700_relax_kit/common/Libraries/XMCLib/src\xmc_usbd.c ****     if(usbd_init->usbd_transfer_mode == XMC_USBD_USE_DMA)
 462              	 .loc 1 493 0
 463 007e 0F4B     	 ldr r3,.L46+4
 464 0080 1B68     	 ldr r3,[r3]
 465 0082 5B7B     	 ldrb r3,[r3,#13]
 466 0084 1BB9     	 cbnz r3,.L45
 494:C:/Users/Yushev/git/optiga-trust-qi/projects/xmc4700_relax_kit/common/Libraries/XMCLib/src\xmc_usbd.c ****     {
 495:C:/Users/Yushev/git/optiga-trust-qi/projects/xmc4700_relax_kit/common/Libraries/XMCLib/src\xmc_usbd.c ****       /* Program dma*/
 496:C:/Users/Yushev/git/optiga-trust-qi/projects/xmc4700_relax_kit/common/Libraries/XMCLib/src\xmc_usbd.c ****       xmc_device.endpoint_in_register[ep->address_u.address_st.number]->diepdma = (uint32_t)ep->xfe
 467              	 .loc 1 496 0
 468 0086 436A     	 ldr r3,[r0,#36]
 469 0088 CEF81430 	 str r3,[lr,#20]
 470 008c 08E0     	 b .L42
 471              	.L45:
 497:C:/Users/Yushev/git/optiga-trust-qi/projects/xmc4700_relax_kit/common/Libraries/XMCLib/src\xmc_usbd.c ****     }
 498:C:/Users/Yushev/git/optiga-trust-qi/projects/xmc4700_relax_kit/common/Libraries/XMCLib/src\xmc_usbd.c ****     if(usbd_init->usbd_transfer_mode == XMC_USBD_USE_FIFO)
 472              	 .loc 1 498 0
 473 008e 012B     	 cmp r3,#1
 499:C:/Users/Yushev/git/optiga-trust-qi/projects/xmc4700_relax_kit/common/Libraries/XMCLib/src\xmc_usbd.c ****     {
 500:C:/Users/Yushev/git/optiga-trust-qi/projects/xmc4700_relax_kit/common/Libraries/XMCLib/src\xmc_usbd.c ****       /* enable fifo empty interrupt */
 501:C:/Users/Yushev/git/optiga-trust-qi/projects/xmc4700_relax_kit/common/Libraries/XMCLib/src\xmc_usbd.c **** 			xmc_device.device_register->dtknqr4_fifoemptymsk |= (uint32_t)((uint32_t)1U << (uint8_t)ep->addr
 474              	 .loc 1 501 0
 475 0090 01BF     	 itttt eq
 476 0092 D4F8A461 	 ldreq r6,[r4,#420]
 477 0096 706B     	 ldreq r0,[r6,#52]
 478              	.LVL42:
 479 0098 BB40     	 lsleq r3,r3,r7
 480 009a 0343     	 orreq r3,r3,r0
 481 009c 08BF     	 it eq
 482 009e 7363     	 streq r3,[r6,#52]
 483              	.L42:
 502:C:/Users/Yushev/git/optiga-trust-qi/projects/xmc4700_relax_kit/common/Libraries/XMCLib/src\xmc_usbd.c ****     }
 503:C:/Users/Yushev/git/optiga-trust-qi/projects/xmc4700_relax_kit/common/Libraries/XMCLib/src\xmc_usbd.c ****   }
 504:C:/Users/Yushev/git/optiga-trust-qi/projects/xmc4700_relax_kit/common/Libraries/XMCLib/src\xmc_usbd.c **** 
 505:C:/Users/Yushev/git/optiga-trust-qi/projects/xmc4700_relax_kit/common/Libraries/XMCLib/src\xmc_usbd.c ****   /* Program size of transfer and enable endpoint */
 506:C:/Users/Yushev/git/optiga-trust-qi/projects/xmc4700_relax_kit/common/Libraries/XMCLib/src\xmc_usbd.c ****   xmc_device.endpoint_in_register[ep->address_u.address_st.number]->dieptsiz = size.d32;
 484              	 .loc 1 506 0
 485 00a0 01F00F01 	 and r1,r1,#15
 486 00a4 6A31     	 adds r1,r1,#106
 507:C:/Users/Yushev/git/optiga-trust-qi/projects/xmc4700_relax_kit/common/Libraries/XMCLib/src\xmc_usbd.c ****   ctl.b.epena = 1U;
 508:C:/Users/Yushev/git/optiga-trust-qi/projects/xmc4700_relax_kit/common/Libraries/XMCLib/src\xmc_usbd.c ****   ctl.b.cnak = 1U;
 487              	 .loc 1 508 0
 488 00a6 45F00445 	 orr r5,r5,#-2080374784
 489              	.LVL43:
 506:C:/Users/Yushev/git/optiga-trust-qi/projects/xmc4700_relax_kit/common/Libraries/XMCLib/src\xmc_usbd.c ****   ctl.b.epena = 1U;
 490              	 .loc 1 506 0
 491 00aa 54F82130 	 ldr r3,[r4,r1,lsl#2]
 492 00ae 1A61     	 str r2,[r3,#16]
 493              	.LVL44:
 509:C:/Users/Yushev/git/optiga-trust-qi/projects/xmc4700_relax_kit/common/Libraries/XMCLib/src\xmc_usbd.c ****   xmc_device.endpoint_in_register[ep->address_u.address_st.number]->diepctl = ctl.d32;
 494              	 .loc 1 509 0
 495 00b0 1D60     	 str r5,[r3]
 496 00b2 BDE8F081 	 pop {r4,r5,r6,r7,r8,pc}
 497              	.LVL45:
 498              	.L47:
 499 00b6 00BF     	 .align 2
 500              	.L46:
 501 00b8 00000000 	 .word xmc_device
 502 00bc 00000000 	 .word usbd_init
 503              	 .cfi_endproc
 504              	.LFE177:
 506              	 .section .text.XMC_USBD_GetCapabilities,"ax",%progbits
 507              	 .align 1
 508              	 .global XMC_USBD_GetCapabilities
 509              	 .thumb
 510              	 .thumb_func
 512              	XMC_USBD_GetCapabilities:
 513              	.LFB193:
 510:C:/Users/Yushev/git/optiga-trust-qi/projects/xmc4700_relax_kit/common/Libraries/XMCLib/src\xmc_usbd.c **** }
 511:C:/Users/Yushev/git/optiga-trust-qi/projects/xmc4700_relax_kit/common/Libraries/XMCLib/src\xmc_usbd.c **** 
 512:C:/Users/Yushev/git/optiga-trust-qi/projects/xmc4700_relax_kit/common/Libraries/XMCLib/src\xmc_usbd.c **** 
 513:C:/Users/Yushev/git/optiga-trust-qi/projects/xmc4700_relax_kit/common/Libraries/XMCLib/src\xmc_usbd.c **** /**
 514:C:/Users/Yushev/git/optiga-trust-qi/projects/xmc4700_relax_kit/common/Libraries/XMCLib/src\xmc_usbd.c ****  * @brief Handles the USBD reset interrupt
 515:C:/Users/Yushev/git/optiga-trust-qi/projects/xmc4700_relax_kit/common/Libraries/XMCLib/src\xmc_usbd.c ****  *
 516:C:/Users/Yushev/git/optiga-trust-qi/projects/xmc4700_relax_kit/common/Libraries/XMCLib/src\xmc_usbd.c ****  * When ever the host sets the bus into reset condition the usb otg_core generates
 517:C:/Users/Yushev/git/optiga-trust-qi/projects/xmc4700_relax_kit/common/Libraries/XMCLib/src\xmc_usbd.c ****  * an interrupt, which is handled by this function. It resets the complete otg_core
 518:C:/Users/Yushev/git/optiga-trust-qi/projects/xmc4700_relax_kit/common/Libraries/XMCLib/src\xmc_usbd.c ****  * into the default state.
 519:C:/Users/Yushev/git/optiga-trust-qi/projects/xmc4700_relax_kit/common/Libraries/XMCLib/src\xmc_usbd.c ****  */
 520:C:/Users/Yushev/git/optiga-trust-qi/projects/xmc4700_relax_kit/common/Libraries/XMCLib/src\xmc_usbd.c **** static void XMC_USBD_lHandleUSBReset(const XMC_USBD_t *const obj) 
 521:C:/Users/Yushev/git/optiga-trust-qi/projects/xmc4700_relax_kit/common/Libraries/XMCLib/src\xmc_usbd.c **** {
 522:C:/Users/Yushev/git/optiga-trust-qi/projects/xmc4700_relax_kit/common/Libraries/XMCLib/src\xmc_usbd.c ****   uint32_t i;
 523:C:/Users/Yushev/git/optiga-trust-qi/projects/xmc4700_relax_kit/common/Libraries/XMCLib/src\xmc_usbd.c ****   depctl_data_t epctl;
 524:C:/Users/Yushev/git/optiga-trust-qi/projects/xmc4700_relax_kit/common/Libraries/XMCLib/src\xmc_usbd.c ****   dctl_data_t dctl;
 525:C:/Users/Yushev/git/optiga-trust-qi/projects/xmc4700_relax_kit/common/Libraries/XMCLib/src\xmc_usbd.c ****   fifosize_data_t gnptxfsiz;
 526:C:/Users/Yushev/git/optiga-trust-qi/projects/xmc4700_relax_kit/common/Libraries/XMCLib/src\xmc_usbd.c ****   daint_data_t daint;
 527:C:/Users/Yushev/git/optiga-trust-qi/projects/xmc4700_relax_kit/common/Libraries/XMCLib/src\xmc_usbd.c ****   dcfg_data_t dcfg;
 528:C:/Users/Yushev/git/optiga-trust-qi/projects/xmc4700_relax_kit/common/Libraries/XMCLib/src\xmc_usbd.c **** 	
 529:C:/Users/Yushev/git/optiga-trust-qi/projects/xmc4700_relax_kit/common/Libraries/XMCLib/src\xmc_usbd.c ****   /* Clear the Remote Wakeup Signaling */
 530:C:/Users/Yushev/git/optiga-trust-qi/projects/xmc4700_relax_kit/common/Libraries/XMCLib/src\xmc_usbd.c ****   dctl.d32 = xmc_device.device_register->dctl;
 531:C:/Users/Yushev/git/optiga-trust-qi/projects/xmc4700_relax_kit/common/Libraries/XMCLib/src\xmc_usbd.c ****   dctl.b.rmtwkupsig = 1U;
 532:C:/Users/Yushev/git/optiga-trust-qi/projects/xmc4700_relax_kit/common/Libraries/XMCLib/src\xmc_usbd.c ****   xmc_device.device_register->dctl = dctl.d32;
 533:C:/Users/Yushev/git/optiga-trust-qi/projects/xmc4700_relax_kit/common/Libraries/XMCLib/src\xmc_usbd.c **** 
 534:C:/Users/Yushev/git/optiga-trust-qi/projects/xmc4700_relax_kit/common/Libraries/XMCLib/src\xmc_usbd.c ****   /* enable naks for all eps */
 535:C:/Users/Yushev/git/optiga-trust-qi/projects/xmc4700_relax_kit/common/Libraries/XMCLib/src\xmc_usbd.c ****   for (i = 0U;i < (uint8_t)XMC_USBD_NUM_EPS;i++)
 536:C:/Users/Yushev/git/optiga-trust-qi/projects/xmc4700_relax_kit/common/Libraries/XMCLib/src\xmc_usbd.c ****   {
 537:C:/Users/Yushev/git/optiga-trust-qi/projects/xmc4700_relax_kit/common/Libraries/XMCLib/src\xmc_usbd.c ****     epctl.d32 = xmc_device.endpoint_out_register[i]->doepctl;
 538:C:/Users/Yushev/git/optiga-trust-qi/projects/xmc4700_relax_kit/common/Libraries/XMCLib/src\xmc_usbd.c **** 		epctl.b.snak = 1U;
 539:C:/Users/Yushev/git/optiga-trust-qi/projects/xmc4700_relax_kit/common/Libraries/XMCLib/src\xmc_usbd.c **** 		epctl.b.stall = 0U;
 540:C:/Users/Yushev/git/optiga-trust-qi/projects/xmc4700_relax_kit/common/Libraries/XMCLib/src\xmc_usbd.c **** 		xmc_device.endpoint_out_register[i]->doepctl = epctl.d32;
 541:C:/Users/Yushev/git/optiga-trust-qi/projects/xmc4700_relax_kit/common/Libraries/XMCLib/src\xmc_usbd.c ****   }
 542:C:/Users/Yushev/git/optiga-trust-qi/projects/xmc4700_relax_kit/common/Libraries/XMCLib/src\xmc_usbd.c **** 
 543:C:/Users/Yushev/git/optiga-trust-qi/projects/xmc4700_relax_kit/common/Libraries/XMCLib/src\xmc_usbd.c ****   /* Configure fifos */
 544:C:/Users/Yushev/git/optiga-trust-qi/projects/xmc4700_relax_kit/common/Libraries/XMCLib/src\xmc_usbd.c ****   /* Calculate the size of the rx fifo */
 545:C:/Users/Yushev/git/optiga-trust-qi/projects/xmc4700_relax_kit/common/Libraries/XMCLib/src\xmc_usbd.c ****   xmc_device.global_register->grxfsiz = 64U;
 546:C:/Users/Yushev/git/optiga-trust-qi/projects/xmc4700_relax_kit/common/Libraries/XMCLib/src\xmc_usbd.c ****   /* Calculate the size of the tx fifo for ep 0 */  
 547:C:/Users/Yushev/git/optiga-trust-qi/projects/xmc4700_relax_kit/common/Libraries/XMCLib/src\xmc_usbd.c ****   gnptxfsiz.d32 = 0U;
 548:C:/Users/Yushev/git/optiga-trust-qi/projects/xmc4700_relax_kit/common/Libraries/XMCLib/src\xmc_usbd.c ****   gnptxfsiz.b.depth = 16U;
 549:C:/Users/Yushev/git/optiga-trust-qi/projects/xmc4700_relax_kit/common/Libraries/XMCLib/src\xmc_usbd.c ****   gnptxfsiz.b.startaddr = 64U;
 550:C:/Users/Yushev/git/optiga-trust-qi/projects/xmc4700_relax_kit/common/Libraries/XMCLib/src\xmc_usbd.c ****   xmc_device.global_register->gnptxfsiz = gnptxfsiz.d32;
 551:C:/Users/Yushev/git/optiga-trust-qi/projects/xmc4700_relax_kit/common/Libraries/XMCLib/src\xmc_usbd.c ****   /* calculate the size for the rest */
 552:C:/Users/Yushev/git/optiga-trust-qi/projects/xmc4700_relax_kit/common/Libraries/XMCLib/src\xmc_usbd.c ****   for (i = 1U;i < (uint8_t)XMC_USBD_NUM_TX_FIFOS;i++)
 553:C:/Users/Yushev/git/optiga-trust-qi/projects/xmc4700_relax_kit/common/Libraries/XMCLib/src\xmc_usbd.c ****   {
 554:C:/Users/Yushev/git/optiga-trust-qi/projects/xmc4700_relax_kit/common/Libraries/XMCLib/src\xmc_usbd.c ****     xmc_device.global_register->dtxfsiz[i- 1U] = (uint32_t)(((256U + (i*(64U)))/4U) | ((uint32_t)16
 555:C:/Users/Yushev/git/optiga-trust-qi/projects/xmc4700_relax_kit/common/Libraries/XMCLib/src\xmc_usbd.c ****   }
 556:C:/Users/Yushev/git/optiga-trust-qi/projects/xmc4700_relax_kit/common/Libraries/XMCLib/src\xmc_usbd.c **** 
 557:C:/Users/Yushev/git/optiga-trust-qi/projects/xmc4700_relax_kit/common/Libraries/XMCLib/src\xmc_usbd.c ****   /* flush the fifos for proper operation */
 558:C:/Users/Yushev/git/optiga-trust-qi/projects/xmc4700_relax_kit/common/Libraries/XMCLib/src\xmc_usbd.c ****   XMC_USBD_lFlushTXFifo(0x10U); /* 0x10 == all fifos, see doc */
 559:C:/Users/Yushev/git/optiga-trust-qi/projects/xmc4700_relax_kit/common/Libraries/XMCLib/src\xmc_usbd.c ****   XMC_USBD_lFlushTXFifo(0x0U);
 560:C:/Users/Yushev/git/optiga-trust-qi/projects/xmc4700_relax_kit/common/Libraries/XMCLib/src\xmc_usbd.c ****   XMC_USBD_lFlushRXFifo();
 561:C:/Users/Yushev/git/optiga-trust-qi/projects/xmc4700_relax_kit/common/Libraries/XMCLib/src\xmc_usbd.c ****   /* Flush learning queue not needed due to fifo config */
 562:C:/Users/Yushev/git/optiga-trust-qi/projects/xmc4700_relax_kit/common/Libraries/XMCLib/src\xmc_usbd.c ****   /* enable ep0 interrupts */  
 563:C:/Users/Yushev/git/optiga-trust-qi/projects/xmc4700_relax_kit/common/Libraries/XMCLib/src\xmc_usbd.c ****   daint.d32 = 0U;
 564:C:/Users/Yushev/git/optiga-trust-qi/projects/xmc4700_relax_kit/common/Libraries/XMCLib/src\xmc_usbd.c ****   daint.b.inep0 = 1U;
 565:C:/Users/Yushev/git/optiga-trust-qi/projects/xmc4700_relax_kit/common/Libraries/XMCLib/src\xmc_usbd.c ****   daint.b.outep0 = 1U;
 566:C:/Users/Yushev/git/optiga-trust-qi/projects/xmc4700_relax_kit/common/Libraries/XMCLib/src\xmc_usbd.c ****   xmc_device.device_register->daintmsk = daint.d32;
 567:C:/Users/Yushev/git/optiga-trust-qi/projects/xmc4700_relax_kit/common/Libraries/XMCLib/src\xmc_usbd.c **** 
 568:C:/Users/Yushev/git/optiga-trust-qi/projects/xmc4700_relax_kit/common/Libraries/XMCLib/src\xmc_usbd.c ****   /* enable endpoint interrupts */
 569:C:/Users/Yushev/git/optiga-trust-qi/projects/xmc4700_relax_kit/common/Libraries/XMCLib/src\xmc_usbd.c ****   /* out ep interrupts */
 570:C:/Users/Yushev/git/optiga-trust-qi/projects/xmc4700_relax_kit/common/Libraries/XMCLib/src\xmc_usbd.c ****   XMC_USBD_EnableEventOUTEP(((uint32_t)XMC_USBD_EVENT_OUT_EP_TX_COMPLET | (uint32_t)XMC_USBD_EVENT_
 571:C:/Users/Yushev/git/optiga-trust-qi/projects/xmc4700_relax_kit/common/Libraries/XMCLib/src\xmc_usbd.c **** 		  	  	  	  	  	  (uint32_t)XMC_USBD_EVENT_OUT_EP_SETUP | (uint32_t)XMC_USBD_EVENT_OUT_EP_AHB_ERRO
 572:C:/Users/Yushev/git/optiga-trust-qi/projects/xmc4700_relax_kit/common/Libraries/XMCLib/src\xmc_usbd.c **** 
 573:C:/Users/Yushev/git/optiga-trust-qi/projects/xmc4700_relax_kit/common/Libraries/XMCLib/src\xmc_usbd.c ****   /*in ep interrupts */
 574:C:/Users/Yushev/git/optiga-trust-qi/projects/xmc4700_relax_kit/common/Libraries/XMCLib/src\xmc_usbd.c ****   XMC_USBD_EnableEventINEP(((uint32_t)XMC_USBD_EVENT_IN_EP_TX_COMPLET | (uint32_t)XMC_USBD_EVENT_IN
 575:C:/Users/Yushev/git/optiga-trust-qi/projects/xmc4700_relax_kit/common/Libraries/XMCLib/src\xmc_usbd.c **** 		  (uint32_t)XMC_USBD_EVENT_IN_EP_AHB_ERROR | (uint32_t)XMC_USBD_EVENT_IN_EP_TIMEOUT));
 576:C:/Users/Yushev/git/optiga-trust-qi/projects/xmc4700_relax_kit/common/Libraries/XMCLib/src\xmc_usbd.c **** 
 577:C:/Users/Yushev/git/optiga-trust-qi/projects/xmc4700_relax_kit/common/Libraries/XMCLib/src\xmc_usbd.c **** 
 578:C:/Users/Yushev/git/optiga-trust-qi/projects/xmc4700_relax_kit/common/Libraries/XMCLib/src\xmc_usbd.c ****   /* Clear device Address */  
 579:C:/Users/Yushev/git/optiga-trust-qi/projects/xmc4700_relax_kit/common/Libraries/XMCLib/src\xmc_usbd.c ****   dcfg.d32 = xmc_device.device_register->dcfg;
 580:C:/Users/Yushev/git/optiga-trust-qi/projects/xmc4700_relax_kit/common/Libraries/XMCLib/src\xmc_usbd.c ****   dcfg.b.devaddr = 0U;
 581:C:/Users/Yushev/git/optiga-trust-qi/projects/xmc4700_relax_kit/common/Libraries/XMCLib/src\xmc_usbd.c ****   xmc_device.device_register->dcfg = dcfg.d32;
 582:C:/Users/Yushev/git/optiga-trust-qi/projects/xmc4700_relax_kit/common/Libraries/XMCLib/src\xmc_usbd.c **** 
 583:C:/Users/Yushev/git/optiga-trust-qi/projects/xmc4700_relax_kit/common/Libraries/XMCLib/src\xmc_usbd.c ****   if(obj->usbd_transfer_mode == XMC_USBD_USE_FIFO)
 584:C:/Users/Yushev/git/optiga-trust-qi/projects/xmc4700_relax_kit/common/Libraries/XMCLib/src\xmc_usbd.c ****   {
 585:C:/Users/Yushev/git/optiga-trust-qi/projects/xmc4700_relax_kit/common/Libraries/XMCLib/src\xmc_usbd.c ****     /* Clear Empty interrupt */
 586:C:/Users/Yushev/git/optiga-trust-qi/projects/xmc4700_relax_kit/common/Libraries/XMCLib/src\xmc_usbd.c ****     xmc_device.device_register->dtknqr4_fifoemptymsk = 0U;
 587:C:/Users/Yushev/git/optiga-trust-qi/projects/xmc4700_relax_kit/common/Libraries/XMCLib/src\xmc_usbd.c ****   }
 588:C:/Users/Yushev/git/optiga-trust-qi/projects/xmc4700_relax_kit/common/Libraries/XMCLib/src\xmc_usbd.c **** 
 589:C:/Users/Yushev/git/optiga-trust-qi/projects/xmc4700_relax_kit/common/Libraries/XMCLib/src\xmc_usbd.c ****   xmc_device.ep[0U].outInUse = 0U;
 590:C:/Users/Yushev/git/optiga-trust-qi/projects/xmc4700_relax_kit/common/Libraries/XMCLib/src\xmc_usbd.c ****   xmc_device.ep[0U].inInUse = 0U;
 591:C:/Users/Yushev/git/optiga-trust-qi/projects/xmc4700_relax_kit/common/Libraries/XMCLib/src\xmc_usbd.c **** 
 592:C:/Users/Yushev/git/optiga-trust-qi/projects/xmc4700_relax_kit/common/Libraries/XMCLib/src\xmc_usbd.c ****   xmc_device.DeviceEvent_cb(XMC_USBD_EVENT_RESET);
 593:C:/Users/Yushev/git/optiga-trust-qi/projects/xmc4700_relax_kit/common/Libraries/XMCLib/src\xmc_usbd.c **** 
 594:C:/Users/Yushev/git/optiga-trust-qi/projects/xmc4700_relax_kit/common/Libraries/XMCLib/src\xmc_usbd.c ****   /* clear reset intr */
 595:C:/Users/Yushev/git/optiga-trust-qi/projects/xmc4700_relax_kit/common/Libraries/XMCLib/src\xmc_usbd.c ****   XMC_USBD_ClearEvent(XMC_USBD_EVENT_RESET);
 596:C:/Users/Yushev/git/optiga-trust-qi/projects/xmc4700_relax_kit/common/Libraries/XMCLib/src\xmc_usbd.c **** }
 597:C:/Users/Yushev/git/optiga-trust-qi/projects/xmc4700_relax_kit/common/Libraries/XMCLib/src\xmc_usbd.c **** 
 598:C:/Users/Yushev/git/optiga-trust-qi/projects/xmc4700_relax_kit/common/Libraries/XMCLib/src\xmc_usbd.c **** /**
 599:C:/Users/Yushev/git/optiga-trust-qi/projects/xmc4700_relax_kit/common/Libraries/XMCLib/src\xmc_usbd.c **** * @brief Handle OTG Interrupt
 600:C:/Users/Yushev/git/optiga-trust-qi/projects/xmc4700_relax_kit/common/Libraries/XMCLib/src\xmc_usbd.c **** *
 601:C:/Users/Yushev/git/optiga-trust-qi/projects/xmc4700_relax_kit/common/Libraries/XMCLib/src\xmc_usbd.c **** * It detects especially connect and disconnect events.
 602:C:/Users/Yushev/git/optiga-trust-qi/projects/xmc4700_relax_kit/common/Libraries/XMCLib/src\xmc_usbd.c **** */
 603:C:/Users/Yushev/git/optiga-trust-qi/projects/xmc4700_relax_kit/common/Libraries/XMCLib/src\xmc_usbd.c **** static void XMC_USBD_lHandleOTGInt(void) 
 604:C:/Users/Yushev/git/optiga-trust-qi/projects/xmc4700_relax_kit/common/Libraries/XMCLib/src\xmc_usbd.c **** {
 605:C:/Users/Yushev/git/optiga-trust-qi/projects/xmc4700_relax_kit/common/Libraries/XMCLib/src\xmc_usbd.c ****   gotgint_data_t data;
 606:C:/Users/Yushev/git/optiga-trust-qi/projects/xmc4700_relax_kit/common/Libraries/XMCLib/src\xmc_usbd.c ****   data.d32 = xmc_device.global_register->gotgint;
 607:C:/Users/Yushev/git/optiga-trust-qi/projects/xmc4700_relax_kit/common/Libraries/XMCLib/src\xmc_usbd.c ****   if (data.b.sesenddet)
 608:C:/Users/Yushev/git/optiga-trust-qi/projects/xmc4700_relax_kit/common/Libraries/XMCLib/src\xmc_usbd.c ****   {
 609:C:/Users/Yushev/git/optiga-trust-qi/projects/xmc4700_relax_kit/common/Libraries/XMCLib/src\xmc_usbd.c **** 		xmc_device.IsPowered = 0U;
 610:C:/Users/Yushev/git/optiga-trust-qi/projects/xmc4700_relax_kit/common/Libraries/XMCLib/src\xmc_usbd.c **** 		xmc_device.DeviceEvent_cb(XMC_USBD_EVENT_POWER_OFF);
 611:C:/Users/Yushev/git/optiga-trust-qi/projects/xmc4700_relax_kit/common/Libraries/XMCLib/src\xmc_usbd.c ****   }
 612:C:/Users/Yushev/git/optiga-trust-qi/projects/xmc4700_relax_kit/common/Libraries/XMCLib/src\xmc_usbd.c ****   XMC_USBD_lClearEventOTG(data.d32);
 613:C:/Users/Yushev/git/optiga-trust-qi/projects/xmc4700_relax_kit/common/Libraries/XMCLib/src\xmc_usbd.c **** 
 614:C:/Users/Yushev/git/optiga-trust-qi/projects/xmc4700_relax_kit/common/Libraries/XMCLib/src\xmc_usbd.c **** }
 615:C:/Users/Yushev/git/optiga-trust-qi/projects/xmc4700_relax_kit/common/Libraries/XMCLib/src\xmc_usbd.c **** 
 616:C:/Users/Yushev/git/optiga-trust-qi/projects/xmc4700_relax_kit/common/Libraries/XMCLib/src\xmc_usbd.c **** /**
 617:C:/Users/Yushev/git/optiga-trust-qi/projects/xmc4700_relax_kit/common/Libraries/XMCLib/src\xmc_usbd.c ****  * @brief Interrupt handler for device enumeration done.
 618:C:/Users/Yushev/git/optiga-trust-qi/projects/xmc4700_relax_kit/common/Libraries/XMCLib/src\xmc_usbd.c ****  *
 619:C:/Users/Yushev/git/optiga-trust-qi/projects/xmc4700_relax_kit/common/Libraries/XMCLib/src\xmc_usbd.c ****  * Handles the enumeration done from dwc_otg, when the host has enumerated the device.
 620:C:/Users/Yushev/git/optiga-trust-qi/projects/xmc4700_relax_kit/common/Libraries/XMCLib/src\xmc_usbd.c ****  */
 621:C:/Users/Yushev/git/optiga-trust-qi/projects/xmc4700_relax_kit/common/Libraries/XMCLib/src\xmc_usbd.c **** static void XMC_USBD_lHandleEnumDone(void) 
 622:C:/Users/Yushev/git/optiga-trust-qi/projects/xmc4700_relax_kit/common/Libraries/XMCLib/src\xmc_usbd.c **** {
 623:C:/Users/Yushev/git/optiga-trust-qi/projects/xmc4700_relax_kit/common/Libraries/XMCLib/src\xmc_usbd.c ****   /* Normaly we need to check dctl
 624:C:/Users/Yushev/git/optiga-trust-qi/projects/xmc4700_relax_kit/common/Libraries/XMCLib/src\xmc_usbd.c ****    * We are always fullspeed, so max it up. */
 625:C:/Users/Yushev/git/optiga-trust-qi/projects/xmc4700_relax_kit/common/Libraries/XMCLib/src\xmc_usbd.c ****   depctl_data_t epctl;
 626:C:/Users/Yushev/git/optiga-trust-qi/projects/xmc4700_relax_kit/common/Libraries/XMCLib/src\xmc_usbd.c ****   gusbcfg_data_t gusbcfg;
 627:C:/Users/Yushev/git/optiga-trust-qi/projects/xmc4700_relax_kit/common/Libraries/XMCLib/src\xmc_usbd.c **** 	
 628:C:/Users/Yushev/git/optiga-trust-qi/projects/xmc4700_relax_kit/common/Libraries/XMCLib/src\xmc_usbd.c ****   epctl.d32=xmc_device.endpoint_in_register[0U]->diepctl;
 629:C:/Users/Yushev/git/optiga-trust-qi/projects/xmc4700_relax_kit/common/Libraries/XMCLib/src\xmc_usbd.c ****   epctl.b.mps = 0x00U; /* 64 Byte, this is also automatically set for out ep */
 630:C:/Users/Yushev/git/optiga-trust-qi/projects/xmc4700_relax_kit/common/Libraries/XMCLib/src\xmc_usbd.c ****   xmc_device.endpoint_in_register[0U]->diepctl = epctl.d32;
 631:C:/Users/Yushev/git/optiga-trust-qi/projects/xmc4700_relax_kit/common/Libraries/XMCLib/src\xmc_usbd.c **** 
 632:C:/Users/Yushev/git/optiga-trust-qi/projects/xmc4700_relax_kit/common/Libraries/XMCLib/src\xmc_usbd.c ****   /* update device connected flag */
 633:C:/Users/Yushev/git/optiga-trust-qi/projects/xmc4700_relax_kit/common/Libraries/XMCLib/src\xmc_usbd.c ****   xmc_device.IsConnected = 1U;
 634:C:/Users/Yushev/git/optiga-trust-qi/projects/xmc4700_relax_kit/common/Libraries/XMCLib/src\xmc_usbd.c ****   xmc_device.IsPowered = 1U;
 635:C:/Users/Yushev/git/optiga-trust-qi/projects/xmc4700_relax_kit/common/Libraries/XMCLib/src\xmc_usbd.c **** 
 636:C:/Users/Yushev/git/optiga-trust-qi/projects/xmc4700_relax_kit/common/Libraries/XMCLib/src\xmc_usbd.c ****   xmc_device.DeviceEvent_cb(XMC_USBD_EVENT_CONNECT);
 637:C:/Users/Yushev/git/optiga-trust-qi/projects/xmc4700_relax_kit/common/Libraries/XMCLib/src\xmc_usbd.c **** 
 638:C:/Users/Yushev/git/optiga-trust-qi/projects/xmc4700_relax_kit/common/Libraries/XMCLib/src\xmc_usbd.c ****   /* Set Trim */  
 639:C:/Users/Yushev/git/optiga-trust-qi/projects/xmc4700_relax_kit/common/Libraries/XMCLib/src\xmc_usbd.c ****   gusbcfg.d32 = xmc_device.global_register->gusbcfg;
 640:C:/Users/Yushev/git/optiga-trust-qi/projects/xmc4700_relax_kit/common/Libraries/XMCLib/src\xmc_usbd.c ****   gusbcfg.b.usbtrdtim = 9U; /* default value for LS/FS */
 641:C:/Users/Yushev/git/optiga-trust-qi/projects/xmc4700_relax_kit/common/Libraries/XMCLib/src\xmc_usbd.c ****   xmc_device.global_register->gusbcfg = gusbcfg.d32;
 642:C:/Users/Yushev/git/optiga-trust-qi/projects/xmc4700_relax_kit/common/Libraries/XMCLib/src\xmc_usbd.c **** 
 643:C:/Users/Yushev/git/optiga-trust-qi/projects/xmc4700_relax_kit/common/Libraries/XMCLib/src\xmc_usbd.c ****   /* clear interrupt */
 644:C:/Users/Yushev/git/optiga-trust-qi/projects/xmc4700_relax_kit/common/Libraries/XMCLib/src\xmc_usbd.c ****   XMC_USBD_ClearEvent(XMC_USBD_EVENT_ENUMDONE);
 645:C:/Users/Yushev/git/optiga-trust-qi/projects/xmc4700_relax_kit/common/Libraries/XMCLib/src\xmc_usbd.c **** }
 646:C:/Users/Yushev/git/optiga-trust-qi/projects/xmc4700_relax_kit/common/Libraries/XMCLib/src\xmc_usbd.c **** 
 647:C:/Users/Yushev/git/optiga-trust-qi/projects/xmc4700_relax_kit/common/Libraries/XMCLib/src\xmc_usbd.c **** 
 648:C:/Users/Yushev/git/optiga-trust-qi/projects/xmc4700_relax_kit/common/Libraries/XMCLib/src\xmc_usbd.c **** /**
 649:C:/Users/Yushev/git/optiga-trust-qi/projects/xmc4700_relax_kit/common/Libraries/XMCLib/src\xmc_usbd.c ****  * @brief Handles all interrupts for all out endpoints
 650:C:/Users/Yushev/git/optiga-trust-qi/projects/xmc4700_relax_kit/common/Libraries/XMCLib/src\xmc_usbd.c ****  *
 651:C:/Users/Yushev/git/optiga-trust-qi/projects/xmc4700_relax_kit/common/Libraries/XMCLib/src\xmc_usbd.c ****  * The interrupt handler first checks, which endpoint has caused the interrupt and then
 652:C:/Users/Yushev/git/optiga-trust-qi/projects/xmc4700_relax_kit/common/Libraries/XMCLib/src\xmc_usbd.c ****  * determines, which interrupt should be handled.
 653:C:/Users/Yushev/git/optiga-trust-qi/projects/xmc4700_relax_kit/common/Libraries/XMCLib/src\xmc_usbd.c ****  */
 654:C:/Users/Yushev/git/optiga-trust-qi/projects/xmc4700_relax_kit/common/Libraries/XMCLib/src\xmc_usbd.c **** static void XMC_USBD_lHandleOEPInt(const XMC_USBD_t *const obj) 
 655:C:/Users/Yushev/git/optiga-trust-qi/projects/xmc4700_relax_kit/common/Libraries/XMCLib/src\xmc_usbd.c **** {
 656:C:/Users/Yushev/git/optiga-trust-qi/projects/xmc4700_relax_kit/common/Libraries/XMCLib/src\xmc_usbd.c ****   daint_data_t daint;
 657:C:/Users/Yushev/git/optiga-trust-qi/projects/xmc4700_relax_kit/common/Libraries/XMCLib/src\xmc_usbd.c ****   daint_data_t daintmsk;
 658:C:/Users/Yushev/git/optiga-trust-qi/projects/xmc4700_relax_kit/common/Libraries/XMCLib/src\xmc_usbd.c ****   doepmsk_data_t doepmsk;
 659:C:/Users/Yushev/git/optiga-trust-qi/projects/xmc4700_relax_kit/common/Libraries/XMCLib/src\xmc_usbd.c ****   doepint_data_t doepint;
 660:C:/Users/Yushev/git/optiga-trust-qi/projects/xmc4700_relax_kit/common/Libraries/XMCLib/src\xmc_usbd.c ****   deptsiz_data_t doeptsiz;
 661:C:/Users/Yushev/git/optiga-trust-qi/projects/xmc4700_relax_kit/common/Libraries/XMCLib/src\xmc_usbd.c ****   XMC_USBD_EP_t *ep;
 662:C:/Users/Yushev/git/optiga-trust-qi/projects/xmc4700_relax_kit/common/Libraries/XMCLib/src\xmc_usbd.c ****   uint16_t temp;
 663:C:/Users/Yushev/git/optiga-trust-qi/projects/xmc4700_relax_kit/common/Libraries/XMCLib/src\xmc_usbd.c ****   uint16_t temp1;
 664:C:/Users/Yushev/git/optiga-trust-qi/projects/xmc4700_relax_kit/common/Libraries/XMCLib/src\xmc_usbd.c ****   uint16_t mask;
 665:C:/Users/Yushev/git/optiga-trust-qi/projects/xmc4700_relax_kit/common/Libraries/XMCLib/src\xmc_usbd.c ****   uint8_t ep_num;
 666:C:/Users/Yushev/git/optiga-trust-qi/projects/xmc4700_relax_kit/common/Libraries/XMCLib/src\xmc_usbd.c **** 	
 667:C:/Users/Yushev/git/optiga-trust-qi/projects/xmc4700_relax_kit/common/Libraries/XMCLib/src\xmc_usbd.c ****   daint.d32 = xmc_device.device_register->daint;
 668:C:/Users/Yushev/git/optiga-trust-qi/projects/xmc4700_relax_kit/common/Libraries/XMCLib/src\xmc_usbd.c ****   
 669:C:/Users/Yushev/git/optiga-trust-qi/projects/xmc4700_relax_kit/common/Libraries/XMCLib/src\xmc_usbd.c ****   daintmsk.d32 = xmc_device.device_register->daintmsk;
 670:C:/Users/Yushev/git/optiga-trust-qi/projects/xmc4700_relax_kit/common/Libraries/XMCLib/src\xmc_usbd.c ****   
 671:C:/Users/Yushev/git/optiga-trust-qi/projects/xmc4700_relax_kit/common/Libraries/XMCLib/src\xmc_usbd.c ****   doepmsk.d32 = xmc_device.device_register->doepmsk;  
 672:C:/Users/Yushev/git/optiga-trust-qi/projects/xmc4700_relax_kit/common/Libraries/XMCLib/src\xmc_usbd.c ****   
 673:C:/Users/Yushev/git/optiga-trust-qi/projects/xmc4700_relax_kit/common/Libraries/XMCLib/src\xmc_usbd.c ****   mask = daint.ep.out & daintmsk.ep.out;
 674:C:/Users/Yushev/git/optiga-trust-qi/projects/xmc4700_relax_kit/common/Libraries/XMCLib/src\xmc_usbd.c ****   ep_num = 0U;
 675:C:/Users/Yushev/git/optiga-trust-qi/projects/xmc4700_relax_kit/common/Libraries/XMCLib/src\xmc_usbd.c ****   doeptsiz.d32 = 0U;
 676:C:/Users/Yushev/git/optiga-trust-qi/projects/xmc4700_relax_kit/common/Libraries/XMCLib/src\xmc_usbd.c ****  
 677:C:/Users/Yushev/git/optiga-trust-qi/projects/xmc4700_relax_kit/common/Libraries/XMCLib/src\xmc_usbd.c ****   while ((uint16_t)mask >> ep_num)
 678:C:/Users/Yushev/git/optiga-trust-qi/projects/xmc4700_relax_kit/common/Libraries/XMCLib/src\xmc_usbd.c ****   {
 679:C:/Users/Yushev/git/optiga-trust-qi/projects/xmc4700_relax_kit/common/Libraries/XMCLib/src\xmc_usbd.c ****     temp1 = (mask >> (uint16_t)ep_num);
 680:C:/Users/Yushev/git/optiga-trust-qi/projects/xmc4700_relax_kit/common/Libraries/XMCLib/src\xmc_usbd.c ****     temp = temp1 & 0x1U;
 681:C:/Users/Yushev/git/optiga-trust-qi/projects/xmc4700_relax_kit/common/Libraries/XMCLib/src\xmc_usbd.c ****     if (temp)
 682:C:/Users/Yushev/git/optiga-trust-qi/projects/xmc4700_relax_kit/common/Libraries/XMCLib/src\xmc_usbd.c ****     {
 683:C:/Users/Yushev/git/optiga-trust-qi/projects/xmc4700_relax_kit/common/Libraries/XMCLib/src\xmc_usbd.c ****       /* load register data for endpoint */
 684:C:/Users/Yushev/git/optiga-trust-qi/projects/xmc4700_relax_kit/common/Libraries/XMCLib/src\xmc_usbd.c ****       ep = &xmc_device.ep[ep_num];
 685:C:/Users/Yushev/git/optiga-trust-qi/projects/xmc4700_relax_kit/common/Libraries/XMCLib/src\xmc_usbd.c ****       doepint.d32 = xmc_device.endpoint_out_register[ep_num]->doepint & doepmsk.d32;
 686:C:/Users/Yushev/git/optiga-trust-qi/projects/xmc4700_relax_kit/common/Libraries/XMCLib/src\xmc_usbd.c ****       if(obj->usbd_transfer_mode == XMC_USBD_USE_DMA)
 687:C:/Users/Yushev/git/optiga-trust-qi/projects/xmc4700_relax_kit/common/Libraries/XMCLib/src\xmc_usbd.c ****       {
 688:C:/Users/Yushev/git/optiga-trust-qi/projects/xmc4700_relax_kit/common/Libraries/XMCLib/src\xmc_usbd.c ****         doeptsiz.d32 = xmc_device.endpoint_out_register[ep_num]->doeptsiz;
 689:C:/Users/Yushev/git/optiga-trust-qi/projects/xmc4700_relax_kit/common/Libraries/XMCLib/src\xmc_usbd.c ****       }
 690:C:/Users/Yushev/git/optiga-trust-qi/projects/xmc4700_relax_kit/common/Libraries/XMCLib/src\xmc_usbd.c **** 	  /* Setup Phase Complete */
 691:C:/Users/Yushev/git/optiga-trust-qi/projects/xmc4700_relax_kit/common/Libraries/XMCLib/src\xmc_usbd.c ****       if (doepint.b.setup)
 692:C:/Users/Yushev/git/optiga-trust-qi/projects/xmc4700_relax_kit/common/Libraries/XMCLib/src\xmc_usbd.c ****       {
 693:C:/Users/Yushev/git/optiga-trust-qi/projects/xmc4700_relax_kit/common/Libraries/XMCLib/src\xmc_usbd.c ****         /* ep0 not stalled any more */
 694:C:/Users/Yushev/git/optiga-trust-qi/projects/xmc4700_relax_kit/common/Libraries/XMCLib/src\xmc_usbd.c ****         ep->isStalled = 0U;
 695:C:/Users/Yushev/git/optiga-trust-qi/projects/xmc4700_relax_kit/common/Libraries/XMCLib/src\xmc_usbd.c ****         if(obj->usbd_transfer_mode == XMC_USBD_USE_DMA)
 696:C:/Users/Yushev/git/optiga-trust-qi/projects/xmc4700_relax_kit/common/Libraries/XMCLib/src\xmc_usbd.c ****         {
 697:C:/Users/Yushev/git/optiga-trust-qi/projects/xmc4700_relax_kit/common/Libraries/XMCLib/src\xmc_usbd.c ****           /* calculate size for setup packet */
 698:C:/Users/Yushev/git/optiga-trust-qi/projects/xmc4700_relax_kit/common/Libraries/XMCLib/src\xmc_usbd.c **** 		  ep->outBytesAvailable = (uint32_t)(((uint32_t)XMC_USBD_SETUP_COUNT -
 699:C:/Users/Yushev/git/optiga-trust-qi/projects/xmc4700_relax_kit/common/Libraries/XMCLib/src\xmc_usbd.c **** 		  (uint32_t)((deptsiz0_data_t*)&doeptsiz)->b.supcnt)*(uint32_t)XMC_USBD_SETUP_SIZE);
 700:C:/Users/Yushev/git/optiga-trust-qi/projects/xmc4700_relax_kit/common/Libraries/XMCLib/src\xmc_usbd.c ****         }
 701:C:/Users/Yushev/git/optiga-trust-qi/projects/xmc4700_relax_kit/common/Libraries/XMCLib/src\xmc_usbd.c **** 		if(obj->usbd_transfer_mode == XMC_USBD_USE_FIFO)
 702:C:/Users/Yushev/git/optiga-trust-qi/projects/xmc4700_relax_kit/common/Libraries/XMCLib/src\xmc_usbd.c **** 		{
 703:C:/Users/Yushev/git/optiga-trust-qi/projects/xmc4700_relax_kit/common/Libraries/XMCLib/src\xmc_usbd.c **** 			ep->outBytesAvailable += ep->xferCount;
 704:C:/Users/Yushev/git/optiga-trust-qi/projects/xmc4700_relax_kit/common/Libraries/XMCLib/src\xmc_usbd.c **** 		}
 705:C:/Users/Yushev/git/optiga-trust-qi/projects/xmc4700_relax_kit/common/Libraries/XMCLib/src\xmc_usbd.c **** 		ep->outInUse = 0U;
 706:C:/Users/Yushev/git/optiga-trust-qi/projects/xmc4700_relax_kit/common/Libraries/XMCLib/src\xmc_usbd.c **** 		xmc_device.EndpointEvent_cb(0U,XMC_USBD_EP_EVENT_SETUP); /* signal endpoint event */
 707:C:/Users/Yushev/git/optiga-trust-qi/projects/xmc4700_relax_kit/common/Libraries/XMCLib/src\xmc_usbd.c **** 				/* clear the interrupt */
 708:C:/Users/Yushev/git/optiga-trust-qi/projects/xmc4700_relax_kit/common/Libraries/XMCLib/src\xmc_usbd.c **** 		XMC_USBD_ClearEventOUTEP((uint32_t)XMC_USBD_EVENT_OUT_EP_SETUP,ep_num);
 709:C:/Users/Yushev/git/optiga-trust-qi/projects/xmc4700_relax_kit/common/Libraries/XMCLib/src\xmc_usbd.c ****       }
 710:C:/Users/Yushev/git/optiga-trust-qi/projects/xmc4700_relax_kit/common/Libraries/XMCLib/src\xmc_usbd.c ****       if (doepint.b.xfercompl)
 711:C:/Users/Yushev/git/optiga-trust-qi/projects/xmc4700_relax_kit/common/Libraries/XMCLib/src\xmc_usbd.c ****       {
 712:C:/Users/Yushev/git/optiga-trust-qi/projects/xmc4700_relax_kit/common/Libraries/XMCLib/src\xmc_usbd.c ****         if(obj->usbd_transfer_mode == XMC_USBD_USE_DMA)
 713:C:/Users/Yushev/git/optiga-trust-qi/projects/xmc4700_relax_kit/common/Libraries/XMCLib/src\xmc_usbd.c ****         {
 714:C:/Users/Yushev/git/optiga-trust-qi/projects/xmc4700_relax_kit/common/Libraries/XMCLib/src\xmc_usbd.c ****           uint32_t bytes = (ep->xferLength - ep->xferCount) - doeptsiz.b.xfersize;
 715:C:/Users/Yushev/git/optiga-trust-qi/projects/xmc4700_relax_kit/common/Libraries/XMCLib/src\xmc_usbd.c ****           ep->xferCount += bytes;
 716:C:/Users/Yushev/git/optiga-trust-qi/projects/xmc4700_relax_kit/common/Libraries/XMCLib/src\xmc_usbd.c ****           ep->xferBuffer += bytes;
 717:C:/Users/Yushev/git/optiga-trust-qi/projects/xmc4700_relax_kit/common/Libraries/XMCLib/src\xmc_usbd.c **** 				}
 718:C:/Users/Yushev/git/optiga-trust-qi/projects/xmc4700_relax_kit/common/Libraries/XMCLib/src\xmc_usbd.c ****         if (ep->xferTotal == ep->xferLength)
 719:C:/Users/Yushev/git/optiga-trust-qi/projects/xmc4700_relax_kit/common/Libraries/XMCLib/src\xmc_usbd.c ****         {
 720:C:/Users/Yushev/git/optiga-trust-qi/projects/xmc4700_relax_kit/common/Libraries/XMCLib/src\xmc_usbd.c ****           ep->outBytesAvailable = ep->xferCount;
 721:C:/Users/Yushev/git/optiga-trust-qi/projects/xmc4700_relax_kit/common/Libraries/XMCLib/src\xmc_usbd.c ****           ep->outInUse = 0U;
 722:C:/Users/Yushev/git/optiga-trust-qi/projects/xmc4700_relax_kit/common/Libraries/XMCLib/src\xmc_usbd.c ****           xmc_device.EndpointEvent_cb(ep_num,XMC_USBD_EP_EVENT_OUT);
 723:C:/Users/Yushev/git/optiga-trust-qi/projects/xmc4700_relax_kit/common/Libraries/XMCLib/src\xmc_usbd.c ****         }
 724:C:/Users/Yushev/git/optiga-trust-qi/projects/xmc4700_relax_kit/common/Libraries/XMCLib/src\xmc_usbd.c ****         else
 725:C:/Users/Yushev/git/optiga-trust-qi/projects/xmc4700_relax_kit/common/Libraries/XMCLib/src\xmc_usbd.c ****         {
 726:C:/Users/Yushev/git/optiga-trust-qi/projects/xmc4700_relax_kit/common/Libraries/XMCLib/src\xmc_usbd.c ****           XMC_USBD_lStartReadXfer(ep);
 727:C:/Users/Yushev/git/optiga-trust-qi/projects/xmc4700_relax_kit/common/Libraries/XMCLib/src\xmc_usbd.c ****         }
 728:C:/Users/Yushev/git/optiga-trust-qi/projects/xmc4700_relax_kit/common/Libraries/XMCLib/src\xmc_usbd.c **** 
 729:C:/Users/Yushev/git/optiga-trust-qi/projects/xmc4700_relax_kit/common/Libraries/XMCLib/src\xmc_usbd.c ****       }
 730:C:/Users/Yushev/git/optiga-trust-qi/projects/xmc4700_relax_kit/common/Libraries/XMCLib/src\xmc_usbd.c **** 
 731:C:/Users/Yushev/git/optiga-trust-qi/projects/xmc4700_relax_kit/common/Libraries/XMCLib/src\xmc_usbd.c ****       XMC_USBD_ClearEventOUTEP(doepint.d32,ep_num);
 732:C:/Users/Yushev/git/optiga-trust-qi/projects/xmc4700_relax_kit/common/Libraries/XMCLib/src\xmc_usbd.c ****     }
 733:C:/Users/Yushev/git/optiga-trust-qi/projects/xmc4700_relax_kit/common/Libraries/XMCLib/src\xmc_usbd.c ****     ep_num++;
 734:C:/Users/Yushev/git/optiga-trust-qi/projects/xmc4700_relax_kit/common/Libraries/XMCLib/src\xmc_usbd.c ****   }
 735:C:/Users/Yushev/git/optiga-trust-qi/projects/xmc4700_relax_kit/common/Libraries/XMCLib/src\xmc_usbd.c **** 
 736:C:/Users/Yushev/git/optiga-trust-qi/projects/xmc4700_relax_kit/common/Libraries/XMCLib/src\xmc_usbd.c ****   /* clear interrupt */
 737:C:/Users/Yushev/git/optiga-trust-qi/projects/xmc4700_relax_kit/common/Libraries/XMCLib/src\xmc_usbd.c ****   XMC_USBD_ClearEvent(XMC_USBD_EVENT_OUTEP);
 738:C:/Users/Yushev/git/optiga-trust-qi/projects/xmc4700_relax_kit/common/Libraries/XMCLib/src\xmc_usbd.c **** }
 739:C:/Users/Yushev/git/optiga-trust-qi/projects/xmc4700_relax_kit/common/Libraries/XMCLib/src\xmc_usbd.c **** 
 740:C:/Users/Yushev/git/optiga-trust-qi/projects/xmc4700_relax_kit/common/Libraries/XMCLib/src\xmc_usbd.c **** /**
 741:C:/Users/Yushev/git/optiga-trust-qi/projects/xmc4700_relax_kit/common/Libraries/XMCLib/src\xmc_usbd.c ****  * @brief Handles all interrupts for all in endpoints
 742:C:/Users/Yushev/git/optiga-trust-qi/projects/xmc4700_relax_kit/common/Libraries/XMCLib/src\xmc_usbd.c ****  *
 743:C:/Users/Yushev/git/optiga-trust-qi/projects/xmc4700_relax_kit/common/Libraries/XMCLib/src\xmc_usbd.c ****  * The interrupt handler first checks, which endpoint has caused the interrupt and then
 744:C:/Users/Yushev/git/optiga-trust-qi/projects/xmc4700_relax_kit/common/Libraries/XMCLib/src\xmc_usbd.c ****  * determines, which interrupt should be handled.
 745:C:/Users/Yushev/git/optiga-trust-qi/projects/xmc4700_relax_kit/common/Libraries/XMCLib/src\xmc_usbd.c ****  */
 746:C:/Users/Yushev/git/optiga-trust-qi/projects/xmc4700_relax_kit/common/Libraries/XMCLib/src\xmc_usbd.c **** static void XMC_USBD_lHandleIEPInt(const XMC_USBD_t *const obj) 
 747:C:/Users/Yushev/git/optiga-trust-qi/projects/xmc4700_relax_kit/common/Libraries/XMCLib/src\xmc_usbd.c **** {
 748:C:/Users/Yushev/git/optiga-trust-qi/projects/xmc4700_relax_kit/common/Libraries/XMCLib/src\xmc_usbd.c ****   XMC_USBD_EP_t *ep;
 749:C:/Users/Yushev/git/optiga-trust-qi/projects/xmc4700_relax_kit/common/Libraries/XMCLib/src\xmc_usbd.c ****   daint_data_t daint;
 750:C:/Users/Yushev/git/optiga-trust-qi/projects/xmc4700_relax_kit/common/Libraries/XMCLib/src\xmc_usbd.c ****   diepmsk_data_t diepmsk;
 751:C:/Users/Yushev/git/optiga-trust-qi/projects/xmc4700_relax_kit/common/Libraries/XMCLib/src\xmc_usbd.c ****   diepint_data_t diepint;
 752:C:/Users/Yushev/git/optiga-trust-qi/projects/xmc4700_relax_kit/common/Libraries/XMCLib/src\xmc_usbd.c ****   deptsiz_data_t dieptsiz;
 753:C:/Users/Yushev/git/optiga-trust-qi/projects/xmc4700_relax_kit/common/Libraries/XMCLib/src\xmc_usbd.c ****   uint16_t temp;
 754:C:/Users/Yushev/git/optiga-trust-qi/projects/xmc4700_relax_kit/common/Libraries/XMCLib/src\xmc_usbd.c ****   uint16_t temp1;
 755:C:/Users/Yushev/git/optiga-trust-qi/projects/xmc4700_relax_kit/common/Libraries/XMCLib/src\xmc_usbd.c ****   uint16_t mask;
 756:C:/Users/Yushev/git/optiga-trust-qi/projects/xmc4700_relax_kit/common/Libraries/XMCLib/src\xmc_usbd.c ****   uint8_t ep_num;
 757:C:/Users/Yushev/git/optiga-trust-qi/projects/xmc4700_relax_kit/common/Libraries/XMCLib/src\xmc_usbd.c ****   uint32_t inepint;
 758:C:/Users/Yushev/git/optiga-trust-qi/projects/xmc4700_relax_kit/common/Libraries/XMCLib/src\xmc_usbd.c **** 	
 759:C:/Users/Yushev/git/optiga-trust-qi/projects/xmc4700_relax_kit/common/Libraries/XMCLib/src\xmc_usbd.c ****   daint.d32 = xmc_device.device_register->daint;
 760:C:/Users/Yushev/git/optiga-trust-qi/projects/xmc4700_relax_kit/common/Libraries/XMCLib/src\xmc_usbd.c ****   
 761:C:/Users/Yushev/git/optiga-trust-qi/projects/xmc4700_relax_kit/common/Libraries/XMCLib/src\xmc_usbd.c ****   diepmsk.d32 = xmc_device.device_register->diepmsk;
 762:C:/Users/Yushev/git/optiga-trust-qi/projects/xmc4700_relax_kit/common/Libraries/XMCLib/src\xmc_usbd.c ****   
 763:C:/Users/Yushev/git/optiga-trust-qi/projects/xmc4700_relax_kit/common/Libraries/XMCLib/src\xmc_usbd.c ****   dieptsiz.d32 = 0U;
 764:C:/Users/Yushev/git/optiga-trust-qi/projects/xmc4700_relax_kit/common/Libraries/XMCLib/src\xmc_usbd.c ****   mask = daint.ep.in;
 765:C:/Users/Yushev/git/optiga-trust-qi/projects/xmc4700_relax_kit/common/Libraries/XMCLib/src\xmc_usbd.c ****   ep_num = 0U;
 766:C:/Users/Yushev/git/optiga-trust-qi/projects/xmc4700_relax_kit/common/Libraries/XMCLib/src\xmc_usbd.c ****   
 767:C:/Users/Yushev/git/optiga-trust-qi/projects/xmc4700_relax_kit/common/Libraries/XMCLib/src\xmc_usbd.c ****   while ((uint16_t)mask >> ep_num)
 768:C:/Users/Yushev/git/optiga-trust-qi/projects/xmc4700_relax_kit/common/Libraries/XMCLib/src\xmc_usbd.c ****   {
 769:C:/Users/Yushev/git/optiga-trust-qi/projects/xmc4700_relax_kit/common/Libraries/XMCLib/src\xmc_usbd.c ****     temp1 = ((uint16_t)mask >> (uint16_t)ep_num);
 770:C:/Users/Yushev/git/optiga-trust-qi/projects/xmc4700_relax_kit/common/Libraries/XMCLib/src\xmc_usbd.c ****     temp = (uint16_t)temp1 & (uint16_t)0x1U;
 771:C:/Users/Yushev/git/optiga-trust-qi/projects/xmc4700_relax_kit/common/Libraries/XMCLib/src\xmc_usbd.c ****     if ((uint16_t)temp)
 772:C:/Users/Yushev/git/optiga-trust-qi/projects/xmc4700_relax_kit/common/Libraries/XMCLib/src\xmc_usbd.c ****     {
 773:C:/Users/Yushev/git/optiga-trust-qi/projects/xmc4700_relax_kit/common/Libraries/XMCLib/src\xmc_usbd.c ****       ep = &xmc_device.ep[ep_num];
 774:C:/Users/Yushev/git/optiga-trust-qi/projects/xmc4700_relax_kit/common/Libraries/XMCLib/src\xmc_usbd.c **** 			inepint = (uint32_t)xmc_device.endpoint_in_register[ep_num]->diepint;
 775:C:/Users/Yushev/git/optiga-trust-qi/projects/xmc4700_relax_kit/common/Libraries/XMCLib/src\xmc_usbd.c ****       diepint.d32 = inepint &
 776:C:/Users/Yushev/git/optiga-trust-qi/projects/xmc4700_relax_kit/common/Libraries/XMCLib/src\xmc_usbd.c ****       ((((uint32_t)((uint32_t)xmc_device.device_register->dtknqr4_fifoemptymsk >> ep->address_u.add
 777:C:/Users/Yushev/git/optiga-trust-qi/projects/xmc4700_relax_kit/common/Libraries/XMCLib/src\xmc_usbd.c ****                      0x1U) << 7U) | (uint32_t)diepmsk.d32);
 778:C:/Users/Yushev/git/optiga-trust-qi/projects/xmc4700_relax_kit/common/Libraries/XMCLib/src\xmc_usbd.c ****       if(obj->usbd_transfer_mode == XMC_USBD_USE_DMA)
 779:C:/Users/Yushev/git/optiga-trust-qi/projects/xmc4700_relax_kit/common/Libraries/XMCLib/src\xmc_usbd.c ****       {
 780:C:/Users/Yushev/git/optiga-trust-qi/projects/xmc4700_relax_kit/common/Libraries/XMCLib/src\xmc_usbd.c ****         dieptsiz.d32 = xmc_device.endpoint_in_register[ep_num]->dieptsiz;
 781:C:/Users/Yushev/git/optiga-trust-qi/projects/xmc4700_relax_kit/common/Libraries/XMCLib/src\xmc_usbd.c ****       }
 782:C:/Users/Yushev/git/optiga-trust-qi/projects/xmc4700_relax_kit/common/Libraries/XMCLib/src\xmc_usbd.c ****       if(obj->usbd_transfer_mode == XMC_USBD_USE_FIFO)
 783:C:/Users/Yushev/git/optiga-trust-qi/projects/xmc4700_relax_kit/common/Libraries/XMCLib/src\xmc_usbd.c ****       {
 784:C:/Users/Yushev/git/optiga-trust-qi/projects/xmc4700_relax_kit/common/Libraries/XMCLib/src\xmc_usbd.c ****         if (diepint.b.emptyintr)
 785:C:/Users/Yushev/git/optiga-trust-qi/projects/xmc4700_relax_kit/common/Libraries/XMCLib/src\xmc_usbd.c ****         {
 786:C:/Users/Yushev/git/optiga-trust-qi/projects/xmc4700_relax_kit/common/Libraries/XMCLib/src\xmc_usbd.c ****           uint32_t bytes;
 787:C:/Users/Yushev/git/optiga-trust-qi/projects/xmc4700_relax_kit/common/Libraries/XMCLib/src\xmc_usbd.c ****           bytes = XMC_USBD_lWriteFifo(ep);
 788:C:/Users/Yushev/git/optiga-trust-qi/projects/xmc4700_relax_kit/common/Libraries/XMCLib/src\xmc_usbd.c ****           ep->xferCount += bytes;
 789:C:/Users/Yushev/git/optiga-trust-qi/projects/xmc4700_relax_kit/common/Libraries/XMCLib/src\xmc_usbd.c ****           ep->xferBuffer += bytes;
 790:C:/Users/Yushev/git/optiga-trust-qi/projects/xmc4700_relax_kit/common/Libraries/XMCLib/src\xmc_usbd.c ****         }
 791:C:/Users/Yushev/git/optiga-trust-qi/projects/xmc4700_relax_kit/common/Libraries/XMCLib/src\xmc_usbd.c ****       }
 792:C:/Users/Yushev/git/optiga-trust-qi/projects/xmc4700_relax_kit/common/Libraries/XMCLib/src\xmc_usbd.c ****       if (diepint.b.xfercompl)
 793:C:/Users/Yushev/git/optiga-trust-qi/projects/xmc4700_relax_kit/common/Libraries/XMCLib/src\xmc_usbd.c ****       {
 794:C:/Users/Yushev/git/optiga-trust-qi/projects/xmc4700_relax_kit/common/Libraries/XMCLib/src\xmc_usbd.c ****         if(obj->usbd_transfer_mode == XMC_USBD_USE_DMA)
 795:C:/Users/Yushev/git/optiga-trust-qi/projects/xmc4700_relax_kit/common/Libraries/XMCLib/src\xmc_usbd.c ****         {
 796:C:/Users/Yushev/git/optiga-trust-qi/projects/xmc4700_relax_kit/common/Libraries/XMCLib/src\xmc_usbd.c ****           /* update xfer values */
 797:C:/Users/Yushev/git/optiga-trust-qi/projects/xmc4700_relax_kit/common/Libraries/XMCLib/src\xmc_usbd.c ****           if ((dieptsiz.b.pktcnt == 0U) && (dieptsiz.b.xfersize == 0U))
 798:C:/Users/Yushev/git/optiga-trust-qi/projects/xmc4700_relax_kit/common/Libraries/XMCLib/src\xmc_usbd.c ****           {
 799:C:/Users/Yushev/git/optiga-trust-qi/projects/xmc4700_relax_kit/common/Libraries/XMCLib/src\xmc_usbd.c ****             uint32_t Bytes = ep->xferLength - ep->xferCount;
 800:C:/Users/Yushev/git/optiga-trust-qi/projects/xmc4700_relax_kit/common/Libraries/XMCLib/src\xmc_usbd.c ****             ep->xferCount += Bytes;
 801:C:/Users/Yushev/git/optiga-trust-qi/projects/xmc4700_relax_kit/common/Libraries/XMCLib/src\xmc_usbd.c ****             ep->xferBuffer += Bytes;
 802:C:/Users/Yushev/git/optiga-trust-qi/projects/xmc4700_relax_kit/common/Libraries/XMCLib/src\xmc_usbd.c ****           }
 803:C:/Users/Yushev/git/optiga-trust-qi/projects/xmc4700_relax_kit/common/Libraries/XMCLib/src\xmc_usbd.c ****         }
 804:C:/Users/Yushev/git/optiga-trust-qi/projects/xmc4700_relax_kit/common/Libraries/XMCLib/src\xmc_usbd.c ****         if (ep->xferTotal==ep->xferLength)
 805:C:/Users/Yushev/git/optiga-trust-qi/projects/xmc4700_relax_kit/common/Libraries/XMCLib/src\xmc_usbd.c ****         {
 806:C:/Users/Yushev/git/optiga-trust-qi/projects/xmc4700_relax_kit/common/Libraries/XMCLib/src\xmc_usbd.c ****           ep->inInUse = 0U;
 807:C:/Users/Yushev/git/optiga-trust-qi/projects/xmc4700_relax_kit/common/Libraries/XMCLib/src\xmc_usbd.c ****           if(obj->usbd_transfer_mode == XMC_USBD_USE_FIFO)
 808:C:/Users/Yushev/git/optiga-trust-qi/projects/xmc4700_relax_kit/common/Libraries/XMCLib/src\xmc_usbd.c ****           {
 809:C:/Users/Yushev/git/optiga-trust-qi/projects/xmc4700_relax_kit/common/Libraries/XMCLib/src\xmc_usbd.c ****             /* mask fifo empty interrupt */
 810:C:/Users/Yushev/git/optiga-trust-qi/projects/xmc4700_relax_kit/common/Libraries/XMCLib/src\xmc_usbd.c ****             xmc_device.device_register->dtknqr4_fifoemptymsk =
 811:C:/Users/Yushev/git/optiga-trust-qi/projects/xmc4700_relax_kit/common/Libraries/XMCLib/src\xmc_usbd.c ****             (uint32_t)(xmc_device.device_register->dtknqr4_fifoemptymsk & ~(((uint32_t)1U << ep_num
 812:C:/Users/Yushev/git/optiga-trust-qi/projects/xmc4700_relax_kit/common/Libraries/XMCLib/src\xmc_usbd.c ****           }
 813:C:/Users/Yushev/git/optiga-trust-qi/projects/xmc4700_relax_kit/common/Libraries/XMCLib/src\xmc_usbd.c ****           xmc_device.EndpointEvent_cb(0x80U | ep_num,XMC_USBD_EP_EVENT_IN);
 814:C:/Users/Yushev/git/optiga-trust-qi/projects/xmc4700_relax_kit/common/Libraries/XMCLib/src\xmc_usbd.c ****         }
 815:C:/Users/Yushev/git/optiga-trust-qi/projects/xmc4700_relax_kit/common/Libraries/XMCLib/src\xmc_usbd.c ****         else
 816:C:/Users/Yushev/git/optiga-trust-qi/projects/xmc4700_relax_kit/common/Libraries/XMCLib/src\xmc_usbd.c ****         {
 817:C:/Users/Yushev/git/optiga-trust-qi/projects/xmc4700_relax_kit/common/Libraries/XMCLib/src\xmc_usbd.c ****           /* start next step of transfer */
 818:C:/Users/Yushev/git/optiga-trust-qi/projects/xmc4700_relax_kit/common/Libraries/XMCLib/src\xmc_usbd.c ****           XMC_USBD_lStartWriteXfer(ep);
 819:C:/Users/Yushev/git/optiga-trust-qi/projects/xmc4700_relax_kit/common/Libraries/XMCLib/src\xmc_usbd.c ****         }
 820:C:/Users/Yushev/git/optiga-trust-qi/projects/xmc4700_relax_kit/common/Libraries/XMCLib/src\xmc_usbd.c **** 
 821:C:/Users/Yushev/git/optiga-trust-qi/projects/xmc4700_relax_kit/common/Libraries/XMCLib/src\xmc_usbd.c ****       }
 822:C:/Users/Yushev/git/optiga-trust-qi/projects/xmc4700_relax_kit/common/Libraries/XMCLib/src\xmc_usbd.c **** 
 823:C:/Users/Yushev/git/optiga-trust-qi/projects/xmc4700_relax_kit/common/Libraries/XMCLib/src\xmc_usbd.c ****       XMC_USBD_ClearEventINEP((uint32_t)diepint.d32,ep_num);
 824:C:/Users/Yushev/git/optiga-trust-qi/projects/xmc4700_relax_kit/common/Libraries/XMCLib/src\xmc_usbd.c ****     }
 825:C:/Users/Yushev/git/optiga-trust-qi/projects/xmc4700_relax_kit/common/Libraries/XMCLib/src\xmc_usbd.c ****     ep_num++;
 826:C:/Users/Yushev/git/optiga-trust-qi/projects/xmc4700_relax_kit/common/Libraries/XMCLib/src\xmc_usbd.c ****   }
 827:C:/Users/Yushev/git/optiga-trust-qi/projects/xmc4700_relax_kit/common/Libraries/XMCLib/src\xmc_usbd.c ****   XMC_USBD_ClearEvent(XMC_USBD_EVENT_INEP);
 828:C:/Users/Yushev/git/optiga-trust-qi/projects/xmc4700_relax_kit/common/Libraries/XMCLib/src\xmc_usbd.c **** }
 829:C:/Users/Yushev/git/optiga-trust-qi/projects/xmc4700_relax_kit/common/Libraries/XMCLib/src\xmc_usbd.c **** 
 830:C:/Users/Yushev/git/optiga-trust-qi/projects/xmc4700_relax_kit/common/Libraries/XMCLib/src\xmc_usbd.c **** /**
 831:C:/Users/Yushev/git/optiga-trust-qi/projects/xmc4700_relax_kit/common/Libraries/XMCLib/src\xmc_usbd.c ****  * @brief RX Fifo interrupt handler
 832:C:/Users/Yushev/git/optiga-trust-qi/projects/xmc4700_relax_kit/common/Libraries/XMCLib/src\xmc_usbd.c ****  *
 833:C:/Users/Yushev/git/optiga-trust-qi/projects/xmc4700_relax_kit/common/Libraries/XMCLib/src\xmc_usbd.c ****  * This function handles the interrupt, when the rx fifo is not empty anymore.
 834:C:/Users/Yushev/git/optiga-trust-qi/projects/xmc4700_relax_kit/common/Libraries/XMCLib/src\xmc_usbd.c ****  */
 835:C:/Users/Yushev/git/optiga-trust-qi/projects/xmc4700_relax_kit/common/Libraries/XMCLib/src\xmc_usbd.c **** static void XMC_USBD_lHandleRxFLvl(void) 
 836:C:/Users/Yushev/git/optiga-trust-qi/projects/xmc4700_relax_kit/common/Libraries/XMCLib/src\xmc_usbd.c **** {
 837:C:/Users/Yushev/git/optiga-trust-qi/projects/xmc4700_relax_kit/common/Libraries/XMCLib/src\xmc_usbd.c ****   device_grxsts_data_t data;	
 838:C:/Users/Yushev/git/optiga-trust-qi/projects/xmc4700_relax_kit/common/Libraries/XMCLib/src\xmc_usbd.c ****   data.d32 = xmc_device.global_register->grxstsp;
 839:C:/Users/Yushev/git/optiga-trust-qi/projects/xmc4700_relax_kit/common/Libraries/XMCLib/src\xmc_usbd.c **** 
 840:C:/Users/Yushev/git/optiga-trust-qi/projects/xmc4700_relax_kit/common/Libraries/XMCLib/src\xmc_usbd.c ****   switch (data.b.pktsts)
 841:C:/Users/Yushev/git/optiga-trust-qi/projects/xmc4700_relax_kit/common/Libraries/XMCLib/src\xmc_usbd.c **** 	{
 842:C:/Users/Yushev/git/optiga-trust-qi/projects/xmc4700_relax_kit/common/Libraries/XMCLib/src\xmc_usbd.c ****     case XMC_USBD_GRXSTS_PKTSTS_GOUTNAK:
 843:C:/Users/Yushev/git/optiga-trust-qi/projects/xmc4700_relax_kit/common/Libraries/XMCLib/src\xmc_usbd.c ****       break;
 844:C:/Users/Yushev/git/optiga-trust-qi/projects/xmc4700_relax_kit/common/Libraries/XMCLib/src\xmc_usbd.c ****     case XMC_USBD_GRXSTS_PKTSTS_OUTCMPL:
 845:C:/Users/Yushev/git/optiga-trust-qi/projects/xmc4700_relax_kit/common/Libraries/XMCLib/src\xmc_usbd.c ****       break;
 846:C:/Users/Yushev/git/optiga-trust-qi/projects/xmc4700_relax_kit/common/Libraries/XMCLib/src\xmc_usbd.c ****     case XMC_USBD_GRXSTS_PKTSTS_OUTDATA:
 847:C:/Users/Yushev/git/optiga-trust-qi/projects/xmc4700_relax_kit/common/Libraries/XMCLib/src\xmc_usbd.c ****       XMC_USBD_lReadFifo((uint32_t)data.b.epnum,(uint32_t)data.b.bcnt);
 848:C:/Users/Yushev/git/optiga-trust-qi/projects/xmc4700_relax_kit/common/Libraries/XMCLib/src\xmc_usbd.c ****       break;
 849:C:/Users/Yushev/git/optiga-trust-qi/projects/xmc4700_relax_kit/common/Libraries/XMCLib/src\xmc_usbd.c ****     case XMC_USBD_GRXSTS_PKTSTS_SETUP:
 850:C:/Users/Yushev/git/optiga-trust-qi/projects/xmc4700_relax_kit/common/Libraries/XMCLib/src\xmc_usbd.c ****       XMC_USBD_lReadFifo((uint32_t)data.b.epnum,(uint32_t)data.b.bcnt);
 851:C:/Users/Yushev/git/optiga-trust-qi/projects/xmc4700_relax_kit/common/Libraries/XMCLib/src\xmc_usbd.c ****       break;
 852:C:/Users/Yushev/git/optiga-trust-qi/projects/xmc4700_relax_kit/common/Libraries/XMCLib/src\xmc_usbd.c ****     case XMC_USBD_GRXSTS_PKTSTS_SETUPCMPL:
 853:C:/Users/Yushev/git/optiga-trust-qi/projects/xmc4700_relax_kit/common/Libraries/XMCLib/src\xmc_usbd.c ****       break;
 854:C:/Users/Yushev/git/optiga-trust-qi/projects/xmc4700_relax_kit/common/Libraries/XMCLib/src\xmc_usbd.c ****     default:
 855:C:/Users/Yushev/git/optiga-trust-qi/projects/xmc4700_relax_kit/common/Libraries/XMCLib/src\xmc_usbd.c ****       break;
 856:C:/Users/Yushev/git/optiga-trust-qi/projects/xmc4700_relax_kit/common/Libraries/XMCLib/src\xmc_usbd.c **** 	}
 857:C:/Users/Yushev/git/optiga-trust-qi/projects/xmc4700_relax_kit/common/Libraries/XMCLib/src\xmc_usbd.c ****   /* no need to clear */
 858:C:/Users/Yushev/git/optiga-trust-qi/projects/xmc4700_relax_kit/common/Libraries/XMCLib/src\xmc_usbd.c **** }
 859:C:/Users/Yushev/git/optiga-trust-qi/projects/xmc4700_relax_kit/common/Libraries/XMCLib/src\xmc_usbd.c **** 
 860:C:/Users/Yushev/git/optiga-trust-qi/projects/xmc4700_relax_kit/common/Libraries/XMCLib/src\xmc_usbd.c **** /**
 861:C:/Users/Yushev/git/optiga-trust-qi/projects/xmc4700_relax_kit/common/Libraries/XMCLib/src\xmc_usbd.c ****  * @brief Global interrupt handler
 862:C:/Users/Yushev/git/optiga-trust-qi/projects/xmc4700_relax_kit/common/Libraries/XMCLib/src\xmc_usbd.c ****  *
 863:C:/Users/Yushev/git/optiga-trust-qi/projects/xmc4700_relax_kit/common/Libraries/XMCLib/src\xmc_usbd.c ****  * The handler first checks, which global interrupt has caused the interrupt
 864:C:/Users/Yushev/git/optiga-trust-qi/projects/xmc4700_relax_kit/common/Libraries/XMCLib/src\xmc_usbd.c ****  * and then dispatches interrupt to the corresponding sub-handler.
 865:C:/Users/Yushev/git/optiga-trust-qi/projects/xmc4700_relax_kit/common/Libraries/XMCLib/src\xmc_usbd.c ****  */
 866:C:/Users/Yushev/git/optiga-trust-qi/projects/xmc4700_relax_kit/common/Libraries/XMCLib/src\xmc_usbd.c **** void XMC_USBD_IRQHandler(const XMC_USBD_t *const obj) 
 867:C:/Users/Yushev/git/optiga-trust-qi/projects/xmc4700_relax_kit/common/Libraries/XMCLib/src\xmc_usbd.c **** {
 868:C:/Users/Yushev/git/optiga-trust-qi/projects/xmc4700_relax_kit/common/Libraries/XMCLib/src\xmc_usbd.c ****   gintmsk_data_t gintmsk;
 869:C:/Users/Yushev/git/optiga-trust-qi/projects/xmc4700_relax_kit/common/Libraries/XMCLib/src\xmc_usbd.c ****   gintsts_data_t data;
 870:C:/Users/Yushev/git/optiga-trust-qi/projects/xmc4700_relax_kit/common/Libraries/XMCLib/src\xmc_usbd.c **** 	
 871:C:/Users/Yushev/git/optiga-trust-qi/projects/xmc4700_relax_kit/common/Libraries/XMCLib/src\xmc_usbd.c ****   gintmsk.d32 = xmc_device.global_register->gintmsk;
 872:C:/Users/Yushev/git/optiga-trust-qi/projects/xmc4700_relax_kit/common/Libraries/XMCLib/src\xmc_usbd.c ****   data.d32 = xmc_device.global_register->gintsts & gintmsk.d32;
 873:C:/Users/Yushev/git/optiga-trust-qi/projects/xmc4700_relax_kit/common/Libraries/XMCLib/src\xmc_usbd.c **** 	
 874:C:/Users/Yushev/git/optiga-trust-qi/projects/xmc4700_relax_kit/common/Libraries/XMCLib/src\xmc_usbd.c ****   if (data.b.sofintr)
 875:C:/Users/Yushev/git/optiga-trust-qi/projects/xmc4700_relax_kit/common/Libraries/XMCLib/src\xmc_usbd.c ****   {
 876:C:/Users/Yushev/git/optiga-trust-qi/projects/xmc4700_relax_kit/common/Libraries/XMCLib/src\xmc_usbd.c ****     xmc_device.DeviceEvent_cb(XMC_USBD_EVENT_SOF);
 877:C:/Users/Yushev/git/optiga-trust-qi/projects/xmc4700_relax_kit/common/Libraries/XMCLib/src\xmc_usbd.c ****     XMC_USBD_ClearEvent(XMC_USBD_EVENT_SOF);
 878:C:/Users/Yushev/git/optiga-trust-qi/projects/xmc4700_relax_kit/common/Libraries/XMCLib/src\xmc_usbd.c ****   }
 879:C:/Users/Yushev/git/optiga-trust-qi/projects/xmc4700_relax_kit/common/Libraries/XMCLib/src\xmc_usbd.c ****   if(obj->usbd_transfer_mode == XMC_USBD_USE_FIFO)
 880:C:/Users/Yushev/git/optiga-trust-qi/projects/xmc4700_relax_kit/common/Libraries/XMCLib/src\xmc_usbd.c ****   {
 881:C:/Users/Yushev/git/optiga-trust-qi/projects/xmc4700_relax_kit/common/Libraries/XMCLib/src\xmc_usbd.c ****     if (data.b.rxstsqlvl)
 882:C:/Users/Yushev/git/optiga-trust-qi/projects/xmc4700_relax_kit/common/Libraries/XMCLib/src\xmc_usbd.c ****     {
 883:C:/Users/Yushev/git/optiga-trust-qi/projects/xmc4700_relax_kit/common/Libraries/XMCLib/src\xmc_usbd.c ****       /* Masked that interrupt so its only done once */
 884:C:/Users/Yushev/git/optiga-trust-qi/projects/xmc4700_relax_kit/common/Libraries/XMCLib/src\xmc_usbd.c ****       gintmsk.b.rxstsqlvl = 0U;
 885:C:/Users/Yushev/git/optiga-trust-qi/projects/xmc4700_relax_kit/common/Libraries/XMCLib/src\xmc_usbd.c ****       xmc_device.global_register->gintmsk = gintmsk.d32;
 886:C:/Users/Yushev/git/optiga-trust-qi/projects/xmc4700_relax_kit/common/Libraries/XMCLib/src\xmc_usbd.c ****       XMC_USBD_lHandleRxFLvl(); /* handle the interrupt */
 887:C:/Users/Yushev/git/optiga-trust-qi/projects/xmc4700_relax_kit/common/Libraries/XMCLib/src\xmc_usbd.c ****       gintmsk.b.rxstsqlvl = 1U;
 888:C:/Users/Yushev/git/optiga-trust-qi/projects/xmc4700_relax_kit/common/Libraries/XMCLib/src\xmc_usbd.c ****       xmc_device.global_register->gintmsk = gintmsk.d32;
 889:C:/Users/Yushev/git/optiga-trust-qi/projects/xmc4700_relax_kit/common/Libraries/XMCLib/src\xmc_usbd.c ****     }
 890:C:/Users/Yushev/git/optiga-trust-qi/projects/xmc4700_relax_kit/common/Libraries/XMCLib/src\xmc_usbd.c ****   }
 891:C:/Users/Yushev/git/optiga-trust-qi/projects/xmc4700_relax_kit/common/Libraries/XMCLib/src\xmc_usbd.c ****   if (data.b.erlysuspend)
 892:C:/Users/Yushev/git/optiga-trust-qi/projects/xmc4700_relax_kit/common/Libraries/XMCLib/src\xmc_usbd.c ****   {
 893:C:/Users/Yushev/git/optiga-trust-qi/projects/xmc4700_relax_kit/common/Libraries/XMCLib/src\xmc_usbd.c ****     XMC_USBD_ClearEvent(XMC_USBD_EVENT_EARLYSUSPEND);
 894:C:/Users/Yushev/git/optiga-trust-qi/projects/xmc4700_relax_kit/common/Libraries/XMCLib/src\xmc_usbd.c ****   }
 895:C:/Users/Yushev/git/optiga-trust-qi/projects/xmc4700_relax_kit/common/Libraries/XMCLib/src\xmc_usbd.c ****   if (data.b.usbsuspend)
 896:C:/Users/Yushev/git/optiga-trust-qi/projects/xmc4700_relax_kit/common/Libraries/XMCLib/src\xmc_usbd.c ****   {
 897:C:/Users/Yushev/git/optiga-trust-qi/projects/xmc4700_relax_kit/common/Libraries/XMCLib/src\xmc_usbd.c ****     xmc_device.DeviceEvent_cb(XMC_USBD_EVENT_SUSPEND);
 898:C:/Users/Yushev/git/optiga-trust-qi/projects/xmc4700_relax_kit/common/Libraries/XMCLib/src\xmc_usbd.c ****     XMC_USBD_ClearEvent(XMC_USBD_EVENT_SUSPEND);
 899:C:/Users/Yushev/git/optiga-trust-qi/projects/xmc4700_relax_kit/common/Libraries/XMCLib/src\xmc_usbd.c ****   }
 900:C:/Users/Yushev/git/optiga-trust-qi/projects/xmc4700_relax_kit/common/Libraries/XMCLib/src\xmc_usbd.c ****   if (data.b.wkupintr)
 901:C:/Users/Yushev/git/optiga-trust-qi/projects/xmc4700_relax_kit/common/Libraries/XMCLib/src\xmc_usbd.c ****   {
 902:C:/Users/Yushev/git/optiga-trust-qi/projects/xmc4700_relax_kit/common/Libraries/XMCLib/src\xmc_usbd.c ****     xmc_device.DeviceEvent_cb(XMC_USBD_EVENT_REMOTE_WAKEUP);
 903:C:/Users/Yushev/git/optiga-trust-qi/projects/xmc4700_relax_kit/common/Libraries/XMCLib/src\xmc_usbd.c ****     XMC_USBD_ClearEvent(XMC_USBD_EVENT_REMOTE_WAKEUP);
 904:C:/Users/Yushev/git/optiga-trust-qi/projects/xmc4700_relax_kit/common/Libraries/XMCLib/src\xmc_usbd.c ****   }
 905:C:/Users/Yushev/git/optiga-trust-qi/projects/xmc4700_relax_kit/common/Libraries/XMCLib/src\xmc_usbd.c ****   if (data.b.sessreqintr)
 906:C:/Users/Yushev/git/optiga-trust-qi/projects/xmc4700_relax_kit/common/Libraries/XMCLib/src\xmc_usbd.c ****   {
 907:C:/Users/Yushev/git/optiga-trust-qi/projects/xmc4700_relax_kit/common/Libraries/XMCLib/src\xmc_usbd.c ****     xmc_device.IsPowered = 1U;
 908:C:/Users/Yushev/git/optiga-trust-qi/projects/xmc4700_relax_kit/common/Libraries/XMCLib/src\xmc_usbd.c ****     xmc_device.DeviceEvent_cb(XMC_USBD_EVENT_POWER_ON);
 909:C:/Users/Yushev/git/optiga-trust-qi/projects/xmc4700_relax_kit/common/Libraries/XMCLib/src\xmc_usbd.c ****     XMC_USBD_ClearEvent(XMC_USBD_EVENT_POWER_ON);
 910:C:/Users/Yushev/git/optiga-trust-qi/projects/xmc4700_relax_kit/common/Libraries/XMCLib/src\xmc_usbd.c ****   }
 911:C:/Users/Yushev/git/optiga-trust-qi/projects/xmc4700_relax_kit/common/Libraries/XMCLib/src\xmc_usbd.c ****   if (data.b.usbreset)
 912:C:/Users/Yushev/git/optiga-trust-qi/projects/xmc4700_relax_kit/common/Libraries/XMCLib/src\xmc_usbd.c ****   {
 913:C:/Users/Yushev/git/optiga-trust-qi/projects/xmc4700_relax_kit/common/Libraries/XMCLib/src\xmc_usbd.c ****     XMC_USBD_lHandleUSBReset(obj);
 914:C:/Users/Yushev/git/optiga-trust-qi/projects/xmc4700_relax_kit/common/Libraries/XMCLib/src\xmc_usbd.c ****   }
 915:C:/Users/Yushev/git/optiga-trust-qi/projects/xmc4700_relax_kit/common/Libraries/XMCLib/src\xmc_usbd.c ****   if (data.b.enumdone)
 916:C:/Users/Yushev/git/optiga-trust-qi/projects/xmc4700_relax_kit/common/Libraries/XMCLib/src\xmc_usbd.c ****   {
 917:C:/Users/Yushev/git/optiga-trust-qi/projects/xmc4700_relax_kit/common/Libraries/XMCLib/src\xmc_usbd.c ****     XMC_USBD_lHandleEnumDone();
 918:C:/Users/Yushev/git/optiga-trust-qi/projects/xmc4700_relax_kit/common/Libraries/XMCLib/src\xmc_usbd.c ****   }
 919:C:/Users/Yushev/git/optiga-trust-qi/projects/xmc4700_relax_kit/common/Libraries/XMCLib/src\xmc_usbd.c ****   if (data.b.inepint)
 920:C:/Users/Yushev/git/optiga-trust-qi/projects/xmc4700_relax_kit/common/Libraries/XMCLib/src\xmc_usbd.c ****   {
 921:C:/Users/Yushev/git/optiga-trust-qi/projects/xmc4700_relax_kit/common/Libraries/XMCLib/src\xmc_usbd.c ****     XMC_USBD_lHandleIEPInt(obj);
 922:C:/Users/Yushev/git/optiga-trust-qi/projects/xmc4700_relax_kit/common/Libraries/XMCLib/src\xmc_usbd.c ****   }
 923:C:/Users/Yushev/git/optiga-trust-qi/projects/xmc4700_relax_kit/common/Libraries/XMCLib/src\xmc_usbd.c ****   if (data.b.outepintr)
 924:C:/Users/Yushev/git/optiga-trust-qi/projects/xmc4700_relax_kit/common/Libraries/XMCLib/src\xmc_usbd.c ****   {
 925:C:/Users/Yushev/git/optiga-trust-qi/projects/xmc4700_relax_kit/common/Libraries/XMCLib/src\xmc_usbd.c **** 		XMC_USBD_lHandleOEPInt(obj);
 926:C:/Users/Yushev/git/optiga-trust-qi/projects/xmc4700_relax_kit/common/Libraries/XMCLib/src\xmc_usbd.c ****   }
 927:C:/Users/Yushev/git/optiga-trust-qi/projects/xmc4700_relax_kit/common/Libraries/XMCLib/src\xmc_usbd.c **** 	if (data.b.otgintr)
 928:C:/Users/Yushev/git/optiga-trust-qi/projects/xmc4700_relax_kit/common/Libraries/XMCLib/src\xmc_usbd.c ****   {
 929:C:/Users/Yushev/git/optiga-trust-qi/projects/xmc4700_relax_kit/common/Libraries/XMCLib/src\xmc_usbd.c **** 	  XMC_USBD_lHandleOTGInt();
 930:C:/Users/Yushev/git/optiga-trust-qi/projects/xmc4700_relax_kit/common/Libraries/XMCLib/src\xmc_usbd.c ****   }
 931:C:/Users/Yushev/git/optiga-trust-qi/projects/xmc4700_relax_kit/common/Libraries/XMCLib/src\xmc_usbd.c **** 
 932:C:/Users/Yushev/git/optiga-trust-qi/projects/xmc4700_relax_kit/common/Libraries/XMCLib/src\xmc_usbd.c **** }
 933:C:/Users/Yushev/git/optiga-trust-qi/projects/xmc4700_relax_kit/common/Libraries/XMCLib/src\xmc_usbd.c **** 
 934:C:/Users/Yushev/git/optiga-trust-qi/projects/xmc4700_relax_kit/common/Libraries/XMCLib/src\xmc_usbd.c **** 
 935:C:/Users/Yushev/git/optiga-trust-qi/projects/xmc4700_relax_kit/common/Libraries/XMCLib/src\xmc_usbd.c **** /*******************************************************************************
 936:C:/Users/Yushev/git/optiga-trust-qi/projects/xmc4700_relax_kit/common/Libraries/XMCLib/src\xmc_usbd.c ****  * API IMPLEMENTATION
 937:C:/Users/Yushev/git/optiga-trust-qi/projects/xmc4700_relax_kit/common/Libraries/XMCLib/src\xmc_usbd.c ****  *******************************************************************************/
 938:C:/Users/Yushev/git/optiga-trust-qi/projects/xmc4700_relax_kit/common/Libraries/XMCLib/src\xmc_usbd.c **** /**
 939:C:/Users/Yushev/git/optiga-trust-qi/projects/xmc4700_relax_kit/common/Libraries/XMCLib/src\xmc_usbd.c ****  * Enables the USB0 module
 940:C:/Users/Yushev/git/optiga-trust-qi/projects/xmc4700_relax_kit/common/Libraries/XMCLib/src\xmc_usbd.c ****  **/
 941:C:/Users/Yushev/git/optiga-trust-qi/projects/xmc4700_relax_kit/common/Libraries/XMCLib/src\xmc_usbd.c **** void XMC_USBD_Enable(void) 
 942:C:/Users/Yushev/git/optiga-trust-qi/projects/xmc4700_relax_kit/common/Libraries/XMCLib/src\xmc_usbd.c **** {
 943:C:/Users/Yushev/git/optiga-trust-qi/projects/xmc4700_relax_kit/common/Libraries/XMCLib/src\xmc_usbd.c **** #if defined(CLOCK_GATING_SUPPORTED)
 944:C:/Users/Yushev/git/optiga-trust-qi/projects/xmc4700_relax_kit/common/Libraries/XMCLib/src\xmc_usbd.c ****   XMC_SCU_CLOCK_UngatePeripheralClock(XMC_SCU_PERIPHERAL_CLOCK_USB0);
 945:C:/Users/Yushev/git/optiga-trust-qi/projects/xmc4700_relax_kit/common/Libraries/XMCLib/src\xmc_usbd.c **** #endif
 946:C:/Users/Yushev/git/optiga-trust-qi/projects/xmc4700_relax_kit/common/Libraries/XMCLib/src\xmc_usbd.c ****   /* Reset and power up */
 947:C:/Users/Yushev/git/optiga-trust-qi/projects/xmc4700_relax_kit/common/Libraries/XMCLib/src\xmc_usbd.c ****   XMC_SCU_RESET_DeassertPeripheralReset(XMC_SCU_PERIPHERAL_RESET_USB0);
 948:C:/Users/Yushev/git/optiga-trust-qi/projects/xmc4700_relax_kit/common/Libraries/XMCLib/src\xmc_usbd.c ****   XMC_SCU_POWER_EnableUsb();
 949:C:/Users/Yushev/git/optiga-trust-qi/projects/xmc4700_relax_kit/common/Libraries/XMCLib/src\xmc_usbd.c **** }
 950:C:/Users/Yushev/git/optiga-trust-qi/projects/xmc4700_relax_kit/common/Libraries/XMCLib/src\xmc_usbd.c **** 
 951:C:/Users/Yushev/git/optiga-trust-qi/projects/xmc4700_relax_kit/common/Libraries/XMCLib/src\xmc_usbd.c **** /**
 952:C:/Users/Yushev/git/optiga-trust-qi/projects/xmc4700_relax_kit/common/Libraries/XMCLib/src\xmc_usbd.c ****  * Disables the USB0 module
 953:C:/Users/Yushev/git/optiga-trust-qi/projects/xmc4700_relax_kit/common/Libraries/XMCLib/src\xmc_usbd.c ****  **/
 954:C:/Users/Yushev/git/optiga-trust-qi/projects/xmc4700_relax_kit/common/Libraries/XMCLib/src\xmc_usbd.c **** void XMC_USBD_Disable(void) 
 955:C:/Users/Yushev/git/optiga-trust-qi/projects/xmc4700_relax_kit/common/Libraries/XMCLib/src\xmc_usbd.c **** {
 956:C:/Users/Yushev/git/optiga-trust-qi/projects/xmc4700_relax_kit/common/Libraries/XMCLib/src\xmc_usbd.c ****   /* Clear Reset and power up */
 957:C:/Users/Yushev/git/optiga-trust-qi/projects/xmc4700_relax_kit/common/Libraries/XMCLib/src\xmc_usbd.c ****   XMC_SCU_RESET_AssertPeripheralReset(XMC_SCU_PERIPHERAL_RESET_USB0);
 958:C:/Users/Yushev/git/optiga-trust-qi/projects/xmc4700_relax_kit/common/Libraries/XMCLib/src\xmc_usbd.c **** #if defined(CLOCK_GATING_SUPPORTED)
 959:C:/Users/Yushev/git/optiga-trust-qi/projects/xmc4700_relax_kit/common/Libraries/XMCLib/src\xmc_usbd.c ****   XMC_SCU_CLOCK_GatePeripheralClock(XMC_SCU_PERIPHERAL_CLOCK_USB0);
 960:C:/Users/Yushev/git/optiga-trust-qi/projects/xmc4700_relax_kit/common/Libraries/XMCLib/src\xmc_usbd.c **** #endif
 961:C:/Users/Yushev/git/optiga-trust-qi/projects/xmc4700_relax_kit/common/Libraries/XMCLib/src\xmc_usbd.c ****   XMC_SCU_POWER_DisableUsb();
 962:C:/Users/Yushev/git/optiga-trust-qi/projects/xmc4700_relax_kit/common/Libraries/XMCLib/src\xmc_usbd.c **** }
 963:C:/Users/Yushev/git/optiga-trust-qi/projects/xmc4700_relax_kit/common/Libraries/XMCLib/src\xmc_usbd.c **** 
 964:C:/Users/Yushev/git/optiga-trust-qi/projects/xmc4700_relax_kit/common/Libraries/XMCLib/src\xmc_usbd.c **** /**
 965:C:/Users/Yushev/git/optiga-trust-qi/projects/xmc4700_relax_kit/common/Libraries/XMCLib/src\xmc_usbd.c ****  * Clear the USB device event
 966:C:/Users/Yushev/git/optiga-trust-qi/projects/xmc4700_relax_kit/common/Libraries/XMCLib/src\xmc_usbd.c ****  **/
 967:C:/Users/Yushev/git/optiga-trust-qi/projects/xmc4700_relax_kit/common/Libraries/XMCLib/src\xmc_usbd.c **** void XMC_USBD_ClearEvent(const XMC_USBD_EVENT_t event) 
 968:C:/Users/Yushev/git/optiga-trust-qi/projects/xmc4700_relax_kit/common/Libraries/XMCLib/src\xmc_usbd.c **** {
 969:C:/Users/Yushev/git/optiga-trust-qi/projects/xmc4700_relax_kit/common/Libraries/XMCLib/src\xmc_usbd.c ****   gintsts_data_t clear;
 970:C:/Users/Yushev/git/optiga-trust-qi/projects/xmc4700_relax_kit/common/Libraries/XMCLib/src\xmc_usbd.c ****   clear.d32 = 0U;
 971:C:/Users/Yushev/git/optiga-trust-qi/projects/xmc4700_relax_kit/common/Libraries/XMCLib/src\xmc_usbd.c ****   switch(event)
 972:C:/Users/Yushev/git/optiga-trust-qi/projects/xmc4700_relax_kit/common/Libraries/XMCLib/src\xmc_usbd.c ****   {
 973:C:/Users/Yushev/git/optiga-trust-qi/projects/xmc4700_relax_kit/common/Libraries/XMCLib/src\xmc_usbd.c ****     case (XMC_USBD_EVENT_POWER_ON):
 974:C:/Users/Yushev/git/optiga-trust-qi/projects/xmc4700_relax_kit/common/Libraries/XMCLib/src\xmc_usbd.c **** 	  clear.b.sessreqintr = 1U;
 975:C:/Users/Yushev/git/optiga-trust-qi/projects/xmc4700_relax_kit/common/Libraries/XMCLib/src\xmc_usbd.c **** 	  break;
 976:C:/Users/Yushev/git/optiga-trust-qi/projects/xmc4700_relax_kit/common/Libraries/XMCLib/src\xmc_usbd.c ****     case (XMC_USBD_EVENT_RESET):
 977:C:/Users/Yushev/git/optiga-trust-qi/projects/xmc4700_relax_kit/common/Libraries/XMCLib/src\xmc_usbd.c **** 	  clear.b.usbreset = 1U;
 978:C:/Users/Yushev/git/optiga-trust-qi/projects/xmc4700_relax_kit/common/Libraries/XMCLib/src\xmc_usbd.c **** 	  break;
 979:C:/Users/Yushev/git/optiga-trust-qi/projects/xmc4700_relax_kit/common/Libraries/XMCLib/src\xmc_usbd.c ****     case (XMC_USBD_EVENT_SUSPEND):
 980:C:/Users/Yushev/git/optiga-trust-qi/projects/xmc4700_relax_kit/common/Libraries/XMCLib/src\xmc_usbd.c **** 	  clear.b.usbsuspend = 1U;
 981:C:/Users/Yushev/git/optiga-trust-qi/projects/xmc4700_relax_kit/common/Libraries/XMCLib/src\xmc_usbd.c **** 	  break;
 982:C:/Users/Yushev/git/optiga-trust-qi/projects/xmc4700_relax_kit/common/Libraries/XMCLib/src\xmc_usbd.c ****     case (XMC_USBD_EVENT_RESUME):
 983:C:/Users/Yushev/git/optiga-trust-qi/projects/xmc4700_relax_kit/common/Libraries/XMCLib/src\xmc_usbd.c **** 	  clear.b.wkupintr = 1U;
 984:C:/Users/Yushev/git/optiga-trust-qi/projects/xmc4700_relax_kit/common/Libraries/XMCLib/src\xmc_usbd.c **** 	  break;
 985:C:/Users/Yushev/git/optiga-trust-qi/projects/xmc4700_relax_kit/common/Libraries/XMCLib/src\xmc_usbd.c ****     case (XMC_USBD_EVENT_REMOTE_WAKEUP):
 986:C:/Users/Yushev/git/optiga-trust-qi/projects/xmc4700_relax_kit/common/Libraries/XMCLib/src\xmc_usbd.c **** 	  clear.b.wkupintr = 1U;
 987:C:/Users/Yushev/git/optiga-trust-qi/projects/xmc4700_relax_kit/common/Libraries/XMCLib/src\xmc_usbd.c **** 	  break;
 988:C:/Users/Yushev/git/optiga-trust-qi/projects/xmc4700_relax_kit/common/Libraries/XMCLib/src\xmc_usbd.c ****     case (XMC_USBD_EVENT_SOF):
 989:C:/Users/Yushev/git/optiga-trust-qi/projects/xmc4700_relax_kit/common/Libraries/XMCLib/src\xmc_usbd.c **** 	  clear.b.sofintr = 1U;
 990:C:/Users/Yushev/git/optiga-trust-qi/projects/xmc4700_relax_kit/common/Libraries/XMCLib/src\xmc_usbd.c **** 	  break;
 991:C:/Users/Yushev/git/optiga-trust-qi/projects/xmc4700_relax_kit/common/Libraries/XMCLib/src\xmc_usbd.c ****     case (XMC_USBD_EVENT_EARLYSUSPEND):
 992:C:/Users/Yushev/git/optiga-trust-qi/projects/xmc4700_relax_kit/common/Libraries/XMCLib/src\xmc_usbd.c **** 	  clear.b.erlysuspend = 1U;
 993:C:/Users/Yushev/git/optiga-trust-qi/projects/xmc4700_relax_kit/common/Libraries/XMCLib/src\xmc_usbd.c **** 	  break;
 994:C:/Users/Yushev/git/optiga-trust-qi/projects/xmc4700_relax_kit/common/Libraries/XMCLib/src\xmc_usbd.c ****     case (XMC_USBD_EVENT_ENUMDONE):
 995:C:/Users/Yushev/git/optiga-trust-qi/projects/xmc4700_relax_kit/common/Libraries/XMCLib/src\xmc_usbd.c **** 	  clear.b.enumdone = 1U;
 996:C:/Users/Yushev/git/optiga-trust-qi/projects/xmc4700_relax_kit/common/Libraries/XMCLib/src\xmc_usbd.c **** 	  break;
 997:C:/Users/Yushev/git/optiga-trust-qi/projects/xmc4700_relax_kit/common/Libraries/XMCLib/src\xmc_usbd.c ****     case (XMC_USBD_EVENT_OUTEP):
 998:C:/Users/Yushev/git/optiga-trust-qi/projects/xmc4700_relax_kit/common/Libraries/XMCLib/src\xmc_usbd.c **** 	  clear.b.outepintr = 1U;
 999:C:/Users/Yushev/git/optiga-trust-qi/projects/xmc4700_relax_kit/common/Libraries/XMCLib/src\xmc_usbd.c **** 	  break;
1000:C:/Users/Yushev/git/optiga-trust-qi/projects/xmc4700_relax_kit/common/Libraries/XMCLib/src\xmc_usbd.c **** 		default:
1001:C:/Users/Yushev/git/optiga-trust-qi/projects/xmc4700_relax_kit/common/Libraries/XMCLib/src\xmc_usbd.c **** 		break;
1002:C:/Users/Yushev/git/optiga-trust-qi/projects/xmc4700_relax_kit/common/Libraries/XMCLib/src\xmc_usbd.c **** 	}
1003:C:/Users/Yushev/git/optiga-trust-qi/projects/xmc4700_relax_kit/common/Libraries/XMCLib/src\xmc_usbd.c **** 	xmc_device.global_register->gintsts = clear.d32;
1004:C:/Users/Yushev/git/optiga-trust-qi/projects/xmc4700_relax_kit/common/Libraries/XMCLib/src\xmc_usbd.c **** }
1005:C:/Users/Yushev/git/optiga-trust-qi/projects/xmc4700_relax_kit/common/Libraries/XMCLib/src\xmc_usbd.c **** 
1006:C:/Users/Yushev/git/optiga-trust-qi/projects/xmc4700_relax_kit/common/Libraries/XMCLib/src\xmc_usbd.c **** /**
1007:C:/Users/Yushev/git/optiga-trust-qi/projects/xmc4700_relax_kit/common/Libraries/XMCLib/src\xmc_usbd.c ****  * Clear the USB OTG events
1008:C:/Users/Yushev/git/optiga-trust-qi/projects/xmc4700_relax_kit/common/Libraries/XMCLib/src\xmc_usbd.c ****  **/
1009:C:/Users/Yushev/git/optiga-trust-qi/projects/xmc4700_relax_kit/common/Libraries/XMCLib/src\xmc_usbd.c **** static void XMC_USBD_lClearEventOTG(uint32_t event)
1010:C:/Users/Yushev/git/optiga-trust-qi/projects/xmc4700_relax_kit/common/Libraries/XMCLib/src\xmc_usbd.c **** {
1011:C:/Users/Yushev/git/optiga-trust-qi/projects/xmc4700_relax_kit/common/Libraries/XMCLib/src\xmc_usbd.c ****   gotgint_data_t clear = { .d32 = 0U};
1012:C:/Users/Yushev/git/optiga-trust-qi/projects/xmc4700_relax_kit/common/Libraries/XMCLib/src\xmc_usbd.c ****   clear.d32 = event;
1013:C:/Users/Yushev/git/optiga-trust-qi/projects/xmc4700_relax_kit/common/Libraries/XMCLib/src\xmc_usbd.c ****   xmc_device.global_register->gotgint = clear.d32;
1014:C:/Users/Yushev/git/optiga-trust-qi/projects/xmc4700_relax_kit/common/Libraries/XMCLib/src\xmc_usbd.c **** }
1015:C:/Users/Yushev/git/optiga-trust-qi/projects/xmc4700_relax_kit/common/Libraries/XMCLib/src\xmc_usbd.c **** 
1016:C:/Users/Yushev/git/optiga-trust-qi/projects/xmc4700_relax_kit/common/Libraries/XMCLib/src\xmc_usbd.c **** /**
1017:C:/Users/Yushev/git/optiga-trust-qi/projects/xmc4700_relax_kit/common/Libraries/XMCLib/src\xmc_usbd.c ****  * Clear the USB IN EP events
1018:C:/Users/Yushev/git/optiga-trust-qi/projects/xmc4700_relax_kit/common/Libraries/XMCLib/src\xmc_usbd.c ****  **/
1019:C:/Users/Yushev/git/optiga-trust-qi/projects/xmc4700_relax_kit/common/Libraries/XMCLib/src\xmc_usbd.c **** void XMC_USBD_ClearEventINEP(uint32_t event,const uint8_t ep_num)
1020:C:/Users/Yushev/git/optiga-trust-qi/projects/xmc4700_relax_kit/common/Libraries/XMCLib/src\xmc_usbd.c **** {
1021:C:/Users/Yushev/git/optiga-trust-qi/projects/xmc4700_relax_kit/common/Libraries/XMCLib/src\xmc_usbd.c ****   diepint_data_t clear;
1022:C:/Users/Yushev/git/optiga-trust-qi/projects/xmc4700_relax_kit/common/Libraries/XMCLib/src\xmc_usbd.c ****   clear.d32 = event;
1023:C:/Users/Yushev/git/optiga-trust-qi/projects/xmc4700_relax_kit/common/Libraries/XMCLib/src\xmc_usbd.c ****   xmc_device.endpoint_in_register[ep_num]->diepint = clear.d32;
1024:C:/Users/Yushev/git/optiga-trust-qi/projects/xmc4700_relax_kit/common/Libraries/XMCLib/src\xmc_usbd.c **** }
1025:C:/Users/Yushev/git/optiga-trust-qi/projects/xmc4700_relax_kit/common/Libraries/XMCLib/src\xmc_usbd.c **** 
1026:C:/Users/Yushev/git/optiga-trust-qi/projects/xmc4700_relax_kit/common/Libraries/XMCLib/src\xmc_usbd.c **** /**
1027:C:/Users/Yushev/git/optiga-trust-qi/projects/xmc4700_relax_kit/common/Libraries/XMCLib/src\xmc_usbd.c ****  * Clear the USB OUT EP events
1028:C:/Users/Yushev/git/optiga-trust-qi/projects/xmc4700_relax_kit/common/Libraries/XMCLib/src\xmc_usbd.c ****  **/
1029:C:/Users/Yushev/git/optiga-trust-qi/projects/xmc4700_relax_kit/common/Libraries/XMCLib/src\xmc_usbd.c **** void XMC_USBD_ClearEventOUTEP(uint32_t event,const uint8_t ep_num)
1030:C:/Users/Yushev/git/optiga-trust-qi/projects/xmc4700_relax_kit/common/Libraries/XMCLib/src\xmc_usbd.c **** {
1031:C:/Users/Yushev/git/optiga-trust-qi/projects/xmc4700_relax_kit/common/Libraries/XMCLib/src\xmc_usbd.c ****   doepint_data_t clear;
1032:C:/Users/Yushev/git/optiga-trust-qi/projects/xmc4700_relax_kit/common/Libraries/XMCLib/src\xmc_usbd.c ****   clear.d32 = event;
1033:C:/Users/Yushev/git/optiga-trust-qi/projects/xmc4700_relax_kit/common/Libraries/XMCLib/src\xmc_usbd.c ****   xmc_device.endpoint_out_register[ep_num]->doepint = clear.d32;
1034:C:/Users/Yushev/git/optiga-trust-qi/projects/xmc4700_relax_kit/common/Libraries/XMCLib/src\xmc_usbd.c **** }
1035:C:/Users/Yushev/git/optiga-trust-qi/projects/xmc4700_relax_kit/common/Libraries/XMCLib/src\xmc_usbd.c **** 
1036:C:/Users/Yushev/git/optiga-trust-qi/projects/xmc4700_relax_kit/common/Libraries/XMCLib/src\xmc_usbd.c **** /**
1037:C:/Users/Yushev/git/optiga-trust-qi/projects/xmc4700_relax_kit/common/Libraries/XMCLib/src\xmc_usbd.c ****  * Enable the USB OUT EP events
1038:C:/Users/Yushev/git/optiga-trust-qi/projects/xmc4700_relax_kit/common/Libraries/XMCLib/src\xmc_usbd.c ****  **/
1039:C:/Users/Yushev/git/optiga-trust-qi/projects/xmc4700_relax_kit/common/Libraries/XMCLib/src\xmc_usbd.c **** void XMC_USBD_EnableEventOUTEP(uint32_t event)
1040:C:/Users/Yushev/git/optiga-trust-qi/projects/xmc4700_relax_kit/common/Libraries/XMCLib/src\xmc_usbd.c **** {
1041:C:/Users/Yushev/git/optiga-trust-qi/projects/xmc4700_relax_kit/common/Libraries/XMCLib/src\xmc_usbd.c **** 	doepint_data_t doepint;
1042:C:/Users/Yushev/git/optiga-trust-qi/projects/xmc4700_relax_kit/common/Libraries/XMCLib/src\xmc_usbd.c **** 	doepint.d32 = event;
1043:C:/Users/Yushev/git/optiga-trust-qi/projects/xmc4700_relax_kit/common/Libraries/XMCLib/src\xmc_usbd.c **** 	xmc_device.device_register->doepmsk |= doepint.d32;
1044:C:/Users/Yushev/git/optiga-trust-qi/projects/xmc4700_relax_kit/common/Libraries/XMCLib/src\xmc_usbd.c **** }
1045:C:/Users/Yushev/git/optiga-trust-qi/projects/xmc4700_relax_kit/common/Libraries/XMCLib/src\xmc_usbd.c **** 
1046:C:/Users/Yushev/git/optiga-trust-qi/projects/xmc4700_relax_kit/common/Libraries/XMCLib/src\xmc_usbd.c **** /**
1047:C:/Users/Yushev/git/optiga-trust-qi/projects/xmc4700_relax_kit/common/Libraries/XMCLib/src\xmc_usbd.c ****  * Enable the USB IN EP events
1048:C:/Users/Yushev/git/optiga-trust-qi/projects/xmc4700_relax_kit/common/Libraries/XMCLib/src\xmc_usbd.c ****  **/
1049:C:/Users/Yushev/git/optiga-trust-qi/projects/xmc4700_relax_kit/common/Libraries/XMCLib/src\xmc_usbd.c **** void XMC_USBD_EnableEventINEP(uint32_t event)
1050:C:/Users/Yushev/git/optiga-trust-qi/projects/xmc4700_relax_kit/common/Libraries/XMCLib/src\xmc_usbd.c **** {
1051:C:/Users/Yushev/git/optiga-trust-qi/projects/xmc4700_relax_kit/common/Libraries/XMCLib/src\xmc_usbd.c **** 	diepint_data_t diepint;
1052:C:/Users/Yushev/git/optiga-trust-qi/projects/xmc4700_relax_kit/common/Libraries/XMCLib/src\xmc_usbd.c **** 	diepint.d32 = event;
1053:C:/Users/Yushev/git/optiga-trust-qi/projects/xmc4700_relax_kit/common/Libraries/XMCLib/src\xmc_usbd.c **** 	xmc_device.device_register->diepmsk |= diepint.d32;
1054:C:/Users/Yushev/git/optiga-trust-qi/projects/xmc4700_relax_kit/common/Libraries/XMCLib/src\xmc_usbd.c **** }
1055:C:/Users/Yushev/git/optiga-trust-qi/projects/xmc4700_relax_kit/common/Libraries/XMCLib/src\xmc_usbd.c **** 
1056:C:/Users/Yushev/git/optiga-trust-qi/projects/xmc4700_relax_kit/common/Libraries/XMCLib/src\xmc_usbd.c **** /**
1057:C:/Users/Yushev/git/optiga-trust-qi/projects/xmc4700_relax_kit/common/Libraries/XMCLib/src\xmc_usbd.c ****  * Gets the USB device capabilities
1058:C:/Users/Yushev/git/optiga-trust-qi/projects/xmc4700_relax_kit/common/Libraries/XMCLib/src\xmc_usbd.c ****  **/
1059:C:/Users/Yushev/git/optiga-trust-qi/projects/xmc4700_relax_kit/common/Libraries/XMCLib/src\xmc_usbd.c **** XMC_USBD_CAPABILITIES_t XMC_USBD_GetCapabilities()
1060:C:/Users/Yushev/git/optiga-trust-qi/projects/xmc4700_relax_kit/common/Libraries/XMCLib/src\xmc_usbd.c **** {
 514              	 .loc 1 1060 0
 515              	 .cfi_startproc
 516              	 
 517              	 
 518              	 
 519              	.LVL46:
1061:C:/Users/Yushev/git/optiga-trust-qi/projects/xmc4700_relax_kit/common/Libraries/XMCLib/src\xmc_usbd.c ****   XMC_USBD_CAPABILITIES_t cap={0U};
1062:C:/Users/Yushev/git/optiga-trust-qi/projects/xmc4700_relax_kit/common/Libraries/XMCLib/src\xmc_usbd.c ****   cap.event_connect = 1U;
1063:C:/Users/Yushev/git/optiga-trust-qi/projects/xmc4700_relax_kit/common/Libraries/XMCLib/src\xmc_usbd.c ****   cap.event_disconnect = 1U;
1064:C:/Users/Yushev/git/optiga-trust-qi/projects/xmc4700_relax_kit/common/Libraries/XMCLib/src\xmc_usbd.c **** #if UC_SERIES == 45
1065:C:/Users/Yushev/git/optiga-trust-qi/projects/xmc4700_relax_kit/common/Libraries/XMCLib/src\xmc_usbd.c ****   cap.event_power_off = 1U;
1066:C:/Users/Yushev/git/optiga-trust-qi/projects/xmc4700_relax_kit/common/Libraries/XMCLib/src\xmc_usbd.c ****   cap.event_power_on = 1U;
1067:C:/Users/Yushev/git/optiga-trust-qi/projects/xmc4700_relax_kit/common/Libraries/XMCLib/src\xmc_usbd.c **** #else
1068:C:/Users/Yushev/git/optiga-trust-qi/projects/xmc4700_relax_kit/common/Libraries/XMCLib/src\xmc_usbd.c ****   cap.event_power_off = 0U;
1069:C:/Users/Yushev/git/optiga-trust-qi/projects/xmc4700_relax_kit/common/Libraries/XMCLib/src\xmc_usbd.c ****   cap.event_power_on = 0U;
1070:C:/Users/Yushev/git/optiga-trust-qi/projects/xmc4700_relax_kit/common/Libraries/XMCLib/src\xmc_usbd.c **** #endif
1071:C:/Users/Yushev/git/optiga-trust-qi/projects/xmc4700_relax_kit/common/Libraries/XMCLib/src\xmc_usbd.c ****   cap.event_high_speed = 0U;
1072:C:/Users/Yushev/git/optiga-trust-qi/projects/xmc4700_relax_kit/common/Libraries/XMCLib/src\xmc_usbd.c ****   cap.event_remote_wakeup = 1U;
1073:C:/Users/Yushev/git/optiga-trust-qi/projects/xmc4700_relax_kit/common/Libraries/XMCLib/src\xmc_usbd.c ****   cap.event_reset = 1U;
1074:C:/Users/Yushev/git/optiga-trust-qi/projects/xmc4700_relax_kit/common/Libraries/XMCLib/src\xmc_usbd.c ****   cap.event_resume = 1U;
1075:C:/Users/Yushev/git/optiga-trust-qi/projects/xmc4700_relax_kit/common/Libraries/XMCLib/src\xmc_usbd.c ****   cap.event_suspend = 1U;
1076:C:/Users/Yushev/git/optiga-trust-qi/projects/xmc4700_relax_kit/common/Libraries/XMCLib/src\xmc_usbd.c ****   cap.reserved = 0U;
1077:C:/Users/Yushev/git/optiga-trust-qi/projects/xmc4700_relax_kit/common/Libraries/XMCLib/src\xmc_usbd.c ****   return cap;
 520              	 .loc 1 1077 0
 521 0000 0020     	 movs r0,#0
 522 0002 6FF30000 	 bfc r0,#0,#1
 523 0006 6FF34100 	 bfc r0,#1,#1
 524 000a 40F01C00 	 orr r0,r0,#28
 525 000e 6FF34510 	 bfc r0,#5,#1
 526 0012 40F4E070 	 orr r0,r0,#448
1078:C:/Users/Yushev/git/optiga-trust-qi/projects/xmc4700_relax_kit/common/Libraries/XMCLib/src\xmc_usbd.c **** }
 527              	 .loc 1 1078 0
 528 0016 C0F30800 	 ubfx r0,r0,#0,#9
 529 001a 7047     	 bx lr
 530              	 .cfi_endproc
 531              	.LFE193:
 533              	 .section .text.XMC_USBD_DeviceConnect,"ax",%progbits
 534              	 .align 1
 535              	 .global XMC_USBD_DeviceConnect
 536              	 .thumb
 537              	 .thumb_func
 539              	XMC_USBD_DeviceConnect:
 540              	.LFB196:
1079:C:/Users/Yushev/git/optiga-trust-qi/projects/xmc4700_relax_kit/common/Libraries/XMCLib/src\xmc_usbd.c **** 
1080:C:/Users/Yushev/git/optiga-trust-qi/projects/xmc4700_relax_kit/common/Libraries/XMCLib/src\xmc_usbd.c **** /**
1081:C:/Users/Yushev/git/optiga-trust-qi/projects/xmc4700_relax_kit/common/Libraries/XMCLib/src\xmc_usbd.c ****  * Initializes the USB device
1082:C:/Users/Yushev/git/optiga-trust-qi/projects/xmc4700_relax_kit/common/Libraries/XMCLib/src\xmc_usbd.c ****  **/
1083:C:/Users/Yushev/git/optiga-trust-qi/projects/xmc4700_relax_kit/common/Libraries/XMCLib/src\xmc_usbd.c **** XMC_USBD_STATUS_t XMC_USBD_Init(XMC_USBD_t *obj)
1084:C:/Users/Yushev/git/optiga-trust-qi/projects/xmc4700_relax_kit/common/Libraries/XMCLib/src\xmc_usbd.c **** {
1085:C:/Users/Yushev/git/optiga-trust-qi/projects/xmc4700_relax_kit/common/Libraries/XMCLib/src\xmc_usbd.c ****   uint8_t *XMC_USBD_BASE_ADDRESS;
1086:C:/Users/Yushev/git/optiga-trust-qi/projects/xmc4700_relax_kit/common/Libraries/XMCLib/src\xmc_usbd.c ****   uint32_t i;
1087:C:/Users/Yushev/git/optiga-trust-qi/projects/xmc4700_relax_kit/common/Libraries/XMCLib/src\xmc_usbd.c ****   gahbcfg_data_t gahbcfg;
1088:C:/Users/Yushev/git/optiga-trust-qi/projects/xmc4700_relax_kit/common/Libraries/XMCLib/src\xmc_usbd.c ****   gusbcfg_data_t gusbcfg;
1089:C:/Users/Yushev/git/optiga-trust-qi/projects/xmc4700_relax_kit/common/Libraries/XMCLib/src\xmc_usbd.c ****   dcfg_data_t dcfg;
1090:C:/Users/Yushev/git/optiga-trust-qi/projects/xmc4700_relax_kit/common/Libraries/XMCLib/src\xmc_usbd.c ****   dctl_data_t dctl;
1091:C:/Users/Yushev/git/optiga-trust-qi/projects/xmc4700_relax_kit/common/Libraries/XMCLib/src\xmc_usbd.c ****   gintmsk_data_t gintmsk;
1092:C:/Users/Yushev/git/optiga-trust-qi/projects/xmc4700_relax_kit/common/Libraries/XMCLib/src\xmc_usbd.c **** 
1093:C:/Users/Yushev/git/optiga-trust-qi/projects/xmc4700_relax_kit/common/Libraries/XMCLib/src\xmc_usbd.c ****   XMC_ASSERT("XMC_USBD_Init: obj.usbd_max_num_eps not of type XMC_USBD_MAX_NUM_EPS_t",
1094:C:/Users/Yushev/git/optiga-trust-qi/projects/xmc4700_relax_kit/common/Libraries/XMCLib/src\xmc_usbd.c ****  		      XMC_USBD_CHECK_INPUT_MAX_NUM_EPS(obj->usbd_max_num_eps))
1095:C:/Users/Yushev/git/optiga-trust-qi/projects/xmc4700_relax_kit/common/Libraries/XMCLib/src\xmc_usbd.c ****   
1096:C:/Users/Yushev/git/optiga-trust-qi/projects/xmc4700_relax_kit/common/Libraries/XMCLib/src\xmc_usbd.c ****   XMC_USBD_Enable();
1097:C:/Users/Yushev/git/optiga-trust-qi/projects/xmc4700_relax_kit/common/Libraries/XMCLib/src\xmc_usbd.c ****   
1098:C:/Users/Yushev/git/optiga-trust-qi/projects/xmc4700_relax_kit/common/Libraries/XMCLib/src\xmc_usbd.c ****   usbd_init = obj;
1099:C:/Users/Yushev/git/optiga-trust-qi/projects/xmc4700_relax_kit/common/Libraries/XMCLib/src\xmc_usbd.c **** 
1100:C:/Users/Yushev/git/optiga-trust-qi/projects/xmc4700_relax_kit/common/Libraries/XMCLib/src\xmc_usbd.c ****   /* Filling out buffer size */
1101:C:/Users/Yushev/git/optiga-trust-qi/projects/xmc4700_relax_kit/common/Libraries/XMCLib/src\xmc_usbd.c ****   for(i = 0U;i < (uint32_t)XMC_USBD_NUM_EPS;i++)
1102:C:/Users/Yushev/git/optiga-trust-qi/projects/xmc4700_relax_kit/common/Libraries/XMCLib/src\xmc_usbd.c ****   {
1103:C:/Users/Yushev/git/optiga-trust-qi/projects/xmc4700_relax_kit/common/Libraries/XMCLib/src\xmc_usbd.c **** 	  XMC_USBD_EP_OUT_BUFFERSIZE[i] = XMC_USBD_EP0_BUFFER_SIZE;
1104:C:/Users/Yushev/git/optiga-trust-qi/projects/xmc4700_relax_kit/common/Libraries/XMCLib/src\xmc_usbd.c **** 	  XMC_USBD_EP_IN_BUFFERSIZE[i] 	= XMC_USBD_EP0_BUFFER_SIZE;
1105:C:/Users/Yushev/git/optiga-trust-qi/projects/xmc4700_relax_kit/common/Libraries/XMCLib/src\xmc_usbd.c ****   }
1106:C:/Users/Yushev/git/optiga-trust-qi/projects/xmc4700_relax_kit/common/Libraries/XMCLib/src\xmc_usbd.c **** 
1107:C:/Users/Yushev/git/optiga-trust-qi/projects/xmc4700_relax_kit/common/Libraries/XMCLib/src\xmc_usbd.c ****   /* clear device status */
1108:C:/Users/Yushev/git/optiga-trust-qi/projects/xmc4700_relax_kit/common/Libraries/XMCLib/src\xmc_usbd.c ****   memset((void*)&xmc_device,0x0U,sizeof(XMC_USBD_DEVICE_t));
1109:C:/Users/Yushev/git/optiga-trust-qi/projects/xmc4700_relax_kit/common/Libraries/XMCLib/src\xmc_usbd.c **** 
1110:C:/Users/Yushev/git/optiga-trust-qi/projects/xmc4700_relax_kit/common/Libraries/XMCLib/src\xmc_usbd.c ****   /* assign callbacks */
1111:C:/Users/Yushev/git/optiga-trust-qi/projects/xmc4700_relax_kit/common/Libraries/XMCLib/src\xmc_usbd.c ****   xmc_device.DeviceEvent_cb = obj->cb_xmc_device_event;
1112:C:/Users/Yushev/git/optiga-trust-qi/projects/xmc4700_relax_kit/common/Libraries/XMCLib/src\xmc_usbd.c ****   xmc_device.EndpointEvent_cb = obj->cb_endpoint_event;
1113:C:/Users/Yushev/git/optiga-trust-qi/projects/xmc4700_relax_kit/common/Libraries/XMCLib/src\xmc_usbd.c ****   XMC_USBD_BASE_ADDRESS = (uint8_t *)(obj->usbd);
1114:C:/Users/Yushev/git/optiga-trust-qi/projects/xmc4700_relax_kit/common/Libraries/XMCLib/src\xmc_usbd.c ****   /* assign register address */
1115:C:/Users/Yushev/git/optiga-trust-qi/projects/xmc4700_relax_kit/common/Libraries/XMCLib/src\xmc_usbd.c ****   xmc_device.global_register = (dwc_otg_core_global_regs_t*)(obj->usbd);
1116:C:/Users/Yushev/git/optiga-trust-qi/projects/xmc4700_relax_kit/common/Libraries/XMCLib/src\xmc_usbd.c ****   xmc_device.device_register = ((dwc_otg_device_global_regs_t*)(XMC_USBD_BASE_ADDRESS + DWC_DEV_GLO
1117:C:/Users/Yushev/git/optiga-trust-qi/projects/xmc4700_relax_kit/common/Libraries/XMCLib/src\xmc_usbd.c ****   for (i = 0U;i < (uint32_t)XMC_USBD_NUM_EPS;i++)
1118:C:/Users/Yushev/git/optiga-trust-qi/projects/xmc4700_relax_kit/common/Libraries/XMCLib/src\xmc_usbd.c ****   {
1119:C:/Users/Yushev/git/optiga-trust-qi/projects/xmc4700_relax_kit/common/Libraries/XMCLib/src\xmc_usbd.c ****     xmc_device.endpoint_in_register[i] = (dwc_otg_dev_in_ep_regs_t*)(XMC_USBD_BASE_ADDRESS + DWC_DE
1120:C:/Users/Yushev/git/optiga-trust-qi/projects/xmc4700_relax_kit/common/Libraries/XMCLib/src\xmc_usbd.c ****     ((uint32_t)DWC_EP_REG_OFFSET*i));
1121:C:/Users/Yushev/git/optiga-trust-qi/projects/xmc4700_relax_kit/common/Libraries/XMCLib/src\xmc_usbd.c ****   }
1122:C:/Users/Yushev/git/optiga-trust-qi/projects/xmc4700_relax_kit/common/Libraries/XMCLib/src\xmc_usbd.c ****   for (i = 0U;i < (uint32_t)XMC_USBD_NUM_EPS;i++)
1123:C:/Users/Yushev/git/optiga-trust-qi/projects/xmc4700_relax_kit/common/Libraries/XMCLib/src\xmc_usbd.c ****   {
1124:C:/Users/Yushev/git/optiga-trust-qi/projects/xmc4700_relax_kit/common/Libraries/XMCLib/src\xmc_usbd.c ****     xmc_device.endpoint_out_register[i] = (dwc_otg_dev_out_ep_regs_t*)(XMC_USBD_BASE_ADDRESS +
1125:C:/Users/Yushev/git/optiga-trust-qi/projects/xmc4700_relax_kit/common/Libraries/XMCLib/src\xmc_usbd.c ****     									  DWC_DEV_OUT_EP_REG_OFFSET +
1126:C:/Users/Yushev/git/optiga-trust-qi/projects/xmc4700_relax_kit/common/Libraries/XMCLib/src\xmc_usbd.c ****     									  ((uint32_t)DWC_EP_REG_OFFSET*i));
1127:C:/Users/Yushev/git/optiga-trust-qi/projects/xmc4700_relax_kit/common/Libraries/XMCLib/src\xmc_usbd.c ****   }
1128:C:/Users/Yushev/git/optiga-trust-qi/projects/xmc4700_relax_kit/common/Libraries/XMCLib/src\xmc_usbd.c ****   for (i = 0U;i < (uint32_t)XMC_USBD_NUM_TX_FIFOS;i++)
1129:C:/Users/Yushev/git/optiga-trust-qi/projects/xmc4700_relax_kit/common/Libraries/XMCLib/src\xmc_usbd.c ****   {
1130:C:/Users/Yushev/git/optiga-trust-qi/projects/xmc4700_relax_kit/common/Libraries/XMCLib/src\xmc_usbd.c ****     xmc_device.fifo[i] = (uint32_t*)(XMC_USBD_BASE_ADDRESS +
1131:C:/Users/Yushev/git/optiga-trust-qi/projects/xmc4700_relax_kit/common/Libraries/XMCLib/src\xmc_usbd.c ****     						XMC_USBD_TX_FIFO_REG_OFFSET +
1132:C:/Users/Yushev/git/optiga-trust-qi/projects/xmc4700_relax_kit/common/Libraries/XMCLib/src\xmc_usbd.c ****     						(i * XMC_USBD_TX_FIFO_OFFSET));
1133:C:/Users/Yushev/git/optiga-trust-qi/projects/xmc4700_relax_kit/common/Libraries/XMCLib/src\xmc_usbd.c ****   }
1134:C:/Users/Yushev/git/optiga-trust-qi/projects/xmc4700_relax_kit/common/Libraries/XMCLib/src\xmc_usbd.c ****   /* obj data structure for endpoint 0 */
1135:C:/Users/Yushev/git/optiga-trust-qi/projects/xmc4700_relax_kit/common/Libraries/XMCLib/src\xmc_usbd.c ****   /* Done by driver core */
1136:C:/Users/Yushev/git/optiga-trust-qi/projects/xmc4700_relax_kit/common/Libraries/XMCLib/src\xmc_usbd.c ****   /* configure ahb details */  
1137:C:/Users/Yushev/git/optiga-trust-qi/projects/xmc4700_relax_kit/common/Libraries/XMCLib/src\xmc_usbd.c ****   gahbcfg.d32 = xmc_device.global_register->gahbcfg;
1138:C:/Users/Yushev/git/optiga-trust-qi/projects/xmc4700_relax_kit/common/Libraries/XMCLib/src\xmc_usbd.c ****   gahbcfg.b.glblintrmsk = 1U; /* enable interrupts ( global mask ) */
1139:C:/Users/Yushev/git/optiga-trust-qi/projects/xmc4700_relax_kit/common/Libraries/XMCLib/src\xmc_usbd.c ****   gahbcfg.b.nptxfemplvl_txfemplvl = 1U;
1140:C:/Users/Yushev/git/optiga-trust-qi/projects/xmc4700_relax_kit/common/Libraries/XMCLib/src\xmc_usbd.c ****   if(obj->usbd_transfer_mode == XMC_USBD_USE_DMA)
1141:C:/Users/Yushev/git/optiga-trust-qi/projects/xmc4700_relax_kit/common/Libraries/XMCLib/src\xmc_usbd.c ****   {
1142:C:/Users/Yushev/git/optiga-trust-qi/projects/xmc4700_relax_kit/common/Libraries/XMCLib/src\xmc_usbd.c ****     /* Enable dma if needed */
1143:C:/Users/Yushev/git/optiga-trust-qi/projects/xmc4700_relax_kit/common/Libraries/XMCLib/src\xmc_usbd.c ****     gahbcfg.b.dmaenable = 1U; /* enable dma if needed */
1144:C:/Users/Yushev/git/optiga-trust-qi/projects/xmc4700_relax_kit/common/Libraries/XMCLib/src\xmc_usbd.c ****   }
1145:C:/Users/Yushev/git/optiga-trust-qi/projects/xmc4700_relax_kit/common/Libraries/XMCLib/src\xmc_usbd.c ****   else
1146:C:/Users/Yushev/git/optiga-trust-qi/projects/xmc4700_relax_kit/common/Libraries/XMCLib/src\xmc_usbd.c ****   {
1147:C:/Users/Yushev/git/optiga-trust-qi/projects/xmc4700_relax_kit/common/Libraries/XMCLib/src\xmc_usbd.c ****     gahbcfg.b.dmaenable = 0U;
1148:C:/Users/Yushev/git/optiga-trust-qi/projects/xmc4700_relax_kit/common/Libraries/XMCLib/src\xmc_usbd.c ****   }
1149:C:/Users/Yushev/git/optiga-trust-qi/projects/xmc4700_relax_kit/common/Libraries/XMCLib/src\xmc_usbd.c ****   xmc_device.global_register->gahbcfg = gahbcfg.d32;
1150:C:/Users/Yushev/git/optiga-trust-qi/projects/xmc4700_relax_kit/common/Libraries/XMCLib/src\xmc_usbd.c ****   /* configure usb details */  
1151:C:/Users/Yushev/git/optiga-trust-qi/projects/xmc4700_relax_kit/common/Libraries/XMCLib/src\xmc_usbd.c ****   gusbcfg.d32= xmc_device.global_register->gusbcfg;
1152:C:/Users/Yushev/git/optiga-trust-qi/projects/xmc4700_relax_kit/common/Libraries/XMCLib/src\xmc_usbd.c ****   gusbcfg.b.force_dev_mode = 1U; /* force us into device mode */
1153:C:/Users/Yushev/git/optiga-trust-qi/projects/xmc4700_relax_kit/common/Libraries/XMCLib/src\xmc_usbd.c ****   gusbcfg.b.srpcap = 1U; /* enable session request protocoll */
1154:C:/Users/Yushev/git/optiga-trust-qi/projects/xmc4700_relax_kit/common/Libraries/XMCLib/src\xmc_usbd.c ****   xmc_device.global_register->gusbcfg = gusbcfg.d32;
1155:C:/Users/Yushev/git/optiga-trust-qi/projects/xmc4700_relax_kit/common/Libraries/XMCLib/src\xmc_usbd.c **** 
1156:C:/Users/Yushev/git/optiga-trust-qi/projects/xmc4700_relax_kit/common/Libraries/XMCLib/src\xmc_usbd.c ****   /* Device init */
1157:C:/Users/Yushev/git/optiga-trust-qi/projects/xmc4700_relax_kit/common/Libraries/XMCLib/src\xmc_usbd.c ****   /* configure device speed */  
1158:C:/Users/Yushev/git/optiga-trust-qi/projects/xmc4700_relax_kit/common/Libraries/XMCLib/src\xmc_usbd.c ****   dcfg.d32 = xmc_device.device_register->dcfg;
1159:C:/Users/Yushev/git/optiga-trust-qi/projects/xmc4700_relax_kit/common/Libraries/XMCLib/src\xmc_usbd.c ****   dcfg.b.devspd = XMC_USBD_DCFG_DEVSPD_FS;
1160:C:/Users/Yushev/git/optiga-trust-qi/projects/xmc4700_relax_kit/common/Libraries/XMCLib/src\xmc_usbd.c ****   dcfg.b.descdma = 0U;
1161:C:/Users/Yushev/git/optiga-trust-qi/projects/xmc4700_relax_kit/common/Libraries/XMCLib/src\xmc_usbd.c ****   xmc_device.device_register->dcfg = dcfg.d32;
1162:C:/Users/Yushev/git/optiga-trust-qi/projects/xmc4700_relax_kit/common/Libraries/XMCLib/src\xmc_usbd.c ****   /* configure device functions */  
1163:C:/Users/Yushev/git/optiga-trust-qi/projects/xmc4700_relax_kit/common/Libraries/XMCLib/src\xmc_usbd.c ****   dctl.d32 = xmc_device.device_register->dctl;
1164:C:/Users/Yushev/git/optiga-trust-qi/projects/xmc4700_relax_kit/common/Libraries/XMCLib/src\xmc_usbd.c ****   dctl.b.sftdiscon = 1U; /* disconnect the device until its connected by the user */
1165:C:/Users/Yushev/git/optiga-trust-qi/projects/xmc4700_relax_kit/common/Libraries/XMCLib/src\xmc_usbd.c ****   /* all other config is done by default register value */
1166:C:/Users/Yushev/git/optiga-trust-qi/projects/xmc4700_relax_kit/common/Libraries/XMCLib/src\xmc_usbd.c ****   xmc_device.device_register->dctl = dctl.d32;
1167:C:/Users/Yushev/git/optiga-trust-qi/projects/xmc4700_relax_kit/common/Libraries/XMCLib/src\xmc_usbd.c ****   /* flush the fifos for proper operation */
1168:C:/Users/Yushev/git/optiga-trust-qi/projects/xmc4700_relax_kit/common/Libraries/XMCLib/src\xmc_usbd.c ****   XMC_USBD_lFlushTXFifo((uint8_t)0x10U); /* 0x10 == all fifos, see doc */
1169:C:/Users/Yushev/git/optiga-trust-qi/projects/xmc4700_relax_kit/common/Libraries/XMCLib/src\xmc_usbd.c ****   XMC_USBD_lFlushRXFifo();
1170:C:/Users/Yushev/git/optiga-trust-qi/projects/xmc4700_relax_kit/common/Libraries/XMCLib/src\xmc_usbd.c ****   /* Enable Global Interrupts */
1171:C:/Users/Yushev/git/optiga-trust-qi/projects/xmc4700_relax_kit/common/Libraries/XMCLib/src\xmc_usbd.c ****   /* clear interrupt status bits prior to unmasking */
1172:C:/Users/Yushev/git/optiga-trust-qi/projects/xmc4700_relax_kit/common/Libraries/XMCLib/src\xmc_usbd.c ****   xmc_device.global_register->gintmsk = 0U; /* disable all interrupts */
1173:C:/Users/Yushev/git/optiga-trust-qi/projects/xmc4700_relax_kit/common/Libraries/XMCLib/src\xmc_usbd.c ****   xmc_device.global_register->gintsts = 0xFFFFFFFFU; /* clear all interrupts */
1174:C:/Users/Yushev/git/optiga-trust-qi/projects/xmc4700_relax_kit/common/Libraries/XMCLib/src\xmc_usbd.c ****  
1175:C:/Users/Yushev/git/optiga-trust-qi/projects/xmc4700_relax_kit/common/Libraries/XMCLib/src\xmc_usbd.c ****   gintmsk.d32 = 0U;
1176:C:/Users/Yushev/git/optiga-trust-qi/projects/xmc4700_relax_kit/common/Libraries/XMCLib/src\xmc_usbd.c ****   /* enable common interrupts */
1177:C:/Users/Yushev/git/optiga-trust-qi/projects/xmc4700_relax_kit/common/Libraries/XMCLib/src\xmc_usbd.c ****   gintmsk.b.modemismatch = 1U;
1178:C:/Users/Yushev/git/optiga-trust-qi/projects/xmc4700_relax_kit/common/Libraries/XMCLib/src\xmc_usbd.c ****   gintmsk.b.otgintr = 1U;
1179:C:/Users/Yushev/git/optiga-trust-qi/projects/xmc4700_relax_kit/common/Libraries/XMCLib/src\xmc_usbd.c ****   gintmsk.b.sessreqintr = 1U;
1180:C:/Users/Yushev/git/optiga-trust-qi/projects/xmc4700_relax_kit/common/Libraries/XMCLib/src\xmc_usbd.c ****   /* enable device interrupts */
1181:C:/Users/Yushev/git/optiga-trust-qi/projects/xmc4700_relax_kit/common/Libraries/XMCLib/src\xmc_usbd.c ****   gintmsk.b.usbreset = 1U;
1182:C:/Users/Yushev/git/optiga-trust-qi/projects/xmc4700_relax_kit/common/Libraries/XMCLib/src\xmc_usbd.c ****   gintmsk.b.enumdone = 1U;
1183:C:/Users/Yushev/git/optiga-trust-qi/projects/xmc4700_relax_kit/common/Libraries/XMCLib/src\xmc_usbd.c ****   gintmsk.b.erlysuspend = 1U;
1184:C:/Users/Yushev/git/optiga-trust-qi/projects/xmc4700_relax_kit/common/Libraries/XMCLib/src\xmc_usbd.c ****   gintmsk.b.usbsuspend = 1U;
1185:C:/Users/Yushev/git/optiga-trust-qi/projects/xmc4700_relax_kit/common/Libraries/XMCLib/src\xmc_usbd.c ****   gintmsk.b.wkupintr = 1U;
1186:C:/Users/Yushev/git/optiga-trust-qi/projects/xmc4700_relax_kit/common/Libraries/XMCLib/src\xmc_usbd.c ****   gintmsk.b.sofintr = 1U;
1187:C:/Users/Yushev/git/optiga-trust-qi/projects/xmc4700_relax_kit/common/Libraries/XMCLib/src\xmc_usbd.c ****   if(obj->usbd_transfer_mode == XMC_USBD_USE_FIFO)
1188:C:/Users/Yushev/git/optiga-trust-qi/projects/xmc4700_relax_kit/common/Libraries/XMCLib/src\xmc_usbd.c ****   {
1189:C:/Users/Yushev/git/optiga-trust-qi/projects/xmc4700_relax_kit/common/Libraries/XMCLib/src\xmc_usbd.c ****     gintmsk.b.rxstsqlvl = 1U;
1190:C:/Users/Yushev/git/optiga-trust-qi/projects/xmc4700_relax_kit/common/Libraries/XMCLib/src\xmc_usbd.c ****   }
1191:C:/Users/Yushev/git/optiga-trust-qi/projects/xmc4700_relax_kit/common/Libraries/XMCLib/src\xmc_usbd.c ****   gintmsk.b.outepintr = 1U;
1192:C:/Users/Yushev/git/optiga-trust-qi/projects/xmc4700_relax_kit/common/Libraries/XMCLib/src\xmc_usbd.c ****   gintmsk.b.inepintr = 1U;
1193:C:/Users/Yushev/git/optiga-trust-qi/projects/xmc4700_relax_kit/common/Libraries/XMCLib/src\xmc_usbd.c ****   xmc_device.global_register->gintmsk = gintmsk.d32;
1194:C:/Users/Yushev/git/optiga-trust-qi/projects/xmc4700_relax_kit/common/Libraries/XMCLib/src\xmc_usbd.c ****   return XMC_USBD_STATUS_OK;
1195:C:/Users/Yushev/git/optiga-trust-qi/projects/xmc4700_relax_kit/common/Libraries/XMCLib/src\xmc_usbd.c **** }
1196:C:/Users/Yushev/git/optiga-trust-qi/projects/xmc4700_relax_kit/common/Libraries/XMCLib/src\xmc_usbd.c **** 
1197:C:/Users/Yushev/git/optiga-trust-qi/projects/xmc4700_relax_kit/common/Libraries/XMCLib/src\xmc_usbd.c **** /**
1198:C:/Users/Yushev/git/optiga-trust-qi/projects/xmc4700_relax_kit/common/Libraries/XMCLib/src\xmc_usbd.c ****  * Uninitializes the USB device
1199:C:/Users/Yushev/git/optiga-trust-qi/projects/xmc4700_relax_kit/common/Libraries/XMCLib/src\xmc_usbd.c ****  **/
1200:C:/Users/Yushev/git/optiga-trust-qi/projects/xmc4700_relax_kit/common/Libraries/XMCLib/src\xmc_usbd.c **** XMC_USBD_STATUS_t XMC_USBD_Uninitialize() 
1201:C:/Users/Yushev/git/optiga-trust-qi/projects/xmc4700_relax_kit/common/Libraries/XMCLib/src\xmc_usbd.c **** {
1202:C:/Users/Yushev/git/optiga-trust-qi/projects/xmc4700_relax_kit/common/Libraries/XMCLib/src\xmc_usbd.c ****   /* Disconnect the device */
1203:C:/Users/Yushev/git/optiga-trust-qi/projects/xmc4700_relax_kit/common/Libraries/XMCLib/src\xmc_usbd.c ****   dctl_data_t dctl;
1204:C:/Users/Yushev/git/optiga-trust-qi/projects/xmc4700_relax_kit/common/Libraries/XMCLib/src\xmc_usbd.c **** 	dctl.d32 = xmc_device.device_register->dctl;
1205:C:/Users/Yushev/git/optiga-trust-qi/projects/xmc4700_relax_kit/common/Libraries/XMCLib/src\xmc_usbd.c ****   dctl.b.sftdiscon = 1U;
1206:C:/Users/Yushev/git/optiga-trust-qi/projects/xmc4700_relax_kit/common/Libraries/XMCLib/src\xmc_usbd.c ****   xmc_device.device_register->dctl = dctl.d32;
1207:C:/Users/Yushev/git/optiga-trust-qi/projects/xmc4700_relax_kit/common/Libraries/XMCLib/src\xmc_usbd.c ****   /* clean up */
1208:C:/Users/Yushev/git/optiga-trust-qi/projects/xmc4700_relax_kit/common/Libraries/XMCLib/src\xmc_usbd.c ****   memset((void*)&xmc_device,0U,sizeof(xmc_device));
1209:C:/Users/Yushev/git/optiga-trust-qi/projects/xmc4700_relax_kit/common/Libraries/XMCLib/src\xmc_usbd.c ****   return XMC_USBD_STATUS_OK;
1210:C:/Users/Yushev/git/optiga-trust-qi/projects/xmc4700_relax_kit/common/Libraries/XMCLib/src\xmc_usbd.c **** }
1211:C:/Users/Yushev/git/optiga-trust-qi/projects/xmc4700_relax_kit/common/Libraries/XMCLib/src\xmc_usbd.c **** 
1212:C:/Users/Yushev/git/optiga-trust-qi/projects/xmc4700_relax_kit/common/Libraries/XMCLib/src\xmc_usbd.c **** /**
1213:C:/Users/Yushev/git/optiga-trust-qi/projects/xmc4700_relax_kit/common/Libraries/XMCLib/src\xmc_usbd.c ****  * Connects the USB device to host
1214:C:/Users/Yushev/git/optiga-trust-qi/projects/xmc4700_relax_kit/common/Libraries/XMCLib/src\xmc_usbd.c ****  **/
1215:C:/Users/Yushev/git/optiga-trust-qi/projects/xmc4700_relax_kit/common/Libraries/XMCLib/src\xmc_usbd.c **** XMC_USBD_STATUS_t XMC_USBD_DeviceConnect() 
1216:C:/Users/Yushev/git/optiga-trust-qi/projects/xmc4700_relax_kit/common/Libraries/XMCLib/src\xmc_usbd.c **** {
 541              	 .loc 1 1216 0
 542              	 .cfi_startproc
 543              	 
 544              	 
 545              	 
1217:C:/Users/Yushev/git/optiga-trust-qi/projects/xmc4700_relax_kit/common/Libraries/XMCLib/src\xmc_usbd.c ****   /* Just disable softdisconnect */
1218:C:/Users/Yushev/git/optiga-trust-qi/projects/xmc4700_relax_kit/common/Libraries/XMCLib/src\xmc_usbd.c ****   dctl_data_t dctl;
1219:C:/Users/Yushev/git/optiga-trust-qi/projects/xmc4700_relax_kit/common/Libraries/XMCLib/src\xmc_usbd.c **** 	dctl.d32 = xmc_device.device_register->dctl;
 546              	 .loc 1 1219 0
 547 0000 044B     	 ldr r3,.L50
 548 0002 D3F8A421 	 ldr r2,[r3,#420]
 549 0006 5368     	 ldr r3,[r2,#4]
1220:C:/Users/Yushev/git/optiga-trust-qi/projects/xmc4700_relax_kit/common/Libraries/XMCLib/src\xmc_usbd.c ****   dctl.b.sftdiscon = 0U;
 550              	 .loc 1 1220 0
 551 0008 6FF34103 	 bfc r3,#1,#1
 552              	.LVL47:
1221:C:/Users/Yushev/git/optiga-trust-qi/projects/xmc4700_relax_kit/common/Libraries/XMCLib/src\xmc_usbd.c ****   xmc_device.device_register->dctl = dctl.d32;
 553              	 .loc 1 1221 0
 554 000c 5360     	 str r3,[r2,#4]
1222:C:/Users/Yushev/git/optiga-trust-qi/projects/xmc4700_relax_kit/common/Libraries/XMCLib/src\xmc_usbd.c ****   return XMC_USBD_STATUS_OK;
1223:C:/Users/Yushev/git/optiga-trust-qi/projects/xmc4700_relax_kit/common/Libraries/XMCLib/src\xmc_usbd.c **** }
 555              	 .loc 1 1223 0
 556 000e 0020     	 movs r0,#0
 557 0010 7047     	 bx lr
 558              	.L51:
 559 0012 00BF     	 .align 2
 560              	.L50:
 561 0014 00000000 	 .word xmc_device
 562              	 .cfi_endproc
 563              	.LFE196:
 565              	 .section .text.XMC_USBD_DeviceDisconnect,"ax",%progbits
 566              	 .align 1
 567              	 .global XMC_USBD_DeviceDisconnect
 568              	 .thumb
 569              	 .thumb_func
 571              	XMC_USBD_DeviceDisconnect:
 572              	.LFB197:
1224:C:/Users/Yushev/git/optiga-trust-qi/projects/xmc4700_relax_kit/common/Libraries/XMCLib/src\xmc_usbd.c **** 
1225:C:/Users/Yushev/git/optiga-trust-qi/projects/xmc4700_relax_kit/common/Libraries/XMCLib/src\xmc_usbd.c **** /**
1226:C:/Users/Yushev/git/optiga-trust-qi/projects/xmc4700_relax_kit/common/Libraries/XMCLib/src\xmc_usbd.c ****  * Disconnects the USB device from host
1227:C:/Users/Yushev/git/optiga-trust-qi/projects/xmc4700_relax_kit/common/Libraries/XMCLib/src\xmc_usbd.c ****  **/
1228:C:/Users/Yushev/git/optiga-trust-qi/projects/xmc4700_relax_kit/common/Libraries/XMCLib/src\xmc_usbd.c **** XMC_USBD_STATUS_t XMC_USBD_DeviceDisconnect() 
1229:C:/Users/Yushev/git/optiga-trust-qi/projects/xmc4700_relax_kit/common/Libraries/XMCLib/src\xmc_usbd.c **** {
 573              	 .loc 1 1229 0
 574              	 .cfi_startproc
 575              	 
 576              	 
 577              	 
1230:C:/Users/Yushev/git/optiga-trust-qi/projects/xmc4700_relax_kit/common/Libraries/XMCLib/src\xmc_usbd.c ****   dctl_data_t dctl;
1231:C:/Users/Yushev/git/optiga-trust-qi/projects/xmc4700_relax_kit/common/Libraries/XMCLib/src\xmc_usbd.c **** 	dctl.d32 = xmc_device.device_register->dctl;
 578              	 .loc 1 1231 0
 579 0000 044B     	 ldr r3,.L53
 580 0002 D3F8A421 	 ldr r2,[r3,#420]
 581 0006 5368     	 ldr r3,[r2,#4]
1232:C:/Users/Yushev/git/optiga-trust-qi/projects/xmc4700_relax_kit/common/Libraries/XMCLib/src\xmc_usbd.c ****   dctl.b.sftdiscon = 1U;
 582              	 .loc 1 1232 0
 583 0008 43F00203 	 orr r3,r3,#2
 584              	.LVL48:
1233:C:/Users/Yushev/git/optiga-trust-qi/projects/xmc4700_relax_kit/common/Libraries/XMCLib/src\xmc_usbd.c ****   xmc_device.device_register->dctl = dctl.d32;
 585              	 .loc 1 1233 0
 586 000c 5360     	 str r3,[r2,#4]
1234:C:/Users/Yushev/git/optiga-trust-qi/projects/xmc4700_relax_kit/common/Libraries/XMCLib/src\xmc_usbd.c ****   return XMC_USBD_STATUS_OK;
1235:C:/Users/Yushev/git/optiga-trust-qi/projects/xmc4700_relax_kit/common/Libraries/XMCLib/src\xmc_usbd.c **** }
 587              	 .loc 1 1235 0
 588 000e 0020     	 movs r0,#0
 589 0010 7047     	 bx lr
 590              	.L54:
 591 0012 00BF     	 .align 2
 592              	.L53:
 593 0014 00000000 	 .word xmc_device
 594              	 .cfi_endproc
 595              	.LFE197:
 597              	 .section .text.XMC_USBD_EndpointReadStart,"ax",%progbits
 598              	 .align 1
 599              	 .global XMC_USBD_EndpointReadStart
 600              	 .thumb
 601              	 .thumb_func
 603              	XMC_USBD_EndpointReadStart:
 604              	.LFB199:
1236:C:/Users/Yushev/git/optiga-trust-qi/projects/xmc4700_relax_kit/common/Libraries/XMCLib/src\xmc_usbd.c **** 
1237:C:/Users/Yushev/git/optiga-trust-qi/projects/xmc4700_relax_kit/common/Libraries/XMCLib/src\xmc_usbd.c **** /**
1238:C:/Users/Yushev/git/optiga-trust-qi/projects/xmc4700_relax_kit/common/Libraries/XMCLib/src\xmc_usbd.c ****  * Gets the USB device state.
1239:C:/Users/Yushev/git/optiga-trust-qi/projects/xmc4700_relax_kit/common/Libraries/XMCLib/src\xmc_usbd.c ****  **/
1240:C:/Users/Yushev/git/optiga-trust-qi/projects/xmc4700_relax_kit/common/Libraries/XMCLib/src\xmc_usbd.c **** XMC_USBD_STATE_t XMC_USBD_DeviceGetState(const XMC_USBD_t *const obj) 
1241:C:/Users/Yushev/git/optiga-trust-qi/projects/xmc4700_relax_kit/common/Libraries/XMCLib/src\xmc_usbd.c **** {
1242:C:/Users/Yushev/git/optiga-trust-qi/projects/xmc4700_relax_kit/common/Libraries/XMCLib/src\xmc_usbd.c ****   XMC_USBD_STATE_t state={0U};
1243:C:/Users/Yushev/git/optiga-trust-qi/projects/xmc4700_relax_kit/common/Libraries/XMCLib/src\xmc_usbd.c ****   state.speed = XMC_USBD_SPEED_FULL;
1244:C:/Users/Yushev/git/optiga-trust-qi/projects/xmc4700_relax_kit/common/Libraries/XMCLib/src\xmc_usbd.c ****   state.connected = xmc_device.IsConnected;
1245:C:/Users/Yushev/git/optiga-trust-qi/projects/xmc4700_relax_kit/common/Libraries/XMCLib/src\xmc_usbd.c ****   state.active = XMC_USBD_lDeviceActive(obj);
1246:C:/Users/Yushev/git/optiga-trust-qi/projects/xmc4700_relax_kit/common/Libraries/XMCLib/src\xmc_usbd.c ****   state.powered = xmc_device.IsPowered;
1247:C:/Users/Yushev/git/optiga-trust-qi/projects/xmc4700_relax_kit/common/Libraries/XMCLib/src\xmc_usbd.c ****   return state;
1248:C:/Users/Yushev/git/optiga-trust-qi/projects/xmc4700_relax_kit/common/Libraries/XMCLib/src\xmc_usbd.c **** }
1249:C:/Users/Yushev/git/optiga-trust-qi/projects/xmc4700_relax_kit/common/Libraries/XMCLib/src\xmc_usbd.c **** 
1250:C:/Users/Yushev/git/optiga-trust-qi/projects/xmc4700_relax_kit/common/Libraries/XMCLib/src\xmc_usbd.c **** /**
1251:C:/Users/Yushev/git/optiga-trust-qi/projects/xmc4700_relax_kit/common/Libraries/XMCLib/src\xmc_usbd.c ****  * Prepares the endpoint to read next OUT packet
1252:C:/Users/Yushev/git/optiga-trust-qi/projects/xmc4700_relax_kit/common/Libraries/XMCLib/src\xmc_usbd.c ****  **/
1253:C:/Users/Yushev/git/optiga-trust-qi/projects/xmc4700_relax_kit/common/Libraries/XMCLib/src\xmc_usbd.c **** XMC_USBD_STATUS_t XMC_USBD_EndpointReadStart(const uint8_t ep_addr, uint32_t size) 
1254:C:/Users/Yushev/git/optiga-trust-qi/projects/xmc4700_relax_kit/common/Libraries/XMCLib/src\xmc_usbd.c **** {
 605              	 .loc 1 1254 0
 606              	 .cfi_startproc
 607              	 
 608              	 
 609              	.LVL49:
 610 0000 10B5     	 push {r4,lr}
 611              	.LCFI7:
 612              	 .cfi_def_cfa_offset 8
 613              	 .cfi_offset 4,-8
 614              	 .cfi_offset 14,-4
1255:C:/Users/Yushev/git/optiga-trust-qi/projects/xmc4700_relax_kit/common/Libraries/XMCLib/src\xmc_usbd.c ****   XMC_USBD_EP_t *ep = &xmc_device.ep[ep_addr & (uint8_t)XMC_USBD_EP_NUM_MASK];
1256:C:/Users/Yushev/git/optiga-trust-qi/projects/xmc4700_relax_kit/common/Libraries/XMCLib/src\xmc_usbd.c ****   XMC_USBD_STATUS_t result;
1257:C:/Users/Yushev/git/optiga-trust-qi/projects/xmc4700_relax_kit/common/Libraries/XMCLib/src\xmc_usbd.c **** 	
1258:C:/Users/Yushev/git/optiga-trust-qi/projects/xmc4700_relax_kit/common/Libraries/XMCLib/src\xmc_usbd.c ****   if (ep->outInUse || !ep->isConfigured)
 615              	 .loc 1 1258 0
 616 0002 0E4A     	 ldr r2,.L59
1255:C:/Users/Yushev/git/optiga-trust-qi/projects/xmc4700_relax_kit/common/Libraries/XMCLib/src\xmc_usbd.c ****   XMC_USBD_EP_t *ep = &xmc_device.ep[ep_addr & (uint8_t)XMC_USBD_EP_NUM_MASK];
 617              	 .loc 1 1255 0
 618 0004 00F00F03 	 and r3,r0,#15
 619              	.LVL50:
 620              	 .loc 1 1258 0
 621 0008 3420     	 movs r0,#52
 622              	.LVL51:
 623 000a 00FB0320 	 mla r0,r0,r3,r2
 624              	.LVL52:
 625 000e 4468     	 ldr r4,[r0,#4]
 626 0010 C4F30014 	 ubfx r4,r4,#4,#1
 627 0014 84B9     	 cbnz r4,.L58
 628              	 .loc 1 1258 0 is_stmt 0 discriminator 1
 629 0016 0379     	 ldrb r3,[r0,#4]
 630 0018 5B07     	 lsls r3,r3,#29
 631 001a 0DD5     	 bpl .L58
1259:C:/Users/Yushev/git/optiga-trust-qi/projects/xmc4700_relax_kit/common/Libraries/XMCLib/src\xmc_usbd.c ****   {
1260:C:/Users/Yushev/git/optiga-trust-qi/projects/xmc4700_relax_kit/common/Libraries/XMCLib/src\xmc_usbd.c ****     result = XMC_USBD_STATUS_ERROR;
1261:C:/Users/Yushev/git/optiga-trust-qi/projects/xmc4700_relax_kit/common/Libraries/XMCLib/src\xmc_usbd.c ****   }
1262:C:/Users/Yushev/git/optiga-trust-qi/projects/xmc4700_relax_kit/common/Libraries/XMCLib/src\xmc_usbd.c ****   else
1263:C:/Users/Yushev/git/optiga-trust-qi/projects/xmc4700_relax_kit/common/Libraries/XMCLib/src\xmc_usbd.c ****   {
1264:C:/Users/Yushev/git/optiga-trust-qi/projects/xmc4700_relax_kit/common/Libraries/XMCLib/src\xmc_usbd.c ****     /* short the length to buffer size if needed */
1265:C:/Users/Yushev/git/optiga-trust-qi/projects/xmc4700_relax_kit/common/Libraries/XMCLib/src\xmc_usbd.c ****     if (size > ep->outBufferSize)
 632              	 .loc 1 1265 0 is_stmt 1
 633 001c 4369     	 ldr r3,[r0,#20]
 634              	.LVL53:
1266:C:/Users/Yushev/git/optiga-trust-qi/projects/xmc4700_relax_kit/common/Libraries/XMCLib/src\xmc_usbd.c ****     {
1267:C:/Users/Yushev/git/optiga-trust-qi/projects/xmc4700_relax_kit/common/Libraries/XMCLib/src\xmc_usbd.c ****       size = ep->outBufferSize;
1268:C:/Users/Yushev/git/optiga-trust-qi/projects/xmc4700_relax_kit/common/Libraries/XMCLib/src\xmc_usbd.c ****     }
1269:C:/Users/Yushev/git/optiga-trust-qi/projects/xmc4700_relax_kit/common/Libraries/XMCLib/src\xmc_usbd.c ****     /* set ep values */
1270:C:/Users/Yushev/git/optiga-trust-qi/projects/xmc4700_relax_kit/common/Libraries/XMCLib/src\xmc_usbd.c ****     ep->xferTotal = size;
 635              	 .loc 1 1270 0
 636 001e 9942     	 cmp r1,r3
 637 0020 94BF     	 ite ls
 638 0022 0163     	 strls r1,[r0,#48]
 639 0024 0363     	 strhi r3,[r0,#48]
 640              	.LVL54:
1271:C:/Users/Yushev/git/optiga-trust-qi/projects/xmc4700_relax_kit/common/Libraries/XMCLib/src\xmc_usbd.c ****     ep->xferCount = 0U;
1272:C:/Users/Yushev/git/optiga-trust-qi/projects/xmc4700_relax_kit/common/Libraries/XMCLib/src\xmc_usbd.c ****     ep->xferLength = 0U;
1273:C:/Users/Yushev/git/optiga-trust-qi/projects/xmc4700_relax_kit/common/Libraries/XMCLib/src\xmc_usbd.c ****     ep->xferBuffer = ep->outBuffer;
 641              	 .loc 1 1273 0
 642 0026 C368     	 ldr r3,[r0,#12]
1271:C:/Users/Yushev/git/optiga-trust-qi/projects/xmc4700_relax_kit/common/Libraries/XMCLib/src\xmc_usbd.c ****     ep->xferCount = 0U;
 643              	 .loc 1 1271 0
 644 0028 C462     	 str r4,[r0,#44]
1272:C:/Users/Yushev/git/optiga-trust-qi/projects/xmc4700_relax_kit/common/Libraries/XMCLib/src\xmc_usbd.c ****     ep->xferBuffer = ep->outBuffer;
 645              	 .loc 1 1272 0
 646 002a 8462     	 str r4,[r0,#40]
 647              	 .loc 1 1273 0
 648 002c 4362     	 str r3,[r0,#36]
1274:C:/Users/Yushev/git/optiga-trust-qi/projects/xmc4700_relax_kit/common/Libraries/XMCLib/src\xmc_usbd.c ****     ep->outBytesAvailable = 0U;
 649              	 .loc 1 1274 0
 650 002e 0461     	 str r4,[r0,#16]
1275:C:/Users/Yushev/git/optiga-trust-qi/projects/xmc4700_relax_kit/common/Libraries/XMCLib/src\xmc_usbd.c ****     XMC_USBD_lStartReadXfer(ep);
 651              	 .loc 1 1275 0
 652 0030 FFF7FEFF 	 bl XMC_USBD_lStartReadXfer
 653              	.LVL55:
1276:C:/Users/Yushev/git/optiga-trust-qi/projects/xmc4700_relax_kit/common/Libraries/XMCLib/src\xmc_usbd.c ****     result= XMC_USBD_STATUS_OK;
 654              	 .loc 1 1276 0
 655 0034 2046     	 mov r0,r4
 656 0036 10BD     	 pop {r4,pc}
 657              	.LVL56:
 658              	.L58:
1260:C:/Users/Yushev/git/optiga-trust-qi/projects/xmc4700_relax_kit/common/Libraries/XMCLib/src\xmc_usbd.c ****   }
 659              	 .loc 1 1260 0
 660 0038 0120     	 movs r0,#1
 661              	.LVL57:
1277:C:/Users/Yushev/git/optiga-trust-qi/projects/xmc4700_relax_kit/common/Libraries/XMCLib/src\xmc_usbd.c ****   }
1278:C:/Users/Yushev/git/optiga-trust-qi/projects/xmc4700_relax_kit/common/Libraries/XMCLib/src\xmc_usbd.c ****   return result;
1279:C:/Users/Yushev/git/optiga-trust-qi/projects/xmc4700_relax_kit/common/Libraries/XMCLib/src\xmc_usbd.c **** }
 662              	 .loc 1 1279 0
 663 003a 10BD     	 pop {r4,pc}
 664              	.L60:
 665              	 .align 2
 666              	.L59:
 667 003c 00000000 	 .word xmc_device
 668              	 .cfi_endproc
 669              	.LFE199:
 671              	 .section .text.XMC_USBD_DeviceSetAddress,"ax",%progbits
 672              	 .align 1
 673              	 .global XMC_USBD_DeviceSetAddress
 674              	 .thumb
 675              	 .thumb_func
 677              	XMC_USBD_DeviceSetAddress:
 678              	.LFB202:
1280:C:/Users/Yushev/git/optiga-trust-qi/projects/xmc4700_relax_kit/common/Libraries/XMCLib/src\xmc_usbd.c **** 
1281:C:/Users/Yushev/git/optiga-trust-qi/projects/xmc4700_relax_kit/common/Libraries/XMCLib/src\xmc_usbd.c **** /**
1282:C:/Users/Yushev/git/optiga-trust-qi/projects/xmc4700_relax_kit/common/Libraries/XMCLib/src\xmc_usbd.c ****  * Reads the number of bytes from the USB OUT endpoint
1283:C:/Users/Yushev/git/optiga-trust-qi/projects/xmc4700_relax_kit/common/Libraries/XMCLib/src\xmc_usbd.c ****  **/
1284:C:/Users/Yushev/git/optiga-trust-qi/projects/xmc4700_relax_kit/common/Libraries/XMCLib/src\xmc_usbd.c **** int32_t XMC_USBD_EndpointRead(const uint8_t ep_num,uint8_t * buffer,uint32_t length) 
1285:C:/Users/Yushev/git/optiga-trust-qi/projects/xmc4700_relax_kit/common/Libraries/XMCLib/src\xmc_usbd.c **** {
1286:C:/Users/Yushev/git/optiga-trust-qi/projects/xmc4700_relax_kit/common/Libraries/XMCLib/src\xmc_usbd.c ****   XMC_USBD_EP_t *ep = &xmc_device.ep[ep_num];
1287:C:/Users/Yushev/git/optiga-trust-qi/projects/xmc4700_relax_kit/common/Libraries/XMCLib/src\xmc_usbd.c ****   if (length > ep->outBytesAvailable)
1288:C:/Users/Yushev/git/optiga-trust-qi/projects/xmc4700_relax_kit/common/Libraries/XMCLib/src\xmc_usbd.c ****   {
1289:C:/Users/Yushev/git/optiga-trust-qi/projects/xmc4700_relax_kit/common/Libraries/XMCLib/src\xmc_usbd.c ****     length = ep->outBytesAvailable;
1290:C:/Users/Yushev/git/optiga-trust-qi/projects/xmc4700_relax_kit/common/Libraries/XMCLib/src\xmc_usbd.c ****   }
1291:C:/Users/Yushev/git/optiga-trust-qi/projects/xmc4700_relax_kit/common/Libraries/XMCLib/src\xmc_usbd.c ****   memcpy(buffer,&ep->outBuffer[ep->outOffset],length);
1292:C:/Users/Yushev/git/optiga-trust-qi/projects/xmc4700_relax_kit/common/Libraries/XMCLib/src\xmc_usbd.c ****   ep->outBytesAvailable -= length;
1293:C:/Users/Yushev/git/optiga-trust-qi/projects/xmc4700_relax_kit/common/Libraries/XMCLib/src\xmc_usbd.c ****   if (ep->outBytesAvailable)
1294:C:/Users/Yushev/git/optiga-trust-qi/projects/xmc4700_relax_kit/common/Libraries/XMCLib/src\xmc_usbd.c ****   {
1295:C:/Users/Yushev/git/optiga-trust-qi/projects/xmc4700_relax_kit/common/Libraries/XMCLib/src\xmc_usbd.c ****     ep->outOffset += length;
1296:C:/Users/Yushev/git/optiga-trust-qi/projects/xmc4700_relax_kit/common/Libraries/XMCLib/src\xmc_usbd.c ****   }
1297:C:/Users/Yushev/git/optiga-trust-qi/projects/xmc4700_relax_kit/common/Libraries/XMCLib/src\xmc_usbd.c ****   else
1298:C:/Users/Yushev/git/optiga-trust-qi/projects/xmc4700_relax_kit/common/Libraries/XMCLib/src\xmc_usbd.c ****   {
1299:C:/Users/Yushev/git/optiga-trust-qi/projects/xmc4700_relax_kit/common/Libraries/XMCLib/src\xmc_usbd.c ****     ep->outOffset = 0U;
1300:C:/Users/Yushev/git/optiga-trust-qi/projects/xmc4700_relax_kit/common/Libraries/XMCLib/src\xmc_usbd.c ****   }
1301:C:/Users/Yushev/git/optiga-trust-qi/projects/xmc4700_relax_kit/common/Libraries/XMCLib/src\xmc_usbd.c ****   return (int32_t)length;
1302:C:/Users/Yushev/git/optiga-trust-qi/projects/xmc4700_relax_kit/common/Libraries/XMCLib/src\xmc_usbd.c **** }
1303:C:/Users/Yushev/git/optiga-trust-qi/projects/xmc4700_relax_kit/common/Libraries/XMCLib/src\xmc_usbd.c **** 
1304:C:/Users/Yushev/git/optiga-trust-qi/projects/xmc4700_relax_kit/common/Libraries/XMCLib/src\xmc_usbd.c **** /**
1305:C:/Users/Yushev/git/optiga-trust-qi/projects/xmc4700_relax_kit/common/Libraries/XMCLib/src\xmc_usbd.c ****  * Writes number of bytes in to the USB IN endpoint.
1306:C:/Users/Yushev/git/optiga-trust-qi/projects/xmc4700_relax_kit/common/Libraries/XMCLib/src\xmc_usbd.c ****  **/
1307:C:/Users/Yushev/git/optiga-trust-qi/projects/xmc4700_relax_kit/common/Libraries/XMCLib/src\xmc_usbd.c **** int32_t XMC_USBD_EndpointWrite(const uint8_t ep_num,const uint8_t * buffer,uint32_t length) 
1308:C:/Users/Yushev/git/optiga-trust-qi/projects/xmc4700_relax_kit/common/Libraries/XMCLib/src\xmc_usbd.c **** {
1309:C:/Users/Yushev/git/optiga-trust-qi/projects/xmc4700_relax_kit/common/Libraries/XMCLib/src\xmc_usbd.c ****   XMC_USBD_EP_t * ep = &xmc_device.ep[ep_num & (uint8_t)XMC_USBD_EP_NUM_MASK];
1310:C:/Users/Yushev/git/optiga-trust-qi/projects/xmc4700_relax_kit/common/Libraries/XMCLib/src\xmc_usbd.c ****   int32_t result;
1311:C:/Users/Yushev/git/optiga-trust-qi/projects/xmc4700_relax_kit/common/Libraries/XMCLib/src\xmc_usbd.c ****   if (!ep->isConfigured)
1312:C:/Users/Yushev/git/optiga-trust-qi/projects/xmc4700_relax_kit/common/Libraries/XMCLib/src\xmc_usbd.c ****   {
1313:C:/Users/Yushev/git/optiga-trust-qi/projects/xmc4700_relax_kit/common/Libraries/XMCLib/src\xmc_usbd.c ****     result = (int32_t)XMC_USBD_STATUS_ERROR;
1314:C:/Users/Yushev/git/optiga-trust-qi/projects/xmc4700_relax_kit/common/Libraries/XMCLib/src\xmc_usbd.c ****   }
1315:C:/Users/Yushev/git/optiga-trust-qi/projects/xmc4700_relax_kit/common/Libraries/XMCLib/src\xmc_usbd.c ****   else if (ep->inInUse == 1U)
1316:C:/Users/Yushev/git/optiga-trust-qi/projects/xmc4700_relax_kit/common/Libraries/XMCLib/src\xmc_usbd.c ****   {
1317:C:/Users/Yushev/git/optiga-trust-qi/projects/xmc4700_relax_kit/common/Libraries/XMCLib/src\xmc_usbd.c ****     result=(int32_t)0;
1318:C:/Users/Yushev/git/optiga-trust-qi/projects/xmc4700_relax_kit/common/Libraries/XMCLib/src\xmc_usbd.c ****   }
1319:C:/Users/Yushev/git/optiga-trust-qi/projects/xmc4700_relax_kit/common/Libraries/XMCLib/src\xmc_usbd.c ****   else
1320:C:/Users/Yushev/git/optiga-trust-qi/projects/xmc4700_relax_kit/common/Libraries/XMCLib/src\xmc_usbd.c ****   {
1321:C:/Users/Yushev/git/optiga-trust-qi/projects/xmc4700_relax_kit/common/Libraries/XMCLib/src\xmc_usbd.c ****     if (length > ep->inBufferSize)
1322:C:/Users/Yushev/git/optiga-trust-qi/projects/xmc4700_relax_kit/common/Libraries/XMCLib/src\xmc_usbd.c ****     {
1323:C:/Users/Yushev/git/optiga-trust-qi/projects/xmc4700_relax_kit/common/Libraries/XMCLib/src\xmc_usbd.c ****       length = ep->inBufferSize;
1324:C:/Users/Yushev/git/optiga-trust-qi/projects/xmc4700_relax_kit/common/Libraries/XMCLib/src\xmc_usbd.c ****     }
1325:C:/Users/Yushev/git/optiga-trust-qi/projects/xmc4700_relax_kit/common/Libraries/XMCLib/src\xmc_usbd.c ****     /* copy data into input buffer for DMA and FIFO mode */
1326:C:/Users/Yushev/git/optiga-trust-qi/projects/xmc4700_relax_kit/common/Libraries/XMCLib/src\xmc_usbd.c **** 		memcpy(ep->inBuffer,(const void *)buffer,length);
1327:C:/Users/Yushev/git/optiga-trust-qi/projects/xmc4700_relax_kit/common/Libraries/XMCLib/src\xmc_usbd.c **** 		ep->xferBuffer = ep->inBuffer;
1328:C:/Users/Yushev/git/optiga-trust-qi/projects/xmc4700_relax_kit/common/Libraries/XMCLib/src\xmc_usbd.c ****     ep->xferTotal = length;
1329:C:/Users/Yushev/git/optiga-trust-qi/projects/xmc4700_relax_kit/common/Libraries/XMCLib/src\xmc_usbd.c ****     /* set transfer values */
1330:C:/Users/Yushev/git/optiga-trust-qi/projects/xmc4700_relax_kit/common/Libraries/XMCLib/src\xmc_usbd.c ****     ep->xferLength = 0U;
1331:C:/Users/Yushev/git/optiga-trust-qi/projects/xmc4700_relax_kit/common/Libraries/XMCLib/src\xmc_usbd.c ****     ep->xferCount = 0U;
1332:C:/Users/Yushev/git/optiga-trust-qi/projects/xmc4700_relax_kit/common/Libraries/XMCLib/src\xmc_usbd.c ****     ep->inInUse = 1U;
1333:C:/Users/Yushev/git/optiga-trust-qi/projects/xmc4700_relax_kit/common/Libraries/XMCLib/src\xmc_usbd.c ****     /* start the transfer */
1334:C:/Users/Yushev/git/optiga-trust-qi/projects/xmc4700_relax_kit/common/Libraries/XMCLib/src\xmc_usbd.c ****     XMC_USBD_lStartWriteXfer(ep);
1335:C:/Users/Yushev/git/optiga-trust-qi/projects/xmc4700_relax_kit/common/Libraries/XMCLib/src\xmc_usbd.c ****     result=(int32_t)ep->xferTotal;
1336:C:/Users/Yushev/git/optiga-trust-qi/projects/xmc4700_relax_kit/common/Libraries/XMCLib/src\xmc_usbd.c ****   }
1337:C:/Users/Yushev/git/optiga-trust-qi/projects/xmc4700_relax_kit/common/Libraries/XMCLib/src\xmc_usbd.c ****   return result;
1338:C:/Users/Yushev/git/optiga-trust-qi/projects/xmc4700_relax_kit/common/Libraries/XMCLib/src\xmc_usbd.c **** }
1339:C:/Users/Yushev/git/optiga-trust-qi/projects/xmc4700_relax_kit/common/Libraries/XMCLib/src\xmc_usbd.c **** 
1340:C:/Users/Yushev/git/optiga-trust-qi/projects/xmc4700_relax_kit/common/Libraries/XMCLib/src\xmc_usbd.c **** /**
1341:C:/Users/Yushev/git/optiga-trust-qi/projects/xmc4700_relax_kit/common/Libraries/XMCLib/src\xmc_usbd.c ****  * Sets the USB device address.
1342:C:/Users/Yushev/git/optiga-trust-qi/projects/xmc4700_relax_kit/common/Libraries/XMCLib/src\xmc_usbd.c ****  **/
1343:C:/Users/Yushev/git/optiga-trust-qi/projects/xmc4700_relax_kit/common/Libraries/XMCLib/src\xmc_usbd.c **** XMC_USBD_STATUS_t XMC_USBD_DeviceSetAddress(const uint8_t address,const XMC_USBD_SET_ADDRESS_STAGE_
1344:C:/Users/Yushev/git/optiga-trust-qi/projects/xmc4700_relax_kit/common/Libraries/XMCLib/src\xmc_usbd.c **** {
 679              	 .loc 1 1344 0
 680              	 .cfi_startproc
 681              	 
 682              	 
 683              	 
 684              	.LVL58:
1345:C:/Users/Yushev/git/optiga-trust-qi/projects/xmc4700_relax_kit/common/Libraries/XMCLib/src\xmc_usbd.c ****   dcfg_data_t data;
1346:C:/Users/Yushev/git/optiga-trust-qi/projects/xmc4700_relax_kit/common/Libraries/XMCLib/src\xmc_usbd.c ****   data.d32 = xmc_device.device_register->dcfg;
 685              	 .loc 1 1346 0
 686 0000 044B     	 ldr r3,.L63
 687 0002 D3F8A431 	 ldr r3,[r3,#420]
 688 0006 1A68     	 ldr r2,[r3]
 689              	.LVL59:
1347:C:/Users/Yushev/git/optiga-trust-qi/projects/xmc4700_relax_kit/common/Libraries/XMCLib/src\xmc_usbd.c ****   if (stage == XMC_USBD_SET_ADDRESS_STAGE_SETUP)
 690              	 .loc 1 1347 0
 691 0008 11B9     	 cbnz r1,.L62
1348:C:/Users/Yushev/git/optiga-trust-qi/projects/xmc4700_relax_kit/common/Libraries/XMCLib/src\xmc_usbd.c ****   {
1349:C:/Users/Yushev/git/optiga-trust-qi/projects/xmc4700_relax_kit/common/Libraries/XMCLib/src\xmc_usbd.c ****     data.b.devaddr = address;
 692              	 .loc 1 1349 0
 693 000a 60F30A12 	 bfi r2,r0,#4,#7
1350:C:/Users/Yushev/git/optiga-trust-qi/projects/xmc4700_relax_kit/common/Libraries/XMCLib/src\xmc_usbd.c ****     xmc_device.device_register->dcfg = data.d32;
 694              	 .loc 1 1350 0
 695 000e 1A60     	 str r2,[r3]
 696              	.L62:
1351:C:/Users/Yushev/git/optiga-trust-qi/projects/xmc4700_relax_kit/common/Libraries/XMCLib/src\xmc_usbd.c ****   }
1352:C:/Users/Yushev/git/optiga-trust-qi/projects/xmc4700_relax_kit/common/Libraries/XMCLib/src\xmc_usbd.c **** 	return XMC_USBD_STATUS_OK;
1353:C:/Users/Yushev/git/optiga-trust-qi/projects/xmc4700_relax_kit/common/Libraries/XMCLib/src\xmc_usbd.c **** }
 697              	 .loc 1 1353 0
 698 0010 0020     	 movs r0,#0
 699              	.LVL60:
 700 0012 7047     	 bx lr
 701              	.L64:
 702              	 .align 2
 703              	.L63:
 704 0014 00000000 	 .word xmc_device
 705              	 .cfi_endproc
 706              	.LFE202:
 708              	 .section .text.XMC_USBD_EndpointStall,"ax",%progbits
 709              	 .align 1
 710              	 .global XMC_USBD_EndpointStall
 711              	 .thumb
 712              	 .thumb_func
 714              	XMC_USBD_EndpointStall:
 715              	.LFB203:
1354:C:/Users/Yushev/git/optiga-trust-qi/projects/xmc4700_relax_kit/common/Libraries/XMCLib/src\xmc_usbd.c **** 
1355:C:/Users/Yushev/git/optiga-trust-qi/projects/xmc4700_relax_kit/common/Libraries/XMCLib/src\xmc_usbd.c **** /**
1356:C:/Users/Yushev/git/optiga-trust-qi/projects/xmc4700_relax_kit/common/Libraries/XMCLib/src\xmc_usbd.c ****  * Set/clear stall on the selected endpoint.
1357:C:/Users/Yushev/git/optiga-trust-qi/projects/xmc4700_relax_kit/common/Libraries/XMCLib/src\xmc_usbd.c ****  **/
1358:C:/Users/Yushev/git/optiga-trust-qi/projects/xmc4700_relax_kit/common/Libraries/XMCLib/src\xmc_usbd.c **** XMC_USBD_STATUS_t XMC_USBD_EndpointStall(const uint8_t ep_addr, const bool stall) 
1359:C:/Users/Yushev/git/optiga-trust-qi/projects/xmc4700_relax_kit/common/Libraries/XMCLib/src\xmc_usbd.c **** {
 716              	 .loc 1 1359 0
 717              	 .cfi_startproc
 718              	 
 719              	 
 720              	.LVL61:
 721 0000 10B5     	 push {r4,lr}
 722              	.LCFI8:
 723              	 .cfi_def_cfa_offset 8
 724              	 .cfi_offset 4,-8
 725              	 .cfi_offset 14,-4
 726 0002 1D4A     	 ldr r2,.L75
1360:C:/Users/Yushev/git/optiga-trust-qi/projects/xmc4700_relax_kit/common/Libraries/XMCLib/src\xmc_usbd.c ****   depctl_data_t data;
1361:C:/Users/Yushev/git/optiga-trust-qi/projects/xmc4700_relax_kit/common/Libraries/XMCLib/src\xmc_usbd.c ****   XMC_USBD_EP_t *ep = &xmc_device.ep[(ep_addr & (uint8_t)XMC_USBD_EP_NUM_MASK)];
 727              	 .loc 1 1361 0
 728 0004 00F00F04 	 and r4,r0,#15
 729              	.LVL62:
 730 0008 40B2     	 sxtb r0,r0
1362:C:/Users/Yushev/git/optiga-trust-qi/projects/xmc4700_relax_kit/common/Libraries/XMCLib/src\xmc_usbd.c ****   if (stall)
 731              	 .loc 1 1362 0
 732 000a C1B1     	 cbz r1,.L66
 733 000c 3423     	 movs r3,#52
1363:C:/Users/Yushev/git/optiga-trust-qi/projects/xmc4700_relax_kit/common/Libraries/XMCLib/src\xmc_usbd.c ****   {
1364:C:/Users/Yushev/git/optiga-trust-qi/projects/xmc4700_relax_kit/common/Libraries/XMCLib/src\xmc_usbd.c ****     if (ep_addr & (uint8_t)XMC_USBD_ENDPOINT_DIRECTION_MASK)
1365:C:/Users/Yushev/git/optiga-trust-qi/projects/xmc4700_relax_kit/common/Libraries/XMCLib/src\xmc_usbd.c ****     {
1366:C:/Users/Yushev/git/optiga-trust-qi/projects/xmc4700_relax_kit/common/Libraries/XMCLib/src\xmc_usbd.c ****       /*set stall bit */
1367:C:/Users/Yushev/git/optiga-trust-qi/projects/xmc4700_relax_kit/common/Libraries/XMCLib/src\xmc_usbd.c ****       data.d32 = xmc_device.endpoint_in_register[ep->address_u.address_st.number]->diepctl;
 734              	 .loc 1 1367 0
 735 000e 6343     	 muls r3,r4,r3
1364:C:/Users/Yushev/git/optiga-trust-qi/projects/xmc4700_relax_kit/common/Libraries/XMCLib/src\xmc_usbd.c ****     {
 736              	 .loc 1 1364 0
 737 0010 0028     	 cmp r0,#0
 738              	 .loc 1 1367 0
 739 0012 D35C     	 ldrb r3,[r2,r3]
 740 0014 03F00F03 	 and r3,r3,#15
1368:C:/Users/Yushev/git/optiga-trust-qi/projects/xmc4700_relax_kit/common/Libraries/XMCLib/src\xmc_usbd.c ****       data.b.stall = 1U;
1369:C:/Users/Yushev/git/optiga-trust-qi/projects/xmc4700_relax_kit/common/Libraries/XMCLib/src\xmc_usbd.c ****       xmc_device.endpoint_in_register[ep->address_u.address_st.number]->diepctl = data.d32;
1370:C:/Users/Yushev/git/optiga-trust-qi/projects/xmc4700_relax_kit/common/Libraries/XMCLib/src\xmc_usbd.c ****     }
1371:C:/Users/Yushev/git/optiga-trust-qi/projects/xmc4700_relax_kit/common/Libraries/XMCLib/src\xmc_usbd.c ****     else
1372:C:/Users/Yushev/git/optiga-trust-qi/projects/xmc4700_relax_kit/common/Libraries/XMCLib/src\xmc_usbd.c ****     {
1373:C:/Users/Yushev/git/optiga-trust-qi/projects/xmc4700_relax_kit/common/Libraries/XMCLib/src\xmc_usbd.c ****       /*set stall bit */
1374:C:/Users/Yushev/git/optiga-trust-qi/projects/xmc4700_relax_kit/common/Libraries/XMCLib/src\xmc_usbd.c ****       data.d32 = xmc_device.endpoint_out_register[ep->address_u.address_st.number]->doepctl;
 741              	 .loc 1 1374 0
 742 0018 ABBF     	 itete ge
 743 001a 02EB8303 	 addge r3,r2,r3,lsl#2
1367:C:/Users/Yushev/git/optiga-trust-qi/projects/xmc4700_relax_kit/common/Libraries/XMCLib/src\xmc_usbd.c ****       data.b.stall = 1U;
 744              	 .loc 1 1367 0
 745 001e 6A33     	 addlt r3,r3,#106
 746              	 .loc 1 1374 0
 747 0020 D3F8C411 	 ldrge r1,[r3,#452]
 748              	.LVL63:
1367:C:/Users/Yushev/git/optiga-trust-qi/projects/xmc4700_relax_kit/common/Libraries/XMCLib/src\xmc_usbd.c ****       data.b.stall = 1U;
 749              	 .loc 1 1367 0
 750 0024 52F82310 	 ldrlt r1,[r2,r3,lsl#2]
 751              	 .loc 1 1374 0
 752 0028 0B68     	 ldr r3,[r1]
1375:C:/Users/Yushev/git/optiga-trust-qi/projects/xmc4700_relax_kit/common/Libraries/XMCLib/src\xmc_usbd.c ****       data.b.stall = 1U;
 753              	 .loc 1 1375 0
 754 002a 43F40013 	 orr r3,r3,#2097152
 755              	.LVL64:
1376:C:/Users/Yushev/git/optiga-trust-qi/projects/xmc4700_relax_kit/common/Libraries/XMCLib/src\xmc_usbd.c ****       xmc_device.endpoint_out_register[ep->address_u.address_st.number]->doepctl = data.d32;
 756              	 .loc 1 1376 0
 757 002e 0B60     	 str r3,[r1]
1377:C:/Users/Yushev/git/optiga-trust-qi/projects/xmc4700_relax_kit/common/Libraries/XMCLib/src\xmc_usbd.c ****     }
1378:C:/Users/Yushev/git/optiga-trust-qi/projects/xmc4700_relax_kit/common/Libraries/XMCLib/src\xmc_usbd.c ****     ep->isStalled = 1U;
 758              	 .loc 1 1378 0
 759 0030 3423     	 movs r3,#52
 760              	.LVL65:
 761 0032 03FB0422 	 mla r2,r3,r4,r2
 762              	.LVL66:
 763 0036 1379     	 ldrb r3,[r2,#4]
 764 0038 43F02003 	 orr r3,r3,#32
 765 003c 19E0     	 b .L74
 766              	.LVL67:
 767              	.L66:
 768 003e 3423     	 movs r3,#52
1379:C:/Users/Yushev/git/optiga-trust-qi/projects/xmc4700_relax_kit/common/Libraries/XMCLib/src\xmc_usbd.c ****   }
1380:C:/Users/Yushev/git/optiga-trust-qi/projects/xmc4700_relax_kit/common/Libraries/XMCLib/src\xmc_usbd.c ****   else
1381:C:/Users/Yushev/git/optiga-trust-qi/projects/xmc4700_relax_kit/common/Libraries/XMCLib/src\xmc_usbd.c ****   {
1382:C:/Users/Yushev/git/optiga-trust-qi/projects/xmc4700_relax_kit/common/Libraries/XMCLib/src\xmc_usbd.c ****     /* just clear stall bit */
1383:C:/Users/Yushev/git/optiga-trust-qi/projects/xmc4700_relax_kit/common/Libraries/XMCLib/src\xmc_usbd.c **** 		if (ep_addr & (uint8_t)XMC_USBD_ENDPOINT_DIRECTION_MASK)
1384:C:/Users/Yushev/git/optiga-trust-qi/projects/xmc4700_relax_kit/common/Libraries/XMCLib/src\xmc_usbd.c **** 		{
1385:C:/Users/Yushev/git/optiga-trust-qi/projects/xmc4700_relax_kit/common/Libraries/XMCLib/src\xmc_usbd.c **** 			data.d32 = xmc_device.endpoint_in_register[ep->address_u.address_st.number]->diepctl;
 769              	 .loc 1 1385 0
 770 0040 6343     	 muls r3,r4,r3
1383:C:/Users/Yushev/git/optiga-trust-qi/projects/xmc4700_relax_kit/common/Libraries/XMCLib/src\xmc_usbd.c **** 		{
 771              	 .loc 1 1383 0
 772 0042 0028     	 cmp r0,#0
 773              	 .loc 1 1385 0
 774 0044 D35C     	 ldrb r3,[r2,r3]
 775 0046 03F00F03 	 and r3,r3,#15
1386:C:/Users/Yushev/git/optiga-trust-qi/projects/xmc4700_relax_kit/common/Libraries/XMCLib/src\xmc_usbd.c **** 			data.b.stall = 0U;
1387:C:/Users/Yushev/git/optiga-trust-qi/projects/xmc4700_relax_kit/common/Libraries/XMCLib/src\xmc_usbd.c **** 			data.b.setd0pid = 1U; /* reset pid to 0 */
1388:C:/Users/Yushev/git/optiga-trust-qi/projects/xmc4700_relax_kit/common/Libraries/XMCLib/src\xmc_usbd.c **** 			xmc_device.endpoint_in_register[ep->address_u.address_st.number]->diepctl = data.d32;
1389:C:/Users/Yushev/git/optiga-trust-qi/projects/xmc4700_relax_kit/common/Libraries/XMCLib/src\xmc_usbd.c **** 		}
1390:C:/Users/Yushev/git/optiga-trust-qi/projects/xmc4700_relax_kit/common/Libraries/XMCLib/src\xmc_usbd.c **** 		else
1391:C:/Users/Yushev/git/optiga-trust-qi/projects/xmc4700_relax_kit/common/Libraries/XMCLib/src\xmc_usbd.c **** 		{
1392:C:/Users/Yushev/git/optiga-trust-qi/projects/xmc4700_relax_kit/common/Libraries/XMCLib/src\xmc_usbd.c **** 			data.d32 = xmc_device.endpoint_out_register[ep->address_u.address_st.number]->doepctl;
 776              	 .loc 1 1392 0
 777 004a ABBF     	 itete ge
 778 004c 02EB8303 	 addge r3,r2,r3,lsl#2
1385:C:/Users/Yushev/git/optiga-trust-qi/projects/xmc4700_relax_kit/common/Libraries/XMCLib/src\xmc_usbd.c **** 			data.b.stall = 0U;
 779              	 .loc 1 1385 0
 780 0050 6A33     	 addlt r3,r3,#106
 781              	 .loc 1 1392 0
 782 0052 D3F8C401 	 ldrge r0,[r3,#452]
 783              	.LVL68:
1385:C:/Users/Yushev/git/optiga-trust-qi/projects/xmc4700_relax_kit/common/Libraries/XMCLib/src\xmc_usbd.c **** 			data.b.stall = 0U;
 784              	 .loc 1 1385 0
 785 0056 52F82300 	 ldrlt r0,[r2,r3,lsl#2]
 786              	 .loc 1 1392 0
 787 005a 0368     	 ldr r3,[r0]
1393:C:/Users/Yushev/git/optiga-trust-qi/projects/xmc4700_relax_kit/common/Libraries/XMCLib/src\xmc_usbd.c **** 			data.b.stall = 0U;
 788              	 .loc 1 1393 0
 789 005c 61F35553 	 bfi r3,r1,#21,#1
 790              	.LVL69:
1394:C:/Users/Yushev/git/optiga-trust-qi/projects/xmc4700_relax_kit/common/Libraries/XMCLib/src\xmc_usbd.c **** 			data.b.setd0pid = 1U; /* reset pid to 0 */
 791              	 .loc 1 1394 0
 792 0060 43F08053 	 orr r3,r3,#268435456
 793              	.LVL70:
1395:C:/Users/Yushev/git/optiga-trust-qi/projects/xmc4700_relax_kit/common/Libraries/XMCLib/src\xmc_usbd.c **** 			xmc_device.endpoint_out_register[ep->address_u.address_st.number]->doepctl = data.d32;
 794              	 .loc 1 1395 0
 795 0064 0360     	 str r3,[r0]
1396:C:/Users/Yushev/git/optiga-trust-qi/projects/xmc4700_relax_kit/common/Libraries/XMCLib/src\xmc_usbd.c **** 		}
1397:C:/Users/Yushev/git/optiga-trust-qi/projects/xmc4700_relax_kit/common/Libraries/XMCLib/src\xmc_usbd.c **** 		ep->isStalled = 0U;
 796              	 .loc 1 1397 0
 797 0066 3423     	 movs r3,#52
 798              	.LVL71:
 799 0068 03FB0422 	 mla r2,r3,r4,r2
 800 006c 1379     	 ldrb r3,[r2,#4]
 801 006e 6FF34513 	 bfc r3,#5,#1
 802              	.LVL72:
 803              	.L74:
 804 0072 1371     	 strb r3,[r2,#4]
1398:C:/Users/Yushev/git/optiga-trust-qi/projects/xmc4700_relax_kit/common/Libraries/XMCLib/src\xmc_usbd.c **** 	}
1399:C:/Users/Yushev/git/optiga-trust-qi/projects/xmc4700_relax_kit/common/Libraries/XMCLib/src\xmc_usbd.c **** 	return XMC_USBD_STATUS_OK;
1400:C:/Users/Yushev/git/optiga-trust-qi/projects/xmc4700_relax_kit/common/Libraries/XMCLib/src\xmc_usbd.c **** }
 805              	 .loc 1 1400 0
 806 0074 0020     	 movs r0,#0
 807 0076 10BD     	 pop {r4,pc}
 808              	.LVL73:
 809              	.L76:
 810              	 .align 2
 811              	.L75:
 812 0078 00000000 	 .word xmc_device
 813              	 .cfi_endproc
 814              	.LFE203:
 816              	 .section .text.XMC_USBD_EndpointAbort,"ax",%progbits
 817              	 .align 1
 818              	 .global XMC_USBD_EndpointAbort
 819              	 .thumb
 820              	 .thumb_func
 822              	XMC_USBD_EndpointAbort:
 823              	.LFB204:
1401:C:/Users/Yushev/git/optiga-trust-qi/projects/xmc4700_relax_kit/common/Libraries/XMCLib/src\xmc_usbd.c **** 
1402:C:/Users/Yushev/git/optiga-trust-qi/projects/xmc4700_relax_kit/common/Libraries/XMCLib/src\xmc_usbd.c **** /**
1403:C:/Users/Yushev/git/optiga-trust-qi/projects/xmc4700_relax_kit/common/Libraries/XMCLib/src\xmc_usbd.c ****  * Aborts the data transfer on the selected endpoint
1404:C:/Users/Yushev/git/optiga-trust-qi/projects/xmc4700_relax_kit/common/Libraries/XMCLib/src\xmc_usbd.c ****  **/
1405:C:/Users/Yushev/git/optiga-trust-qi/projects/xmc4700_relax_kit/common/Libraries/XMCLib/src\xmc_usbd.c **** XMC_USBD_STATUS_t XMC_USBD_EndpointAbort(const uint8_t ep_addr) {
 824              	 .loc 1 1405 0
 825              	 .cfi_startproc
 826              	 
 827              	 
 828              	 
 829              	.LVL74:
1406:C:/Users/Yushev/git/optiga-trust-qi/projects/xmc4700_relax_kit/common/Libraries/XMCLib/src\xmc_usbd.c ****   XMC_USBD_EP_t *ep = &xmc_device.ep[ep_addr & (uint8_t)XMC_USBD_ENDPOINT_NUMBER_MASK];
 830              	 .loc 1 1406 0
 831 0000 00F00F02 	 and r2,r0,#15
 832              	.LVL75:
1407:C:/Users/Yushev/git/optiga-trust-qi/projects/xmc4700_relax_kit/common/Libraries/XMCLib/src\xmc_usbd.c ****   if (ep->address_u.address_st.direction)
 833              	 .loc 1 1407 0
 834 0004 3421     	 movs r1,#52
 835 0006 114B     	 ldr r3,.L83
 836 0008 5143     	 muls r1,r2,r1
 837 000a 5818     	 adds r0,r3,r1
 838              	.LVL76:
 839 000c 595C     	 ldrb r1,[r3,r1]
 840 000e 0906     	 lsls r1,r1,#24
1408:C:/Users/Yushev/git/optiga-trust-qi/projects/xmc4700_relax_kit/common/Libraries/XMCLib/src\xmc_usbd.c ****   {
1409:C:/Users/Yushev/git/optiga-trust-qi/projects/xmc4700_relax_kit/common/Libraries/XMCLib/src\xmc_usbd.c ****     ep->inInUse = 0U;
 841              	 .loc 1 1409 0
 842 0010 42BF     	 ittt mi
 843 0012 4168     	 ldrmi r1,[r0,#4]
 844 0014 21F00801 	 bicmi r1,r1,#8
 845 0018 4160     	 strmi r1,[r0,#4]
1410:C:/Users/Yushev/git/optiga-trust-qi/projects/xmc4700_relax_kit/common/Libraries/XMCLib/src\xmc_usbd.c ****   }
1411:C:/Users/Yushev/git/optiga-trust-qi/projects/xmc4700_relax_kit/common/Libraries/XMCLib/src\xmc_usbd.c ****   if (!ep->address_u.address_st.direction)
 846              	 .loc 1 1411 0
 847 001a 3421     	 movs r1,#52
 848 001c 5143     	 muls r1,r2,r1
 849 001e 5818     	 adds r0,r3,r1
 850 0020 595C     	 ldrb r1,[r3,r1]
 851 0022 0906     	 lsls r1,r1,#24
1412:C:/Users/Yushev/git/optiga-trust-qi/projects/xmc4700_relax_kit/common/Libraries/XMCLib/src\xmc_usbd.c ****   {
1413:C:/Users/Yushev/git/optiga-trust-qi/projects/xmc4700_relax_kit/common/Libraries/XMCLib/src\xmc_usbd.c ****     ep->outInUse = 0U;
 852              	 .loc 1 1413 0
 853 0024 5EBF     	 ittt pl
 854 0026 4168     	 ldrpl r1,[r0,#4]
 855 0028 21F01001 	 bicpl r1,r1,#16
 856 002c 4160     	 strpl r1,[r0,#4]
1414:C:/Users/Yushev/git/optiga-trust-qi/projects/xmc4700_relax_kit/common/Libraries/XMCLib/src\xmc_usbd.c ****   }
1415:C:/Users/Yushev/git/optiga-trust-qi/projects/xmc4700_relax_kit/common/Libraries/XMCLib/src\xmc_usbd.c ****   ep->isStalled = 0U;
 857              	 .loc 1 1415 0
 858 002e 3420     	 movs r0,#52
 859              	.LVL77:
 860 0030 00FB0233 	 mla r3,r0,r2,r3
 861              	.LVL78:
1416:C:/Users/Yushev/git/optiga-trust-qi/projects/xmc4700_relax_kit/common/Libraries/XMCLib/src\xmc_usbd.c ****   ep->outBytesAvailable = 0U;
 862              	 .loc 1 1416 0
 863 0034 0020     	 movs r0,#0
1415:C:/Users/Yushev/git/optiga-trust-qi/projects/xmc4700_relax_kit/common/Libraries/XMCLib/src\xmc_usbd.c ****   ep->outBytesAvailable = 0U;
 864              	 .loc 1 1415 0
 865 0036 1A79     	 ldrb r2,[r3,#4]
 866              	 .loc 1 1416 0
 867 0038 1861     	 str r0,[r3,#16]
1415:C:/Users/Yushev/git/optiga-trust-qi/projects/xmc4700_relax_kit/common/Libraries/XMCLib/src\xmc_usbd.c ****   ep->outBytesAvailable = 0U;
 868              	 .loc 1 1415 0
 869 003a 6FF34512 	 bfc r2,#5,#1
 870 003e 1A71     	 strb r2,[r3,#4]
1417:C:/Users/Yushev/git/optiga-trust-qi/projects/xmc4700_relax_kit/common/Libraries/XMCLib/src\xmc_usbd.c ****   ep->outOffset = 0U;
 871              	 .loc 1 1417 0
 872 0040 9861     	 str r0,[r3,#24]
1418:C:/Users/Yushev/git/optiga-trust-qi/projects/xmc4700_relax_kit/common/Libraries/XMCLib/src\xmc_usbd.c ****   ep->xferLength = 0U;
 873              	 .loc 1 1418 0
 874 0042 9862     	 str r0,[r3,#40]
1419:C:/Users/Yushev/git/optiga-trust-qi/projects/xmc4700_relax_kit/common/Libraries/XMCLib/src\xmc_usbd.c ****   ep->xferCount = 0U;
 875              	 .loc 1 1419 0
 876 0044 D862     	 str r0,[r3,#44]
1420:C:/Users/Yushev/git/optiga-trust-qi/projects/xmc4700_relax_kit/common/Libraries/XMCLib/src\xmc_usbd.c ****   ep->xferTotal = 0U;
 877              	 .loc 1 1420 0
 878 0046 1863     	 str r0,[r3,#48]
1421:C:/Users/Yushev/git/optiga-trust-qi/projects/xmc4700_relax_kit/common/Libraries/XMCLib/src\xmc_usbd.c **** 
1422:C:/Users/Yushev/git/optiga-trust-qi/projects/xmc4700_relax_kit/common/Libraries/XMCLib/src\xmc_usbd.c ****   return XMC_USBD_STATUS_OK;
1423:C:/Users/Yushev/git/optiga-trust-qi/projects/xmc4700_relax_kit/common/Libraries/XMCLib/src\xmc_usbd.c **** }
 879              	 .loc 1 1423 0
 880 0048 7047     	 bx lr
 881              	.L84:
 882 004a 00BF     	 .align 2
 883              	.L83:
 884 004c 00000000 	 .word xmc_device
 885              	 .cfi_endproc
 886              	.LFE204:
 888              	 .section .text.XMC_USBD_EndpointUnconfigure,"ax",%progbits
 889              	 .align 1
 890              	 .global XMC_USBD_EndpointUnconfigure
 891              	 .thumb
 892              	 .thumb_func
 894              	XMC_USBD_EndpointUnconfigure:
 895              	.LFB206:
1424:C:/Users/Yushev/git/optiga-trust-qi/projects/xmc4700_relax_kit/common/Libraries/XMCLib/src\xmc_usbd.c **** 
1425:C:/Users/Yushev/git/optiga-trust-qi/projects/xmc4700_relax_kit/common/Libraries/XMCLib/src\xmc_usbd.c **** /**
1426:C:/Users/Yushev/git/optiga-trust-qi/projects/xmc4700_relax_kit/common/Libraries/XMCLib/src\xmc_usbd.c ****  * Configures the given endpoint
1427:C:/Users/Yushev/git/optiga-trust-qi/projects/xmc4700_relax_kit/common/Libraries/XMCLib/src\xmc_usbd.c ****  **/
1428:C:/Users/Yushev/git/optiga-trust-qi/projects/xmc4700_relax_kit/common/Libraries/XMCLib/src\xmc_usbd.c **** XMC_USBD_STATUS_t XMC_USBD_EndpointConfigure(const uint8_t ep_addr,
1429:C:/Users/Yushev/git/optiga-trust-qi/projects/xmc4700_relax_kit/common/Libraries/XMCLib/src\xmc_usbd.c **** 		                                     const XMC_USBD_ENDPOINT_TYPE_t ep_type,
1430:C:/Users/Yushev/git/optiga-trust-qi/projects/xmc4700_relax_kit/common/Libraries/XMCLib/src\xmc_usbd.c **** 		                                     const uint16_t ep_max_packet_size) 
1431:C:/Users/Yushev/git/optiga-trust-qi/projects/xmc4700_relax_kit/common/Libraries/XMCLib/src\xmc_usbd.c **** {
1432:C:/Users/Yushev/git/optiga-trust-qi/projects/xmc4700_relax_kit/common/Libraries/XMCLib/src\xmc_usbd.c ****   daint_data_t daintmsk;
1433:C:/Users/Yushev/git/optiga-trust-qi/projects/xmc4700_relax_kit/common/Libraries/XMCLib/src\xmc_usbd.c ****   XMC_USBD_EP_t *ep;
1434:C:/Users/Yushev/git/optiga-trust-qi/projects/xmc4700_relax_kit/common/Libraries/XMCLib/src\xmc_usbd.c ****   daintmsk.d32 = xmc_device.device_register->daintmsk;  
1435:C:/Users/Yushev/git/optiga-trust-qi/projects/xmc4700_relax_kit/common/Libraries/XMCLib/src\xmc_usbd.c ****   ep =&xmc_device.ep[ep_addr & (uint32_t)XMC_USBD_ENDPOINT_NUMBER_MASK];
1436:C:/Users/Yushev/git/optiga-trust-qi/projects/xmc4700_relax_kit/common/Libraries/XMCLib/src\xmc_usbd.c ****   memset((void*)ep,0x0U,sizeof(XMC_USBD_EP_t)); /* clear endpoint structure */
1437:C:/Users/Yushev/git/optiga-trust-qi/projects/xmc4700_relax_kit/common/Libraries/XMCLib/src\xmc_usbd.c ****   /* do ep configuration */
1438:C:/Users/Yushev/git/optiga-trust-qi/projects/xmc4700_relax_kit/common/Libraries/XMCLib/src\xmc_usbd.c ****   ep->address_u.address = ep_addr;
1439:C:/Users/Yushev/git/optiga-trust-qi/projects/xmc4700_relax_kit/common/Libraries/XMCLib/src\xmc_usbd.c ****   ep->isConfigured = 1U;
1440:C:/Users/Yushev/git/optiga-trust-qi/projects/xmc4700_relax_kit/common/Libraries/XMCLib/src\xmc_usbd.c ****   ep->maxPacketSize = (uint8_t)ep_max_packet_size;
1441:C:/Users/Yushev/git/optiga-trust-qi/projects/xmc4700_relax_kit/common/Libraries/XMCLib/src\xmc_usbd.c ****   if (ep->address_u.address != 0U)
1442:C:/Users/Yushev/git/optiga-trust-qi/projects/xmc4700_relax_kit/common/Libraries/XMCLib/src\xmc_usbd.c ****   {
1443:C:/Users/Yushev/git/optiga-trust-qi/projects/xmc4700_relax_kit/common/Libraries/XMCLib/src\xmc_usbd.c ****     ep->maxTransferSize = (uint32_t)XMC_USBD_MAX_TRANSFER_SIZE;
1444:C:/Users/Yushev/git/optiga-trust-qi/projects/xmc4700_relax_kit/common/Libraries/XMCLib/src\xmc_usbd.c ****   }
1445:C:/Users/Yushev/git/optiga-trust-qi/projects/xmc4700_relax_kit/common/Libraries/XMCLib/src\xmc_usbd.c ****   else
1446:C:/Users/Yushev/git/optiga-trust-qi/projects/xmc4700_relax_kit/common/Libraries/XMCLib/src\xmc_usbd.c ****   {
1447:C:/Users/Yushev/git/optiga-trust-qi/projects/xmc4700_relax_kit/common/Libraries/XMCLib/src\xmc_usbd.c ****     ep->maxTransferSize = (uint32_t)XMC_USBD_MAX_TRANSFER_SIZE_EP0;
1448:C:/Users/Yushev/git/optiga-trust-qi/projects/xmc4700_relax_kit/common/Libraries/XMCLib/src\xmc_usbd.c ****   }
1449:C:/Users/Yushev/git/optiga-trust-qi/projects/xmc4700_relax_kit/common/Libraries/XMCLib/src\xmc_usbd.c ****   /* transfer buffer */
1450:C:/Users/Yushev/git/optiga-trust-qi/projects/xmc4700_relax_kit/common/Libraries/XMCLib/src\xmc_usbd.c ****   ep->inBuffer = XMC_USBD_EP_IN_BUFFER[ep->address_u.address_st.number];
1451:C:/Users/Yushev/git/optiga-trust-qi/projects/xmc4700_relax_kit/common/Libraries/XMCLib/src\xmc_usbd.c ****   ep->outBuffer = XMC_USBD_EP_OUT_BUFFER[ep->address_u.address_st.number];
1452:C:/Users/Yushev/git/optiga-trust-qi/projects/xmc4700_relax_kit/common/Libraries/XMCLib/src\xmc_usbd.c ****   /* buffer size*/
1453:C:/Users/Yushev/git/optiga-trust-qi/projects/xmc4700_relax_kit/common/Libraries/XMCLib/src\xmc_usbd.c ****   ep->inBufferSize = XMC_USBD_EP_IN_BUFFERSIZE[ep->address_u.address_st.number];
1454:C:/Users/Yushev/git/optiga-trust-qi/projects/xmc4700_relax_kit/common/Libraries/XMCLib/src\xmc_usbd.c ****   ep->outBufferSize = XMC_USBD_EP_OUT_BUFFERSIZE[ep->address_u.address_st.number];
1455:C:/Users/Yushev/git/optiga-trust-qi/projects/xmc4700_relax_kit/common/Libraries/XMCLib/src\xmc_usbd.c ****   /* is in */
1456:C:/Users/Yushev/git/optiga-trust-qi/projects/xmc4700_relax_kit/common/Libraries/XMCLib/src\xmc_usbd.c ****   if ((ep->address_u.address_st.direction == 1U) || (ep_type == XMC_USBD_ENDPOINT_TYPE_CONTROL))
1457:C:/Users/Yushev/git/optiga-trust-qi/projects/xmc4700_relax_kit/common/Libraries/XMCLib/src\xmc_usbd.c ****   {
1458:C:/Users/Yushev/git/optiga-trust-qi/projects/xmc4700_relax_kit/common/Libraries/XMCLib/src\xmc_usbd.c ****     depctl_data_t data;
1459:C:/Users/Yushev/git/optiga-trust-qi/projects/xmc4700_relax_kit/common/Libraries/XMCLib/src\xmc_usbd.c ****     data.d32 = xmc_device.endpoint_in_register[ep->address_u.address_st.number]->diepctl;
1460:C:/Users/Yushev/git/optiga-trust-qi/projects/xmc4700_relax_kit/common/Libraries/XMCLib/src\xmc_usbd.c **** 		/*enable endpoint */
1461:C:/Users/Yushev/git/optiga-trust-qi/projects/xmc4700_relax_kit/common/Libraries/XMCLib/src\xmc_usbd.c **** 		data.b.usbactep = 1U;
1462:C:/Users/Yushev/git/optiga-trust-qi/projects/xmc4700_relax_kit/common/Libraries/XMCLib/src\xmc_usbd.c **** 		/* set ep type */
1463:C:/Users/Yushev/git/optiga-trust-qi/projects/xmc4700_relax_kit/common/Libraries/XMCLib/src\xmc_usbd.c **** 		data.b.eptype = (uint8_t)ep_type;
1464:C:/Users/Yushev/git/optiga-trust-qi/projects/xmc4700_relax_kit/common/Libraries/XMCLib/src\xmc_usbd.c **** 		/* set mps */
1465:C:/Users/Yushev/git/optiga-trust-qi/projects/xmc4700_relax_kit/common/Libraries/XMCLib/src\xmc_usbd.c ****     if (ep_type == XMC_USBD_ENDPOINT_TYPE_CONTROL)
1466:C:/Users/Yushev/git/optiga-trust-qi/projects/xmc4700_relax_kit/common/Libraries/XMCLib/src\xmc_usbd.c ****     {
1467:C:/Users/Yushev/git/optiga-trust-qi/projects/xmc4700_relax_kit/common/Libraries/XMCLib/src\xmc_usbd.c **** 			switch(ep_max_packet_size)
1468:C:/Users/Yushev/git/optiga-trust-qi/projects/xmc4700_relax_kit/common/Libraries/XMCLib/src\xmc_usbd.c **** 			{
1469:C:/Users/Yushev/git/optiga-trust-qi/projects/xmc4700_relax_kit/common/Libraries/XMCLib/src\xmc_usbd.c **** 				case (64U):
1470:C:/Users/Yushev/git/optiga-trust-qi/projects/xmc4700_relax_kit/common/Libraries/XMCLib/src\xmc_usbd.c **** 				data.b.mps = 0x0U;
1471:C:/Users/Yushev/git/optiga-trust-qi/projects/xmc4700_relax_kit/common/Libraries/XMCLib/src\xmc_usbd.c **** 				break;
1472:C:/Users/Yushev/git/optiga-trust-qi/projects/xmc4700_relax_kit/common/Libraries/XMCLib/src\xmc_usbd.c **** 				case (32U):
1473:C:/Users/Yushev/git/optiga-trust-qi/projects/xmc4700_relax_kit/common/Libraries/XMCLib/src\xmc_usbd.c **** 				data.b.mps = 0x1U;
1474:C:/Users/Yushev/git/optiga-trust-qi/projects/xmc4700_relax_kit/common/Libraries/XMCLib/src\xmc_usbd.c **** 				break;
1475:C:/Users/Yushev/git/optiga-trust-qi/projects/xmc4700_relax_kit/common/Libraries/XMCLib/src\xmc_usbd.c **** 				case (16U):
1476:C:/Users/Yushev/git/optiga-trust-qi/projects/xmc4700_relax_kit/common/Libraries/XMCLib/src\xmc_usbd.c **** 				data.b.mps = 0x2U;
1477:C:/Users/Yushev/git/optiga-trust-qi/projects/xmc4700_relax_kit/common/Libraries/XMCLib/src\xmc_usbd.c **** 				break;
1478:C:/Users/Yushev/git/optiga-trust-qi/projects/xmc4700_relax_kit/common/Libraries/XMCLib/src\xmc_usbd.c **** 				case (8U):
1479:C:/Users/Yushev/git/optiga-trust-qi/projects/xmc4700_relax_kit/common/Libraries/XMCLib/src\xmc_usbd.c **** 				data.b.mps = 0x3U;
1480:C:/Users/Yushev/git/optiga-trust-qi/projects/xmc4700_relax_kit/common/Libraries/XMCLib/src\xmc_usbd.c **** 				break;
1481:C:/Users/Yushev/git/optiga-trust-qi/projects/xmc4700_relax_kit/common/Libraries/XMCLib/src\xmc_usbd.c **** 				default:
1482:C:/Users/Yushev/git/optiga-trust-qi/projects/xmc4700_relax_kit/common/Libraries/XMCLib/src\xmc_usbd.c **** 				break;
1483:C:/Users/Yushev/git/optiga-trust-qi/projects/xmc4700_relax_kit/common/Libraries/XMCLib/src\xmc_usbd.c **** 			}
1484:C:/Users/Yushev/git/optiga-trust-qi/projects/xmc4700_relax_kit/common/Libraries/XMCLib/src\xmc_usbd.c **** 		}
1485:C:/Users/Yushev/git/optiga-trust-qi/projects/xmc4700_relax_kit/common/Libraries/XMCLib/src\xmc_usbd.c **** 		else
1486:C:/Users/Yushev/git/optiga-trust-qi/projects/xmc4700_relax_kit/common/Libraries/XMCLib/src\xmc_usbd.c **** 		{
1487:C:/Users/Yushev/git/optiga-trust-qi/projects/xmc4700_relax_kit/common/Libraries/XMCLib/src\xmc_usbd.c **** 			data.b.mps = ep_max_packet_size;
1488:C:/Users/Yushev/git/optiga-trust-qi/projects/xmc4700_relax_kit/common/Libraries/XMCLib/src\xmc_usbd.c **** 		}
1489:C:/Users/Yushev/git/optiga-trust-qi/projects/xmc4700_relax_kit/common/Libraries/XMCLib/src\xmc_usbd.c **** 		/* set first data0 pid */
1490:C:/Users/Yushev/git/optiga-trust-qi/projects/xmc4700_relax_kit/common/Libraries/XMCLib/src\xmc_usbd.c **** 		data.b.setd0pid = 1U;
1491:C:/Users/Yushev/git/optiga-trust-qi/projects/xmc4700_relax_kit/common/Libraries/XMCLib/src\xmc_usbd.c **** 		/* clear stall */
1492:C:/Users/Yushev/git/optiga-trust-qi/projects/xmc4700_relax_kit/common/Libraries/XMCLib/src\xmc_usbd.c **** 		data.b.stall = 0U;
1493:C:/Users/Yushev/git/optiga-trust-qi/projects/xmc4700_relax_kit/common/Libraries/XMCLib/src\xmc_usbd.c **** 		/* set tx fifo */
1494:C:/Users/Yushev/git/optiga-trust-qi/projects/xmc4700_relax_kit/common/Libraries/XMCLib/src\xmc_usbd.c **** 		ep->txFifoNum = XMC_USBD_lAssignTXFifo(); /* get tx fifo */
1495:C:/Users/Yushev/git/optiga-trust-qi/projects/xmc4700_relax_kit/common/Libraries/XMCLib/src\xmc_usbd.c **** 		data.b.txfnum = ep->txFifoNum;
1496:C:/Users/Yushev/git/optiga-trust-qi/projects/xmc4700_relax_kit/common/Libraries/XMCLib/src\xmc_usbd.c **** 		xmc_device.endpoint_in_register[ep->address_u.address_st.number]->diepctl = data.d32; /* configur
1497:C:/Users/Yushev/git/optiga-trust-qi/projects/xmc4700_relax_kit/common/Libraries/XMCLib/src\xmc_usbd.c **** 		daintmsk.ep.in |= (uint16_t)((uint16_t)1U << (uint8_t)ep->address_u.address_st.number); /* enable
1498:C:/Users/Yushev/git/optiga-trust-qi/projects/xmc4700_relax_kit/common/Libraries/XMCLib/src\xmc_usbd.c ****   }
1499:C:/Users/Yushev/git/optiga-trust-qi/projects/xmc4700_relax_kit/common/Libraries/XMCLib/src\xmc_usbd.c ****   if ((ep->address_u.address_st.direction == 0U) || (ep_type == XMC_USBD_ENDPOINT_TYPE_CONTROL))
1500:C:/Users/Yushev/git/optiga-trust-qi/projects/xmc4700_relax_kit/common/Libraries/XMCLib/src\xmc_usbd.c ****   {
1501:C:/Users/Yushev/git/optiga-trust-qi/projects/xmc4700_relax_kit/common/Libraries/XMCLib/src\xmc_usbd.c ****     /* is out */
1502:C:/Users/Yushev/git/optiga-trust-qi/projects/xmc4700_relax_kit/common/Libraries/XMCLib/src\xmc_usbd.c **** 		depctl_data_t data;
1503:C:/Users/Yushev/git/optiga-trust-qi/projects/xmc4700_relax_kit/common/Libraries/XMCLib/src\xmc_usbd.c **** 		data.d32 = xmc_device.endpoint_out_register[ep->address_u.address_st.number]->doepctl;
1504:C:/Users/Yushev/git/optiga-trust-qi/projects/xmc4700_relax_kit/common/Libraries/XMCLib/src\xmc_usbd.c **** 		/*enable endpoint */
1505:C:/Users/Yushev/git/optiga-trust-qi/projects/xmc4700_relax_kit/common/Libraries/XMCLib/src\xmc_usbd.c **** 		data.b.usbactep = 1U;
1506:C:/Users/Yushev/git/optiga-trust-qi/projects/xmc4700_relax_kit/common/Libraries/XMCLib/src\xmc_usbd.c **** 		/* set ep type */
1507:C:/Users/Yushev/git/optiga-trust-qi/projects/xmc4700_relax_kit/common/Libraries/XMCLib/src\xmc_usbd.c **** 		data.b.eptype = (uint8_t)ep_type;
1508:C:/Users/Yushev/git/optiga-trust-qi/projects/xmc4700_relax_kit/common/Libraries/XMCLib/src\xmc_usbd.c ****     /* set mps */
1509:C:/Users/Yushev/git/optiga-trust-qi/projects/xmc4700_relax_kit/common/Libraries/XMCLib/src\xmc_usbd.c ****     if (ep_type == XMC_USBD_ENDPOINT_TYPE_CONTROL)
1510:C:/Users/Yushev/git/optiga-trust-qi/projects/xmc4700_relax_kit/common/Libraries/XMCLib/src\xmc_usbd.c **** 		{
1511:C:/Users/Yushev/git/optiga-trust-qi/projects/xmc4700_relax_kit/common/Libraries/XMCLib/src\xmc_usbd.c **** 			switch(ep_max_packet_size)
1512:C:/Users/Yushev/git/optiga-trust-qi/projects/xmc4700_relax_kit/common/Libraries/XMCLib/src\xmc_usbd.c **** 			{
1513:C:/Users/Yushev/git/optiga-trust-qi/projects/xmc4700_relax_kit/common/Libraries/XMCLib/src\xmc_usbd.c **** 				case (64U):
1514:C:/Users/Yushev/git/optiga-trust-qi/projects/xmc4700_relax_kit/common/Libraries/XMCLib/src\xmc_usbd.c **** 					data.b.mps = 0x0U;
1515:C:/Users/Yushev/git/optiga-trust-qi/projects/xmc4700_relax_kit/common/Libraries/XMCLib/src\xmc_usbd.c **** 					break;
1516:C:/Users/Yushev/git/optiga-trust-qi/projects/xmc4700_relax_kit/common/Libraries/XMCLib/src\xmc_usbd.c **** 				case (32U):
