   1              	 .syntax unified
   2              	 .cpu cortex-m4
   3              	 .eabi_attribute 27,3
   4              	 .fpu fpv4-sp-d16
   5              	 .eabi_attribute 20,1
   6              	 .eabi_attribute 21,1
   7              	 .eabi_attribute 23,3
   8              	 .eabi_attribute 24,1
   9              	 .eabi_attribute 25,1
  10              	 .eabi_attribute 26,1
  11              	 .eabi_attribute 30,4
  12              	 .eabi_attribute 34,1
  13              	 .eabi_attribute 18,4
  14              	 .thumb
  15              	 .file "xmc_ledts.c"
  16              	 .text
  17              	.Ltext0:
  18              	 .cfi_sections .debug_frame
  19              	 .section .text.XMC_LEDTS_InitGlobal,"ax",%progbits
  20              	 .align 1
  21              	 .global XMC_LEDTS_InitGlobal
  22              	 .thumb
  23              	 .thumb_func
  25              	XMC_LEDTS_InitGlobal:
  26              	.LFB171:
  27              	 .file 1 "C:/Users/Yushev/git/optiga-trust-qi/projects/xmc4700_relax_kit/common/Libraries/XMCLib/src/xmc_ledts.c"
   1:C:/Users/Yushev/git/optiga-trust-qi/projects/xmc4700_relax_kit/common/Libraries/XMCLib/src\xmc_ledts.c **** /**
   2:C:/Users/Yushev/git/optiga-trust-qi/projects/xmc4700_relax_kit/common/Libraries/XMCLib/src\xmc_ledts.c ****  * @file xmc_ledts.c
   3:C:/Users/Yushev/git/optiga-trust-qi/projects/xmc4700_relax_kit/common/Libraries/XMCLib/src\xmc_ledts.c ****  * @date 2017-02-25
   4:C:/Users/Yushev/git/optiga-trust-qi/projects/xmc4700_relax_kit/common/Libraries/XMCLib/src\xmc_ledts.c ****  *
   5:C:/Users/Yushev/git/optiga-trust-qi/projects/xmc4700_relax_kit/common/Libraries/XMCLib/src\xmc_ledts.c ****  * @cond
   6:C:/Users/Yushev/git/optiga-trust-qi/projects/xmc4700_relax_kit/common/Libraries/XMCLib/src\xmc_ledts.c ****  **************************************************************************************************
   7:C:/Users/Yushev/git/optiga-trust-qi/projects/xmc4700_relax_kit/common/Libraries/XMCLib/src\xmc_ledts.c ****  * XMClib v2.1.20 - XMC Peripheral Driver Library 
   8:C:/Users/Yushev/git/optiga-trust-qi/projects/xmc4700_relax_kit/common/Libraries/XMCLib/src\xmc_ledts.c ****  *
   9:C:/Users/Yushev/git/optiga-trust-qi/projects/xmc4700_relax_kit/common/Libraries/XMCLib/src\xmc_ledts.c ****  * Copyright (c) 2015-2018, Infineon Technologies AG
  10:C:/Users/Yushev/git/optiga-trust-qi/projects/xmc4700_relax_kit/common/Libraries/XMCLib/src\xmc_ledts.c ****  * All rights reserved.                        
  11:C:/Users/Yushev/git/optiga-trust-qi/projects/xmc4700_relax_kit/common/Libraries/XMCLib/src\xmc_ledts.c ****  *                                             
  12:C:/Users/Yushev/git/optiga-trust-qi/projects/xmc4700_relax_kit/common/Libraries/XMCLib/src\xmc_ledts.c ****  * Redistribution and use in source and binary forms, with or without modification,are permitted pr
  13:C:/Users/Yushev/git/optiga-trust-qi/projects/xmc4700_relax_kit/common/Libraries/XMCLib/src\xmc_ledts.c ****  * following conditions are met:   
  14:C:/Users/Yushev/git/optiga-trust-qi/projects/xmc4700_relax_kit/common/Libraries/XMCLib/src\xmc_ledts.c ****  *                                                                              
  15:C:/Users/Yushev/git/optiga-trust-qi/projects/xmc4700_relax_kit/common/Libraries/XMCLib/src\xmc_ledts.c ****  * Redistributions of source code must retain the above copyright notice, this list of conditions a
  16:C:/Users/Yushev/git/optiga-trust-qi/projects/xmc4700_relax_kit/common/Libraries/XMCLib/src\xmc_ledts.c ****  * disclaimer.                        
  17:C:/Users/Yushev/git/optiga-trust-qi/projects/xmc4700_relax_kit/common/Libraries/XMCLib/src\xmc_ledts.c ****  * 
  18:C:/Users/Yushev/git/optiga-trust-qi/projects/xmc4700_relax_kit/common/Libraries/XMCLib/src\xmc_ledts.c ****  * Redistributions in binary form must reproduce the above copyright notice, this list of condition
  19:C:/Users/Yushev/git/optiga-trust-qi/projects/xmc4700_relax_kit/common/Libraries/XMCLib/src\xmc_ledts.c ****  * disclaimer in the documentation and/or other materials provided with the distribution.          
  20:C:/Users/Yushev/git/optiga-trust-qi/projects/xmc4700_relax_kit/common/Libraries/XMCLib/src\xmc_ledts.c ****  * 
  21:C:/Users/Yushev/git/optiga-trust-qi/projects/xmc4700_relax_kit/common/Libraries/XMCLib/src\xmc_ledts.c ****  * Neither the name of the copyright holders nor the names of its contributors may be used to endor
  22:C:/Users/Yushev/git/optiga-trust-qi/projects/xmc4700_relax_kit/common/Libraries/XMCLib/src\xmc_ledts.c ****  * products derived from this software without specific prior written permission.                  
  23:C:/Users/Yushev/git/optiga-trust-qi/projects/xmc4700_relax_kit/common/Libraries/XMCLib/src\xmc_ledts.c ****  *                                                                              
  24:C:/Users/Yushev/git/optiga-trust-qi/projects/xmc4700_relax_kit/common/Libraries/XMCLib/src\xmc_ledts.c ****  * THIS SOFTWARE IS PROVIDED BY THE COPYRIGHT HOLDERS AND CONTRIBUTORS "AS IS" AND ANY EXPRESS OR I
  25:C:/Users/Yushev/git/optiga-trust-qi/projects/xmc4700_relax_kit/common/Libraries/XMCLib/src\xmc_ledts.c ****  * INCLUDING, BUT NOT LIMITED TO, THE IMPLIED WARRANTIES OF MERCHANTABILITY AND FITNESS FOR A PARTI
  26:C:/Users/Yushev/git/optiga-trust-qi/projects/xmc4700_relax_kit/common/Libraries/XMCLib/src\xmc_ledts.c ****  * DISCLAIMED. IN NO EVENT SHALL THE COPYRIGHT HOLDER OR CONTRIBUTORS BE LIABLE  FOR ANY DIRECT, IN
  27:C:/Users/Yushev/git/optiga-trust-qi/projects/xmc4700_relax_kit/common/Libraries/XMCLib/src\xmc_ledts.c ****  * SPECIAL, EXEMPLARY, OR CONSEQUENTIAL DAMAGES (INCLUDING, BUT NOT LIMITED TO, PROCUREMENT OF SUBS
  28:C:/Users/Yushev/git/optiga-trust-qi/projects/xmc4700_relax_kit/common/Libraries/XMCLib/src\xmc_ledts.c ****  * SERVICES; LOSS OF USE, DATA, OR PROFITS; OR BUSINESS INTERRUPTION) HOWEVER CAUSED AND ON ANY THE
  29:C:/Users/Yushev/git/optiga-trust-qi/projects/xmc4700_relax_kit/common/Libraries/XMCLib/src\xmc_ledts.c ****  * WHETHER IN CONTRACT, STRICT LIABILITY,OR TORT (INCLUDING NEGLIGENCE OR OTHERWISE) ARISING IN ANY
  30:C:/Users/Yushev/git/optiga-trust-qi/projects/xmc4700_relax_kit/common/Libraries/XMCLib/src\xmc_ledts.c ****  * OF THIS SOFTWARE, EVEN IF ADVISED OF THE POSSIBILITY OF SUCH DAMAGE.                            
  31:C:/Users/Yushev/git/optiga-trust-qi/projects/xmc4700_relax_kit/common/Libraries/XMCLib/src\xmc_ledts.c ****  *                                                                              
  32:C:/Users/Yushev/git/optiga-trust-qi/projects/xmc4700_relax_kit/common/Libraries/XMCLib/src\xmc_ledts.c ****  * To improve the quality of the software, users are encouraged to share modifications, enhancement
  33:C:/Users/Yushev/git/optiga-trust-qi/projects/xmc4700_relax_kit/common/Libraries/XMCLib/src\xmc_ledts.c ****  * Infineon Technologies AG dave@infineon.com).                                                    
  34:C:/Users/Yushev/git/optiga-trust-qi/projects/xmc4700_relax_kit/common/Libraries/XMCLib/src\xmc_ledts.c ****  **************************************************************************************************
  35:C:/Users/Yushev/git/optiga-trust-qi/projects/xmc4700_relax_kit/common/Libraries/XMCLib/src\xmc_ledts.c ****  *
  36:C:/Users/Yushev/git/optiga-trust-qi/projects/xmc4700_relax_kit/common/Libraries/XMCLib/src\xmc_ledts.c ****  * Change History
  37:C:/Users/Yushev/git/optiga-trust-qi/projects/xmc4700_relax_kit/common/Libraries/XMCLib/src\xmc_ledts.c ****  * --------------
  38:C:/Users/Yushev/git/optiga-trust-qi/projects/xmc4700_relax_kit/common/Libraries/XMCLib/src\xmc_ledts.c ****  *
  39:C:/Users/Yushev/git/optiga-trust-qi/projects/xmc4700_relax_kit/common/Libraries/XMCLib/src\xmc_ledts.c ****  * 2015-02-20:
  40:C:/Users/Yushev/git/optiga-trust-qi/projects/xmc4700_relax_kit/common/Libraries/XMCLib/src\xmc_ledts.c ****  *     - Initial draft <br>
  41:C:/Users/Yushev/git/optiga-trust-qi/projects/xmc4700_relax_kit/common/Libraries/XMCLib/src\xmc_ledts.c ****  *     - New API added: XMC_LEDTS_SetActivePADNo() <br>
  42:C:/Users/Yushev/git/optiga-trust-qi/projects/xmc4700_relax_kit/common/Libraries/XMCLib/src\xmc_ledts.c ****  *      
  43:C:/Users/Yushev/git/optiga-trust-qi/projects/xmc4700_relax_kit/common/Libraries/XMCLib/src\xmc_ledts.c ****  * 2015-06-20:
  44:C:/Users/Yushev/git/optiga-trust-qi/projects/xmc4700_relax_kit/common/Libraries/XMCLib/src\xmc_ledts.c ****  *     - Removed version macros and declaration of GetDriverVersion API
  45:C:/Users/Yushev/git/optiga-trust-qi/projects/xmc4700_relax_kit/common/Libraries/XMCLib/src\xmc_ledts.c ****  *
  46:C:/Users/Yushev/git/optiga-trust-qi/projects/xmc4700_relax_kit/common/Libraries/XMCLib/src\xmc_ledts.c ****  * 2017-02-25:
  47:C:/Users/Yushev/git/optiga-trust-qi/projects/xmc4700_relax_kit/common/Libraries/XMCLib/src\xmc_ledts.c ****  *     - XMC_LEDTS_InitGlobal() fixed compilation warnings
  48:C:/Users/Yushev/git/optiga-trust-qi/projects/xmc4700_relax_kit/common/Libraries/XMCLib/src\xmc_ledts.c ****  *
  49:C:/Users/Yushev/git/optiga-trust-qi/projects/xmc4700_relax_kit/common/Libraries/XMCLib/src\xmc_ledts.c ****  * <b>Detailed description of file:</b><br>
  50:C:/Users/Yushev/git/optiga-trust-qi/projects/xmc4700_relax_kit/common/Libraries/XMCLib/src\xmc_ledts.c ****  * APIs for the functional blocks of LEDTS have been defined:<br>
  51:C:/Users/Yushev/git/optiga-trust-qi/projects/xmc4700_relax_kit/common/Libraries/XMCLib/src\xmc_ledts.c ****  * -- GLOBAL (APIs prefixed with LEDTS_GLOBAL_) <br>
  52:C:/Users/Yushev/git/optiga-trust-qi/projects/xmc4700_relax_kit/common/Libraries/XMCLib/src\xmc_ledts.c ****  * -- Clock configuration, Function/Event configuration, Interrupt configuration
  53:C:/Users/Yushev/git/optiga-trust-qi/projects/xmc4700_relax_kit/common/Libraries/XMCLib/src\xmc_ledts.c ****  *
  54:C:/Users/Yushev/git/optiga-trust-qi/projects/xmc4700_relax_kit/common/Libraries/XMCLib/src\xmc_ledts.c ****  * @endcond
  55:C:/Users/Yushev/git/optiga-trust-qi/projects/xmc4700_relax_kit/common/Libraries/XMCLib/src\xmc_ledts.c ****  *
  56:C:/Users/Yushev/git/optiga-trust-qi/projects/xmc4700_relax_kit/common/Libraries/XMCLib/src\xmc_ledts.c ****  */
  57:C:/Users/Yushev/git/optiga-trust-qi/projects/xmc4700_relax_kit/common/Libraries/XMCLib/src\xmc_ledts.c **** 
  58:C:/Users/Yushev/git/optiga-trust-qi/projects/xmc4700_relax_kit/common/Libraries/XMCLib/src\xmc_ledts.c **** /**************************************************************************************************
  59:C:/Users/Yushev/git/optiga-trust-qi/projects/xmc4700_relax_kit/common/Libraries/XMCLib/src\xmc_ledts.c ****  * HEADER FILES
  60:C:/Users/Yushev/git/optiga-trust-qi/projects/xmc4700_relax_kit/common/Libraries/XMCLib/src\xmc_ledts.c ****  **************************************************************************************************
  61:C:/Users/Yushev/git/optiga-trust-qi/projects/xmc4700_relax_kit/common/Libraries/XMCLib/src\xmc_ledts.c **** #include <xmc_ledts.h>
  62:C:/Users/Yushev/git/optiga-trust-qi/projects/xmc4700_relax_kit/common/Libraries/XMCLib/src\xmc_ledts.c **** 
  63:C:/Users/Yushev/git/optiga-trust-qi/projects/xmc4700_relax_kit/common/Libraries/XMCLib/src\xmc_ledts.c **** #if defined(LEDTS0)
  64:C:/Users/Yushev/git/optiga-trust-qi/projects/xmc4700_relax_kit/common/Libraries/XMCLib/src\xmc_ledts.c **** #include "xmc_scu.h"
  65:C:/Users/Yushev/git/optiga-trust-qi/projects/xmc4700_relax_kit/common/Libraries/XMCLib/src\xmc_ledts.c **** 
  66:C:/Users/Yushev/git/optiga-trust-qi/projects/xmc4700_relax_kit/common/Libraries/XMCLib/src\xmc_ledts.c **** /**************************************************************************************************
  67:C:/Users/Yushev/git/optiga-trust-qi/projects/xmc4700_relax_kit/common/Libraries/XMCLib/src\xmc_ledts.c ****  * MACROS
  68:C:/Users/Yushev/git/optiga-trust-qi/projects/xmc4700_relax_kit/common/Libraries/XMCLib/src\xmc_ledts.c ****  **************************************************************************************************
  69:C:/Users/Yushev/git/optiga-trust-qi/projects/xmc4700_relax_kit/common/Libraries/XMCLib/src\xmc_ledts.c **** #define XMC_LEDTS_CLOCK_NOT_RUNNING 0U
  70:C:/Users/Yushev/git/optiga-trust-qi/projects/xmc4700_relax_kit/common/Libraries/XMCLib/src\xmc_ledts.c **** 
  71:C:/Users/Yushev/git/optiga-trust-qi/projects/xmc4700_relax_kit/common/Libraries/XMCLib/src\xmc_ledts.c **** /**************************************************************************************************
  72:C:/Users/Yushev/git/optiga-trust-qi/projects/xmc4700_relax_kit/common/Libraries/XMCLib/src\xmc_ledts.c ****  * ENUMS
  73:C:/Users/Yushev/git/optiga-trust-qi/projects/xmc4700_relax_kit/common/Libraries/XMCLib/src\xmc_ledts.c ****  **************************************************************************************************
  74:C:/Users/Yushev/git/optiga-trust-qi/projects/xmc4700_relax_kit/common/Libraries/XMCLib/src\xmc_ledts.c **** 
  75:C:/Users/Yushev/git/optiga-trust-qi/projects/xmc4700_relax_kit/common/Libraries/XMCLib/src\xmc_ledts.c **** /**************************************************************************************************
  76:C:/Users/Yushev/git/optiga-trust-qi/projects/xmc4700_relax_kit/common/Libraries/XMCLib/src\xmc_ledts.c ****  * DATA STRUCTURES
  77:C:/Users/Yushev/git/optiga-trust-qi/projects/xmc4700_relax_kit/common/Libraries/XMCLib/src\xmc_ledts.c ****  **************************************************************************************************
  78:C:/Users/Yushev/git/optiga-trust-qi/projects/xmc4700_relax_kit/common/Libraries/XMCLib/src\xmc_ledts.c **** 
  79:C:/Users/Yushev/git/optiga-trust-qi/projects/xmc4700_relax_kit/common/Libraries/XMCLib/src\xmc_ledts.c **** /**************************************************************************************************
  80:C:/Users/Yushev/git/optiga-trust-qi/projects/xmc4700_relax_kit/common/Libraries/XMCLib/src\xmc_ledts.c ****  * GLOBAL DATA
  81:C:/Users/Yushev/git/optiga-trust-qi/projects/xmc4700_relax_kit/common/Libraries/XMCLib/src\xmc_ledts.c ****  **************************************************************************************************
  82:C:/Users/Yushev/git/optiga-trust-qi/projects/xmc4700_relax_kit/common/Libraries/XMCLib/src\xmc_ledts.c **** 
  83:C:/Users/Yushev/git/optiga-trust-qi/projects/xmc4700_relax_kit/common/Libraries/XMCLib/src\xmc_ledts.c **** /**************************************************************************************************
  84:C:/Users/Yushev/git/optiga-trust-qi/projects/xmc4700_relax_kit/common/Libraries/XMCLib/src\xmc_ledts.c ****  * LOCAL/UTILITY ROUTINES
  85:C:/Users/Yushev/git/optiga-trust-qi/projects/xmc4700_relax_kit/common/Libraries/XMCLib/src\xmc_ledts.c ****  **************************************************************************************************
  86:C:/Users/Yushev/git/optiga-trust-qi/projects/xmc4700_relax_kit/common/Libraries/XMCLib/src\xmc_ledts.c **** 
  87:C:/Users/Yushev/git/optiga-trust-qi/projects/xmc4700_relax_kit/common/Libraries/XMCLib/src\xmc_ledts.c **** /**************************************************************************************************
  88:C:/Users/Yushev/git/optiga-trust-qi/projects/xmc4700_relax_kit/common/Libraries/XMCLib/src\xmc_ledts.c ****  * API IMPLEMENTATION
  89:C:/Users/Yushev/git/optiga-trust-qi/projects/xmc4700_relax_kit/common/Libraries/XMCLib/src\xmc_ledts.c ****  **************************************************************************************************
  90:C:/Users/Yushev/git/optiga-trust-qi/projects/xmc4700_relax_kit/common/Libraries/XMCLib/src\xmc_ledts.c **** 
  91:C:/Users/Yushev/git/optiga-trust-qi/projects/xmc4700_relax_kit/common/Libraries/XMCLib/src\xmc_ledts.c **** /**
  92:C:/Users/Yushev/git/optiga-trust-qi/projects/xmc4700_relax_kit/common/Libraries/XMCLib/src\xmc_ledts.c ****   * Initialization of global register
  93:C:/Users/Yushev/git/optiga-trust-qi/projects/xmc4700_relax_kit/common/Libraries/XMCLib/src\xmc_ledts.c ****   */
  94:C:/Users/Yushev/git/optiga-trust-qi/projects/xmc4700_relax_kit/common/Libraries/XMCLib/src\xmc_ledts.c **** XMC_LEDTS_STATUS_t XMC_LEDTS_InitGlobal(XMC_LEDTS_t *const ledts, const XMC_LEDTS_GLOBAL_CONFIG_t *
  95:C:/Users/Yushev/git/optiga-trust-qi/projects/xmc4700_relax_kit/common/Libraries/XMCLib/src\xmc_ledts.c **** {
  28              	 .loc 1 95 0
  29              	 .cfi_startproc
  30              	 
  31              	 
  32              	.LVL0:
  33 0000 38B5     	 push {r3,r4,r5,lr}
  34              	.LCFI0:
  35              	 .cfi_def_cfa_offset 16
  36              	 .cfi_offset 3,-16
  37              	 .cfi_offset 4,-12
  38              	 .cfi_offset 5,-8
  39              	 .cfi_offset 14,-4
  96:C:/Users/Yushev/git/optiga-trust-qi/projects/xmc4700_relax_kit/common/Libraries/XMCLib/src\xmc_ledts.c ****   XMC_ASSERT("XMC_LEDTS_InitGlobal:Wrong Module Pointer", XMC_LEDTS_CHECK_KERNEL_PTR(ledts));
  97:C:/Users/Yushev/git/optiga-trust-qi/projects/xmc4700_relax_kit/common/Libraries/XMCLib/src\xmc_ledts.c ****   XMC_ASSERT("XMC_LEDTS_InitGlobal:Null Pointer", (config != (XMC_LEDTS_GLOBAL_CONFIG_t *)NULL));
  98:C:/Users/Yushev/git/optiga-trust-qi/projects/xmc4700_relax_kit/common/Libraries/XMCLib/src\xmc_ledts.c **** 
  99:C:/Users/Yushev/git/optiga-trust-qi/projects/xmc4700_relax_kit/common/Libraries/XMCLib/src\xmc_ledts.c ****   if (ledts == XMC_LEDTS0)
  40              	 .loc 1 99 0
  41 0002 0A4B     	 ldr r3,.L6
  42 0004 9842     	 cmp r0,r3
  95:C:/Users/Yushev/git/optiga-trust-qi/projects/xmc4700_relax_kit/common/Libraries/XMCLib/src\xmc_ledts.c ****   XMC_ASSERT("XMC_LEDTS_InitGlobal:Wrong Module Pointer", XMC_LEDTS_CHECK_KERNEL_PTR(ledts));
  43              	 .loc 1 95 0
  44 0006 0446     	 mov r4,r0
  45 0008 0D46     	 mov r5,r1
  46              	 .loc 1 99 0
  47 000a 05D1     	 bne .L2
 100:C:/Users/Yushev/git/optiga-trust-qi/projects/xmc4700_relax_kit/common/Libraries/XMCLib/src\xmc_ledts.c ****   {
 101:C:/Users/Yushev/git/optiga-trust-qi/projects/xmc4700_relax_kit/common/Libraries/XMCLib/src\xmc_ledts.c **** #if defined(CLOCK_GATING_SUPPORTED)
 102:C:/Users/Yushev/git/optiga-trust-qi/projects/xmc4700_relax_kit/common/Libraries/XMCLib/src\xmc_ledts.c ****       XMC_SCU_CLOCK_UngatePeripheralClock(XMC_SCU_PERIPHERAL_CLOCK_LEDTS0);
  48              	 .loc 1 102 0
  49 000c 0848     	 ldr r0,.L6+4
  50              	.LVL1:
  51 000e FFF7FEFF 	 bl XMC_SCU_CLOCK_UngatePeripheralClock
  52              	.LVL2:
 103:C:/Users/Yushev/git/optiga-trust-qi/projects/xmc4700_relax_kit/common/Libraries/XMCLib/src\xmc_ledts.c **** #endif
 104:C:/Users/Yushev/git/optiga-trust-qi/projects/xmc4700_relax_kit/common/Libraries/XMCLib/src\xmc_ledts.c **** #if defined(PERIPHERAL_RESET_SUPPORTED)
 105:C:/Users/Yushev/git/optiga-trust-qi/projects/xmc4700_relax_kit/common/Libraries/XMCLib/src\xmc_ledts.c ****       XMC_SCU_RESET_DeassertPeripheralReset(XMC_SCU_PERIPHERAL_RESET_LEDTS0);
  53              	 .loc 1 105 0
  54 0012 0748     	 ldr r0,.L6+4
  55 0014 FFF7FEFF 	 bl XMC_SCU_RESET_DeassertPeripheralReset
  56              	.LVL3:
  57              	.L2:
 106:C:/Users/Yushev/git/optiga-trust-qi/projects/xmc4700_relax_kit/common/Libraries/XMCLib/src\xmc_ledts.c **** #endif
 107:C:/Users/Yushev/git/optiga-trust-qi/projects/xmc4700_relax_kit/common/Libraries/XMCLib/src\xmc_ledts.c ****   }
 108:C:/Users/Yushev/git/optiga-trust-qi/projects/xmc4700_relax_kit/common/Libraries/XMCLib/src\xmc_ledts.c **** #if defined(LEDTS1)
 109:C:/Users/Yushev/git/optiga-trust-qi/projects/xmc4700_relax_kit/common/Libraries/XMCLib/src\xmc_ledts.c ****   else if (ledts == XMC_LEDTS1)
 110:C:/Users/Yushev/git/optiga-trust-qi/projects/xmc4700_relax_kit/common/Libraries/XMCLib/src\xmc_ledts.c ****   {
 111:C:/Users/Yushev/git/optiga-trust-qi/projects/xmc4700_relax_kit/common/Libraries/XMCLib/src\xmc_ledts.c **** #if defined(CLOCK_GATING_SUPPORTED)
 112:C:/Users/Yushev/git/optiga-trust-qi/projects/xmc4700_relax_kit/common/Libraries/XMCLib/src\xmc_ledts.c ****       XMC_SCU_CLOCK_UngatePeripheralClock(XMC_SCU_PERIPHERAL_CLOCK_LEDTS1);
 113:C:/Users/Yushev/git/optiga-trust-qi/projects/xmc4700_relax_kit/common/Libraries/XMCLib/src\xmc_ledts.c **** #endif
 114:C:/Users/Yushev/git/optiga-trust-qi/projects/xmc4700_relax_kit/common/Libraries/XMCLib/src\xmc_ledts.c **** #if defined(PERIPHERAL_RESET_SUPPORTED)
 115:C:/Users/Yushev/git/optiga-trust-qi/projects/xmc4700_relax_kit/common/Libraries/XMCLib/src\xmc_ledts.c ****       XMC_SCU_RESET_DeassertPeripheralReset(XMC_SCU_PERIPHERAL_RESET_LEDTS1);
 116:C:/Users/Yushev/git/optiga-trust-qi/projects/xmc4700_relax_kit/common/Libraries/XMCLib/src\xmc_ledts.c **** #endif
 117:C:/Users/Yushev/git/optiga-trust-qi/projects/xmc4700_relax_kit/common/Libraries/XMCLib/src\xmc_ledts.c ****   }
 118:C:/Users/Yushev/git/optiga-trust-qi/projects/xmc4700_relax_kit/common/Libraries/XMCLib/src\xmc_ledts.c **** #endif
 119:C:/Users/Yushev/git/optiga-trust-qi/projects/xmc4700_relax_kit/common/Libraries/XMCLib/src\xmc_ledts.c **** #if defined(LEDTS2)
 120:C:/Users/Yushev/git/optiga-trust-qi/projects/xmc4700_relax_kit/common/Libraries/XMCLib/src\xmc_ledts.c ****   else if (ledts == XMC_LEDTS2)
 121:C:/Users/Yushev/git/optiga-trust-qi/projects/xmc4700_relax_kit/common/Libraries/XMCLib/src\xmc_ledts.c ****   {
 122:C:/Users/Yushev/git/optiga-trust-qi/projects/xmc4700_relax_kit/common/Libraries/XMCLib/src\xmc_ledts.c **** #if defined(CLOCK_GATING_SUPPORTED)
 123:C:/Users/Yushev/git/optiga-trust-qi/projects/xmc4700_relax_kit/common/Libraries/XMCLib/src\xmc_ledts.c ****       XMC_SCU_CLOCK_UngatePeripheralClock(XMC_SCU_PERIPHERAL_CLOCK_LEDTS2);
 124:C:/Users/Yushev/git/optiga-trust-qi/projects/xmc4700_relax_kit/common/Libraries/XMCLib/src\xmc_ledts.c **** #endif
 125:C:/Users/Yushev/git/optiga-trust-qi/projects/xmc4700_relax_kit/common/Libraries/XMCLib/src\xmc_ledts.c **** #if defined(PERIPHERAL_RESET_SUPPORTED)
 126:C:/Users/Yushev/git/optiga-trust-qi/projects/xmc4700_relax_kit/common/Libraries/XMCLib/src\xmc_ledts.c ****       XMC_SCU_RESET_DeassertPeripheralReset(XMC_SCU_PERIPHERAL_RESET_LEDTS2);
 127:C:/Users/Yushev/git/optiga-trust-qi/projects/xmc4700_relax_kit/common/Libraries/XMCLib/src\xmc_ledts.c **** #endif
 128:C:/Users/Yushev/git/optiga-trust-qi/projects/xmc4700_relax_kit/common/Libraries/XMCLib/src\xmc_ledts.c ****   }
 129:C:/Users/Yushev/git/optiga-trust-qi/projects/xmc4700_relax_kit/common/Libraries/XMCLib/src\xmc_ledts.c **** #endif
 130:C:/Users/Yushev/git/optiga-trust-qi/projects/xmc4700_relax_kit/common/Libraries/XMCLib/src\xmc_ledts.c ****   else
 131:C:/Users/Yushev/git/optiga-trust-qi/projects/xmc4700_relax_kit/common/Libraries/XMCLib/src\xmc_ledts.c ****   {
 132:C:/Users/Yushev/git/optiga-trust-qi/projects/xmc4700_relax_kit/common/Libraries/XMCLib/src\xmc_ledts.c ****     XMC_ASSERT("XMC_LEDTS_InitGlobal:Invalid Module Pointer", 0);
 133:C:/Users/Yushev/git/optiga-trust-qi/projects/xmc4700_relax_kit/common/Libraries/XMCLib/src\xmc_ledts.c ****   }
 134:C:/Users/Yushev/git/optiga-trust-qi/projects/xmc4700_relax_kit/common/Libraries/XMCLib/src\xmc_ledts.c **** 
 135:C:/Users/Yushev/git/optiga-trust-qi/projects/xmc4700_relax_kit/common/Libraries/XMCLib/src\xmc_ledts.c ****   if((ledts->GLOBCTL & LEDTS_GLOBCTL_CLK_PS_Msk) != XMC_LEDTS_CLOCK_NOT_RUNNING)
  58              	 .loc 1 135 0
  59 0018 6068     	 ldr r0,[r4,#4]
  60 001a 000C     	 lsrs r0,r0,#16
  61 001c 0004     	 lsls r0,r0,#16
  62 001e 10B9     	 cbnz r0,.L4
 136:C:/Users/Yushev/git/optiga-trust-qi/projects/xmc4700_relax_kit/common/Libraries/XMCLib/src\xmc_ledts.c ****   {
 137:C:/Users/Yushev/git/optiga-trust-qi/projects/xmc4700_relax_kit/common/Libraries/XMCLib/src\xmc_ledts.c ****     return XMC_LEDTS_STATUS_RUNNING;
 138:C:/Users/Yushev/git/optiga-trust-qi/projects/xmc4700_relax_kit/common/Libraries/XMCLib/src\xmc_ledts.c ****   }
 139:C:/Users/Yushev/git/optiga-trust-qi/projects/xmc4700_relax_kit/common/Libraries/XMCLib/src\xmc_ledts.c **** 
 140:C:/Users/Yushev/git/optiga-trust-qi/projects/xmc4700_relax_kit/common/Libraries/XMCLib/src\xmc_ledts.c ****   ledts->GLOBCTL = config->globctl;
  63              	 .loc 1 140 0
  64 0020 2B68     	 ldr r3,[r5]
  65 0022 6360     	 str r3,[r4,#4]
 141:C:/Users/Yushev/git/optiga-trust-qi/projects/xmc4700_relax_kit/common/Libraries/XMCLib/src\xmc_ledts.c **** 
 142:C:/Users/Yushev/git/optiga-trust-qi/projects/xmc4700_relax_kit/common/Libraries/XMCLib/src\xmc_ledts.c ****   return XMC_LEDTS_STATUS_SUCCESS;
  66              	 .loc 1 142 0
  67 0024 38BD     	 pop {r3,r4,r5,pc}
  68              	.LVL4:
  69              	.L4:
 137:C:/Users/Yushev/git/optiga-trust-qi/projects/xmc4700_relax_kit/common/Libraries/XMCLib/src\xmc_ledts.c ****   }
  70              	 .loc 1 137 0
  71 0026 0120     	 movs r0,#1
 143:C:/Users/Yushev/git/optiga-trust-qi/projects/xmc4700_relax_kit/common/Libraries/XMCLib/src\xmc_ledts.c **** }
  72              	 .loc 1 143 0
  73 0028 38BD     	 pop {r3,r4,r5,pc}
  74              	.LVL5:
  75              	.L7:
  76 002a 00BF     	 .align 2
  77              	.L6:
  78 002c 00000148 	 .word 1208025088
  79 0030 08000010 	 .word 268435464
  80              	 .cfi_endproc
  81              	.LFE171:
  83              	 .section .text.XMC_LEDTS_InitLED,"ax",%progbits
  84              	 .align 1
  85              	 .global XMC_LEDTS_InitLED
  86              	 .thumb
  87              	 .thumb_func
  89              	XMC_LEDTS_InitLED:
  90              	.LFB172:
 144:C:/Users/Yushev/git/optiga-trust-qi/projects/xmc4700_relax_kit/common/Libraries/XMCLib/src\xmc_ledts.c **** 
 145:C:/Users/Yushev/git/optiga-trust-qi/projects/xmc4700_relax_kit/common/Libraries/XMCLib/src\xmc_ledts.c **** /**
 146:C:/Users/Yushev/git/optiga-trust-qi/projects/xmc4700_relax_kit/common/Libraries/XMCLib/src\xmc_ledts.c ****   * Initialization of registers for LED-driving function
 147:C:/Users/Yushev/git/optiga-trust-qi/projects/xmc4700_relax_kit/common/Libraries/XMCLib/src\xmc_ledts.c ****   */
 148:C:/Users/Yushev/git/optiga-trust-qi/projects/xmc4700_relax_kit/common/Libraries/XMCLib/src\xmc_ledts.c **** XMC_LEDTS_STATUS_t XMC_LEDTS_InitLED(XMC_LEDTS_t *const ledts, const XMC_LEDTS_LED_CONFIG_t *config
 149:C:/Users/Yushev/git/optiga-trust-qi/projects/xmc4700_relax_kit/common/Libraries/XMCLib/src\xmc_ledts.c **** {
  91              	 .loc 1 149 0
  92              	 .cfi_startproc
  93              	 
  94              	 
  95              	.LVL6:
 150:C:/Users/Yushev/git/optiga-trust-qi/projects/xmc4700_relax_kit/common/Libraries/XMCLib/src\xmc_ledts.c ****   XMC_ASSERT("XMC_LEDTS_LED_Init:Wrong Module Pointer", XMC_LEDTS_CHECK_KERNEL_PTR(ledts));
 151:C:/Users/Yushev/git/optiga-trust-qi/projects/xmc4700_relax_kit/common/Libraries/XMCLib/src\xmc_ledts.c ****   XMC_ASSERT("XMC_LEDTS_LED_Init:Null Pointer", (config != (XMC_LEDTS_LED_CONFIG_t *)NULL));
 152:C:/Users/Yushev/git/optiga-trust-qi/projects/xmc4700_relax_kit/common/Libraries/XMCLib/src\xmc_ledts.c **** 
 153:C:/Users/Yushev/git/optiga-trust-qi/projects/xmc4700_relax_kit/common/Libraries/XMCLib/src\xmc_ledts.c ****   if((ledts->GLOBCTL & LEDTS_GLOBCTL_CLK_PS_Msk) != XMC_LEDTS_CLOCK_NOT_RUNNING)
  96              	 .loc 1 153 0
  97 0000 4368     	 ldr r3,[r0,#4]
  98 0002 1B0C     	 lsrs r3,r3,#16
  99 0004 1B04     	 lsls r3,r3,#16
 149:C:/Users/Yushev/git/optiga-trust-qi/projects/xmc4700_relax_kit/common/Libraries/XMCLib/src\xmc_ledts.c ****   XMC_ASSERT("XMC_LEDTS_LED_Init:Wrong Module Pointer", XMC_LEDTS_CHECK_KERNEL_PTR(ledts));
 100              	 .loc 1 149 0
 101 0006 10B5     	 push {r4,lr}
 102              	.LCFI1:
 103              	 .cfi_def_cfa_offset 8
 104              	 .cfi_offset 4,-8
 105              	 .cfi_offset 14,-4
 106              	 .loc 1 153 0
 107 0008 6BB9     	 cbnz r3,.L10
 154:C:/Users/Yushev/git/optiga-trust-qi/projects/xmc4700_relax_kit/common/Libraries/XMCLib/src\xmc_ledts.c ****   {
 155:C:/Users/Yushev/git/optiga-trust-qi/projects/xmc4700_relax_kit/common/Libraries/XMCLib/src\xmc_ledts.c ****     return XMC_LEDTS_STATUS_RUNNING;
 156:C:/Users/Yushev/git/optiga-trust-qi/projects/xmc4700_relax_kit/common/Libraries/XMCLib/src\xmc_ledts.c ****   }
 157:C:/Users/Yushev/git/optiga-trust-qi/projects/xmc4700_relax_kit/common/Libraries/XMCLib/src\xmc_ledts.c **** 
 158:C:/Users/Yushev/git/optiga-trust-qi/projects/xmc4700_relax_kit/common/Libraries/XMCLib/src\xmc_ledts.c ****   ledts->FNCTL &= ~(LEDTS_FNCTL_COLLEV_Msk | LEDTS_FNCTL_NR_LEDCOL_Msk);
 108              	 .loc 1 158 0
 109 000a 8268     	 ldr r2,[r0,#8]
 110 000c 22F07042 	 bic r2,r2,#-268435456
 111 0010 8260     	 str r2,[r0,#8]
 159:C:/Users/Yushev/git/optiga-trust-qi/projects/xmc4700_relax_kit/common/Libraries/XMCLib/src\xmc_ledts.c ****   ledts->FNCTL |= (config->fnctl);
 112              	 .loc 1 159 0
 113 0012 8468     	 ldr r4,[r0,#8]
 114 0014 0A68     	 ldr r2,[r1]
 115 0016 2243     	 orrs r2,r2,r4
 116 0018 8260     	 str r2,[r0,#8]
 160:C:/Users/Yushev/git/optiga-trust-qi/projects/xmc4700_relax_kit/common/Libraries/XMCLib/src\xmc_ledts.c **** 
 161:C:/Users/Yushev/git/optiga-trust-qi/projects/xmc4700_relax_kit/common/Libraries/XMCLib/src\xmc_ledts.c ****   /* Enable LED function */
 162:C:/Users/Yushev/git/optiga-trust-qi/projects/xmc4700_relax_kit/common/Libraries/XMCLib/src\xmc_ledts.c ****   ledts->GLOBCTL |= LEDTS_GLOBCTL_LD_EN_Msk;
 117              	 .loc 1 162 0
 118 001a 4268     	 ldr r2,[r0,#4]
 119 001c 42F00202 	 orr r2,r2,#2
 120 0020 4260     	 str r2,[r0,#4]
 163:C:/Users/Yushev/git/optiga-trust-qi/projects/xmc4700_relax_kit/common/Libraries/XMCLib/src\xmc_ledts.c **** 
 164:C:/Users/Yushev/git/optiga-trust-qi/projects/xmc4700_relax_kit/common/Libraries/XMCLib/src\xmc_ledts.c ****   return XMC_LEDTS_STATUS_SUCCESS;
 121              	 .loc 1 164 0
 122 0022 1846     	 mov r0,r3
 123              	.LVL7:
 124 0024 10BD     	 pop {r4,pc}
 125              	.LVL8:
 126              	.L10:
 155:C:/Users/Yushev/git/optiga-trust-qi/projects/xmc4700_relax_kit/common/Libraries/XMCLib/src\xmc_ledts.c ****   }
 127              	 .loc 1 155 0
 128 0026 0120     	 movs r0,#1
 129              	.LVL9:
 165:C:/Users/Yushev/git/optiga-trust-qi/projects/xmc4700_relax_kit/common/Libraries/XMCLib/src\xmc_ledts.c **** }
 130              	 .loc 1 165 0
 131 0028 10BD     	 pop {r4,pc}
 132              	 .cfi_endproc
 133              	.LFE172:
 135              	 .section .text.XMC_LEDTS_InitTSBasic,"ax",%progbits
 136              	 .align 1
 137              	 .global XMC_LEDTS_InitTSBasic
 138              	 .thumb
 139              	 .thumb_func
 141              	XMC_LEDTS_InitTSBasic:
 142              	.LFB173:
 166:C:/Users/Yushev/git/optiga-trust-qi/projects/xmc4700_relax_kit/common/Libraries/XMCLib/src\xmc_ledts.c **** 
 167:C:/Users/Yushev/git/optiga-trust-qi/projects/xmc4700_relax_kit/common/Libraries/XMCLib/src\xmc_ledts.c **** /**
 168:C:/Users/Yushev/git/optiga-trust-qi/projects/xmc4700_relax_kit/common/Libraries/XMCLib/src\xmc_ledts.c ****   * Initialization of registers for basic Touch-Sense control function
 169:C:/Users/Yushev/git/optiga-trust-qi/projects/xmc4700_relax_kit/common/Libraries/XMCLib/src\xmc_ledts.c ****   */
 170:C:/Users/Yushev/git/optiga-trust-qi/projects/xmc4700_relax_kit/common/Libraries/XMCLib/src\xmc_ledts.c **** XMC_LEDTS_STATUS_t XMC_LEDTS_InitTSBasic(XMC_LEDTS_t *const ledts, const XMC_LEDTS_TS_CONFIG_BASIC_
 171:C:/Users/Yushev/git/optiga-trust-qi/projects/xmc4700_relax_kit/common/Libraries/XMCLib/src\xmc_ledts.c **** {
 143              	 .loc 1 171 0
 144              	 .cfi_startproc
 145              	 
 146              	 
 147              	.LVL10:
 172:C:/Users/Yushev/git/optiga-trust-qi/projects/xmc4700_relax_kit/common/Libraries/XMCLib/src\xmc_ledts.c ****   uint32_t reg;
 173:C:/Users/Yushev/git/optiga-trust-qi/projects/xmc4700_relax_kit/common/Libraries/XMCLib/src\xmc_ledts.c **** 
 174:C:/Users/Yushev/git/optiga-trust-qi/projects/xmc4700_relax_kit/common/Libraries/XMCLib/src\xmc_ledts.c ****   XMC_ASSERT("XMC_LEDTS_TS_Basic_Init:Wrong Module Pointer", XMC_LEDTS_CHECK_KERNEL_PTR(ledts));
 175:C:/Users/Yushev/git/optiga-trust-qi/projects/xmc4700_relax_kit/common/Libraries/XMCLib/src\xmc_ledts.c ****   XMC_ASSERT("XMC_LEDTS_TS_Basic_Init:Null Pointer", (config != (XMC_LEDTS_TS_CONFIG_BASIC_t *)NULL
 176:C:/Users/Yushev/git/optiga-trust-qi/projects/xmc4700_relax_kit/common/Libraries/XMCLib/src\xmc_ledts.c **** 
 177:C:/Users/Yushev/git/optiga-trust-qi/projects/xmc4700_relax_kit/common/Libraries/XMCLib/src\xmc_ledts.c ****   if((ledts->GLOBCTL & LEDTS_GLOBCTL_CLK_PS_Msk) != XMC_LEDTS_CLOCK_NOT_RUNNING)
 148              	 .loc 1 177 0
 149 0000 4368     	 ldr r3,[r0,#4]
 150 0002 1B0C     	 lsrs r3,r3,#16
 151 0004 1B04     	 lsls r3,r3,#16
 171:C:/Users/Yushev/git/optiga-trust-qi/projects/xmc4700_relax_kit/common/Libraries/XMCLib/src\xmc_ledts.c ****   uint32_t reg;
 152              	 .loc 1 171 0
 153 0006 10B5     	 push {r4,lr}
 154              	.LCFI2:
 155              	 .cfi_def_cfa_offset 8
 156              	 .cfi_offset 4,-8
 157              	 .cfi_offset 14,-4
 158              	 .loc 1 177 0
 159 0008 7BB9     	 cbnz r3,.L13
 160              	.LVL11:
 178:C:/Users/Yushev/git/optiga-trust-qi/projects/xmc4700_relax_kit/common/Libraries/XMCLib/src\xmc_ledts.c ****   {
 179:C:/Users/Yushev/git/optiga-trust-qi/projects/xmc4700_relax_kit/common/Libraries/XMCLib/src\xmc_ledts.c ****     return XMC_LEDTS_STATUS_RUNNING;
 180:C:/Users/Yushev/git/optiga-trust-qi/projects/xmc4700_relax_kit/common/Libraries/XMCLib/src\xmc_ledts.c ****   }
 181:C:/Users/Yushev/git/optiga-trust-qi/projects/xmc4700_relax_kit/common/Libraries/XMCLib/src\xmc_ledts.c **** 
 182:C:/Users/Yushev/git/optiga-trust-qi/projects/xmc4700_relax_kit/common/Libraries/XMCLib/src\xmc_ledts.c ****   reg = ~(LEDTS_FNCTL_ACCCNT_Msk | LEDTS_FNCTL_TSCCMP_Msk | LEDTS_FNCTL_TSCTRR_Msk | LEDTS_FNCTL_TS
 183:C:/Users/Yushev/git/optiga-trust-qi/projects/xmc4700_relax_kit/common/Libraries/XMCLib/src\xmc_ledts.c **** 		 LEDTS_FNCTL_NR_TSIN_Msk);
 184:C:/Users/Yushev/git/optiga-trust-qi/projects/xmc4700_relax_kit/common/Libraries/XMCLib/src\xmc_ledts.c ****   ledts->FNCTL &= (reg);
 161              	 .loc 1 184 0
 162 000a 8268     	 ldr r2,[r0,#8]
 163 000c 22F07962 	 bic r2,r2,#261095424
 164 0010 22F47022 	 bic r2,r2,#983040
 165 0014 8260     	 str r2,[r0,#8]
 185:C:/Users/Yushev/git/optiga-trust-qi/projects/xmc4700_relax_kit/common/Libraries/XMCLib/src\xmc_ledts.c ****   ledts->FNCTL |= (config->fnctl);
 166              	 .loc 1 185 0
 167 0016 8468     	 ldr r4,[r0,#8]
 168 0018 0A68     	 ldr r2,[r1]
 169 001a 2243     	 orrs r2,r2,r4
 170 001c 8260     	 str r2,[r0,#8]
 186:C:/Users/Yushev/git/optiga-trust-qi/projects/xmc4700_relax_kit/common/Libraries/XMCLib/src\xmc_ledts.c **** 
 187:C:/Users/Yushev/git/optiga-trust-qi/projects/xmc4700_relax_kit/common/Libraries/XMCLib/src\xmc_ledts.c ****   /* Enable TS function */
 188:C:/Users/Yushev/git/optiga-trust-qi/projects/xmc4700_relax_kit/common/Libraries/XMCLib/src\xmc_ledts.c ****   ledts->GLOBCTL |= LEDTS_GLOBCTL_TS_EN_Msk;
 171              	 .loc 1 188 0
 172 001e 4268     	 ldr r2,[r0,#4]
 173 0020 42F00102 	 orr r2,r2,#1
 174 0024 4260     	 str r2,[r0,#4]
 189:C:/Users/Yushev/git/optiga-trust-qi/projects/xmc4700_relax_kit/common/Libraries/XMCLib/src\xmc_ledts.c **** 
 190:C:/Users/Yushev/git/optiga-trust-qi/projects/xmc4700_relax_kit/common/Libraries/XMCLib/src\xmc_ledts.c ****   return XMC_LEDTS_STATUS_SUCCESS;
 175              	 .loc 1 190 0
 176 0026 1846     	 mov r0,r3
 177              	.LVL12:
 178 0028 10BD     	 pop {r4,pc}
 179              	.LVL13:
 180              	.L13:
 179:C:/Users/Yushev/git/optiga-trust-qi/projects/xmc4700_relax_kit/common/Libraries/XMCLib/src\xmc_ledts.c ****   }
 181              	 .loc 1 179 0
 182 002a 0120     	 movs r0,#1
 183              	.LVL14:
 191:C:/Users/Yushev/git/optiga-trust-qi/projects/xmc4700_relax_kit/common/Libraries/XMCLib/src\xmc_ledts.c **** }
 184              	 .loc 1 191 0
 185 002c 10BD     	 pop {r4,pc}
 186              	 .cfi_endproc
 187              	.LFE173:
 189              	 .section .text.XMC_LEDTS_InitTSAdvanced,"ax",%progbits
 190              	 .align 1
 191              	 .global XMC_LEDTS_InitTSAdvanced
 192              	 .thumb
 193              	 .thumb_func
 195              	XMC_LEDTS_InitTSAdvanced:
 196              	.LFB174:
 192:C:/Users/Yushev/git/optiga-trust-qi/projects/xmc4700_relax_kit/common/Libraries/XMCLib/src\xmc_ledts.c **** 
 193:C:/Users/Yushev/git/optiga-trust-qi/projects/xmc4700_relax_kit/common/Libraries/XMCLib/src\xmc_ledts.c **** /**
 194:C:/Users/Yushev/git/optiga-trust-qi/projects/xmc4700_relax_kit/common/Libraries/XMCLib/src\xmc_ledts.c ****   * Initialization of registers for advanced Touch-Sense control function
 195:C:/Users/Yushev/git/optiga-trust-qi/projects/xmc4700_relax_kit/common/Libraries/XMCLib/src\xmc_ledts.c ****   */
 196:C:/Users/Yushev/git/optiga-trust-qi/projects/xmc4700_relax_kit/common/Libraries/XMCLib/src\xmc_ledts.c **** XMC_LEDTS_STATUS_t XMC_LEDTS_InitTSAdvanced (XMC_LEDTS_t *const ledts, const XMC_LEDTS_TS_CONFIG_AD
 197:C:/Users/Yushev/git/optiga-trust-qi/projects/xmc4700_relax_kit/common/Libraries/XMCLib/src\xmc_ledts.c **** {
 197              	 .loc 1 197 0
 198              	 .cfi_startproc
 199              	 
 200              	 
 201              	.LVL15:
 198:C:/Users/Yushev/git/optiga-trust-qi/projects/xmc4700_relax_kit/common/Libraries/XMCLib/src\xmc_ledts.c ****   uint32_t reg;
 199:C:/Users/Yushev/git/optiga-trust-qi/projects/xmc4700_relax_kit/common/Libraries/XMCLib/src\xmc_ledts.c **** 
 200:C:/Users/Yushev/git/optiga-trust-qi/projects/xmc4700_relax_kit/common/Libraries/XMCLib/src\xmc_ledts.c ****   XMC_ASSERT("XMC_LEDTS_TS_Advanced_Init:Wrong Module Pointer", XMC_LEDTS_CHECK_KERNEL_PTR(ledts));
 201:C:/Users/Yushev/git/optiga-trust-qi/projects/xmc4700_relax_kit/common/Libraries/XMCLib/src\xmc_ledts.c ****   XMC_ASSERT("XMC_LEDTS_TS_Advanced_Init:Null Pointer", (config != (XMC_LEDTS_TS_CONFIG_ADVANCED_t 
 202:C:/Users/Yushev/git/optiga-trust-qi/projects/xmc4700_relax_kit/common/Libraries/XMCLib/src\xmc_ledts.c **** 
 203:C:/Users/Yushev/git/optiga-trust-qi/projects/xmc4700_relax_kit/common/Libraries/XMCLib/src\xmc_ledts.c ****   if((ledts->GLOBCTL & LEDTS_GLOBCTL_CLK_PS_Msk) != XMC_LEDTS_CLOCK_NOT_RUNNING)
 202              	 .loc 1 203 0
 203 0000 4368     	 ldr r3,[r0,#4]
 204 0002 1B0C     	 lsrs r3,r3,#16
 205 0004 1B04     	 lsls r3,r3,#16
 197:C:/Users/Yushev/git/optiga-trust-qi/projects/xmc4700_relax_kit/common/Libraries/XMCLib/src\xmc_ledts.c ****   uint32_t reg;
 206              	 .loc 1 197 0
 207 0006 10B5     	 push {r4,lr}
 208              	.LCFI3:
 209              	 .cfi_def_cfa_offset 8
 210              	 .cfi_offset 4,-8
 211              	 .cfi_offset 14,-4
 212              	 .loc 1 203 0
 213 0008 9BB9     	 cbnz r3,.L16
 214              	.LVL16:
 204:C:/Users/Yushev/git/optiga-trust-qi/projects/xmc4700_relax_kit/common/Libraries/XMCLib/src\xmc_ledts.c ****   {
 205:C:/Users/Yushev/git/optiga-trust-qi/projects/xmc4700_relax_kit/common/Libraries/XMCLib/src\xmc_ledts.c ****     return XMC_LEDTS_STATUS_RUNNING;
 206:C:/Users/Yushev/git/optiga-trust-qi/projects/xmc4700_relax_kit/common/Libraries/XMCLib/src\xmc_ledts.c ****   }
 207:C:/Users/Yushev/git/optiga-trust-qi/projects/xmc4700_relax_kit/common/Libraries/XMCLib/src\xmc_ledts.c **** 
 208:C:/Users/Yushev/git/optiga-trust-qi/projects/xmc4700_relax_kit/common/Libraries/XMCLib/src\xmc_ledts.c ****   reg = ~(LEDTS_GLOBCTL_MASKVAL_Msk | LEDTS_GLOBCTL_FENVAL_Msk);
 209:C:/Users/Yushev/git/optiga-trust-qi/projects/xmc4700_relax_kit/common/Libraries/XMCLib/src\xmc_ledts.c ****   ledts->GLOBCTL &= (reg);
 215              	 .loc 1 209 0
 216 000a 4268     	 ldr r2,[r0,#4]
 217 000c 22F4F052 	 bic r2,r2,#7680
 218 0010 4260     	 str r2,[r0,#4]
 210:C:/Users/Yushev/git/optiga-trust-qi/projects/xmc4700_relax_kit/common/Libraries/XMCLib/src\xmc_ledts.c ****   ledts->GLOBCTL |= (config->globctl);
 219              	 .loc 1 210 0
 220 0012 4468     	 ldr r4,[r0,#4]
 221 0014 0A68     	 ldr r2,[r1]
 222 0016 2243     	 orrs r2,r2,r4
 223 0018 4260     	 str r2,[r0,#4]
 224              	.LVL17:
 211:C:/Users/Yushev/git/optiga-trust-qi/projects/xmc4700_relax_kit/common/Libraries/XMCLib/src\xmc_ledts.c **** 
 212:C:/Users/Yushev/git/optiga-trust-qi/projects/xmc4700_relax_kit/common/Libraries/XMCLib/src\xmc_ledts.c ****   reg = ~(LEDTS_FNCTL_PADT_Msk | LEDTS_FNCTL_PADTSW_Msk | LEDTS_FNCTL_EPULL_Msk | LEDTS_FNCTL_TSOEX
 213:C:/Users/Yushev/git/optiga-trust-qi/projects/xmc4700_relax_kit/common/Libraries/XMCLib/src\xmc_ledts.c ****   ledts->FNCTL &= (reg);
 225              	 .loc 1 213 0
 226 001a 8268     	 ldr r2,[r0,#8]
 227 001c 22F4C002 	 bic r2,r2,#6291456
 228 0020 22F01F02 	 bic r2,r2,#31
 229 0024 8260     	 str r2,[r0,#8]
 214:C:/Users/Yushev/git/optiga-trust-qi/projects/xmc4700_relax_kit/common/Libraries/XMCLib/src\xmc_ledts.c ****   ledts->FNCTL |= (config->fnctl);
 230              	 .loc 1 214 0
 231 0026 8468     	 ldr r4,[r0,#8]
 232 0028 4A68     	 ldr r2,[r1,#4]
 233 002a 2243     	 orrs r2,r2,r4
 234 002c 8260     	 str r2,[r0,#8]
 215:C:/Users/Yushev/git/optiga-trust-qi/projects/xmc4700_relax_kit/common/Libraries/XMCLib/src\xmc_ledts.c **** 
 216:C:/Users/Yushev/git/optiga-trust-qi/projects/xmc4700_relax_kit/common/Libraries/XMCLib/src\xmc_ledts.c ****   return XMC_LEDTS_STATUS_SUCCESS;
 235              	 .loc 1 216 0
 236 002e 1846     	 mov r0,r3
 237              	.LVL18:
 238 0030 10BD     	 pop {r4,pc}
 239              	.LVL19:
 240              	.L16:
 205:C:/Users/Yushev/git/optiga-trust-qi/projects/xmc4700_relax_kit/common/Libraries/XMCLib/src\xmc_ledts.c ****   }
 241              	 .loc 1 205 0
 242 0032 0120     	 movs r0,#1
 243              	.LVL20:
 217:C:/Users/Yushev/git/optiga-trust-qi/projects/xmc4700_relax_kit/common/Libraries/XMCLib/src\xmc_ledts.c **** }
 244              	 .loc 1 217 0
 245 0034 10BD     	 pop {r4,pc}
 246              	 .cfi_endproc
 247              	.LFE174:
 249              	 .section .text.XMC_LEDTS_StartCounter,"ax",%progbits
 250              	 .align 1
 251              	 .global XMC_LEDTS_StartCounter
 252              	 .thumb
 253              	 .thumb_func
 255              	XMC_LEDTS_StartCounter:
 256              	.LFB175:
 218:C:/Users/Yushev/git/optiga-trust-qi/projects/xmc4700_relax_kit/common/Libraries/XMCLib/src\xmc_ledts.c **** 
 219:C:/Users/Yushev/git/optiga-trust-qi/projects/xmc4700_relax_kit/common/Libraries/XMCLib/src\xmc_ledts.c **** /**
 220:C:/Users/Yushev/git/optiga-trust-qi/projects/xmc4700_relax_kit/common/Libraries/XMCLib/src\xmc_ledts.c ****   * Starts LEDTS-counter
 221:C:/Users/Yushev/git/optiga-trust-qi/projects/xmc4700_relax_kit/common/Libraries/XMCLib/src\xmc_ledts.c ****   */
 222:C:/Users/Yushev/git/optiga-trust-qi/projects/xmc4700_relax_kit/common/Libraries/XMCLib/src\xmc_ledts.c **** void XMC_LEDTS_StartCounter(XMC_LEDTS_t *const ledts, const uint16_t prescaler)
 223:C:/Users/Yushev/git/optiga-trust-qi/projects/xmc4700_relax_kit/common/Libraries/XMCLib/src\xmc_ledts.c **** {
 257              	 .loc 1 223 0
 258              	 .cfi_startproc
 259              	 
 260              	 
 261              	 
 262              	.LVL21:
 224:C:/Users/Yushev/git/optiga-trust-qi/projects/xmc4700_relax_kit/common/Libraries/XMCLib/src\xmc_ledts.c ****   XMC_ASSERT("XMC_LEDTS_Start_Counter:Wrong Module Pointer", XMC_LEDTS_CHECK_KERNEL_PTR(ledts));
 225:C:/Users/Yushev/git/optiga-trust-qi/projects/xmc4700_relax_kit/common/Libraries/XMCLib/src\xmc_ledts.c **** 
 226:C:/Users/Yushev/git/optiga-trust-qi/projects/xmc4700_relax_kit/common/Libraries/XMCLib/src\xmc_ledts.c ****   ledts->GLOBCTL |= prescaler<<16U;
 263              	 .loc 1 226 0
 264 0000 4368     	 ldr r3,[r0,#4]
 265 0002 43EA0141 	 orr r1,r3,r1,lsl#16
 266              	.LVL22:
 267 0006 4160     	 str r1,[r0,#4]
 268 0008 7047     	 bx lr
 269              	 .cfi_endproc
 270              	.LFE175:
 272              	 .section .text.XMC_LEDTS_StopCounter,"ax",%progbits
 273              	 .align 1
 274              	 .global XMC_LEDTS_StopCounter
 275              	 .thumb
 276              	 .thumb_func
 278              	XMC_LEDTS_StopCounter:
 279              	.LFB176:
 227:C:/Users/Yushev/git/optiga-trust-qi/projects/xmc4700_relax_kit/common/Libraries/XMCLib/src\xmc_ledts.c **** }
 228:C:/Users/Yushev/git/optiga-trust-qi/projects/xmc4700_relax_kit/common/Libraries/XMCLib/src\xmc_ledts.c **** 
 229:C:/Users/Yushev/git/optiga-trust-qi/projects/xmc4700_relax_kit/common/Libraries/XMCLib/src\xmc_ledts.c **** /**
 230:C:/Users/Yushev/git/optiga-trust-qi/projects/xmc4700_relax_kit/common/Libraries/XMCLib/src\xmc_ledts.c ****   * Stops LEDTS-counter
 231:C:/Users/Yushev/git/optiga-trust-qi/projects/xmc4700_relax_kit/common/Libraries/XMCLib/src\xmc_ledts.c ****   */
 232:C:/Users/Yushev/git/optiga-trust-qi/projects/xmc4700_relax_kit/common/Libraries/XMCLib/src\xmc_ledts.c **** void XMC_LEDTS_StopCounter(XMC_LEDTS_t *const ledts)
 233:C:/Users/Yushev/git/optiga-trust-qi/projects/xmc4700_relax_kit/common/Libraries/XMCLib/src\xmc_ledts.c **** {
 280              	 .loc 1 233 0
 281              	 .cfi_startproc
 282              	 
 283              	 
 284              	 
 285              	.LVL23:
 234:C:/Users/Yushev/git/optiga-trust-qi/projects/xmc4700_relax_kit/common/Libraries/XMCLib/src\xmc_ledts.c ****   XMC_ASSERT("XMC_LEDTS_Stop_Counter:Wrong Module Pointer", XMC_LEDTS_CHECK_KERNEL_PTR(ledts));
 235:C:/Users/Yushev/git/optiga-trust-qi/projects/xmc4700_relax_kit/common/Libraries/XMCLib/src\xmc_ledts.c **** 
 236:C:/Users/Yushev/git/optiga-trust-qi/projects/xmc4700_relax_kit/common/Libraries/XMCLib/src\xmc_ledts.c ****   ledts->GLOBCTL &= 0x0000FFFF;
 286              	 .loc 1 236 0
 287 0000 4368     	 ldr r3,[r0,#4]
 288 0002 9BB2     	 uxth r3,r3
 289 0004 4360     	 str r3,[r0,#4]
 290 0006 7047     	 bx lr
 291              	 .cfi_endproc
 292              	.LFE176:
 294              	 .section .text.XMC_LEDTS_ReadInterruptFlag,"ax",%progbits
 295              	 .align 1
 296              	 .global XMC_LEDTS_ReadInterruptFlag
 297              	 .thumb
 298              	 .thumb_func
 300              	XMC_LEDTS_ReadInterruptFlag:
 301              	.LFB177:
 237:C:/Users/Yushev/git/optiga-trust-qi/projects/xmc4700_relax_kit/common/Libraries/XMCLib/src\xmc_ledts.c **** }
 238:C:/Users/Yushev/git/optiga-trust-qi/projects/xmc4700_relax_kit/common/Libraries/XMCLib/src\xmc_ledts.c **** 
 239:C:/Users/Yushev/git/optiga-trust-qi/projects/xmc4700_relax_kit/common/Libraries/XMCLib/src\xmc_ledts.c **** /**
 240:C:/Users/Yushev/git/optiga-trust-qi/projects/xmc4700_relax_kit/common/Libraries/XMCLib/src\xmc_ledts.c ****   * Reads time interrupt flags
 241:C:/Users/Yushev/git/optiga-trust-qi/projects/xmc4700_relax_kit/common/Libraries/XMCLib/src\xmc_ledts.c ****   */
 242:C:/Users/Yushev/git/optiga-trust-qi/projects/xmc4700_relax_kit/common/Libraries/XMCLib/src\xmc_ledts.c **** uint32_t XMC_LEDTS_ReadInterruptFlag(XMC_LEDTS_t *const ledts)
 243:C:/Users/Yushev/git/optiga-trust-qi/projects/xmc4700_relax_kit/common/Libraries/XMCLib/src\xmc_ledts.c **** {
 302              	 .loc 1 243 0
 303              	 .cfi_startproc
 304              	 
 305              	 
 306              	 
 307              	.LVL24:
 244:C:/Users/Yushev/git/optiga-trust-qi/projects/xmc4700_relax_kit/common/Libraries/XMCLib/src\xmc_ledts.c ****   XMC_ASSERT("XMC_LEDTS_ReadInterruptFlag:Wrong Module Pointer", XMC_LEDTS_CHECK_KERNEL_PTR(ledts))
 245:C:/Users/Yushev/git/optiga-trust-qi/projects/xmc4700_relax_kit/common/Libraries/XMCLib/src\xmc_ledts.c **** 
 246:C:/Users/Yushev/git/optiga-trust-qi/projects/xmc4700_relax_kit/common/Libraries/XMCLib/src\xmc_ledts.c ****   return (ledts->EVFR & 0xF);
 308              	 .loc 1 246 0
 309 0000 C068     	 ldr r0,[r0,#12]
 310              	.LVL25:
 247:C:/Users/Yushev/git/optiga-trust-qi/projects/xmc4700_relax_kit/common/Libraries/XMCLib/src\xmc_ledts.c **** }
 311              	 .loc 1 247 0
 312 0002 00F00F00 	 and r0,r0,#15
 313 0006 7047     	 bx lr
 314              	 .cfi_endproc
 315              	.LFE177:
 317              	 .section .text.XMC_LEDTS_SetActivePADNo,"ax",%progbits
 318              	 .align 1
 319              	 .global XMC_LEDTS_SetActivePADNo
 320              	 .thumb
 321              	 .thumb_func
 323              	XMC_LEDTS_SetActivePADNo:
 324              	.LFB178:
 248:C:/Users/Yushev/git/optiga-trust-qi/projects/xmc4700_relax_kit/common/Libraries/XMCLib/src\xmc_ledts.c **** 
 249:C:/Users/Yushev/git/optiga-trust-qi/projects/xmc4700_relax_kit/common/Libraries/XMCLib/src\xmc_ledts.c **** /**
 250:C:/Users/Yushev/git/optiga-trust-qi/projects/xmc4700_relax_kit/common/Libraries/XMCLib/src\xmc_ledts.c ****   * Set the active pad number
 251:C:/Users/Yushev/git/optiga-trust-qi/projects/xmc4700_relax_kit/common/Libraries/XMCLib/src\xmc_ledts.c ****   */
 252:C:/Users/Yushev/git/optiga-trust-qi/projects/xmc4700_relax_kit/common/Libraries/XMCLib/src\xmc_ledts.c **** void XMC_LEDTS_SetActivePADNo(XMC_LEDTS_t *const ledts, XMC_LEDTS_NUMBER_TS_INPUT_t pad_num)
 253:C:/Users/Yushev/git/optiga-trust-qi/projects/xmc4700_relax_kit/common/Libraries/XMCLib/src\xmc_ledts.c **** {
 325              	 .loc 1 253 0
 326              	 .cfi_startproc
 327              	 
 328              	 
 329              	 
 330              	.LVL26:
 254:C:/Users/Yushev/git/optiga-trust-qi/projects/xmc4700_relax_kit/common/Libraries/XMCLib/src\xmc_ledts.c ****   uint32_t reg;
 255:C:/Users/Yushev/git/optiga-trust-qi/projects/xmc4700_relax_kit/common/Libraries/XMCLib/src\xmc_ledts.c **** 
 256:C:/Users/Yushev/git/optiga-trust-qi/projects/xmc4700_relax_kit/common/Libraries/XMCLib/src\xmc_ledts.c ****   XMC_ASSERT("XMC_LEDTS_SetActivePADNo:Wrong Module Pointer", XMC_LEDTS_CHECK_KERNEL_PTR(ledts));
 257:C:/Users/Yushev/git/optiga-trust-qi/projects/xmc4700_relax_kit/common/Libraries/XMCLib/src\xmc_ledts.c **** 
 258:C:/Users/Yushev/git/optiga-trust-qi/projects/xmc4700_relax_kit/common/Libraries/XMCLib/src\xmc_ledts.c ****   reg = ledts->FNCTL;
 331              	 .loc 1 258 0
 332 0000 8368     	 ldr r3,[r0,#8]
 333              	.LVL27:
 259:C:/Users/Yushev/git/optiga-trust-qi/projects/xmc4700_relax_kit/common/Libraries/XMCLib/src\xmc_ledts.c ****   reg &= ~(LEDTS_FNCTL_PADT_Msk);
 334              	 .loc 1 259 0
 335 0002 23F00703 	 bic r3,r3,#7
 336              	.LVL28:
 260:C:/Users/Yushev/git/optiga-trust-qi/projects/xmc4700_relax_kit/common/Libraries/XMCLib/src\xmc_ledts.c ****   reg |= (uint32_t)pad_num;
 337              	 .loc 1 260 0
 338 0006 1943     	 orrs r1,r1,r3
 339              	.LVL29:
 261:C:/Users/Yushev/git/optiga-trust-qi/projects/xmc4700_relax_kit/common/Libraries/XMCLib/src\xmc_ledts.c ****   ledts->FNCTL = reg;
 340              	 .loc 1 261 0
 341 0008 8160     	 str r1,[r0,#8]
 342 000a 7047     	 bx lr
 343              	 .cfi_endproc
 344              	.LFE178:
 346              	 .section .text.XMC_LEDTS_ClearInterruptFlag,"ax",%progbits
 347              	 .align 1
 348              	 .global XMC_LEDTS_ClearInterruptFlag
 349              	 .thumb
 350              	 .thumb_func
 352              	XMC_LEDTS_ClearInterruptFlag:
 353              	.LFB179:
 262:C:/Users/Yushev/git/optiga-trust-qi/projects/xmc4700_relax_kit/common/Libraries/XMCLib/src\xmc_ledts.c **** }
 263:C:/Users/Yushev/git/optiga-trust-qi/projects/xmc4700_relax_kit/common/Libraries/XMCLib/src\xmc_ledts.c **** 
 264:C:/Users/Yushev/git/optiga-trust-qi/projects/xmc4700_relax_kit/common/Libraries/XMCLib/src\xmc_ledts.c **** /**
 265:C:/Users/Yushev/git/optiga-trust-qi/projects/xmc4700_relax_kit/common/Libraries/XMCLib/src\xmc_ledts.c ****   * Clears interrupt indication flags
 266:C:/Users/Yushev/git/optiga-trust-qi/projects/xmc4700_relax_kit/common/Libraries/XMCLib/src\xmc_ledts.c ****   */
 267:C:/Users/Yushev/git/optiga-trust-qi/projects/xmc4700_relax_kit/common/Libraries/XMCLib/src\xmc_ledts.c **** void XMC_LEDTS_ClearInterruptFlag(XMC_LEDTS_t *const ledts, uint32_t interrupt_mask)
 268:C:/Users/Yushev/git/optiga-trust-qi/projects/xmc4700_relax_kit/common/Libraries/XMCLib/src\xmc_ledts.c **** {
 354              	 .loc 1 268 0
 355              	 .cfi_startproc
 356              	 
 357              	 
 358              	 
 359              	.LVL30:
 269:C:/Users/Yushev/git/optiga-trust-qi/projects/xmc4700_relax_kit/common/Libraries/XMCLib/src\xmc_ledts.c ****   XMC_ASSERT("XMC_LEDTS_ClearInterruptFlag:Wrong Module Pointer", XMC_LEDTS_CHECK_KERNEL_PTR(ledts)
 270:C:/Users/Yushev/git/optiga-trust-qi/projects/xmc4700_relax_kit/common/Libraries/XMCLib/src\xmc_ledts.c **** 
 271:C:/Users/Yushev/git/optiga-trust-qi/projects/xmc4700_relax_kit/common/Libraries/XMCLib/src\xmc_ledts.c ****   ledts->EVFR = (interrupt_mask << LEDTS_EVFR_CTSF_Pos);
 360              	 .loc 1 271 0
 361 0000 0904     	 lsls r1,r1,#16
 362              	.LVL31:
 363 0002 C160     	 str r1,[r0,#12]
 364 0004 7047     	 bx lr
 365              	 .cfi_endproc
 366              	.LFE179:
 368              	 .section .text.XMC_LEDTS_SetLEDLinePattern,"ax",%progbits
 369              	 .align 1
 370              	 .global XMC_LEDTS_SetLEDLinePattern
 371              	 .thumb
 372              	 .thumb_func
 374              	XMC_LEDTS_SetLEDLinePattern:
 375              	.LFB180:
 272:C:/Users/Yushev/git/optiga-trust-qi/projects/xmc4700_relax_kit/common/Libraries/XMCLib/src\xmc_ledts.c **** }
 273:C:/Users/Yushev/git/optiga-trust-qi/projects/xmc4700_relax_kit/common/Libraries/XMCLib/src\xmc_ledts.c **** 
 274:C:/Users/Yushev/git/optiga-trust-qi/projects/xmc4700_relax_kit/common/Libraries/XMCLib/src\xmc_ledts.c **** /**
 275:C:/Users/Yushev/git/optiga-trust-qi/projects/xmc4700_relax_kit/common/Libraries/XMCLib/src\xmc_ledts.c ****   * Programming of registers to output pattern on an LED column in LED matrix
 276:C:/Users/Yushev/git/optiga-trust-qi/projects/xmc4700_relax_kit/common/Libraries/XMCLib/src\xmc_ledts.c ****   */
 277:C:/Users/Yushev/git/optiga-trust-qi/projects/xmc4700_relax_kit/common/Libraries/XMCLib/src\xmc_ledts.c **** void XMC_LEDTS_SetLEDLinePattern(XMC_LEDTS_t *const ledts, XMC_LEDTS_LED_COLUMN_t column, const uin
 278:C:/Users/Yushev/git/optiga-trust-qi/projects/xmc4700_relax_kit/common/Libraries/XMCLib/src\xmc_ledts.c **** {
 376              	 .loc 1 278 0
 377              	 .cfi_startproc
 378              	 
 379              	 
 380              	.LVL32:
 381 0000 01F0FC03 	 and r3,r1,#252
 382 0004 1844     	 add r0,r0,r3
 383              	.LVL33:
 384 0006 10B5     	 push {r4,lr}
 385              	.LCFI4:
 386              	 .cfi_def_cfa_offset 8
 387              	 .cfi_offset 4,-8
 388              	 .cfi_offset 14,-4
 279:C:/Users/Yushev/git/optiga-trust-qi/projects/xmc4700_relax_kit/common/Libraries/XMCLib/src\xmc_ledts.c ****   uint32_t reg;
 280:C:/Users/Yushev/git/optiga-trust-qi/projects/xmc4700_relax_kit/common/Libraries/XMCLib/src\xmc_ledts.c ****   uint8_t reg_index = ((uint8_t)column) >> 2;
 281:C:/Users/Yushev/git/optiga-trust-qi/projects/xmc4700_relax_kit/common/Libraries/XMCLib/src\xmc_ledts.c ****   uint8_t bit_shift_count = ((uint8_t)column & 0x03) * 8;
 389              	 .loc 1 281 0
 390 0008 01F00301 	 and r1,r1,#3
 391              	.LVL34:
 282:C:/Users/Yushev/git/optiga-trust-qi/projects/xmc4700_relax_kit/common/Libraries/XMCLib/src\xmc_ledts.c **** 
 283:C:/Users/Yushev/git/optiga-trust-qi/projects/xmc4700_relax_kit/common/Libraries/XMCLib/src\xmc_ledts.c ****   XMC_ASSERT("XMC_LEDTS_Set_LED_Line_Pattern:Wrong Module Pointer", XMC_LEDTS_CHECK_KERNEL_PTR(ledt
 284:C:/Users/Yushev/git/optiga-trust-qi/projects/xmc4700_relax_kit/common/Libraries/XMCLib/src\xmc_ledts.c **** 
 285:C:/Users/Yushev/git/optiga-trust-qi/projects/xmc4700_relax_kit/common/Libraries/XMCLib/src\xmc_ledts.c ****   reg = ledts->LINE[reg_index];
 392              	 .loc 1 285 0
 393 000c 4469     	 ldr r4,[r0,#20]
 394              	.LVL35:
 286:C:/Users/Yushev/git/optiga-trust-qi/projects/xmc4700_relax_kit/common/Libraries/XMCLib/src\xmc_ledts.c ****   reg &= (~(0xff << bit_shift_count));
 395              	 .loc 1 286 0
 396 000e C900     	 lsls r1,r1,#3
 397 0010 FF23     	 movs r3,#255
 398 0012 8B40     	 lsls r3,r3,r1
 399 0014 24EA0303 	 bic r3,r4,r3
 400              	.LVL36:
 287:C:/Users/Yushev/git/optiga-trust-qi/projects/xmc4700_relax_kit/common/Libraries/XMCLib/src\xmc_ledts.c ****   reg |= pattern << bit_shift_count;
 401              	 .loc 1 287 0
 402 0018 8A40     	 lsls r2,r2,r1
 403              	.LVL37:
 404 001a 1A43     	 orrs r2,r2,r3
 405              	.LVL38:
 288:C:/Users/Yushev/git/optiga-trust-qi/projects/xmc4700_relax_kit/common/Libraries/XMCLib/src\xmc_ledts.c ****   ledts->LINE[reg_index] = reg;
 406              	 .loc 1 288 0
 407 001c 4261     	 str r2,[r0,#20]
 408 001e 10BD     	 pop {r4,pc}
 409              	 .cfi_endproc
 410              	.LFE180:
 412              	 .section .text.XMC_LEDTS_SetColumnBrightness,"ax",%progbits
 413              	 .align 1
 414              	 .global XMC_LEDTS_SetColumnBrightness
 415              	 .thumb
 416              	 .thumb_func
 418              	XMC_LEDTS_SetColumnBrightness:
 419              	.LFB181:
 289:C:/Users/Yushev/git/optiga-trust-qi/projects/xmc4700_relax_kit/common/Libraries/XMCLib/src\xmc_ledts.c **** 
 290:C:/Users/Yushev/git/optiga-trust-qi/projects/xmc4700_relax_kit/common/Libraries/XMCLib/src\xmc_ledts.c **** }
 291:C:/Users/Yushev/git/optiga-trust-qi/projects/xmc4700_relax_kit/common/Libraries/XMCLib/src\xmc_ledts.c **** 
 292:C:/Users/Yushev/git/optiga-trust-qi/projects/xmc4700_relax_kit/common/Libraries/XMCLib/src\xmc_ledts.c **** /**
 293:C:/Users/Yushev/git/optiga-trust-qi/projects/xmc4700_relax_kit/common/Libraries/XMCLib/src\xmc_ledts.c ****   * Programming of registers to adjust brightness of an LED column in LED matrix
 294:C:/Users/Yushev/git/optiga-trust-qi/projects/xmc4700_relax_kit/common/Libraries/XMCLib/src\xmc_ledts.c ****   */
 295:C:/Users/Yushev/git/optiga-trust-qi/projects/xmc4700_relax_kit/common/Libraries/XMCLib/src\xmc_ledts.c **** void XMC_LEDTS_SetColumnBrightness(XMC_LEDTS_t *const ledts, XMC_LEDTS_LED_COLUMN_t column, const u
 296:C:/Users/Yushev/git/optiga-trust-qi/projects/xmc4700_relax_kit/common/Libraries/XMCLib/src\xmc_ledts.c **** {
 420              	 .loc 1 296 0
 421              	 .cfi_startproc
 422              	 
 423              	 
 424              	.LVL39:
 425 0000 01F0FC03 	 and r3,r1,#252
 426 0004 1844     	 add r0,r0,r3
 427              	.LVL40:
 428 0006 10B5     	 push {r4,lr}
 429              	.LCFI5:
 430              	 .cfi_def_cfa_offset 8
 431              	 .cfi_offset 4,-8
 432              	 .cfi_offset 14,-4
 297:C:/Users/Yushev/git/optiga-trust-qi/projects/xmc4700_relax_kit/common/Libraries/XMCLib/src\xmc_ledts.c ****   uint32_t reg;
 298:C:/Users/Yushev/git/optiga-trust-qi/projects/xmc4700_relax_kit/common/Libraries/XMCLib/src\xmc_ledts.c ****   uint8_t reg_index = ((uint8_t)column) >> 2;
 299:C:/Users/Yushev/git/optiga-trust-qi/projects/xmc4700_relax_kit/common/Libraries/XMCLib/src\xmc_ledts.c ****   uint8_t bit_shift_count = ((uint8_t)column & 0x03) * 8;
 433              	 .loc 1 299 0
 434 0008 01F00301 	 and r1,r1,#3
 435              	.LVL41:
 300:C:/Users/Yushev/git/optiga-trust-qi/projects/xmc4700_relax_kit/common/Libraries/XMCLib/src\xmc_ledts.c **** 
 301:C:/Users/Yushev/git/optiga-trust-qi/projects/xmc4700_relax_kit/common/Libraries/XMCLib/src\xmc_ledts.c ****   XMC_ASSERT("XMC_LEDTS_Set_Column_Brightness:Wrong Module Pointer", XMC_LEDTS_CHECK_KERNEL_PTR(led
 302:C:/Users/Yushev/git/optiga-trust-qi/projects/xmc4700_relax_kit/common/Libraries/XMCLib/src\xmc_ledts.c **** 
 303:C:/Users/Yushev/git/optiga-trust-qi/projects/xmc4700_relax_kit/common/Libraries/XMCLib/src\xmc_ledts.c **** 	reg = ledts->LDCMP[reg_index];
 436              	 .loc 1 303 0
 437 000c C469     	 ldr r4,[r0,#28]
 438              	.LVL42:
 304:C:/Users/Yushev/git/optiga-trust-qi/projects/xmc4700_relax_kit/common/Libraries/XMCLib/src\xmc_ledts.c **** 	reg &= (~(0xff << bit_shift_count));
 439              	 .loc 1 304 0
 440 000e C900     	 lsls r1,r1,#3
 441 0010 FF23     	 movs r3,#255
 442 0012 8B40     	 lsls r3,r3,r1
 443 0014 24EA0303 	 bic r3,r4,r3
 444              	.LVL43:
 305:C:/Users/Yushev/git/optiga-trust-qi/projects/xmc4700_relax_kit/common/Libraries/XMCLib/src\xmc_ledts.c **** 	reg |= brightness << bit_shift_count;
 445              	 .loc 1 305 0
 446 0018 8A40     	 lsls r2,r2,r1
 447              	.LVL44:
 448 001a 1A43     	 orrs r2,r2,r3
 449              	.LVL45:
 306:C:/Users/Yushev/git/optiga-trust-qi/projects/xmc4700_relax_kit/common/Libraries/XMCLib/src\xmc_ledts.c **** 	ledts->LDCMP[reg_index] = reg;
 450              	 .loc 1 306 0
 451 001c C261     	 str r2,[r0,#28]
 452 001e 10BD     	 pop {r4,pc}
 453              	 .cfi_endproc
 454              	.LFE181:
 456              	 .section .text.XMC_LEDTS_SetCommonOscillationWindow,"ax",%progbits
 457              	 .align 1
 458              	 .global XMC_LEDTS_SetCommonOscillationWindow
 459              	 .thumb
 460              	 .thumb_func
 462              	XMC_LEDTS_SetCommonOscillationWindow:
 463              	.LFB182:
 307:C:/Users/Yushev/git/optiga-trust-qi/projects/xmc4700_relax_kit/common/Libraries/XMCLib/src\xmc_ledts.c **** }
 308:C:/Users/Yushev/git/optiga-trust-qi/projects/xmc4700_relax_kit/common/Libraries/XMCLib/src\xmc_ledts.c **** 
 309:C:/Users/Yushev/git/optiga-trust-qi/projects/xmc4700_relax_kit/common/Libraries/XMCLib/src\xmc_ledts.c **** /**
 310:C:/Users/Yushev/git/optiga-trust-qi/projects/xmc4700_relax_kit/common/Libraries/XMCLib/src\xmc_ledts.c ****   * Programming of registers to set common oscillation window size for touch-sense inputs
 311:C:/Users/Yushev/git/optiga-trust-qi/projects/xmc4700_relax_kit/common/Libraries/XMCLib/src\xmc_ledts.c ****   */
 312:C:/Users/Yushev/git/optiga-trust-qi/projects/xmc4700_relax_kit/common/Libraries/XMCLib/src\xmc_ledts.c **** void XMC_LEDTS_SetCommonOscillationWindow(XMC_LEDTS_t *const ledts, const uint8_t common_size)
 313:C:/Users/Yushev/git/optiga-trust-qi/projects/xmc4700_relax_kit/common/Libraries/XMCLib/src\xmc_ledts.c **** {
 464              	 .loc 1 313 0
 465              	 .cfi_startproc
 466              	 
 467              	 
 468              	 
 469              	.LVL46:
 314:C:/Users/Yushev/git/optiga-trust-qi/projects/xmc4700_relax_kit/common/Libraries/XMCLib/src\xmc_ledts.c ****   uint32_t reg;
 315:C:/Users/Yushev/git/optiga-trust-qi/projects/xmc4700_relax_kit/common/Libraries/XMCLib/src\xmc_ledts.c **** 
 316:C:/Users/Yushev/git/optiga-trust-qi/projects/xmc4700_relax_kit/common/Libraries/XMCLib/src\xmc_ledts.c ****   XMC_ASSERT("XMC_LEDTS_Set_Common_Oscillation_Window:Wrong Module Pointer", XMC_LEDTS_CHECK_KERNEL
 317:C:/Users/Yushev/git/optiga-trust-qi/projects/xmc4700_relax_kit/common/Libraries/XMCLib/src\xmc_ledts.c **** 
 318:C:/Users/Yushev/git/optiga-trust-qi/projects/xmc4700_relax_kit/common/Libraries/XMCLib/src\xmc_ledts.c ****   reg = ledts->LDCMP[1];
 470              	 .loc 1 318 0
 471 0000 036A     	 ldr r3,[r0,#32]
 472              	.LVL47:
 319:C:/Users/Yushev/git/optiga-trust-qi/projects/xmc4700_relax_kit/common/Libraries/XMCLib/src\xmc_ledts.c ****   reg &= ~LEDTS_LDCMP1_CMP_LDA_TSCOM_Msk;
 473              	 .loc 1 319 0
 474 0002 23F07F43 	 bic r3,r3,#-16777216
 475              	.LVL48:
 320:C:/Users/Yushev/git/optiga-trust-qi/projects/xmc4700_relax_kit/common/Libraries/XMCLib/src\xmc_ledts.c ****   reg |= (common_size << LEDTS_LDCMP1_CMP_LDA_TSCOM_Pos);
 476              	 .loc 1 320 0
 477 0006 43EA0161 	 orr r1,r3,r1,lsl#24
 478              	.LVL49:
 321:C:/Users/Yushev/git/optiga-trust-qi/projects/xmc4700_relax_kit/common/Libraries/XMCLib/src\xmc_ledts.c ****   ledts->LDCMP[1] = reg;
 479              	 .loc 1 321 0
 480 000a 0162     	 str r1,[r0,#32]
 481 000c 7047     	 bx lr
 482              	 .cfi_endproc
 483              	.LFE182:
 485              	 .section .text.XMC_LEDTS_ReadFNCOL,"ax",%progbits
 486              	 .align 1
 487              	 .global XMC_LEDTS_ReadFNCOL
 488              	 .thumb
 489              	 .thumb_func
 491              	XMC_LEDTS_ReadFNCOL:
 492              	.LFB183:
 322:C:/Users/Yushev/git/optiga-trust-qi/projects/xmc4700_relax_kit/common/Libraries/XMCLib/src\xmc_ledts.c **** }
 323:C:/Users/Yushev/git/optiga-trust-qi/projects/xmc4700_relax_kit/common/Libraries/XMCLib/src\xmc_ledts.c **** 
 324:C:/Users/Yushev/git/optiga-trust-qi/projects/xmc4700_relax_kit/common/Libraries/XMCLib/src\xmc_ledts.c **** /**
 325:C:/Users/Yushev/git/optiga-trust-qi/projects/xmc4700_relax_kit/common/Libraries/XMCLib/src\xmc_ledts.c ****   * Checking the previous active function or LED column status
 326:C:/Users/Yushev/git/optiga-trust-qi/projects/xmc4700_relax_kit/common/Libraries/XMCLib/src\xmc_ledts.c ****   */
 327:C:/Users/Yushev/git/optiga-trust-qi/projects/xmc4700_relax_kit/common/Libraries/XMCLib/src\xmc_ledts.c **** uint32_t XMC_LEDTS_ReadFNCOL(XMC_LEDTS_t *const ledts)
 328:C:/Users/Yushev/git/optiga-trust-qi/projects/xmc4700_relax_kit/common/Libraries/XMCLib/src\xmc_ledts.c **** {
 493              	 .loc 1 328 0
 494              	 .cfi_startproc
 495              	 
 496              	 
 497              	 
 498              	.LVL50:
 329:C:/Users/Yushev/git/optiga-trust-qi/projects/xmc4700_relax_kit/common/Libraries/XMCLib/src\xmc_ledts.c ****   uint32_t fncol_read;
 330:C:/Users/Yushev/git/optiga-trust-qi/projects/xmc4700_relax_kit/common/Libraries/XMCLib/src\xmc_ledts.c **** 
 331:C:/Users/Yushev/git/optiga-trust-qi/projects/xmc4700_relax_kit/common/Libraries/XMCLib/src\xmc_ledts.c ****   XMC_ASSERT("XMC_LEDTS_Read_FNCOL:Wrong Module Pointer", XMC_LEDTS_CHECK_KERNEL_PTR(ledts));
 332:C:/Users/Yushev/git/optiga-trust-qi/projects/xmc4700_relax_kit/common/Libraries/XMCLib/src\xmc_ledts.c **** 
 333:C:/Users/Yushev/git/optiga-trust-qi/projects/xmc4700_relax_kit/common/Libraries/XMCLib/src\xmc_ledts.c ****   fncol_read = ledts->FNCTL & LEDTS_FNCTL_FNCOL_Msk;
 499              	 .loc 1 333 0
 500 0000 8068     	 ldr r0,[r0,#8]
 501              	.LVL51:
 334:C:/Users/Yushev/git/optiga-trust-qi/projects/xmc4700_relax_kit/common/Libraries/XMCLib/src\xmc_ledts.c ****   fncol_read >>= LEDTS_FNCTL_FNCOL_Pos;
 335:C:/Users/Yushev/git/optiga-trust-qi/projects/xmc4700_relax_kit/common/Libraries/XMCLib/src\xmc_ledts.c **** 
 336:C:/Users/Yushev/git/optiga-trust-qi/projects/xmc4700_relax_kit/common/Libraries/XMCLib/src\xmc_ledts.c ****   return fncol_read;
 337:C:/Users/Yushev/git/optiga-trust-qi/projects/xmc4700_relax_kit/common/Libraries/XMCLib/src\xmc_ledts.c **** }
 502              	 .loc 1 337 0
 503 0002 C0F34210 	 ubfx r0,r0,#5,#3
 504              	.LVL52:
 505 0006 7047     	 bx lr
 506              	 .cfi_endproc
 507              	.LFE183:
 509              	 .section .text.XMC_LEDTS_SetNumOfLEDColumns,"ax",%progbits
 510              	 .align 1
 511              	 .global XMC_LEDTS_SetNumOfLEDColumns
 512              	 .thumb
 513              	 .thumb_func
 515              	XMC_LEDTS_SetNumOfLEDColumns:
 516              	.LFB184:
 338:C:/Users/Yushev/git/optiga-trust-qi/projects/xmc4700_relax_kit/common/Libraries/XMCLib/src\xmc_ledts.c **** 
 339:C:/Users/Yushev/git/optiga-trust-qi/projects/xmc4700_relax_kit/common/Libraries/XMCLib/src\xmc_ledts.c **** /**
 340:C:/Users/Yushev/git/optiga-trust-qi/projects/xmc4700_relax_kit/common/Libraries/XMCLib/src\xmc_ledts.c ****   * Set the number of LED column Enabled
 341:C:/Users/Yushev/git/optiga-trust-qi/projects/xmc4700_relax_kit/common/Libraries/XMCLib/src\xmc_ledts.c ****   */
 342:C:/Users/Yushev/git/optiga-trust-qi/projects/xmc4700_relax_kit/common/Libraries/XMCLib/src\xmc_ledts.c **** void XMC_LEDTS_SetNumOfLEDColumns(XMC_LEDTS_t *const ledts, uint8_t count)
 343:C:/Users/Yushev/git/optiga-trust-qi/projects/xmc4700_relax_kit/common/Libraries/XMCLib/src\xmc_ledts.c **** {
 517              	 .loc 1 343 0
 518              	 .cfi_startproc
 519              	 
 520              	 
 521              	 
 522              	.LVL53:
 344:C:/Users/Yushev/git/optiga-trust-qi/projects/xmc4700_relax_kit/common/Libraries/XMCLib/src\xmc_ledts.c **** 
 345:C:/Users/Yushev/git/optiga-trust-qi/projects/xmc4700_relax_kit/common/Libraries/XMCLib/src\xmc_ledts.c ****   XMC_ASSERT("XMC_LEDTS_SetNumOfLEDColumns:Wrong Module Pointer", XMC_LEDTS_CHECK_KERNEL_PTR(ledts)
 346:C:/Users/Yushev/git/optiga-trust-qi/projects/xmc4700_relax_kit/common/Libraries/XMCLib/src\xmc_ledts.c **** 
 347:C:/Users/Yushev/git/optiga-trust-qi/projects/xmc4700_relax_kit/common/Libraries/XMCLib/src\xmc_ledts.c ****   ledts->FNCTL &= ~(LEDTS_FNCTL_NR_LEDCOL_Msk);
 523              	 .loc 1 347 0
 524 0000 8368     	 ldr r3,[r0,#8]
 525 0002 23F06043 	 bic r3,r3,#-536870912
 526 0006 8360     	 str r3,[r0,#8]
 348:C:/Users/Yushev/git/optiga-trust-qi/projects/xmc4700_relax_kit/common/Libraries/XMCLib/src\xmc_ledts.c ****   ledts->FNCTL |= (count << LEDTS_FNCTL_NR_LEDCOL_Pos);
 527              	 .loc 1 348 0
 528 0008 8368     	 ldr r3,[r0,#8]
 529 000a 43EA4171 	 orr r1,r3,r1,lsl#29
 530              	.LVL54:
 531 000e 8160     	 str r1,[r0,#8]
 532 0010 7047     	 bx lr
 533              	 .cfi_endproc
 534              	.LFE184:
 536              	 .section .text.XMC_LEDTS_ReadTSVAL,"ax",%progbits
 537              	 .align 1
 538              	 .global XMC_LEDTS_ReadTSVAL
 539              	 .thumb
 540              	 .thumb_func
 542              	XMC_LEDTS_ReadTSVAL:
 543              	.LFB185:
 349:C:/Users/Yushev/git/optiga-trust-qi/projects/xmc4700_relax_kit/common/Libraries/XMCLib/src\xmc_ledts.c **** }
 350:C:/Users/Yushev/git/optiga-trust-qi/projects/xmc4700_relax_kit/common/Libraries/XMCLib/src\xmc_ledts.c **** 
 351:C:/Users/Yushev/git/optiga-trust-qi/projects/xmc4700_relax_kit/common/Libraries/XMCLib/src\xmc_ledts.c **** /**
 352:C:/Users/Yushev/git/optiga-trust-qi/projects/xmc4700_relax_kit/common/Libraries/XMCLib/src\xmc_ledts.c ****   * Reading recorded number of oscillation counts
 353:C:/Users/Yushev/git/optiga-trust-qi/projects/xmc4700_relax_kit/common/Libraries/XMCLib/src\xmc_ledts.c ****   */
 354:C:/Users/Yushev/git/optiga-trust-qi/projects/xmc4700_relax_kit/common/Libraries/XMCLib/src\xmc_ledts.c **** uint16_t XMC_LEDTS_ReadTSVAL(XMC_LEDTS_t *const ledts)
 355:C:/Users/Yushev/git/optiga-trust-qi/projects/xmc4700_relax_kit/common/Libraries/XMCLib/src\xmc_ledts.c **** {
 544              	 .loc 1 355 0
 545              	 .cfi_startproc
 546              	 
 547              	 
 548              	 
 549              	.LVL55:
 356:C:/Users/Yushev/git/optiga-trust-qi/projects/xmc4700_relax_kit/common/Libraries/XMCLib/src\xmc_ledts.c ****   uint16_t no_of_oscillations;
 357:C:/Users/Yushev/git/optiga-trust-qi/projects/xmc4700_relax_kit/common/Libraries/XMCLib/src\xmc_ledts.c **** 
 358:C:/Users/Yushev/git/optiga-trust-qi/projects/xmc4700_relax_kit/common/Libraries/XMCLib/src\xmc_ledts.c ****   XMC_ASSERT("XMC_LEDTS_Read_TSVAL:Wrong Module Pointer", XMC_LEDTS_CHECK_KERNEL_PTR(ledts));
 359:C:/Users/Yushev/git/optiga-trust-qi/projects/xmc4700_relax_kit/common/Libraries/XMCLib/src\xmc_ledts.c **** 
 360:C:/Users/Yushev/git/optiga-trust-qi/projects/xmc4700_relax_kit/common/Libraries/XMCLib/src\xmc_ledts.c ****   no_of_oscillations = (ledts->TSVAL & 0xFFFF);
 550              	 .loc 1 360 0
 551 0000 0069     	 ldr r0,[r0,#16]
 552              	.LVL56:
 361:C:/Users/Yushev/git/optiga-trust-qi/projects/xmc4700_relax_kit/common/Libraries/XMCLib/src\xmc_ledts.c **** 
 362:C:/Users/Yushev/git/optiga-trust-qi/projects/xmc4700_relax_kit/common/Libraries/XMCLib/src\xmc_ledts.c ****   return no_of_oscillations;
 363:C:/Users/Yushev/git/optiga-trust-qi/projects/xmc4700_relax_kit/common/Libraries/XMCLib/src\xmc_ledts.c **** }
 553              	 .loc 1 363 0
 554 0002 80B2     	 uxth r0,r0
 555 0004 7047     	 bx lr
 556              	 .cfi_endproc
 557              	.LFE185:
 559              	 .section .text.XMC_LEDTS_SetOscillationWindow,"ax",%progbits
 560              	 .align 1
 561              	 .global XMC_LEDTS_SetOscillationWindow
 562              	 .thumb
 563              	 .thumb_func
 565              	XMC_LEDTS_SetOscillationWindow:
 566              	.LFB186:
 364:C:/Users/Yushev/git/optiga-trust-qi/projects/xmc4700_relax_kit/common/Libraries/XMCLib/src\xmc_ledts.c **** 
 365:C:/Users/Yushev/git/optiga-trust-qi/projects/xmc4700_relax_kit/common/Libraries/XMCLib/src\xmc_ledts.c **** /**
 366:C:/Users/Yushev/git/optiga-trust-qi/projects/xmc4700_relax_kit/common/Libraries/XMCLib/src\xmc_ledts.c ****   * Programming of registers to adjust the size of oscillation window
 367:C:/Users/Yushev/git/optiga-trust-qi/projects/xmc4700_relax_kit/common/Libraries/XMCLib/src\xmc_ledts.c ****   */
 368:C:/Users/Yushev/git/optiga-trust-qi/projects/xmc4700_relax_kit/common/Libraries/XMCLib/src\xmc_ledts.c **** void XMC_LEDTS_SetOscillationWindow(XMC_LEDTS_t *const ledts, XMC_LEDTS_NUMBER_TS_INPUT_t touchpad,
 369:C:/Users/Yushev/git/optiga-trust-qi/projects/xmc4700_relax_kit/common/Libraries/XMCLib/src\xmc_ledts.c **** {
 567              	 .loc 1 369 0
 568              	 .cfi_startproc
 569              	 
 570              	 
 571              	.LVL57:
 572 0000 01F0FC03 	 and r3,r1,#252
 573 0004 1844     	 add r0,r0,r3
 574              	.LVL58:
 575 0006 10B5     	 push {r4,lr}
 576              	.LCFI6:
 577              	 .cfi_def_cfa_offset 8
 578              	 .cfi_offset 4,-8
 579              	 .cfi_offset 14,-4
 370:C:/Users/Yushev/git/optiga-trust-qi/projects/xmc4700_relax_kit/common/Libraries/XMCLib/src\xmc_ledts.c ****   uint32_t reg;
 371:C:/Users/Yushev/git/optiga-trust-qi/projects/xmc4700_relax_kit/common/Libraries/XMCLib/src\xmc_ledts.c ****   uint8_t reg_index = ((uint8_t)touchpad) >> 2;
 372:C:/Users/Yushev/git/optiga-trust-qi/projects/xmc4700_relax_kit/common/Libraries/XMCLib/src\xmc_ledts.c ****   uint8_t bit_shift_count = ((uint8_t)touchpad & 0x03) * 8;
 580              	 .loc 1 372 0
 581 0008 01F00301 	 and r1,r1,#3
 582              	.LVL59:
 373:C:/Users/Yushev/git/optiga-trust-qi/projects/xmc4700_relax_kit/common/Libraries/XMCLib/src\xmc_ledts.c **** 
 374:C:/Users/Yushev/git/optiga-trust-qi/projects/xmc4700_relax_kit/common/Libraries/XMCLib/src\xmc_ledts.c ****   XMC_ASSERT("XMC_LEDTS_Set_Oscillation_Window:Wrong Module Pointer", XMC_LEDTS_CHECK_KERNEL_PTR(le
 375:C:/Users/Yushev/git/optiga-trust-qi/projects/xmc4700_relax_kit/common/Libraries/XMCLib/src\xmc_ledts.c **** 
 376:C:/Users/Yushev/git/optiga-trust-qi/projects/xmc4700_relax_kit/common/Libraries/XMCLib/src\xmc_ledts.c **** 	reg = ledts->TSCMP[reg_index];
 583              	 .loc 1 376 0
 584 000c 446A     	 ldr r4,[r0,#36]
 585              	.LVL60:
 377:C:/Users/Yushev/git/optiga-trust-qi/projects/xmc4700_relax_kit/common/Libraries/XMCLib/src\xmc_ledts.c **** 	reg &= (~(0xff << bit_shift_count));
 586              	 .loc 1 377 0
 587 000e C900     	 lsls r1,r1,#3
 588 0010 FF23     	 movs r3,#255
 589 0012 8B40     	 lsls r3,r3,r1
 590 0014 24EA0303 	 bic r3,r4,r3
 591              	.LVL61:
 378:C:/Users/Yushev/git/optiga-trust-qi/projects/xmc4700_relax_kit/common/Libraries/XMCLib/src\xmc_ledts.c **** 	reg |= size << bit_shift_count;
 592              	 .loc 1 378 0
 593 0018 8A40     	 lsls r2,r2,r1
 594              	.LVL62:
 595 001a 1A43     	 orrs r2,r2,r3
 596              	.LVL63:
 379:C:/Users/Yushev/git/optiga-trust-qi/projects/xmc4700_relax_kit/common/Libraries/XMCLib/src\xmc_ledts.c **** 	ledts->TSCMP[reg_index] = reg;
 597              	 .loc 1 379 0
 598 001c 4262     	 str r2,[r0,#36]
 599 001e 10BD     	 pop {r4,pc}
 600              	 .cfi_endproc
 601              	.LFE186:
 603              	 .text
 604              	.Letext0:
 605              	 .file 2 "c:\\users\\yushev\\dave_4-4-2_32bit_2018-02-23\\dave-ide-4.4.2-32bit\\eclipse\\arm-gcc-49\\arm-none-eabi\\include\\machine\\_default_types.h"
 606              	 .file 3 "c:\\users\\yushev\\dave_4-4-2_32bit_2018-02-23\\dave-ide-4.4.2-32bit\\eclipse\\arm-gcc-49\\arm-none-eabi\\include\\stdint.h"
 607              	 .file 4 "C:/Users/Yushev/git/optiga-trust-qi/projects/xmc4700_relax_kit/common/Libraries/CMSIS/Infineon/XMC4700_series/Include/XMC4700.h"
 608              	 .file 5 "C:/Users/Yushev/git/optiga-trust-qi/projects/xmc4700_relax_kit/common/Libraries/XMCLib/inc/xmc4_scu.h"
 609              	 .file 6 "C:/Users/Yushev/git/optiga-trust-qi/projects/xmc4700_relax_kit/common/Libraries/XMCLib/inc/xmc_ledts.h"
 610              	 .file 7 "C:/Users/Yushev/git/optiga-trust-qi/projects/xmc4700_relax_kit/common/Libraries/CMSIS/Include/core_cm4.h"
 611              	 .file 8 "C:/Users/Yushev/git/optiga-trust-qi/projects/xmc4700_relax_kit/common/Libraries/CMSIS/Infineon/XMC4700_series/Include/system_XMC4700.h"
 612              	 .file 9 "C:/Users/Yushev/git/optiga-trust-qi/projects/xmc4700_relax_kit/common/Libraries/XMCLib/inc/xmc_scu.h"