   1              	 .syntax unified
   2              	 .cpu cortex-m4
   3              	 .eabi_attribute 27,3
   4              	 .fpu fpv4-sp-d16
   5              	 .eabi_attribute 20,1
   6              	 .eabi_attribute 21,1
   7              	 .eabi_attribute 23,3
   8              	 .eabi_attribute 24,1
   9              	 .eabi_attribute 25,1
  10              	 .eabi_attribute 26,1
  11              	 .eabi_attribute 30,4
  12              	 .eabi_attribute 34,1
  13              	 .eabi_attribute 18,4
  14              	 .thumb
  15              	 .file "DAVE.c"
  16              	 .text
  17              	.Ltext0:
  18              	 .cfi_sections .debug_frame
  19              	 .section .text.DAVE_Init,"ax",%progbits
  20              	 .align 1
  21              	 .global DAVE_Init
  22              	 .thumb
  23              	 .thumb_func
  25              	DAVE_Init:
  26              	.LFB387:
  27              	 .file 1 "C:/Users/Yushev/git/optiga-trust-qi/projects/xmc4700_relax_kit/common/Dave/Generated/DAVE.c"
   1:C:/Users/Yushev/git/optiga-trust-qi/projects/xmc4700_relax_kit/common/Dave/Generated\DAVE.c **** 
   2:C:/Users/Yushev/git/optiga-trust-qi/projects/xmc4700_relax_kit/common/Dave/Generated\DAVE.c **** /**
   3:C:/Users/Yushev/git/optiga-trust-qi/projects/xmc4700_relax_kit/common/Dave/Generated\DAVE.c ****  * @cond
   4:C:/Users/Yushev/git/optiga-trust-qi/projects/xmc4700_relax_kit/common/Dave/Generated\DAVE.c ****  **************************************************************************************************
   5:C:/Users/Yushev/git/optiga-trust-qi/projects/xmc4700_relax_kit/common/Dave/Generated\DAVE.c ****  *
   6:C:/Users/Yushev/git/optiga-trust-qi/projects/xmc4700_relax_kit/common/Dave/Generated\DAVE.c ****  * Copyright (c) 2015-2018, Infineon Technologies AG
   7:C:/Users/Yushev/git/optiga-trust-qi/projects/xmc4700_relax_kit/common/Dave/Generated\DAVE.c ****  * All rights reserved.
   8:C:/Users/Yushev/git/optiga-trust-qi/projects/xmc4700_relax_kit/common/Dave/Generated\DAVE.c ****  *
   9:C:/Users/Yushev/git/optiga-trust-qi/projects/xmc4700_relax_kit/common/Dave/Generated\DAVE.c ****  * Redistribution and use in source and binary forms, with or without modification,are permitted pr
  10:C:/Users/Yushev/git/optiga-trust-qi/projects/xmc4700_relax_kit/common/Dave/Generated\DAVE.c ****  * following conditions are met:
  11:C:/Users/Yushev/git/optiga-trust-qi/projects/xmc4700_relax_kit/common/Dave/Generated\DAVE.c ****  *
  12:C:/Users/Yushev/git/optiga-trust-qi/projects/xmc4700_relax_kit/common/Dave/Generated\DAVE.c ****  *   Redistributions of source code must retain the above copyright notice, this list of conditions
  13:C:/Users/Yushev/git/optiga-trust-qi/projects/xmc4700_relax_kit/common/Dave/Generated\DAVE.c ****  *   disclaimer.
  14:C:/Users/Yushev/git/optiga-trust-qi/projects/xmc4700_relax_kit/common/Dave/Generated\DAVE.c ****  *
  15:C:/Users/Yushev/git/optiga-trust-qi/projects/xmc4700_relax_kit/common/Dave/Generated\DAVE.c ****  *   Redistributions in binary form must reproduce the above copyright notice, this list of conditi
  16:C:/Users/Yushev/git/optiga-trust-qi/projects/xmc4700_relax_kit/common/Dave/Generated\DAVE.c ****  *   following disclaimer in the documentation and/or other materials provided with the distributio
  17:C:/Users/Yushev/git/optiga-trust-qi/projects/xmc4700_relax_kit/common/Dave/Generated\DAVE.c ****  *
  18:C:/Users/Yushev/git/optiga-trust-qi/projects/xmc4700_relax_kit/common/Dave/Generated\DAVE.c ****  *   Neither the name of the copyright holders nor the names of its contributors may be used to end
  19:C:/Users/Yushev/git/optiga-trust-qi/projects/xmc4700_relax_kit/common/Dave/Generated\DAVE.c ****  *   products derived from this software without specific prior written permission.
  20:C:/Users/Yushev/git/optiga-trust-qi/projects/xmc4700_relax_kit/common/Dave/Generated\DAVE.c ****  *
  21:C:/Users/Yushev/git/optiga-trust-qi/projects/xmc4700_relax_kit/common/Dave/Generated\DAVE.c ****  * THIS SOFTWARE IS PROVIDED BY THE COPYRIGHT HOLDERS AND CONTRIBUTORS "AS IS" AND ANY EXPRESS OR I
  22:C:/Users/Yushev/git/optiga-trust-qi/projects/xmc4700_relax_kit/common/Dave/Generated\DAVE.c ****  * INCLUDING, BUT NOT LIMITED TO, THE IMPLIED WARRANTIES OF MERCHANTABILITY AND FITNESS FOR A PARTI
  23:C:/Users/Yushev/git/optiga-trust-qi/projects/xmc4700_relax_kit/common/Dave/Generated\DAVE.c ****  * DISCLAIMED. IN NO EVENT SHALL THE COPYRIGHT HOLDER OR CONTRIBUTORS BE LIABLE  FOR ANY DIRECT, IN
  24:C:/Users/Yushev/git/optiga-trust-qi/projects/xmc4700_relax_kit/common/Dave/Generated\DAVE.c ****  * SPECIAL, EXEMPLARY, OR CONSEQUENTIAL DAMAGES (INCLUDING, BUT NOT LIMITED TO, PROCUREMENT OF SUBS
  25:C:/Users/Yushev/git/optiga-trust-qi/projects/xmc4700_relax_kit/common/Dave/Generated\DAVE.c ****  * SERVICES; LOSS OF USE, DATA, OR PROFITS; OR BUSINESS INTERRUPTION) HOWEVER CAUSED AND ON ANY THE
  26:C:/Users/Yushev/git/optiga-trust-qi/projects/xmc4700_relax_kit/common/Dave/Generated\DAVE.c ****  * WHETHER IN CONTRACT, STRICT LIABILITY,OR TORT (INCLUDING NEGLIGENCE OR OTHERWISE) ARISING IN ANY
  27:C:/Users/Yushev/git/optiga-trust-qi/projects/xmc4700_relax_kit/common/Dave/Generated\DAVE.c ****  * USE OF THIS SOFTWARE, EVEN IF ADVISED OF THE POSSIBILITY OF SUCH DAMAGE.
  28:C:/Users/Yushev/git/optiga-trust-qi/projects/xmc4700_relax_kit/common/Dave/Generated\DAVE.c ****  *
  29:C:/Users/Yushev/git/optiga-trust-qi/projects/xmc4700_relax_kit/common/Dave/Generated\DAVE.c ****  * To improve the quality of the software, users are encouraged to share modifications, enhancement
  30:C:/Users/Yushev/git/optiga-trust-qi/projects/xmc4700_relax_kit/common/Dave/Generated\DAVE.c ****  * with Infineon Technologies AG (dave@infineon.com).
  31:C:/Users/Yushev/git/optiga-trust-qi/projects/xmc4700_relax_kit/common/Dave/Generated\DAVE.c ****  **************************************************************************************************
  32:C:/Users/Yushev/git/optiga-trust-qi/projects/xmc4700_relax_kit/common/Dave/Generated\DAVE.c ****  *
  33:C:/Users/Yushev/git/optiga-trust-qi/projects/xmc4700_relax_kit/common/Dave/Generated\DAVE.c ****  * Change History
  34:C:/Users/Yushev/git/optiga-trust-qi/projects/xmc4700_relax_kit/common/Dave/Generated\DAVE.c ****  * --------------
  35:C:/Users/Yushev/git/optiga-trust-qi/projects/xmc4700_relax_kit/common/Dave/Generated\DAVE.c ****  *
  36:C:/Users/Yushev/git/optiga-trust-qi/projects/xmc4700_relax_kit/common/Dave/Generated\DAVE.c ****  * 2014-06-16:
  37:C:/Users/Yushev/git/optiga-trust-qi/projects/xmc4700_relax_kit/common/Dave/Generated\DAVE.c ****  *     - Initial version<br>
  38:C:/Users/Yushev/git/optiga-trust-qi/projects/xmc4700_relax_kit/common/Dave/Generated\DAVE.c ****  * 2015-08-28:
  39:C:/Users/Yushev/git/optiga-trust-qi/projects/xmc4700_relax_kit/common/Dave/Generated\DAVE.c ****  *     - Added CLOCK_XMC1_Init conditionally
  40:C:/Users/Yushev/git/optiga-trust-qi/projects/xmc4700_relax_kit/common/Dave/Generated\DAVE.c ****  * 2018-08-08:
  41:C:/Users/Yushev/git/optiga-trust-qi/projects/xmc4700_relax_kit/common/Dave/Generated\DAVE.c ****  *     - Add creation of projectData.bak file
  42:C:/Users/Yushev/git/optiga-trust-qi/projects/xmc4700_relax_kit/common/Dave/Generated\DAVE.c ****  *
  43:C:/Users/Yushev/git/optiga-trust-qi/projects/xmc4700_relax_kit/common/Dave/Generated\DAVE.c ****  * @endcond
  44:C:/Users/Yushev/git/optiga-trust-qi/projects/xmc4700_relax_kit/common/Dave/Generated\DAVE.c ****  *
  45:C:/Users/Yushev/git/optiga-trust-qi/projects/xmc4700_relax_kit/common/Dave/Generated\DAVE.c ****  */
  46:C:/Users/Yushev/git/optiga-trust-qi/projects/xmc4700_relax_kit/common/Dave/Generated\DAVE.c **** 
  47:C:/Users/Yushev/git/optiga-trust-qi/projects/xmc4700_relax_kit/common/Dave/Generated\DAVE.c **** /**************************************************************************************************
  48:C:/Users/Yushev/git/optiga-trust-qi/projects/xmc4700_relax_kit/common/Dave/Generated\DAVE.c ****  * HEADER FILES
  49:C:/Users/Yushev/git/optiga-trust-qi/projects/xmc4700_relax_kit/common/Dave/Generated\DAVE.c ****  **************************************************************************************************
  50:C:/Users/Yushev/git/optiga-trust-qi/projects/xmc4700_relax_kit/common/Dave/Generated\DAVE.c **** #include "DAVE.h"
  51:C:/Users/Yushev/git/optiga-trust-qi/projects/xmc4700_relax_kit/common/Dave/Generated\DAVE.c **** 
  52:C:/Users/Yushev/git/optiga-trust-qi/projects/xmc4700_relax_kit/common/Dave/Generated\DAVE.c **** /**************************************************************************************************
  53:C:/Users/Yushev/git/optiga-trust-qi/projects/xmc4700_relax_kit/common/Dave/Generated\DAVE.c ****  * API IMPLEMENTATION
  54:C:/Users/Yushev/git/optiga-trust-qi/projects/xmc4700_relax_kit/common/Dave/Generated\DAVE.c ****  **************************************************************************************************
  55:C:/Users/Yushev/git/optiga-trust-qi/projects/xmc4700_relax_kit/common/Dave/Generated\DAVE.c **** 
  56:C:/Users/Yushev/git/optiga-trust-qi/projects/xmc4700_relax_kit/common/Dave/Generated\DAVE.c **** /*******************************************************************************
  57:C:/Users/Yushev/git/optiga-trust-qi/projects/xmc4700_relax_kit/common/Dave/Generated\DAVE.c ****  * @brief This function initializes the APPs Init Functions.
  58:C:/Users/Yushev/git/optiga-trust-qi/projects/xmc4700_relax_kit/common/Dave/Generated\DAVE.c ****  *
  59:C:/Users/Yushev/git/optiga-trust-qi/projects/xmc4700_relax_kit/common/Dave/Generated\DAVE.c ****  * @param[in]  None
  60:C:/Users/Yushev/git/optiga-trust-qi/projects/xmc4700_relax_kit/common/Dave/Generated\DAVE.c ****  *
  61:C:/Users/Yushev/git/optiga-trust-qi/projects/xmc4700_relax_kit/common/Dave/Generated\DAVE.c ****  * @return  DAVE_STATUS_t <BR>
  62:C:/Users/Yushev/git/optiga-trust-qi/projects/xmc4700_relax_kit/common/Dave/Generated\DAVE.c ****  ******************************************************************************/
  63:C:/Users/Yushev/git/optiga-trust-qi/projects/xmc4700_relax_kit/common/Dave/Generated\DAVE.c **** DAVE_STATUS_t DAVE_Init(void)
  64:C:/Users/Yushev/git/optiga-trust-qi/projects/xmc4700_relax_kit/common/Dave/Generated\DAVE.c **** {
  28              	 .loc 1 64 0
  29              	 .cfi_startproc
  30              	 
  31              	 
  32              	.LVL0:
  33 0000 08B5     	 push {r3,lr}
  34              	.LCFI0:
  35              	 .cfi_def_cfa_offset 8
  36              	 .cfi_offset 3,-8
  37              	 .cfi_offset 14,-4
  65:C:/Users/Yushev/git/optiga-trust-qi/projects/xmc4700_relax_kit/common/Dave/Generated\DAVE.c ****   DAVE_STATUS_t init_status;
  66:C:/Users/Yushev/git/optiga-trust-qi/projects/xmc4700_relax_kit/common/Dave/Generated\DAVE.c ****   
  67:C:/Users/Yushev/git/optiga-trust-qi/projects/xmc4700_relax_kit/common/Dave/Generated\DAVE.c ****   init_status = DAVE_STATUS_SUCCESS;
  68:C:/Users/Yushev/git/optiga-trust-qi/projects/xmc4700_relax_kit/common/Dave/Generated\DAVE.c ****      /** @Initialization of APPs Init Functions */
  69:C:/Users/Yushev/git/optiga-trust-qi/projects/xmc4700_relax_kit/common/Dave/Generated\DAVE.c ****      init_status = (DAVE_STATUS_t)CLOCK_XMC4_Init(&CLOCK_XMC4_0);
  38              	 .loc 1 69 0
  39 0002 1548     	 ldr r0,.L11
  40 0004 FFF7FEFF 	 bl CLOCK_XMC4_Init
  41              	.LVL1:
  70:C:/Users/Yushev/git/optiga-trust-qi/projects/xmc4700_relax_kit/common/Dave/Generated\DAVE.c **** 
  71:C:/Users/Yushev/git/optiga-trust-qi/projects/xmc4700_relax_kit/common/Dave/Generated\DAVE.c ****   if (init_status == DAVE_STATUS_SUCCESS)
  42              	 .loc 1 71 0
  43 0008 20BB     	 cbnz r0,.L9
  72:C:/Users/Yushev/git/optiga-trust-qi/projects/xmc4700_relax_kit/common/Dave/Generated\DAVE.c ****   {
  73:C:/Users/Yushev/git/optiga-trust-qi/projects/xmc4700_relax_kit/common/Dave/Generated\DAVE.c **** 	 /**  Initialization of I2C_MASTER APP instance i2c_master_0 */
  74:C:/Users/Yushev/git/optiga-trust-qi/projects/xmc4700_relax_kit/common/Dave/Generated\DAVE.c **** 	 init_status = (DAVE_STATUS_t)I2C_MASTER_Init(&i2c_master_0); 
  44              	 .loc 1 74 0
  45 000a 1448     	 ldr r0,.L11+4
  46              	.LVL2:
  47 000c FFF7FEFF 	 bl I2C_MASTER_Init
  48              	.LVL3:
  75:C:/Users/Yushev/git/optiga-trust-qi/projects/xmc4700_relax_kit/common/Dave/Generated\DAVE.c ****    } 
  76:C:/Users/Yushev/git/optiga-trust-qi/projects/xmc4700_relax_kit/common/Dave/Generated\DAVE.c ****   if (init_status == DAVE_STATUS_SUCCESS)
  49              	 .loc 1 76 0
  50 0010 00BB     	 cbnz r0,.L9
  77:C:/Users/Yushev/git/optiga-trust-qi/projects/xmc4700_relax_kit/common/Dave/Generated\DAVE.c ****   {
  78:C:/Users/Yushev/git/optiga-trust-qi/projects/xmc4700_relax_kit/common/Dave/Generated\DAVE.c **** 	 /**  Initialization of DIGITAL_IO APP instance reset_pin */
  79:C:/Users/Yushev/git/optiga-trust-qi/projects/xmc4700_relax_kit/common/Dave/Generated\DAVE.c **** 	 init_status = (DAVE_STATUS_t)DIGITAL_IO_Init(&reset_pin); 
  51              	 .loc 1 79 0
  52 0012 1348     	 ldr r0,.L11+8
  53              	.LVL4:
  54 0014 FFF7FEFF 	 bl DIGITAL_IO_Init
  55              	.LVL5:
  80:C:/Users/Yushev/git/optiga-trust-qi/projects/xmc4700_relax_kit/common/Dave/Generated\DAVE.c ****    } 
  81:C:/Users/Yushev/git/optiga-trust-qi/projects/xmc4700_relax_kit/common/Dave/Generated\DAVE.c ****   if (init_status == DAVE_STATUS_SUCCESS)
  56              	 .loc 1 81 0
  57 0018 E0B9     	 cbnz r0,.L9
  82:C:/Users/Yushev/git/optiga-trust-qi/projects/xmc4700_relax_kit/common/Dave/Generated\DAVE.c ****   {
  83:C:/Users/Yushev/git/optiga-trust-qi/projects/xmc4700_relax_kit/common/Dave/Generated\DAVE.c **** 	 /**  Initialization of DIGITAL_IO APP instance vdd_pin */
  84:C:/Users/Yushev/git/optiga-trust-qi/projects/xmc4700_relax_kit/common/Dave/Generated\DAVE.c **** 	 init_status = (DAVE_STATUS_t)DIGITAL_IO_Init(&vdd_pin); 
  58              	 .loc 1 84 0
  59 001a 1248     	 ldr r0,.L11+12
  60              	.LVL6:
  61 001c FFF7FEFF 	 bl DIGITAL_IO_Init
  62              	.LVL7:
  85:C:/Users/Yushev/git/optiga-trust-qi/projects/xmc4700_relax_kit/common/Dave/Generated\DAVE.c ****    } 
  86:C:/Users/Yushev/git/optiga-trust-qi/projects/xmc4700_relax_kit/common/Dave/Generated\DAVE.c ****   if (init_status == DAVE_STATUS_SUCCESS)
  63              	 .loc 1 86 0
  64 0020 C0B9     	 cbnz r0,.L9
  87:C:/Users/Yushev/git/optiga-trust-qi/projects/xmc4700_relax_kit/common/Dave/Generated\DAVE.c ****   {
  88:C:/Users/Yushev/git/optiga-trust-qi/projects/xmc4700_relax_kit/common/Dave/Generated\DAVE.c **** 	 /**  Initialization of USBD_VCOM APP instance console_logger */
  89:C:/Users/Yushev/git/optiga-trust-qi/projects/xmc4700_relax_kit/common/Dave/Generated\DAVE.c **** 	 init_status = (DAVE_STATUS_t)USBD_VCOM_Init(&console_logger); 
  65              	 .loc 1 89 0
  66 0022 1148     	 ldr r0,.L11+16
  67              	.LVL8:
  68 0024 FFF7FEFF 	 bl USBD_VCOM_Init
  69              	.LVL9:
  90:C:/Users/Yushev/git/optiga-trust-qi/projects/xmc4700_relax_kit/common/Dave/Generated\DAVE.c ****    } 
  91:C:/Users/Yushev/git/optiga-trust-qi/projects/xmc4700_relax_kit/common/Dave/Generated\DAVE.c ****   if (init_status == DAVE_STATUS_SUCCESS)
  70              	 .loc 1 91 0
  71 0028 A0B9     	 cbnz r0,.L9
  92:C:/Users/Yushev/git/optiga-trust-qi/projects/xmc4700_relax_kit/common/Dave/Generated\DAVE.c ****   {
  93:C:/Users/Yushev/git/optiga-trust-qi/projects/xmc4700_relax_kit/common/Dave/Generated\DAVE.c **** 	 /**  Initialization of UART APP instance cunit_logger */
  94:C:/Users/Yushev/git/optiga-trust-qi/projects/xmc4700_relax_kit/common/Dave/Generated\DAVE.c **** 	 init_status = (DAVE_STATUS_t)UART_Init(&cunit_logger); 
  72              	 .loc 1 94 0
  73 002a 1048     	 ldr r0,.L11+20
  74              	.LVL10:
  75 002c FFF7FEFF 	 bl UART_Init
  76              	.LVL11:
  95:C:/Users/Yushev/git/optiga-trust-qi/projects/xmc4700_relax_kit/common/Dave/Generated\DAVE.c ****    } 
  96:C:/Users/Yushev/git/optiga-trust-qi/projects/xmc4700_relax_kit/common/Dave/Generated\DAVE.c ****   if (init_status == DAVE_STATUS_SUCCESS)
  77              	 .loc 1 96 0
  78 0030 80B9     	 cbnz r0,.L9
  97:C:/Users/Yushev/git/optiga-trust-qi/projects/xmc4700_relax_kit/common/Dave/Generated\DAVE.c ****   {
  98:C:/Users/Yushev/git/optiga-trust-qi/projects/xmc4700_relax_kit/common/Dave/Generated\DAVE.c **** 	 /**  Initialization of TIMER APP instance tick_timer */
  99:C:/Users/Yushev/git/optiga-trust-qi/projects/xmc4700_relax_kit/common/Dave/Generated\DAVE.c **** 	 init_status = (DAVE_STATUS_t)TIMER_Init(&tick_timer); 
  79              	 .loc 1 99 0
  80 0032 0F48     	 ldr r0,.L11+24
  81              	.LVL12:
  82 0034 FFF7FEFF 	 bl TIMER_Init
  83              	.LVL13:
 100:C:/Users/Yushev/git/optiga-trust-qi/projects/xmc4700_relax_kit/common/Dave/Generated\DAVE.c ****    } 
 101:C:/Users/Yushev/git/optiga-trust-qi/projects/xmc4700_relax_kit/common/Dave/Generated\DAVE.c ****   if (init_status == DAVE_STATUS_SUCCESS)
  84              	 .loc 1 101 0
  85 0038 60B9     	 cbnz r0,.L9
 102:C:/Users/Yushev/git/optiga-trust-qi/projects/xmc4700_relax_kit/common/Dave/Generated\DAVE.c ****   {
 103:C:/Users/Yushev/git/optiga-trust-qi/projects/xmc4700_relax_kit/common/Dave/Generated\DAVE.c **** 	 /**  Initialization of INTERRUPT APP instance tick_timer_intr */
 104:C:/Users/Yushev/git/optiga-trust-qi/projects/xmc4700_relax_kit/common/Dave/Generated\DAVE.c **** 	 init_status = (DAVE_STATUS_t)INTERRUPT_Init(&tick_timer_intr); 
  86              	 .loc 1 104 0
  87 003a 0E48     	 ldr r0,.L11+28
  88              	.LVL14:
  89 003c FFF7FEFF 	 bl INTERRUPT_Init
  90              	.LVL15:
 105:C:/Users/Yushev/git/optiga-trust-qi/projects/xmc4700_relax_kit/common/Dave/Generated\DAVE.c ****    } 
 106:C:/Users/Yushev/git/optiga-trust-qi/projects/xmc4700_relax_kit/common/Dave/Generated\DAVE.c ****   if (init_status == DAVE_STATUS_SUCCESS)
  91              	 .loc 1 106 0
  92 0040 40B9     	 cbnz r0,.L9
 107:C:/Users/Yushev/git/optiga-trust-qi/projects/xmc4700_relax_kit/common/Dave/Generated\DAVE.c ****   {
 108:C:/Users/Yushev/git/optiga-trust-qi/projects/xmc4700_relax_kit/common/Dave/Generated\DAVE.c **** 	 /**  Initialization of INTERRUPT APP instance scheduler_timer_intr */
 109:C:/Users/Yushev/git/optiga-trust-qi/projects/xmc4700_relax_kit/common/Dave/Generated\DAVE.c **** 	 init_status = (DAVE_STATUS_t)INTERRUPT_Init(&scheduler_timer_intr); 
  93              	 .loc 1 109 0
  94 0042 0D48     	 ldr r0,.L11+32
  95              	.LVL16:
  96 0044 FFF7FEFF 	 bl INTERRUPT_Init
  97              	.LVL17:
 110:C:/Users/Yushev/git/optiga-trust-qi/projects/xmc4700_relax_kit/common/Dave/Generated\DAVE.c ****    } 
 111:C:/Users/Yushev/git/optiga-trust-qi/projects/xmc4700_relax_kit/common/Dave/Generated\DAVE.c ****   if (init_status == DAVE_STATUS_SUCCESS)
  98              	 .loc 1 111 0
  99 0048 20B9     	 cbnz r0,.L9
 112:C:/Users/Yushev/git/optiga-trust-qi/projects/xmc4700_relax_kit/common/Dave/Generated\DAVE.c ****   {
 113:C:/Users/Yushev/git/optiga-trust-qi/projects/xmc4700_relax_kit/common/Dave/Generated\DAVE.c **** 	 /**  Initialization of TIMER APP instance scheduler_timer */
 114:C:/Users/Yushev/git/optiga-trust-qi/projects/xmc4700_relax_kit/common/Dave/Generated\DAVE.c **** 	 init_status = (DAVE_STATUS_t)TIMER_Init(&scheduler_timer); 
 100              	 .loc 1 114 0
 101 004a 0C48     	 ldr r0,.L11+36
 102              	.LVL18:
 115:C:/Users/Yushev/git/optiga-trust-qi/projects/xmc4700_relax_kit/common/Dave/Generated\DAVE.c ****    }  
 116:C:/Users/Yushev/git/optiga-trust-qi/projects/xmc4700_relax_kit/common/Dave/Generated\DAVE.c ****   return init_status;
 117:C:/Users/Yushev/git/optiga-trust-qi/projects/xmc4700_relax_kit/common/Dave/Generated\DAVE.c **** } /**  End of function DAVE_Init */
 103              	 .loc 1 117 0
 104 004c BDE80840 	 pop {r3,lr}
 105              	.LCFI1:
 106              	 .cfi_remember_state
 107              	 .cfi_restore 14
 108              	 .cfi_restore 3
 109              	 .cfi_def_cfa_offset 0
 114:C:/Users/Yushev/git/optiga-trust-qi/projects/xmc4700_relax_kit/common/Dave/Generated\DAVE.c ****    }  
 110              	 .loc 1 114 0
 111 0050 FFF7FEBF 	 b TIMER_Init
 112              	.LVL19:
 113              	.L9:
 114              	.LCFI2:
 115              	 .cfi_restore_state
 116              	 .loc 1 117 0
 117 0054 08BD     	 pop {r3,pc}
 118              	.L12:
 119 0056 00BF     	 .align 2
 120              	.L11:
 121 0058 00000000 	 .word CLOCK_XMC4_0
 122 005c 00000000 	 .word i2c_master_0
 123 0060 00000000 	 .word reset_pin
 124 0064 00000000 	 .word vdd_pin
 125 0068 00000000 	 .word console_logger
 126 006c 00000000 	 .word cunit_logger
 127 0070 00000000 	 .word tick_timer
 128 0074 00000000 	 .word tick_timer_intr
 129 0078 00000000 	 .word scheduler_timer_intr
 130 007c 00000000 	 .word scheduler_timer
 131              	 .cfi_endproc
 132              	.LFE387:
 134              	 .text
 135              	.Letext0:
 136              	 .file 2 "c:\\users\\yushev\\dave_4-4-2_32bit_2018-02-23\\dave-ide-4.4.2-32bit\\eclipse\\arm-gcc-49\\arm-none-eabi\\include\\machine\\_default_types.h"
 137              	 .file 3 "c:\\users\\yushev\\dave_4-4-2_32bit_2018-02-23\\dave-ide-4.4.2-32bit\\eclipse\\arm-gcc-49\\arm-none-eabi\\include\\stdint.h"
 138              	 .file 4 "C:/Users/Yushev/git/optiga-trust-qi/projects/xmc4700_relax_kit/common/Libraries/CMSIS/Infineon/XMC4700_series/Include/XMC4700.h"
 139              	 .file 5 "C:/Users/Yushev/git/optiga-trust-qi/projects/xmc4700_relax_kit/common/Libraries/XMCLib/inc/xmc4_scu.h"
 140              	 .file 6 "C:/Users/Yushev/git/optiga-trust-qi/projects/xmc4700_relax_kit/common/Libraries/XMCLib/inc/xmc_gpio.h"
 141              	 .file 7 "C:/Users/Yushev/git/optiga-trust-qi/projects/xmc4700_relax_kit/common/Libraries/XMCLib/inc/xmc4_gpio.h"
 142              	 .file 8 "C:/Users/Yushev/git/optiga-trust-qi/projects/xmc4700_relax_kit/common/Dave/Generated/CLOCK_XMC4/clock_xmc4.h"
 143              	 .file 9 "C:/Users/Yushev/git/optiga-trust-qi/projects/xmc4700_relax_kit/common/Libraries/XMCLib/inc/xmc_usic.h"
 144              	 .file 10 "C:/Users/Yushev/git/optiga-trust-qi/projects/xmc4700_relax_kit/common/Libraries/XMCLib/inc/xmc_i2c.h"
 145              	 .file 11 "C:/Users/Yushev/git/optiga-trust-qi/projects/xmc4700_relax_kit/common/Dave/Generated/I2C_MASTER/i2c_master.h"
 146              	 .file 12 "C:/Users/Yushev/git/optiga-trust-qi/projects/xmc4700_relax_kit/common/Dave/Generated/DIGITAL_IO/digital_io.h"
 147              	 .file 13 "C:/Users/Yushev/git/optiga-trust-qi/projects/xmc4700_relax_kit/common/Libraries/XMCLib/inc/xmc_usbd_regs.h"
 148              	 .file 14 "C:/Users/Yushev/git/optiga-trust-qi/projects/xmc4700_relax_kit/common/Libraries/XMCLib/inc/xmc_usbd.h"
 149              	 .file 15 "C:/Users/Yushev/git/optiga-trust-qi/projects/xmc4700_relax_kit/common/Dave/Generated/USBD/usbd.h"
 150              	 .file 16 "C:/Users/Yushev/git/optiga-trust-qi/projects/xmc4700_relax_kit/common/Dave/Generated/USBD_VCOM/usbd_vcom.h"
 151              	 .file 17 "C:/Users/Yushev/git/optiga-trust-qi/projects/xmc4700_relax_kit/common/Libraries/XMCLib/inc/xmc_uart.h"
 152              	 .file 18 "C:/Users/Yushev/git/optiga-trust-qi/projects/xmc4700_relax_kit/common/Dave/Generated/UART/uart.h"
 153              	 .file 19 "C:/Users/Yushev/git/optiga-trust-qi/projects/xmc4700_relax_kit/common/Libraries/XMCLib/inc/xmc_ccu4.h"
 154              	 .file 20 "C:/Users/Yushev/git/optiga-trust-qi/projects/xmc4700_relax_kit/common/Dave/Generated/GLOBAL_CCU4/global_ccu4.h"
 155              	 .file 21 "C:/Users/Yushev/git/optiga-trust-qi/projects/xmc4700_relax_kit/common/Dave/Generated/TIMER/timer.h"
 156              	 .file 22 "C:/Users/Yushev/git/optiga-trust-qi/projects/xmc4700_relax_kit/common/Dave/Generated/INTERRUPT/interrupt.h"
 157              	 .file 23 "C:/Users/Yushev/git/optiga-trust-qi/projects/xmc4700_relax_kit/common/Dave/Generated/DAVE.h"
 158              	 .file 24 "C:/Users/Yushev/git/optiga-trust-qi/projects/xmc4700_relax_kit/common/Libraries/CMSIS/Include/core_cm4.h"
 159              	 .file 25 "C:/Users/Yushev/git/optiga-trust-qi/projects/xmc4700_relax_kit/common/Libraries/CMSIS/Infineon/XMC4700_series/Include/system_XMC4700.h"
 160              	 .file 26 "C:/Users/Yushev/git/optiga-trust-qi/projects/xmc4700_relax_kit/common/Dave/Generated/CLOCK_XMC4/clock_xmc4_extern.h"
 161              	 .file 27 "C:/Users/Yushev/git/optiga-trust-qi/projects/xmc4700_relax_kit/common/Dave/Generated/I2C_MASTER/i2c_master_extern.h"
 162              	 .file 28 "C:/Users/Yushev/git/optiga-trust-qi/projects/xmc4700_relax_kit/common/Dave/Generated/DIGITAL_IO/digital_io_extern.h"
 163              	 .file 29 "C:/Users/Yushev/git/optiga-trust-qi/projects/xmc4700_relax_kit/common/Dave/Generated/USBD/usbd_extern.h"
 164              	 .file 30 "C:/Users/Yushev/git/optiga-trust-qi/projects/xmc4700_relax_kit/common/Dave/Generated/USBD_VCOM/usbd_vcom_extern.h"
 165              	 .file 31 "C:/Users/Yushev/git/optiga-trust-qi/projects/xmc4700_relax_kit/common/Dave/Generated/UART/uart_extern.h"
 166              	 .file 32 "C:/Users/Yushev/git/optiga-trust-qi/projects/xmc4700_relax_kit/common/Dave/Generated/TIMER/timer_extern.h"
 167              	 .file 33 "C:/Users/Yushev/git/optiga-trust-qi/projects/xmc4700_relax_kit/common/Dave/Generated/INTERRUPT/interrupt_extern.h"